ARM GAS  C:\Users\ikomb\AppData\Local\Temp\ccZFcZfB.s 			page 1


   1              		.syntax unified
   2              		.cpu cortex-m0plus
   3              		.fpu softvfp
   4              		.eabi_attribute 20, 1
   5              		.eabi_attribute 21, 1
   6              		.eabi_attribute 23, 3
   7              		.eabi_attribute 24, 1
   8              		.eabi_attribute 25, 1
   9              		.eabi_attribute 26, 1
  10              		.eabi_attribute 30, 1
  11              		.eabi_attribute 34, 0
  12              		.eabi_attribute 18, 4
  13              		.thumb
  14              		.syntax unified
  15              		.file	"CapSense_Filter.c"
  16              		.text
  17              	.Ltext0:
  18              		.cfi_sections	.debug_frame
  19              		.section	.text.CapSense_FtInitializeBaselineChannel,"ax",%progbits
  20              		.align	2
  21              		.global	CapSense_FtInitializeBaselineChannel
  22              		.code	16
  23              		.thumb_func
  24              		.type	CapSense_FtInitializeBaselineChannel, %function
  25              	CapSense_FtInitializeBaselineChannel:
  26              	.LFB45:
  27              		.file 1 "Generated_Source\\PSoC6\\CapSense_Filter.c"
   1:Generated_Source\PSoC6/CapSense_Filter.c **** /***************************************************************************//**
   2:Generated_Source\PSoC6/CapSense_Filter.c **** * \file CapSense_Filter.c
   3:Generated_Source\PSoC6/CapSense_Filter.c **** * \version 2.0
   4:Generated_Source\PSoC6/CapSense_Filter.c **** *
   5:Generated_Source\PSoC6/CapSense_Filter.c **** * \brief
   6:Generated_Source\PSoC6/CapSense_Filter.c **** *   This file contains the implementation source code to implement all
   7:Generated_Source\PSoC6/CapSense_Filter.c **** *   firmware filters.
   8:Generated_Source\PSoC6/CapSense_Filter.c **** *
   9:Generated_Source\PSoC6/CapSense_Filter.c **** * \see CapSense v2.0 Datasheet
  10:Generated_Source\PSoC6/CapSense_Filter.c **** *
  11:Generated_Source\PSoC6/CapSense_Filter.c **** *//*****************************************************************************
  12:Generated_Source\PSoC6/CapSense_Filter.c **** * Copyright (2016-2017), Cypress Semiconductor Corporation.
  13:Generated_Source\PSoC6/CapSense_Filter.c **** ********************************************************************************
  14:Generated_Source\PSoC6/CapSense_Filter.c **** * This software is owned by Cypress Semiconductor Corporation (Cypress) and is
  15:Generated_Source\PSoC6/CapSense_Filter.c **** * protected by and subject to worldwide patent protection (United States and
  16:Generated_Source\PSoC6/CapSense_Filter.c **** * foreign), United States copyright laws and international treaty provisions.
  17:Generated_Source\PSoC6/CapSense_Filter.c **** * Cypress hereby grants to licensee a personal, non-exclusive, non-transferable
  18:Generated_Source\PSoC6/CapSense_Filter.c **** * license to copy, use, modify, create derivative works of, and compile the
  19:Generated_Source\PSoC6/CapSense_Filter.c **** * Cypress Source Code and derivative works for the sole purpose of creating
  20:Generated_Source\PSoC6/CapSense_Filter.c **** * custom software in support of licensee product to be used only in conjunction
  21:Generated_Source\PSoC6/CapSense_Filter.c **** * with a Cypress integrated circuit as specified in the applicable agreement.
  22:Generated_Source\PSoC6/CapSense_Filter.c **** * Any reproduction, modification, translation, compilation, or representation of
  23:Generated_Source\PSoC6/CapSense_Filter.c **** * this software except as specified above is prohibited without the express
  24:Generated_Source\PSoC6/CapSense_Filter.c **** * written permission of Cypress.
  25:Generated_Source\PSoC6/CapSense_Filter.c **** *
  26:Generated_Source\PSoC6/CapSense_Filter.c **** * Disclaimer: CYPRESS MAKES NO WARRANTY OF ANY KIND, EXPRESS OR IMPLIED, WITH
  27:Generated_Source\PSoC6/CapSense_Filter.c **** * REGARD TO THIS MATERIAL, INCLUDING, BUT NOT LIMITED TO, THE IMPLIED
  28:Generated_Source\PSoC6/CapSense_Filter.c **** * WARRANTIES OF MERCHANTABILITY AND FITNESS FOR A PARTICULAR PURPOSE.
  29:Generated_Source\PSoC6/CapSense_Filter.c **** * Cypress reserves the right to make changes without further notice to the
  30:Generated_Source\PSoC6/CapSense_Filter.c **** * materials described herein. Cypress does not assume any liability arising out
ARM GAS  C:\Users\ikomb\AppData\Local\Temp\ccZFcZfB.s 			page 2


  31:Generated_Source\PSoC6/CapSense_Filter.c **** * of the application or use of any product or circuit described herein. Cypress
  32:Generated_Source\PSoC6/CapSense_Filter.c **** * does not authorize its products for use as critical components in life-support
  33:Generated_Source\PSoC6/CapSense_Filter.c **** * systems where a malfunction or failure may reasonably be expected to result in
  34:Generated_Source\PSoC6/CapSense_Filter.c **** * significant injury to the user. The inclusion of Cypress' product in a life-
  35:Generated_Source\PSoC6/CapSense_Filter.c **** * support systems application implies that the manufacturer assumes all risk of
  36:Generated_Source\PSoC6/CapSense_Filter.c **** * such use and in doing so indemnifies Cypress against all charges. Use may be
  37:Generated_Source\PSoC6/CapSense_Filter.c **** * limited by and subject to the applicable Cypress software license agreement.
  38:Generated_Source\PSoC6/CapSense_Filter.c **** *******************************************************************************/
  39:Generated_Source\PSoC6/CapSense_Filter.c **** 
  40:Generated_Source\PSoC6/CapSense_Filter.c **** #include "stddef.h"
  41:Generated_Source\PSoC6/CapSense_Filter.c **** #include "CapSense_Filter.h"
  42:Generated_Source\PSoC6/CapSense_Filter.c **** #include "CapSense_Configuration.h"
  43:Generated_Source\PSoC6/CapSense_Filter.c **** 
  44:Generated_Source\PSoC6/CapSense_Filter.c **** #if (0 != (CapSense_CSD_AUTOTUNE & CapSense_CSD_SS_TH_EN))
  45:Generated_Source\PSoC6/CapSense_Filter.c ****     #include "CapSense_SmartSense_LL.h"
  46:Generated_Source\PSoC6/CapSense_Filter.c **** #endif /* (0 != (CapSense_CSD_AUTOTUNE & CapSense_CSD_SS_TH_EN)) */
  47:Generated_Source\PSoC6/CapSense_Filter.c **** 
  48:Generated_Source\PSoC6/CapSense_Filter.c **** #if (CapSense_ENABLE == CapSense_SELF_TEST_EN)
  49:Generated_Source\PSoC6/CapSense_Filter.c ****     #include "CapSense_SelfTest.h"
  50:Generated_Source\PSoC6/CapSense_Filter.c **** #endif
  51:Generated_Source\PSoC6/CapSense_Filter.c **** 
  52:Generated_Source\PSoC6/CapSense_Filter.c **** /*******************************************************************************
  53:Generated_Source\PSoC6/CapSense_Filter.c **** * Function Name: CapSense_FtInitialize
  54:Generated_Source\PSoC6/CapSense_Filter.c **** ****************************************************************************//**
  55:Generated_Source\PSoC6/CapSense_Filter.c **** *
  56:Generated_Source\PSoC6/CapSense_Filter.c **** * \brief
  57:Generated_Source\PSoC6/CapSense_Filter.c **** *    Initializes all the firmware filter history, except the baseline filter.
  58:Generated_Source\PSoC6/CapSense_Filter.c **** *
  59:Generated_Source\PSoC6/CapSense_Filter.c **** * \details
  60:Generated_Source\PSoC6/CapSense_Filter.c **** *    Initializes all the firmware filter history, except the baseline filter.
  61:Generated_Source\PSoC6/CapSense_Filter.c **** *
  62:Generated_Source\PSoC6/CapSense_Filter.c **** *******************************************************************************/
  63:Generated_Source\PSoC6/CapSense_Filter.c **** void CapSense_FtInitialize(void)
  64:Generated_Source\PSoC6/CapSense_Filter.c **** {
  65:Generated_Source\PSoC6/CapSense_Filter.c ****     #if ((CapSense_ENABLE == CapSense_RC_FILTER_EN) || \
  66:Generated_Source\PSoC6/CapSense_Filter.c ****          (0u != (CapSense_CSD_AUTOTUNE & CapSense_CSD_SS_TH_EN)))
  67:Generated_Source\PSoC6/CapSense_Filter.c ****         CapSense_InitializeAllFilters();
  68:Generated_Source\PSoC6/CapSense_Filter.c ****     #endif /* ((CapSense_ENABLE == CapSense_RC_FILTER_EN) || \
  69:Generated_Source\PSoC6/CapSense_Filter.c ****                (0u != (CapSense_CSD_AUTOTUNE & CapSense_CSD_SS_TH_EN))) */
  70:Generated_Source\PSoC6/CapSense_Filter.c **** }
  71:Generated_Source\PSoC6/CapSense_Filter.c **** 
  72:Generated_Source\PSoC6/CapSense_Filter.c **** 
  73:Generated_Source\PSoC6/CapSense_Filter.c **** /*******************************************************************************
  74:Generated_Source\PSoC6/CapSense_Filter.c **** * Function Name: CapSense_UpdateAllBaselines
  75:Generated_Source\PSoC6/CapSense_Filter.c **** ****************************************************************************//**
  76:Generated_Source\PSoC6/CapSense_Filter.c **** *
  77:Generated_Source\PSoC6/CapSense_Filter.c **** * \brief
  78:Generated_Source\PSoC6/CapSense_Filter.c **** *  Updates the baseline for all the sensors in all the widgets.
  79:Generated_Source\PSoC6/CapSense_Filter.c **** *
  80:Generated_Source\PSoC6/CapSense_Filter.c **** * \details
  81:Generated_Source\PSoC6/CapSense_Filter.c **** *  Updates the baseline for all the sensors in all the widgets. Baseline updating is a
  82:Generated_Source\PSoC6/CapSense_Filter.c **** *  part of data processing performed by the process functions. So, no need to
  83:Generated_Source\PSoC6/CapSense_Filter.c **** *  call this function except a specific process flow is implemented.
  84:Generated_Source\PSoC6/CapSense_Filter.c **** *
  85:Generated_Source\PSoC6/CapSense_Filter.c **** *  This function ignores the value of the wdgtEnable register. Multiple calling
  86:Generated_Source\PSoC6/CapSense_Filter.c **** *  of this function (or any other function with a baseline updating task)
  87:Generated_Source\PSoC6/CapSense_Filter.c **** *  without scanning leads to unexpected behavior.
ARM GAS  C:\Users\ikomb\AppData\Local\Temp\ccZFcZfB.s 			page 3


  88:Generated_Source\PSoC6/CapSense_Filter.c **** *
  89:Generated_Source\PSoC6/CapSense_Filter.c **** *  If the Self-test library is enabled, this function executes the baseline duplication
  90:Generated_Source\PSoC6/CapSense_Filter.c **** *  test. Refer to CapSense_CheckBaselineDuplication() for details.
  91:Generated_Source\PSoC6/CapSense_Filter.c **** *
  92:Generated_Source\PSoC6/CapSense_Filter.c **** * \return
  93:Generated_Source\PSoC6/CapSense_Filter.c **** *  Returns the status of the update baseline operation of all the widgets:
  94:Generated_Source\PSoC6/CapSense_Filter.c **** *  - CY_RET_SUCCESS - The operation is successfully completed.
  95:Generated_Source\PSoC6/CapSense_Filter.c **** *  - CY_RET_BAD_DATA - The baseline processing failed.
  96:Generated_Source\PSoC6/CapSense_Filter.c **** *
  97:Generated_Source\PSoC6/CapSense_Filter.c **** *******************************************************************************/
  98:Generated_Source\PSoC6/CapSense_Filter.c **** cy_status CapSense_UpdateAllBaselines(void)
  99:Generated_Source\PSoC6/CapSense_Filter.c **** {
 100:Generated_Source\PSoC6/CapSense_Filter.c ****     uint32 widgetId;
 101:Generated_Source\PSoC6/CapSense_Filter.c ****     cy_status bslnStatus = CY_RET_SUCCESS;
 102:Generated_Source\PSoC6/CapSense_Filter.c **** 
 103:Generated_Source\PSoC6/CapSense_Filter.c ****     for(widgetId = CapSense_TOTAL_WIDGETS; widgetId-- > 0u;)
 104:Generated_Source\PSoC6/CapSense_Filter.c ****     {
 105:Generated_Source\PSoC6/CapSense_Filter.c ****         bslnStatus |= CapSense_UpdateWidgetBaseline(widgetId);
 106:Generated_Source\PSoC6/CapSense_Filter.c ****     }
 107:Generated_Source\PSoC6/CapSense_Filter.c **** 
 108:Generated_Source\PSoC6/CapSense_Filter.c ****     return(bslnStatus);
 109:Generated_Source\PSoC6/CapSense_Filter.c **** }
 110:Generated_Source\PSoC6/CapSense_Filter.c **** 
 111:Generated_Source\PSoC6/CapSense_Filter.c **** 
 112:Generated_Source\PSoC6/CapSense_Filter.c **** /*******************************************************************************
 113:Generated_Source\PSoC6/CapSense_Filter.c **** * Function Name: CapSense_UpdateWidgetBaseline
 114:Generated_Source\PSoC6/CapSense_Filter.c **** ****************************************************************************//**
 115:Generated_Source\PSoC6/CapSense_Filter.c **** *
 116:Generated_Source\PSoC6/CapSense_Filter.c **** * \brief
 117:Generated_Source\PSoC6/CapSense_Filter.c **** *  Updates the baselines for all the sensors in a widget specified by the input parameter.
 118:Generated_Source\PSoC6/CapSense_Filter.c **** *
 119:Generated_Source\PSoC6/CapSense_Filter.c **** * \details
 120:Generated_Source\PSoC6/CapSense_Filter.c **** *  This function performs exactly the same tasks as
 121:Generated_Source\PSoC6/CapSense_Filter.c **** *  CapSense_UpdateAllBaselines() but only for a specified widget.
 122:Generated_Source\PSoC6/CapSense_Filter.c **** *
 123:Generated_Source\PSoC6/CapSense_Filter.c **** *  This function ignores the value of the wdgtEnable register. Multiple calling
 124:Generated_Source\PSoC6/CapSense_Filter.c **** *  of this function (or any other function with a baseline updating task)
 125:Generated_Source\PSoC6/CapSense_Filter.c **** *  without scanning leads to unexpected behavior.
 126:Generated_Source\PSoC6/CapSense_Filter.c **** *
 127:Generated_Source\PSoC6/CapSense_Filter.c **** *  If the Self-test library is enabled, this function executes the baseline duplication
 128:Generated_Source\PSoC6/CapSense_Filter.c **** *  test. Refer to CapSense_CheckBaselineDuplication() for details.
 129:Generated_Source\PSoC6/CapSense_Filter.c **** *
 130:Generated_Source\PSoC6/CapSense_Filter.c **** * \param widgetId
 131:Generated_Source\PSoC6/CapSense_Filter.c **** *  Specifies the ID number of the widget to update the baseline of all the sensors
 132:Generated_Source\PSoC6/CapSense_Filter.c **** *  in the widget.
 133:Generated_Source\PSoC6/CapSense_Filter.c **** *  A macro for the widget ID can be found in the
 134:Generated_Source\PSoC6/CapSense_Filter.c **** *  CapSense Configuration header file defined as
 135:Generated_Source\PSoC6/CapSense_Filter.c **** *  CapSense_<WidgetName>_WDGT_ID.
 136:Generated_Source\PSoC6/CapSense_Filter.c **** *
 137:Generated_Source\PSoC6/CapSense_Filter.c **** * \return
 138:Generated_Source\PSoC6/CapSense_Filter.c **** *  Returns the status of the specified widget update baseline operation:
 139:Generated_Source\PSoC6/CapSense_Filter.c **** *  - CY_RET_SUCCESS - The operation is successfully completed.
 140:Generated_Source\PSoC6/CapSense_Filter.c **** *  - CY_RET_BAD_DATA - The baseline processing failed.
 141:Generated_Source\PSoC6/CapSense_Filter.c **** *
 142:Generated_Source\PSoC6/CapSense_Filter.c **** *******************************************************************************/
 143:Generated_Source\PSoC6/CapSense_Filter.c **** cy_status CapSense_UpdateWidgetBaseline(uint32 widgetId)
 144:Generated_Source\PSoC6/CapSense_Filter.c **** {
ARM GAS  C:\Users\ikomb\AppData\Local\Temp\ccZFcZfB.s 			page 4


 145:Generated_Source\PSoC6/CapSense_Filter.c ****     uint32 sensorId;
 146:Generated_Source\PSoC6/CapSense_Filter.c ****     uint32 sensorsNumber;
 147:Generated_Source\PSoC6/CapSense_Filter.c **** 
 148:Generated_Source\PSoC6/CapSense_Filter.c ****     CapSense_FLASH_WD_STRUCT const *ptrWidget = &CapSense_dsFlash.wdgtArray[widgetId];
 149:Generated_Source\PSoC6/CapSense_Filter.c ****     cy_status bslnStatus = CY_RET_SUCCESS;
 150:Generated_Source\PSoC6/CapSense_Filter.c **** 
 151:Generated_Source\PSoC6/CapSense_Filter.c ****     /* Find total amount of sensors in specified widget */
 152:Generated_Source\PSoC6/CapSense_Filter.c ****     sensorsNumber = CapSense_GET_SNS_CNT_BY_PTR(ptrWidget);
 153:Generated_Source\PSoC6/CapSense_Filter.c **** 
 154:Generated_Source\PSoC6/CapSense_Filter.c ****     for(sensorId = sensorsNumber; sensorId-- > 0u;)
 155:Generated_Source\PSoC6/CapSense_Filter.c ****     {
 156:Generated_Source\PSoC6/CapSense_Filter.c ****         bslnStatus |= CapSense_UpdateSensorBaseline(widgetId, sensorId);
 157:Generated_Source\PSoC6/CapSense_Filter.c ****     }
 158:Generated_Source\PSoC6/CapSense_Filter.c **** 
 159:Generated_Source\PSoC6/CapSense_Filter.c ****     return(bslnStatus);
 160:Generated_Source\PSoC6/CapSense_Filter.c **** }
 161:Generated_Source\PSoC6/CapSense_Filter.c **** 
 162:Generated_Source\PSoC6/CapSense_Filter.c **** 
 163:Generated_Source\PSoC6/CapSense_Filter.c **** /*******************************************************************************
 164:Generated_Source\PSoC6/CapSense_Filter.c **** * Function Name: CapSense_UpdateSensorBaseline
 165:Generated_Source\PSoC6/CapSense_Filter.c **** ****************************************************************************//**
 166:Generated_Source\PSoC6/CapSense_Filter.c **** *
 167:Generated_Source\PSoC6/CapSense_Filter.c **** * \brief
 168:Generated_Source\PSoC6/CapSense_Filter.c **** *  Updates the baseline for a sensor in a widget specified by the input parameters.
 169:Generated_Source\PSoC6/CapSense_Filter.c **** *
 170:Generated_Source\PSoC6/CapSense_Filter.c **** * \details
 171:Generated_Source\PSoC6/CapSense_Filter.c **** *  This function performs exactly the same tasks as
 172:Generated_Source\PSoC6/CapSense_Filter.c **** *  CapSense_UpdateAllBaselines() and
 173:Generated_Source\PSoC6/CapSense_Filter.c **** *  CapSense_UpdateWidgetBaseline() but only for a specified sensor.
 174:Generated_Source\PSoC6/CapSense_Filter.c **** *
 175:Generated_Source\PSoC6/CapSense_Filter.c **** *  This function ignores the value of the wdgtEnable register. Multiple calling
 176:Generated_Source\PSoC6/CapSense_Filter.c **** *  of this function (or any other function with a baseline updating task)
 177:Generated_Source\PSoC6/CapSense_Filter.c **** *  without scanning leads to unexpected behavior.
 178:Generated_Source\PSoC6/CapSense_Filter.c **** *
 179:Generated_Source\PSoC6/CapSense_Filter.c **** *  If the Self-test library is enabled, this function executes the baseline duplication
 180:Generated_Source\PSoC6/CapSense_Filter.c **** *  test. Refer to CapSense_CheckBaselineDuplication() for details.
 181:Generated_Source\PSoC6/CapSense_Filter.c **** *
 182:Generated_Source\PSoC6/CapSense_Filter.c **** * \param   widgetId
 183:Generated_Source\PSoC6/CapSense_Filter.c **** *  Specifies the ID number of the widget to update the baseline of the sensor
 184:Generated_Source\PSoC6/CapSense_Filter.c **** *  specified by the sensorId argument.
 185:Generated_Source\PSoC6/CapSense_Filter.c **** *  A macro for the widget ID can be found in the CapSense Configuration header
 186:Generated_Source\PSoC6/CapSense_Filter.c **** *  file defined as CapSense_<WidgetName>_WDGT_ID.
 187:Generated_Source\PSoC6/CapSense_Filter.c **** *
 188:Generated_Source\PSoC6/CapSense_Filter.c **** * \param   sensorId
 189:Generated_Source\PSoC6/CapSense_Filter.c **** *  Specifies the ID number of the sensor within the widget to update its baseline.
 190:Generated_Source\PSoC6/CapSense_Filter.c **** *  A macro for the sensor ID within a specified widget can be found in the
 191:Generated_Source\PSoC6/CapSense_Filter.c **** *  CapSense Configuration header file defined as
 192:Generated_Source\PSoC6/CapSense_Filter.c **** *  CapSense_<WidgetName>_SNS<SensorNumber>_ID.
 193:Generated_Source\PSoC6/CapSense_Filter.c **** *
 194:Generated_Source\PSoC6/CapSense_Filter.c **** * \return
 195:Generated_Source\PSoC6/CapSense_Filter.c **** *  Returns the status of the specified sensor update baseline operation:
 196:Generated_Source\PSoC6/CapSense_Filter.c **** *  - CY_RET_SUCCESS - The operation is successfully completed.
 197:Generated_Source\PSoC6/CapSense_Filter.c **** *  - CY_RET_BAD_DATA - The baseline processing failed.
 198:Generated_Source\PSoC6/CapSense_Filter.c **** *
 199:Generated_Source\PSoC6/CapSense_Filter.c **** *******************************************************************************/
 200:Generated_Source\PSoC6/CapSense_Filter.c **** cy_status CapSense_UpdateSensorBaseline(uint32 widgetId, uint32 sensorId)
 201:Generated_Source\PSoC6/CapSense_Filter.c **** {
ARM GAS  C:\Users\ikomb\AppData\Local\Temp\ccZFcZfB.s 			page 5


 202:Generated_Source\PSoC6/CapSense_Filter.c ****     uint32 result = CY_RET_SUCCESS;
 203:Generated_Source\PSoC6/CapSense_Filter.c **** 
 204:Generated_Source\PSoC6/CapSense_Filter.c ****     CapSense_RAM_SNS_STRUCT *ptrSensor = NULL;
 205:Generated_Source\PSoC6/CapSense_Filter.c ****     CapSense_FLASH_WD_STRUCT const *ptrWidget = &CapSense_dsFlash.wdgtArray[widgetId];
 206:Generated_Source\PSoC6/CapSense_Filter.c ****     CapSense_RAM_WD_BASE_STRUCT *ptrWidgetRam = (CapSense_RAM_WD_BASE_STRUCT *)ptrWidget->ptr2WdgtR
 207:Generated_Source\PSoC6/CapSense_Filter.c **** 
 208:Generated_Source\PSoC6/CapSense_Filter.c ****     /* Find pointer to specified sensor object */
 209:Generated_Source\PSoC6/CapSense_Filter.c ****     ptrSensor = ptrWidget->ptr2SnsRam;
 210:Generated_Source\PSoC6/CapSense_Filter.c ****     ptrSensor = &ptrSensor[sensorId];
 211:Generated_Source\PSoC6/CapSense_Filter.c ****     result = CapSense_FtUpdateBaseline(ptrWidgetRam, ptrSensor, (uint32)ptrWidget->wdgtType);
 212:Generated_Source\PSoC6/CapSense_Filter.c **** 
 213:Generated_Source\PSoC6/CapSense_Filter.c ****     #if (CapSense_ENABLE == CapSense_TST_BSLN_DUPLICATION_EN)
 214:Generated_Source\PSoC6/CapSense_Filter.c ****         if (CY_RET_SUCCESS != result)
 215:Generated_Source\PSoC6/CapSense_Filter.c ****         {
 216:Generated_Source\PSoC6/CapSense_Filter.c ****             result = CY_RET_BAD_DATA;
 217:Generated_Source\PSoC6/CapSense_Filter.c ****             CapSense_UpdateTestResultBaselineDuplication(widgetId, sensorId);
 218:Generated_Source\PSoC6/CapSense_Filter.c ****         }
 219:Generated_Source\PSoC6/CapSense_Filter.c ****     #endif /* (CapSense_ENABLE == CapSense_TST_BSLN_DUPLICATION_EN) */
 220:Generated_Source\PSoC6/CapSense_Filter.c **** 
 221:Generated_Source\PSoC6/CapSense_Filter.c ****     return result;
 222:Generated_Source\PSoC6/CapSense_Filter.c **** }
 223:Generated_Source\PSoC6/CapSense_Filter.c **** 
 224:Generated_Source\PSoC6/CapSense_Filter.c **** /*******************************************************************************
 225:Generated_Source\PSoC6/CapSense_Filter.c **** * Function Name: CapSense_FtUpdateBaseline
 226:Generated_Source\PSoC6/CapSense_Filter.c **** ****************************************************************************//**
 227:Generated_Source\PSoC6/CapSense_Filter.c **** *
 228:Generated_Source\PSoC6/CapSense_Filter.c **** * \brief
 229:Generated_Source\PSoC6/CapSense_Filter.c **** *  Updates the baseline for a sensor specified by an input parameter.
 230:Generated_Source\PSoC6/CapSense_Filter.c **** *
 231:Generated_Source\PSoC6/CapSense_Filter.c **** * \details
 232:Generated_Source\PSoC6/CapSense_Filter.c **** *  Check a matching of present baseline and its inverse duplication. If they
 233:Generated_Source\PSoC6/CapSense_Filter.c **** *  match then updates the baseline for a sensor specified by an input parameter.
 234:Generated_Source\PSoC6/CapSense_Filter.c **** *  If don't match the function return CapSense_TST_BSLN_DUPLICATION
 235:Generated_Source\PSoC6/CapSense_Filter.c **** *  result and don't update baseline.
 236:Generated_Source\PSoC6/CapSense_Filter.c **** *
 237:Generated_Source\PSoC6/CapSense_Filter.c **** * \param    ptrWidgetRam
 238:Generated_Source\PSoC6/CapSense_Filter.c **** *  The pointer to the widget RAM structure where all the widget parameters
 239:Generated_Source\PSoC6/CapSense_Filter.c **** *  are stored.
 240:Generated_Source\PSoC6/CapSense_Filter.c **** *
 241:Generated_Source\PSoC6/CapSense_Filter.c **** * \param    ptrSensor
 242:Generated_Source\PSoC6/CapSense_Filter.c **** *  The pointer to the sensor RAM structure where all the sensor parameters
 243:Generated_Source\PSoC6/CapSense_Filter.c **** *  are stored.
 244:Generated_Source\PSoC6/CapSense_Filter.c **** *
 245:Generated_Source\PSoC6/CapSense_Filter.c **** * \param    wdType
 246:Generated_Source\PSoC6/CapSense_Filter.c **** *  Specifies the type of a widget.
 247:Generated_Source\PSoC6/CapSense_Filter.c **** *
 248:Generated_Source\PSoC6/CapSense_Filter.c **** * \return
 249:Generated_Source\PSoC6/CapSense_Filter.c **** *  Returns a status indicating whether the baseline has been updated:
 250:Generated_Source\PSoC6/CapSense_Filter.c **** *  - CY_RET_SUCCESS if baseline updating was successful;
 251:Generated_Source\PSoC6/CapSense_Filter.c **** *  - CapSense_PROCESS_BASELINE_FAILED if present sensor's any channel
 252:Generated_Source\PSoC6/CapSense_Filter.c **** *    baseline and its inversion doesn't matched
 253:Generated_Source\PSoC6/CapSense_Filter.c **** *
 254:Generated_Source\PSoC6/CapSense_Filter.c **** *******************************************************************************/
 255:Generated_Source\PSoC6/CapSense_Filter.c **** uint32 CapSense_FtUpdateBaseline(
 256:Generated_Source\PSoC6/CapSense_Filter.c ****                                 CapSense_RAM_WD_BASE_STRUCT *ptrWidgetRam,
 257:Generated_Source\PSoC6/CapSense_Filter.c ****                                 CapSense_RAM_SNS_STRUCT *ptrSensor,
 258:Generated_Source\PSoC6/CapSense_Filter.c ****                                 uint32 wdType)
ARM GAS  C:\Users\ikomb\AppData\Local\Temp\ccZFcZfB.s 			page 6


 259:Generated_Source\PSoC6/CapSense_Filter.c **** {
 260:Generated_Source\PSoC6/CapSense_Filter.c ****     uint32 sign;
 261:Generated_Source\PSoC6/CapSense_Filter.c ****     uint32 difference;
 262:Generated_Source\PSoC6/CapSense_Filter.c ****     uint32 freqChannel;
 263:Generated_Source\PSoC6/CapSense_Filter.c ****     uint32 baselineCoeff;
 264:Generated_Source\PSoC6/CapSense_Filter.c ****     uint32 result = CY_RET_SUCCESS;
 265:Generated_Source\PSoC6/CapSense_Filter.c **** 
 266:Generated_Source\PSoC6/CapSense_Filter.c ****     #if (CapSense_TOTAL_WIDGETS)
 267:Generated_Source\PSoC6/CapSense_Filter.c ****         uint32 history;
 268:Generated_Source\PSoC6/CapSense_Filter.c ****     #endif /* (CapSense_TOTAL_WIDGETS) */
 269:Generated_Source\PSoC6/CapSense_Filter.c **** 
 270:Generated_Source\PSoC6/CapSense_Filter.c ****     /* Apply baseline to every channel in sensor */
 271:Generated_Source\PSoC6/CapSense_Filter.c ****     for(freqChannel = CapSense_NUM_SCAN_FREQS; freqChannel-- > 0u;)
 272:Generated_Source\PSoC6/CapSense_Filter.c ****     {
 273:Generated_Source\PSoC6/CapSense_Filter.c ****         #if (CapSense_ENABLE == CapSense_TST_BSLN_DUPLICATION_EN)
 274:Generated_Source\PSoC6/CapSense_Filter.c ****             if (ptrSensor->bslnInv[freqChannel] != ((uint16) ~(ptrSensor->bsln[freqChannel])))
 275:Generated_Source\PSoC6/CapSense_Filter.c ****             {
 276:Generated_Source\PSoC6/CapSense_Filter.c ****                 result = CapSense_PROCESS_BASELINE_FAILED;
 277:Generated_Source\PSoC6/CapSense_Filter.c ****             }
 278:Generated_Source\PSoC6/CapSense_Filter.c ****             else
 279:Generated_Source\PSoC6/CapSense_Filter.c ****             {
 280:Generated_Source\PSoC6/CapSense_Filter.c ****         #endif /* (CapSense_ENABLE == CapSense_TST_BSLN_DUPLICATION_EN) */
 281:Generated_Source\PSoC6/CapSense_Filter.c **** 
 282:Generated_Source\PSoC6/CapSense_Filter.c ****         /* Calculate signal value and its sign */
 283:Generated_Source\PSoC6/CapSense_Filter.c ****         if(ptrSensor->raw[freqChannel] >= ptrSensor->bsln[freqChannel])
 284:Generated_Source\PSoC6/CapSense_Filter.c ****         {
 285:Generated_Source\PSoC6/CapSense_Filter.c ****             difference = (uint32)ptrSensor->raw[freqChannel] - (uint32)ptrSensor->bsln[freqChannel]
 286:Generated_Source\PSoC6/CapSense_Filter.c ****             sign = 1u;
 287:Generated_Source\PSoC6/CapSense_Filter.c ****             ptrSensor->negBslnRstCnt[freqChannel] = 0u;
 288:Generated_Source\PSoC6/CapSense_Filter.c ****         }
 289:Generated_Source\PSoC6/CapSense_Filter.c ****         else
 290:Generated_Source\PSoC6/CapSense_Filter.c ****         {
 291:Generated_Source\PSoC6/CapSense_Filter.c ****             difference = (uint32)ptrSensor->bsln[freqChannel] - (uint32)ptrSensor->raw[freqChannel]
 292:Generated_Source\PSoC6/CapSense_Filter.c ****             sign = 0u;
 293:Generated_Source\PSoC6/CapSense_Filter.c ****         }
 294:Generated_Source\PSoC6/CapSense_Filter.c **** 
 295:Generated_Source\PSoC6/CapSense_Filter.c ****         /* Reset baseline if condition is met */
 296:Generated_Source\PSoC6/CapSense_Filter.c ****         if((sign == 0u) && (difference > (uint32) ptrWidgetRam->nNoiseTh))
 297:Generated_Source\PSoC6/CapSense_Filter.c ****         {
 298:Generated_Source\PSoC6/CapSense_Filter.c ****             if(ptrSensor->negBslnRstCnt[freqChannel] >= ptrWidgetRam->lowBslnRst)
 299:Generated_Source\PSoC6/CapSense_Filter.c ****             {
 300:Generated_Source\PSoC6/CapSense_Filter.c ****                 CapSense_FtInitializeBaselineChannel(ptrSensor, wdType, freqChannel);
 301:Generated_Source\PSoC6/CapSense_Filter.c ****             }
 302:Generated_Source\PSoC6/CapSense_Filter.c ****             else
 303:Generated_Source\PSoC6/CapSense_Filter.c ****             {
 304:Generated_Source\PSoC6/CapSense_Filter.c ****                 ptrSensor->negBslnRstCnt[freqChannel]++;
 305:Generated_Source\PSoC6/CapSense_Filter.c ****             }
 306:Generated_Source\PSoC6/CapSense_Filter.c ****         }
 307:Generated_Source\PSoC6/CapSense_Filter.c ****         else
 308:Generated_Source\PSoC6/CapSense_Filter.c ****         {
 309:Generated_Source\PSoC6/CapSense_Filter.c ****             #if (!CapSense_SENSOR_AUTO_RESET_EN)
 310:Generated_Source\PSoC6/CapSense_Filter.c ****                 /* Update baseline only if signal is in range between noiseThreshold and negativeno
 311:Generated_Source\PSoC6/CapSense_Filter.c ****                 if ((difference <= (uint32)ptrWidgetRam->noiseTh) ||
 312:Generated_Source\PSoC6/CapSense_Filter.c ****                     ((difference < (uint32) ptrWidgetRam->nNoiseTh) && (sign == 0u)))
 313:Generated_Source\PSoC6/CapSense_Filter.c ****                 {
 314:Generated_Source\PSoC6/CapSense_Filter.c ****             #endif /* (CapSense_CSD_AUTO_RESET == CapSense_CSD_AUTO_RESET_DISABLE) */
 315:Generated_Source\PSoC6/CapSense_Filter.c **** 
ARM GAS  C:\Users\ikomb\AppData\Local\Temp\ccZFcZfB.s 			page 7


 316:Generated_Source\PSoC6/CapSense_Filter.c ****             #if (CapSense_BASELINE_TYPE == CapSense_IIR_BASELINE)
 317:Generated_Source\PSoC6/CapSense_Filter.c ****                 /* Calculate baseline value */
 318:Generated_Source\PSoC6/CapSense_Filter.c ****                 if ((CapSense_WD_TYPE_ENUM)wdType != CapSense_WD_PROXIMITY_E)
 319:Generated_Source\PSoC6/CapSense_Filter.c ****                 {
 320:Generated_Source\PSoC6/CapSense_Filter.c ****                     #if (CapSense_REGULAR_SENSOR_EN)
 321:Generated_Source\PSoC6/CapSense_Filter.c ****                         #if (CapSense_REGULAR_IIR_BL_TYPE == CapSense_IIR_FILTER_PERFORMANCE)
 322:Generated_Source\PSoC6/CapSense_Filter.c ****                             history = (uint32) ptrSensor->bsln[freqChannel] << 8u;
 323:Generated_Source\PSoC6/CapSense_Filter.c ****                             history |= ptrSensor->bslnExt[freqChannel];
 324:Generated_Source\PSoC6/CapSense_Filter.c ****                         #else
 325:Generated_Source\PSoC6/CapSense_Filter.c ****                             history = ptrSensor->bsln[freqChannel];
 326:Generated_Source\PSoC6/CapSense_Filter.c ****                         #endif /* (CapSense_REGULAR_IIR_BL_TYPE == CapSense_IIR_FILTER_PERFORMANCE)
 327:Generated_Source\PSoC6/CapSense_Filter.c **** 
 328:Generated_Source\PSoC6/CapSense_Filter.c ****                         #if (CapSense_ENABLE == CapSense_WD_BSLN_COEFF_EN)
 329:Generated_Source\PSoC6/CapSense_Filter.c ****                             baselineCoeff = ptrWidgetRam->bslnCoeff;
 330:Generated_Source\PSoC6/CapSense_Filter.c ****                         #else /* (CapSense_ENABLE == CapSense_WD_BSLN_COEFF_EN) */
 331:Generated_Source\PSoC6/CapSense_Filter.c ****                             baselineCoeff = CapSense_REGULAR_IIR_BL_N;
 332:Generated_Source\PSoC6/CapSense_Filter.c ****                         #endif /* (CapSense_ENABLE == CapSense_WD_BSLN_COEFF_EN) */
 333:Generated_Source\PSoC6/CapSense_Filter.c **** 
 334:Generated_Source\PSoC6/CapSense_Filter.c ****                         history =  CapSense_FtIIR1stOrder(
 335:Generated_Source\PSoC6/CapSense_Filter.c ****                                         (uint32)ptrSensor->raw[freqChannel],
 336:Generated_Source\PSoC6/CapSense_Filter.c ****                                         history, baselineCoeff,
 337:Generated_Source\PSoC6/CapSense_Filter.c ****                                         CapSense_REGULAR_IIR_BL_SHIFT);
 338:Generated_Source\PSoC6/CapSense_Filter.c **** 
 339:Generated_Source\PSoC6/CapSense_Filter.c ****                         #if (CapSense_REGULAR_IIR_BL_TYPE == CapSense_IIR_FILTER_PERFORMANCE)
 340:Generated_Source\PSoC6/CapSense_Filter.c ****                                     ptrSensor->bsln[freqChannel] = CY_LO16(history >> 8u);
 341:Generated_Source\PSoC6/CapSense_Filter.c ****                                     ptrSensor->bslnExt[freqChannel] = CY_LO8(history);
 342:Generated_Source\PSoC6/CapSense_Filter.c ****                         #else
 343:Generated_Source\PSoC6/CapSense_Filter.c ****                                     ptrSensor->bsln[freqChannel] = CY_LO16(history);
 344:Generated_Source\PSoC6/CapSense_Filter.c ****                         #endif /* (CapSense_REGULAR_IIR_BL_TYPE == CapSense_IIR_FILTER_PERFORMANCE)
 345:Generated_Source\PSoC6/CapSense_Filter.c ****                     #endif /* (CapSense_REGULAR_SENSOR_EN) */
 346:Generated_Source\PSoC6/CapSense_Filter.c ****                 }
 347:Generated_Source\PSoC6/CapSense_Filter.c ****                 else
 348:Generated_Source\PSoC6/CapSense_Filter.c ****                 {
 349:Generated_Source\PSoC6/CapSense_Filter.c ****                     #if (CapSense_PROXIMITY_SENSOR_EN)
 350:Generated_Source\PSoC6/CapSense_Filter.c ****                         #if (CapSense_PROX_IIR_BL_TYPE == CapSense_IIR_FILTER_PERFORMANCE)
 351:Generated_Source\PSoC6/CapSense_Filter.c ****                             history = (uint32) ptrSensor->bsln[freqChannel] << 8u;
 352:Generated_Source\PSoC6/CapSense_Filter.c ****                             history |= ptrSensor->bslnExt[freqChannel];
 353:Generated_Source\PSoC6/CapSense_Filter.c ****                         #else
 354:Generated_Source\PSoC6/CapSense_Filter.c ****                             history = (uint32) ptrSensor->bsln[freqChannel];
 355:Generated_Source\PSoC6/CapSense_Filter.c ****                         #endif /* (CapSense_PROX_IIR_BL_TYPE == CapSense_IIR_FILTER_PERFORMANCE) */
 356:Generated_Source\PSoC6/CapSense_Filter.c **** 
 357:Generated_Source\PSoC6/CapSense_Filter.c ****                         #if (CapSense_ENABLE == CapSense_WD_BSLN_COEFF_EN)
 358:Generated_Source\PSoC6/CapSense_Filter.c ****                             baselineCoeff = ptrWidgetRam->bslnCoeff;
 359:Generated_Source\PSoC6/CapSense_Filter.c ****                         #else /* (CapSense_ENABLE == CapSense_WD_BSLN_COEFF_EN) */
 360:Generated_Source\PSoC6/CapSense_Filter.c ****                             baselineCoeff = CapSense_PROX_IIR_BL_N;
 361:Generated_Source\PSoC6/CapSense_Filter.c ****                         #endif /* (CapSense_ENABLE == CapSense_WD_BSLN_COEFF_EN) */
 362:Generated_Source\PSoC6/CapSense_Filter.c **** 
 363:Generated_Source\PSoC6/CapSense_Filter.c ****                         history = CapSense_FtIIR1stOrder(
 364:Generated_Source\PSoC6/CapSense_Filter.c ****                                         (uint32)ptrSensor->raw[freqChannel],
 365:Generated_Source\PSoC6/CapSense_Filter.c ****                                         history, baselineCoeff,
 366:Generated_Source\PSoC6/CapSense_Filter.c ****                                         CapSense_PROX_IIR_BL_SHIFT);
 367:Generated_Source\PSoC6/CapSense_Filter.c **** 
 368:Generated_Source\PSoC6/CapSense_Filter.c ****                         #if (CapSense_PROX_IIR_BL_TYPE == CapSense_IIR_FILTER_PERFORMANCE)
 369:Generated_Source\PSoC6/CapSense_Filter.c ****                                     ptrSensor->bsln[freqChannel] = CY_LO16(history >> 8u);
 370:Generated_Source\PSoC6/CapSense_Filter.c ****                                     ptrSensor->bslnExt[freqChannel] = CY_LO8(history);
 371:Generated_Source\PSoC6/CapSense_Filter.c ****                         #else
 372:Generated_Source\PSoC6/CapSense_Filter.c ****                                     ptrSensor->bsln[freqChannel] = CY_LO16(history);
ARM GAS  C:\Users\ikomb\AppData\Local\Temp\ccZFcZfB.s 			page 8


 373:Generated_Source\PSoC6/CapSense_Filter.c ****                         #endif /* (CapSense_PROX_IIR_BL_TYPE == CapSense_IIR_FILTER_PERFORMANCE) */
 374:Generated_Source\PSoC6/CapSense_Filter.c ****                     #endif /* (CapSense_PROX_SENSOR_EN) */
 375:Generated_Source\PSoC6/CapSense_Filter.c ****                 }
 376:Generated_Source\PSoC6/CapSense_Filter.c ****             #else /* (CapSense_CSD_BASELINE_TYPE == CapSense_IIR_BASELINE) */
 377:Generated_Source\PSoC6/CapSense_Filter.c **** 
 378:Generated_Source\PSoC6/CapSense_Filter.c ****                 /******************************************************************
 379:Generated_Source\PSoC6/CapSense_Filter.c ****                 * This is the place where the bucket algorithm should be implemented.
 380:Generated_Source\PSoC6/CapSense_Filter.c ****                 * The bucket method will be implemented in future Component version.
 381:Generated_Source\PSoC6/CapSense_Filter.c ****                 *******************************************************************/
 382:Generated_Source\PSoC6/CapSense_Filter.c **** 
 383:Generated_Source\PSoC6/CapSense_Filter.c ****             #endif /* (CapSense_CSD_BASELINE_TYPE == CapSense_IIR_BASELINE) */
 384:Generated_Source\PSoC6/CapSense_Filter.c **** 
 385:Generated_Source\PSoC6/CapSense_Filter.c ****             #if (!CapSense_SENSOR_AUTO_RESET_EN)
 386:Generated_Source\PSoC6/CapSense_Filter.c ****                 }
 387:Generated_Source\PSoC6/CapSense_Filter.c ****             #endif /* (!CapSense_SENSOR_AUTO_RESET_EN) */
 388:Generated_Source\PSoC6/CapSense_Filter.c ****         }
 389:Generated_Source\PSoC6/CapSense_Filter.c **** 
 390:Generated_Source\PSoC6/CapSense_Filter.c ****         #if (CapSense_ENABLE == CapSense_TST_BSLN_DUPLICATION_EN)
 391:Generated_Source\PSoC6/CapSense_Filter.c ****             /* Update baseline inversion of every channel in sensor */
 392:Generated_Source\PSoC6/CapSense_Filter.c ****             ptrSensor->bslnInv[freqChannel] = ~(ptrSensor->bsln[freqChannel]);
 393:Generated_Source\PSoC6/CapSense_Filter.c ****             }
 394:Generated_Source\PSoC6/CapSense_Filter.c ****         #endif /* (CapSense_ENABLE == CapSense_TST_BSLN_DUPLICATION_EN) */
 395:Generated_Source\PSoC6/CapSense_Filter.c **** 
 396:Generated_Source\PSoC6/CapSense_Filter.c ****     }
 397:Generated_Source\PSoC6/CapSense_Filter.c ****     return result;
 398:Generated_Source\PSoC6/CapSense_Filter.c **** }
 399:Generated_Source\PSoC6/CapSense_Filter.c **** 
 400:Generated_Source\PSoC6/CapSense_Filter.c **** 
 401:Generated_Source\PSoC6/CapSense_Filter.c **** /*******************************************************************************
 402:Generated_Source\PSoC6/CapSense_Filter.c **** * Function Name: CapSense_InitializeAllBaselines
 403:Generated_Source\PSoC6/CapSense_Filter.c **** ****************************************************************************//**
 404:Generated_Source\PSoC6/CapSense_Filter.c **** *
 405:Generated_Source\PSoC6/CapSense_Filter.c **** * \brief
 406:Generated_Source\PSoC6/CapSense_Filter.c **** *  Initializes (or re-initializes) the baselines of all the sensors of all the widgets.
 407:Generated_Source\PSoC6/CapSense_Filter.c **** *
 408:Generated_Source\PSoC6/CapSense_Filter.c **** * \details
 409:Generated_Source\PSoC6/CapSense_Filter.c **** *  Initializes the baseline for all the sensors of all the widgets. Also, this function
 410:Generated_Source\PSoC6/CapSense_Filter.c **** *  can be used to re-initialize baselines. CapSense_Start() calls this
 411:Generated_Source\PSoC6/CapSense_Filter.c **** *  API as part of CapSense operation initialization.
 412:Generated_Source\PSoC6/CapSense_Filter.c **** *  
 413:Generated_Source\PSoC6/CapSense_Filter.c **** *  If any raw count filter is enabled, make sure the raw count filter history is 
 414:Generated_Source\PSoC6/CapSense_Filter.c **** *  initialized as well using one of these functions:
 415:Generated_Source\PSoC6/CapSense_Filter.c **** *  - CapSense_InitializeAllFilters().
 416:Generated_Source\PSoC6/CapSense_Filter.c **** *  - CapSense_InitializeWidgetFilter().
 417:Generated_Source\PSoC6/CapSense_Filter.c **** *
 418:Generated_Source\PSoC6/CapSense_Filter.c **** *******************************************************************************/
 419:Generated_Source\PSoC6/CapSense_Filter.c **** void CapSense_InitializeAllBaselines(void)
 420:Generated_Source\PSoC6/CapSense_Filter.c **** {
 421:Generated_Source\PSoC6/CapSense_Filter.c ****     uint32 widgetId;
 422:Generated_Source\PSoC6/CapSense_Filter.c **** 
 423:Generated_Source\PSoC6/CapSense_Filter.c ****     for(widgetId = CapSense_TOTAL_WIDGETS; widgetId-- > 0u;)
 424:Generated_Source\PSoC6/CapSense_Filter.c ****     {
 425:Generated_Source\PSoC6/CapSense_Filter.c ****         CapSense_InitializeWidgetBaseline(widgetId);
 426:Generated_Source\PSoC6/CapSense_Filter.c ****     }
 427:Generated_Source\PSoC6/CapSense_Filter.c **** }
 428:Generated_Source\PSoC6/CapSense_Filter.c **** 
 429:Generated_Source\PSoC6/CapSense_Filter.c **** 
ARM GAS  C:\Users\ikomb\AppData\Local\Temp\ccZFcZfB.s 			page 9


 430:Generated_Source\PSoC6/CapSense_Filter.c **** /*******************************************************************************
 431:Generated_Source\PSoC6/CapSense_Filter.c **** * Function Name: CapSense_InitializeWidgetBaseline
 432:Generated_Source\PSoC6/CapSense_Filter.c **** ****************************************************************************//**
 433:Generated_Source\PSoC6/CapSense_Filter.c **** *
 434:Generated_Source\PSoC6/CapSense_Filter.c **** * \brief
 435:Generated_Source\PSoC6/CapSense_Filter.c **** *  Initializes (or re-initializes) the baselines of all the sensors in a widget
 436:Generated_Source\PSoC6/CapSense_Filter.c **** *  specified by the input parameter.
 437:Generated_Source\PSoC6/CapSense_Filter.c **** *
 438:Generated_Source\PSoC6/CapSense_Filter.c **** * \details
 439:Generated_Source\PSoC6/CapSense_Filter.c **** *  Initializes (or re-initializes) the baseline for all the sensors of the
 440:Generated_Source\PSoC6/CapSense_Filter.c **** *  specified widget.
 441:Generated_Source\PSoC6/CapSense_Filter.c **** *  
 442:Generated_Source\PSoC6/CapSense_Filter.c **** *  If any raw count filter is enabled, make sure the raw count filter history is 
 443:Generated_Source\PSoC6/CapSense_Filter.c **** *  initialized as well using one of these functions:
 444:Generated_Source\PSoC6/CapSense_Filter.c **** *  - CapSense_InitializeAllFilters().
 445:Generated_Source\PSoC6/CapSense_Filter.c **** *  - CapSense_InitializeWidgetFilter().
 446:Generated_Source\PSoC6/CapSense_Filter.c **** *
 447:Generated_Source\PSoC6/CapSense_Filter.c **** * \param  widgetId
 448:Generated_Source\PSoC6/CapSense_Filter.c **** *  Specifies the ID number of a widget to initialize the baseline of all the sensors
 449:Generated_Source\PSoC6/CapSense_Filter.c **** *  in the widget.
 450:Generated_Source\PSoC6/CapSense_Filter.c **** *  A macro for the widget ID can be found in the
 451:Generated_Source\PSoC6/CapSense_Filter.c **** *  CapSense Configuration header file defined as
 452:Generated_Source\PSoC6/CapSense_Filter.c **** *  CapSense_<WidgetName>_WDGT_ID.
 453:Generated_Source\PSoC6/CapSense_Filter.c **** *
 454:Generated_Source\PSoC6/CapSense_Filter.c **** *******************************************************************************/
 455:Generated_Source\PSoC6/CapSense_Filter.c **** void CapSense_InitializeWidgetBaseline(uint32 widgetId)
 456:Generated_Source\PSoC6/CapSense_Filter.c **** {
 457:Generated_Source\PSoC6/CapSense_Filter.c ****     uint32 sensorId;
 458:Generated_Source\PSoC6/CapSense_Filter.c ****     uint32 sensorsNumber;
 459:Generated_Source\PSoC6/CapSense_Filter.c **** 
 460:Generated_Source\PSoC6/CapSense_Filter.c ****     CapSense_FLASH_WD_STRUCT const *ptrWidget = &CapSense_dsFlash.wdgtArray[widgetId];
 461:Generated_Source\PSoC6/CapSense_Filter.c **** 
 462:Generated_Source\PSoC6/CapSense_Filter.c ****     /* Find total amount of sensors in specified widget */
 463:Generated_Source\PSoC6/CapSense_Filter.c ****     sensorsNumber = CapSense_GET_SNS_CNT_BY_PTR(ptrWidget);
 464:Generated_Source\PSoC6/CapSense_Filter.c **** 
 465:Generated_Source\PSoC6/CapSense_Filter.c ****     for(sensorId = sensorsNumber; sensorId-- > 0u;)
 466:Generated_Source\PSoC6/CapSense_Filter.c ****     {
 467:Generated_Source\PSoC6/CapSense_Filter.c ****         CapSense_InitializeSensorBaseline(widgetId, sensorId);
 468:Generated_Source\PSoC6/CapSense_Filter.c ****     }
 469:Generated_Source\PSoC6/CapSense_Filter.c **** }
 470:Generated_Source\PSoC6/CapSense_Filter.c **** 
 471:Generated_Source\PSoC6/CapSense_Filter.c **** 
 472:Generated_Source\PSoC6/CapSense_Filter.c **** /*******************************************************************************
 473:Generated_Source\PSoC6/CapSense_Filter.c **** * Function Name: CapSense_InitializeSensorBaseline
 474:Generated_Source\PSoC6/CapSense_Filter.c **** ****************************************************************************//**
 475:Generated_Source\PSoC6/CapSense_Filter.c **** *
 476:Generated_Source\PSoC6/CapSense_Filter.c **** * \brief
 477:Generated_Source\PSoC6/CapSense_Filter.c **** *  Initializes (or re-initializes) the baseline of a sensor in a widget specified
 478:Generated_Source\PSoC6/CapSense_Filter.c **** *  by the input parameters.
 479:Generated_Source\PSoC6/CapSense_Filter.c **** *
 480:Generated_Source\PSoC6/CapSense_Filter.c **** * \details
 481:Generated_Source\PSoC6/CapSense_Filter.c **** *  Initializes (or re-initializes) the baseline for a specified sensor within
 482:Generated_Source\PSoC6/CapSense_Filter.c **** *  a specified widget.
 483:Generated_Source\PSoC6/CapSense_Filter.c **** *
 484:Generated_Source\PSoC6/CapSense_Filter.c **** * \param    widgetId
 485:Generated_Source\PSoC6/CapSense_Filter.c **** *  Specifies the ID number of a widget to initialize the baseline of the sensor
 486:Generated_Source\PSoC6/CapSense_Filter.c **** *  in the widget.
ARM GAS  C:\Users\ikomb\AppData\Local\Temp\ccZFcZfB.s 			page 10


 487:Generated_Source\PSoC6/CapSense_Filter.c **** *  A macro for the widget ID can be found in the
 488:Generated_Source\PSoC6/CapSense_Filter.c **** *  CapSense Configuration header file defined as
 489:Generated_Source\PSoC6/CapSense_Filter.c **** *  CapSense_<WidgetName>_WDGT_ID.
 490:Generated_Source\PSoC6/CapSense_Filter.c **** *
 491:Generated_Source\PSoC6/CapSense_Filter.c **** * \param    sensorId
 492:Generated_Source\PSoC6/CapSense_Filter.c **** *  Specifies the ID number of the sensor within the widget to initialize its
 493:Generated_Source\PSoC6/CapSense_Filter.c **** *  baseline.
 494:Generated_Source\PSoC6/CapSense_Filter.c **** *  A macro for the sensor ID within a specified widget can be found in the
 495:Generated_Source\PSoC6/CapSense_Filter.c **** *  CapSense Configuration header file defined as
 496:Generated_Source\PSoC6/CapSense_Filter.c **** *  CapSense_<WidgetName>_SNS<SensorNumber>_ID.
 497:Generated_Source\PSoC6/CapSense_Filter.c **** *
 498:Generated_Source\PSoC6/CapSense_Filter.c **** *******************************************************************************/
 499:Generated_Source\PSoC6/CapSense_Filter.c **** void CapSense_InitializeSensorBaseline(uint32 widgetId, uint32 sensorId)
 500:Generated_Source\PSoC6/CapSense_Filter.c **** {
 501:Generated_Source\PSoC6/CapSense_Filter.c ****     CapSense_RAM_SNS_STRUCT *ptrSensor = NULL;
 502:Generated_Source\PSoC6/CapSense_Filter.c ****     CapSense_FLASH_WD_STRUCT const *ptrWidget = NULL;
 503:Generated_Source\PSoC6/CapSense_Filter.c ****     ptrWidget = &CapSense_dsFlash.wdgtArray[widgetId];
 504:Generated_Source\PSoC6/CapSense_Filter.c **** 
 505:Generated_Source\PSoC6/CapSense_Filter.c ****     /* Find pointer to specified sensor object */
 506:Generated_Source\PSoC6/CapSense_Filter.c ****     ptrSensor = ptrWidget->ptr2SnsRam;
 507:Generated_Source\PSoC6/CapSense_Filter.c ****     ptrSensor = &ptrSensor[sensorId];
 508:Generated_Source\PSoC6/CapSense_Filter.c **** 
 509:Generated_Source\PSoC6/CapSense_Filter.c ****     CapSense_FtInitializeBaseline(ptrSensor, (uint32)ptrWidget->wdgtType);
 510:Generated_Source\PSoC6/CapSense_Filter.c **** }
 511:Generated_Source\PSoC6/CapSense_Filter.c **** 
 512:Generated_Source\PSoC6/CapSense_Filter.c **** 
 513:Generated_Source\PSoC6/CapSense_Filter.c **** /*******************************************************************************
 514:Generated_Source\PSoC6/CapSense_Filter.c **** * Function Name: CapSense_FtInitializeBaseline
 515:Generated_Source\PSoC6/CapSense_Filter.c **** ****************************************************************************//**
 516:Generated_Source\PSoC6/CapSense_Filter.c **** *
 517:Generated_Source\PSoC6/CapSense_Filter.c **** * \brief    Initializes the baseline history for a sensor indicated by an input
 518:Generated_Source\PSoC6/CapSense_Filter.c **** *           parameter.
 519:Generated_Source\PSoC6/CapSense_Filter.c **** *
 520:Generated_Source\PSoC6/CapSense_Filter.c **** * \details  Initializes the baseline history for a sensor indicated by an input
 521:Generated_Source\PSoC6/CapSense_Filter.c **** *           parameter.
 522:Generated_Source\PSoC6/CapSense_Filter.c **** *
 523:Generated_Source\PSoC6/CapSense_Filter.c **** * \param    *ptrSensor The pointer to the sensor RAM object.
 524:Generated_Source\PSoC6/CapSense_Filter.c **** * \param    wdType     Specifies the type of a widget.
 525:Generated_Source\PSoC6/CapSense_Filter.c **** *
 526:Generated_Source\PSoC6/CapSense_Filter.c **** *******************************************************************************/
 527:Generated_Source\PSoC6/CapSense_Filter.c **** void CapSense_FtInitializeBaseline(CapSense_RAM_SNS_STRUCT *ptrSensor, uint32 wdType)
 528:Generated_Source\PSoC6/CapSense_Filter.c **** {
 529:Generated_Source\PSoC6/CapSense_Filter.c ****     uint32 freqChannel;
 530:Generated_Source\PSoC6/CapSense_Filter.c **** 
 531:Generated_Source\PSoC6/CapSense_Filter.c ****     /* Apply baseline initialization to every channel in sensor */
 532:Generated_Source\PSoC6/CapSense_Filter.c ****     for(freqChannel = CapSense_NUM_SCAN_FREQS; freqChannel-- > 0u;)
 533:Generated_Source\PSoC6/CapSense_Filter.c ****     {
 534:Generated_Source\PSoC6/CapSense_Filter.c ****         CapSense_FtInitializeBaselineChannel(ptrSensor, wdType, freqChannel);
 535:Generated_Source\PSoC6/CapSense_Filter.c ****     }
 536:Generated_Source\PSoC6/CapSense_Filter.c **** }
 537:Generated_Source\PSoC6/CapSense_Filter.c **** 
 538:Generated_Source\PSoC6/CapSense_Filter.c **** 
 539:Generated_Source\PSoC6/CapSense_Filter.c **** /*******************************************************************************
 540:Generated_Source\PSoC6/CapSense_Filter.c **** * Function Name: CapSense_FtInitializeBaselineChannel
 541:Generated_Source\PSoC6/CapSense_Filter.c **** ****************************************************************************//**
 542:Generated_Source\PSoC6/CapSense_Filter.c **** *
 543:Generated_Source\PSoC6/CapSense_Filter.c **** * \brief    Initializes the baseline history for a sensor indicated by an input
ARM GAS  C:\Users\ikomb\AppData\Local\Temp\ccZFcZfB.s 			page 11


 544:Generated_Source\PSoC6/CapSense_Filter.c **** *           parameter.
 545:Generated_Source\PSoC6/CapSense_Filter.c **** *
 546:Generated_Source\PSoC6/CapSense_Filter.c **** * \details  Initializes the baseline history for a sensor indicated by an input
 547:Generated_Source\PSoC6/CapSense_Filter.c **** *           parameter.
 548:Generated_Source\PSoC6/CapSense_Filter.c **** *
 549:Generated_Source\PSoC6/CapSense_Filter.c **** * \param    *ptrSensor The pointer to the sensor RAM object.
 550:Generated_Source\PSoC6/CapSense_Filter.c **** * \param    wdType     Specifies the type of a widget.
 551:Generated_Source\PSoC6/CapSense_Filter.c **** * \param    channel    Specifies the number of the channel to be initialized.
 552:Generated_Source\PSoC6/CapSense_Filter.c **** *
 553:Generated_Source\PSoC6/CapSense_Filter.c **** *******************************************************************************/
 554:Generated_Source\PSoC6/CapSense_Filter.c **** void CapSense_FtInitializeBaselineChannel(CapSense_RAM_SNS_STRUCT *ptrSensor, uint32 wdType, uint32
 555:Generated_Source\PSoC6/CapSense_Filter.c **** {
  28              		.loc 1 555 0
  29              		.cfi_startproc
  30              		@ args = 0, pretend = 0, frame = 0
  31              		@ frame_needed = 0, uses_anonymous_args = 0
  32              		@ link register save eliminated.
  33              	.LVL0:
 556:Generated_Source\PSoC6/CapSense_Filter.c ****     #if (CapSense_BASELINE_TYPE == CapSense_IIR_BASELINE)
 557:Generated_Source\PSoC6/CapSense_Filter.c ****         if ((CapSense_WD_TYPE_ENUM)wdType != CapSense_WD_PROXIMITY_E)
  34              		.loc 1 557 0
  35 0000 FF23     		movs	r3, #255
  36 0002 1940     		ands	r1, r3
  37              	.LVL1:
  38 0004 0629     		cmp	r1, #6
  39 0006 02D0     		beq	.L2
 558:Generated_Source\PSoC6/CapSense_Filter.c ****         {
 559:Generated_Source\PSoC6/CapSense_Filter.c ****             #if (CapSense_REGULAR_SENSOR_EN)
 560:Generated_Source\PSoC6/CapSense_Filter.c ****                 #if (CapSense_REGULAR_IIR_BL_TYPE == CapSense_IIR_FILTER_PERFORMANCE)
 561:Generated_Source\PSoC6/CapSense_Filter.c ****                     ptrSensor->bslnExt[channel] = 0u;
  40              		.loc 1 561 0
  41 0008 8318     		adds	r3, r0, r2
  42 000a 0021     		movs	r1, #0
  43 000c 1971     		strb	r1, [r3, #4]
  44              	.L2:
 562:Generated_Source\PSoC6/CapSense_Filter.c ****                 #endif /* (CapSense_REGULAR_IIR_BL_TYPE == CapSense_IIR_FILTER_PERFORMANCE) */
 563:Generated_Source\PSoC6/CapSense_Filter.c ****             #endif /* (CapSense_REGULAR_SENSOR_EN) */
 564:Generated_Source\PSoC6/CapSense_Filter.c ****         }
 565:Generated_Source\PSoC6/CapSense_Filter.c ****         else
 566:Generated_Source\PSoC6/CapSense_Filter.c ****         {
 567:Generated_Source\PSoC6/CapSense_Filter.c ****             #if (CapSense_PROXIMITY_SENSOR_EN)
 568:Generated_Source\PSoC6/CapSense_Filter.c ****                 #if (CapSense_PROX_IIR_BL_TYPE == CapSense_IIR_FILTER_PERFORMANCE)
 569:Generated_Source\PSoC6/CapSense_Filter.c ****                     ptrSensor->bslnExt[channel] = 0u;
 570:Generated_Source\PSoC6/CapSense_Filter.c ****                 #endif /* (CapSense_PROX_IIR_BL_TYPE == CapSense_IIR_FILTER_PERFORMANCE) */
 571:Generated_Source\PSoC6/CapSense_Filter.c ****             #endif /* (CapSense_PROX_SENSOR_EN) */
 572:Generated_Source\PSoC6/CapSense_Filter.c ****         }
 573:Generated_Source\PSoC6/CapSense_Filter.c ****     #else
 574:Generated_Source\PSoC6/CapSense_Filter.c ****         /* CapSense_BASELINE_TYPE == CapSense_BUCKET_BASELINE */
 575:Generated_Source\PSoC6/CapSense_Filter.c ****         ptrSensor->bslnExt[channel] = 0u;
 576:Generated_Source\PSoC6/CapSense_Filter.c ****     #endif /* (CapSense_BASELINE_TYPE == CapSense_IIR_BASELINE) */
 577:Generated_Source\PSoC6/CapSense_Filter.c **** 
 578:Generated_Source\PSoC6/CapSense_Filter.c ****     ptrSensor->bsln[channel] = ptrSensor->raw[channel];
  45              		.loc 1 578 0
  46 000e 5300     		lsls	r3, r2, #1
  47 0010 195A     		ldrh	r1, [r3, r0]
  48 0012 C318     		adds	r3, r0, r3
  49 0014 5980     		strh	r1, [r3, #2]
ARM GAS  C:\Users\ikomb\AppData\Local\Temp\ccZFcZfB.s 			page 12


 579:Generated_Source\PSoC6/CapSense_Filter.c **** 
 580:Generated_Source\PSoC6/CapSense_Filter.c ****     #if (CapSense_ENABLE == CapSense_TST_BSLN_DUPLICATION_EN)
 581:Generated_Source\PSoC6/CapSense_Filter.c ****     /* Update baseline inversion of the channel in sensor */
 582:Generated_Source\PSoC6/CapSense_Filter.c ****         ptrSensor->bslnInv[channel] = ~(ptrSensor->bsln[channel]);
 583:Generated_Source\PSoC6/CapSense_Filter.c ****     #endif /* (CapSense_ENABLE == CapSense_TST_BSLN_DUPLICATION_EN) */
 584:Generated_Source\PSoC6/CapSense_Filter.c **** 
 585:Generated_Source\PSoC6/CapSense_Filter.c ****     ptrSensor->negBslnRstCnt[channel] = 0u;
  50              		.loc 1 585 0
  51 0016 8218     		adds	r2, r0, r2
  52              	.LVL2:
  53 0018 0023     		movs	r3, #0
  54 001a 1372     		strb	r3, [r2, #8]
 586:Generated_Source\PSoC6/CapSense_Filter.c **** }
  55              		.loc 1 586 0
  56              		@ sp needed
  57 001c 7047     		bx	lr
  58              		.cfi_endproc
  59              	.LFE45:
  60              		.size	CapSense_FtInitializeBaselineChannel, .-CapSense_FtInitializeBaselineChannel
  61 001e C046     		.section	.text.CapSense_FtInitializeBaseline,"ax",%progbits
  62              		.align	2
  63              		.global	CapSense_FtInitializeBaseline
  64              		.code	16
  65              		.thumb_func
  66              		.type	CapSense_FtInitializeBaseline, %function
  67              	CapSense_FtInitializeBaseline:
  68              	.LFB44:
 528:Generated_Source\PSoC6/CapSense_Filter.c ****     uint32 freqChannel;
  69              		.loc 1 528 0
  70              		.cfi_startproc
  71              		@ args = 0, pretend = 0, frame = 0
  72              		@ frame_needed = 0, uses_anonymous_args = 0
  73              	.LVL3:
  74 0000 70B5     		push	{r4, r5, r6, lr}
  75              		.cfi_def_cfa_offset 16
  76              		.cfi_offset 4, -16
  77              		.cfi_offset 5, -12
  78              		.cfi_offset 6, -8
  79              		.cfi_offset 14, -4
  80 0002 0600     		movs	r6, r0
  81 0004 0D00     		movs	r5, r1
  82              	.LVL4:
 532:Generated_Source\PSoC6/CapSense_Filter.c ****     {
  83              		.loc 1 532 0
  84 0006 0123     		movs	r3, #1
  85 0008 05E0     		b	.L4
  86              	.LVL5:
  87              	.L5:
 534:Generated_Source\PSoC6/CapSense_Filter.c ****     }
  88              		.loc 1 534 0
  89 000a 2200     		movs	r2, r4
  90 000c 2900     		movs	r1, r5
  91 000e 3000     		movs	r0, r6
  92 0010 FFF7FEFF 		bl	CapSense_FtInitializeBaselineChannel
  93              	.LVL6:
 532:Generated_Source\PSoC6/CapSense_Filter.c ****     {
  94              		.loc 1 532 0
ARM GAS  C:\Users\ikomb\AppData\Local\Temp\ccZFcZfB.s 			page 13


  95 0014 2300     		movs	r3, r4
  96              	.LVL7:
  97              	.L4:
 532:Generated_Source\PSoC6/CapSense_Filter.c ****     {
  98              		.loc 1 532 0 is_stmt 0 discriminator 1
  99 0016 5C1E     		subs	r4, r3, #1
 100              	.LVL8:
 101 0018 002B     		cmp	r3, #0
 102 001a F6D1     		bne	.L5
 536:Generated_Source\PSoC6/CapSense_Filter.c **** 
 103              		.loc 1 536 0 is_stmt 1
 104              		@ sp needed
 105              	.LVL9:
 106              	.LVL10:
 107              	.LVL11:
 108 001c 70BD     		pop	{r4, r5, r6, pc}
 109              		.cfi_endproc
 110              	.LFE44:
 111              		.size	CapSense_FtInitializeBaseline, .-CapSense_FtInitializeBaseline
 112 001e C046     		.section	.text.CapSense_InitializeSensorBaseline,"ax",%progbits
 113              		.align	2
 114              		.global	CapSense_InitializeSensorBaseline
 115              		.code	16
 116              		.thumb_func
 117              		.type	CapSense_InitializeSensorBaseline, %function
 118              	CapSense_InitializeSensorBaseline:
 119              	.LFB43:
 500:Generated_Source\PSoC6/CapSense_Filter.c ****     CapSense_RAM_SNS_STRUCT *ptrSensor = NULL;
 120              		.loc 1 500 0
 121              		.cfi_startproc
 122              		@ args = 0, pretend = 0, frame = 0
 123              		@ frame_needed = 0, uses_anonymous_args = 0
 124              	.LVL12:
 125 0000 70B5     		push	{r4, r5, r6, lr}
 126              		.cfi_def_cfa_offset 16
 127              		.cfi_offset 4, -16
 128              		.cfi_offset 5, -12
 129              		.cfi_offset 6, -8
 130              		.cfi_offset 14, -4
 131              	.LVL13:
 506:Generated_Source\PSoC6/CapSense_Filter.c ****     ptrSensor = &ptrSensor[sensorId];
 132              		.loc 1 506 0
 133 0002 074D     		ldr	r5, .L7
 134 0004 4600     		lsls	r6, r0, #1
 135 0006 3218     		adds	r2, r6, r0
 136 0008 1401     		lsls	r4, r2, #4
 137 000a 2C19     		adds	r4, r5, r4
 138 000c A068     		ldr	r0, [r4, #8]
 139              	.LVL14:
 507:Generated_Source\PSoC6/CapSense_Filter.c **** 
 140              		.loc 1 507 0
 141 000e 8A00     		lsls	r2, r1, #2
 142 0010 5118     		adds	r1, r2, r1
 143              	.LVL15:
 144 0012 4A00     		lsls	r2, r1, #1
 145 0014 8018     		adds	r0, r0, r2
 146              	.LVL16:
ARM GAS  C:\Users\ikomb\AppData\Local\Temp\ccZFcZfB.s 			page 14


 509:Generated_Source\PSoC6/CapSense_Filter.c **** }
 147              		.loc 1 509 0
 148 0016 A17E     		ldrb	r1, [r4, #26]
 149 0018 FFF7FEFF 		bl	CapSense_FtInitializeBaseline
 150              	.LVL17:
 510:Generated_Source\PSoC6/CapSense_Filter.c **** 
 151              		.loc 1 510 0
 152              		@ sp needed
 153              	.LVL18:
 154              	.LVL19:
 155              	.LVL20:
 156 001c 70BD     		pop	{r4, r5, r6, pc}
 157              	.L8:
 158 001e C046     		.align	2
 159              	.L7:
 160 0020 00000000 		.word	CapSense_dsFlash
 161              		.cfi_endproc
 162              	.LFE43:
 163              		.size	CapSense_InitializeSensorBaseline, .-CapSense_InitializeSensorBaseline
 164              		.section	.text.CapSense_InitializeWidgetBaseline,"ax",%progbits
 165              		.align	2
 166              		.global	CapSense_InitializeWidgetBaseline
 167              		.code	16
 168              		.thumb_func
 169              		.type	CapSense_InitializeWidgetBaseline, %function
 170              	CapSense_InitializeWidgetBaseline:
 171              	.LFB42:
 456:Generated_Source\PSoC6/CapSense_Filter.c ****     uint32 sensorId;
 172              		.loc 1 456 0
 173              		.cfi_startproc
 174              		@ args = 0, pretend = 0, frame = 0
 175              		@ frame_needed = 0, uses_anonymous_args = 0
 176              	.LVL21:
 177 0000 70B5     		push	{r4, r5, r6, lr}
 178              		.cfi_def_cfa_offset 16
 179              		.cfi_offset 4, -16
 180              		.cfi_offset 5, -12
 181              		.cfi_offset 6, -8
 182              		.cfi_offset 14, -4
 183 0002 0500     		movs	r5, r0
 184              	.LVL22:
 463:Generated_Source\PSoC6/CapSense_Filter.c **** 
 185              		.loc 1 463 0
 186 0004 4200     		lsls	r2, r0, #1
 187 0006 1218     		adds	r2, r2, r0
 188 0008 1301     		lsls	r3, r2, #4
 189 000a 064A     		ldr	r2, .L12
 190 000c D318     		adds	r3, r2, r3
 191 000e 1B8B     		ldrh	r3, [r3, #24]
 192              	.LVL23:
 465:Generated_Source\PSoC6/CapSense_Filter.c ****     {
 193              		.loc 1 465 0
 194 0010 04E0     		b	.L10
 195              	.LVL24:
 196              	.L11:
 467:Generated_Source\PSoC6/CapSense_Filter.c ****     }
 197              		.loc 1 467 0
ARM GAS  C:\Users\ikomb\AppData\Local\Temp\ccZFcZfB.s 			page 15


 198 0012 2100     		movs	r1, r4
 199 0014 2800     		movs	r0, r5
 200 0016 FFF7FEFF 		bl	CapSense_InitializeSensorBaseline
 201              	.LVL25:
 465:Generated_Source\PSoC6/CapSense_Filter.c ****     {
 202              		.loc 1 465 0
 203 001a 2300     		movs	r3, r4
 204              	.LVL26:
 205              	.L10:
 465:Generated_Source\PSoC6/CapSense_Filter.c ****     {
 206              		.loc 1 465 0 is_stmt 0 discriminator 1
 207 001c 5C1E     		subs	r4, r3, #1
 208              	.LVL27:
 209 001e 002B     		cmp	r3, #0
 210 0020 F7D1     		bne	.L11
 469:Generated_Source\PSoC6/CapSense_Filter.c **** 
 211              		.loc 1 469 0 is_stmt 1
 212              		@ sp needed
 213              	.LVL28:
 214              	.LVL29:
 215 0022 70BD     		pop	{r4, r5, r6, pc}
 216              	.L13:
 217              		.align	2
 218              	.L12:
 219 0024 00000000 		.word	CapSense_dsFlash
 220              		.cfi_endproc
 221              	.LFE42:
 222              		.size	CapSense_InitializeWidgetBaseline, .-CapSense_InitializeWidgetBaseline
 223              		.section	.text.CapSense_InitializeAllBaselines,"ax",%progbits
 224              		.align	2
 225              		.global	CapSense_InitializeAllBaselines
 226              		.code	16
 227              		.thumb_func
 228              		.type	CapSense_InitializeAllBaselines, %function
 229              	CapSense_InitializeAllBaselines:
 230              	.LFB41:
 420:Generated_Source\PSoC6/CapSense_Filter.c ****     uint32 widgetId;
 231              		.loc 1 420 0
 232              		.cfi_startproc
 233              		@ args = 0, pretend = 0, frame = 0
 234              		@ frame_needed = 0, uses_anonymous_args = 0
 235 0000 10B5     		push	{r4, lr}
 236              		.cfi_def_cfa_offset 8
 237              		.cfi_offset 4, -8
 238              		.cfi_offset 14, -4
 239              	.LVL30:
 423:Generated_Source\PSoC6/CapSense_Filter.c ****     {
 240              		.loc 1 423 0
 241 0002 0323     		movs	r3, #3
 242 0004 03E0     		b	.L15
 243              	.LVL31:
 244              	.L16:
 425:Generated_Source\PSoC6/CapSense_Filter.c ****     }
 245              		.loc 1 425 0
 246 0006 2000     		movs	r0, r4
 247 0008 FFF7FEFF 		bl	CapSense_InitializeWidgetBaseline
 248              	.LVL32:
ARM GAS  C:\Users\ikomb\AppData\Local\Temp\ccZFcZfB.s 			page 16


 423:Generated_Source\PSoC6/CapSense_Filter.c ****     {
 249              		.loc 1 423 0
 250 000c 2300     		movs	r3, r4
 251              	.LVL33:
 252              	.L15:
 423:Generated_Source\PSoC6/CapSense_Filter.c ****     {
 253              		.loc 1 423 0 is_stmt 0 discriminator 1
 254 000e 5C1E     		subs	r4, r3, #1
 255              	.LVL34:
 256 0010 002B     		cmp	r3, #0
 257 0012 F8D1     		bne	.L16
 427:Generated_Source\PSoC6/CapSense_Filter.c **** 
 258              		.loc 1 427 0 is_stmt 1
 259              		@ sp needed
 260              	.LVL35:
 261 0014 10BD     		pop	{r4, pc}
 262              		.cfi_endproc
 263              	.LFE41:
 264              		.size	CapSense_InitializeAllBaselines, .-CapSense_InitializeAllBaselines
 265 0016 C046     		.section	.text.CapSense_InitializeMedianInternal,"ax",%progbits
 266              		.align	2
 267              		.global	CapSense_InitializeMedianInternal
 268              		.code	16
 269              		.thumb_func
 270              		.type	CapSense_InitializeMedianInternal, %function
 271              	CapSense_InitializeMedianInternal:
 272              	.LFB50:
 587:Generated_Source\PSoC6/CapSense_Filter.c **** 
 588:Generated_Source\PSoC6/CapSense_Filter.c **** #if ((CapSense_ENABLE == CapSense_RC_FILTER_EN) || \
 589:Generated_Source\PSoC6/CapSense_Filter.c ****      (0u != (CapSense_CSD_AUTOTUNE & CapSense_CSD_SS_TH_EN)))
 590:Generated_Source\PSoC6/CapSense_Filter.c **** /*******************************************************************************
 591:Generated_Source\PSoC6/CapSense_Filter.c **** * Function Name: CapSense_InitializeAllFilters
 592:Generated_Source\PSoC6/CapSense_Filter.c **** ****************************************************************************//**
 593:Generated_Source\PSoC6/CapSense_Filter.c **** *
 594:Generated_Source\PSoC6/CapSense_Filter.c **** * \brief
 595:Generated_Source\PSoC6/CapSense_Filter.c **** *  Initializes (or re-initializes) the raw count filter history of all the 
 596:Generated_Source\PSoC6/CapSense_Filter.c **** *  sensors of all the widgets.
 597:Generated_Source\PSoC6/CapSense_Filter.c **** *
 598:Generated_Source\PSoC6/CapSense_Filter.c **** * \details
 599:Generated_Source\PSoC6/CapSense_Filter.c **** *  Initializes the raw count filter history for all the sensors of all the 
 600:Generated_Source\PSoC6/CapSense_Filter.c **** *  widgets. Also, this function can be used to re-initialize baselines. 
 601:Generated_Source\PSoC6/CapSense_Filter.c **** *  CapSense_Start() calls this API as part of CapSense 
 602:Generated_Source\PSoC6/CapSense_Filter.c **** *  operation initialization.
 603:Generated_Source\PSoC6/CapSense_Filter.c **** *
 604:Generated_Source\PSoC6/CapSense_Filter.c **** *******************************************************************************/
 605:Generated_Source\PSoC6/CapSense_Filter.c **** void CapSense_InitializeAllFilters(void)
 606:Generated_Source\PSoC6/CapSense_Filter.c **** {
 607:Generated_Source\PSoC6/CapSense_Filter.c ****     uint32 widgetId;
 608:Generated_Source\PSoC6/CapSense_Filter.c **** 
 609:Generated_Source\PSoC6/CapSense_Filter.c ****     for(widgetId = CapSense_TOTAL_WIDGETS; widgetId-- > 0u;)
 610:Generated_Source\PSoC6/CapSense_Filter.c ****     {
 611:Generated_Source\PSoC6/CapSense_Filter.c ****         CapSense_InitializeWidgetFilter(widgetId);
 612:Generated_Source\PSoC6/CapSense_Filter.c ****     }
 613:Generated_Source\PSoC6/CapSense_Filter.c **** }
 614:Generated_Source\PSoC6/CapSense_Filter.c **** 
 615:Generated_Source\PSoC6/CapSense_Filter.c **** /*******************************************************************************
 616:Generated_Source\PSoC6/CapSense_Filter.c **** * Function Name: CapSense_InitializeWidgetFilter
ARM GAS  C:\Users\ikomb\AppData\Local\Temp\ccZFcZfB.s 			page 17


 617:Generated_Source\PSoC6/CapSense_Filter.c **** ****************************************************************************//**
 618:Generated_Source\PSoC6/CapSense_Filter.c **** *
 619:Generated_Source\PSoC6/CapSense_Filter.c **** * \brief
 620:Generated_Source\PSoC6/CapSense_Filter.c **** *  Initializes (or re-initializes) the raw count filter history of all the sensors 
 621:Generated_Source\PSoC6/CapSense_Filter.c **** *  in a widget specified by the input parameter.
 622:Generated_Source\PSoC6/CapSense_Filter.c **** *
 623:Generated_Source\PSoC6/CapSense_Filter.c **** * \details
 624:Generated_Source\PSoC6/CapSense_Filter.c **** *  Initializes (or re-initializes) the raw count filter history of all the sensors 
 625:Generated_Source\PSoC6/CapSense_Filter.c **** *  in a widget specified by the input parameter.
 626:Generated_Source\PSoC6/CapSense_Filter.c **** *
 627:Generated_Source\PSoC6/CapSense_Filter.c **** * \param  widgetId
 628:Generated_Source\PSoC6/CapSense_Filter.c **** *  Specifies the ID number of a widget to initialize the filter history of all 
 629:Generated_Source\PSoC6/CapSense_Filter.c **** *  the sensors in the widget.
 630:Generated_Source\PSoC6/CapSense_Filter.c **** *  A macro for the widget ID can be found in the
 631:Generated_Source\PSoC6/CapSense_Filter.c **** *  CapSense Configuration header file defined as
 632:Generated_Source\PSoC6/CapSense_Filter.c **** *  CapSense_<WidgetName>_WDGT_ID.
 633:Generated_Source\PSoC6/CapSense_Filter.c **** *
 634:Generated_Source\PSoC6/CapSense_Filter.c **** *******************************************************************************/
 635:Generated_Source\PSoC6/CapSense_Filter.c **** void CapSense_InitializeWidgetFilter(uint32 widgetId)
 636:Generated_Source\PSoC6/CapSense_Filter.c **** {
 637:Generated_Source\PSoC6/CapSense_Filter.c ****     uint32 sensorId;
 638:Generated_Source\PSoC6/CapSense_Filter.c ****     uint32 sensorsNumber;
 639:Generated_Source\PSoC6/CapSense_Filter.c **** 
 640:Generated_Source\PSoC6/CapSense_Filter.c ****     CapSense_FLASH_WD_STRUCT const *ptrWidget;
 641:Generated_Source\PSoC6/CapSense_Filter.c ****     CapSense_RAM_SNS_STRUCT *ptrSensor = NULL;
 642:Generated_Source\PSoC6/CapSense_Filter.c ****     #if (CapSense_ENABLE == CapSense_RC_FILTER_EN)
 643:Generated_Source\PSoC6/CapSense_Filter.c ****         CapSense_PTR_FILTER_VARIANT ptrFilterHistObj;
 644:Generated_Source\PSoC6/CapSense_Filter.c ****     #endif
 645:Generated_Source\PSoC6/CapSense_Filter.c ****     
 646:Generated_Source\PSoC6/CapSense_Filter.c ****     #if (0u != (CapSense_CSD_AUTOTUNE & CapSense_CSD_SS_TH_EN))
 647:Generated_Source\PSoC6/CapSense_Filter.c ****         CapSense_RAM_WD_BASE_STRUCT *ptrWidgetRam;
 648:Generated_Source\PSoC6/CapSense_Filter.c ****         SMARTSENSE_CSD_NOISE_ENVELOPE_STRUCT *ptrNoiseEnvelope = NULL;
 649:Generated_Source\PSoC6/CapSense_Filter.c ****     #endif /* (0u != (CapSense_CSD_AUTOTUNE & CapSense_CSD_SS_TH_EN)) */
 650:Generated_Source\PSoC6/CapSense_Filter.c **** 
 651:Generated_Source\PSoC6/CapSense_Filter.c ****     ptrWidget = &CapSense_dsFlash.wdgtArray[widgetId];
 652:Generated_Source\PSoC6/CapSense_Filter.c **** 
 653:Generated_Source\PSoC6/CapSense_Filter.c ****     #if (0u != (CapSense_CSD_AUTOTUNE & CapSense_CSD_SS_TH_EN))
 654:Generated_Source\PSoC6/CapSense_Filter.c ****         ptrWidgetRam = ptrWidget->ptr2WdgtRam;
 655:Generated_Source\PSoC6/CapSense_Filter.c ****     #endif /* (0u != (CapSense_CSD_AUTOTUNE & CapSense_CSD_SS_TH_EN)) */
 656:Generated_Source\PSoC6/CapSense_Filter.c **** 
 657:Generated_Source\PSoC6/CapSense_Filter.c ****     /* Find total amount of sensors in specified widget */
 658:Generated_Source\PSoC6/CapSense_Filter.c ****     sensorsNumber = CapSense_GET_SNS_CNT_BY_PTR(ptrWidget);
 659:Generated_Source\PSoC6/CapSense_Filter.c **** 
 660:Generated_Source\PSoC6/CapSense_Filter.c ****     for (sensorId = sensorsNumber; sensorId-- > 0u;)
 661:Generated_Source\PSoC6/CapSense_Filter.c ****     {
 662:Generated_Source\PSoC6/CapSense_Filter.c ****         /* Find pointer to specified sensor object */
 663:Generated_Source\PSoC6/CapSense_Filter.c ****         ptrSensor = ptrWidget->ptr2SnsRam;
 664:Generated_Source\PSoC6/CapSense_Filter.c ****         ptrSensor = &ptrSensor[sensorId];
 665:Generated_Source\PSoC6/CapSense_Filter.c **** 
 666:Generated_Source\PSoC6/CapSense_Filter.c ****         #if (CapSense_ENABLE == CapSense_RC_FILTER_EN)
 667:Generated_Source\PSoC6/CapSense_Filter.c ****             /* Find pointer to to specified filter sensor object */
 668:Generated_Source\PSoC6/CapSense_Filter.c ****             ptrFilterHistObj.ptr = ptrWidget->ptr2FltrHistory;
 669:Generated_Source\PSoC6/CapSense_Filter.c ****         #endif
 670:Generated_Source\PSoC6/CapSense_Filter.c **** 
 671:Generated_Source\PSoC6/CapSense_Filter.c ****         #if (0u != (CapSense_CSD_AUTOTUNE & CapSense_CSD_SS_TH_EN))
 672:Generated_Source\PSoC6/CapSense_Filter.c ****             /* Find pointer to specified noise envelope sensor object */
 673:Generated_Source\PSoC6/CapSense_Filter.c ****             ptrNoiseEnvelope = ptrWidget->ptr2NoiseEnvlp;
ARM GAS  C:\Users\ikomb\AppData\Local\Temp\ccZFcZfB.s 			page 18


 674:Generated_Source\PSoC6/CapSense_Filter.c ****             ptrNoiseEnvelope = &ptrNoiseEnvelope[sensorId];
 675:Generated_Source\PSoC6/CapSense_Filter.c ****         #endif /* (0u != (CapSense_CSD_AUTOTUNE & CapSense_CSD_SS_TH_EN)) */
 676:Generated_Source\PSoC6/CapSense_Filter.c **** 
 677:Generated_Source\PSoC6/CapSense_Filter.c ****         if ((CapSense_WD_TYPE_ENUM)ptrWidget->wdgtType != CapSense_WD_PROXIMITY_E)
 678:Generated_Source\PSoC6/CapSense_Filter.c ****         {
 679:Generated_Source\PSoC6/CapSense_Filter.c ****             #if (0u != CapSense_REGULAR_RC_ALP_FILTER_EN)
 680:Generated_Source\PSoC6/CapSense_Filter.c ****                 ptrFilterHistObj.ptrAlp = &ptrFilterHistObj.ptrAlp[sensorId];
 681:Generated_Source\PSoC6/CapSense_Filter.c ****             #elif (0u != CapSense_REGULAR_RC_FILTER_EN)
 682:Generated_Source\PSoC6/CapSense_Filter.c ****                 ptrFilterHistObj.ptrRegular = &ptrFilterHistObj.ptrRegular[sensorId];
 683:Generated_Source\PSoC6/CapSense_Filter.c ****             #endif
 684:Generated_Source\PSoC6/CapSense_Filter.c ****         }
 685:Generated_Source\PSoC6/CapSense_Filter.c ****         else
 686:Generated_Source\PSoC6/CapSense_Filter.c ****         {
 687:Generated_Source\PSoC6/CapSense_Filter.c ****             #if (0u != CapSense_PROX_RC_ALP_FILTER_EN)
 688:Generated_Source\PSoC6/CapSense_Filter.c ****                 ptrFilterHistObj.ptrAlp = &ptrFilterHistObj.ptrAlp[sensorId];
 689:Generated_Source\PSoC6/CapSense_Filter.c ****             #elif (0u != CapSense_PROX_RC_FILTER_EN)
 690:Generated_Source\PSoC6/CapSense_Filter.c ****                 ptrFilterHistObj.ptrProx = &ptrFilterHistObj.ptrProx[sensorId];
 691:Generated_Source\PSoC6/CapSense_Filter.c ****             #endif /* #if (0u != CapSense_PROX_RC_FILTER_EN) */
 692:Generated_Source\PSoC6/CapSense_Filter.c ****         }
 693:Generated_Source\PSoC6/CapSense_Filter.c **** 
 694:Generated_Source\PSoC6/CapSense_Filter.c ****         #if (CapSense_REGULAR_RC_IIR_FILTER_EN || CapSense_PROX_RC_IIR_FILTER_EN)
 695:Generated_Source\PSoC6/CapSense_Filter.c ****             CapSense_InitializeIIRInternal(ptrFilterHistObj, ptrSensor, (uint32)ptrWidget->wdgtType
 696:Generated_Source\PSoC6/CapSense_Filter.c ****         #endif /* (CapSense_REGULAR_RC_IIR_FILTER_EN || CapSense_PROX_RC_IIR_FILTER_EN) */
 697:Generated_Source\PSoC6/CapSense_Filter.c **** 
 698:Generated_Source\PSoC6/CapSense_Filter.c ****         #if (CapSense_REGULAR_RC_MEDIAN_FILTER_EN || CapSense_PROX_RC_MEDIAN_FILTER_EN)
 699:Generated_Source\PSoC6/CapSense_Filter.c ****             CapSense_InitializeMedianInternal(ptrFilterHistObj, ptrSensor, (uint32)ptrWidget->wdgtT
 700:Generated_Source\PSoC6/CapSense_Filter.c ****         #endif /* (CapSense_REGULAR_RC_MEDIAN_FILTER_EN || CapSense_PROX_RC_MEDIAN_FILTER_EN) */
 701:Generated_Source\PSoC6/CapSense_Filter.c **** 
 702:Generated_Source\PSoC6/CapSense_Filter.c ****         #if (CapSense_REGULAR_RC_AVERAGE_FILTER_EN || CapSense_PROX_RC_AVERAGE_FILTER_EN)
 703:Generated_Source\PSoC6/CapSense_Filter.c ****             CapSense_InitializeAverageInternal(ptrFilterHistObj, ptrSensor, (uint32)ptrWidget->wdgt
 704:Generated_Source\PSoC6/CapSense_Filter.c ****         #endif /* (CapSense_REGULAR_RC_AVERAGE_FILTER_EN || CapSense_PROX_RC_AVERAGE_FILTER_EN) */
 705:Generated_Source\PSoC6/CapSense_Filter.c **** 
 706:Generated_Source\PSoC6/CapSense_Filter.c ****         #if (CapSense_ALP_FILTER_EN)
 707:Generated_Source\PSoC6/CapSense_Filter.c ****             CapSense_InitializeALPInternal(ptrFilterHistObj, ptrSensor, (uint32)ptrWidget->wdgtType
 708:Generated_Source\PSoC6/CapSense_Filter.c ****         #endif
 709:Generated_Source\PSoC6/CapSense_Filter.c **** 
 710:Generated_Source\PSoC6/CapSense_Filter.c ****         #if (0u != (CapSense_CSD_AUTOTUNE & CapSense_CSD_SS_TH_EN))
 711:Generated_Source\PSoC6/CapSense_Filter.c ****             if (CapSense_SENSE_METHOD_CSD_E ==
 712:Generated_Source\PSoC6/CapSense_Filter.c ****                 CapSense_GET_SENSE_METHOD(&CapSense_dsFlash.wdgtArray[widgetId]))
 713:Generated_Source\PSoC6/CapSense_Filter.c ****             {
 714:Generated_Source\PSoC6/CapSense_Filter.c ****                 SmartSense_InitializeNoiseEnvelope(ptrSensor->raw[0u], ptrWidgetRam->sigPFC, ptrNoi
 715:Generated_Source\PSoC6/CapSense_Filter.c ****             }
 716:Generated_Source\PSoC6/CapSense_Filter.c ****         #endif /* (0u != (CapSense_CSD_AUTOTUNE & CapSense_CSD_SS_TH_EN)) */
 717:Generated_Source\PSoC6/CapSense_Filter.c ****     }
 718:Generated_Source\PSoC6/CapSense_Filter.c **** }
 719:Generated_Source\PSoC6/CapSense_Filter.c **** #endif /* ((CapSense_ENABLE == CapSense_RC_FILTER_EN) || \
 720:Generated_Source\PSoC6/CapSense_Filter.c ****            (0u != (CapSense_CSD_AUTOTUNE & CapSense_CSD_SS_TH_EN))) */
 721:Generated_Source\PSoC6/CapSense_Filter.c **** 
 722:Generated_Source\PSoC6/CapSense_Filter.c **** #if (CapSense_REGULAR_RC_IIR_FILTER_EN || CapSense_PROX_RC_IIR_FILTER_EN)
 723:Generated_Source\PSoC6/CapSense_Filter.c **** /*******************************************************************************
 724:Generated_Source\PSoC6/CapSense_Filter.c **** * Function Name: CapSense_InitializeIIR
 725:Generated_Source\PSoC6/CapSense_Filter.c **** ****************************************************************************//**
 726:Generated_Source\PSoC6/CapSense_Filter.c **** *
 727:Generated_Source\PSoC6/CapSense_Filter.c **** * \brief    Initialize the IIR filter history.
 728:Generated_Source\PSoC6/CapSense_Filter.c **** *
 729:Generated_Source\PSoC6/CapSense_Filter.c **** * \details  Initialize the IIR filter history.
 730:Generated_Source\PSoC6/CapSense_Filter.c **** *
ARM GAS  C:\Users\ikomb\AppData\Local\Temp\ccZFcZfB.s 			page 19


 731:Generated_Source\PSoC6/CapSense_Filter.c **** * \param    widgetId Specifies the ID number of the widget.
 732:Generated_Source\PSoC6/CapSense_Filter.c **** * \param    sensorId Specifies the ID number of the sensor in the widget.
 733:Generated_Source\PSoC6/CapSense_Filter.c **** *
 734:Generated_Source\PSoC6/CapSense_Filter.c **** *******************************************************************************/
 735:Generated_Source\PSoC6/CapSense_Filter.c **** void CapSense_InitializeIIR(uint32 widgetId, uint32 sensorId)
 736:Generated_Source\PSoC6/CapSense_Filter.c **** {
 737:Generated_Source\PSoC6/CapSense_Filter.c ****     CapSense_FLASH_WD_STRUCT const *ptrWidget = &CapSense_dsFlash.wdgtArray[widgetId];
 738:Generated_Source\PSoC6/CapSense_Filter.c ****     CapSense_RAM_SNS_STRUCT *ptrSensor = NULL;
 739:Generated_Source\PSoC6/CapSense_Filter.c ****     CapSense_PTR_FILTER_VARIANT ptrFilterHistObj;
 740:Generated_Source\PSoC6/CapSense_Filter.c **** 
 741:Generated_Source\PSoC6/CapSense_Filter.c ****     /* Find pointer to specified sensor object */
 742:Generated_Source\PSoC6/CapSense_Filter.c ****     ptrSensor = ptrWidget->ptr2SnsRam;
 743:Generated_Source\PSoC6/CapSense_Filter.c ****     ptrSensor = &ptrSensor[sensorId];
 744:Generated_Source\PSoC6/CapSense_Filter.c **** 
 745:Generated_Source\PSoC6/CapSense_Filter.c ****     /* Find pointer to specified filter sensor object */
 746:Generated_Source\PSoC6/CapSense_Filter.c ****     ptrFilterHistObj.ptr = ptrWidget->ptr2FltrHistory;
 747:Generated_Source\PSoC6/CapSense_Filter.c **** 
 748:Generated_Source\PSoC6/CapSense_Filter.c ****     if ((CapSense_WD_TYPE_ENUM)ptrWidget->wdgtType != CapSense_WD_PROXIMITY_E)
 749:Generated_Source\PSoC6/CapSense_Filter.c ****     {
 750:Generated_Source\PSoC6/CapSense_Filter.c ****         #if (CapSense_REGULAR_SENSOR_EN)
 751:Generated_Source\PSoC6/CapSense_Filter.c ****             ptrFilterHistObj.ptrRegular = &ptrFilterHistObj.ptrRegular[sensorId];
 752:Generated_Source\PSoC6/CapSense_Filter.c ****         #endif /* (CapSense_REGULAR_SENSOR_EN) */
 753:Generated_Source\PSoC6/CapSense_Filter.c ****     }
 754:Generated_Source\PSoC6/CapSense_Filter.c ****     else
 755:Generated_Source\PSoC6/CapSense_Filter.c ****     {
 756:Generated_Source\PSoC6/CapSense_Filter.c ****         #if (CapSense_PROXIMITY_SENSOR_EN)
 757:Generated_Source\PSoC6/CapSense_Filter.c ****             ptrFilterHistObj.ptrProx = &ptrFilterHistObj.ptrProx[sensorId];
 758:Generated_Source\PSoC6/CapSense_Filter.c ****         #endif /* (CapSense_PROXIMITY_SENSOR_EN) */
 759:Generated_Source\PSoC6/CapSense_Filter.c ****     }
 760:Generated_Source\PSoC6/CapSense_Filter.c **** 
 761:Generated_Source\PSoC6/CapSense_Filter.c ****     CapSense_InitializeIIRInternal(ptrFilterHistObj, ptrSensor, (uint32)ptrWidget->wdgtType);
 762:Generated_Source\PSoC6/CapSense_Filter.c **** }
 763:Generated_Source\PSoC6/CapSense_Filter.c **** 
 764:Generated_Source\PSoC6/CapSense_Filter.c **** 
 765:Generated_Source\PSoC6/CapSense_Filter.c **** /*******************************************************************************
 766:Generated_Source\PSoC6/CapSense_Filter.c **** * Function Name: CapSense_RunIIR
 767:Generated_Source\PSoC6/CapSense_Filter.c **** ****************************************************************************//**
 768:Generated_Source\PSoC6/CapSense_Filter.c **** *
 769:Generated_Source\PSoC6/CapSense_Filter.c **** * \brief    Executes the IIR filter algorithm on a sensor indicated by an input
 770:Generated_Source\PSoC6/CapSense_Filter.c **** *           parameter.
 771:Generated_Source\PSoC6/CapSense_Filter.c **** *
 772:Generated_Source\PSoC6/CapSense_Filter.c **** * \details  Executes the IIR filter algorithm on a sensor indicated by an input
 773:Generated_Source\PSoC6/CapSense_Filter.c **** *           parameter.
 774:Generated_Source\PSoC6/CapSense_Filter.c **** *
 775:Generated_Source\PSoC6/CapSense_Filter.c **** * \param    widgetId Specifies the ID number of the widget.
 776:Generated_Source\PSoC6/CapSense_Filter.c **** * \param    sensorId Specifies the ID number of the sensor in the widget.
 777:Generated_Source\PSoC6/CapSense_Filter.c **** *
 778:Generated_Source\PSoC6/CapSense_Filter.c **** *******************************************************************************/
 779:Generated_Source\PSoC6/CapSense_Filter.c **** void CapSense_RunIIR(uint32 widgetId, uint32 sensorId)
 780:Generated_Source\PSoC6/CapSense_Filter.c **** {
 781:Generated_Source\PSoC6/CapSense_Filter.c ****     CapSense_FLASH_WD_STRUCT const *ptrWidget = &CapSense_dsFlash.wdgtArray[widgetId];
 782:Generated_Source\PSoC6/CapSense_Filter.c ****     CapSense_RAM_SNS_STRUCT *ptrSensor = NULL;
 783:Generated_Source\PSoC6/CapSense_Filter.c ****     CapSense_PTR_FILTER_VARIANT ptrFilterHistObj;
 784:Generated_Source\PSoC6/CapSense_Filter.c **** 
 785:Generated_Source\PSoC6/CapSense_Filter.c ****     /* Find pointer to specified sensor object */
 786:Generated_Source\PSoC6/CapSense_Filter.c ****     ptrSensor = ptrWidget->ptr2SnsRam;
 787:Generated_Source\PSoC6/CapSense_Filter.c ****     ptrSensor = &ptrSensor[sensorId];
ARM GAS  C:\Users\ikomb\AppData\Local\Temp\ccZFcZfB.s 			page 20


 788:Generated_Source\PSoC6/CapSense_Filter.c **** 
 789:Generated_Source\PSoC6/CapSense_Filter.c ****     /* Find pointer to specified filter sensor object */
 790:Generated_Source\PSoC6/CapSense_Filter.c ****     ptrFilterHistObj.ptr = ptrWidget->ptr2FltrHistory;
 791:Generated_Source\PSoC6/CapSense_Filter.c **** 
 792:Generated_Source\PSoC6/CapSense_Filter.c ****     if ((CapSense_WD_TYPE_ENUM)ptrWidget->wdgtType != CapSense_WD_PROXIMITY_E)
 793:Generated_Source\PSoC6/CapSense_Filter.c ****     {
 794:Generated_Source\PSoC6/CapSense_Filter.c ****         #if (CapSense_REGULAR_SENSOR_EN)
 795:Generated_Source\PSoC6/CapSense_Filter.c ****             ptrFilterHistObj.ptrRegular = &ptrFilterHistObj.ptrRegular[sensorId];
 796:Generated_Source\PSoC6/CapSense_Filter.c ****         #endif /* (CapSense_REGULAR_SENSOR_EN) */
 797:Generated_Source\PSoC6/CapSense_Filter.c ****     }
 798:Generated_Source\PSoC6/CapSense_Filter.c ****     else
 799:Generated_Source\PSoC6/CapSense_Filter.c ****     {
 800:Generated_Source\PSoC6/CapSense_Filter.c ****         #if (CapSense_PROXIMITY_SENSOR_EN)
 801:Generated_Source\PSoC6/CapSense_Filter.c ****             ptrFilterHistObj.ptrProx = &ptrFilterHistObj.ptrProx[sensorId];
 802:Generated_Source\PSoC6/CapSense_Filter.c ****         #endif /* (CapSense_PROXIMITY_SENSOR_EN) */
 803:Generated_Source\PSoC6/CapSense_Filter.c ****     }
 804:Generated_Source\PSoC6/CapSense_Filter.c **** 
 805:Generated_Source\PSoC6/CapSense_Filter.c ****     CapSense_RunIIRInternal(ptrFilterHistObj, ptrSensor, (uint32)ptrWidget->wdgtType);
 806:Generated_Source\PSoC6/CapSense_Filter.c **** }
 807:Generated_Source\PSoC6/CapSense_Filter.c **** 
 808:Generated_Source\PSoC6/CapSense_Filter.c **** /*******************************************************************************
 809:Generated_Source\PSoC6/CapSense_Filter.c **** * Function Name: CapSense_InitializeIIRInternal
 810:Generated_Source\PSoC6/CapSense_Filter.c **** ****************************************************************************//**
 811:Generated_Source\PSoC6/CapSense_Filter.c **** *
 812:Generated_Source\PSoC6/CapSense_Filter.c **** * \brief    Initializes the IIR filter history.
 813:Generated_Source\PSoC6/CapSense_Filter.c **** *
 814:Generated_Source\PSoC6/CapSense_Filter.c **** * \details  Initializes the IIR filter history.
 815:Generated_Source\PSoC6/CapSense_Filter.c **** *
 816:Generated_Source\PSoC6/CapSense_Filter.c **** * \param    ptrFilterHistObj The pointer to the filter RAM object of the sensor.
 817:Generated_Source\PSoC6/CapSense_Filter.c **** * \param    ptrSensorObj     The pointer to the sensor RAM object of the sensor.
 818:Generated_Source\PSoC6/CapSense_Filter.c **** * \param    wdType           Specifies the type of a widget.
 819:Generated_Source\PSoC6/CapSense_Filter.c **** *
 820:Generated_Source\PSoC6/CapSense_Filter.c **** *******************************************************************************/
 821:Generated_Source\PSoC6/CapSense_Filter.c **** void CapSense_InitializeIIRInternal(CapSense_PTR_FILTER_VARIANT ptrFilterHistObj,
 822:Generated_Source\PSoC6/CapSense_Filter.c ****                                             CapSense_RAM_SNS_STRUCT *ptrSensorObj, uint32 wdType)
 823:Generated_Source\PSoC6/CapSense_Filter.c **** {
 824:Generated_Source\PSoC6/CapSense_Filter.c ****     uint32 freqChannel;
 825:Generated_Source\PSoC6/CapSense_Filter.c **** 
 826:Generated_Source\PSoC6/CapSense_Filter.c ****     for(freqChannel = CapSense_NUM_SCAN_FREQS; freqChannel-- > 0u;)
 827:Generated_Source\PSoC6/CapSense_Filter.c ****     {
 828:Generated_Source\PSoC6/CapSense_Filter.c ****         if ((CapSense_WD_TYPE_ENUM)wdType != CapSense_WD_PROXIMITY_E)
 829:Generated_Source\PSoC6/CapSense_Filter.c ****         {
 830:Generated_Source\PSoC6/CapSense_Filter.c ****             #if (CapSense_REGULAR_SENSOR_EN && CapSense_REGULAR_RC_IIR_FILTER_EN)
 831:Generated_Source\PSoC6/CapSense_Filter.c ****                 #if (CapSense_REGULAR_IIR_RC_TYPE == CapSense_IIR_FILTER_PERFORMANCE)
 832:Generated_Source\PSoC6/CapSense_Filter.c ****                     ptrFilterHistObj.ptrRegular->regularChannel[freqChannel].iirHistory = ptrSensor
 833:Generated_Source\PSoC6/CapSense_Filter.c ****                     ptrFilterHistObj.ptrRegular->regularChannel[freqChannel].iirHistoryLow = 0u;
 834:Generated_Source\PSoC6/CapSense_Filter.c ****                 #else
 835:Generated_Source\PSoC6/CapSense_Filter.c ****                     ptrFilterHistObj.ptrRegular->regularChannel[freqChannel].iirHistory = ptrSensor
 836:Generated_Source\PSoC6/CapSense_Filter.c ****                 #endif /* (CapSense_REGULAR_IIR_RC_TYPE == CapSense_IIR_FILTER_PERFORMANCE) */
 837:Generated_Source\PSoC6/CapSense_Filter.c ****             #endif /* (CapSense_REGULAR_SENSOR_EN) */
 838:Generated_Source\PSoC6/CapSense_Filter.c ****         }
 839:Generated_Source\PSoC6/CapSense_Filter.c ****         else
 840:Generated_Source\PSoC6/CapSense_Filter.c ****         {
 841:Generated_Source\PSoC6/CapSense_Filter.c ****             #if (CapSense_PROXIMITY_SENSOR_EN && CapSense_PROX_RC_IIR_FILTER_EN)
 842:Generated_Source\PSoC6/CapSense_Filter.c ****                 #if (CapSense_PROX_IIR_RC_TYPE == CapSense_IIR_FILTER_PERFORMANCE)
 843:Generated_Source\PSoC6/CapSense_Filter.c ****                     ptrFilterHistObj.ptrProx->proxChannel[freqChannel].iirHistory = ptrSensorObj->r
 844:Generated_Source\PSoC6/CapSense_Filter.c ****                     ptrFilterHistObj.ptrProx->proxChannel[freqChannel].iirHistoryLow = 0u;
ARM GAS  C:\Users\ikomb\AppData\Local\Temp\ccZFcZfB.s 			page 21


 845:Generated_Source\PSoC6/CapSense_Filter.c ****                 #else
 846:Generated_Source\PSoC6/CapSense_Filter.c ****                     ptrFilterHistObj.ptrProx->proxChannel[freqChannel].iirHistory = ptrSensorObj->r
 847:Generated_Source\PSoC6/CapSense_Filter.c ****                 #endif /* (CapSense_PROX_IIR_RC_TYPE == CapSense_IIR_FILTER_PERFORMANCE) */
 848:Generated_Source\PSoC6/CapSense_Filter.c ****             #endif /* (CapSense_PROX_SENSOR_EN) */
 849:Generated_Source\PSoC6/CapSense_Filter.c ****         }
 850:Generated_Source\PSoC6/CapSense_Filter.c ****     }
 851:Generated_Source\PSoC6/CapSense_Filter.c **** }
 852:Generated_Source\PSoC6/CapSense_Filter.c **** 
 853:Generated_Source\PSoC6/CapSense_Filter.c **** 
 854:Generated_Source\PSoC6/CapSense_Filter.c **** /*******************************************************************************
 855:Generated_Source\PSoC6/CapSense_Filter.c **** * Function Name: CapSense_RunIIRInternal
 856:Generated_Source\PSoC6/CapSense_Filter.c **** ****************************************************************************//**
 857:Generated_Source\PSoC6/CapSense_Filter.c **** *
 858:Generated_Source\PSoC6/CapSense_Filter.c **** * \brief    Run the IIR filter.
 859:Generated_Source\PSoC6/CapSense_Filter.c **** *
 860:Generated_Source\PSoC6/CapSense_Filter.c **** * \details  Run the IIR filter.
 861:Generated_Source\PSoC6/CapSense_Filter.c **** *
 862:Generated_Source\PSoC6/CapSense_Filter.c **** * \param    ptrFilterHistObj The pointer to the filter RAM object of the sensor.
 863:Generated_Source\PSoC6/CapSense_Filter.c **** * \param    ptrSensorObj     The pointer to the sensor RAM object of the sensor.
 864:Generated_Source\PSoC6/CapSense_Filter.c **** * \param    wdType           Specifies the type of a widget.
 865:Generated_Source\PSoC6/CapSense_Filter.c **** *
 866:Generated_Source\PSoC6/CapSense_Filter.c **** *******************************************************************************/
 867:Generated_Source\PSoC6/CapSense_Filter.c **** void CapSense_RunIIRInternal(CapSense_PTR_FILTER_VARIANT ptrFilterHistObj,
 868:Generated_Source\PSoC6/CapSense_Filter.c ****                                      CapSense_RAM_SNS_STRUCT *ptrSensorObj, uint32 wdType)
 869:Generated_Source\PSoC6/CapSense_Filter.c **** {
 870:Generated_Source\PSoC6/CapSense_Filter.c ****     uint32 freqChannel;
 871:Generated_Source\PSoC6/CapSense_Filter.c ****     uint32 temp;
 872:Generated_Source\PSoC6/CapSense_Filter.c **** 
 873:Generated_Source\PSoC6/CapSense_Filter.c ****     for(freqChannel = CapSense_NUM_SCAN_FREQS; freqChannel-- > 0u;)
 874:Generated_Source\PSoC6/CapSense_Filter.c ****     {
 875:Generated_Source\PSoC6/CapSense_Filter.c ****         if ((CapSense_WD_TYPE_ENUM)wdType != CapSense_WD_PROXIMITY_E)
 876:Generated_Source\PSoC6/CapSense_Filter.c ****         {
 877:Generated_Source\PSoC6/CapSense_Filter.c ****             #if (CapSense_REGULAR_SENSOR_EN && CapSense_REGULAR_RC_IIR_FILTER_EN)
 878:Generated_Source\PSoC6/CapSense_Filter.c ****                 #if (CapSense_REGULAR_IIR_RC_TYPE == CapSense_IIR_FILTER_PERFORMANCE)
 879:Generated_Source\PSoC6/CapSense_Filter.c ****                     temp = ((uint32)ptrFilterHistObj.ptrRegular->regularChannel[freqChannel].iirHis
 880:Generated_Source\PSoC6/CapSense_Filter.c ****                     temp |= ptrFilterHistObj.ptrRegular->regularChannel[freqChannel].iirHistoryLow;
 881:Generated_Source\PSoC6/CapSense_Filter.c ****                     temp = CapSense_FtIIR1stOrder((uint32)ptrSensorObj->raw[freqChannel],
 882:Generated_Source\PSoC6/CapSense_Filter.c ****                                                         temp,
 883:Generated_Source\PSoC6/CapSense_Filter.c ****                                                         CapSense_REGULAR_IIR_RC_N,
 884:Generated_Source\PSoC6/CapSense_Filter.c ****                                                         CapSense_REGULAR_IIR_RC_SHIFT);
 885:Generated_Source\PSoC6/CapSense_Filter.c ****                     ptrFilterHistObj.ptrRegular->regularChannel[freqChannel].iirHistory = CY_LO16(t
 886:Generated_Source\PSoC6/CapSense_Filter.c ****                     ptrFilterHistObj.ptrRegular->regularChannel[freqChannel].iirHistoryLow = CY_LO8
 887:Generated_Source\PSoC6/CapSense_Filter.c ****                     ptrSensorObj->raw[freqChannel] = CY_LO16(temp >>CapSense_REGULAR_IIR_RC_SHIFT);
 888:Generated_Source\PSoC6/CapSense_Filter.c ****                 #else
 889:Generated_Source\PSoC6/CapSense_Filter.c ****                     temp =CapSense_FtIIR1stOrder((uint32)ptrSensorObj->raw[freqChannel],
 890:Generated_Source\PSoC6/CapSense_Filter.c ****                                                         (uint32)ptrFilterHistObj.ptrRegular->regula
 891:Generated_Source\PSoC6/CapSense_Filter.c ****                                                         CapSense_REGULAR_IIR_RC_N,
 892:Generated_Source\PSoC6/CapSense_Filter.c ****                                                         CapSense_REGULAR_IIR_RC_SHIFT);
 893:Generated_Source\PSoC6/CapSense_Filter.c ****                     ptrFilterHistObj.ptrRegular->regularChannel[freqChannel].iirHistory = CY_LO16(t
 894:Generated_Source\PSoC6/CapSense_Filter.c ****                     ptrSensorObj->raw[freqChannel] = CY_LO16(temp >>CapSense_REGULAR_IIR_RC_SHIFT);
 895:Generated_Source\PSoC6/CapSense_Filter.c ****                 #endif /* (CapSense_REGULAR_IIR_RC_TYPE == CapSense_IIR_FILTER_PERFORMANCE) */
 896:Generated_Source\PSoC6/CapSense_Filter.c ****             #endif /* (CapSense_REGULAR_SENSOR_EN) */
 897:Generated_Source\PSoC6/CapSense_Filter.c ****         }
 898:Generated_Source\PSoC6/CapSense_Filter.c ****         else
 899:Generated_Source\PSoC6/CapSense_Filter.c ****         {
 900:Generated_Source\PSoC6/CapSense_Filter.c ****             #if (CapSense_PROXIMITY_SENSOR_EN && CapSense_PROX_RC_IIR_FILTER_EN)
 901:Generated_Source\PSoC6/CapSense_Filter.c ****                 #if (CapSense_PROX_IIR_RC_TYPE == CapSense_IIR_FILTER_PERFORMANCE)
ARM GAS  C:\Users\ikomb\AppData\Local\Temp\ccZFcZfB.s 			page 22


 902:Generated_Source\PSoC6/CapSense_Filter.c ****                     temp =  ptrFilterHistObj.ptrProx->proxChannel[freqChannel].iirHistory << CapSen
 903:Generated_Source\PSoC6/CapSense_Filter.c ****                     temp |= ptrFilterHistObj.ptrProx->proxChannel[freqChannel].iirHistoryLow;
 904:Generated_Source\PSoC6/CapSense_Filter.c ****                     temp =CapSense_FtIIR1stOrder((uint32)ptrSensorObj->raw[freqChannel],
 905:Generated_Source\PSoC6/CapSense_Filter.c ****                                                         temp,
 906:Generated_Source\PSoC6/CapSense_Filter.c ****                                                         CapSense_PROX_IIR_RC_N,
 907:Generated_Source\PSoC6/CapSense_Filter.c ****                                                         CapSense_PROX_IIR_RC_SHIFT);
 908:Generated_Source\PSoC6/CapSense_Filter.c ****                     ptrFilterHistObj.ptrProx->proxChannel[freqChannel].iirHistory = CY_LO16(temp >>
 909:Generated_Source\PSoC6/CapSense_Filter.c ****                     ptrFilterHistObj.ptrProx->proxChannel[freqChannel].iirHistoryLow = CY_LO8(temp)
 910:Generated_Source\PSoC6/CapSense_Filter.c ****                     ptrSensorObj->raw[freqChannel] = CY_LO16(temp >>CapSense_PROX_IIR_RC_SHIFT);
 911:Generated_Source\PSoC6/CapSense_Filter.c ****                 #else
 912:Generated_Source\PSoC6/CapSense_Filter.c ****                     temp =CapSense_FtIIR1stOrder((uint32)ptrSensorObj->raw[freqChannel],
 913:Generated_Source\PSoC6/CapSense_Filter.c ****                                                         (uint32)ptrFilterHistObj.ptrProx->proxChann
 914:Generated_Source\PSoC6/CapSense_Filter.c ****                                                         CapSense_PROX_IIR_RC_N,
 915:Generated_Source\PSoC6/CapSense_Filter.c ****                                                         CapSense_PROX_IIR_RC_SHIFT);
 916:Generated_Source\PSoC6/CapSense_Filter.c ****                     ptrFilterHistObj.ptrProx->proxChannel[freqChannel].iirHistory = CY_LO16(temp);
 917:Generated_Source\PSoC6/CapSense_Filter.c ****                     ptrSensorObj->raw[freqChannel] = CY_LO16(temp >>CapSense_PROX_IIR_RC_SHIFT);
 918:Generated_Source\PSoC6/CapSense_Filter.c ****                 #endif /* (CapSense_PROX_IIR_RC_TYPE == CapSense_IIR_FILTER_PERFORMANCE) */
 919:Generated_Source\PSoC6/CapSense_Filter.c ****             #endif /* (CapSense_PROX_SENSOR_EN) */
 920:Generated_Source\PSoC6/CapSense_Filter.c ****         }
 921:Generated_Source\PSoC6/CapSense_Filter.c ****     }
 922:Generated_Source\PSoC6/CapSense_Filter.c **** }
 923:Generated_Source\PSoC6/CapSense_Filter.c **** #endif /* #if (CapSense_REGULAR_RC_IIR_FILTER_EN || CapSense_PROX_RC_IIR_FILTER_EN) */
 924:Generated_Source\PSoC6/CapSense_Filter.c **** 
 925:Generated_Source\PSoC6/CapSense_Filter.c **** 
 926:Generated_Source\PSoC6/CapSense_Filter.c **** #if (CapSense_REGULAR_RC_MEDIAN_FILTER_EN || CapSense_PROX_RC_MEDIAN_FILTER_EN)
 927:Generated_Source\PSoC6/CapSense_Filter.c **** 
 928:Generated_Source\PSoC6/CapSense_Filter.c **** /*******************************************************************************
 929:Generated_Source\PSoC6/CapSense_Filter.c **** * Function Name: CapSense_InitializeMedian
 930:Generated_Source\PSoC6/CapSense_Filter.c **** ****************************************************************************//**
 931:Generated_Source\PSoC6/CapSense_Filter.c **** *
 932:Generated_Source\PSoC6/CapSense_Filter.c **** * \brief    Initializes the Median filter history.
 933:Generated_Source\PSoC6/CapSense_Filter.c **** *
 934:Generated_Source\PSoC6/CapSense_Filter.c **** * \details  Initializes the Median filter history.
 935:Generated_Source\PSoC6/CapSense_Filter.c **** *
 936:Generated_Source\PSoC6/CapSense_Filter.c **** * \param    widgetId Specifies the ID number of the widget.
 937:Generated_Source\PSoC6/CapSense_Filter.c **** * \param    sensorId Specifies the ID number of the sensor in the widget.
 938:Generated_Source\PSoC6/CapSense_Filter.c **** *
 939:Generated_Source\PSoC6/CapSense_Filter.c **** *******************************************************************************/
 940:Generated_Source\PSoC6/CapSense_Filter.c **** void CapSense_InitializeMedian(uint32 widgetId, uint32 sensorId)
 941:Generated_Source\PSoC6/CapSense_Filter.c **** {
 942:Generated_Source\PSoC6/CapSense_Filter.c ****     CapSense_FLASH_WD_STRUCT const *ptrWidget = &CapSense_dsFlash.wdgtArray[widgetId];
 943:Generated_Source\PSoC6/CapSense_Filter.c ****     CapSense_RAM_SNS_STRUCT *ptrSensor = NULL;
 944:Generated_Source\PSoC6/CapSense_Filter.c ****     CapSense_PTR_FILTER_VARIANT ptrFilterHistObj;
 945:Generated_Source\PSoC6/CapSense_Filter.c **** 
 946:Generated_Source\PSoC6/CapSense_Filter.c ****     /* Find pointer to specified sensor object */
 947:Generated_Source\PSoC6/CapSense_Filter.c ****     ptrSensor = ptrWidget->ptr2SnsRam;
 948:Generated_Source\PSoC6/CapSense_Filter.c ****     ptrSensor = &ptrSensor[sensorId];
 949:Generated_Source\PSoC6/CapSense_Filter.c **** 
 950:Generated_Source\PSoC6/CapSense_Filter.c ****     /* Find pointer to specified filter sensor object */
 951:Generated_Source\PSoC6/CapSense_Filter.c ****     ptrFilterHistObj.ptr = ptrWidget->ptr2FltrHistory;
 952:Generated_Source\PSoC6/CapSense_Filter.c **** 
 953:Generated_Source\PSoC6/CapSense_Filter.c ****     if ((CapSense_WD_TYPE_ENUM)ptrWidget->wdgtType != CapSense_WD_PROXIMITY_E)
 954:Generated_Source\PSoC6/CapSense_Filter.c ****     {
 955:Generated_Source\PSoC6/CapSense_Filter.c ****         #if (CapSense_REGULAR_SENSOR_EN)
 956:Generated_Source\PSoC6/CapSense_Filter.c ****             ptrFilterHistObj.ptrRegular = &ptrFilterHistObj.ptrRegular[sensorId];
 957:Generated_Source\PSoC6/CapSense_Filter.c ****         #endif /* (CapSense_REGULAR_SENSOR_EN) */
 958:Generated_Source\PSoC6/CapSense_Filter.c ****     }
ARM GAS  C:\Users\ikomb\AppData\Local\Temp\ccZFcZfB.s 			page 23


 959:Generated_Source\PSoC6/CapSense_Filter.c ****     else
 960:Generated_Source\PSoC6/CapSense_Filter.c ****     {
 961:Generated_Source\PSoC6/CapSense_Filter.c ****         #if (CapSense_PROXIMITY_SENSOR_EN)
 962:Generated_Source\PSoC6/CapSense_Filter.c ****             ptrFilterHistObj.ptrProx = &ptrFilterHistObj.ptrProx[sensorId];
 963:Generated_Source\PSoC6/CapSense_Filter.c ****         #endif /* (CapSense_PROXIMITY_SENSOR_EN) */
 964:Generated_Source\PSoC6/CapSense_Filter.c ****     }
 965:Generated_Source\PSoC6/CapSense_Filter.c **** 
 966:Generated_Source\PSoC6/CapSense_Filter.c ****     CapSense_InitializeMedianInternal(ptrFilterHistObj, ptrSensor, (uint32)ptrWidget->wdgtType);
 967:Generated_Source\PSoC6/CapSense_Filter.c **** }
 968:Generated_Source\PSoC6/CapSense_Filter.c **** 
 969:Generated_Source\PSoC6/CapSense_Filter.c **** 
 970:Generated_Source\PSoC6/CapSense_Filter.c **** /*******************************************************************************
 971:Generated_Source\PSoC6/CapSense_Filter.c **** * Function Name: CapSense_RunMedian
 972:Generated_Source\PSoC6/CapSense_Filter.c **** ****************************************************************************//**
 973:Generated_Source\PSoC6/CapSense_Filter.c **** *
 974:Generated_Source\PSoC6/CapSense_Filter.c **** * \brief    Executes the Median filter algorithm on a sensor indicated by an input
 975:Generated_Source\PSoC6/CapSense_Filter.c **** *           parameter.
 976:Generated_Source\PSoC6/CapSense_Filter.c **** *
 977:Generated_Source\PSoC6/CapSense_Filter.c **** * \details  Executes the Median filter algorithm on a sensor indicated by an input
 978:Generated_Source\PSoC6/CapSense_Filter.c **** *           parameter.
 979:Generated_Source\PSoC6/CapSense_Filter.c **** *
 980:Generated_Source\PSoC6/CapSense_Filter.c **** * \param    widgetId Specifies the ID number of the widget.
 981:Generated_Source\PSoC6/CapSense_Filter.c **** * \param    sensorId Specifies the ID number of the sensor in the widget.
 982:Generated_Source\PSoC6/CapSense_Filter.c **** *
 983:Generated_Source\PSoC6/CapSense_Filter.c **** *******************************************************************************/
 984:Generated_Source\PSoC6/CapSense_Filter.c **** void CapSense_RunMedian(uint32 widgetId, uint32 sensorId)
 985:Generated_Source\PSoC6/CapSense_Filter.c **** {
 986:Generated_Source\PSoC6/CapSense_Filter.c ****     CapSense_FLASH_WD_STRUCT const *ptrWidget = &CapSense_dsFlash.wdgtArray[widgetId];
 987:Generated_Source\PSoC6/CapSense_Filter.c ****     CapSense_RAM_SNS_STRUCT *ptrSensor = NULL;
 988:Generated_Source\PSoC6/CapSense_Filter.c ****     CapSense_PTR_FILTER_VARIANT ptrFilterHistObj;
 989:Generated_Source\PSoC6/CapSense_Filter.c **** 
 990:Generated_Source\PSoC6/CapSense_Filter.c ****     /* Find pointer to specified sensor object */
 991:Generated_Source\PSoC6/CapSense_Filter.c ****     ptrSensor = ptrWidget->ptr2SnsRam;
 992:Generated_Source\PSoC6/CapSense_Filter.c ****     ptrSensor = &ptrSensor[sensorId];
 993:Generated_Source\PSoC6/CapSense_Filter.c **** 
 994:Generated_Source\PSoC6/CapSense_Filter.c ****     /* Find pointer to specified filter sensor object */
 995:Generated_Source\PSoC6/CapSense_Filter.c ****     ptrFilterHistObj.ptr = ptrWidget->ptr2FltrHistory;
 996:Generated_Source\PSoC6/CapSense_Filter.c **** 
 997:Generated_Source\PSoC6/CapSense_Filter.c ****     if ((CapSense_WD_TYPE_ENUM)ptrWidget->wdgtType != CapSense_WD_PROXIMITY_E)
 998:Generated_Source\PSoC6/CapSense_Filter.c ****     {
 999:Generated_Source\PSoC6/CapSense_Filter.c ****         #if (CapSense_REGULAR_SENSOR_EN)
1000:Generated_Source\PSoC6/CapSense_Filter.c ****             ptrFilterHistObj.ptrRegular = &ptrFilterHistObj.ptrRegular[sensorId];
1001:Generated_Source\PSoC6/CapSense_Filter.c ****         #endif /* (CapSense_REGULAR_SENSOR_EN) */
1002:Generated_Source\PSoC6/CapSense_Filter.c ****     }
1003:Generated_Source\PSoC6/CapSense_Filter.c ****     else
1004:Generated_Source\PSoC6/CapSense_Filter.c ****     {
1005:Generated_Source\PSoC6/CapSense_Filter.c ****         #if (CapSense_PROXIMITY_SENSOR_EN)
1006:Generated_Source\PSoC6/CapSense_Filter.c ****             ptrFilterHistObj.ptrProx = &ptrFilterHistObj.ptrProx[sensorId];
1007:Generated_Source\PSoC6/CapSense_Filter.c ****         #endif /* (CapSense_PROXIMITY_SENSOR_EN) */
1008:Generated_Source\PSoC6/CapSense_Filter.c ****     }
1009:Generated_Source\PSoC6/CapSense_Filter.c **** 
1010:Generated_Source\PSoC6/CapSense_Filter.c ****     CapSense_RunMedianInternal(ptrFilterHistObj, ptrSensor, (uint32)ptrWidget->wdgtType);
1011:Generated_Source\PSoC6/CapSense_Filter.c **** }
1012:Generated_Source\PSoC6/CapSense_Filter.c **** 
1013:Generated_Source\PSoC6/CapSense_Filter.c **** 
1014:Generated_Source\PSoC6/CapSense_Filter.c **** /*******************************************************************************
1015:Generated_Source\PSoC6/CapSense_Filter.c **** * Function Name: CapSense_InitializeMedianInternal
ARM GAS  C:\Users\ikomb\AppData\Local\Temp\ccZFcZfB.s 			page 24


1016:Generated_Source\PSoC6/CapSense_Filter.c **** ****************************************************************************//**
1017:Generated_Source\PSoC6/CapSense_Filter.c **** *
1018:Generated_Source\PSoC6/CapSense_Filter.c **** * \brief    Initializes the Median filter.
1019:Generated_Source\PSoC6/CapSense_Filter.c **** *
1020:Generated_Source\PSoC6/CapSense_Filter.c **** * \details  Initializes the Median filter.
1021:Generated_Source\PSoC6/CapSense_Filter.c **** *
1022:Generated_Source\PSoC6/CapSense_Filter.c **** * \param    ptrFilterHistObj The pointer to the filter RAM object of the sensor.
1023:Generated_Source\PSoC6/CapSense_Filter.c **** * \param    ptrSensorObj     The pointer to the sensor RAM object of the sensor.
1024:Generated_Source\PSoC6/CapSense_Filter.c **** * \param    wdType           Specifies the type of a widget.
1025:Generated_Source\PSoC6/CapSense_Filter.c **** *
1026:Generated_Source\PSoC6/CapSense_Filter.c **** *******************************************************************************/
1027:Generated_Source\PSoC6/CapSense_Filter.c **** void CapSense_InitializeMedianInternal(CapSense_PTR_FILTER_VARIANT ptrFilterHistObj,
1028:Generated_Source\PSoC6/CapSense_Filter.c ****                                                CapSense_RAM_SNS_STRUCT *ptrSensorObj, uint32 wdType
1029:Generated_Source\PSoC6/CapSense_Filter.c **** {
 273              		.loc 1 1029 0
 274              		.cfi_startproc
 275              		@ args = 0, pretend = 0, frame = 0
 276              		@ frame_needed = 0, uses_anonymous_args = 0
 277              	.LVL36:
 278 0000 F0B5     		push	{r4, r5, r6, r7, lr}
 279              		.cfi_def_cfa_offset 20
 280              		.cfi_offset 4, -20
 281              		.cfi_offset 5, -16
 282              		.cfi_offset 6, -12
 283              		.cfi_offset 7, -8
 284              		.cfi_offset 14, -4
 285              	.LVL37:
1030:Generated_Source\PSoC6/CapSense_Filter.c ****     uint32 freqChannel;
1031:Generated_Source\PSoC6/CapSense_Filter.c **** 
1032:Generated_Source\PSoC6/CapSense_Filter.c ****     for(freqChannel = CapSense_NUM_SCAN_FREQS; freqChannel-- > 0u;)
 286              		.loc 1 1032 0
 287 0002 0123     		movs	r3, #1
 288 0004 11E0     		b	.L18
 289              	.LVL38:
 290              	.L20:
1033:Generated_Source\PSoC6/CapSense_Filter.c ****     {
1034:Generated_Source\PSoC6/CapSense_Filter.c ****         if ((CapSense_WD_TYPE_ENUM)wdType != CapSense_WD_PROXIMITY_E)
 291              		.loc 1 1034 0
 292 0006 FF23     		movs	r3, #255
 293 0008 1340     		ands	r3, r2
 294 000a 062B     		cmp	r3, #6
 295 000c 0CD0     		beq	.L19
1035:Generated_Source\PSoC6/CapSense_Filter.c ****         {
1036:Generated_Source\PSoC6/CapSense_Filter.c ****             #if (CapSense_REGULAR_SENSOR_EN && CapSense_REGULAR_RC_MEDIAN_FILTER_EN)
1037:Generated_Source\PSoC6/CapSense_Filter.c ****                 ptrFilterHistObj.ptrRegular->regularChannel[freqChannel].medHistory[0u] = ptrSensor
 296              		.loc 1 1037 0
 297 000e 6500     		lsls	r5, r4, #1
 298 0010 6B5A     		ldrh	r3, [r5, r1]
 299 0012 9C46     		mov	ip, r3
 300 0014 A300     		lsls	r3, r4, #2
 301 0016 1F19     		adds	r7, r3, r4
 302 0018 7E00     		lsls	r6, r7, #1
 303 001a 6746     		mov	r7, ip
 304 001c 3752     		strh	r7, [r6, r0]
1038:Generated_Source\PSoC6/CapSense_Filter.c ****                 ptrFilterHistObj.ptrRegular->regularChannel[freqChannel].medHistory[1u] = ptrSensor
 305              		.loc 1 1038 0
 306 001e 6E5A     		ldrh	r6, [r5, r1]
ARM GAS  C:\Users\ikomb\AppData\Local\Temp\ccZFcZfB.s 			page 25


 307 0020 1B19     		adds	r3, r3, r4
 308 0022 5D00     		lsls	r5, r3, #1
 309 0024 4519     		adds	r5, r0, r5
 310 0026 6E80     		strh	r6, [r5, #2]
 311              	.L19:
1029:Generated_Source\PSoC6/CapSense_Filter.c ****     uint32 freqChannel;
 312              		.loc 1 1029 0 discriminator 1
 313 0028 2300     		movs	r3, r4
 314              	.LVL39:
 315              	.L18:
1032:Generated_Source\PSoC6/CapSense_Filter.c ****     {
 316              		.loc 1 1032 0 discriminator 1
 317 002a 5C1E     		subs	r4, r3, #1
 318              	.LVL40:
 319 002c 002B     		cmp	r3, #0
 320 002e EAD1     		bne	.L20
1039:Generated_Source\PSoC6/CapSense_Filter.c ****             #endif /* (CapSense_REGULAR_SENSOR_EN) */
1040:Generated_Source\PSoC6/CapSense_Filter.c ****         }
1041:Generated_Source\PSoC6/CapSense_Filter.c ****         else
1042:Generated_Source\PSoC6/CapSense_Filter.c ****         {
1043:Generated_Source\PSoC6/CapSense_Filter.c ****             #if (CapSense_PROXIMITY_SENSOR_EN && CapSense_PROX_RC_MEDIAN_FILTER_EN)
1044:Generated_Source\PSoC6/CapSense_Filter.c ****                 ptrFilterHistObj.ptrProx->proxChannel[freqChannel].medHistory[0u] = ptrSensorObj->r
1045:Generated_Source\PSoC6/CapSense_Filter.c ****                 ptrFilterHistObj.ptrProx->proxChannel[freqChannel].medHistory[1u] = ptrSensorObj->r
1046:Generated_Source\PSoC6/CapSense_Filter.c ****             #endif /* (CapSense_PROXIMITY_SENSOR_EN) */
1047:Generated_Source\PSoC6/CapSense_Filter.c ****         }
1048:Generated_Source\PSoC6/CapSense_Filter.c ****     }
1049:Generated_Source\PSoC6/CapSense_Filter.c **** }
 321              		.loc 1 1049 0
 322              		@ sp needed
 323              	.LVL41:
 324 0030 F0BD     		pop	{r4, r5, r6, r7, pc}
 325              		.cfi_endproc
 326              	.LFE50:
 327              		.size	CapSense_InitializeMedianInternal, .-CapSense_InitializeMedianInternal
 328 0032 C046     		.section	.text.CapSense_InitializeMedian,"ax",%progbits
 329              		.align	2
 330              		.global	CapSense_InitializeMedian
 331              		.code	16
 332              		.thumb_func
 333              		.type	CapSense_InitializeMedian, %function
 334              	CapSense_InitializeMedian:
 335              	.LFB48:
 941:Generated_Source\PSoC6/CapSense_Filter.c ****     CapSense_FLASH_WD_STRUCT const *ptrWidget = &CapSense_dsFlash.wdgtArray[widgetId];
 336              		.loc 1 941 0
 337              		.cfi_startproc
 338              		@ args = 0, pretend = 0, frame = 0
 339              		@ frame_needed = 0, uses_anonymous_args = 0
 340              	.LVL42:
 341 0000 F8B5     		push	{r3, r4, r5, r6, r7, lr}
 342              		.cfi_def_cfa_offset 24
 343              		.cfi_offset 3, -24
 344              		.cfi_offset 4, -20
 345              		.cfi_offset 5, -16
 346              		.cfi_offset 6, -12
 347              		.cfi_offset 7, -8
 348              		.cfi_offset 14, -4
 349              	.LVL43:
ARM GAS  C:\Users\ikomb\AppData\Local\Temp\ccZFcZfB.s 			page 26


 947:Generated_Source\PSoC6/CapSense_Filter.c ****     ptrSensor = &ptrSensor[sensorId];
 350              		.loc 1 947 0
 351 0002 0B4A     		ldr	r2, .L23
 352 0004 4600     		lsls	r6, r0, #1
 353 0006 3418     		adds	r4, r6, r0
 354 0008 2301     		lsls	r3, r4, #4
 355 000a D318     		adds	r3, r2, r3
 356              	.LVL44:
 948:Generated_Source\PSoC6/CapSense_Filter.c **** 
 357              		.loc 1 948 0
 358 000c 8C00     		lsls	r4, r1, #2
 359 000e 6118     		adds	r1, r4, r1
 360              	.LVL45:
 361 0010 4D00     		lsls	r5, r1, #1
 362 0012 9968     		ldr	r1, [r3, #8]
 363 0014 4919     		adds	r1, r1, r5
 364              	.LVL46:
 951:Generated_Source\PSoC6/CapSense_Filter.c **** 
 365              		.loc 1 951 0
 366 0016 DF68     		ldr	r7, [r3, #12]
 367 0018 3C00     		movs	r4, r7
 368              	.LVL47:
 953:Generated_Source\PSoC6/CapSense_Filter.c ****     {
 369              		.loc 1 953 0
 370 001a 3018     		adds	r0, r6, r0
 371              	.LVL48:
 372 001c 0301     		lsls	r3, r0, #4
 373 001e D318     		adds	r3, r2, r3
 374 0020 9A7E     		ldrb	r2, [r3, #26]
 375 0022 062A     		cmp	r2, #6
 376 0024 00D0     		beq	.L22
 956:Generated_Source\PSoC6/CapSense_Filter.c ****         #endif /* (CapSense_REGULAR_SENSOR_EN) */
 377              		.loc 1 956 0
 378 0026 7C19     		adds	r4, r7, r5
 379              	.L22:
 380              	.LVL49:
 966:Generated_Source\PSoC6/CapSense_Filter.c **** }
 381              		.loc 1 966 0
 382 0028 2000     		movs	r0, r4
 383 002a FFF7FEFF 		bl	CapSense_InitializeMedianInternal
 384              	.LVL50:
 967:Generated_Source\PSoC6/CapSense_Filter.c **** 
 385              		.loc 1 967 0
 386              		@ sp needed
 387              	.LVL51:
 388              	.LVL52:
 389              	.LVL53:
 390 002e F8BD     		pop	{r3, r4, r5, r6, r7, pc}
 391              	.L24:
 392              		.align	2
 393              	.L23:
 394 0030 00000000 		.word	CapSense_dsFlash
 395              		.cfi_endproc
 396              	.LFE48:
 397              		.size	CapSense_InitializeMedian, .-CapSense_InitializeMedian
 398              		.section	.text.CapSense_InitializeAverageInternal,"ax",%progbits
 399              		.align	2
ARM GAS  C:\Users\ikomb\AppData\Local\Temp\ccZFcZfB.s 			page 27


 400              		.global	CapSense_InitializeAverageInternal
 401              		.code	16
 402              		.thumb_func
 403              		.type	CapSense_InitializeAverageInternal, %function
 404              	CapSense_InitializeAverageInternal:
 405              	.LFB54:
1050:Generated_Source\PSoC6/CapSense_Filter.c **** 
1051:Generated_Source\PSoC6/CapSense_Filter.c **** 
1052:Generated_Source\PSoC6/CapSense_Filter.c **** /*******************************************************************************
1053:Generated_Source\PSoC6/CapSense_Filter.c **** * Function Name: CapSense_RunMedianInternal
1054:Generated_Source\PSoC6/CapSense_Filter.c **** ****************************************************************************//**
1055:Generated_Source\PSoC6/CapSense_Filter.c **** *
1056:Generated_Source\PSoC6/CapSense_Filter.c **** * \brief    Runs the Median filter.
1057:Generated_Source\PSoC6/CapSense_Filter.c **** *
1058:Generated_Source\PSoC6/CapSense_Filter.c **** * \details  Runs the Median filter.
1059:Generated_Source\PSoC6/CapSense_Filter.c **** *
1060:Generated_Source\PSoC6/CapSense_Filter.c **** * \param    ptrFilterHistObj The pointer to the filter RAM object of the sensor.
1061:Generated_Source\PSoC6/CapSense_Filter.c **** * \param    ptrSensorObj     The pointer to the sensor RAM object of the sensor.
1062:Generated_Source\PSoC6/CapSense_Filter.c **** * \param    wdType           Specifies the type of a widget.
1063:Generated_Source\PSoC6/CapSense_Filter.c **** *
1064:Generated_Source\PSoC6/CapSense_Filter.c **** *******************************************************************************/
1065:Generated_Source\PSoC6/CapSense_Filter.c **** void CapSense_RunMedianInternal(CapSense_PTR_FILTER_VARIANT ptrFilterHistObj,
1066:Generated_Source\PSoC6/CapSense_Filter.c ****                                         CapSense_RAM_SNS_STRUCT *ptrSensorObj, uint32 wdType)
1067:Generated_Source\PSoC6/CapSense_Filter.c **** {
1068:Generated_Source\PSoC6/CapSense_Filter.c ****     uint32 freqChannel;
1069:Generated_Source\PSoC6/CapSense_Filter.c **** 
1070:Generated_Source\PSoC6/CapSense_Filter.c ****     #if ((CapSense_REGULAR_SENSOR_EN && CapSense_REGULAR_RC_MEDIAN_FILTER_EN) || \
1071:Generated_Source\PSoC6/CapSense_Filter.c ****          (CapSense_PROXIMITY_SENSOR_EN && CapSense_PROX_RC_MEDIAN_FILTER_EN))
1072:Generated_Source\PSoC6/CapSense_Filter.c ****         uint32 temp;
1073:Generated_Source\PSoC6/CapSense_Filter.c ****     #endif
1074:Generated_Source\PSoC6/CapSense_Filter.c **** 
1075:Generated_Source\PSoC6/CapSense_Filter.c ****     for(freqChannel = CapSense_NUM_SCAN_FREQS; freqChannel-- > 0u;)
1076:Generated_Source\PSoC6/CapSense_Filter.c ****     {
1077:Generated_Source\PSoC6/CapSense_Filter.c ****         if ((CapSense_WD_TYPE_ENUM)wdType != CapSense_WD_PROXIMITY_E)
1078:Generated_Source\PSoC6/CapSense_Filter.c ****         {
1079:Generated_Source\PSoC6/CapSense_Filter.c ****             #if (CapSense_REGULAR_SENSOR_EN && CapSense_REGULAR_RC_MEDIAN_FILTER_EN)
1080:Generated_Source\PSoC6/CapSense_Filter.c ****                 temp = CapSense_FtMedian((uint32)ptrSensorObj->raw[freqChannel],\
1081:Generated_Source\PSoC6/CapSense_Filter.c ****                                                  (uint32)ptrFilterHistObj.ptrRegular->regularChanne
1082:Generated_Source\PSoC6/CapSense_Filter.c ****                                                  (uint32)ptrFilterHistObj.ptrRegular->regularChanne
1083:Generated_Source\PSoC6/CapSense_Filter.c ****                 ptrFilterHistObj.ptrRegular->regularChannel[freqChannel].medHistory[1u] = \
1084:Generated_Source\PSoC6/CapSense_Filter.c ****                 ptrFilterHistObj.ptrRegular->regularChannel[freqChannel].medHistory[0u];
1085:Generated_Source\PSoC6/CapSense_Filter.c ****                 ptrFilterHistObj.ptrRegular->regularChannel[freqChannel].medHistory[0u] = ptrSensor
1086:Generated_Source\PSoC6/CapSense_Filter.c ****                 ptrSensorObj->raw[freqChannel] = CY_LO16(temp);
1087:Generated_Source\PSoC6/CapSense_Filter.c ****             #endif /* (CapSense_REGULAR_SENSOR_EN) */
1088:Generated_Source\PSoC6/CapSense_Filter.c ****         }
1089:Generated_Source\PSoC6/CapSense_Filter.c ****         else
1090:Generated_Source\PSoC6/CapSense_Filter.c ****         {
1091:Generated_Source\PSoC6/CapSense_Filter.c ****             #if (CapSense_PROXIMITY_SENSOR_EN && CapSense_PROX_RC_MEDIAN_FILTER_EN)
1092:Generated_Source\PSoC6/CapSense_Filter.c ****                 temp = CapSense_FtMedian((uint32)ptrSensorObj->raw[freqChannel],\
1093:Generated_Source\PSoC6/CapSense_Filter.c ****                                                  (uint32)ptrFilterHistObj.ptrProx->proxChannel[freq
1094:Generated_Source\PSoC6/CapSense_Filter.c ****                                                  (uint32)ptrFilterHistObj.ptrProx->proxChannel[freq
1095:Generated_Source\PSoC6/CapSense_Filter.c ****                 ptrFilterHistObj.ptrProx->proxChannel[freqChannel].medHistory[1u] = \
1096:Generated_Source\PSoC6/CapSense_Filter.c ****                 ptrFilterHistObj.ptrProx->proxChannel[freqChannel].medHistory[0u];
1097:Generated_Source\PSoC6/CapSense_Filter.c ****                 ptrFilterHistObj.ptrProx->proxChannel[freqChannel].medHistory[0u] = ptrSensorObj->r
1098:Generated_Source\PSoC6/CapSense_Filter.c ****                 ptrSensorObj->raw[freqChannel] = CY_LO16(temp);
1099:Generated_Source\PSoC6/CapSense_Filter.c ****             #endif /* (CapSense_PROXIMITY_SENSOR_EN) */
1100:Generated_Source\PSoC6/CapSense_Filter.c ****         }
ARM GAS  C:\Users\ikomb\AppData\Local\Temp\ccZFcZfB.s 			page 28


1101:Generated_Source\PSoC6/CapSense_Filter.c ****     }
1102:Generated_Source\PSoC6/CapSense_Filter.c **** }
1103:Generated_Source\PSoC6/CapSense_Filter.c **** #endif /* (CapSense_REGULAR_RC_MEDIAN_FILTER_EN || CapSense_PROX_RC_MEDIAN_FILTER_EN) */
1104:Generated_Source\PSoC6/CapSense_Filter.c **** 
1105:Generated_Source\PSoC6/CapSense_Filter.c **** 
1106:Generated_Source\PSoC6/CapSense_Filter.c **** #if (CapSense_REGULAR_RC_AVERAGE_FILTER_EN || CapSense_PROX_RC_AVERAGE_FILTER_EN)
1107:Generated_Source\PSoC6/CapSense_Filter.c **** 
1108:Generated_Source\PSoC6/CapSense_Filter.c **** /*******************************************************************************
1109:Generated_Source\PSoC6/CapSense_Filter.c **** * Function Name: CapSense_InitializeAverage
1110:Generated_Source\PSoC6/CapSense_Filter.c **** ****************************************************************************//**
1111:Generated_Source\PSoC6/CapSense_Filter.c **** *
1112:Generated_Source\PSoC6/CapSense_Filter.c **** * \brief    Initializes the average filter history.
1113:Generated_Source\PSoC6/CapSense_Filter.c **** *
1114:Generated_Source\PSoC6/CapSense_Filter.c **** * \details  Initializes the average filter history.
1115:Generated_Source\PSoC6/CapSense_Filter.c **** *
1116:Generated_Source\PSoC6/CapSense_Filter.c **** * \param    widgetId Specifies the ID number of the widget.
1117:Generated_Source\PSoC6/CapSense_Filter.c **** * \param    sensorId Specifies the ID number of the sensor in the widget.
1118:Generated_Source\PSoC6/CapSense_Filter.c **** *
1119:Generated_Source\PSoC6/CapSense_Filter.c **** *******************************************************************************/
1120:Generated_Source\PSoC6/CapSense_Filter.c **** void CapSense_InitializeAverage(uint32 widgetId, uint32 sensorId)
1121:Generated_Source\PSoC6/CapSense_Filter.c **** {
1122:Generated_Source\PSoC6/CapSense_Filter.c ****     CapSense_FLASH_WD_STRUCT const *ptrWidget = &CapSense_dsFlash.wdgtArray[widgetId];
1123:Generated_Source\PSoC6/CapSense_Filter.c ****     CapSense_RAM_SNS_STRUCT *ptrSensor = NULL;
1124:Generated_Source\PSoC6/CapSense_Filter.c ****     CapSense_PTR_FILTER_VARIANT ptrFilterHistObj;
1125:Generated_Source\PSoC6/CapSense_Filter.c **** 
1126:Generated_Source\PSoC6/CapSense_Filter.c ****     /* Find pointer to specified sensor object */
1127:Generated_Source\PSoC6/CapSense_Filter.c ****     ptrSensor = ptrWidget->ptr2SnsRam;
1128:Generated_Source\PSoC6/CapSense_Filter.c ****     ptrSensor = &ptrSensor[sensorId];
1129:Generated_Source\PSoC6/CapSense_Filter.c **** 
1130:Generated_Source\PSoC6/CapSense_Filter.c ****     /* Find pointer to specified filter sensor object */
1131:Generated_Source\PSoC6/CapSense_Filter.c ****     ptrFilterHistObj.ptr = ptrWidget->ptr2FltrHistory;
1132:Generated_Source\PSoC6/CapSense_Filter.c **** 
1133:Generated_Source\PSoC6/CapSense_Filter.c ****     if ((CapSense_WD_TYPE_ENUM)ptrWidget->wdgtType != CapSense_WD_PROXIMITY_E)
1134:Generated_Source\PSoC6/CapSense_Filter.c ****     {
1135:Generated_Source\PSoC6/CapSense_Filter.c ****         #if (CapSense_REGULAR_SENSOR_EN)
1136:Generated_Source\PSoC6/CapSense_Filter.c ****             ptrFilterHistObj.ptrRegular = &ptrFilterHistObj.ptrRegular[sensorId];
1137:Generated_Source\PSoC6/CapSense_Filter.c ****         #endif /* (CapSense_REGULAR_SENSOR_EN) */
1138:Generated_Source\PSoC6/CapSense_Filter.c ****     }
1139:Generated_Source\PSoC6/CapSense_Filter.c ****     else
1140:Generated_Source\PSoC6/CapSense_Filter.c ****     {
1141:Generated_Source\PSoC6/CapSense_Filter.c ****         #if (CapSense_PROXIMITY_SENSOR_EN)
1142:Generated_Source\PSoC6/CapSense_Filter.c ****             ptrFilterHistObj.ptrProx = &ptrFilterHistObj.ptrProx[sensorId];
1143:Generated_Source\PSoC6/CapSense_Filter.c ****         #endif /* (CapSense_PROXIMITY_SENSOR_EN) */
1144:Generated_Source\PSoC6/CapSense_Filter.c ****     }
1145:Generated_Source\PSoC6/CapSense_Filter.c **** 
1146:Generated_Source\PSoC6/CapSense_Filter.c ****     CapSense_InitializeAverageInternal(ptrFilterHistObj, ptrSensor, (uint32)ptrWidget->wdgtType);
1147:Generated_Source\PSoC6/CapSense_Filter.c **** }
1148:Generated_Source\PSoC6/CapSense_Filter.c **** 
1149:Generated_Source\PSoC6/CapSense_Filter.c **** 
1150:Generated_Source\PSoC6/CapSense_Filter.c **** /*******************************************************************************
1151:Generated_Source\PSoC6/CapSense_Filter.c **** * Function Name: CapSense_RunAverage
1152:Generated_Source\PSoC6/CapSense_Filter.c **** ****************************************************************************//**
1153:Generated_Source\PSoC6/CapSense_Filter.c **** *
1154:Generated_Source\PSoC6/CapSense_Filter.c **** * \brief    Executes the average filter algorithm on a sensor indicated by an input
1155:Generated_Source\PSoC6/CapSense_Filter.c **** *           parameter.
1156:Generated_Source\PSoC6/CapSense_Filter.c **** *
1157:Generated_Source\PSoC6/CapSense_Filter.c **** * \details  Executes the average filter algorithm on a sensor indicated by an input
ARM GAS  C:\Users\ikomb\AppData\Local\Temp\ccZFcZfB.s 			page 29


1158:Generated_Source\PSoC6/CapSense_Filter.c **** *           parameter.
1159:Generated_Source\PSoC6/CapSense_Filter.c **** *
1160:Generated_Source\PSoC6/CapSense_Filter.c **** * \param    widgetId Specifies the ID number of the widget.
1161:Generated_Source\PSoC6/CapSense_Filter.c **** * \param    sensorId Specifies the ID number of the sensor in the widget.
1162:Generated_Source\PSoC6/CapSense_Filter.c **** *
1163:Generated_Source\PSoC6/CapSense_Filter.c **** *******************************************************************************/
1164:Generated_Source\PSoC6/CapSense_Filter.c **** void CapSense_RunAverage(uint32 widgetId, uint32 sensorId)
1165:Generated_Source\PSoC6/CapSense_Filter.c **** {
1166:Generated_Source\PSoC6/CapSense_Filter.c ****     CapSense_FLASH_WD_STRUCT const *ptrWidget = &CapSense_dsFlash.wdgtArray[widgetId];
1167:Generated_Source\PSoC6/CapSense_Filter.c ****     CapSense_RAM_SNS_STRUCT *ptrSensor = NULL;
1168:Generated_Source\PSoC6/CapSense_Filter.c ****     CapSense_PTR_FILTER_VARIANT ptrFilterHistObj;
1169:Generated_Source\PSoC6/CapSense_Filter.c **** 
1170:Generated_Source\PSoC6/CapSense_Filter.c ****     /* Find pointer to specified sensor object */
1171:Generated_Source\PSoC6/CapSense_Filter.c ****     ptrSensor = ptrWidget->ptr2SnsRam;
1172:Generated_Source\PSoC6/CapSense_Filter.c ****     ptrSensor = &ptrSensor[sensorId];
1173:Generated_Source\PSoC6/CapSense_Filter.c **** 
1174:Generated_Source\PSoC6/CapSense_Filter.c ****     /* Find pointer to specified filter sensor object */
1175:Generated_Source\PSoC6/CapSense_Filter.c ****     ptrFilterHistObj.ptr = ptrWidget->ptr2FltrHistory;
1176:Generated_Source\PSoC6/CapSense_Filter.c **** 
1177:Generated_Source\PSoC6/CapSense_Filter.c ****     if ((CapSense_WD_TYPE_ENUM)ptrWidget->wdgtType != CapSense_WD_PROXIMITY_E)
1178:Generated_Source\PSoC6/CapSense_Filter.c ****     {
1179:Generated_Source\PSoC6/CapSense_Filter.c ****         #if (CapSense_REGULAR_SENSOR_EN)
1180:Generated_Source\PSoC6/CapSense_Filter.c ****             ptrFilterHistObj.ptrRegular = &ptrFilterHistObj.ptrRegular[sensorId];
1181:Generated_Source\PSoC6/CapSense_Filter.c ****         #endif /* (CapSense_REGULAR_SENSOR_EN) */
1182:Generated_Source\PSoC6/CapSense_Filter.c ****     }
1183:Generated_Source\PSoC6/CapSense_Filter.c ****     else
1184:Generated_Source\PSoC6/CapSense_Filter.c ****     {
1185:Generated_Source\PSoC6/CapSense_Filter.c ****         #if (CapSense_PROXIMITY_SENSOR_EN)
1186:Generated_Source\PSoC6/CapSense_Filter.c ****             ptrFilterHistObj.ptrProx = &ptrFilterHistObj.ptrProx[sensorId];
1187:Generated_Source\PSoC6/CapSense_Filter.c ****         #endif /* (CapSense_PROXIMITY_SENSOR_EN) */
1188:Generated_Source\PSoC6/CapSense_Filter.c ****     }
1189:Generated_Source\PSoC6/CapSense_Filter.c **** 
1190:Generated_Source\PSoC6/CapSense_Filter.c ****     CapSense_RunAverageInternal(ptrFilterHistObj, ptrSensor, (uint32)ptrWidget->wdgtType);
1191:Generated_Source\PSoC6/CapSense_Filter.c **** }
1192:Generated_Source\PSoC6/CapSense_Filter.c **** 
1193:Generated_Source\PSoC6/CapSense_Filter.c **** 
1194:Generated_Source\PSoC6/CapSense_Filter.c **** /*******************************************************************************
1195:Generated_Source\PSoC6/CapSense_Filter.c **** * Function Name: CapSense_InitializeAverageInternal
1196:Generated_Source\PSoC6/CapSense_Filter.c **** ****************************************************************************//**
1197:Generated_Source\PSoC6/CapSense_Filter.c **** *
1198:Generated_Source\PSoC6/CapSense_Filter.c **** * \brief    Initializes the average filter.
1199:Generated_Source\PSoC6/CapSense_Filter.c **** *
1200:Generated_Source\PSoC6/CapSense_Filter.c **** * \details  Initializes the average filter.
1201:Generated_Source\PSoC6/CapSense_Filter.c **** *
1202:Generated_Source\PSoC6/CapSense_Filter.c **** * \param    ptrFilterHistObj The pointer to the filter RAM object of the sensor.
1203:Generated_Source\PSoC6/CapSense_Filter.c **** * \param    ptrSensorObj     The pointer to the sensor RAM object of the sensor.
1204:Generated_Source\PSoC6/CapSense_Filter.c **** * \param    wdType           Specifies the type of a widget.
1205:Generated_Source\PSoC6/CapSense_Filter.c **** *
1206:Generated_Source\PSoC6/CapSense_Filter.c **** *******************************************************************************/
1207:Generated_Source\PSoC6/CapSense_Filter.c **** void CapSense_InitializeAverageInternal(CapSense_PTR_FILTER_VARIANT ptrFilterHistObj,\
1208:Generated_Source\PSoC6/CapSense_Filter.c ****                                                   CapSense_RAM_SNS_STRUCT *ptrSensorObj, uint32 wdT
1209:Generated_Source\PSoC6/CapSense_Filter.c **** {
 406              		.loc 1 1209 0
 407              		.cfi_startproc
 408              		@ args = 0, pretend = 0, frame = 0
 409              		@ frame_needed = 0, uses_anonymous_args = 0
 410              	.LVL54:
ARM GAS  C:\Users\ikomb\AppData\Local\Temp\ccZFcZfB.s 			page 30


 411 0000 F0B5     		push	{r4, r5, r6, r7, lr}
 412              		.cfi_def_cfa_offset 20
 413              		.cfi_offset 4, -20
 414              		.cfi_offset 5, -16
 415              		.cfi_offset 6, -12
 416              		.cfi_offset 7, -8
 417              		.cfi_offset 14, -4
 418              	.LVL55:
1210:Generated_Source\PSoC6/CapSense_Filter.c ****     uint32 freqChannel;
1211:Generated_Source\PSoC6/CapSense_Filter.c **** 
1212:Generated_Source\PSoC6/CapSense_Filter.c ****     for(freqChannel = CapSense_NUM_SCAN_FREQS; freqChannel-- > 0u;)
 419              		.loc 1 1212 0
 420 0002 0123     		movs	r3, #1
 421 0004 0FE0     		b	.L26
 422              	.LVL56:
 423              	.L28:
1213:Generated_Source\PSoC6/CapSense_Filter.c ****     {
1214:Generated_Source\PSoC6/CapSense_Filter.c ****         if ((CapSense_WD_TYPE_ENUM)wdType != CapSense_WD_PROXIMITY_E)
 424              		.loc 1 1214 0
 425 0006 FF23     		movs	r3, #255
 426 0008 1340     		ands	r3, r2
 427 000a 062B     		cmp	r3, #6
 428 000c 0AD0     		beq	.L27
1215:Generated_Source\PSoC6/CapSense_Filter.c ****         {
1216:Generated_Source\PSoC6/CapSense_Filter.c ****             #if (CapSense_REGULAR_SENSOR_EN && CapSense_REGULAR_RC_AVERAGE_FILTER_EN)
1217:Generated_Source\PSoC6/CapSense_Filter.c ****                 ptrFilterHistObj.ptrRegular->regularChannel[freqChannel].avgHistory[0] = ptrSensorO
 429              		.loc 1 1217 0
 430 000e 6600     		lsls	r6, r4, #1
 431 0010 775A     		ldrh	r7, [r6, r1]
 432 0012 A500     		lsls	r5, r4, #2
 433 0014 2D19     		adds	r5, r5, r4
 434 0016 6B00     		lsls	r3, r5, #1
 435 0018 C318     		adds	r3, r0, r3
 436 001a 9F80     		strh	r7, [r3, #4]
1218:Generated_Source\PSoC6/CapSense_Filter.c ****                 #if (CapSense_REGULAR_AVERAGE_LEN == CapSense_AVERAGE_FILTER_LEN_4)
1219:Generated_Source\PSoC6/CapSense_Filter.c ****                     ptrFilterHistObj.ptrRegular->regularChannel[freqChannel].avgHistory[1u] = ptrSe
 437              		.loc 1 1219 0
 438 001c 755A     		ldrh	r5, [r6, r1]
 439 001e DD80     		strh	r5, [r3, #6]
1220:Generated_Source\PSoC6/CapSense_Filter.c ****                     ptrFilterHistObj.ptrRegular->regularChannel[freqChannel].avgHistory[2u] = ptrSe
 440              		.loc 1 1220 0
 441 0020 755A     		ldrh	r5, [r6, r1]
 442 0022 1D81     		strh	r5, [r3, #8]
 443              	.L27:
1209:Generated_Source\PSoC6/CapSense_Filter.c ****     uint32 freqChannel;
 444              		.loc 1 1209 0 discriminator 1
 445 0024 2300     		movs	r3, r4
 446              	.LVL57:
 447              	.L26:
1212:Generated_Source\PSoC6/CapSense_Filter.c ****     {
 448              		.loc 1 1212 0 discriminator 1
 449 0026 5C1E     		subs	r4, r3, #1
 450              	.LVL58:
 451 0028 002B     		cmp	r3, #0
 452 002a ECD1     		bne	.L28
1221:Generated_Source\PSoC6/CapSense_Filter.c ****                 #endif /* CapSense_REGULAR_AVERAGE_LEN == CapSense_AVERAGE_FILTER_LEN_4 */
1222:Generated_Source\PSoC6/CapSense_Filter.c ****             #endif /* (CapSense_REGULAR_SENSOR_EN) */
ARM GAS  C:\Users\ikomb\AppData\Local\Temp\ccZFcZfB.s 			page 31


1223:Generated_Source\PSoC6/CapSense_Filter.c ****         }
1224:Generated_Source\PSoC6/CapSense_Filter.c ****         else
1225:Generated_Source\PSoC6/CapSense_Filter.c ****         {
1226:Generated_Source\PSoC6/CapSense_Filter.c ****             #if (CapSense_PROXIMITY_SENSOR_EN && CapSense_PROX_RC_AVERAGE_FILTER_EN)
1227:Generated_Source\PSoC6/CapSense_Filter.c ****                 ptrFilterHistObj.ptrProx->proxChannel[freqChannel].avgHistory[0] = ptrSensorObj->ra
1228:Generated_Source\PSoC6/CapSense_Filter.c ****                     #if (CapSense_PROX_AVERAGE_LEN == CapSense_AVERAGE_FILTER_LEN_4)
1229:Generated_Source\PSoC6/CapSense_Filter.c ****                         ptrFilterHistObj.ptrProx->proxChannel[freqChannel].avgHistory[1u] = ptrSens
1230:Generated_Source\PSoC6/CapSense_Filter.c ****                         ptrFilterHistObj.ptrProx->proxChannel[freqChannel].avgHistory[2u] = ptrSens
1231:Generated_Source\PSoC6/CapSense_Filter.c ****                     #endif /* CapSense_REGULAR_AVERAGE_LEN == CapSense_AVERAGE_FILTER_LEN_4 */
1232:Generated_Source\PSoC6/CapSense_Filter.c ****             #endif /* (CapSense_PROXIMITY_SENSOR_EN) */
1233:Generated_Source\PSoC6/CapSense_Filter.c ****         }
1234:Generated_Source\PSoC6/CapSense_Filter.c ****     }
1235:Generated_Source\PSoC6/CapSense_Filter.c **** }
 453              		.loc 1 1235 0
 454              		@ sp needed
 455              	.LVL59:
 456 002c F0BD     		pop	{r4, r5, r6, r7, pc}
 457              		.cfi_endproc
 458              	.LFE54:
 459              		.size	CapSense_InitializeAverageInternal, .-CapSense_InitializeAverageInternal
 460 002e C046     		.section	.text.CapSense_InitializeWidgetFilter,"ax",%progbits
 461              		.align	2
 462              		.global	CapSense_InitializeWidgetFilter
 463              		.code	16
 464              		.thumb_func
 465              		.type	CapSense_InitializeWidgetFilter, %function
 466              	CapSense_InitializeWidgetFilter:
 467              	.LFB47:
 636:Generated_Source\PSoC6/CapSense_Filter.c ****     uint32 sensorId;
 468              		.loc 1 636 0
 469              		.cfi_startproc
 470              		@ args = 0, pretend = 0, frame = 8
 471              		@ frame_needed = 0, uses_anonymous_args = 0
 472              	.LVL60:
 473 0000 F0B5     		push	{r4, r5, r6, r7, lr}
 474              		.cfi_def_cfa_offset 20
 475              		.cfi_offset 4, -20
 476              		.cfi_offset 5, -16
 477              		.cfi_offset 6, -12
 478              		.cfi_offset 7, -8
 479              		.cfi_offset 14, -4
 480 0002 4F46     		mov	r7, r9
 481 0004 4646     		mov	r6, r8
 482 0006 C0B4     		push	{r6, r7}
 483              		.cfi_def_cfa_offset 28
 484              		.cfi_offset 8, -28
 485              		.cfi_offset 9, -24
 486 0008 83B0     		sub	sp, sp, #12
 487              		.cfi_def_cfa_offset 40
 488 000a 0700     		movs	r7, r0
 489              	.LVL61:
 654:Generated_Source\PSoC6/CapSense_Filter.c ****     #endif /* (0u != (CapSense_CSD_AUTOTUNE & CapSense_CSD_SS_TH_EN)) */
 490              		.loc 1 654 0
 491 000c 4200     		lsls	r2, r0, #1
 492 000e 1218     		adds	r2, r2, r0
 493 0010 1301     		lsls	r3, r2, #4
 494 0012 204A     		ldr	r2, .L34
ARM GAS  C:\Users\ikomb\AppData\Local\Temp\ccZFcZfB.s 			page 32


 495 0014 D318     		adds	r3, r2, r3
 496 0016 5A68     		ldr	r2, [r3, #4]
 497 0018 9146     		mov	r9, r2
 498              	.LVL62:
 658:Generated_Source\PSoC6/CapSense_Filter.c **** 
 499              		.loc 1 658 0
 500 001a 1B8B     		ldrh	r3, [r3, #24]
 501              	.LVL63:
 660:Generated_Source\PSoC6/CapSense_Filter.c ****     {
 502              		.loc 1 660 0
 503 001c 31E0     		b	.L30
 504              	.LVL64:
 505              	.L33:
 663:Generated_Source\PSoC6/CapSense_Filter.c ****         ptrSensor = &ptrSensor[sensorId];
 506              		.loc 1 663 0
 507 001e 7A00     		lsls	r2, r7, #1
 508 0020 D219     		adds	r2, r2, r7
 509 0022 1301     		lsls	r3, r2, #4
 510 0024 1B4A     		ldr	r2, .L34
 511              	.LVL65:
 512 0026 D318     		adds	r3, r2, r3
 513              	.LVL66:
 664:Generated_Source\PSoC6/CapSense_Filter.c **** 
 514              		.loc 1 664 0
 515 0028 A200     		lsls	r2, r4, #2
 516              	.LVL67:
 517 002a 1219     		adds	r2, r2, r4
 518 002c 5100     		lsls	r1, r2, #1
 519 002e 9A68     		ldr	r2, [r3, #8]
 520 0030 5518     		adds	r5, r2, r1
 521              	.LVL68:
 668:Generated_Source\PSoC6/CapSense_Filter.c ****         #endif
 522              		.loc 1 668 0
 523 0032 DA68     		ldr	r2, [r3, #12]
 524 0034 9446     		mov	ip, r2
 525 0036 0192     		str	r2, [sp, #4]
 526              	.LVL69:
 674:Generated_Source\PSoC6/CapSense_Filter.c ****         #endif /* (0u != (CapSense_CSD_AUTOTUNE & CapSense_CSD_SS_TH_EN)) */
 527              		.loc 1 674 0
 528 0038 6200     		lsls	r2, r4, #1
 529 003a 1219     		adds	r2, r2, r4
 530 003c 9000     		lsls	r0, r2, #2
 531 003e 5A6A     		ldr	r2, [r3, #36]
 532 0040 9046     		mov	r8, r2
 533 0042 8044     		add	r8, r8, r0
 534              	.LVL70:
 677:Generated_Source\PSoC6/CapSense_Filter.c ****         {
 535              		.loc 1 677 0
 536 0044 9E7E     		ldrb	r6, [r3, #26]
 537 0046 062E     		cmp	r6, #6
 538 0048 02D0     		beq	.L31
 682:Generated_Source\PSoC6/CapSense_Filter.c ****             #endif
 539              		.loc 1 682 0
 540 004a 0B00     		movs	r3, r1
 541 004c 6344     		add	r3, r3, ip
 542 004e 0193     		str	r3, [sp, #4]
 543              	.L31:
ARM GAS  C:\Users\ikomb\AppData\Local\Temp\ccZFcZfB.s 			page 33


 699:Generated_Source\PSoC6/CapSense_Filter.c ****         #endif /* (CapSense_REGULAR_RC_MEDIAN_FILTER_EN || CapSense_PROX_RC_MEDIAN_FILTER_EN) */
 544              		.loc 1 699 0
 545 0050 3200     		movs	r2, r6
 546 0052 2900     		movs	r1, r5
 547 0054 0198     		ldr	r0, [sp, #4]
 548 0056 FFF7FEFF 		bl	CapSense_InitializeMedianInternal
 549              	.LVL71:
 703:Generated_Source\PSoC6/CapSense_Filter.c ****         #endif /* (CapSense_REGULAR_RC_AVERAGE_FILTER_EN || CapSense_PROX_RC_AVERAGE_FILTER_EN) */
 550              		.loc 1 703 0
 551 005a 3200     		movs	r2, r6
 552 005c 2900     		movs	r1, r5
 553 005e 0198     		ldr	r0, [sp, #4]
 554 0060 FFF7FEFF 		bl	CapSense_InitializeAverageInternal
 555              	.LVL72:
 712:Generated_Source\PSoC6/CapSense_Filter.c ****             {
 556              		.loc 1 712 0
 557 0064 7A00     		lsls	r2, r7, #1
 558 0066 D219     		adds	r2, r2, r7
 559 0068 1301     		lsls	r3, r2, #4
 560 006a 0A4A     		ldr	r2, .L34
 561              	.LVL73:
 562 006c D318     		adds	r3, r2, r3
 563 006e DB7E     		ldrb	r3, [r3, #27]
 711:Generated_Source\PSoC6/CapSense_Filter.c ****                 CapSense_GET_SENSE_METHOD(&CapSense_dsFlash.wdgtArray[widgetId]))
 564              		.loc 1 711 0
 565 0070 012B     		cmp	r3, #1
 566 0072 05D1     		bne	.L32
 714:Generated_Source\PSoC6/CapSense_Filter.c ****             }
 567              		.loc 1 714 0
 568 0074 4B46     		mov	r3, r9
 569 0076 198A     		ldrh	r1, [r3, #16]
 570 0078 2888     		ldrh	r0, [r5]
 571 007a 4246     		mov	r2, r8
 572              	.LVL74:
 573 007c FFF7FEFF 		bl	SmartSense_InitializeNoiseEnvelope
 574              	.LVL75:
 575              	.L32:
 576 0080 2300     		movs	r3, r4
 577              	.LVL76:
 578              	.L30:
 660:Generated_Source\PSoC6/CapSense_Filter.c ****     {
 579              		.loc 1 660 0 discriminator 1
 580 0082 5C1E     		subs	r4, r3, #1
 581              	.LVL77:
 582 0084 002B     		cmp	r3, #0
 583 0086 CAD1     		bne	.L33
 718:Generated_Source\PSoC6/CapSense_Filter.c **** #endif /* ((CapSense_ENABLE == CapSense_RC_FILTER_EN) || \
 584              		.loc 1 718 0
 585 0088 03B0     		add	sp, sp, #12
 586              		@ sp needed
 587              	.LVL78:
 588              	.LVL79:
 589              	.LVL80:
 590 008a 0CBC     		pop	{r2, r3}
 591 008c 9046     		mov	r8, r2
 592 008e 9946     		mov	r9, r3
 593 0090 F0BD     		pop	{r4, r5, r6, r7, pc}
ARM GAS  C:\Users\ikomb\AppData\Local\Temp\ccZFcZfB.s 			page 34


 594              	.L35:
 595 0092 C046     		.align	2
 596              	.L34:
 597 0094 00000000 		.word	CapSense_dsFlash
 598              		.cfi_endproc
 599              	.LFE47:
 600              		.size	CapSense_InitializeWidgetFilter, .-CapSense_InitializeWidgetFilter
 601              		.section	.text.CapSense_InitializeAllFilters,"ax",%progbits
 602              		.align	2
 603              		.global	CapSense_InitializeAllFilters
 604              		.code	16
 605              		.thumb_func
 606              		.type	CapSense_InitializeAllFilters, %function
 607              	CapSense_InitializeAllFilters:
 608              	.LFB46:
 606:Generated_Source\PSoC6/CapSense_Filter.c ****     uint32 widgetId;
 609              		.loc 1 606 0
 610              		.cfi_startproc
 611              		@ args = 0, pretend = 0, frame = 0
 612              		@ frame_needed = 0, uses_anonymous_args = 0
 613 0000 10B5     		push	{r4, lr}
 614              		.cfi_def_cfa_offset 8
 615              		.cfi_offset 4, -8
 616              		.cfi_offset 14, -4
 617              	.LVL81:
 609:Generated_Source\PSoC6/CapSense_Filter.c ****     {
 618              		.loc 1 609 0
 619 0002 0323     		movs	r3, #3
 620 0004 03E0     		b	.L37
 621              	.LVL82:
 622              	.L38:
 611:Generated_Source\PSoC6/CapSense_Filter.c ****     }
 623              		.loc 1 611 0
 624 0006 2000     		movs	r0, r4
 625 0008 FFF7FEFF 		bl	CapSense_InitializeWidgetFilter
 626              	.LVL83:
 609:Generated_Source\PSoC6/CapSense_Filter.c ****     {
 627              		.loc 1 609 0
 628 000c 2300     		movs	r3, r4
 629              	.LVL84:
 630              	.L37:
 609:Generated_Source\PSoC6/CapSense_Filter.c ****     {
 631              		.loc 1 609 0 is_stmt 0 discriminator 1
 632 000e 5C1E     		subs	r4, r3, #1
 633              	.LVL85:
 634 0010 002B     		cmp	r3, #0
 635 0012 F8D1     		bne	.L38
 613:Generated_Source\PSoC6/CapSense_Filter.c **** 
 636              		.loc 1 613 0 is_stmt 1
 637              		@ sp needed
 638              	.LVL86:
 639 0014 10BD     		pop	{r4, pc}
 640              		.cfi_endproc
 641              	.LFE46:
 642              		.size	CapSense_InitializeAllFilters, .-CapSense_InitializeAllFilters
 643 0016 C046     		.section	.text.CapSense_FtInitialize,"ax",%progbits
 644              		.align	2
ARM GAS  C:\Users\ikomb\AppData\Local\Temp\ccZFcZfB.s 			page 35


 645              		.global	CapSense_FtInitialize
 646              		.code	16
 647              		.thumb_func
 648              		.type	CapSense_FtInitialize, %function
 649              	CapSense_FtInitialize:
 650              	.LFB36:
  64:Generated_Source\PSoC6/CapSense_Filter.c ****     #if ((CapSense_ENABLE == CapSense_RC_FILTER_EN) || \
 651              		.loc 1 64 0
 652              		.cfi_startproc
 653              		@ args = 0, pretend = 0, frame = 0
 654              		@ frame_needed = 0, uses_anonymous_args = 0
 655 0000 10B5     		push	{r4, lr}
 656              		.cfi_def_cfa_offset 8
 657              		.cfi_offset 4, -8
 658              		.cfi_offset 14, -4
  67:Generated_Source\PSoC6/CapSense_Filter.c ****     #endif /* ((CapSense_ENABLE == CapSense_RC_FILTER_EN) || \
 659              		.loc 1 67 0
 660 0002 FFF7FEFF 		bl	CapSense_InitializeAllFilters
 661              	.LVL87:
  70:Generated_Source\PSoC6/CapSense_Filter.c **** 
 662              		.loc 1 70 0
 663              		@ sp needed
 664 0006 10BD     		pop	{r4, pc}
 665              		.cfi_endproc
 666              	.LFE36:
 667              		.size	CapSense_FtInitialize, .-CapSense_FtInitialize
 668              		.section	.text.CapSense_InitializeAverage,"ax",%progbits
 669              		.align	2
 670              		.global	CapSense_InitializeAverage
 671              		.code	16
 672              		.thumb_func
 673              		.type	CapSense_InitializeAverage, %function
 674              	CapSense_InitializeAverage:
 675              	.LFB52:
1121:Generated_Source\PSoC6/CapSense_Filter.c ****     CapSense_FLASH_WD_STRUCT const *ptrWidget = &CapSense_dsFlash.wdgtArray[widgetId];
 676              		.loc 1 1121 0
 677              		.cfi_startproc
 678              		@ args = 0, pretend = 0, frame = 0
 679              		@ frame_needed = 0, uses_anonymous_args = 0
 680              	.LVL88:
 681 0000 F8B5     		push	{r3, r4, r5, r6, r7, lr}
 682              		.cfi_def_cfa_offset 24
 683              		.cfi_offset 3, -24
 684              		.cfi_offset 4, -20
 685              		.cfi_offset 5, -16
 686              		.cfi_offset 6, -12
 687              		.cfi_offset 7, -8
 688              		.cfi_offset 14, -4
 689              	.LVL89:
1127:Generated_Source\PSoC6/CapSense_Filter.c ****     ptrSensor = &ptrSensor[sensorId];
 690              		.loc 1 1127 0
 691 0002 0B4A     		ldr	r2, .L42
 692 0004 4600     		lsls	r6, r0, #1
 693 0006 3418     		adds	r4, r6, r0
 694 0008 2301     		lsls	r3, r4, #4
 695 000a D318     		adds	r3, r2, r3
 696              	.LVL90:
ARM GAS  C:\Users\ikomb\AppData\Local\Temp\ccZFcZfB.s 			page 36


1128:Generated_Source\PSoC6/CapSense_Filter.c **** 
 697              		.loc 1 1128 0
 698 000c 8C00     		lsls	r4, r1, #2
 699 000e 6118     		adds	r1, r4, r1
 700              	.LVL91:
 701 0010 4D00     		lsls	r5, r1, #1
 702 0012 9968     		ldr	r1, [r3, #8]
 703 0014 4919     		adds	r1, r1, r5
 704              	.LVL92:
1131:Generated_Source\PSoC6/CapSense_Filter.c **** 
 705              		.loc 1 1131 0
 706 0016 DF68     		ldr	r7, [r3, #12]
 707 0018 3C00     		movs	r4, r7
 708              	.LVL93:
1133:Generated_Source\PSoC6/CapSense_Filter.c ****     {
 709              		.loc 1 1133 0
 710 001a 3018     		adds	r0, r6, r0
 711              	.LVL94:
 712 001c 0301     		lsls	r3, r0, #4
 713 001e D318     		adds	r3, r2, r3
 714 0020 9A7E     		ldrb	r2, [r3, #26]
 715 0022 062A     		cmp	r2, #6
 716 0024 00D0     		beq	.L41
1136:Generated_Source\PSoC6/CapSense_Filter.c ****         #endif /* (CapSense_REGULAR_SENSOR_EN) */
 717              		.loc 1 1136 0
 718 0026 7C19     		adds	r4, r7, r5
 719              	.L41:
 720              	.LVL95:
1146:Generated_Source\PSoC6/CapSense_Filter.c **** }
 721              		.loc 1 1146 0
 722 0028 2000     		movs	r0, r4
 723 002a FFF7FEFF 		bl	CapSense_InitializeAverageInternal
 724              	.LVL96:
1147:Generated_Source\PSoC6/CapSense_Filter.c **** 
 725              		.loc 1 1147 0
 726              		@ sp needed
 727              	.LVL97:
 728              	.LVL98:
 729              	.LVL99:
 730 002e F8BD     		pop	{r3, r4, r5, r6, r7, pc}
 731              	.L43:
 732              		.align	2
 733              	.L42:
 734 0030 00000000 		.word	CapSense_dsFlash
 735              		.cfi_endproc
 736              	.LFE52:
 737              		.size	CapSense_InitializeAverage, .-CapSense_InitializeAverage
 738              		.section	.text.CapSense_RunAverageInternal,"ax",%progbits
 739              		.align	2
 740              		.global	CapSense_RunAverageInternal
 741              		.code	16
 742              		.thumb_func
 743              		.type	CapSense_RunAverageInternal, %function
 744              	CapSense_RunAverageInternal:
 745              	.LFB55:
1236:Generated_Source\PSoC6/CapSense_Filter.c **** 
1237:Generated_Source\PSoC6/CapSense_Filter.c **** 
ARM GAS  C:\Users\ikomb\AppData\Local\Temp\ccZFcZfB.s 			page 37


1238:Generated_Source\PSoC6/CapSense_Filter.c **** /*******************************************************************************
1239:Generated_Source\PSoC6/CapSense_Filter.c **** * Function Name: CapSense_RunAverageInternal
1240:Generated_Source\PSoC6/CapSense_Filter.c **** ****************************************************************************//**
1241:Generated_Source\PSoC6/CapSense_Filter.c **** *
1242:Generated_Source\PSoC6/CapSense_Filter.c **** * \brief    Runs the average filter.
1243:Generated_Source\PSoC6/CapSense_Filter.c **** *
1244:Generated_Source\PSoC6/CapSense_Filter.c **** * \details  Runs the average filter.
1245:Generated_Source\PSoC6/CapSense_Filter.c **** *
1246:Generated_Source\PSoC6/CapSense_Filter.c **** * \param    ptrFilterHistObj The pointer to the filter RAM object of the sensor.
1247:Generated_Source\PSoC6/CapSense_Filter.c **** * \param    ptrSensorObj     The pointer to the sensor RAM object of the sensor.
1248:Generated_Source\PSoC6/CapSense_Filter.c **** * \param    wdType           Specifies the type of a widget.
1249:Generated_Source\PSoC6/CapSense_Filter.c **** *
1250:Generated_Source\PSoC6/CapSense_Filter.c **** *******************************************************************************/
1251:Generated_Source\PSoC6/CapSense_Filter.c **** void CapSense_RunAverageInternal(CapSense_PTR_FILTER_VARIANT ptrFilterHistObj,\
1252:Generated_Source\PSoC6/CapSense_Filter.c ****                                            CapSense_RAM_SNS_STRUCT *ptrSensorObj, uint32 wdType)
1253:Generated_Source\PSoC6/CapSense_Filter.c **** {
 746              		.loc 1 1253 0
 747              		.cfi_startproc
 748              		@ args = 0, pretend = 0, frame = 0
 749              		@ frame_needed = 0, uses_anonymous_args = 0
 750              	.LVL100:
 751 0000 F0B5     		push	{r4, r5, r6, r7, lr}
 752              		.cfi_def_cfa_offset 20
 753              		.cfi_offset 4, -20
 754              		.cfi_offset 5, -16
 755              		.cfi_offset 6, -12
 756              		.cfi_offset 7, -8
 757              		.cfi_offset 14, -4
 758              	.LVL101:
1254:Generated_Source\PSoC6/CapSense_Filter.c ****     uint32 freqChannel;
1255:Generated_Source\PSoC6/CapSense_Filter.c ****     uint32 temp;
1256:Generated_Source\PSoC6/CapSense_Filter.c **** 
1257:Generated_Source\PSoC6/CapSense_Filter.c ****     for(freqChannel = CapSense_NUM_SCAN_FREQS; freqChannel-- > 0u;)
 759              		.loc 1 1257 0
 760 0002 0123     		movs	r3, #1
 761 0004 1AE0     		b	.L45
 762              	.LVL102:
 763              	.L47:
1258:Generated_Source\PSoC6/CapSense_Filter.c ****     {
1259:Generated_Source\PSoC6/CapSense_Filter.c ****         if ((CapSense_WD_TYPE_ENUM)wdType != CapSense_WD_PROXIMITY_E)
 764              		.loc 1 1259 0
 765 0006 FF23     		movs	r3, #255
 766 0008 1340     		ands	r3, r2
 767 000a 062B     		cmp	r3, #6
 768 000c 15D0     		beq	.L46
1260:Generated_Source\PSoC6/CapSense_Filter.c ****         {
1261:Generated_Source\PSoC6/CapSense_Filter.c ****             #if (CapSense_REGULAR_SENSOR_EN && CapSense_REGULAR_RC_AVERAGE_FILTER_EN)
1262:Generated_Source\PSoC6/CapSense_Filter.c ****                 #if (CapSense_REGULAR_AVERAGE_LEN == CapSense_AVERAGE_FILTER_LEN_2)
1263:Generated_Source\PSoC6/CapSense_Filter.c ****                     temp = ((uint32)ptrSensorObj->raw[freqChannel] +
1264:Generated_Source\PSoC6/CapSense_Filter.c ****                             (uint32)ptrFilterHistObj.ptrRegular->regularChannel[freqChannel].avgHis
1265:Generated_Source\PSoC6/CapSense_Filter.c ****                     ptrFilterHistObj.ptrRegular->regularChannel[freqChannel].avgHistory[0] = ptrSen
1266:Generated_Source\PSoC6/CapSense_Filter.c ****                     ptrSensorObj->raw[freqChannel] = CY_LO16(temp);
1267:Generated_Source\PSoC6/CapSense_Filter.c ****                 #else
1268:Generated_Source\PSoC6/CapSense_Filter.c ****                     temp = ((uint32)ptrSensorObj->raw[freqChannel] +
 769              		.loc 1 1268 0
 770 000e 6700     		lsls	r7, r4, #1
 771 0010 7B5A     		ldrh	r3, [r7, r1]
ARM GAS  C:\Users\ikomb\AppData\Local\Temp\ccZFcZfB.s 			page 38


 772 0012 9C46     		mov	ip, r3
1269:Generated_Source\PSoC6/CapSense_Filter.c ****                             (uint32)ptrFilterHistObj.ptrRegular->regularChannel[freqChannel].avgHis
 773              		.loc 1 1269 0
 774 0014 A600     		lsls	r6, r4, #2
 775 0016 3619     		adds	r6, r6, r4
 776 0018 7300     		lsls	r3, r6, #1
 777 001a C318     		adds	r3, r0, r3
 778 001c 9D88     		ldrh	r5, [r3, #4]
1268:Generated_Source\PSoC6/CapSense_Filter.c ****                             (uint32)ptrFilterHistObj.ptrRegular->regularChannel[freqChannel].avgHis
 779              		.loc 1 1268 0
 780 001e 6544     		add	r5, r5, ip
1270:Generated_Source\PSoC6/CapSense_Filter.c ****                             (uint32)ptrFilterHistObj.ptrRegular->regularChannel[freqChannel].avgHis
 781              		.loc 1 1270 0
 782 0020 DE88     		ldrh	r6, [r3, #6]
 783 0022 B446     		mov	ip, r6
1269:Generated_Source\PSoC6/CapSense_Filter.c ****                             (uint32)ptrFilterHistObj.ptrRegular->regularChannel[freqChannel].avgHis
 784              		.loc 1 1269 0
 785 0024 6544     		add	r5, r5, ip
1271:Generated_Source\PSoC6/CapSense_Filter.c ****                             (uint32)ptrFilterHistObj.ptrRegular->regularChannel[freqChannel].avgHis
 786              		.loc 1 1271 0
 787 0026 1E89     		ldrh	r6, [r3, #8]
1270:Generated_Source\PSoC6/CapSense_Filter.c ****                             (uint32)ptrFilterHistObj.ptrRegular->regularChannel[freqChannel].avgHis
 788              		.loc 1 1270 0
 789 0028 AD19     		adds	r5, r5, r6
1268:Generated_Source\PSoC6/CapSense_Filter.c ****                             (uint32)ptrFilterHistObj.ptrRegular->regularChannel[freqChannel].avgHis
 790              		.loc 1 1268 0
 791 002a AD08     		lsrs	r5, r5, #2
 792              	.LVL103:
1272:Generated_Source\PSoC6/CapSense_Filter.c **** 
1273:Generated_Source\PSoC6/CapSense_Filter.c ****                     ptrFilterHistObj.ptrRegular->regularChannel[freqChannel].avgHistory[2u] =
 793              		.loc 1 1273 0
 794 002c 6646     		mov	r6, ip
 795 002e 1E81     		strh	r6, [r3, #8]
1274:Generated_Source\PSoC6/CapSense_Filter.c ****                     ptrFilterHistObj.ptrRegular->regularChannel[freqChannel].avgHistory[1u];
1275:Generated_Source\PSoC6/CapSense_Filter.c ****                     ptrFilterHistObj.ptrRegular->regularChannel[freqChannel].avgHistory[1u] =
1276:Generated_Source\PSoC6/CapSense_Filter.c ****                     ptrFilterHistObj.ptrRegular->regularChannel[freqChannel].avgHistory[0];
 796              		.loc 1 1276 0
 797 0030 9E88     		ldrh	r6, [r3, #4]
1275:Generated_Source\PSoC6/CapSense_Filter.c ****                     ptrFilterHistObj.ptrRegular->regularChannel[freqChannel].avgHistory[0];
 798              		.loc 1 1275 0
 799 0032 DE80     		strh	r6, [r3, #6]
1277:Generated_Source\PSoC6/CapSense_Filter.c ****                     ptrFilterHistObj.ptrRegular->regularChannel[freqChannel].avgHistory[0] = ptrSen
 800              		.loc 1 1277 0
 801 0034 7E5A     		ldrh	r6, [r7, r1]
 802 0036 9E80     		strh	r6, [r3, #4]
1278:Generated_Source\PSoC6/CapSense_Filter.c ****                     ptrSensorObj->raw[freqChannel] = CY_LO16(temp);
 803              		.loc 1 1278 0
 804 0038 CD53     		strh	r5, [r1, r7]
 805              	.LVL104:
 806              	.L46:
1253:Generated_Source\PSoC6/CapSense_Filter.c ****     uint32 freqChannel;
 807              		.loc 1 1253 0 discriminator 1
 808 003a 2300     		movs	r3, r4
 809              	.LVL105:
 810              	.L45:
1257:Generated_Source\PSoC6/CapSense_Filter.c ****     {
 811              		.loc 1 1257 0 discriminator 1
ARM GAS  C:\Users\ikomb\AppData\Local\Temp\ccZFcZfB.s 			page 39


 812 003c 5C1E     		subs	r4, r3, #1
 813              	.LVL106:
 814 003e 002B     		cmp	r3, #0
 815 0040 E1D1     		bne	.L47
1279:Generated_Source\PSoC6/CapSense_Filter.c ****                 #endif /* CapSense_REGULAR_AVERAGE_LEN == CapSense_AVERAGE_FILTER_LEN_4 */
1280:Generated_Source\PSoC6/CapSense_Filter.c ****             #endif /* (CapSense_REGULAR_SENSOR_EN) */
1281:Generated_Source\PSoC6/CapSense_Filter.c ****         }
1282:Generated_Source\PSoC6/CapSense_Filter.c ****         else
1283:Generated_Source\PSoC6/CapSense_Filter.c ****         {
1284:Generated_Source\PSoC6/CapSense_Filter.c ****             #if (CapSense_PROXIMITY_SENSOR_EN && CapSense_PROX_RC_AVERAGE_FILTER_EN)
1285:Generated_Source\PSoC6/CapSense_Filter.c ****                 #if (CapSense_PROX_AVERAGE_LEN == CapSense_AVERAGE_FILTER_LEN_2)
1286:Generated_Source\PSoC6/CapSense_Filter.c ****                     temp = ((uint32)ptrSensorObj->raw[freqChannel] +
1287:Generated_Source\PSoC6/CapSense_Filter.c ****                             (uint32)ptrFilterHistObj.ptrProx->proxChannel[freqChannel].avgHistory[0
1288:Generated_Source\PSoC6/CapSense_Filter.c ****                     ptrFilterHistObj.ptrProx->proxChannel[freqChannel].avgHistory[0] = ptrSensorObj
1289:Generated_Source\PSoC6/CapSense_Filter.c ****                     ptrSensorObj->raw[freqChannel] = CY_LO16(temp);
1290:Generated_Source\PSoC6/CapSense_Filter.c ****                 #else
1291:Generated_Source\PSoC6/CapSense_Filter.c ****                     temp = ((uint32)ptrSensorObj->raw[freqChannel] +
1292:Generated_Source\PSoC6/CapSense_Filter.c ****                             (uint32)ptrFilterHistObj.ptrProx->proxChannel[freqChannel].avgHistory[0
1293:Generated_Source\PSoC6/CapSense_Filter.c ****                             (uint32)ptrFilterHistObj.ptrProx->proxChannel[freqChannel].avgHistory[1
1294:Generated_Source\PSoC6/CapSense_Filter.c ****                             (uint32)ptrFilterHistObj.ptrProx->proxChannel[freqChannel].avgHistory[2
1295:Generated_Source\PSoC6/CapSense_Filter.c **** 
1296:Generated_Source\PSoC6/CapSense_Filter.c ****                     ptrFilterHistObj.ptrProx->proxChannel[freqChannel].avgHistory[2u] =
1297:Generated_Source\PSoC6/CapSense_Filter.c ****                     ptrFilterHistObj.ptrProx->proxChannel[freqChannel].avgHistory[1u];
1298:Generated_Source\PSoC6/CapSense_Filter.c ****                     ptrFilterHistObj.ptrProx->proxChannel[freqChannel].avgHistory[1u] =
1299:Generated_Source\PSoC6/CapSense_Filter.c ****                     ptrFilterHistObj.ptrProx->proxChannel[freqChannel].avgHistory[0];
1300:Generated_Source\PSoC6/CapSense_Filter.c ****                     ptrFilterHistObj.ptrProx->proxChannel[freqChannel].avgHistory[0] = ptrSensorObj
1301:Generated_Source\PSoC6/CapSense_Filter.c ****                     ptrSensorObj->raw[freqChannel] = CY_LO16(temp);
1302:Generated_Source\PSoC6/CapSense_Filter.c ****                 #endif /* CapSense_PROX_AVERAGE_LEN == CapSense_AVERAGE_FILTER_LEN_4 */
1303:Generated_Source\PSoC6/CapSense_Filter.c ****             #endif /* (CapSense_PROXIMITY_SENSOR_EN) */
1304:Generated_Source\PSoC6/CapSense_Filter.c ****         }
1305:Generated_Source\PSoC6/CapSense_Filter.c ****     }
1306:Generated_Source\PSoC6/CapSense_Filter.c **** }
 816              		.loc 1 1306 0
 817              		@ sp needed
 818              	.LVL107:
 819 0042 F0BD     		pop	{r4, r5, r6, r7, pc}
 820              		.cfi_endproc
 821              	.LFE55:
 822              		.size	CapSense_RunAverageInternal, .-CapSense_RunAverageInternal
 823              		.section	.text.CapSense_RunAverage,"ax",%progbits
 824              		.align	2
 825              		.global	CapSense_RunAverage
 826              		.code	16
 827              		.thumb_func
 828              		.type	CapSense_RunAverage, %function
 829              	CapSense_RunAverage:
 830              	.LFB53:
1165:Generated_Source\PSoC6/CapSense_Filter.c ****     CapSense_FLASH_WD_STRUCT const *ptrWidget = &CapSense_dsFlash.wdgtArray[widgetId];
 831              		.loc 1 1165 0
 832              		.cfi_startproc
 833              		@ args = 0, pretend = 0, frame = 0
 834              		@ frame_needed = 0, uses_anonymous_args = 0
 835              	.LVL108:
 836 0000 F8B5     		push	{r3, r4, r5, r6, r7, lr}
 837              		.cfi_def_cfa_offset 24
 838              		.cfi_offset 3, -24
 839              		.cfi_offset 4, -20
ARM GAS  C:\Users\ikomb\AppData\Local\Temp\ccZFcZfB.s 			page 40


 840              		.cfi_offset 5, -16
 841              		.cfi_offset 6, -12
 842              		.cfi_offset 7, -8
 843              		.cfi_offset 14, -4
 844              	.LVL109:
1171:Generated_Source\PSoC6/CapSense_Filter.c ****     ptrSensor = &ptrSensor[sensorId];
 845              		.loc 1 1171 0
 846 0002 0B4A     		ldr	r2, .L50
 847 0004 4600     		lsls	r6, r0, #1
 848 0006 3418     		adds	r4, r6, r0
 849 0008 2301     		lsls	r3, r4, #4
 850 000a D318     		adds	r3, r2, r3
 851              	.LVL110:
1172:Generated_Source\PSoC6/CapSense_Filter.c **** 
 852              		.loc 1 1172 0
 853 000c 8C00     		lsls	r4, r1, #2
 854 000e 6118     		adds	r1, r4, r1
 855              	.LVL111:
 856 0010 4D00     		lsls	r5, r1, #1
 857 0012 9968     		ldr	r1, [r3, #8]
 858 0014 4919     		adds	r1, r1, r5
 859              	.LVL112:
1175:Generated_Source\PSoC6/CapSense_Filter.c **** 
 860              		.loc 1 1175 0
 861 0016 DF68     		ldr	r7, [r3, #12]
 862 0018 3C00     		movs	r4, r7
 863              	.LVL113:
1177:Generated_Source\PSoC6/CapSense_Filter.c ****     {
 864              		.loc 1 1177 0
 865 001a 3018     		adds	r0, r6, r0
 866              	.LVL114:
 867 001c 0301     		lsls	r3, r0, #4
 868 001e D318     		adds	r3, r2, r3
 869 0020 9A7E     		ldrb	r2, [r3, #26]
 870 0022 062A     		cmp	r2, #6
 871 0024 00D0     		beq	.L49
1180:Generated_Source\PSoC6/CapSense_Filter.c ****         #endif /* (CapSense_REGULAR_SENSOR_EN) */
 872              		.loc 1 1180 0
 873 0026 7C19     		adds	r4, r7, r5
 874              	.L49:
 875              	.LVL115:
1190:Generated_Source\PSoC6/CapSense_Filter.c **** }
 876              		.loc 1 1190 0
 877 0028 2000     		movs	r0, r4
 878 002a FFF7FEFF 		bl	CapSense_RunAverageInternal
 879              	.LVL116:
1191:Generated_Source\PSoC6/CapSense_Filter.c **** 
 880              		.loc 1 1191 0
 881              		@ sp needed
 882              	.LVL117:
 883              	.LVL118:
 884              	.LVL119:
 885 002e F8BD     		pop	{r3, r4, r5, r6, r7, pc}
 886              	.L51:
 887              		.align	2
 888              	.L50:
 889 0030 00000000 		.word	CapSense_dsFlash
ARM GAS  C:\Users\ikomb\AppData\Local\Temp\ccZFcZfB.s 			page 41


 890              		.cfi_endproc
 891              	.LFE53:
 892              		.size	CapSense_RunAverage, .-CapSense_RunAverage
 893              		.section	.text.CapSense_RunNoiseEnvelope,"ax",%progbits
 894              		.align	2
 895              		.global	CapSense_RunNoiseEnvelope
 896              		.code	16
 897              		.thumb_func
 898              		.type	CapSense_RunNoiseEnvelope, %function
 899              	CapSense_RunNoiseEnvelope:
 900              	.LFB58:
1307:Generated_Source\PSoC6/CapSense_Filter.c **** #endif /* (CapSense_REGULAR_RC_AVERAGE_FILTER_EN || CapSense_PROX_RC_AVERAGE_FILTER_EN) */
1308:Generated_Source\PSoC6/CapSense_Filter.c **** 
1309:Generated_Source\PSoC6/CapSense_Filter.c **** #if (CapSense_ENABLE == CapSense_ALP_FILTER_EN)
1310:Generated_Source\PSoC6/CapSense_Filter.c **** /*******************************************************************************
1311:Generated_Source\PSoC6/CapSense_Filter.c **** * Function Name: CapSense_InitializeALP
1312:Generated_Source\PSoC6/CapSense_Filter.c **** ****************************************************************************//**
1313:Generated_Source\PSoC6/CapSense_Filter.c **** *
1314:Generated_Source\PSoC6/CapSense_Filter.c **** * \brief    Initializes the ALP filter history.
1315:Generated_Source\PSoC6/CapSense_Filter.c **** *
1316:Generated_Source\PSoC6/CapSense_Filter.c **** * \details  Initializes the ALP filter history.
1317:Generated_Source\PSoC6/CapSense_Filter.c **** *
1318:Generated_Source\PSoC6/CapSense_Filter.c **** * \param    widgetId Specifies the ID number of the widget.
1319:Generated_Source\PSoC6/CapSense_Filter.c **** * \param    sensorId Specifies the ID number of the sensor in the widget.
1320:Generated_Source\PSoC6/CapSense_Filter.c **** *
1321:Generated_Source\PSoC6/CapSense_Filter.c **** *******************************************************************************/
1322:Generated_Source\PSoC6/CapSense_Filter.c **** void CapSense_InitializeALP(uint32 widgetId, uint32 sensorId)
1323:Generated_Source\PSoC6/CapSense_Filter.c **** {
1324:Generated_Source\PSoC6/CapSense_Filter.c ****     CapSense_FLASH_WD_STRUCT const *ptrWidget = &CapSense_dsFlash.wdgtArray[widgetId];
1325:Generated_Source\PSoC6/CapSense_Filter.c ****     CapSense_RAM_SNS_STRUCT *ptrSensor = NULL;
1326:Generated_Source\PSoC6/CapSense_Filter.c ****     CapSense_PTR_FILTER_VARIANT ptrFilterHistObj;
1327:Generated_Source\PSoC6/CapSense_Filter.c **** 
1328:Generated_Source\PSoC6/CapSense_Filter.c ****     /* Find pointer to specified sensor object */
1329:Generated_Source\PSoC6/CapSense_Filter.c ****     ptrSensor = ptrWidget->ptr2SnsRam;
1330:Generated_Source\PSoC6/CapSense_Filter.c ****     ptrSensor = &ptrSensor[sensorId];
1331:Generated_Source\PSoC6/CapSense_Filter.c **** 
1332:Generated_Source\PSoC6/CapSense_Filter.c ****     /* Find pointer to specified filter sensor object */
1333:Generated_Source\PSoC6/CapSense_Filter.c ****     ptrFilterHistObj.ptr = ptrWidget->ptr2FltrHistory;
1334:Generated_Source\PSoC6/CapSense_Filter.c ****     ptrFilterHistObj.ptrAlp = &ptrFilterHistObj.ptrAlp[sensorId];
1335:Generated_Source\PSoC6/CapSense_Filter.c ****     CapSense_InitializeALPInternal(ptrFilterHistObj, ptrSensor, (uint32)ptrWidget->wdgtType);
1336:Generated_Source\PSoC6/CapSense_Filter.c **** }
1337:Generated_Source\PSoC6/CapSense_Filter.c **** 
1338:Generated_Source\PSoC6/CapSense_Filter.c **** 
1339:Generated_Source\PSoC6/CapSense_Filter.c **** /*******************************************************************************
1340:Generated_Source\PSoC6/CapSense_Filter.c **** * Function Name: CapSense_RunALP
1341:Generated_Source\PSoC6/CapSense_Filter.c **** ****************************************************************************//**
1342:Generated_Source\PSoC6/CapSense_Filter.c **** *
1343:Generated_Source\PSoC6/CapSense_Filter.c **** * \brief    Executes the ALP filter algorithm on a sensor indicated by an input
1344:Generated_Source\PSoC6/CapSense_Filter.c **** *           parameter.
1345:Generated_Source\PSoC6/CapSense_Filter.c **** *
1346:Generated_Source\PSoC6/CapSense_Filter.c **** * \details  Executes the ALP filter algorithm on a sensor indicated by an input
1347:Generated_Source\PSoC6/CapSense_Filter.c **** *           parameter.
1348:Generated_Source\PSoC6/CapSense_Filter.c **** *
1349:Generated_Source\PSoC6/CapSense_Filter.c **** * \param    widgetId Specifies the ID number of the widget.
1350:Generated_Source\PSoC6/CapSense_Filter.c **** * \param    sensorId Specifies the ID number of the sensor in the widget.
1351:Generated_Source\PSoC6/CapSense_Filter.c **** *
1352:Generated_Source\PSoC6/CapSense_Filter.c **** *******************************************************************************/
ARM GAS  C:\Users\ikomb\AppData\Local\Temp\ccZFcZfB.s 			page 42


1353:Generated_Source\PSoC6/CapSense_Filter.c **** void CapSense_RunALP(uint32 widgetId, uint32 sensorId)
1354:Generated_Source\PSoC6/CapSense_Filter.c **** {
1355:Generated_Source\PSoC6/CapSense_Filter.c ****     CapSense_FLASH_WD_STRUCT const *ptrWidget = &CapSense_dsFlash.wdgtArray[widgetId];
1356:Generated_Source\PSoC6/CapSense_Filter.c ****     CapSense_RAM_SNS_STRUCT *ptrSensor = NULL;
1357:Generated_Source\PSoC6/CapSense_Filter.c ****     CapSense_PTR_FILTER_VARIANT ptrFilterHistObj;
1358:Generated_Source\PSoC6/CapSense_Filter.c ****     ALP_FLTR_CONFIG_STRUCT alpFilterConfig;
1359:Generated_Source\PSoC6/CapSense_Filter.c ****     ALP_FLTR_CONFIG_STRUCT *ptrAlpFilterConfig = &alpFilterConfig;
1360:Generated_Source\PSoC6/CapSense_Filter.c ****     CapSense_RAM_WD_BASE_STRUCT *ptrRamWidget = ptrWidget->ptr2WdgtRam;
1361:Generated_Source\PSoC6/CapSense_Filter.c **** 
1362:Generated_Source\PSoC6/CapSense_Filter.c ****     /* Find pointer to specified sensor object */
1363:Generated_Source\PSoC6/CapSense_Filter.c ****     ptrSensor = ptrWidget->ptr2SnsRam;
1364:Generated_Source\PSoC6/CapSense_Filter.c ****     ptrSensor = &ptrSensor[sensorId];
1365:Generated_Source\PSoC6/CapSense_Filter.c **** 
1366:Generated_Source\PSoC6/CapSense_Filter.c ****     ptrAlpFilterConfig->configParam0 = ptrRamWidget->alpOnTh;
1367:Generated_Source\PSoC6/CapSense_Filter.c ****     ptrAlpFilterConfig->configParam1 = ptrRamWidget->alpOffTh;
1368:Generated_Source\PSoC6/CapSense_Filter.c ****     ptrAlpFilterConfig->configParam2 = ptrRamWidget->fingerTh;
1369:Generated_Source\PSoC6/CapSense_Filter.c ****     ptrAlpFilterConfig->configParam3 = ptrRamWidget->noiseTh;
1370:Generated_Source\PSoC6/CapSense_Filter.c ****     ptrAlpFilterConfig->configParam4 = ptrRamWidget->hysteresis;
1371:Generated_Source\PSoC6/CapSense_Filter.c **** 
1372:Generated_Source\PSoC6/CapSense_Filter.c ****     /* Find pointer to specified filter sensor object */
1373:Generated_Source\PSoC6/CapSense_Filter.c ****     ptrFilterHistObj.ptr = ptrWidget->ptr2FltrHistory;
1374:Generated_Source\PSoC6/CapSense_Filter.c ****     ptrFilterHistObj.ptrAlp = &ptrFilterHistObj.ptrAlp[sensorId];
1375:Generated_Source\PSoC6/CapSense_Filter.c **** 
1376:Generated_Source\PSoC6/CapSense_Filter.c ****     if ((CapSense_WD_TYPE_ENUM)ptrWidget->wdgtType != CapSense_WD_PROXIMITY_E)
1377:Generated_Source\PSoC6/CapSense_Filter.c ****     {
1378:Generated_Source\PSoC6/CapSense_Filter.c ****         #if (CapSense_REGULAR_SENSOR_EN)
1379:Generated_Source\PSoC6/CapSense_Filter.c ****             ptrAlpFilterConfig->configParam5 = CapSense_REGULAR_RC_ALP_FILTER_COEFF;
1380:Generated_Source\PSoC6/CapSense_Filter.c ****         #endif /* (CapSense_REGULAR_SENSOR_EN) */
1381:Generated_Source\PSoC6/CapSense_Filter.c ****     }
1382:Generated_Source\PSoC6/CapSense_Filter.c ****     else
1383:Generated_Source\PSoC6/CapSense_Filter.c ****     {
1384:Generated_Source\PSoC6/CapSense_Filter.c ****         #if (CapSense_PROXIMITY_SENSOR_EN)
1385:Generated_Source\PSoC6/CapSense_Filter.c ****             ptrAlpFilterConfig->configParam5 = CapSense_PROX_RC_ALP_FILTER_COEFF;
1386:Generated_Source\PSoC6/CapSense_Filter.c ****         #endif /* (CapSense_PROXIMITY_SENSOR_EN) */
1387:Generated_Source\PSoC6/CapSense_Filter.c ****     }
1388:Generated_Source\PSoC6/CapSense_Filter.c ****     CapSense_RunALPInternal(ptrFilterHistObj, ptrAlpFilterConfig, ptrSensor, (uint32)ptrWidget->wdg
1389:Generated_Source\PSoC6/CapSense_Filter.c **** }
1390:Generated_Source\PSoC6/CapSense_Filter.c **** 
1391:Generated_Source\PSoC6/CapSense_Filter.c **** 
1392:Generated_Source\PSoC6/CapSense_Filter.c **** /*******************************************************************************
1393:Generated_Source\PSoC6/CapSense_Filter.c **** * Function Name: CapSense_InitializeALPInternal
1394:Generated_Source\PSoC6/CapSense_Filter.c **** ****************************************************************************//**
1395:Generated_Source\PSoC6/CapSense_Filter.c **** *
1396:Generated_Source\PSoC6/CapSense_Filter.c **** * \brief    Initializes the ALP filter.
1397:Generated_Source\PSoC6/CapSense_Filter.c **** *
1398:Generated_Source\PSoC6/CapSense_Filter.c **** * \details  Initializes the ALP filter.
1399:Generated_Source\PSoC6/CapSense_Filter.c **** *
1400:Generated_Source\PSoC6/CapSense_Filter.c **** * \param    ptrFilterHistObj The pointer to the filter RAM object of the sensor.
1401:Generated_Source\PSoC6/CapSense_Filter.c **** * \param    ptrSensorObj     The pointer to the sensor RAM object of the sensor.
1402:Generated_Source\PSoC6/CapSense_Filter.c **** * \param    wdType           Specifies the type of a widget.
1403:Generated_Source\PSoC6/CapSense_Filter.c **** *
1404:Generated_Source\PSoC6/CapSense_Filter.c **** *******************************************************************************/
1405:Generated_Source\PSoC6/CapSense_Filter.c **** void CapSense_InitializeALPInternal(CapSense_PTR_FILTER_VARIANT ptrFilterHistObj,
1406:Generated_Source\PSoC6/CapSense_Filter.c ****                                             CapSense_RAM_SNS_STRUCT *ptrSensorObj,
1407:Generated_Source\PSoC6/CapSense_Filter.c ****                                             uint32 wdType)
1408:Generated_Source\PSoC6/CapSense_Filter.c **** {
1409:Generated_Source\PSoC6/CapSense_Filter.c ****     uint32 freqChannel;
ARM GAS  C:\Users\ikomb\AppData\Local\Temp\ccZFcZfB.s 			page 43


1410:Generated_Source\PSoC6/CapSense_Filter.c **** 
1411:Generated_Source\PSoC6/CapSense_Filter.c ****     for(freqChannel = CapSense_NUM_SCAN_FREQS; freqChannel-- > 0u;)
1412:Generated_Source\PSoC6/CapSense_Filter.c ****     {
1413:Generated_Source\PSoC6/CapSense_Filter.c ****         if ((CapSense_WD_TYPE_ENUM)wdType != CapSense_WD_PROXIMITY_E)
1414:Generated_Source\PSoC6/CapSense_Filter.c ****         {
1415:Generated_Source\PSoC6/CapSense_Filter.c ****             #if (CapSense_REGULAR_SENSOR_EN && CapSense_REGULAR_RC_ALP_FILTER_EN)
1416:Generated_Source\PSoC6/CapSense_Filter.c ****                 ALP_Initialize(&ptrFilterHistObj.ptrAlp->channel[freqChannel], &ptrSensorObj->raw[f
1417:Generated_Source\PSoC6/CapSense_Filter.c ****             #endif
1418:Generated_Source\PSoC6/CapSense_Filter.c ****         }
1419:Generated_Source\PSoC6/CapSense_Filter.c ****         else
1420:Generated_Source\PSoC6/CapSense_Filter.c ****         {
1421:Generated_Source\PSoC6/CapSense_Filter.c ****             #if (CapSense_PROXIMITY_SENSOR_EN && CapSense_PROX_RC_ALP_FILTER_EN)
1422:Generated_Source\PSoC6/CapSense_Filter.c ****                 ALP_Initialize(&ptrFilterHistObj.ptrAlp->channel[freqChannel], &ptrSensorObj->raw[f
1423:Generated_Source\PSoC6/CapSense_Filter.c ****             #endif
1424:Generated_Source\PSoC6/CapSense_Filter.c ****         }
1425:Generated_Source\PSoC6/CapSense_Filter.c ****     }
1426:Generated_Source\PSoC6/CapSense_Filter.c **** }
1427:Generated_Source\PSoC6/CapSense_Filter.c **** 
1428:Generated_Source\PSoC6/CapSense_Filter.c **** /*******************************************************************************
1429:Generated_Source\PSoC6/CapSense_Filter.c **** * Function Name: CapSense_ConfigRunALPInternal
1430:Generated_Source\PSoC6/CapSense_Filter.c **** ****************************************************************************//**
1431:Generated_Source\PSoC6/CapSense_Filter.c **** *
1432:Generated_Source\PSoC6/CapSense_Filter.c **** * \brief    Prepares ALP configuration structure and runs the filter.
1433:Generated_Source\PSoC6/CapSense_Filter.c **** *
1434:Generated_Source\PSoC6/CapSense_Filter.c **** * \details  Prepares ALP configuration structure and runs the filter.
1435:Generated_Source\PSoC6/CapSense_Filter.c **** *
1436:Generated_Source\PSoC6/CapSense_Filter.c **** * \param    ptrFilterHistObj The pointer to the filter RAM object of the sensor.
1437:Generated_Source\PSoC6/CapSense_Filter.c **** * \param    ptrRamWdgt       The pointer to the RAM widget object.
1438:Generated_Source\PSoC6/CapSense_Filter.c **** * \param    ptrSensorObj     The pointer to the sensor RAM object of the sensor.
1439:Generated_Source\PSoC6/CapSense_Filter.c **** * \param    wdType           Specifies the type of a widget.
1440:Generated_Source\PSoC6/CapSense_Filter.c **** *
1441:Generated_Source\PSoC6/CapSense_Filter.c **** *******************************************************************************/
1442:Generated_Source\PSoC6/CapSense_Filter.c **** void CapSense_ConfigRunALPInternal(CapSense_PTR_FILTER_VARIANT ptrFilterHistObj,
1443:Generated_Source\PSoC6/CapSense_Filter.c ****                                     CapSense_RAM_WD_BASE_STRUCT *ptrRamWdgt,
1444:Generated_Source\PSoC6/CapSense_Filter.c ****                                     CapSense_RAM_SNS_STRUCT *ptrSensorObj,
1445:Generated_Source\PSoC6/CapSense_Filter.c ****                                     uint32 wdType)
1446:Generated_Source\PSoC6/CapSense_Filter.c **** {
1447:Generated_Source\PSoC6/CapSense_Filter.c ****     ALP_FLTR_CONFIG_STRUCT alpFilterConfig;
1448:Generated_Source\PSoC6/CapSense_Filter.c **** 
1449:Generated_Source\PSoC6/CapSense_Filter.c ****     alpFilterConfig.configParam0 = ptrRamWdgt->alpOnTh;
1450:Generated_Source\PSoC6/CapSense_Filter.c ****     alpFilterConfig.configParam1 = ptrRamWdgt->alpOffTh;
1451:Generated_Source\PSoC6/CapSense_Filter.c ****     alpFilterConfig.configParam2 = ptrRamWdgt->fingerTh;
1452:Generated_Source\PSoC6/CapSense_Filter.c ****     alpFilterConfig.configParam3 = ptrRamWdgt->noiseTh;
1453:Generated_Source\PSoC6/CapSense_Filter.c ****     alpFilterConfig.configParam4 = ptrRamWdgt->hysteresis;
1454:Generated_Source\PSoC6/CapSense_Filter.c **** 
1455:Generated_Source\PSoC6/CapSense_Filter.c ****     CapSense_RunALPInternal(ptrFilterHistObj, &alpFilterConfig, ptrSensorObj, wdType);
1456:Generated_Source\PSoC6/CapSense_Filter.c **** }
1457:Generated_Source\PSoC6/CapSense_Filter.c **** 
1458:Generated_Source\PSoC6/CapSense_Filter.c **** /*******************************************************************************
1459:Generated_Source\PSoC6/CapSense_Filter.c **** * Function Name: CapSense_RunALPInternal
1460:Generated_Source\PSoC6/CapSense_Filter.c **** ****************************************************************************//**
1461:Generated_Source\PSoC6/CapSense_Filter.c **** *
1462:Generated_Source\PSoC6/CapSense_Filter.c **** * \brief    Runs the ALP filter.
1463:Generated_Source\PSoC6/CapSense_Filter.c **** *
1464:Generated_Source\PSoC6/CapSense_Filter.c **** * \details  Runs the ALP filter.
1465:Generated_Source\PSoC6/CapSense_Filter.c **** *
1466:Generated_Source\PSoC6/CapSense_Filter.c **** * \param    ptrFilterHistObj The pointer to the filter RAM object of the sensor.
ARM GAS  C:\Users\ikomb\AppData\Local\Temp\ccZFcZfB.s 			page 44


1467:Generated_Source\PSoC6/CapSense_Filter.c **** * \param    ptrAlpFilterConfig The pointer to the filter configuration object of the sensor.
1468:Generated_Source\PSoC6/CapSense_Filter.c **** * \param    ptrSensorObj     The pointer to the sensor RAM object of the sensor.
1469:Generated_Source\PSoC6/CapSense_Filter.c **** * \param    wdType           Specifies the type of a widget.
1470:Generated_Source\PSoC6/CapSense_Filter.c **** *
1471:Generated_Source\PSoC6/CapSense_Filter.c **** *******************************************************************************/
1472:Generated_Source\PSoC6/CapSense_Filter.c **** void CapSense_RunALPInternal(CapSense_PTR_FILTER_VARIANT ptrFilterHistObj,
1473:Generated_Source\PSoC6/CapSense_Filter.c ****                                     ALP_FLTR_CONFIG_STRUCT *ptrAlpFilterConfig,
1474:Generated_Source\PSoC6/CapSense_Filter.c ****                                     CapSense_RAM_SNS_STRUCT *ptrSensorObj,
1475:Generated_Source\PSoC6/CapSense_Filter.c ****                                     uint32 wdType)
1476:Generated_Source\PSoC6/CapSense_Filter.c **** {
1477:Generated_Source\PSoC6/CapSense_Filter.c ****     uint32 freqChannel;
1478:Generated_Source\PSoC6/CapSense_Filter.c **** 
1479:Generated_Source\PSoC6/CapSense_Filter.c ****     for(freqChannel = CapSense_NUM_SCAN_FREQS; freqChannel-- > 0u;)
1480:Generated_Source\PSoC6/CapSense_Filter.c ****     {
1481:Generated_Source\PSoC6/CapSense_Filter.c ****         if ((CapSense_WD_TYPE_ENUM)wdType != CapSense_WD_PROXIMITY_E)
1482:Generated_Source\PSoC6/CapSense_Filter.c ****         {
1483:Generated_Source\PSoC6/CapSense_Filter.c ****             #if (CapSense_REGULAR_SENSOR_EN && CapSense_REGULAR_RC_ALP_FILTER_EN)
1484:Generated_Source\PSoC6/CapSense_Filter.c ****                 ptrAlpFilterConfig->configParam5 = CapSense_REGULAR_RC_ALP_FILTER_COEFF;
1485:Generated_Source\PSoC6/CapSense_Filter.c ****                 ALP_Run(&ptrFilterHistObj.ptrAlp->channel[freqChannel], ptrAlpFilterConfig, &ptrSen
1486:Generated_Source\PSoC6/CapSense_Filter.c ****             #endif
1487:Generated_Source\PSoC6/CapSense_Filter.c ****         }
1488:Generated_Source\PSoC6/CapSense_Filter.c ****         else
1489:Generated_Source\PSoC6/CapSense_Filter.c ****         {
1490:Generated_Source\PSoC6/CapSense_Filter.c ****             #if (CapSense_PROXIMITY_SENSOR_EN && CapSense_PROX_RC_ALP_FILTER_EN)
1491:Generated_Source\PSoC6/CapSense_Filter.c ****                 ptrAlpFilterConfig->configParam5 = CapSense_PROX_RC_ALP_FILTER_COEFF;
1492:Generated_Source\PSoC6/CapSense_Filter.c ****                 ALP_Run(&ptrFilterHistObj.ptrAlp->channel[freqChannel], ptrAlpFilterConfig, &ptrSen
1493:Generated_Source\PSoC6/CapSense_Filter.c ****             #endif
1494:Generated_Source\PSoC6/CapSense_Filter.c ****         }
1495:Generated_Source\PSoC6/CapSense_Filter.c ****     }
1496:Generated_Source\PSoC6/CapSense_Filter.c **** }
1497:Generated_Source\PSoC6/CapSense_Filter.c **** #endif /* (CapSense_ENABLE == CapSense_ALP_FILTER_EN) */
1498:Generated_Source\PSoC6/CapSense_Filter.c **** 
1499:Generated_Source\PSoC6/CapSense_Filter.c **** #if (CapSense_ENABLE == CapSense_RC_FILTER_EN)
1500:Generated_Source\PSoC6/CapSense_Filter.c **** /*******************************************************************************
1501:Generated_Source\PSoC6/CapSense_Filter.c **** * Function Name: CapSense_FtRunEnabledFilters
1502:Generated_Source\PSoC6/CapSense_Filter.c **** ****************************************************************************//**
1503:Generated_Source\PSoC6/CapSense_Filter.c **** *
1504:Generated_Source\PSoC6/CapSense_Filter.c **** * \brief    Runs all enabled filters.
1505:Generated_Source\PSoC6/CapSense_Filter.c **** *
1506:Generated_Source\PSoC6/CapSense_Filter.c **** * \details  Runs all enabled filters.
1507:Generated_Source\PSoC6/CapSense_Filter.c **** *
1508:Generated_Source\PSoC6/CapSense_Filter.c **** * \param    widgetId Specifies the ID number of a widget to update the IIR filter history.*
1509:Generated_Source\PSoC6/CapSense_Filter.c **** * \param    sensorId Specifies the ID number of a sensor in the widget to update the IIR
1510:Generated_Source\PSoC6/CapSense_Filter.c **** *           filter history.
1511:Generated_Source\PSoC6/CapSense_Filter.c **** *
1512:Generated_Source\PSoC6/CapSense_Filter.c **** *******************************************************************************/
1513:Generated_Source\PSoC6/CapSense_Filter.c **** void CapSense_FtRunEnabledFilters(uint32 widgetId, uint32 sensorId)
1514:Generated_Source\PSoC6/CapSense_Filter.c **** {
1515:Generated_Source\PSoC6/CapSense_Filter.c ****     CapSense_FLASH_WD_STRUCT const *ptrWidget = &CapSense_dsFlash.wdgtArray[widgetId];
1516:Generated_Source\PSoC6/CapSense_Filter.c ****     CapSense_RAM_SNS_STRUCT *ptrSensor = NULL;
1517:Generated_Source\PSoC6/CapSense_Filter.c ****     CapSense_PTR_FILTER_VARIANT ptrFilterHistObj;
1518:Generated_Source\PSoC6/CapSense_Filter.c **** 
1519:Generated_Source\PSoC6/CapSense_Filter.c ****     /* Find pointer to specified sensor object */
1520:Generated_Source\PSoC6/CapSense_Filter.c ****     ptrSensor = ptrWidget->ptr2SnsRam;
1521:Generated_Source\PSoC6/CapSense_Filter.c ****     ptrSensor = &ptrSensor[sensorId];
1522:Generated_Source\PSoC6/CapSense_Filter.c **** 
1523:Generated_Source\PSoC6/CapSense_Filter.c ****     /* Find pointer to specified filter sensor object */
ARM GAS  C:\Users\ikomb\AppData\Local\Temp\ccZFcZfB.s 			page 45


1524:Generated_Source\PSoC6/CapSense_Filter.c ****     ptrFilterHistObj.ptr = ptrWidget->ptr2FltrHistory;
1525:Generated_Source\PSoC6/CapSense_Filter.c **** 
1526:Generated_Source\PSoC6/CapSense_Filter.c ****     if ((CapSense_WD_TYPE_ENUM)ptrWidget->wdgtType != CapSense_WD_PROXIMITY_E)
1527:Generated_Source\PSoC6/CapSense_Filter.c ****     {
1528:Generated_Source\PSoC6/CapSense_Filter.c ****         #if (0u != CapSense_REGULAR_RC_ALP_FILTER_EN)
1529:Generated_Source\PSoC6/CapSense_Filter.c ****             ptrFilterHistObj.ptr = &ptrFilterHistObj.ptrAlp[sensorId];
1530:Generated_Source\PSoC6/CapSense_Filter.c ****         #elif (0u != CapSense_REGULAR_RC_FILTER_EN)
1531:Generated_Source\PSoC6/CapSense_Filter.c ****             ptrFilterHistObj.ptr = &ptrFilterHistObj.ptrRegular[sensorId];
1532:Generated_Source\PSoC6/CapSense_Filter.c ****         #endif
1533:Generated_Source\PSoC6/CapSense_Filter.c ****     }
1534:Generated_Source\PSoC6/CapSense_Filter.c ****     else
1535:Generated_Source\PSoC6/CapSense_Filter.c ****     {
1536:Generated_Source\PSoC6/CapSense_Filter.c ****         #if (0u != CapSense_PROX_RC_ALP_FILTER_EN)
1537:Generated_Source\PSoC6/CapSense_Filter.c ****             ptrFilterHistObj.ptr = &ptrFilterHistObj.ptrAlp[sensorId];
1538:Generated_Source\PSoC6/CapSense_Filter.c ****         #elif (0u != CapSense_PROX_RC_FILTER_EN)
1539:Generated_Source\PSoC6/CapSense_Filter.c ****             ptrFilterHistObj.ptr = &ptrFilterHistObj.ptrProx[sensorId];
1540:Generated_Source\PSoC6/CapSense_Filter.c ****         #endif
1541:Generated_Source\PSoC6/CapSense_Filter.c ****     }
1542:Generated_Source\PSoC6/CapSense_Filter.c **** 
1543:Generated_Source\PSoC6/CapSense_Filter.c ****     CapSense_FtRunEnabledFiltersInternal(ptrFilterHistObj, ptrSensor, (uint32)ptrWidget->wdgtType);
1544:Generated_Source\PSoC6/CapSense_Filter.c ****     #if (CapSense_ALP_FILTER_EN)
1545:Generated_Source\PSoC6/CapSense_Filter.c ****         CapSense_ConfigRunALPInternal(ptrFilterHistObj, ptrWidget->ptr2WdgtRam, ptrSensor, (uint32)
1546:Generated_Source\PSoC6/CapSense_Filter.c ****     #endif
1547:Generated_Source\PSoC6/CapSense_Filter.c **** }
1548:Generated_Source\PSoC6/CapSense_Filter.c **** 
1549:Generated_Source\PSoC6/CapSense_Filter.c **** 
1550:Generated_Source\PSoC6/CapSense_Filter.c **** /*******************************************************************************
1551:Generated_Source\PSoC6/CapSense_Filter.c **** * Function Name: CapSense_FtRunEnabledFiltersInternal
1552:Generated_Source\PSoC6/CapSense_Filter.c **** ****************************************************************************//**
1553:Generated_Source\PSoC6/CapSense_Filter.c **** *
1554:Generated_Source\PSoC6/CapSense_Filter.c **** * \brief    Runs all enabled filters.
1555:Generated_Source\PSoC6/CapSense_Filter.c **** *
1556:Generated_Source\PSoC6/CapSense_Filter.c **** * \details  Runs all enabled filters.
1557:Generated_Source\PSoC6/CapSense_Filter.c **** *
1558:Generated_Source\PSoC6/CapSense_Filter.c **** * \param    ptrFilterHistObj The pointer to the filter RAM object of the sensor.
1559:Generated_Source\PSoC6/CapSense_Filter.c **** * \param    ptrSensorObj     The pointer to the sensor RAM object of the sensor.
1560:Generated_Source\PSoC6/CapSense_Filter.c **** * \param    wdType           Specifies the type of a widget.
1561:Generated_Source\PSoC6/CapSense_Filter.c **** *
1562:Generated_Source\PSoC6/CapSense_Filter.c **** *******************************************************************************/
1563:Generated_Source\PSoC6/CapSense_Filter.c **** void CapSense_FtRunEnabledFiltersInternal(CapSense_PTR_FILTER_VARIANT ptrFilterHistObj,
1564:Generated_Source\PSoC6/CapSense_Filter.c ****                                                   CapSense_RAM_SNS_STRUCT *ptrSensorObj, uint32 wdT
1565:Generated_Source\PSoC6/CapSense_Filter.c **** {
1566:Generated_Source\PSoC6/CapSense_Filter.c ****     #if (CapSense_REGULAR_RC_MEDIAN_FILTER_EN || CapSense_PROX_RC_MEDIAN_FILTER_EN)
1567:Generated_Source\PSoC6/CapSense_Filter.c ****         CapSense_RunMedianInternal(ptrFilterHistObj, ptrSensorObj, wdType);
1568:Generated_Source\PSoC6/CapSense_Filter.c ****     #endif /* (CapSense_REGULAR_RC_MEDIAN_FILTER_EN || CapSense_PROX_RC_MEDIAN_FILTER_EN) */
1569:Generated_Source\PSoC6/CapSense_Filter.c **** 
1570:Generated_Source\PSoC6/CapSense_Filter.c ****     #if (CapSense_REGULAR_RC_IIR_FILTER_EN || CapSense_PROX_RC_IIR_FILTER_EN)
1571:Generated_Source\PSoC6/CapSense_Filter.c ****         CapSense_RunIIRInternal(ptrFilterHistObj, ptrSensorObj, wdType);
1572:Generated_Source\PSoC6/CapSense_Filter.c ****     #endif /* (CapSense_REGULAR_RC_IIR_FILTER_EN || CapSense_PROX_RC_IIR_FILTER_EN) */
1573:Generated_Source\PSoC6/CapSense_Filter.c **** 
1574:Generated_Source\PSoC6/CapSense_Filter.c ****     #if (CapSense_REGULAR_RC_AVERAGE_FILTER_EN || CapSense_PROX_RC_AVERAGE_FILTER_EN)
1575:Generated_Source\PSoC6/CapSense_Filter.c ****         CapSense_RunAverageInternal(ptrFilterHistObj, ptrSensorObj, wdType);
1576:Generated_Source\PSoC6/CapSense_Filter.c ****     #endif /* (CapSense_REGULAR_RC_AVERAGE_FILTER_EN || CapSense_PROX_RC_AVERAGE_FILTER_EN) */
1577:Generated_Source\PSoC6/CapSense_Filter.c **** }
1578:Generated_Source\PSoC6/CapSense_Filter.c **** #endif /* (CapSense_ENABLE == CapSense_RC_FILTER_EN) */
1579:Generated_Source\PSoC6/CapSense_Filter.c **** 
1580:Generated_Source\PSoC6/CapSense_Filter.c **** 
ARM GAS  C:\Users\ikomb\AppData\Local\Temp\ccZFcZfB.s 			page 46


1581:Generated_Source\PSoC6/CapSense_Filter.c **** #if (0u != (CapSense_CSD_AUTOTUNE & CapSense_CSD_SS_TH_EN))
1582:Generated_Source\PSoC6/CapSense_Filter.c **** /*******************************************************************************
1583:Generated_Source\PSoC6/CapSense_Filter.c **** * Function Name: CapSense_RunNoiseEnvelope
1584:Generated_Source\PSoC6/CapSense_Filter.c **** ****************************************************************************//**
1585:Generated_Source\PSoC6/CapSense_Filter.c **** *
1586:Generated_Source\PSoC6/CapSense_Filter.c **** * \brief    Executes the noise envelope  filter algorithm on a sensor indicated by
1587:Generated_Source\PSoC6/CapSense_Filter.c **** *           an input parameter to measure the pk-to-pk noise in the sensor raw count.
1588:Generated_Source\PSoC6/CapSense_Filter.c **** *
1589:Generated_Source\PSoC6/CapSense_Filter.c **** * \details  Executes the noise envelope  filter algorithm on a sensor indicated by
1590:Generated_Source\PSoC6/CapSense_Filter.c **** *           an input parameter to measure the pk-to-pk noise in the sensor raw count.
1591:Generated_Source\PSoC6/CapSense_Filter.c **** *
1592:Generated_Source\PSoC6/CapSense_Filter.c **** * \param    widgetId Specifies the ID number of the widget.
1593:Generated_Source\PSoC6/CapSense_Filter.c **** * \param    sensorId Specifies the ID number of the sensor in the widget.
1594:Generated_Source\PSoC6/CapSense_Filter.c **** *
1595:Generated_Source\PSoC6/CapSense_Filter.c **** *******************************************************************************/
1596:Generated_Source\PSoC6/CapSense_Filter.c **** void CapSense_RunNoiseEnvelope(uint32 widgetId, uint32 sensorId)
1597:Generated_Source\PSoC6/CapSense_Filter.c **** {
 901              		.loc 1 1597 0
 902              		.cfi_startproc
 903              		@ args = 0, pretend = 0, frame = 0
 904              		@ frame_needed = 0, uses_anonymous_args = 0
 905              	.LVL120:
 906 0000 F8B5     		push	{r3, r4, r5, r6, r7, lr}
 907              		.cfi_def_cfa_offset 24
 908              		.cfi_offset 3, -24
 909              		.cfi_offset 4, -20
 910              		.cfi_offset 5, -16
 911              		.cfi_offset 6, -12
 912              		.cfi_offset 7, -8
 913              		.cfi_offset 14, -4
 914              	.LVL121:
1598:Generated_Source\PSoC6/CapSense_Filter.c ****     CapSense_FLASH_WD_STRUCT const *ptrWidget = &CapSense_dsFlash.wdgtArray[widgetId];
1599:Generated_Source\PSoC6/CapSense_Filter.c ****     CapSense_RAM_WD_BASE_STRUCT *ptrWidgetRam = ptrWidget->ptr2WdgtRam;
 915              		.loc 1 1599 0
 916 0002 0C4F     		ldr	r7, .L53
 917 0004 4300     		lsls	r3, r0, #1
 918 0006 9C46     		mov	ip, r3
 919 0008 1A18     		adds	r2, r3, r0
 920 000a 1301     		lsls	r3, r2, #4
 921 000c FB18     		adds	r3, r7, r3
 922 000e 5D68     		ldr	r5, [r3, #4]
 923              	.LVL122:
1600:Generated_Source\PSoC6/CapSense_Filter.c ****     CapSense_RAM_SNS_STRUCT *ptrSensor = NULL;
1601:Generated_Source\PSoC6/CapSense_Filter.c ****     SMARTSENSE_CSD_NOISE_ENVELOPE_STRUCT *ptrNoiseEnvelope = NULL;
1602:Generated_Source\PSoC6/CapSense_Filter.c **** 
1603:Generated_Source\PSoC6/CapSense_Filter.c ****     /* Find pointer to specified sensor object */
1604:Generated_Source\PSoC6/CapSense_Filter.c ****     ptrSensor = ptrWidget->ptr2SnsRam;
 924              		.loc 1 1604 0
 925 0010 9E68     		ldr	r6, [r3, #8]
 926              	.LVL123:
1605:Generated_Source\PSoC6/CapSense_Filter.c ****     ptrSensor = &ptrSensor[sensorId];
 927              		.loc 1 1605 0
 928 0012 8A00     		lsls	r2, r1, #2
 929 0014 5218     		adds	r2, r2, r1
 930 0016 5400     		lsls	r4, r2, #1
 931              	.LVL124:
1606:Generated_Source\PSoC6/CapSense_Filter.c **** 
ARM GAS  C:\Users\ikomb\AppData\Local\Temp\ccZFcZfB.s 			page 47


1607:Generated_Source\PSoC6/CapSense_Filter.c ****     /* Find pointer to specified filter sensor object */
1608:Generated_Source\PSoC6/CapSense_Filter.c ****     ptrNoiseEnvelope = ptrWidget->ptr2NoiseEnvlp;
 932              		.loc 1 1608 0
 933 0018 6044     		add	r0, r0, ip
 934              	.LVL125:
 935 001a 0301     		lsls	r3, r0, #4
 936 001c FB18     		adds	r3, r7, r3
 937 001e 5B6A     		ldr	r3, [r3, #36]
 938              	.LVL126:
1609:Generated_Source\PSoC6/CapSense_Filter.c ****     ptrNoiseEnvelope = &ptrNoiseEnvelope[sensorId];
 939              		.loc 1 1609 0
 940 0020 4A00     		lsls	r2, r1, #1
 941 0022 5118     		adds	r1, r2, r1
 942              	.LVL127:
 943 0024 8A00     		lsls	r2, r1, #2
 944 0026 9A18     		adds	r2, r3, r2
 945              	.LVL128:
1610:Generated_Source\PSoC6/CapSense_Filter.c **** 
1611:Generated_Source\PSoC6/CapSense_Filter.c ****     SmartSense_RunNoiseEnvelope(ptrSensor->raw[0u], ptrWidgetRam->sigPFC, ptrNoiseEnvelope);
 946              		.loc 1 1611 0
 947 0028 298A     		ldrh	r1, [r5, #16]
 948 002a 305B     		ldrh	r0, [r6, r4]
 949 002c FFF7FEFF 		bl	SmartSense_RunNoiseEnvelope
 950              	.LVL129:
1612:Generated_Source\PSoC6/CapSense_Filter.c **** }
 951              		.loc 1 1612 0
 952              		@ sp needed
 953              	.LVL130:
 954              	.LVL131:
 955              	.LVL132:
 956              	.LVL133:
 957 0030 F8BD     		pop	{r3, r4, r5, r6, r7, pc}
 958              	.L54:
 959 0032 C046     		.align	2
 960              	.L53:
 961 0034 00000000 		.word	CapSense_dsFlash
 962              		.cfi_endproc
 963              	.LFE58:
 964              		.size	CapSense_RunNoiseEnvelope, .-CapSense_RunNoiseEnvelope
 965              		.section	.text.CapSense_InitializeNoiseEnvelope,"ax",%progbits
 966              		.align	2
 967              		.global	CapSense_InitializeNoiseEnvelope
 968              		.code	16
 969              		.thumb_func
 970              		.type	CapSense_InitializeNoiseEnvelope, %function
 971              	CapSense_InitializeNoiseEnvelope:
 972              	.LFB59:
1613:Generated_Source\PSoC6/CapSense_Filter.c **** 
1614:Generated_Source\PSoC6/CapSense_Filter.c **** 
1615:Generated_Source\PSoC6/CapSense_Filter.c **** /*******************************************************************************
1616:Generated_Source\PSoC6/CapSense_Filter.c **** * Function Name: CapSense_InitializeNoiseEnvelope
1617:Generated_Source\PSoC6/CapSense_Filter.c **** ****************************************************************************//**
1618:Generated_Source\PSoC6/CapSense_Filter.c **** *
1619:Generated_Source\PSoC6/CapSense_Filter.c **** * \brief    Initializes the noise-envelope filter
1620:Generated_Source\PSoC6/CapSense_Filter.c **** *
1621:Generated_Source\PSoC6/CapSense_Filter.c **** * \details  Initializes the noise-envelope filter
1622:Generated_Source\PSoC6/CapSense_Filter.c **** *
ARM GAS  C:\Users\ikomb\AppData\Local\Temp\ccZFcZfB.s 			page 48


1623:Generated_Source\PSoC6/CapSense_Filter.c **** * \param    widgetId Specifies the ID number of the widget.
1624:Generated_Source\PSoC6/CapSense_Filter.c **** * \param    sensorId Specifies the ID number of the sensor in the widget.
1625:Generated_Source\PSoC6/CapSense_Filter.c **** *
1626:Generated_Source\PSoC6/CapSense_Filter.c **** *******************************************************************************/
1627:Generated_Source\PSoC6/CapSense_Filter.c **** void CapSense_InitializeNoiseEnvelope(uint32 widgetId, uint32 sensorId)
1628:Generated_Source\PSoC6/CapSense_Filter.c **** {
 973              		.loc 1 1628 0
 974              		.cfi_startproc
 975              		@ args = 0, pretend = 0, frame = 0
 976              		@ frame_needed = 0, uses_anonymous_args = 0
 977              	.LVL134:
 978 0000 F8B5     		push	{r3, r4, r5, r6, r7, lr}
 979              		.cfi_def_cfa_offset 24
 980              		.cfi_offset 3, -24
 981              		.cfi_offset 4, -20
 982              		.cfi_offset 5, -16
 983              		.cfi_offset 6, -12
 984              		.cfi_offset 7, -8
 985              		.cfi_offset 14, -4
 986              	.LVL135:
1629:Generated_Source\PSoC6/CapSense_Filter.c ****     CapSense_FLASH_WD_STRUCT const *ptrWidget = &CapSense_dsFlash.wdgtArray[widgetId];
1630:Generated_Source\PSoC6/CapSense_Filter.c ****     CapSense_RAM_WD_BASE_STRUCT *ptrWidgetRam = ptrWidget->ptr2WdgtRam;
 987              		.loc 1 1630 0
 988 0002 0C4F     		ldr	r7, .L56
 989 0004 4300     		lsls	r3, r0, #1
 990 0006 9C46     		mov	ip, r3
 991 0008 1A18     		adds	r2, r3, r0
 992 000a 1301     		lsls	r3, r2, #4
 993 000c FB18     		adds	r3, r7, r3
 994 000e 5D68     		ldr	r5, [r3, #4]
 995              	.LVL136:
1631:Generated_Source\PSoC6/CapSense_Filter.c ****     CapSense_RAM_SNS_STRUCT *ptrSensor = NULL;
1632:Generated_Source\PSoC6/CapSense_Filter.c ****     SMARTSENSE_CSD_NOISE_ENVELOPE_STRUCT *ptrNoiseEnvelope = NULL;
1633:Generated_Source\PSoC6/CapSense_Filter.c **** 
1634:Generated_Source\PSoC6/CapSense_Filter.c ****     /* Find pointer to specified sensor object */
1635:Generated_Source\PSoC6/CapSense_Filter.c ****     ptrSensor = ptrWidget->ptr2SnsRam;
 996              		.loc 1 1635 0
 997 0010 9E68     		ldr	r6, [r3, #8]
 998              	.LVL137:
1636:Generated_Source\PSoC6/CapSense_Filter.c ****     ptrSensor = &ptrSensor[sensorId];
 999              		.loc 1 1636 0
 1000 0012 8A00     		lsls	r2, r1, #2
 1001 0014 5218     		adds	r2, r2, r1
 1002 0016 5400     		lsls	r4, r2, #1
 1003              	.LVL138:
1637:Generated_Source\PSoC6/CapSense_Filter.c **** 
1638:Generated_Source\PSoC6/CapSense_Filter.c ****     /* Find pointer to specified filter sensor object */
1639:Generated_Source\PSoC6/CapSense_Filter.c ****     ptrNoiseEnvelope = ptrWidget->ptr2NoiseEnvlp;
 1004              		.loc 1 1639 0
 1005 0018 6044     		add	r0, r0, ip
 1006              	.LVL139:
 1007 001a 0301     		lsls	r3, r0, #4
 1008 001c FB18     		adds	r3, r7, r3
 1009 001e 5B6A     		ldr	r3, [r3, #36]
 1010              	.LVL140:
1640:Generated_Source\PSoC6/CapSense_Filter.c ****     ptrNoiseEnvelope = &ptrNoiseEnvelope[sensorId];
 1011              		.loc 1 1640 0
ARM GAS  C:\Users\ikomb\AppData\Local\Temp\ccZFcZfB.s 			page 49


 1012 0020 4A00     		lsls	r2, r1, #1
 1013 0022 5118     		adds	r1, r2, r1
 1014              	.LVL141:
 1015 0024 8A00     		lsls	r2, r1, #2
 1016 0026 9A18     		adds	r2, r3, r2
 1017              	.LVL142:
1641:Generated_Source\PSoC6/CapSense_Filter.c **** 
1642:Generated_Source\PSoC6/CapSense_Filter.c ****     SmartSense_InitializeNoiseEnvelope(ptrSensor->raw[0u], ptrWidgetRam->sigPFC, ptrNoiseEnvelope);
 1018              		.loc 1 1642 0
 1019 0028 298A     		ldrh	r1, [r5, #16]
 1020 002a 305B     		ldrh	r0, [r6, r4]
 1021 002c FFF7FEFF 		bl	SmartSense_InitializeNoiseEnvelope
 1022              	.LVL143:
1643:Generated_Source\PSoC6/CapSense_Filter.c **** }
 1023              		.loc 1 1643 0
 1024              		@ sp needed
 1025              	.LVL144:
 1026              	.LVL145:
 1027              	.LVL146:
 1028              	.LVL147:
 1029 0030 F8BD     		pop	{r3, r4, r5, r6, r7, pc}
 1030              	.L57:
 1031 0032 C046     		.align	2
 1032              	.L56:
 1033 0034 00000000 		.word	CapSense_dsFlash
 1034              		.cfi_endproc
 1035              	.LFE59:
 1036              		.size	CapSense_InitializeNoiseEnvelope, .-CapSense_InitializeNoiseEnvelope
 1037              		.section	.text.CapSense_FtMedian,"ax",%progbits
 1038              		.align	2
 1039              		.global	CapSense_FtMedian
 1040              		.code	16
 1041              		.thumb_func
 1042              		.type	CapSense_FtMedian, %function
 1043              	CapSense_FtMedian:
 1044              	.LFB60:
1644:Generated_Source\PSoC6/CapSense_Filter.c **** #endif /* (0u != (CapSense_CSD_AUTOTUNE & CapSense_CSD_SS_TH_EN)) */
1645:Generated_Source\PSoC6/CapSense_Filter.c **** 
1646:Generated_Source\PSoC6/CapSense_Filter.c **** 
1647:Generated_Source\PSoC6/CapSense_Filter.c **** #if (CapSense_POS_MEDIAN_FILTER_EN || CapSense_REGULAR_RC_MEDIAN_FILTER_EN || CapSense_PROX_RC_MEDI
1648:Generated_Source\PSoC6/CapSense_Filter.c **** /*******************************************************************************
1649:Generated_Source\PSoC6/CapSense_Filter.c **** * Function Name: CapSense_FtMedian
1650:Generated_Source\PSoC6/CapSense_Filter.c **** ****************************************************************************//**
1651:Generated_Source\PSoC6/CapSense_Filter.c **** *
1652:Generated_Source\PSoC6/CapSense_Filter.c **** * \brief    Return the median value from the three passed arguments.
1653:Generated_Source\PSoC6/CapSense_Filter.c **** *
1654:Generated_Source\PSoC6/CapSense_Filter.c **** * \details  Return the median value from the three passed arguments.
1655:Generated_Source\PSoC6/CapSense_Filter.c **** *
1656:Generated_Source\PSoC6/CapSense_Filter.c **** * \param    x1 The first value to be compared.
1657:Generated_Source\PSoC6/CapSense_Filter.c **** * \param    x2 The second value to be compared.
1658:Generated_Source\PSoC6/CapSense_Filter.c **** * \param    x3 The third value to be compared.
1659:Generated_Source\PSoC6/CapSense_Filter.c **** *
1660:Generated_Source\PSoC6/CapSense_Filter.c **** * \return   Returns the median value of input arguments.
1661:Generated_Source\PSoC6/CapSense_Filter.c **** *
1662:Generated_Source\PSoC6/CapSense_Filter.c **** *******************************************************************************/
1663:Generated_Source\PSoC6/CapSense_Filter.c **** uint32 CapSense_FtMedian(uint32 x1, uint32 x2, uint32 x3)
1664:Generated_Source\PSoC6/CapSense_Filter.c **** {
ARM GAS  C:\Users\ikomb\AppData\Local\Temp\ccZFcZfB.s 			page 50


 1045              		.loc 1 1664 0
 1046              		.cfi_startproc
 1047              		@ args = 0, pretend = 0, frame = 0
 1048              		@ frame_needed = 0, uses_anonymous_args = 0
 1049              		@ link register save eliminated.
 1050              	.LVL148:
1665:Generated_Source\PSoC6/CapSense_Filter.c ****     uint32 tmp;
1666:Generated_Source\PSoC6/CapSense_Filter.c **** 
1667:Generated_Source\PSoC6/CapSense_Filter.c ****     if (x1 > x2)
 1051              		.loc 1 1667 0
 1052 0000 8842     		cmp	r0, r1
 1053 0002 02D9     		bls	.L59
 1054 0004 0300     		movs	r3, r0
1668:Generated_Source\PSoC6/CapSense_Filter.c ****     {
1669:Generated_Source\PSoC6/CapSense_Filter.c ****         tmp = x2;
1670:Generated_Source\PSoC6/CapSense_Filter.c ****         x2 = x1;
1671:Generated_Source\PSoC6/CapSense_Filter.c ****         x1 = tmp;
 1055              		.loc 1 1671 0
 1056 0006 0800     		movs	r0, r1
 1057              	.LVL149:
1670:Generated_Source\PSoC6/CapSense_Filter.c ****         x1 = tmp;
 1058              		.loc 1 1670 0
 1059 0008 1900     		movs	r1, r3
 1060              	.LVL150:
 1061              	.L59:
1672:Generated_Source\PSoC6/CapSense_Filter.c ****     }
1673:Generated_Source\PSoC6/CapSense_Filter.c **** 
1674:Generated_Source\PSoC6/CapSense_Filter.c ****     if (x2 > x3)
 1062              		.loc 1 1674 0
 1063 000a 9142     		cmp	r1, r2
 1064 000c 00D9     		bls	.L60
1675:Generated_Source\PSoC6/CapSense_Filter.c ****     {
1676:Generated_Source\PSoC6/CapSense_Filter.c ****         x2 = x3;
 1065              		.loc 1 1676 0
 1066 000e 1100     		movs	r1, r2
 1067              	.LVL151:
 1068              	.L60:
1677:Generated_Source\PSoC6/CapSense_Filter.c ****     }
1678:Generated_Source\PSoC6/CapSense_Filter.c **** 
1679:Generated_Source\PSoC6/CapSense_Filter.c ****     return ((x1 > x2) ? x1 : x2);
 1069              		.loc 1 1679 0
 1070 0010 8842     		cmp	r0, r1
 1071 0012 00D2     		bcs	.L61
 1072 0014 0800     		movs	r0, r1
 1073              	.LVL152:
 1074              	.L61:
1680:Generated_Source\PSoC6/CapSense_Filter.c **** }
 1075              		.loc 1 1680 0
 1076              		@ sp needed
 1077 0016 7047     		bx	lr
 1078              		.cfi_endproc
 1079              	.LFE60:
 1080              		.size	CapSense_FtMedian, .-CapSense_FtMedian
 1081              		.section	.text.CapSense_RunMedianInternal,"ax",%progbits
 1082              		.align	2
 1083              		.global	CapSense_RunMedianInternal
 1084              		.code	16
ARM GAS  C:\Users\ikomb\AppData\Local\Temp\ccZFcZfB.s 			page 51


 1085              		.thumb_func
 1086              		.type	CapSense_RunMedianInternal, %function
 1087              	CapSense_RunMedianInternal:
 1088              	.LFB51:
1067:Generated_Source\PSoC6/CapSense_Filter.c ****     uint32 freqChannel;
 1089              		.loc 1 1067 0
 1090              		.cfi_startproc
 1091              		@ args = 0, pretend = 0, frame = 0
 1092              		@ frame_needed = 0, uses_anonymous_args = 0
 1093              	.LVL153:
 1094 0000 F8B5     		push	{r3, r4, r5, r6, r7, lr}
 1095              		.cfi_def_cfa_offset 24
 1096              		.cfi_offset 3, -24
 1097              		.cfi_offset 4, -20
 1098              		.cfi_offset 5, -16
 1099              		.cfi_offset 6, -12
 1100              		.cfi_offset 7, -8
 1101              		.cfi_offset 14, -4
 1102 0002 5F46     		mov	r7, fp
 1103 0004 5646     		mov	r6, r10
 1104 0006 4D46     		mov	r5, r9
 1105 0008 4446     		mov	r4, r8
 1106 000a F0B4     		push	{r4, r5, r6, r7}
 1107              		.cfi_def_cfa_offset 40
 1108              		.cfi_offset 8, -40
 1109              		.cfi_offset 9, -36
 1110              		.cfi_offset 10, -32
 1111              		.cfi_offset 11, -28
 1112 000c 8046     		mov	r8, r0
 1113 000e 0F00     		movs	r7, r1
 1114 0010 9146     		mov	r9, r2
 1115              	.LVL154:
1075:Generated_Source\PSoC6/CapSense_Filter.c ****     {
 1116              		.loc 1 1075 0
 1117 0012 0123     		movs	r3, #1
 1118 0014 1FE0     		b	.L65
 1119              	.LVL155:
 1120              	.L67:
1077:Generated_Source\PSoC6/CapSense_Filter.c ****         {
 1121              		.loc 1 1077 0
 1122 0016 FF23     		movs	r3, #255
 1123 0018 4A46     		mov	r2, r9
 1124 001a 1340     		ands	r3, r2
 1125 001c 062B     		cmp	r3, #6
 1126 001e 19D0     		beq	.L66
 1127              	.LVL156:
1080:Generated_Source\PSoC6/CapSense_Filter.c ****                                                  (uint32)ptrFilterHistObj.ptrRegular->regularChanne
 1128              		.loc 1 1080 0
 1129 0020 6300     		lsls	r3, r4, #1
 1130 0022 9A46     		mov	r10, r3
 1131 0024 D85B     		ldrh	r0, [r3, r7]
 1132              	.LVL157:
1081:Generated_Source\PSoC6/CapSense_Filter.c ****                                                  (uint32)ptrFilterHistObj.ptrRegular->regularChanne
 1133              		.loc 1 1081 0
 1134 0026 A500     		lsls	r5, r4, #2
 1135 0028 2A19     		adds	r2, r5, r4
 1136              	.LVL158:
ARM GAS  C:\Users\ikomb\AppData\Local\Temp\ccZFcZfB.s 			page 52


 1137 002a 5300     		lsls	r3, r2, #1
 1138 002c 4246     		mov	r2, r8
 1139 002e 9B5A     		ldrh	r3, [r3, r2]
 1140 0030 9B46     		mov	fp, r3
1082:Generated_Source\PSoC6/CapSense_Filter.c ****                 ptrFilterHistObj.ptrRegular->regularChannel[freqChannel].medHistory[1u] = \
 1141              		.loc 1 1082 0
 1142 0032 2B19     		adds	r3, r5, r4
 1143 0034 5E00     		lsls	r6, r3, #1
 1144 0036 4644     		add	r6, r6, r8
 1145 0038 7288     		ldrh	r2, [r6, #2]
1080:Generated_Source\PSoC6/CapSense_Filter.c ****                                                  (uint32)ptrFilterHistObj.ptrRegular->regularChanne
 1146              		.loc 1 1080 0
 1147 003a 5946     		mov	r1, fp
 1148              	.LVL159:
 1149 003c FFF7FEFF 		bl	CapSense_FtMedian
 1150              	.LVL160:
1083:Generated_Source\PSoC6/CapSense_Filter.c ****                 ptrFilterHistObj.ptrRegular->regularChannel[freqChannel].medHistory[0u];
 1151              		.loc 1 1083 0
 1152 0040 5B46     		mov	r3, fp
 1153 0042 7380     		strh	r3, [r6, #2]
1085:Generated_Source\PSoC6/CapSense_Filter.c ****                 ptrSensorObj->raw[freqChannel] = CY_LO16(temp);
 1154              		.loc 1 1085 0
 1155 0044 5346     		mov	r3, r10
 1156 0046 DA5B     		ldrh	r2, [r3, r7]
 1157 0048 2D19     		adds	r5, r5, r4
 1158 004a 6B00     		lsls	r3, r5, #1
 1159 004c 4146     		mov	r1, r8
 1160 004e 5A52     		strh	r2, [r3, r1]
1086:Generated_Source\PSoC6/CapSense_Filter.c ****             #endif /* (CapSense_REGULAR_SENSOR_EN) */
 1161              		.loc 1 1086 0
 1162 0050 5346     		mov	r3, r10
 1163 0052 F852     		strh	r0, [r7, r3]
 1164              	.LVL161:
 1165              	.L66:
1067:Generated_Source\PSoC6/CapSense_Filter.c ****     uint32 freqChannel;
 1166              		.loc 1 1067 0 discriminator 1
 1167 0054 2300     		movs	r3, r4
 1168              	.LVL162:
 1169              	.L65:
1075:Generated_Source\PSoC6/CapSense_Filter.c ****     {
 1170              		.loc 1 1075 0 discriminator 1
 1171 0056 5C1E     		subs	r4, r3, #1
 1172              	.LVL163:
 1173 0058 002B     		cmp	r3, #0
 1174 005a DCD1     		bne	.L67
1102:Generated_Source\PSoC6/CapSense_Filter.c **** #endif /* (CapSense_REGULAR_RC_MEDIAN_FILTER_EN || CapSense_PROX_RC_MEDIAN_FILTER_EN) */
 1175              		.loc 1 1102 0
 1176              		@ sp needed
 1177              	.LVL164:
 1178              	.LVL165:
 1179              	.LVL166:
 1180 005c 3CBC     		pop	{r2, r3, r4, r5}
 1181 005e 9046     		mov	r8, r2
 1182 0060 9946     		mov	r9, r3
 1183 0062 A246     		mov	r10, r4
 1184 0064 AB46     		mov	fp, r5
 1185 0066 F8BD     		pop	{r3, r4, r5, r6, r7, pc}
ARM GAS  C:\Users\ikomb\AppData\Local\Temp\ccZFcZfB.s 			page 53


 1186              		.cfi_endproc
 1187              	.LFE51:
 1188              		.size	CapSense_RunMedianInternal, .-CapSense_RunMedianInternal
 1189              		.section	.text.CapSense_RunMedian,"ax",%progbits
 1190              		.align	2
 1191              		.global	CapSense_RunMedian
 1192              		.code	16
 1193              		.thumb_func
 1194              		.type	CapSense_RunMedian, %function
 1195              	CapSense_RunMedian:
 1196              	.LFB49:
 985:Generated_Source\PSoC6/CapSense_Filter.c ****     CapSense_FLASH_WD_STRUCT const *ptrWidget = &CapSense_dsFlash.wdgtArray[widgetId];
 1197              		.loc 1 985 0
 1198              		.cfi_startproc
 1199              		@ args = 0, pretend = 0, frame = 0
 1200              		@ frame_needed = 0, uses_anonymous_args = 0
 1201              	.LVL167:
 1202 0000 F8B5     		push	{r3, r4, r5, r6, r7, lr}
 1203              		.cfi_def_cfa_offset 24
 1204              		.cfi_offset 3, -24
 1205              		.cfi_offset 4, -20
 1206              		.cfi_offset 5, -16
 1207              		.cfi_offset 6, -12
 1208              		.cfi_offset 7, -8
 1209              		.cfi_offset 14, -4
 1210              	.LVL168:
 991:Generated_Source\PSoC6/CapSense_Filter.c ****     ptrSensor = &ptrSensor[sensorId];
 1211              		.loc 1 991 0
 1212 0002 0B4A     		ldr	r2, .L70
 1213 0004 4600     		lsls	r6, r0, #1
 1214 0006 3418     		adds	r4, r6, r0
 1215 0008 2301     		lsls	r3, r4, #4
 1216 000a D318     		adds	r3, r2, r3
 1217              	.LVL169:
 992:Generated_Source\PSoC6/CapSense_Filter.c **** 
 1218              		.loc 1 992 0
 1219 000c 8C00     		lsls	r4, r1, #2
 1220 000e 6118     		adds	r1, r4, r1
 1221              	.LVL170:
 1222 0010 4D00     		lsls	r5, r1, #1
 1223 0012 9968     		ldr	r1, [r3, #8]
 1224 0014 4919     		adds	r1, r1, r5
 1225              	.LVL171:
 995:Generated_Source\PSoC6/CapSense_Filter.c **** 
 1226              		.loc 1 995 0
 1227 0016 DF68     		ldr	r7, [r3, #12]
 1228 0018 3C00     		movs	r4, r7
 1229              	.LVL172:
 997:Generated_Source\PSoC6/CapSense_Filter.c ****     {
 1230              		.loc 1 997 0
 1231 001a 3018     		adds	r0, r6, r0
 1232              	.LVL173:
 1233 001c 0301     		lsls	r3, r0, #4
 1234 001e D318     		adds	r3, r2, r3
 1235 0020 9A7E     		ldrb	r2, [r3, #26]
 1236 0022 062A     		cmp	r2, #6
 1237 0024 00D0     		beq	.L69
ARM GAS  C:\Users\ikomb\AppData\Local\Temp\ccZFcZfB.s 			page 54


1000:Generated_Source\PSoC6/CapSense_Filter.c ****         #endif /* (CapSense_REGULAR_SENSOR_EN) */
 1238              		.loc 1 1000 0
 1239 0026 7C19     		adds	r4, r7, r5
 1240              	.L69:
 1241              	.LVL174:
1010:Generated_Source\PSoC6/CapSense_Filter.c **** }
 1242              		.loc 1 1010 0
 1243 0028 2000     		movs	r0, r4
 1244 002a FFF7FEFF 		bl	CapSense_RunMedianInternal
 1245              	.LVL175:
1011:Generated_Source\PSoC6/CapSense_Filter.c **** 
 1246              		.loc 1 1011 0
 1247              		@ sp needed
 1248              	.LVL176:
 1249              	.LVL177:
 1250              	.LVL178:
 1251 002e F8BD     		pop	{r3, r4, r5, r6, r7, pc}
 1252              	.L71:
 1253              		.align	2
 1254              	.L70:
 1255 0030 00000000 		.word	CapSense_dsFlash
 1256              		.cfi_endproc
 1257              	.LFE49:
 1258              		.size	CapSense_RunMedian, .-CapSense_RunMedian
 1259              		.section	.text.CapSense_FtRunEnabledFiltersInternal,"ax",%progbits
 1260              		.align	2
 1261              		.global	CapSense_FtRunEnabledFiltersInternal
 1262              		.code	16
 1263              		.thumb_func
 1264              		.type	CapSense_FtRunEnabledFiltersInternal, %function
 1265              	CapSense_FtRunEnabledFiltersInternal:
 1266              	.LFB57:
1565:Generated_Source\PSoC6/CapSense_Filter.c ****     #if (CapSense_REGULAR_RC_MEDIAN_FILTER_EN || CapSense_PROX_RC_MEDIAN_FILTER_EN)
 1267              		.loc 1 1565 0
 1268              		.cfi_startproc
 1269              		@ args = 0, pretend = 0, frame = 0
 1270              		@ frame_needed = 0, uses_anonymous_args = 0
 1271              	.LVL179:
 1272 0000 70B5     		push	{r4, r5, r6, lr}
 1273              		.cfi_def_cfa_offset 16
 1274              		.cfi_offset 4, -16
 1275              		.cfi_offset 5, -12
 1276              		.cfi_offset 6, -8
 1277              		.cfi_offset 14, -4
 1278 0002 0400     		movs	r4, r0
 1279 0004 0D00     		movs	r5, r1
 1280 0006 1600     		movs	r6, r2
1567:Generated_Source\PSoC6/CapSense_Filter.c ****     #endif /* (CapSense_REGULAR_RC_MEDIAN_FILTER_EN || CapSense_PROX_RC_MEDIAN_FILTER_EN) */
 1281              		.loc 1 1567 0
 1282 0008 FFF7FEFF 		bl	CapSense_RunMedianInternal
 1283              	.LVL180:
1575:Generated_Source\PSoC6/CapSense_Filter.c ****     #endif /* (CapSense_REGULAR_RC_AVERAGE_FILTER_EN || CapSense_PROX_RC_AVERAGE_FILTER_EN) */
 1284              		.loc 1 1575 0
 1285 000c 3200     		movs	r2, r6
 1286 000e 2900     		movs	r1, r5
 1287              	.LVL181:
 1288 0010 2000     		movs	r0, r4
ARM GAS  C:\Users\ikomb\AppData\Local\Temp\ccZFcZfB.s 			page 55


 1289 0012 FFF7FEFF 		bl	CapSense_RunAverageInternal
 1290              	.LVL182:
1577:Generated_Source\PSoC6/CapSense_Filter.c **** #endif /* (CapSense_ENABLE == CapSense_RC_FILTER_EN) */
 1291              		.loc 1 1577 0
 1292              		@ sp needed
 1293              	.LVL183:
 1294              	.LVL184:
 1295              	.LVL185:
 1296 0016 70BD     		pop	{r4, r5, r6, pc}
 1297              		.cfi_endproc
 1298              	.LFE57:
 1299              		.size	CapSense_FtRunEnabledFiltersInternal, .-CapSense_FtRunEnabledFiltersInternal
 1300              		.section	.text.CapSense_FtRunEnabledFilters,"ax",%progbits
 1301              		.align	2
 1302              		.global	CapSense_FtRunEnabledFilters
 1303              		.code	16
 1304              		.thumb_func
 1305              		.type	CapSense_FtRunEnabledFilters, %function
 1306              	CapSense_FtRunEnabledFilters:
 1307              	.LFB56:
1514:Generated_Source\PSoC6/CapSense_Filter.c ****     CapSense_FLASH_WD_STRUCT const *ptrWidget = &CapSense_dsFlash.wdgtArray[widgetId];
 1308              		.loc 1 1514 0
 1309              		.cfi_startproc
 1310              		@ args = 0, pretend = 0, frame = 0
 1311              		@ frame_needed = 0, uses_anonymous_args = 0
 1312              	.LVL186:
 1313 0000 F8B5     		push	{r3, r4, r5, r6, r7, lr}
 1314              		.cfi_def_cfa_offset 24
 1315              		.cfi_offset 3, -24
 1316              		.cfi_offset 4, -20
 1317              		.cfi_offset 5, -16
 1318              		.cfi_offset 6, -12
 1319              		.cfi_offset 7, -8
 1320              		.cfi_offset 14, -4
 1321              	.LVL187:
1520:Generated_Source\PSoC6/CapSense_Filter.c ****     ptrSensor = &ptrSensor[sensorId];
 1322              		.loc 1 1520 0
 1323 0002 0B4A     		ldr	r2, .L75
 1324 0004 4600     		lsls	r6, r0, #1
 1325 0006 3418     		adds	r4, r6, r0
 1326 0008 2301     		lsls	r3, r4, #4
 1327 000a D318     		adds	r3, r2, r3
 1328              	.LVL188:
1521:Generated_Source\PSoC6/CapSense_Filter.c **** 
 1329              		.loc 1 1521 0
 1330 000c 8C00     		lsls	r4, r1, #2
 1331 000e 6118     		adds	r1, r4, r1
 1332              	.LVL189:
 1333 0010 4D00     		lsls	r5, r1, #1
 1334 0012 9968     		ldr	r1, [r3, #8]
 1335 0014 4919     		adds	r1, r1, r5
 1336              	.LVL190:
1524:Generated_Source\PSoC6/CapSense_Filter.c **** 
 1337              		.loc 1 1524 0
 1338 0016 DF68     		ldr	r7, [r3, #12]
 1339 0018 3C00     		movs	r4, r7
 1340              	.LVL191:
ARM GAS  C:\Users\ikomb\AppData\Local\Temp\ccZFcZfB.s 			page 56


1526:Generated_Source\PSoC6/CapSense_Filter.c ****     {
 1341              		.loc 1 1526 0
 1342 001a 3018     		adds	r0, r6, r0
 1343              	.LVL192:
 1344 001c 0301     		lsls	r3, r0, #4
 1345 001e D318     		adds	r3, r2, r3
 1346 0020 9A7E     		ldrb	r2, [r3, #26]
 1347 0022 062A     		cmp	r2, #6
 1348 0024 00D0     		beq	.L74
1531:Generated_Source\PSoC6/CapSense_Filter.c ****         #endif
 1349              		.loc 1 1531 0
 1350 0026 7C19     		adds	r4, r7, r5
 1351              	.L74:
 1352              	.LVL193:
1543:Generated_Source\PSoC6/CapSense_Filter.c ****     #if (CapSense_ALP_FILTER_EN)
 1353              		.loc 1 1543 0
 1354 0028 2000     		movs	r0, r4
 1355 002a FFF7FEFF 		bl	CapSense_FtRunEnabledFiltersInternal
 1356              	.LVL194:
1547:Generated_Source\PSoC6/CapSense_Filter.c **** 
 1357              		.loc 1 1547 0
 1358              		@ sp needed
 1359              	.LVL195:
 1360              	.LVL196:
 1361              	.LVL197:
 1362 002e F8BD     		pop	{r3, r4, r5, r6, r7, pc}
 1363              	.L76:
 1364              		.align	2
 1365              	.L75:
 1366 0030 00000000 		.word	CapSense_dsFlash
 1367              		.cfi_endproc
 1368              	.LFE56:
 1369              		.size	CapSense_FtRunEnabledFilters, .-CapSense_FtRunEnabledFilters
 1370              		.section	.text.CapSense_FtIIR1stOrder,"ax",%progbits
 1371              		.align	2
 1372              		.global	CapSense_FtIIR1stOrder
 1373              		.code	16
 1374              		.thumb_func
 1375              		.type	CapSense_FtIIR1stOrder, %function
 1376              	CapSense_FtIIR1stOrder:
 1377              	.LFB61:
1681:Generated_Source\PSoC6/CapSense_Filter.c **** #endif /*CapSense_POS_MEDIAN_FILTER_EN || CapSense_REGULAR_RC_MEDIAN_FILTER_EN || CapSense_PROX_RC_
1682:Generated_Source\PSoC6/CapSense_Filter.c **** 
1683:Generated_Source\PSoC6/CapSense_Filter.c **** 
1684:Generated_Source\PSoC6/CapSense_Filter.c **** /*******************************************************************************
1685:Generated_Source\PSoC6/CapSense_Filter.c **** * Function Name: CapSense_FtIIR1stOrder
1686:Generated_Source\PSoC6/CapSense_Filter.c **** ****************************************************************************//**
1687:Generated_Source\PSoC6/CapSense_Filter.c **** *
1688:Generated_Source\PSoC6/CapSense_Filter.c **** * \brief    Return the filtered data by the IIR 1-st order algorithm
1689:Generated_Source\PSoC6/CapSense_Filter.c **** *
1690:Generated_Source\PSoC6/CapSense_Filter.c **** * \details  Return the filtered data by the IIR 1-st order algorithm
1691:Generated_Source\PSoC6/CapSense_Filter.c **** *
1692:Generated_Source\PSoC6/CapSense_Filter.c **** * \param    input      The data to be filtered.
1693:Generated_Source\PSoC6/CapSense_Filter.c **** * \param    prevOutput The previous filtered data.
1694:Generated_Source\PSoC6/CapSense_Filter.c **** * \param    n          The IIR filter coefficient (n/256).
1695:Generated_Source\PSoC6/CapSense_Filter.c **** * \param    shift      The parameter is used to shift input data to have free LSB
1696:Generated_Source\PSoC6/CapSense_Filter.c **** *                       bits for a fraction storage of the filter output calculation.
ARM GAS  C:\Users\ikomb\AppData\Local\Temp\ccZFcZfB.s 			page 57


1697:Generated_Source\PSoC6/CapSense_Filter.c **** *
1698:Generated_Source\PSoC6/CapSense_Filter.c **** * \return   Returns the filtered data.
1699:Generated_Source\PSoC6/CapSense_Filter.c **** *
1700:Generated_Source\PSoC6/CapSense_Filter.c **** *******************************************************************************/
1701:Generated_Source\PSoC6/CapSense_Filter.c **** uint32 CapSense_FtIIR1stOrder(uint32 input, uint32 prevOutput, uint32 n, uint32 shift)
1702:Generated_Source\PSoC6/CapSense_Filter.c **** {
 1378              		.loc 1 1702 0
 1379              		.cfi_startproc
 1380              		@ args = 0, pretend = 0, frame = 0
 1381              		@ frame_needed = 0, uses_anonymous_args = 0
 1382              		@ link register save eliminated.
 1383              	.LVL198:
1703:Generated_Source\PSoC6/CapSense_Filter.c ****     uint32 filteredOutput;
1704:Generated_Source\PSoC6/CapSense_Filter.c **** 
1705:Generated_Source\PSoC6/CapSense_Filter.c ****     /*
1706:Generated_Source\PSoC6/CapSense_Filter.c ****     * n - IIR filter coefficient (n/256)
1707:Generated_Source\PSoC6/CapSense_Filter.c ****     * shift - Used to shift input data to have free LSB bits
1708:Generated_Source\PSoC6/CapSense_Filter.c ****     * for fraction storage of filter output calculation
1709:Generated_Source\PSoC6/CapSense_Filter.c ****     */
1710:Generated_Source\PSoC6/CapSense_Filter.c ****     filteredOutput = ((n * (input << shift)) + ((CapSense_IIR_COEFFICIENT_K - n) * prevOutput)) >> 
 1384              		.loc 1 1710 0
 1385 0000 9840     		lsls	r0, r0, r3
 1386              	.LVL199:
 1387 0002 5043     		muls	r0, r2
 1388 0004 8023     		movs	r3, #128
 1389              	.LVL200:
 1390 0006 5B00     		lsls	r3, r3, #1
 1391 0008 9A1A     		subs	r2, r3, r2
 1392              	.LVL201:
 1393 000a 5143     		muls	r1, r2
 1394              	.LVL202:
 1395 000c 4018     		adds	r0, r0, r1
 1396 000e 000A     		lsrs	r0, r0, #8
 1397              	.LVL203:
1711:Generated_Source\PSoC6/CapSense_Filter.c **** 
1712:Generated_Source\PSoC6/CapSense_Filter.c ****     /* Shift operation of output will be done in upper level API if needed */
1713:Generated_Source\PSoC6/CapSense_Filter.c ****     return filteredOutput;
1714:Generated_Source\PSoC6/CapSense_Filter.c **** }
 1398              		.loc 1 1714 0
 1399              		@ sp needed
 1400 0010 7047     		bx	lr
 1401              		.cfi_endproc
 1402              	.LFE61:
 1403              		.size	CapSense_FtIIR1stOrder, .-CapSense_FtIIR1stOrder
 1404 0012 C046     		.section	.text.CapSense_FtUpdateBaseline,"ax",%progbits
 1405              		.align	2
 1406              		.global	CapSense_FtUpdateBaseline
 1407              		.code	16
 1408              		.thumb_func
 1409              		.type	CapSense_FtUpdateBaseline, %function
 1410              	CapSense_FtUpdateBaseline:
 1411              	.LFB40:
 259:Generated_Source\PSoC6/CapSense_Filter.c ****     uint32 sign;
 1412              		.loc 1 259 0
 1413              		.cfi_startproc
 1414              		@ args = 0, pretend = 0, frame = 0
 1415              		@ frame_needed = 0, uses_anonymous_args = 0
ARM GAS  C:\Users\ikomb\AppData\Local\Temp\ccZFcZfB.s 			page 58


 1416              	.LVL204:
 1417 0000 F0B5     		push	{r4, r5, r6, r7, lr}
 1418              		.cfi_def_cfa_offset 20
 1419              		.cfi_offset 4, -20
 1420              		.cfi_offset 5, -16
 1421              		.cfi_offset 6, -12
 1422              		.cfi_offset 7, -8
 1423              		.cfi_offset 14, -4
 1424 0002 4746     		mov	r7, r8
 1425 0004 80B4     		push	{r7}
 1426              		.cfi_def_cfa_offset 24
 1427              		.cfi_offset 8, -24
 1428 0006 0700     		movs	r7, r0
 1429 0008 0E00     		movs	r6, r1
 1430 000a 1500     		movs	r5, r2
 1431              	.LVL205:
 271:Generated_Source\PSoC6/CapSense_Filter.c ****     {
 1432              		.loc 1 271 0
 1433 000c 0123     		movs	r3, #1
 1434 000e 37E0     		b	.L79
 1435              	.LVL206:
 1436              	.L85:
 283:Generated_Source\PSoC6/CapSense_Filter.c ****         {
 1437              		.loc 1 283 0
 1438 0010 6300     		lsls	r3, r4, #1
 1439 0012 985B     		ldrh	r0, [r3, r6]
 1440 0014 F318     		adds	r3, r6, r3
 1441 0016 5988     		ldrh	r1, [r3, #2]
 1442 0018 8842     		cmp	r0, r1
 1443 001a 06D3     		bcc	.L80
 285:Generated_Source\PSoC6/CapSense_Filter.c ****             sign = 1u;
 1444              		.loc 1 285 0
 1445 001c 431A     		subs	r3, r0, r1
 1446 001e 9846     		mov	r8, r3
 1447              	.LVL207:
 287:Generated_Source\PSoC6/CapSense_Filter.c ****         }
 1448              		.loc 1 287 0
 1449 0020 3319     		adds	r3, r6, r4
 1450              	.LVL208:
 1451 0022 0022     		movs	r2, #0
 1452 0024 1A72     		strb	r2, [r3, #8]
 286:Generated_Source\PSoC6/CapSense_Filter.c ****             ptrSensor->negBslnRstCnt[freqChannel] = 0u;
 1453              		.loc 1 286 0
 1454 0026 0123     		movs	r3, #1
 1455 0028 02E0     		b	.L81
 1456              	.LVL209:
 1457              	.L80:
 291:Generated_Source\PSoC6/CapSense_Filter.c ****             sign = 0u;
 1458              		.loc 1 291 0
 1459 002a 0B1A     		subs	r3, r1, r0
 1460 002c 9846     		mov	r8, r3
 1461              	.LVL210:
 292:Generated_Source\PSoC6/CapSense_Filter.c ****         }
 1462              		.loc 1 292 0
 1463 002e 0023     		movs	r3, #0
 1464              	.LVL211:
 1465              	.L81:
ARM GAS  C:\Users\ikomb\AppData\Local\Temp\ccZFcZfB.s 			page 59


 296:Generated_Source\PSoC6/CapSense_Filter.c ****         {
 1466              		.loc 1 296 0
 1467 0030 002B     		cmp	r3, #0
 1468 0032 11D1     		bne	.L82
 296:Generated_Source\PSoC6/CapSense_Filter.c ****         {
 1469              		.loc 1 296 0 is_stmt 0 discriminator 1
 1470 0034 7B79     		ldrb	r3, [r7, #5]
 1471              	.LVL212:
 1472 0036 9845     		cmp	r8, r3
 1473 0038 0ED9     		bls	.L82
 298:Generated_Source\PSoC6/CapSense_Filter.c ****             {
 1474              		.loc 1 298 0 is_stmt 1
 1475 003a 3319     		adds	r3, r6, r4
 1476 003c 1B7A     		ldrb	r3, [r3, #8]
 1477 003e 3A7A     		ldrb	r2, [r7, #8]
 1478 0040 9342     		cmp	r3, r2
 1479 0042 05D3     		bcc	.L83
 300:Generated_Source\PSoC6/CapSense_Filter.c ****             }
 1480              		.loc 1 300 0
 1481 0044 2200     		movs	r2, r4
 1482 0046 2900     		movs	r1, r5
 1483 0048 3000     		movs	r0, r6
 1484 004a FFF7FEFF 		bl	CapSense_FtInitializeBaselineChannel
 1485              	.LVL213:
 1486 004e 16E0     		b	.L84
 1487              	.L83:
 304:Generated_Source\PSoC6/CapSense_Filter.c ****             }
 1488              		.loc 1 304 0
 1489 0050 3219     		adds	r2, r6, r4
 1490 0052 0133     		adds	r3, r3, #1
 1491 0054 1372     		strb	r3, [r2, #8]
 1492 0056 12E0     		b	.L84
 1493              	.L82:
 318:Generated_Source\PSoC6/CapSense_Filter.c ****                 {
 1494              		.loc 1 318 0
 1495 0058 FF23     		movs	r3, #255
 1496 005a 2B40     		ands	r3, r5
 1497 005c 062B     		cmp	r3, #6
 1498 005e 0ED0     		beq	.L84
 322:Generated_Source\PSoC6/CapSense_Filter.c ****                             history |= ptrSensor->bslnExt[freqChannel];
 1499              		.loc 1 322 0
 1500 0060 0902     		lsls	r1, r1, #8
 1501              	.LVL214:
 323:Generated_Source\PSoC6/CapSense_Filter.c ****                         #else
 1502              		.loc 1 323 0
 1503 0062 3319     		adds	r3, r6, r4
 1504 0064 9846     		mov	r8, r3
 1505              	.LVL215:
 1506 0066 1B79     		ldrb	r3, [r3, #4]
 1507 0068 1943     		orrs	r1, r3
 1508              	.LVL216:
 334:Generated_Source\PSoC6/CapSense_Filter.c ****                                         (uint32)ptrSensor->raw[freqChannel],
 1509              		.loc 1 334 0
 1510 006a 0823     		movs	r3, #8
 1511 006c 0122     		movs	r2, #1
 1512 006e FFF7FEFF 		bl	CapSense_FtIIR1stOrder
 1513              	.LVL217:
ARM GAS  C:\Users\ikomb\AppData\Local\Temp\ccZFcZfB.s 			page 60


 340:Generated_Source\PSoC6/CapSense_Filter.c ****                                     ptrSensor->bslnExt[freqChannel] = CY_LO8(history);
 1514              		.loc 1 340 0
 1515 0072 020A     		lsrs	r2, r0, #8
 1516 0074 6300     		lsls	r3, r4, #1
 1517 0076 F318     		adds	r3, r6, r3
 1518 0078 5A80     		strh	r2, [r3, #2]
 341:Generated_Source\PSoC6/CapSense_Filter.c ****                         #else
 1519              		.loc 1 341 0
 1520 007a 4346     		mov	r3, r8
 1521 007c 1871     		strb	r0, [r3, #4]
 1522              	.LVL218:
 1523              	.L84:
 1524 007e 2300     		movs	r3, r4
 1525              	.LVL219:
 1526              	.L79:
 271:Generated_Source\PSoC6/CapSense_Filter.c ****     {
 1527              		.loc 1 271 0 discriminator 1
 1528 0080 5C1E     		subs	r4, r3, #1
 1529              	.LVL220:
 1530 0082 002B     		cmp	r3, #0
 1531 0084 C4D1     		bne	.L85
 398:Generated_Source\PSoC6/CapSense_Filter.c **** 
 1532              		.loc 1 398 0
 1533 0086 0020     		movs	r0, #0
 1534              		@ sp needed
 1535              	.LVL221:
 1536              	.LVL222:
 1537              	.LVL223:
 1538              	.LVL224:
 1539 0088 04BC     		pop	{r2}
 1540 008a 9046     		mov	r8, r2
 1541 008c F0BD     		pop	{r4, r5, r6, r7, pc}
 1542              		.cfi_endproc
 1543              	.LFE40:
 1544              		.size	CapSense_FtUpdateBaseline, .-CapSense_FtUpdateBaseline
 1545 008e C046     		.section	.text.CapSense_UpdateSensorBaseline,"ax",%progbits
 1546              		.align	2
 1547              		.global	CapSense_UpdateSensorBaseline
 1548              		.code	16
 1549              		.thumb_func
 1550              		.type	CapSense_UpdateSensorBaseline, %function
 1551              	CapSense_UpdateSensorBaseline:
 1552              	.LFB39:
 201:Generated_Source\PSoC6/CapSense_Filter.c ****     uint32 result = CY_RET_SUCCESS;
 1553              		.loc 1 201 0
 1554              		.cfi_startproc
 1555              		@ args = 0, pretend = 0, frame = 0
 1556              		@ frame_needed = 0, uses_anonymous_args = 0
 1557              	.LVL225:
 1558 0000 70B5     		push	{r4, r5, r6, lr}
 1559              		.cfi_def_cfa_offset 16
 1560              		.cfi_offset 4, -16
 1561              		.cfi_offset 5, -12
 1562              		.cfi_offset 6, -8
 1563              		.cfi_offset 14, -4
 1564 0002 0300     		movs	r3, r0
 1565              	.LVL226:
ARM GAS  C:\Users\ikomb\AppData\Local\Temp\ccZFcZfB.s 			page 61


 206:Generated_Source\PSoC6/CapSense_Filter.c **** 
 1566              		.loc 1 206 0
 1567 0004 084C     		ldr	r4, .L87
 1568 0006 4500     		lsls	r5, r0, #1
 1569 0008 2818     		adds	r0, r5, r0
 1570              	.LVL227:
 1571 000a 0201     		lsls	r2, r0, #4
 1572 000c A218     		adds	r2, r4, r2
 1573 000e 5068     		ldr	r0, [r2, #4]
 1574              	.LVL228:
 209:Generated_Source\PSoC6/CapSense_Filter.c ****     ptrSensor = &ptrSensor[sensorId];
 1575              		.loc 1 209 0
 1576 0010 9668     		ldr	r6, [r2, #8]
 1577              	.LVL229:
 210:Generated_Source\PSoC6/CapSense_Filter.c ****     result = CapSense_FtUpdateBaseline(ptrWidgetRam, ptrSensor, (uint32)ptrWidget->wdgtType);
 1578              		.loc 1 210 0
 1579 0012 8A00     		lsls	r2, r1, #2
 1580 0014 5218     		adds	r2, r2, r1
 1581 0016 5100     		lsls	r1, r2, #1
 1582              	.LVL230:
 1583 0018 7118     		adds	r1, r6, r1
 1584              	.LVL231:
 211:Generated_Source\PSoC6/CapSense_Filter.c **** 
 1585              		.loc 1 211 0
 1586 001a EB18     		adds	r3, r5, r3
 1587              	.LVL232:
 1588 001c 1A01     		lsls	r2, r3, #4
 1589 001e A218     		adds	r2, r4, r2
 1590 0020 927E     		ldrb	r2, [r2, #26]
 1591 0022 FFF7FEFF 		bl	CapSense_FtUpdateBaseline
 1592              	.LVL233:
 222:Generated_Source\PSoC6/CapSense_Filter.c **** 
 1593              		.loc 1 222 0
 1594              		@ sp needed
 1595              	.LVL234:
 1596              	.LVL235:
 1597              	.LVL236:
 1598 0026 70BD     		pop	{r4, r5, r6, pc}
 1599              	.L88:
 1600              		.align	2
 1601              	.L87:
 1602 0028 00000000 		.word	CapSense_dsFlash
 1603              		.cfi_endproc
 1604              	.LFE39:
 1605              		.size	CapSense_UpdateSensorBaseline, .-CapSense_UpdateSensorBaseline
 1606              		.section	.text.CapSense_UpdateWidgetBaseline,"ax",%progbits
 1607              		.align	2
 1608              		.global	CapSense_UpdateWidgetBaseline
 1609              		.code	16
 1610              		.thumb_func
 1611              		.type	CapSense_UpdateWidgetBaseline, %function
 1612              	CapSense_UpdateWidgetBaseline:
 1613              	.LFB38:
 144:Generated_Source\PSoC6/CapSense_Filter.c ****     uint32 sensorId;
 1614              		.loc 1 144 0
 1615              		.cfi_startproc
 1616              		@ args = 0, pretend = 0, frame = 0
ARM GAS  C:\Users\ikomb\AppData\Local\Temp\ccZFcZfB.s 			page 62


 1617              		@ frame_needed = 0, uses_anonymous_args = 0
 1618              	.LVL237:
 1619 0000 70B5     		push	{r4, r5, r6, lr}
 1620              		.cfi_def_cfa_offset 16
 1621              		.cfi_offset 4, -16
 1622              		.cfi_offset 5, -12
 1623              		.cfi_offset 6, -8
 1624              		.cfi_offset 14, -4
 1625 0002 0600     		movs	r6, r0
 1626              	.LVL238:
 152:Generated_Source\PSoC6/CapSense_Filter.c **** 
 1627              		.loc 1 152 0
 1628 0004 4200     		lsls	r2, r0, #1
 1629 0006 1218     		adds	r2, r2, r0
 1630 0008 1301     		lsls	r3, r2, #4
 1631 000a 084A     		ldr	r2, .L92
 1632 000c D318     		adds	r3, r2, r3
 1633 000e 1B8B     		ldrh	r3, [r3, #24]
 1634              	.LVL239:
 149:Generated_Source\PSoC6/CapSense_Filter.c **** 
 1635              		.loc 1 149 0
 1636 0010 0025     		movs	r5, #0
 154:Generated_Source\PSoC6/CapSense_Filter.c ****     {
 1637              		.loc 1 154 0
 1638 0012 05E0     		b	.L90
 1639              	.LVL240:
 1640              	.L91:
 156:Generated_Source\PSoC6/CapSense_Filter.c ****     }
 1641              		.loc 1 156 0
 1642 0014 2100     		movs	r1, r4
 1643 0016 3000     		movs	r0, r6
 1644 0018 FFF7FEFF 		bl	CapSense_UpdateSensorBaseline
 1645              	.LVL241:
 1646 001c 0543     		orrs	r5, r0
 1647              	.LVL242:
 154:Generated_Source\PSoC6/CapSense_Filter.c ****     {
 1648              		.loc 1 154 0
 1649 001e 2300     		movs	r3, r4
 1650              	.LVL243:
 1651              	.L90:
 154:Generated_Source\PSoC6/CapSense_Filter.c ****     {
 1652              		.loc 1 154 0 is_stmt 0 discriminator 1
 1653 0020 5C1E     		subs	r4, r3, #1
 1654              	.LVL244:
 1655 0022 002B     		cmp	r3, #0
 1656 0024 F6D1     		bne	.L91
 160:Generated_Source\PSoC6/CapSense_Filter.c **** 
 1657              		.loc 1 160 0 is_stmt 1
 1658 0026 2800     		movs	r0, r5
 1659              		@ sp needed
 1660              	.LVL245:
 1661              	.LVL246:
 1662              	.LVL247:
 1663 0028 70BD     		pop	{r4, r5, r6, pc}
 1664              	.L93:
 1665 002a C046     		.align	2
 1666              	.L92:
ARM GAS  C:\Users\ikomb\AppData\Local\Temp\ccZFcZfB.s 			page 63


 1667 002c 00000000 		.word	CapSense_dsFlash
 1668              		.cfi_endproc
 1669              	.LFE38:
 1670              		.size	CapSense_UpdateWidgetBaseline, .-CapSense_UpdateWidgetBaseline
 1671              		.section	.text.CapSense_UpdateAllBaselines,"ax",%progbits
 1672              		.align	2
 1673              		.global	CapSense_UpdateAllBaselines
 1674              		.code	16
 1675              		.thumb_func
 1676              		.type	CapSense_UpdateAllBaselines, %function
 1677              	CapSense_UpdateAllBaselines:
 1678              	.LFB37:
  99:Generated_Source\PSoC6/CapSense_Filter.c ****     uint32 widgetId;
 1679              		.loc 1 99 0
 1680              		.cfi_startproc
 1681              		@ args = 0, pretend = 0, frame = 0
 1682              		@ frame_needed = 0, uses_anonymous_args = 0
 1683 0000 70B5     		push	{r4, r5, r6, lr}
 1684              		.cfi_def_cfa_offset 16
 1685              		.cfi_offset 4, -16
 1686              		.cfi_offset 5, -12
 1687              		.cfi_offset 6, -8
 1688              		.cfi_offset 14, -4
 1689              	.LVL248:
 101:Generated_Source\PSoC6/CapSense_Filter.c **** 
 1690              		.loc 1 101 0
 1691 0002 0025     		movs	r5, #0
 103:Generated_Source\PSoC6/CapSense_Filter.c ****     {
 1692              		.loc 1 103 0
 1693 0004 0323     		movs	r3, #3
 1694 0006 04E0     		b	.L95
 1695              	.LVL249:
 1696              	.L96:
 105:Generated_Source\PSoC6/CapSense_Filter.c ****     }
 1697              		.loc 1 105 0
 1698 0008 2000     		movs	r0, r4
 1699 000a FFF7FEFF 		bl	CapSense_UpdateWidgetBaseline
 1700              	.LVL250:
 1701 000e 0543     		orrs	r5, r0
 1702              	.LVL251:
 103:Generated_Source\PSoC6/CapSense_Filter.c ****     {
 1703              		.loc 1 103 0
 1704 0010 2300     		movs	r3, r4
 1705              	.LVL252:
 1706              	.L95:
 103:Generated_Source\PSoC6/CapSense_Filter.c ****     {
 1707              		.loc 1 103 0 is_stmt 0 discriminator 1
 1708 0012 5C1E     		subs	r4, r3, #1
 1709              	.LVL253:
 1710 0014 002B     		cmp	r3, #0
 1711 0016 F7D1     		bne	.L96
 109:Generated_Source\PSoC6/CapSense_Filter.c **** 
 1712              		.loc 1 109 0 is_stmt 1
 1713 0018 2800     		movs	r0, r5
 1714              		@ sp needed
 1715              	.LVL254:
 1716              	.LVL255:
ARM GAS  C:\Users\ikomb\AppData\Local\Temp\ccZFcZfB.s 			page 64


 1717 001a 70BD     		pop	{r4, r5, r6, pc}
 1718              		.cfi_endproc
 1719              	.LFE37:
 1720              		.size	CapSense_UpdateAllBaselines, .-CapSense_UpdateAllBaselines
 1721              		.text
 1722              	.Letext0:
 1723              		.file 2 "c:\\program files (x86)\\cypress\\psoc creator\\4.4\\psoc creator\\import\\gnu\\arm\\5.4.
 1724              		.file 3 "c:\\program files (x86)\\cypress\\psoc creator\\4.4\\psoc creator\\import\\gnu\\arm\\5.4.
 1725              		.file 4 "Generated_Source\\PSoC6\\pdl\\drivers/peripheral/syslib/cy_syslib.h"
 1726              		.file 5 "Generated_Source\\PSoC6\\CapSense_Configuration.h"
 1727              		.file 6 "Generated_Source\\PSoC6\\CapSense_SmartSense_LL.h"
 1728              		.file 7 "Generated_Source\\PSoC6\\CapSense_Structure.h"
 1729              		.section	.debug_info,"",%progbits
 1730              	.Ldebug_info0:
 1731 0000 BB100000 		.4byte	0x10bb
 1732 0004 0400     		.2byte	0x4
 1733 0006 00000000 		.4byte	.Ldebug_abbrev0
 1734 000a 04       		.byte	0x4
 1735 000b 01       		.uleb128 0x1
 1736 000c 8E070000 		.4byte	.LASF142
 1737 0010 0C       		.byte	0xc
 1738 0011 2C070000 		.4byte	.LASF143
 1739 0015 FF040000 		.4byte	.LASF144
 1740 0019 00000000 		.4byte	.Ldebug_ranges0+0
 1741 001d 00000000 		.4byte	0
 1742 0021 00000000 		.4byte	.Ldebug_line0
 1743 0025 02       		.uleb128 0x2
 1744 0026 04       		.byte	0x4
 1745 0027 05       		.byte	0x5
 1746 0028 696E7400 		.ascii	"int\000"
 1747 002c 03       		.uleb128 0x3
 1748 002d 04       		.byte	0x4
 1749 002e 07       		.byte	0x7
 1750 002f 0A030000 		.4byte	.LASF0
 1751 0033 03       		.uleb128 0x3
 1752 0034 08       		.byte	0x8
 1753 0035 05       		.byte	0x5
 1754 0036 EF010000 		.4byte	.LASF1
 1755 003a 03       		.uleb128 0x3
 1756 003b 08       		.byte	0x8
 1757 003c 04       		.byte	0x4
 1758 003d 20080000 		.4byte	.LASF2
 1759 0041 03       		.uleb128 0x3
 1760 0042 01       		.byte	0x1
 1761 0043 06       		.byte	0x6
 1762 0044 FD010000 		.4byte	.LASF3
 1763 0048 04       		.uleb128 0x4
 1764 0049 91000000 		.4byte	.LASF6
 1765 004d 02       		.byte	0x2
 1766 004e 1D       		.byte	0x1d
 1767 004f 53000000 		.4byte	0x53
 1768 0053 03       		.uleb128 0x3
 1769 0054 01       		.byte	0x1
 1770 0055 08       		.byte	0x8
 1771 0056 EE080000 		.4byte	.LASF4
 1772 005a 03       		.uleb128 0x3
 1773 005b 02       		.byte	0x2
ARM GAS  C:\Users\ikomb\AppData\Local\Temp\ccZFcZfB.s 			page 65


 1774 005c 05       		.byte	0x5
 1775 005d 37040000 		.4byte	.LASF5
 1776 0061 04       		.uleb128 0x4
 1777 0062 31080000 		.4byte	.LASF7
 1778 0066 02       		.byte	0x2
 1779 0067 2B       		.byte	0x2b
 1780 0068 6C000000 		.4byte	0x6c
 1781 006c 03       		.uleb128 0x3
 1782 006d 02       		.byte	0x2
 1783 006e 07       		.byte	0x7
 1784 006f 92030000 		.4byte	.LASF8
 1785 0073 03       		.uleb128 0x3
 1786 0074 04       		.byte	0x4
 1787 0075 05       		.byte	0x5
 1788 0076 26020000 		.4byte	.LASF9
 1789 007a 04       		.uleb128 0x4
 1790 007b 9E020000 		.4byte	.LASF10
 1791 007f 02       		.byte	0x2
 1792 0080 41       		.byte	0x41
 1793 0081 85000000 		.4byte	0x85
 1794 0085 03       		.uleb128 0x3
 1795 0086 04       		.byte	0x4
 1796 0087 07       		.byte	0x7
 1797 0088 26030000 		.4byte	.LASF11
 1798 008c 03       		.uleb128 0x3
 1799 008d 08       		.byte	0x8
 1800 008e 07       		.byte	0x7
 1801 008f 04010000 		.4byte	.LASF12
 1802 0093 04       		.uleb128 0x4
 1803 0094 9A090000 		.4byte	.LASF13
 1804 0098 03       		.byte	0x3
 1805 0099 18       		.byte	0x18
 1806 009a 48000000 		.4byte	0x48
 1807 009e 04       		.uleb128 0x4
 1808 009f 46020000 		.4byte	.LASF14
 1809 00a3 03       		.byte	0x3
 1810 00a4 24       		.byte	0x24
 1811 00a5 61000000 		.4byte	0x61
 1812 00a9 04       		.uleb128 0x4
 1813 00aa 85070000 		.4byte	.LASF15
 1814 00ae 03       		.byte	0x3
 1815 00af 30       		.byte	0x30
 1816 00b0 7A000000 		.4byte	0x7a
 1817 00b4 03       		.uleb128 0x3
 1818 00b5 04       		.byte	0x4
 1819 00b6 07       		.byte	0x7
 1820 00b7 A7090000 		.4byte	.LASF16
 1821 00bb 03       		.uleb128 0x3
 1822 00bc 01       		.byte	0x1
 1823 00bd 08       		.byte	0x8
 1824 00be 2C080000 		.4byte	.LASF17
 1825 00c2 03       		.uleb128 0x3
 1826 00c3 04       		.byte	0x4
 1827 00c4 04       		.byte	0x4
 1828 00c5 DC050000 		.4byte	.LASF18
 1829 00c9 03       		.uleb128 0x3
 1830 00ca 08       		.byte	0x8
ARM GAS  C:\Users\ikomb\AppData\Local\Temp\ccZFcZfB.s 			page 66


 1831 00cb 04       		.byte	0x4
 1832 00cc 4F020000 		.4byte	.LASF19
 1833 00d0 05       		.uleb128 0x5
 1834 00d1 42010000 		.4byte	.LASF20
 1835 00d5 04       		.byte	0x4
 1836 00d6 8203     		.2byte	0x382
 1837 00d8 A9000000 		.4byte	0xa9
 1838 00dc 05       		.uleb128 0x5
 1839 00dd 40020000 		.4byte	.LASF21
 1840 00e1 04       		.byte	0x4
 1841 00e2 8503     		.2byte	0x385
 1842 00e4 93000000 		.4byte	0x93
 1843 00e8 05       		.uleb128 0x5
 1844 00e9 00000000 		.4byte	.LASF22
 1845 00ed 04       		.byte	0x4
 1846 00ee 8603     		.2byte	0x386
 1847 00f0 9E000000 		.4byte	0x9e
 1848 00f4 05       		.uleb128 0x5
 1849 00f5 8C020000 		.4byte	.LASF23
 1850 00f9 04       		.byte	0x4
 1851 00fa 8703     		.2byte	0x387
 1852 00fc A9000000 		.4byte	0xa9
 1853 0100 04       		.uleb128 0x4
 1854 0101 8C010000 		.4byte	.LASF24
 1855 0105 05       		.byte	0x5
 1856 0106 F2       		.byte	0xf2
 1857 0107 E8000000 		.4byte	0xe8
 1858 010b 04       		.uleb128 0x4
 1859 010c 51010000 		.4byte	.LASF25
 1860 0110 05       		.byte	0x5
 1861 0111 F6       		.byte	0xf6
 1862 0112 DC000000 		.4byte	0xdc
 1863 0116 06       		.uleb128 0x6
 1864 0117 0C       		.byte	0xc
 1865 0118 06       		.byte	0x6
 1866 0119 6E       		.byte	0x6e
 1867 011a 73010000 		.4byte	0x173
 1868 011e 07       		.uleb128 0x7
 1869 011f 5C060000 		.4byte	.LASF26
 1870 0123 06       		.byte	0x6
 1871 0124 73       		.byte	0x73
 1872 0125 E8000000 		.4byte	0xe8
 1873 0129 00       		.byte	0
 1874 012a 07       		.uleb128 0x7
 1875 012b 63060000 		.4byte	.LASF27
 1876 012f 06       		.byte	0x6
 1877 0130 77       		.byte	0x77
 1878 0131 E8000000 		.4byte	0xe8
 1879 0135 02       		.byte	0x2
 1880 0136 07       		.uleb128 0x7
 1881 0137 6A060000 		.4byte	.LASF28
 1882 013b 06       		.byte	0x6
 1883 013c 7B       		.byte	0x7b
 1884 013d E8000000 		.4byte	0xe8
 1885 0141 04       		.byte	0x4
 1886 0142 07       		.uleb128 0x7
 1887 0143 71060000 		.4byte	.LASF29
ARM GAS  C:\Users\ikomb\AppData\Local\Temp\ccZFcZfB.s 			page 67


 1888 0147 06       		.byte	0x6
 1889 0148 7F       		.byte	0x7f
 1890 0149 E8000000 		.4byte	0xe8
 1891 014d 06       		.byte	0x6
 1892 014e 07       		.uleb128 0x7
 1893 014f 78060000 		.4byte	.LASF30
 1894 0153 06       		.byte	0x6
 1895 0154 83       		.byte	0x83
 1896 0155 E8000000 		.4byte	0xe8
 1897 0159 08       		.byte	0x8
 1898 015a 07       		.uleb128 0x7
 1899 015b 7F060000 		.4byte	.LASF31
 1900 015f 06       		.byte	0x6
 1901 0160 87       		.byte	0x87
 1902 0161 DC000000 		.4byte	0xdc
 1903 0165 0A       		.byte	0xa
 1904 0166 07       		.uleb128 0x7
 1905 0167 86060000 		.4byte	.LASF32
 1906 016b 06       		.byte	0x6
 1907 016c 8B       		.byte	0x8b
 1908 016d DC000000 		.4byte	0xdc
 1909 0171 0B       		.byte	0xb
 1910 0172 00       		.byte	0
 1911 0173 04       		.uleb128 0x4
 1912 0174 FE050000 		.4byte	.LASF33
 1913 0178 06       		.byte	0x6
 1914 0179 8C       		.byte	0x8c
 1915 017a 16010000 		.4byte	0x116
 1916 017e 08       		.uleb128 0x8
 1917 017f 01       		.byte	0x1
 1918 0180 53000000 		.4byte	0x53
 1919 0184 07       		.byte	0x7
 1920 0185 61       		.byte	0x61
 1921 0186 AF010000 		.4byte	0x1af
 1922 018a 09       		.uleb128 0x9
 1923 018b 47060000 		.4byte	.LASF34
 1924 018f 01       		.byte	0x1
 1925 0190 09       		.uleb128 0x9
 1926 0191 A4010000 		.4byte	.LASF35
 1927 0195 02       		.byte	0x2
 1928 0196 09       		.uleb128 0x9
 1929 0197 E2050000 		.4byte	.LASF36
 1930 019b 03       		.byte	0x3
 1931 019c 09       		.uleb128 0x9
 1932 019d E4020000 		.4byte	.LASF37
 1933 01a1 04       		.byte	0x4
 1934 01a2 09       		.uleb128 0x9
 1935 01a3 15070000 		.4byte	.LASF38
 1936 01a7 05       		.byte	0x5
 1937 01a8 09       		.uleb128 0x9
 1938 01a9 150A0000 		.4byte	.LASF39
 1939 01ad 06       		.byte	0x6
 1940 01ae 00       		.byte	0
 1941 01af 04       		.uleb128 0x4
 1942 01b0 8D080000 		.4byte	.LASF40
 1943 01b4 07       		.byte	0x7
 1944 01b5 68       		.byte	0x68
ARM GAS  C:\Users\ikomb\AppData\Local\Temp\ccZFcZfB.s 			page 68


 1945 01b6 7E010000 		.4byte	0x17e
 1946 01ba 08       		.uleb128 0x8
 1947 01bb 01       		.byte	0x1
 1948 01bc 53000000 		.4byte	0x53
 1949 01c0 07       		.byte	0x7
 1950 01c1 6F       		.byte	0x6f
 1951 01c2 DF010000 		.4byte	0x1df
 1952 01c6 09       		.uleb128 0x9
 1953 01c7 F8030000 		.4byte	.LASF41
 1954 01cb 00       		.byte	0
 1955 01cc 09       		.uleb128 0x9
 1956 01cd 8C050000 		.4byte	.LASF42
 1957 01d1 01       		.byte	0x1
 1958 01d2 09       		.uleb128 0x9
 1959 01d3 A5000000 		.4byte	.LASF43
 1960 01d7 02       		.byte	0x2
 1961 01d8 09       		.uleb128 0x9
 1962 01d9 B1020000 		.4byte	.LASF44
 1963 01dd 03       		.byte	0x3
 1964 01de 00       		.byte	0
 1965 01df 04       		.uleb128 0x4
 1966 01e0 56020000 		.4byte	.LASF45
 1967 01e4 07       		.byte	0x7
 1968 01e5 74       		.byte	0x74
 1969 01e6 BA010000 		.4byte	0x1ba
 1970 01ea 06       		.uleb128 0x6
 1971 01eb 12       		.byte	0x12
 1972 01ec 07       		.byte	0x7
 1973 01ed 8C       		.byte	0x8c
 1974 01ee 83020000 		.4byte	0x283
 1975 01f2 07       		.uleb128 0x7
 1976 01f3 55090000 		.4byte	.LASF46
 1977 01f7 07       		.byte	0x7
 1978 01f8 92       		.byte	0x92
 1979 01f9 E8000000 		.4byte	0xe8
 1980 01fd 00       		.byte	0
 1981 01fe 07       		.uleb128 0x7
 1982 01ff 0C0A0000 		.4byte	.LASF47
 1983 0203 07       		.byte	0x7
 1984 0204 97       		.byte	0x97
 1985 0205 00010000 		.4byte	0x100
 1986 0209 02       		.byte	0x2
 1987 020a 07       		.uleb128 0x7
 1988 020b 610A0000 		.4byte	.LASF48
 1989 020f 07       		.byte	0x7
 1990 0210 9C       		.byte	0x9c
 1991 0211 DC000000 		.4byte	0xdc
 1992 0215 04       		.byte	0x4
 1993 0216 07       		.uleb128 0x7
 1994 0217 5F050000 		.4byte	.LASF49
 1995 021b 07       		.byte	0x7
 1996 021c A1       		.byte	0xa1
 1997 021d DC000000 		.4byte	0xdc
 1998 0221 05       		.byte	0x5
 1999 0222 07       		.uleb128 0x7
 2000 0223 93020000 		.4byte	.LASF50
 2001 0227 07       		.byte	0x7
ARM GAS  C:\Users\ikomb\AppData\Local\Temp\ccZFcZfB.s 			page 69


 2002 0228 A6       		.byte	0xa6
 2003 0229 DC000000 		.4byte	0xdc
 2004 022d 06       		.byte	0x6
 2005 022e 07       		.uleb128 0x7
 2006 022f 82080000 		.4byte	.LASF51
 2007 0233 07       		.byte	0x7
 2008 0234 AB       		.byte	0xab
 2009 0235 DC000000 		.4byte	0xdc
 2010 0239 07       		.byte	0x7
 2011 023a 07       		.uleb128 0x7
 2012 023b 6A030000 		.4byte	.LASF52
 2013 023f 07       		.byte	0x7
 2014 0240 B2       		.byte	0xb2
 2015 0241 0B010000 		.4byte	0x10b
 2016 0245 08       		.byte	0x8
 2017 0246 07       		.uleb128 0x7
 2018 0247 72040000 		.4byte	.LASF53
 2019 024b 07       		.byte	0x7
 2020 024c BA       		.byte	0xba
 2021 024d 83020000 		.4byte	0x283
 2022 0251 09       		.byte	0x9
 2023 0252 07       		.uleb128 0x7
 2024 0253 3C080000 		.4byte	.LASF54
 2025 0257 07       		.byte	0x7
 2026 0258 C3       		.byte	0xc3
 2027 0259 E8000000 		.4byte	0xe8
 2028 025d 0A       		.byte	0xa
 2029 025e 07       		.uleb128 0x7
 2030 025f B0090000 		.4byte	.LASF55
 2031 0263 07       		.byte	0x7
 2032 0264 C8       		.byte	0xc8
 2033 0265 DC000000 		.4byte	0xdc
 2034 0269 0C       		.byte	0xc
 2035 026a 07       		.uleb128 0x7
 2036 026b 9B000000 		.4byte	.LASF56
 2037 026f 07       		.byte	0x7
 2038 0270 CF       		.byte	0xcf
 2039 0271 E8000000 		.4byte	0xe8
 2040 0275 0E       		.byte	0xe
 2041 0276 07       		.uleb128 0x7
 2042 0277 68050000 		.4byte	.LASF57
 2043 027b 07       		.byte	0x7
 2044 027c D4       		.byte	0xd4
 2045 027d E8000000 		.4byte	0xe8
 2046 0281 10       		.byte	0x10
 2047 0282 00       		.byte	0
 2048 0283 0A       		.uleb128 0xa
 2049 0284 DC000000 		.4byte	0xdc
 2050 0288 93020000 		.4byte	0x293
 2051 028c 0B       		.uleb128 0xb
 2052 028d B4000000 		.4byte	0xb4
 2053 0291 00       		.byte	0
 2054 0292 00       		.byte	0
 2055 0293 04       		.uleb128 0x4
 2056 0294 43080000 		.4byte	.LASF58
 2057 0298 07       		.byte	0x7
 2058 0299 D5       		.byte	0xd5
ARM GAS  C:\Users\ikomb\AppData\Local\Temp\ccZFcZfB.s 			page 70


 2059 029a EA010000 		.4byte	0x1ea
 2060 029e 0A       		.uleb128 0xa
 2061 029f E8000000 		.4byte	0xe8
 2062 02a3 AE020000 		.4byte	0x2ae
 2063 02a7 0B       		.uleb128 0xb
 2064 02a8 B4000000 		.4byte	0xb4
 2065 02ac 00       		.byte	0
 2066 02ad 00       		.byte	0
 2067 02ae 0C       		.uleb128 0xc
 2068 02af 0A       		.byte	0xa
 2069 02b0 07       		.byte	0x7
 2070 02b1 9201     		.2byte	0x192
 2071 02b3 06030000 		.4byte	0x306
 2072 02b7 0D       		.uleb128 0xd
 2073 02b8 72617700 		.ascii	"raw\000"
 2074 02bc 07       		.byte	0x7
 2075 02bd 9701     		.2byte	0x197
 2076 02bf 9E020000 		.4byte	0x29e
 2077 02c3 00       		.byte	0
 2078 02c4 0E       		.uleb128 0xe
 2079 02c5 05030000 		.4byte	.LASF59
 2080 02c9 07       		.byte	0x7
 2081 02ca 9C01     		.2byte	0x19c
 2082 02cc 9E020000 		.4byte	0x29e
 2083 02d0 02       		.byte	0x2
 2084 02d1 0E       		.uleb128 0xe
 2085 02d2 A9020000 		.4byte	.LASF60
 2086 02d6 07       		.byte	0x7
 2087 02d7 A201     		.2byte	0x1a2
 2088 02d9 83020000 		.4byte	0x283
 2089 02dd 04       		.byte	0x4
 2090 02de 0E       		.uleb128 0xe
 2091 02df 4C010000 		.4byte	.LASF61
 2092 02e3 07       		.byte	0x7
 2093 02e4 A701     		.2byte	0x1a7
 2094 02e6 00010000 		.4byte	0x100
 2095 02ea 06       		.byte	0x6
 2096 02eb 0E       		.uleb128 0xe
 2097 02ec FC080000 		.4byte	.LASF62
 2098 02f0 07       		.byte	0x7
 2099 02f1 AC01     		.2byte	0x1ac
 2100 02f3 06030000 		.4byte	0x306
 2101 02f7 08       		.byte	0x8
 2102 02f8 0E       		.uleb128 0xe
 2103 02f9 C5080000 		.4byte	.LASF63
 2104 02fd 07       		.byte	0x7
 2105 02fe B201     		.2byte	0x1b2
 2106 0300 83020000 		.4byte	0x283
 2107 0304 09       		.byte	0x9
 2108 0305 00       		.byte	0
 2109 0306 0A       		.uleb128 0xa
 2110 0307 0B010000 		.4byte	0x10b
 2111 030b 16030000 		.4byte	0x316
 2112 030f 0B       		.uleb128 0xb
 2113 0310 B4000000 		.4byte	0xb4
 2114 0314 00       		.byte	0
 2115 0315 00       		.byte	0
ARM GAS  C:\Users\ikomb\AppData\Local\Temp\ccZFcZfB.s 			page 71


 2116 0316 05       		.uleb128 0x5
 2117 0317 EC000000 		.4byte	.LASF64
 2118 031b 07       		.byte	0x7
 2119 031c B301     		.2byte	0x1b3
 2120 031e AE020000 		.4byte	0x2ae
 2121 0322 0C       		.uleb128 0xc
 2122 0323 30       		.byte	0x30
 2123 0324 07       		.byte	0x7
 2124 0325 7B02     		.2byte	0x27b
 2125 0327 FC030000 		.4byte	0x3fc
 2126 032b 0E       		.uleb128 0xe
 2127 032c 35010000 		.4byte	.LASF65
 2128 0330 07       		.byte	0x7
 2129 0331 8402     		.2byte	0x284
 2130 0333 FC030000 		.4byte	0x3fc
 2131 0337 00       		.byte	0
 2132 0338 0E       		.uleb128 0xe
 2133 0339 2B040000 		.4byte	.LASF66
 2134 033d 07       		.byte	0x7
 2135 033e 8B02     		.2byte	0x28b
 2136 0340 03040000 		.4byte	0x403
 2137 0344 04       		.byte	0x4
 2138 0345 0E       		.uleb128 0xe
 2139 0346 2F020000 		.4byte	.LASF67
 2140 034a 07       		.byte	0x7
 2141 034b 9102     		.2byte	0x291
 2142 034d 05040000 		.4byte	0x405
 2143 0351 08       		.byte	0x8
 2144 0352 0E       		.uleb128 0xe
 2145 0353 A6060000 		.4byte	.LASF68
 2146 0357 07       		.byte	0x7
 2147 0358 9602     		.2byte	0x296
 2148 035a 03040000 		.4byte	0x403
 2149 035e 0C       		.byte	0xc
 2150 035f 0E       		.uleb128 0xe
 2151 0360 2A090000 		.4byte	.LASF69
 2152 0364 07       		.byte	0x7
 2153 0365 9D02     		.2byte	0x29d
 2154 0367 0B040000 		.4byte	0x40b
 2155 036b 10       		.byte	0x10
 2156 036c 0E       		.uleb128 0xe
 2157 036d 60090000 		.4byte	.LASF70
 2158 0371 07       		.byte	0x7
 2159 0372 A202     		.2byte	0x2a2
 2160 0374 F4000000 		.4byte	0xf4
 2161 0378 14       		.byte	0x14
 2162 0379 0E       		.uleb128 0xe
 2163 037a 6D090000 		.4byte	.LASF71
 2164 037e 07       		.byte	0x7
 2165 037f A902     		.2byte	0x2a9
 2166 0381 E8000000 		.4byte	0xe8
 2167 0385 18       		.byte	0x18
 2168 0386 0E       		.uleb128 0xe
 2169 0387 6F050000 		.4byte	.LASF72
 2170 038b 07       		.byte	0x7
 2171 038c B402     		.2byte	0x2b4
 2172 038e DC000000 		.4byte	0xdc
ARM GAS  C:\Users\ikomb\AppData\Local\Temp\ccZFcZfB.s 			page 72


 2173 0392 1A       		.byte	0x1a
 2174 0393 0E       		.uleb128 0xe
 2175 0394 5E030000 		.4byte	.LASF73
 2176 0398 07       		.byte	0x7
 2177 0399 B902     		.2byte	0x2b9
 2178 039b DC000000 		.4byte	0xdc
 2179 039f 1B       		.byte	0x1b
 2180 03a0 0E       		.uleb128 0xe
 2181 03a1 8C040000 		.4byte	.LASF74
 2182 03a5 07       		.byte	0x7
 2183 03a6 C102     		.2byte	0x2c1
 2184 03a8 DC000000 		.4byte	0xdc
 2185 03ac 1C       		.byte	0x1c
 2186 03ad 0E       		.uleb128 0xe
 2187 03ae CE020000 		.4byte	.LASF75
 2188 03b2 07       		.byte	0x7
 2189 03b3 C802     		.2byte	0x2c8
 2190 03b5 DC000000 		.4byte	0xdc
 2191 03b9 1D       		.byte	0x1d
 2192 03ba 0E       		.uleb128 0xe
 2193 03bb 71020000 		.4byte	.LASF76
 2194 03bf 07       		.byte	0x7
 2195 03c0 CE02     		.2byte	0x2ce
 2196 03c2 E8000000 		.4byte	0xe8
 2197 03c6 1E       		.byte	0x1e
 2198 03c7 0E       		.uleb128 0xe
 2199 03c8 78050000 		.4byte	.LASF77
 2200 03cc 07       		.byte	0x7
 2201 03cd D802     		.2byte	0x2d8
 2202 03cf F4000000 		.4byte	0xf4
 2203 03d3 20       		.byte	0x20
 2204 03d4 0E       		.uleb128 0xe
 2205 03d5 17030000 		.4byte	.LASF78
 2206 03d9 07       		.byte	0x7
 2207 03da E002     		.2byte	0x2e0
 2208 03dc 11040000 		.4byte	0x411
 2209 03e0 24       		.byte	0x24
 2210 03e1 0E       		.uleb128 0xe
 2211 03e2 07000000 		.4byte	.LASF79
 2212 03e6 07       		.byte	0x7
 2213 03e7 E502     		.2byte	0x2e5
 2214 03e9 03040000 		.4byte	0x403
 2215 03ed 28       		.byte	0x28
 2216 03ee 0E       		.uleb128 0xe
 2217 03ef C1000000 		.4byte	.LASF80
 2218 03f3 07       		.byte	0x7
 2219 03f4 EA02     		.2byte	0x2ea
 2220 03f6 DC000000 		.4byte	0xdc
 2221 03fa 2C       		.byte	0x2c
 2222 03fb 00       		.byte	0
 2223 03fc 0F       		.uleb128 0xf
 2224 03fd 04       		.byte	0x4
 2225 03fe 02040000 		.4byte	0x402
 2226 0402 10       		.uleb128 0x10
 2227 0403 11       		.uleb128 0x11
 2228 0404 04       		.byte	0x4
 2229 0405 0F       		.uleb128 0xf
ARM GAS  C:\Users\ikomb\AppData\Local\Temp\ccZFcZfB.s 			page 73


 2230 0406 04       		.byte	0x4
 2231 0407 16030000 		.4byte	0x316
 2232 040b 0F       		.uleb128 0xf
 2233 040c 04       		.byte	0x4
 2234 040d DC000000 		.4byte	0xdc
 2235 0411 0F       		.uleb128 0xf
 2236 0412 04       		.byte	0x4
 2237 0413 73010000 		.4byte	0x173
 2238 0417 05       		.uleb128 0x5
 2239 0418 8D060000 		.4byte	.LASF81
 2240 041c 07       		.byte	0x7
 2241 041d EB02     		.2byte	0x2eb
 2242 041f 22030000 		.4byte	0x322
 2243 0423 0C       		.uleb128 0xc
 2244 0424 90       		.byte	0x90
 2245 0425 07       		.byte	0x7
 2246 0426 F102     		.2byte	0x2f1
 2247 0428 3A040000 		.4byte	0x43a
 2248 042c 0E       		.uleb128 0xe
 2249 042d 79090000 		.4byte	.LASF82
 2250 0431 07       		.byte	0x7
 2251 0432 F602     		.2byte	0x2f6
 2252 0434 3A040000 		.4byte	0x43a
 2253 0438 00       		.byte	0
 2254 0439 00       		.byte	0
 2255 043a 0A       		.uleb128 0xa
 2256 043b 17040000 		.4byte	0x417
 2257 043f 4A040000 		.4byte	0x44a
 2258 0443 0B       		.uleb128 0xb
 2259 0444 B4000000 		.4byte	0xb4
 2260 0448 02       		.byte	0x2
 2261 0449 00       		.byte	0
 2262 044a 05       		.uleb128 0x5
 2263 044b 3F000000 		.4byte	.LASF83
 2264 044f 07       		.byte	0x7
 2265 0450 F702     		.2byte	0x2f7
 2266 0452 23040000 		.4byte	0x423
 2267 0456 0C       		.uleb128 0xc
 2268 0457 0A       		.byte	0xa
 2269 0458 07       		.byte	0x7
 2270 0459 2C03     		.2byte	0x32c
 2271 045b 7A040000 		.4byte	0x47a
 2272 045f 0E       		.uleb128 0xe
 2273 0460 38030000 		.4byte	.LASF84
 2274 0464 07       		.byte	0x7
 2275 0465 3203     		.2byte	0x332
 2276 0467 7A040000 		.4byte	0x47a
 2277 046b 00       		.byte	0
 2278 046c 0E       		.uleb128 0xe
 2279 046d A8050000 		.4byte	.LASF85
 2280 0471 07       		.byte	0x7
 2281 0472 3703     		.2byte	0x337
 2282 0474 8A040000 		.4byte	0x48a
 2283 0478 04       		.byte	0x4
 2284 0479 00       		.byte	0
 2285 047a 0A       		.uleb128 0xa
 2286 047b E8000000 		.4byte	0xe8
ARM GAS  C:\Users\ikomb\AppData\Local\Temp\ccZFcZfB.s 			page 74


 2287 047f 8A040000 		.4byte	0x48a
 2288 0483 0B       		.uleb128 0xb
 2289 0484 B4000000 		.4byte	0xb4
 2290 0488 01       		.byte	0x1
 2291 0489 00       		.byte	0
 2292 048a 0A       		.uleb128 0xa
 2293 048b E8000000 		.4byte	0xe8
 2294 048f 9A040000 		.4byte	0x49a
 2295 0493 0B       		.uleb128 0xb
 2296 0494 B4000000 		.4byte	0xb4
 2297 0498 02       		.byte	0x2
 2298 0499 00       		.byte	0
 2299 049a 05       		.uleb128 0x5
 2300 049b B8040000 		.4byte	.LASF86
 2301 049f 07       		.byte	0x7
 2302 04a0 3803     		.2byte	0x338
 2303 04a2 56040000 		.4byte	0x456
 2304 04a6 0C       		.uleb128 0xc
 2305 04a7 0A       		.byte	0xa
 2306 04a8 07       		.byte	0x7
 2307 04a9 3D03     		.2byte	0x33d
 2308 04ab BD040000 		.4byte	0x4bd
 2309 04af 0E       		.uleb128 0xe
 2310 04b0 38060000 		.4byte	.LASF87
 2311 04b4 07       		.byte	0x7
 2312 04b5 4203     		.2byte	0x342
 2313 04b7 BD040000 		.4byte	0x4bd
 2314 04bb 00       		.byte	0
 2315 04bc 00       		.byte	0
 2316 04bd 0A       		.uleb128 0xa
 2317 04be 9A040000 		.4byte	0x49a
 2318 04c2 CD040000 		.4byte	0x4cd
 2319 04c6 0B       		.uleb128 0xb
 2320 04c7 B4000000 		.4byte	0xb4
 2321 04cb 00       		.byte	0
 2322 04cc 00       		.byte	0
 2323 04cd 05       		.uleb128 0x5
 2324 04ce 09020000 		.4byte	.LASF88
 2325 04d2 07       		.byte	0x7
 2326 04d3 4303     		.2byte	0x343
 2327 04d5 A6040000 		.4byte	0x4a6
 2328 04d9 12       		.uleb128 0x12
 2329 04da 04       		.byte	0x4
 2330 04db 07       		.byte	0x7
 2331 04dc 4803     		.2byte	0x348
 2332 04de FB040000 		.4byte	0x4fb
 2333 04e2 13       		.uleb128 0x13
 2334 04e3 70747200 		.ascii	"ptr\000"
 2335 04e7 07       		.byte	0x7
 2336 04e8 4D03     		.2byte	0x34d
 2337 04ea 03040000 		.4byte	0x403
 2338 04ee 14       		.uleb128 0x14
 2339 04ef 2D0A0000 		.4byte	.LASF89
 2340 04f3 07       		.byte	0x7
 2341 04f4 5203     		.2byte	0x352
 2342 04f6 FB040000 		.4byte	0x4fb
 2343 04fa 00       		.byte	0
ARM GAS  C:\Users\ikomb\AppData\Local\Temp\ccZFcZfB.s 			page 75


 2344 04fb 0F       		.uleb128 0xf
 2345 04fc 04       		.byte	0x4
 2346 04fd CD040000 		.4byte	0x4cd
 2347 0501 05       		.uleb128 0x5
 2348 0502 69070000 		.4byte	.LASF90
 2349 0506 07       		.byte	0x7
 2350 0507 5303     		.2byte	0x353
 2351 0509 D9040000 		.4byte	0x4d9
 2352 050d 15       		.uleb128 0x15
 2353 050e D3030000 		.4byte	.LASF94
 2354 0512 01       		.byte	0x1
 2355 0513 2A02     		.2byte	0x22a
 2356 0515 00000000 		.4byte	.LFB45
 2357 0519 1E000000 		.4byte	.LFE45-.LFB45
 2358 051d 01       		.uleb128 0x1
 2359 051e 9C       		.byte	0x9c
 2360 051f 52050000 		.4byte	0x552
 2361 0523 16       		.uleb128 0x16
 2362 0524 F1090000 		.4byte	.LASF91
 2363 0528 01       		.byte	0x1
 2364 0529 2A02     		.2byte	0x22a
 2365 052b 05040000 		.4byte	0x405
 2366 052f 01       		.uleb128 0x1
 2367 0530 50       		.byte	0x50
 2368 0531 17       		.uleb128 0x17
 2369 0532 41040000 		.4byte	.LASF92
 2370 0536 01       		.byte	0x1
 2371 0537 2A02     		.2byte	0x22a
 2372 0539 F4000000 		.4byte	0xf4
 2373 053d 00000000 		.4byte	.LLST0
 2374 0541 17       		.uleb128 0x17
 2375 0542 61070000 		.4byte	.LASF93
 2376 0546 01       		.byte	0x1
 2377 0547 2A02     		.2byte	0x22a
 2378 0549 F4000000 		.4byte	0xf4
 2379 054d 21000000 		.4byte	.LLST1
 2380 0551 00       		.byte	0
 2381 0552 15       		.uleb128 0x15
 2382 0553 73000000 		.4byte	.LASF95
 2383 0557 01       		.byte	0x1
 2384 0558 0F02     		.2byte	0x20f
 2385 055a 00000000 		.4byte	.LFB44
 2386 055e 1E000000 		.4byte	.LFE44-.LFB44
 2387 0562 01       		.uleb128 0x1
 2388 0563 9C       		.byte	0x9c
 2389 0564 B5050000 		.4byte	0x5b5
 2390 0568 17       		.uleb128 0x17
 2391 0569 F1090000 		.4byte	.LASF91
 2392 056d 01       		.byte	0x1
 2393 056e 0F02     		.2byte	0x20f
 2394 0570 05040000 		.4byte	0x405
 2395 0574 42000000 		.4byte	.LLST2
 2396 0578 17       		.uleb128 0x17
 2397 0579 41040000 		.4byte	.LASF92
 2398 057d 01       		.byte	0x1
 2399 057e 0F02     		.2byte	0x20f
 2400 0580 F4000000 		.4byte	0xf4
ARM GAS  C:\Users\ikomb\AppData\Local\Temp\ccZFcZfB.s 			page 76


 2401 0584 6E000000 		.4byte	.LLST3
 2402 0588 18       		.uleb128 0x18
 2403 0589 55070000 		.4byte	.LASF99
 2404 058d 01       		.byte	0x1
 2405 058e 1102     		.2byte	0x211
 2406 0590 F4000000 		.4byte	0xf4
 2407 0594 9A000000 		.4byte	.LLST4
 2408 0598 19       		.uleb128 0x19
 2409 0599 14000000 		.4byte	.LVL6
 2410 059d 0D050000 		.4byte	0x50d
 2411 05a1 1A       		.uleb128 0x1a
 2412 05a2 01       		.uleb128 0x1
 2413 05a3 50       		.byte	0x50
 2414 05a4 02       		.uleb128 0x2
 2415 05a5 76       		.byte	0x76
 2416 05a6 00       		.sleb128 0
 2417 05a7 1A       		.uleb128 0x1a
 2418 05a8 01       		.uleb128 0x1
 2419 05a9 51       		.byte	0x51
 2420 05aa 02       		.uleb128 0x2
 2421 05ab 75       		.byte	0x75
 2422 05ac 00       		.sleb128 0
 2423 05ad 1A       		.uleb128 0x1a
 2424 05ae 01       		.uleb128 0x1
 2425 05af 52       		.byte	0x52
 2426 05b0 02       		.uleb128 0x2
 2427 05b1 74       		.byte	0x74
 2428 05b2 00       		.sleb128 0
 2429 05b3 00       		.byte	0
 2430 05b4 00       		.byte	0
 2431 05b5 15       		.uleb128 0x15
 2432 05b6 DD040000 		.4byte	.LASF96
 2433 05ba 01       		.byte	0x1
 2434 05bb F301     		.2byte	0x1f3
 2435 05bd 00000000 		.4byte	.LFB43
 2436 05c1 24000000 		.4byte	.LFE43-.LFB43
 2437 05c5 01       		.uleb128 0x1
 2438 05c6 9C       		.byte	0x9c
 2439 05c7 30060000 		.4byte	0x630
 2440 05cb 17       		.uleb128 0x17
 2441 05cc 53040000 		.4byte	.LASF97
 2442 05d0 01       		.byte	0x1
 2443 05d1 F301     		.2byte	0x1f3
 2444 05d3 F4000000 		.4byte	0xf4
 2445 05d7 DC000000 		.4byte	.LLST5
 2446 05db 17       		.uleb128 0x17
 2447 05dc 83020000 		.4byte	.LASF98
 2448 05e0 01       		.byte	0x1
 2449 05e1 F301     		.2byte	0x1f3
 2450 05e3 F4000000 		.4byte	0xf4
 2451 05e7 FD000000 		.4byte	.LLST6
 2452 05eb 18       		.uleb128 0x18
 2453 05ec F1090000 		.4byte	.LASF91
 2454 05f0 01       		.byte	0x1
 2455 05f1 F501     		.2byte	0x1f5
 2456 05f3 05040000 		.4byte	0x405
 2457 05f7 1E010000 		.4byte	.LLST7
ARM GAS  C:\Users\ikomb\AppData\Local\Temp\ccZFcZfB.s 			page 77


 2458 05fb 1B       		.uleb128 0x1b
 2459 05fc AE040000 		.4byte	.LASF102
 2460 0600 01       		.byte	0x1
 2461 0601 F601     		.2byte	0x1f6
 2462 0603 30060000 		.4byte	0x630
 2463 0607 19       		.uleb128 0x19
 2464 0608 1C000000 		.4byte	.LVL17
 2465 060c 52050000 		.4byte	0x552
 2466 0610 1A       		.uleb128 0x1a
 2467 0611 01       		.uleb128 0x1
 2468 0612 50       		.byte	0x50
 2469 0613 0F       		.uleb128 0xf
 2470 0614 F3       		.byte	0xf3
 2471 0615 01       		.uleb128 0x1
 2472 0616 51       		.byte	0x51
 2473 0617 32       		.byte	0x32
 2474 0618 24       		.byte	0x24
 2475 0619 F3       		.byte	0xf3
 2476 061a 01       		.uleb128 0x1
 2477 061b 51       		.byte	0x51
 2478 061c 22       		.byte	0x22
 2479 061d 31       		.byte	0x31
 2480 061e 24       		.byte	0x24
 2481 061f 74       		.byte	0x74
 2482 0620 08       		.sleb128 8
 2483 0621 06       		.byte	0x6
 2484 0622 22       		.byte	0x22
 2485 0623 1A       		.uleb128 0x1a
 2486 0624 01       		.uleb128 0x1
 2487 0625 51       		.byte	0x51
 2488 0626 07       		.uleb128 0x7
 2489 0627 74       		.byte	0x74
 2490 0628 1A       		.sleb128 26
 2491 0629 94       		.byte	0x94
 2492 062a 01       		.byte	0x1
 2493 062b 08       		.byte	0x8
 2494 062c FF       		.byte	0xff
 2495 062d 1A       		.byte	0x1a
 2496 062e 00       		.byte	0
 2497 062f 00       		.byte	0
 2498 0630 0F       		.uleb128 0xf
 2499 0631 04       		.byte	0x4
 2500 0632 36060000 		.4byte	0x636
 2501 0636 1C       		.uleb128 0x1c
 2502 0637 17040000 		.4byte	0x417
 2503 063b 15       		.uleb128 0x15
 2504 063c A3080000 		.4byte	.LASF100
 2505 0640 01       		.byte	0x1
 2506 0641 C701     		.2byte	0x1c7
 2507 0643 00000000 		.4byte	.LFB42
 2508 0647 28000000 		.4byte	.LFE42-.LFB42
 2509 064b 01       		.uleb128 0x1
 2510 064c 9C       		.byte	0x9c
 2511 064d A4060000 		.4byte	0x6a4
 2512 0651 17       		.uleb128 0x17
 2513 0652 53040000 		.4byte	.LASF97
 2514 0656 01       		.byte	0x1
ARM GAS  C:\Users\ikomb\AppData\Local\Temp\ccZFcZfB.s 			page 78


 2515 0657 C701     		.2byte	0x1c7
 2516 0659 F4000000 		.4byte	0xf4
 2517 065d 7C010000 		.4byte	.LLST8
 2518 0661 18       		.uleb128 0x18
 2519 0662 83020000 		.4byte	.LASF98
 2520 0666 01       		.byte	0x1
 2521 0667 C901     		.2byte	0x1c9
 2522 0669 F4000000 		.4byte	0xf4
 2523 066d A8010000 		.4byte	.LLST9
 2524 0671 18       		.uleb128 0x18
 2525 0672 D6020000 		.4byte	.LASF101
 2526 0676 01       		.byte	0x1
 2527 0677 CA01     		.2byte	0x1ca
 2528 0679 F4000000 		.4byte	0xf4
 2529 067d E9010000 		.4byte	.LLST10
 2530 0681 1B       		.uleb128 0x1b
 2531 0682 AE040000 		.4byte	.LASF102
 2532 0686 01       		.byte	0x1
 2533 0687 CC01     		.2byte	0x1cc
 2534 0689 30060000 		.4byte	0x630
 2535 068d 19       		.uleb128 0x19
 2536 068e 1A000000 		.4byte	.LVL25
 2537 0692 B5050000 		.4byte	0x5b5
 2538 0696 1A       		.uleb128 0x1a
 2539 0697 01       		.uleb128 0x1
 2540 0698 50       		.byte	0x50
 2541 0699 02       		.uleb128 0x2
 2542 069a 75       		.byte	0x75
 2543 069b 00       		.sleb128 0
 2544 069c 1A       		.uleb128 0x1a
 2545 069d 01       		.uleb128 0x1
 2546 069e 51       		.byte	0x51
 2547 069f 02       		.uleb128 0x2
 2548 06a0 74       		.byte	0x74
 2549 06a1 00       		.sleb128 0
 2550 06a2 00       		.byte	0
 2551 06a3 00       		.byte	0
 2552 06a4 15       		.uleb128 0x15
 2553 06a5 0A090000 		.4byte	.LASF103
 2554 06a9 01       		.byte	0x1
 2555 06aa A301     		.2byte	0x1a3
 2556 06ac 00000000 		.4byte	.LFB41
 2557 06b0 16000000 		.4byte	.LFE41-.LFB41
 2558 06b4 01       		.uleb128 0x1
 2559 06b5 9C       		.byte	0x9c
 2560 06b6 DB060000 		.4byte	0x6db
 2561 06ba 18       		.uleb128 0x18
 2562 06bb 53040000 		.4byte	.LASF97
 2563 06bf 01       		.byte	0x1
 2564 06c0 A501     		.2byte	0x1a5
 2565 06c2 F4000000 		.4byte	0xf4
 2566 06c6 FC010000 		.4byte	.LLST11
 2567 06ca 19       		.uleb128 0x19
 2568 06cb 0C000000 		.4byte	.LVL32
 2569 06cf 3B060000 		.4byte	0x63b
 2570 06d3 1A       		.uleb128 0x1a
 2571 06d4 01       		.uleb128 0x1
ARM GAS  C:\Users\ikomb\AppData\Local\Temp\ccZFcZfB.s 			page 79


 2572 06d5 50       		.byte	0x50
 2573 06d6 02       		.uleb128 0x2
 2574 06d7 74       		.byte	0x74
 2575 06d8 00       		.sleb128 0
 2576 06d9 00       		.byte	0
 2577 06da 00       		.byte	0
 2578 06db 15       		.uleb128 0x15
 2579 06dc 3F0A0000 		.4byte	.LASF104
 2580 06e0 01       		.byte	0x1
 2581 06e1 0304     		.2byte	0x403
 2582 06e3 00000000 		.4byte	.LFB50
 2583 06e7 32000000 		.4byte	.LFE50-.LFB50
 2584 06eb 01       		.uleb128 0x1
 2585 06ec 9C       		.byte	0x9c
 2586 06ed 2C070000 		.4byte	0x72c
 2587 06f1 16       		.uleb128 0x16
 2588 06f2 BD090000 		.4byte	.LASF105
 2589 06f6 01       		.byte	0x1
 2590 06f7 0304     		.2byte	0x403
 2591 06f9 01050000 		.4byte	0x501
 2592 06fd 01       		.uleb128 0x1
 2593 06fe 50       		.byte	0x50
 2594 06ff 16       		.uleb128 0x16
 2595 0700 2B060000 		.4byte	.LASF106
 2596 0704 01       		.byte	0x1
 2597 0705 0404     		.2byte	0x404
 2598 0707 05040000 		.4byte	0x405
 2599 070b 01       		.uleb128 0x1
 2600 070c 51       		.byte	0x51
 2601 070d 16       		.uleb128 0x16
 2602 070e 41040000 		.4byte	.LASF92
 2603 0712 01       		.byte	0x1
 2604 0713 0404     		.2byte	0x404
 2605 0715 F4000000 		.4byte	0xf4
 2606 0719 01       		.uleb128 0x1
 2607 071a 52       		.byte	0x52
 2608 071b 18       		.uleb128 0x18
 2609 071c 55070000 		.4byte	.LASF99
 2610 0720 01       		.byte	0x1
 2611 0721 0604     		.2byte	0x406
 2612 0723 F4000000 		.4byte	0xf4
 2613 0727 3E020000 		.4byte	.LLST12
 2614 072b 00       		.byte	0
 2615 072c 15       		.uleb128 0x15
 2616 072d 1B010000 		.4byte	.LASF107
 2617 0731 01       		.byte	0x1
 2618 0732 AC03     		.2byte	0x3ac
 2619 0734 00000000 		.4byte	.LFB48
 2620 0738 34000000 		.4byte	.LFE48-.LFB48
 2621 073c 01       		.uleb128 0x1
 2622 073d 9C       		.byte	0x9c
 2623 073e 9F070000 		.4byte	0x79f
 2624 0742 17       		.uleb128 0x17
 2625 0743 53040000 		.4byte	.LASF97
 2626 0747 01       		.byte	0x1
 2627 0748 AC03     		.2byte	0x3ac
 2628 074a F4000000 		.4byte	0xf4
ARM GAS  C:\Users\ikomb\AppData\Local\Temp\ccZFcZfB.s 			page 80


 2629 074e 80020000 		.4byte	.LLST13
 2630 0752 17       		.uleb128 0x17
 2631 0753 83020000 		.4byte	.LASF98
 2632 0757 01       		.byte	0x1
 2633 0758 AC03     		.2byte	0x3ac
 2634 075a F4000000 		.4byte	0xf4
 2635 075e A1020000 		.4byte	.LLST14
 2636 0762 1B       		.uleb128 0x1b
 2637 0763 AE040000 		.4byte	.LASF102
 2638 0767 01       		.byte	0x1
 2639 0768 AE03     		.2byte	0x3ae
 2640 076a 30060000 		.4byte	0x630
 2641 076e 18       		.uleb128 0x18
 2642 076f F1090000 		.4byte	.LASF91
 2643 0773 01       		.byte	0x1
 2644 0774 AF03     		.2byte	0x3af
 2645 0776 05040000 		.4byte	0x405
 2646 077a C2020000 		.4byte	.LLST15
 2647 077e 18       		.uleb128 0x18
 2648 077f BD090000 		.4byte	.LASF105
 2649 0783 01       		.byte	0x1
 2650 0784 B003     		.2byte	0x3b0
 2651 0786 01050000 		.4byte	0x501
 2652 078a ED020000 		.4byte	.LLST16
 2653 078e 19       		.uleb128 0x19
 2654 078f 2E000000 		.4byte	.LVL50
 2655 0793 DB060000 		.4byte	0x6db
 2656 0797 1A       		.uleb128 0x1a
 2657 0798 01       		.uleb128 0x1
 2658 0799 50       		.byte	0x50
 2659 079a 02       		.uleb128 0x2
 2660 079b 74       		.byte	0x74
 2661 079c 00       		.sleb128 0
 2662 079d 00       		.byte	0
 2663 079e 00       		.byte	0
 2664 079f 15       		.uleb128 0x15
 2665 07a0 CE090000 		.4byte	.LASF108
 2666 07a4 01       		.byte	0x1
 2667 07a5 B704     		.2byte	0x4b7
 2668 07a7 00000000 		.4byte	.LFB54
 2669 07ab 2E000000 		.4byte	.LFE54-.LFB54
 2670 07af 01       		.uleb128 0x1
 2671 07b0 9C       		.byte	0x9c
 2672 07b1 F0070000 		.4byte	0x7f0
 2673 07b5 16       		.uleb128 0x16
 2674 07b6 BD090000 		.4byte	.LASF105
 2675 07ba 01       		.byte	0x1
 2676 07bb B704     		.2byte	0x4b7
 2677 07bd 01050000 		.4byte	0x501
 2678 07c1 01       		.uleb128 0x1
 2679 07c2 50       		.byte	0x50
 2680 07c3 16       		.uleb128 0x16
 2681 07c4 2B060000 		.4byte	.LASF106
 2682 07c8 01       		.byte	0x1
 2683 07c9 B804     		.2byte	0x4b8
 2684 07cb 05040000 		.4byte	0x405
 2685 07cf 01       		.uleb128 0x1
ARM GAS  C:\Users\ikomb\AppData\Local\Temp\ccZFcZfB.s 			page 81


 2686 07d0 51       		.byte	0x51
 2687 07d1 16       		.uleb128 0x16
 2688 07d2 41040000 		.4byte	.LASF92
 2689 07d6 01       		.byte	0x1
 2690 07d7 B804     		.2byte	0x4b8
 2691 07d9 F4000000 		.4byte	0xf4
 2692 07dd 01       		.uleb128 0x1
 2693 07de 52       		.byte	0x52
 2694 07df 18       		.uleb128 0x18
 2695 07e0 55070000 		.4byte	.LASF99
 2696 07e4 01       		.byte	0x1
 2697 07e5 BA04     		.2byte	0x4ba
 2698 07e7 F4000000 		.4byte	0xf4
 2699 07eb 00030000 		.4byte	.LLST17
 2700 07ef 00       		.byte	0
 2701 07f0 15       		.uleb128 0x15
 2702 07f1 CE080000 		.4byte	.LASF109
 2703 07f5 01       		.byte	0x1
 2704 07f6 7B02     		.2byte	0x27b
 2705 07f8 00000000 		.4byte	.LFB47
 2706 07fc 98000000 		.4byte	.LFE47-.LFB47
 2707 0800 01       		.uleb128 0x1
 2708 0801 9C       		.byte	0x9c
 2709 0802 D1080000 		.4byte	0x8d1
 2710 0806 17       		.uleb128 0x17
 2711 0807 53040000 		.4byte	.LASF97
 2712 080b 01       		.byte	0x1
 2713 080c 7B02     		.2byte	0x27b
 2714 080e F4000000 		.4byte	0xf4
 2715 0812 42030000 		.4byte	.LLST18
 2716 0816 18       		.uleb128 0x18
 2717 0817 83020000 		.4byte	.LASF98
 2718 081b 01       		.byte	0x1
 2719 081c 7D02     		.2byte	0x27d
 2720 081e F4000000 		.4byte	0xf4
 2721 0822 6E030000 		.4byte	.LLST19
 2722 0826 18       		.uleb128 0x18
 2723 0827 D6020000 		.4byte	.LASF101
 2724 082b 01       		.byte	0x1
 2725 082c 7E02     		.2byte	0x27e
 2726 082e F4000000 		.4byte	0xf4
 2727 0832 AF030000 		.4byte	.LLST20
 2728 0836 1B       		.uleb128 0x1b
 2729 0837 AE040000 		.4byte	.LASF102
 2730 083b 01       		.byte	0x1
 2731 083c 8002     		.2byte	0x280
 2732 083e 30060000 		.4byte	0x630
 2733 0842 18       		.uleb128 0x18
 2734 0843 F1090000 		.4byte	.LASF91
 2735 0847 01       		.byte	0x1
 2736 0848 8102     		.2byte	0x281
 2737 084a 05040000 		.4byte	0x405
 2738 084e 00040000 		.4byte	.LLST21
 2739 0852 1B       		.uleb128 0x1b
 2740 0853 BD090000 		.4byte	.LASF105
 2741 0857 01       		.byte	0x1
 2742 0858 8302     		.2byte	0x283
ARM GAS  C:\Users\ikomb\AppData\Local\Temp\ccZFcZfB.s 			page 82


 2743 085a 01050000 		.4byte	0x501
 2744 085e 18       		.uleb128 0x18
 2745 085f 16000000 		.4byte	.LASF110
 2746 0863 01       		.byte	0x1
 2747 0864 8702     		.2byte	0x287
 2748 0866 D1080000 		.4byte	0x8d1
 2749 086a 2B040000 		.4byte	.LLST22
 2750 086e 18       		.uleb128 0x18
 2751 086f FB090000 		.4byte	.LASF111
 2752 0873 01       		.byte	0x1
 2753 0874 8802     		.2byte	0x288
 2754 0876 11040000 		.4byte	0x411
 2755 087a 49040000 		.4byte	.LLST23
 2756 087e 1D       		.uleb128 0x1d
 2757 087f 5A000000 		.4byte	.LVL71
 2758 0883 DB060000 		.4byte	0x6db
 2759 0887 9F080000 		.4byte	0x89f
 2760 088b 1A       		.uleb128 0x1a
 2761 088c 01       		.uleb128 0x1
 2762 088d 50       		.byte	0x50
 2763 088e 03       		.uleb128 0x3
 2764 088f 91       		.byte	0x91
 2765 0890 5C       		.sleb128 -36
 2766 0891 06       		.byte	0x6
 2767 0892 1A       		.uleb128 0x1a
 2768 0893 01       		.uleb128 0x1
 2769 0894 51       		.byte	0x51
 2770 0895 02       		.uleb128 0x2
 2771 0896 75       		.byte	0x75
 2772 0897 00       		.sleb128 0
 2773 0898 1A       		.uleb128 0x1a
 2774 0899 01       		.uleb128 0x1
 2775 089a 52       		.byte	0x52
 2776 089b 02       		.uleb128 0x2
 2777 089c 76       		.byte	0x76
 2778 089d 00       		.sleb128 0
 2779 089e 00       		.byte	0
 2780 089f 1D       		.uleb128 0x1d
 2781 08a0 64000000 		.4byte	.LVL72
 2782 08a4 9F070000 		.4byte	0x79f
 2783 08a8 C0080000 		.4byte	0x8c0
 2784 08ac 1A       		.uleb128 0x1a
 2785 08ad 01       		.uleb128 0x1
 2786 08ae 50       		.byte	0x50
 2787 08af 03       		.uleb128 0x3
 2788 08b0 91       		.byte	0x91
 2789 08b1 5C       		.sleb128 -36
 2790 08b2 06       		.byte	0x6
 2791 08b3 1A       		.uleb128 0x1a
 2792 08b4 01       		.uleb128 0x1
 2793 08b5 51       		.byte	0x51
 2794 08b6 02       		.uleb128 0x2
 2795 08b7 75       		.byte	0x75
 2796 08b8 00       		.sleb128 0
 2797 08b9 1A       		.uleb128 0x1a
 2798 08ba 01       		.uleb128 0x1
 2799 08bb 52       		.byte	0x52
ARM GAS  C:\Users\ikomb\AppData\Local\Temp\ccZFcZfB.s 			page 83


 2800 08bc 02       		.uleb128 0x2
 2801 08bd 76       		.byte	0x76
 2802 08be 00       		.sleb128 0
 2803 08bf 00       		.byte	0
 2804 08c0 19       		.uleb128 0x19
 2805 08c1 80000000 		.4byte	.LVL75
 2806 08c5 A8100000 		.4byte	0x10a8
 2807 08c9 1A       		.uleb128 0x1a
 2808 08ca 01       		.uleb128 0x1
 2809 08cb 52       		.byte	0x52
 2810 08cc 02       		.uleb128 0x2
 2811 08cd 78       		.byte	0x78
 2812 08ce 00       		.sleb128 0
 2813 08cf 00       		.byte	0
 2814 08d0 00       		.byte	0
 2815 08d1 0F       		.uleb128 0xf
 2816 08d2 04       		.byte	0x4
 2817 08d3 93020000 		.4byte	0x293
 2818 08d7 15       		.uleb128 0x15
 2819 08d8 B6060000 		.4byte	.LASF112
 2820 08dc 01       		.byte	0x1
 2821 08dd 5D02     		.2byte	0x25d
 2822 08df 00000000 		.4byte	.LFB46
 2823 08e3 16000000 		.4byte	.LFE46-.LFB46
 2824 08e7 01       		.uleb128 0x1
 2825 08e8 9C       		.byte	0x9c
 2826 08e9 0E090000 		.4byte	0x90e
 2827 08ed 18       		.uleb128 0x18
 2828 08ee 53040000 		.4byte	.LASF97
 2829 08f2 01       		.byte	0x1
 2830 08f3 5F02     		.2byte	0x25f
 2831 08f5 F4000000 		.4byte	0xf4
 2832 08f9 74040000 		.4byte	.LLST24
 2833 08fd 19       		.uleb128 0x19
 2834 08fe 0C000000 		.4byte	.LVL83
 2835 0902 F0070000 		.4byte	0x7f0
 2836 0906 1A       		.uleb128 0x1a
 2837 0907 01       		.uleb128 0x1
 2838 0908 50       		.byte	0x50
 2839 0909 02       		.uleb128 0x2
 2840 090a 74       		.byte	0x74
 2841 090b 00       		.sleb128 0
 2842 090c 00       		.byte	0
 2843 090d 00       		.byte	0
 2844 090e 1E       		.uleb128 0x1e
 2845 090f B3050000 		.4byte	.LASF113
 2846 0913 01       		.byte	0x1
 2847 0914 3F       		.byte	0x3f
 2848 0915 00000000 		.4byte	.LFB36
 2849 0919 08000000 		.4byte	.LFE36-.LFB36
 2850 091d 01       		.uleb128 0x1
 2851 091e 9C       		.byte	0x9c
 2852 091f 2D090000 		.4byte	0x92d
 2853 0923 1F       		.uleb128 0x1f
 2854 0924 06000000 		.4byte	.LVL87
 2855 0928 D7080000 		.4byte	0x8d7
 2856 092c 00       		.byte	0
ARM GAS  C:\Users\ikomb\AppData\Local\Temp\ccZFcZfB.s 			page 84


 2857 092d 15       		.uleb128 0x15
 2858 092e 3A090000 		.4byte	.LASF114
 2859 0932 01       		.byte	0x1
 2860 0933 6004     		.2byte	0x460
 2861 0935 00000000 		.4byte	.LFB52
 2862 0939 34000000 		.4byte	.LFE52-.LFB52
 2863 093d 01       		.uleb128 0x1
 2864 093e 9C       		.byte	0x9c
 2865 093f A0090000 		.4byte	0x9a0
 2866 0943 17       		.uleb128 0x17
 2867 0944 53040000 		.4byte	.LASF97
 2868 0948 01       		.byte	0x1
 2869 0949 6004     		.2byte	0x460
 2870 094b F4000000 		.4byte	0xf4
 2871 094f B6040000 		.4byte	.LLST25
 2872 0953 17       		.uleb128 0x17
 2873 0954 83020000 		.4byte	.LASF98
 2874 0958 01       		.byte	0x1
 2875 0959 6004     		.2byte	0x460
 2876 095b F4000000 		.4byte	0xf4
 2877 095f D7040000 		.4byte	.LLST26
 2878 0963 1B       		.uleb128 0x1b
 2879 0964 AE040000 		.4byte	.LASF102
 2880 0968 01       		.byte	0x1
 2881 0969 6204     		.2byte	0x462
 2882 096b 30060000 		.4byte	0x630
 2883 096f 18       		.uleb128 0x18
 2884 0970 F1090000 		.4byte	.LASF91
 2885 0974 01       		.byte	0x1
 2886 0975 6304     		.2byte	0x463
 2887 0977 05040000 		.4byte	0x405
 2888 097b F8040000 		.4byte	.LLST27
 2889 097f 18       		.uleb128 0x18
 2890 0980 BD090000 		.4byte	.LASF105
 2891 0984 01       		.byte	0x1
 2892 0985 6404     		.2byte	0x464
 2893 0987 01050000 		.4byte	0x501
 2894 098b 23050000 		.4byte	.LLST28
 2895 098f 19       		.uleb128 0x19
 2896 0990 2E000000 		.4byte	.LVL96
 2897 0994 9F070000 		.4byte	0x79f
 2898 0998 1A       		.uleb128 0x1a
 2899 0999 01       		.uleb128 0x1
 2900 099a 50       		.byte	0x50
 2901 099b 02       		.uleb128 0x2
 2902 099c 74       		.byte	0x74
 2903 099d 00       		.sleb128 0
 2904 099e 00       		.byte	0
 2905 099f 00       		.byte	0
 2906 09a0 15       		.uleb128 0x15
 2907 09a1 D0000000 		.4byte	.LASF115
 2908 09a5 01       		.byte	0x1
 2909 09a6 E304     		.2byte	0x4e3
 2910 09a8 00000000 		.4byte	.LFB55
 2911 09ac 44000000 		.4byte	.LFE55-.LFB55
 2912 09b0 01       		.uleb128 0x1
 2913 09b1 9C       		.byte	0x9c
ARM GAS  C:\Users\ikomb\AppData\Local\Temp\ccZFcZfB.s 			page 85


 2914 09b2 010A0000 		.4byte	0xa01
 2915 09b6 16       		.uleb128 0x16
 2916 09b7 BD090000 		.4byte	.LASF105
 2917 09bb 01       		.byte	0x1
 2918 09bc E304     		.2byte	0x4e3
 2919 09be 01050000 		.4byte	0x501
 2920 09c2 01       		.uleb128 0x1
 2921 09c3 50       		.byte	0x50
 2922 09c4 16       		.uleb128 0x16
 2923 09c5 2B060000 		.4byte	.LASF106
 2924 09c9 01       		.byte	0x1
 2925 09ca E404     		.2byte	0x4e4
 2926 09cc 05040000 		.4byte	0x405
 2927 09d0 01       		.uleb128 0x1
 2928 09d1 51       		.byte	0x51
 2929 09d2 16       		.uleb128 0x16
 2930 09d3 41040000 		.4byte	.LASF92
 2931 09d7 01       		.byte	0x1
 2932 09d8 E404     		.2byte	0x4e4
 2933 09da F4000000 		.4byte	0xf4
 2934 09de 01       		.uleb128 0x1
 2935 09df 52       		.byte	0x52
 2936 09e0 18       		.uleb128 0x18
 2937 09e1 55070000 		.4byte	.LASF99
 2938 09e5 01       		.byte	0x1
 2939 09e6 E604     		.2byte	0x4e6
 2940 09e8 F4000000 		.4byte	0xf4
 2941 09ec 36050000 		.4byte	.LLST29
 2942 09f0 18       		.uleb128 0x18
 2943 09f1 00030000 		.4byte	.LASF116
 2944 09f5 01       		.byte	0x1
 2945 09f6 E704     		.2byte	0x4e7
 2946 09f8 F4000000 		.4byte	0xf4
 2947 09fc 78050000 		.4byte	.LLST30
 2948 0a00 00       		.byte	0
 2949 0a01 15       		.uleb128 0x15
 2950 0a02 BF030000 		.4byte	.LASF117
 2951 0a06 01       		.byte	0x1
 2952 0a07 8C04     		.2byte	0x48c
 2953 0a09 00000000 		.4byte	.LFB53
 2954 0a0d 34000000 		.4byte	.LFE53-.LFB53
 2955 0a11 01       		.uleb128 0x1
 2956 0a12 9C       		.byte	0x9c
 2957 0a13 740A0000 		.4byte	0xa74
 2958 0a17 17       		.uleb128 0x17
 2959 0a18 53040000 		.4byte	.LASF97
 2960 0a1c 01       		.byte	0x1
 2961 0a1d 8C04     		.2byte	0x48c
 2962 0a1f F4000000 		.4byte	0xf4
 2963 0a23 8B050000 		.4byte	.LLST31
 2964 0a27 17       		.uleb128 0x17
 2965 0a28 83020000 		.4byte	.LASF98
 2966 0a2c 01       		.byte	0x1
 2967 0a2d 8C04     		.2byte	0x48c
 2968 0a2f F4000000 		.4byte	0xf4
 2969 0a33 AC050000 		.4byte	.LLST32
 2970 0a37 1B       		.uleb128 0x1b
ARM GAS  C:\Users\ikomb\AppData\Local\Temp\ccZFcZfB.s 			page 86


 2971 0a38 AE040000 		.4byte	.LASF102
 2972 0a3c 01       		.byte	0x1
 2973 0a3d 8E04     		.2byte	0x48e
 2974 0a3f 30060000 		.4byte	0x630
 2975 0a43 18       		.uleb128 0x18
 2976 0a44 F1090000 		.4byte	.LASF91
 2977 0a48 01       		.byte	0x1
 2978 0a49 8F04     		.2byte	0x48f
 2979 0a4b 05040000 		.4byte	0x405
 2980 0a4f CD050000 		.4byte	.LLST33
 2981 0a53 18       		.uleb128 0x18
 2982 0a54 BD090000 		.4byte	.LASF105
 2983 0a58 01       		.byte	0x1
 2984 0a59 9004     		.2byte	0x490
 2985 0a5b 01050000 		.4byte	0x501
 2986 0a5f F8050000 		.4byte	.LLST34
 2987 0a63 19       		.uleb128 0x19
 2988 0a64 2E000000 		.4byte	.LVL116
 2989 0a68 A0090000 		.4byte	0x9a0
 2990 0a6c 1A       		.uleb128 0x1a
 2991 0a6d 01       		.uleb128 0x1
 2992 0a6e 50       		.byte	0x50
 2993 0a6f 02       		.uleb128 0x2
 2994 0a70 74       		.byte	0x74
 2995 0a71 00       		.sleb128 0
 2996 0a72 00       		.byte	0
 2997 0a73 00       		.byte	0
 2998 0a74 15       		.uleb128 0x15
 2999 0a75 94040000 		.4byte	.LASF118
 3000 0a79 01       		.byte	0x1
 3001 0a7a 3C06     		.2byte	0x63c
 3002 0a7c 00000000 		.4byte	.LFB58
 3003 0a80 38000000 		.4byte	.LFE58-.LFB58
 3004 0a84 01       		.uleb128 0x1
 3005 0a85 9C       		.byte	0x9c
 3006 0a86 120B0000 		.4byte	0xb12
 3007 0a8a 17       		.uleb128 0x17
 3008 0a8b 53040000 		.4byte	.LASF97
 3009 0a8f 01       		.byte	0x1
 3010 0a90 3C06     		.2byte	0x63c
 3011 0a92 F4000000 		.4byte	0xf4
 3012 0a96 0B060000 		.4byte	.LLST35
 3013 0a9a 17       		.uleb128 0x17
 3014 0a9b 83020000 		.4byte	.LASF98
 3015 0a9f 01       		.byte	0x1
 3016 0aa0 3C06     		.2byte	0x63c
 3017 0aa2 F4000000 		.4byte	0xf4
 3018 0aa6 2C060000 		.4byte	.LLST36
 3019 0aaa 1B       		.uleb128 0x1b
 3020 0aab AE040000 		.4byte	.LASF102
 3021 0aaf 01       		.byte	0x1
 3022 0ab0 3E06     		.2byte	0x63e
 3023 0ab2 30060000 		.4byte	0x630
 3024 0ab6 18       		.uleb128 0x18
 3025 0ab7 16000000 		.4byte	.LASF110
 3026 0abb 01       		.byte	0x1
 3027 0abc 3F06     		.2byte	0x63f
ARM GAS  C:\Users\ikomb\AppData\Local\Temp\ccZFcZfB.s 			page 87


 3028 0abe D1080000 		.4byte	0x8d1
 3029 0ac2 4D060000 		.4byte	.LLST37
 3030 0ac6 18       		.uleb128 0x18
 3031 0ac7 F1090000 		.4byte	.LASF91
 3032 0acb 01       		.byte	0x1
 3033 0acc 4006     		.2byte	0x640
 3034 0ace 05040000 		.4byte	0x405
 3035 0ad2 7A060000 		.4byte	.LLST38
 3036 0ad6 18       		.uleb128 0x18
 3037 0ad7 FB090000 		.4byte	.LASF111
 3038 0adb 01       		.byte	0x1
 3039 0adc 4106     		.2byte	0x641
 3040 0ade 11040000 		.4byte	0x411
 3041 0ae2 EA060000 		.4byte	.LLST39
 3042 0ae6 19       		.uleb128 0x19
 3043 0ae7 30000000 		.4byte	.LVL129
 3044 0aeb B3100000 		.4byte	0x10b3
 3045 0aef 1A       		.uleb128 0x1a
 3046 0af0 01       		.uleb128 0x1
 3047 0af1 52       		.byte	0x52
 3048 0af2 1D       		.uleb128 0x1d
 3049 0af3 F3       		.byte	0xf3
 3050 0af4 01       		.uleb128 0x1
 3051 0af5 51       		.byte	0x51
 3052 0af6 31       		.byte	0x31
 3053 0af7 24       		.byte	0x24
 3054 0af8 F3       		.byte	0xf3
 3055 0af9 01       		.uleb128 0x1
 3056 0afa 51       		.byte	0x51
 3057 0afb 22       		.byte	0x22
 3058 0afc 32       		.byte	0x32
 3059 0afd 24       		.byte	0x24
 3060 0afe F3       		.byte	0xf3
 3061 0aff 01       		.uleb128 0x1
 3062 0b00 50       		.byte	0x50
 3063 0b01 31       		.byte	0x31
 3064 0b02 24       		.byte	0x24
 3065 0b03 F3       		.byte	0xf3
 3066 0b04 01       		.uleb128 0x1
 3067 0b05 50       		.byte	0x50
 3068 0b06 22       		.byte	0x22
 3069 0b07 34       		.byte	0x34
 3070 0b08 24       		.byte	0x24
 3071 0b09 77       		.byte	0x77
 3072 0b0a 00       		.sleb128 0
 3073 0b0b 22       		.byte	0x22
 3074 0b0c 23       		.byte	0x23
 3075 0b0d 24       		.uleb128 0x24
 3076 0b0e 06       		.byte	0x6
 3077 0b0f 22       		.byte	0x22
 3078 0b10 00       		.byte	0
 3079 0b11 00       		.byte	0
 3080 0b12 15       		.uleb128 0x15
 3081 0b13 C0010000 		.4byte	.LASF119
 3082 0b17 01       		.byte	0x1
 3083 0b18 5B06     		.2byte	0x65b
 3084 0b1a 00000000 		.4byte	.LFB59
ARM GAS  C:\Users\ikomb\AppData\Local\Temp\ccZFcZfB.s 			page 88


 3085 0b1e 38000000 		.4byte	.LFE59-.LFB59
 3086 0b22 01       		.uleb128 0x1
 3087 0b23 9C       		.byte	0x9c
 3088 0b24 B00B0000 		.4byte	0xbb0
 3089 0b28 17       		.uleb128 0x17
 3090 0b29 53040000 		.4byte	.LASF97
 3091 0b2d 01       		.byte	0x1
 3092 0b2e 5B06     		.2byte	0x65b
 3093 0b30 F4000000 		.4byte	0xf4
 3094 0b34 3C070000 		.4byte	.LLST40
 3095 0b38 17       		.uleb128 0x17
 3096 0b39 83020000 		.4byte	.LASF98
 3097 0b3d 01       		.byte	0x1
 3098 0b3e 5B06     		.2byte	0x65b
 3099 0b40 F4000000 		.4byte	0xf4
 3100 0b44 5D070000 		.4byte	.LLST41
 3101 0b48 1B       		.uleb128 0x1b
 3102 0b49 AE040000 		.4byte	.LASF102
 3103 0b4d 01       		.byte	0x1
 3104 0b4e 5D06     		.2byte	0x65d
 3105 0b50 30060000 		.4byte	0x630
 3106 0b54 18       		.uleb128 0x18
 3107 0b55 16000000 		.4byte	.LASF110
 3108 0b59 01       		.byte	0x1
 3109 0b5a 5E06     		.2byte	0x65e
 3110 0b5c D1080000 		.4byte	0x8d1
 3111 0b60 7E070000 		.4byte	.LLST42
 3112 0b64 18       		.uleb128 0x18
 3113 0b65 F1090000 		.4byte	.LASF91
 3114 0b69 01       		.byte	0x1
 3115 0b6a 5F06     		.2byte	0x65f
 3116 0b6c 05040000 		.4byte	0x405
 3117 0b70 AB070000 		.4byte	.LLST43
 3118 0b74 18       		.uleb128 0x18
 3119 0b75 FB090000 		.4byte	.LASF111
 3120 0b79 01       		.byte	0x1
 3121 0b7a 6006     		.2byte	0x660
 3122 0b7c 11040000 		.4byte	0x411
 3123 0b80 1B080000 		.4byte	.LLST44
 3124 0b84 19       		.uleb128 0x19
 3125 0b85 30000000 		.4byte	.LVL143
 3126 0b89 A8100000 		.4byte	0x10a8
 3127 0b8d 1A       		.uleb128 0x1a
 3128 0b8e 01       		.uleb128 0x1
 3129 0b8f 52       		.byte	0x52
 3130 0b90 1D       		.uleb128 0x1d
 3131 0b91 F3       		.byte	0xf3
 3132 0b92 01       		.uleb128 0x1
 3133 0b93 51       		.byte	0x51
 3134 0b94 31       		.byte	0x31
 3135 0b95 24       		.byte	0x24
 3136 0b96 F3       		.byte	0xf3
 3137 0b97 01       		.uleb128 0x1
 3138 0b98 51       		.byte	0x51
 3139 0b99 22       		.byte	0x22
 3140 0b9a 32       		.byte	0x32
 3141 0b9b 24       		.byte	0x24
ARM GAS  C:\Users\ikomb\AppData\Local\Temp\ccZFcZfB.s 			page 89


 3142 0b9c F3       		.byte	0xf3
 3143 0b9d 01       		.uleb128 0x1
 3144 0b9e 50       		.byte	0x50
 3145 0b9f 31       		.byte	0x31
 3146 0ba0 24       		.byte	0x24
 3147 0ba1 F3       		.byte	0xf3
 3148 0ba2 01       		.uleb128 0x1
 3149 0ba3 50       		.byte	0x50
 3150 0ba4 22       		.byte	0x22
 3151 0ba5 34       		.byte	0x34
 3152 0ba6 24       		.byte	0x24
 3153 0ba7 77       		.byte	0x77
 3154 0ba8 00       		.sleb128 0
 3155 0ba9 22       		.byte	0x22
 3156 0baa 23       		.byte	0x23
 3157 0bab 24       		.uleb128 0x24
 3158 0bac 06       		.byte	0x6
 3159 0bad 22       		.byte	0x22
 3160 0bae 00       		.byte	0
 3161 0baf 00       		.byte	0
 3162 0bb0 20       		.uleb128 0x20
 3163 0bb1 7A040000 		.4byte	.LASF124
 3164 0bb5 01       		.byte	0x1
 3165 0bb6 7F06     		.2byte	0x67f
 3166 0bb8 F4000000 		.4byte	0xf4
 3167 0bbc 00000000 		.4byte	.LFB60
 3168 0bc0 18000000 		.4byte	.LFE60-.LFB60
 3169 0bc4 01       		.uleb128 0x1
 3170 0bc5 9C       		.byte	0x9c
 3171 0bc6 020C0000 		.4byte	0xc02
 3172 0bca 21       		.uleb128 0x21
 3173 0bcb 783100   		.ascii	"x1\000"
 3174 0bce 01       		.byte	0x1
 3175 0bcf 7F06     		.2byte	0x67f
 3176 0bd1 F4000000 		.4byte	0xf4
 3177 0bd5 6D080000 		.4byte	.LLST45
 3178 0bd9 21       		.uleb128 0x21
 3179 0bda 783200   		.ascii	"x2\000"
 3180 0bdd 01       		.byte	0x1
 3181 0bde 7F06     		.2byte	0x67f
 3182 0be0 F4000000 		.4byte	0xf4
 3183 0be4 96080000 		.4byte	.LLST46
 3184 0be8 22       		.uleb128 0x22
 3185 0be9 783300   		.ascii	"x3\000"
 3186 0bec 01       		.byte	0x1
 3187 0bed 7F06     		.2byte	0x67f
 3188 0bef F4000000 		.4byte	0xf4
 3189 0bf3 01       		.uleb128 0x1
 3190 0bf4 52       		.byte	0x52
 3191 0bf5 23       		.uleb128 0x23
 3192 0bf6 746D7000 		.ascii	"tmp\000"
 3193 0bfa 01       		.byte	0x1
 3194 0bfb 8106     		.2byte	0x681
 3195 0bfd F4000000 		.4byte	0xf4
 3196 0c01 00       		.byte	0
 3197 0c02 15       		.uleb128 0x15
 3198 0c03 43030000 		.4byte	.LASF120
ARM GAS  C:\Users\ikomb\AppData\Local\Temp\ccZFcZfB.s 			page 90


 3199 0c07 01       		.byte	0x1
 3200 0c08 2904     		.2byte	0x429
 3201 0c0a 00000000 		.4byte	.LFB51
 3202 0c0e 68000000 		.4byte	.LFE51-.LFB51
 3203 0c12 01       		.uleb128 0x1
 3204 0c13 9C       		.byte	0x9c
 3205 0c14 790C0000 		.4byte	0xc79
 3206 0c18 17       		.uleb128 0x17
 3207 0c19 BD090000 		.4byte	.LASF105
 3208 0c1d 01       		.byte	0x1
 3209 0c1e 2904     		.2byte	0x429
 3210 0c20 01050000 		.4byte	0x501
 3211 0c24 B4080000 		.4byte	.LLST47
 3212 0c28 17       		.uleb128 0x17
 3213 0c29 2B060000 		.4byte	.LASF106
 3214 0c2d 01       		.byte	0x1
 3215 0c2e 2A04     		.2byte	0x42a
 3216 0c30 05040000 		.4byte	0x405
 3217 0c34 E8080000 		.4byte	.LLST48
 3218 0c38 17       		.uleb128 0x17
 3219 0c39 41040000 		.4byte	.LASF92
 3220 0c3d 01       		.byte	0x1
 3221 0c3e 2A04     		.2byte	0x42a
 3222 0c40 F4000000 		.4byte	0xf4
 3223 0c44 14090000 		.4byte	.LLST49
 3224 0c48 18       		.uleb128 0x18
 3225 0c49 55070000 		.4byte	.LASF99
 3226 0c4d 01       		.byte	0x1
 3227 0c4e 2C04     		.2byte	0x42c
 3228 0c50 F4000000 		.4byte	0xf4
 3229 0c54 56090000 		.4byte	.LLST50
 3230 0c58 18       		.uleb128 0x18
 3231 0c59 00030000 		.4byte	.LASF116
 3232 0c5d 01       		.byte	0x1
 3233 0c5e 3004     		.2byte	0x430
 3234 0c60 F4000000 		.4byte	0xf4
 3235 0c64 98090000 		.4byte	.LLST51
 3236 0c68 19       		.uleb128 0x19
 3237 0c69 40000000 		.4byte	.LVL160
 3238 0c6d B00B0000 		.4byte	0xbb0
 3239 0c71 1A       		.uleb128 0x1a
 3240 0c72 01       		.uleb128 0x1
 3241 0c73 51       		.byte	0x51
 3242 0c74 02       		.uleb128 0x2
 3243 0c75 7B       		.byte	0x7b
 3244 0c76 00       		.sleb128 0
 3245 0c77 00       		.byte	0
 3246 0c78 00       		.byte	0
 3247 0c79 15       		.uleb128 0x15
 3248 0c7a C9050000 		.4byte	.LASF121
 3249 0c7e 01       		.byte	0x1
 3250 0c7f D803     		.2byte	0x3d8
 3251 0c81 00000000 		.4byte	.LFB49
 3252 0c85 34000000 		.4byte	.LFE49-.LFB49
 3253 0c89 01       		.uleb128 0x1
 3254 0c8a 9C       		.byte	0x9c
 3255 0c8b EC0C0000 		.4byte	0xcec
ARM GAS  C:\Users\ikomb\AppData\Local\Temp\ccZFcZfB.s 			page 91


 3256 0c8f 17       		.uleb128 0x17
 3257 0c90 53040000 		.4byte	.LASF97
 3258 0c94 01       		.byte	0x1
 3259 0c95 D803     		.2byte	0x3d8
 3260 0c97 F4000000 		.4byte	0xf4
 3261 0c9b AB090000 		.4byte	.LLST52
 3262 0c9f 17       		.uleb128 0x17
 3263 0ca0 83020000 		.4byte	.LASF98
 3264 0ca4 01       		.byte	0x1
 3265 0ca5 D803     		.2byte	0x3d8
 3266 0ca7 F4000000 		.4byte	0xf4
 3267 0cab CC090000 		.4byte	.LLST53
 3268 0caf 1B       		.uleb128 0x1b
 3269 0cb0 AE040000 		.4byte	.LASF102
 3270 0cb4 01       		.byte	0x1
 3271 0cb5 DA03     		.2byte	0x3da
 3272 0cb7 30060000 		.4byte	0x630
 3273 0cbb 18       		.uleb128 0x18
 3274 0cbc F1090000 		.4byte	.LASF91
 3275 0cc0 01       		.byte	0x1
 3276 0cc1 DB03     		.2byte	0x3db
 3277 0cc3 05040000 		.4byte	0x405
 3278 0cc7 ED090000 		.4byte	.LLST54
 3279 0ccb 18       		.uleb128 0x18
 3280 0ccc BD090000 		.4byte	.LASF105
 3281 0cd0 01       		.byte	0x1
 3282 0cd1 DC03     		.2byte	0x3dc
 3283 0cd3 01050000 		.4byte	0x501
 3284 0cd7 180A0000 		.4byte	.LLST55
 3285 0cdb 19       		.uleb128 0x19
 3286 0cdc 2E000000 		.4byte	.LVL175
 3287 0ce0 020C0000 		.4byte	0xc02
 3288 0ce4 1A       		.uleb128 0x1a
 3289 0ce5 01       		.uleb128 0x1
 3290 0ce6 50       		.byte	0x50
 3291 0ce7 02       		.uleb128 0x2
 3292 0ce8 74       		.byte	0x74
 3293 0ce9 00       		.sleb128 0
 3294 0cea 00       		.byte	0
 3295 0ceb 00       		.byte	0
 3296 0cec 15       		.uleb128 0x15
 3297 0ced F0060000 		.4byte	.LASF122
 3298 0cf1 01       		.byte	0x1
 3299 0cf2 1B06     		.2byte	0x61b
 3300 0cf4 00000000 		.4byte	.LFB57
 3301 0cf8 18000000 		.4byte	.LFE57-.LFB57
 3302 0cfc 01       		.uleb128 0x1
 3303 0cfd 9C       		.byte	0x9c
 3304 0cfe 6F0D0000 		.4byte	0xd6f
 3305 0d02 17       		.uleb128 0x17
 3306 0d03 BD090000 		.4byte	.LASF105
 3307 0d07 01       		.byte	0x1
 3308 0d08 1B06     		.2byte	0x61b
 3309 0d0a 01050000 		.4byte	0x501
 3310 0d0e 2B0A0000 		.4byte	.LLST56
 3311 0d12 17       		.uleb128 0x17
 3312 0d13 2B060000 		.4byte	.LASF106
ARM GAS  C:\Users\ikomb\AppData\Local\Temp\ccZFcZfB.s 			page 92


 3313 0d17 01       		.byte	0x1
 3314 0d18 1C06     		.2byte	0x61c
 3315 0d1a 05040000 		.4byte	0x405
 3316 0d1e 490A0000 		.4byte	.LLST57
 3317 0d22 17       		.uleb128 0x17
 3318 0d23 41040000 		.4byte	.LASF92
 3319 0d27 01       		.byte	0x1
 3320 0d28 1C06     		.2byte	0x61c
 3321 0d2a F4000000 		.4byte	0xf4
 3322 0d2e 750A0000 		.4byte	.LLST58
 3323 0d32 1D       		.uleb128 0x1d
 3324 0d33 0C000000 		.4byte	.LVL180
 3325 0d37 020C0000 		.4byte	0xc02
 3326 0d3b 520D0000 		.4byte	0xd52
 3327 0d3f 1A       		.uleb128 0x1a
 3328 0d40 01       		.uleb128 0x1
 3329 0d41 50       		.byte	0x50
 3330 0d42 02       		.uleb128 0x2
 3331 0d43 74       		.byte	0x74
 3332 0d44 00       		.sleb128 0
 3333 0d45 1A       		.uleb128 0x1a
 3334 0d46 01       		.uleb128 0x1
 3335 0d47 51       		.byte	0x51
 3336 0d48 02       		.uleb128 0x2
 3337 0d49 75       		.byte	0x75
 3338 0d4a 00       		.sleb128 0
 3339 0d4b 1A       		.uleb128 0x1a
 3340 0d4c 01       		.uleb128 0x1
 3341 0d4d 52       		.byte	0x52
 3342 0d4e 02       		.uleb128 0x2
 3343 0d4f 76       		.byte	0x76
 3344 0d50 00       		.sleb128 0
 3345 0d51 00       		.byte	0
 3346 0d52 19       		.uleb128 0x19
 3347 0d53 16000000 		.4byte	.LVL182
 3348 0d57 A0090000 		.4byte	0x9a0
 3349 0d5b 1A       		.uleb128 0x1a
 3350 0d5c 01       		.uleb128 0x1
 3351 0d5d 50       		.byte	0x50
 3352 0d5e 02       		.uleb128 0x2
 3353 0d5f 74       		.byte	0x74
 3354 0d60 00       		.sleb128 0
 3355 0d61 1A       		.uleb128 0x1a
 3356 0d62 01       		.uleb128 0x1
 3357 0d63 51       		.byte	0x51
 3358 0d64 02       		.uleb128 0x2
 3359 0d65 75       		.byte	0x75
 3360 0d66 00       		.sleb128 0
 3361 0d67 1A       		.uleb128 0x1a
 3362 0d68 01       		.uleb128 0x1
 3363 0d69 52       		.byte	0x52
 3364 0d6a 02       		.uleb128 0x2
 3365 0d6b 76       		.byte	0x76
 3366 0d6c 00       		.sleb128 0
 3367 0d6d 00       		.byte	0
 3368 0d6e 00       		.byte	0
 3369 0d6f 15       		.uleb128 0x15
ARM GAS  C:\Users\ikomb\AppData\Local\Temp\ccZFcZfB.s 			page 93


 3370 0d70 75030000 		.4byte	.LASF123
 3371 0d74 01       		.byte	0x1
 3372 0d75 E905     		.2byte	0x5e9
 3373 0d77 00000000 		.4byte	.LFB56
 3374 0d7b 34000000 		.4byte	.LFE56-.LFB56
 3375 0d7f 01       		.uleb128 0x1
 3376 0d80 9C       		.byte	0x9c
 3377 0d81 E20D0000 		.4byte	0xde2
 3378 0d85 17       		.uleb128 0x17
 3379 0d86 53040000 		.4byte	.LASF97
 3380 0d8a 01       		.byte	0x1
 3381 0d8b E905     		.2byte	0x5e9
 3382 0d8d F4000000 		.4byte	0xf4
 3383 0d91 A10A0000 		.4byte	.LLST59
 3384 0d95 17       		.uleb128 0x17
 3385 0d96 83020000 		.4byte	.LASF98
 3386 0d9a 01       		.byte	0x1
 3387 0d9b E905     		.2byte	0x5e9
 3388 0d9d F4000000 		.4byte	0xf4
 3389 0da1 C20A0000 		.4byte	.LLST60
 3390 0da5 1B       		.uleb128 0x1b
 3391 0da6 AE040000 		.4byte	.LASF102
 3392 0daa 01       		.byte	0x1
 3393 0dab EB05     		.2byte	0x5eb
 3394 0dad 30060000 		.4byte	0x630
 3395 0db1 18       		.uleb128 0x18
 3396 0db2 F1090000 		.4byte	.LASF91
 3397 0db6 01       		.byte	0x1
 3398 0db7 EC05     		.2byte	0x5ec
 3399 0db9 05040000 		.4byte	0x405
 3400 0dbd E30A0000 		.4byte	.LLST61
 3401 0dc1 18       		.uleb128 0x18
 3402 0dc2 BD090000 		.4byte	.LASF105
 3403 0dc6 01       		.byte	0x1
 3404 0dc7 ED05     		.2byte	0x5ed
 3405 0dc9 01050000 		.4byte	0x501
 3406 0dcd 0E0B0000 		.4byte	.LLST62
 3407 0dd1 19       		.uleb128 0x19
 3408 0dd2 2E000000 		.4byte	.LVL194
 3409 0dd6 EC0C0000 		.4byte	0xcec
 3410 0dda 1A       		.uleb128 0x1a
 3411 0ddb 01       		.uleb128 0x1
 3412 0ddc 50       		.byte	0x50
 3413 0ddd 02       		.uleb128 0x2
 3414 0dde 74       		.byte	0x74
 3415 0ddf 00       		.sleb128 0
 3416 0de0 00       		.byte	0
 3417 0de1 00       		.byte	0
 3418 0de2 20       		.uleb128 0x20
 3419 0de3 83090000 		.4byte	.LASF125
 3420 0de7 01       		.byte	0x1
 3421 0de8 A506     		.2byte	0x6a5
 3422 0dea F4000000 		.4byte	0xf4
 3423 0dee 00000000 		.4byte	.LFB61
 3424 0df2 12000000 		.4byte	.LFE61-.LFB61
 3425 0df6 01       		.uleb128 0x1
 3426 0df7 9C       		.byte	0x9c
ARM GAS  C:\Users\ikomb\AppData\Local\Temp\ccZFcZfB.s 			page 94


 3427 0df8 490E0000 		.4byte	0xe49
 3428 0dfc 17       		.uleb128 0x17
 3429 0dfd 3A020000 		.4byte	.LASF126
 3430 0e01 01       		.byte	0x1
 3431 0e02 A506     		.2byte	0x6a5
 3432 0e04 F4000000 		.4byte	0xf4
 3433 0e08 210B0000 		.4byte	.LLST63
 3434 0e0c 17       		.uleb128 0x17
 3435 0e0d 5C040000 		.4byte	.LASF127
 3436 0e11 01       		.byte	0x1
 3437 0e12 A506     		.2byte	0x6a5
 3438 0e14 F4000000 		.4byte	0xf4
 3439 0e18 420B0000 		.4byte	.LLST64
 3440 0e1c 21       		.uleb128 0x21
 3441 0e1d 6E00     		.ascii	"n\000"
 3442 0e1f 01       		.byte	0x1
 3443 0e20 A506     		.2byte	0x6a5
 3444 0e22 F4000000 		.4byte	0xf4
 3445 0e26 630B0000 		.4byte	.LLST65
 3446 0e2a 17       		.uleb128 0x17
 3447 0e2b 7D020000 		.4byte	.LASF128
 3448 0e2f 01       		.byte	0x1
 3449 0e30 A506     		.2byte	0x6a5
 3450 0e32 F4000000 		.4byte	0xf4
 3451 0e36 840B0000 		.4byte	.LLST66
 3452 0e3a 24       		.uleb128 0x24
 3453 0e3b 6C010000 		.4byte	.LASF129
 3454 0e3f 01       		.byte	0x1
 3455 0e40 A706     		.2byte	0x6a7
 3456 0e42 F4000000 		.4byte	0xf4
 3457 0e46 01       		.uleb128 0x1
 3458 0e47 50       		.byte	0x50
 3459 0e48 00       		.byte	0
 3460 0e49 25       		.uleb128 0x25
 3461 0e4a A5030000 		.4byte	.LASF130
 3462 0e4e 01       		.byte	0x1
 3463 0e4f FF       		.byte	0xff
 3464 0e50 F4000000 		.4byte	0xf4
 3465 0e54 00000000 		.4byte	.LFB40
 3466 0e58 8E000000 		.4byte	.LFE40-.LFB40
 3467 0e5c 01       		.uleb128 0x1
 3468 0e5d 9C       		.byte	0x9c
 3469 0e5e 240F0000 		.4byte	0xf24
 3470 0e62 17       		.uleb128 0x17
 3471 0e63 16000000 		.4byte	.LASF110
 3472 0e67 01       		.byte	0x1
 3473 0e68 0001     		.2byte	0x100
 3474 0e6a D1080000 		.4byte	0x8d1
 3475 0e6e A50B0000 		.4byte	.LLST67
 3476 0e72 17       		.uleb128 0x17
 3477 0e73 F1090000 		.4byte	.LASF91
 3478 0e77 01       		.byte	0x1
 3479 0e78 0101     		.2byte	0x101
 3480 0e7a 05040000 		.4byte	0x405
 3481 0e7e D10B0000 		.4byte	.LLST68
 3482 0e82 17       		.uleb128 0x17
 3483 0e83 41040000 		.4byte	.LASF92
ARM GAS  C:\Users\ikomb\AppData\Local\Temp\ccZFcZfB.s 			page 95


 3484 0e87 01       		.byte	0x1
 3485 0e88 0201     		.2byte	0x102
 3486 0e8a F4000000 		.4byte	0xf4
 3487 0e8e FD0B0000 		.4byte	.LLST69
 3488 0e92 18       		.uleb128 0x18
 3489 0e93 A2090000 		.4byte	.LASF131
 3490 0e97 01       		.byte	0x1
 3491 0e98 0401     		.2byte	0x104
 3492 0e9a F4000000 		.4byte	0xf4
 3493 0e9e 290C0000 		.4byte	.LLST70
 3494 0ea2 18       		.uleb128 0x18
 3495 0ea3 67040000 		.4byte	.LASF132
 3496 0ea7 01       		.byte	0x1
 3497 0ea8 0501     		.2byte	0x105
 3498 0eaa F4000000 		.4byte	0xf4
 3499 0eae 540C0000 		.4byte	.LLST71
 3500 0eb2 18       		.uleb128 0x18
 3501 0eb3 55070000 		.4byte	.LASF99
 3502 0eb7 01       		.byte	0x1
 3503 0eb8 0601     		.2byte	0x106
 3504 0eba F4000000 		.4byte	0xf4
 3505 0ebe 880C0000 		.4byte	.LLST72
 3506 0ec2 18       		.uleb128 0x18
 3507 0ec3 E1010000 		.4byte	.LASF133
 3508 0ec7 01       		.byte	0x1
 3509 0ec8 0701     		.2byte	0x107
 3510 0eca F4000000 		.4byte	0xf4
 3511 0ece CA0C0000 		.4byte	.LLST73
 3512 0ed2 26       		.uleb128 0x26
 3513 0ed3 380A0000 		.4byte	.LASF134
 3514 0ed7 01       		.byte	0x1
 3515 0ed8 0801     		.2byte	0x108
 3516 0eda F4000000 		.4byte	0xf4
 3517 0ede 00       		.byte	0
 3518 0edf 18       		.uleb128 0x18
 3519 0ee0 23060000 		.4byte	.LASF135
 3520 0ee4 01       		.byte	0x1
 3521 0ee5 0B01     		.2byte	0x10b
 3522 0ee7 F4000000 		.4byte	0xf4
 3523 0eeb DE0C0000 		.4byte	.LLST74
 3524 0eef 1D       		.uleb128 0x1d
 3525 0ef0 4E000000 		.4byte	.LVL213
 3526 0ef4 0D050000 		.4byte	0x50d
 3527 0ef8 0F0F0000 		.4byte	0xf0f
 3528 0efc 1A       		.uleb128 0x1a
 3529 0efd 01       		.uleb128 0x1
 3530 0efe 50       		.byte	0x50
 3531 0eff 02       		.uleb128 0x2
 3532 0f00 76       		.byte	0x76
 3533 0f01 00       		.sleb128 0
 3534 0f02 1A       		.uleb128 0x1a
 3535 0f03 01       		.uleb128 0x1
 3536 0f04 51       		.byte	0x51
 3537 0f05 02       		.uleb128 0x2
 3538 0f06 75       		.byte	0x75
 3539 0f07 00       		.sleb128 0
 3540 0f08 1A       		.uleb128 0x1a
ARM GAS  C:\Users\ikomb\AppData\Local\Temp\ccZFcZfB.s 			page 96


 3541 0f09 01       		.uleb128 0x1
 3542 0f0a 52       		.byte	0x52
 3543 0f0b 02       		.uleb128 0x2
 3544 0f0c 74       		.byte	0x74
 3545 0f0d 00       		.sleb128 0
 3546 0f0e 00       		.byte	0
 3547 0f0f 19       		.uleb128 0x19
 3548 0f10 72000000 		.4byte	.LVL217
 3549 0f14 E20D0000 		.4byte	0xde2
 3550 0f18 1A       		.uleb128 0x1a
 3551 0f19 01       		.uleb128 0x1
 3552 0f1a 52       		.byte	0x52
 3553 0f1b 01       		.uleb128 0x1
 3554 0f1c 31       		.byte	0x31
 3555 0f1d 1A       		.uleb128 0x1a
 3556 0f1e 01       		.uleb128 0x1
 3557 0f1f 53       		.byte	0x53
 3558 0f20 01       		.uleb128 0x1
 3559 0f21 38       		.byte	0x38
 3560 0f22 00       		.byte	0
 3561 0f23 00       		.byte	0
 3562 0f24 25       		.uleb128 0x25
 3563 0f25 0D040000 		.4byte	.LASF136
 3564 0f29 01       		.byte	0x1
 3565 0f2a C8       		.byte	0xc8
 3566 0f2b D0000000 		.4byte	0xd0
 3567 0f2f 00000000 		.4byte	.LFB39
 3568 0f33 2C000000 		.4byte	.LFE39-.LFB39
 3569 0f37 01       		.uleb128 0x1
 3570 0f38 9C       		.byte	0x9c
 3571 0f39 D80F0000 		.4byte	0xfd8
 3572 0f3d 27       		.uleb128 0x27
 3573 0f3e 53040000 		.4byte	.LASF97
 3574 0f42 01       		.byte	0x1
 3575 0f43 C8       		.byte	0xc8
 3576 0f44 F4000000 		.4byte	0xf4
 3577 0f48 FC0C0000 		.4byte	.LLST75
 3578 0f4c 27       		.uleb128 0x27
 3579 0f4d 83020000 		.4byte	.LASF98
 3580 0f51 01       		.byte	0x1
 3581 0f52 C8       		.byte	0xc8
 3582 0f53 F4000000 		.4byte	0xf4
 3583 0f57 280D0000 		.4byte	.LLST76
 3584 0f5b 28       		.uleb128 0x28
 3585 0f5c 380A0000 		.4byte	.LASF134
 3586 0f60 01       		.byte	0x1
 3587 0f61 CA       		.byte	0xca
 3588 0f62 F4000000 		.4byte	0xf4
 3589 0f66 490D0000 		.4byte	.LLST77
 3590 0f6a 28       		.uleb128 0x28
 3591 0f6b F1090000 		.4byte	.LASF91
 3592 0f6f 01       		.byte	0x1
 3593 0f70 CC       		.byte	0xcc
 3594 0f71 05040000 		.4byte	0x405
 3595 0f75 680D0000 		.4byte	.LLST78
 3596 0f79 29       		.uleb128 0x29
 3597 0f7a AE040000 		.4byte	.LASF102
ARM GAS  C:\Users\ikomb\AppData\Local\Temp\ccZFcZfB.s 			page 97


 3598 0f7e 01       		.byte	0x1
 3599 0f7f CD       		.byte	0xcd
 3600 0f80 30060000 		.4byte	0x630
 3601 0f84 28       		.uleb128 0x28
 3602 0f85 16000000 		.4byte	.LASF110
 3603 0f89 01       		.byte	0x1
 3604 0f8a CE       		.byte	0xce
 3605 0f8b D1080000 		.4byte	0x8d1
 3606 0f8f AB0D0000 		.4byte	.LLST79
 3607 0f93 19       		.uleb128 0x19
 3608 0f94 26000000 		.4byte	.LVL233
 3609 0f98 490E0000 		.4byte	0xe49
 3610 0f9c 1A       		.uleb128 0x1a
 3611 0f9d 01       		.uleb128 0x1
 3612 0f9e 50       		.byte	0x50
 3613 0f9f 0E       		.uleb128 0xe
 3614 0fa0 75       		.byte	0x75
 3615 0fa1 00       		.sleb128 0
 3616 0fa2 F3       		.byte	0xf3
 3617 0fa3 01       		.uleb128 0x1
 3618 0fa4 50       		.byte	0x50
 3619 0fa5 22       		.byte	0x22
 3620 0fa6 34       		.byte	0x34
 3621 0fa7 24       		.byte	0x24
 3622 0fa8 74       		.byte	0x74
 3623 0fa9 00       		.sleb128 0
 3624 0faa 22       		.byte	0x22
 3625 0fab 23       		.byte	0x23
 3626 0fac 04       		.uleb128 0x4
 3627 0fad 06       		.byte	0x6
 3628 0fae 1A       		.uleb128 0x1a
 3629 0faf 01       		.uleb128 0x1
 3630 0fb0 51       		.byte	0x51
 3631 0fb1 0E       		.uleb128 0xe
 3632 0fb2 F3       		.byte	0xf3
 3633 0fb3 01       		.uleb128 0x1
 3634 0fb4 51       		.byte	0x51
 3635 0fb5 32       		.byte	0x32
 3636 0fb6 24       		.byte	0x24
 3637 0fb7 F3       		.byte	0xf3
 3638 0fb8 01       		.uleb128 0x1
 3639 0fb9 51       		.byte	0x51
 3640 0fba 22       		.byte	0x22
 3641 0fbb 31       		.byte	0x31
 3642 0fbc 24       		.byte	0x24
 3643 0fbd 76       		.byte	0x76
 3644 0fbe 00       		.sleb128 0
 3645 0fbf 22       		.byte	0x22
 3646 0fc0 1A       		.uleb128 0x1a
 3647 0fc1 01       		.uleb128 0x1
 3648 0fc2 52       		.byte	0x52
 3649 0fc3 12       		.uleb128 0x12
 3650 0fc4 75       		.byte	0x75
 3651 0fc5 00       		.sleb128 0
 3652 0fc6 F3       		.byte	0xf3
 3653 0fc7 01       		.uleb128 0x1
 3654 0fc8 50       		.byte	0x50
ARM GAS  C:\Users\ikomb\AppData\Local\Temp\ccZFcZfB.s 			page 98


 3655 0fc9 22       		.byte	0x22
 3656 0fca 34       		.byte	0x34
 3657 0fcb 24       		.byte	0x24
 3658 0fcc 74       		.byte	0x74
 3659 0fcd 00       		.sleb128 0
 3660 0fce 22       		.byte	0x22
 3661 0fcf 23       		.byte	0x23
 3662 0fd0 1A       		.uleb128 0x1a
 3663 0fd1 94       		.byte	0x94
 3664 0fd2 01       		.byte	0x1
 3665 0fd3 08       		.byte	0x8
 3666 0fd4 FF       		.byte	0xff
 3667 0fd5 1A       		.byte	0x1a
 3668 0fd6 00       		.byte	0
 3669 0fd7 00       		.byte	0
 3670 0fd8 25       		.uleb128 0x25
 3671 0fd9 55000000 		.4byte	.LASF137
 3672 0fdd 01       		.byte	0x1
 3673 0fde 8F       		.byte	0x8f
 3674 0fdf D0000000 		.4byte	0xd0
 3675 0fe3 00000000 		.4byte	.LFB38
 3676 0fe7 30000000 		.4byte	.LFE38-.LFB38
 3677 0feb 01       		.uleb128 0x1
 3678 0fec 9C       		.byte	0x9c
 3679 0fed 4F100000 		.4byte	0x104f
 3680 0ff1 27       		.uleb128 0x27
 3681 0ff2 53040000 		.4byte	.LASF97
 3682 0ff6 01       		.byte	0x1
 3683 0ff7 8F       		.byte	0x8f
 3684 0ff8 F4000000 		.4byte	0xf4
 3685 0ffc D50D0000 		.4byte	.LLST80
 3686 1000 28       		.uleb128 0x28
 3687 1001 83020000 		.4byte	.LASF98
 3688 1005 01       		.byte	0x1
 3689 1006 91       		.byte	0x91
 3690 1007 F4000000 		.4byte	0xf4
 3691 100b 010E0000 		.4byte	.LLST81
 3692 100f 28       		.uleb128 0x28
 3693 1010 D6020000 		.4byte	.LASF101
 3694 1014 01       		.byte	0x1
 3695 1015 92       		.byte	0x92
 3696 1016 F4000000 		.4byte	0xf4
 3697 101a 420E0000 		.4byte	.LLST82
 3698 101e 29       		.uleb128 0x29
 3699 101f AE040000 		.4byte	.LASF102
 3700 1023 01       		.byte	0x1
 3701 1024 94       		.byte	0x94
 3702 1025 30060000 		.4byte	0x630
 3703 1029 28       		.uleb128 0x28
 3704 102a 48040000 		.4byte	.LASF138
 3705 102e 01       		.byte	0x1
 3706 102f 95       		.byte	0x95
 3707 1030 D0000000 		.4byte	0xd0
 3708 1034 550E0000 		.4byte	.LLST83
 3709 1038 19       		.uleb128 0x19
 3710 1039 1C000000 		.4byte	.LVL241
 3711 103d 240F0000 		.4byte	0xf24
ARM GAS  C:\Users\ikomb\AppData\Local\Temp\ccZFcZfB.s 			page 99


 3712 1041 1A       		.uleb128 0x1a
 3713 1042 01       		.uleb128 0x1
 3714 1043 50       		.byte	0x50
 3715 1044 02       		.uleb128 0x2
 3716 1045 76       		.byte	0x76
 3717 1046 00       		.sleb128 0
 3718 1047 1A       		.uleb128 0x1a
 3719 1048 01       		.uleb128 0x1
 3720 1049 51       		.byte	0x51
 3721 104a 02       		.uleb128 0x2
 3722 104b 74       		.byte	0x74
 3723 104c 00       		.sleb128 0
 3724 104d 00       		.byte	0
 3725 104e 00       		.byte	0
 3726 104f 25       		.uleb128 0x25
 3727 1050 D4060000 		.4byte	.LASF139
 3728 1054 01       		.byte	0x1
 3729 1055 62       		.byte	0x62
 3730 1056 D0000000 		.4byte	0xd0
 3731 105a 00000000 		.4byte	.LFB37
 3732 105e 1C000000 		.4byte	.LFE37-.LFB37
 3733 1062 01       		.uleb128 0x1
 3734 1063 9C       		.byte	0x9c
 3735 1064 97100000 		.4byte	0x1097
 3736 1068 28       		.uleb128 0x28
 3737 1069 53040000 		.4byte	.LASF97
 3738 106d 01       		.byte	0x1
 3739 106e 64       		.byte	0x64
 3740 106f F4000000 		.4byte	0xf4
 3741 1073 7F0E0000 		.4byte	.LLST84
 3742 1077 28       		.uleb128 0x28
 3743 1078 48040000 		.4byte	.LASF138
 3744 107c 01       		.byte	0x1
 3745 107d 65       		.byte	0x65
 3746 107e D0000000 		.4byte	0xd0
 3747 1082 C10E0000 		.4byte	.LLST85
 3748 1086 19       		.uleb128 0x19
 3749 1087 0E000000 		.4byte	.LVL250
 3750 108b D80F0000 		.4byte	0xfd8
 3751 108f 1A       		.uleb128 0x1a
 3752 1090 01       		.uleb128 0x1
 3753 1091 50       		.byte	0x50
 3754 1092 02       		.uleb128 0x2
 3755 1093 74       		.byte	0x74
 3756 1094 00       		.sleb128 0
 3757 1095 00       		.byte	0
 3758 1096 00       		.byte	0
 3759 1097 2A       		.uleb128 0x2a
 3760 1098 7B010000 		.4byte	.LASF145
 3761 109c 07       		.byte	0x7
 3762 109d 8E04     		.2byte	0x48e
 3763 109f A3100000 		.4byte	0x10a3
 3764 10a3 1C       		.uleb128 0x1c
 3765 10a4 4A040000 		.4byte	0x44a
 3766 10a8 2B       		.uleb128 0x2b
 3767 10a9 5F080000 		.4byte	.LASF140
 3768 10ad 5F080000 		.4byte	.LASF140
ARM GAS  C:\Users\ikomb\AppData\Local\Temp\ccZFcZfB.s 			page 100


 3769 10b1 06       		.byte	0x6
 3770 10b2 B8       		.byte	0xb8
 3771 10b3 2B       		.uleb128 0x2b
 3772 10b4 23000000 		.4byte	.LASF141
 3773 10b8 23000000 		.4byte	.LASF141
 3774 10bc 06       		.byte	0x6
 3775 10bd BC       		.byte	0xbc
 3776 10be 00       		.byte	0
 3777              		.section	.debug_abbrev,"",%progbits
 3778              	.Ldebug_abbrev0:
 3779 0000 01       		.uleb128 0x1
 3780 0001 11       		.uleb128 0x11
 3781 0002 01       		.byte	0x1
 3782 0003 25       		.uleb128 0x25
 3783 0004 0E       		.uleb128 0xe
 3784 0005 13       		.uleb128 0x13
 3785 0006 0B       		.uleb128 0xb
 3786 0007 03       		.uleb128 0x3
 3787 0008 0E       		.uleb128 0xe
 3788 0009 1B       		.uleb128 0x1b
 3789 000a 0E       		.uleb128 0xe
 3790 000b 55       		.uleb128 0x55
 3791 000c 17       		.uleb128 0x17
 3792 000d 11       		.uleb128 0x11
 3793 000e 01       		.uleb128 0x1
 3794 000f 10       		.uleb128 0x10
 3795 0010 17       		.uleb128 0x17
 3796 0011 00       		.byte	0
 3797 0012 00       		.byte	0
 3798 0013 02       		.uleb128 0x2
 3799 0014 24       		.uleb128 0x24
 3800 0015 00       		.byte	0
 3801 0016 0B       		.uleb128 0xb
 3802 0017 0B       		.uleb128 0xb
 3803 0018 3E       		.uleb128 0x3e
 3804 0019 0B       		.uleb128 0xb
 3805 001a 03       		.uleb128 0x3
 3806 001b 08       		.uleb128 0x8
 3807 001c 00       		.byte	0
 3808 001d 00       		.byte	0
 3809 001e 03       		.uleb128 0x3
 3810 001f 24       		.uleb128 0x24
 3811 0020 00       		.byte	0
 3812 0021 0B       		.uleb128 0xb
 3813 0022 0B       		.uleb128 0xb
 3814 0023 3E       		.uleb128 0x3e
 3815 0024 0B       		.uleb128 0xb
 3816 0025 03       		.uleb128 0x3
 3817 0026 0E       		.uleb128 0xe
 3818 0027 00       		.byte	0
 3819 0028 00       		.byte	0
 3820 0029 04       		.uleb128 0x4
 3821 002a 16       		.uleb128 0x16
 3822 002b 00       		.byte	0
 3823 002c 03       		.uleb128 0x3
 3824 002d 0E       		.uleb128 0xe
 3825 002e 3A       		.uleb128 0x3a
ARM GAS  C:\Users\ikomb\AppData\Local\Temp\ccZFcZfB.s 			page 101


 3826 002f 0B       		.uleb128 0xb
 3827 0030 3B       		.uleb128 0x3b
 3828 0031 0B       		.uleb128 0xb
 3829 0032 49       		.uleb128 0x49
 3830 0033 13       		.uleb128 0x13
 3831 0034 00       		.byte	0
 3832 0035 00       		.byte	0
 3833 0036 05       		.uleb128 0x5
 3834 0037 16       		.uleb128 0x16
 3835 0038 00       		.byte	0
 3836 0039 03       		.uleb128 0x3
 3837 003a 0E       		.uleb128 0xe
 3838 003b 3A       		.uleb128 0x3a
 3839 003c 0B       		.uleb128 0xb
 3840 003d 3B       		.uleb128 0x3b
 3841 003e 05       		.uleb128 0x5
 3842 003f 49       		.uleb128 0x49
 3843 0040 13       		.uleb128 0x13
 3844 0041 00       		.byte	0
 3845 0042 00       		.byte	0
 3846 0043 06       		.uleb128 0x6
 3847 0044 13       		.uleb128 0x13
 3848 0045 01       		.byte	0x1
 3849 0046 0B       		.uleb128 0xb
 3850 0047 0B       		.uleb128 0xb
 3851 0048 3A       		.uleb128 0x3a
 3852 0049 0B       		.uleb128 0xb
 3853 004a 3B       		.uleb128 0x3b
 3854 004b 0B       		.uleb128 0xb
 3855 004c 01       		.uleb128 0x1
 3856 004d 13       		.uleb128 0x13
 3857 004e 00       		.byte	0
 3858 004f 00       		.byte	0
 3859 0050 07       		.uleb128 0x7
 3860 0051 0D       		.uleb128 0xd
 3861 0052 00       		.byte	0
 3862 0053 03       		.uleb128 0x3
 3863 0054 0E       		.uleb128 0xe
 3864 0055 3A       		.uleb128 0x3a
 3865 0056 0B       		.uleb128 0xb
 3866 0057 3B       		.uleb128 0x3b
 3867 0058 0B       		.uleb128 0xb
 3868 0059 49       		.uleb128 0x49
 3869 005a 13       		.uleb128 0x13
 3870 005b 38       		.uleb128 0x38
 3871 005c 0B       		.uleb128 0xb
 3872 005d 00       		.byte	0
 3873 005e 00       		.byte	0
 3874 005f 08       		.uleb128 0x8
 3875 0060 04       		.uleb128 0x4
 3876 0061 01       		.byte	0x1
 3877 0062 0B       		.uleb128 0xb
 3878 0063 0B       		.uleb128 0xb
 3879 0064 49       		.uleb128 0x49
 3880 0065 13       		.uleb128 0x13
 3881 0066 3A       		.uleb128 0x3a
 3882 0067 0B       		.uleb128 0xb
ARM GAS  C:\Users\ikomb\AppData\Local\Temp\ccZFcZfB.s 			page 102


 3883 0068 3B       		.uleb128 0x3b
 3884 0069 0B       		.uleb128 0xb
 3885 006a 01       		.uleb128 0x1
 3886 006b 13       		.uleb128 0x13
 3887 006c 00       		.byte	0
 3888 006d 00       		.byte	0
 3889 006e 09       		.uleb128 0x9
 3890 006f 28       		.uleb128 0x28
 3891 0070 00       		.byte	0
 3892 0071 03       		.uleb128 0x3
 3893 0072 0E       		.uleb128 0xe
 3894 0073 1C       		.uleb128 0x1c
 3895 0074 0B       		.uleb128 0xb
 3896 0075 00       		.byte	0
 3897 0076 00       		.byte	0
 3898 0077 0A       		.uleb128 0xa
 3899 0078 01       		.uleb128 0x1
 3900 0079 01       		.byte	0x1
 3901 007a 49       		.uleb128 0x49
 3902 007b 13       		.uleb128 0x13
 3903 007c 01       		.uleb128 0x1
 3904 007d 13       		.uleb128 0x13
 3905 007e 00       		.byte	0
 3906 007f 00       		.byte	0
 3907 0080 0B       		.uleb128 0xb
 3908 0081 21       		.uleb128 0x21
 3909 0082 00       		.byte	0
 3910 0083 49       		.uleb128 0x49
 3911 0084 13       		.uleb128 0x13
 3912 0085 2F       		.uleb128 0x2f
 3913 0086 0B       		.uleb128 0xb
 3914 0087 00       		.byte	0
 3915 0088 00       		.byte	0
 3916 0089 0C       		.uleb128 0xc
 3917 008a 13       		.uleb128 0x13
 3918 008b 01       		.byte	0x1
 3919 008c 0B       		.uleb128 0xb
 3920 008d 0B       		.uleb128 0xb
 3921 008e 3A       		.uleb128 0x3a
 3922 008f 0B       		.uleb128 0xb
 3923 0090 3B       		.uleb128 0x3b
 3924 0091 05       		.uleb128 0x5
 3925 0092 01       		.uleb128 0x1
 3926 0093 13       		.uleb128 0x13
 3927 0094 00       		.byte	0
 3928 0095 00       		.byte	0
 3929 0096 0D       		.uleb128 0xd
 3930 0097 0D       		.uleb128 0xd
 3931 0098 00       		.byte	0
 3932 0099 03       		.uleb128 0x3
 3933 009a 08       		.uleb128 0x8
 3934 009b 3A       		.uleb128 0x3a
 3935 009c 0B       		.uleb128 0xb
 3936 009d 3B       		.uleb128 0x3b
 3937 009e 05       		.uleb128 0x5
 3938 009f 49       		.uleb128 0x49
 3939 00a0 13       		.uleb128 0x13
ARM GAS  C:\Users\ikomb\AppData\Local\Temp\ccZFcZfB.s 			page 103


 3940 00a1 38       		.uleb128 0x38
 3941 00a2 0B       		.uleb128 0xb
 3942 00a3 00       		.byte	0
 3943 00a4 00       		.byte	0
 3944 00a5 0E       		.uleb128 0xe
 3945 00a6 0D       		.uleb128 0xd
 3946 00a7 00       		.byte	0
 3947 00a8 03       		.uleb128 0x3
 3948 00a9 0E       		.uleb128 0xe
 3949 00aa 3A       		.uleb128 0x3a
 3950 00ab 0B       		.uleb128 0xb
 3951 00ac 3B       		.uleb128 0x3b
 3952 00ad 05       		.uleb128 0x5
 3953 00ae 49       		.uleb128 0x49
 3954 00af 13       		.uleb128 0x13
 3955 00b0 38       		.uleb128 0x38
 3956 00b1 0B       		.uleb128 0xb
 3957 00b2 00       		.byte	0
 3958 00b3 00       		.byte	0
 3959 00b4 0F       		.uleb128 0xf
 3960 00b5 0F       		.uleb128 0xf
 3961 00b6 00       		.byte	0
 3962 00b7 0B       		.uleb128 0xb
 3963 00b8 0B       		.uleb128 0xb
 3964 00b9 49       		.uleb128 0x49
 3965 00ba 13       		.uleb128 0x13
 3966 00bb 00       		.byte	0
 3967 00bc 00       		.byte	0
 3968 00bd 10       		.uleb128 0x10
 3969 00be 26       		.uleb128 0x26
 3970 00bf 00       		.byte	0
 3971 00c0 00       		.byte	0
 3972 00c1 00       		.byte	0
 3973 00c2 11       		.uleb128 0x11
 3974 00c3 0F       		.uleb128 0xf
 3975 00c4 00       		.byte	0
 3976 00c5 0B       		.uleb128 0xb
 3977 00c6 0B       		.uleb128 0xb
 3978 00c7 00       		.byte	0
 3979 00c8 00       		.byte	0
 3980 00c9 12       		.uleb128 0x12
 3981 00ca 17       		.uleb128 0x17
 3982 00cb 01       		.byte	0x1
 3983 00cc 0B       		.uleb128 0xb
 3984 00cd 0B       		.uleb128 0xb
 3985 00ce 3A       		.uleb128 0x3a
 3986 00cf 0B       		.uleb128 0xb
 3987 00d0 3B       		.uleb128 0x3b
 3988 00d1 05       		.uleb128 0x5
 3989 00d2 01       		.uleb128 0x1
 3990 00d3 13       		.uleb128 0x13
 3991 00d4 00       		.byte	0
 3992 00d5 00       		.byte	0
 3993 00d6 13       		.uleb128 0x13
 3994 00d7 0D       		.uleb128 0xd
 3995 00d8 00       		.byte	0
 3996 00d9 03       		.uleb128 0x3
ARM GAS  C:\Users\ikomb\AppData\Local\Temp\ccZFcZfB.s 			page 104


 3997 00da 08       		.uleb128 0x8
 3998 00db 3A       		.uleb128 0x3a
 3999 00dc 0B       		.uleb128 0xb
 4000 00dd 3B       		.uleb128 0x3b
 4001 00de 05       		.uleb128 0x5
 4002 00df 49       		.uleb128 0x49
 4003 00e0 13       		.uleb128 0x13
 4004 00e1 00       		.byte	0
 4005 00e2 00       		.byte	0
 4006 00e3 14       		.uleb128 0x14
 4007 00e4 0D       		.uleb128 0xd
 4008 00e5 00       		.byte	0
 4009 00e6 03       		.uleb128 0x3
 4010 00e7 0E       		.uleb128 0xe
 4011 00e8 3A       		.uleb128 0x3a
 4012 00e9 0B       		.uleb128 0xb
 4013 00ea 3B       		.uleb128 0x3b
 4014 00eb 05       		.uleb128 0x5
 4015 00ec 49       		.uleb128 0x49
 4016 00ed 13       		.uleb128 0x13
 4017 00ee 00       		.byte	0
 4018 00ef 00       		.byte	0
 4019 00f0 15       		.uleb128 0x15
 4020 00f1 2E       		.uleb128 0x2e
 4021 00f2 01       		.byte	0x1
 4022 00f3 3F       		.uleb128 0x3f
 4023 00f4 19       		.uleb128 0x19
 4024 00f5 03       		.uleb128 0x3
 4025 00f6 0E       		.uleb128 0xe
 4026 00f7 3A       		.uleb128 0x3a
 4027 00f8 0B       		.uleb128 0xb
 4028 00f9 3B       		.uleb128 0x3b
 4029 00fa 05       		.uleb128 0x5
 4030 00fb 27       		.uleb128 0x27
 4031 00fc 19       		.uleb128 0x19
 4032 00fd 11       		.uleb128 0x11
 4033 00fe 01       		.uleb128 0x1
 4034 00ff 12       		.uleb128 0x12
 4035 0100 06       		.uleb128 0x6
 4036 0101 40       		.uleb128 0x40
 4037 0102 18       		.uleb128 0x18
 4038 0103 9742     		.uleb128 0x2117
 4039 0105 19       		.uleb128 0x19
 4040 0106 01       		.uleb128 0x1
 4041 0107 13       		.uleb128 0x13
 4042 0108 00       		.byte	0
 4043 0109 00       		.byte	0
 4044 010a 16       		.uleb128 0x16
 4045 010b 05       		.uleb128 0x5
 4046 010c 00       		.byte	0
 4047 010d 03       		.uleb128 0x3
 4048 010e 0E       		.uleb128 0xe
 4049 010f 3A       		.uleb128 0x3a
 4050 0110 0B       		.uleb128 0xb
 4051 0111 3B       		.uleb128 0x3b
 4052 0112 05       		.uleb128 0x5
 4053 0113 49       		.uleb128 0x49
ARM GAS  C:\Users\ikomb\AppData\Local\Temp\ccZFcZfB.s 			page 105


 4054 0114 13       		.uleb128 0x13
 4055 0115 02       		.uleb128 0x2
 4056 0116 18       		.uleb128 0x18
 4057 0117 00       		.byte	0
 4058 0118 00       		.byte	0
 4059 0119 17       		.uleb128 0x17
 4060 011a 05       		.uleb128 0x5
 4061 011b 00       		.byte	0
 4062 011c 03       		.uleb128 0x3
 4063 011d 0E       		.uleb128 0xe
 4064 011e 3A       		.uleb128 0x3a
 4065 011f 0B       		.uleb128 0xb
 4066 0120 3B       		.uleb128 0x3b
 4067 0121 05       		.uleb128 0x5
 4068 0122 49       		.uleb128 0x49
 4069 0123 13       		.uleb128 0x13
 4070 0124 02       		.uleb128 0x2
 4071 0125 17       		.uleb128 0x17
 4072 0126 00       		.byte	0
 4073 0127 00       		.byte	0
 4074 0128 18       		.uleb128 0x18
 4075 0129 34       		.uleb128 0x34
 4076 012a 00       		.byte	0
 4077 012b 03       		.uleb128 0x3
 4078 012c 0E       		.uleb128 0xe
 4079 012d 3A       		.uleb128 0x3a
 4080 012e 0B       		.uleb128 0xb
 4081 012f 3B       		.uleb128 0x3b
 4082 0130 05       		.uleb128 0x5
 4083 0131 49       		.uleb128 0x49
 4084 0132 13       		.uleb128 0x13
 4085 0133 02       		.uleb128 0x2
 4086 0134 17       		.uleb128 0x17
 4087 0135 00       		.byte	0
 4088 0136 00       		.byte	0
 4089 0137 19       		.uleb128 0x19
 4090 0138 898201   		.uleb128 0x4109
 4091 013b 01       		.byte	0x1
 4092 013c 11       		.uleb128 0x11
 4093 013d 01       		.uleb128 0x1
 4094 013e 31       		.uleb128 0x31
 4095 013f 13       		.uleb128 0x13
 4096 0140 00       		.byte	0
 4097 0141 00       		.byte	0
 4098 0142 1A       		.uleb128 0x1a
 4099 0143 8A8201   		.uleb128 0x410a
 4100 0146 00       		.byte	0
 4101 0147 02       		.uleb128 0x2
 4102 0148 18       		.uleb128 0x18
 4103 0149 9142     		.uleb128 0x2111
 4104 014b 18       		.uleb128 0x18
 4105 014c 00       		.byte	0
 4106 014d 00       		.byte	0
 4107 014e 1B       		.uleb128 0x1b
 4108 014f 34       		.uleb128 0x34
 4109 0150 00       		.byte	0
 4110 0151 03       		.uleb128 0x3
ARM GAS  C:\Users\ikomb\AppData\Local\Temp\ccZFcZfB.s 			page 106


 4111 0152 0E       		.uleb128 0xe
 4112 0153 3A       		.uleb128 0x3a
 4113 0154 0B       		.uleb128 0xb
 4114 0155 3B       		.uleb128 0x3b
 4115 0156 05       		.uleb128 0x5
 4116 0157 49       		.uleb128 0x49
 4117 0158 13       		.uleb128 0x13
 4118 0159 00       		.byte	0
 4119 015a 00       		.byte	0
 4120 015b 1C       		.uleb128 0x1c
 4121 015c 26       		.uleb128 0x26
 4122 015d 00       		.byte	0
 4123 015e 49       		.uleb128 0x49
 4124 015f 13       		.uleb128 0x13
 4125 0160 00       		.byte	0
 4126 0161 00       		.byte	0
 4127 0162 1D       		.uleb128 0x1d
 4128 0163 898201   		.uleb128 0x4109
 4129 0166 01       		.byte	0x1
 4130 0167 11       		.uleb128 0x11
 4131 0168 01       		.uleb128 0x1
 4132 0169 31       		.uleb128 0x31
 4133 016a 13       		.uleb128 0x13
 4134 016b 01       		.uleb128 0x1
 4135 016c 13       		.uleb128 0x13
 4136 016d 00       		.byte	0
 4137 016e 00       		.byte	0
 4138 016f 1E       		.uleb128 0x1e
 4139 0170 2E       		.uleb128 0x2e
 4140 0171 01       		.byte	0x1
 4141 0172 3F       		.uleb128 0x3f
 4142 0173 19       		.uleb128 0x19
 4143 0174 03       		.uleb128 0x3
 4144 0175 0E       		.uleb128 0xe
 4145 0176 3A       		.uleb128 0x3a
 4146 0177 0B       		.uleb128 0xb
 4147 0178 3B       		.uleb128 0x3b
 4148 0179 0B       		.uleb128 0xb
 4149 017a 27       		.uleb128 0x27
 4150 017b 19       		.uleb128 0x19
 4151 017c 11       		.uleb128 0x11
 4152 017d 01       		.uleb128 0x1
 4153 017e 12       		.uleb128 0x12
 4154 017f 06       		.uleb128 0x6
 4155 0180 40       		.uleb128 0x40
 4156 0181 18       		.uleb128 0x18
 4157 0182 9742     		.uleb128 0x2117
 4158 0184 19       		.uleb128 0x19
 4159 0185 01       		.uleb128 0x1
 4160 0186 13       		.uleb128 0x13
 4161 0187 00       		.byte	0
 4162 0188 00       		.byte	0
 4163 0189 1F       		.uleb128 0x1f
 4164 018a 898201   		.uleb128 0x4109
 4165 018d 00       		.byte	0
 4166 018e 11       		.uleb128 0x11
 4167 018f 01       		.uleb128 0x1
ARM GAS  C:\Users\ikomb\AppData\Local\Temp\ccZFcZfB.s 			page 107


 4168 0190 31       		.uleb128 0x31
 4169 0191 13       		.uleb128 0x13
 4170 0192 00       		.byte	0
 4171 0193 00       		.byte	0
 4172 0194 20       		.uleb128 0x20
 4173 0195 2E       		.uleb128 0x2e
 4174 0196 01       		.byte	0x1
 4175 0197 3F       		.uleb128 0x3f
 4176 0198 19       		.uleb128 0x19
 4177 0199 03       		.uleb128 0x3
 4178 019a 0E       		.uleb128 0xe
 4179 019b 3A       		.uleb128 0x3a
 4180 019c 0B       		.uleb128 0xb
 4181 019d 3B       		.uleb128 0x3b
 4182 019e 05       		.uleb128 0x5
 4183 019f 27       		.uleb128 0x27
 4184 01a0 19       		.uleb128 0x19
 4185 01a1 49       		.uleb128 0x49
 4186 01a2 13       		.uleb128 0x13
 4187 01a3 11       		.uleb128 0x11
 4188 01a4 01       		.uleb128 0x1
 4189 01a5 12       		.uleb128 0x12
 4190 01a6 06       		.uleb128 0x6
 4191 01a7 40       		.uleb128 0x40
 4192 01a8 18       		.uleb128 0x18
 4193 01a9 9742     		.uleb128 0x2117
 4194 01ab 19       		.uleb128 0x19
 4195 01ac 01       		.uleb128 0x1
 4196 01ad 13       		.uleb128 0x13
 4197 01ae 00       		.byte	0
 4198 01af 00       		.byte	0
 4199 01b0 21       		.uleb128 0x21
 4200 01b1 05       		.uleb128 0x5
 4201 01b2 00       		.byte	0
 4202 01b3 03       		.uleb128 0x3
 4203 01b4 08       		.uleb128 0x8
 4204 01b5 3A       		.uleb128 0x3a
 4205 01b6 0B       		.uleb128 0xb
 4206 01b7 3B       		.uleb128 0x3b
 4207 01b8 05       		.uleb128 0x5
 4208 01b9 49       		.uleb128 0x49
 4209 01ba 13       		.uleb128 0x13
 4210 01bb 02       		.uleb128 0x2
 4211 01bc 17       		.uleb128 0x17
 4212 01bd 00       		.byte	0
 4213 01be 00       		.byte	0
 4214 01bf 22       		.uleb128 0x22
 4215 01c0 05       		.uleb128 0x5
 4216 01c1 00       		.byte	0
 4217 01c2 03       		.uleb128 0x3
 4218 01c3 08       		.uleb128 0x8
 4219 01c4 3A       		.uleb128 0x3a
 4220 01c5 0B       		.uleb128 0xb
 4221 01c6 3B       		.uleb128 0x3b
 4222 01c7 05       		.uleb128 0x5
 4223 01c8 49       		.uleb128 0x49
 4224 01c9 13       		.uleb128 0x13
ARM GAS  C:\Users\ikomb\AppData\Local\Temp\ccZFcZfB.s 			page 108


 4225 01ca 02       		.uleb128 0x2
 4226 01cb 18       		.uleb128 0x18
 4227 01cc 00       		.byte	0
 4228 01cd 00       		.byte	0
 4229 01ce 23       		.uleb128 0x23
 4230 01cf 34       		.uleb128 0x34
 4231 01d0 00       		.byte	0
 4232 01d1 03       		.uleb128 0x3
 4233 01d2 08       		.uleb128 0x8
 4234 01d3 3A       		.uleb128 0x3a
 4235 01d4 0B       		.uleb128 0xb
 4236 01d5 3B       		.uleb128 0x3b
 4237 01d6 05       		.uleb128 0x5
 4238 01d7 49       		.uleb128 0x49
 4239 01d8 13       		.uleb128 0x13
 4240 01d9 00       		.byte	0
 4241 01da 00       		.byte	0
 4242 01db 24       		.uleb128 0x24
 4243 01dc 34       		.uleb128 0x34
 4244 01dd 00       		.byte	0
 4245 01de 03       		.uleb128 0x3
 4246 01df 0E       		.uleb128 0xe
 4247 01e0 3A       		.uleb128 0x3a
 4248 01e1 0B       		.uleb128 0xb
 4249 01e2 3B       		.uleb128 0x3b
 4250 01e3 05       		.uleb128 0x5
 4251 01e4 49       		.uleb128 0x49
 4252 01e5 13       		.uleb128 0x13
 4253 01e6 02       		.uleb128 0x2
 4254 01e7 18       		.uleb128 0x18
 4255 01e8 00       		.byte	0
 4256 01e9 00       		.byte	0
 4257 01ea 25       		.uleb128 0x25
 4258 01eb 2E       		.uleb128 0x2e
 4259 01ec 01       		.byte	0x1
 4260 01ed 3F       		.uleb128 0x3f
 4261 01ee 19       		.uleb128 0x19
 4262 01ef 03       		.uleb128 0x3
 4263 01f0 0E       		.uleb128 0xe
 4264 01f1 3A       		.uleb128 0x3a
 4265 01f2 0B       		.uleb128 0xb
 4266 01f3 3B       		.uleb128 0x3b
 4267 01f4 0B       		.uleb128 0xb
 4268 01f5 27       		.uleb128 0x27
 4269 01f6 19       		.uleb128 0x19
 4270 01f7 49       		.uleb128 0x49
 4271 01f8 13       		.uleb128 0x13
 4272 01f9 11       		.uleb128 0x11
 4273 01fa 01       		.uleb128 0x1
 4274 01fb 12       		.uleb128 0x12
 4275 01fc 06       		.uleb128 0x6
 4276 01fd 40       		.uleb128 0x40
 4277 01fe 18       		.uleb128 0x18
 4278 01ff 9742     		.uleb128 0x2117
 4279 0201 19       		.uleb128 0x19
 4280 0202 01       		.uleb128 0x1
 4281 0203 13       		.uleb128 0x13
ARM GAS  C:\Users\ikomb\AppData\Local\Temp\ccZFcZfB.s 			page 109


 4282 0204 00       		.byte	0
 4283 0205 00       		.byte	0
 4284 0206 26       		.uleb128 0x26
 4285 0207 34       		.uleb128 0x34
 4286 0208 00       		.byte	0
 4287 0209 03       		.uleb128 0x3
 4288 020a 0E       		.uleb128 0xe
 4289 020b 3A       		.uleb128 0x3a
 4290 020c 0B       		.uleb128 0xb
 4291 020d 3B       		.uleb128 0x3b
 4292 020e 05       		.uleb128 0x5
 4293 020f 49       		.uleb128 0x49
 4294 0210 13       		.uleb128 0x13
 4295 0211 1C       		.uleb128 0x1c
 4296 0212 0B       		.uleb128 0xb
 4297 0213 00       		.byte	0
 4298 0214 00       		.byte	0
 4299 0215 27       		.uleb128 0x27
 4300 0216 05       		.uleb128 0x5
 4301 0217 00       		.byte	0
 4302 0218 03       		.uleb128 0x3
 4303 0219 0E       		.uleb128 0xe
 4304 021a 3A       		.uleb128 0x3a
 4305 021b 0B       		.uleb128 0xb
 4306 021c 3B       		.uleb128 0x3b
 4307 021d 0B       		.uleb128 0xb
 4308 021e 49       		.uleb128 0x49
 4309 021f 13       		.uleb128 0x13
 4310 0220 02       		.uleb128 0x2
 4311 0221 17       		.uleb128 0x17
 4312 0222 00       		.byte	0
 4313 0223 00       		.byte	0
 4314 0224 28       		.uleb128 0x28
 4315 0225 34       		.uleb128 0x34
 4316 0226 00       		.byte	0
 4317 0227 03       		.uleb128 0x3
 4318 0228 0E       		.uleb128 0xe
 4319 0229 3A       		.uleb128 0x3a
 4320 022a 0B       		.uleb128 0xb
 4321 022b 3B       		.uleb128 0x3b
 4322 022c 0B       		.uleb128 0xb
 4323 022d 49       		.uleb128 0x49
 4324 022e 13       		.uleb128 0x13
 4325 022f 02       		.uleb128 0x2
 4326 0230 17       		.uleb128 0x17
 4327 0231 00       		.byte	0
 4328 0232 00       		.byte	0
 4329 0233 29       		.uleb128 0x29
 4330 0234 34       		.uleb128 0x34
 4331 0235 00       		.byte	0
 4332 0236 03       		.uleb128 0x3
 4333 0237 0E       		.uleb128 0xe
 4334 0238 3A       		.uleb128 0x3a
 4335 0239 0B       		.uleb128 0xb
 4336 023a 3B       		.uleb128 0x3b
 4337 023b 0B       		.uleb128 0xb
 4338 023c 49       		.uleb128 0x49
ARM GAS  C:\Users\ikomb\AppData\Local\Temp\ccZFcZfB.s 			page 110


 4339 023d 13       		.uleb128 0x13
 4340 023e 00       		.byte	0
 4341 023f 00       		.byte	0
 4342 0240 2A       		.uleb128 0x2a
 4343 0241 34       		.uleb128 0x34
 4344 0242 00       		.byte	0
 4345 0243 03       		.uleb128 0x3
 4346 0244 0E       		.uleb128 0xe
 4347 0245 3A       		.uleb128 0x3a
 4348 0246 0B       		.uleb128 0xb
 4349 0247 3B       		.uleb128 0x3b
 4350 0248 05       		.uleb128 0x5
 4351 0249 49       		.uleb128 0x49
 4352 024a 13       		.uleb128 0x13
 4353 024b 3F       		.uleb128 0x3f
 4354 024c 19       		.uleb128 0x19
 4355 024d 3C       		.uleb128 0x3c
 4356 024e 19       		.uleb128 0x19
 4357 024f 00       		.byte	0
 4358 0250 00       		.byte	0
 4359 0251 2B       		.uleb128 0x2b
 4360 0252 2E       		.uleb128 0x2e
 4361 0253 00       		.byte	0
 4362 0254 3F       		.uleb128 0x3f
 4363 0255 19       		.uleb128 0x19
 4364 0256 3C       		.uleb128 0x3c
 4365 0257 19       		.uleb128 0x19
 4366 0258 6E       		.uleb128 0x6e
 4367 0259 0E       		.uleb128 0xe
 4368 025a 03       		.uleb128 0x3
 4369 025b 0E       		.uleb128 0xe
 4370 025c 3A       		.uleb128 0x3a
 4371 025d 0B       		.uleb128 0xb
 4372 025e 3B       		.uleb128 0x3b
 4373 025f 0B       		.uleb128 0xb
 4374 0260 00       		.byte	0
 4375 0261 00       		.byte	0
 4376 0262 00       		.byte	0
 4377              		.section	.debug_loc,"",%progbits
 4378              	.Ldebug_loc0:
 4379              	.LLST0:
 4380 0000 00000000 		.4byte	.LVL0
 4381 0004 04000000 		.4byte	.LVL1
 4382 0008 0100     		.2byte	0x1
 4383 000a 51       		.byte	0x51
 4384 000b 04000000 		.4byte	.LVL1
 4385 000f 1E000000 		.4byte	.LFE45
 4386 0013 0400     		.2byte	0x4
 4387 0015 F3       		.byte	0xf3
 4388 0016 01       		.uleb128 0x1
 4389 0017 51       		.byte	0x51
 4390 0018 9F       		.byte	0x9f
 4391 0019 00000000 		.4byte	0
 4392 001d 00000000 		.4byte	0
 4393              	.LLST1:
 4394 0021 00000000 		.4byte	.LVL0
 4395 0025 18000000 		.4byte	.LVL2
ARM GAS  C:\Users\ikomb\AppData\Local\Temp\ccZFcZfB.s 			page 111


 4396 0029 0100     		.2byte	0x1
 4397 002b 52       		.byte	0x52
 4398 002c 18000000 		.4byte	.LVL2
 4399 0030 1E000000 		.4byte	.LFE45
 4400 0034 0400     		.2byte	0x4
 4401 0036 F3       		.byte	0xf3
 4402 0037 01       		.uleb128 0x1
 4403 0038 52       		.byte	0x52
 4404 0039 9F       		.byte	0x9f
 4405 003a 00000000 		.4byte	0
 4406 003e 00000000 		.4byte	0
 4407              	.LLST2:
 4408 0042 00000000 		.4byte	.LVL3
 4409 0046 0A000000 		.4byte	.LVL5
 4410 004a 0100     		.2byte	0x1
 4411 004c 50       		.byte	0x50
 4412 004d 0A000000 		.4byte	.LVL5
 4413 0051 1C000000 		.4byte	.LVL11
 4414 0055 0100     		.2byte	0x1
 4415 0057 56       		.byte	0x56
 4416 0058 1C000000 		.4byte	.LVL11
 4417 005c 1E000000 		.4byte	.LFE44
 4418 0060 0400     		.2byte	0x4
 4419 0062 F3       		.byte	0xf3
 4420 0063 01       		.uleb128 0x1
 4421 0064 50       		.byte	0x50
 4422 0065 9F       		.byte	0x9f
 4423 0066 00000000 		.4byte	0
 4424 006a 00000000 		.4byte	0
 4425              	.LLST3:
 4426 006e 00000000 		.4byte	.LVL3
 4427 0072 0A000000 		.4byte	.LVL5
 4428 0076 0100     		.2byte	0x1
 4429 0078 51       		.byte	0x51
 4430 0079 0A000000 		.4byte	.LVL5
 4431 007d 1C000000 		.4byte	.LVL10
 4432 0081 0100     		.2byte	0x1
 4433 0083 55       		.byte	0x55
 4434 0084 1C000000 		.4byte	.LVL10
 4435 0088 1E000000 		.4byte	.LFE44
 4436 008c 0400     		.2byte	0x4
 4437 008e F3       		.byte	0xf3
 4438 008f 01       		.uleb128 0x1
 4439 0090 51       		.byte	0x51
 4440 0091 9F       		.byte	0x9f
 4441 0092 00000000 		.4byte	0
 4442 0096 00000000 		.4byte	0
 4443              	.LLST4:
 4444 009a 06000000 		.4byte	.LVL4
 4445 009e 0A000000 		.4byte	.LVL5
 4446 00a2 0200     		.2byte	0x2
 4447 00a4 31       		.byte	0x31
 4448 00a5 9F       		.byte	0x9f
 4449 00a6 0A000000 		.4byte	.LVL5
 4450 00aa 16000000 		.4byte	.LVL7
 4451 00ae 0100     		.2byte	0x1
 4452 00b0 54       		.byte	0x54
ARM GAS  C:\Users\ikomb\AppData\Local\Temp\ccZFcZfB.s 			page 112


 4453 00b1 16000000 		.4byte	.LVL7
 4454 00b5 18000000 		.4byte	.LVL8
 4455 00b9 0100     		.2byte	0x1
 4456 00bb 53       		.byte	0x53
 4457 00bc 18000000 		.4byte	.LVL8
 4458 00c0 1C000000 		.4byte	.LVL9
 4459 00c4 0100     		.2byte	0x1
 4460 00c6 54       		.byte	0x54
 4461 00c7 1C000000 		.4byte	.LVL9
 4462 00cb 1E000000 		.4byte	.LFE44
 4463 00cf 0300     		.2byte	0x3
 4464 00d1 73       		.byte	0x73
 4465 00d2 7F       		.sleb128 -1
 4466 00d3 9F       		.byte	0x9f
 4467 00d4 00000000 		.4byte	0
 4468 00d8 00000000 		.4byte	0
 4469              	.LLST5:
 4470 00dc 00000000 		.4byte	.LVL12
 4471 00e0 0E000000 		.4byte	.LVL14
 4472 00e4 0100     		.2byte	0x1
 4473 00e6 50       		.byte	0x50
 4474 00e7 0E000000 		.4byte	.LVL14
 4475 00eb 24000000 		.4byte	.LFE43
 4476 00ef 0400     		.2byte	0x4
 4477 00f1 F3       		.byte	0xf3
 4478 00f2 01       		.uleb128 0x1
 4479 00f3 50       		.byte	0x50
 4480 00f4 9F       		.byte	0x9f
 4481 00f5 00000000 		.4byte	0
 4482 00f9 00000000 		.4byte	0
 4483              	.LLST6:
 4484 00fd 00000000 		.4byte	.LVL12
 4485 0101 12000000 		.4byte	.LVL15
 4486 0105 0100     		.2byte	0x1
 4487 0107 51       		.byte	0x51
 4488 0108 12000000 		.4byte	.LVL15
 4489 010c 24000000 		.4byte	.LFE43
 4490 0110 0400     		.2byte	0x4
 4491 0112 F3       		.byte	0xf3
 4492 0113 01       		.uleb128 0x1
 4493 0114 51       		.byte	0x51
 4494 0115 9F       		.byte	0x9f
 4495 0116 00000000 		.4byte	0
 4496 011a 00000000 		.4byte	0
 4497              	.LLST7:
 4498 011e 02000000 		.4byte	.LVL13
 4499 0122 0E000000 		.4byte	.LVL14
 4500 0126 0200     		.2byte	0x2
 4501 0128 30       		.byte	0x30
 4502 0129 9F       		.byte	0x9f
 4503 012a 0E000000 		.4byte	.LVL14
 4504 012e 1B000000 		.4byte	.LVL17-1
 4505 0132 0100     		.2byte	0x1
 4506 0134 50       		.byte	0x50
 4507 0135 1B000000 		.4byte	.LVL17-1
 4508 0139 1C000000 		.4byte	.LVL18
 4509 013d 1000     		.2byte	0x10
ARM GAS  C:\Users\ikomb\AppData\Local\Temp\ccZFcZfB.s 			page 113


 4510 013f F3       		.byte	0xf3
 4511 0140 01       		.uleb128 0x1
 4512 0141 51       		.byte	0x51
 4513 0142 32       		.byte	0x32
 4514 0143 24       		.byte	0x24
 4515 0144 F3       		.byte	0xf3
 4516 0145 01       		.uleb128 0x1
 4517 0146 51       		.byte	0x51
 4518 0147 22       		.byte	0x22
 4519 0148 31       		.byte	0x31
 4520 0149 24       		.byte	0x24
 4521 014a 74       		.byte	0x74
 4522 014b 08       		.sleb128 8
 4523 014c 06       		.byte	0x6
 4524 014d 22       		.byte	0x22
 4525 014e 9F       		.byte	0x9f
 4526 014f 1C000000 		.4byte	.LVL18
 4527 0153 1C000000 		.4byte	.LVL19
 4528 0157 1B00     		.2byte	0x1b
 4529 0159 F3       		.byte	0xf3
 4530 015a 01       		.uleb128 0x1
 4531 015b 51       		.byte	0x51
 4532 015c 32       		.byte	0x32
 4533 015d 24       		.byte	0x24
 4534 015e F3       		.byte	0xf3
 4535 015f 01       		.uleb128 0x1
 4536 0160 51       		.byte	0x51
 4537 0161 22       		.byte	0x22
 4538 0162 31       		.byte	0x31
 4539 0163 24       		.byte	0x24
 4540 0164 76       		.byte	0x76
 4541 0165 00       		.sleb128 0
 4542 0166 F3       		.byte	0xf3
 4543 0167 01       		.uleb128 0x1
 4544 0168 50       		.byte	0x50
 4545 0169 22       		.byte	0x22
 4546 016a 34       		.byte	0x34
 4547 016b 24       		.byte	0x24
 4548 016c 75       		.byte	0x75
 4549 016d 00       		.sleb128 0
 4550 016e 22       		.byte	0x22
 4551 016f 23       		.byte	0x23
 4552 0170 08       		.uleb128 0x8
 4553 0171 06       		.byte	0x6
 4554 0172 22       		.byte	0x22
 4555 0173 9F       		.byte	0x9f
 4556 0174 00000000 		.4byte	0
 4557 0178 00000000 		.4byte	0
 4558              	.LLST8:
 4559 017c 00000000 		.4byte	.LVL21
 4560 0180 12000000 		.4byte	.LVL24
 4561 0184 0100     		.2byte	0x1
 4562 0186 50       		.byte	0x50
 4563 0187 12000000 		.4byte	.LVL24
 4564 018b 22000000 		.4byte	.LVL29
 4565 018f 0100     		.2byte	0x1
 4566 0191 55       		.byte	0x55
ARM GAS  C:\Users\ikomb\AppData\Local\Temp\ccZFcZfB.s 			page 114


 4567 0192 22000000 		.4byte	.LVL29
 4568 0196 28000000 		.4byte	.LFE42
 4569 019a 0400     		.2byte	0x4
 4570 019c F3       		.byte	0xf3
 4571 019d 01       		.uleb128 0x1
 4572 019e 50       		.byte	0x50
 4573 019f 9F       		.byte	0x9f
 4574 01a0 00000000 		.4byte	0
 4575 01a4 00000000 		.4byte	0
 4576              	.LLST9:
 4577 01a8 10000000 		.4byte	.LVL23
 4578 01ac 12000000 		.4byte	.LVL24
 4579 01b0 0100     		.2byte	0x1
 4580 01b2 53       		.byte	0x53
 4581 01b3 12000000 		.4byte	.LVL24
 4582 01b7 1C000000 		.4byte	.LVL26
 4583 01bb 0100     		.2byte	0x1
 4584 01bd 54       		.byte	0x54
 4585 01be 1C000000 		.4byte	.LVL26
 4586 01c2 1E000000 		.4byte	.LVL27
 4587 01c6 0100     		.2byte	0x1
 4588 01c8 53       		.byte	0x53
 4589 01c9 1E000000 		.4byte	.LVL27
 4590 01cd 22000000 		.4byte	.LVL28
 4591 01d1 0100     		.2byte	0x1
 4592 01d3 54       		.byte	0x54
 4593 01d4 22000000 		.4byte	.LVL28
 4594 01d8 28000000 		.4byte	.LFE42
 4595 01dc 0300     		.2byte	0x3
 4596 01de 73       		.byte	0x73
 4597 01df 7F       		.sleb128 -1
 4598 01e0 9F       		.byte	0x9f
 4599 01e1 00000000 		.4byte	0
 4600 01e5 00000000 		.4byte	0
 4601              	.LLST10:
 4602 01e9 10000000 		.4byte	.LVL23
 4603 01ed 12000000 		.4byte	.LVL24
 4604 01f1 0100     		.2byte	0x1
 4605 01f3 53       		.byte	0x53
 4606 01f4 00000000 		.4byte	0
 4607 01f8 00000000 		.4byte	0
 4608              	.LLST11:
 4609 01fc 02000000 		.4byte	.LVL30
 4610 0200 06000000 		.4byte	.LVL31
 4611 0204 0200     		.2byte	0x2
 4612 0206 33       		.byte	0x33
 4613 0207 9F       		.byte	0x9f
 4614 0208 06000000 		.4byte	.LVL31
 4615 020c 0E000000 		.4byte	.LVL33
 4616 0210 0100     		.2byte	0x1
 4617 0212 54       		.byte	0x54
 4618 0213 0E000000 		.4byte	.LVL33
 4619 0217 10000000 		.4byte	.LVL34
 4620 021b 0100     		.2byte	0x1
 4621 021d 53       		.byte	0x53
 4622 021e 10000000 		.4byte	.LVL34
 4623 0222 14000000 		.4byte	.LVL35
ARM GAS  C:\Users\ikomb\AppData\Local\Temp\ccZFcZfB.s 			page 115


 4624 0226 0100     		.2byte	0x1
 4625 0228 54       		.byte	0x54
 4626 0229 14000000 		.4byte	.LVL35
 4627 022d 16000000 		.4byte	.LFE41
 4628 0231 0300     		.2byte	0x3
 4629 0233 73       		.byte	0x73
 4630 0234 7F       		.sleb128 -1
 4631 0235 9F       		.byte	0x9f
 4632 0236 00000000 		.4byte	0
 4633 023a 00000000 		.4byte	0
 4634              	.LLST12:
 4635 023e 02000000 		.4byte	.LVL37
 4636 0242 06000000 		.4byte	.LVL38
 4637 0246 0200     		.2byte	0x2
 4638 0248 31       		.byte	0x31
 4639 0249 9F       		.byte	0x9f
 4640 024a 06000000 		.4byte	.LVL38
 4641 024e 2A000000 		.4byte	.LVL39
 4642 0252 0100     		.2byte	0x1
 4643 0254 54       		.byte	0x54
 4644 0255 2A000000 		.4byte	.LVL39
 4645 0259 2C000000 		.4byte	.LVL40
 4646 025d 0100     		.2byte	0x1
 4647 025f 53       		.byte	0x53
 4648 0260 2C000000 		.4byte	.LVL40
 4649 0264 30000000 		.4byte	.LVL41
 4650 0268 0100     		.2byte	0x1
 4651 026a 54       		.byte	0x54
 4652 026b 30000000 		.4byte	.LVL41
 4653 026f 32000000 		.4byte	.LFE50
 4654 0273 0300     		.2byte	0x3
 4655 0275 73       		.byte	0x73
 4656 0276 7F       		.sleb128 -1
 4657 0277 9F       		.byte	0x9f
 4658 0278 00000000 		.4byte	0
 4659 027c 00000000 		.4byte	0
 4660              	.LLST13:
 4661 0280 00000000 		.4byte	.LVL42
 4662 0284 1C000000 		.4byte	.LVL48
 4663 0288 0100     		.2byte	0x1
 4664 028a 50       		.byte	0x50
 4665 028b 1C000000 		.4byte	.LVL48
 4666 028f 34000000 		.4byte	.LFE48
 4667 0293 0400     		.2byte	0x4
 4668 0295 F3       		.byte	0xf3
 4669 0296 01       		.uleb128 0x1
 4670 0297 50       		.byte	0x50
 4671 0298 9F       		.byte	0x9f
 4672 0299 00000000 		.4byte	0
 4673 029d 00000000 		.4byte	0
 4674              	.LLST14:
 4675 02a1 00000000 		.4byte	.LVL42
 4676 02a5 10000000 		.4byte	.LVL45
 4677 02a9 0100     		.2byte	0x1
 4678 02ab 51       		.byte	0x51
 4679 02ac 10000000 		.4byte	.LVL45
 4680 02b0 34000000 		.4byte	.LFE48
ARM GAS  C:\Users\ikomb\AppData\Local\Temp\ccZFcZfB.s 			page 116


 4681 02b4 0400     		.2byte	0x4
 4682 02b6 F3       		.byte	0xf3
 4683 02b7 01       		.uleb128 0x1
 4684 02b8 51       		.byte	0x51
 4685 02b9 9F       		.byte	0x9f
 4686 02ba 00000000 		.4byte	0
 4687 02be 00000000 		.4byte	0
 4688              	.LLST15:
 4689 02c2 02000000 		.4byte	.LVL43
 4690 02c6 0C000000 		.4byte	.LVL44
 4691 02ca 0200     		.2byte	0x2
 4692 02cc 30       		.byte	0x30
 4693 02cd 9F       		.byte	0x9f
 4694 02ce 0C000000 		.4byte	.LVL44
 4695 02d2 16000000 		.4byte	.LVL46
 4696 02d6 0200     		.2byte	0x2
 4697 02d8 73       		.byte	0x73
 4698 02d9 08       		.sleb128 8
 4699 02da 16000000 		.4byte	.LVL46
 4700 02de 2D000000 		.4byte	.LVL50-1
 4701 02e2 0100     		.2byte	0x1
 4702 02e4 51       		.byte	0x51
 4703 02e5 00000000 		.4byte	0
 4704 02e9 00000000 		.4byte	0
 4705              	.LLST16:
 4706 02ed 28000000 		.4byte	.LVL49
 4707 02f1 2E000000 		.4byte	.LVL51
 4708 02f5 0100     		.2byte	0x1
 4709 02f7 54       		.byte	0x54
 4710 02f8 00000000 		.4byte	0
 4711 02fc 00000000 		.4byte	0
 4712              	.LLST17:
 4713 0300 02000000 		.4byte	.LVL55
 4714 0304 06000000 		.4byte	.LVL56
 4715 0308 0200     		.2byte	0x2
 4716 030a 31       		.byte	0x31
 4717 030b 9F       		.byte	0x9f
 4718 030c 06000000 		.4byte	.LVL56
 4719 0310 26000000 		.4byte	.LVL57
 4720 0314 0100     		.2byte	0x1
 4721 0316 54       		.byte	0x54
 4722 0317 26000000 		.4byte	.LVL57
 4723 031b 28000000 		.4byte	.LVL58
 4724 031f 0100     		.2byte	0x1
 4725 0321 53       		.byte	0x53
 4726 0322 28000000 		.4byte	.LVL58
 4727 0326 2C000000 		.4byte	.LVL59
 4728 032a 0100     		.2byte	0x1
 4729 032c 54       		.byte	0x54
 4730 032d 2C000000 		.4byte	.LVL59
 4731 0331 2E000000 		.4byte	.LFE54
 4732 0335 0300     		.2byte	0x3
 4733 0337 73       		.byte	0x73
 4734 0338 7F       		.sleb128 -1
 4735 0339 9F       		.byte	0x9f
 4736 033a 00000000 		.4byte	0
 4737 033e 00000000 		.4byte	0
ARM GAS  C:\Users\ikomb\AppData\Local\Temp\ccZFcZfB.s 			page 117


 4738              	.LLST18:
 4739 0342 00000000 		.4byte	.LVL60
 4740 0346 1E000000 		.4byte	.LVL64
 4741 034a 0100     		.2byte	0x1
 4742 034c 50       		.byte	0x50
 4743 034d 1E000000 		.4byte	.LVL64
 4744 0351 8A000000 		.4byte	.LVL79
 4745 0355 0100     		.2byte	0x1
 4746 0357 57       		.byte	0x57
 4747 0358 8A000000 		.4byte	.LVL79
 4748 035c 98000000 		.4byte	.LFE47
 4749 0360 0400     		.2byte	0x4
 4750 0362 F3       		.byte	0xf3
 4751 0363 01       		.uleb128 0x1
 4752 0364 50       		.byte	0x50
 4753 0365 9F       		.byte	0x9f
 4754 0366 00000000 		.4byte	0
 4755 036a 00000000 		.4byte	0
 4756              	.LLST19:
 4757 036e 1C000000 		.4byte	.LVL63
 4758 0372 1E000000 		.4byte	.LVL64
 4759 0376 0100     		.2byte	0x1
 4760 0378 53       		.byte	0x53
 4761 0379 1E000000 		.4byte	.LVL64
 4762 037d 82000000 		.4byte	.LVL76
 4763 0381 0100     		.2byte	0x1
 4764 0383 54       		.byte	0x54
 4765 0384 82000000 		.4byte	.LVL76
 4766 0388 84000000 		.4byte	.LVL77
 4767 038c 0100     		.2byte	0x1
 4768 038e 53       		.byte	0x53
 4769 038f 84000000 		.4byte	.LVL77
 4770 0393 8A000000 		.4byte	.LVL78
 4771 0397 0100     		.2byte	0x1
 4772 0399 54       		.byte	0x54
 4773 039a 8A000000 		.4byte	.LVL78
 4774 039e 98000000 		.4byte	.LFE47
 4775 03a2 0300     		.2byte	0x3
 4776 03a4 73       		.byte	0x73
 4777 03a5 7F       		.sleb128 -1
 4778 03a6 9F       		.byte	0x9f
 4779 03a7 00000000 		.4byte	0
 4780 03ab 00000000 		.4byte	0
 4781              	.LLST20:
 4782 03af 1C000000 		.4byte	.LVL63
 4783 03b3 1E000000 		.4byte	.LVL64
 4784 03b7 0100     		.2byte	0x1
 4785 03b9 53       		.byte	0x53
 4786 03ba 26000000 		.4byte	.LVL65
 4787 03be 2A000000 		.4byte	.LVL67
 4788 03c2 1500     		.2byte	0x15
 4789 03c4 77       		.byte	0x77
 4790 03c5 00       		.sleb128 0
 4791 03c6 31       		.byte	0x31
 4792 03c7 24       		.byte	0x24
 4793 03c8 77       		.byte	0x77
 4794 03c9 00       		.sleb128 0
ARM GAS  C:\Users\ikomb\AppData\Local\Temp\ccZFcZfB.s 			page 118


 4795 03ca 22       		.byte	0x22
 4796 03cb 34       		.byte	0x34
 4797 03cc 24       		.byte	0x24
 4798 03cd 72       		.byte	0x72
 4799 03ce 00       		.sleb128 0
 4800 03cf 22       		.byte	0x22
 4801 03d0 23       		.byte	0x23
 4802 03d1 18       		.uleb128 0x18
 4803 03d2 94       		.byte	0x94
 4804 03d3 02       		.byte	0x2
 4805 03d4 0A       		.byte	0xa
 4806 03d5 FFFF     		.2byte	0xffff
 4807 03d7 1A       		.byte	0x1a
 4808 03d8 9F       		.byte	0x9f
 4809 03d9 6C000000 		.4byte	.LVL73
 4810 03dd 7C000000 		.4byte	.LVL74
 4811 03e1 1500     		.2byte	0x15
 4812 03e3 77       		.byte	0x77
 4813 03e4 00       		.sleb128 0
 4814 03e5 31       		.byte	0x31
 4815 03e6 24       		.byte	0x24
 4816 03e7 77       		.byte	0x77
 4817 03e8 00       		.sleb128 0
 4818 03e9 22       		.byte	0x22
 4819 03ea 34       		.byte	0x34
 4820 03eb 24       		.byte	0x24
 4821 03ec 72       		.byte	0x72
 4822 03ed 00       		.sleb128 0
 4823 03ee 22       		.byte	0x22
 4824 03ef 23       		.byte	0x23
 4825 03f0 18       		.uleb128 0x18
 4826 03f1 94       		.byte	0x94
 4827 03f2 02       		.byte	0x2
 4828 03f3 0A       		.byte	0xa
 4829 03f4 FFFF     		.2byte	0xffff
 4830 03f6 1A       		.byte	0x1a
 4831 03f7 9F       		.byte	0x9f
 4832 03f8 00000000 		.4byte	0
 4833 03fc 00000000 		.4byte	0
 4834              	.LLST21:
 4835 0400 0C000000 		.4byte	.LVL61
 4836 0404 1E000000 		.4byte	.LVL64
 4837 0408 0200     		.2byte	0x2
 4838 040a 30       		.byte	0x30
 4839 040b 9F       		.byte	0x9f
 4840 040c 28000000 		.4byte	.LVL66
 4841 0410 32000000 		.4byte	.LVL68
 4842 0414 0200     		.2byte	0x2
 4843 0416 73       		.byte	0x73
 4844 0417 08       		.sleb128 8
 4845 0418 32000000 		.4byte	.LVL68
 4846 041c 82000000 		.4byte	.LVL76
 4847 0420 0100     		.2byte	0x1
 4848 0422 55       		.byte	0x55
 4849 0423 00000000 		.4byte	0
 4850 0427 00000000 		.4byte	0
 4851              	.LLST22:
ARM GAS  C:\Users\ikomb\AppData\Local\Temp\ccZFcZfB.s 			page 119


 4852 042b 1A000000 		.4byte	.LVL62
 4853 042f 1E000000 		.4byte	.LVL64
 4854 0433 0100     		.2byte	0x1
 4855 0435 52       		.byte	0x52
 4856 0436 1E000000 		.4byte	.LVL64
 4857 043a 8A000000 		.4byte	.LVL80
 4858 043e 0100     		.2byte	0x1
 4859 0440 59       		.byte	0x59
 4860 0441 00000000 		.4byte	0
 4861 0445 00000000 		.4byte	0
 4862              	.LLST23:
 4863 0449 0C000000 		.4byte	.LVL61
 4864 044d 1E000000 		.4byte	.LVL64
 4865 0451 0200     		.2byte	0x2
 4866 0453 30       		.byte	0x30
 4867 0454 9F       		.byte	0x9f
 4868 0455 38000000 		.4byte	.LVL69
 4869 0459 44000000 		.4byte	.LVL70
 4870 045d 0200     		.2byte	0x2
 4871 045f 73       		.byte	0x73
 4872 0460 24       		.sleb128 36
 4873 0461 44000000 		.4byte	.LVL70
 4874 0465 82000000 		.4byte	.LVL76
 4875 0469 0100     		.2byte	0x1
 4876 046b 58       		.byte	0x58
 4877 046c 00000000 		.4byte	0
 4878 0470 00000000 		.4byte	0
 4879              	.LLST24:
 4880 0474 02000000 		.4byte	.LVL81
 4881 0478 06000000 		.4byte	.LVL82
 4882 047c 0200     		.2byte	0x2
 4883 047e 33       		.byte	0x33
 4884 047f 9F       		.byte	0x9f
 4885 0480 06000000 		.4byte	.LVL82
 4886 0484 0E000000 		.4byte	.LVL84
 4887 0488 0100     		.2byte	0x1
 4888 048a 54       		.byte	0x54
 4889 048b 0E000000 		.4byte	.LVL84
 4890 048f 10000000 		.4byte	.LVL85
 4891 0493 0100     		.2byte	0x1
 4892 0495 53       		.byte	0x53
 4893 0496 10000000 		.4byte	.LVL85
 4894 049a 14000000 		.4byte	.LVL86
 4895 049e 0100     		.2byte	0x1
 4896 04a0 54       		.byte	0x54
 4897 04a1 14000000 		.4byte	.LVL86
 4898 04a5 16000000 		.4byte	.LFE46
 4899 04a9 0300     		.2byte	0x3
 4900 04ab 73       		.byte	0x73
 4901 04ac 7F       		.sleb128 -1
 4902 04ad 9F       		.byte	0x9f
 4903 04ae 00000000 		.4byte	0
 4904 04b2 00000000 		.4byte	0
 4905              	.LLST25:
 4906 04b6 00000000 		.4byte	.LVL88
 4907 04ba 1C000000 		.4byte	.LVL94
 4908 04be 0100     		.2byte	0x1
ARM GAS  C:\Users\ikomb\AppData\Local\Temp\ccZFcZfB.s 			page 120


 4909 04c0 50       		.byte	0x50
 4910 04c1 1C000000 		.4byte	.LVL94
 4911 04c5 34000000 		.4byte	.LFE52
 4912 04c9 0400     		.2byte	0x4
 4913 04cb F3       		.byte	0xf3
 4914 04cc 01       		.uleb128 0x1
 4915 04cd 50       		.byte	0x50
 4916 04ce 9F       		.byte	0x9f
 4917 04cf 00000000 		.4byte	0
 4918 04d3 00000000 		.4byte	0
 4919              	.LLST26:
 4920 04d7 00000000 		.4byte	.LVL88
 4921 04db 10000000 		.4byte	.LVL91
 4922 04df 0100     		.2byte	0x1
 4923 04e1 51       		.byte	0x51
 4924 04e2 10000000 		.4byte	.LVL91
 4925 04e6 34000000 		.4byte	.LFE52
 4926 04ea 0400     		.2byte	0x4
 4927 04ec F3       		.byte	0xf3
 4928 04ed 01       		.uleb128 0x1
 4929 04ee 51       		.byte	0x51
 4930 04ef 9F       		.byte	0x9f
 4931 04f0 00000000 		.4byte	0
 4932 04f4 00000000 		.4byte	0
 4933              	.LLST27:
 4934 04f8 02000000 		.4byte	.LVL89
 4935 04fc 0C000000 		.4byte	.LVL90
 4936 0500 0200     		.2byte	0x2
 4937 0502 30       		.byte	0x30
 4938 0503 9F       		.byte	0x9f
 4939 0504 0C000000 		.4byte	.LVL90
 4940 0508 16000000 		.4byte	.LVL92
 4941 050c 0200     		.2byte	0x2
 4942 050e 73       		.byte	0x73
 4943 050f 08       		.sleb128 8
 4944 0510 16000000 		.4byte	.LVL92
 4945 0514 2D000000 		.4byte	.LVL96-1
 4946 0518 0100     		.2byte	0x1
 4947 051a 51       		.byte	0x51
 4948 051b 00000000 		.4byte	0
 4949 051f 00000000 		.4byte	0
 4950              	.LLST28:
 4951 0523 28000000 		.4byte	.LVL95
 4952 0527 2E000000 		.4byte	.LVL97
 4953 052b 0100     		.2byte	0x1
 4954 052d 54       		.byte	0x54
 4955 052e 00000000 		.4byte	0
 4956 0532 00000000 		.4byte	0
 4957              	.LLST29:
 4958 0536 02000000 		.4byte	.LVL101
 4959 053a 06000000 		.4byte	.LVL102
 4960 053e 0200     		.2byte	0x2
 4961 0540 31       		.byte	0x31
 4962 0541 9F       		.byte	0x9f
 4963 0542 06000000 		.4byte	.LVL102
 4964 0546 3C000000 		.4byte	.LVL105
 4965 054a 0100     		.2byte	0x1
ARM GAS  C:\Users\ikomb\AppData\Local\Temp\ccZFcZfB.s 			page 121


 4966 054c 54       		.byte	0x54
 4967 054d 3C000000 		.4byte	.LVL105
 4968 0551 3E000000 		.4byte	.LVL106
 4969 0555 0100     		.2byte	0x1
 4970 0557 53       		.byte	0x53
 4971 0558 3E000000 		.4byte	.LVL106
 4972 055c 42000000 		.4byte	.LVL107
 4973 0560 0100     		.2byte	0x1
 4974 0562 54       		.byte	0x54
 4975 0563 42000000 		.4byte	.LVL107
 4976 0567 44000000 		.4byte	.LFE55
 4977 056b 0300     		.2byte	0x3
 4978 056d 73       		.byte	0x73
 4979 056e 7F       		.sleb128 -1
 4980 056f 9F       		.byte	0x9f
 4981 0570 00000000 		.4byte	0
 4982 0574 00000000 		.4byte	0
 4983              	.LLST30:
 4984 0578 2C000000 		.4byte	.LVL103
 4985 057c 3A000000 		.4byte	.LVL104
 4986 0580 0100     		.2byte	0x1
 4987 0582 55       		.byte	0x55
 4988 0583 00000000 		.4byte	0
 4989 0587 00000000 		.4byte	0
 4990              	.LLST31:
 4991 058b 00000000 		.4byte	.LVL108
 4992 058f 1C000000 		.4byte	.LVL114
 4993 0593 0100     		.2byte	0x1
 4994 0595 50       		.byte	0x50
 4995 0596 1C000000 		.4byte	.LVL114
 4996 059a 34000000 		.4byte	.LFE53
 4997 059e 0400     		.2byte	0x4
 4998 05a0 F3       		.byte	0xf3
 4999 05a1 01       		.uleb128 0x1
 5000 05a2 50       		.byte	0x50
 5001 05a3 9F       		.byte	0x9f
 5002 05a4 00000000 		.4byte	0
 5003 05a8 00000000 		.4byte	0
 5004              	.LLST32:
 5005 05ac 00000000 		.4byte	.LVL108
 5006 05b0 10000000 		.4byte	.LVL111
 5007 05b4 0100     		.2byte	0x1
 5008 05b6 51       		.byte	0x51
 5009 05b7 10000000 		.4byte	.LVL111
 5010 05bb 34000000 		.4byte	.LFE53
 5011 05bf 0400     		.2byte	0x4
 5012 05c1 F3       		.byte	0xf3
 5013 05c2 01       		.uleb128 0x1
 5014 05c3 51       		.byte	0x51
 5015 05c4 9F       		.byte	0x9f
 5016 05c5 00000000 		.4byte	0
 5017 05c9 00000000 		.4byte	0
 5018              	.LLST33:
 5019 05cd 02000000 		.4byte	.LVL109
 5020 05d1 0C000000 		.4byte	.LVL110
 5021 05d5 0200     		.2byte	0x2
 5022 05d7 30       		.byte	0x30
ARM GAS  C:\Users\ikomb\AppData\Local\Temp\ccZFcZfB.s 			page 122


 5023 05d8 9F       		.byte	0x9f
 5024 05d9 0C000000 		.4byte	.LVL110
 5025 05dd 16000000 		.4byte	.LVL112
 5026 05e1 0200     		.2byte	0x2
 5027 05e3 73       		.byte	0x73
 5028 05e4 08       		.sleb128 8
 5029 05e5 16000000 		.4byte	.LVL112
 5030 05e9 2D000000 		.4byte	.LVL116-1
 5031 05ed 0100     		.2byte	0x1
 5032 05ef 51       		.byte	0x51
 5033 05f0 00000000 		.4byte	0
 5034 05f4 00000000 		.4byte	0
 5035              	.LLST34:
 5036 05f8 28000000 		.4byte	.LVL115
 5037 05fc 2E000000 		.4byte	.LVL117
 5038 0600 0100     		.2byte	0x1
 5039 0602 54       		.byte	0x54
 5040 0603 00000000 		.4byte	0
 5041 0607 00000000 		.4byte	0
 5042              	.LLST35:
 5043 060b 00000000 		.4byte	.LVL120
 5044 060f 1A000000 		.4byte	.LVL125
 5045 0613 0100     		.2byte	0x1
 5046 0615 50       		.byte	0x50
 5047 0616 1A000000 		.4byte	.LVL125
 5048 061a 38000000 		.4byte	.LFE58
 5049 061e 0400     		.2byte	0x4
 5050 0620 F3       		.byte	0xf3
 5051 0621 01       		.uleb128 0x1
 5052 0622 50       		.byte	0x50
 5053 0623 9F       		.byte	0x9f
 5054 0624 00000000 		.4byte	0
 5055 0628 00000000 		.4byte	0
 5056              	.LLST36:
 5057 062c 00000000 		.4byte	.LVL120
 5058 0630 24000000 		.4byte	.LVL127
 5059 0634 0100     		.2byte	0x1
 5060 0636 51       		.byte	0x51
 5061 0637 24000000 		.4byte	.LVL127
 5062 063b 38000000 		.4byte	.LFE58
 5063 063f 0400     		.2byte	0x4
 5064 0641 F3       		.byte	0xf3
 5065 0642 01       		.uleb128 0x1
 5066 0643 51       		.byte	0x51
 5067 0644 9F       		.byte	0x9f
 5068 0645 00000000 		.4byte	0
 5069 0649 00000000 		.4byte	0
 5070              	.LLST37:
 5071 064d 10000000 		.4byte	.LVL122
 5072 0651 30000000 		.4byte	.LVL131
 5073 0655 0100     		.2byte	0x1
 5074 0657 55       		.byte	0x55
 5075 0658 30000000 		.4byte	.LVL131
 5076 065c 30000000 		.4byte	.LVL133
 5077 0660 1000     		.2byte	0x10
 5078 0662 F3       		.byte	0xf3
 5079 0663 01       		.uleb128 0x1
ARM GAS  C:\Users\ikomb\AppData\Local\Temp\ccZFcZfB.s 			page 123


 5080 0664 50       		.byte	0x50
 5081 0665 31       		.byte	0x31
 5082 0666 24       		.byte	0x24
 5083 0667 F3       		.byte	0xf3
 5084 0668 01       		.uleb128 0x1
 5085 0669 50       		.byte	0x50
 5086 066a 22       		.byte	0x22
 5087 066b 34       		.byte	0x34
 5088 066c 24       		.byte	0x24
 5089 066d 77       		.byte	0x77
 5090 066e 00       		.sleb128 0
 5091 066f 22       		.byte	0x22
 5092 0670 23       		.byte	0x23
 5093 0671 04       		.uleb128 0x4
 5094 0672 00000000 		.4byte	0
 5095 0676 00000000 		.4byte	0
 5096              	.LLST38:
 5097 067a 10000000 		.4byte	.LVL122
 5098 067e 12000000 		.4byte	.LVL123
 5099 0682 0200     		.2byte	0x2
 5100 0684 30       		.byte	0x30
 5101 0685 9F       		.byte	0x9f
 5102 0686 12000000 		.4byte	.LVL123
 5103 068a 18000000 		.4byte	.LVL124
 5104 068e 0100     		.2byte	0x1
 5105 0690 56       		.byte	0x56
 5106 0691 18000000 		.4byte	.LVL124
 5107 0695 30000000 		.4byte	.LVL130
 5108 0699 0600     		.2byte	0x6
 5109 069b 76       		.byte	0x76
 5110 069c 00       		.sleb128 0
 5111 069d 74       		.byte	0x74
 5112 069e 00       		.sleb128 0
 5113 069f 22       		.byte	0x22
 5114 06a0 9F       		.byte	0x9f
 5115 06a1 30000000 		.4byte	.LVL130
 5116 06a5 30000000 		.4byte	.LVL132
 5117 06a9 0F00     		.2byte	0xf
 5118 06ab F3       		.byte	0xf3
 5119 06ac 01       		.uleb128 0x1
 5120 06ad 51       		.byte	0x51
 5121 06ae 32       		.byte	0x32
 5122 06af 24       		.byte	0x24
 5123 06b0 F3       		.byte	0xf3
 5124 06b1 01       		.uleb128 0x1
 5125 06b2 51       		.byte	0x51
 5126 06b3 22       		.byte	0x22
 5127 06b4 31       		.byte	0x31
 5128 06b5 24       		.byte	0x24
 5129 06b6 76       		.byte	0x76
 5130 06b7 00       		.sleb128 0
 5131 06b8 22       		.byte	0x22
 5132 06b9 9F       		.byte	0x9f
 5133 06ba 30000000 		.4byte	.LVL132
 5134 06be 30000000 		.4byte	.LVL133
 5135 06c2 1E00     		.2byte	0x1e
 5136 06c4 F3       		.byte	0xf3
ARM GAS  C:\Users\ikomb\AppData\Local\Temp\ccZFcZfB.s 			page 124


 5137 06c5 01       		.uleb128 0x1
 5138 06c6 51       		.byte	0x51
 5139 06c7 32       		.byte	0x32
 5140 06c8 24       		.byte	0x24
 5141 06c9 F3       		.byte	0xf3
 5142 06ca 01       		.uleb128 0x1
 5143 06cb 51       		.byte	0x51
 5144 06cc 22       		.byte	0x22
 5145 06cd 31       		.byte	0x31
 5146 06ce 24       		.byte	0x24
 5147 06cf F3       		.byte	0xf3
 5148 06d0 01       		.uleb128 0x1
 5149 06d1 50       		.byte	0x50
 5150 06d2 31       		.byte	0x31
 5151 06d3 24       		.byte	0x24
 5152 06d4 F3       		.byte	0xf3
 5153 06d5 01       		.uleb128 0x1
 5154 06d6 50       		.byte	0x50
 5155 06d7 22       		.byte	0x22
 5156 06d8 34       		.byte	0x34
 5157 06d9 24       		.byte	0x24
 5158 06da 77       		.byte	0x77
 5159 06db 00       		.sleb128 0
 5160 06dc 22       		.byte	0x22
 5161 06dd 23       		.byte	0x23
 5162 06de 08       		.uleb128 0x8
 5163 06df 06       		.byte	0x6
 5164 06e0 22       		.byte	0x22
 5165 06e1 9F       		.byte	0x9f
 5166 06e2 00000000 		.4byte	0
 5167 06e6 00000000 		.4byte	0
 5168              	.LLST39:
 5169 06ea 10000000 		.4byte	.LVL122
 5170 06ee 20000000 		.4byte	.LVL126
 5171 06f2 0200     		.2byte	0x2
 5172 06f4 30       		.byte	0x30
 5173 06f5 9F       		.byte	0x9f
 5174 06f6 20000000 		.4byte	.LVL126
 5175 06fa 28000000 		.4byte	.LVL128
 5176 06fe 0100     		.2byte	0x1
 5177 0700 53       		.byte	0x53
 5178 0701 28000000 		.4byte	.LVL128
 5179 0705 2F000000 		.4byte	.LVL129-1
 5180 0709 0100     		.2byte	0x1
 5181 070b 52       		.byte	0x52
 5182 070c 2F000000 		.4byte	.LVL129-1
 5183 0710 30000000 		.4byte	.LVL133
 5184 0714 1E00     		.2byte	0x1e
 5185 0716 F3       		.byte	0xf3
 5186 0717 01       		.uleb128 0x1
 5187 0718 51       		.byte	0x51
 5188 0719 31       		.byte	0x31
 5189 071a 24       		.byte	0x24
 5190 071b F3       		.byte	0xf3
 5191 071c 01       		.uleb128 0x1
 5192 071d 51       		.byte	0x51
 5193 071e 22       		.byte	0x22
ARM GAS  C:\Users\ikomb\AppData\Local\Temp\ccZFcZfB.s 			page 125


 5194 071f 32       		.byte	0x32
 5195 0720 24       		.byte	0x24
 5196 0721 F3       		.byte	0xf3
 5197 0722 01       		.uleb128 0x1
 5198 0723 50       		.byte	0x50
 5199 0724 31       		.byte	0x31
 5200 0725 24       		.byte	0x24
 5201 0726 F3       		.byte	0xf3
 5202 0727 01       		.uleb128 0x1
 5203 0728 50       		.byte	0x50
 5204 0729 22       		.byte	0x22
 5205 072a 34       		.byte	0x34
 5206 072b 24       		.byte	0x24
 5207 072c 77       		.byte	0x77
 5208 072d 00       		.sleb128 0
 5209 072e 22       		.byte	0x22
 5210 072f 23       		.byte	0x23
 5211 0730 24       		.uleb128 0x24
 5212 0731 06       		.byte	0x6
 5213 0732 22       		.byte	0x22
 5214 0733 9F       		.byte	0x9f
 5215 0734 00000000 		.4byte	0
 5216 0738 00000000 		.4byte	0
 5217              	.LLST40:
 5218 073c 00000000 		.4byte	.LVL134
 5219 0740 1A000000 		.4byte	.LVL139
 5220 0744 0100     		.2byte	0x1
 5221 0746 50       		.byte	0x50
 5222 0747 1A000000 		.4byte	.LVL139
 5223 074b 38000000 		.4byte	.LFE59
 5224 074f 0400     		.2byte	0x4
 5225 0751 F3       		.byte	0xf3
 5226 0752 01       		.uleb128 0x1
 5227 0753 50       		.byte	0x50
 5228 0754 9F       		.byte	0x9f
 5229 0755 00000000 		.4byte	0
 5230 0759 00000000 		.4byte	0
 5231              	.LLST41:
 5232 075d 00000000 		.4byte	.LVL134
 5233 0761 24000000 		.4byte	.LVL141
 5234 0765 0100     		.2byte	0x1
 5235 0767 51       		.byte	0x51
 5236 0768 24000000 		.4byte	.LVL141
 5237 076c 38000000 		.4byte	.LFE59
 5238 0770 0400     		.2byte	0x4
 5239 0772 F3       		.byte	0xf3
 5240 0773 01       		.uleb128 0x1
 5241 0774 51       		.byte	0x51
 5242 0775 9F       		.byte	0x9f
 5243 0776 00000000 		.4byte	0
 5244 077a 00000000 		.4byte	0
 5245              	.LLST42:
 5246 077e 10000000 		.4byte	.LVL136
 5247 0782 30000000 		.4byte	.LVL145
 5248 0786 0100     		.2byte	0x1
 5249 0788 55       		.byte	0x55
 5250 0789 30000000 		.4byte	.LVL145
ARM GAS  C:\Users\ikomb\AppData\Local\Temp\ccZFcZfB.s 			page 126


 5251 078d 30000000 		.4byte	.LVL147
 5252 0791 1000     		.2byte	0x10
 5253 0793 F3       		.byte	0xf3
 5254 0794 01       		.uleb128 0x1
 5255 0795 50       		.byte	0x50
 5256 0796 31       		.byte	0x31
 5257 0797 24       		.byte	0x24
 5258 0798 F3       		.byte	0xf3
 5259 0799 01       		.uleb128 0x1
 5260 079a 50       		.byte	0x50
 5261 079b 22       		.byte	0x22
 5262 079c 34       		.byte	0x34
 5263 079d 24       		.byte	0x24
 5264 079e 77       		.byte	0x77
 5265 079f 00       		.sleb128 0
 5266 07a0 22       		.byte	0x22
 5267 07a1 23       		.byte	0x23
 5268 07a2 04       		.uleb128 0x4
 5269 07a3 00000000 		.4byte	0
 5270 07a7 00000000 		.4byte	0
 5271              	.LLST43:
 5272 07ab 10000000 		.4byte	.LVL136
 5273 07af 12000000 		.4byte	.LVL137
 5274 07b3 0200     		.2byte	0x2
 5275 07b5 30       		.byte	0x30
 5276 07b6 9F       		.byte	0x9f
 5277 07b7 12000000 		.4byte	.LVL137
 5278 07bb 18000000 		.4byte	.LVL138
 5279 07bf 0100     		.2byte	0x1
 5280 07c1 56       		.byte	0x56
 5281 07c2 18000000 		.4byte	.LVL138
 5282 07c6 30000000 		.4byte	.LVL144
 5283 07ca 0600     		.2byte	0x6
 5284 07cc 76       		.byte	0x76
 5285 07cd 00       		.sleb128 0
 5286 07ce 74       		.byte	0x74
 5287 07cf 00       		.sleb128 0
 5288 07d0 22       		.byte	0x22
 5289 07d1 9F       		.byte	0x9f
 5290 07d2 30000000 		.4byte	.LVL144
 5291 07d6 30000000 		.4byte	.LVL146
 5292 07da 0F00     		.2byte	0xf
 5293 07dc F3       		.byte	0xf3
 5294 07dd 01       		.uleb128 0x1
 5295 07de 51       		.byte	0x51
 5296 07df 32       		.byte	0x32
 5297 07e0 24       		.byte	0x24
 5298 07e1 F3       		.byte	0xf3
 5299 07e2 01       		.uleb128 0x1
 5300 07e3 51       		.byte	0x51
 5301 07e4 22       		.byte	0x22
 5302 07e5 31       		.byte	0x31
 5303 07e6 24       		.byte	0x24
 5304 07e7 76       		.byte	0x76
 5305 07e8 00       		.sleb128 0
 5306 07e9 22       		.byte	0x22
 5307 07ea 9F       		.byte	0x9f
ARM GAS  C:\Users\ikomb\AppData\Local\Temp\ccZFcZfB.s 			page 127


 5308 07eb 30000000 		.4byte	.LVL146
 5309 07ef 30000000 		.4byte	.LVL147
 5310 07f3 1E00     		.2byte	0x1e
 5311 07f5 F3       		.byte	0xf3
 5312 07f6 01       		.uleb128 0x1
 5313 07f7 51       		.byte	0x51
 5314 07f8 32       		.byte	0x32
 5315 07f9 24       		.byte	0x24
 5316 07fa F3       		.byte	0xf3
 5317 07fb 01       		.uleb128 0x1
 5318 07fc 51       		.byte	0x51
 5319 07fd 22       		.byte	0x22
 5320 07fe 31       		.byte	0x31
 5321 07ff 24       		.byte	0x24
 5322 0800 F3       		.byte	0xf3
 5323 0801 01       		.uleb128 0x1
 5324 0802 50       		.byte	0x50
 5325 0803 31       		.byte	0x31
 5326 0804 24       		.byte	0x24
 5327 0805 F3       		.byte	0xf3
 5328 0806 01       		.uleb128 0x1
 5329 0807 50       		.byte	0x50
 5330 0808 22       		.byte	0x22
 5331 0809 34       		.byte	0x34
 5332 080a 24       		.byte	0x24
 5333 080b 77       		.byte	0x77
 5334 080c 00       		.sleb128 0
 5335 080d 22       		.byte	0x22
 5336 080e 23       		.byte	0x23
 5337 080f 08       		.uleb128 0x8
 5338 0810 06       		.byte	0x6
 5339 0811 22       		.byte	0x22
 5340 0812 9F       		.byte	0x9f
 5341 0813 00000000 		.4byte	0
 5342 0817 00000000 		.4byte	0
 5343              	.LLST44:
 5344 081b 10000000 		.4byte	.LVL136
 5345 081f 20000000 		.4byte	.LVL140
 5346 0823 0200     		.2byte	0x2
 5347 0825 30       		.byte	0x30
 5348 0826 9F       		.byte	0x9f
 5349 0827 20000000 		.4byte	.LVL140
 5350 082b 28000000 		.4byte	.LVL142
 5351 082f 0100     		.2byte	0x1
 5352 0831 53       		.byte	0x53
 5353 0832 28000000 		.4byte	.LVL142
 5354 0836 2F000000 		.4byte	.LVL143-1
 5355 083a 0100     		.2byte	0x1
 5356 083c 52       		.byte	0x52
 5357 083d 2F000000 		.4byte	.LVL143-1
 5358 0841 30000000 		.4byte	.LVL147
 5359 0845 1E00     		.2byte	0x1e
 5360 0847 F3       		.byte	0xf3
 5361 0848 01       		.uleb128 0x1
 5362 0849 51       		.byte	0x51
 5363 084a 31       		.byte	0x31
 5364 084b 24       		.byte	0x24
ARM GAS  C:\Users\ikomb\AppData\Local\Temp\ccZFcZfB.s 			page 128


 5365 084c F3       		.byte	0xf3
 5366 084d 01       		.uleb128 0x1
 5367 084e 51       		.byte	0x51
 5368 084f 22       		.byte	0x22
 5369 0850 32       		.byte	0x32
 5370 0851 24       		.byte	0x24
 5371 0852 F3       		.byte	0xf3
 5372 0853 01       		.uleb128 0x1
 5373 0854 50       		.byte	0x50
 5374 0855 31       		.byte	0x31
 5375 0856 24       		.byte	0x24
 5376 0857 F3       		.byte	0xf3
 5377 0858 01       		.uleb128 0x1
 5378 0859 50       		.byte	0x50
 5379 085a 22       		.byte	0x22
 5380 085b 34       		.byte	0x34
 5381 085c 24       		.byte	0x24
 5382 085d 77       		.byte	0x77
 5383 085e 00       		.sleb128 0
 5384 085f 22       		.byte	0x22
 5385 0860 23       		.byte	0x23
 5386 0861 24       		.uleb128 0x24
 5387 0862 06       		.byte	0x6
 5388 0863 22       		.byte	0x22
 5389 0864 9F       		.byte	0x9f
 5390 0865 00000000 		.4byte	0
 5391 0869 00000000 		.4byte	0
 5392              	.LLST45:
 5393 086d 00000000 		.4byte	.LVL148
 5394 0871 08000000 		.4byte	.LVL149
 5395 0875 0100     		.2byte	0x1
 5396 0877 50       		.byte	0x50
 5397 0878 08000000 		.4byte	.LVL149
 5398 087c 0A000000 		.4byte	.LVL150
 5399 0880 0100     		.2byte	0x1
 5400 0882 53       		.byte	0x53
 5401 0883 0A000000 		.4byte	.LVL150
 5402 0887 16000000 		.4byte	.LVL152
 5403 088b 0100     		.2byte	0x1
 5404 088d 50       		.byte	0x50
 5405 088e 00000000 		.4byte	0
 5406 0892 00000000 		.4byte	0
 5407              	.LLST46:
 5408 0896 00000000 		.4byte	.LVL148
 5409 089a 0A000000 		.4byte	.LVL150
 5410 089e 0100     		.2byte	0x1
 5411 08a0 51       		.byte	0x51
 5412 08a1 0A000000 		.4byte	.LVL150
 5413 08a5 18000000 		.4byte	.LFE60
 5414 08a9 0100     		.2byte	0x1
 5415 08ab 51       		.byte	0x51
 5416 08ac 00000000 		.4byte	0
 5417 08b0 00000000 		.4byte	0
 5418              	.LLST47:
 5419 08b4 00000000 		.4byte	.LVL153
 5420 08b8 26000000 		.4byte	.LVL157
 5421 08bc 0100     		.2byte	0x1
ARM GAS  C:\Users\ikomb\AppData\Local\Temp\ccZFcZfB.s 			page 129


 5422 08be 50       		.byte	0x50
 5423 08bf 26000000 		.4byte	.LVL157
 5424 08c3 3C000000 		.4byte	.LVL159
 5425 08c7 0100     		.2byte	0x1
 5426 08c9 51       		.byte	0x51
 5427 08ca 3C000000 		.4byte	.LVL159
 5428 08ce 54000000 		.4byte	.LVL161
 5429 08d2 0100     		.2byte	0x1
 5430 08d4 58       		.byte	0x58
 5431 08d5 54000000 		.4byte	.LVL161
 5432 08d9 68000000 		.4byte	.LFE51
 5433 08dd 0100     		.2byte	0x1
 5434 08df 51       		.byte	0x51
 5435 08e0 00000000 		.4byte	0
 5436 08e4 00000000 		.4byte	0
 5437              	.LLST48:
 5438 08e8 00000000 		.4byte	.LVL153
 5439 08ec 16000000 		.4byte	.LVL155
 5440 08f0 0100     		.2byte	0x1
 5441 08f2 51       		.byte	0x51
 5442 08f3 16000000 		.4byte	.LVL155
 5443 08f7 5C000000 		.4byte	.LVL165
 5444 08fb 0100     		.2byte	0x1
 5445 08fd 57       		.byte	0x57
 5446 08fe 5C000000 		.4byte	.LVL165
 5447 0902 68000000 		.4byte	.LFE51
 5448 0906 0400     		.2byte	0x4
 5449 0908 F3       		.byte	0xf3
 5450 0909 01       		.uleb128 0x1
 5451 090a 51       		.byte	0x51
 5452 090b 9F       		.byte	0x9f
 5453 090c 00000000 		.4byte	0
 5454 0910 00000000 		.4byte	0
 5455              	.LLST49:
 5456 0914 00000000 		.4byte	.LVL153
 5457 0918 16000000 		.4byte	.LVL155
 5458 091c 0100     		.2byte	0x1
 5459 091e 52       		.byte	0x52
 5460 091f 16000000 		.4byte	.LVL155
 5461 0923 20000000 		.4byte	.LVL156
 5462 0927 0100     		.2byte	0x1
 5463 0929 59       		.byte	0x59
 5464 092a 20000000 		.4byte	.LVL156
 5465 092e 2A000000 		.4byte	.LVL158
 5466 0932 0100     		.2byte	0x1
 5467 0934 52       		.byte	0x52
 5468 0935 2A000000 		.4byte	.LVL158
 5469 0939 5C000000 		.4byte	.LVL166
 5470 093d 0100     		.2byte	0x1
 5471 093f 59       		.byte	0x59
 5472 0940 5C000000 		.4byte	.LVL166
 5473 0944 68000000 		.4byte	.LFE51
 5474 0948 0400     		.2byte	0x4
 5475 094a F3       		.byte	0xf3
 5476 094b 01       		.uleb128 0x1
 5477 094c 52       		.byte	0x52
 5478 094d 9F       		.byte	0x9f
ARM GAS  C:\Users\ikomb\AppData\Local\Temp\ccZFcZfB.s 			page 130


 5479 094e 00000000 		.4byte	0
 5480 0952 00000000 		.4byte	0
 5481              	.LLST50:
 5482 0956 12000000 		.4byte	.LVL154
 5483 095a 16000000 		.4byte	.LVL155
 5484 095e 0200     		.2byte	0x2
 5485 0960 31       		.byte	0x31
 5486 0961 9F       		.byte	0x9f
 5487 0962 16000000 		.4byte	.LVL155
 5488 0966 56000000 		.4byte	.LVL162
 5489 096a 0100     		.2byte	0x1
 5490 096c 54       		.byte	0x54
 5491 096d 56000000 		.4byte	.LVL162
 5492 0971 58000000 		.4byte	.LVL163
 5493 0975 0100     		.2byte	0x1
 5494 0977 53       		.byte	0x53
 5495 0978 58000000 		.4byte	.LVL163
 5496 097c 5C000000 		.4byte	.LVL164
 5497 0980 0100     		.2byte	0x1
 5498 0982 54       		.byte	0x54
 5499 0983 5C000000 		.4byte	.LVL164
 5500 0987 68000000 		.4byte	.LFE51
 5501 098b 0300     		.2byte	0x3
 5502 098d 73       		.byte	0x73
 5503 098e 7F       		.sleb128 -1
 5504 098f 9F       		.byte	0x9f
 5505 0990 00000000 		.4byte	0
 5506 0994 00000000 		.4byte	0
 5507              	.LLST51:
 5508 0998 40000000 		.4byte	.LVL160
 5509 099c 54000000 		.4byte	.LVL161
 5510 09a0 0100     		.2byte	0x1
 5511 09a2 50       		.byte	0x50
 5512 09a3 00000000 		.4byte	0
 5513 09a7 00000000 		.4byte	0
 5514              	.LLST52:
 5515 09ab 00000000 		.4byte	.LVL167
 5516 09af 1C000000 		.4byte	.LVL173
 5517 09b3 0100     		.2byte	0x1
 5518 09b5 50       		.byte	0x50
 5519 09b6 1C000000 		.4byte	.LVL173
 5520 09ba 34000000 		.4byte	.LFE49
 5521 09be 0400     		.2byte	0x4
 5522 09c0 F3       		.byte	0xf3
 5523 09c1 01       		.uleb128 0x1
 5524 09c2 50       		.byte	0x50
 5525 09c3 9F       		.byte	0x9f
 5526 09c4 00000000 		.4byte	0
 5527 09c8 00000000 		.4byte	0
 5528              	.LLST53:
 5529 09cc 00000000 		.4byte	.LVL167
 5530 09d0 10000000 		.4byte	.LVL170
 5531 09d4 0100     		.2byte	0x1
 5532 09d6 51       		.byte	0x51
 5533 09d7 10000000 		.4byte	.LVL170
 5534 09db 34000000 		.4byte	.LFE49
 5535 09df 0400     		.2byte	0x4
ARM GAS  C:\Users\ikomb\AppData\Local\Temp\ccZFcZfB.s 			page 131


 5536 09e1 F3       		.byte	0xf3
 5537 09e2 01       		.uleb128 0x1
 5538 09e3 51       		.byte	0x51
 5539 09e4 9F       		.byte	0x9f
 5540 09e5 00000000 		.4byte	0
 5541 09e9 00000000 		.4byte	0
 5542              	.LLST54:
 5543 09ed 02000000 		.4byte	.LVL168
 5544 09f1 0C000000 		.4byte	.LVL169
 5545 09f5 0200     		.2byte	0x2
 5546 09f7 30       		.byte	0x30
 5547 09f8 9F       		.byte	0x9f
 5548 09f9 0C000000 		.4byte	.LVL169
 5549 09fd 16000000 		.4byte	.LVL171
 5550 0a01 0200     		.2byte	0x2
 5551 0a03 73       		.byte	0x73
 5552 0a04 08       		.sleb128 8
 5553 0a05 16000000 		.4byte	.LVL171
 5554 0a09 2D000000 		.4byte	.LVL175-1
 5555 0a0d 0100     		.2byte	0x1
 5556 0a0f 51       		.byte	0x51
 5557 0a10 00000000 		.4byte	0
 5558 0a14 00000000 		.4byte	0
 5559              	.LLST55:
 5560 0a18 28000000 		.4byte	.LVL174
 5561 0a1c 2E000000 		.4byte	.LVL176
 5562 0a20 0100     		.2byte	0x1
 5563 0a22 54       		.byte	0x54
 5564 0a23 00000000 		.4byte	0
 5565 0a27 00000000 		.4byte	0
 5566              	.LLST56:
 5567 0a2b 00000000 		.4byte	.LVL179
 5568 0a2f 0B000000 		.4byte	.LVL180-1
 5569 0a33 0100     		.2byte	0x1
 5570 0a35 50       		.byte	0x50
 5571 0a36 10000000 		.4byte	.LVL181
 5572 0a3a 16000000 		.4byte	.LVL183
 5573 0a3e 0100     		.2byte	0x1
 5574 0a40 54       		.byte	0x54
 5575 0a41 00000000 		.4byte	0
 5576 0a45 00000000 		.4byte	0
 5577              	.LLST57:
 5578 0a49 00000000 		.4byte	.LVL179
 5579 0a4d 0B000000 		.4byte	.LVL180-1
 5580 0a51 0100     		.2byte	0x1
 5581 0a53 51       		.byte	0x51
 5582 0a54 0B000000 		.4byte	.LVL180-1
 5583 0a58 16000000 		.4byte	.LVL184
 5584 0a5c 0100     		.2byte	0x1
 5585 0a5e 55       		.byte	0x55
 5586 0a5f 16000000 		.4byte	.LVL184
 5587 0a63 18000000 		.4byte	.LFE57
 5588 0a67 0400     		.2byte	0x4
 5589 0a69 F3       		.byte	0xf3
 5590 0a6a 01       		.uleb128 0x1
 5591 0a6b 51       		.byte	0x51
 5592 0a6c 9F       		.byte	0x9f
ARM GAS  C:\Users\ikomb\AppData\Local\Temp\ccZFcZfB.s 			page 132


 5593 0a6d 00000000 		.4byte	0
 5594 0a71 00000000 		.4byte	0
 5595              	.LLST58:
 5596 0a75 00000000 		.4byte	.LVL179
 5597 0a79 0B000000 		.4byte	.LVL180-1
 5598 0a7d 0100     		.2byte	0x1
 5599 0a7f 52       		.byte	0x52
 5600 0a80 0B000000 		.4byte	.LVL180-1
 5601 0a84 16000000 		.4byte	.LVL185
 5602 0a88 0100     		.2byte	0x1
 5603 0a8a 56       		.byte	0x56
 5604 0a8b 16000000 		.4byte	.LVL185
 5605 0a8f 18000000 		.4byte	.LFE57
 5606 0a93 0400     		.2byte	0x4
 5607 0a95 F3       		.byte	0xf3
 5608 0a96 01       		.uleb128 0x1
 5609 0a97 52       		.byte	0x52
 5610 0a98 9F       		.byte	0x9f
 5611 0a99 00000000 		.4byte	0
 5612 0a9d 00000000 		.4byte	0
 5613              	.LLST59:
 5614 0aa1 00000000 		.4byte	.LVL186
 5615 0aa5 1C000000 		.4byte	.LVL192
 5616 0aa9 0100     		.2byte	0x1
 5617 0aab 50       		.byte	0x50
 5618 0aac 1C000000 		.4byte	.LVL192
 5619 0ab0 34000000 		.4byte	.LFE56
 5620 0ab4 0400     		.2byte	0x4
 5621 0ab6 F3       		.byte	0xf3
 5622 0ab7 01       		.uleb128 0x1
 5623 0ab8 50       		.byte	0x50
 5624 0ab9 9F       		.byte	0x9f
 5625 0aba 00000000 		.4byte	0
 5626 0abe 00000000 		.4byte	0
 5627              	.LLST60:
 5628 0ac2 00000000 		.4byte	.LVL186
 5629 0ac6 10000000 		.4byte	.LVL189
 5630 0aca 0100     		.2byte	0x1
 5631 0acc 51       		.byte	0x51
 5632 0acd 10000000 		.4byte	.LVL189
 5633 0ad1 34000000 		.4byte	.LFE56
 5634 0ad5 0400     		.2byte	0x4
 5635 0ad7 F3       		.byte	0xf3
 5636 0ad8 01       		.uleb128 0x1
 5637 0ad9 51       		.byte	0x51
 5638 0ada 9F       		.byte	0x9f
 5639 0adb 00000000 		.4byte	0
 5640 0adf 00000000 		.4byte	0
 5641              	.LLST61:
 5642 0ae3 02000000 		.4byte	.LVL187
 5643 0ae7 0C000000 		.4byte	.LVL188
 5644 0aeb 0200     		.2byte	0x2
 5645 0aed 30       		.byte	0x30
 5646 0aee 9F       		.byte	0x9f
 5647 0aef 0C000000 		.4byte	.LVL188
 5648 0af3 16000000 		.4byte	.LVL190
 5649 0af7 0200     		.2byte	0x2
ARM GAS  C:\Users\ikomb\AppData\Local\Temp\ccZFcZfB.s 			page 133


 5650 0af9 73       		.byte	0x73
 5651 0afa 08       		.sleb128 8
 5652 0afb 16000000 		.4byte	.LVL190
 5653 0aff 2D000000 		.4byte	.LVL194-1
 5654 0b03 0100     		.2byte	0x1
 5655 0b05 51       		.byte	0x51
 5656 0b06 00000000 		.4byte	0
 5657 0b0a 00000000 		.4byte	0
 5658              	.LLST62:
 5659 0b0e 28000000 		.4byte	.LVL193
 5660 0b12 2E000000 		.4byte	.LVL195
 5661 0b16 0100     		.2byte	0x1
 5662 0b18 54       		.byte	0x54
 5663 0b19 00000000 		.4byte	0
 5664 0b1d 00000000 		.4byte	0
 5665              	.LLST63:
 5666 0b21 00000000 		.4byte	.LVL198
 5667 0b25 02000000 		.4byte	.LVL199
 5668 0b29 0100     		.2byte	0x1
 5669 0b2b 50       		.byte	0x50
 5670 0b2c 02000000 		.4byte	.LVL199
 5671 0b30 12000000 		.4byte	.LFE61
 5672 0b34 0400     		.2byte	0x4
 5673 0b36 F3       		.byte	0xf3
 5674 0b37 01       		.uleb128 0x1
 5675 0b38 50       		.byte	0x50
 5676 0b39 9F       		.byte	0x9f
 5677 0b3a 00000000 		.4byte	0
 5678 0b3e 00000000 		.4byte	0
 5679              	.LLST64:
 5680 0b42 00000000 		.4byte	.LVL198
 5681 0b46 0C000000 		.4byte	.LVL202
 5682 0b4a 0100     		.2byte	0x1
 5683 0b4c 51       		.byte	0x51
 5684 0b4d 0C000000 		.4byte	.LVL202
 5685 0b51 12000000 		.4byte	.LFE61
 5686 0b55 0400     		.2byte	0x4
 5687 0b57 F3       		.byte	0xf3
 5688 0b58 01       		.uleb128 0x1
 5689 0b59 51       		.byte	0x51
 5690 0b5a 9F       		.byte	0x9f
 5691 0b5b 00000000 		.4byte	0
 5692 0b5f 00000000 		.4byte	0
 5693              	.LLST65:
 5694 0b63 00000000 		.4byte	.LVL198
 5695 0b67 0A000000 		.4byte	.LVL201
 5696 0b6b 0100     		.2byte	0x1
 5697 0b6d 52       		.byte	0x52
 5698 0b6e 0A000000 		.4byte	.LVL201
 5699 0b72 12000000 		.4byte	.LFE61
 5700 0b76 0400     		.2byte	0x4
 5701 0b78 F3       		.byte	0xf3
 5702 0b79 01       		.uleb128 0x1
 5703 0b7a 52       		.byte	0x52
 5704 0b7b 9F       		.byte	0x9f
 5705 0b7c 00000000 		.4byte	0
 5706 0b80 00000000 		.4byte	0
ARM GAS  C:\Users\ikomb\AppData\Local\Temp\ccZFcZfB.s 			page 134


 5707              	.LLST66:
 5708 0b84 00000000 		.4byte	.LVL198
 5709 0b88 06000000 		.4byte	.LVL200
 5710 0b8c 0100     		.2byte	0x1
 5711 0b8e 53       		.byte	0x53
 5712 0b8f 06000000 		.4byte	.LVL200
 5713 0b93 12000000 		.4byte	.LFE61
 5714 0b97 0400     		.2byte	0x4
 5715 0b99 F3       		.byte	0xf3
 5716 0b9a 01       		.uleb128 0x1
 5717 0b9b 53       		.byte	0x53
 5718 0b9c 9F       		.byte	0x9f
 5719 0b9d 00000000 		.4byte	0
 5720 0ba1 00000000 		.4byte	0
 5721              	.LLST67:
 5722 0ba5 00000000 		.4byte	.LVL204
 5723 0ba9 10000000 		.4byte	.LVL206
 5724 0bad 0100     		.2byte	0x1
 5725 0baf 50       		.byte	0x50
 5726 0bb0 10000000 		.4byte	.LVL206
 5727 0bb4 88000000 		.4byte	.LVL224
 5728 0bb8 0100     		.2byte	0x1
 5729 0bba 57       		.byte	0x57
 5730 0bbb 88000000 		.4byte	.LVL224
 5731 0bbf 8E000000 		.4byte	.LFE40
 5732 0bc3 0400     		.2byte	0x4
 5733 0bc5 F3       		.byte	0xf3
 5734 0bc6 01       		.uleb128 0x1
 5735 0bc7 50       		.byte	0x50
 5736 0bc8 9F       		.byte	0x9f
 5737 0bc9 00000000 		.4byte	0
 5738 0bcd 00000000 		.4byte	0
 5739              	.LLST68:
 5740 0bd1 00000000 		.4byte	.LVL204
 5741 0bd5 10000000 		.4byte	.LVL206
 5742 0bd9 0100     		.2byte	0x1
 5743 0bdb 51       		.byte	0x51
 5744 0bdc 10000000 		.4byte	.LVL206
 5745 0be0 88000000 		.4byte	.LVL223
 5746 0be4 0100     		.2byte	0x1
 5747 0be6 56       		.byte	0x56
 5748 0be7 88000000 		.4byte	.LVL223
 5749 0beb 8E000000 		.4byte	.LFE40
 5750 0bef 0400     		.2byte	0x4
 5751 0bf1 F3       		.byte	0xf3
 5752 0bf2 01       		.uleb128 0x1
 5753 0bf3 51       		.byte	0x51
 5754 0bf4 9F       		.byte	0x9f
 5755 0bf5 00000000 		.4byte	0
 5756 0bf9 00000000 		.4byte	0
 5757              	.LLST69:
 5758 0bfd 00000000 		.4byte	.LVL204
 5759 0c01 10000000 		.4byte	.LVL206
 5760 0c05 0100     		.2byte	0x1
 5761 0c07 52       		.byte	0x52
 5762 0c08 10000000 		.4byte	.LVL206
 5763 0c0c 88000000 		.4byte	.LVL222
ARM GAS  C:\Users\ikomb\AppData\Local\Temp\ccZFcZfB.s 			page 135


 5764 0c10 0100     		.2byte	0x1
 5765 0c12 55       		.byte	0x55
 5766 0c13 88000000 		.4byte	.LVL222
 5767 0c17 8E000000 		.4byte	.LFE40
 5768 0c1b 0400     		.2byte	0x4
 5769 0c1d F3       		.byte	0xf3
 5770 0c1e 01       		.uleb128 0x1
 5771 0c1f 52       		.byte	0x52
 5772 0c20 9F       		.byte	0x9f
 5773 0c21 00000000 		.4byte	0
 5774 0c25 00000000 		.4byte	0
 5775              	.LLST70:
 5776 0c29 20000000 		.4byte	.LVL207
 5777 0c2d 2A000000 		.4byte	.LVL209
 5778 0c31 0200     		.2byte	0x2
 5779 0c33 31       		.byte	0x31
 5780 0c34 9F       		.byte	0x9f
 5781 0c35 2E000000 		.4byte	.LVL210
 5782 0c39 30000000 		.4byte	.LVL211
 5783 0c3d 0200     		.2byte	0x2
 5784 0c3f 30       		.byte	0x30
 5785 0c40 9F       		.byte	0x9f
 5786 0c41 30000000 		.4byte	.LVL211
 5787 0c45 36000000 		.4byte	.LVL212
 5788 0c49 0100     		.2byte	0x1
 5789 0c4b 53       		.byte	0x53
 5790 0c4c 00000000 		.4byte	0
 5791 0c50 00000000 		.4byte	0
 5792              	.LLST71:
 5793 0c54 20000000 		.4byte	.LVL207
 5794 0c58 22000000 		.4byte	.LVL208
 5795 0c5c 0100     		.2byte	0x1
 5796 0c5e 53       		.byte	0x53
 5797 0c5f 22000000 		.4byte	.LVL208
 5798 0c63 2A000000 		.4byte	.LVL209
 5799 0c67 0100     		.2byte	0x1
 5800 0c69 58       		.byte	0x58
 5801 0c6a 2E000000 		.4byte	.LVL210
 5802 0c6e 30000000 		.4byte	.LVL211
 5803 0c72 0100     		.2byte	0x1
 5804 0c74 53       		.byte	0x53
 5805 0c75 30000000 		.4byte	.LVL211
 5806 0c79 66000000 		.4byte	.LVL215
 5807 0c7d 0100     		.2byte	0x1
 5808 0c7f 58       		.byte	0x58
 5809 0c80 00000000 		.4byte	0
 5810 0c84 00000000 		.4byte	0
 5811              	.LLST72:
 5812 0c88 0C000000 		.4byte	.LVL205
 5813 0c8c 10000000 		.4byte	.LVL206
 5814 0c90 0200     		.2byte	0x2
 5815 0c92 31       		.byte	0x31
 5816 0c93 9F       		.byte	0x9f
 5817 0c94 10000000 		.4byte	.LVL206
 5818 0c98 80000000 		.4byte	.LVL219
 5819 0c9c 0100     		.2byte	0x1
 5820 0c9e 54       		.byte	0x54
ARM GAS  C:\Users\ikomb\AppData\Local\Temp\ccZFcZfB.s 			page 136


 5821 0c9f 80000000 		.4byte	.LVL219
 5822 0ca3 82000000 		.4byte	.LVL220
 5823 0ca7 0100     		.2byte	0x1
 5824 0ca9 53       		.byte	0x53
 5825 0caa 82000000 		.4byte	.LVL220
 5826 0cae 88000000 		.4byte	.LVL221
 5827 0cb2 0100     		.2byte	0x1
 5828 0cb4 54       		.byte	0x54
 5829 0cb5 88000000 		.4byte	.LVL221
 5830 0cb9 8E000000 		.4byte	.LFE40
 5831 0cbd 0300     		.2byte	0x3
 5832 0cbf 73       		.byte	0x73
 5833 0cc0 7F       		.sleb128 -1
 5834 0cc1 9F       		.byte	0x9f
 5835 0cc2 00000000 		.4byte	0
 5836 0cc6 00000000 		.4byte	0
 5837              	.LLST73:
 5838 0cca 6A000000 		.4byte	.LVL216
 5839 0cce 7E000000 		.4byte	.LVL218
 5840 0cd2 0200     		.2byte	0x2
 5841 0cd4 31       		.byte	0x31
 5842 0cd5 9F       		.byte	0x9f
 5843 0cd6 00000000 		.4byte	0
 5844 0cda 00000000 		.4byte	0
 5845              	.LLST74:
 5846 0cde 62000000 		.4byte	.LVL214
 5847 0ce2 71000000 		.4byte	.LVL217-1
 5848 0ce6 0100     		.2byte	0x1
 5849 0ce8 51       		.byte	0x51
 5850 0ce9 72000000 		.4byte	.LVL217
 5851 0ced 7E000000 		.4byte	.LVL218
 5852 0cf1 0100     		.2byte	0x1
 5853 0cf3 50       		.byte	0x50
 5854 0cf4 00000000 		.4byte	0
 5855 0cf8 00000000 		.4byte	0
 5856              	.LLST75:
 5857 0cfc 00000000 		.4byte	.LVL225
 5858 0d00 0A000000 		.4byte	.LVL227
 5859 0d04 0100     		.2byte	0x1
 5860 0d06 50       		.byte	0x50
 5861 0d07 0A000000 		.4byte	.LVL227
 5862 0d0b 1C000000 		.4byte	.LVL232
 5863 0d0f 0100     		.2byte	0x1
 5864 0d11 53       		.byte	0x53
 5865 0d12 1C000000 		.4byte	.LVL232
 5866 0d16 2C000000 		.4byte	.LFE39
 5867 0d1a 0400     		.2byte	0x4
 5868 0d1c F3       		.byte	0xf3
 5869 0d1d 01       		.uleb128 0x1
 5870 0d1e 50       		.byte	0x50
 5871 0d1f 9F       		.byte	0x9f
 5872 0d20 00000000 		.4byte	0
 5873 0d24 00000000 		.4byte	0
 5874              	.LLST76:
 5875 0d28 00000000 		.4byte	.LVL225
 5876 0d2c 18000000 		.4byte	.LVL230
 5877 0d30 0100     		.2byte	0x1
ARM GAS  C:\Users\ikomb\AppData\Local\Temp\ccZFcZfB.s 			page 137


 5878 0d32 51       		.byte	0x51
 5879 0d33 18000000 		.4byte	.LVL230
 5880 0d37 2C000000 		.4byte	.LFE39
 5881 0d3b 0400     		.2byte	0x4
 5882 0d3d F3       		.byte	0xf3
 5883 0d3e 01       		.uleb128 0x1
 5884 0d3f 51       		.byte	0x51
 5885 0d40 9F       		.byte	0x9f
 5886 0d41 00000000 		.4byte	0
 5887 0d45 00000000 		.4byte	0
 5888              	.LLST77:
 5889 0d49 04000000 		.4byte	.LVL226
 5890 0d4d 26000000 		.4byte	.LVL233
 5891 0d51 0200     		.2byte	0x2
 5892 0d53 30       		.byte	0x30
 5893 0d54 9F       		.byte	0x9f
 5894 0d55 26000000 		.4byte	.LVL233
 5895 0d59 2C000000 		.4byte	.LFE39
 5896 0d5d 0100     		.2byte	0x1
 5897 0d5f 50       		.byte	0x50
 5898 0d60 00000000 		.4byte	0
 5899 0d64 00000000 		.4byte	0
 5900              	.LLST78:
 5901 0d68 04000000 		.4byte	.LVL226
 5902 0d6c 12000000 		.4byte	.LVL229
 5903 0d70 0200     		.2byte	0x2
 5904 0d72 30       		.byte	0x30
 5905 0d73 9F       		.byte	0x9f
 5906 0d74 12000000 		.4byte	.LVL229
 5907 0d78 1A000000 		.4byte	.LVL231
 5908 0d7c 0100     		.2byte	0x1
 5909 0d7e 56       		.byte	0x56
 5910 0d7f 1A000000 		.4byte	.LVL231
 5911 0d83 25000000 		.4byte	.LVL233-1
 5912 0d87 0100     		.2byte	0x1
 5913 0d89 51       		.byte	0x51
 5914 0d8a 25000000 		.4byte	.LVL233-1
 5915 0d8e 26000000 		.4byte	.LVL236
 5916 0d92 0F00     		.2byte	0xf
 5917 0d94 F3       		.byte	0xf3
 5918 0d95 01       		.uleb128 0x1
 5919 0d96 51       		.byte	0x51
 5920 0d97 32       		.byte	0x32
 5921 0d98 24       		.byte	0x24
 5922 0d99 F3       		.byte	0xf3
 5923 0d9a 01       		.uleb128 0x1
 5924 0d9b 51       		.byte	0x51
 5925 0d9c 22       		.byte	0x22
 5926 0d9d 31       		.byte	0x31
 5927 0d9e 24       		.byte	0x24
 5928 0d9f 76       		.byte	0x76
 5929 0da0 00       		.sleb128 0
 5930 0da1 22       		.byte	0x22
 5931 0da2 9F       		.byte	0x9f
 5932 0da3 00000000 		.4byte	0
 5933 0da7 00000000 		.4byte	0
 5934              	.LLST79:
ARM GAS  C:\Users\ikomb\AppData\Local\Temp\ccZFcZfB.s 			page 138


 5935 0dab 10000000 		.4byte	.LVL228
 5936 0daf 25000000 		.4byte	.LVL233-1
 5937 0db3 0100     		.2byte	0x1
 5938 0db5 50       		.byte	0x50
 5939 0db6 25000000 		.4byte	.LVL233-1
 5940 0dba 26000000 		.4byte	.LVL234
 5941 0dbe 0D00     		.2byte	0xd
 5942 0dc0 75       		.byte	0x75
 5943 0dc1 00       		.sleb128 0
 5944 0dc2 F3       		.byte	0xf3
 5945 0dc3 01       		.uleb128 0x1
 5946 0dc4 50       		.byte	0x50
 5947 0dc5 22       		.byte	0x22
 5948 0dc6 34       		.byte	0x34
 5949 0dc7 24       		.byte	0x24
 5950 0dc8 74       		.byte	0x74
 5951 0dc9 00       		.sleb128 0
 5952 0dca 22       		.byte	0x22
 5953 0dcb 23       		.byte	0x23
 5954 0dcc 04       		.uleb128 0x4
 5955 0dcd 00000000 		.4byte	0
 5956 0dd1 00000000 		.4byte	0
 5957              	.LLST80:
 5958 0dd5 00000000 		.4byte	.LVL237
 5959 0dd9 14000000 		.4byte	.LVL240
 5960 0ddd 0100     		.2byte	0x1
 5961 0ddf 50       		.byte	0x50
 5962 0de0 14000000 		.4byte	.LVL240
 5963 0de4 28000000 		.4byte	.LVL247
 5964 0de8 0100     		.2byte	0x1
 5965 0dea 56       		.byte	0x56
 5966 0deb 28000000 		.4byte	.LVL247
 5967 0def 30000000 		.4byte	.LFE38
 5968 0df3 0400     		.2byte	0x4
 5969 0df5 F3       		.byte	0xf3
 5970 0df6 01       		.uleb128 0x1
 5971 0df7 50       		.byte	0x50
 5972 0df8 9F       		.byte	0x9f
 5973 0df9 00000000 		.4byte	0
 5974 0dfd 00000000 		.4byte	0
 5975              	.LLST81:
 5976 0e01 10000000 		.4byte	.LVL239
 5977 0e05 14000000 		.4byte	.LVL240
 5978 0e09 0100     		.2byte	0x1
 5979 0e0b 53       		.byte	0x53
 5980 0e0c 14000000 		.4byte	.LVL240
 5981 0e10 20000000 		.4byte	.LVL243
 5982 0e14 0100     		.2byte	0x1
 5983 0e16 54       		.byte	0x54
 5984 0e17 20000000 		.4byte	.LVL243
 5985 0e1b 22000000 		.4byte	.LVL244
 5986 0e1f 0100     		.2byte	0x1
 5987 0e21 53       		.byte	0x53
 5988 0e22 22000000 		.4byte	.LVL244
 5989 0e26 28000000 		.4byte	.LVL245
 5990 0e2a 0100     		.2byte	0x1
 5991 0e2c 54       		.byte	0x54
ARM GAS  C:\Users\ikomb\AppData\Local\Temp\ccZFcZfB.s 			page 139


 5992 0e2d 28000000 		.4byte	.LVL245
 5993 0e31 30000000 		.4byte	.LFE38
 5994 0e35 0300     		.2byte	0x3
 5995 0e37 73       		.byte	0x73
 5996 0e38 7F       		.sleb128 -1
 5997 0e39 9F       		.byte	0x9f
 5998 0e3a 00000000 		.4byte	0
 5999 0e3e 00000000 		.4byte	0
 6000              	.LLST82:
 6001 0e42 10000000 		.4byte	.LVL239
 6002 0e46 14000000 		.4byte	.LVL240
 6003 0e4a 0100     		.2byte	0x1
 6004 0e4c 53       		.byte	0x53
 6005 0e4d 00000000 		.4byte	0
 6006 0e51 00000000 		.4byte	0
 6007              	.LLST83:
 6008 0e55 04000000 		.4byte	.LVL238
 6009 0e59 14000000 		.4byte	.LVL240
 6010 0e5d 0200     		.2byte	0x2
 6011 0e5f 30       		.byte	0x30
 6012 0e60 9F       		.byte	0x9f
 6013 0e61 14000000 		.4byte	.LVL240
 6014 0e65 28000000 		.4byte	.LVL246
 6015 0e69 0100     		.2byte	0x1
 6016 0e6b 55       		.byte	0x55
 6017 0e6c 28000000 		.4byte	.LVL246
 6018 0e70 30000000 		.4byte	.LFE38
 6019 0e74 0100     		.2byte	0x1
 6020 0e76 50       		.byte	0x50
 6021 0e77 00000000 		.4byte	0
 6022 0e7b 00000000 		.4byte	0
 6023              	.LLST84:
 6024 0e7f 02000000 		.4byte	.LVL248
 6025 0e83 08000000 		.4byte	.LVL249
 6026 0e87 0200     		.2byte	0x2
 6027 0e89 33       		.byte	0x33
 6028 0e8a 9F       		.byte	0x9f
 6029 0e8b 08000000 		.4byte	.LVL249
 6030 0e8f 12000000 		.4byte	.LVL252
 6031 0e93 0100     		.2byte	0x1
 6032 0e95 54       		.byte	0x54
 6033 0e96 12000000 		.4byte	.LVL252
 6034 0e9a 14000000 		.4byte	.LVL253
 6035 0e9e 0100     		.2byte	0x1
 6036 0ea0 53       		.byte	0x53
 6037 0ea1 14000000 		.4byte	.LVL253
 6038 0ea5 1A000000 		.4byte	.LVL254
 6039 0ea9 0100     		.2byte	0x1
 6040 0eab 54       		.byte	0x54
 6041 0eac 1A000000 		.4byte	.LVL254
 6042 0eb0 1C000000 		.4byte	.LFE37
 6043 0eb4 0300     		.2byte	0x3
 6044 0eb6 73       		.byte	0x73
 6045 0eb7 7F       		.sleb128 -1
 6046 0eb8 9F       		.byte	0x9f
 6047 0eb9 00000000 		.4byte	0
 6048 0ebd 00000000 		.4byte	0
ARM GAS  C:\Users\ikomb\AppData\Local\Temp\ccZFcZfB.s 			page 140


 6049              	.LLST85:
 6050 0ec1 02000000 		.4byte	.LVL248
 6051 0ec5 08000000 		.4byte	.LVL249
 6052 0ec9 0200     		.2byte	0x2
 6053 0ecb 30       		.byte	0x30
 6054 0ecc 9F       		.byte	0x9f
 6055 0ecd 08000000 		.4byte	.LVL249
 6056 0ed1 1A000000 		.4byte	.LVL255
 6057 0ed5 0100     		.2byte	0x1
 6058 0ed7 55       		.byte	0x55
 6059 0ed8 1A000000 		.4byte	.LVL255
 6060 0edc 1C000000 		.4byte	.LFE37
 6061 0ee0 0100     		.2byte	0x1
 6062 0ee2 50       		.byte	0x50
 6063 0ee3 00000000 		.4byte	0
 6064 0ee7 00000000 		.4byte	0
 6065              		.section	.debug_aranges,"",%progbits
 6066 0000 E4000000 		.4byte	0xe4
 6067 0004 0200     		.2byte	0x2
 6068 0006 00000000 		.4byte	.Ldebug_info0
 6069 000a 04       		.byte	0x4
 6070 000b 00       		.byte	0
 6071 000c 0000     		.2byte	0
 6072 000e 0000     		.2byte	0
 6073 0010 00000000 		.4byte	.LFB45
 6074 0014 1E000000 		.4byte	.LFE45-.LFB45
 6075 0018 00000000 		.4byte	.LFB44
 6076 001c 1E000000 		.4byte	.LFE44-.LFB44
 6077 0020 00000000 		.4byte	.LFB43
 6078 0024 24000000 		.4byte	.LFE43-.LFB43
 6079 0028 00000000 		.4byte	.LFB42
 6080 002c 28000000 		.4byte	.LFE42-.LFB42
 6081 0030 00000000 		.4byte	.LFB41
 6082 0034 16000000 		.4byte	.LFE41-.LFB41
 6083 0038 00000000 		.4byte	.LFB50
 6084 003c 32000000 		.4byte	.LFE50-.LFB50
 6085 0040 00000000 		.4byte	.LFB48
 6086 0044 34000000 		.4byte	.LFE48-.LFB48
 6087 0048 00000000 		.4byte	.LFB54
 6088 004c 2E000000 		.4byte	.LFE54-.LFB54
 6089 0050 00000000 		.4byte	.LFB47
 6090 0054 98000000 		.4byte	.LFE47-.LFB47
 6091 0058 00000000 		.4byte	.LFB46
 6092 005c 16000000 		.4byte	.LFE46-.LFB46
 6093 0060 00000000 		.4byte	.LFB36
 6094 0064 08000000 		.4byte	.LFE36-.LFB36
 6095 0068 00000000 		.4byte	.LFB52
 6096 006c 34000000 		.4byte	.LFE52-.LFB52
 6097 0070 00000000 		.4byte	.LFB55
 6098 0074 44000000 		.4byte	.LFE55-.LFB55
 6099 0078 00000000 		.4byte	.LFB53
 6100 007c 34000000 		.4byte	.LFE53-.LFB53
 6101 0080 00000000 		.4byte	.LFB58
 6102 0084 38000000 		.4byte	.LFE58-.LFB58
 6103 0088 00000000 		.4byte	.LFB59
 6104 008c 38000000 		.4byte	.LFE59-.LFB59
 6105 0090 00000000 		.4byte	.LFB60
ARM GAS  C:\Users\ikomb\AppData\Local\Temp\ccZFcZfB.s 			page 141


 6106 0094 18000000 		.4byte	.LFE60-.LFB60
 6107 0098 00000000 		.4byte	.LFB51
 6108 009c 68000000 		.4byte	.LFE51-.LFB51
 6109 00a0 00000000 		.4byte	.LFB49
 6110 00a4 34000000 		.4byte	.LFE49-.LFB49
 6111 00a8 00000000 		.4byte	.LFB57
 6112 00ac 18000000 		.4byte	.LFE57-.LFB57
 6113 00b0 00000000 		.4byte	.LFB56
 6114 00b4 34000000 		.4byte	.LFE56-.LFB56
 6115 00b8 00000000 		.4byte	.LFB61
 6116 00bc 12000000 		.4byte	.LFE61-.LFB61
 6117 00c0 00000000 		.4byte	.LFB40
 6118 00c4 8E000000 		.4byte	.LFE40-.LFB40
 6119 00c8 00000000 		.4byte	.LFB39
 6120 00cc 2C000000 		.4byte	.LFE39-.LFB39
 6121 00d0 00000000 		.4byte	.LFB38
 6122 00d4 30000000 		.4byte	.LFE38-.LFB38
 6123 00d8 00000000 		.4byte	.LFB37
 6124 00dc 1C000000 		.4byte	.LFE37-.LFB37
 6125 00e0 00000000 		.4byte	0
 6126 00e4 00000000 		.4byte	0
 6127              		.section	.debug_ranges,"",%progbits
 6128              	.Ldebug_ranges0:
 6129 0000 00000000 		.4byte	.LFB45
 6130 0004 1E000000 		.4byte	.LFE45
 6131 0008 00000000 		.4byte	.LFB44
 6132 000c 1E000000 		.4byte	.LFE44
 6133 0010 00000000 		.4byte	.LFB43
 6134 0014 24000000 		.4byte	.LFE43
 6135 0018 00000000 		.4byte	.LFB42
 6136 001c 28000000 		.4byte	.LFE42
 6137 0020 00000000 		.4byte	.LFB41
 6138 0024 16000000 		.4byte	.LFE41
 6139 0028 00000000 		.4byte	.LFB50
 6140 002c 32000000 		.4byte	.LFE50
 6141 0030 00000000 		.4byte	.LFB48
 6142 0034 34000000 		.4byte	.LFE48
 6143 0038 00000000 		.4byte	.LFB54
 6144 003c 2E000000 		.4byte	.LFE54
 6145 0040 00000000 		.4byte	.LFB47
 6146 0044 98000000 		.4byte	.LFE47
 6147 0048 00000000 		.4byte	.LFB46
 6148 004c 16000000 		.4byte	.LFE46
 6149 0050 00000000 		.4byte	.LFB36
 6150 0054 08000000 		.4byte	.LFE36
 6151 0058 00000000 		.4byte	.LFB52
 6152 005c 34000000 		.4byte	.LFE52
 6153 0060 00000000 		.4byte	.LFB55
 6154 0064 44000000 		.4byte	.LFE55
 6155 0068 00000000 		.4byte	.LFB53
 6156 006c 34000000 		.4byte	.LFE53
 6157 0070 00000000 		.4byte	.LFB58
 6158 0074 38000000 		.4byte	.LFE58
 6159 0078 00000000 		.4byte	.LFB59
 6160 007c 38000000 		.4byte	.LFE59
 6161 0080 00000000 		.4byte	.LFB60
 6162 0084 18000000 		.4byte	.LFE60
ARM GAS  C:\Users\ikomb\AppData\Local\Temp\ccZFcZfB.s 			page 142


 6163 0088 00000000 		.4byte	.LFB51
 6164 008c 68000000 		.4byte	.LFE51
 6165 0090 00000000 		.4byte	.LFB49
 6166 0094 34000000 		.4byte	.LFE49
 6167 0098 00000000 		.4byte	.LFB57
 6168 009c 18000000 		.4byte	.LFE57
 6169 00a0 00000000 		.4byte	.LFB56
 6170 00a4 34000000 		.4byte	.LFE56
 6171 00a8 00000000 		.4byte	.LFB61
 6172 00ac 12000000 		.4byte	.LFE61
 6173 00b0 00000000 		.4byte	.LFB40
 6174 00b4 8E000000 		.4byte	.LFE40
 6175 00b8 00000000 		.4byte	.LFB39
 6176 00bc 2C000000 		.4byte	.LFE39
 6177 00c0 00000000 		.4byte	.LFB38
 6178 00c4 30000000 		.4byte	.LFE38
 6179 00c8 00000000 		.4byte	.LFB37
 6180 00cc 1C000000 		.4byte	.LFE37
 6181 00d0 00000000 		.4byte	0
 6182 00d4 00000000 		.4byte	0
 6183              		.section	.debug_line,"",%progbits
 6184              	.Ldebug_line0:
 6185 0000 BF040000 		.section	.debug_str,"MS",%progbits,1
 6185      0200D001 
 6185      00000201 
 6185      FB0E0D00 
 6185      01010101 
 6186              	.LASF22:
 6187 0000 75696E74 		.ascii	"uint16\000"
 6187      313600
 6188              	.LASF79:
 6189 0007 70747232 		.ascii	"ptr2PosHistory\000"
 6189      506F7348 
 6189      6973746F 
 6189      727900
 6190              	.LASF110:
 6191 0016 70747257 		.ascii	"ptrWidgetRam\000"
 6191      69646765 
 6191      7452616D 
 6191      00
 6192              	.LASF141:
 6193 0023 536D6172 		.ascii	"SmartSense_RunNoiseEnvelope\000"
 6193      7453656E 
 6193      73655F52 
 6193      756E4E6F 
 6193      69736545 
 6194              	.LASF83:
 6195 003f 43617053 		.ascii	"CapSense_FLASH_STRUCT\000"
 6195      656E7365 
 6195      5F464C41 
 6195      53485F53 
 6195      54525543 
 6196              	.LASF137:
 6197 0055 43617053 		.ascii	"CapSense_UpdateWidgetBaseline\000"
 6197      656E7365 
 6197      5F557064 
 6197      61746557 
ARM GAS  C:\Users\ikomb\AppData\Local\Temp\ccZFcZfB.s 			page 143


 6197      69646765 
 6198              	.LASF95:
 6199 0073 43617053 		.ascii	"CapSense_FtInitializeBaseline\000"
 6199      656E7365 
 6199      5F467449 
 6199      6E697469 
 6199      616C697A 
 6200              	.LASF6:
 6201 0091 5F5F7569 		.ascii	"__uint8_t\000"
 6201      6E74385F 
 6201      7400
 6202              	.LASF56:
 6203 009b 66696E67 		.ascii	"fingerCap\000"
 6203      65724361 
 6203      7000
 6204              	.LASF43:
 6205 00a5 43617053 		.ascii	"CapSense_SENSE_METHOD_CSX_E\000"
 6205      656E7365 
 6205      5F53454E 
 6205      53455F4D 
 6205      4554484F 
 6206              	.LASF80:
 6207 00c1 69697246 		.ascii	"iirFilterCoeff\000"
 6207      696C7465 
 6207      72436F65 
 6207      666600
 6208              	.LASF115:
 6209 00d0 43617053 		.ascii	"CapSense_RunAverageInternal\000"
 6209      656E7365 
 6209      5F52756E 
 6209      41766572 
 6209      61676549 
 6210              	.LASF64:
 6211 00ec 43617053 		.ascii	"CapSense_RAM_SNS_STRUCT\000"
 6211      656E7365 
 6211      5F52414D 
 6211      5F534E53 
 6211      5F535452 
 6212              	.LASF12:
 6213 0104 6C6F6E67 		.ascii	"long long unsigned int\000"
 6213      206C6F6E 
 6213      6720756E 
 6213      7369676E 
 6213      65642069 
 6214              	.LASF107:
 6215 011b 43617053 		.ascii	"CapSense_InitializeMedian\000"
 6215      656E7365 
 6215      5F496E69 
 6215      7469616C 
 6215      697A654D 
 6216              	.LASF65:
 6217 0135 70747232 		.ascii	"ptr2SnsFlash\000"
 6217      536E7346 
 6217      6C617368 
 6217      00
 6218              	.LASF20:
 6219 0142 63795F73 		.ascii	"cy_status\000"
ARM GAS  C:\Users\ikomb\AppData\Local\Temp\ccZFcZfB.s 			page 144


 6219      74617475 
 6219      7300
 6220              	.LASF61:
 6221 014c 64696666 		.ascii	"diff\000"
 6221      00
 6222              	.LASF25:
 6223 0151 43617053 		.ascii	"CapSense_LOW_BSLN_RST_TYPE\000"
 6223      656E7365 
 6223      5F4C4F57 
 6223      5F42534C 
 6223      4E5F5253 
 6224              	.LASF129:
 6225 016c 66696C74 		.ascii	"filteredOutput\000"
 6225      65726564 
 6225      4F757470 
 6225      757400
 6226              	.LASF145:
 6227 017b 43617053 		.ascii	"CapSense_dsFlash\000"
 6227      656E7365 
 6227      5F647346 
 6227      6C617368 
 6227      00
 6228              	.LASF24:
 6229 018c 43617053 		.ascii	"CapSense_THRESHOLD_TYPE\000"
 6229      656E7365 
 6229      5F544852 
 6229      4553484F 
 6229      4C445F54 
 6230              	.LASF35:
 6231 01a4 43617053 		.ascii	"CapSense_WD_LINEAR_SLIDER_E\000"
 6231      656E7365 
 6231      5F57445F 
 6231      4C494E45 
 6231      41525F53 
 6232              	.LASF119:
 6233 01c0 43617053 		.ascii	"CapSense_InitializeNoiseEnvelope\000"
 6233      656E7365 
 6233      5F496E69 
 6233      7469616C 
 6233      697A654E 
 6234              	.LASF133:
 6235 01e1 62617365 		.ascii	"baselineCoeff\000"
 6235      6C696E65 
 6235      436F6566 
 6235      6600
 6236              	.LASF1:
 6237 01ef 6C6F6E67 		.ascii	"long long int\000"
 6237      206C6F6E 
 6237      6720696E 
 6237      7400
 6238              	.LASF3:
 6239 01fd 7369676E 		.ascii	"signed char\000"
 6239      65642063 
 6239      68617200 
 6240              	.LASF88:
 6241 0209 43617053 		.ascii	"CapSense_REGULAR_FLTR_STRUCT\000"
 6241      656E7365 
ARM GAS  C:\Users\ikomb\AppData\Local\Temp\ccZFcZfB.s 			page 145


 6241      5F524547 
 6241      554C4152 
 6241      5F464C54 
 6242              	.LASF9:
 6243 0226 6C6F6E67 		.ascii	"long int\000"
 6243      20696E74 
 6243      00
 6244              	.LASF67:
 6245 022f 70747232 		.ascii	"ptr2SnsRam\000"
 6245      536E7352 
 6245      616D00
 6246              	.LASF126:
 6247 023a 696E7075 		.ascii	"input\000"
 6247      7400
 6248              	.LASF21:
 6249 0240 75696E74 		.ascii	"uint8\000"
 6249      3800
 6250              	.LASF14:
 6251 0246 75696E74 		.ascii	"uint16_t\000"
 6251      31365F74 
 6251      00
 6252              	.LASF19:
 6253 024f 646F7562 		.ascii	"double\000"
 6253      6C6500
 6254              	.LASF45:
 6255 0256 43617053 		.ascii	"CapSense_SENSE_METHOD_ENUM\000"
 6255      656E7365 
 6255      5F53454E 
 6255      53455F4D 
 6255      4554484F 
 6256              	.LASF76:
 6257 0271 78526573 		.ascii	"xResolution\000"
 6257      6F6C7574 
 6257      696F6E00 
 6258              	.LASF128:
 6259 027d 73686966 		.ascii	"shift\000"
 6259      7400
 6260              	.LASF98:
 6261 0283 73656E73 		.ascii	"sensorId\000"
 6261      6F724964 
 6261      00
 6262              	.LASF23:
 6263 028c 75696E74 		.ascii	"uint32\000"
 6263      333200
 6264              	.LASF50:
 6265 0293 68797374 		.ascii	"hysteresis\000"
 6265      65726573 
 6265      697300
 6266              	.LASF10:
 6267 029e 5F5F7569 		.ascii	"__uint32_t\000"
 6267      6E743332 
 6267      5F7400
 6268              	.LASF60:
 6269 02a9 62736C6E 		.ascii	"bslnExt\000"
 6269      45787400 
 6270              	.LASF44:
 6271 02b1 43617053 		.ascii	"CapSense_SENSE_METHOD_BIST_E\000"
ARM GAS  C:\Users\ikomb\AppData\Local\Temp\ccZFcZfB.s 			page 146


 6271      656E7365 
 6271      5F53454E 
 6271      53455F4D 
 6271      4554484F 
 6272              	.LASF75:
 6273 02ce 6E756D52 		.ascii	"numRows\000"
 6273      6F777300 
 6274              	.LASF101:
 6275 02d6 73656E73 		.ascii	"sensorsNumber\000"
 6275      6F72734E 
 6275      756D6265 
 6275      7200
 6276              	.LASF37:
 6277 02e4 43617053 		.ascii	"CapSense_WD_MATRIX_BUTTON_E\000"
 6277      656E7365 
 6277      5F57445F 
 6277      4D415452 
 6277      49585F42 
 6278              	.LASF116:
 6279 0300 74656D70 		.ascii	"temp\000"
 6279      00
 6280              	.LASF59:
 6281 0305 62736C6E 		.ascii	"bsln\000"
 6281      00
 6282              	.LASF0:
 6283 030a 756E7369 		.ascii	"unsigned int\000"
 6283      676E6564 
 6283      20696E74 
 6283      00
 6284              	.LASF78:
 6285 0317 70747232 		.ascii	"ptr2NoiseEnvlp\000"
 6285      4E6F6973 
 6285      65456E76 
 6285      6C7000
 6286              	.LASF11:
 6287 0326 6C6F6E67 		.ascii	"long unsigned int\000"
 6287      20756E73 
 6287      69676E65 
 6287      6420696E 
 6287      7400
 6288              	.LASF84:
 6289 0338 6D656448 		.ascii	"medHistory\000"
 6289      6973746F 
 6289      727900
 6290              	.LASF120:
 6291 0343 43617053 		.ascii	"CapSense_RunMedianInternal\000"
 6291      656E7365 
 6291      5F52756E 
 6291      4D656469 
 6291      616E496E 
 6292              	.LASF73:
 6293 035e 73656E73 		.ascii	"senseMethod\000"
 6293      654D6574 
 6293      686F6400 
 6294              	.LASF52:
 6295 036a 6C6F7742 		.ascii	"lowBslnRst\000"
 6295      736C6E52 
ARM GAS  C:\Users\ikomb\AppData\Local\Temp\ccZFcZfB.s 			page 147


 6295      737400
 6296              	.LASF123:
 6297 0375 43617053 		.ascii	"CapSense_FtRunEnabledFilters\000"
 6297      656E7365 
 6297      5F467452 
 6297      756E456E 
 6297      61626C65 
 6298              	.LASF8:
 6299 0392 73686F72 		.ascii	"short unsigned int\000"
 6299      7420756E 
 6299      7369676E 
 6299      65642069 
 6299      6E7400
 6300              	.LASF130:
 6301 03a5 43617053 		.ascii	"CapSense_FtUpdateBaseline\000"
 6301      656E7365 
 6301      5F467455 
 6301      70646174 
 6301      65426173 
 6302              	.LASF117:
 6303 03bf 43617053 		.ascii	"CapSense_RunAverage\000"
 6303      656E7365 
 6303      5F52756E 
 6303      41766572 
 6303      61676500 
 6304              	.LASF94:
 6305 03d3 43617053 		.ascii	"CapSense_FtInitializeBaselineChannel\000"
 6305      656E7365 
 6305      5F467449 
 6305      6E697469 
 6305      616C697A 
 6306              	.LASF41:
 6307 03f8 43617053 		.ascii	"CapSense_UNDEFINED_E\000"
 6307      656E7365 
 6307      5F554E44 
 6307      4546494E 
 6307      45445F45 
 6308              	.LASF136:
 6309 040d 43617053 		.ascii	"CapSense_UpdateSensorBaseline\000"
 6309      656E7365 
 6309      5F557064 
 6309      61746553 
 6309      656E736F 
 6310              	.LASF66:
 6311 042b 70747232 		.ascii	"ptr2WdgtRam\000"
 6311      57646774 
 6311      52616D00 
 6312              	.LASF5:
 6313 0437 73686F72 		.ascii	"short int\000"
 6313      7420696E 
 6313      7400
 6314              	.LASF92:
 6315 0441 77645479 		.ascii	"wdType\000"
 6315      706500
 6316              	.LASF138:
 6317 0448 62736C6E 		.ascii	"bslnStatus\000"
 6317      53746174 
ARM GAS  C:\Users\ikomb\AppData\Local\Temp\ccZFcZfB.s 			page 148


 6317      757300
 6318              	.LASF97:
 6319 0453 77696467 		.ascii	"widgetId\000"
 6319      65744964 
 6319      00
 6320              	.LASF127:
 6321 045c 70726576 		.ascii	"prevOutput\000"
 6321      4F757470 
 6321      757400
 6322              	.LASF132:
 6323 0467 64696666 		.ascii	"difference\000"
 6323      6572656E 
 6323      636500
 6324              	.LASF53:
 6325 0472 69646163 		.ascii	"idacMod\000"
 6325      4D6F6400 
 6326              	.LASF124:
 6327 047a 43617053 		.ascii	"CapSense_FtMedian\000"
 6327      656E7365 
 6327      5F46744D 
 6327      65646961 
 6327      6E00
 6328              	.LASF74:
 6329 048c 6E756D43 		.ascii	"numCols\000"
 6329      6F6C7300 
 6330              	.LASF118:
 6331 0494 43617053 		.ascii	"CapSense_RunNoiseEnvelope\000"
 6331      656E7365 
 6331      5F52756E 
 6331      4E6F6973 
 6331      65456E76 
 6332              	.LASF102:
 6333 04ae 70747257 		.ascii	"ptrWidget\000"
 6333      69646765 
 6333      7400
 6334              	.LASF86:
 6335 04b8 43617053 		.ascii	"CapSense_REGULAR_FLTR_CHANNEL_STRUCT\000"
 6335      656E7365 
 6335      5F524547 
 6335      554C4152 
 6335      5F464C54 
 6336              	.LASF96:
 6337 04dd 43617053 		.ascii	"CapSense_InitializeSensorBaseline\000"
 6337      656E7365 
 6337      5F496E69 
 6337      7469616C 
 6337      697A6553 
 6338              	.LASF144:
 6339 04ff 433A5C55 		.ascii	"C:\\Users\\ikomb\\Documents\\PSoC Creator\\CE222221"
 6339      73657273 
 6339      5C696B6F 
 6339      6D625C44 
 6339      6F63756D 
 6340 052d 5F566F69 		.ascii	"_Voice_Recorder01\\CE222221_Voice_Recorder01.cydsn\000"
 6340      63655F52 
 6340      65636F72 
 6340      64657230 
ARM GAS  C:\Users\ikomb\AppData\Local\Temp\ccZFcZfB.s 			page 149


 6340      315C4345 
 6341              	.LASF49:
 6342 055f 6E4E6F69 		.ascii	"nNoiseTh\000"
 6342      73655468 
 6342      00
 6343              	.LASF57:
 6344 0568 73696750 		.ascii	"sigPFC\000"
 6344      464300
 6345              	.LASF72:
 6346 056f 77646774 		.ascii	"wdgtType\000"
 6346      54797065 
 6346      00
 6347              	.LASF77:
 6348 0578 7843656E 		.ascii	"xCentroidMultiplier\000"
 6348      74726F69 
 6348      644D756C 
 6348      7469706C 
 6348      69657200 
 6349              	.LASF42:
 6350 058c 43617053 		.ascii	"CapSense_SENSE_METHOD_CSD_E\000"
 6350      656E7365 
 6350      5F53454E 
 6350      53455F4D 
 6350      4554484F 
 6351              	.LASF85:
 6352 05a8 61766748 		.ascii	"avgHistory\000"
 6352      6973746F 
 6352      727900
 6353              	.LASF113:
 6354 05b3 43617053 		.ascii	"CapSense_FtInitialize\000"
 6354      656E7365 
 6354      5F467449 
 6354      6E697469 
 6354      616C697A 
 6355              	.LASF121:
 6356 05c9 43617053 		.ascii	"CapSense_RunMedian\000"
 6356      656E7365 
 6356      5F52756E 
 6356      4D656469 
 6356      616E00
 6357              	.LASF18:
 6358 05dc 666C6F61 		.ascii	"float\000"
 6358      7400
 6359              	.LASF36:
 6360 05e2 43617053 		.ascii	"CapSense_WD_RADIAL_SLIDER_E\000"
 6360      656E7365 
 6360      5F57445F 
 6360      52414449 
 6360      414C5F53 
 6361              	.LASF33:
 6362 05fe 534D4152 		.ascii	"SMARTSENSE_CSD_NOISE_ENVELOPE_STRUCT\000"
 6362      5453454E 
 6362      53455F43 
 6362      53445F4E 
 6362      4F495345 
 6363              	.LASF135:
 6364 0623 68697374 		.ascii	"history\000"
ARM GAS  C:\Users\ikomb\AppData\Local\Temp\ccZFcZfB.s 			page 150


 6364      6F727900 
 6365              	.LASF106:
 6366 062b 70747253 		.ascii	"ptrSensorObj\000"
 6366      656E736F 
 6366      724F626A 
 6366      00
 6367              	.LASF87:
 6368 0638 72656775 		.ascii	"regularChannel\000"
 6368      6C617243 
 6368      68616E6E 
 6368      656C00
 6369              	.LASF34:
 6370 0647 43617053 		.ascii	"CapSense_WD_BUTTON_E\000"
 6370      656E7365 
 6370      5F57445F 
 6370      42555454 
 6370      4F4E5F45 
 6371              	.LASF26:
 6372 065c 70617261 		.ascii	"param0\000"
 6372      6D3000
 6373              	.LASF27:
 6374 0663 70617261 		.ascii	"param1\000"
 6374      6D3100
 6375              	.LASF28:
 6376 066a 70617261 		.ascii	"param2\000"
 6376      6D3200
 6377              	.LASF29:
 6378 0671 70617261 		.ascii	"param3\000"
 6378      6D3300
 6379              	.LASF30:
 6380 0678 70617261 		.ascii	"param4\000"
 6380      6D3400
 6381              	.LASF31:
 6382 067f 70617261 		.ascii	"param5\000"
 6382      6D3500
 6383              	.LASF32:
 6384 0686 70617261 		.ascii	"param6\000"
 6384      6D3600
 6385              	.LASF81:
 6386 068d 43617053 		.ascii	"CapSense_FLASH_WD_STRUCT\000"
 6386      656E7365 
 6386      5F464C41 
 6386      53485F57 
 6386      445F5354 
 6387              	.LASF68:
 6388 06a6 70747232 		.ascii	"ptr2FltrHistory\000"
 6388      466C7472 
 6388      48697374 
 6388      6F727900 
 6389              	.LASF112:
 6390 06b6 43617053 		.ascii	"CapSense_InitializeAllFilters\000"
 6390      656E7365 
 6390      5F496E69 
 6390      7469616C 
 6390      697A6541 
 6391              	.LASF139:
 6392 06d4 43617053 		.ascii	"CapSense_UpdateAllBaselines\000"
ARM GAS  C:\Users\ikomb\AppData\Local\Temp\ccZFcZfB.s 			page 151


 6392      656E7365 
 6392      5F557064 
 6392      61746541 
 6392      6C6C4261 
 6393              	.LASF122:
 6394 06f0 43617053 		.ascii	"CapSense_FtRunEnabledFiltersInternal\000"
 6394      656E7365 
 6394      5F467452 
 6394      756E456E 
 6394      61626C65 
 6395              	.LASF38:
 6396 0715 43617053 		.ascii	"CapSense_WD_TOUCHPAD_E\000"
 6396      656E7365 
 6396      5F57445F 
 6396      544F5543 
 6396      48504144 
 6397              	.LASF143:
 6398 072c 47656E65 		.ascii	"Generated_Source\\PSoC6\\CapSense_Filter.c\000"
 6398      72617465 
 6398      645F536F 
 6398      75726365 
 6398      5C50536F 
 6399              	.LASF99:
 6400 0755 66726571 		.ascii	"freqChannel\000"
 6400      4368616E 
 6400      6E656C00 
 6401              	.LASF93:
 6402 0761 6368616E 		.ascii	"channel\000"
 6402      6E656C00 
 6403              	.LASF90:
 6404 0769 43617053 		.ascii	"CapSense_PTR_FILTER_VARIANT\000"
 6404      656E7365 
 6404      5F505452 
 6404      5F46494C 
 6404      5445525F 
 6405              	.LASF15:
 6406 0785 75696E74 		.ascii	"uint32_t\000"
 6406      33325F74 
 6406      00
 6407              	.LASF142:
 6408 078e 474E5520 		.ascii	"GNU C11 5.4.1 20160609 (release) [ARM/embedded-5-br"
 6408      43313120 
 6408      352E342E 
 6408      31203230 
 6408      31363036 
 6409 07c1 616E6368 		.ascii	"anch revision 237715] -mcpu=cortex-m0plus -mthumb -"
 6409      20726576 
 6409      6973696F 
 6409      6E203233 
 6409      37373135 
 6410 07f4 67202D4F 		.ascii	"g -Og -ffunction-sections -ffat-lto-objects\000"
 6410      67202D66 
 6410      66756E63 
 6410      74696F6E 
 6410      2D736563 
 6411              	.LASF2:
 6412 0820 6C6F6E67 		.ascii	"long double\000"
ARM GAS  C:\Users\ikomb\AppData\Local\Temp\ccZFcZfB.s 			page 152


 6412      20646F75 
 6412      626C6500 
 6413              	.LASF17:
 6414 082c 63686172 		.ascii	"char\000"
 6414      00
 6415              	.LASF7:
 6416 0831 5F5F7569 		.ascii	"__uint16_t\000"
 6416      6E743136 
 6416      5F7400
 6417              	.LASF54:
 6418 083c 736E7343 		.ascii	"snsClk\000"
 6418      6C6B00
 6419              	.LASF58:
 6420 0843 43617053 		.ascii	"CapSense_RAM_WD_BASE_STRUCT\000"
 6420      656E7365 
 6420      5F52414D 
 6420      5F57445F 
 6420      42415345 
 6421              	.LASF140:
 6422 085f 536D6172 		.ascii	"SmartSense_InitializeNoiseEnvelope\000"
 6422      7453656E 
 6422      73655F49 
 6422      6E697469 
 6422      616C697A 
 6423              	.LASF51:
 6424 0882 6F6E4465 		.ascii	"onDebounce\000"
 6424      626F756E 
 6424      636500
 6425              	.LASF40:
 6426 088d 43617053 		.ascii	"CapSense_WD_TYPE_ENUM\000"
 6426      656E7365 
 6426      5F57445F 
 6426      54595045 
 6426      5F454E55 
 6427              	.LASF100:
 6428 08a3 43617053 		.ascii	"CapSense_InitializeWidgetBaseline\000"
 6428      656E7365 
 6428      5F496E69 
 6428      7469616C 
 6428      697A6557 
 6429              	.LASF63:
 6430 08c5 69646163 		.ascii	"idacComp\000"
 6430      436F6D70 
 6430      00
 6431              	.LASF109:
 6432 08ce 43617053 		.ascii	"CapSense_InitializeWidgetFilter\000"
 6432      656E7365 
 6432      5F496E69 
 6432      7469616C 
 6432      697A6557 
 6433              	.LASF4:
 6434 08ee 756E7369 		.ascii	"unsigned char\000"
 6434      676E6564 
 6434      20636861 
 6434      7200
 6435              	.LASF62:
 6436 08fc 6E656742 		.ascii	"negBslnRstCnt\000"
ARM GAS  C:\Users\ikomb\AppData\Local\Temp\ccZFcZfB.s 			page 153


 6436      736C6E52 
 6436      7374436E 
 6436      7400
 6437              	.LASF103:
 6438 090a 43617053 		.ascii	"CapSense_InitializeAllBaselines\000"
 6438      656E7365 
 6438      5F496E69 
 6438      7469616C 
 6438      697A6541 
 6439              	.LASF69:
 6440 092a 70747232 		.ascii	"ptr2DebounceArr\000"
 6440      4465626F 
 6440      756E6365 
 6440      41727200 
 6441              	.LASF114:
 6442 093a 43617053 		.ascii	"CapSense_InitializeAverage\000"
 6442      656E7365 
 6442      5F496E69 
 6442      7469616C 
 6442      697A6541 
 6443              	.LASF46:
 6444 0955 7265736F 		.ascii	"resolution\000"
 6444      6C757469 
 6444      6F6E00
 6445              	.LASF70:
 6446 0960 73746174 		.ascii	"staticConfig\000"
 6446      6963436F 
 6446      6E666967 
 6446      00
 6447              	.LASF71:
 6448 096d 746F7461 		.ascii	"totalNumSns\000"
 6448      6C4E756D 
 6448      536E7300 
 6449              	.LASF82:
 6450 0979 77646774 		.ascii	"wdgtArray\000"
 6450      41727261 
 6450      7900
 6451              	.LASF125:
 6452 0983 43617053 		.ascii	"CapSense_FtIIR1stOrder\000"
 6452      656E7365 
 6452      5F467449 
 6452      49523173 
 6452      744F7264 
 6453              	.LASF13:
 6454 099a 75696E74 		.ascii	"uint8_t\000"
 6454      385F7400 
 6455              	.LASF131:
 6456 09a2 7369676E 		.ascii	"sign\000"
 6456      00
 6457              	.LASF16:
 6458 09a7 73697A65 		.ascii	"sizetype\000"
 6458      74797065 
 6458      00
 6459              	.LASF55:
 6460 09b0 736E7343 		.ascii	"snsClkSource\000"
 6460      6C6B536F 
 6460      75726365 
ARM GAS  C:\Users\ikomb\AppData\Local\Temp\ccZFcZfB.s 			page 154


 6460      00
 6461              	.LASF105:
 6462 09bd 70747246 		.ascii	"ptrFilterHistObj\000"
 6462      696C7465 
 6462      72486973 
 6462      744F626A 
 6462      00
 6463              	.LASF108:
 6464 09ce 43617053 		.ascii	"CapSense_InitializeAverageInternal\000"
 6464      656E7365 
 6464      5F496E69 
 6464      7469616C 
 6464      697A6541 
 6465              	.LASF91:
 6466 09f1 70747253 		.ascii	"ptrSensor\000"
 6466      656E736F 
 6466      7200
 6467              	.LASF111:
 6468 09fb 7074724E 		.ascii	"ptrNoiseEnvelope\000"
 6468      6F697365 
 6468      456E7665 
 6468      6C6F7065 
 6468      00
 6469              	.LASF47:
 6470 0a0c 66696E67 		.ascii	"fingerTh\000"
 6470      65725468 
 6470      00
 6471              	.LASF39:
 6472 0a15 43617053 		.ascii	"CapSense_WD_PROXIMITY_E\000"
 6472      656E7365 
 6472      5F57445F 
 6472      50524F58 
 6472      494D4954 
 6473              	.LASF89:
 6474 0a2d 70747252 		.ascii	"ptrRegular\000"
 6474      6567756C 
 6474      617200
 6475              	.LASF134:
 6476 0a38 72657375 		.ascii	"result\000"
 6476      6C7400
 6477              	.LASF104:
 6478 0a3f 43617053 		.ascii	"CapSense_InitializeMedianInternal\000"
 6478      656E7365 
 6478      5F496E69 
 6478      7469616C 
 6478      697A654D 
 6479              	.LASF48:
 6480 0a61 6E6F6973 		.ascii	"noiseTh\000"
 6480      65546800 
 6481              		.ident	"GCC: (GNU Tools for ARM Embedded Processors) 5.4.1 20160609 (release) [ARM/embedded-5-bran
