ARM GAS  C:\Users\ikomb\AppData\Local\Temp\cc6TxH90.s 			page 1


   1              		.syntax unified
   2              		.cpu cortex-m0plus
   3              		.fpu softvfp
   4              		.eabi_attribute 20, 1
   5              		.eabi_attribute 21, 1
   6              		.eabi_attribute 23, 3
   7              		.eabi_attribute 24, 1
   8              		.eabi_attribute 25, 1
   9              		.eabi_attribute 26, 1
  10              		.eabi_attribute 30, 1
  11              		.eabi_attribute 34, 0
  12              		.eabi_attribute 18, 4
  13              		.thumb
  14              		.syntax unified
  15              		.file	"CapSense_Processing.c"
  16              		.text
  17              	.Ltext0:
  18              		.cfi_sections	.debug_frame
  19              		.section	.text.CapSense_DpInitialize,"ax",%progbits
  20              		.align	2
  21              		.global	CapSense_DpInitialize
  22              		.code	16
  23              		.thumb_func
  24              		.type	CapSense_DpInitialize, %function
  25              	CapSense_DpInitialize:
  26              	.LFB37:
  27              		.file 1 "Generated_Source\\PSoC6\\CapSense_Processing.c"
   1:Generated_Source\PSoC6/CapSense_Processing.c **** /***************************************************************************//**
   2:Generated_Source\PSoC6/CapSense_Processing.c **** * \file CapSense_Processing.c
   3:Generated_Source\PSoC6/CapSense_Processing.c **** * \version 2.0
   4:Generated_Source\PSoC6/CapSense_Processing.c **** *
   5:Generated_Source\PSoC6/CapSense_Processing.c **** * \brief
   6:Generated_Source\PSoC6/CapSense_Processing.c **** *   This file provides the source code for the Data Processing module APIs
   7:Generated_Source\PSoC6/CapSense_Processing.c **** *   of the Component. The Data Processing module is responsible for the
   8:Generated_Source\PSoC6/CapSense_Processing.c **** *   low level raw counts processing provided by the sensing module, maintaining
   9:Generated_Source\PSoC6/CapSense_Processing.c **** *   baseline and difference values and performing high-level widget processing
  10:Generated_Source\PSoC6/CapSense_Processing.c **** *   like updating button status or calculating slider position.
  11:Generated_Source\PSoC6/CapSense_Processing.c **** *
  12:Generated_Source\PSoC6/CapSense_Processing.c **** * \see CapSense v2.0 Datasheet
  13:Generated_Source\PSoC6/CapSense_Processing.c **** *
  14:Generated_Source\PSoC6/CapSense_Processing.c **** *//*****************************************************************************
  15:Generated_Source\PSoC6/CapSense_Processing.c **** * Copyright (2016-2017), Cypress Semiconductor Corporation.
  16:Generated_Source\PSoC6/CapSense_Processing.c **** ********************************************************************************
  17:Generated_Source\PSoC6/CapSense_Processing.c **** * This software is owned by Cypress Semiconductor Corporation (Cypress) and is
  18:Generated_Source\PSoC6/CapSense_Processing.c **** * protected by and subject to worldwide patent protection (United States and
  19:Generated_Source\PSoC6/CapSense_Processing.c **** * foreign), United States copyright laws and international treaty provisions.
  20:Generated_Source\PSoC6/CapSense_Processing.c **** * Cypress hereby grants to licensee a personal, non-exclusive, non-transferable
  21:Generated_Source\PSoC6/CapSense_Processing.c **** * license to copy, use, modify, create derivative works of, and compile the
  22:Generated_Source\PSoC6/CapSense_Processing.c **** * Cypress Source Code and derivative works for the sole purpose of creating
  23:Generated_Source\PSoC6/CapSense_Processing.c **** * custom software in support of licensee product to be used only in conjunction
  24:Generated_Source\PSoC6/CapSense_Processing.c **** * with a Cypress integrated circuit as specified in the applicable agreement.
  25:Generated_Source\PSoC6/CapSense_Processing.c **** * Any reproduction, modification, translation, compilation, or representation of
  26:Generated_Source\PSoC6/CapSense_Processing.c **** * this software except as specified above is prohibited without the express
  27:Generated_Source\PSoC6/CapSense_Processing.c **** * written permission of Cypress.
  28:Generated_Source\PSoC6/CapSense_Processing.c **** *
  29:Generated_Source\PSoC6/CapSense_Processing.c **** * Disclaimer: CYPRESS MAKES NO WARRANTY OF ANY KIND, EXPRESS OR IMPLIED, WITH
  30:Generated_Source\PSoC6/CapSense_Processing.c **** * REGARD TO THIS MATERIAL, INCLUDING, BUT NOT LIMITED TO, THE IMPLIED
ARM GAS  C:\Users\ikomb\AppData\Local\Temp\cc6TxH90.s 			page 2


  31:Generated_Source\PSoC6/CapSense_Processing.c **** * WARRANTIES OF MERCHANTABILITY AND FITNESS FOR A PARTICULAR PURPOSE.
  32:Generated_Source\PSoC6/CapSense_Processing.c **** * Cypress reserves the right to make changes without further notice to the
  33:Generated_Source\PSoC6/CapSense_Processing.c **** * materials described herein. Cypress does not assume any liability arising out
  34:Generated_Source\PSoC6/CapSense_Processing.c **** * of the application or use of any product or circuit described herein. Cypress
  35:Generated_Source\PSoC6/CapSense_Processing.c **** * does not authorize its products for use as critical components in life-support
  36:Generated_Source\PSoC6/CapSense_Processing.c **** * systems where a malfunction or failure may reasonably be expected to result in
  37:Generated_Source\PSoC6/CapSense_Processing.c **** * significant injury to the user. The inclusion of Cypress' product in a life-
  38:Generated_Source\PSoC6/CapSense_Processing.c **** * support systems application implies that the manufacturer assumes all risk of
  39:Generated_Source\PSoC6/CapSense_Processing.c **** * such use and in doing so indemnifies Cypress against all charges. Use may be
  40:Generated_Source\PSoC6/CapSense_Processing.c **** * limited by and subject to the applicable Cypress software license agreement.
  41:Generated_Source\PSoC6/CapSense_Processing.c **** *******************************************************************************/
  42:Generated_Source\PSoC6/CapSense_Processing.c **** 
  43:Generated_Source\PSoC6/CapSense_Processing.c **** #include "syslib/cy_syslib.h"
  44:Generated_Source\PSoC6/CapSense_Processing.c **** #include <stddef.h>
  45:Generated_Source\PSoC6/CapSense_Processing.c **** #include <string.h>
  46:Generated_Source\PSoC6/CapSense_Processing.c **** #include "CapSense_Configuration.h"
  47:Generated_Source\PSoC6/CapSense_Processing.c **** #include "CapSense_Processing.h"
  48:Generated_Source\PSoC6/CapSense_Processing.c **** #include "CapSense_Filter.h"
  49:Generated_Source\PSoC6/CapSense_Processing.c **** 
  50:Generated_Source\PSoC6/CapSense_Processing.c **** #if (0u != CapSense_CENTROID_EN)
  51:Generated_Source\PSoC6/CapSense_Processing.c ****     #include "CapSense_Centroid_LL.h"
  52:Generated_Source\PSoC6/CapSense_Processing.c **** #endif /* (0 != CapSense_CENTROID_EN) */
  53:Generated_Source\PSoC6/CapSense_Processing.c **** 
  54:Generated_Source\PSoC6/CapSense_Processing.c **** #if (0 != (CapSense_CSD_AUTOTUNE & CapSense_CSD_SS_TH_EN))
  55:Generated_Source\PSoC6/CapSense_Processing.c ****     #include "CapSense_SmartSense_LL.h"
  56:Generated_Source\PSoC6/CapSense_Processing.c **** #endif /* (0 != (CapSense_CSD_AUTOTUNE & CapSense_CSD_SS_TH_EN)) */
  57:Generated_Source\PSoC6/CapSense_Processing.c **** 
  58:Generated_Source\PSoC6/CapSense_Processing.c **** #if (CapSense_ENABLE == CapSense_SELF_TEST_EN)
  59:Generated_Source\PSoC6/CapSense_Processing.c ****     #include "CapSense_SelfTest.h"
  60:Generated_Source\PSoC6/CapSense_Processing.c **** #endif
  61:Generated_Source\PSoC6/CapSense_Processing.c **** 
  62:Generated_Source\PSoC6/CapSense_Processing.c **** #if (CapSense_ENABLE == CapSense_CENTROID_5X5_CSD_EN)
  63:Generated_Source\PSoC6/CapSense_Processing.c ****     #include "CapSense_AdvancedCentroid_LL.h"
  64:Generated_Source\PSoC6/CapSense_Processing.c **** #endif
  65:Generated_Source\PSoC6/CapSense_Processing.c **** 
  66:Generated_Source\PSoC6/CapSense_Processing.c **** #if (CapSense_ENABLE == CapSense_POS_ADAPTIVE_IIR_FILTER_EN)
  67:Generated_Source\PSoC6/CapSense_Processing.c ****     #include "CapSense_AdaptiveFilter_LL.h"
  68:Generated_Source\PSoC6/CapSense_Processing.c **** #endif
  69:Generated_Source\PSoC6/CapSense_Processing.c **** 
  70:Generated_Source\PSoC6/CapSense_Processing.c **** #if(CapSense_ENABLE == CapSense_BALLISTIC_MULTIPLIER_EN)
  71:Generated_Source\PSoC6/CapSense_Processing.c ****     #include "CapSense_Gesture.h"
  72:Generated_Source\PSoC6/CapSense_Processing.c **** #endif
  73:Generated_Source\PSoC6/CapSense_Processing.c **** 
  74:Generated_Source\PSoC6/CapSense_Processing.c **** /**************************************************************************************************
  75:Generated_Source\PSoC6/CapSense_Processing.c **** * Local definition
  76:Generated_Source\PSoC6/CapSense_Processing.c **** ***************************************************************************************************
  77:Generated_Source\PSoC6/CapSense_Processing.c **** 
  78:Generated_Source\PSoC6/CapSense_Processing.c **** /* UINT32 constant with all odd bits set. It is used by the processing function of the Proximity wi
  79:Generated_Source\PSoC6/CapSense_Processing.c **** *  determine type of the status bit: odd bits report proximity status; even bits report touch statu
  80:Generated_Source\PSoC6/CapSense_Processing.c **** */
  81:Generated_Source\PSoC6/CapSense_Processing.c **** #define UINT32_ODD_BITS_CONST       (0x55555555u)
  82:Generated_Source\PSoC6/CapSense_Processing.c **** 
  83:Generated_Source\PSoC6/CapSense_Processing.c **** /* Default value for the Off Debounce counter when the Off Debounce is disabled */
  84:Generated_Source\PSoC6/CapSense_Processing.c **** #define DEFAULT_OFF_DEBOUNCE_VALUE  (1u)
  85:Generated_Source\PSoC6/CapSense_Processing.c **** #define PERCENTAGE_100              (100u)
  86:Generated_Source\PSoC6/CapSense_Processing.c **** #define TEMP_BUFFER_MSB_SHIFT       (16)
  87:Generated_Source\PSoC6/CapSense_Processing.c **** 
ARM GAS  C:\Users\ikomb\AppData\Local\Temp\cc6TxH90.s 			page 3


  88:Generated_Source\PSoC6/CapSense_Processing.c **** /**************************************************************************************************
  89:Generated_Source\PSoC6/CapSense_Processing.c **** * Local variables
  90:Generated_Source\PSoC6/CapSense_Processing.c **** ***************************************************************************************************
  91:Generated_Source\PSoC6/CapSense_Processing.c **** #if (0u != CapSense_CSX_MULTIPHASE_TX_EN)
  92:Generated_Source\PSoC6/CapSense_Processing.c ****     static uint16 deconvRowData[CapSense_CSX_MAX_TX_PHASE_LENGTH];
  93:Generated_Source\PSoC6/CapSense_Processing.c **** #endif
  94:Generated_Source\PSoC6/CapSense_Processing.c **** 
  95:Generated_Source\PSoC6/CapSense_Processing.c **** 
  96:Generated_Source\PSoC6/CapSense_Processing.c **** /**************************************************************************************************
  97:Generated_Source\PSoC6/CapSense_Processing.c **** * Static Function Prototypes
  98:Generated_Source\PSoC6/CapSense_Processing.c **** ***************************************************************************************************
  99:Generated_Source\PSoC6/CapSense_Processing.c **** /**
 100:Generated_Source\PSoC6/CapSense_Processing.c **** * \cond SECTION_CYSENSE_INTERNAL
 101:Generated_Source\PSoC6/CapSense_Processing.c **** * \addtogroup group_cysense_internal
 102:Generated_Source\PSoC6/CapSense_Processing.c **** * \{
 103:Generated_Source\PSoC6/CapSense_Processing.c **** */
 104:Generated_Source\PSoC6/CapSense_Processing.c **** #if (0u != CapSense_TOTAL_LINEAR_SLIDERS)
 105:Generated_Source\PSoC6/CapSense_Processing.c ****     __STATIC_INLINE void DpUpdateLinSlider(
 106:Generated_Source\PSoC6/CapSense_Processing.c ****                         const uint16 newPos[], uint32 numTouches,
 107:Generated_Source\PSoC6/CapSense_Processing.c ****                         CapSense_FLASH_WD_STRUCT const *ptrFlashWdgt,
 108:Generated_Source\PSoC6/CapSense_Processing.c ****                         CapSense_RAM_WD_SLIDER_STRUCT *ptrRamWdgt);
 109:Generated_Source\PSoC6/CapSense_Processing.c **** #endif /* #if (0u != CapSense_TOTAL_LINEAR_SLIDERS) */
 110:Generated_Source\PSoC6/CapSense_Processing.c **** 
 111:Generated_Source\PSoC6/CapSense_Processing.c **** #if (0u != CapSense_TOTAL_RADIAL_SLIDERS)
 112:Generated_Source\PSoC6/CapSense_Processing.c ****     __STATIC_INLINE void DpUpdateRadSlider(
 113:Generated_Source\PSoC6/CapSense_Processing.c ****                         const uint16 newPos[], uint32 numTouches,
 114:Generated_Source\PSoC6/CapSense_Processing.c ****                         CapSense_FLASH_WD_STRUCT const * ptrFlashWdgt,
 115:Generated_Source\PSoC6/CapSense_Processing.c ****                         CapSense_RAM_WD_SLIDER_STRUCT *ptrRamWdgt);
 116:Generated_Source\PSoC6/CapSense_Processing.c **** #endif /* #if (0u != CapSense_TOTAL_RADIAL_SLIDERS) */
 117:Generated_Source\PSoC6/CapSense_Processing.c **** 
 118:Generated_Source\PSoC6/CapSense_Processing.c **** #if (0u != CapSense_CSD_TOUCHPAD_WIDGET_EN)
 119:Generated_Source\PSoC6/CapSense_Processing.c ****     __STATIC_INLINE void CapSense_DpInitCsdTouchpad(CapSense_FLASH_WD_STRUCT const * ptrFlashWdgt);
 120:Generated_Source\PSoC6/CapSense_Processing.c **** #endif /* #if (0u != CapSense_CSD_TOUCHPAD_WIDGET_EN) */
 121:Generated_Source\PSoC6/CapSense_Processing.c **** 
 122:Generated_Source\PSoC6/CapSense_Processing.c **** #if (0u != CapSense_CSX_TOUCHPAD_WIDGET_EN)
 123:Generated_Source\PSoC6/CapSense_Processing.c ****     __STATIC_INLINE void CapSense_DpInitCsxTouchpad(CapSense_FLASH_WD_STRUCT const * ptrFlashWdgt);
 124:Generated_Source\PSoC6/CapSense_Processing.c **** #endif /* #if (0u != CapSense_CSX_TOUCHPAD_WIDGET_EN) */
 125:Generated_Source\PSoC6/CapSense_Processing.c **** 
 126:Generated_Source\PSoC6/CapSense_Processing.c **** #if (0u != CapSense_SLIDER_WIDGET_EN)
 127:Generated_Source\PSoC6/CapSense_Processing.c ****     __STATIC_INLINE void CapSense_DpInitSlider(CapSense_FLASH_WD_STRUCT const * ptrFlashWdgt);
 128:Generated_Source\PSoC6/CapSense_Processing.c **** #endif /* #if (0u != CapSense_SLIDER_WIDGET_EN) */
 129:Generated_Source\PSoC6/CapSense_Processing.c **** 
 130:Generated_Source\PSoC6/CapSense_Processing.c **** #if (0u != CapSense_CSD_MATRIX_WIDGET_EN)
 131:Generated_Source\PSoC6/CapSense_Processing.c ****     __STATIC_INLINE void CapSense_DpInitCsdMatrix(CapSense_FLASH_WD_STRUCT const * ptrFlashWdgt);
 132:Generated_Source\PSoC6/CapSense_Processing.c **** #endif /* #if (0u != CapSense_CSD_MATRIX_WIDGET_EN) */
 133:Generated_Source\PSoC6/CapSense_Processing.c **** 
 134:Generated_Source\PSoC6/CapSense_Processing.c **** /** \}
 135:Generated_Source\PSoC6/CapSense_Processing.c **** * \endcond */
 136:Generated_Source\PSoC6/CapSense_Processing.c **** 
 137:Generated_Source\PSoC6/CapSense_Processing.c **** #if (0u != CapSense_CSD_TOUCHPAD_WIDGET_EN)
 138:Generated_Source\PSoC6/CapSense_Processing.c **** /*******************************************************************************
 139:Generated_Source\PSoC6/CapSense_Processing.c **** * Function Name: CapSense_DpInitCsdTouchpad
 140:Generated_Source\PSoC6/CapSense_Processing.c **** ****************************************************************************//**
 141:Generated_Source\PSoC6/CapSense_Processing.c **** *
 142:Generated_Source\PSoC6/CapSense_Processing.c **** * \brief
 143:Generated_Source\PSoC6/CapSense_Processing.c **** *  Performs initialization of the CSD touchpad widget.
 144:Generated_Source\PSoC6/CapSense_Processing.c **** *   - Resets the position data to NONE
ARM GAS  C:\Users\ikomb\AppData\Local\Temp\cc6TxH90.s 			page 4


 145:Generated_Source\PSoC6/CapSense_Processing.c **** *   - Initializes the position filter history if enabled.
 146:Generated_Source\PSoC6/CapSense_Processing.c **** *
 147:Generated_Source\PSoC6/CapSense_Processing.c **** * \details
 148:Generated_Source\PSoC6/CapSense_Processing.c **** *  The position data is always reset to the CapSense_TOUCHPAD_POS_NONE value.
 149:Generated_Source\PSoC6/CapSense_Processing.c **** *  The same happens to the position filter history data if enabled.
 150:Generated_Source\PSoC6/CapSense_Processing.c **** *
 151:Generated_Source\PSoC6/CapSense_Processing.c **** *******************************************************************************/
 152:Generated_Source\PSoC6/CapSense_Processing.c **** __STATIC_INLINE void CapSense_DpInitCsdTouchpad(CapSense_FLASH_WD_STRUCT const * ptrFlashWdgt)
 153:Generated_Source\PSoC6/CapSense_Processing.c **** {
 154:Generated_Source\PSoC6/CapSense_Processing.c ****     #if (CapSense_ENABLE == CapSense_CENTROID_5X5_CSD_EN)
 155:Generated_Source\PSoC6/CapSense_Processing.c ****         uint32 touchIndex;
 156:Generated_Source\PSoC6/CapSense_Processing.c ****     #endif
 157:Generated_Source\PSoC6/CapSense_Processing.c **** 
 158:Generated_Source\PSoC6/CapSense_Processing.c ****     CapSense_RAM_WD_CSD_TOUCHPAD_STRUCT *ptrWdTouchpad;
 159:Generated_Source\PSoC6/CapSense_Processing.c **** 
 160:Generated_Source\PSoC6/CapSense_Processing.c ****     #if (0u != CapSense_POSITION_FILTER_EN)
 161:Generated_Source\PSoC6/CapSense_Processing.c ****         CapSense_TOUCHPAD_POS_HISTORY_STRUCT *ptrHistory;
 162:Generated_Source\PSoC6/CapSense_Processing.c ****     #endif  /* #if (0u != CapSense_POSITION_FILTER_EN) */
 163:Generated_Source\PSoC6/CapSense_Processing.c **** 
 164:Generated_Source\PSoC6/CapSense_Processing.c ****     #if (0u != CapSense_POS_ADAPTIVE_IIR_FILTER_EN)
 165:Generated_Source\PSoC6/CapSense_Processing.c ****         ADAPTIVE_FILTER_CONTEXT_STRUCT adpContext;
 166:Generated_Source\PSoC6/CapSense_Processing.c ****     #endif /* (0u != CapSense_POS_ADAPTIVE_IIR_FILTER_EN) */
 167:Generated_Source\PSoC6/CapSense_Processing.c **** 
 168:Generated_Source\PSoC6/CapSense_Processing.c ****     ptrWdTouchpad = ptrFlashWdgt->ptr2WdgtRam;
 169:Generated_Source\PSoC6/CapSense_Processing.c **** 
 170:Generated_Source\PSoC6/CapSense_Processing.c ****     /* Reset position data */
 171:Generated_Source\PSoC6/CapSense_Processing.c ****     #if (CapSense_ENABLE == CapSense_CENTROID_5X5_CSD_EN)
 172:Generated_Source\PSoC6/CapSense_Processing.c ****         #if (CapSense_ENABLE == CapSense_CENTROID_3X3_CSD_EN)
 173:Generated_Source\PSoC6/CapSense_Processing.c ****             if (0u != (ptrFlashWdgt->staticConfig & CapSense_CENTROID_5X5_MASK))
 174:Generated_Source\PSoC6/CapSense_Processing.c ****             {
 175:Generated_Source\PSoC6/CapSense_Processing.c ****         #endif
 176:Generated_Source\PSoC6/CapSense_Processing.c **** 
 177:Generated_Source\PSoC6/CapSense_Processing.c ****         ptrWdTouchpad->position.touchNum = 0u;
 178:Generated_Source\PSoC6/CapSense_Processing.c **** 
 179:Generated_Source\PSoC6/CapSense_Processing.c ****         #if (0u != CapSense_POSITION_FILTER_EN)
 180:Generated_Source\PSoC6/CapSense_Processing.c ****             ptrHistory = ptrFlashWdgt->ptr2PosHistory;
 181:Generated_Source\PSoC6/CapSense_Processing.c ****         #endif /* (0u != CapSense_POSITION_FILTER_EN) */
 182:Generated_Source\PSoC6/CapSense_Processing.c **** 
 183:Generated_Source\PSoC6/CapSense_Processing.c ****         for (touchIndex = 0u; touchIndex < ADVANCED_CENTROID_MAX_TOUCHES; touchIndex++)
 184:Generated_Source\PSoC6/CapSense_Processing.c ****         {
 185:Generated_Source\PSoC6/CapSense_Processing.c ****             ptrWdTouchpad->position.pos[touchIndex].x = ADVANCED_CENTROID_POSITION_NONE;
 186:Generated_Source\PSoC6/CapSense_Processing.c ****             ptrWdTouchpad->position.pos[touchIndex].y = ADVANCED_CENTROID_POSITION_NONE;
 187:Generated_Source\PSoC6/CapSense_Processing.c ****             ptrWdTouchpad->position.pos[touchIndex].zX = ADVANCED_CENTROID_POSITION_NONE;
 188:Generated_Source\PSoC6/CapSense_Processing.c ****             ptrWdTouchpad->position.pos[touchIndex].zY = ADVANCED_CENTROID_POSITION_NONE;
 189:Generated_Source\PSoC6/CapSense_Processing.c **** 
 190:Generated_Source\PSoC6/CapSense_Processing.c ****             /* Clear position filter history data if available */
 191:Generated_Source\PSoC6/CapSense_Processing.c ****             #if (0u != CapSense_POSITION_FILTER_EN)
 192:Generated_Source\PSoC6/CapSense_Processing.c ****                 if (NULL != ptrHistory)
 193:Generated_Source\PSoC6/CapSense_Processing.c ****                 {
 194:Generated_Source\PSoC6/CapSense_Processing.c ****                     CapSense_InitPosFiltersDd(&ptrHistory[touchIndex], CapSense_TOUCHPAD_POS_NONE, 
 195:Generated_Source\PSoC6/CapSense_Processing.c ****                     #if (0u != CapSense_POS_ADAPTIVE_IIR_FILTER_EN)
 196:Generated_Source\PSoC6/CapSense_Processing.c ****                         AdaptiveFilter_Initialize(&ptrWdTouchpad->aiirConfig, &adpContext);
 197:Generated_Source\PSoC6/CapSense_Processing.c ****                         ptrHistory[touchIndex].xPos.posAIIRCoeff = adpContext.coefficient;
 198:Generated_Source\PSoC6/CapSense_Processing.c ****                         ptrHistory[touchIndex].yPos.posAIIRCoeff = adpContext.coefficient;
 199:Generated_Source\PSoC6/CapSense_Processing.c ****                     #endif /* (0u != CapSense_POS_ADAPTIVE_IIR_FILTER_EN) */
 200:Generated_Source\PSoC6/CapSense_Processing.c ****                 }
 201:Generated_Source\PSoC6/CapSense_Processing.c ****             #endif /* (0u != CapSense_POSITION_FILTER_EN) */
ARM GAS  C:\Users\ikomb\AppData\Local\Temp\cc6TxH90.s 			page 5


 202:Generated_Source\PSoC6/CapSense_Processing.c ****         }
 203:Generated_Source\PSoC6/CapSense_Processing.c **** 
 204:Generated_Source\PSoC6/CapSense_Processing.c ****         #if (CapSense_ENABLE == CapSense_CENTROID_3X3_CSD_EN)
 205:Generated_Source\PSoC6/CapSense_Processing.c ****             }
 206:Generated_Source\PSoC6/CapSense_Processing.c ****         #endif
 207:Generated_Source\PSoC6/CapSense_Processing.c ****     #endif
 208:Generated_Source\PSoC6/CapSense_Processing.c **** 
 209:Generated_Source\PSoC6/CapSense_Processing.c ****     #if (CapSense_ENABLE == CapSense_CENTROID_3X3_CSD_EN)
 210:Generated_Source\PSoC6/CapSense_Processing.c ****         if (0u != (ptrFlashWdgt->staticConfig & CapSense_CENTROID_3X3_MASK))
 211:Generated_Source\PSoC6/CapSense_Processing.c ****         {
 212:Generated_Source\PSoC6/CapSense_Processing.c ****             ptrWdTouchpad->posX = CapSense_TOUCHPAD_POS_NONE;
 213:Generated_Source\PSoC6/CapSense_Processing.c ****             ptrWdTouchpad->posY = CapSense_TOUCHPAD_POS_NONE;
 214:Generated_Source\PSoC6/CapSense_Processing.c **** 
 215:Generated_Source\PSoC6/CapSense_Processing.c ****             /* Clear position filter history data if available */
 216:Generated_Source\PSoC6/CapSense_Processing.c ****             #if (0u != CapSense_POSITION_FILTER_EN)
 217:Generated_Source\PSoC6/CapSense_Processing.c ****                 ptrHistory = ptrFlashWdgt->ptr2PosHistory;
 218:Generated_Source\PSoC6/CapSense_Processing.c ****                 CapSense_InitPosFiltersDd(ptrHistory, CapSense_TOUCHPAD_POS_NONE, CapSense_TOUCHPAD
 219:Generated_Source\PSoC6/CapSense_Processing.c **** 
 220:Generated_Source\PSoC6/CapSense_Processing.c ****                 #if (0u != CapSense_POS_ADAPTIVE_IIR_FILTER_EN)
 221:Generated_Source\PSoC6/CapSense_Processing.c ****                     if (NULL != ptrHistory)
 222:Generated_Source\PSoC6/CapSense_Processing.c ****                     {
 223:Generated_Source\PSoC6/CapSense_Processing.c ****                         AdaptiveFilter_Initialize(&ptrWdTouchpad->aiirConfig, &adpContext);
 224:Generated_Source\PSoC6/CapSense_Processing.c ****                         ptrHistory->xPos.posAIIRCoeff = adpContext.coefficient;
 225:Generated_Source\PSoC6/CapSense_Processing.c ****                         ptrHistory->yPos.posAIIRCoeff = adpContext.coefficient;
 226:Generated_Source\PSoC6/CapSense_Processing.c ****                     }
 227:Generated_Source\PSoC6/CapSense_Processing.c ****                 #endif /* (0u != CapSense_POS_ADAPTIVE_IIR_FILTER_EN) */
 228:Generated_Source\PSoC6/CapSense_Processing.c ****             #endif /* (0u != CapSense_POSITION_FILTER_EN) */
 229:Generated_Source\PSoC6/CapSense_Processing.c ****         }
 230:Generated_Source\PSoC6/CapSense_Processing.c ****     #endif
 231:Generated_Source\PSoC6/CapSense_Processing.c **** }
 232:Generated_Source\PSoC6/CapSense_Processing.c **** #endif /* #if (0u != CapSense_CSD_TOUCHPAD_WIDGET_EN) */
 233:Generated_Source\PSoC6/CapSense_Processing.c **** 
 234:Generated_Source\PSoC6/CapSense_Processing.c **** #if (0u != CapSense_CSX_TOUCHPAD_WIDGET_EN)
 235:Generated_Source\PSoC6/CapSense_Processing.c **** /*******************************************************************************
 236:Generated_Source\PSoC6/CapSense_Processing.c **** * Function Name: CapSense_DpInitCsxTouchpad
 237:Generated_Source\PSoC6/CapSense_Processing.c **** ****************************************************************************//**
 238:Generated_Source\PSoC6/CapSense_Processing.c **** *
 239:Generated_Source\PSoC6/CapSense_Processing.c **** * \brief
 240:Generated_Source\PSoC6/CapSense_Processing.c **** *  Performs initialization of the CSX touchpad widget i.e. Resets the position data to NONE.
 241:Generated_Source\PSoC6/CapSense_Processing.c **** *
 242:Generated_Source\PSoC6/CapSense_Processing.c **** * \details
 243:Generated_Source\PSoC6/CapSense_Processing.c **** *  The position data is always reset to the CapSense_TOUCHPAD_POS_NONE value.
 244:Generated_Source\PSoC6/CapSense_Processing.c **** *
 245:Generated_Source\PSoC6/CapSense_Processing.c **** *******************************************************************************/
 246:Generated_Source\PSoC6/CapSense_Processing.c **** __STATIC_INLINE void CapSense_DpInitCsxTouchpad(CapSense_FLASH_WD_STRUCT const * ptrFlashWdgt)
 247:Generated_Source\PSoC6/CapSense_Processing.c **** {
 248:Generated_Source\PSoC6/CapSense_Processing.c ****     CapSense_RAM_WD_CSX_TOUCHPAD_STRUCT *ptrWdTouchpad;
 249:Generated_Source\PSoC6/CapSense_Processing.c **** 
 250:Generated_Source\PSoC6/CapSense_Processing.c ****     #if (0u != CapSense_POSITION_FILTER_EN)
 251:Generated_Source\PSoC6/CapSense_Processing.c ****         uint32 touchIndex;
 252:Generated_Source\PSoC6/CapSense_Processing.c ****         CapSense_TOUCHPAD_POS_HISTORY_STRUCT *ptrHistory;
 253:Generated_Source\PSoC6/CapSense_Processing.c ****     #endif  /* #if (0u != CapSense_POSITION_FILTER_EN) */
 254:Generated_Source\PSoC6/CapSense_Processing.c **** 
 255:Generated_Source\PSoC6/CapSense_Processing.c ****     #if (0u != CapSense_POS_ADAPTIVE_IIR_FILTER_EN)
 256:Generated_Source\PSoC6/CapSense_Processing.c ****         ADAPTIVE_FILTER_CONTEXT_STRUCT adpContext;
 257:Generated_Source\PSoC6/CapSense_Processing.c ****     #endif /* (0u != CapSense_POS_ADAPTIVE_IIR_FILTER_EN) */
 258:Generated_Source\PSoC6/CapSense_Processing.c **** 
ARM GAS  C:\Users\ikomb\AppData\Local\Temp\cc6TxH90.s 			page 6


 259:Generated_Source\PSoC6/CapSense_Processing.c ****     ptrWdTouchpad = ptrFlashWdgt->ptr2WdgtRam;
 260:Generated_Source\PSoC6/CapSense_Processing.c **** 
 261:Generated_Source\PSoC6/CapSense_Processing.c ****     #if (0u != CapSense_POSITION_FILTER_EN)
 262:Generated_Source\PSoC6/CapSense_Processing.c ****         ptrHistory = ptrFlashWdgt->ptr2PosHistory;
 263:Generated_Source\PSoC6/CapSense_Processing.c ****     #endif /* (0u != CapSense_POSITION_FILTER_EN) */
 264:Generated_Source\PSoC6/CapSense_Processing.c **** 
 265:Generated_Source\PSoC6/CapSense_Processing.c ****     /* Reset position data for finger */
 266:Generated_Source\PSoC6/CapSense_Processing.c ****     ptrWdTouchpad->touch[0u].x = CapSense_TOUCHPAD_POS_NONE;
 267:Generated_Source\PSoC6/CapSense_Processing.c ****     ptrWdTouchpad->touch[0u].y = CapSense_TOUCHPAD_POS_NONE;
 268:Generated_Source\PSoC6/CapSense_Processing.c ****     ptrWdTouchpad->touch[0u].z = CY_LO8(CapSense_TOUCHPAD_POS_NONE);
 269:Generated_Source\PSoC6/CapSense_Processing.c **** 
 270:Generated_Source\PSoC6/CapSense_Processing.c ****     #if (CapSense_CSX_MAX_FINGERS > 1u)
 271:Generated_Source\PSoC6/CapSense_Processing.c ****         ptrWdTouchpad->touch[1u].x = CapSense_TOUCHPAD_POS_NONE;
 272:Generated_Source\PSoC6/CapSense_Processing.c ****         ptrWdTouchpad->touch[1u].y = CapSense_TOUCHPAD_POS_NONE;
 273:Generated_Source\PSoC6/CapSense_Processing.c ****         ptrWdTouchpad->touch[1u].z = CY_LO8(CapSense_TOUCHPAD_POS_NONE);
 274:Generated_Source\PSoC6/CapSense_Processing.c ****     #endif /* #if (CapSense_CSX_MAX_FINGERS > 1u) */
 275:Generated_Source\PSoC6/CapSense_Processing.c **** 
 276:Generated_Source\PSoC6/CapSense_Processing.c ****     #if (CapSense_CSX_MAX_FINGERS > 2u)
 277:Generated_Source\PSoC6/CapSense_Processing.c ****         ptrWdTouchpad->touch[2u].x = CapSense_TOUCHPAD_POS_NONE;
 278:Generated_Source\PSoC6/CapSense_Processing.c ****         ptrWdTouchpad->touch[2u].y = CapSense_TOUCHPAD_POS_NONE;
 279:Generated_Source\PSoC6/CapSense_Processing.c ****         ptrWdTouchpad->touch[2u].z = CY_LO8(CapSense_TOUCHPAD_POS_NONE);
 280:Generated_Source\PSoC6/CapSense_Processing.c ****     #endif /* #if (CapSense_CSX_MAX_FINGERS > 2u) */
 281:Generated_Source\PSoC6/CapSense_Processing.c **** 
 282:Generated_Source\PSoC6/CapSense_Processing.c ****     #if (0u != CapSense_POSITION_FILTER_EN)
 283:Generated_Source\PSoC6/CapSense_Processing.c ****         for (touchIndex = 0u; touchIndex < CapSense_CSX_MAX_FINGERS; touchIndex++)
 284:Generated_Source\PSoC6/CapSense_Processing.c ****         {
 285:Generated_Source\PSoC6/CapSense_Processing.c ****             if (NULL != ptrHistory)
 286:Generated_Source\PSoC6/CapSense_Processing.c ****             {
 287:Generated_Source\PSoC6/CapSense_Processing.c ****                 /* Clear position filter history data if available */
 288:Generated_Source\PSoC6/CapSense_Processing.c ****                 CapSense_InitPosFiltersDd(&ptrHistory[touchIndex], CapSense_TOUCHPAD_POS_NONE, CapS
 289:Generated_Source\PSoC6/CapSense_Processing.c ****                 #if (0u != CapSense_POS_ADAPTIVE_IIR_FILTER_EN)
 290:Generated_Source\PSoC6/CapSense_Processing.c ****                     AdaptiveFilter_Initialize(&ptrWdTouchpad->aiirConfig, &adpContext);
 291:Generated_Source\PSoC6/CapSense_Processing.c ****                     ptrHistory[touchIndex].xPos.posAIIRCoeff = adpContext.coefficient;
 292:Generated_Source\PSoC6/CapSense_Processing.c ****                     ptrHistory[touchIndex].yPos.posAIIRCoeff = adpContext.coefficient;
 293:Generated_Source\PSoC6/CapSense_Processing.c ****                 #endif /* (0u != CapSense_POS_ADAPTIVE_IIR_FILTER_EN) */
 294:Generated_Source\PSoC6/CapSense_Processing.c ****             }
 295:Generated_Source\PSoC6/CapSense_Processing.c ****         }
 296:Generated_Source\PSoC6/CapSense_Processing.c ****     #endif /* (0u != CapSense_POSITION_FILTER_EN) */
 297:Generated_Source\PSoC6/CapSense_Processing.c **** }
 298:Generated_Source\PSoC6/CapSense_Processing.c **** #endif /* #if (0u != CapSense_CSX_TOUCHPAD_WIDGET_EN) */
 299:Generated_Source\PSoC6/CapSense_Processing.c **** 
 300:Generated_Source\PSoC6/CapSense_Processing.c **** #if (0u != CapSense_SLIDER_WIDGET_EN)
 301:Generated_Source\PSoC6/CapSense_Processing.c **** /*******************************************************************************
 302:Generated_Source\PSoC6/CapSense_Processing.c **** * Function Name: CapSense_DpInitSlider
 303:Generated_Source\PSoC6/CapSense_Processing.c **** ****************************************************************************//**
 304:Generated_Source\PSoC6/CapSense_Processing.c **** *
 305:Generated_Source\PSoC6/CapSense_Processing.c **** * \brief
 306:Generated_Source\PSoC6/CapSense_Processing.c **** *  Performs initialization of the Radial and Linear Slider widget.
 307:Generated_Source\PSoC6/CapSense_Processing.c **** *   - Resets the position data to NONE
 308:Generated_Source\PSoC6/CapSense_Processing.c **** *   - Initializes the position filter history to NONE if enabled.
 309:Generated_Source\PSoC6/CapSense_Processing.c **** *
 310:Generated_Source\PSoC6/CapSense_Processing.c **** * \details
 311:Generated_Source\PSoC6/CapSense_Processing.c **** *  Position data is always reset to the CapSense_SLIDER_POS_NONE value.
 312:Generated_Source\PSoC6/CapSense_Processing.c **** *  The same happens to the position filter history data if enabled.
 313:Generated_Source\PSoC6/CapSense_Processing.c **** *
 314:Generated_Source\PSoC6/CapSense_Processing.c **** *******************************************************************************/
 315:Generated_Source\PSoC6/CapSense_Processing.c **** __STATIC_INLINE void CapSense_DpInitSlider(CapSense_FLASH_WD_STRUCT const * ptrFlashWdgt)
ARM GAS  C:\Users\ikomb\AppData\Local\Temp\cc6TxH90.s 			page 7


 316:Generated_Source\PSoC6/CapSense_Processing.c **** {
 317:Generated_Source\PSoC6/CapSense_Processing.c ****     uint32 idx;
 318:Generated_Source\PSoC6/CapSense_Processing.c ****     CapSense_RAM_WD_SLIDER_STRUCT *ptrWdSlider;
 319:Generated_Source\PSoC6/CapSense_Processing.c **** 
 320:Generated_Source\PSoC6/CapSense_Processing.c ****     #if (0u != CapSense_POSITION_FILTER_EN)
 321:Generated_Source\PSoC6/CapSense_Processing.c ****         CapSense_SLIDER_POS_HISTORY_STRUCT *ptrHistory;
 322:Generated_Source\PSoC6/CapSense_Processing.c ****     #endif /* #if (0u != CapSense_POSITION_FILTER_EN) */
 323:Generated_Source\PSoC6/CapSense_Processing.c **** 
 324:Generated_Source\PSoC6/CapSense_Processing.c ****     #if (0u != CapSense_POS_ADAPTIVE_IIR_FILTER_EN)
 325:Generated_Source\PSoC6/CapSense_Processing.c ****         ADAPTIVE_FILTER_CONTEXT_STRUCT context;
 326:Generated_Source\PSoC6/CapSense_Processing.c ****     #endif /* (0u != CapSense_POS_ADAPTIVE_IIR_FILTER_EN) */
 327:Generated_Source\PSoC6/CapSense_Processing.c **** 
 328:Generated_Source\PSoC6/CapSense_Processing.c ****     ptrWdSlider = ptrFlashWdgt->ptr2WdgtRam;
 329:Generated_Source\PSoC6/CapSense_Processing.c **** 
 330:Generated_Source\PSoC6/CapSense_Processing.c ****     /* Reset slider position data to NONE */
 331:Generated_Source\PSoC6/CapSense_Processing.c ****     for (idx = 0u; idx < CapSense_NUM_CENTROIDS; idx++)
 332:Generated_Source\PSoC6/CapSense_Processing.c ****     {
 333:Generated_Source\PSoC6/CapSense_Processing.c ****         ptrWdSlider->position[idx] = CapSense_SLIDER_POS_NONE;
 334:Generated_Source\PSoC6/CapSense_Processing.c **** 
 335:Generated_Source\PSoC6/CapSense_Processing.c ****         #if (0u != CapSense_POSITION_FILTER_EN)
 336:Generated_Source\PSoC6/CapSense_Processing.c ****             ptrHistory = ptrFlashWdgt->ptr2PosHistory;
 337:Generated_Source\PSoC6/CapSense_Processing.c ****             if (NULL != ptrHistory)
 338:Generated_Source\PSoC6/CapSense_Processing.c ****             {
 339:Generated_Source\PSoC6/CapSense_Processing.c ****                 CapSense_InitPosFiltersSd(&ptrHistory[idx], CapSense_SLIDER_POS_NONE);
 340:Generated_Source\PSoC6/CapSense_Processing.c ****                 #if (0u != CapSense_POS_ADAPTIVE_IIR_FILTER_EN)
 341:Generated_Source\PSoC6/CapSense_Processing.c ****                     AdaptiveFilter_Initialize(&ptrWdSlider->aiirConfig, &context);
 342:Generated_Source\PSoC6/CapSense_Processing.c ****                     ptrHistory->posAIIRCoeff = context.coefficient;
 343:Generated_Source\PSoC6/CapSense_Processing.c ****                 #endif /* (0u != CapSense_POS_ADAPTIVE_IIR_FILTER_EN) */
 344:Generated_Source\PSoC6/CapSense_Processing.c ****             }
 345:Generated_Source\PSoC6/CapSense_Processing.c **** 
 346:Generated_Source\PSoC6/CapSense_Processing.c ****         #endif /* #if (0u != CapSense_POSITION_FILTER_EN) */
 347:Generated_Source\PSoC6/CapSense_Processing.c ****     }
 348:Generated_Source\PSoC6/CapSense_Processing.c **** }
 349:Generated_Source\PSoC6/CapSense_Processing.c **** #endif /* #if (0u != CapSense_SLIDER_WIDGET_EN) */
 350:Generated_Source\PSoC6/CapSense_Processing.c **** 
 351:Generated_Source\PSoC6/CapSense_Processing.c **** #if (0u != CapSense_CSD_MATRIX_WIDGET_EN)
 352:Generated_Source\PSoC6/CapSense_Processing.c **** /*******************************************************************************
 353:Generated_Source\PSoC6/CapSense_Processing.c **** * Function Name: CapSense_DpInitCsdMatrix
 354:Generated_Source\PSoC6/CapSense_Processing.c **** ****************************************************************************//**
 355:Generated_Source\PSoC6/CapSense_Processing.c **** *
 356:Generated_Source\PSoC6/CapSense_Processing.c **** * \brief
 357:Generated_Source\PSoC6/CapSense_Processing.c **** *  Performs initialization of the CSD Matrix Buttons widget.
 358:Generated_Source\PSoC6/CapSense_Processing.c **** *   - Resets the active button position data to NONE.
 359:Generated_Source\PSoC6/CapSense_Processing.c **** *
 360:Generated_Source\PSoC6/CapSense_Processing.c **** * \details
 361:Generated_Source\PSoC6/CapSense_Processing.c **** *  Position data is always reset to the CapSense_MATRIX_POS_NONE value.
 362:Generated_Source\PSoC6/CapSense_Processing.c **** *
 363:Generated_Source\PSoC6/CapSense_Processing.c **** *******************************************************************************/
 364:Generated_Source\PSoC6/CapSense_Processing.c **** __STATIC_INLINE void CapSense_DpInitCsdMatrix(CapSense_FLASH_WD_STRUCT const * ptrFlashWdgt)
 365:Generated_Source\PSoC6/CapSense_Processing.c **** {
 366:Generated_Source\PSoC6/CapSense_Processing.c ****     CapSense_RAM_WD_CSD_MATRIX_STRUCT *ptrRamWdgt;
 367:Generated_Source\PSoC6/CapSense_Processing.c **** 
 368:Generated_Source\PSoC6/CapSense_Processing.c ****     ptrRamWdgt = (CapSense_RAM_WD_CSD_MATRIX_STRUCT *)ptrFlashWdgt->ptr2WdgtRam;
 369:Generated_Source\PSoC6/CapSense_Processing.c **** 
 370:Generated_Source\PSoC6/CapSense_Processing.c ****     /* Reset sensor id, row and col registers in data structure */
 371:Generated_Source\PSoC6/CapSense_Processing.c ****     ptrRamWdgt->posRow   = CapSense_MATRIX_POS_NONE;
 372:Generated_Source\PSoC6/CapSense_Processing.c ****     ptrRamWdgt->posCol   = CapSense_MATRIX_POS_NONE;
ARM GAS  C:\Users\ikomb\AppData\Local\Temp\cc6TxH90.s 			page 8


 373:Generated_Source\PSoC6/CapSense_Processing.c ****     ptrRamWdgt->posSnsId = CapSense_MATRIX_POS_NONE;
 374:Generated_Source\PSoC6/CapSense_Processing.c **** }
 375:Generated_Source\PSoC6/CapSense_Processing.c **** #endif /* #if (0u != CapSense_CSD_MATRIX_WIDGET_EN) */
 376:Generated_Source\PSoC6/CapSense_Processing.c **** 
 377:Generated_Source\PSoC6/CapSense_Processing.c **** /*******************************************************************************
 378:Generated_Source\PSoC6/CapSense_Processing.c **** * Function Name: CapSense_DpInitialize
 379:Generated_Source\PSoC6/CapSense_Processing.c **** ****************************************************************************//**
 380:Generated_Source\PSoC6/CapSense_Processing.c **** *
 381:Generated_Source\PSoC6/CapSense_Processing.c **** * \brief
 382:Generated_Source\PSoC6/CapSense_Processing.c **** *  Performs initialization of the data processing FW module:
 383:Generated_Source\PSoC6/CapSense_Processing.c **** *   - Resets the de-bounce counters of all the widgets
 384:Generated_Source\PSoC6/CapSense_Processing.c **** *   - Resets the position filter history for slider and touchpad widgets
 385:Generated_Source\PSoC6/CapSense_Processing.c **** *   - Clears widget and sensor statuses
 386:Generated_Source\PSoC6/CapSense_Processing.c **** *   - Enables all the widgets.
 387:Generated_Source\PSoC6/CapSense_Processing.c **** *
 388:Generated_Source\PSoC6/CapSense_Processing.c **** * \details
 389:Generated_Source\PSoC6/CapSense_Processing.c **** *  The Button and Matrix Button widgets have individual de-bounce counter per
 390:Generated_Source\PSoC6/CapSense_Processing.c **** *  sensor for the CSD widgets and per node for the CSX widgets.
 391:Generated_Source\PSoC6/CapSense_Processing.c **** *
 392:Generated_Source\PSoC6/CapSense_Processing.c **** *  The Slider and Touchpad widgets have a single de-bounce counter per widget.
 393:Generated_Source\PSoC6/CapSense_Processing.c **** *
 394:Generated_Source\PSoC6/CapSense_Processing.c **** *  The Proximity widget has two de-bounce counters per sensor. One for the
 395:Generated_Source\PSoC6/CapSense_Processing.c **** *  proximity event and second for the touch event.
 396:Generated_Source\PSoC6/CapSense_Processing.c **** *
 397:Generated_Source\PSoC6/CapSense_Processing.c **** *  All debounce counters during initialization are set to the value of the
 398:Generated_Source\PSoC6/CapSense_Processing.c **** *  onDebounce widget parameter.
 399:Generated_Source\PSoC6/CapSense_Processing.c **** *
 400:Generated_Source\PSoC6/CapSense_Processing.c **** *******************************************************************************/
 401:Generated_Source\PSoC6/CapSense_Processing.c **** void CapSense_DpInitialize(void)
 402:Generated_Source\PSoC6/CapSense_Processing.c **** {
  28              		.loc 1 402 0
  29              		.cfi_startproc
  30              		@ args = 0, pretend = 0, frame = 0
  31              		@ frame_needed = 0, uses_anonymous_args = 0
  32 0000 F8B5     		push	{r3, r4, r5, r6, r7, lr}
  33              		.cfi_def_cfa_offset 24
  34              		.cfi_offset 3, -24
  35              		.cfi_offset 4, -20
  36              		.cfi_offset 5, -16
  37              		.cfi_offset 6, -12
  38              		.cfi_offset 7, -8
  39              		.cfi_offset 14, -4
  40              	.LVL0:
 403:Generated_Source\PSoC6/CapSense_Processing.c ****     uint32 wdgtId;
 404:Generated_Source\PSoC6/CapSense_Processing.c ****     CapSense_WD_TYPE_ENUM widgetType;
 405:Generated_Source\PSoC6/CapSense_Processing.c ****     CapSense_RAM_WD_BASE_STRUCT * ptrRamWdgt;
 406:Generated_Source\PSoC6/CapSense_Processing.c ****     CapSense_FLASH_WD_STRUCT const * ptrFlashWdgt;
 407:Generated_Source\PSoC6/CapSense_Processing.c **** 
 408:Generated_Source\PSoC6/CapSense_Processing.c ****     for (wdgtId = 0u; wdgtId < CapSense_WDGT_STATUS_WORDS; wdgtId++)
  41              		.loc 1 408 0
  42 0002 0023     		movs	r3, #0
  43 0004 09E0     		b	.L2
  44              	.LVL1:
  45              	.L3:
 409:Generated_Source\PSoC6/CapSense_Processing.c ****     {
 410:Generated_Source\PSoC6/CapSense_Processing.c ****         /* Clear widget status */
 411:Generated_Source\PSoC6/CapSense_Processing.c ****         CapSense_dsRam.wdgtStatus[wdgtId] = 0u;
ARM GAS  C:\Users\ikomb\AppData\Local\Temp\cc6TxH90.s 			page 9


  46              		.loc 1 411 0 discriminator 3
  47 0006 2249     		ldr	r1, .L14
  48 0008 1A1D     		adds	r2, r3, #4
  49 000a 9200     		lsls	r2, r2, #2
  50 000c 8818     		adds	r0, r1, r2
  51 000e 0024     		movs	r4, #0
  52 0010 4460     		str	r4, [r0, #4]
 412:Generated_Source\PSoC6/CapSense_Processing.c **** 
 413:Generated_Source\PSoC6/CapSense_Processing.c ****         /* Enable all the widgets */
 414:Generated_Source\PSoC6/CapSense_Processing.c ****         CapSense_dsRam.wdgtEnable[wdgtId] = 0xFFFFFFFFLu;
  53              		.loc 1 414 0 discriminator 3
  54 0012 0120     		movs	r0, #1
  55 0014 4042     		rsbs	r0, r0, #0
  56 0016 5050     		str	r0, [r2, r1]
 408:Generated_Source\PSoC6/CapSense_Processing.c ****     {
  57              		.loc 1 408 0 discriminator 3
  58 0018 0133     		adds	r3, r3, #1
  59              	.LVL2:
  60              	.L2:
 408:Generated_Source\PSoC6/CapSense_Processing.c ****     {
  61              		.loc 1 408 0 is_stmt 0 discriminator 1
  62 001a 002B     		cmp	r3, #0
  63 001c F3D0     		beq	.L3
  64 001e 1D4C     		ldr	r4, .L14+4
  65 0020 0323     		movs	r3, #3
  66              	.LVL3:
  67 0022 30E0     		b	.L4
  68              	.LVL4:
  69              	.L12:
 415:Generated_Source\PSoC6/CapSense_Processing.c **** 
 416:Generated_Source\PSoC6/CapSense_Processing.c ****         /* Set all the widgets to working state if the Self-Test is not enabled */
 417:Generated_Source\PSoC6/CapSense_Processing.c ****         #if (0u != CapSense_SELF_TEST_EN)
 418:Generated_Source\PSoC6/CapSense_Processing.c ****             CapSense_dsRam.wdgtWorking[wdgtId] = 0xFFFFFFFFLu;
 419:Generated_Source\PSoC6/CapSense_Processing.c ****         #endif /* #if (0u == CapSense_SELF_TEST_EN) */
 420:Generated_Source\PSoC6/CapSense_Processing.c ****     }
 421:Generated_Source\PSoC6/CapSense_Processing.c **** 
 422:Generated_Source\PSoC6/CapSense_Processing.c ****     ptrFlashWdgt = CapSense_dsFlash.wdgtArray;
 423:Generated_Source\PSoC6/CapSense_Processing.c **** 
 424:Generated_Source\PSoC6/CapSense_Processing.c ****     for (wdgtId = CapSense_TOTAL_WIDGETS; wdgtId-- > 0u; )
 425:Generated_Source\PSoC6/CapSense_Processing.c ****     {
 426:Generated_Source\PSoC6/CapSense_Processing.c ****         ptrRamWdgt = (CapSense_RAM_WD_BASE_STRUCT *)ptrFlashWdgt->ptr2WdgtRam;
  70              		.loc 1 426 0 is_stmt 1
  71 0024 6668     		ldr	r6, [r4, #4]
  72              	.LVL5:
 427:Generated_Source\PSoC6/CapSense_Processing.c ****         widgetType = (CapSense_WD_TYPE_ENUM)ptrFlashWdgt->wdgtType;
  73              		.loc 1 427 0
  74 0026 A27E     		ldrb	r2, [r4, #26]
  75              	.LVL6:
 428:Generated_Source\PSoC6/CapSense_Processing.c **** 
 429:Generated_Source\PSoC6/CapSense_Processing.c ****         /* Clear all sensor statuses */
 430:Generated_Source\PSoC6/CapSense_Processing.c ****         CapSense_dsRam.snsStatus[wdgtId] = 0u;
  76              		.loc 1 430 0
  77 0028 194B     		ldr	r3, .L14
  78 002a 5B19     		adds	r3, r3, r5
  79 002c 0021     		movs	r1, #0
  80 002e 1976     		strb	r1, [r3, #24]
 431:Generated_Source\PSoC6/CapSense_Processing.c **** 
ARM GAS  C:\Users\ikomb\AppData\Local\Temp\cc6TxH90.s 			page 10


 432:Generated_Source\PSoC6/CapSense_Processing.c ****         /* Reset de-bounce counters */
 433:Generated_Source\PSoC6/CapSense_Processing.c ****         switch (widgetType)
  81              		.loc 1 433 0
  82 0030 012A     		cmp	r2, #1
  83 0032 04D0     		beq	.L6
  84 0034 002A     		cmp	r2, #0
  85 0036 24D0     		beq	.L5
  86 0038 032A     		cmp	r2, #3
  87 003a 08D9     		bls	.L13
  88 003c 21E0     		b	.L5
  89              	.L6:
 434:Generated_Source\PSoC6/CapSense_Processing.c ****         {
 435:Generated_Source\PSoC6/CapSense_Processing.c ****         #if (0u != CapSense_MATRIX_WIDGET_EN)
 436:Generated_Source\PSoC6/CapSense_Processing.c ****             case CapSense_WD_MATRIX_BUTTON_E:
 437:Generated_Source\PSoC6/CapSense_Processing.c ****                 #if (0u != CapSense_CSD_MATRIX_WIDGET_EN)
 438:Generated_Source\PSoC6/CapSense_Processing.c ****                     if (CapSense_SENSE_METHOD_CSD_E == CapSense_GET_SENSE_METHOD(ptrFlashWdgt))
 439:Generated_Source\PSoC6/CapSense_Processing.c ****                     {
 440:Generated_Source\PSoC6/CapSense_Processing.c ****                         CapSense_DpInitCsdMatrix(ptrFlashWdgt);
 441:Generated_Source\PSoC6/CapSense_Processing.c ****                     }
 442:Generated_Source\PSoC6/CapSense_Processing.c ****                 #endif /* #if (0u != CapSense_CSD_MATRIX_WIDGET_EN) */
 443:Generated_Source\PSoC6/CapSense_Processing.c **** 
 444:Generated_Source\PSoC6/CapSense_Processing.c ****                 if (NULL != ptrFlashWdgt->ptr2DebounceArr)
 445:Generated_Source\PSoC6/CapSense_Processing.c ****                 {
 446:Generated_Source\PSoC6/CapSense_Processing.c ****                     /* Initialize array of debounce counters */
 447:Generated_Source\PSoC6/CapSense_Processing.c ****                     (void)memset(ptrFlashWdgt->ptr2DebounceArr,
 448:Generated_Source\PSoC6/CapSense_Processing.c ****                                  (int32)ptrRamWdgt->onDebounce,
 449:Generated_Source\PSoC6/CapSense_Processing.c ****                                  (size_t)ptrFlashWdgt->totalNumSns);
 450:Generated_Source\PSoC6/CapSense_Processing.c ****                 }
 451:Generated_Source\PSoC6/CapSense_Processing.c ****                 break;
 452:Generated_Source\PSoC6/CapSense_Processing.c ****         #endif /* #if (0u != CapSense_MATRIX_WIDGET_EN) */
 453:Generated_Source\PSoC6/CapSense_Processing.c **** 
 454:Generated_Source\PSoC6/CapSense_Processing.c ****         #if (0u != CapSense_BUTTON_WIDGET_EN)
 455:Generated_Source\PSoC6/CapSense_Processing.c ****             case CapSense_WD_BUTTON_E:
 456:Generated_Source\PSoC6/CapSense_Processing.c ****                 if (NULL != ptrFlashWdgt->ptr2DebounceArr)
  90              		.loc 1 456 0
  91 003e 2069     		ldr	r0, [r4, #16]
  92 0040 0028     		cmp	r0, #0
  93 0042 1ED0     		beq	.L5
 457:Generated_Source\PSoC6/CapSense_Processing.c ****                 {
 458:Generated_Source\PSoC6/CapSense_Processing.c ****                     /* Initialize array of debounce counters */
 459:Generated_Source\PSoC6/CapSense_Processing.c ****                     (void)memset(ptrFlashWdgt->ptr2DebounceArr,
 460:Generated_Source\PSoC6/CapSense_Processing.c ****                                  (int32)ptrRamWdgt->onDebounce,
  94              		.loc 1 460 0
  95 0044 F179     		ldrb	r1, [r6, #7]
 461:Generated_Source\PSoC6/CapSense_Processing.c ****                                  (size_t)ptrFlashWdgt->totalNumSns);
  96              		.loc 1 461 0
  97 0046 228B     		ldrh	r2, [r4, #24]
  98              	.LVL7:
 459:Generated_Source\PSoC6/CapSense_Processing.c ****                                  (int32)ptrRamWdgt->onDebounce,
  99              		.loc 1 459 0
 100 0048 FFF7FEFF 		bl	memset
 101              	.LVL8:
 102 004c 19E0     		b	.L5
 103              	.LVL9:
 104              	.L13:
 462:Generated_Source\PSoC6/CapSense_Processing.c ****                 }
 463:Generated_Source\PSoC6/CapSense_Processing.c ****                 break;
ARM GAS  C:\Users\ikomb\AppData\Local\Temp\cc6TxH90.s 			page 11


 464:Generated_Source\PSoC6/CapSense_Processing.c ****         #endif /* #if (0u != CapSense_BUTTON_WIDGET_EN) */
 465:Generated_Source\PSoC6/CapSense_Processing.c **** 
 466:Generated_Source\PSoC6/CapSense_Processing.c ****         #if (0u != CapSense_SLIDER_WIDGET_EN)
 467:Generated_Source\PSoC6/CapSense_Processing.c ****             case CapSense_WD_LINEAR_SLIDER_E:
 468:Generated_Source\PSoC6/CapSense_Processing.c ****             case CapSense_WD_RADIAL_SLIDER_E:
 469:Generated_Source\PSoC6/CapSense_Processing.c ****                 if (NULL != ptrFlashWdgt->ptr2DebounceArr)
 105              		.loc 1 469 0
 106 004e 2369     		ldr	r3, [r4, #16]
 107 0050 002B     		cmp	r3, #0
 108 0052 01D0     		beq	.L8
 470:Generated_Source\PSoC6/CapSense_Processing.c ****                 {
 471:Generated_Source\PSoC6/CapSense_Processing.c ****                     /* Initialize single debounce counter of slider */
 472:Generated_Source\PSoC6/CapSense_Processing.c ****                     *(uint8 *)(ptrFlashWdgt->ptr2DebounceArr) = ptrRamWdgt->onDebounce;
 109              		.loc 1 472 0
 110 0054 F279     		ldrb	r2, [r6, #7]
 111              	.LVL10:
 112 0056 1A70     		strb	r2, [r3]
 113              	.L8:
 114              	.LVL11:
 115              	.LBB4:
 116              	.LBB5:
 328:Generated_Source\PSoC6/CapSense_Processing.c **** 
 117              		.loc 1 328 0
 118 0058 6768     		ldr	r7, [r4, #4]
 119              	.LVL12:
 331:Generated_Source\PSoC6/CapSense_Processing.c ****     {
 120              		.loc 1 331 0
 121 005a 0026     		movs	r6, #0
 122              	.LVL13:
 123 005c 0FE0     		b	.L9
 124              	.LVL14:
 125              	.L11:
 333:Generated_Source\PSoC6/CapSense_Processing.c **** 
 126              		.loc 1 333 0
 127 005e 3300     		movs	r3, r6
 128 0060 0833     		adds	r3, r3, #8
 129 0062 5B00     		lsls	r3, r3, #1
 130 0064 FB18     		adds	r3, r7, r3
 131 0066 0122     		movs	r2, #1
 132 0068 5242     		rsbs	r2, r2, #0
 133 006a 5A80     		strh	r2, [r3, #2]
 336:Generated_Source\PSoC6/CapSense_Processing.c ****             if (NULL != ptrHistory)
 134              		.loc 1 336 0
 135 006c A06A     		ldr	r0, [r4, #40]
 136              	.LVL15:
 337:Generated_Source\PSoC6/CapSense_Processing.c ****             {
 137              		.loc 1 337 0
 138 006e 0028     		cmp	r0, #0
 139 0070 04D0     		beq	.L10
 339:Generated_Source\PSoC6/CapSense_Processing.c ****                 #if (0u != CapSense_POS_ADAPTIVE_IIR_FILTER_EN)
 140              		.loc 1 339 0
 141 0072 7300     		lsls	r3, r6, #1
 142 0074 C018     		adds	r0, r0, r3
 143              	.LVL16:
 144 0076 0849     		ldr	r1, .L14+8
 145 0078 FFF7FEFF 		bl	CapSense_InitPosFiltersSd
 146              	.LVL17:
ARM GAS  C:\Users\ikomb\AppData\Local\Temp\cc6TxH90.s 			page 12


 147              	.L10:
 331:Generated_Source\PSoC6/CapSense_Processing.c ****     {
 148              		.loc 1 331 0
 149 007c 0136     		adds	r6, r6, #1
 150              	.LVL18:
 151              	.L9:
 152 007e 002E     		cmp	r6, #0
 153 0080 EDD0     		beq	.L11
 154              	.LVL19:
 155              	.L5:
 156              	.LBE5:
 157              	.LBE4:
 473:Generated_Source\PSoC6/CapSense_Processing.c ****                 }
 474:Generated_Source\PSoC6/CapSense_Processing.c **** 
 475:Generated_Source\PSoC6/CapSense_Processing.c ****                 CapSense_DpInitSlider(ptrFlashWdgt);
 476:Generated_Source\PSoC6/CapSense_Processing.c **** 
 477:Generated_Source\PSoC6/CapSense_Processing.c ****                 break;
 478:Generated_Source\PSoC6/CapSense_Processing.c ****         #endif /* #if (0u != CapSense_SLIDER_WIDGET_EN) */
 479:Generated_Source\PSoC6/CapSense_Processing.c **** 
 480:Generated_Source\PSoC6/CapSense_Processing.c ****         #if (0u != CapSense_TOUCHPAD_WIDGET_EN)
 481:Generated_Source\PSoC6/CapSense_Processing.c ****             case CapSense_WD_TOUCHPAD_E:
 482:Generated_Source\PSoC6/CapSense_Processing.c ****                 if (NULL != ptrFlashWdgt->ptr2DebounceArr)
 483:Generated_Source\PSoC6/CapSense_Processing.c ****                 {
 484:Generated_Source\PSoC6/CapSense_Processing.c ****                     /* Initialize single debounce counter of touchpad */
 485:Generated_Source\PSoC6/CapSense_Processing.c ****                     *(uint8 *)(ptrFlashWdgt->ptr2DebounceArr) = ptrRamWdgt->onDebounce;
 486:Generated_Source\PSoC6/CapSense_Processing.c ****                 }
 487:Generated_Source\PSoC6/CapSense_Processing.c **** 
 488:Generated_Source\PSoC6/CapSense_Processing.c ****                 #if (0u != CapSense_CSD_TOUCHPAD_WIDGET_EN)
 489:Generated_Source\PSoC6/CapSense_Processing.c ****                     if (CapSense_SENSE_METHOD_CSD_E == CapSense_GET_SENSE_METHOD(ptrFlashWdgt))
 490:Generated_Source\PSoC6/CapSense_Processing.c ****                     {
 491:Generated_Source\PSoC6/CapSense_Processing.c ****                         CapSense_DpInitCsdTouchpad(ptrFlashWdgt);
 492:Generated_Source\PSoC6/CapSense_Processing.c ****                     }
 493:Generated_Source\PSoC6/CapSense_Processing.c ****                 #endif /* #if (0u != CapSense_CSD_TOUCHPAD_WIDGET_EN) */
 494:Generated_Source\PSoC6/CapSense_Processing.c **** 
 495:Generated_Source\PSoC6/CapSense_Processing.c ****                 #if (0u != CapSense_CSX_TOUCHPAD_WIDGET_EN)
 496:Generated_Source\PSoC6/CapSense_Processing.c ****                     if (CapSense_SENSE_METHOD_CSX_E == CapSense_GET_SENSE_METHOD(ptrFlashWdgt))
 497:Generated_Source\PSoC6/CapSense_Processing.c ****                     {
 498:Generated_Source\PSoC6/CapSense_Processing.c ****                         CapSense_DpInitCsxTouchpad(ptrFlashWdgt);
 499:Generated_Source\PSoC6/CapSense_Processing.c ****                     }
 500:Generated_Source\PSoC6/CapSense_Processing.c ****                 #endif /* #if (0u != CapSense_CSX_TOUCHPAD_WIDGET_EN) */
 501:Generated_Source\PSoC6/CapSense_Processing.c **** 
 502:Generated_Source\PSoC6/CapSense_Processing.c ****                 break;
 503:Generated_Source\PSoC6/CapSense_Processing.c ****         #endif /* #if (0u != CapSense_TOUCHPAD_WIDGET_EN) */
 504:Generated_Source\PSoC6/CapSense_Processing.c **** 
 505:Generated_Source\PSoC6/CapSense_Processing.c ****         #if (0u != CapSense_PROXIMITY_WIDGET_EN)
 506:Generated_Source\PSoC6/CapSense_Processing.c ****             case CapSense_WD_PROXIMITY_E:
 507:Generated_Source\PSoC6/CapSense_Processing.c ****                 if (NULL != ptrFlashWdgt->ptr2DebounceArr)
 508:Generated_Source\PSoC6/CapSense_Processing.c ****                 {
 509:Generated_Source\PSoC6/CapSense_Processing.c ****                     /* Proximity widgets have 2 de-bounce counters per sensor.
 510:Generated_Source\PSoC6/CapSense_Processing.c ****                      * Therefore the number of sensors is multiplied by 2.
 511:Generated_Source\PSoC6/CapSense_Processing.c ****                      */
 512:Generated_Source\PSoC6/CapSense_Processing.c ****                    (void)memset(ptrFlashWdgt->ptr2DebounceArr,
 513:Generated_Source\PSoC6/CapSense_Processing.c ****                                 (int32)ptrRamWdgt->onDebounce,
 514:Generated_Source\PSoC6/CapSense_Processing.c ****                                 (size_t)ptrFlashWdgt->totalNumSns * 2u);
 515:Generated_Source\PSoC6/CapSense_Processing.c ****                 }
 516:Generated_Source\PSoC6/CapSense_Processing.c ****                 break;
 517:Generated_Source\PSoC6/CapSense_Processing.c ****         #endif /* #if (0u != CapSense_PROXIMITY_WIDGET_EN) */
ARM GAS  C:\Users\ikomb\AppData\Local\Temp\cc6TxH90.s 			page 13


 518:Generated_Source\PSoC6/CapSense_Processing.c **** 
 519:Generated_Source\PSoC6/CapSense_Processing.c ****             default:
 520:Generated_Source\PSoC6/CapSense_Processing.c ****                 break;
 521:Generated_Source\PSoC6/CapSense_Processing.c ****         }
 522:Generated_Source\PSoC6/CapSense_Processing.c **** 
 523:Generated_Source\PSoC6/CapSense_Processing.c ****         /* Move to next widget */
 524:Generated_Source\PSoC6/CapSense_Processing.c ****         ptrFlashWdgt++;
 158              		.loc 1 524 0
 159 0082 3034     		adds	r4, r4, #48
 160              	.LVL20:
 424:Generated_Source\PSoC6/CapSense_Processing.c ****     {
 161              		.loc 1 424 0
 162 0084 2B00     		movs	r3, r5
 163              	.LVL21:
 164              	.L4:
 424:Generated_Source\PSoC6/CapSense_Processing.c ****     {
 165              		.loc 1 424 0 is_stmt 0 discriminator 1
 166 0086 5D1E     		subs	r5, r3, #1
 167              	.LVL22:
 168 0088 002B     		cmp	r3, #0
 169 008a CBD1     		bne	.L12
 525:Generated_Source\PSoC6/CapSense_Processing.c ****     }
 526:Generated_Source\PSoC6/CapSense_Processing.c **** }
 170              		.loc 1 526 0 is_stmt 1
 171              		@ sp needed
 172              	.LVL23:
 173              	.LVL24:
 174 008c F8BD     		pop	{r3, r4, r5, r6, r7, pc}
 175              	.L15:
 176 008e C046     		.align	2
 177              	.L14:
 178 0090 00000000 		.word	CapSense_dsRam
 179 0094 00000000 		.word	CapSense_dsFlash
 180 0098 FFFF0000 		.word	65535
 181              		.cfi_endproc
 182              	.LFE37:
 183              		.size	CapSense_DpInitialize, .-CapSense_DpInitialize
 184              		.section	.text.CapSense_DpUpdateThresholds,"ax",%progbits
 185              		.align	2
 186              		.global	CapSense_DpUpdateThresholds
 187              		.code	16
 188              		.thumb_func
 189              		.type	CapSense_DpUpdateThresholds, %function
 190              	CapSense_DpUpdateThresholds:
 191              	.LFB44:
 527:Generated_Source\PSoC6/CapSense_Processing.c **** 
 528:Generated_Source\PSoC6/CapSense_Processing.c **** #if (0u != CapSense_TOTAL_CSX_WIDGETS)
 529:Generated_Source\PSoC6/CapSense_Processing.c **** /*******************************************************************************
 530:Generated_Source\PSoC6/CapSense_Processing.c **** * Function Name: CapSense_DpProcessCsxWidgetRawCounts
 531:Generated_Source\PSoC6/CapSense_Processing.c **** ****************************************************************************//**
 532:Generated_Source\PSoC6/CapSense_Processing.c **** *
 533:Generated_Source\PSoC6/CapSense_Processing.c **** * \brief
 534:Generated_Source\PSoC6/CapSense_Processing.c **** *  Performs default processing of the CSX raw counts.
 535:Generated_Source\PSoC6/CapSense_Processing.c **** *
 536:Generated_Source\PSoC6/CapSense_Processing.c **** * \details
 537:Generated_Source\PSoC6/CapSense_Processing.c **** *  Performs default processing of the CSX raw counts:
 538:Generated_Source\PSoC6/CapSense_Processing.c **** *   - Run Filters
ARM GAS  C:\Users\ikomb\AppData\Local\Temp\cc6TxH90.s 			page 14


 539:Generated_Source\PSoC6/CapSense_Processing.c **** *   - Update Baselines
 540:Generated_Source\PSoC6/CapSense_Processing.c **** *   - Update Differences
 541:Generated_Source\PSoC6/CapSense_Processing.c **** *   - Update Status.
 542:Generated_Source\PSoC6/CapSense_Processing.c **** *  The same process is applied to all the sensors of the specified widget.
 543:Generated_Source\PSoC6/CapSense_Processing.c **** *
 544:Generated_Source\PSoC6/CapSense_Processing.c **** * \param ptrFlashWdgt The pointer to the Flash widget structure.
 545:Generated_Source\PSoC6/CapSense_Processing.c **** *
 546:Generated_Source\PSoC6/CapSense_Processing.c **** * \return
 547:Generated_Source\PSoC6/CapSense_Processing.c **** *  Returns the status of the specified widget processing operation:
 548:Generated_Source\PSoC6/CapSense_Processing.c **** *  - CY_RET_SUCCESS if operation was successfully completed;
 549:Generated_Source\PSoC6/CapSense_Processing.c **** *  - CapSense_PROCESS_BASELINE_FAILED if baseline processing of any
 550:Generated_Source\PSoC6/CapSense_Processing.c **** *    sensor of the specified widget failed. The result is concatenated with the index
 551:Generated_Source\PSoC6/CapSense_Processing.c **** *    of failed sensor.
 552:Generated_Source\PSoC6/CapSense_Processing.c **** *
 553:Generated_Source\PSoC6/CapSense_Processing.c **** *******************************************************************************/
 554:Generated_Source\PSoC6/CapSense_Processing.c **** uint32 CapSense_DpProcessCsxWidgetRawCounts(CapSense_FLASH_WD_STRUCT const *ptrFlashWdgt)
 555:Generated_Source\PSoC6/CapSense_Processing.c **** {
 556:Generated_Source\PSoC6/CapSense_Processing.c ****     uint32 result = CY_RET_SUCCESS;
 557:Generated_Source\PSoC6/CapSense_Processing.c ****     uint32 widgetType;
 558:Generated_Source\PSoC6/CapSense_Processing.c ****     uint32 snsCount;
 559:Generated_Source\PSoC6/CapSense_Processing.c ****     CapSense_RAM_SNS_STRUCT *ptrSnsTmp;
 560:Generated_Source\PSoC6/CapSense_Processing.c ****     CapSense_RAM_WD_BASE_STRUCT *ptrRamWdgt;
 561:Generated_Source\PSoC6/CapSense_Processing.c **** 
 562:Generated_Source\PSoC6/CapSense_Processing.c ****     #if (CapSense_ENABLE == CapSense_RC_FILTER_EN)
 563:Generated_Source\PSoC6/CapSense_Processing.c ****         CapSense_PTR_FILTER_VARIANT fltrHistV;
 564:Generated_Source\PSoC6/CapSense_Processing.c **** 
 565:Generated_Source\PSoC6/CapSense_Processing.c ****         fltrHistV.ptr = ptrFlashWdgt->ptr2FltrHistory;
 566:Generated_Source\PSoC6/CapSense_Processing.c ****     #endif /* #if (CapSense_ENABLE == CapSense_RC_FILTER_EN) */
 567:Generated_Source\PSoC6/CapSense_Processing.c **** 
 568:Generated_Source\PSoC6/CapSense_Processing.c ****     ptrSnsTmp = ptrFlashWdgt->ptr2SnsRam;
 569:Generated_Source\PSoC6/CapSense_Processing.c ****     snsCount = ptrFlashWdgt->totalNumSns;
 570:Generated_Source\PSoC6/CapSense_Processing.c ****     ptrRamWdgt = (CapSense_RAM_WD_BASE_STRUCT *)ptrFlashWdgt->ptr2WdgtRam;
 571:Generated_Source\PSoC6/CapSense_Processing.c ****     widgetType = ptrFlashWdgt->wdgtType;
 572:Generated_Source\PSoC6/CapSense_Processing.c **** 
 573:Generated_Source\PSoC6/CapSense_Processing.c ****     /* Run deconvolution algorithm for the widgets with multiphase TX support */
 574:Generated_Source\PSoC6/CapSense_Processing.c ****     #if (0u != CapSense_CSX_MULTIPHASE_TX_EN)
 575:Generated_Source\PSoC6/CapSense_Processing.c ****         if (0u != (ptrFlashWdgt->staticConfig & CapSense_MULTIPHASE_TX_MASK))
 576:Generated_Source\PSoC6/CapSense_Processing.c ****         {
 577:Generated_Source\PSoC6/CapSense_Processing.c ****             CapSense_DpDeconvolution(ptrFlashWdgt);
 578:Generated_Source\PSoC6/CapSense_Processing.c ****         }
 579:Generated_Source\PSoC6/CapSense_Processing.c ****     #endif  /* #if (0u != CapSense_CSX_MULTIPHASE_TX_EN) */
 580:Generated_Source\PSoC6/CapSense_Processing.c **** 
 581:Generated_Source\PSoC6/CapSense_Processing.c ****     for (;snsCount-- > 0u;)
 582:Generated_Source\PSoC6/CapSense_Processing.c ****     {
 583:Generated_Source\PSoC6/CapSense_Processing.c ****         #if (CapSense_ENABLE == CapSense_RC_FILTER_EN)
 584:Generated_Source\PSoC6/CapSense_Processing.c ****             CapSense_FtRunEnabledFiltersInternal(fltrHistV, ptrSnsTmp, widgetType);
 585:Generated_Source\PSoC6/CapSense_Processing.c ****             #if (CapSense_ALP_FILTER_EN)
 586:Generated_Source\PSoC6/CapSense_Processing.c ****                 CapSense_ConfigRunALPInternal(fltrHistV, ptrRamWdgt, ptrSnsTmp, widgetType);
 587:Generated_Source\PSoC6/CapSense_Processing.c ****             #endif
 588:Generated_Source\PSoC6/CapSense_Processing.c ****         #endif /* #if (CapSense_ENABLE == CapSense_RC_FILTER_EN) */
 589:Generated_Source\PSoC6/CapSense_Processing.c **** 
 590:Generated_Source\PSoC6/CapSense_Processing.c ****         result = CapSense_FtUpdateBaseline(ptrRamWdgt, ptrSnsTmp, widgetType);
 591:Generated_Source\PSoC6/CapSense_Processing.c **** 
 592:Generated_Source\PSoC6/CapSense_Processing.c ****         #if (CapSense_ENABLE == CapSense_TST_BSLN_DUPLICATION_EN)
 593:Generated_Source\PSoC6/CapSense_Processing.c ****             if (CY_RET_SUCCESS != result)
 594:Generated_Source\PSoC6/CapSense_Processing.c ****             {
 595:Generated_Source\PSoC6/CapSense_Processing.c ****                 result = snsCount | CapSense_PROCESS_BASELINE_FAILED;
ARM GAS  C:\Users\ikomb\AppData\Local\Temp\cc6TxH90.s 			page 15


 596:Generated_Source\PSoC6/CapSense_Processing.c ****             }
 597:Generated_Source\PSoC6/CapSense_Processing.c ****         #endif /* (CapSense_ENABLE == CapSense_TST_BSLN_DUPLICATION_EN) */
 598:Generated_Source\PSoC6/CapSense_Processing.c **** 
 599:Generated_Source\PSoC6/CapSense_Processing.c ****         CapSense_DpUpdateDifferences(ptrRamWdgt, ptrSnsTmp);
 600:Generated_Source\PSoC6/CapSense_Processing.c **** 
 601:Generated_Source\PSoC6/CapSense_Processing.c ****         /* Move pointers to the next sensor and filter history objects */
 602:Generated_Source\PSoC6/CapSense_Processing.c ****         ptrSnsTmp++;
 603:Generated_Source\PSoC6/CapSense_Processing.c ****         
 604:Generated_Source\PSoC6/CapSense_Processing.c ****         #if (CapSense_ENABLE == CapSense_RC_FILTER_EN)
 605:Generated_Source\PSoC6/CapSense_Processing.c ****             CapSense_INC_REG_FLTR_OBJ(fltrHistV);
 606:Generated_Source\PSoC6/CapSense_Processing.c ****         #endif /* #if (CapSense_ENABLE == CapSense_RC_FILTER_EN) */
 607:Generated_Source\PSoC6/CapSense_Processing.c ****     }
 608:Generated_Source\PSoC6/CapSense_Processing.c ****     return result;
 609:Generated_Source\PSoC6/CapSense_Processing.c **** }
 610:Generated_Source\PSoC6/CapSense_Processing.c **** 
 611:Generated_Source\PSoC6/CapSense_Processing.c **** /*******************************************************************************
 612:Generated_Source\PSoC6/CapSense_Processing.c **** * Function Name: CapSense_DpProcessCsxSensorRawCountsExt
 613:Generated_Source\PSoC6/CapSense_Processing.c **** ****************************************************************************//**
 614:Generated_Source\PSoC6/CapSense_Processing.c **** *
 615:Generated_Source\PSoC6/CapSense_Processing.c **** * \brief
 616:Generated_Source\PSoC6/CapSense_Processing.c **** *   Performs customized processing of the CSX sensor raw counts.
 617:Generated_Source\PSoC6/CapSense_Processing.c **** *
 618:Generated_Source\PSoC6/CapSense_Processing.c **** * \details
 619:Generated_Source\PSoC6/CapSense_Processing.c **** *   Performs customized processing of the CSX sensor raw counts.
 620:Generated_Source\PSoC6/CapSense_Processing.c **** *
 621:Generated_Source\PSoC6/CapSense_Processing.c **** *   If all bits are set at once the default processing order will take place.
 622:Generated_Source\PSoC6/CapSense_Processing.c **** *   For the custom order this API can be called multiple times and execute one task at a time.
 623:Generated_Source\PSoC6/CapSense_Processing.c **** *
 624:Generated_Source\PSoC6/CapSense_Processing.c **** * \param ptrFlashWdgt The pointer to the Flash Widget Object.
 625:Generated_Source\PSoC6/CapSense_Processing.c **** * \param curSnsPtr    The pointer to the specific RAM Sensor Object.
 626:Generated_Source\PSoC6/CapSense_Processing.c **** * \param fltrHistV    The pointer to the Filter History Object in RAM associated with specific sens
 627:Generated_Source\PSoC6/CapSense_Processing.c **** * \param mode         The bit-mask with the data processing tasks to be executed.
 628:Generated_Source\PSoC6/CapSense_Processing.c **** *   The mode parameters can take the following values:
 629:Generated_Source\PSoC6/CapSense_Processing.c **** *    - CapSense_PROCESS_FILTER     (0x01) Run Firmware Filter
 630:Generated_Source\PSoC6/CapSense_Processing.c **** *    - CapSense_PROCESS_BASELINE   (0x02) Update Baselines
 631:Generated_Source\PSoC6/CapSense_Processing.c **** *    - CapSense_PROCESS_DIFFCOUNTS (0x04) Update Difference Counts
 632:Generated_Source\PSoC6/CapSense_Processing.c **** *    - CapSense_PROCESS_ALL               Execute all tasks
 633:Generated_Source\PSoC6/CapSense_Processing.c **** *
 634:Generated_Source\PSoC6/CapSense_Processing.c **** * \return
 635:Generated_Source\PSoC6/CapSense_Processing.c **** *  Returns the status of the specified sensor processing operation:
 636:Generated_Source\PSoC6/CapSense_Processing.c **** *  - CY_RET_SUCCESS if operation was successfully completed;
 637:Generated_Source\PSoC6/CapSense_Processing.c **** *  - CapSense_PROCESS_BASELINE_FAILED if baseline processing of any
 638:Generated_Source\PSoC6/CapSense_Processing.c **** *    sensor of the specified widget failed. The result is concatenated with the index
 639:Generated_Source\PSoC6/CapSense_Processing.c **** *    of failed sensor.
 640:Generated_Source\PSoC6/CapSense_Processing.c **** *
 641:Generated_Source\PSoC6/CapSense_Processing.c **** *******************************************************************************/
 642:Generated_Source\PSoC6/CapSense_Processing.c **** uint32 CapSense_DpProcessCsxSensorRawCountsExt(
 643:Generated_Source\PSoC6/CapSense_Processing.c ****                 CapSense_FLASH_WD_STRUCT const *ptrFlashWdgt,
 644:Generated_Source\PSoC6/CapSense_Processing.c ****                 CapSense_RAM_SNS_STRUCT *curSnsPtr,
 645:Generated_Source\PSoC6/CapSense_Processing.c ****                 CapSense_PTR_FILTER_VARIANT fltrHistV,
 646:Generated_Source\PSoC6/CapSense_Processing.c ****                 uint32 mode)
 647:Generated_Source\PSoC6/CapSense_Processing.c **** {
 648:Generated_Source\PSoC6/CapSense_Processing.c ****     uint32  result = CY_RET_SUCCESS;
 649:Generated_Source\PSoC6/CapSense_Processing.c ****     uint32  widgetType;
 650:Generated_Source\PSoC6/CapSense_Processing.c ****     CapSense_RAM_WD_BASE_STRUCT *ptrRamWdgt;
 651:Generated_Source\PSoC6/CapSense_Processing.c **** 
 652:Generated_Source\PSoC6/CapSense_Processing.c ****     widgetType = ptrFlashWdgt->wdgtType;
ARM GAS  C:\Users\ikomb\AppData\Local\Temp\cc6TxH90.s 			page 16


 653:Generated_Source\PSoC6/CapSense_Processing.c ****     ptrRamWdgt = (CapSense_RAM_WD_BASE_STRUCT *)ptrFlashWdgt->ptr2WdgtRam;
 654:Generated_Source\PSoC6/CapSense_Processing.c **** 
 655:Generated_Source\PSoC6/CapSense_Processing.c ****     #if (CapSense_ENABLE == CapSense_RC_FILTER_EN)
 656:Generated_Source\PSoC6/CapSense_Processing.c ****         if (0u != (mode & CapSense_PROCESS_FILTER))
 657:Generated_Source\PSoC6/CapSense_Processing.c ****         {
 658:Generated_Source\PSoC6/CapSense_Processing.c ****             CapSense_FtRunEnabledFiltersInternal(fltrHistV, curSnsPtr, widgetType);
 659:Generated_Source\PSoC6/CapSense_Processing.c ****             #if (CapSense_ALP_FILTER_EN)
 660:Generated_Source\PSoC6/CapSense_Processing.c ****                 CapSense_ConfigRunALPInternal(fltrHistV, ptrRamWdgt, curSnsPtr, widgetType);
 661:Generated_Source\PSoC6/CapSense_Processing.c ****             #endif
 662:Generated_Source\PSoC6/CapSense_Processing.c ****         }
 663:Generated_Source\PSoC6/CapSense_Processing.c ****     #else
 664:Generated_Source\PSoC6/CapSense_Processing.c ****         (void)fltrHistV; /* This parameter is unused in such configurations */
 665:Generated_Source\PSoC6/CapSense_Processing.c ****     #endif /* #if (CapSense_ENABLE == CapSense_RC_FILTER_EN) */
 666:Generated_Source\PSoC6/CapSense_Processing.c **** 
 667:Generated_Source\PSoC6/CapSense_Processing.c ****     if (0u != (mode & CapSense_PROCESS_BASELINE))
 668:Generated_Source\PSoC6/CapSense_Processing.c ****     {
 669:Generated_Source\PSoC6/CapSense_Processing.c ****         result = CapSense_FtUpdateBaseline(ptrRamWdgt, curSnsPtr, widgetType);
 670:Generated_Source\PSoC6/CapSense_Processing.c ****     }
 671:Generated_Source\PSoC6/CapSense_Processing.c **** 
 672:Generated_Source\PSoC6/CapSense_Processing.c ****     if (0u != (mode & CapSense_PROCESS_DIFFCOUNTS))
 673:Generated_Source\PSoC6/CapSense_Processing.c ****     {
 674:Generated_Source\PSoC6/CapSense_Processing.c ****         CapSense_DpUpdateDifferences(ptrRamWdgt, curSnsPtr);
 675:Generated_Source\PSoC6/CapSense_Processing.c ****     }
 676:Generated_Source\PSoC6/CapSense_Processing.c ****     return result;
 677:Generated_Source\PSoC6/CapSense_Processing.c **** }
 678:Generated_Source\PSoC6/CapSense_Processing.c **** 
 679:Generated_Source\PSoC6/CapSense_Processing.c **** 
 680:Generated_Source\PSoC6/CapSense_Processing.c **** /*******************************************************************************
 681:Generated_Source\PSoC6/CapSense_Processing.c **** * Function Name: CapSense_DpProcessCsxWidgetStatus
 682:Generated_Source\PSoC6/CapSense_Processing.c **** ****************************************************************************//**
 683:Generated_Source\PSoC6/CapSense_Processing.c **** *
 684:Generated_Source\PSoC6/CapSense_Processing.c **** * \brief
 685:Generated_Source\PSoC6/CapSense_Processing.c **** *   Updates the status of the CSX widget in the Data Structure.
 686:Generated_Source\PSoC6/CapSense_Processing.c **** *
 687:Generated_Source\PSoC6/CapSense_Processing.c **** * \details
 688:Generated_Source\PSoC6/CapSense_Processing.c **** *  This API determines the type of widget and runs the appropriate function
 689:Generated_Source\PSoC6/CapSense_Processing.c **** *  that implements the status update algorithm for this type of widget.
 690:Generated_Source\PSoC6/CapSense_Processing.c **** *
 691:Generated_Source\PSoC6/CapSense_Processing.c **** *  When the widget-specific processing completes this API updates the snsStatus
 692:Generated_Source\PSoC6/CapSense_Processing.c **** *  and wdgtStatus registers in the data structure. The wdgtStatus register
 693:Generated_Source\PSoC6/CapSense_Processing.c **** *  is a bitmask were each bit corresponds to the specific widget identified by
 694:Generated_Source\PSoC6/CapSense_Processing.c **** *  the widget index. When the bit is set the widget is active (touched);
 695:Generated_Source\PSoC6/CapSense_Processing.c **** *
 696:Generated_Source\PSoC6/CapSense_Processing.c **** *  Depending on the type of widget the snsStatus register may contain either
 697:Generated_Source\PSoC6/CapSense_Processing.c **** *  status of each widget node (active/non-active) or in case of the CSX Touchpad
 698:Generated_Source\PSoC6/CapSense_Processing.c **** *  is contains the number of touches. In both cases 0 means that widget is not
 699:Generated_Source\PSoC6/CapSense_Processing.c **** *  active.
 700:Generated_Source\PSoC6/CapSense_Processing.c **** *
 701:Generated_Source\PSoC6/CapSense_Processing.c **** * \param widgetId     The widget ID number.
 702:Generated_Source\PSoC6/CapSense_Processing.c **** * \param ptrFlashWdgt The pointer to the Flash Widget Object.
 703:Generated_Source\PSoC6/CapSense_Processing.c **** *
 704:Generated_Source\PSoC6/CapSense_Processing.c **** *******************************************************************************/
 705:Generated_Source\PSoC6/CapSense_Processing.c **** void CapSense_DpProcessCsxWidgetStatus(uint32 widgetId, CapSense_FLASH_WD_STRUCT const *ptrFlashWdg
 706:Generated_Source\PSoC6/CapSense_Processing.c **** {
 707:Generated_Source\PSoC6/CapSense_Processing.c ****     uint32 sensorStatus;
 708:Generated_Source\PSoC6/CapSense_Processing.c ****     uint32 wdStatusIndex;
 709:Generated_Source\PSoC6/CapSense_Processing.c ****     uint32 wdStatusMask;
ARM GAS  C:\Users\ikomb\AppData\Local\Temp\cc6TxH90.s 			page 17


 710:Generated_Source\PSoC6/CapSense_Processing.c ****     CapSense_WD_TYPE_ENUM widgetType;
 711:Generated_Source\PSoC6/CapSense_Processing.c **** 
 712:Generated_Source\PSoC6/CapSense_Processing.c ****     widgetType = (CapSense_WD_TYPE_ENUM)ptrFlashWdgt->wdgtType;
 713:Generated_Source\PSoC6/CapSense_Processing.c ****     sensorStatus = CapSense_dsRam.snsStatus[widgetId];
 714:Generated_Source\PSoC6/CapSense_Processing.c **** 
 715:Generated_Source\PSoC6/CapSense_Processing.c ****     switch (widgetType)
 716:Generated_Source\PSoC6/CapSense_Processing.c ****     {
 717:Generated_Source\PSoC6/CapSense_Processing.c ****     #if (0u != CapSense_BUTTON_WIDGET_EN)
 718:Generated_Source\PSoC6/CapSense_Processing.c ****         case CapSense_WD_BUTTON_E:
 719:Generated_Source\PSoC6/CapSense_Processing.c ****             sensorStatus = CapSense_DpProcessButton(sensorStatus, ptrFlashWdgt);
 720:Generated_Source\PSoC6/CapSense_Processing.c ****             break;
 721:Generated_Source\PSoC6/CapSense_Processing.c ****     #endif /* #if (0u != CapSense_BUTTON_WIDGET_EN) */
 722:Generated_Source\PSoC6/CapSense_Processing.c **** 
 723:Generated_Source\PSoC6/CapSense_Processing.c ****     #if (0u != CapSense_CSX_MATRIX_WIDGET_EN)
 724:Generated_Source\PSoC6/CapSense_Processing.c ****         case CapSense_WD_MATRIX_BUTTON_E:
 725:Generated_Source\PSoC6/CapSense_Processing.c ****             sensorStatus = CapSense_DpProcessButton(sensorStatus, ptrFlashWdgt);
 726:Generated_Source\PSoC6/CapSense_Processing.c ****             break;
 727:Generated_Source\PSoC6/CapSense_Processing.c ****     #endif /* #if (0u != CapSense_CSX_MATRIX_WIDGET_EN) */
 728:Generated_Source\PSoC6/CapSense_Processing.c **** 
 729:Generated_Source\PSoC6/CapSense_Processing.c ****     #if (0u != CapSense_CSX_TOUCHPAD_WIDGET_EN)
 730:Generated_Source\PSoC6/CapSense_Processing.c ****         case CapSense_WD_TOUCHPAD_E:
 731:Generated_Source\PSoC6/CapSense_Processing.c ****             sensorStatus = CapSense_DpProcessCsxTouchpad(sensorStatus, ptrFlashWdgt);
 732:Generated_Source\PSoC6/CapSense_Processing.c ****             break;
 733:Generated_Source\PSoC6/CapSense_Processing.c ****     #endif /* #if (0u != CapSense_CSX_TOUCHPAD_WIDGET_EN) */
 734:Generated_Source\PSoC6/CapSense_Processing.c **** 
 735:Generated_Source\PSoC6/CapSense_Processing.c ****     default:
 736:Generated_Source\PSoC6/CapSense_Processing.c ****         CY_ASSERT(0 != 0);
 737:Generated_Source\PSoC6/CapSense_Processing.c ****         break;
 738:Generated_Source\PSoC6/CapSense_Processing.c ****     }
 739:Generated_Source\PSoC6/CapSense_Processing.c **** 
 740:Generated_Source\PSoC6/CapSense_Processing.c ****     /* Update sensor status in the data structure */
 741:Generated_Source\PSoC6/CapSense_Processing.c ****     CapSense_dsRam.snsStatus[widgetId] = (CapSense_SNS_STS_TYPE)sensorStatus;
 742:Generated_Source\PSoC6/CapSense_Processing.c **** 
 743:Generated_Source\PSoC6/CapSense_Processing.c ****     /* The next two lines calculate index and bitmask of the widget status bit in the wdgtStatus ar
 744:Generated_Source\PSoC6/CapSense_Processing.c ****     wdStatusIndex = CapSense_GET_WDGT_STATUS_INDEX(widgetId);
 745:Generated_Source\PSoC6/CapSense_Processing.c ****     wdStatusMask = CapSense_GET_WDGT_STATUS_MASK(widgetId);
 746:Generated_Source\PSoC6/CapSense_Processing.c **** 
 747:Generated_Source\PSoC6/CapSense_Processing.c ****     /* Check if there are active sensors and update widget status accordingly */
 748:Generated_Source\PSoC6/CapSense_Processing.c ****     if (0u == sensorStatus)
 749:Generated_Source\PSoC6/CapSense_Processing.c ****     {
 750:Generated_Source\PSoC6/CapSense_Processing.c ****         CapSense_dsRam.wdgtStatus[wdStatusIndex] &= ~wdStatusMask;
 751:Generated_Source\PSoC6/CapSense_Processing.c ****     }
 752:Generated_Source\PSoC6/CapSense_Processing.c ****     else
 753:Generated_Source\PSoC6/CapSense_Processing.c ****     {
 754:Generated_Source\PSoC6/CapSense_Processing.c ****         CapSense_dsRam.wdgtStatus[wdStatusIndex] |= wdStatusMask;
 755:Generated_Source\PSoC6/CapSense_Processing.c ****     }
 756:Generated_Source\PSoC6/CapSense_Processing.c **** }
 757:Generated_Source\PSoC6/CapSense_Processing.c **** #endif /* #if CapSense_TOTAL_CSX_WIDGETS */
 758:Generated_Source\PSoC6/CapSense_Processing.c **** 
 759:Generated_Source\PSoC6/CapSense_Processing.c **** #if (0u != CapSense_TOTAL_CSD_WIDGETS)
 760:Generated_Source\PSoC6/CapSense_Processing.c **** /*******************************************************************************
 761:Generated_Source\PSoC6/CapSense_Processing.c **** * Function Name: CapSense_DpProcessCsdWidgetRawCounts
 762:Generated_Source\PSoC6/CapSense_Processing.c **** ****************************************************************************//**
 763:Generated_Source\PSoC6/CapSense_Processing.c **** *
 764:Generated_Source\PSoC6/CapSense_Processing.c **** * \brief
 765:Generated_Source\PSoC6/CapSense_Processing.c **** *   Performs default processing for the CSD widget raw counts.
 766:Generated_Source\PSoC6/CapSense_Processing.c **** *
ARM GAS  C:\Users\ikomb\AppData\Local\Temp\cc6TxH90.s 			page 18


 767:Generated_Source\PSoC6/CapSense_Processing.c **** * \details
 768:Generated_Source\PSoC6/CapSense_Processing.c **** *   Performs default processing for the CSD widget raw counts:
 769:Generated_Source\PSoC6/CapSense_Processing.c **** *    - Run Filters
 770:Generated_Source\PSoC6/CapSense_Processing.c **** *    - Update Thresholds (FW Auto-tuning)
 771:Generated_Source\PSoC6/CapSense_Processing.c **** *    - Update Baselines
 772:Generated_Source\PSoC6/CapSense_Processing.c **** *    - Update Differences.
 773:Generated_Source\PSoC6/CapSense_Processing.c **** *   The process is applied to all widget's sensors.
 774:Generated_Source\PSoC6/CapSense_Processing.c **** *
 775:Generated_Source\PSoC6/CapSense_Processing.c **** * \param ptrFlashWdgt The pointer to the Flash Widget Object.
 776:Generated_Source\PSoC6/CapSense_Processing.c **** *
 777:Generated_Source\PSoC6/CapSense_Processing.c **** * \return
 778:Generated_Source\PSoC6/CapSense_Processing.c **** *  Returns the status of the specified widget processing operation:
 779:Generated_Source\PSoC6/CapSense_Processing.c **** *  - CY_RET_SUCCESS if operation was successfully completed;
 780:Generated_Source\PSoC6/CapSense_Processing.c **** *  - CapSense_PROCESS_BASELINE_FAILED if baseline processing of any
 781:Generated_Source\PSoC6/CapSense_Processing.c **** *    sensor of the specified widget failed. The result is concatenated with the index
 782:Generated_Source\PSoC6/CapSense_Processing.c **** *    of failed sensor.
 783:Generated_Source\PSoC6/CapSense_Processing.c **** *
 784:Generated_Source\PSoC6/CapSense_Processing.c **** *******************************************************************************/
 785:Generated_Source\PSoC6/CapSense_Processing.c **** uint32 CapSense_DpProcessCsdWidgetRawCounts(CapSense_FLASH_WD_STRUCT const *ptrFlashWdgt)
 786:Generated_Source\PSoC6/CapSense_Processing.c **** {
 787:Generated_Source\PSoC6/CapSense_Processing.c ****     uint32  result = CY_RET_SUCCESS;
 788:Generated_Source\PSoC6/CapSense_Processing.c **** 
 789:Generated_Source\PSoC6/CapSense_Processing.c ****     #if (CapSense_ENABLE == CapSense_TST_BSLN_DUPLICATION_EN)
 790:Generated_Source\PSoC6/CapSense_Processing.c ****         uint32 bslnTstResult = CY_RET_SUCCESS;
 791:Generated_Source\PSoC6/CapSense_Processing.c ****     #endif /* (CapSense_ENABLE == CapSense_TST_BSLN_DUPLICATION_EN) */
 792:Generated_Source\PSoC6/CapSense_Processing.c **** 
 793:Generated_Source\PSoC6/CapSense_Processing.c ****     uint32  widgetType;
 794:Generated_Source\PSoC6/CapSense_Processing.c ****     uint32  snsId;
 795:Generated_Source\PSoC6/CapSense_Processing.c ****     CapSense_RAM_SNS_STRUCT *ptrSnsTmp;
 796:Generated_Source\PSoC6/CapSense_Processing.c ****     CapSense_RAM_WD_BASE_STRUCT *ptrRamWdgt;
 797:Generated_Source\PSoC6/CapSense_Processing.c **** 
 798:Generated_Source\PSoC6/CapSense_Processing.c ****     #if (0u != (CapSense_CSD_AUTOTUNE & CapSense_CSD_SS_TH_EN))
 799:Generated_Source\PSoC6/CapSense_Processing.c ****         /* The noise envelope data is available only when Full CSD Auto-Tuning is enabled */
 800:Generated_Source\PSoC6/CapSense_Processing.c ****         SMARTSENSE_CSD_NOISE_ENVELOPE_STRUCT *ptrNoiseEnvelope;
 801:Generated_Source\PSoC6/CapSense_Processing.c ****         #if (CapSense_ENABLE == CapSense_PROXIMITY_WIDGET_EN)
 802:Generated_Source\PSoC6/CapSense_Processing.c ****             uint32  proximityThreshold;
 803:Generated_Source\PSoC6/CapSense_Processing.c ****         #endif /* (0 != CapSense_PROXIMITY_WIDGET_EN) */
 804:Generated_Source\PSoC6/CapSense_Processing.c ****     #endif /* #if (0u != (CapSense_CSD_AUTOTUNE & CapSense_CSD_SS_TH_EN)) */
 805:Generated_Source\PSoC6/CapSense_Processing.c **** 
 806:Generated_Source\PSoC6/CapSense_Processing.c ****     #if (CapSense_ENABLE == CapSense_RC_FILTER_EN)
 807:Generated_Source\PSoC6/CapSense_Processing.c ****         CapSense_PTR_FILTER_VARIANT fltrHistV;
 808:Generated_Source\PSoC6/CapSense_Processing.c **** 
 809:Generated_Source\PSoC6/CapSense_Processing.c ****         /* Determine if widget type is proximity */
 810:Generated_Source\PSoC6/CapSense_Processing.c ****         uint32 isProxWdgt = (CapSense_GET_WIDGET_TYPE(ptrFlashWdgt) == CapSense_WD_PROXIMITY_E) ? 1
 811:Generated_Source\PSoC6/CapSense_Processing.c **** 
 812:Generated_Source\PSoC6/CapSense_Processing.c ****         /* Get pointer to the filter history object */
 813:Generated_Source\PSoC6/CapSense_Processing.c ****         fltrHistV.ptr = ptrFlashWdgt->ptr2FltrHistory;
 814:Generated_Source\PSoC6/CapSense_Processing.c ****     #endif /* #if (CapSense_ENABLE == CapSense_RC_FILTER_EN) */
 815:Generated_Source\PSoC6/CapSense_Processing.c **** 
 816:Generated_Source\PSoC6/CapSense_Processing.c ****     ptrSnsTmp = ptrFlashWdgt->ptr2SnsRam;
 817:Generated_Source\PSoC6/CapSense_Processing.c ****     ptrRamWdgt = (CapSense_RAM_WD_BASE_STRUCT *)ptrFlashWdgt->ptr2WdgtRam;
 818:Generated_Source\PSoC6/CapSense_Processing.c ****     widgetType = ptrFlashWdgt->wdgtType;
 819:Generated_Source\PSoC6/CapSense_Processing.c **** 
 820:Generated_Source\PSoC6/CapSense_Processing.c ****     #if (0u != (CapSense_CSD_AUTOTUNE & CapSense_CSD_SS_TH_EN))
 821:Generated_Source\PSoC6/CapSense_Processing.c ****         ptrNoiseEnvelope = ptrFlashWdgt->ptr2NoiseEnvlp;
 822:Generated_Source\PSoC6/CapSense_Processing.c ****     #endif /* #if (0u != (CapSense_CSD_AUTOTUNE & CapSense_CSD_SS_TH_EN)) */
 823:Generated_Source\PSoC6/CapSense_Processing.c **** 
ARM GAS  C:\Users\ikomb\AppData\Local\Temp\cc6TxH90.s 			page 19


 824:Generated_Source\PSoC6/CapSense_Processing.c ****     /* Iterate through all widget's sensors */
 825:Generated_Source\PSoC6/CapSense_Processing.c ****     for(snsId = 0u; snsId < ptrFlashWdgt->totalNumSns; snsId++)
 826:Generated_Source\PSoC6/CapSense_Processing.c ****     {
 827:Generated_Source\PSoC6/CapSense_Processing.c ****         /* Run all enabled filter on specified widget's sensor */
 828:Generated_Source\PSoC6/CapSense_Processing.c ****         #if (CapSense_ENABLE == CapSense_RC_FILTER_EN)
 829:Generated_Source\PSoC6/CapSense_Processing.c ****             CapSense_FtRunEnabledFiltersInternal(fltrHistV, ptrSnsTmp, widgetType);
 830:Generated_Source\PSoC6/CapSense_Processing.c ****             #if (CapSense_ALP_FILTER_EN)
 831:Generated_Source\PSoC6/CapSense_Processing.c ****                 CapSense_ConfigRunALPInternal(fltrHistV, ptrRamWdgt, ptrSnsTmp, widgetType);
 832:Generated_Source\PSoC6/CapSense_Processing.c ****             #endif
 833:Generated_Source\PSoC6/CapSense_Processing.c ****         #endif /* #if (CapSense_ENABLE == CapSense_RC_FILTER_EN) */
 834:Generated_Source\PSoC6/CapSense_Processing.c **** 
 835:Generated_Source\PSoC6/CapSense_Processing.c ****         /* Run auto-tuning activities */
 836:Generated_Source\PSoC6/CapSense_Processing.c ****         #if (0u != (CapSense_CSD_AUTOTUNE & CapSense_CSD_SS_TH_EN))
 837:Generated_Source\PSoC6/CapSense_Processing.c ****             SmartSense_RunNoiseEnvelope(ptrSnsTmp->raw[0u], ptrRamWdgt->sigPFC, ptrNoiseEnvelope);
 838:Generated_Source\PSoC6/CapSense_Processing.c ****             CapSense_DpUpdateThresholds(ptrRamWdgt, ptrNoiseEnvelope, snsId);
 839:Generated_Source\PSoC6/CapSense_Processing.c **** 
 840:Generated_Source\PSoC6/CapSense_Processing.c ****             /* Calculate Proximity Touch Threshold in SmartSense mode based on Finger Threshold and
 841:Generated_Source\PSoC6/CapSense_Processing.c ****             #if (CapSense_ENABLE == CapSense_PROXIMITY_WIDGET_EN)
 842:Generated_Source\PSoC6/CapSense_Processing.c ****                 if (CapSense_WD_PROXIMITY_E == CapSense_GET_WIDGET_TYPE(ptrFlashWdgt))
 843:Generated_Source\PSoC6/CapSense_Processing.c ****                 {
 844:Generated_Source\PSoC6/CapSense_Processing.c ****                     proximityThreshold = ((uint32)ptrRamWdgt->fingerTh * CapSense_PROX_TOUCH_COEFF)
 845:Generated_Source\PSoC6/CapSense_Processing.c ****                     if ((((1Lu) << CapSense_THRESHOLD_SIZE) - 1u) < proximityThreshold)
 846:Generated_Source\PSoC6/CapSense_Processing.c ****                     {
 847:Generated_Source\PSoC6/CapSense_Processing.c ****                         proximityThreshold = ((1Lu) << CapSense_THRESHOLD_SIZE) - 1u;
 848:Generated_Source\PSoC6/CapSense_Processing.c ****                     }
 849:Generated_Source\PSoC6/CapSense_Processing.c ****                     ((CapSense_RAM_WD_PROXIMITY_STRUCT *)ptrFlashWdgt->ptr2WdgtRam)->proxTouchTh =
 850:Generated_Source\PSoC6/CapSense_Processing.c ****                         (CapSense_THRESHOLD_TYPE)proximityThreshold;
 851:Generated_Source\PSoC6/CapSense_Processing.c ****                 }
 852:Generated_Source\PSoC6/CapSense_Processing.c ****             #endif /* (0 != CapSense_PROXIMITY_WIDGET_EN) */
 853:Generated_Source\PSoC6/CapSense_Processing.c **** 
 854:Generated_Source\PSoC6/CapSense_Processing.c ****             /* Move to next noise-envelope object */
 855:Generated_Source\PSoC6/CapSense_Processing.c ****             ptrNoiseEnvelope++;
 856:Generated_Source\PSoC6/CapSense_Processing.c ****         #endif /* (0u != (CapSense_CSD_AUTOTUNE & CapSense_CSD_SS_TH_EN)) */
 857:Generated_Source\PSoC6/CapSense_Processing.c **** 
 858:Generated_Source\PSoC6/CapSense_Processing.c ****         #if (CapSense_ENABLE == CapSense_TST_BSLN_DUPLICATION_EN)
 859:Generated_Source\PSoC6/CapSense_Processing.c ****             bslnTstResult = CapSense_FtUpdateBaseline(ptrRamWdgt, ptrSnsTmp, widgetType);
 860:Generated_Source\PSoC6/CapSense_Processing.c ****             if ((CY_RET_SUCCESS != bslnTstResult) && (CY_RET_SUCCESS == result))
 861:Generated_Source\PSoC6/CapSense_Processing.c ****             {
 862:Generated_Source\PSoC6/CapSense_Processing.c ****                 result = snsId | CapSense_PROCESS_BASELINE_FAILED;
 863:Generated_Source\PSoC6/CapSense_Processing.c ****             }
 864:Generated_Source\PSoC6/CapSense_Processing.c ****         #else /* (CapSense_ENABLE == CapSense_TST_BSLN_DUPLICATION_EN) */
 865:Generated_Source\PSoC6/CapSense_Processing.c ****             result = CapSense_FtUpdateBaseline(ptrRamWdgt, ptrSnsTmp, widgetType);
 866:Generated_Source\PSoC6/CapSense_Processing.c ****         #endif /* (CapSense_ENABLE == CapSense_TST_BSLN_DUPLICATION_EN) */
 867:Generated_Source\PSoC6/CapSense_Processing.c **** 
 868:Generated_Source\PSoC6/CapSense_Processing.c ****         CapSense_DpUpdateDifferences(ptrRamWdgt, ptrSnsTmp);
 869:Generated_Source\PSoC6/CapSense_Processing.c **** 
 870:Generated_Source\PSoC6/CapSense_Processing.c ****         /* Move to next sensor object */
 871:Generated_Source\PSoC6/CapSense_Processing.c ****         ptrSnsTmp++;
 872:Generated_Source\PSoC6/CapSense_Processing.c **** 
 873:Generated_Source\PSoC6/CapSense_Processing.c ****         #if (CapSense_ENABLE == CapSense_RC_FILTER_EN)
 874:Generated_Source\PSoC6/CapSense_Processing.c ****             /* Move to the next filter history object */
 875:Generated_Source\PSoC6/CapSense_Processing.c ****             CapSense_INC_FLTR_OBJ_VARIANT(isProxWdgt, fltrHistV);
 876:Generated_Source\PSoC6/CapSense_Processing.c ****         #endif /* #if (CapSense_ENABLE == CapSense_RC_FILTER_EN) */
 877:Generated_Source\PSoC6/CapSense_Processing.c ****     }
 878:Generated_Source\PSoC6/CapSense_Processing.c ****     return result;
 879:Generated_Source\PSoC6/CapSense_Processing.c **** }
 880:Generated_Source\PSoC6/CapSense_Processing.c **** 
ARM GAS  C:\Users\ikomb\AppData\Local\Temp\cc6TxH90.s 			page 20


 881:Generated_Source\PSoC6/CapSense_Processing.c **** 
 882:Generated_Source\PSoC6/CapSense_Processing.c **** /*******************************************************************************
 883:Generated_Source\PSoC6/CapSense_Processing.c **** * Function Name: CapSense_DpProcessCsdSensorRawCountsExt
 884:Generated_Source\PSoC6/CapSense_Processing.c **** ****************************************************************************//**
 885:Generated_Source\PSoC6/CapSense_Processing.c **** *
 886:Generated_Source\PSoC6/CapSense_Processing.c **** * \brief
 887:Generated_Source\PSoC6/CapSense_Processing.c **** *   Performs customized processing of the CSD sensor raw counts.
 888:Generated_Source\PSoC6/CapSense_Processing.c **** *
 889:Generated_Source\PSoC6/CapSense_Processing.c **** * \details
 890:Generated_Source\PSoC6/CapSense_Processing.c **** *   Performs customized processing of the CSD sensor raw counts.
 891:Generated_Source\PSoC6/CapSense_Processing.c **** *
 892:Generated_Source\PSoC6/CapSense_Processing.c **** *   Note that this API updates data associated only with the sensor. It cannot be used to update
 893:Generated_Source\PSoC6/CapSense_Processing.c **** *   widget status.
 894:Generated_Source\PSoC6/CapSense_Processing.c **** *
 895:Generated_Source\PSoC6/CapSense_Processing.c **** * \param ptrFlashWdgt The pointer to the Flash widget structure.
 896:Generated_Source\PSoC6/CapSense_Processing.c **** * \param curSnsPtr    The pointer to the sensor object in RAM.
 897:Generated_Source\PSoC6/CapSense_Processing.c **** * \param fltrHistV    The pointer to the Filter History Object in RAM.
 898:Generated_Source\PSoC6/CapSense_Processing.c **** * \param mode         The bit-mask with the data processing tasks to be executed.
 899:Generated_Source\PSoC6/CapSense_Processing.c **** *   The mode parameters can take the following values:
 900:Generated_Source\PSoC6/CapSense_Processing.c **** *    - CapSense_PROCESS_FILTER     (0x01) Run Firmware Filter
 901:Generated_Source\PSoC6/CapSense_Processing.c **** *    - CapSense_PROCESS_BASELINE   (0x02) Update Baselines
 902:Generated_Source\PSoC6/CapSense_Processing.c **** *    - CapSense_PROCESS_DIFFCOUNTS (0x04) Update Difference Counts
 903:Generated_Source\PSoC6/CapSense_Processing.c **** *    - CapSense_PROCESS_CALC_NOISE (0x08) Calculate Noise (only if FW Tuning is enabled)
 904:Generated_Source\PSoC6/CapSense_Processing.c **** *    - CapSense_PROCESS_THRESHOLDS (0x10) Update Thresholds (only if FW Tuning is enabled)
 905:Generated_Source\PSoC6/CapSense_Processing.c **** *    - CapSense_PROCESS_ALL               Execute all tasks
 906:Generated_Source\PSoC6/CapSense_Processing.c **** *
 907:Generated_Source\PSoC6/CapSense_Processing.c **** * \return
 908:Generated_Source\PSoC6/CapSense_Processing.c **** *  Returns the status of the specified sensor processing operation:
 909:Generated_Source\PSoC6/CapSense_Processing.c **** *  - CY_RET_SUCCESS if operation was successfully completed;
 910:Generated_Source\PSoC6/CapSense_Processing.c **** *  - CapSense_PROCESS_BASELINE_FAILED if baseline processing of any
 911:Generated_Source\PSoC6/CapSense_Processing.c **** *    sensor of the specified widget failed. The result is concatenated with the index
 912:Generated_Source\PSoC6/CapSense_Processing.c **** *    of failed sensor.
 913:Generated_Source\PSoC6/CapSense_Processing.c **** *
 914:Generated_Source\PSoC6/CapSense_Processing.c **** *******************************************************************************/
 915:Generated_Source\PSoC6/CapSense_Processing.c **** uint32 CapSense_DpProcessCsdSensorRawCountsExt(
 916:Generated_Source\PSoC6/CapSense_Processing.c ****                 CapSense_FLASH_WD_STRUCT const *ptrFlashWdgt,
 917:Generated_Source\PSoC6/CapSense_Processing.c ****                 CapSense_RAM_SNS_STRUCT *curSnsPtr,
 918:Generated_Source\PSoC6/CapSense_Processing.c ****                 CapSense_PTR_FILTER_VARIANT fltrHistV,
 919:Generated_Source\PSoC6/CapSense_Processing.c ****                  uint32 mode)
 920:Generated_Source\PSoC6/CapSense_Processing.c **** {
 921:Generated_Source\PSoC6/CapSense_Processing.c ****     uint32 result = CY_RET_SUCCESS;
 922:Generated_Source\PSoC6/CapSense_Processing.c ****     uint32  widgetType;
 923:Generated_Source\PSoC6/CapSense_Processing.c ****     CapSense_RAM_WD_BASE_STRUCT *ptrRamWdgt;
 924:Generated_Source\PSoC6/CapSense_Processing.c **** 
 925:Generated_Source\PSoC6/CapSense_Processing.c ****     #if (0u != (CapSense_CSD_AUTOTUNE & CapSense_CSD_SS_TH_EN))
 926:Generated_Source\PSoC6/CapSense_Processing.c ****         SMARTSENSE_CSD_NOISE_ENVELOPE_STRUCT *ptrNoiseEnvelope;
 927:Generated_Source\PSoC6/CapSense_Processing.c ****         #if (CapSense_ENABLE == CapSense_PROXIMITY_WIDGET_EN)
 928:Generated_Source\PSoC6/CapSense_Processing.c ****             uint32  proximityThreshold;
 929:Generated_Source\PSoC6/CapSense_Processing.c ****         #endif /* (0 != CapSense_PROXIMITY_WIDGET_EN) */
 930:Generated_Source\PSoC6/CapSense_Processing.c **** 
 931:Generated_Source\PSoC6/CapSense_Processing.c ****         /* Need to specify pointer to corresponding sensor's noise-envelope object.*/
 932:Generated_Source\PSoC6/CapSense_Processing.c ****         ptrNoiseEnvelope = ptrFlashWdgt->ptr2NoiseEnvlp;
 933:Generated_Source\PSoC6/CapSense_Processing.c ****     #endif /* (0u != (CapSense_CSD_AUTOTUNE & CapSense_CSD_SS_TH_EN)) */
 934:Generated_Source\PSoC6/CapSense_Processing.c **** 
 935:Generated_Source\PSoC6/CapSense_Processing.c ****     widgetType = ptrFlashWdgt->wdgtType;
 936:Generated_Source\PSoC6/CapSense_Processing.c ****     ptrRamWdgt = (CapSense_RAM_WD_BASE_STRUCT *)ptrFlashWdgt->ptr2WdgtRam;
 937:Generated_Source\PSoC6/CapSense_Processing.c **** 
ARM GAS  C:\Users\ikomb\AppData\Local\Temp\cc6TxH90.s 			page 21


 938:Generated_Source\PSoC6/CapSense_Processing.c ****     #if (CapSense_ENABLE == CapSense_RC_FILTER_EN)
 939:Generated_Source\PSoC6/CapSense_Processing.c ****         if (0u != (mode & CapSense_PROCESS_FILTER))
 940:Generated_Source\PSoC6/CapSense_Processing.c ****         {
 941:Generated_Source\PSoC6/CapSense_Processing.c ****             CapSense_FtRunEnabledFiltersInternal(fltrHistV, curSnsPtr, widgetType);
 942:Generated_Source\PSoC6/CapSense_Processing.c ****             #if (CapSense_ALP_FILTER_EN)
 943:Generated_Source\PSoC6/CapSense_Processing.c ****                 CapSense_ConfigRunALPInternal(fltrHistV, ptrRamWdgt, curSnsPtr, widgetType);
 944:Generated_Source\PSoC6/CapSense_Processing.c ****             #endif
 945:Generated_Source\PSoC6/CapSense_Processing.c ****         }
 946:Generated_Source\PSoC6/CapSense_Processing.c ****     #else
 947:Generated_Source\PSoC6/CapSense_Processing.c ****         (void)fltrHistV; /* This parameter is unused in such configurations */
 948:Generated_Source\PSoC6/CapSense_Processing.c ****     #endif /* #if (CapSense_ENABLE == CapSense_RC_FILTER_EN) */
 949:Generated_Source\PSoC6/CapSense_Processing.c **** 
 950:Generated_Source\PSoC6/CapSense_Processing.c ****     #if (0u != (CapSense_CSD_AUTOTUNE & CapSense_CSD_SS_TH_EN))
 951:Generated_Source\PSoC6/CapSense_Processing.c ****         if (0u != (mode & CapSense_PROCESS_CALC_NOISE))
 952:Generated_Source\PSoC6/CapSense_Processing.c ****         {
 953:Generated_Source\PSoC6/CapSense_Processing.c ****             SmartSense_RunNoiseEnvelope(curSnsPtr->raw[0u], ptrRamWdgt->sigPFC, ptrNoiseEnvelope);
 954:Generated_Source\PSoC6/CapSense_Processing.c ****         }
 955:Generated_Source\PSoC6/CapSense_Processing.c **** 
 956:Generated_Source\PSoC6/CapSense_Processing.c ****         if (0u != (mode & CapSense_PROCESS_THRESHOLDS))
 957:Generated_Source\PSoC6/CapSense_Processing.c ****         {
 958:Generated_Source\PSoC6/CapSense_Processing.c ****             CapSense_DpUpdateThresholds(ptrRamWdgt, ptrNoiseEnvelope, 0u);
 959:Generated_Source\PSoC6/CapSense_Processing.c **** 
 960:Generated_Source\PSoC6/CapSense_Processing.c ****             /* Calculate Proximity Touch Threshold in SmartSense mode based on Finger Threshold and
 961:Generated_Source\PSoC6/CapSense_Processing.c ****             #if (CapSense_ENABLE == CapSense_PROXIMITY_WIDGET_EN)
 962:Generated_Source\PSoC6/CapSense_Processing.c ****                 if (CapSense_WD_PROXIMITY_E == CapSense_GET_WIDGET_TYPE(ptrFlashWdgt))
 963:Generated_Source\PSoC6/CapSense_Processing.c ****                 {
 964:Generated_Source\PSoC6/CapSense_Processing.c ****                     proximityThreshold = ((uint32)ptrRamWdgt->fingerTh * CapSense_PROX_TOUCH_COEFF)
 965:Generated_Source\PSoC6/CapSense_Processing.c ****                     if ((((1Lu) << CapSense_THRESHOLD_SIZE) - 1u) < proximityThreshold)
 966:Generated_Source\PSoC6/CapSense_Processing.c ****                     {
 967:Generated_Source\PSoC6/CapSense_Processing.c ****                         proximityThreshold = ((1Lu) << CapSense_THRESHOLD_SIZE) - 1u;
 968:Generated_Source\PSoC6/CapSense_Processing.c ****                     }
 969:Generated_Source\PSoC6/CapSense_Processing.c ****                     ((CapSense_RAM_WD_PROXIMITY_STRUCT *)ptrFlashWdgt->ptr2WdgtRam)->proxTouchTh =
 970:Generated_Source\PSoC6/CapSense_Processing.c ****                         (CapSense_THRESHOLD_TYPE)proximityThreshold;
 971:Generated_Source\PSoC6/CapSense_Processing.c ****                 }
 972:Generated_Source\PSoC6/CapSense_Processing.c ****             #endif /* (0 != CapSense_PROXIMITY_WIDGET_EN) */
 973:Generated_Source\PSoC6/CapSense_Processing.c ****         }
 974:Generated_Source\PSoC6/CapSense_Processing.c ****     #endif /* #if (0u != (CapSense_CSD_AUTOTUNE & CapSense_CSD_SS_TH_EN)) */
 975:Generated_Source\PSoC6/CapSense_Processing.c **** 
 976:Generated_Source\PSoC6/CapSense_Processing.c ****     if (0u != (mode & CapSense_PROCESS_BASELINE))
 977:Generated_Source\PSoC6/CapSense_Processing.c ****     {
 978:Generated_Source\PSoC6/CapSense_Processing.c ****         result = CapSense_FtUpdateBaseline(ptrRamWdgt, curSnsPtr, widgetType);
 979:Generated_Source\PSoC6/CapSense_Processing.c ****     }
 980:Generated_Source\PSoC6/CapSense_Processing.c **** 
 981:Generated_Source\PSoC6/CapSense_Processing.c ****     if (0u != (mode & CapSense_PROCESS_DIFFCOUNTS))
 982:Generated_Source\PSoC6/CapSense_Processing.c ****     {
 983:Generated_Source\PSoC6/CapSense_Processing.c ****         CapSense_DpUpdateDifferences(ptrRamWdgt, curSnsPtr);
 984:Generated_Source\PSoC6/CapSense_Processing.c ****     }
 985:Generated_Source\PSoC6/CapSense_Processing.c ****     return result;
 986:Generated_Source\PSoC6/CapSense_Processing.c **** }
 987:Generated_Source\PSoC6/CapSense_Processing.c **** 
 988:Generated_Source\PSoC6/CapSense_Processing.c **** /*******************************************************************************
 989:Generated_Source\PSoC6/CapSense_Processing.c **** * Function Name: CapSense_DpProcessCsdWidgetStatus
 990:Generated_Source\PSoC6/CapSense_Processing.c **** ****************************************************************************//**
 991:Generated_Source\PSoC6/CapSense_Processing.c **** *
 992:Generated_Source\PSoC6/CapSense_Processing.c **** * \brief
 993:Generated_Source\PSoC6/CapSense_Processing.c **** *  Runs the status processing of the CSD widget and updates it in the Data Structure.
 994:Generated_Source\PSoC6/CapSense_Processing.c **** *
ARM GAS  C:\Users\ikomb\AppData\Local\Temp\cc6TxH90.s 			page 22


 995:Generated_Source\PSoC6/CapSense_Processing.c **** * \details
 996:Generated_Source\PSoC6/CapSense_Processing.c **** *  This API determines the widget type and calls the appropriate low-level processing
 997:Generated_Source\PSoC6/CapSense_Processing.c **** *  function. Based on the returned results it updates the widget and sensor
 998:Generated_Source\PSoC6/CapSense_Processing.c **** *  status in the data structure. Any widget specific registers like the centroid
 999:Generated_Source\PSoC6/CapSense_Processing.c **** *  position are updated directly in the low-level processing function.
1000:Generated_Source\PSoC6/CapSense_Processing.c **** *
1001:Generated_Source\PSoC6/CapSense_Processing.c **** *  When the widget-specific processing completes this API updates the snsStatus
1002:Generated_Source\PSoC6/CapSense_Processing.c **** *  and wdgtStatus registers in the data structure. The wdgtStatus register
1003:Generated_Source\PSoC6/CapSense_Processing.c **** *  is a bitmask were each bit corresponds to the specific widget identified by
1004:Generated_Source\PSoC6/CapSense_Processing.c **** *  the widget index. When the bit is set the widget is active (touched);
1005:Generated_Source\PSoC6/CapSense_Processing.c **** *
1006:Generated_Source\PSoC6/CapSense_Processing.c **** *  The snsStatus register for CSD widgets contains status of each widget sensor
1007:Generated_Source\PSoC6/CapSense_Processing.c **** *  (active/non-active). Each bit corresponds to one sensor. In case of the
1008:Generated_Source\PSoC6/CapSense_Processing.c **** *  Proximity widget two bits are used per sensor: one for proximity status and
1009:Generated_Source\PSoC6/CapSense_Processing.c **** *  second for the touch status.
1010:Generated_Source\PSoC6/CapSense_Processing.c **** *
1011:Generated_Source\PSoC6/CapSense_Processing.c **** * \param widgetId      The widget index number.
1012:Generated_Source\PSoC6/CapSense_Processing.c **** * \param ptrFlashWdgt  The pointer to the Flash widget structure.
1013:Generated_Source\PSoC6/CapSense_Processing.c **** *
1014:Generated_Source\PSoC6/CapSense_Processing.c **** *******************************************************************************/
1015:Generated_Source\PSoC6/CapSense_Processing.c **** void CapSense_DpProcessCsdWidgetStatus(uint32 widgetId, CapSense_FLASH_WD_STRUCT const *ptrFlashWdg
1016:Generated_Source\PSoC6/CapSense_Processing.c **** {
1017:Generated_Source\PSoC6/CapSense_Processing.c ****     uint32 sensorStatus;
1018:Generated_Source\PSoC6/CapSense_Processing.c ****     uint32 wdStatusIndex;
1019:Generated_Source\PSoC6/CapSense_Processing.c ****     uint32 wdStatusMask;
1020:Generated_Source\PSoC6/CapSense_Processing.c ****     CapSense_WD_TYPE_ENUM widgetType;
1021:Generated_Source\PSoC6/CapSense_Processing.c **** 
1022:Generated_Source\PSoC6/CapSense_Processing.c ****     widgetType = (CapSense_WD_TYPE_ENUM)ptrFlashWdgt->wdgtType;
1023:Generated_Source\PSoC6/CapSense_Processing.c ****     sensorStatus = CapSense_dsRam.snsStatus[widgetId];
1024:Generated_Source\PSoC6/CapSense_Processing.c **** 
1025:Generated_Source\PSoC6/CapSense_Processing.c ****     switch (widgetType)
1026:Generated_Source\PSoC6/CapSense_Processing.c ****     {
1027:Generated_Source\PSoC6/CapSense_Processing.c ****     #if (0u != CapSense_BUTTON_WIDGET_EN)
1028:Generated_Source\PSoC6/CapSense_Processing.c ****         case CapSense_WD_BUTTON_E:
1029:Generated_Source\PSoC6/CapSense_Processing.c ****             sensorStatus = CapSense_DpProcessButton(sensorStatus, ptrFlashWdgt);
1030:Generated_Source\PSoC6/CapSense_Processing.c ****             break;
1031:Generated_Source\PSoC6/CapSense_Processing.c ****     #endif /* #if (0u != CapSense_BUTTON_WIDGET_EN) */
1032:Generated_Source\PSoC6/CapSense_Processing.c **** 
1033:Generated_Source\PSoC6/CapSense_Processing.c ****     #if (0u != CapSense_SLIDER_WIDGET_EN)
1034:Generated_Source\PSoC6/CapSense_Processing.c ****         case CapSense_WD_LINEAR_SLIDER_E:
1035:Generated_Source\PSoC6/CapSense_Processing.c ****         case CapSense_WD_RADIAL_SLIDER_E:
1036:Generated_Source\PSoC6/CapSense_Processing.c ****             sensorStatus = CapSense_DpProcessSlider(sensorStatus, ptrFlashWdgt);
1037:Generated_Source\PSoC6/CapSense_Processing.c ****             break;
1038:Generated_Source\PSoC6/CapSense_Processing.c ****     #endif /* #if (0u != CapSense_SLIDER_WIDGET_EN) */
1039:Generated_Source\PSoC6/CapSense_Processing.c **** 
1040:Generated_Source\PSoC6/CapSense_Processing.c ****     #if (0u != CapSense_CSD_MATRIX_WIDGET_EN)
1041:Generated_Source\PSoC6/CapSense_Processing.c ****         case CapSense_WD_MATRIX_BUTTON_E:
1042:Generated_Source\PSoC6/CapSense_Processing.c ****             sensorStatus = CapSense_DpProcessCsdMatrix(sensorStatus, ptrFlashWdgt);
1043:Generated_Source\PSoC6/CapSense_Processing.c ****             break;
1044:Generated_Source\PSoC6/CapSense_Processing.c ****     #endif /* #if (0u != CapSense_CSD_MATRIX_WIDGET_EN) */
1045:Generated_Source\PSoC6/CapSense_Processing.c **** 
1046:Generated_Source\PSoC6/CapSense_Processing.c ****     #if (0u != CapSense_CSD_TOUCHPAD_WIDGET_EN)
1047:Generated_Source\PSoC6/CapSense_Processing.c ****         case CapSense_WD_TOUCHPAD_E:
1048:Generated_Source\PSoC6/CapSense_Processing.c ****             sensorStatus = CapSense_DpProcessCsdTouchpad(sensorStatus, ptrFlashWdgt);
1049:Generated_Source\PSoC6/CapSense_Processing.c ****             #if (0u != CapSense_BALLISTIC_MULTIPLIER_EN)
1050:Generated_Source\PSoC6/CapSense_Processing.c ****                 CapSense_RunBallisticMultiplier(widgetId);
1051:Generated_Source\PSoC6/CapSense_Processing.c ****             #endif /* (0u != CapSense_BALLISTIC_MULTIPLIER_EN) */
ARM GAS  C:\Users\ikomb\AppData\Local\Temp\cc6TxH90.s 			page 23


1052:Generated_Source\PSoC6/CapSense_Processing.c ****             break;
1053:Generated_Source\PSoC6/CapSense_Processing.c ****     #endif /* #if (0u != CapSense_CSD_TOUCHPAD_WIDGET_EN) */
1054:Generated_Source\PSoC6/CapSense_Processing.c **** 
1055:Generated_Source\PSoC6/CapSense_Processing.c ****     #if (0u != CapSense_PROXIMITY_WIDGET_EN)
1056:Generated_Source\PSoC6/CapSense_Processing.c ****         case CapSense_WD_PROXIMITY_E:
1057:Generated_Source\PSoC6/CapSense_Processing.c ****             sensorStatus = CapSense_DpProcessProximity(sensorStatus, ptrFlashWdgt);
1058:Generated_Source\PSoC6/CapSense_Processing.c ****             break;
1059:Generated_Source\PSoC6/CapSense_Processing.c ****     #endif /* #if (0u != CapSense_PROXIMITY_WIDGET_EN) */
1060:Generated_Source\PSoC6/CapSense_Processing.c **** 
1061:Generated_Source\PSoC6/CapSense_Processing.c ****     default:
1062:Generated_Source\PSoC6/CapSense_Processing.c ****         CY_ASSERT(0 != 0);
1063:Generated_Source\PSoC6/CapSense_Processing.c ****         break;
1064:Generated_Source\PSoC6/CapSense_Processing.c ****     }
1065:Generated_Source\PSoC6/CapSense_Processing.c **** 
1066:Generated_Source\PSoC6/CapSense_Processing.c ****     CapSense_dsRam.snsStatus[widgetId] = (CapSense_SNS_STS_TYPE)sensorStatus;
1067:Generated_Source\PSoC6/CapSense_Processing.c **** 
1068:Generated_Source\PSoC6/CapSense_Processing.c ****     /* The next two lines calculate index and bitmask of the widget status bit in the wdgtStatus ar
1069:Generated_Source\PSoC6/CapSense_Processing.c ****     wdStatusIndex = CapSense_GET_WDGT_STATUS_INDEX(widgetId);
1070:Generated_Source\PSoC6/CapSense_Processing.c ****     wdStatusMask = CapSense_GET_WDGT_STATUS_MASK(widgetId);
1071:Generated_Source\PSoC6/CapSense_Processing.c **** 
1072:Generated_Source\PSoC6/CapSense_Processing.c ****     /* Check if there are active sensors and update widget status accordingly */
1073:Generated_Source\PSoC6/CapSense_Processing.c ****     if (0u == sensorStatus)
1074:Generated_Source\PSoC6/CapSense_Processing.c ****     {
1075:Generated_Source\PSoC6/CapSense_Processing.c ****         CapSense_dsRam.wdgtStatus[wdStatusIndex] &= ~wdStatusMask;
1076:Generated_Source\PSoC6/CapSense_Processing.c ****     }
1077:Generated_Source\PSoC6/CapSense_Processing.c ****     else
1078:Generated_Source\PSoC6/CapSense_Processing.c ****     {
1079:Generated_Source\PSoC6/CapSense_Processing.c ****         CapSense_dsRam.wdgtStatus[wdStatusIndex] |= wdStatusMask;
1080:Generated_Source\PSoC6/CapSense_Processing.c ****     }
1081:Generated_Source\PSoC6/CapSense_Processing.c **** }
1082:Generated_Source\PSoC6/CapSense_Processing.c **** #endif /* #if (0u != CapSense_TOTAL_CSD_WIDGETS) */
1083:Generated_Source\PSoC6/CapSense_Processing.c **** 
1084:Generated_Source\PSoC6/CapSense_Processing.c **** 
1085:Generated_Source\PSoC6/CapSense_Processing.c **** #if (0 != (CapSense_CSD_AUTOTUNE & CapSense_CSD_SS_TH_EN))
1086:Generated_Source\PSoC6/CapSense_Processing.c **** /*******************************************************************************
1087:Generated_Source\PSoC6/CapSense_Processing.c **** * Function Name: CapSense_DpUpdateThresholds
1088:Generated_Source\PSoC6/CapSense_Processing.c **** ****************************************************************************//**
1089:Generated_Source\PSoC6/CapSense_Processing.c **** *
1090:Generated_Source\PSoC6/CapSense_Processing.c **** * \brief
1091:Generated_Source\PSoC6/CapSense_Processing.c **** *   Updates noise and finger thresholds for a specified widget.
1092:Generated_Source\PSoC6/CapSense_Processing.c **** *
1093:Generated_Source\PSoC6/CapSense_Processing.c **** * \details
1094:Generated_Source\PSoC6/CapSense_Processing.c **** *   Updates noise and finger thresholds for a specified widget.
1095:Generated_Source\PSoC6/CapSense_Processing.c **** *   This algorithm is a part of Auto-tuning feature.
1096:Generated_Source\PSoC6/CapSense_Processing.c **** *
1097:Generated_Source\PSoC6/CapSense_Processing.c **** * \param ptrRamWdgt       The pointer to the RAM widget object.
1098:Generated_Source\PSoC6/CapSense_Processing.c **** * \param ptrNoiseEnvelope The pointer to the noise-envelope object in RAM.
1099:Generated_Source\PSoC6/CapSense_Processing.c **** * \param startFlag        The flag indicates when new widget is processed.
1100:Generated_Source\PSoC6/CapSense_Processing.c **** *
1101:Generated_Source\PSoC6/CapSense_Processing.c **** *******************************************************************************/
1102:Generated_Source\PSoC6/CapSense_Processing.c **** void CapSense_DpUpdateThresholds(CapSense_RAM_WD_BASE_STRUCT *ptrRamWdgt,
1103:Generated_Source\PSoC6/CapSense_Processing.c ****                                          SMARTSENSE_CSD_NOISE_ENVELOPE_STRUCT *ptrNoiseEnvelope,
1104:Generated_Source\PSoC6/CapSense_Processing.c ****                                          uint32 startFlag)
1105:Generated_Source\PSoC6/CapSense_Processing.c **** {
 192              		.loc 1 1105 0
 193              		.cfi_startproc
 194              		@ args = 0, pretend = 0, frame = 8
ARM GAS  C:\Users\ikomb\AppData\Local\Temp\cc6TxH90.s 			page 24


 195              		@ frame_needed = 0, uses_anonymous_args = 0
 196              	.LVL25:
 197 0000 10B5     		push	{r4, lr}
 198              		.cfi_def_cfa_offset 8
 199              		.cfi_offset 4, -8
 200              		.cfi_offset 14, -4
 201 0002 82B0     		sub	sp, sp, #8
 202              		.cfi_def_cfa_offset 16
 203 0004 0400     		movs	r4, r0
 204 0006 0800     		movs	r0, r1
 205              	.LVL26:
 206 0008 1300     		movs	r3, r2
 207              	.LVL27:
1106:Generated_Source\PSoC6/CapSense_Processing.c ****     SMARTSENSE_UPDATE_THRESHOLDS_STRUCT thresholds;
1107:Generated_Source\PSoC6/CapSense_Processing.c ****     SMARTSENSE_UPDATE_THRESHOLDS_STRUCT *ptrThresholds = &thresholds;
1108:Generated_Source\PSoC6/CapSense_Processing.c ****     ptrThresholds->fingerTh = ptrRamWdgt->fingerTh;
 208              		.loc 1 1108 0
 209 000a 6288     		ldrh	r2, [r4, #2]
 210              	.LVL28:
 211 000c 6946     		mov	r1, sp
 212              	.LVL29:
 213 000e 0A80     		strh	r2, [r1]
1109:Generated_Source\PSoC6/CapSense_Processing.c **** 
1110:Generated_Source\PSoC6/CapSense_Processing.c ****     SmartSense_UpdateThresholds(ptrNoiseEnvelope, ptrThresholds, ptrRamWdgt->sigPFC, startFlag);
 214              		.loc 1 1110 0
 215 0010 228A     		ldrh	r2, [r4, #16]
 216 0012 FFF7FEFF 		bl	SmartSense_UpdateThresholds
 217              	.LVL30:
1111:Generated_Source\PSoC6/CapSense_Processing.c **** 
1112:Generated_Source\PSoC6/CapSense_Processing.c ****     ptrRamWdgt->fingerTh = ptrThresholds->fingerTh;
 218              		.loc 1 1112 0
 219 0016 6B46     		mov	r3, sp
 220 0018 1B88     		ldrh	r3, [r3]
 221 001a 6380     		strh	r3, [r4, #2]
1113:Generated_Source\PSoC6/CapSense_Processing.c ****     ptrRamWdgt->noiseTh = ptrThresholds->noiseTh;
 222              		.loc 1 1113 0
 223 001c 6B46     		mov	r3, sp
 224 001e 9B78     		ldrb	r3, [r3, #2]
 225 0020 2371     		strb	r3, [r4, #4]
1114:Generated_Source\PSoC6/CapSense_Processing.c ****     ptrRamWdgt->nNoiseTh = ptrThresholds->nNoiseTh;
 226              		.loc 1 1114 0
 227 0022 6B46     		mov	r3, sp
 228 0024 DB78     		ldrb	r3, [r3, #3]
 229 0026 6371     		strb	r3, [r4, #5]
1115:Generated_Source\PSoC6/CapSense_Processing.c ****     ptrRamWdgt->hysteresis = ptrThresholds->hysteresis;
 230              		.loc 1 1115 0
 231 0028 6B46     		mov	r3, sp
 232 002a 1B79     		ldrb	r3, [r3, #4]
 233 002c A371     		strb	r3, [r4, #6]
1116:Generated_Source\PSoC6/CapSense_Processing.c **** }
 234              		.loc 1 1116 0
 235 002e 02B0     		add	sp, sp, #8
 236              	.LVL31:
 237              		@ sp needed
 238              	.LVL32:
 239 0030 10BD     		pop	{r4, pc}
 240              		.cfi_endproc
ARM GAS  C:\Users\ikomb\AppData\Local\Temp\cc6TxH90.s 			page 25


 241              	.LFE44:
 242              		.size	CapSense_DpUpdateThresholds, .-CapSense_DpUpdateThresholds
 243 0032 C046     		.section	.text.CapSense_DpUpdateDifferences,"ax",%progbits
 244              		.align	2
 245              		.global	CapSense_DpUpdateDifferences
 246              		.code	16
 247              		.thumb_func
 248              		.type	CapSense_DpUpdateDifferences, %function
 249              	CapSense_DpUpdateDifferences:
 250              	.LFB45:
1117:Generated_Source\PSoC6/CapSense_Processing.c **** #endif /* #if (0u != (CapSense_CSD_AUTOTUNE & CapSense_CSD_SS_TH_EN)) */
1118:Generated_Source\PSoC6/CapSense_Processing.c **** 
1119:Generated_Source\PSoC6/CapSense_Processing.c **** 
1120:Generated_Source\PSoC6/CapSense_Processing.c **** /*******************************************************************************
1121:Generated_Source\PSoC6/CapSense_Processing.c **** * Function Name: CapSense_DpUpdateDifferences
1122:Generated_Source\PSoC6/CapSense_Processing.c **** ****************************************************************************//**
1123:Generated_Source\PSoC6/CapSense_Processing.c **** *
1124:Generated_Source\PSoC6/CapSense_Processing.c **** * \brief
1125:Generated_Source\PSoC6/CapSense_Processing.c **** *   Calculates new difference values.
1126:Generated_Source\PSoC6/CapSense_Processing.c **** *   Also, executes the multi-frequency scan algorithm if it is enabled.
1127:Generated_Source\PSoC6/CapSense_Processing.c **** *
1128:Generated_Source\PSoC6/CapSense_Processing.c **** * \details
1129:Generated_Source\PSoC6/CapSense_Processing.c **** *   This API calculates the difference between the baseline and raw counts.
1130:Generated_Source\PSoC6/CapSense_Processing.c **** *   If the difference is positive (raw > baseline), and higher than the widget
1131:Generated_Source\PSoC6/CapSense_Processing.c **** *   noise threshold, it is saved into the data structure for further processing.
1132:Generated_Source\PSoC6/CapSense_Processing.c **** *   Otherwise the difference is set to zero. The final difference value is saved
1133:Generated_Source\PSoC6/CapSense_Processing.c **** *   with the subtracted noise threshold value.
1134:Generated_Source\PSoC6/CapSense_Processing.c **** *
1135:Generated_Source\PSoC6/CapSense_Processing.c **** *   If the multi-frequency scan algorithm is enabled, the difference is calculated
1136:Generated_Source\PSoC6/CapSense_Processing.c **** *   for the three sets of data available for each sensor. Then
1137:Generated_Source\PSoC6/CapSense_Processing.c **** *   the median filter selects the final difference value.
1138:Generated_Source\PSoC6/CapSense_Processing.c **** *
1139:Generated_Source\PSoC6/CapSense_Processing.c **** * \param ptrRamWdgt The pointer to the RAR Widget Object.
1140:Generated_Source\PSoC6/CapSense_Processing.c **** * \param curSnsPtr  The pointer to the sensor object in RAM.
1141:Generated_Source\PSoC6/CapSense_Processing.c **** *
1142:Generated_Source\PSoC6/CapSense_Processing.c **** *******************************************************************************/
1143:Generated_Source\PSoC6/CapSense_Processing.c **** void CapSense_DpUpdateDifferences(
1144:Generated_Source\PSoC6/CapSense_Processing.c ****                         CapSense_RAM_WD_BASE_STRUCT *ptrRamWdgt,
1145:Generated_Source\PSoC6/CapSense_Processing.c ****                         CapSense_RAM_SNS_STRUCT *curSnsPtr)
1146:Generated_Source\PSoC6/CapSense_Processing.c **** {
 251              		.loc 1 1146 0
 252              		.cfi_startproc
 253              		@ args = 0, pretend = 0, frame = 0
 254              		@ frame_needed = 0, uses_anonymous_args = 0
 255              	.LVL33:
 256 0000 30B5     		push	{r4, r5, lr}
 257              		.cfi_def_cfa_offset 12
 258              		.cfi_offset 4, -12
 259              		.cfi_offset 5, -8
 260              		.cfi_offset 14, -4
 261              	.LVL34:
1147:Generated_Source\PSoC6/CapSense_Processing.c ****     register int32 diffValue = 0;
1148:Generated_Source\PSoC6/CapSense_Processing.c **** 
1149:Generated_Source\PSoC6/CapSense_Processing.c ****     #if (0u != CapSense_MULTI_FREQ_SCAN_EN)
1150:Generated_Source\PSoC6/CapSense_Processing.c ****         register int32 diffValue_0 = 0;
1151:Generated_Source\PSoC6/CapSense_Processing.c ****         register int32 diffValue_2 = 0;
1152:Generated_Source\PSoC6/CapSense_Processing.c ****     #endif /* #if (0u != CapSense_MULTI_FREQ_SCAN_EN) */
ARM GAS  C:\Users\ikomb\AppData\Local\Temp\cc6TxH90.s 			page 26


1153:Generated_Source\PSoC6/CapSense_Processing.c **** 
1154:Generated_Source\PSoC6/CapSense_Processing.c ****     /* Calculate difference */
1155:Generated_Source\PSoC6/CapSense_Processing.c ****     diffValue = (int32)curSnsPtr->raw[0u] - (int32)curSnsPtr->bsln[0u];
 262              		.loc 1 1155 0
 263 0002 0B88     		ldrh	r3, [r1]
 264 0004 4A88     		ldrh	r2, [r1, #2]
 265 0006 9C1A     		subs	r4, r3, r2
 266              	.LVL35:
1156:Generated_Source\PSoC6/CapSense_Processing.c **** 
1157:Generated_Source\PSoC6/CapSense_Processing.c ****     #if (0u != CapSense_MULTI_FREQ_SCAN_EN)
1158:Generated_Source\PSoC6/CapSense_Processing.c ****         diffValue_0 = (int32)curSnsPtr->raw[1u] - (int32)curSnsPtr->bsln[1u];
1159:Generated_Source\PSoC6/CapSense_Processing.c ****         diffValue_2 = (int32)curSnsPtr->raw[2u] - (int32)curSnsPtr->bsln[2u];
1160:Generated_Source\PSoC6/CapSense_Processing.c **** 
1161:Generated_Source\PSoC6/CapSense_Processing.c ****         /* Find median and put it into [0u] element */
1162:Generated_Source\PSoC6/CapSense_Processing.c ****         if (diffValue_0 > diffValue)
1163:Generated_Source\PSoC6/CapSense_Processing.c ****         {
1164:Generated_Source\PSoC6/CapSense_Processing.c ****             register int32 swapv = diffValue_0;
1165:Generated_Source\PSoC6/CapSense_Processing.c ****             diffValue_0 = diffValue;
1166:Generated_Source\PSoC6/CapSense_Processing.c ****             diffValue = swapv;
1167:Generated_Source\PSoC6/CapSense_Processing.c ****         }
1168:Generated_Source\PSoC6/CapSense_Processing.c **** 
1169:Generated_Source\PSoC6/CapSense_Processing.c ****         if (diffValue > diffValue_2)
1170:Generated_Source\PSoC6/CapSense_Processing.c ****         {
1171:Generated_Source\PSoC6/CapSense_Processing.c ****             register int32 swapv = diffValue;
1172:Generated_Source\PSoC6/CapSense_Processing.c ****             diffValue = diffValue_2;
1173:Generated_Source\PSoC6/CapSense_Processing.c ****             diffValue_2 = swapv;
1174:Generated_Source\PSoC6/CapSense_Processing.c ****         }
1175:Generated_Source\PSoC6/CapSense_Processing.c **** 
1176:Generated_Source\PSoC6/CapSense_Processing.c ****         if (diffValue_0 > diffValue)
1177:Generated_Source\PSoC6/CapSense_Processing.c ****         {
1178:Generated_Source\PSoC6/CapSense_Processing.c ****             register int32 swapv = diffValue_0;
1179:Generated_Source\PSoC6/CapSense_Processing.c ****             diffValue_0 = diffValue;
1180:Generated_Source\PSoC6/CapSense_Processing.c ****             diffValue = swapv;
1181:Generated_Source\PSoC6/CapSense_Processing.c ****         }
1182:Generated_Source\PSoC6/CapSense_Processing.c ****     #endif /* #if (0u != CapSense_MULTI_FREQ_SCAN_EN) */
1183:Generated_Source\PSoC6/CapSense_Processing.c **** 
1184:Generated_Source\PSoC6/CapSense_Processing.c ****     curSnsPtr->diff = 0u;
 267              		.loc 1 1184 0
 268 0008 0025     		movs	r5, #0
 269 000a CD80     		strh	r5, [r1, #6]
1185:Generated_Source\PSoC6/CapSense_Processing.c **** 
1186:Generated_Source\PSoC6/CapSense_Processing.c ****     if (diffValue > (int32)ptrRamWdgt->noiseTh)
 270              		.loc 1 1186 0
 271 000c 0079     		ldrb	r0, [r0, #4]
 272              	.LVL36:
 273 000e 8442     		cmp	r4, r0
 274 0010 00DD     		ble	.L17
1187:Generated_Source\PSoC6/CapSense_Processing.c ****     {
1188:Generated_Source\PSoC6/CapSense_Processing.c ****         curSnsPtr->diff = (CapSense_THRESHOLD_TYPE) diffValue;
 275              		.loc 1 1188 0
 276 0012 CC80     		strh	r4, [r1, #6]
 277              	.L17:
1189:Generated_Source\PSoC6/CapSense_Processing.c ****     }
1190:Generated_Source\PSoC6/CapSense_Processing.c **** }
 278              		.loc 1 1190 0
 279              		@ sp needed
 280              	.LVL37:
ARM GAS  C:\Users\ikomb\AppData\Local\Temp\cc6TxH90.s 			page 27


 281 0014 30BD     		pop	{r4, r5, pc}
 282              		.cfi_endproc
 283              	.LFE45:
 284              		.size	CapSense_DpUpdateDifferences, .-CapSense_DpUpdateDifferences
 285 0016 C046     		.section	.text.CapSense_DpProcessCsxWidgetRawCounts,"ax",%progbits
 286              		.align	2
 287              		.global	CapSense_DpProcessCsxWidgetRawCounts
 288              		.code	16
 289              		.thumb_func
 290              		.type	CapSense_DpProcessCsxWidgetRawCounts, %function
 291              	CapSense_DpProcessCsxWidgetRawCounts:
 292              	.LFB38:
 555:Generated_Source\PSoC6/CapSense_Processing.c ****     uint32 result = CY_RET_SUCCESS;
 293              		.loc 1 555 0
 294              		.cfi_startproc
 295              		@ args = 0, pretend = 0, frame = 8
 296              		@ frame_needed = 0, uses_anonymous_args = 0
 297              	.LVL38:
 298 0000 F0B5     		push	{r4, r5, r6, r7, lr}
 299              		.cfi_def_cfa_offset 20
 300              		.cfi_offset 4, -20
 301              		.cfi_offset 5, -16
 302              		.cfi_offset 6, -12
 303              		.cfi_offset 7, -8
 304              		.cfi_offset 14, -4
 305 0002 83B0     		sub	sp, sp, #12
 306              		.cfi_def_cfa_offset 32
 307              	.LVL39:
 565:Generated_Source\PSoC6/CapSense_Processing.c ****     #endif /* #if (CapSense_ENABLE == CapSense_RC_FILTER_EN) */
 308              		.loc 1 565 0
 309 0004 C768     		ldr	r7, [r0, #12]
 310              	.LVL40:
 568:Generated_Source\PSoC6/CapSense_Processing.c ****     snsCount = ptrFlashWdgt->totalNumSns;
 311              		.loc 1 568 0
 312 0006 8468     		ldr	r4, [r0, #8]
 313              	.LVL41:
 569:Generated_Source\PSoC6/CapSense_Processing.c ****     ptrRamWdgt = (CapSense_RAM_WD_BASE_STRUCT *)ptrFlashWdgt->ptr2WdgtRam;
 314              		.loc 1 569 0
 315 0008 038B     		ldrh	r3, [r0, #24]
 316              	.LVL42:
 570:Generated_Source\PSoC6/CapSense_Processing.c ****     widgetType = ptrFlashWdgt->wdgtType;
 317              		.loc 1 570 0
 318 000a 4668     		ldr	r6, [r0, #4]
 319              	.LVL43:
 571:Generated_Source\PSoC6/CapSense_Processing.c **** 
 320              		.loc 1 571 0
 321 000c 827E     		ldrb	r2, [r0, #26]
 322 000e 0092     		str	r2, [sp]
 323              	.LVL44:
 556:Generated_Source\PSoC6/CapSense_Processing.c ****     uint32 widgetType;
 324              		.loc 1 556 0
 325 0010 0022     		movs	r2, #0
 326              	.LVL45:
 327 0012 0192     		str	r2, [sp, #4]
 581:Generated_Source\PSoC6/CapSense_Processing.c ****     {
 328              		.loc 1 581 0
 329 0014 11E0     		b	.L20
ARM GAS  C:\Users\ikomb\AppData\Local\Temp\cc6TxH90.s 			page 28


 330              	.LVL46:
 331              	.L21:
 584:Generated_Source\PSoC6/CapSense_Processing.c ****             #if (CapSense_ALP_FILTER_EN)
 332              		.loc 1 584 0
 333 0016 009A     		ldr	r2, [sp]
 334 0018 2100     		movs	r1, r4
 335              	.LVL47:
 336 001a 3800     		movs	r0, r7
 337 001c FFF7FEFF 		bl	CapSense_FtRunEnabledFiltersInternal
 338              	.LVL48:
 590:Generated_Source\PSoC6/CapSense_Processing.c **** 
 339              		.loc 1 590 0
 340 0020 009A     		ldr	r2, [sp]
 341 0022 2100     		movs	r1, r4
 342 0024 3000     		movs	r0, r6
 343 0026 FFF7FEFF 		bl	CapSense_FtUpdateBaseline
 344              	.LVL49:
 345 002a 0190     		str	r0, [sp, #4]
 346              	.LVL50:
 599:Generated_Source\PSoC6/CapSense_Processing.c **** 
 347              		.loc 1 599 0
 348 002c 2100     		movs	r1, r4
 349 002e 3000     		movs	r0, r6
 350              	.LVL51:
 351 0030 FFF7FEFF 		bl	CapSense_DpUpdateDifferences
 352              	.LVL52:
 602:Generated_Source\PSoC6/CapSense_Processing.c ****         
 353              		.loc 1 602 0
 354 0034 0A34     		adds	r4, r4, #10
 355              	.LVL53:
 605:Generated_Source\PSoC6/CapSense_Processing.c ****         #endif /* #if (CapSense_ENABLE == CapSense_RC_FILTER_EN) */
 356              		.loc 1 605 0
 357 0036 0A37     		adds	r7, r7, #10
 358              	.LVL54:
 581:Generated_Source\PSoC6/CapSense_Processing.c ****     {
 359              		.loc 1 581 0
 360 0038 2B00     		movs	r3, r5
 361              	.LVL55:
 362              	.L20:
 363 003a 5D1E     		subs	r5, r3, #1
 364              	.LVL56:
 365 003c 002B     		cmp	r3, #0
 366 003e EAD1     		bne	.L21
 609:Generated_Source\PSoC6/CapSense_Processing.c **** 
 367              		.loc 1 609 0
 368 0040 0198     		ldr	r0, [sp, #4]
 369 0042 03B0     		add	sp, sp, #12
 370              	.LVL57:
 371              		@ sp needed
 372              	.LVL58:
 373              	.LVL59:
 374              	.LVL60:
 375 0044 F0BD     		pop	{r4, r5, r6, r7, pc}
 376              		.cfi_endproc
 377              	.LFE38:
 378              		.size	CapSense_DpProcessCsxWidgetRawCounts, .-CapSense_DpProcessCsxWidgetRawCounts
 379 0046 C046     		.section	.text.CapSense_DpProcessCsxSensorRawCountsExt,"ax",%progbits
ARM GAS  C:\Users\ikomb\AppData\Local\Temp\cc6TxH90.s 			page 29


 380              		.align	2
 381              		.global	CapSense_DpProcessCsxSensorRawCountsExt
 382              		.code	16
 383              		.thumb_func
 384              		.type	CapSense_DpProcessCsxSensorRawCountsExt, %function
 385              	CapSense_DpProcessCsxSensorRawCountsExt:
 386              	.LFB39:
 647:Generated_Source\PSoC6/CapSense_Processing.c ****     uint32  result = CY_RET_SUCCESS;
 387              		.loc 1 647 0
 388              		.cfi_startproc
 389              		@ args = 0, pretend = 0, frame = 8
 390              		@ frame_needed = 0, uses_anonymous_args = 0
 391              	.LVL61:
 392 0000 F0B5     		push	{r4, r5, r6, r7, lr}
 393              		.cfi_def_cfa_offset 20
 394              		.cfi_offset 4, -20
 395              		.cfi_offset 5, -16
 396              		.cfi_offset 6, -12
 397              		.cfi_offset 7, -8
 398              		.cfi_offset 14, -4
 399 0002 83B0     		sub	sp, sp, #12
 400              		.cfi_def_cfa_offset 32
 401 0004 0E00     		movs	r6, r1
 402 0006 0192     		str	r2, [sp, #4]
 403 0008 1C00     		movs	r4, r3
 404              	.LVL62:
 652:Generated_Source\PSoC6/CapSense_Processing.c ****     ptrRamWdgt = (CapSense_RAM_WD_BASE_STRUCT *)ptrFlashWdgt->ptr2WdgtRam;
 405              		.loc 1 652 0
 406 000a 857E     		ldrb	r5, [r0, #26]
 407              	.LVL63:
 653:Generated_Source\PSoC6/CapSense_Processing.c **** 
 408              		.loc 1 653 0
 409 000c 4768     		ldr	r7, [r0, #4]
 410              	.LVL64:
 656:Generated_Source\PSoC6/CapSense_Processing.c ****         {
 411              		.loc 1 656 0
 412 000e E307     		lsls	r3, r4, #31
 413 0010 03D5     		bpl	.L23
 414              	.LVL65:
 658:Generated_Source\PSoC6/CapSense_Processing.c ****             #if (CapSense_ALP_FILTER_EN)
 415              		.loc 1 658 0
 416 0012 2A00     		movs	r2, r5
 417              	.LVL66:
 418 0014 0198     		ldr	r0, [sp, #4]
 419              	.LVL67:
 420 0016 FFF7FEFF 		bl	CapSense_FtRunEnabledFiltersInternal
 421              	.LVL68:
 422              	.L23:
 667:Generated_Source\PSoC6/CapSense_Processing.c ****     {
 423              		.loc 1 667 0
 424 001a A307     		lsls	r3, r4, #30
 425 001c 06D5     		bpl	.L26
 669:Generated_Source\PSoC6/CapSense_Processing.c ****     }
 426              		.loc 1 669 0
 427 001e 2A00     		movs	r2, r5
 428              	.LVL69:
 429 0020 3100     		movs	r1, r6
ARM GAS  C:\Users\ikomb\AppData\Local\Temp\cc6TxH90.s 			page 30


 430 0022 3800     		movs	r0, r7
 431 0024 FFF7FEFF 		bl	CapSense_FtUpdateBaseline
 432              	.LVL70:
 433 0028 0500     		movs	r5, r0
 434              	.LVL71:
 435 002a 00E0     		b	.L24
 436              	.LVL72:
 437              	.L26:
 648:Generated_Source\PSoC6/CapSense_Processing.c ****     uint32  widgetType;
 438              		.loc 1 648 0
 439 002c 0025     		movs	r5, #0
 440              	.LVL73:
 441              	.L24:
 672:Generated_Source\PSoC6/CapSense_Processing.c ****     {
 442              		.loc 1 672 0
 443 002e 6307     		lsls	r3, r4, #29
 444 0030 03D5     		bpl	.L25
 674:Generated_Source\PSoC6/CapSense_Processing.c ****     }
 445              		.loc 1 674 0
 446 0032 3100     		movs	r1, r6
 447 0034 3800     		movs	r0, r7
 448 0036 FFF7FEFF 		bl	CapSense_DpUpdateDifferences
 449              	.LVL74:
 450              	.L25:
 677:Generated_Source\PSoC6/CapSense_Processing.c **** 
 451              		.loc 1 677 0
 452 003a 2800     		movs	r0, r5
 453 003c 03B0     		add	sp, sp, #12
 454              		@ sp needed
 455              	.LVL75:
 456              	.LVL76:
 457              	.LVL77:
 458              	.LVL78:
 459 003e F0BD     		pop	{r4, r5, r6, r7, pc}
 460              		.cfi_endproc
 461              	.LFE39:
 462              		.size	CapSense_DpProcessCsxSensorRawCountsExt, .-CapSense_DpProcessCsxSensorRawCountsExt
 463              		.section	.text.CapSense_DpProcessCsdWidgetRawCounts,"ax",%progbits
 464              		.align	2
 465              		.global	CapSense_DpProcessCsdWidgetRawCounts
 466              		.code	16
 467              		.thumb_func
 468              		.type	CapSense_DpProcessCsdWidgetRawCounts, %function
 469              	CapSense_DpProcessCsdWidgetRawCounts:
 470              	.LFB41:
 786:Generated_Source\PSoC6/CapSense_Processing.c ****     uint32  result = CY_RET_SUCCESS;
 471              		.loc 1 786 0
 472              		.cfi_startproc
 473              		@ args = 0, pretend = 0, frame = 8
 474              		@ frame_needed = 0, uses_anonymous_args = 0
 475              	.LVL79:
 476 0000 F0B5     		push	{r4, r5, r6, r7, lr}
 477              		.cfi_def_cfa_offset 20
 478              		.cfi_offset 4, -20
 479              		.cfi_offset 5, -16
 480              		.cfi_offset 6, -12
 481              		.cfi_offset 7, -8
ARM GAS  C:\Users\ikomb\AppData\Local\Temp\cc6TxH90.s 			page 31


 482              		.cfi_offset 14, -4
 483 0002 5F46     		mov	r7, fp
 484 0004 5646     		mov	r6, r10
 485 0006 4D46     		mov	r5, r9
 486 0008 E0B4     		push	{r5, r6, r7}
 487              		.cfi_def_cfa_offset 32
 488              		.cfi_offset 9, -32
 489              		.cfi_offset 10, -28
 490              		.cfi_offset 11, -24
 491 000a 82B0     		sub	sp, sp, #8
 492              		.cfi_def_cfa_offset 40
 493 000c 8246     		mov	r10, r0
 494              	.LVL80:
 810:Generated_Source\PSoC6/CapSense_Processing.c **** 
 495              		.loc 1 810 0
 496 000e 837E     		ldrb	r3, [r0, #26]
 497 0010 062B     		cmp	r3, #6
 498 0012 02D1     		bne	.L32
 499 0014 0122     		movs	r2, #1
 500 0016 9346     		mov	fp, r2
 501 0018 01E0     		b	.L28
 502              	.L32:
 503 001a 0022     		movs	r2, #0
 504 001c 9346     		mov	fp, r2
 505              	.L28:
 506              	.LVL81:
 813:Generated_Source\PSoC6/CapSense_Processing.c ****     #endif /* #if (CapSense_ENABLE == CapSense_RC_FILTER_EN) */
 507              		.loc 1 813 0 discriminator 4
 508 001e 5246     		mov	r2, r10
 509 0020 D268     		ldr	r2, [r2, #12]
 510              	.LVL82:
 511 0022 9146     		mov	r9, r2
 816:Generated_Source\PSoC6/CapSense_Processing.c ****     ptrRamWdgt = (CapSense_RAM_WD_BASE_STRUCT *)ptrFlashWdgt->ptr2WdgtRam;
 512              		.loc 1 816 0 discriminator 4
 513 0024 5246     		mov	r2, r10
 514              	.LVL83:
 515 0026 9468     		ldr	r4, [r2, #8]
 516              	.LVL84:
 817:Generated_Source\PSoC6/CapSense_Processing.c ****     widgetType = ptrFlashWdgt->wdgtType;
 517              		.loc 1 817 0 discriminator 4
 518 0028 5668     		ldr	r6, [r2, #4]
 519              	.LVL85:
 818:Generated_Source\PSoC6/CapSense_Processing.c **** 
 520              		.loc 1 818 0 discriminator 4
 521 002a 0093     		str	r3, [sp]
 522              	.LVL86:
 821:Generated_Source\PSoC6/CapSense_Processing.c ****     #endif /* #if (0u != (CapSense_CSD_AUTOTUNE & CapSense_CSD_SS_TH_EN)) */
 523              		.loc 1 821 0 discriminator 4
 524 002c 576A     		ldr	r7, [r2, #36]
 525              	.LVL87:
 825:Generated_Source\PSoC6/CapSense_Processing.c ****     {
 526              		.loc 1 825 0 discriminator 4
 527 002e 0025     		movs	r5, #0
 787:Generated_Source\PSoC6/CapSense_Processing.c **** 
 528              		.loc 1 787 0 discriminator 4
 529 0030 0023     		movs	r3, #0
 530 0032 0193     		str	r3, [sp, #4]
ARM GAS  C:\Users\ikomb\AppData\Local\Temp\cc6TxH90.s 			page 32


 825:Generated_Source\PSoC6/CapSense_Processing.c ****     {
 531              		.loc 1 825 0 discriminator 4
 532 0034 21E0     		b	.L29
 533              	.LVL88:
 534              	.L31:
 829:Generated_Source\PSoC6/CapSense_Processing.c ****             #if (CapSense_ALP_FILTER_EN)
 535              		.loc 1 829 0
 536 0036 009A     		ldr	r2, [sp]
 537 0038 2100     		movs	r1, r4
 538 003a 4846     		mov	r0, r9
 539 003c FFF7FEFF 		bl	CapSense_FtRunEnabledFiltersInternal
 540              	.LVL89:
 837:Generated_Source\PSoC6/CapSense_Processing.c ****             CapSense_DpUpdateThresholds(ptrRamWdgt, ptrNoiseEnvelope, snsId);
 541              		.loc 1 837 0
 542 0040 318A     		ldrh	r1, [r6, #16]
 543 0042 2088     		ldrh	r0, [r4]
 544 0044 3A00     		movs	r2, r7
 545 0046 FFF7FEFF 		bl	SmartSense_RunNoiseEnvelope
 546              	.LVL90:
 838:Generated_Source\PSoC6/CapSense_Processing.c **** 
 547              		.loc 1 838 0
 548 004a 2A00     		movs	r2, r5
 549 004c 3900     		movs	r1, r7
 550 004e 3000     		movs	r0, r6
 551 0050 FFF7FEFF 		bl	CapSense_DpUpdateThresholds
 552              	.LVL91:
 855:Generated_Source\PSoC6/CapSense_Processing.c ****         #endif /* (0u != (CapSense_CSD_AUTOTUNE & CapSense_CSD_SS_TH_EN)) */
 553              		.loc 1 855 0
 554 0054 0C37     		adds	r7, r7, #12
 555              	.LVL92:
 865:Generated_Source\PSoC6/CapSense_Processing.c ****         #endif /* (CapSense_ENABLE == CapSense_TST_BSLN_DUPLICATION_EN) */
 556              		.loc 1 865 0
 557 0056 009A     		ldr	r2, [sp]
 558 0058 2100     		movs	r1, r4
 559 005a 3000     		movs	r0, r6
 560 005c FFF7FEFF 		bl	CapSense_FtUpdateBaseline
 561              	.LVL93:
 562 0060 0190     		str	r0, [sp, #4]
 563              	.LVL94:
 868:Generated_Source\PSoC6/CapSense_Processing.c **** 
 564              		.loc 1 868 0
 565 0062 2100     		movs	r1, r4
 566 0064 3000     		movs	r0, r6
 567              	.LVL95:
 568 0066 FFF7FEFF 		bl	CapSense_DpUpdateDifferences
 569              	.LVL96:
 871:Generated_Source\PSoC6/CapSense_Processing.c **** 
 570              		.loc 1 871 0
 571 006a 0A34     		adds	r4, r4, #10
 572              	.LVL97:
 875:Generated_Source\PSoC6/CapSense_Processing.c ****         #endif /* #if (CapSense_ENABLE == CapSense_RC_FILTER_EN) */
 573              		.loc 1 875 0
 574 006c 5B46     		mov	r3, fp
 575 006e 002B     		cmp	r3, #0
 576 0070 02D1     		bne	.L30
 577              	.LVL98:
 875:Generated_Source\PSoC6/CapSense_Processing.c ****         #endif /* #if (CapSense_ENABLE == CapSense_RC_FILTER_EN) */
ARM GAS  C:\Users\ikomb\AppData\Local\Temp\cc6TxH90.s 			page 33


 578              		.loc 1 875 0 is_stmt 0 discriminator 1
 579 0072 0A33     		adds	r3, r3, #10
 580              	.LVL99:
 581 0074 9C46     		mov	ip, r3
 582 0076 E144     		add	r9, r9, ip
 583              	.LVL100:
 584              	.L30:
 825:Generated_Source\PSoC6/CapSense_Processing.c ****     {
 585              		.loc 1 825 0 is_stmt 1 discriminator 2
 586 0078 0135     		adds	r5, r5, #1
 587              	.LVL101:
 588              	.L29:
 825:Generated_Source\PSoC6/CapSense_Processing.c ****     {
 589              		.loc 1 825 0 is_stmt 0 discriminator 1
 590 007a 5346     		mov	r3, r10
 591 007c 1B8B     		ldrh	r3, [r3, #24]
 592 007e 9D42     		cmp	r5, r3
 593 0080 D9D3     		bcc	.L31
 879:Generated_Source\PSoC6/CapSense_Processing.c **** 
 594              		.loc 1 879 0 is_stmt 1
 595 0082 0198     		ldr	r0, [sp, #4]
 596 0084 02B0     		add	sp, sp, #8
 597              	.LVL102:
 598              		@ sp needed
 599              	.LVL103:
 600              	.LVL104:
 601              	.LVL105:
 602              	.LVL106:
 603              	.LVL107:
 604              	.LVL108:
 605              	.LVL109:
 606 0086 1CBC     		pop	{r2, r3, r4}
 607 0088 9146     		mov	r9, r2
 608 008a 9A46     		mov	r10, r3
 609 008c A346     		mov	fp, r4
 610 008e F0BD     		pop	{r4, r5, r6, r7, pc}
 611              		.cfi_endproc
 612              	.LFE41:
 613              		.size	CapSense_DpProcessCsdWidgetRawCounts, .-CapSense_DpProcessCsdWidgetRawCounts
 614              		.section	.text.CapSense_DpProcessCsdSensorRawCountsExt,"ax",%progbits
 615              		.align	2
 616              		.global	CapSense_DpProcessCsdSensorRawCountsExt
 617              		.code	16
 618              		.thumb_func
 619              		.type	CapSense_DpProcessCsdSensorRawCountsExt, %function
 620              	CapSense_DpProcessCsdSensorRawCountsExt:
 621              	.LFB42:
 920:Generated_Source\PSoC6/CapSense_Processing.c ****     uint32 result = CY_RET_SUCCESS;
 622              		.loc 1 920 0
 623              		.cfi_startproc
 624              		@ args = 0, pretend = 0, frame = 8
 625              		@ frame_needed = 0, uses_anonymous_args = 0
 626              	.LVL110:
 627 0000 F0B5     		push	{r4, r5, r6, r7, lr}
 628              		.cfi_def_cfa_offset 20
 629              		.cfi_offset 4, -20
 630              		.cfi_offset 5, -16
ARM GAS  C:\Users\ikomb\AppData\Local\Temp\cc6TxH90.s 			page 34


 631              		.cfi_offset 6, -12
 632              		.cfi_offset 7, -8
 633              		.cfi_offset 14, -4
 634 0002 83B0     		sub	sp, sp, #12
 635              		.cfi_def_cfa_offset 32
 636 0004 0091     		str	r1, [sp]
 637 0006 0192     		str	r2, [sp, #4]
 638 0008 1C00     		movs	r4, r3
 639              	.LVL111:
 932:Generated_Source\PSoC6/CapSense_Processing.c ****     #endif /* (0u != (CapSense_CSD_AUTOTUNE & CapSense_CSD_SS_TH_EN)) */
 640              		.loc 1 932 0
 641 000a 466A     		ldr	r6, [r0, #36]
 642              	.LVL112:
 935:Generated_Source\PSoC6/CapSense_Processing.c ****     ptrRamWdgt = (CapSense_RAM_WD_BASE_STRUCT *)ptrFlashWdgt->ptr2WdgtRam;
 643              		.loc 1 935 0
 644 000c 877E     		ldrb	r7, [r0, #26]
 645              	.LVL113:
 936:Generated_Source\PSoC6/CapSense_Processing.c **** 
 646              		.loc 1 936 0
 647 000e 4568     		ldr	r5, [r0, #4]
 648              	.LVL114:
 939:Generated_Source\PSoC6/CapSense_Processing.c ****         {
 649              		.loc 1 939 0
 650 0010 E307     		lsls	r3, r4, #31
 651 0012 03D5     		bpl	.L34
 652              	.LVL115:
 941:Generated_Source\PSoC6/CapSense_Processing.c ****             #if (CapSense_ALP_FILTER_EN)
 653              		.loc 1 941 0
 654 0014 3A00     		movs	r2, r7
 655              	.LVL116:
 656 0016 0198     		ldr	r0, [sp, #4]
 657              	.LVL117:
 658 0018 FFF7FEFF 		bl	CapSense_FtRunEnabledFiltersInternal
 659              	.LVL118:
 660              	.L34:
 951:Generated_Source\PSoC6/CapSense_Processing.c ****         {
 661              		.loc 1 951 0
 662 001c 2307     		lsls	r3, r4, #28
 663 001e 05D5     		bpl	.L35
 953:Generated_Source\PSoC6/CapSense_Processing.c ****         }
 664              		.loc 1 953 0
 665 0020 298A     		ldrh	r1, [r5, #16]
 666 0022 009B     		ldr	r3, [sp]
 667 0024 1888     		ldrh	r0, [r3]
 668 0026 3200     		movs	r2, r6
 669              	.LVL119:
 670 0028 FFF7FEFF 		bl	SmartSense_RunNoiseEnvelope
 671              	.LVL120:
 672              	.L35:
 956:Generated_Source\PSoC6/CapSense_Processing.c ****         {
 673              		.loc 1 956 0
 674 002c E306     		lsls	r3, r4, #27
 675 002e 04D5     		bpl	.L36
 958:Generated_Source\PSoC6/CapSense_Processing.c **** 
 676              		.loc 1 958 0
 677 0030 0022     		movs	r2, #0
 678              	.LVL121:
ARM GAS  C:\Users\ikomb\AppData\Local\Temp\cc6TxH90.s 			page 35


 679 0032 3100     		movs	r1, r6
 680 0034 2800     		movs	r0, r5
 681 0036 FFF7FEFF 		bl	CapSense_DpUpdateThresholds
 682              	.LVL122:
 683              	.L36:
 976:Generated_Source\PSoC6/CapSense_Processing.c ****     {
 684              		.loc 1 976 0
 685 003a A307     		lsls	r3, r4, #30
 686 003c 06D5     		bpl	.L39
 978:Generated_Source\PSoC6/CapSense_Processing.c ****     }
 687              		.loc 1 978 0
 688 003e 3A00     		movs	r2, r7
 689              	.LVL123:
 690 0040 0099     		ldr	r1, [sp]
 691 0042 2800     		movs	r0, r5
 692 0044 FFF7FEFF 		bl	CapSense_FtUpdateBaseline
 693              	.LVL124:
 694 0048 0700     		movs	r7, r0
 695              	.LVL125:
 696 004a 00E0     		b	.L37
 697              	.LVL126:
 698              	.L39:
 921:Generated_Source\PSoC6/CapSense_Processing.c ****     uint32  widgetType;
 699              		.loc 1 921 0
 700 004c 0027     		movs	r7, #0
 701              	.LVL127:
 702              	.L37:
 981:Generated_Source\PSoC6/CapSense_Processing.c ****     {
 703              		.loc 1 981 0
 704 004e 6307     		lsls	r3, r4, #29
 705 0050 03D5     		bpl	.L38
 983:Generated_Source\PSoC6/CapSense_Processing.c ****     }
 706              		.loc 1 983 0
 707 0052 0099     		ldr	r1, [sp]
 708 0054 2800     		movs	r0, r5
 709 0056 FFF7FEFF 		bl	CapSense_DpUpdateDifferences
 710              	.LVL128:
 711              	.L38:
 986:Generated_Source\PSoC6/CapSense_Processing.c **** 
 712              		.loc 1 986 0
 713 005a 3800     		movs	r0, r7
 714 005c 03B0     		add	sp, sp, #12
 715              	.LVL129:
 716              		@ sp needed
 717              	.LVL130:
 718              	.LVL131:
 719              	.LVL132:
 720              	.LVL133:
 721 005e F0BD     		pop	{r4, r5, r6, r7, pc}
 722              		.cfi_endproc
 723              	.LFE42:
 724              		.size	CapSense_DpProcessCsdSensorRawCountsExt, .-CapSense_DpProcessCsdSensorRawCountsExt
 725              		.section	.text.CapSense_DpProcessButton,"ax",%progbits
 726              		.align	2
 727              		.global	CapSense_DpProcessButton
 728              		.code	16
 729              		.thumb_func
ARM GAS  C:\Users\ikomb\AppData\Local\Temp\cc6TxH90.s 			page 36


 730              		.type	CapSense_DpProcessButton, %function
 731              	CapSense_DpProcessButton:
 732              	.LFB46:
1191:Generated_Source\PSoC6/CapSense_Processing.c **** 
1192:Generated_Source\PSoC6/CapSense_Processing.c **** 
1193:Generated_Source\PSoC6/CapSense_Processing.c **** #if ((0u != CapSense_BUTTON_WIDGET_EN) || (0u != CapSense_CSX_MATRIX_WIDGET_EN))
1194:Generated_Source\PSoC6/CapSense_Processing.c **** /*******************************************************************************
1195:Generated_Source\PSoC6/CapSense_Processing.c **** * Function Name: CapSense_DpProcessButton
1196:Generated_Source\PSoC6/CapSense_Processing.c **** ****************************************************************************//**
1197:Generated_Source\PSoC6/CapSense_Processing.c **** *
1198:Generated_Source\PSoC6/CapSense_Processing.c **** * \brief
1199:Generated_Source\PSoC6/CapSense_Processing.c **** *   Processes the status of the Button widget.
1200:Generated_Source\PSoC6/CapSense_Processing.c **** *
1201:Generated_Source\PSoC6/CapSense_Processing.c **** * \details
1202:Generated_Source\PSoC6/CapSense_Processing.c **** *   This API processes the status of the CSD/CSX Button widget and
1203:Generated_Source\PSoC6/CapSense_Processing.c **** *   CSX Matrix Button widget. It applies the hysteresis and de-bounce algorithm
1204:Generated_Source\PSoC6/CapSense_Processing.c **** *   to each sensor difference value. This API is expected to be called
1205:Generated_Source\PSoC6/CapSense_Processing.c **** *   after each new widget scan. If it is called multiple times for the same
1206:Generated_Source\PSoC6/CapSense_Processing.c **** *   scan data, the de-bounce algorithm will not work properly.
1207:Generated_Source\PSoC6/CapSense_Processing.c **** *
1208:Generated_Source\PSoC6/CapSense_Processing.c **** *   This API does not update any Data Structure registers
1209:Generated_Source\PSoC6/CapSense_Processing.c **** *   except the de-bounce counters.
1210:Generated_Source\PSoC6/CapSense_Processing.c **** *
1211:Generated_Source\PSoC6/CapSense_Processing.c **** * \param currStatus   The current status of the widget sensors.
1212:Generated_Source\PSoC6/CapSense_Processing.c **** * \param ptrFlashWdgt The pointer to the Flash Widget Object.
1213:Generated_Source\PSoC6/CapSense_Processing.c **** *
1214:Generated_Source\PSoC6/CapSense_Processing.c **** * \return Returns the status of the widget's sensors. Bit #0 - corresponds to Sensor #0.
1215:Generated_Source\PSoC6/CapSense_Processing.c **** *
1216:Generated_Source\PSoC6/CapSense_Processing.c **** *******************************************************************************/
1217:Generated_Source\PSoC6/CapSense_Processing.c **** uint32 CapSense_DpProcessButton(uint32 currStatus, CapSense_FLASH_WD_STRUCT const *ptrFlashWdgt)
1218:Generated_Source\PSoC6/CapSense_Processing.c **** {
 733              		.loc 1 1218 0
 734              		.cfi_startproc
 735              		@ args = 0, pretend = 0, frame = 0
 736              		@ frame_needed = 0, uses_anonymous_args = 0
 737              	.LVL134:
 738 0000 F0B5     		push	{r4, r5, r6, r7, lr}
 739              		.cfi_def_cfa_offset 20
 740              		.cfi_offset 4, -20
 741              		.cfi_offset 5, -16
 742              		.cfi_offset 6, -12
 743              		.cfi_offset 7, -8
 744              		.cfi_offset 14, -4
1219:Generated_Source\PSoC6/CapSense_Processing.c ****     uint32 snsCnt;
1220:Generated_Source\PSoC6/CapSense_Processing.c ****     uint32 snsMask;
1221:Generated_Source\PSoC6/CapSense_Processing.c ****     uint32 newStatus;
1222:Generated_Source\PSoC6/CapSense_Processing.c ****     uint32 touchTh;
1223:Generated_Source\PSoC6/CapSense_Processing.c ****     CapSense_RAM_SNS_STRUCT *ptrSnsTmp;
1224:Generated_Source\PSoC6/CapSense_Processing.c ****     CapSense_RAM_WD_BASE_STRUCT *ptrRamWdgt;
1225:Generated_Source\PSoC6/CapSense_Processing.c ****     uint8 * ptrDebounceCnt;
1226:Generated_Source\PSoC6/CapSense_Processing.c **** 
1227:Generated_Source\PSoC6/CapSense_Processing.c ****     snsCnt = ptrFlashWdgt->totalNumSns;
 745              		.loc 1 1227 0
 746 0002 0A8B     		ldrh	r2, [r1, #24]
 747              	.LVL135:
1228:Generated_Source\PSoC6/CapSense_Processing.c ****     ptrSnsTmp = ptrFlashWdgt->ptr2SnsRam;
 748              		.loc 1 1228 0
ARM GAS  C:\Users\ikomb\AppData\Local\Temp\cc6TxH90.s 			page 37


 749 0004 8D68     		ldr	r5, [r1, #8]
 750              	.LVL136:
1229:Generated_Source\PSoC6/CapSense_Processing.c ****     ptrRamWdgt = (CapSense_RAM_WD_BASE_STRUCT *)ptrFlashWdgt->ptr2WdgtRam;
 751              		.loc 1 1229 0
 752 0006 4F68     		ldr	r7, [r1, #4]
 753              	.LVL137:
1230:Generated_Source\PSoC6/CapSense_Processing.c ****     ptrDebounceCnt = ptrFlashWdgt->ptr2DebounceArr;
 754              		.loc 1 1230 0
 755 0008 0B69     		ldr	r3, [r1, #16]
 756              	.LVL138:
1231:Generated_Source\PSoC6/CapSense_Processing.c **** 
1232:Generated_Source\PSoC6/CapSense_Processing.c ****     /* Go through all widget's sensors */
1233:Generated_Source\PSoC6/CapSense_Processing.c ****     snsMask = 1Lu;
 757              		.loc 1 1233 0
 758 000a 0121     		movs	r1, #1
 759              	.LVL139:
1234:Generated_Source\PSoC6/CapSense_Processing.c ****     for (; snsCnt-- > 0u; )
 760              		.loc 1 1234 0
 761 000c 25E0     		b	.L41
 762              	.LVL140:
 763              	.L49:
1235:Generated_Source\PSoC6/CapSense_Processing.c ****     {
1236:Generated_Source\PSoC6/CapSense_Processing.c ****         /* Calculate touch threshold taking into account hysteresis
1237:Generated_Source\PSoC6/CapSense_Processing.c ****            and current sensor state. */
1238:Generated_Source\PSoC6/CapSense_Processing.c ****         touchTh = (0u == (currStatus & snsMask)) ?
 764              		.loc 1 1238 0
 765 000e 0C00     		movs	r4, r1
 766              	.LVL141:
 767 0010 0440     		ands	r4, r0
1239:Generated_Source\PSoC6/CapSense_Processing.c ****                   ((uint32)ptrRamWdgt->fingerTh + ptrRamWdgt->hysteresis) :
 768              		.loc 1 1239 0
 769 0012 03D1     		bne	.L42
 770              		.loc 1 1239 0 is_stmt 0 discriminator 1
 771 0014 7E88     		ldrh	r6, [r7, #2]
 772 0016 BA79     		ldrb	r2, [r7, #6]
 773 0018 B218     		adds	r2, r6, r2
 774 001a 02E0     		b	.L43
 775              	.L42:
1240:Generated_Source\PSoC6/CapSense_Processing.c ****                   ((uint32)ptrRamWdgt->fingerTh - ptrRamWdgt->hysteresis);
 776              		.loc 1 1240 0 is_stmt 1 discriminator 2
 777 001c 7A88     		ldrh	r2, [r7, #2]
 778 001e BE79     		ldrb	r6, [r7, #6]
1239:Generated_Source\PSoC6/CapSense_Processing.c ****                   ((uint32)ptrRamWdgt->fingerTh + ptrRamWdgt->hysteresis) :
 779              		.loc 1 1239 0 discriminator 2
 780 0020 921B     		subs	r2, r2, r6
 781              	.L43:
 782              	.LVL142:
1241:Generated_Source\PSoC6/CapSense_Processing.c **** 
1242:Generated_Source\PSoC6/CapSense_Processing.c ****         /* Determine new potential sensor state */
1243:Generated_Source\PSoC6/CapSense_Processing.c ****         newStatus = (ptrSnsTmp->diff > touchTh) ? snsMask : 0u;
 783              		.loc 1 1243 0
 784 0022 EE88     		ldrh	r6, [r5, #6]
 785 0024 B242     		cmp	r2, r6
 786 0026 01D3     		bcc	.L50
 787 0028 0022     		movs	r2, #0
 788              	.LVL143:
 789 002a 00E0     		b	.L44
ARM GAS  C:\Users\ikomb\AppData\Local\Temp\cc6TxH90.s 			page 38


 790              	.LVL144:
 791              	.L50:
 792 002c 0A00     		movs	r2, r1
 793              	.LVL145:
 794              	.L44:
1244:Generated_Source\PSoC6/CapSense_Processing.c **** 
1245:Generated_Source\PSoC6/CapSense_Processing.c ****         /* Sensor state changed ? */
1246:Generated_Source\PSoC6/CapSense_Processing.c ****         if (newStatus != (currStatus & snsMask))
 795              		.loc 1 1246 0 discriminator 4
 796 002e A242     		cmp	r2, r4
 797 0030 02D0     		beq	.L45
1247:Generated_Source\PSoC6/CapSense_Processing.c ****         {
1248:Generated_Source\PSoC6/CapSense_Processing.c ****             /* Decrement de-bounce counter */
1249:Generated_Source\PSoC6/CapSense_Processing.c ****             (*ptrDebounceCnt)--;
 798              		.loc 1 1249 0
 799 0032 1E78     		ldrb	r6, [r3]
 800 0034 013E     		subs	r6, r6, #1
 801 0036 1E70     		strb	r6, [r3]
 802              	.L45:
1250:Generated_Source\PSoC6/CapSense_Processing.c ****         }
1251:Generated_Source\PSoC6/CapSense_Processing.c **** 
1252:Generated_Source\PSoC6/CapSense_Processing.c ****         /*
1253:Generated_Source\PSoC6/CapSense_Processing.c ****         *  This piece of code has two objectives:
1254:Generated_Source\PSoC6/CapSense_Processing.c ****         *  1. Reset de-bounce counter if the sensor state did not change.
1255:Generated_Source\PSoC6/CapSense_Processing.c ****         *     (It is possible that during previous processing cycles sensor
1256:Generated_Source\PSoC6/CapSense_Processing.c ****         *     was active and de-bounce counter was decremented.)
1257:Generated_Source\PSoC6/CapSense_Processing.c ****         *  2. Set new sensor state after successful de-bounce.
1258:Generated_Source\PSoC6/CapSense_Processing.c ****         */
1259:Generated_Source\PSoC6/CapSense_Processing.c ****         if ((newStatus == (currStatus & snsMask)) || (0u == (*ptrDebounceCnt)))
 803              		.loc 1 1259 0
 804 0038 A242     		cmp	r2, r4
 805 003a 02D0     		beq	.L46
 806              		.loc 1 1259 0 is_stmt 0 discriminator 1
 807 003c 1C78     		ldrb	r4, [r3]
 808 003e 002C     		cmp	r4, #0
 809 0040 07D1     		bne	.L47
 810              	.L46:
1260:Generated_Source\PSoC6/CapSense_Processing.c ****         {
1261:Generated_Source\PSoC6/CapSense_Processing.c ****             /* Set new sensor status */
1262:Generated_Source\PSoC6/CapSense_Processing.c ****             currStatus &= ~snsMask;
 811              		.loc 1 1262 0 is_stmt 1
 812 0042 8843     		bics	r0, r1
 813              	.LVL146:
1263:Generated_Source\PSoC6/CapSense_Processing.c ****             currStatus |= newStatus;
 814              		.loc 1 1263 0
 815 0044 1043     		orrs	r0, r2
 816              	.LVL147:
1264:Generated_Source\PSoC6/CapSense_Processing.c **** 
1265:Generated_Source\PSoC6/CapSense_Processing.c ****             /* Reset de-bounce counter */
1266:Generated_Source\PSoC6/CapSense_Processing.c ****             #if (0u != CapSense_OFF_DEBOUNCE_EN)
1267:Generated_Source\PSoC6/CapSense_Processing.c ****                 *ptrDebounceCnt = (0Lu == newStatus) ? ptrRamWdgt->onDebounce : ptrRamWdgt->offDebo
1268:Generated_Source\PSoC6/CapSense_Processing.c ****             #else
1269:Generated_Source\PSoC6/CapSense_Processing.c ****                 *ptrDebounceCnt = (0Lu == newStatus) ? ptrRamWdgt->onDebounce : DEFAULT_OFF_DEBOUNC
 817              		.loc 1 1269 0
 818 0046 002A     		cmp	r2, #0
 819 0048 01D1     		bne	.L51
 820              		.loc 1 1269 0 is_stmt 0 discriminator 1
ARM GAS  C:\Users\ikomb\AppData\Local\Temp\cc6TxH90.s 			page 39


 821 004a FA79     		ldrb	r2, [r7, #7]
 822              	.LVL148:
 823 004c 00E0     		b	.L48
 824              	.LVL149:
 825              	.L51:
 826              		.loc 1 1269 0
 827 004e 0122     		movs	r2, #1
 828              	.LVL150:
 829              	.L48:
 830              		.loc 1 1269 0 discriminator 4
 831 0050 1A70     		strb	r2, [r3]
 832              	.L47:
1270:Generated_Source\PSoC6/CapSense_Processing.c ****             #endif /* #if (0u != CapSense_OFF_DEBOUNCE_EN) */
1271:Generated_Source\PSoC6/CapSense_Processing.c ****         }
1272:Generated_Source\PSoC6/CapSense_Processing.c **** 
1273:Generated_Source\PSoC6/CapSense_Processing.c ****         /* Move mask to the next sensor */
1274:Generated_Source\PSoC6/CapSense_Processing.c ****         snsMask <<= 1u;
 833              		.loc 1 1274 0 is_stmt 1
 834 0052 4900     		lsls	r1, r1, #1
 835              	.LVL151:
1275:Generated_Source\PSoC6/CapSense_Processing.c **** 
1276:Generated_Source\PSoC6/CapSense_Processing.c ****         ptrSnsTmp++;
 836              		.loc 1 1276 0
 837 0054 0A35     		adds	r5, r5, #10
 838              	.LVL152:
1277:Generated_Source\PSoC6/CapSense_Processing.c ****         ptrDebounceCnt++;
 839              		.loc 1 1277 0
 840 0056 0133     		adds	r3, r3, #1
 841              	.LVL153:
1234:Generated_Source\PSoC6/CapSense_Processing.c ****     {
 842              		.loc 1 1234 0
 843 0058 6246     		mov	r2, ip
 844              	.LVL154:
 845              	.L41:
 846 005a 541E     		subs	r4, r2, #1
 847 005c A446     		mov	ip, r4
 848              	.LVL155:
 849 005e 002A     		cmp	r2, #0
 850 0060 D5D1     		bne	.L49
1278:Generated_Source\PSoC6/CapSense_Processing.c ****     }
1279:Generated_Source\PSoC6/CapSense_Processing.c **** 
1280:Generated_Source\PSoC6/CapSense_Processing.c ****     return currStatus;
1281:Generated_Source\PSoC6/CapSense_Processing.c **** }
 851              		.loc 1 1281 0
 852              		@ sp needed
 853              	.LVL156:
 854              	.LVL157:
 855              	.LVL158:
 856 0062 F0BD     		pop	{r4, r5, r6, r7, pc}
 857              		.cfi_endproc
 858              	.LFE46:
 859              		.size	CapSense_DpProcessButton, .-CapSense_DpProcessButton
 860              		.section	.text.CapSense_DpProcessCsxWidgetStatus,"ax",%progbits
 861              		.align	2
 862              		.global	CapSense_DpProcessCsxWidgetStatus
 863              		.code	16
 864              		.thumb_func
ARM GAS  C:\Users\ikomb\AppData\Local\Temp\cc6TxH90.s 			page 40


 865              		.type	CapSense_DpProcessCsxWidgetStatus, %function
 866              	CapSense_DpProcessCsxWidgetStatus:
 867              	.LFB40:
 706:Generated_Source\PSoC6/CapSense_Processing.c ****     uint32 sensorStatus;
 868              		.loc 1 706 0
 869              		.cfi_startproc
 870              		@ args = 0, pretend = 0, frame = 0
 871              		@ frame_needed = 0, uses_anonymous_args = 0
 872              	.LVL159:
 873 0000 70B5     		push	{r4, r5, r6, lr}
 874              		.cfi_def_cfa_offset 16
 875              		.cfi_offset 4, -16
 876              		.cfi_offset 5, -12
 877              		.cfi_offset 6, -8
 878              		.cfi_offset 14, -4
 879 0002 0400     		movs	r4, r0
 712:Generated_Source\PSoC6/CapSense_Processing.c ****     sensorStatus = CapSense_dsRam.snsStatus[widgetId];
 880              		.loc 1 712 0
 881 0004 8A7E     		ldrb	r2, [r1, #26]
 882              	.LVL160:
 713:Generated_Source\PSoC6/CapSense_Processing.c **** 
 883              		.loc 1 713 0
 884 0006 144B     		ldr	r3, .L59
 885 0008 1B18     		adds	r3, r3, r0
 886 000a 1D7E     		ldrb	r5, [r3, #24]
 887              	.LVL161:
 715:Generated_Source\PSoC6/CapSense_Processing.c ****     {
 888              		.loc 1 715 0
 889 000c 012A     		cmp	r2, #1
 890 000e 04D1     		bne	.L58
 719:Generated_Source\PSoC6/CapSense_Processing.c ****             break;
 891              		.loc 1 719 0
 892 0010 2800     		movs	r0, r5
 893              	.LVL162:
 894 0012 FFF7FEFF 		bl	CapSense_DpProcessButton
 895              	.LVL163:
 896 0016 0500     		movs	r5, r0
 897              	.LVL164:
 720:Generated_Source\PSoC6/CapSense_Processing.c ****     #endif /* #if (0u != CapSense_BUTTON_WIDGET_EN) */
 898              		.loc 1 720 0
 899 0018 04E0     		b	.L55
 900              	.LVL165:
 901              	.L58:
 736:Generated_Source\PSoC6/CapSense_Processing.c ****         break;
 902              		.loc 1 736 0 discriminator 1
 903 001a B821     		movs	r1, #184
 904              	.LVL166:
 905 001c 8900     		lsls	r1, r1, #2
 906 001e 0F48     		ldr	r0, .L59+4
 907              	.LVL167:
 908 0020 FFF7FEFF 		bl	Cy_SysLib_AssertFailed
 909              	.LVL168:
 910              	.L55:
 741:Generated_Source\PSoC6/CapSense_Processing.c **** 
 911              		.loc 1 741 0
 912 0024 0C4B     		ldr	r3, .L59
 913 0026 1B19     		adds	r3, r3, r4
ARM GAS  C:\Users\ikomb\AppData\Local\Temp\cc6TxH90.s 			page 41


 914 0028 1D76     		strb	r5, [r3, #24]
 744:Generated_Source\PSoC6/CapSense_Processing.c ****     wdStatusMask = CapSense_GET_WDGT_STATUS_MASK(widgetId);
 915              		.loc 1 744 0
 916 002a 6309     		lsrs	r3, r4, #5
 917              	.LVL169:
 745:Generated_Source\PSoC6/CapSense_Processing.c **** 
 918              		.loc 1 745 0
 919 002c 1F22     		movs	r2, #31
 920 002e 1440     		ands	r4, r2
 921              	.LVL170:
 922 0030 1E3A     		subs	r2, r2, #30
 923 0032 A240     		lsls	r2, r2, r4
 924              	.LVL171:
 748:Generated_Source\PSoC6/CapSense_Processing.c ****     {
 925              		.loc 1 748 0
 926 0034 002D     		cmp	r5, #0
 927 0036 07D1     		bne	.L56
 750:Generated_Source\PSoC6/CapSense_Processing.c ****     }
 928              		.loc 1 750 0
 929 0038 0433     		adds	r3, r3, #4
 930              	.LVL172:
 931 003a 9B00     		lsls	r3, r3, #2
 932              	.LVL173:
 933 003c 0649     		ldr	r1, .L59
 934 003e CB18     		adds	r3, r1, r3
 935 0040 5968     		ldr	r1, [r3, #4]
 936 0042 9143     		bics	r1, r2
 937 0044 5960     		str	r1, [r3, #4]
 938 0046 06E0     		b	.L52
 939              	.LVL174:
 940              	.L56:
 754:Generated_Source\PSoC6/CapSense_Processing.c ****     }
 941              		.loc 1 754 0
 942 0048 0433     		adds	r3, r3, #4
 943              	.LVL175:
 944 004a 9B00     		lsls	r3, r3, #2
 945              	.LVL176:
 946 004c 0249     		ldr	r1, .L59
 947 004e CB18     		adds	r3, r1, r3
 948 0050 5968     		ldr	r1, [r3, #4]
 949 0052 0A43     		orrs	r2, r1
 950              	.LVL177:
 951 0054 5A60     		str	r2, [r3, #4]
 952              	.L52:
 756:Generated_Source\PSoC6/CapSense_Processing.c **** #endif /* #if CapSense_TOTAL_CSX_WIDGETS */
 953              		.loc 1 756 0
 954              		@ sp needed
 955              	.LVL178:
 956              	.LVL179:
 957 0056 70BD     		pop	{r4, r5, r6, pc}
 958              	.L60:
 959              		.align	2
 960              	.L59:
 961 0058 00000000 		.word	CapSense_dsRam
 962 005c 00000000 		.word	.LC3
 963              		.cfi_endproc
 964              	.LFE40:
ARM GAS  C:\Users\ikomb\AppData\Local\Temp\cc6TxH90.s 			page 42


 965              		.size	CapSense_DpProcessCsxWidgetStatus, .-CapSense_DpProcessCsxWidgetStatus
 966              		.section	.text.CapSense_DpProcessSlider,"ax",%progbits
 967              		.align	2
 968              		.global	CapSense_DpProcessSlider
 969              		.code	16
 970              		.thumb_func
 971              		.type	CapSense_DpProcessSlider, %function
 972              	CapSense_DpProcessSlider:
 973              	.LFB47:
1282:Generated_Source\PSoC6/CapSense_Processing.c **** #endif /* #if ((0u != CapSense_BUTTON_WIDGET_EN) || (0u != CapSense_CSX_MATRIX_WIDGET_EN)) */
1283:Generated_Source\PSoC6/CapSense_Processing.c **** 
1284:Generated_Source\PSoC6/CapSense_Processing.c **** 
1285:Generated_Source\PSoC6/CapSense_Processing.c **** #if (0u != CapSense_PROXIMITY_WIDGET_EN)
1286:Generated_Source\PSoC6/CapSense_Processing.c **** /*******************************************************************************
1287:Generated_Source\PSoC6/CapSense_Processing.c **** * Function Name: CapSense_DpProcessProximity
1288:Generated_Source\PSoC6/CapSense_Processing.c **** ****************************************************************************//**
1289:Generated_Source\PSoC6/CapSense_Processing.c **** *
1290:Generated_Source\PSoC6/CapSense_Processing.c **** * \brief
1291:Generated_Source\PSoC6/CapSense_Processing.c **** *   Processes the status of the Proximity widget.
1292:Generated_Source\PSoC6/CapSense_Processing.c **** *
1293:Generated_Source\PSoC6/CapSense_Processing.c **** * \details
1294:Generated_Source\PSoC6/CapSense_Processing.c **** *   This API processes the status of the CSD Proximity widget. It applies the
1295:Generated_Source\PSoC6/CapSense_Processing.c **** *   hysteresis and debounce algorithm to each sensor difference value.
1296:Generated_Source\PSoC6/CapSense_Processing.c **** *   The proximity and touch events are considered independently so debounce and
1297:Generated_Source\PSoC6/CapSense_Processing.c **** *   hysteresis are also applied independently.
1298:Generated_Source\PSoC6/CapSense_Processing.c **** *
1299:Generated_Source\PSoC6/CapSense_Processing.c **** *   This API is expected to be called after each new widget scan. If it is
1300:Generated_Source\PSoC6/CapSense_Processing.c **** *   called multiple times for the same scan data the debounce algorithm
1301:Generated_Source\PSoC6/CapSense_Processing.c **** *   will not work properly.
1302:Generated_Source\PSoC6/CapSense_Processing.c **** *
1303:Generated_Source\PSoC6/CapSense_Processing.c **** *   This API does not update any Data Structure registers
1304:Generated_Source\PSoC6/CapSense_Processing.c **** *   except the debounce counters.
1305:Generated_Source\PSoC6/CapSense_Processing.c **** *
1306:Generated_Source\PSoC6/CapSense_Processing.c **** * \param currStatus   The value with the current widget status.
1307:Generated_Source\PSoC6/CapSense_Processing.c **** * \param ptrFlashWdgt The pointer to the Flash Widget Object.
1308:Generated_Source\PSoC6/CapSense_Processing.c **** *
1309:Generated_Source\PSoC6/CapSense_Processing.c **** * \return
1310:Generated_Source\PSoC6/CapSense_Processing.c **** *  Returns the status of the proximity sensors. Each sensor is represented by two bits
1311:Generated_Source\PSoC6/CapSense_Processing.c **** *  that can take the following values:
1312:Generated_Source\PSoC6/CapSense_Processing.c **** *   - 00b not active
1313:Generated_Source\PSoC6/CapSense_Processing.c **** *   - 01b proximity is detected (signal is above finger threshold)
1314:Generated_Source\PSoC6/CapSense_Processing.c **** *   - 11b finger touch is detected (signal is above the touch threshold)
1315:Generated_Source\PSoC6/CapSense_Processing.c **** *
1316:Generated_Source\PSoC6/CapSense_Processing.c **** *******************************************************************************/
1317:Generated_Source\PSoC6/CapSense_Processing.c **** uint32 CapSense_DpProcessProximity(uint32 currStatus, CapSense_FLASH_WD_STRUCT const *ptrFlashWdgt)
1318:Generated_Source\PSoC6/CapSense_Processing.c **** {
1319:Generated_Source\PSoC6/CapSense_Processing.c ****     uint32 currTh;
1320:Generated_Source\PSoC6/CapSense_Processing.c ****     uint32 snsCnt;
1321:Generated_Source\PSoC6/CapSense_Processing.c ****     uint32 snsMask;
1322:Generated_Source\PSoC6/CapSense_Processing.c ****     uint32 newStatus;
1323:Generated_Source\PSoC6/CapSense_Processing.c ****     uint32 difference;
1324:Generated_Source\PSoC6/CapSense_Processing.c **** 
1325:Generated_Source\PSoC6/CapSense_Processing.c ****     uint8 *ptrDebounceCnt;
1326:Generated_Source\PSoC6/CapSense_Processing.c ****     CapSense_RAM_SNS_STRUCT *ptrSnsTmp;
1327:Generated_Source\PSoC6/CapSense_Processing.c ****     CapSense_RAM_WD_PROXIMITY_STRUCT *ptrRamWdgt;
1328:Generated_Source\PSoC6/CapSense_Processing.c **** 
1329:Generated_Source\PSoC6/CapSense_Processing.c ****     /* Mask for proximity status bits. (All odd bits.) */
ARM GAS  C:\Users\ikomb\AppData\Local\Temp\cc6TxH90.s 			page 43


1330:Generated_Source\PSoC6/CapSense_Processing.c ****     const uint32 proxMask = UINT32_ODD_BITS_CONST;
1331:Generated_Source\PSoC6/CapSense_Processing.c **** 
1332:Generated_Source\PSoC6/CapSense_Processing.c ****     ptrSnsTmp = ptrFlashWdgt->ptr2SnsRam;
1333:Generated_Source\PSoC6/CapSense_Processing.c ****     ptrRamWdgt = (CapSense_RAM_WD_PROXIMITY_STRUCT *)ptrFlashWdgt->ptr2WdgtRam;
1334:Generated_Source\PSoC6/CapSense_Processing.c ****     ptrDebounceCnt = ptrFlashWdgt->ptr2DebounceArr;
1335:Generated_Source\PSoC6/CapSense_Processing.c **** 
1336:Generated_Source\PSoC6/CapSense_Processing.c ****     /* Get number of sensors and multiply it by 2 - proximity and touch statuses per sensor. */
1337:Generated_Source\PSoC6/CapSense_Processing.c ****     snsCnt = (uint32)ptrFlashWdgt->totalNumSns << 1u;
1338:Generated_Source\PSoC6/CapSense_Processing.c **** 
1339:Generated_Source\PSoC6/CapSense_Processing.c ****     /* Go through all sensor's status bits */
1340:Generated_Source\PSoC6/CapSense_Processing.c ****     snsMask = 1Lu;
1341:Generated_Source\PSoC6/CapSense_Processing.c ****     for (; snsCnt-- > 0u;)
1342:Generated_Source\PSoC6/CapSense_Processing.c ****     {
1343:Generated_Source\PSoC6/CapSense_Processing.c ****         difference = ptrSnsTmp->diff;
1344:Generated_Source\PSoC6/CapSense_Processing.c **** 
1345:Generated_Source\PSoC6/CapSense_Processing.c ****         /* Determine current event (proximity - odd; touch - even) and get appropriate threshold. *
1346:Generated_Source\PSoC6/CapSense_Processing.c ****         currTh = ptrRamWdgt->fingerTh;
1347:Generated_Source\PSoC6/CapSense_Processing.c **** 
1348:Generated_Source\PSoC6/CapSense_Processing.c ****         if (0u == (snsMask & proxMask))
1349:Generated_Source\PSoC6/CapSense_Processing.c ****         {
1350:Generated_Source\PSoC6/CapSense_Processing.c ****             currTh = ptrRamWdgt->proxTouchTh;
1351:Generated_Source\PSoC6/CapSense_Processing.c ****             ptrSnsTmp++;
1352:Generated_Source\PSoC6/CapSense_Processing.c ****         }
1353:Generated_Source\PSoC6/CapSense_Processing.c **** 
1354:Generated_Source\PSoC6/CapSense_Processing.c ****         /* Calculate finger threshold applying hysteresis based on current sensor state. */
1355:Generated_Source\PSoC6/CapSense_Processing.c ****         currTh = (0u == (currStatus & snsMask)) ? (currTh + ptrRamWdgt->hysteresis) : (currTh - ptr
1356:Generated_Source\PSoC6/CapSense_Processing.c **** 
1357:Generated_Source\PSoC6/CapSense_Processing.c ****         /* Determine new potential sensor state before de-bounce */
1358:Generated_Source\PSoC6/CapSense_Processing.c ****         newStatus = (difference > currTh) ? snsMask : 0Lu;
1359:Generated_Source\PSoC6/CapSense_Processing.c **** 
1360:Generated_Source\PSoC6/CapSense_Processing.c ****         /* Sensor state changed ? */
1361:Generated_Source\PSoC6/CapSense_Processing.c ****         if (newStatus != (currStatus & snsMask))
1362:Generated_Source\PSoC6/CapSense_Processing.c ****         {
1363:Generated_Source\PSoC6/CapSense_Processing.c ****             /* Decrement de-bounce counter */
1364:Generated_Source\PSoC6/CapSense_Processing.c ****             (*ptrDebounceCnt)--;
1365:Generated_Source\PSoC6/CapSense_Processing.c ****         }
1366:Generated_Source\PSoC6/CapSense_Processing.c **** 
1367:Generated_Source\PSoC6/CapSense_Processing.c ****         /*
1368:Generated_Source\PSoC6/CapSense_Processing.c ****         *  This piece of code has two objectives:
1369:Generated_Source\PSoC6/CapSense_Processing.c ****         *  1. Reset de-bounce counter if new sensor state has not changed.
1370:Generated_Source\PSoC6/CapSense_Processing.c ****         *     (It is possible that during previous processing cycles the sensor
1371:Generated_Source\PSoC6/CapSense_Processing.c ****         *     state was different which caused de-bounce counter change.)
1372:Generated_Source\PSoC6/CapSense_Processing.c ****         *  2. Set new sensor state after successful de-bounce.
1373:Generated_Source\PSoC6/CapSense_Processing.c ****         */
1374:Generated_Source\PSoC6/CapSense_Processing.c ****         if ((newStatus == (currStatus & snsMask)) || (0u == (*ptrDebounceCnt)))
1375:Generated_Source\PSoC6/CapSense_Processing.c ****         {
1376:Generated_Source\PSoC6/CapSense_Processing.c ****             /* Set new sensor status */
1377:Generated_Source\PSoC6/CapSense_Processing.c ****             currStatus &= ~snsMask;
1378:Generated_Source\PSoC6/CapSense_Processing.c ****             currStatus |= newStatus;
1379:Generated_Source\PSoC6/CapSense_Processing.c **** 
1380:Generated_Source\PSoC6/CapSense_Processing.c ****             /* Reset de-bounce counter */
1381:Generated_Source\PSoC6/CapSense_Processing.c ****             #if (0u != CapSense_OFF_DEBOUNCE_EN)
1382:Generated_Source\PSoC6/CapSense_Processing.c ****                 *ptrDebounceCnt = (0Lu == newStatus) ? ptrRamWdgt->onDebounce : ptrRamWdgt->offDebo
1383:Generated_Source\PSoC6/CapSense_Processing.c ****             #else
1384:Generated_Source\PSoC6/CapSense_Processing.c ****                 *ptrDebounceCnt = (0Lu == newStatus) ? ptrRamWdgt->onDebounce : DEFAULT_OFF_DEBOUNC
1385:Generated_Source\PSoC6/CapSense_Processing.c ****             #endif /* #if (0u != CapSense_OFF_DEBOUNCE_EN) */
1386:Generated_Source\PSoC6/CapSense_Processing.c ****         }
ARM GAS  C:\Users\ikomb\AppData\Local\Temp\cc6TxH90.s 			page 44


1387:Generated_Source\PSoC6/CapSense_Processing.c **** 
1388:Generated_Source\PSoC6/CapSense_Processing.c ****         ptrDebounceCnt++;
1389:Generated_Source\PSoC6/CapSense_Processing.c **** 
1390:Generated_Source\PSoC6/CapSense_Processing.c ****         /* Move sensor mask to the next sensor */
1391:Generated_Source\PSoC6/CapSense_Processing.c ****         snsMask <<= 1u;
1392:Generated_Source\PSoC6/CapSense_Processing.c ****     }
1393:Generated_Source\PSoC6/CapSense_Processing.c **** 
1394:Generated_Source\PSoC6/CapSense_Processing.c ****     return currStatus;
1395:Generated_Source\PSoC6/CapSense_Processing.c **** }
1396:Generated_Source\PSoC6/CapSense_Processing.c **** #endif /* #if (0u != CapSense_PROXIMITY_WIDGET_EN) */
1397:Generated_Source\PSoC6/CapSense_Processing.c **** 
1398:Generated_Source\PSoC6/CapSense_Processing.c **** 
1399:Generated_Source\PSoC6/CapSense_Processing.c **** #if (0u != CapSense_SLIDER_WIDGET_EN)
1400:Generated_Source\PSoC6/CapSense_Processing.c **** /*******************************************************************************
1401:Generated_Source\PSoC6/CapSense_Processing.c **** * Function Name: CapSense_DpProcessSlider
1402:Generated_Source\PSoC6/CapSense_Processing.c **** ****************************************************************************//**
1403:Generated_Source\PSoC6/CapSense_Processing.c **** *
1404:Generated_Source\PSoC6/CapSense_Processing.c **** * \brief
1405:Generated_Source\PSoC6/CapSense_Processing.c **** *   Processes the status of the Linear/Radial Slider widget.
1406:Generated_Source\PSoC6/CapSense_Processing.c **** *   The process involves running the Linear/Radial Centroid algorithm.
1407:Generated_Source\PSoC6/CapSense_Processing.c **** *
1408:Generated_Source\PSoC6/CapSense_Processing.c **** * \details
1409:Generated_Source\PSoC6/CapSense_Processing.c **** *   This API processes the status of the CSD Slider widget (Linear and Radial).
1410:Generated_Source\PSoC6/CapSense_Processing.c **** *   It applies the hysteresis and de-bounce algorithm to the widget ignoring
1411:Generated_Source\PSoC6/CapSense_Processing.c **** *   the individual states of the sensors.
1412:Generated_Source\PSoC6/CapSense_Processing.c **** *
1413:Generated_Source\PSoC6/CapSense_Processing.c **** *   This API is expected to be called after each new widget scan. If it is
1414:Generated_Source\PSoC6/CapSense_Processing.c **** *   called multiple times for the same scan data, the debounce algorithm
1415:Generated_Source\PSoC6/CapSense_Processing.c **** *   will not work properly.
1416:Generated_Source\PSoC6/CapSense_Processing.c **** *
1417:Generated_Source\PSoC6/CapSense_Processing.c **** *   Slider widgets do not support the ON to OFF debounce.
1418:Generated_Source\PSoC6/CapSense_Processing.c **** *
1419:Generated_Source\PSoC6/CapSense_Processing.c **** *   This API does not update any Data Structure registers
1420:Generated_Source\PSoC6/CapSense_Processing.c **** *   except the debounce counters.
1421:Generated_Source\PSoC6/CapSense_Processing.c **** *
1422:Generated_Source\PSoC6/CapSense_Processing.c **** * \param currStatus   The current sensor status of the Slider widget.
1423:Generated_Source\PSoC6/CapSense_Processing.c **** * \param ptrFlashWdgt The pointer to the Flash Widget Object.
1424:Generated_Source\PSoC6/CapSense_Processing.c **** *
1425:Generated_Source\PSoC6/CapSense_Processing.c **** * \return Returns the status of the widget's sensors. Bit #0 - corresponds to Sensor #0.
1426:Generated_Source\PSoC6/CapSense_Processing.c **** *
1427:Generated_Source\PSoC6/CapSense_Processing.c **** *******************************************************************************/
1428:Generated_Source\PSoC6/CapSense_Processing.c **** uint32 CapSense_DpProcessSlider(uint32 currStatus, CapSense_FLASH_WD_STRUCT const *ptrFlashWdgt)
1429:Generated_Source\PSoC6/CapSense_Processing.c **** {
 974              		.loc 1 1429 0
 975              		.cfi_startproc
 976              		@ args = 0, pretend = 0, frame = 8
 977              		@ frame_needed = 0, uses_anonymous_args = 0
 978              	.LVL180:
 979 0000 F0B5     		push	{r4, r5, r6, r7, lr}
 980              		.cfi_def_cfa_offset 20
 981              		.cfi_offset 4, -20
 982              		.cfi_offset 5, -16
 983              		.cfi_offset 6, -12
 984              		.cfi_offset 7, -8
 985              		.cfi_offset 14, -4
 986 0002 5F46     		mov	r7, fp
 987 0004 5646     		mov	r6, r10
ARM GAS  C:\Users\ikomb\AppData\Local\Temp\cc6TxH90.s 			page 45


 988 0006 4D46     		mov	r5, r9
 989 0008 4446     		mov	r4, r8
 990 000a F0B4     		push	{r4, r5, r6, r7}
 991              		.cfi_def_cfa_offset 36
 992              		.cfi_offset 8, -36
 993              		.cfi_offset 9, -32
 994              		.cfi_offset 10, -28
 995              		.cfi_offset 11, -24
 996 000c 83B0     		sub	sp, sp, #12
 997              		.cfi_def_cfa_offset 48
 998 000e 8446     		mov	ip, r0
 999 0010 8846     		mov	r8, r1
 1000              	.LVL181:
1430:Generated_Source\PSoC6/CapSense_Processing.c ****     uint32 snsCnt;
1431:Generated_Source\PSoC6/CapSense_Processing.c ****     uint32 snsMask;
1432:Generated_Source\PSoC6/CapSense_Processing.c ****     uint32 touchTh;
1433:Generated_Source\PSoC6/CapSense_Processing.c ****     uint32 newStatus = 0Lu;
1434:Generated_Source\PSoC6/CapSense_Processing.c ****     uint8 * ptrDebounceCnt;
1435:Generated_Source\PSoC6/CapSense_Processing.c ****     CapSense_RAM_SNS_STRUCT *ptrSnsTmp;
1436:Generated_Source\PSoC6/CapSense_Processing.c ****     CapSense_RAM_WD_SLIDER_STRUCT *ptrRamWdgt;
1437:Generated_Source\PSoC6/CapSense_Processing.c **** 
1438:Generated_Source\PSoC6/CapSense_Processing.c ****     #if (0u != CapSense_POSITION_FILTER_EN)
1439:Generated_Source\PSoC6/CapSense_Processing.c ****         CapSense_SLIDER_POS_HISTORY_STRUCT *ptrHistory;
1440:Generated_Source\PSoC6/CapSense_Processing.c ****     #endif /* #if (0u != CapSense_POSITION_FILTER_EN) */
1441:Generated_Source\PSoC6/CapSense_Processing.c **** 
1442:Generated_Source\PSoC6/CapSense_Processing.c ****     uint32 touchIdx;
1443:Generated_Source\PSoC6/CapSense_Processing.c ****     uint32 touchCnt = 0Lu;
1444:Generated_Source\PSoC6/CapSense_Processing.c ****     uint16 newPos[CapSense_NUM_CENTROIDS];
1445:Generated_Source\PSoC6/CapSense_Processing.c **** 
1446:Generated_Source\PSoC6/CapSense_Processing.c ****     snsCnt = ptrFlashWdgt->totalNumSns;
 1001              		.loc 1 1446 0
 1002 0012 0B8B     		ldrh	r3, [r1, #24]
 1003              	.LVL182:
1447:Generated_Source\PSoC6/CapSense_Processing.c ****     ptrSnsTmp = ptrFlashWdgt->ptr2SnsRam;
 1004              		.loc 1 1447 0
 1005 0014 8A68     		ldr	r2, [r1, #8]
 1006              	.LVL183:
1448:Generated_Source\PSoC6/CapSense_Processing.c ****     ptrRamWdgt = (CapSense_RAM_WD_SLIDER_STRUCT *)ptrFlashWdgt->ptr2WdgtRam;
 1007              		.loc 1 1448 0
 1008 0016 4F68     		ldr	r7, [r1, #4]
 1009              	.LVL184:
1449:Generated_Source\PSoC6/CapSense_Processing.c ****     ptrDebounceCnt = ptrFlashWdgt->ptr2DebounceArr;
 1010              		.loc 1 1449 0
 1011 0018 0969     		ldr	r1, [r1, #16]
 1012              	.LVL185:
 1013 001a 8946     		mov	r9, r1
 1014              	.LVL186:
1450:Generated_Source\PSoC6/CapSense_Processing.c **** 
1451:Generated_Source\PSoC6/CapSense_Processing.c ****     #if (0u != CapSense_POSITION_FILTER_EN)
1452:Generated_Source\PSoC6/CapSense_Processing.c ****         ptrHistory = ptrFlashWdgt->ptr2PosHistory;
 1015              		.loc 1 1452 0
 1016 001c 4146     		mov	r1, r8
 1017              	.LVL187:
 1018 001e 8E6A     		ldr	r6, [r1, #40]
 1019              	.LVL188:
1453:Generated_Source\PSoC6/CapSense_Processing.c ****     #endif /* #if (0u != CapSense_POSITION_FILTER_EN) */
1454:Generated_Source\PSoC6/CapSense_Processing.c **** 
ARM GAS  C:\Users\ikomb\AppData\Local\Temp\cc6TxH90.s 			page 46


1455:Generated_Source\PSoC6/CapSense_Processing.c ****     /* Calculate touch threshold based on current slider state */
1456:Generated_Source\PSoC6/CapSense_Processing.c ****     touchTh = (0Lu == currStatus ) ?
1457:Generated_Source\PSoC6/CapSense_Processing.c ****               ((uint32)ptrRamWdgt->fingerTh + ptrRamWdgt->hysteresis) :
 1020              		.loc 1 1457 0
 1021 0020 0028     		cmp	r0, #0
 1022 0022 03D1     		bne	.L62
 1023              		.loc 1 1457 0 is_stmt 0 discriminator 1
 1024 0024 7888     		ldrh	r0, [r7, #2]
 1025              	.LVL189:
 1026 0026 B979     		ldrb	r1, [r7, #6]
 1027 0028 4018     		adds	r0, r0, r1
 1028 002a 02E0     		b	.L63
 1029              	.LVL190:
 1030              	.L62:
1458:Generated_Source\PSoC6/CapSense_Processing.c ****               ((uint32)ptrRamWdgt->fingerTh - ptrRamWdgt->hysteresis);
 1031              		.loc 1 1458 0 is_stmt 1 discriminator 2
 1032 002c 7988     		ldrh	r1, [r7, #2]
 1033              	.LVL191:
 1034 002e B879     		ldrb	r0, [r7, #6]
 1035              	.LVL192:
1457:Generated_Source\PSoC6/CapSense_Processing.c ****               ((uint32)ptrRamWdgt->fingerTh - ptrRamWdgt->hysteresis);
 1036              		.loc 1 1457 0 discriminator 2
 1037 0030 081A     		subs	r0, r1, r0
 1038              	.L63:
 1039              	.LVL193:
1433:Generated_Source\PSoC6/CapSense_Processing.c ****     uint8 * ptrDebounceCnt;
 1040              		.loc 1 1433 0
 1041 0032 0025     		movs	r5, #0
1459:Generated_Source\PSoC6/CapSense_Processing.c **** 
1460:Generated_Source\PSoC6/CapSense_Processing.c ****     /* Go through all widget's sensors */
1461:Generated_Source\PSoC6/CapSense_Processing.c ****     snsMask = 1Lu;
 1042              		.loc 1 1461 0
 1043 0034 0121     		movs	r1, #1
1462:Generated_Source\PSoC6/CapSense_Processing.c ****     for (; snsCnt-- > 0Lu; )
 1044              		.loc 1 1462 0
 1045 0036 09E0     		b	.L64
 1046              	.LVL194:
 1047              	.L66:
1463:Generated_Source\PSoC6/CapSense_Processing.c ****     {
1464:Generated_Source\PSoC6/CapSense_Processing.c ****         /* Determine new potential sensor state */
1465:Generated_Source\PSoC6/CapSense_Processing.c ****         newStatus |= (ptrSnsTmp->diff > touchTh) ? snsMask : 0Lu;
 1048              		.loc 1 1465 0
 1049 0038 D388     		ldrh	r3, [r2, #6]
 1050 003a 9842     		cmp	r0, r3
 1051 003c 01D3     		bcc	.L79
 1052 003e 0023     		movs	r3, #0
 1053 0040 00E0     		b	.L65
 1054              	.L79:
 1055 0042 0B00     		movs	r3, r1
 1056              	.L65:
 1057              		.loc 1 1465 0 is_stmt 0 discriminator 4
 1058 0044 1D43     		orrs	r5, r3
 1059              	.LVL195:
1466:Generated_Source\PSoC6/CapSense_Processing.c ****         ptrSnsTmp++;
 1060              		.loc 1 1466 0 is_stmt 1 discriminator 4
 1061 0046 0A32     		adds	r2, r2, #10
 1062              	.LVL196:
ARM GAS  C:\Users\ikomb\AppData\Local\Temp\cc6TxH90.s 			page 47


1467:Generated_Source\PSoC6/CapSense_Processing.c **** 
1468:Generated_Source\PSoC6/CapSense_Processing.c ****         snsMask <<= 1u;
 1063              		.loc 1 1468 0 discriminator 4
 1064 0048 4900     		lsls	r1, r1, #1
 1065              	.LVL197:
1462:Generated_Source\PSoC6/CapSense_Processing.c ****     {
 1066              		.loc 1 1462 0 discriminator 4
 1067 004a 2300     		movs	r3, r4
 1068              	.LVL198:
 1069              	.L64:
1462:Generated_Source\PSoC6/CapSense_Processing.c ****     {
 1070              		.loc 1 1462 0 is_stmt 0
 1071 004c 5C1E     		subs	r4, r3, #1
 1072              	.LVL199:
 1073 004e 002B     		cmp	r3, #0
 1074 0050 F2D1     		bne	.L66
1469:Generated_Source\PSoC6/CapSense_Processing.c ****     }
1470:Generated_Source\PSoC6/CapSense_Processing.c **** 
1471:Generated_Source\PSoC6/CapSense_Processing.c ****     /* If widget is active, check whether debounce is needed */
1472:Generated_Source\PSoC6/CapSense_Processing.c ****     if (0Lu != newStatus)
 1075              		.loc 1 1472 0 is_stmt 1
 1076 0052 002D     		cmp	r5, #0
 1077 0054 0CD0     		beq	.L67
1473:Generated_Source\PSoC6/CapSense_Processing.c ****     {
1474:Generated_Source\PSoC6/CapSense_Processing.c ****         if (0u < (*ptrDebounceCnt))
 1078              		.loc 1 1474 0
 1079 0056 4B46     		mov	r3, r9
 1080 0058 1B78     		ldrb	r3, [r3]
 1081 005a 002B     		cmp	r3, #0
 1082 005c 02D0     		beq	.L68
1475:Generated_Source\PSoC6/CapSense_Processing.c ****         {
1476:Generated_Source\PSoC6/CapSense_Processing.c ****             /* Decrement debounce counter */
1477:Generated_Source\PSoC6/CapSense_Processing.c ****             (*ptrDebounceCnt)--;
 1083              		.loc 1 1477 0
 1084 005e 013B     		subs	r3, r3, #1
 1085 0060 4A46     		mov	r2, r9
 1086              	.LVL200:
 1087 0062 1370     		strb	r3, [r2]
 1088              	.L68:
1478:Generated_Source\PSoC6/CapSense_Processing.c ****         }
1479:Generated_Source\PSoC6/CapSense_Processing.c **** 
1480:Generated_Source\PSoC6/CapSense_Processing.c ****         if (0u == (*ptrDebounceCnt))
 1089              		.loc 1 1480 0
 1090 0064 4B46     		mov	r3, r9
 1091 0066 1B78     		ldrb	r3, [r3]
 1092 0068 002B     		cmp	r3, #0
 1093 006a 04D0     		beq	.L69
 1094 006c 6546     		mov	r5, ip
 1095              	.LVL201:
 1096 006e 02E0     		b	.L69
 1097              	.LVL202:
 1098              	.L67:
1481:Generated_Source\PSoC6/CapSense_Processing.c ****         {
1482:Generated_Source\PSoC6/CapSense_Processing.c ****             /* Update slider sensor state when debounce completes */
1483:Generated_Source\PSoC6/CapSense_Processing.c ****             currStatus = newStatus;
1484:Generated_Source\PSoC6/CapSense_Processing.c ****         }
1485:Generated_Source\PSoC6/CapSense_Processing.c ****     }
ARM GAS  C:\Users\ikomb\AppData\Local\Temp\cc6TxH90.s 			page 48


1486:Generated_Source\PSoC6/CapSense_Processing.c ****     else
1487:Generated_Source\PSoC6/CapSense_Processing.c ****     {
1488:Generated_Source\PSoC6/CapSense_Processing.c ****         /* Reset debounce counter */
1489:Generated_Source\PSoC6/CapSense_Processing.c ****         *ptrDebounceCnt = ptrRamWdgt->onDebounce;
 1099              		.loc 1 1489 0
 1100 0070 FB79     		ldrb	r3, [r7, #7]
 1101 0072 4A46     		mov	r2, r9
 1102              	.LVL203:
 1103 0074 1370     		strb	r3, [r2]
 1104              	.LVL204:
 1105              	.L69:
1490:Generated_Source\PSoC6/CapSense_Processing.c **** 
1491:Generated_Source\PSoC6/CapSense_Processing.c ****         /* Clear slider sensor state */
1492:Generated_Source\PSoC6/CapSense_Processing.c ****         currStatus = 0Lu;
1493:Generated_Source\PSoC6/CapSense_Processing.c ****     }
1494:Generated_Source\PSoC6/CapSense_Processing.c **** 
1495:Generated_Source\PSoC6/CapSense_Processing.c ****     /* Centroid processing */
1496:Generated_Source\PSoC6/CapSense_Processing.c ****     /* If there are active sensors after debounce run the centroid algorithm */
1497:Generated_Source\PSoC6/CapSense_Processing.c ****     if (0u != currStatus)
 1106              		.loc 1 1497 0
 1107 0076 002D     		cmp	r5, #0
 1108 0078 51D0     		beq	.L80
1498:Generated_Source\PSoC6/CapSense_Processing.c ****     {
1499:Generated_Source\PSoC6/CapSense_Processing.c ****         /* Centroid always uses the lowest finger threshold (minus hysteresis)
1500:Generated_Source\PSoC6/CapSense_Processing.c ****          * to produce same results for first and all consecutive invocations */
1501:Generated_Source\PSoC6/CapSense_Processing.c ****         touchTh = (uint32)ptrRamWdgt->fingerTh - ptrRamWdgt->hysteresis;
 1109              		.loc 1 1501 0
 1110 007a 7B88     		ldrh	r3, [r7, #2]
 1111 007c BA79     		ldrb	r2, [r7, #6]
 1112 007e 9A1A     		subs	r2, r3, r2
 1113              	.LVL205:
1502:Generated_Source\PSoC6/CapSense_Processing.c ****         snsCnt = ptrFlashWdgt->totalNumSns;
 1114              		.loc 1 1502 0
 1115 0080 4346     		mov	r3, r8
 1116 0082 1B8B     		ldrh	r3, [r3, #24]
 1117 0084 9946     		mov	r9, r3
 1118              	.LVL206:
1503:Generated_Source\PSoC6/CapSense_Processing.c **** 
1504:Generated_Source\PSoC6/CapSense_Processing.c ****         #if (0u != CapSense_TOTAL_DIPLEXED_SLIDERS)
1505:Generated_Source\PSoC6/CapSense_Processing.c ****             if ((0u != (ptrFlashWdgt->staticConfig & CapSense_DIPLEXING_MASK)))
1506:Generated_Source\PSoC6/CapSense_Processing.c ****             {
1507:Generated_Source\PSoC6/CapSense_Processing.c ****                 /* Run local maximum search for duplexed slider */
1508:Generated_Source\PSoC6/CapSense_Processing.c ****                 touchCnt = CapSense_DpFindLocalMaxDiplex(
1509:Generated_Source\PSoC6/CapSense_Processing.c ****                                 ptrFlashWdgt->ptr2SnsRam, snsCnt, ptrFlashWdgt->ptr2DiplexTable, to
1510:Generated_Source\PSoC6/CapSense_Processing.c **** 
1511:Generated_Source\PSoC6/CapSense_Processing.c ****                 /* Centroid calculation API requires double sensor count for the diplexed sliders. 
1512:Generated_Source\PSoC6/CapSense_Processing.c ****                 snsCnt *= 2u;
1513:Generated_Source\PSoC6/CapSense_Processing.c ****             }
1514:Generated_Source\PSoC6/CapSense_Processing.c ****             else
1515:Generated_Source\PSoC6/CapSense_Processing.c ****             {
1516:Generated_Source\PSoC6/CapSense_Processing.c ****                 /* Run local maximum search for NON-duplexed slider */
1517:Generated_Source\PSoC6/CapSense_Processing.c ****                 #if (CapSense_ENABLE == CapSense_4PTS_LOCAL_MAX_EN)
1518:Generated_Source\PSoC6/CapSense_Processing.c ****                     touchCnt = CapSense_DpFindLocalMaxSd4pts(ptrFlashWdgt, ptrFlashWdgt->ptr2SnsRam
1519:Generated_Source\PSoC6/CapSense_Processing.c ****                 #else
1520:Generated_Source\PSoC6/CapSense_Processing.c ****                     touchCnt = CapSense_DpFindLocalMaxSd(ptrFlashWdgt->ptr2SnsRam, snsCnt, touchTh)
1521:Generated_Source\PSoC6/CapSense_Processing.c ****                 #endif
1522:Generated_Source\PSoC6/CapSense_Processing.c ****             }
ARM GAS  C:\Users\ikomb\AppData\Local\Temp\cc6TxH90.s 			page 49


1523:Generated_Source\PSoC6/CapSense_Processing.c ****         #else
1524:Generated_Source\PSoC6/CapSense_Processing.c ****             /* Run local maximum search for NON-duplexed slider */
1525:Generated_Source\PSoC6/CapSense_Processing.c ****             #if (CapSense_ENABLE == CapSense_4PTS_LOCAL_MAX_EN)
1526:Generated_Source\PSoC6/CapSense_Processing.c ****                 touchCnt = CapSense_DpFindLocalMaxSd4pts(ptrFlashWdgt, ptrFlashWdgt->ptr2SnsRam, sn
1527:Generated_Source\PSoC6/CapSense_Processing.c ****             #else
1528:Generated_Source\PSoC6/CapSense_Processing.c ****                 touchCnt = CapSense_DpFindLocalMaxSd(ptrFlashWdgt->ptr2SnsRam, snsCnt, touchTh);
 1119              		.loc 1 1528 0
 1120 0086 1900     		movs	r1, r3
 1121              	.LVL207:
 1122 0088 4346     		mov	r3, r8
 1123              	.LVL208:
 1124 008a 9868     		ldr	r0, [r3, #8]
 1125 008c FFF7FEFF 		bl	CapSense_DpFindLocalMaxSd
 1126              	.LVL209:
 1127 0090 041E     		subs	r4, r0, #0
 1128              	.LVL210:
1529:Generated_Source\PSoC6/CapSense_Processing.c ****             #endif
1530:Generated_Source\PSoC6/CapSense_Processing.c ****         #endif /* #if (0u != CapSense_TOTAL_DIPLEXED_SLIDERS) */
1531:Generated_Source\PSoC6/CapSense_Processing.c **** 
1532:Generated_Source\PSoC6/CapSense_Processing.c ****         /* If at least one touch is detected */
1533:Generated_Source\PSoC6/CapSense_Processing.c ****         if (0u != touchCnt)
 1129              		.loc 1 1533 0
 1130 0092 55D0     		beq	.L76
1534:Generated_Source\PSoC6/CapSense_Processing.c ****         {
1535:Generated_Source\PSoC6/CapSense_Processing.c ****             /* Determine slider type and calculate new position(s) */
1536:Generated_Source\PSoC6/CapSense_Processing.c ****             #if (0u != CapSense_TOTAL_LINEAR_SLIDERS)
1537:Generated_Source\PSoC6/CapSense_Processing.c ****                 if ((CapSense_WD_TYPE_ENUM)ptrFlashWdgt->wdgtType == CapSense_WD_LINEAR_SLIDER_E)
 1131              		.loc 1 1537 0
 1132 0094 4346     		mov	r3, r8
 1133 0096 9B7E     		ldrb	r3, [r3, #26]
 1134 0098 022B     		cmp	r3, #2
 1135 009a 51D1     		bne	.L76
1538:Generated_Source\PSoC6/CapSense_Processing.c ****                 {
1539:Generated_Source\PSoC6/CapSense_Processing.c ****                     #if (CapSense_ENABLE == CapSense_SLIDER_MULT_METHOD)
1540:Generated_Source\PSoC6/CapSense_Processing.c ****                         touchCnt = CapSense_DpCalcLinearCentroid(newPos, (uint32)ptrFlashWdgt->xCen
1541:Generated_Source\PSoC6/CapSense_Processing.c ****                                     snsCnt, (uint32)(ptrFlashWdgt->xCentroidMultiplier >> 1));
1542:Generated_Source\PSoC6/CapSense_Processing.c ****                     #else
1543:Generated_Source\PSoC6/CapSense_Processing.c ****                         touchCnt = CapSense_DpCalcLinearCentroid(
 1136              		.loc 1 1543 0
 1137 009c 0023     		movs	r3, #0
 1138 009e 4A46     		mov	r2, r9
 1139 00a0 4146     		mov	r1, r8
 1140 00a2 096A     		ldr	r1, [r1, #32]
 1141 00a4 01A8     		add	r0, sp, #4
 1142              	.LVL211:
 1143 00a6 FFF7FEFF 		bl	CapSense_DpCalcLinearCentroid
 1144              	.LVL212:
 1145 00aa 0400     		movs	r4, r0
 1146              	.LVL213:
 1147              	.LBB8:
 1148              	.LBB9:
1544:Generated_Source\PSoC6/CapSense_Processing.c ****                                         newPos, (uint32)ptrFlashWdgt->xCentroidMultiplier, snsCnt, 
1545:Generated_Source\PSoC6/CapSense_Processing.c ****                     #endif
1546:Generated_Source\PSoC6/CapSense_Processing.c ****                     DpUpdateLinSlider(newPos, touchCnt, ptrFlashWdgt, ptrRamWdgt);
1547:Generated_Source\PSoC6/CapSense_Processing.c ****                 }
1548:Generated_Source\PSoC6/CapSense_Processing.c ****             #endif /* #if (0u != CapSense_TOTAL_LINEAR_SLIDERS) */
1549:Generated_Source\PSoC6/CapSense_Processing.c **** 
ARM GAS  C:\Users\ikomb\AppData\Local\Temp\cc6TxH90.s 			page 50


1550:Generated_Source\PSoC6/CapSense_Processing.c ****             #if (0u != CapSense_TOTAL_RADIAL_SLIDERS)
1551:Generated_Source\PSoC6/CapSense_Processing.c ****                 if ((CapSense_WD_TYPE_ENUM)ptrFlashWdgt->wdgtType == CapSense_WD_RADIAL_SLIDER_E)
1552:Generated_Source\PSoC6/CapSense_Processing.c ****                 {
1553:Generated_Source\PSoC6/CapSense_Processing.c ****                     touchCnt = CapSense_DpCalcRadialCentroid(
1554:Generated_Source\PSoC6/CapSense_Processing.c ****                                     newPos, (uint32)ptrFlashWdgt->xCentroidMultiplier, snsCnt);
1555:Generated_Source\PSoC6/CapSense_Processing.c ****                     DpUpdateRadSlider(newPos, touchCnt, ptrFlashWdgt, ptrRamWdgt);
1556:Generated_Source\PSoC6/CapSense_Processing.c ****                 }
1557:Generated_Source\PSoC6/CapSense_Processing.c ****             #endif /* #if (0u != CapSense_TOTAL_RADIAL_SLIDERS) */
1558:Generated_Source\PSoC6/CapSense_Processing.c ****         }
1559:Generated_Source\PSoC6/CapSense_Processing.c ****     }
1560:Generated_Source\PSoC6/CapSense_Processing.c **** 
1561:Generated_Source\PSoC6/CapSense_Processing.c ****     /* Clear not active position data slots */
1562:Generated_Source\PSoC6/CapSense_Processing.c ****     for (touchIdx = touchCnt; touchIdx < CapSense_NUM_CENTROIDS; touchIdx++)
1563:Generated_Source\PSoC6/CapSense_Processing.c ****     {
1564:Generated_Source\PSoC6/CapSense_Processing.c ****         ptrRamWdgt->position[touchIdx] = CapSense_SLIDER_POS_NONE;
1565:Generated_Source\PSoC6/CapSense_Processing.c **** 
1566:Generated_Source\PSoC6/CapSense_Processing.c ****         #if (0u != CapSense_POSITION_FILTER_EN)
1567:Generated_Source\PSoC6/CapSense_Processing.c ****             if (NULL != ptrHistory)
1568:Generated_Source\PSoC6/CapSense_Processing.c ****             {
1569:Generated_Source\PSoC6/CapSense_Processing.c ****                 CapSense_InitPosFiltersSd(&ptrHistory[touchIdx], CapSense_SLIDER_POS_NONE);
1570:Generated_Source\PSoC6/CapSense_Processing.c ****             }
1571:Generated_Source\PSoC6/CapSense_Processing.c ****         #endif /* #if (0u != CapSense_POSITION_FILTER_EN) */
1572:Generated_Source\PSoC6/CapSense_Processing.c ****     }
1573:Generated_Source\PSoC6/CapSense_Processing.c **** 
1574:Generated_Source\PSoC6/CapSense_Processing.c ****     return currStatus;
1575:Generated_Source\PSoC6/CapSense_Processing.c **** }
1576:Generated_Source\PSoC6/CapSense_Processing.c **** #endif /* #if (0u != CapSense_SLIDER_WIDGET_EN) */
1577:Generated_Source\PSoC6/CapSense_Processing.c **** 
1578:Generated_Source\PSoC6/CapSense_Processing.c **** #if (0u != CapSense_TOTAL_LINEAR_SLIDERS)
1579:Generated_Source\PSoC6/CapSense_Processing.c **** /*******************************************************************************
1580:Generated_Source\PSoC6/CapSense_Processing.c **** * Function Name: DpUpdateLinSlider
1581:Generated_Source\PSoC6/CapSense_Processing.c **** ****************************************************************************//**
1582:Generated_Source\PSoC6/CapSense_Processing.c **** *
1583:Generated_Source\PSoC6/CapSense_Processing.c **** * \brief
1584:Generated_Source\PSoC6/CapSense_Processing.c **** *   Updates the touch status of the Linear Slider widget.
1585:Generated_Source\PSoC6/CapSense_Processing.c **** *
1586:Generated_Source\PSoC6/CapSense_Processing.c **** * \details
1587:Generated_Source\PSoC6/CapSense_Processing.c **** *   This function updates the position data of the Linear Slider
1588:Generated_Source\PSoC6/CapSense_Processing.c **** *   in the Data Structure. Also, this function runs position filters for the
1589:Generated_Source\PSoC6/CapSense_Processing.c **** *   position data if any enabled.
1590:Generated_Source\PSoC6/CapSense_Processing.c **** *
1591:Generated_Source\PSoC6/CapSense_Processing.c **** * \param newPos       The pointer to the array with the new finger position coordinates.
1592:Generated_Source\PSoC6/CapSense_Processing.c **** * \param numTouches   The number of the coordinates in the newPos array.
1593:Generated_Source\PSoC6/CapSense_Processing.c **** * \param ptrFlashWdgt The pointer to the Flash Widget Object.
1594:Generated_Source\PSoC6/CapSense_Processing.c **** * \param ptrRamWdgt   The pointer to the RAM Widget Object.
1595:Generated_Source\PSoC6/CapSense_Processing.c **** *
1596:Generated_Source\PSoC6/CapSense_Processing.c **** *******************************************************************************/
1597:Generated_Source\PSoC6/CapSense_Processing.c **** __STATIC_INLINE void DpUpdateLinSlider(
1598:Generated_Source\PSoC6/CapSense_Processing.c ****                         const uint16 newPos[],
1599:Generated_Source\PSoC6/CapSense_Processing.c ****                         uint32 numTouches,
1600:Generated_Source\PSoC6/CapSense_Processing.c ****                         CapSense_FLASH_WD_STRUCT const *ptrFlashWdgt,
1601:Generated_Source\PSoC6/CapSense_Processing.c ****                         CapSense_RAM_WD_SLIDER_STRUCT *ptrRamWdgt)
1602:Generated_Source\PSoC6/CapSense_Processing.c **** {
1603:Generated_Source\PSoC6/CapSense_Processing.c ****     uint32 touchIdx;
1604:Generated_Source\PSoC6/CapSense_Processing.c **** 
1605:Generated_Source\PSoC6/CapSense_Processing.c ****     #if (0u != CapSense_POS_AVERAGE_FILTER_EN)
1606:Generated_Source\PSoC6/CapSense_Processing.c ****         uint16 tempPosition;
ARM GAS  C:\Users\ikomb\AppData\Local\Temp\cc6TxH90.s 			page 51


1607:Generated_Source\PSoC6/CapSense_Processing.c ****     #endif /* (0u != CapSense_POS_AVERAGE_FILTER_EN) */
1608:Generated_Source\PSoC6/CapSense_Processing.c **** 
1609:Generated_Source\PSoC6/CapSense_Processing.c ****     #if (0u == CapSense_POSITION_FILTER_EN)
1610:Generated_Source\PSoC6/CapSense_Processing.c ****         /* This parameter is unused in such configurations */
1611:Generated_Source\PSoC6/CapSense_Processing.c ****         (void)ptrFlashWdgt;
1612:Generated_Source\PSoC6/CapSense_Processing.c ****     #else
1613:Generated_Source\PSoC6/CapSense_Processing.c ****         uint16 filteredPosition;
1614:Generated_Source\PSoC6/CapSense_Processing.c ****         /* Get bitmask with the enabled filters */
1615:Generated_Source\PSoC6/CapSense_Processing.c ****         uint32 filterConfig = (uint32)ptrFlashWdgt->staticConfig;
 1149              		.loc 1 1615 0
 1150 00ac 4346     		mov	r3, r8
 1151 00ae 5B69     		ldr	r3, [r3, #20]
 1152 00b0 9A46     		mov	r10, r3
 1153              	.LVL214:
1616:Generated_Source\PSoC6/CapSense_Processing.c ****         /* Get pointer to the position filter history */
1617:Generated_Source\PSoC6/CapSense_Processing.c ****         CapSense_SLIDER_POS_HISTORY_STRUCT *ptrHistory = ptrFlashWdgt->ptr2PosHistory;
 1154              		.loc 1 1617 0
 1155 00b2 4346     		mov	r3, r8
 1156              	.LVL215:
 1157 00b4 9B6A     		ldr	r3, [r3, #40]
 1158 00b6 9946     		mov	r9, r3
 1159              	.LVL216:
1618:Generated_Source\PSoC6/CapSense_Processing.c ****     #endif /* #if (0u == CapSense_POSITION_FILTER_EN) */
1619:Generated_Source\PSoC6/CapSense_Processing.c **** 
1620:Generated_Source\PSoC6/CapSense_Processing.c ****     #if (0u != CapSense_POS_ADAPTIVE_IIR_FILTER_EN)
1621:Generated_Source\PSoC6/CapSense_Processing.c ****         ADAPTIVE_FILTER_CONTEXT_STRUCT contextAIIR;
1622:Generated_Source\PSoC6/CapSense_Processing.c ****         uint16 emptyPosition = 0;
1623:Generated_Source\PSoC6/CapSense_Processing.c ****     #endif /* (0u != CapSense_POS_ADAPTIVE_IIR_FILTER_EN) */
1624:Generated_Source\PSoC6/CapSense_Processing.c **** 
1625:Generated_Source\PSoC6/CapSense_Processing.c ****     /* Run Filter and update the position registers with the filtered data */
1626:Generated_Source\PSoC6/CapSense_Processing.c ****     for (touchIdx = 0u; touchIdx < numTouches; touchIdx++)
 1160              		.loc 1 1626 0
 1161 00b8 0023     		movs	r3, #0
 1162              	.LVL217:
 1163 00ba 9846     		mov	r8, r3
 1164              	.LVL218:
 1165 00bc 2CE0     		b	.L71
 1166              	.LVL219:
 1167              	.L75:
1627:Generated_Source\PSoC6/CapSense_Processing.c ****     {
1628:Generated_Source\PSoC6/CapSense_Processing.c ****         #if (0u == CapSense_POSITION_FILTER_EN)
1629:Generated_Source\PSoC6/CapSense_Processing.c ****             /* If filters are not enabled just copy the position data */
1630:Generated_Source\PSoC6/CapSense_Processing.c ****             ptrRamWdgt->position[touchIdx] = newPos[touchIdx];
1631:Generated_Source\PSoC6/CapSense_Processing.c ****         #else
1632:Generated_Source\PSoC6/CapSense_Processing.c ****             filteredPosition = newPos[touchIdx];
 1168              		.loc 1 1632 0
 1169 00be 4346     		mov	r3, r8
 1170 00c0 5B00     		lsls	r3, r3, #1
 1171 00c2 01AA     		add	r2, sp, #4
 1172              	.LVL220:
 1173 00c4 D35A     		ldrh	r3, [r2, r3]
 1174 00c6 9B46     		mov	fp, r3
 1175              	.LVL221:
1633:Generated_Source\PSoC6/CapSense_Processing.c **** 
1634:Generated_Source\PSoC6/CapSense_Processing.c ****             /* If there were no touch initialize the current position with new position data */
1635:Generated_Source\PSoC6/CapSense_Processing.c ****             if (ptrRamWdgt->position[touchIdx] == CapSense_SLIDER_POS_NONE)
 1176              		.loc 1 1635 0
ARM GAS  C:\Users\ikomb\AppData\Local\Temp\cc6TxH90.s 			page 52


 1177 00c8 4346     		mov	r3, r8
 1178 00ca 0833     		adds	r3, r3, #8
 1179 00cc 5B00     		lsls	r3, r3, #1
 1180 00ce FB18     		adds	r3, r7, r3
 1181 00d0 5A88     		ldrh	r2, [r3, #2]
 1182              	.LVL222:
 1183 00d2 204B     		ldr	r3, .L81
 1184 00d4 9A42     		cmp	r2, r3
 1185 00d6 04D1     		bne	.L72
1636:Generated_Source\PSoC6/CapSense_Processing.c ****             {
1637:Generated_Source\PSoC6/CapSense_Processing.c ****                 CapSense_InitPosFiltersSd(ptrHistory, filteredPosition);
 1186              		.loc 1 1637 0
 1187 00d8 5946     		mov	r1, fp
 1188 00da 4846     		mov	r0, r9
 1189 00dc FFF7FEFF 		bl	CapSense_InitPosFiltersSd
 1190              	.LVL223:
 1191 00e0 0BE0     		b	.L73
 1192              	.L72:
1638:Generated_Source\PSoC6/CapSense_Processing.c ****             }
1639:Generated_Source\PSoC6/CapSense_Processing.c ****             else
1640:Generated_Source\PSoC6/CapSense_Processing.c ****             {
1641:Generated_Source\PSoC6/CapSense_Processing.c ****                 #if (0u != CapSense_POS_MEDIAN_FILTER_EN)
1642:Generated_Source\PSoC6/CapSense_Processing.c ****                     if (0u != (filterConfig & CapSense_POS_MEDIAN_FILTER_MASK))
1643:Generated_Source\PSoC6/CapSense_Processing.c ****                     {
1644:Generated_Source\PSoC6/CapSense_Processing.c ****                         filteredPosition = (uint16)CapSense_FtMedian((uint32)ptrHistory->posMedianZ
1645:Generated_Source\PSoC6/CapSense_Processing.c ****                                             (uint32)ptrHistory->posMedianZ1, (uint32)newPos[touchId
1646:Generated_Source\PSoC6/CapSense_Processing.c ****                         ptrHistory->posMedianZ2 = ptrHistory->posMedianZ1;
1647:Generated_Source\PSoC6/CapSense_Processing.c ****                         ptrHistory->posMedianZ1 = newPos[touchIdx];
1648:Generated_Source\PSoC6/CapSense_Processing.c ****                     }
1649:Generated_Source\PSoC6/CapSense_Processing.c ****                 #endif /* #if (0u != CapSense_POS_MEDIAN_FILTER_EN) */
1650:Generated_Source\PSoC6/CapSense_Processing.c **** 
1651:Generated_Source\PSoC6/CapSense_Processing.c ****                 #if (0u != CapSense_POS_IIR_FILTER_EN)
1652:Generated_Source\PSoC6/CapSense_Processing.c ****                     if (0u != (filterConfig & CapSense_POS_IIR_FILTER_MASK))
1653:Generated_Source\PSoC6/CapSense_Processing.c ****                     {
1654:Generated_Source\PSoC6/CapSense_Processing.c ****                         filteredPosition = (uint16)CapSense_FtIIR1stOrder((uint32)filteredPosition,
1655:Generated_Source\PSoC6/CapSense_Processing.c ****                                             (uint32)ptrFlashWdgt->iirFilterCoeff, 0uL);
1656:Generated_Source\PSoC6/CapSense_Processing.c ****                         ptrHistory->posIIR = filteredPosition;
1657:Generated_Source\PSoC6/CapSense_Processing.c ****                     }
1658:Generated_Source\PSoC6/CapSense_Processing.c ****                 #endif /* #if (0u != CapSense_POS_IIR_FILTER_EN) */
1659:Generated_Source\PSoC6/CapSense_Processing.c **** 
1660:Generated_Source\PSoC6/CapSense_Processing.c ****                 #if (0u != CapSense_POS_ADAPTIVE_IIR_FILTER_EN)
1661:Generated_Source\PSoC6/CapSense_Processing.c ****                     if (0u != (filterConfig & CapSense_AIIR_FILTER_MASK))
1662:Generated_Source\PSoC6/CapSense_Processing.c ****                     {
1663:Generated_Source\PSoC6/CapSense_Processing.c ****                         contextAIIR.previousX = ptrHistory->posAIIR;
1664:Generated_Source\PSoC6/CapSense_Processing.c ****                         contextAIIR.previousY = emptyPosition;
1665:Generated_Source\PSoC6/CapSense_Processing.c ****                         contextAIIR.coefficient = ptrHistory->posAIIRCoeff;
1666:Generated_Source\PSoC6/CapSense_Processing.c ****                         AdaptiveFilter_Run(&ptrRamWdgt->aiirConfig, &contextAIIR, &filteredPosition
1667:Generated_Source\PSoC6/CapSense_Processing.c ****                         ptrHistory->posAIIR = contextAIIR.previousX;
1668:Generated_Source\PSoC6/CapSense_Processing.c ****                         ptrHistory->posAIIRCoeff = contextAIIR.coefficient;
1669:Generated_Source\PSoC6/CapSense_Processing.c ****                     }
1670:Generated_Source\PSoC6/CapSense_Processing.c ****                 #endif /* (0u != CapSense_POS_ADAPTIVE_IIR_FILTER_EN) */
1671:Generated_Source\PSoC6/CapSense_Processing.c **** 
1672:Generated_Source\PSoC6/CapSense_Processing.c ****                 #if (0u != CapSense_POS_AVERAGE_FILTER_EN)
1673:Generated_Source\PSoC6/CapSense_Processing.c ****                     if (0u != (filterConfig & CapSense_POS_AVERAGE_FILTER_MASK))
 1193              		.loc 1 1673 0
 1194 00e2 5346     		mov	r3, r10
 1195 00e4 5B06     		lsls	r3, r3, #25
ARM GAS  C:\Users\ikomb\AppData\Local\Temp\cc6TxH90.s 			page 53


 1196 00e6 08D5     		bpl	.L73
 1197              	.LVL224:
1674:Generated_Source\PSoC6/CapSense_Processing.c ****                     {
1675:Generated_Source\PSoC6/CapSense_Processing.c ****                         tempPosition = filteredPosition;
1676:Generated_Source\PSoC6/CapSense_Processing.c ****                         filteredPosition = (uint16)(filteredPosition + ptrHistory->posAverage) >> 1
 1198              		.loc 1 1676 0
 1199 00e8 4B46     		mov	r3, r9
 1200 00ea 1B88     		ldrh	r3, [r3]
 1201 00ec 5B44     		add	r3, r3, fp
 1202 00ee 9BB2     		uxth	r3, r3
 1203              	.LVL225:
1677:Generated_Source\PSoC6/CapSense_Processing.c ****                         ptrHistory->posAverage = tempPosition;
 1204              		.loc 1 1677 0
 1205 00f0 4A46     		mov	r2, r9
 1206 00f2 5946     		mov	r1, fp
 1207 00f4 1180     		strh	r1, [r2]
1676:Generated_Source\PSoC6/CapSense_Processing.c ****                         ptrHistory->posAverage = tempPosition;
 1208              		.loc 1 1676 0
 1209 00f6 5B08     		lsrs	r3, r3, #1
 1210              	.LVL226:
 1211 00f8 9B46     		mov	fp, r3
 1212              	.LVL227:
 1213              	.L73:
1678:Generated_Source\PSoC6/CapSense_Processing.c ****                     }
1679:Generated_Source\PSoC6/CapSense_Processing.c ****                 #endif /* #if (0u != CapSense_POS_AVERAGE_FILTER_EN) */
1680:Generated_Source\PSoC6/CapSense_Processing.c **** 
1681:Generated_Source\PSoC6/CapSense_Processing.c ****                 #if (0u != CapSense_POS_JITTER_FILTER_EN)
1682:Generated_Source\PSoC6/CapSense_Processing.c ****                     if (0u != (filterConfig & CapSense_POS_JITTER_FILTER_MASK))
1683:Generated_Source\PSoC6/CapSense_Processing.c ****                     {
1684:Generated_Source\PSoC6/CapSense_Processing.c ****                         filteredPosition = (uint16)CapSense_FtJitter((uint32)filteredPosition, (uin
1685:Generated_Source\PSoC6/CapSense_Processing.c ****                         ptrHistory->posJitter = filteredPosition;
1686:Generated_Source\PSoC6/CapSense_Processing.c ****                     }
1687:Generated_Source\PSoC6/CapSense_Processing.c ****                 #endif /* #if (0u != CapSense_POS_JITTER_FILTER_EN) */
1688:Generated_Source\PSoC6/CapSense_Processing.c ****             }
1689:Generated_Source\PSoC6/CapSense_Processing.c **** 
1690:Generated_Source\PSoC6/CapSense_Processing.c ****             /* Update position data */
1691:Generated_Source\PSoC6/CapSense_Processing.c ****             ptrRamWdgt->position[touchIdx] = filteredPosition;
 1214              		.loc 1 1691 0
 1215 00fa 4346     		mov	r3, r8
 1216 00fc 0833     		adds	r3, r3, #8
 1217 00fe 5B00     		lsls	r3, r3, #1
 1218 0100 FB18     		adds	r3, r7, r3
 1219 0102 5A46     		mov	r2, fp
 1220 0104 5A80     		strh	r2, [r3, #2]
1692:Generated_Source\PSoC6/CapSense_Processing.c **** 
1693:Generated_Source\PSoC6/CapSense_Processing.c ****             ptrHistory = (NULL != ptrHistory) ? (ptrHistory + 1) : NULL;
 1221              		.loc 1 1693 0
 1222 0106 4B46     		mov	r3, r9
 1223 0108 002B     		cmp	r3, #0
 1224 010a 02D0     		beq	.L74
 1225              	.LVL228:
 1226 010c 0223     		movs	r3, #2
 1227              	.LVL229:
 1228 010e 9C46     		mov	ip, r3
 1229 0110 E144     		add	r9, r9, ip
 1230              	.LVL230:
 1231              	.L74:
ARM GAS  C:\Users\ikomb\AppData\Local\Temp\cc6TxH90.s 			page 54


1626:Generated_Source\PSoC6/CapSense_Processing.c ****     {
 1232              		.loc 1 1626 0
 1233 0112 0123     		movs	r3, #1
 1234 0114 9C46     		mov	ip, r3
 1235 0116 E044     		add	r8, r8, ip
 1236              	.LVL231:
 1237              	.L71:
 1238 0118 4445     		cmp	r4, r8
 1239 011a D0D8     		bhi	.L75
 1240 011c 10E0     		b	.L76
 1241              	.LVL232:
 1242              	.L80:
 1243              	.LBE9:
 1244              	.LBE8:
1443:Generated_Source\PSoC6/CapSense_Processing.c ****     uint16 newPos[CapSense_NUM_CENTROIDS];
 1245              		.loc 1 1443 0
 1246 011e 0024     		movs	r4, #0
 1247              	.LVL233:
 1248 0120 0EE0     		b	.L76
 1249              	.LVL234:
 1250              	.L78:
1564:Generated_Source\PSoC6/CapSense_Processing.c **** 
 1251              		.loc 1 1564 0
 1252 0122 2300     		movs	r3, r4
 1253 0124 0833     		adds	r3, r3, #8
 1254 0126 5B00     		lsls	r3, r3, #1
 1255 0128 FB18     		adds	r3, r7, r3
 1256 012a 0122     		movs	r2, #1
 1257 012c 5242     		rsbs	r2, r2, #0
 1258 012e 5A80     		strh	r2, [r3, #2]
1567:Generated_Source\PSoC6/CapSense_Processing.c ****             {
 1259              		.loc 1 1567 0
 1260 0130 002E     		cmp	r6, #0
 1261 0132 04D0     		beq	.L77
1569:Generated_Source\PSoC6/CapSense_Processing.c ****             }
 1262              		.loc 1 1569 0
 1263 0134 6000     		lsls	r0, r4, #1
 1264 0136 3018     		adds	r0, r6, r0
 1265 0138 0649     		ldr	r1, .L81
 1266 013a FFF7FEFF 		bl	CapSense_InitPosFiltersSd
 1267              	.LVL235:
 1268              	.L77:
1562:Generated_Source\PSoC6/CapSense_Processing.c ****     {
 1269              		.loc 1 1562 0 discriminator 2
 1270 013e 0134     		adds	r4, r4, #1
 1271              	.LVL236:
 1272              	.L76:
1562:Generated_Source\PSoC6/CapSense_Processing.c ****     {
 1273              		.loc 1 1562 0 is_stmt 0 discriminator 1
 1274 0140 002C     		cmp	r4, #0
 1275 0142 EED0     		beq	.L78
1575:Generated_Source\PSoC6/CapSense_Processing.c **** #endif /* #if (0u != CapSense_SLIDER_WIDGET_EN) */
 1276              		.loc 1 1575 0 is_stmt 1
 1277 0144 2800     		movs	r0, r5
 1278 0146 03B0     		add	sp, sp, #12
 1279              		@ sp needed
 1280              	.LVL237:
ARM GAS  C:\Users\ikomb\AppData\Local\Temp\cc6TxH90.s 			page 55


 1281              	.LVL238:
 1282              	.LVL239:
 1283              	.LVL240:
 1284 0148 3CBC     		pop	{r2, r3, r4, r5}
 1285 014a 9046     		mov	r8, r2
 1286 014c 9946     		mov	r9, r3
 1287 014e A246     		mov	r10, r4
 1288 0150 AB46     		mov	fp, r5
 1289 0152 F0BD     		pop	{r4, r5, r6, r7, pc}
 1290              	.L82:
 1291              		.align	2
 1292              	.L81:
 1293 0154 FFFF0000 		.word	65535
 1294              		.cfi_endproc
 1295              	.LFE47:
 1296              		.size	CapSense_DpProcessSlider, .-CapSense_DpProcessSlider
 1297              		.section	.text.CapSense_DpProcessCsdWidgetStatus,"ax",%progbits
 1298              		.align	2
 1299              		.global	CapSense_DpProcessCsdWidgetStatus
 1300              		.code	16
 1301              		.thumb_func
 1302              		.type	CapSense_DpProcessCsdWidgetStatus, %function
 1303              	CapSense_DpProcessCsdWidgetStatus:
 1304              	.LFB43:
1016:Generated_Source\PSoC6/CapSense_Processing.c ****     uint32 sensorStatus;
 1305              		.loc 1 1016 0
 1306              		.cfi_startproc
 1307              		@ args = 0, pretend = 0, frame = 0
 1308              		@ frame_needed = 0, uses_anonymous_args = 0
 1309              	.LVL241:
 1310 0000 70B5     		push	{r4, r5, r6, lr}
 1311              		.cfi_def_cfa_offset 16
 1312              		.cfi_offset 4, -16
 1313              		.cfi_offset 5, -12
 1314              		.cfi_offset 6, -8
 1315              		.cfi_offset 14, -4
 1316 0002 0400     		movs	r4, r0
1022:Generated_Source\PSoC6/CapSense_Processing.c ****     sensorStatus = CapSense_dsRam.snsStatus[widgetId];
 1317              		.loc 1 1022 0
 1318 0004 8A7E     		ldrb	r2, [r1, #26]
 1319              	.LVL242:
1023:Generated_Source\PSoC6/CapSense_Processing.c **** 
 1320              		.loc 1 1023 0
 1321 0006 194B     		ldr	r3, .L91
 1322 0008 1B18     		adds	r3, r3, r0
 1323 000a 1D7E     		ldrb	r5, [r3, #24]
 1324              	.LVL243:
1025:Generated_Source\PSoC6/CapSense_Processing.c ****     {
 1325              		.loc 1 1025 0
 1326 000c 012A     		cmp	r2, #1
 1327 000e 04D0     		beq	.L85
 1328 0010 002A     		cmp	r2, #0
 1329 0012 0CD0     		beq	.L84
 1330 0014 032A     		cmp	r2, #3
 1331 0016 05D9     		bls	.L90
 1332 0018 09E0     		b	.L84
 1333              	.L85:
ARM GAS  C:\Users\ikomb\AppData\Local\Temp\cc6TxH90.s 			page 56


1029:Generated_Source\PSoC6/CapSense_Processing.c ****             break;
 1334              		.loc 1 1029 0
 1335 001a 2800     		movs	r0, r5
 1336              	.LVL244:
 1337 001c FFF7FEFF 		bl	CapSense_DpProcessButton
 1338              	.LVL245:
 1339 0020 0500     		movs	r5, r0
 1340              	.LVL246:
1030:Generated_Source\PSoC6/CapSense_Processing.c ****     #endif /* #if (0u != CapSense_BUTTON_WIDGET_EN) */
 1341              		.loc 1 1030 0
 1342 0022 08E0     		b	.L87
 1343              	.LVL247:
 1344              	.L90:
1036:Generated_Source\PSoC6/CapSense_Processing.c ****             break;
 1345              		.loc 1 1036 0
 1346 0024 2800     		movs	r0, r5
 1347              	.LVL248:
 1348 0026 FFF7FEFF 		bl	CapSense_DpProcessSlider
 1349              	.LVL249:
 1350 002a 0500     		movs	r5, r0
 1351              	.LVL250:
1037:Generated_Source\PSoC6/CapSense_Processing.c ****     #endif /* #if (0u != CapSense_SLIDER_WIDGET_EN) */
 1352              		.loc 1 1037 0
 1353 002c 03E0     		b	.L87
 1354              	.LVL251:
 1355              	.L84:
1062:Generated_Source\PSoC6/CapSense_Processing.c ****         break;
 1356              		.loc 1 1062 0 discriminator 1
 1357 002e 1049     		ldr	r1, .L91+4
 1358              	.LVL252:
 1359 0030 1048     		ldr	r0, .L91+8
 1360              	.LVL253:
 1361 0032 FFF7FEFF 		bl	Cy_SysLib_AssertFailed
 1362              	.LVL254:
 1363              	.L87:
1066:Generated_Source\PSoC6/CapSense_Processing.c **** 
 1364              		.loc 1 1066 0
 1365 0036 0D4B     		ldr	r3, .L91
 1366 0038 1B19     		adds	r3, r3, r4
 1367 003a 1D76     		strb	r5, [r3, #24]
1069:Generated_Source\PSoC6/CapSense_Processing.c ****     wdStatusMask = CapSense_GET_WDGT_STATUS_MASK(widgetId);
 1368              		.loc 1 1069 0
 1369 003c 6309     		lsrs	r3, r4, #5
 1370              	.LVL255:
1070:Generated_Source\PSoC6/CapSense_Processing.c **** 
 1371              		.loc 1 1070 0
 1372 003e 1F22     		movs	r2, #31
 1373 0040 1440     		ands	r4, r2
 1374              	.LVL256:
 1375 0042 1E3A     		subs	r2, r2, #30
 1376 0044 A240     		lsls	r2, r2, r4
 1377              	.LVL257:
1073:Generated_Source\PSoC6/CapSense_Processing.c ****     {
 1378              		.loc 1 1073 0
 1379 0046 002D     		cmp	r5, #0
 1380 0048 07D1     		bne	.L88
1075:Generated_Source\PSoC6/CapSense_Processing.c ****     }
ARM GAS  C:\Users\ikomb\AppData\Local\Temp\cc6TxH90.s 			page 57


 1381              		.loc 1 1075 0
 1382 004a 0433     		adds	r3, r3, #4
 1383              	.LVL258:
 1384 004c 9B00     		lsls	r3, r3, #2
 1385              	.LVL259:
 1386 004e 0749     		ldr	r1, .L91
 1387 0050 CB18     		adds	r3, r1, r3
 1388 0052 5968     		ldr	r1, [r3, #4]
 1389 0054 9143     		bics	r1, r2
 1390 0056 5960     		str	r1, [r3, #4]
 1391 0058 06E0     		b	.L83
 1392              	.LVL260:
 1393              	.L88:
1079:Generated_Source\PSoC6/CapSense_Processing.c ****     }
 1394              		.loc 1 1079 0
 1395 005a 0433     		adds	r3, r3, #4
 1396              	.LVL261:
 1397 005c 9B00     		lsls	r3, r3, #2
 1398              	.LVL262:
 1399 005e 0349     		ldr	r1, .L91
 1400 0060 CB18     		adds	r3, r1, r3
 1401 0062 5968     		ldr	r1, [r3, #4]
 1402 0064 0A43     		orrs	r2, r1
 1403              	.LVL263:
 1404 0066 5A60     		str	r2, [r3, #4]
 1405              	.L83:
1081:Generated_Source\PSoC6/CapSense_Processing.c **** #endif /* #if (0u != CapSense_TOTAL_CSD_WIDGETS) */
 1406              		.loc 1 1081 0
 1407              		@ sp needed
 1408              	.LVL264:
 1409              	.LVL265:
 1410 0068 70BD     		pop	{r4, r5, r6, pc}
 1411              	.L92:
 1412 006a C046     		.align	2
 1413              	.L91:
 1414 006c 00000000 		.word	CapSense_dsRam
 1415 0070 26040000 		.word	1062
 1416 0074 00000000 		.word	.LC3
 1417              		.cfi_endproc
 1418              	.LFE43:
 1419              		.size	CapSense_DpProcessCsdWidgetStatus, .-CapSense_DpProcessCsdWidgetStatus
 1420              		.section	.rodata.str1.4,"aMS",%progbits,1
 1421              		.align	2
 1422              	.LC3:
 1423 0000 47656E65 		.ascii	"Generated_Source\\PSoC6\\CapSense_Processing.c\000"
 1423      72617465 
 1423      645F536F 
 1423      75726365 
 1423      5C50536F 
 1424              		.text
 1425              	.Letext0:
 1426              		.file 2 "c:\\program files (x86)\\cypress\\psoc creator\\4.4\\psoc creator\\import\\gnu\\arm\\5.4.
 1427              		.file 3 "c:\\program files (x86)\\cypress\\psoc creator\\4.4\\psoc creator\\import\\gnu\\arm\\5.4.
 1428              		.file 4 "Generated_Source\\PSoC6\\pdl\\drivers/peripheral/syslib/cy_syslib.h"
 1429              		.file 5 "c:\\program files (x86)\\cypress\\psoc creator\\4.4\\psoc creator\\import\\gnu\\arm\\5.4.
 1430              		.file 6 "Generated_Source\\PSoC6\\CapSense_Configuration.h"
 1431              		.file 7 "Generated_Source\\PSoC6\\CapSense_SmartSense_LL.h"
ARM GAS  C:\Users\ikomb\AppData\Local\Temp\cc6TxH90.s 			page 58


 1432              		.file 8 "Generated_Source\\PSoC6\\CapSense_Structure.h"
 1433              		.file 9 "Generated_Source\\PSoC6\\CapSense_Centroid_LL.h"
 1434              		.file 10 "c:\\program files (x86)\\cypress\\psoc creator\\4.4\\psoc creator\\import\\gnu\\arm\\5.4
 1435              		.file 11 "Generated_Source\\PSoC6\\CapSense_Filter.h"