ARM GAS  C:\Users\ikomb\AppData\Local\Temp\cc6TxH90.s 			page 1


   1              		.syntax unified
   2              		.cpu cortex-m0plus
   3              		.fpu softvfp
   4              		.eabi_attribute 20, 1
   5              		.eabi_attribute 21, 1
   6              		.eabi_attribute 23, 3
   7              		.eabi_attribute 24, 1
   8              		.eabi_attribute 25, 1
   9              		.eabi_attribute 26, 1
  10              		.eabi_attribute 30, 1
  11              		.eabi_attribute 34, 0
  12              		.eabi_attribute 18, 4
  13              		.thumb
  14              		.syntax unified
  15              		.file	"CapSense_Processing.c"
  16              		.text
  17              	.Ltext0:
  18              		.cfi_sections	.debug_frame
  19              		.section	.text.CapSense_DpInitialize,"ax",%progbits
  20              		.align	2
  21              		.global	CapSense_DpInitialize
  22              		.code	16
  23              		.thumb_func
  24              		.type	CapSense_DpInitialize, %function
  25              	CapSense_DpInitialize:
  26              	.LFB37:
  27              		.file 1 "Generated_Source\\PSoC6\\CapSense_Processing.c"
   1:Generated_Source\PSoC6/CapSense_Processing.c **** /***************************************************************************//**
   2:Generated_Source\PSoC6/CapSense_Processing.c **** * \file CapSense_Processing.c
   3:Generated_Source\PSoC6/CapSense_Processing.c **** * \version 2.0
   4:Generated_Source\PSoC6/CapSense_Processing.c **** *
   5:Generated_Source\PSoC6/CapSense_Processing.c **** * \brief
   6:Generated_Source\PSoC6/CapSense_Processing.c **** *   This file provides the source code for the Data Processing module APIs
   7:Generated_Source\PSoC6/CapSense_Processing.c **** *   of the Component. The Data Processing module is responsible for the
   8:Generated_Source\PSoC6/CapSense_Processing.c **** *   low level raw counts processing provided by the sensing module, maintaining
   9:Generated_Source\PSoC6/CapSense_Processing.c **** *   baseline and difference values and performing high-level widget processing
  10:Generated_Source\PSoC6/CapSense_Processing.c **** *   like updating button status or calculating slider position.
  11:Generated_Source\PSoC6/CapSense_Processing.c **** *
  12:Generated_Source\PSoC6/CapSense_Processing.c **** * \see CapSense v2.0 Datasheet
  13:Generated_Source\PSoC6/CapSense_Processing.c **** *
  14:Generated_Source\PSoC6/CapSense_Processing.c **** *//*****************************************************************************
  15:Generated_Source\PSoC6/CapSense_Processing.c **** * Copyright (2016-2017), Cypress Semiconductor Corporation.
  16:Generated_Source\PSoC6/CapSense_Processing.c **** ********************************************************************************
  17:Generated_Source\PSoC6/CapSense_Processing.c **** * This software is owned by Cypress Semiconductor Corporation (Cypress) and is
  18:Generated_Source\PSoC6/CapSense_Processing.c **** * protected by and subject to worldwide patent protection (United States and
  19:Generated_Source\PSoC6/CapSense_Processing.c **** * foreign), United States copyright laws and international treaty provisions.
  20:Generated_Source\PSoC6/CapSense_Processing.c **** * Cypress hereby grants to licensee a personal, non-exclusive, non-transferable
  21:Generated_Source\PSoC6/CapSense_Processing.c **** * license to copy, use, modify, create derivative works of, and compile the
  22:Generated_Source\PSoC6/CapSense_Processing.c **** * Cypress Source Code and derivative works for the sole purpose of creating
  23:Generated_Source\PSoC6/CapSense_Processing.c **** * custom software in support of licensee product to be used only in conjunction
  24:Generated_Source\PSoC6/CapSense_Processing.c **** * with a Cypress integrated circuit as specified in the applicable agreement.
  25:Generated_Source\PSoC6/CapSense_Processing.c **** * Any reproduction, modification, translation, compilation, or representation of
  26:Generated_Source\PSoC6/CapSense_Processing.c **** * this software except as specified above is prohibited without the express
  27:Generated_Source\PSoC6/CapSense_Processing.c **** * written permission of Cypress.
  28:Generated_Source\PSoC6/CapSense_Processing.c **** *
  29:Generated_Source\PSoC6/CapSense_Processing.c **** * Disclaimer: CYPRESS MAKES NO WARRANTY OF ANY KIND, EXPRESS OR IMPLIED, WITH
  30:Generated_Source\PSoC6/CapSense_Processing.c **** * REGARD TO THIS MATERIAL, INCLUDING, BUT NOT LIMITED TO, THE IMPLIED
ARM GAS  C:\Users\ikomb\AppData\Local\Temp\cc6TxH90.s 			page 2


  31:Generated_Source\PSoC6/CapSense_Processing.c **** * WARRANTIES OF MERCHANTABILITY AND FITNESS FOR A PARTICULAR PURPOSE.
  32:Generated_Source\PSoC6/CapSense_Processing.c **** * Cypress reserves the right to make changes without further notice to the
  33:Generated_Source\PSoC6/CapSense_Processing.c **** * materials described herein. Cypress does not assume any liability arising out
  34:Generated_Source\PSoC6/CapSense_Processing.c **** * of the application or use of any product or circuit described herein. Cypress
  35:Generated_Source\PSoC6/CapSense_Processing.c **** * does not authorize its products for use as critical components in life-support
  36:Generated_Source\PSoC6/CapSense_Processing.c **** * systems where a malfunction or failure may reasonably be expected to result in
  37:Generated_Source\PSoC6/CapSense_Processing.c **** * significant injury to the user. The inclusion of Cypress' product in a life-
  38:Generated_Source\PSoC6/CapSense_Processing.c **** * support systems application implies that the manufacturer assumes all risk of
  39:Generated_Source\PSoC6/CapSense_Processing.c **** * such use and in doing so indemnifies Cypress against all charges. Use may be
  40:Generated_Source\PSoC6/CapSense_Processing.c **** * limited by and subject to the applicable Cypress software license agreement.
  41:Generated_Source\PSoC6/CapSense_Processing.c **** *******************************************************************************/
  42:Generated_Source\PSoC6/CapSense_Processing.c **** 
  43:Generated_Source\PSoC6/CapSense_Processing.c **** #include "syslib/cy_syslib.h"
  44:Generated_Source\PSoC6/CapSense_Processing.c **** #include <stddef.h>
  45:Generated_Source\PSoC6/CapSense_Processing.c **** #include <string.h>
  46:Generated_Source\PSoC6/CapSense_Processing.c **** #include "CapSense_Configuration.h"
  47:Generated_Source\PSoC6/CapSense_Processing.c **** #include "CapSense_Processing.h"
  48:Generated_Source\PSoC6/CapSense_Processing.c **** #include "CapSense_Filter.h"
  49:Generated_Source\PSoC6/CapSense_Processing.c **** 
  50:Generated_Source\PSoC6/CapSense_Processing.c **** #if (0u != CapSense_CENTROID_EN)
  51:Generated_Source\PSoC6/CapSense_Processing.c ****     #include "CapSense_Centroid_LL.h"
  52:Generated_Source\PSoC6/CapSense_Processing.c **** #endif /* (0 != CapSense_CENTROID_EN) */
  53:Generated_Source\PSoC6/CapSense_Processing.c **** 
  54:Generated_Source\PSoC6/CapSense_Processing.c **** #if (0 != (CapSense_CSD_AUTOTUNE & CapSense_CSD_SS_TH_EN))
  55:Generated_Source\PSoC6/CapSense_Processing.c ****     #include "CapSense_SmartSense_LL.h"
  56:Generated_Source\PSoC6/CapSense_Processing.c **** #endif /* (0 != (CapSense_CSD_AUTOTUNE & CapSense_CSD_SS_TH_EN)) */
  57:Generated_Source\PSoC6/CapSense_Processing.c **** 
  58:Generated_Source\PSoC6/CapSense_Processing.c **** #if (CapSense_ENABLE == CapSense_SELF_TEST_EN)
  59:Generated_Source\PSoC6/CapSense_Processing.c ****     #include "CapSense_SelfTest.h"
  60:Generated_Source\PSoC6/CapSense_Processing.c **** #endif
  61:Generated_Source\PSoC6/CapSense_Processing.c **** 
  62:Generated_Source\PSoC6/CapSense_Processing.c **** #if (CapSense_ENABLE == CapSense_CENTROID_5X5_CSD_EN)
  63:Generated_Source\PSoC6/CapSense_Processing.c ****     #include "CapSense_AdvancedCentroid_LL.h"
  64:Generated_Source\PSoC6/CapSense_Processing.c **** #endif
  65:Generated_Source\PSoC6/CapSense_Processing.c **** 
  66:Generated_Source\PSoC6/CapSense_Processing.c **** #if (CapSense_ENABLE == CapSense_POS_ADAPTIVE_IIR_FILTER_EN)
  67:Generated_Source\PSoC6/CapSense_Processing.c ****     #include "CapSense_AdaptiveFilter_LL.h"
  68:Generated_Source\PSoC6/CapSense_Processing.c **** #endif
  69:Generated_Source\PSoC6/CapSense_Processing.c **** 
  70:Generated_Source\PSoC6/CapSense_Processing.c **** #if(CapSense_ENABLE == CapSense_BALLISTIC_MULTIPLIER_EN)
  71:Generated_Source\PSoC6/CapSense_Processing.c ****     #include "CapSense_Gesture.h"
  72:Generated_Source\PSoC6/CapSense_Processing.c **** #endif
  73:Generated_Source\PSoC6/CapSense_Processing.c **** 
  74:Generated_Source\PSoC6/CapSense_Processing.c **** /**************************************************************************************************
  75:Generated_Source\PSoC6/CapSense_Processing.c **** * Local definition
  76:Generated_Source\PSoC6/CapSense_Processing.c **** ***************************************************************************************************
  77:Generated_Source\PSoC6/CapSense_Processing.c **** 
  78:Generated_Source\PSoC6/CapSense_Processing.c **** /* UINT32 constant with all odd bits set. It is used by the processing function of the Proximity wi
  79:Generated_Source\PSoC6/CapSense_Processing.c **** *  determine type of the status bit: odd bits report proximity status; even bits report touch statu
  80:Generated_Source\PSoC6/CapSense_Processing.c **** */
  81:Generated_Source\PSoC6/CapSense_Processing.c **** #define UINT32_ODD_BITS_CONST       (0x55555555u)
  82:Generated_Source\PSoC6/CapSense_Processing.c **** 
  83:Generated_Source\PSoC6/CapSense_Processing.c **** /* Default value for the Off Debounce counter when the Off Debounce is disabled */
  84:Generated_Source\PSoC6/CapSense_Processing.c **** #define DEFAULT_OFF_DEBOUNCE_VALUE  (1u)
  85:Generated_Source\PSoC6/CapSense_Processing.c **** #define PERCENTAGE_100              (100u)
  86:Generated_Source\PSoC6/CapSense_Processing.c **** #define TEMP_BUFFER_MSB_SHIFT       (16)
  87:Generated_Source\PSoC6/CapSense_Processing.c **** 
ARM GAS  C:\Users\ikomb\AppData\Local\Temp\cc6TxH90.s 			page 3


  88:Generated_Source\PSoC6/CapSense_Processing.c **** /**************************************************************************************************
  89:Generated_Source\PSoC6/CapSense_Processing.c **** * Local variables
  90:Generated_Source\PSoC6/CapSense_Processing.c **** ***************************************************************************************************
  91:Generated_Source\PSoC6/CapSense_Processing.c **** #if (0u != CapSense_CSX_MULTIPHASE_TX_EN)
  92:Generated_Source\PSoC6/CapSense_Processing.c ****     static uint16 deconvRowData[CapSense_CSX_MAX_TX_PHASE_LENGTH];
  93:Generated_Source\PSoC6/CapSense_Processing.c **** #endif
  94:Generated_Source\PSoC6/CapSense_Processing.c **** 
  95:Generated_Source\PSoC6/CapSense_Processing.c **** 
  96:Generated_Source\PSoC6/CapSense_Processing.c **** /**************************************************************************************************
  97:Generated_Source\PSoC6/CapSense_Processing.c **** * Static Function Prototypes
  98:Generated_Source\PSoC6/CapSense_Processing.c **** ***************************************************************************************************
  99:Generated_Source\PSoC6/CapSense_Processing.c **** /**
 100:Generated_Source\PSoC6/CapSense_Processing.c **** * \cond SECTION_CYSENSE_INTERNAL
 101:Generated_Source\PSoC6/CapSense_Processing.c **** * \addtogroup group_cysense_internal
 102:Generated_Source\PSoC6/CapSense_Processing.c **** * \{
 103:Generated_Source\PSoC6/CapSense_Processing.c **** */
 104:Generated_Source\PSoC6/CapSense_Processing.c **** #if (0u != CapSense_TOTAL_LINEAR_SLIDERS)
 105:Generated_Source\PSoC6/CapSense_Processing.c ****     __STATIC_INLINE void DpUpdateLinSlider(
 106:Generated_Source\PSoC6/CapSense_Processing.c ****                         const uint16 newPos[], uint32 numTouches,
 107:Generated_Source\PSoC6/CapSense_Processing.c ****                         CapSense_FLASH_WD_STRUCT const *ptrFlashWdgt,
 108:Generated_Source\PSoC6/CapSense_Processing.c ****                         CapSense_RAM_WD_SLIDER_STRUCT *ptrRamWdgt);
 109:Generated_Source\PSoC6/CapSense_Processing.c **** #endif /* #if (0u != CapSense_TOTAL_LINEAR_SLIDERS) */
 110:Generated_Source\PSoC6/CapSense_Processing.c **** 
 111:Generated_Source\PSoC6/CapSense_Processing.c **** #if (0u != CapSense_TOTAL_RADIAL_SLIDERS)
 112:Generated_Source\PSoC6/CapSense_Processing.c ****     __STATIC_INLINE void DpUpdateRadSlider(
 113:Generated_Source\PSoC6/CapSense_Processing.c ****                         const uint16 newPos[], uint32 numTouches,
 114:Generated_Source\PSoC6/CapSense_Processing.c ****                         CapSense_FLASH_WD_STRUCT const * ptrFlashWdgt,
 115:Generated_Source\PSoC6/CapSense_Processing.c ****                         CapSense_RAM_WD_SLIDER_STRUCT *ptrRamWdgt);
 116:Generated_Source\PSoC6/CapSense_Processing.c **** #endif /* #if (0u != CapSense_TOTAL_RADIAL_SLIDERS) */
 117:Generated_Source\PSoC6/CapSense_Processing.c **** 
 118:Generated_Source\PSoC6/CapSense_Processing.c **** #if (0u != CapSense_CSD_TOUCHPAD_WIDGET_EN)
 119:Generated_Source\PSoC6/CapSense_Processing.c ****     __STATIC_INLINE void CapSense_DpInitCsdTouchpad(CapSense_FLASH_WD_STRUCT const * ptrFlashWdgt);
 120:Generated_Source\PSoC6/CapSense_Processing.c **** #endif /* #if (0u != CapSense_CSD_TOUCHPAD_WIDGET_EN) */
 121:Generated_Source\PSoC6/CapSense_Processing.c **** 
 122:Generated_Source\PSoC6/CapSense_Processing.c **** #if (0u != CapSense_CSX_TOUCHPAD_WIDGET_EN)
 123:Generated_Source\PSoC6/CapSense_Processing.c ****     __STATIC_INLINE void CapSense_DpInitCsxTouchpad(CapSense_FLASH_WD_STRUCT const * ptrFlashWdgt);
 124:Generated_Source\PSoC6/CapSense_Processing.c **** #endif /* #if (0u != CapSense_CSX_TOUCHPAD_WIDGET_EN) */
 125:Generated_Source\PSoC6/CapSense_Processing.c **** 
 126:Generated_Source\PSoC6/CapSense_Processing.c **** #if (0u != CapSense_SLIDER_WIDGET_EN)
 127:Generated_Source\PSoC6/CapSense_Processing.c ****     __STATIC_INLINE void CapSense_DpInitSlider(CapSense_FLASH_WD_STRUCT const * ptrFlashWdgt);
 128:Generated_Source\PSoC6/CapSense_Processing.c **** #endif /* #if (0u != CapSense_SLIDER_WIDGET_EN) */
 129:Generated_Source\PSoC6/CapSense_Processing.c **** 
 130:Generated_Source\PSoC6/CapSense_Processing.c **** #if (0u != CapSense_CSD_MATRIX_WIDGET_EN)
 131:Generated_Source\PSoC6/CapSense_Processing.c ****     __STATIC_INLINE void CapSense_DpInitCsdMatrix(CapSense_FLASH_WD_STRUCT const * ptrFlashWdgt);
 132:Generated_Source\PSoC6/CapSense_Processing.c **** #endif /* #if (0u != CapSense_CSD_MATRIX_WIDGET_EN) */
 133:Generated_Source\PSoC6/CapSense_Processing.c **** 
 134:Generated_Source\PSoC6/CapSense_Processing.c **** /** \}
 135:Generated_Source\PSoC6/CapSense_Processing.c **** * \endcond */
 136:Generated_Source\PSoC6/CapSense_Processing.c **** 
 137:Generated_Source\PSoC6/CapSense_Processing.c **** #if (0u != CapSense_CSD_TOUCHPAD_WIDGET_EN)
 138:Generated_Source\PSoC6/CapSense_Processing.c **** /*******************************************************************************
 139:Generated_Source\PSoC6/CapSense_Processing.c **** * Function Name: CapSense_DpInitCsdTouchpad
 140:Generated_Source\PSoC6/CapSense_Processing.c **** ****************************************************************************//**
 141:Generated_Source\PSoC6/CapSense_Processing.c **** *
 142:Generated_Source\PSoC6/CapSense_Processing.c **** * \brief
 143:Generated_Source\PSoC6/CapSense_Processing.c **** *  Performs initialization of the CSD touchpad widget.
 144:Generated_Source\PSoC6/CapSense_Processing.c **** *   - Resets the position data to NONE
ARM GAS  C:\Users\ikomb\AppData\Local\Temp\cc6TxH90.s 			page 4


 145:Generated_Source\PSoC6/CapSense_Processing.c **** *   - Initializes the position filter history if enabled.
 146:Generated_Source\PSoC6/CapSense_Processing.c **** *
 147:Generated_Source\PSoC6/CapSense_Processing.c **** * \details
 148:Generated_Source\PSoC6/CapSense_Processing.c **** *  The position data is always reset to the CapSense_TOUCHPAD_POS_NONE value.
 149:Generated_Source\PSoC6/CapSense_Processing.c **** *  The same happens to the position filter history data if enabled.
 150:Generated_Source\PSoC6/CapSense_Processing.c **** *
 151:Generated_Source\PSoC6/CapSense_Processing.c **** *******************************************************************************/
 152:Generated_Source\PSoC6/CapSense_Processing.c **** __STATIC_INLINE void CapSense_DpInitCsdTouchpad(CapSense_FLASH_WD_STRUCT const * ptrFlashWdgt)
 153:Generated_Source\PSoC6/CapSense_Processing.c **** {
 154:Generated_Source\PSoC6/CapSense_Processing.c ****     #if (CapSense_ENABLE == CapSense_CENTROID_5X5_CSD_EN)
 155:Generated_Source\PSoC6/CapSense_Processing.c ****         uint32 touchIndex;
 156:Generated_Source\PSoC6/CapSense_Processing.c ****     #endif
 157:Generated_Source\PSoC6/CapSense_Processing.c **** 
 158:Generated_Source\PSoC6/CapSense_Processing.c ****     CapSense_RAM_WD_CSD_TOUCHPAD_STRUCT *ptrWdTouchpad;
 159:Generated_Source\PSoC6/CapSense_Processing.c **** 
 160:Generated_Source\PSoC6/CapSense_Processing.c ****     #if (0u != CapSense_POSITION_FILTER_EN)
 161:Generated_Source\PSoC6/CapSense_Processing.c ****         CapSense_TOUCHPAD_POS_HISTORY_STRUCT *ptrHistory;
 162:Generated_Source\PSoC6/CapSense_Processing.c ****     #endif  /* #if (0u != CapSense_POSITION_FILTER_EN) */
 163:Generated_Source\PSoC6/CapSense_Processing.c **** 
 164:Generated_Source\PSoC6/CapSense_Processing.c ****     #if (0u != CapSense_POS_ADAPTIVE_IIR_FILTER_EN)
 165:Generated_Source\PSoC6/CapSense_Processing.c ****         ADAPTIVE_FILTER_CONTEXT_STRUCT adpContext;
 166:Generated_Source\PSoC6/CapSense_Processing.c ****     #endif /* (0u != CapSense_POS_ADAPTIVE_IIR_FILTER_EN) */
 167:Generated_Source\PSoC6/CapSense_Processing.c **** 
 168:Generated_Source\PSoC6/CapSense_Processing.c ****     ptrWdTouchpad = ptrFlashWdgt->ptr2WdgtRam;
 169:Generated_Source\PSoC6/CapSense_Processing.c **** 
 170:Generated_Source\PSoC6/CapSense_Processing.c ****     /* Reset position data */
 171:Generated_Source\PSoC6/CapSense_Processing.c ****     #if (CapSense_ENABLE == CapSense_CENTROID_5X5_CSD_EN)
 172:Generated_Source\PSoC6/CapSense_Processing.c ****         #if (CapSense_ENABLE == CapSense_CENTROID_3X3_CSD_EN)
 173:Generated_Source\PSoC6/CapSense_Processing.c ****             if (0u != (ptrFlashWdgt->staticConfig & CapSense_CENTROID_5X5_MASK))
 174:Generated_Source\PSoC6/CapSense_Processing.c ****             {
 175:Generated_Source\PSoC6/CapSense_Processing.c ****         #endif
 176:Generated_Source\PSoC6/CapSense_Processing.c **** 
 177:Generated_Source\PSoC6/CapSense_Processing.c ****         ptrWdTouchpad->position.touchNum = 0u;
 178:Generated_Source\PSoC6/CapSense_Processing.c **** 
 179:Generated_Source\PSoC6/CapSense_Processing.c ****         #if (0u != CapSense_POSITION_FILTER_EN)
 180:Generated_Source\PSoC6/CapSense_Processing.c ****             ptrHistory = ptrFlashWdgt->ptr2PosHistory;
 181:Generated_Source\PSoC6/CapSense_Processing.c ****         #endif /* (0u != CapSense_POSITION_FILTER_EN) */
 182:Generated_Source\PSoC6/CapSense_Processing.c **** 
 183:Generated_Source\PSoC6/CapSense_Processing.c ****         for (touchIndex = 0u; touchIndex < ADVANCED_CENTROID_MAX_TOUCHES; touchIndex++)
 184:Generated_Source\PSoC6/CapSense_Processing.c ****         {
 185:Generated_Source\PSoC6/CapSense_Processing.c ****             ptrWdTouchpad->position.pos[touchIndex].x = ADVANCED_CENTROID_POSITION_NONE;
 186:Generated_Source\PSoC6/CapSense_Processing.c ****             ptrWdTouchpad->position.pos[touchIndex].y = ADVANCED_CENTROID_POSITION_NONE;
 187:Generated_Source\PSoC6/CapSense_Processing.c ****             ptrWdTouchpad->position.pos[touchIndex].zX = ADVANCED_CENTROID_POSITION_NONE;
 188:Generated_Source\PSoC6/CapSense_Processing.c ****             ptrWdTouchpad->position.pos[touchIndex].zY = ADVANCED_CENTROID_POSITION_NONE;
 189:Generated_Source\PSoC6/CapSense_Processing.c **** 
 190:Generated_Source\PSoC6/CapSense_Processing.c ****             /* Clear position filter history data if available */
 191:Generated_Source\PSoC6/CapSense_Processing.c ****             #if (0u != CapSense_POSITION_FILTER_EN)
 192:Generated_Source\PSoC6/CapSense_Processing.c ****                 if (NULL != ptrHistory)
 193:Generated_Source\PSoC6/CapSense_Processing.c ****                 {
 194:Generated_Source\PSoC6/CapSense_Processing.c ****                     CapSense_InitPosFiltersDd(&ptrHistory[touchIndex], CapSense_TOUCHPAD_POS_NONE, 
 195:Generated_Source\PSoC6/CapSense_Processing.c ****                     #if (0u != CapSense_POS_ADAPTIVE_IIR_FILTER_EN)
 196:Generated_Source\PSoC6/CapSense_Processing.c ****                         AdaptiveFilter_Initialize(&ptrWdTouchpad->aiirConfig, &adpContext);
 197:Generated_Source\PSoC6/CapSense_Processing.c ****                         ptrHistory[touchIndex].xPos.posAIIRCoeff = adpContext.coefficient;
 198:Generated_Source\PSoC6/CapSense_Processing.c ****                         ptrHistory[touchIndex].yPos.posAIIRCoeff = adpContext.coefficient;
 199:Generated_Source\PSoC6/CapSense_Processing.c ****                     #endif /* (0u != CapSense_POS_ADAPTIVE_IIR_FILTER_EN) */
 200:Generated_Source\PSoC6/CapSense_Processing.c ****                 }
 201:Generated_Source\PSoC6/CapSense_Processing.c ****             #endif /* (0u != CapSense_POSITION_FILTER_EN) */
ARM GAS  C:\Users\ikomb\AppData\Local\Temp\cc6TxH90.s 			page 5


 202:Generated_Source\PSoC6/CapSense_Processing.c ****         }
 203:Generated_Source\PSoC6/CapSense_Processing.c **** 
 204:Generated_Source\PSoC6/CapSense_Processing.c ****         #if (CapSense_ENABLE == CapSense_CENTROID_3X3_CSD_EN)
 205:Generated_Source\PSoC6/CapSense_Processing.c ****             }
 206:Generated_Source\PSoC6/CapSense_Processing.c ****         #endif
 207:Generated_Source\PSoC6/CapSense_Processing.c ****     #endif
 208:Generated_Source\PSoC6/CapSense_Processing.c **** 
 209:Generated_Source\PSoC6/CapSense_Processing.c ****     #if (CapSense_ENABLE == CapSense_CENTROID_3X3_CSD_EN)
 210:Generated_Source\PSoC6/CapSense_Processing.c ****         if (0u != (ptrFlashWdgt->staticConfig & CapSense_CENTROID_3X3_MASK))
 211:Generated_Source\PSoC6/CapSense_Processing.c ****         {
 212:Generated_Source\PSoC6/CapSense_Processing.c ****             ptrWdTouchpad->posX = CapSense_TOUCHPAD_POS_NONE;
 213:Generated_Source\PSoC6/CapSense_Processing.c ****             ptrWdTouchpad->posY = CapSense_TOUCHPAD_POS_NONE;
 214:Generated_Source\PSoC6/CapSense_Processing.c **** 
 215:Generated_Source\PSoC6/CapSense_Processing.c ****             /* Clear position filter history data if available */
 216:Generated_Source\PSoC6/CapSense_Processing.c ****             #if (0u != CapSense_POSITION_FILTER_EN)
 217:Generated_Source\PSoC6/CapSense_Processing.c ****                 ptrHistory = ptrFlashWdgt->ptr2PosHistory;
 218:Generated_Source\PSoC6/CapSense_Processing.c ****                 CapSense_InitPosFiltersDd(ptrHistory, CapSense_TOUCHPAD_POS_NONE, CapSense_TOUCHPAD
 219:Generated_Source\PSoC6/CapSense_Processing.c **** 
 220:Generated_Source\PSoC6/CapSense_Processing.c ****                 #if (0u != CapSense_POS_ADAPTIVE_IIR_FILTER_EN)
 221:Generated_Source\PSoC6/CapSense_Processing.c ****                     if (NULL != ptrHistory)
 222:Generated_Source\PSoC6/CapSense_Processing.c ****                     {
 223:Generated_Source\PSoC6/CapSense_Processing.c ****                         AdaptiveFilter_Initialize(&ptrWdTouchpad->aiirConfig, &adpContext);
 224:Generated_Source\PSoC6/CapSense_Processing.c ****                         ptrHistory->xPos.posAIIRCoeff = adpContext.coefficient;
 225:Generated_Source\PSoC6/CapSense_Processing.c ****                         ptrHistory->yPos.posAIIRCoeff = adpContext.coefficient;
 226:Generated_Source\PSoC6/CapSense_Processing.c ****                     }
 227:Generated_Source\PSoC6/CapSense_Processing.c ****                 #endif /* (0u != CapSense_POS_ADAPTIVE_IIR_FILTER_EN) */
 228:Generated_Source\PSoC6/CapSense_Processing.c ****             #endif /* (0u != CapSense_POSITION_FILTER_EN) */
 229:Generated_Source\PSoC6/CapSense_Processing.c ****         }
 230:Generated_Source\PSoC6/CapSense_Processing.c ****     #endif
 231:Generated_Source\PSoC6/CapSense_Processing.c **** }
 232:Generated_Source\PSoC6/CapSense_Processing.c **** #endif /* #if (0u != CapSense_CSD_TOUCHPAD_WIDGET_EN) */
 233:Generated_Source\PSoC6/CapSense_Processing.c **** 
 234:Generated_Source\PSoC6/CapSense_Processing.c **** #if (0u != CapSense_CSX_TOUCHPAD_WIDGET_EN)
 235:Generated_Source\PSoC6/CapSense_Processing.c **** /*******************************************************************************
 236:Generated_Source\PSoC6/CapSense_Processing.c **** * Function Name: CapSense_DpInitCsxTouchpad
 237:Generated_Source\PSoC6/CapSense_Processing.c **** ****************************************************************************//**
 238:Generated_Source\PSoC6/CapSense_Processing.c **** *
 239:Generated_Source\PSoC6/CapSense_Processing.c **** * \brief
 240:Generated_Source\PSoC6/CapSense_Processing.c **** *  Performs initialization of the CSX touchpad widget i.e. Resets the position data to NONE.
 241:Generated_Source\PSoC6/CapSense_Processing.c **** *
 242:Generated_Source\PSoC6/CapSense_Processing.c **** * \details
 243:Generated_Source\PSoC6/CapSense_Processing.c **** *  The position data is always reset to the CapSense_TOUCHPAD_POS_NONE value.
 244:Generated_Source\PSoC6/CapSense_Processing.c **** *
 245:Generated_Source\PSoC6/CapSense_Processing.c **** *******************************************************************************/
 246:Generated_Source\PSoC6/CapSense_Processing.c **** __STATIC_INLINE void CapSense_DpInitCsxTouchpad(CapSense_FLASH_WD_STRUCT const * ptrFlashWdgt)
 247:Generated_Source\PSoC6/CapSense_Processing.c **** {
 248:Generated_Source\PSoC6/CapSense_Processing.c ****     CapSense_RAM_WD_CSX_TOUCHPAD_STRUCT *ptrWdTouchpad;
 249:Generated_Source\PSoC6/CapSense_Processing.c **** 
 250:Generated_Source\PSoC6/CapSense_Processing.c ****     #if (0u != CapSense_POSITION_FILTER_EN)
 251:Generated_Source\PSoC6/CapSense_Processing.c ****         uint32 touchIndex;
 252:Generated_Source\PSoC6/CapSense_Processing.c ****         CapSense_TOUCHPAD_POS_HISTORY_STRUCT *ptrHistory;
 253:Generated_Source\PSoC6/CapSense_Processing.c ****     #endif  /* #if (0u != CapSense_POSITION_FILTER_EN) */
 254:Generated_Source\PSoC6/CapSense_Processing.c **** 
 255:Generated_Source\PSoC6/CapSense_Processing.c ****     #if (0u != CapSense_POS_ADAPTIVE_IIR_FILTER_EN)
 256:Generated_Source\PSoC6/CapSense_Processing.c ****         ADAPTIVE_FILTER_CONTEXT_STRUCT adpContext;
 257:Generated_Source\PSoC6/CapSense_Processing.c ****     #endif /* (0u != CapSense_POS_ADAPTIVE_IIR_FILTER_EN) */
 258:Generated_Source\PSoC6/CapSense_Processing.c **** 
ARM GAS  C:\Users\ikomb\AppData\Local\Temp\cc6TxH90.s 			page 6


 259:Generated_Source\PSoC6/CapSense_Processing.c ****     ptrWdTouchpad = ptrFlashWdgt->ptr2WdgtRam;
 260:Generated_Source\PSoC6/CapSense_Processing.c **** 
 261:Generated_Source\PSoC6/CapSense_Processing.c ****     #if (0u != CapSense_POSITION_FILTER_EN)
 262:Generated_Source\PSoC6/CapSense_Processing.c ****         ptrHistory = ptrFlashWdgt->ptr2PosHistory;
 263:Generated_Source\PSoC6/CapSense_Processing.c ****     #endif /* (0u != CapSense_POSITION_FILTER_EN) */
 264:Generated_Source\PSoC6/CapSense_Processing.c **** 
 265:Generated_Source\PSoC6/CapSense_Processing.c ****     /* Reset position data for finger */
 266:Generated_Source\PSoC6/CapSense_Processing.c ****     ptrWdTouchpad->touch[0u].x = CapSense_TOUCHPAD_POS_NONE;
 267:Generated_Source\PSoC6/CapSense_Processing.c ****     ptrWdTouchpad->touch[0u].y = CapSense_TOUCHPAD_POS_NONE;
 268:Generated_Source\PSoC6/CapSense_Processing.c ****     ptrWdTouchpad->touch[0u].z = CY_LO8(CapSense_TOUCHPAD_POS_NONE);
 269:Generated_Source\PSoC6/CapSense_Processing.c **** 
 270:Generated_Source\PSoC6/CapSense_Processing.c ****     #if (CapSense_CSX_MAX_FINGERS > 1u)
 271:Generated_Source\PSoC6/CapSense_Processing.c ****         ptrWdTouchpad->touch[1u].x = CapSense_TOUCHPAD_POS_NONE;
 272:Generated_Source\PSoC6/CapSense_Processing.c ****         ptrWdTouchpad->touch[1u].y = CapSense_TOUCHPAD_POS_NONE;
 273:Generated_Source\PSoC6/CapSense_Processing.c ****         ptrWdTouchpad->touch[1u].z = CY_LO8(CapSense_TOUCHPAD_POS_NONE);
 274:Generated_Source\PSoC6/CapSense_Processing.c ****     #endif /* #if (CapSense_CSX_MAX_FINGERS > 1u) */
 275:Generated_Source\PSoC6/CapSense_Processing.c **** 
 276:Generated_Source\PSoC6/CapSense_Processing.c ****     #if (CapSense_CSX_MAX_FINGERS > 2u)
 277:Generated_Source\PSoC6/CapSense_Processing.c ****         ptrWdTouchpad->touch[2u].x = CapSense_TOUCHPAD_POS_NONE;
 278:Generated_Source\PSoC6/CapSense_Processing.c ****         ptrWdTouchpad->touch[2u].y = CapSense_TOUCHPAD_POS_NONE;
 279:Generated_Source\PSoC6/CapSense_Processing.c ****         ptrWdTouchpad->touch[2u].z = CY_LO8(CapSense_TOUCHPAD_POS_NONE);
 280:Generated_Source\PSoC6/CapSense_Processing.c ****     #endif /* #if (CapSense_CSX_MAX_FINGERS > 2u) */
 281:Generated_Source\PSoC6/CapSense_Processing.c **** 
 282:Generated_Source\PSoC6/CapSense_Processing.c ****     #if (0u != CapSense_POSITION_FILTER_EN)
 283:Generated_Source\PSoC6/CapSense_Processing.c ****         for (touchIndex = 0u; touchIndex < CapSense_CSX_MAX_FINGERS; touchIndex++)
 284:Generated_Source\PSoC6/CapSense_Processing.c ****         {
 285:Generated_Source\PSoC6/CapSense_Processing.c ****             if (NULL != ptrHistory)
 286:Generated_Source\PSoC6/CapSense_Processing.c ****             {
 287:Generated_Source\PSoC6/CapSense_Processing.c ****                 /* Clear position filter history data if available */
 288:Generated_Source\PSoC6/CapSense_Processing.c ****                 CapSense_InitPosFiltersDd(&ptrHistory[touchIndex], CapSense_TOUCHPAD_POS_NONE, CapS
 289:Generated_Source\PSoC6/CapSense_Processing.c ****                 #if (0u != CapSense_POS_ADAPTIVE_IIR_FILTER_EN)
 290:Generated_Source\PSoC6/CapSense_Processing.c ****                     AdaptiveFilter_Initialize(&ptrWdTouchpad->aiirConfig, &adpContext);
 291:Generated_Source\PSoC6/CapSense_Processing.c ****                     ptrHistory[touchIndex].xPos.posAIIRCoeff = adpContext.coefficient;
 292:Generated_Source\PSoC6/CapSense_Processing.c ****                     ptrHistory[touchIndex].yPos.posAIIRCoeff = adpContext.coefficient;
 293:Generated_Source\PSoC6/CapSense_Processing.c ****                 #endif /* (0u != CapSense_POS_ADAPTIVE_IIR_FILTER_EN) */
 294:Generated_Source\PSoC6/CapSense_Processing.c ****             }
 295:Generated_Source\PSoC6/CapSense_Processing.c ****         }
 296:Generated_Source\PSoC6/CapSense_Processing.c ****     #endif /* (0u != CapSense_POSITION_FILTER_EN) */
 297:Generated_Source\PSoC6/CapSense_Processing.c **** }
 298:Generated_Source\PSoC6/CapSense_Processing.c **** #endif /* #if (0u != CapSense_CSX_TOUCHPAD_WIDGET_EN) */
 299:Generated_Source\PSoC6/CapSense_Processing.c **** 
 300:Generated_Source\PSoC6/CapSense_Processing.c **** #if (0u != CapSense_SLIDER_WIDGET_EN)
 301:Generated_Source\PSoC6/CapSense_Processing.c **** /*******************************************************************************
 302:Generated_Source\PSoC6/CapSense_Processing.c **** * Function Name: CapSense_DpInitSlider
 303:Generated_Source\PSoC6/CapSense_Processing.c **** ****************************************************************************//**
 304:Generated_Source\PSoC6/CapSense_Processing.c **** *
 305:Generated_Source\PSoC6/CapSense_Processing.c **** * \brief
 306:Generated_Source\PSoC6/CapSense_Processing.c **** *  Performs initialization of the Radial and Linear Slider widget.
 307:Generated_Source\PSoC6/CapSense_Processing.c **** *   - Resets the position data to NONE
 308:Generated_Source\PSoC6/CapSense_Processing.c **** *   - Initializes the position filter history to NONE if enabled.
 309:Generated_Source\PSoC6/CapSense_Processing.c **** *
 310:Generated_Source\PSoC6/CapSense_Processing.c **** * \details
 311:Generated_Source\PSoC6/CapSense_Processing.c **** *  Position data is always reset to the CapSense_SLIDER_POS_NONE value.
 312:Generated_Source\PSoC6/CapSense_Processing.c **** *  The same happens to the position filter history data if enabled.
 313:Generated_Source\PSoC6/CapSense_Processing.c **** *
 314:Generated_Source\PSoC6/CapSense_Processing.c **** *******************************************************************************/
 315:Generated_Source\PSoC6/CapSense_Processing.c **** __STATIC_INLINE void CapSense_DpInitSlider(CapSense_FLASH_WD_STRUCT const * ptrFlashWdgt)
ARM GAS  C:\Users\ikomb\AppData\Local\Temp\cc6TxH90.s 			page 7


 316:Generated_Source\PSoC6/CapSense_Processing.c **** {
 317:Generated_Source\PSoC6/CapSense_Processing.c ****     uint32 idx;
 318:Generated_Source\PSoC6/CapSense_Processing.c ****     CapSense_RAM_WD_SLIDER_STRUCT *ptrWdSlider;
 319:Generated_Source\PSoC6/CapSense_Processing.c **** 
 320:Generated_Source\PSoC6/CapSense_Processing.c ****     #if (0u != CapSense_POSITION_FILTER_EN)
 321:Generated_Source\PSoC6/CapSense_Processing.c ****         CapSense_SLIDER_POS_HISTORY_STRUCT *ptrHistory;
 322:Generated_Source\PSoC6/CapSense_Processing.c ****     #endif /* #if (0u != CapSense_POSITION_FILTER_EN) */
 323:Generated_Source\PSoC6/CapSense_Processing.c **** 
 324:Generated_Source\PSoC6/CapSense_Processing.c ****     #if (0u != CapSense_POS_ADAPTIVE_IIR_FILTER_EN)
 325:Generated_Source\PSoC6/CapSense_Processing.c ****         ADAPTIVE_FILTER_CONTEXT_STRUCT context;
 326:Generated_Source\PSoC6/CapSense_Processing.c ****     #endif /* (0u != CapSense_POS_ADAPTIVE_IIR_FILTER_EN) */
 327:Generated_Source\PSoC6/CapSense_Processing.c **** 
 328:Generated_Source\PSoC6/CapSense_Processing.c ****     ptrWdSlider = ptrFlashWdgt->ptr2WdgtRam;
 329:Generated_Source\PSoC6/CapSense_Processing.c **** 
 330:Generated_Source\PSoC6/CapSense_Processing.c ****     /* Reset slider position data to NONE */
 331:Generated_Source\PSoC6/CapSense_Processing.c ****     for (idx = 0u; idx < CapSense_NUM_CENTROIDS; idx++)
 332:Generated_Source\PSoC6/CapSense_Processing.c ****     {
 333:Generated_Source\PSoC6/CapSense_Processing.c ****         ptrWdSlider->position[idx] = CapSense_SLIDER_POS_NONE;
 334:Generated_Source\PSoC6/CapSense_Processing.c **** 
 335:Generated_Source\PSoC6/CapSense_Processing.c ****         #if (0u != CapSense_POSITION_FILTER_EN)
 336:Generated_Source\PSoC6/CapSense_Processing.c ****             ptrHistory = ptrFlashWdgt->ptr2PosHistory;
 337:Generated_Source\PSoC6/CapSense_Processing.c ****             if (NULL != ptrHistory)
 338:Generated_Source\PSoC6/CapSense_Processing.c ****             {
 339:Generated_Source\PSoC6/CapSense_Processing.c ****                 CapSense_InitPosFiltersSd(&ptrHistory[idx], CapSense_SLIDER_POS_NONE);
 340:Generated_Source\PSoC6/CapSense_Processing.c ****                 #if (0u != CapSense_POS_ADAPTIVE_IIR_FILTER_EN)
 341:Generated_Source\PSoC6/CapSense_Processing.c ****                     AdaptiveFilter_Initialize(&ptrWdSlider->aiirConfig, &context);
 342:Generated_Source\PSoC6/CapSense_Processing.c ****                     ptrHistory->posAIIRCoeff = context.coefficient;
 343:Generated_Source\PSoC6/CapSense_Processing.c ****                 #endif /* (0u != CapSense_POS_ADAPTIVE_IIR_FILTER_EN) */
 344:Generated_Source\PSoC6/CapSense_Processing.c ****             }
 345:Generated_Source\PSoC6/CapSense_Processing.c **** 
 346:Generated_Source\PSoC6/CapSense_Processing.c ****         #endif /* #if (0u != CapSense_POSITION_FILTER_EN) */
 347:Generated_Source\PSoC6/CapSense_Processing.c ****     }
 348:Generated_Source\PSoC6/CapSense_Processing.c **** }
 349:Generated_Source\PSoC6/CapSense_Processing.c **** #endif /* #if (0u != CapSense_SLIDER_WIDGET_EN) */
 350:Generated_Source\PSoC6/CapSense_Processing.c **** 
 351:Generated_Source\PSoC6/CapSense_Processing.c **** #if (0u != CapSense_CSD_MATRIX_WIDGET_EN)
 352:Generated_Source\PSoC6/CapSense_Processing.c **** /*******************************************************************************
 353:Generated_Source\PSoC6/CapSense_Processing.c **** * Function Name: CapSense_DpInitCsdMatrix
 354:Generated_Source\PSoC6/CapSense_Processing.c **** ****************************************************************************//**
 355:Generated_Source\PSoC6/CapSense_Processing.c **** *
 356:Generated_Source\PSoC6/CapSense_Processing.c **** * \brief
 357:Generated_Source\PSoC6/CapSense_Processing.c **** *  Performs initialization of the CSD Matrix Buttons widget.
 358:Generated_Source\PSoC6/CapSense_Processing.c **** *   - Resets the active button position data to NONE.
 359:Generated_Source\PSoC6/CapSense_Processing.c **** *
 360:Generated_Source\PSoC6/CapSense_Processing.c **** * \details
 361:Generated_Source\PSoC6/CapSense_Processing.c **** *  Position data is always reset to the CapSense_MATRIX_POS_NONE value.
 362:Generated_Source\PSoC6/CapSense_Processing.c **** *
 363:Generated_Source\PSoC6/CapSense_Processing.c **** *******************************************************************************/
 364:Generated_Source\PSoC6/CapSense_Processing.c **** __STATIC_INLINE void CapSense_DpInitCsdMatrix(CapSense_FLASH_WD_STRUCT const * ptrFlashWdgt)
 365:Generated_Source\PSoC6/CapSense_Processing.c **** {
 366:Generated_Source\PSoC6/CapSense_Processing.c ****     CapSense_RAM_WD_CSD_MATRIX_STRUCT *ptrRamWdgt;
 367:Generated_Source\PSoC6/CapSense_Processing.c **** 
 368:Generated_Source\PSoC6/CapSense_Processing.c ****     ptrRamWdgt = (CapSense_RAM_WD_CSD_MATRIX_STRUCT *)ptrFlashWdgt->ptr2WdgtRam;
 369:Generated_Source\PSoC6/CapSense_Processing.c **** 
 370:Generated_Source\PSoC6/CapSense_Processing.c ****     /* Reset sensor id, row and col registers in data structure */
 371:Generated_Source\PSoC6/CapSense_Processing.c ****     ptrRamWdgt->posRow   = CapSense_MATRIX_POS_NONE;
 372:Generated_Source\PSoC6/CapSense_Processing.c ****     ptrRamWdgt->posCol   = CapSense_MATRIX_POS_NONE;
ARM GAS  C:\Users\ikomb\AppData\Local\Temp\cc6TxH90.s 			page 8


 373:Generated_Source\PSoC6/CapSense_Processing.c ****     ptrRamWdgt->posSnsId = CapSense_MATRIX_POS_NONE;
 374:Generated_Source\PSoC6/CapSense_Processing.c **** }
 375:Generated_Source\PSoC6/CapSense_Processing.c **** #endif /* #if (0u != CapSense_CSD_MATRIX_WIDGET_EN) */
 376:Generated_Source\PSoC6/CapSense_Processing.c **** 
 377:Generated_Source\PSoC6/CapSense_Processing.c **** /*******************************************************************************
 378:Generated_Source\PSoC6/CapSense_Processing.c **** * Function Name: CapSense_DpInitialize
 379:Generated_Source\PSoC6/CapSense_Processing.c **** ****************************************************************************//**
 380:Generated_Source\PSoC6/CapSense_Processing.c **** *
 381:Generated_Source\PSoC6/CapSense_Processing.c **** * \brief
 382:Generated_Source\PSoC6/CapSense_Processing.c **** *  Performs initialization of the data processing FW module:
 383:Generated_Source\PSoC6/CapSense_Processing.c **** *   - Resets the de-bounce counters of all the widgets
 384:Generated_Source\PSoC6/CapSense_Processing.c **** *   - Resets the position filter history for slider and touchpad widgets
 385:Generated_Source\PSoC6/CapSense_Processing.c **** *   - Clears widget and sensor statuses
 386:Generated_Source\PSoC6/CapSense_Processing.c **** *   - Enables all the widgets.
 387:Generated_Source\PSoC6/CapSense_Processing.c **** *
 388:Generated_Source\PSoC6/CapSense_Processing.c **** * \details
 389:Generated_Source\PSoC6/CapSense_Processing.c **** *  The Button and Matrix Button widgets have individual de-bounce counter per
 390:Generated_Source\PSoC6/CapSense_Processing.c **** *  sensor for the CSD widgets and per node for the CSX widgets.
 391:Generated_Source\PSoC6/CapSense_Processing.c **** *
 392:Generated_Source\PSoC6/CapSense_Processing.c **** *  The Slider and Touchpad widgets have a single de-bounce counter per widget.
 393:Generated_Source\PSoC6/CapSense_Processing.c **** *
 394:Generated_Source\PSoC6/CapSense_Processing.c **** *  The Proximity widget has two de-bounce counters per sensor. One for the
 395:Generated_Source\PSoC6/CapSense_Processing.c **** *  proximity event and second for the touch event.
 396:Generated_Source\PSoC6/CapSense_Processing.c **** *
 397:Generated_Source\PSoC6/CapSense_Processing.c **** *  All debounce counters during initialization are set to the value of the
 398:Generated_Source\PSoC6/CapSense_Processing.c **** *  onDebounce widget parameter.
 399:Generated_Source\PSoC6/CapSense_Processing.c **** *
 400:Generated_Source\PSoC6/CapSense_Processing.c **** *******************************************************************************/
 401:Generated_Source\PSoC6/CapSense_Processing.c **** void CapSense_DpInitialize(void)
 402:Generated_Source\PSoC6/CapSense_Processing.c **** {
  28              		.loc 1 402 0
  29              		.cfi_startproc
  30              		@ args = 0, pretend = 0, frame = 0
  31              		@ frame_needed = 0, uses_anonymous_args = 0
  32 0000 F8B5     		push	{r3, r4, r5, r6, r7, lr}
  33              		.cfi_def_cfa_offset 24
  34              		.cfi_offset 3, -24
  35              		.cfi_offset 4, -20
  36              		.cfi_offset 5, -16
  37              		.cfi_offset 6, -12
  38              		.cfi_offset 7, -8
  39              		.cfi_offset 14, -4
  40              	.LVL0:
 403:Generated_Source\PSoC6/CapSense_Processing.c ****     uint32 wdgtId;
 404:Generated_Source\PSoC6/CapSense_Processing.c ****     CapSense_WD_TYPE_ENUM widgetType;
 405:Generated_Source\PSoC6/CapSense_Processing.c ****     CapSense_RAM_WD_BASE_STRUCT * ptrRamWdgt;
 406:Generated_Source\PSoC6/CapSense_Processing.c ****     CapSense_FLASH_WD_STRUCT const * ptrFlashWdgt;
 407:Generated_Source\PSoC6/CapSense_Processing.c **** 
 408:Generated_Source\PSoC6/CapSense_Processing.c ****     for (wdgtId = 0u; wdgtId < CapSense_WDGT_STATUS_WORDS; wdgtId++)
  41              		.loc 1 408 0
  42 0002 0023     		movs	r3, #0
  43 0004 09E0     		b	.L2
  44              	.LVL1:
  45              	.L3:
 409:Generated_Source\PSoC6/CapSense_Processing.c ****     {
 410:Generated_Source\PSoC6/CapSense_Processing.c ****         /* Clear widget status */
 411:Generated_Source\PSoC6/CapSense_Processing.c ****         CapSense_dsRam.wdgtStatus[wdgtId] = 0u;
ARM GAS  C:\Users\ikomb\AppData\Local\Temp\cc6TxH90.s 			page 9


  46              		.loc 1 411 0 discriminator 3
  47 0006 2249     		ldr	r1, .L14
  48 0008 1A1D     		adds	r2, r3, #4
  49 000a 9200     		lsls	r2, r2, #2
  50 000c 8818     		adds	r0, r1, r2
  51 000e 0024     		movs	r4, #0
  52 0010 4460     		str	r4, [r0, #4]
 412:Generated_Source\PSoC6/CapSense_Processing.c **** 
 413:Generated_Source\PSoC6/CapSense_Processing.c ****         /* Enable all the widgets */
 414:Generated_Source\PSoC6/CapSense_Processing.c ****         CapSense_dsRam.wdgtEnable[wdgtId] = 0xFFFFFFFFLu;
  53              		.loc 1 414 0 discriminator 3
  54 0012 0120     		movs	r0, #1
  55 0014 4042     		rsbs	r0, r0, #0
  56 0016 5050     		str	r0, [r2, r1]
 408:Generated_Source\PSoC6/CapSense_Processing.c ****     {
  57              		.loc 1 408 0 discriminator 3
  58 0018 0133     		adds	r3, r3, #1
  59              	.LVL2:
  60              	.L2:
 408:Generated_Source\PSoC6/CapSense_Processing.c ****     {
  61              		.loc 1 408 0 is_stmt 0 discriminator 1
  62 001a 002B     		cmp	r3, #0
  63 001c F3D0     		beq	.L3
  64 001e 1D4C     		ldr	r4, .L14+4
  65 0020 0323     		movs	r3, #3
  66              	.LVL3:
  67 0022 30E0     		b	.L4
  68              	.LVL4:
  69              	.L12:
 415:Generated_Source\PSoC6/CapSense_Processing.c **** 
 416:Generated_Source\PSoC6/CapSense_Processing.c ****         /* Set all the widgets to working state if the Self-Test is not enabled */
 417:Generated_Source\PSoC6/CapSense_Processing.c ****         #if (0u != CapSense_SELF_TEST_EN)
 418:Generated_Source\PSoC6/CapSense_Processing.c ****             CapSense_dsRam.wdgtWorking[wdgtId] = 0xFFFFFFFFLu;
 419:Generated_Source\PSoC6/CapSense_Processing.c ****         #endif /* #if (0u == CapSense_SELF_TEST_EN) */
 420:Generated_Source\PSoC6/CapSense_Processing.c ****     }
 421:Generated_Source\PSoC6/CapSense_Processing.c **** 
 422:Generated_Source\PSoC6/CapSense_Processing.c ****     ptrFlashWdgt = CapSense_dsFlash.wdgtArray;
 423:Generated_Source\PSoC6/CapSense_Processing.c **** 
 424:Generated_Source\PSoC6/CapSense_Processing.c ****     for (wdgtId = CapSense_TOTAL_WIDGETS; wdgtId-- > 0u; )
 425:Generated_Source\PSoC6/CapSense_Processing.c ****     {
 426:Generated_Source\PSoC6/CapSense_Processing.c ****         ptrRamWdgt = (CapSense_RAM_WD_BASE_STRUCT *)ptrFlashWdgt->ptr2WdgtRam;
  70              		.loc 1 426 0 is_stmt 1
  71 0024 6668     		ldr	r6, [r4, #4]
  72              	.LVL5:
 427:Generated_Source\PSoC6/CapSense_Processing.c ****         widgetType = (CapSense_WD_TYPE_ENUM)ptrFlashWdgt->wdgtType;
  73              		.loc 1 427 0
  74 0026 A27E     		ldrb	r2, [r4, #26]
  75              	.LVL6:
 428:Generated_Source\PSoC6/CapSense_Processing.c **** 
 429:Generated_Source\PSoC6/CapSense_Processing.c ****         /* Clear all sensor statuses */
 430:Generated_Source\PSoC6/CapSense_Processing.c ****         CapSense_dsRam.snsStatus[wdgtId] = 0u;
  76              		.loc 1 430 0
  77 0028 194B     		ldr	r3, .L14
  78 002a 5B19     		adds	r3, r3, r5
  79 002c 0021     		movs	r1, #0
  80 002e 1976     		strb	r1, [r3, #24]
 431:Generated_Source\PSoC6/CapSense_Processing.c **** 
ARM GAS  C:\Users\ikomb\AppData\Local\Temp\cc6TxH90.s 			page 10


 432:Generated_Source\PSoC6/CapSense_Processing.c ****         /* Reset de-bounce counters */
 433:Generated_Source\PSoC6/CapSense_Processing.c ****         switch (widgetType)
  81              		.loc 1 433 0
  82 0030 012A     		cmp	r2, #1
  83 0032 04D0     		beq	.L6
  84 0034 002A     		cmp	r2, #0
  85 0036 24D0     		beq	.L5
  86 0038 032A     		cmp	r2, #3
  87 003a 08D9     		bls	.L13
  88 003c 21E0     		b	.L5
  89              	.L6:
 434:Generated_Source\PSoC6/CapSense_Processing.c ****         {
 435:Generated_Source\PSoC6/CapSense_Processing.c ****         #if (0u != CapSense_MATRIX_WIDGET_EN)
 436:Generated_Source\PSoC6/CapSense_Processing.c ****             case CapSense_WD_MATRIX_BUTTON_E:
 437:Generated_Source\PSoC6/CapSense_Processing.c ****                 #if (0u != CapSense_CSD_MATRIX_WIDGET_EN)
 438:Generated_Source\PSoC6/CapSense_Processing.c ****                     if (CapSense_SENSE_METHOD_CSD_E == CapSense_GET_SENSE_METHOD(ptrFlashWdgt))
 439:Generated_Source\PSoC6/CapSense_Processing.c ****                     {
 440:Generated_Source\PSoC6/CapSense_Processing.c ****                         CapSense_DpInitCsdMatrix(ptrFlashWdgt);
 441:Generated_Source\PSoC6/CapSense_Processing.c ****                     }
 442:Generated_Source\PSoC6/CapSense_Processing.c ****                 #endif /* #if (0u != CapSense_CSD_MATRIX_WIDGET_EN) */
 443:Generated_Source\PSoC6/CapSense_Processing.c **** 
 444:Generated_Source\PSoC6/CapSense_Processing.c ****                 if (NULL != ptrFlashWdgt->ptr2DebounceArr)
 445:Generated_Source\PSoC6/CapSense_Processing.c ****                 {
 446:Generated_Source\PSoC6/CapSense_Processing.c ****                     /* Initialize array of debounce counters */
 447:Generated_Source\PSoC6/CapSense_Processing.c ****                     (void)memset(ptrFlashWdgt->ptr2DebounceArr,
 448:Generated_Source\PSoC6/CapSense_Processing.c ****                                  (int32)ptrRamWdgt->onDebounce,
 449:Generated_Source\PSoC6/CapSense_Processing.c ****                                  (size_t)ptrFlashWdgt->totalNumSns);
 450:Generated_Source\PSoC6/CapSense_Processing.c ****                 }
 451:Generated_Source\PSoC6/CapSense_Processing.c ****                 break;
 452:Generated_Source\PSoC6/CapSense_Processing.c ****         #endif /* #if (0u != CapSense_MATRIX_WIDGET_EN) */
 453:Generated_Source\PSoC6/CapSense_Processing.c **** 
 454:Generated_Source\PSoC6/CapSense_Processing.c ****         #if (0u != CapSense_BUTTON_WIDGET_EN)
 455:Generated_Source\PSoC6/CapSense_Processing.c ****             case CapSense_WD_BUTTON_E:
 456:Generated_Source\PSoC6/CapSense_Processing.c ****                 if (NULL != ptrFlashWdgt->ptr2DebounceArr)
  90              		.loc 1 456 0
  91 003e 2069     		ldr	r0, [r4, #16]
  92 0040 0028     		cmp	r0, #0
  93 0042 1ED0     		beq	.L5
 457:Generated_Source\PSoC6/CapSense_Processing.c ****                 {
 458:Generated_Source\PSoC6/CapSense_Processing.c ****                     /* Initialize array of debounce counters */
 459:Generated_Source\PSoC6/CapSense_Processing.c ****                     (void)memset(ptrFlashWdgt->ptr2DebounceArr,
 460:Generated_Source\PSoC6/CapSense_Processing.c ****                                  (int32)ptrRamWdgt->onDebounce,
  94              		.loc 1 460 0
  95 0044 F179     		ldrb	r1, [r6, #7]
 461:Generated_Source\PSoC6/CapSense_Processing.c ****                                  (size_t)ptrFlashWdgt->totalNumSns);
  96              		.loc 1 461 0
  97 0046 228B     		ldrh	r2, [r4, #24]
  98              	.LVL7:
 459:Generated_Source\PSoC6/CapSense_Processing.c ****                                  (int32)ptrRamWdgt->onDebounce,
  99              		.loc 1 459 0
 100 0048 FFF7FEFF 		bl	memset
 101              	.LVL8:
 102 004c 19E0     		b	.L5
 103              	.LVL9:
 104              	.L13:
 462:Generated_Source\PSoC6/CapSense_Processing.c ****                 }
 463:Generated_Source\PSoC6/CapSense_Processing.c ****                 break;
ARM GAS  C:\Users\ikomb\AppData\Local\Temp\cc6TxH90.s 			page 11


 464:Generated_Source\PSoC6/CapSense_Processing.c ****         #endif /* #if (0u != CapSense_BUTTON_WIDGET_EN) */
 465:Generated_Source\PSoC6/CapSense_Processing.c **** 
 466:Generated_Source\PSoC6/CapSense_Processing.c ****         #if (0u != CapSense_SLIDER_WIDGET_EN)
 467:Generated_Source\PSoC6/CapSense_Processing.c ****             case CapSense_WD_LINEAR_SLIDER_E:
 468:Generated_Source\PSoC6/CapSense_Processing.c ****             case CapSense_WD_RADIAL_SLIDER_E:
 469:Generated_Source\PSoC6/CapSense_Processing.c ****                 if (NULL != ptrFlashWdgt->ptr2DebounceArr)
 105              		.loc 1 469 0
 106 004e 2369     		ldr	r3, [r4, #16]
 107 0050 002B     		cmp	r3, #0
 108 0052 01D0     		beq	.L8
 470:Generated_Source\PSoC6/CapSense_Processing.c ****                 {
 471:Generated_Source\PSoC6/CapSense_Processing.c ****                     /* Initialize single debounce counter of slider */
 472:Generated_Source\PSoC6/CapSense_Processing.c ****                     *(uint8 *)(ptrFlashWdgt->ptr2DebounceArr) = ptrRamWdgt->onDebounce;
 109              		.loc 1 472 0
 110 0054 F279     		ldrb	r2, [r6, #7]
 111              	.LVL10:
 112 0056 1A70     		strb	r2, [r3]
 113              	.L8:
 114              	.LVL11:
 115              	.LBB4:
 116              	.LBB5:
 328:Generated_Source\PSoC6/CapSense_Processing.c **** 
 117              		.loc 1 328 0
 118 0058 6768     		ldr	r7, [r4, #4]
 119              	.LVL12:
 331:Generated_Source\PSoC6/CapSense_Processing.c ****     {
 120              		.loc 1 331 0
 121 005a 0026     		movs	r6, #0
 122              	.LVL13:
 123 005c 0FE0     		b	.L9
 124              	.LVL14:
 125              	.L11:
 333:Generated_Source\PSoC6/CapSense_Processing.c **** 
 126              		.loc 1 333 0
 127 005e 3300     		movs	r3, r6
 128 0060 0833     		adds	r3, r3, #8
 129 0062 5B00     		lsls	r3, r3, #1
 130 0064 FB18     		adds	r3, r7, r3
 131 0066 0122     		movs	r2, #1
 132 0068 5242     		rsbs	r2, r2, #0
 133 006a 5A80     		strh	r2, [r3, #2]
 336:Generated_Source\PSoC6/CapSense_Processing.c ****             if (NULL != ptrHistory)
 134              		.loc 1 336 0
 135 006c A06A     		ldr	r0, [r4, #40]
 136              	.LVL15:
 337:Generated_Source\PSoC6/CapSense_Processing.c ****             {
 137              		.loc 1 337 0
 138 006e 0028     		cmp	r0, #0
 139 0070 04D0     		beq	.L10
 339:Generated_Source\PSoC6/CapSense_Processing.c ****                 #if (0u != CapSense_POS_ADAPTIVE_IIR_FILTER_EN)
 140              		.loc 1 339 0
 141 0072 7300     		lsls	r3, r6, #1
 142 0074 C018     		adds	r0, r0, r3
 143              	.LVL16:
 144 0076 0849     		ldr	r1, .L14+8
 145 0078 FFF7FEFF 		bl	CapSense_InitPosFiltersSd
 146              	.LVL17:
ARM GAS  C:\Users\ikomb\AppData\Local\Temp\cc6TxH90.s 			page 12


 147              	.L10:
 331:Generated_Source\PSoC6/CapSense_Processing.c ****     {
 148              		.loc 1 331 0
 149 007c 0136     		adds	r6, r6, #1
 150              	.LVL18:
 151              	.L9:
 152 007e 002E     		cmp	r6, #0
 153 0080 EDD0     		beq	.L11
 154              	.LVL19:
 155              	.L5:
 156              	.LBE5:
 157              	.LBE4:
 473:Generated_Source\PSoC6/CapSense_Processing.c ****                 }
 474:Generated_Source\PSoC6/CapSense_Processing.c **** 
 475:Generated_Source\PSoC6/CapSense_Processing.c ****                 CapSense_DpInitSlider(ptrFlashWdgt);
 476:Generated_Source\PSoC6/CapSense_Processing.c **** 
 477:Generated_Source\PSoC6/CapSense_Processing.c ****                 break;
 478:Generated_Source\PSoC6/CapSense_Processing.c ****         #endif /* #if (0u != CapSense_SLIDER_WIDGET_EN) */
 479:Generated_Source\PSoC6/CapSense_Processing.c **** 
 480:Generated_Source\PSoC6/CapSense_Processing.c ****         #if (0u != CapSense_TOUCHPAD_WIDGET_EN)
 481:Generated_Source\PSoC6/CapSense_Processing.c ****             case CapSense_WD_TOUCHPAD_E:
 482:Generated_Source\PSoC6/CapSense_Processing.c ****                 if (NULL != ptrFlashWdgt->ptr2DebounceArr)
 483:Generated_Source\PSoC6/CapSense_Processing.c ****                 {
 484:Generated_Source\PSoC6/CapSense_Processing.c ****                     /* Initialize single debounce counter of touchpad */
 485:Generated_Source\PSoC6/CapSense_Processing.c ****                     *(uint8 *)(ptrFlashWdgt->ptr2DebounceArr) = ptrRamWdgt->onDebounce;
 486:Generated_Source\PSoC6/CapSense_Processing.c ****                 }
 487:Generated_Source\PSoC6/CapSense_Processing.c **** 
 488:Generated_Source\PSoC6/CapSense_Processing.c ****                 #if (0u != CapSense_CSD_TOUCHPAD_WIDGET_EN)
 489:Generated_Source\PSoC6/CapSense_Processing.c ****                     if (CapSense_SENSE_METHOD_CSD_E == CapSense_GET_SENSE_METHOD(ptrFlashWdgt))
 490:Generated_Source\PSoC6/CapSense_Processing.c ****                     {
 491:Generated_Source\PSoC6/CapSense_Processing.c ****                         CapSense_DpInitCsdTouchpad(ptrFlashWdgt);
 492:Generated_Source\PSoC6/CapSense_Processing.c ****                     }
 493:Generated_Source\PSoC6/CapSense_Processing.c ****                 #endif /* #if (0u != CapSense_CSD_TOUCHPAD_WIDGET_EN) */
 494:Generated_Source\PSoC6/CapSense_Processing.c **** 
 495:Generated_Source\PSoC6/CapSense_Processing.c ****                 #if (0u != CapSense_CSX_TOUCHPAD_WIDGET_EN)
 496:Generated_Source\PSoC6/CapSense_Processing.c ****                     if (CapSense_SENSE_METHOD_CSX_E == CapSense_GET_SENSE_METHOD(ptrFlashWdgt))
 497:Generated_Source\PSoC6/CapSense_Processing.c ****                     {
 498:Generated_Source\PSoC6/CapSense_Processing.c ****                         CapSense_DpInitCsxTouchpad(ptrFlashWdgt);
 499:Generated_Source\PSoC6/CapSense_Processing.c ****                     }
 500:Generated_Source\PSoC6/CapSense_Processing.c ****                 #endif /* #if (0u != CapSense_CSX_TOUCHPAD_WIDGET_EN) */
 501:Generated_Source\PSoC6/CapSense_Processing.c **** 
 502:Generated_Source\PSoC6/CapSense_Processing.c ****                 break;
 503:Generated_Source\PSoC6/CapSense_Processing.c ****         #endif /* #if (0u != CapSense_TOUCHPAD_WIDGET_EN) */
 504:Generated_Source\PSoC6/CapSense_Processing.c **** 
 505:Generated_Source\PSoC6/CapSense_Processing.c ****         #if (0u != CapSense_PROXIMITY_WIDGET_EN)
 506:Generated_Source\PSoC6/CapSense_Processing.c ****             case CapSense_WD_PROXIMITY_E:
 507:Generated_Source\PSoC6/CapSense_Processing.c ****                 if (NULL != ptrFlashWdgt->ptr2DebounceArr)
 508:Generated_Source\PSoC6/CapSense_Processing.c ****                 {
 509:Generated_Source\PSoC6/CapSense_Processing.c ****                     /* Proximity widgets have 2 de-bounce counters per sensor.
 510:Generated_Source\PSoC6/CapSense_Processing.c ****                      * Therefore the number of sensors is multiplied by 2.
 511:Generated_Source\PSoC6/CapSense_Processing.c ****                      */
 512:Generated_Source\PSoC6/CapSense_Processing.c ****                    (void)memset(ptrFlashWdgt->ptr2DebounceArr,
 513:Generated_Source\PSoC6/CapSense_Processing.c ****                                 (int32)ptrRamWdgt->onDebounce,
 514:Generated_Source\PSoC6/CapSense_Processing.c ****                                 (size_t)ptrFlashWdgt->totalNumSns * 2u);
 515:Generated_Source\PSoC6/CapSense_Processing.c ****                 }
 516:Generated_Source\PSoC6/CapSense_Processing.c ****                 break;
 517:Generated_Source\PSoC6/CapSense_Processing.c ****         #endif /* #if (0u != CapSense_PROXIMITY_WIDGET_EN) */
ARM GAS  C:\Users\ikomb\AppData\Local\Temp\cc6TxH90.s 			page 13


 518:Generated_Source\PSoC6/CapSense_Processing.c **** 
 519:Generated_Source\PSoC6/CapSense_Processing.c ****             default:
 520:Generated_Source\PSoC6/CapSense_Processing.c ****                 break;
 521:Generated_Source\PSoC6/CapSense_Processing.c ****         }
 522:Generated_Source\PSoC6/CapSense_Processing.c **** 
 523:Generated_Source\PSoC6/CapSense_Processing.c ****         /* Move to next widget */
 524:Generated_Source\PSoC6/CapSense_Processing.c ****         ptrFlashWdgt++;
 158              		.loc 1 524 0
 159 0082 3034     		adds	r4, r4, #48
 160              	.LVL20:
 424:Generated_Source\PSoC6/CapSense_Processing.c ****     {
 161              		.loc 1 424 0
 162 0084 2B00     		movs	r3, r5
 163              	.LVL21:
 164              	.L4:
 424:Generated_Source\PSoC6/CapSense_Processing.c ****     {
 165              		.loc 1 424 0 is_stmt 0 discriminator 1
 166 0086 5D1E     		subs	r5, r3, #1
 167              	.LVL22:
 168 0088 002B     		cmp	r3, #0
 169 008a CBD1     		bne	.L12
 525:Generated_Source\PSoC6/CapSense_Processing.c ****     }
 526:Generated_Source\PSoC6/CapSense_Processing.c **** }
 170              		.loc 1 526 0 is_stmt 1
 171              		@ sp needed
 172              	.LVL23:
 173              	.LVL24:
 174 008c F8BD     		pop	{r3, r4, r5, r6, r7, pc}
 175              	.L15:
 176 008e C046     		.align	2
 177              	.L14:
 178 0090 00000000 		.word	CapSense_dsRam
 179 0094 00000000 		.word	CapSense_dsFlash
 180 0098 FFFF0000 		.word	65535
 181              		.cfi_endproc
 182              	.LFE37:
 183              		.size	CapSense_DpInitialize, .-CapSense_DpInitialize
 184              		.section	.text.CapSense_DpUpdateThresholds,"ax",%progbits
 185              		.align	2
 186              		.global	CapSense_DpUpdateThresholds
 187              		.code	16
 188              		.thumb_func
 189              		.type	CapSense_DpUpdateThresholds, %function
 190              	CapSense_DpUpdateThresholds:
 191              	.LFB44:
 527:Generated_Source\PSoC6/CapSense_Processing.c **** 
 528:Generated_Source\PSoC6/CapSense_Processing.c **** #if (0u != CapSense_TOTAL_CSX_WIDGETS)
 529:Generated_Source\PSoC6/CapSense_Processing.c **** /*******************************************************************************
 530:Generated_Source\PSoC6/CapSense_Processing.c **** * Function Name: CapSense_DpProcessCsxWidgetRawCounts
 531:Generated_Source\PSoC6/CapSense_Processing.c **** ****************************************************************************//**
 532:Generated_Source\PSoC6/CapSense_Processing.c **** *
 533:Generated_Source\PSoC6/CapSense_Processing.c **** * \brief
 534:Generated_Source\PSoC6/CapSense_Processing.c **** *  Performs default processing of the CSX raw counts.
 535:Generated_Source\PSoC6/CapSense_Processing.c **** *
 536:Generated_Source\PSoC6/CapSense_Processing.c **** * \details
 537:Generated_Source\PSoC6/CapSense_Processing.c **** *  Performs default processing of the CSX raw counts:
 538:Generated_Source\PSoC6/CapSense_Processing.c **** *   - Run Filters
ARM GAS  C:\Users\ikomb\AppData\Local\Temp\cc6TxH90.s 			page 14


 539:Generated_Source\PSoC6/CapSense_Processing.c **** *   - Update Baselines
 540:Generated_Source\PSoC6/CapSense_Processing.c **** *   - Update Differences
 541:Generated_Source\PSoC6/CapSense_Processing.c **** *   - Update Status.
 542:Generated_Source\PSoC6/CapSense_Processing.c **** *  The same process is applied to all the sensors of the specified widget.
 543:Generated_Source\PSoC6/CapSense_Processing.c **** *
 544:Generated_Source\PSoC6/CapSense_Processing.c **** * \param ptrFlashWdgt The pointer to the Flash widget structure.
 545:Generated_Source\PSoC6/CapSense_Processing.c **** *
 546:Generated_Source\PSoC6/CapSense_Processing.c **** * \return
 547:Generated_Source\PSoC6/CapSense_Processing.c **** *  Returns the status of the specified widget processing operation:
 548:Generated_Source\PSoC6/CapSense_Processing.c **** *  - CY_RET_SUCCESS if operation was successfully completed;
 549:Generated_Source\PSoC6/CapSense_Processing.c **** *  - CapSense_PROCESS_BASELINE_FAILED if baseline processing of any
 550:Generated_Source\PSoC6/CapSense_Processing.c **** *    sensor of the specified widget failed. The result is concatenated with the index
 551:Generated_Source\PSoC6/CapSense_Processing.c **** *    of failed sensor.
 552:Generated_Source\PSoC6/CapSense_Processing.c **** *
 553:Generated_Source\PSoC6/CapSense_Processing.c **** *******************************************************************************/
 554:Generated_Source\PSoC6/CapSense_Processing.c **** uint32 CapSense_DpProcessCsxWidgetRawCounts(CapSense_FLASH_WD_STRUCT const *ptrFlashWdgt)
 555:Generated_Source\PSoC6/CapSense_Processing.c **** {
 556:Generated_Source\PSoC6/CapSense_Processing.c ****     uint32 result = CY_RET_SUCCESS;
 557:Generated_Source\PSoC6/CapSense_Processing.c ****     uint32 widgetType;
 558:Generated_Source\PSoC6/CapSense_Processing.c ****     uint32 snsCount;
 559:Generated_Source\PSoC6/CapSense_Processing.c ****     CapSense_RAM_SNS_STRUCT *ptrSnsTmp;
 560:Generated_Source\PSoC6/CapSense_Processing.c ****     CapSense_RAM_WD_BASE_STRUCT *ptrRamWdgt;
 561:Generated_Source\PSoC6/CapSense_Processing.c **** 
 562:Generated_Source\PSoC6/CapSense_Processing.c ****     #if (CapSense_ENABLE == CapSense_RC_FILTER_EN)
 563:Generated_Source\PSoC6/CapSense_Processing.c ****         CapSense_PTR_FILTER_VARIANT fltrHistV;
 564:Generated_Source\PSoC6/CapSense_Processing.c **** 
 565:Generated_Source\PSoC6/CapSense_Processing.c ****         fltrHistV.ptr = ptrFlashWdgt->ptr2FltrHistory;
 566:Generated_Source\PSoC6/CapSense_Processing.c ****     #endif /* #if (CapSense_ENABLE == CapSense_RC_FILTER_EN) */
 567:Generated_Source\PSoC6/CapSense_Processing.c **** 
 568:Generated_Source\PSoC6/CapSense_Processing.c ****     ptrSnsTmp = ptrFlashWdgt->ptr2SnsRam;
 569:Generated_Source\PSoC6/CapSense_Processing.c ****     snsCount = ptrFlashWdgt->totalNumSns;
 570:Generated_Source\PSoC6/CapSense_Processing.c ****     ptrRamWdgt = (CapSense_RAM_WD_BASE_STRUCT *)ptrFlashWdgt->ptr2WdgtRam;
 571:Generated_Source\PSoC6/CapSense_Processing.c ****     widgetType = ptrFlashWdgt->wdgtType;
 572:Generated_Source\PSoC6/CapSense_Processing.c **** 
 573:Generated_Source\PSoC6/CapSense_Processing.c ****     /* Run deconvolution algorithm for the widgets with multiphase TX support */
 574:Generated_Source\PSoC6/CapSense_Processing.c ****     #if (0u != CapSense_CSX_MULTIPHASE_TX_EN)
 575:Generated_Source\PSoC6/CapSense_Processing.c ****         if (0u != (ptrFlashWdgt->staticConfig & CapSense_MULTIPHASE_TX_MASK))
 576:Generated_Source\PSoC6/CapSense_Processing.c ****         {
 577:Generated_Source\PSoC6/CapSense_Processing.c ****             CapSense_DpDeconvolution(ptrFlashWdgt);
 578:Generated_Source\PSoC6/CapSense_Processing.c ****         }
 579:Generated_Source\PSoC6/CapSense_Processing.c ****     #endif  /* #if (0u != CapSense_CSX_MULTIPHASE_TX_EN) */
 580:Generated_Source\PSoC6/CapSense_Processing.c **** 
 581:Generated_Source\PSoC6/CapSense_Processing.c ****     for (;snsCount-- > 0u;)
 582:Generated_Source\PSoC6/CapSense_Processing.c ****     {
 583:Generated_Source\PSoC6/CapSense_Processing.c ****         #if (CapSense_ENABLE == CapSense_RC_FILTER_EN)
 584:Generated_Source\PSoC6/CapSense_Processing.c ****             CapSense_FtRunEnabledFiltersInternal(fltrHistV, ptrSnsTmp, widgetType);
 585:Generated_Source\PSoC6/CapSense_Processing.c ****             #if (CapSense_ALP_FILTER_EN)
 586:Generated_Source\PSoC6/CapSense_Processing.c ****                 CapSense_ConfigRunALPInternal(fltrHistV, ptrRamWdgt, ptrSnsTmp, widgetType);
 587:Generated_Source\PSoC6/CapSense_Processing.c ****             #endif
 588:Generated_Source\PSoC6/CapSense_Processing.c ****         #endif /* #if (CapSense_ENABLE == CapSense_RC_FILTER_EN) */
 589:Generated_Source\PSoC6/CapSense_Processing.c **** 
 590:Generated_Source\PSoC6/CapSense_Processing.c ****         result = CapSense_FtUpdateBaseline(ptrRamWdgt, ptrSnsTmp, widgetType);
 591:Generated_Source\PSoC6/CapSense_Processing.c **** 
 592:Generated_Source\PSoC6/CapSense_Processing.c ****         #if (CapSense_ENABLE == CapSense_TST_BSLN_DUPLICATION_EN)
 593:Generated_Source\PSoC6/CapSense_Processing.c ****             if (CY_RET_SUCCESS != result)
 594:Generated_Source\PSoC6/CapSense_Processing.c ****             {
 595:Generated_Source\PSoC6/CapSense_Processing.c ****                 result = snsCount | CapSense_PROCESS_BASELINE_FAILED;
ARM GAS  C:\Users\ikomb\AppData\Local\Temp\cc6TxH90.s 			page 15


 596:Generated_Source\PSoC6/CapSense_Processing.c ****             }
 597:Generated_Source\PSoC6/CapSense_Processing.c ****         #endif /* (CapSense_ENABLE == CapSense_TST_BSLN_DUPLICATION_EN) */
 598:Generated_Source\PSoC6/CapSense_Processing.c **** 
 599:Generated_Source\PSoC6/CapSense_Processing.c ****         CapSense_DpUpdateDifferences(ptrRamWdgt, ptrSnsTmp);
 600:Generated_Source\PSoC6/CapSense_Processing.c **** 
 601:Generated_Source\PSoC6/CapSense_Processing.c ****         /* Move pointers to the next sensor and filter history objects */
 602:Generated_Source\PSoC6/CapSense_Processing.c ****         ptrSnsTmp++;
 603:Generated_Source\PSoC6/CapSense_Processing.c ****         
 604:Generated_Source\PSoC6/CapSense_Processing.c ****         #if (CapSense_ENABLE == CapSense_RC_FILTER_EN)
 605:Generated_Source\PSoC6/CapSense_Processing.c ****             CapSense_INC_REG_FLTR_OBJ(fltrHistV);
 606:Generated_Source\PSoC6/CapSense_Processing.c ****         #endif /* #if (CapSense_ENABLE == CapSense_RC_FILTER_EN) */
 607:Generated_Source\PSoC6/CapSense_Processing.c ****     }
 608:Generated_Source\PSoC6/CapSense_Processing.c ****     return result;
 609:Generated_Source\PSoC6/CapSense_Processing.c **** }
 610:Generated_Source\PSoC6/CapSense_Processing.c **** 
 611:Generated_Source\PSoC6/CapSense_Processing.c **** /*******************************************************************************
 612:Generated_Source\PSoC6/CapSense_Processing.c **** * Function Name: CapSense_DpProcessCsxSensorRawCountsExt
 613:Generated_Source\PSoC6/CapSense_Processing.c **** ****************************************************************************//**
 614:Generated_Source\PSoC6/CapSense_Processing.c **** *
 615:Generated_Source\PSoC6/CapSense_Processing.c **** * \brief
 616:Generated_Source\PSoC6/CapSense_Processing.c **** *   Performs customized processing of the CSX sensor raw counts.
 617:Generated_Source\PSoC6/CapSense_Processing.c **** *
 618:Generated_Source\PSoC6/CapSense_Processing.c **** * \details
 619:Generated_Source\PSoC6/CapSense_Processing.c **** *   Performs customized processing of the CSX sensor raw counts.
 620:Generated_Source\PSoC6/CapSense_Processing.c **** *
 621:Generated_Source\PSoC6/CapSense_Processing.c **** *   If all bits are set at once the default processing order will take place.
 622:Generated_Source\PSoC6/CapSense_Processing.c **** *   For the custom order this API can be called multiple times and execute one task at a time.
 623:Generated_Source\PSoC6/CapSense_Processing.c **** *
 624:Generated_Source\PSoC6/CapSense_Processing.c **** * \param ptrFlashWdgt The pointer to the Flash Widget Object.
 625:Generated_Source\PSoC6/CapSense_Processing.c **** * \param curSnsPtr    The pointer to the specific RAM Sensor Object.
 626:Generated_Source\PSoC6/CapSense_Processing.c **** * \param fltrHistV    The pointer to the Filter History Object in RAM associated with specific sens
 627:Generated_Source\PSoC6/CapSense_Processing.c **** * \param mode         The bit-mask with the data processing tasks to be executed.
 628:Generated_Source\PSoC6/CapSense_Processing.c **** *   The mode parameters can take the following values:
 629:Generated_Source\PSoC6/CapSense_Processing.c **** *    - CapSense_PROCESS_FILTER     (0x01) Run Firmware Filter
 630:Generated_Source\PSoC6/CapSense_Processing.c **** *    - CapSense_PROCESS_BASELINE   (0x02) Update Baselines
 631:Generated_Source\PSoC6/CapSense_Processing.c **** *    - CapSense_PROCESS_DIFFCOUNTS (0x04) Update Difference Counts
 632:Generated_Source\PSoC6/CapSense_Processing.c **** *    - CapSense_PROCESS_ALL               Execute all tasks
 633:Generated_Source\PSoC6/CapSense_Processing.c **** *
 634:Generated_Source\PSoC6/CapSense_Processing.c **** * \return
 635:Generated_Source\PSoC6/CapSense_Processing.c **** *  Returns the status of the specified sensor processing operation:
 636:Generated_Source\PSoC6/CapSense_Processing.c **** *  - CY_RET_SUCCESS if operation was successfully completed;
 637:Generated_Source\PSoC6/CapSense_Processing.c **** *  - CapSense_PROCESS_BASELINE_FAILED if baseline processing of any
 638:Generated_Source\PSoC6/CapSense_Processing.c **** *    sensor of the specified widget failed. The result is concatenated with the index
 639:Generated_Source\PSoC6/CapSense_Processing.c **** *    of failed sensor.
 640:Generated_Source\PSoC6/CapSense_Processing.c **** *
 641:Generated_Source\PSoC6/CapSense_Processing.c **** *******************************************************************************/
 642:Generated_Source\PSoC6/CapSense_Processing.c **** uint32 CapSense_DpProcessCsxSensorRawCountsExt(
 643:Generated_Source\PSoC6/CapSense_Processing.c ****                 CapSense_FLASH_WD_STRUCT const *ptrFlashWdgt,
 644:Generated_Source\PSoC6/CapSense_Processing.c ****                 CapSense_RAM_SNS_STRUCT *curSnsPtr,
 645:Generated_Source\PSoC6/CapSense_Processing.c ****                 CapSense_PTR_FILTER_VARIANT fltrHistV,
 646:Generated_Source\PSoC6/CapSense_Processing.c ****                 uint32 mode)
 647:Generated_Source\PSoC6/CapSense_Processing.c **** {
 648:Generated_Source\PSoC6/CapSense_Processing.c ****     uint32  result = CY_RET_SUCCESS;
 649:Generated_Source\PSoC6/CapSense_Processing.c ****     uint32  widgetType;
 650:Generated_Source\PSoC6/CapSense_Processing.c ****     CapSense_RAM_WD_BASE_STRUCT *ptrRamWdgt;
 651:Generated_Source\PSoC6/CapSense_Processing.c **** 
 652:Generated_Source\PSoC6/CapSense_Processing.c ****     widgetType = ptrFlashWdgt->wdgtType;
ARM GAS  C:\Users\ikomb\AppData\Local\Temp\cc6TxH90.s 			page 16


 653:Generated_Source\PSoC6/CapSense_Processing.c ****     ptrRamWdgt = (CapSense_RAM_WD_BASE_STRUCT *)ptrFlashWdgt->ptr2WdgtRam;
 654:Generated_Source\PSoC6/CapSense_Processing.c **** 
 655:Generated_Source\PSoC6/CapSense_Processing.c ****     #if (CapSense_ENABLE == CapSense_RC_FILTER_EN)
 656:Generated_Source\PSoC6/CapSense_Processing.c ****         if (0u != (mode & CapSense_PROCESS_FILTER))
 657:Generated_Source\PSoC6/CapSense_Processing.c ****         {
 658:Generated_Source\PSoC6/CapSense_Processing.c ****             CapSense_FtRunEnabledFiltersInternal(fltrHistV, curSnsPtr, widgetType);
 659:Generated_Source\PSoC6/CapSense_Processing.c ****             #if (CapSense_ALP_FILTER_EN)
 660:Generated_Source\PSoC6/CapSense_Processing.c ****                 CapSense_ConfigRunALPInternal(fltrHistV, ptrRamWdgt, curSnsPtr, widgetType);
 661:Generated_Source\PSoC6/CapSense_Processing.c ****             #endif
 662:Generated_Source\PSoC6/CapSense_Processing.c ****         }
 663:Generated_Source\PSoC6/CapSense_Processing.c ****     #else
 664:Generated_Source\PSoC6/CapSense_Processing.c ****         (void)fltrHistV; /* This parameter is unused in such configurations */
 665:Generated_Source\PSoC6/CapSense_Processing.c ****     #endif /* #if (CapSense_ENABLE == CapSense_RC_FILTER_EN) */
 666:Generated_Source\PSoC6/CapSense_Processing.c **** 
 667:Generated_Source\PSoC6/CapSense_Processing.c ****     if (0u != (mode & CapSense_PROCESS_BASELINE))
 668:Generated_Source\PSoC6/CapSense_Processing.c ****     {
 669:Generated_Source\PSoC6/CapSense_Processing.c ****         result = CapSense_FtUpdateBaseline(ptrRamWdgt, curSnsPtr, widgetType);
 670:Generated_Source\PSoC6/CapSense_Processing.c ****     }
 671:Generated_Source\PSoC6/CapSense_Processing.c **** 
 672:Generated_Source\PSoC6/CapSense_Processing.c ****     if (0u != (mode & CapSense_PROCESS_DIFFCOUNTS))
 673:Generated_Source\PSoC6/CapSense_Processing.c ****     {
 674:Generated_Source\PSoC6/CapSense_Processing.c ****         CapSense_DpUpdateDifferences(ptrRamWdgt, curSnsPtr);
 675:Generated_Source\PSoC6/CapSense_Processing.c ****     }
 676:Generated_Source\PSoC6/CapSense_Processing.c ****     return result;
 677:Generated_Source\PSoC6/CapSense_Processing.c **** }
 678:Generated_Source\PSoC6/CapSense_Processing.c **** 
 679:Generated_Source\PSoC6/CapSense_Processing.c **** 
 680:Generated_Source\PSoC6/CapSense_Processing.c **** /*******************************************************************************
 681:Generated_Source\PSoC6/CapSense_Processing.c **** * Function Name: CapSense_DpProcessCsxWidgetStatus
 682:Generated_Source\PSoC6/CapSense_Processing.c **** ****************************************************************************//**
 683:Generated_Source\PSoC6/CapSense_Processing.c **** *
 684:Generated_Source\PSoC6/CapSense_Processing.c **** * \brief
 685:Generated_Source\PSoC6/CapSense_Processing.c **** *   Updates the status of the CSX widget in the Data Structure.
 686:Generated_Source\PSoC6/CapSense_Processing.c **** *
 687:Generated_Source\PSoC6/CapSense_Processing.c **** * \details
 688:Generated_Source\PSoC6/CapSense_Processing.c **** *  This API determines the type of widget and runs the appropriate function
 689:Generated_Source\PSoC6/CapSense_Processing.c **** *  that implements the status update algorithm for this type of widget.
 690:Generated_Source\PSoC6/CapSense_Processing.c **** *
 691:Generated_Source\PSoC6/CapSense_Processing.c **** *  When the widget-specific processing completes this API updates the snsStatus
 692:Generated_Source\PSoC6/CapSense_Processing.c **** *  and wdgtStatus registers in the data structure. The wdgtStatus register
 693:Generated_Source\PSoC6/CapSense_Processing.c **** *  is a bitmask were each bit corresponds to the specific widget identified by
 694:Generated_Source\PSoC6/CapSense_Processing.c **** *  the widget index. When the bit is set the widget is active (touched);
 695:Generated_Source\PSoC6/CapSense_Processing.c **** *
 696:Generated_Source\PSoC6/CapSense_Processing.c **** *  Depending on the type of widget the snsStatus register may contain either
 697:Generated_Source\PSoC6/CapSense_Processing.c **** *  status of each widget node (active/non-active) or in case of the CSX Touchpad
 698:Generated_Source\PSoC6/CapSense_Processing.c **** *  is contains the number of touches. In both cases 0 means that widget is not
 699:Generated_Source\PSoC6/CapSense_Processing.c **** *  active.
 700:Generated_Source\PSoC6/CapSense_Processing.c **** *
 701:Generated_Source\PSoC6/CapSense_Processing.c **** * \param widgetId     The widget ID number.
 702:Generated_Source\PSoC6/CapSense_Processing.c **** * \param ptrFlashWdgt The pointer to the Flash Widget Object.
 703:Generated_Source\PSoC6/CapSense_Processing.c **** *
 704:Generated_Source\PSoC6/CapSense_Processing.c **** *******************************************************************************/
 705:Generated_Source\PSoC6/CapSense_Processing.c **** void CapSense_DpProcessCsxWidgetStatus(uint32 widgetId, CapSense_FLASH_WD_STRUCT const *ptrFlashWdg
 706:Generated_Source\PSoC6/CapSense_Processing.c **** {
 707:Generated_Source\PSoC6/CapSense_Processing.c ****     uint32 sensorStatus;
 708:Generated_Source\PSoC6/CapSense_Processing.c ****     uint32 wdStatusIndex;
 709:Generated_Source\PSoC6/CapSense_Processing.c ****     uint32 wdStatusMask;
ARM GAS  C:\Users\ikomb\AppData\Local\Temp\cc6TxH90.s 			page 17


 710:Generated_Source\PSoC6/CapSense_Processing.c ****     CapSense_WD_TYPE_ENUM widgetType;
 711:Generated_Source\PSoC6/CapSense_Processing.c **** 
 712:Generated_Source\PSoC6/CapSense_Processing.c ****     widgetType = (CapSense_WD_TYPE_ENUM)ptrFlashWdgt->wdgtType;
 713:Generated_Source\PSoC6/CapSense_Processing.c ****     sensorStatus = CapSense_dsRam.snsStatus[widgetId];
 714:Generated_Source\PSoC6/CapSense_Processing.c **** 
 715:Generated_Source\PSoC6/CapSense_Processing.c ****     switch (widgetType)
 716:Generated_Source\PSoC6/CapSense_Processing.c ****     {
 717:Generated_Source\PSoC6/CapSense_Processing.c ****     #if (0u != CapSense_BUTTON_WIDGET_EN)
 718:Generated_Source\PSoC6/CapSense_Processing.c ****         case CapSense_WD_BUTTON_E:
 719:Generated_Source\PSoC6/CapSense_Processing.c ****             sensorStatus = CapSense_DpProcessButton(sensorStatus, ptrFlashWdgt);
 720:Generated_Source\PSoC6/CapSense_Processing.c ****             break;
 721:Generated_Source\PSoC6/CapSense_Processing.c ****     #endif /* #if (0u != CapSense_BUTTON_WIDGET_EN) */
 722:Generated_Source\PSoC6/CapSense_Processing.c **** 
 723:Generated_Source\PSoC6/CapSense_Processing.c ****     #if (0u != CapSense_CSX_MATRIX_WIDGET_EN)
 724:Generated_Source\PSoC6/CapSense_Processing.c ****         case CapSense_WD_MATRIX_BUTTON_E:
 725:Generated_Source\PSoC6/CapSense_Processing.c ****             sensorStatus = CapSense_DpProcessButton(sensorStatus, ptrFlashWdgt);
 726:Generated_Source\PSoC6/CapSense_Processing.c ****             break;
 727:Generated_Source\PSoC6/CapSense_Processing.c ****     #endif /* #if (0u != CapSense_CSX_MATRIX_WIDGET_EN) */
 728:Generated_Source\PSoC6/CapSense_Processing.c **** 
 729:Generated_Source\PSoC6/CapSense_Processing.c ****     #if (0u != CapSense_CSX_TOUCHPAD_WIDGET_EN)
 730:Generated_Source\PSoC6/CapSense_Processing.c ****         case CapSense_WD_TOUCHPAD_E:
 731:Generated_Source\PSoC6/CapSense_Processing.c ****             sensorStatus = CapSense_DpProcessCsxTouchpad(sensorStatus, ptrFlashWdgt);
 732:Generated_Source\PSoC6/CapSense_Processing.c ****             break;
 733:Generated_Source\PSoC6/CapSense_Processing.c ****     #endif /* #if (0u != CapSense_CSX_TOUCHPAD_WIDGET_EN) */
 734:Generated_Source\PSoC6/CapSense_Processing.c **** 
 735:Generated_Source\PSoC6/CapSense_Processing.c ****     default:
 736:Generated_Source\PSoC6/CapSense_Processing.c ****         CY_ASSERT(0 != 0);
 737:Generated_Source\PSoC6/CapSense_Processing.c ****         break;
 738:Generated_Source\PSoC6/CapSense_Processing.c ****     }
 739:Generated_Source\PSoC6/CapSense_Processing.c **** 
 740:Generated_Source\PSoC6/CapSense_Processing.c ****     /* Update sensor status in the data structure */
 741:Generated_Source\PSoC6/CapSense_Processing.c ****     CapSense_dsRam.snsStatus[widgetId] = (CapSense_SNS_STS_TYPE)sensorStatus;
 742:Generated_Source\PSoC6/CapSense_Processing.c **** 
 743:Generated_Source\PSoC6/CapSense_Processing.c ****     /* The next two lines calculate index and bitmask of the widget status bit in the wdgtStatus ar
 744:Generated_Source\PSoC6/CapSense_Processing.c ****     wdStatusIndex = CapSense_GET_WDGT_STATUS_INDEX(widgetId);
 745:Generated_Source\PSoC6/CapSense_Processing.c ****     wdStatusMask = CapSense_GET_WDGT_STATUS_MASK(widgetId);
 746:Generated_Source\PSoC6/CapSense_Processing.c **** 
 747:Generated_Source\PSoC6/CapSense_Processing.c ****     /* Check if there are active sensors and update widget status accordingly */
 748:Generated_Source\PSoC6/CapSense_Processing.c ****     if (0u == sensorStatus)
 749:Generated_Source\PSoC6/CapSense_Processing.c ****     {
 750:Generated_Source\PSoC6/CapSense_Processing.c ****         CapSense_dsRam.wdgtStatus[wdStatusIndex] &= ~wdStatusMask;
 751:Generated_Source\PSoC6/CapSense_Processing.c ****     }
 752:Generated_Source\PSoC6/CapSense_Processing.c ****     else
 753:Generated_Source\PSoC6/CapSense_Processing.c ****     {
 754:Generated_Source\PSoC6/CapSense_Processing.c ****         CapSense_dsRam.wdgtStatus[wdStatusIndex] |= wdStatusMask;
 755:Generated_Source\PSoC6/CapSense_Processing.c ****     }
 756:Generated_Source\PSoC6/CapSense_Processing.c **** }
 757:Generated_Source\PSoC6/CapSense_Processing.c **** #endif /* #if CapSense_TOTAL_CSX_WIDGETS */
 758:Generated_Source\PSoC6/CapSense_Processing.c **** 
 759:Generated_Source\PSoC6/CapSense_Processing.c **** #if (0u != CapSense_TOTAL_CSD_WIDGETS)
 760:Generated_Source\PSoC6/CapSense_Processing.c **** /*******************************************************************************
 761:Generated_Source\PSoC6/CapSense_Processing.c **** * Function Name: CapSense_DpProcessCsdWidgetRawCounts
 762:Generated_Source\PSoC6/CapSense_Processing.c **** ****************************************************************************//**
 763:Generated_Source\PSoC6/CapSense_Processing.c **** *
 764:Generated_Source\PSoC6/CapSense_Processing.c **** * \brief
 765:Generated_Source\PSoC6/CapSense_Processing.c **** *   Performs default processing for the CSD widget raw counts.
 766:Generated_Source\PSoC6/CapSense_Processing.c **** *
ARM GAS  C:\Users\ikomb\AppData\Local\Temp\cc6TxH90.s 			page 18


 767:Generated_Source\PSoC6/CapSense_Processing.c **** * \details
 768:Generated_Source\PSoC6/CapSense_Processing.c **** *   Performs default processing for the CSD widget raw counts:
 769:Generated_Source\PSoC6/CapSense_Processing.c **** *    - Run Filters
 770:Generated_Source\PSoC6/CapSense_Processing.c **** *    - Update Thresholds (FW Auto-tuning)
 771:Generated_Source\PSoC6/CapSense_Processing.c **** *    - Update Baselines
 772:Generated_Source\PSoC6/CapSense_Processing.c **** *    - Update Differences.
 773:Generated_Source\PSoC6/CapSense_Processing.c **** *   The process is applied to all widget's sensors.
 774:Generated_Source\PSoC6/CapSense_Processing.c **** *
 775:Generated_Source\PSoC6/CapSense_Processing.c **** * \param ptrFlashWdgt The pointer to the Flash Widget Object.
 776:Generated_Source\PSoC6/CapSense_Processing.c **** *
 777:Generated_Source\PSoC6/CapSense_Processing.c **** * \return
 778:Generated_Source\PSoC6/CapSense_Processing.c **** *  Returns the status of the specified widget processing operation:
 779:Generated_Source\PSoC6/CapSense_Processing.c **** *  - CY_RET_SUCCESS if operation was successfully completed;
 780:Generated_Source\PSoC6/CapSense_Processing.c **** *  - CapSense_PROCESS_BASELINE_FAILED if baseline processing of any
 781:Generated_Source\PSoC6/CapSense_Processing.c **** *    sensor of the specified widget failed. The result is concatenated with the index
 782:Generated_Source\PSoC6/CapSense_Processing.c **** *    of failed sensor.
 783:Generated_Source\PSoC6/CapSense_Processing.c **** *
 784:Generated_Source\PSoC6/CapSense_Processing.c **** *******************************************************************************/
 785:Generated_Source\PSoC6/CapSense_Processing.c **** uint32 CapSense_DpProcessCsdWidgetRawCounts(CapSense_FLASH_WD_STRUCT const *ptrFlashWdgt)
 786:Generated_Source\PSoC6/CapSense_Processing.c **** {
 787:Generated_Source\PSoC6/CapSense_Processing.c ****     uint32  result = CY_RET_SUCCESS;
 788:Generated_Source\PSoC6/CapSense_Processing.c **** 
 789:Generated_Source\PSoC6/CapSense_Processing.c ****     #if (CapSense_ENABLE == CapSense_TST_BSLN_DUPLICATION_EN)
 790:Generated_Source\PSoC6/CapSense_Processing.c ****         uint32 bslnTstResult = CY_RET_SUCCESS;
 791:Generated_Source\PSoC6/CapSense_Processing.c ****     #endif /* (CapSense_ENABLE == CapSense_TST_BSLN_DUPLICATION_EN) */
 792:Generated_Source\PSoC6/CapSense_Processing.c **** 
 793:Generated_Source\PSoC6/CapSense_Processing.c ****     uint32  widgetType;
 794:Generated_Source\PSoC6/CapSense_Processing.c ****     uint32  snsId;
 795:Generated_Source\PSoC6/CapSense_Processing.c ****     CapSense_RAM_SNS_STRUCT *ptrSnsTmp;
 796:Generated_Source\PSoC6/CapSense_Processing.c ****     CapSense_RAM_WD_BASE_STRUCT *ptrRamWdgt;
 797:Generated_Source\PSoC6/CapSense_Processing.c **** 
 798:Generated_Source\PSoC6/CapSense_Processing.c ****     #if (0u != (CapSense_CSD_AUTOTUNE & CapSense_CSD_SS_TH_EN))
 799:Generated_Source\PSoC6/CapSense_Processing.c ****         /* The noise envelope data is available only when Full CSD Auto-Tuning is enabled */
 800:Generated_Source\PSoC6/CapSense_Processing.c ****         SMARTSENSE_CSD_NOISE_ENVELOPE_STRUCT *ptrNoiseEnvelope;
 801:Generated_Source\PSoC6/CapSense_Processing.c ****         #if (CapSense_ENABLE == CapSense_PROXIMITY_WIDGET_EN)
 802:Generated_Source\PSoC6/CapSense_Processing.c ****             uint32  proximityThreshold;
 803:Generated_Source\PSoC6/CapSense_Processing.c ****         #endif /* (0 != CapSense_PROXIMITY_WIDGET_EN) */
 804:Generated_Source\PSoC6/CapSense_Processing.c ****     #endif /* #if (0u != (CapSense_CSD_AUTOTUNE & CapSense_CSD_SS_TH_EN)) */
 805:Generated_Source\PSoC6/CapSense_Processing.c **** 
 806:Generated_Source\PSoC6/CapSense_Processing.c ****     #if (CapSense_ENABLE == CapSense_RC_FILTER_EN)
 807:Generated_Source\PSoC6/CapSense_Processing.c ****         CapSense_PTR_FILTER_VARIANT fltrHistV;
 808:Generated_Source\PSoC6/CapSense_Processing.c **** 
 809:Generated_Source\PSoC6/CapSense_Processing.c ****         /* Determine if widget type is proximity */
 810:Generated_Source\PSoC6/CapSense_Processing.c ****         uint32 isProxWdgt = (CapSense_GET_WIDGET_TYPE(ptrFlashWdgt) == CapSense_WD_PROXIMITY_E) ? 1
 811:Generated_Source\PSoC6/CapSense_Processing.c **** 
 812:Generated_Source\PSoC6/CapSense_Processing.c ****         /* Get pointer to the filter history object */
 813:Generated_Source\PSoC6/CapSense_Processing.c ****         fltrHistV.ptr = ptrFlashWdgt->ptr2FltrHistory;
 814:Generated_Source\PSoC6/CapSense_Processing.c ****     #endif /* #if (CapSense_ENABLE == CapSense_RC_FILTER_EN) */
 815:Generated_Source\PSoC6/CapSense_Processing.c **** 
 816:Generated_Source\PSoC6/CapSense_Processing.c ****     ptrSnsTmp = ptrFlashWdgt->ptr2SnsRam;
 817:Generated_Source\PSoC6/CapSense_Processing.c ****     ptrRamWdgt = (CapSense_RAM_WD_BASE_STRUCT *)ptrFlashWdgt->ptr2WdgtRam;
 818:Generated_Source\PSoC6/CapSense_Processing.c ****     widgetType = ptrFlashWdgt->wdgtType;
 819:Generated_Source\PSoC6/CapSense_Processing.c **** 
 820:Generated_Source\PSoC6/CapSense_Processing.c ****     #if (0u != (CapSense_CSD_AUTOTUNE & CapSense_CSD_SS_TH_EN))
 821:Generated_Source\PSoC6/CapSense_Processing.c ****         ptrNoiseEnvelope = ptrFlashWdgt->ptr2NoiseEnvlp;
 822:Generated_Source\PSoC6/CapSense_Processing.c ****     #endif /* #if (0u != (CapSense_CSD_AUTOTUNE & CapSense_CSD_SS_TH_EN)) */
 823:Generated_Source\PSoC6/CapSense_Processing.c **** 
ARM GAS  C:\Users\ikomb\AppData\Local\Temp\cc6TxH90.s 			page 19


 824:Generated_Source\PSoC6/CapSense_Processing.c ****     /* Iterate through all widget's sensors */
 825:Generated_Source\PSoC6/CapSense_Processing.c ****     for(snsId = 0u; snsId < ptrFlashWdgt->totalNumSns; snsId++)
 826:Generated_Source\PSoC6/CapSense_Processing.c ****     {
 827:Generated_Source\PSoC6/CapSense_Processing.c ****         /* Run all enabled filter on specified widget's sensor */
 828:Generated_Source\PSoC6/CapSense_Processing.c ****         #if (CapSense_ENABLE == CapSense_RC_FILTER_EN)
 829:Generated_Source\PSoC6/CapSense_Processing.c ****             CapSense_FtRunEnabledFiltersInternal(fltrHistV, ptrSnsTmp, widgetType);
 830:Generated_Source\PSoC6/CapSense_Processing.c ****             #if (CapSense_ALP_FILTER_EN)
 831:Generated_Source\PSoC6/CapSense_Processing.c ****                 CapSense_ConfigRunALPInternal(fltrHistV, ptrRamWdgt, ptrSnsTmp, widgetType);
 832:Generated_Source\PSoC6/CapSense_Processing.c ****             #endif
 833:Generated_Source\PSoC6/CapSense_Processing.c ****         #endif /* #if (CapSense_ENABLE == CapSense_RC_FILTER_EN) */
 834:Generated_Source\PSoC6/CapSense_Processing.c **** 
 835:Generated_Source\PSoC6/CapSense_Processing.c ****         /* Run auto-tuning activities */
 836:Generated_Source\PSoC6/CapSense_Processing.c ****         #if (0u != (CapSense_CSD_AUTOTUNE & CapSense_CSD_SS_TH_EN))
 837:Generated_Source\PSoC6/CapSense_Processing.c ****             SmartSense_RunNoiseEnvelope(ptrSnsTmp->raw[0u], ptrRamWdgt->sigPFC, ptrNoiseEnvelope);
 838:Generated_Source\PSoC6/CapSense_Processing.c ****             CapSense_DpUpdateThresholds(ptrRamWdgt, ptrNoiseEnvelope, snsId);
 839:Generated_Source\PSoC6/CapSense_Processing.c **** 
 840:Generated_Source\PSoC6/CapSense_Processing.c ****             /* Calculate Proximity Touch Threshold in SmartSense mode based on Finger Threshold and
 841:Generated_Source\PSoC6/CapSense_Processing.c ****             #if (CapSense_ENABLE == CapSense_PROXIMITY_WIDGET_EN)
 842:Generated_Source\PSoC6/CapSense_Processing.c ****                 if (CapSense_WD_PROXIMITY_E == CapSense_GET_WIDGET_TYPE(ptrFlashWdgt))
 843:Generated_Source\PSoC6/CapSense_Processing.c ****                 {
 844:Generated_Source\PSoC6/CapSense_Processing.c ****                     proximityThreshold = ((uint32)ptrRamWdgt->fingerTh * CapSense_PROX_TOUCH_COEFF)
 845:Generated_Source\PSoC6/CapSense_Processing.c ****                     if ((((1Lu) << CapSense_THRESHOLD_SIZE) - 1u) < proximityThreshold)
 846:Generated_Source\PSoC6/CapSense_Processing.c ****                     {
 847:Generated_Source\PSoC6/CapSense_Processing.c ****                         proximityThreshold = ((1Lu) << CapSense_THRESHOLD_SIZE) - 1u;
 848:Generated_Source\PSoC6/CapSense_Processing.c ****                     }
 849:Generated_Source\PSoC6/CapSense_Processing.c ****                     ((CapSense_RAM_WD_PROXIMITY_STRUCT *)ptrFlashWdgt->ptr2WdgtRam)->proxTouchTh =
 850:Generated_Source\PSoC6/CapSense_Processing.c ****                         (CapSense_THRESHOLD_TYPE)proximityThreshold;
 851:Generated_Source\PSoC6/CapSense_Processing.c ****                 }
 852:Generated_Source\PSoC6/CapSense_Processing.c ****             #endif /* (0 != CapSense_PROXIMITY_WIDGET_EN) */
 853:Generated_Source\PSoC6/CapSense_Processing.c **** 
 854:Generated_Source\PSoC6/CapSense_Processing.c ****             /* Move to next noise-envelope object */
 855:Generated_Source\PSoC6/CapSense_Processing.c ****             ptrNoiseEnvelope++;
 856:Generated_Source\PSoC6/CapSense_Processing.c ****         #endif /* (0u != (CapSense_CSD_AUTOTUNE & CapSense_CSD_SS_TH_EN)) */
 857:Generated_Source\PSoC6/CapSense_Processing.c **** 
 858:Generated_Source\PSoC6/CapSense_Processing.c ****         #if (CapSense_ENABLE == CapSense_TST_BSLN_DUPLICATION_EN)
 859:Generated_Source\PSoC6/CapSense_Processing.c ****             bslnTstResult = CapSense_FtUpdateBaseline(ptrRamWdgt, ptrSnsTmp, widgetType);
 860:Generated_Source\PSoC6/CapSense_Processing.c ****             if ((CY_RET_SUCCESS != bslnTstResult) && (CY_RET_SUCCESS == result))
 861:Generated_Source\PSoC6/CapSense_Processing.c ****             {
 862:Generated_Source\PSoC6/CapSense_Processing.c ****                 result = snsId | CapSense_PROCESS_BASELINE_FAILED;
 863:Generated_Source\PSoC6/CapSense_Processing.c ****             }
 864:Generated_Source\PSoC6/CapSense_Processing.c ****         #else /* (CapSense_ENABLE == CapSense_TST_BSLN_DUPLICATION_EN) */
 865:Generated_Source\PSoC6/CapSense_Processing.c ****             result = CapSense_FtUpdateBaseline(ptrRamWdgt, ptrSnsTmp, widgetType);
 866:Generated_Source\PSoC6/CapSense_Processing.c ****         #endif /* (CapSense_ENABLE == CapSense_TST_BSLN_DUPLICATION_EN) */
 867:Generated_Source\PSoC6/CapSense_Processing.c **** 
 868:Generated_Source\PSoC6/CapSense_Processing.c ****         CapSense_DpUpdateDifferences(ptrRamWdgt, ptrSnsTmp);
 869:Generated_Source\PSoC6/CapSense_Processing.c **** 
 870:Generated_Source\PSoC6/CapSense_Processing.c ****         /* Move to next sensor object */
 871:Generated_Source\PSoC6/CapSense_Processing.c ****         ptrSnsTmp++;
 872:Generated_Source\PSoC6/CapSense_Processing.c **** 
 873:Generated_Source\PSoC6/CapSense_Processing.c ****         #if (CapSense_ENABLE == CapSense_RC_FILTER_EN)
 874:Generated_Source\PSoC6/CapSense_Processing.c ****             /* Move to the next filter history object */
 875:Generated_Source\PSoC6/CapSense_Processing.c ****             CapSense_INC_FLTR_OBJ_VARIANT(isProxWdgt, fltrHistV);
 876:Generated_Source\PSoC6/CapSense_Processing.c ****         #endif /* #if (CapSense_ENABLE == CapSense_RC_FILTER_EN) */
 877:Generated_Source\PSoC6/CapSense_Processing.c ****     }
 878:Generated_Source\PSoC6/CapSense_Processing.c ****     return result;
 879:Generated_Source\PSoC6/CapSense_Processing.c **** }
 880:Generated_Source\PSoC6/CapSense_Processing.c **** 
ARM GAS  C:\Users\ikomb\AppData\Local\Temp\cc6TxH90.s 			page 20


 881:Generated_Source\PSoC6/CapSense_Processing.c **** 
 882:Generated_Source\PSoC6/CapSense_Processing.c **** /*******************************************************************************
 883:Generated_Source\PSoC6/CapSense_Processing.c **** * Function Name: CapSense_DpProcessCsdSensorRawCountsExt
 884:Generated_Source\PSoC6/CapSense_Processing.c **** ****************************************************************************//**
 885:Generated_Source\PSoC6/CapSense_Processing.c **** *
 886:Generated_Source\PSoC6/CapSense_Processing.c **** * \brief
 887:Generated_Source\PSoC6/CapSense_Processing.c **** *   Performs customized processing of the CSD sensor raw counts.
 888:Generated_Source\PSoC6/CapSense_Processing.c **** *
 889:Generated_Source\PSoC6/CapSense_Processing.c **** * \details
 890:Generated_Source\PSoC6/CapSense_Processing.c **** *   Performs customized processing of the CSD sensor raw counts.
 891:Generated_Source\PSoC6/CapSense_Processing.c **** *
 892:Generated_Source\PSoC6/CapSense_Processing.c **** *   Note that this API updates data associated only with the sensor. It cannot be used to update
 893:Generated_Source\PSoC6/CapSense_Processing.c **** *   widget status.
 894:Generated_Source\PSoC6/CapSense_Processing.c **** *
 895:Generated_Source\PSoC6/CapSense_Processing.c **** * \param ptrFlashWdgt The pointer to the Flash widget structure.
 896:Generated_Source\PSoC6/CapSense_Processing.c **** * \param curSnsPtr    The pointer to the sensor object in RAM.
 897:Generated_Source\PSoC6/CapSense_Processing.c **** * \param fltrHistV    The pointer to the Filter History Object in RAM.
 898:Generated_Source\PSoC6/CapSense_Processing.c **** * \param mode         The bit-mask with the data processing tasks to be executed.
 899:Generated_Source\PSoC6/CapSense_Processing.c **** *   The mode parameters can take the following values:
 900:Generated_Source\PSoC6/CapSense_Processing.c **** *    - CapSense_PROCESS_FILTER     (0x01) Run Firmware Filter
 901:Generated_Source\PSoC6/CapSense_Processing.c **** *    - CapSense_PROCESS_BASELINE   (0x02) Update Baselines
 902:Generated_Source\PSoC6/CapSense_Processing.c **** *    - CapSense_PROCESS_DIFFCOUNTS (0x04) Update Difference Counts
 903:Generated_Source\PSoC6/CapSense_Processing.c **** *    - CapSense_PROCESS_CALC_NOISE (0x08) Calculate Noise (only if FW Tuning is enabled)
 904:Generated_Source\PSoC6/CapSense_Processing.c **** *    - CapSense_PROCESS_THRESHOLDS (0x10) Update Thresholds (only if FW Tuning is enabled)
 905:Generated_Source\PSoC6/CapSense_Processing.c **** *    - CapSense_PROCESS_ALL               Execute all tasks
 906:Generated_Source\PSoC6/CapSense_Processing.c **** *
 907:Generated_Source\PSoC6/CapSense_Processing.c **** * \return
 908:Generated_Source\PSoC6/CapSense_Processing.c **** *  Returns the status of the specified sensor processing operation:
 909:Generated_Source\PSoC6/CapSense_Processing.c **** *  - CY_RET_SUCCESS if operation was successfully completed;
 910:Generated_Source\PSoC6/CapSense_Processing.c **** *  - CapSense_PROCESS_BASELINE_FAILED if baseline processing of any
 911:Generated_Source\PSoC6/CapSense_Processing.c **** *    sensor of the specified widget failed. The result is concatenated with the index
 912:Generated_Source\PSoC6/CapSense_Processing.c **** *    of failed sensor.
 913:Generated_Source\PSoC6/CapSense_Processing.c **** *
 914:Generated_Source\PSoC6/CapSense_Processing.c **** *******************************************************************************/
 915:Generated_Source\PSoC6/CapSense_Processing.c **** uint32 CapSense_DpProcessCsdSensorRawCountsExt(
 916:Generated_Source\PSoC6/CapSense_Processing.c ****                 CapSense_FLASH_WD_STRUCT const *ptrFlashWdgt,
 917:Generated_Source\PSoC6/CapSense_Processing.c ****                 CapSense_RAM_SNS_STRUCT *curSnsPtr,
 918:Generated_Source\PSoC6/CapSense_Processing.c ****                 CapSense_PTR_FILTER_VARIANT fltrHistV,
 919:Generated_Source\PSoC6/CapSense_Processing.c ****                  uint32 mode)
 920:Generated_Source\PSoC6/CapSense_Processing.c **** {
 921:Generated_Source\PSoC6/CapSense_Processing.c ****     uint32 result = CY_RET_SUCCESS;
 922:Generated_Source\PSoC6/CapSense_Processing.c ****     uint32  widgetType;
 923:Generated_Source\PSoC6/CapSense_Processing.c ****     CapSense_RAM_WD_BASE_STRUCT *ptrRamWdgt;
 924:Generated_Source\PSoC6/CapSense_Processing.c **** 
 925:Generated_Source\PSoC6/CapSense_Processing.c ****     #if (0u != (CapSense_CSD_AUTOTUNE & CapSense_CSD_SS_TH_EN))
 926:Generated_Source\PSoC6/CapSense_Processing.c ****         SMARTSENSE_CSD_NOISE_ENVELOPE_STRUCT *ptrNoiseEnvelope;
 927:Generated_Source\PSoC6/CapSense_Processing.c ****         #if (CapSense_ENABLE == CapSense_PROXIMITY_WIDGET_EN)
 928:Generated_Source\PSoC6/CapSense_Processing.c ****             uint32  proximityThreshold;
 929:Generated_Source\PSoC6/CapSense_Processing.c ****         #endif /* (0 != CapSense_PROXIMITY_WIDGET_EN) */
 930:Generated_Source\PSoC6/CapSense_Processing.c **** 
 931:Generated_Source\PSoC6/CapSense_Processing.c ****         /* Need to specify pointer to corresponding sensor's noise-envelope object.*/
 932:Generated_Source\PSoC6/CapSense_Processing.c ****         ptrNoiseEnvelope = ptrFlashWdgt->ptr2NoiseEnvlp;
 933:Generated_Source\PSoC6/CapSense_Processing.c ****     #endif /* (0u != (CapSense_CSD_AUTOTUNE & CapSense_CSD_SS_TH_EN)) */
 934:Generated_Source\PSoC6/CapSense_Processing.c **** 
 935:Generated_Source\PSoC6/CapSense_Processing.c ****     widgetType = ptrFlashWdgt->wdgtType;
 936:Generated_Source\PSoC6/CapSense_Processing.c ****     ptrRamWdgt = (CapSense_RAM_WD_BASE_STRUCT *)ptrFlashWdgt->ptr2WdgtRam;
 937:Generated_Source\PSoC6/CapSense_Processing.c **** 
ARM GAS  C:\Users\ikomb\AppData\Local\Temp\cc6TxH90.s 			page 21


 938:Generated_Source\PSoC6/CapSense_Processing.c ****     #if (CapSense_ENABLE == CapSense_RC_FILTER_EN)
 939:Generated_Source\PSoC6/CapSense_Processing.c ****         if (0u != (mode & CapSense_PROCESS_FILTER))
 940:Generated_Source\PSoC6/CapSense_Processing.c ****         {
 941:Generated_Source\PSoC6/CapSense_Processing.c ****             CapSense_FtRunEnabledFiltersInternal(fltrHistV, curSnsPtr, widgetType);
 942:Generated_Source\PSoC6/CapSense_Processing.c ****             #if (CapSense_ALP_FILTER_EN)
 943:Generated_Source\PSoC6/CapSense_Processing.c ****                 CapSense_ConfigRunALPInternal(fltrHistV, ptrRamWdgt, curSnsPtr, widgetType);
 944:Generated_Source\PSoC6/CapSense_Processing.c ****             #endif
 945:Generated_Source\PSoC6/CapSense_Processing.c ****         }
 946:Generated_Source\PSoC6/CapSense_Processing.c ****     #else
 947:Generated_Source\PSoC6/CapSense_Processing.c ****         (void)fltrHistV; /* This parameter is unused in such configurations */
 948:Generated_Source\PSoC6/CapSense_Processing.c ****     #endif /* #if (CapSense_ENABLE == CapSense_RC_FILTER_EN) */
 949:Generated_Source\PSoC6/CapSense_Processing.c **** 
 950:Generated_Source\PSoC6/CapSense_Processing.c ****     #if (0u != (CapSense_CSD_AUTOTUNE & CapSense_CSD_SS_TH_EN))
 951:Generated_Source\PSoC6/CapSense_Processing.c ****         if (0u != (mode & CapSense_PROCESS_CALC_NOISE))
 952:Generated_Source\PSoC6/CapSense_Processing.c ****         {
 953:Generated_Source\PSoC6/CapSense_Processing.c ****             SmartSense_RunNoiseEnvelope(curSnsPtr->raw[0u], ptrRamWdgt->sigPFC, ptrNoiseEnvelope);
 954:Generated_Source\PSoC6/CapSense_Processing.c ****         }
 955:Generated_Source\PSoC6/CapSense_Processing.c **** 
 956:Generated_Source\PSoC6/CapSense_Processing.c ****         if (0u != (mode & CapSense_PROCESS_THRESHOLDS))
 957:Generated_Source\PSoC6/CapSense_Processing.c ****         {
 958:Generated_Source\PSoC6/CapSense_Processing.c ****             CapSense_DpUpdateThresholds(ptrRamWdgt, ptrNoiseEnvelope, 0u);
 959:Generated_Source\PSoC6/CapSense_Processing.c **** 
 960:Generated_Source\PSoC6/CapSense_Processing.c ****             /* Calculate Proximity Touch Threshold in SmartSense mode based on Finger Threshold and
 961:Generated_Source\PSoC6/CapSense_Processing.c ****             #if (CapSense_ENABLE == CapSense_PROXIMITY_WIDGET_EN)
 962:Generated_Source\PSoC6/CapSense_Processing.c ****                 if (CapSense_WD_PROXIMITY_E == CapSense_GET_WIDGET_TYPE(ptrFlashWdgt))
 963:Generated_Source\PSoC6/CapSense_Processing.c ****                 {
 964:Generated_Source\PSoC6/CapSense_Processing.c ****                     proximityThreshold = ((uint32)ptrRamWdgt->fingerTh * CapSense_PROX_TOUCH_COEFF)
 965:Generated_Source\PSoC6/CapSense_Processing.c ****                     if ((((1Lu) << CapSense_THRESHOLD_SIZE) - 1u) < proximityThreshold)
 966:Generated_Source\PSoC6/CapSense_Processing.c ****                     {
 967:Generated_Source\PSoC6/CapSense_Processing.c ****                         proximityThreshold = ((1Lu) << CapSense_THRESHOLD_SIZE) - 1u;
 968:Generated_Source\PSoC6/CapSense_Processing.c ****                     }
 969:Generated_Source\PSoC6/CapSense_Processing.c ****                     ((CapSense_RAM_WD_PROXIMITY_STRUCT *)ptrFlashWdgt->ptr2WdgtRam)->proxTouchTh =
 970:Generated_Source\PSoC6/CapSense_Processing.c ****                         (CapSense_THRESHOLD_TYPE)proximityThreshold;
 971:Generated_Source\PSoC6/CapSense_Processing.c ****                 }
 972:Generated_Source\PSoC6/CapSense_Processing.c ****             #endif /* (0 != CapSense_PROXIMITY_WIDGET_EN) */
 973:Generated_Source\PSoC6/CapSense_Processing.c ****         }
 974:Generated_Source\PSoC6/CapSense_Processing.c ****     #endif /* #if (0u != (CapSense_CSD_AUTOTUNE & CapSense_CSD_SS_TH_EN)) */
 975:Generated_Source\PSoC6/CapSense_Processing.c **** 
 976:Generated_Source\PSoC6/CapSense_Processing.c ****     if (0u != (mode & CapSense_PROCESS_BASELINE))
 977:Generated_Source\PSoC6/CapSense_Processing.c ****     {
 978:Generated_Source\PSoC6/CapSense_Processing.c ****         result = CapSense_FtUpdateBaseline(ptrRamWdgt, curSnsPtr, widgetType);
 979:Generated_Source\PSoC6/CapSense_Processing.c ****     }
 980:Generated_Source\PSoC6/CapSense_Processing.c **** 
 981:Generated_Source\PSoC6/CapSense_Processing.c ****     if (0u != (mode & CapSense_PROCESS_DIFFCOUNTS))
 982:Generated_Source\PSoC6/CapSense_Processing.c ****     {
 983:Generated_Source\PSoC6/CapSense_Processing.c ****         CapSense_DpUpdateDifferences(ptrRamWdgt, curSnsPtr);
 984:Generated_Source\PSoC6/CapSense_Processing.c ****     }
 985:Generated_Source\PSoC6/CapSense_Processing.c ****     return result;
 986:Generated_Source\PSoC6/CapSense_Processing.c **** }
 987:Generated_Source\PSoC6/CapSense_Processing.c **** 
 988:Generated_Source\PSoC6/CapSense_Processing.c **** /*******************************************************************************
 989:Generated_Source\PSoC6/CapSense_Processing.c **** * Function Name: CapSense_DpProcessCsdWidgetStatus
 990:Generated_Source\PSoC6/CapSense_Processing.c **** ****************************************************************************//**
 991:Generated_Source\PSoC6/CapSense_Processing.c **** *
 992:Generated_Source\PSoC6/CapSense_Processing.c **** * \brief
 993:Generated_Source\PSoC6/CapSense_Processing.c **** *  Runs the status processing of the CSD widget and updates it in the Data Structure.
 994:Generated_Source\PSoC6/CapSense_Processing.c **** *
ARM GAS  C:\Users\ikomb\AppData\Local\Temp\cc6TxH90.s 			page 22


 995:Generated_Source\PSoC6/CapSense_Processing.c **** * \details
 996:Generated_Source\PSoC6/CapSense_Processing.c **** *  This API determines the widget type and calls the appropriate low-level processing
 997:Generated_Source\PSoC6/CapSense_Processing.c **** *  function. Based on the returned results it updates the widget and sensor
 998:Generated_Source\PSoC6/CapSense_Processing.c **** *  status in the data structure. Any widget specific registers like the centroid
 999:Generated_Source\PSoC6/CapSense_Processing.c **** *  position are updated directly in the low-level processing function.
1000:Generated_Source\PSoC6/CapSense_Processing.c **** *
1001:Generated_Source\PSoC6/CapSense_Processing.c **** *  When the widget-specific processing completes this API updates the snsStatus
1002:Generated_Source\PSoC6/CapSense_Processing.c **** *  and wdgtStatus registers in the data structure. The wdgtStatus register
1003:Generated_Source\PSoC6/CapSense_Processing.c **** *  is a bitmask were each bit corresponds to the specific widget identified by
1004:Generated_Source\PSoC6/CapSense_Processing.c **** *  the widget index. When the bit is set the widget is active (touched);
1005:Generated_Source\PSoC6/CapSense_Processing.c **** *
1006:Generated_Source\PSoC6/CapSense_Processing.c **** *  The snsStatus register for CSD widgets contains status of each widget sensor
1007:Generated_Source\PSoC6/CapSense_Processing.c **** *  (active/non-active). Each bit corresponds to one sensor. In case of the
1008:Generated_Source\PSoC6/CapSense_Processing.c **** *  Proximity widget two bits are used per sensor: one for proximity status and
1009:Generated_Source\PSoC6/CapSense_Processing.c **** *  second for the touch status.
1010:Generated_Source\PSoC6/CapSense_Processing.c **** *
1011:Generated_Source\PSoC6/CapSense_Processing.c **** * \param widgetId      The widget index number.
1012:Generated_Source\PSoC6/CapSense_Processing.c **** * \param ptrFlashWdgt  The pointer to the Flash widget structure.
1013:Generated_Source\PSoC6/CapSense_Processing.c **** *
1014:Generated_Source\PSoC6/CapSense_Processing.c **** *******************************************************************************/
1015:Generated_Source\PSoC6/CapSense_Processing.c **** void CapSense_DpProcessCsdWidgetStatus(uint32 widgetId, CapSense_FLASH_WD_STRUCT const *ptrFlashWdg
1016:Generated_Source\PSoC6/CapSense_Processing.c **** {
1017:Generated_Source\PSoC6/CapSense_Processing.c ****     uint32 sensorStatus;
1018:Generated_Source\PSoC6/CapSense_Processing.c ****     uint32 wdStatusIndex;
1019:Generated_Source\PSoC6/CapSense_Processing.c ****     uint32 wdStatusMask;
1020:Generated_Source\PSoC6/CapSense_Processing.c ****     CapSense_WD_TYPE_ENUM widgetType;
1021:Generated_Source\PSoC6/CapSense_Processing.c **** 
1022:Generated_Source\PSoC6/CapSense_Processing.c ****     widgetType = (CapSense_WD_TYPE_ENUM)ptrFlashWdgt->wdgtType;
1023:Generated_Source\PSoC6/CapSense_Processing.c ****     sensorStatus = CapSense_dsRam.snsStatus[widgetId];
1024:Generated_Source\PSoC6/CapSense_Processing.c **** 
1025:Generated_Source\PSoC6/CapSense_Processing.c ****     switch (widgetType)
1026:Generated_Source\PSoC6/CapSense_Processing.c ****     {
1027:Generated_Source\PSoC6/CapSense_Processing.c ****     #if (0u != CapSense_BUTTON_WIDGET_EN)
1028:Generated_Source\PSoC6/CapSense_Processing.c ****         case CapSense_WD_BUTTON_E:
1029:Generated_Source\PSoC6/CapSense_Processing.c ****             sensorStatus = CapSense_DpProcessButton(sensorStatus, ptrFlashWdgt);
1030:Generated_Source\PSoC6/CapSense_Processing.c ****             break;
1031:Generated_Source\PSoC6/CapSense_Processing.c ****     #endif /* #if (0u != CapSense_BUTTON_WIDGET_EN) */
1032:Generated_Source\PSoC6/CapSense_Processing.c **** 
1033:Generated_Source\PSoC6/CapSense_Processing.c ****     #if (0u != CapSense_SLIDER_WIDGET_EN)
1034:Generated_Source\PSoC6/CapSense_Processing.c ****         case CapSense_WD_LINEAR_SLIDER_E:
1035:Generated_Source\PSoC6/CapSense_Processing.c ****         case CapSense_WD_RADIAL_SLIDER_E:
1036:Generated_Source\PSoC6/CapSense_Processing.c ****             sensorStatus = CapSense_DpProcessSlider(sensorStatus, ptrFlashWdgt);
1037:Generated_Source\PSoC6/CapSense_Processing.c ****             break;
1038:Generated_Source\PSoC6/CapSense_Processing.c ****     #endif /* #if (0u != CapSense_SLIDER_WIDGET_EN) */
1039:Generated_Source\PSoC6/CapSense_Processing.c **** 
1040:Generated_Source\PSoC6/CapSense_Processing.c ****     #if (0u != CapSense_CSD_MATRIX_WIDGET_EN)
1041:Generated_Source\PSoC6/CapSense_Processing.c ****         case CapSense_WD_MATRIX_BUTTON_E:
1042:Generated_Source\PSoC6/CapSense_Processing.c ****             sensorStatus = CapSense_DpProcessCsdMatrix(sensorStatus, ptrFlashWdgt);
1043:Generated_Source\PSoC6/CapSense_Processing.c ****             break;
1044:Generated_Source\PSoC6/CapSense_Processing.c ****     #endif /* #if (0u != CapSense_CSD_MATRIX_WIDGET_EN) */
1045:Generated_Source\PSoC6/CapSense_Processing.c **** 
1046:Generated_Source\PSoC6/CapSense_Processing.c ****     #if (0u != CapSense_CSD_TOUCHPAD_WIDGET_EN)
1047:Generated_Source\PSoC6/CapSense_Processing.c ****         case CapSense_WD_TOUCHPAD_E:
1048:Generated_Source\PSoC6/CapSense_Processing.c ****             sensorStatus = CapSense_DpProcessCsdTouchpad(sensorStatus, ptrFlashWdgt);
1049:Generated_Source\PSoC6/CapSense_Processing.c ****             #if (0u != CapSense_BALLISTIC_MULTIPLIER_EN)
1050:Generated_Source\PSoC6/CapSense_Processing.c ****                 CapSense_RunBallisticMultiplier(widgetId);
1051:Generated_Source\PSoC6/CapSense_Processing.c ****             #endif /* (0u != CapSense_BALLISTIC_MULTIPLIER_EN) */
ARM GAS  C:\Users\ikomb\AppData\Local\Temp\cc6TxH90.s 			page 23


1052:Generated_Source\PSoC6/CapSense_Processing.c ****             break;
1053:Generated_Source\PSoC6/CapSense_Processing.c ****     #endif /* #if (0u != CapSense_CSD_TOUCHPAD_WIDGET_EN) */
1054:Generated_Source\PSoC6/CapSense_Processing.c **** 
1055:Generated_Source\PSoC6/CapSense_Processing.c ****     #if (0u != CapSense_PROXIMITY_WIDGET_EN)
1056:Generated_Source\PSoC6/CapSense_Processing.c ****         case CapSense_WD_PROXIMITY_E:
1057:Generated_Source\PSoC6/CapSense_Processing.c ****             sensorStatus = CapSense_DpProcessProximity(sensorStatus, ptrFlashWdgt);
1058:Generated_Source\PSoC6/CapSense_Processing.c ****             break;
1059:Generated_Source\PSoC6/CapSense_Processing.c ****     #endif /* #if (0u != CapSense_PROXIMITY_WIDGET_EN) */
1060:Generated_Source\PSoC6/CapSense_Processing.c **** 
1061:Generated_Source\PSoC6/CapSense_Processing.c ****     default:
1062:Generated_Source\PSoC6/CapSense_Processing.c ****         CY_ASSERT(0 != 0);
1063:Generated_Source\PSoC6/CapSense_Processing.c ****         break;
1064:Generated_Source\PSoC6/CapSense_Processing.c ****     }
1065:Generated_Source\PSoC6/CapSense_Processing.c **** 
1066:Generated_Source\PSoC6/CapSense_Processing.c ****     CapSense_dsRam.snsStatus[widgetId] = (CapSense_SNS_STS_TYPE)sensorStatus;
1067:Generated_Source\PSoC6/CapSense_Processing.c **** 
1068:Generated_Source\PSoC6/CapSense_Processing.c ****     /* The next two lines calculate index and bitmask of the widget status bit in the wdgtStatus ar
1069:Generated_Source\PSoC6/CapSense_Processing.c ****     wdStatusIndex = CapSense_GET_WDGT_STATUS_INDEX(widgetId);
1070:Generated_Source\PSoC6/CapSense_Processing.c ****     wdStatusMask = CapSense_GET_WDGT_STATUS_MASK(widgetId);
1071:Generated_Source\PSoC6/CapSense_Processing.c **** 
1072:Generated_Source\PSoC6/CapSense_Processing.c ****     /* Check if there are active sensors and update widget status accordingly */
1073:Generated_Source\PSoC6/CapSense_Processing.c ****     if (0u == sensorStatus)
1074:Generated_Source\PSoC6/CapSense_Processing.c ****     {
1075:Generated_Source\PSoC6/CapSense_Processing.c ****         CapSense_dsRam.wdgtStatus[wdStatusIndex] &= ~wdStatusMask;
1076:Generated_Source\PSoC6/CapSense_Processing.c ****     }
1077:Generated_Source\PSoC6/CapSense_Processing.c ****     else
1078:Generated_Source\PSoC6/CapSense_Processing.c ****     {
1079:Generated_Source\PSoC6/CapSense_Processing.c ****         CapSense_dsRam.wdgtStatus[wdStatusIndex] |= wdStatusMask;
1080:Generated_Source\PSoC6/CapSense_Processing.c ****     }
1081:Generated_Source\PSoC6/CapSense_Processing.c **** }
1082:Generated_Source\PSoC6/CapSense_Processing.c **** #endif /* #if (0u != CapSense_TOTAL_CSD_WIDGETS) */
1083:Generated_Source\PSoC6/CapSense_Processing.c **** 
1084:Generated_Source\PSoC6/CapSense_Processing.c **** 
1085:Generated_Source\PSoC6/CapSense_Processing.c **** #if (0 != (CapSense_CSD_AUTOTUNE & CapSense_CSD_SS_TH_EN))
1086:Generated_Source\PSoC6/CapSense_Processing.c **** /*******************************************************************************
1087:Generated_Source\PSoC6/CapSense_Processing.c **** * Function Name: CapSense_DpUpdateThresholds
1088:Generated_Source\PSoC6/CapSense_Processing.c **** ****************************************************************************//**
1089:Generated_Source\PSoC6/CapSense_Processing.c **** *
1090:Generated_Source\PSoC6/CapSense_Processing.c **** * \brief
1091:Generated_Source\PSoC6/CapSense_Processing.c **** *   Updates noise and finger thresholds for a specified widget.
1092:Generated_Source\PSoC6/CapSense_Processing.c **** *
1093:Generated_Source\PSoC6/CapSense_Processing.c **** * \details
1094:Generated_Source\PSoC6/CapSense_Processing.c **** *   Updates noise and finger thresholds for a specified widget.
1095:Generated_Source\PSoC6/CapSense_Processing.c **** *   This algorithm is a part of Auto-tuning feature.
1096:Generated_Source\PSoC6/CapSense_Processing.c **** *
1097:Generated_Source\PSoC6/CapSense_Processing.c **** * \param ptrRamWdgt       The pointer to the RAM widget object.
1098:Generated_Source\PSoC6/CapSense_Processing.c **** * \param ptrNoiseEnvelope The pointer to the noise-envelope object in RAM.
1099:Generated_Source\PSoC6/CapSense_Processing.c **** * \param startFlag        The flag indicates when new widget is processed.
1100:Generated_Source\PSoC6/CapSense_Processing.c **** *
1101:Generated_Source\PSoC6/CapSense_Processing.c **** *******************************************************************************/
1102:Generated_Source\PSoC6/CapSense_Processing.c **** void CapSense_DpUpdateThresholds(CapSense_RAM_WD_BASE_STRUCT *ptrRamWdgt,
1103:Generated_Source\PSoC6/CapSense_Processing.c ****                                          SMARTSENSE_CSD_NOISE_ENVELOPE_STRUCT *ptrNoiseEnvelope,
1104:Generated_Source\PSoC6/CapSense_Processing.c ****                                          uint32 startFlag)
1105:Generated_Source\PSoC6/CapSense_Processing.c **** {
 192              		.loc 1 1105 0
 193              		.cfi_startproc
 194              		@ args = 0, pretend = 0, frame = 8
ARM GAS  C:\Users\ikomb\AppData\Local\Temp\cc6TxH90.s 			page 24


 195              		@ frame_needed = 0, uses_anonymous_args = 0
 196              	.LVL25:
 197 0000 10B5     		push	{r4, lr}
 198              		.cfi_def_cfa_offset 8
 199              		.cfi_offset 4, -8
 200              		.cfi_offset 14, -4
 201 0002 82B0     		sub	sp, sp, #8
 202              		.cfi_def_cfa_offset 16
 203 0004 0400     		movs	r4, r0
 204 0006 0800     		movs	r0, r1
 205              	.LVL26:
 206 0008 1300     		movs	r3, r2
 207              	.LVL27:
1106:Generated_Source\PSoC6/CapSense_Processing.c ****     SMARTSENSE_UPDATE_THRESHOLDS_STRUCT thresholds;
1107:Generated_Source\PSoC6/CapSense_Processing.c ****     SMARTSENSE_UPDATE_THRESHOLDS_STRUCT *ptrThresholds = &thresholds;
1108:Generated_Source\PSoC6/CapSense_Processing.c ****     ptrThresholds->fingerTh = ptrRamWdgt->fingerTh;
 208              		.loc 1 1108 0
 209 000a 6288     		ldrh	r2, [r4, #2]
 210              	.LVL28:
 211 000c 6946     		mov	r1, sp
 212              	.LVL29:
 213 000e 0A80     		strh	r2, [r1]
1109:Generated_Source\PSoC6/CapSense_Processing.c **** 
1110:Generated_Source\PSoC6/CapSense_Processing.c ****     SmartSense_UpdateThresholds(ptrNoiseEnvelope, ptrThresholds, ptrRamWdgt->sigPFC, startFlag);
 214              		.loc 1 1110 0
 215 0010 228A     		ldrh	r2, [r4, #16]
 216 0012 FFF7FEFF 		bl	SmartSense_UpdateThresholds
 217              	.LVL30:
1111:Generated_Source\PSoC6/CapSense_Processing.c **** 
1112:Generated_Source\PSoC6/CapSense_Processing.c ****     ptrRamWdgt->fingerTh = ptrThresholds->fingerTh;
 218              		.loc 1 1112 0
 219 0016 6B46     		mov	r3, sp
 220 0018 1B88     		ldrh	r3, [r3]
 221 001a 6380     		strh	r3, [r4, #2]
1113:Generated_Source\PSoC6/CapSense_Processing.c ****     ptrRamWdgt->noiseTh = ptrThresholds->noiseTh;
 222              		.loc 1 1113 0
 223 001c 6B46     		mov	r3, sp
 224 001e 9B78     		ldrb	r3, [r3, #2]
 225 0020 2371     		strb	r3, [r4, #4]
1114:Generated_Source\PSoC6/CapSense_Processing.c ****     ptrRamWdgt->nNoiseTh = ptrThresholds->nNoiseTh;
 226              		.loc 1 1114 0
 227 0022 6B46     		mov	r3, sp
 228 0024 DB78     		ldrb	r3, [r3, #3]
 229 0026 6371     		strb	r3, [r4, #5]
1115:Generated_Source\PSoC6/CapSense_Processing.c ****     ptrRamWdgt->hysteresis = ptrThresholds->hysteresis;
 230              		.loc 1 1115 0
 231 0028 6B46     		mov	r3, sp
 232 002a 1B79     		ldrb	r3, [r3, #4]
 233 002c A371     		strb	r3, [r4, #6]
1116:Generated_Source\PSoC6/CapSense_Processing.c **** }
 234              		.loc 1 1116 0
 235 002e 02B0     		add	sp, sp, #8
 236              	.LVL31:
 237              		@ sp needed
 238              	.LVL32:
 239 0030 10BD     		pop	{r4, pc}
 240              		.cfi_endproc
ARM GAS  C:\Users\ikomb\AppData\Local\Temp\cc6TxH90.s 			page 25


 241              	.LFE44:
 242              		.size	CapSense_DpUpdateThresholds, .-CapSense_DpUpdateThresholds
 243 0032 C046     		.section	.text.CapSense_DpUpdateDifferences,"ax",%progbits
 244              		.align	2
 245              		.global	CapSense_DpUpdateDifferences
 246              		.code	16
 247              		.thumb_func
 248              		.type	CapSense_DpUpdateDifferences, %function
 249              	CapSense_DpUpdateDifferences:
 250              	.LFB45:
1117:Generated_Source\PSoC6/CapSense_Processing.c **** #endif /* #if (0u != (CapSense_CSD_AUTOTUNE & CapSense_CSD_SS_TH_EN)) */
1118:Generated_Source\PSoC6/CapSense_Processing.c **** 
1119:Generated_Source\PSoC6/CapSense_Processing.c **** 
1120:Generated_Source\PSoC6/CapSense_Processing.c **** /*******************************************************************************
1121:Generated_Source\PSoC6/CapSense_Processing.c **** * Function Name: CapSense_DpUpdateDifferences
1122:Generated_Source\PSoC6/CapSense_Processing.c **** ****************************************************************************//**
1123:Generated_Source\PSoC6/CapSense_Processing.c **** *
1124:Generated_Source\PSoC6/CapSense_Processing.c **** * \brief
1125:Generated_Source\PSoC6/CapSense_Processing.c **** *   Calculates new difference values.
1126:Generated_Source\PSoC6/CapSense_Processing.c **** *   Also, executes the multi-frequency scan algorithm if it is enabled.
1127:Generated_Source\PSoC6/CapSense_Processing.c **** *
1128:Generated_Source\PSoC6/CapSense_Processing.c **** * \details
1129:Generated_Source\PSoC6/CapSense_Processing.c **** *   This API calculates the difference between the baseline and raw counts.
1130:Generated_Source\PSoC6/CapSense_Processing.c **** *   If the difference is positive (raw > baseline), and higher than the widget
1131:Generated_Source\PSoC6/CapSense_Processing.c **** *   noise threshold, it is saved into the data structure for further processing.
1132:Generated_Source\PSoC6/CapSense_Processing.c **** *   Otherwise the difference is set to zero. The final difference value is saved
1133:Generated_Source\PSoC6/CapSense_Processing.c **** *   with the subtracted noise threshold value.
1134:Generated_Source\PSoC6/CapSense_Processing.c **** *
1135:Generated_Source\PSoC6/CapSense_Processing.c **** *   If the multi-frequency scan algorithm is enabled, the difference is calculated
1136:Generated_Source\PSoC6/CapSense_Processing.c **** *   for the three sets of data available for each sensor. Then
1137:Generated_Source\PSoC6/CapSense_Processing.c **** *   the median filter selects the final difference value.
1138:Generated_Source\PSoC6/CapSense_Processing.c **** *
1139:Generated_Source\PSoC6/CapSense_Processing.c **** * \param ptrRamWdgt The pointer to the RAR Widget Object.
1140:Generated_Source\PSoC6/CapSense_Processing.c **** * \param curSnsPtr  The pointer to the sensor object in RAM.
1141:Generated_Source\PSoC6/CapSense_Processing.c **** *
1142:Generated_Source\PSoC6/CapSense_Processing.c **** *******************************************************************************/
1143:Generated_Source\PSoC6/CapSense_Processing.c **** void CapSense_DpUpdateDifferences(
1144:Generated_Source\PSoC6/CapSense_Processing.c ****                         CapSense_RAM_WD_BASE_STRUCT *ptrRamWdgt,
1145:Generated_Source\PSoC6/CapSense_Processing.c ****                         CapSense_RAM_SNS_STRUCT *curSnsPtr)
1146:Generated_Source\PSoC6/CapSense_Processing.c **** {
 251              		.loc 1 1146 0
 252              		.cfi_startproc
 253              		@ args = 0, pretend = 0, frame = 0
 254              		@ frame_needed = 0, uses_anonymous_args = 0
 255              	.LVL33:
 256 0000 30B5     		push	{r4, r5, lr}
 257              		.cfi_def_cfa_offset 12
 258              		.cfi_offset 4, -12
 259              		.cfi_offset 5, -8
 260              		.cfi_offset 14, -4
 261              	.LVL34:
1147:Generated_Source\PSoC6/CapSense_Processing.c ****     register int32 diffValue = 0;
1148:Generated_Source\PSoC6/CapSense_Processing.c **** 
1149:Generated_Source\PSoC6/CapSense_Processing.c ****     #if (0u != CapSense_MULTI_FREQ_SCAN_EN)
1150:Generated_Source\PSoC6/CapSense_Processing.c ****         register int32 diffValue_0 = 0;
1151:Generated_Source\PSoC6/CapSense_Processing.c ****         register int32 diffValue_2 = 0;
1152:Generated_Source\PSoC6/CapSense_Processing.c ****     #endif /* #if (0u != CapSense_MULTI_FREQ_SCAN_EN) */
ARM GAS  C:\Users\ikomb\AppData\Local\Temp\cc6TxH90.s 			page 26


1153:Generated_Source\PSoC6/CapSense_Processing.c **** 
1154:Generated_Source\PSoC6/CapSense_Processing.c ****     /* Calculate difference */
1155:Generated_Source\PSoC6/CapSense_Processing.c ****     diffValue = (int32)curSnsPtr->raw[0u] - (int32)curSnsPtr->bsln[0u];
 262              		.loc 1 1155 0
 263 0002 0B88     		ldrh	r3, [r1]
 264 0004 4A88     		ldrh	r2, [r1, #2]
 265 0006 9C1A     		subs	r4, r3, r2
 266              	.LVL35:
1156:Generated_Source\PSoC6/CapSense_Processing.c **** 
1157:Generated_Source\PSoC6/CapSense_Processing.c ****     #if (0u != CapSense_MULTI_FREQ_SCAN_EN)
1158:Generated_Source\PSoC6/CapSense_Processing.c ****         diffValue_0 = (int32)curSnsPtr->raw[1u] - (int32)curSnsPtr->bsln[1u];
1159:Generated_Source\PSoC6/CapSense_Processing.c ****         diffValue_2 = (int32)curSnsPtr->raw[2u] - (int32)curSnsPtr->bsln[2u];
1160:Generated_Source\PSoC6/CapSense_Processing.c **** 
1161:Generated_Source\PSoC6/CapSense_Processing.c ****         /* Find median and put it into [0u] element */
1162:Generated_Source\PSoC6/CapSense_Processing.c ****         if (diffValue_0 > diffValue)
1163:Generated_Source\PSoC6/CapSense_Processing.c ****         {
1164:Generated_Source\PSoC6/CapSense_Processing.c ****             register int32 swapv = diffValue_0;
1165:Generated_Source\PSoC6/CapSense_Processing.c ****             diffValue_0 = diffValue;
1166:Generated_Source\PSoC6/CapSense_Processing.c ****             diffValue = swapv;
1167:Generated_Source\PSoC6/CapSense_Processing.c ****         }
1168:Generated_Source\PSoC6/CapSense_Processing.c **** 
1169:Generated_Source\PSoC6/CapSense_Processing.c ****         if (diffValue > diffValue_2)
1170:Generated_Source\PSoC6/CapSense_Processing.c ****         {
1171:Generated_Source\PSoC6/CapSense_Processing.c ****             register int32 swapv = diffValue;
1172:Generated_Source\PSoC6/CapSense_Processing.c ****             diffValue = diffValue_2;
1173:Generated_Source\PSoC6/CapSense_Processing.c ****             diffValue_2 = swapv;
1174:Generated_Source\PSoC6/CapSense_Processing.c ****         }
1175:Generated_Source\PSoC6/CapSense_Processing.c **** 
1176:Generated_Source\PSoC6/CapSense_Processing.c ****         if (diffValue_0 > diffValue)
1177:Generated_Source\PSoC6/CapSense_Processing.c ****         {
1178:Generated_Source\PSoC6/CapSense_Processing.c ****             register int32 swapv = diffValue_0;
1179:Generated_Source\PSoC6/CapSense_Processing.c ****             diffValue_0 = diffValue;
1180:Generated_Source\PSoC6/CapSense_Processing.c ****             diffValue = swapv;
1181:Generated_Source\PSoC6/CapSense_Processing.c ****         }
1182:Generated_Source\PSoC6/CapSense_Processing.c ****     #endif /* #if (0u != CapSense_MULTI_FREQ_SCAN_EN) */
1183:Generated_Source\PSoC6/CapSense_Processing.c **** 
1184:Generated_Source\PSoC6/CapSense_Processing.c ****     curSnsPtr->diff = 0u;
 267              		.loc 1 1184 0
 268 0008 0025     		movs	r5, #0
 269 000a CD80     		strh	r5, [r1, #6]
1185:Generated_Source\PSoC6/CapSense_Processing.c **** 
1186:Generated_Source\PSoC6/CapSense_Processing.c ****     if (diffValue > (int32)ptrRamWdgt->noiseTh)
 270              		.loc 1 1186 0
 271 000c 0079     		ldrb	r0, [r0, #4]
 272              	.LVL36:
 273 000e 8442     		cmp	r4, r0
 274 0010 00DD     		ble	.L17
1187:Generated_Source\PSoC6/CapSense_Processing.c ****     {
1188:Generated_Source\PSoC6/CapSense_Processing.c ****         curSnsPtr->diff = (CapSense_THRESHOLD_TYPE) diffValue;
 275              		.loc 1 1188 0
 276 0012 CC80     		strh	r4, [r1, #6]
 277              	.L17:
1189:Generated_Source\PSoC6/CapSense_Processing.c ****     }
1190:Generated_Source\PSoC6/CapSense_Processing.c **** }
 278              		.loc 1 1190 0
 279              		@ sp needed
 280              	.LVL37:
ARM GAS  C:\Users\ikomb\AppData\Local\Temp\cc6TxH90.s 			page 27


 281 0014 30BD     		pop	{r4, r5, pc}
 282              		.cfi_endproc
 283              	.LFE45:
 284              		.size	CapSense_DpUpdateDifferences, .-CapSense_DpUpdateDifferences
 285 0016 C046     		.section	.text.CapSense_DpProcessCsxWidgetRawCounts,"ax",%progbits
 286              		.align	2
 287              		.global	CapSense_DpProcessCsxWidgetRawCounts
 288              		.code	16
 289              		.thumb_func
 290              		.type	CapSense_DpProcessCsxWidgetRawCounts, %function
 291              	CapSense_DpProcessCsxWidgetRawCounts:
 292              	.LFB38:
 555:Generated_Source\PSoC6/CapSense_Processing.c ****     uint32 result = CY_RET_SUCCESS;
 293              		.loc 1 555 0
 294              		.cfi_startproc
 295              		@ args = 0, pretend = 0, frame = 8
 296              		@ frame_needed = 0, uses_anonymous_args = 0
 297              	.LVL38:
 298 0000 F0B5     		push	{r4, r5, r6, r7, lr}
 299              		.cfi_def_cfa_offset 20
 300              		.cfi_offset 4, -20
 301              		.cfi_offset 5, -16
 302              		.cfi_offset 6, -12
 303              		.cfi_offset 7, -8
 304              		.cfi_offset 14, -4
 305 0002 83B0     		sub	sp, sp, #12
 306              		.cfi_def_cfa_offset 32
 307              	.LVL39:
 565:Generated_Source\PSoC6/CapSense_Processing.c ****     #endif /* #if (CapSense_ENABLE == CapSense_RC_FILTER_EN) */
 308              		.loc 1 565 0
 309 0004 C768     		ldr	r7, [r0, #12]
 310              	.LVL40:
 568:Generated_Source\PSoC6/CapSense_Processing.c ****     snsCount = ptrFlashWdgt->totalNumSns;
 311              		.loc 1 568 0
 312 0006 8468     		ldr	r4, [r0, #8]
 313              	.LVL41:
 569:Generated_Source\PSoC6/CapSense_Processing.c ****     ptrRamWdgt = (CapSense_RAM_WD_BASE_STRUCT *)ptrFlashWdgt->ptr2WdgtRam;
 314              		.loc 1 569 0
 315 0008 038B     		ldrh	r3, [r0, #24]
 316              	.LVL42:
 570:Generated_Source\PSoC6/CapSense_Processing.c ****     widgetType = ptrFlashWdgt->wdgtType;
 317              		.loc 1 570 0
 318 000a 4668     		ldr	r6, [r0, #4]
 319              	.LVL43:
 571:Generated_Source\PSoC6/CapSense_Processing.c **** 
 320              		.loc 1 571 0
 321 000c 827E     		ldrb	r2, [r0, #26]
 322 000e 0092     		str	r2, [sp]
 323              	.LVL44:
 556:Generated_Source\PSoC6/CapSense_Processing.c ****     uint32 widgetType;
 324              		.loc 1 556 0
 325 0010 0022     		movs	r2, #0
 326              	.LVL45:
 327 0012 0192     		str	r2, [sp, #4]
 581:Generated_Source\PSoC6/CapSense_Processing.c ****     {
 328              		.loc 1 581 0
 329 0014 11E0     		b	.L20
ARM GAS  C:\Users\ikomb\AppData\Local\Temp\cc6TxH90.s 			page 28


 330              	.LVL46:
 331              	.L21:
 584:Generated_Source\PSoC6/CapSense_Processing.c ****             #if (CapSense_ALP_FILTER_EN)
 332              		.loc 1 584 0
 333 0016 009A     		ldr	r2, [sp]
 334 0018 2100     		movs	r1, r4
 335              	.LVL47:
 336 001a 3800     		movs	r0, r7
 337 001c FFF7FEFF 		bl	CapSense_FtRunEnabledFiltersInternal
 338              	.LVL48:
 590:Generated_Source\PSoC6/CapSense_Processing.c **** 
 339              		.loc 1 590 0
 340 0020 009A     		ldr	r2, [sp]
 341 0022 2100     		movs	r1, r4
 342 0024 3000     		movs	r0, r6
 343 0026 FFF7FEFF 		bl	CapSense_FtUpdateBaseline
 344              	.LVL49:
 345 002a 0190     		str	r0, [sp, #4]
 346              	.LVL50:
 599:Generated_Source\PSoC6/CapSense_Processing.c **** 
 347              		.loc 1 599 0
 348 002c 2100     		movs	r1, r4
 349 002e 3000     		movs	r0, r6
 350              	.LVL51:
 351 0030 FFF7FEFF 		bl	CapSense_DpUpdateDifferences
 352              	.LVL52:
 602:Generated_Source\PSoC6/CapSense_Processing.c ****         
 353              		.loc 1 602 0
 354 0034 0A34     		adds	r4, r4, #10
 355              	.LVL53:
 605:Generated_Source\PSoC6/CapSense_Processing.c ****         #endif /* #if (CapSense_ENABLE == CapSense_RC_FILTER_EN) */
 356              		.loc 1 605 0
 357 0036 0A37     		adds	r7, r7, #10
 358              	.LVL54:
 581:Generated_Source\PSoC6/CapSense_Processing.c ****     {
 359              		.loc 1 581 0
 360 0038 2B00     		movs	r3, r5
 361              	.LVL55:
 362              	.L20:
 363 003a 5D1E     		subs	r5, r3, #1
 364              	.LVL56:
 365 003c 002B     		cmp	r3, #0
 366 003e EAD1     		bne	.L21
 609:Generated_Source\PSoC6/CapSense_Processing.c **** 
 367              		.loc 1 609 0
 368 0040 0198     		ldr	r0, [sp, #4]
 369 0042 03B0     		add	sp, sp, #12
 370              	.LVL57:
 371              		@ sp needed
 372              	.LVL58:
 373              	.LVL59:
 374              	.LVL60:
 375 0044 F0BD     		pop	{r4, r5, r6, r7, pc}
 376              		.cfi_endproc
 377              	.LFE38:
 378              		.size	CapSense_DpProcessCsxWidgetRawCounts, .-CapSense_DpProcessCsxWidgetRawCounts
 379 0046 C046     		.section	.text.CapSense_DpProcessCsxSensorRawCountsExt,"ax",%progbits
ARM GAS  C:\Users\ikomb\AppData\Local\Temp\cc6TxH90.s 			page 29


 380              		.align	2
 381              		.global	CapSense_DpProcessCsxSensorRawCountsExt
 382              		.code	16
 383              		.thumb_func
 384              		.type	CapSense_DpProcessCsxSensorRawCountsExt, %function
 385              	CapSense_DpProcessCsxSensorRawCountsExt:
 386              	.LFB39:
 647:Generated_Source\PSoC6/CapSense_Processing.c ****     uint32  result = CY_RET_SUCCESS;
 387              		.loc 1 647 0
 388              		.cfi_startproc
 389              		@ args = 0, pretend = 0, frame = 8
 390              		@ frame_needed = 0, uses_anonymous_args = 0
 391              	.LVL61:
 392 0000 F0B5     		push	{r4, r5, r6, r7, lr}
 393              		.cfi_def_cfa_offset 20
 394              		.cfi_offset 4, -20
 395              		.cfi_offset 5, -16
 396              		.cfi_offset 6, -12
 397              		.cfi_offset 7, -8
 398              		.cfi_offset 14, -4
 399 0002 83B0     		sub	sp, sp, #12
 400              		.cfi_def_cfa_offset 32
 401 0004 0E00     		movs	r6, r1
 402 0006 0192     		str	r2, [sp, #4]
 403 0008 1C00     		movs	r4, r3
 404              	.LVL62:
 652:Generated_Source\PSoC6/CapSense_Processing.c ****     ptrRamWdgt = (CapSense_RAM_WD_BASE_STRUCT *)ptrFlashWdgt->ptr2WdgtRam;
 405              		.loc 1 652 0
 406 000a 857E     		ldrb	r5, [r0, #26]
 407              	.LVL63:
 653:Generated_Source\PSoC6/CapSense_Processing.c **** 
 408              		.loc 1 653 0
 409 000c 4768     		ldr	r7, [r0, #4]
 410              	.LVL64:
 656:Generated_Source\PSoC6/CapSense_Processing.c ****         {
 411              		.loc 1 656 0
 412 000e E307     		lsls	r3, r4, #31
 413 0010 03D5     		bpl	.L23
 414              	.LVL65:
 658:Generated_Source\PSoC6/CapSense_Processing.c ****             #if (CapSense_ALP_FILTER_EN)
 415              		.loc 1 658 0
 416 0012 2A00     		movs	r2, r5
 417              	.LVL66:
 418 0014 0198     		ldr	r0, [sp, #4]
 419              	.LVL67:
 420 0016 FFF7FEFF 		bl	CapSense_FtRunEnabledFiltersInternal
 421              	.LVL68:
 422              	.L23:
 667:Generated_Source\PSoC6/CapSense_Processing.c ****     {
 423              		.loc 1 667 0
 424 001a A307     		lsls	r3, r4, #30
 425 001c 06D5     		bpl	.L26
 669:Generated_Source\PSoC6/CapSense_Processing.c ****     }
 426              		.loc 1 669 0
 427 001e 2A00     		movs	r2, r5
 428              	.LVL69:
 429 0020 3100     		movs	r1, r6
ARM GAS  C:\Users\ikomb\AppData\Local\Temp\cc6TxH90.s 			page 30


 430 0022 3800     		movs	r0, r7
 431 0024 FFF7FEFF 		bl	CapSense_FtUpdateBaseline
 432              	.LVL70:
 433 0028 0500     		movs	r5, r0
 434              	.LVL71:
 435 002a 00E0     		b	.L24
 436              	.LVL72:
 437              	.L26:
 648:Generated_Source\PSoC6/CapSense_Processing.c ****     uint32  widgetType;
 438              		.loc 1 648 0
 439 002c 0025     		movs	r5, #0
 440              	.LVL73:
 441              	.L24:
 672:Generated_Source\PSoC6/CapSense_Processing.c ****     {
 442              		.loc 1 672 0
 443 002e 6307     		lsls	r3, r4, #29
 444 0030 03D5     		bpl	.L25
 674:Generated_Source\PSoC6/CapSense_Processing.c ****     }
 445              		.loc 1 674 0
 446 0032 3100     		movs	r1, r6
 447 0034 3800     		movs	r0, r7
 448 0036 FFF7FEFF 		bl	CapSense_DpUpdateDifferences
 449              	.LVL74:
 450              	.L25:
 677:Generated_Source\PSoC6/CapSense_Processing.c **** 
 451              		.loc 1 677 0
 452 003a 2800     		movs	r0, r5
 453 003c 03B0     		add	sp, sp, #12
 454              		@ sp needed
 455              	.LVL75:
 456              	.LVL76:
 457              	.LVL77:
 458              	.LVL78:
 459 003e F0BD     		pop	{r4, r5, r6, r7, pc}
 460              		.cfi_endproc
 461              	.LFE39:
 462              		.size	CapSense_DpProcessCsxSensorRawCountsExt, .-CapSense_DpProcessCsxSensorRawCountsExt
 463              		.section	.text.CapSense_DpProcessCsdWidgetRawCounts,"ax",%progbits
 464              		.align	2
 465              		.global	CapSense_DpProcessCsdWidgetRawCounts
 466              		.code	16
 467              		.thumb_func
 468              		.type	CapSense_DpProcessCsdWidgetRawCounts, %function
 469              	CapSense_DpProcessCsdWidgetRawCounts:
 470              	.LFB41:
 786:Generated_Source\PSoC6/CapSense_Processing.c ****     uint32  result = CY_RET_SUCCESS;
 471              		.loc 1 786 0
 472              		.cfi_startproc
 473              		@ args = 0, pretend = 0, frame = 8
 474              		@ frame_needed = 0, uses_anonymous_args = 0
 475              	.LVL79:
 476 0000 F0B5     		push	{r4, r5, r6, r7, lr}
 477              		.cfi_def_cfa_offset 20
 478              		.cfi_offset 4, -20
 479              		.cfi_offset 5, -16
 480              		.cfi_offset 6, -12
 481              		.cfi_offset 7, -8
ARM GAS  C:\Users\ikomb\AppData\Local\Temp\cc6TxH90.s 			page 31


 482              		.cfi_offset 14, -4
 483 0002 5F46     		mov	r7, fp
 484 0004 5646     		mov	r6, r10
 485 0006 4D46     		mov	r5, r9
 486 0008 E0B4     		push	{r5, r6, r7}
 487              		.cfi_def_cfa_offset 32
 488              		.cfi_offset 9, -32
 489              		.cfi_offset 10, -28
 490              		.cfi_offset 11, -24
 491 000a 82B0     		sub	sp, sp, #8
 492              		.cfi_def_cfa_offset 40
 493 000c 8246     		mov	r10, r0
 494              	.LVL80:
 810:Generated_Source\PSoC6/CapSense_Processing.c **** 
 495              		.loc 1 810 0
 496 000e 837E     		ldrb	r3, [r0, #26]
 497 0010 062B     		cmp	r3, #6
 498 0012 02D1     		bne	.L32
 499 0014 0122     		movs	r2, #1
 500 0016 9346     		mov	fp, r2
 501 0018 01E0     		b	.L28
 502              	.L32:
 503 001a 0022     		movs	r2, #0
 504 001c 9346     		mov	fp, r2
 505              	.L28:
 506              	.LVL81:
 813:Generated_Source\PSoC6/CapSense_Processing.c ****     #endif /* #if (CapSense_ENABLE == CapSense_RC_FILTER_EN) */
 507              		.loc 1 813 0 discriminator 4
 508 001e 5246     		mov	r2, r10
 509 0020 D268     		ldr	r2, [r2, #12]
 510              	.LVL82:
 511 0022 9146     		mov	r9, r2
 816:Generated_Source\PSoC6/CapSense_Processing.c ****     ptrRamWdgt = (CapSense_RAM_WD_BASE_STRUCT *)ptrFlashWdgt->ptr2WdgtRam;
 512              		.loc 1 816 0 discriminator 4
 513 0024 5246     		mov	r2, r10
 514              	.LVL83:
 515 0026 9468     		ldr	r4, [r2, #8]
 516              	.LVL84:
 817:Generated_Source\PSoC6/CapSense_Processing.c ****     widgetType = ptrFlashWdgt->wdgtType;
 517              		.loc 1 817 0 discriminator 4
 518 0028 5668     		ldr	r6, [r2, #4]
 519              	.LVL85:
 818:Generated_Source\PSoC6/CapSense_Processing.c **** 
 520              		.loc 1 818 0 discriminator 4
 521 002a 0093     		str	r3, [sp]
 522              	.LVL86:
 821:Generated_Source\PSoC6/CapSense_Processing.c ****     #endif /* #if (0u != (CapSense_CSD_AUTOTUNE & CapSense_CSD_SS_TH_EN)) */
 523              		.loc 1 821 0 discriminator 4
 524 002c 576A     		ldr	r7, [r2, #36]
 525              	.LVL87:
 825:Generated_Source\PSoC6/CapSense_Processing.c ****     {
 526              		.loc 1 825 0 discriminator 4
 527 002e 0025     		movs	r5, #0
 787:Generated_Source\PSoC6/CapSense_Processing.c **** 
 528              		.loc 1 787 0 discriminator 4
 529 0030 0023     		movs	r3, #0
 530 0032 0193     		str	r3, [sp, #4]
ARM GAS  C:\Users\ikomb\AppData\Local\Temp\cc6TxH90.s 			page 32


 825:Generated_Source\PSoC6/CapSense_Processing.c ****     {
 531              		.loc 1 825 0 discriminator 4
 532 0034 21E0     		b	.L29
 533              	.LVL88:
 534              	.L31:
 829:Generated_Source\PSoC6/CapSense_Processing.c ****             #if (CapSense_ALP_FILTER_EN)
 535              		.loc 1 829 0
 536 0036 009A     		ldr	r2, [sp]
 537 0038 2100     		movs	r1, r4
 538 003a 4846     		mov	r0, r9
 539 003c FFF7FEFF 		bl	CapSense_FtRunEnabledFiltersInternal
 540              	.LVL89:
 837:Generated_Source\PSoC6/CapSense_Processing.c ****             CapSense_DpUpdateThresholds(ptrRamWdgt, ptrNoiseEnvelope, snsId);
 541              		.loc 1 837 0
 542 0040 318A     		ldrh	r1, [r6, #16]
 543 0042 2088     		ldrh	r0, [r4]
 544 0044 3A00     		movs	r2, r7
 545 0046 FFF7FEFF 		bl	SmartSense_RunNoiseEnvelope
 546              	.LVL90:
 838:Generated_Source\PSoC6/CapSense_Processing.c **** 
 547              		.loc 1 838 0
 548 004a 2A00     		movs	r2, r5
 549 004c 3900     		movs	r1, r7
 550 004e 3000     		movs	r0, r6
 551 0050 FFF7FEFF 		bl	CapSense_DpUpdateThresholds
 552              	.LVL91:
 855:Generated_Source\PSoC6/CapSense_Processing.c ****         #endif /* (0u != (CapSense_CSD_AUTOTUNE & CapSense_CSD_SS_TH_EN)) */
 553              		.loc 1 855 0
 554 0054 0C37     		adds	r7, r7, #12
 555              	.LVL92:
 865:Generated_Source\PSoC6/CapSense_Processing.c ****         #endif /* (CapSense_ENABLE == CapSense_TST_BSLN_DUPLICATION_EN) */
 556              		.loc 1 865 0
 557 0056 009A     		ldr	r2, [sp]
 558 0058 2100     		movs	r1, r4
 559 005a 3000     		movs	r0, r6
 560 005c FFF7FEFF 		bl	CapSense_FtUpdateBaseline
 561              	.LVL93:
 562 0060 0190     		str	r0, [sp, #4]
 563              	.LVL94:
 868:Generated_Source\PSoC6/CapSense_Processing.c **** 
 564              		.loc 1 868 0
 565 0062 2100     		movs	r1, r4
 566 0064 3000     		movs	r0, r6
 567              	.LVL95:
 568 0066 FFF7FEFF 		bl	CapSense_DpUpdateDifferences
 569              	.LVL96:
 871:Generated_Source\PSoC6/CapSense_Processing.c **** 
 570              		.loc 1 871 0
 571 006a 0A34     		adds	r4, r4, #10
 572              	.LVL97:
 875:Generated_Source\PSoC6/CapSense_Processing.c ****         #endif /* #if (CapSense_ENABLE == CapSense_RC_FILTER_EN) */
 573              		.loc 1 875 0
 574 006c 5B46     		mov	r3, fp
 575 006e 002B     		cmp	r3, #0
 576 0070 02D1     		bne	.L30
 577              	.LVL98:
 875:Generated_Source\PSoC6/CapSense_Processing.c ****         #endif /* #if (CapSense_ENABLE == CapSense_RC_FILTER_EN) */
ARM GAS  C:\Users\ikomb\AppData\Local\Temp\cc6TxH90.s 			page 33


 578              		.loc 1 875 0 is_stmt 0 discriminator 1
 579 0072 0A33     		adds	r3, r3, #10
 580              	.LVL99:
 581 0074 9C46     		mov	ip, r3
 582 0076 E144     		add	r9, r9, ip
 583              	.LVL100:
 584              	.L30:
 825:Generated_Source\PSoC6/CapSense_Processing.c ****     {
 585              		.loc 1 825 0 is_stmt 1 discriminator 2
 586 0078 0135     		adds	r5, r5, #1
 587              	.LVL101:
 588              	.L29:
 825:Generated_Source\PSoC6/CapSense_Processing.c ****     {
 589              		.loc 1 825 0 is_stmt 0 discriminator 1
 590 007a 5346     		mov	r3, r10
 591 007c 1B8B     		ldrh	r3, [r3, #24]
 592 007e 9D42     		cmp	r5, r3
 593 0080 D9D3     		bcc	.L31
 879:Generated_Source\PSoC6/CapSense_Processing.c **** 
 594              		.loc 1 879 0 is_stmt 1
 595 0082 0198     		ldr	r0, [sp, #4]
 596 0084 02B0     		add	sp, sp, #8
 597              	.LVL102:
 598              		@ sp needed
 599              	.LVL103:
 600              	.LVL104:
 601              	.LVL105:
 602              	.LVL106:
 603              	.LVL107:
 604              	.LVL108:
 605              	.LVL109:
 606 0086 1CBC     		pop	{r2, r3, r4}
 607 0088 9146     		mov	r9, r2
 608 008a 9A46     		mov	r10, r3
 609 008c A346     		mov	fp, r4
 610 008e F0BD     		pop	{r4, r5, r6, r7, pc}
 611              		.cfi_endproc
 612              	.LFE41:
 613              		.size	CapSense_DpProcessCsdWidgetRawCounts, .-CapSense_DpProcessCsdWidgetRawCounts
 614              		.section	.text.CapSense_DpProcessCsdSensorRawCountsExt,"ax",%progbits
 615              		.align	2
 616              		.global	CapSense_DpProcessCsdSensorRawCountsExt
 617              		.code	16
 618              		.thumb_func
 619              		.type	CapSense_DpProcessCsdSensorRawCountsExt, %function
 620              	CapSense_DpProcessCsdSensorRawCountsExt:
 621              	.LFB42:
 920:Generated_Source\PSoC6/CapSense_Processing.c ****     uint32 result = CY_RET_SUCCESS;
 622              		.loc 1 920 0
 623              		.cfi_startproc
 624              		@ args = 0, pretend = 0, frame = 8
 625              		@ frame_needed = 0, uses_anonymous_args = 0
 626              	.LVL110:
 627 0000 F0B5     		push	{r4, r5, r6, r7, lr}
 628              		.cfi_def_cfa_offset 20
 629              		.cfi_offset 4, -20
 630              		.cfi_offset 5, -16
ARM GAS  C:\Users\ikomb\AppData\Local\Temp\cc6TxH90.s 			page 34


 631              		.cfi_offset 6, -12
 632              		.cfi_offset 7, -8
 633              		.cfi_offset 14, -4
 634 0002 83B0     		sub	sp, sp, #12
 635              		.cfi_def_cfa_offset 32
 636 0004 0091     		str	r1, [sp]
 637 0006 0192     		str	r2, [sp, #4]
 638 0008 1C00     		movs	r4, r3
 639              	.LVL111:
 932:Generated_Source\PSoC6/CapSense_Processing.c ****     #endif /* (0u != (CapSense_CSD_AUTOTUNE & CapSense_CSD_SS_TH_EN)) */
 640              		.loc 1 932 0
 641 000a 466A     		ldr	r6, [r0, #36]
 642              	.LVL112:
 935:Generated_Source\PSoC6/CapSense_Processing.c ****     ptrRamWdgt = (CapSense_RAM_WD_BASE_STRUCT *)ptrFlashWdgt->ptr2WdgtRam;
 643              		.loc 1 935 0
 644 000c 877E     		ldrb	r7, [r0, #26]
 645              	.LVL113:
 936:Generated_Source\PSoC6/CapSense_Processing.c **** 
 646              		.loc 1 936 0
 647 000e 4568     		ldr	r5, [r0, #4]
 648              	.LVL114:
 939:Generated_Source\PSoC6/CapSense_Processing.c ****         {
 649              		.loc 1 939 0
 650 0010 E307     		lsls	r3, r4, #31
 651 0012 03D5     		bpl	.L34
 652              	.LVL115:
 941:Generated_Source\PSoC6/CapSense_Processing.c ****             #if (CapSense_ALP_FILTER_EN)
 653              		.loc 1 941 0
 654 0014 3A00     		movs	r2, r7
 655              	.LVL116:
 656 0016 0198     		ldr	r0, [sp, #4]
 657              	.LVL117:
 658 0018 FFF7FEFF 		bl	CapSense_FtRunEnabledFiltersInternal
 659              	.LVL118:
 660              	.L34:
 951:Generated_Source\PSoC6/CapSense_Processing.c ****         {
 661              		.loc 1 951 0
 662 001c 2307     		lsls	r3, r4, #28
 663 001e 05D5     		bpl	.L35
 953:Generated_Source\PSoC6/CapSense_Processing.c ****         }
 664              		.loc 1 953 0
 665 0020 298A     		ldrh	r1, [r5, #16]
 666 0022 009B     		ldr	r3, [sp]
 667 0024 1888     		ldrh	r0, [r3]
 668 0026 3200     		movs	r2, r6
 669              	.LVL119:
 670 0028 FFF7FEFF 		bl	SmartSense_RunNoiseEnvelope
 671              	.LVL120:
 672              	.L35:
 956:Generated_Source\PSoC6/CapSense_Processing.c ****         {
 673              		.loc 1 956 0
 674 002c E306     		lsls	r3, r4, #27
 675 002e 04D5     		bpl	.L36
 958:Generated_Source\PSoC6/CapSense_Processing.c **** 
 676              		.loc 1 958 0
 677 0030 0022     		movs	r2, #0
 678              	.LVL121:
ARM GAS  C:\Users\ikomb\AppData\Local\Temp\cc6TxH90.s 			page 35


 679 0032 3100     		movs	r1, r6
 680 0034 2800     		movs	r0, r5
 681 0036 FFF7FEFF 		bl	CapSense_DpUpdateThresholds
 682              	.LVL122:
 683              	.L36:
 976:Generated_Source\PSoC6/CapSense_Processing.c ****     {
 684              		.loc 1 976 0
 685 003a A307     		lsls	r3, r4, #30
 686 003c 06D5     		bpl	.L39
 978:Generated_Source\PSoC6/CapSense_Processing.c ****     }
 687              		.loc 1 978 0
 688 003e 3A00     		movs	r2, r7
 689              	.LVL123:
 690 0040 0099     		ldr	r1, [sp]
 691 0042 2800     		movs	r0, r5
 692 0044 FFF7FEFF 		bl	CapSense_FtUpdateBaseline
 693              	.LVL124:
 694 0048 0700     		movs	r7, r0
 695              	.LVL125:
 696 004a 00E0     		b	.L37
 697              	.LVL126:
 698              	.L39:
 921:Generated_Source\PSoC6/CapSense_Processing.c ****     uint32  widgetType;
 699              		.loc 1 921 0
 700 004c 0027     		movs	r7, #0
 701              	.LVL127:
 702              	.L37:
 981:Generated_Source\PSoC6/CapSense_Processing.c ****     {
 703              		.loc 1 981 0
 704 004e 6307     		lsls	r3, r4, #29
 705 0050 03D5     		bpl	.L38
 983:Generated_Source\PSoC6/CapSense_Processing.c ****     }
 706              		.loc 1 983 0
 707 0052 0099     		ldr	r1, [sp]
 708 0054 2800     		movs	r0, r5
 709 0056 FFF7FEFF 		bl	CapSense_DpUpdateDifferences
 710              	.LVL128:
 711              	.L38:
 986:Generated_Source\PSoC6/CapSense_Processing.c **** 
 712              		.loc 1 986 0
 713 005a 3800     		movs	r0, r7
 714 005c 03B0     		add	sp, sp, #12
 715              	.LVL129:
 716              		@ sp needed
 717              	.LVL130:
 718              	.LVL131:
 719              	.LVL132:
 720              	.LVL133:
 721 005e F0BD     		pop	{r4, r5, r6, r7, pc}
 722              		.cfi_endproc
 723              	.LFE42:
 724              		.size	CapSense_DpProcessCsdSensorRawCountsExt, .-CapSense_DpProcessCsdSensorRawCountsExt
 725              		.section	.text.CapSense_DpProcessButton,"ax",%progbits
 726              		.align	2
 727              		.global	CapSense_DpProcessButton
 728              		.code	16
 729              		.thumb_func
ARM GAS  C:\Users\ikomb\AppData\Local\Temp\cc6TxH90.s 			page 36


 730              		.type	CapSense_DpProcessButton, %function
 731              	CapSense_DpProcessButton:
 732              	.LFB46:
1191:Generated_Source\PSoC6/CapSense_Processing.c **** 
1192:Generated_Source\PSoC6/CapSense_Processing.c **** 
1193:Generated_Source\PSoC6/CapSense_Processing.c **** #if ((0u != CapSense_BUTTON_WIDGET_EN) || (0u != CapSense_CSX_MATRIX_WIDGET_EN))
1194:Generated_Source\PSoC6/CapSense_Processing.c **** /*******************************************************************************
1195:Generated_Source\PSoC6/CapSense_Processing.c **** * Function Name: CapSense_DpProcessButton
1196:Generated_Source\PSoC6/CapSense_Processing.c **** ****************************************************************************//**
1197:Generated_Source\PSoC6/CapSense_Processing.c **** *
1198:Generated_Source\PSoC6/CapSense_Processing.c **** * \brief
1199:Generated_Source\PSoC6/CapSense_Processing.c **** *   Processes the status of the Button widget.
1200:Generated_Source\PSoC6/CapSense_Processing.c **** *
1201:Generated_Source\PSoC6/CapSense_Processing.c **** * \details
1202:Generated_Source\PSoC6/CapSense_Processing.c **** *   This API processes the status of the CSD/CSX Button widget and
1203:Generated_Source\PSoC6/CapSense_Processing.c **** *   CSX Matrix Button widget. It applies the hysteresis and de-bounce algorithm
1204:Generated_Source\PSoC6/CapSense_Processing.c **** *   to each sensor difference value. This API is expected to be called
1205:Generated_Source\PSoC6/CapSense_Processing.c **** *   after each new widget scan. If it is called multiple times for the same
1206:Generated_Source\PSoC6/CapSense_Processing.c **** *   scan data, the de-bounce algorithm will not work properly.
1207:Generated_Source\PSoC6/CapSense_Processing.c **** *
1208:Generated_Source\PSoC6/CapSense_Processing.c **** *   This API does not update any Data Structure registers
1209:Generated_Source\PSoC6/CapSense_Processing.c **** *   except the de-bounce counters.
1210:Generated_Source\PSoC6/CapSense_Processing.c **** *
1211:Generated_Source\PSoC6/CapSense_Processing.c **** * \param currStatus   The current status of the widget sensors.
1212:Generated_Source\PSoC6/CapSense_Processing.c **** * \param ptrFlashWdgt The pointer to the Flash Widget Object.
1213:Generated_Source\PSoC6/CapSense_Processing.c **** *
1214:Generated_Source\PSoC6/CapSense_Processing.c **** * \return Returns the status of the widget's sensors. Bit #0 - corresponds to Sensor #0.
1215:Generated_Source\PSoC6/CapSense_Processing.c **** *
1216:Generated_Source\PSoC6/CapSense_Processing.c **** *******************************************************************************/
1217:Generated_Source\PSoC6/CapSense_Processing.c **** uint32 CapSense_DpProcessButton(uint32 currStatus, CapSense_FLASH_WD_STRUCT const *ptrFlashWdgt)
1218:Generated_Source\PSoC6/CapSense_Processing.c **** {
 733              		.loc 1 1218 0
 734              		.cfi_startproc
 735              		@ args = 0, pretend = 0, frame = 0
 736              		@ frame_needed = 0, uses_anonymous_args = 0
 737              	.LVL134:
 738 0000 F0B5     		push	{r4, r5, r6, r7, lr}
 739              		.cfi_def_cfa_offset 20
 740              		.cfi_offset 4, -20
 741              		.cfi_offset 5, -16
 742              		.cfi_offset 6, -12
 743              		.cfi_offset 7, -8
 744              		.cfi_offset 14, -4
1219:Generated_Source\PSoC6/CapSense_Processing.c ****     uint32 snsCnt;
1220:Generated_Source\PSoC6/CapSense_Processing.c ****     uint32 snsMask;
1221:Generated_Source\PSoC6/CapSense_Processing.c ****     uint32 newStatus;
1222:Generated_Source\PSoC6/CapSense_Processing.c ****     uint32 touchTh;
1223:Generated_Source\PSoC6/CapSense_Processing.c ****     CapSense_RAM_SNS_STRUCT *ptrSnsTmp;
1224:Generated_Source\PSoC6/CapSense_Processing.c ****     CapSense_RAM_WD_BASE_STRUCT *ptrRamWdgt;
1225:Generated_Source\PSoC6/CapSense_Processing.c ****     uint8 * ptrDebounceCnt;
1226:Generated_Source\PSoC6/CapSense_Processing.c **** 
1227:Generated_Source\PSoC6/CapSense_Processing.c ****     snsCnt = ptrFlashWdgt->totalNumSns;
 745              		.loc 1 1227 0
 746 0002 0A8B     		ldrh	r2, [r1, #24]
 747              	.LVL135:
1228:Generated_Source\PSoC6/CapSense_Processing.c ****     ptrSnsTmp = ptrFlashWdgt->ptr2SnsRam;
 748              		.loc 1 1228 0
ARM GAS  C:\Users\ikomb\AppData\Local\Temp\cc6TxH90.s 			page 37


 749 0004 8D68     		ldr	r5, [r1, #8]
 750              	.LVL136:
1229:Generated_Source\PSoC6/CapSense_Processing.c ****     ptrRamWdgt = (CapSense_RAM_WD_BASE_STRUCT *)ptrFlashWdgt->ptr2WdgtRam;
 751              		.loc 1 1229 0
 752 0006 4F68     		ldr	r7, [r1, #4]
 753              	.LVL137:
1230:Generated_Source\PSoC6/CapSense_Processing.c ****     ptrDebounceCnt = ptrFlashWdgt->ptr2DebounceArr;
 754              		.loc 1 1230 0
 755 0008 0B69     		ldr	r3, [r1, #16]
 756              	.LVL138:
1231:Generated_Source\PSoC6/CapSense_Processing.c **** 
1232:Generated_Source\PSoC6/CapSense_Processing.c ****     /* Go through all widget's sensors */
1233:Generated_Source\PSoC6/CapSense_Processing.c ****     snsMask = 1Lu;
 757              		.loc 1 1233 0
 758 000a 0121     		movs	r1, #1
 759              	.LVL139:
1234:Generated_Source\PSoC6/CapSense_Processing.c ****     for (; snsCnt-- > 0u; )
 760              		.loc 1 1234 0
 761 000c 25E0     		b	.L41
 762              	.LVL140:
 763              	.L49:
1235:Generated_Source\PSoC6/CapSense_Processing.c ****     {
1236:Generated_Source\PSoC6/CapSense_Processing.c ****         /* Calculate touch threshold taking into account hysteresis
1237:Generated_Source\PSoC6/CapSense_Processing.c ****            and current sensor state. */
1238:Generated_Source\PSoC6/CapSense_Processing.c ****         touchTh = (0u == (currStatus & snsMask)) ?
 764              		.loc 1 1238 0
 765 000e 0C00     		movs	r4, r1
 766              	.LVL141:
 767 0010 0440     		ands	r4, r0
1239:Generated_Source\PSoC6/CapSense_Processing.c ****                   ((uint32)ptrRamWdgt->fingerTh + ptrRamWdgt->hysteresis) :
 768              		.loc 1 1239 0
 769 0012 03D1     		bne	.L42
 770              		.loc 1 1239 0 is_stmt 0 discriminator 1
 771 0014 7E88     		ldrh	r6, [r7, #2]
 772 0016 BA79     		ldrb	r2, [r7, #6]
 773 0018 B218     		adds	r2, r6, r2
 774 001a 02E0     		b	.L43
 775              	.L42:
1240:Generated_Source\PSoC6/CapSense_Processing.c ****                   ((uint32)ptrRamWdgt->fingerTh - ptrRamWdgt->hysteresis);
 776              		.loc 1 1240 0 is_stmt 1 discriminator 2
 777 001c 7A88     		ldrh	r2, [r7, #2]
 778 001e BE79     		ldrb	r6, [r7, #6]
1239:Generated_Source\PSoC6/CapSense_Processing.c ****                   ((uint32)ptrRamWdgt->fingerTh + ptrRamWdgt->hysteresis) :
 779              		.loc 1 1239 0 discriminator 2
 780 0020 921B     		subs	r2, r2, r6
 781              	.L43:
 782              	.LVL142:
1241:Generated_Source\PSoC6/CapSense_Processing.c **** 
1242:Generated_Source\PSoC6/CapSense_Processing.c ****         /* Determine new potential sensor state */
1243:Generated_Source\PSoC6/CapSense_Processing.c ****         newStatus = (ptrSnsTmp->diff > touchTh) ? snsMask : 0u;
 783              		.loc 1 1243 0
 784 0022 EE88     		ldrh	r6, [r5, #6]
 785 0024 B242     		cmp	r2, r6
 786 0026 01D3     		bcc	.L50
 787 0028 0022     		movs	r2, #0
 788              	.LVL143:
 789 002a 00E0     		b	.L44
ARM GAS  C:\Users\ikomb\AppData\Local\Temp\cc6TxH90.s 			page 38


 790              	.LVL144:
 791              	.L50:
 792 002c 0A00     		movs	r2, r1
 793              	.LVL145:
 794              	.L44:
1244:Generated_Source\PSoC6/CapSense_Processing.c **** 
1245:Generated_Source\PSoC6/CapSense_Processing.c ****         /* Sensor state changed ? */
1246:Generated_Source\PSoC6/CapSense_Processing.c ****         if (newStatus != (currStatus & snsMask))
 795              		.loc 1 1246 0 discriminator 4
 796 002e A242     		cmp	r2, r4
 797 0030 02D0     		beq	.L45
1247:Generated_Source\PSoC6/CapSense_Processing.c ****         {
1248:Generated_Source\PSoC6/CapSense_Processing.c ****             /* Decrement de-bounce counter */
1249:Generated_Source\PSoC6/CapSense_Processing.c ****             (*ptrDebounceCnt)--;
 798              		.loc 1 1249 0
 799 0032 1E78     		ldrb	r6, [r3]
 800 0034 013E     		subs	r6, r6, #1
 801 0036 1E70     		strb	r6, [r3]
 802              	.L45:
1250:Generated_Source\PSoC6/CapSense_Processing.c ****         }
1251:Generated_Source\PSoC6/CapSense_Processing.c **** 
1252:Generated_Source\PSoC6/CapSense_Processing.c ****         /*
1253:Generated_Source\PSoC6/CapSense_Processing.c ****         *  This piece of code has two objectives:
1254:Generated_Source\PSoC6/CapSense_Processing.c ****         *  1. Reset de-bounce counter if the sensor state did not change.
1255:Generated_Source\PSoC6/CapSense_Processing.c ****         *     (It is possible that during previous processing cycles sensor
1256:Generated_Source\PSoC6/CapSense_Processing.c ****         *     was active and de-bounce counter was decremented.)
1257:Generated_Source\PSoC6/CapSense_Processing.c ****         *  2. Set new sensor state after successful de-bounce.
1258:Generated_Source\PSoC6/CapSense_Processing.c ****         */
1259:Generated_Source\PSoC6/CapSense_Processing.c ****         if ((newStatus == (currStatus & snsMask)) || (0u == (*ptrDebounceCnt)))
 803              		.loc 1 1259 0
 804 0038 A242     		cmp	r2, r4
 805 003a 02D0     		beq	.L46
 806              		.loc 1 1259 0 is_stmt 0 discriminator 1
 807 003c 1C78     		ldrb	r4, [r3]
 808 003e 002C     		cmp	r4, #0
 809 0040 07D1     		bne	.L47
 810              	.L46:
1260:Generated_Source\PSoC6/CapSense_Processing.c ****         {
1261:Generated_Source\PSoC6/CapSense_Processing.c ****             /* Set new sensor status */
1262:Generated_Source\PSoC6/CapSense_Processing.c ****             currStatus &= ~snsMask;
 811              		.loc 1 1262 0 is_stmt 1
 812 0042 8843     		bics	r0, r1
 813              	.LVL146:
1263:Generated_Source\PSoC6/CapSense_Processing.c ****             currStatus |= newStatus;
 814              		.loc 1 1263 0
 815 0044 1043     		orrs	r0, r2
 816              	.LVL147:
1264:Generated_Source\PSoC6/CapSense_Processing.c **** 
1265:Generated_Source\PSoC6/CapSense_Processing.c ****             /* Reset de-bounce counter */
1266:Generated_Source\PSoC6/CapSense_Processing.c ****             #if (0u != CapSense_OFF_DEBOUNCE_EN)
1267:Generated_Source\PSoC6/CapSense_Processing.c ****                 *ptrDebounceCnt = (0Lu == newStatus) ? ptrRamWdgt->onDebounce : ptrRamWdgt->offDebo
1268:Generated_Source\PSoC6/CapSense_Processing.c ****             #else
1269:Generated_Source\PSoC6/CapSense_Processing.c ****                 *ptrDebounceCnt = (0Lu == newStatus) ? ptrRamWdgt->onDebounce : DEFAULT_OFF_DEBOUNC
 817              		.loc 1 1269 0
 818 0046 002A     		cmp	r2, #0
 819 0048 01D1     		bne	.L51
 820              		.loc 1 1269 0 is_stmt 0 discriminator 1
ARM GAS  C:\Users\ikomb\AppData\Local\Temp\cc6TxH90.s 			page 39


 821 004a FA79     		ldrb	r2, [r7, #7]
 822              	.LVL148:
 823 004c 00E0     		b	.L48
 824              	.LVL149:
 825              	.L51:
 826              		.loc 1 1269 0
 827 004e 0122     		movs	r2, #1
 828              	.LVL150:
 829              	.L48:
 830              		.loc 1 1269 0 discriminator 4
 831 0050 1A70     		strb	r2, [r3]
 832              	.L47:
1270:Generated_Source\PSoC6/CapSense_Processing.c ****             #endif /* #if (0u != CapSense_OFF_DEBOUNCE_EN) */
1271:Generated_Source\PSoC6/CapSense_Processing.c ****         }
1272:Generated_Source\PSoC6/CapSense_Processing.c **** 
1273:Generated_Source\PSoC6/CapSense_Processing.c ****         /* Move mask to the next sensor */
1274:Generated_Source\PSoC6/CapSense_Processing.c ****         snsMask <<= 1u;
 833              		.loc 1 1274 0 is_stmt 1
 834 0052 4900     		lsls	r1, r1, #1
 835              	.LVL151:
1275:Generated_Source\PSoC6/CapSense_Processing.c **** 
1276:Generated_Source\PSoC6/CapSense_Processing.c ****         ptrSnsTmp++;
 836              		.loc 1 1276 0
 837 0054 0A35     		adds	r5, r5, #10
 838              	.LVL152:
1277:Generated_Source\PSoC6/CapSense_Processing.c ****         ptrDebounceCnt++;
 839              		.loc 1 1277 0
 840 0056 0133     		adds	r3, r3, #1
 841              	.LVL153:
1234:Generated_Source\PSoC6/CapSense_Processing.c ****     {
 842              		.loc 1 1234 0
 843 0058 6246     		mov	r2, ip
 844              	.LVL154:
 845              	.L41:
 846 005a 541E     		subs	r4, r2, #1
 847 005c A446     		mov	ip, r4
 848              	.LVL155:
 849 005e 002A     		cmp	r2, #0
 850 0060 D5D1     		bne	.L49
1278:Generated_Source\PSoC6/CapSense_Processing.c ****     }
1279:Generated_Source\PSoC6/CapSense_Processing.c **** 
1280:Generated_Source\PSoC6/CapSense_Processing.c ****     return currStatus;
1281:Generated_Source\PSoC6/CapSense_Processing.c **** }
 851              		.loc 1 1281 0
 852              		@ sp needed
 853              	.LVL156:
 854              	.LVL157:
 855              	.LVL158:
 856 0062 F0BD     		pop	{r4, r5, r6, r7, pc}
 857              		.cfi_endproc
 858              	.LFE46:
 859              		.size	CapSense_DpProcessButton, .-CapSense_DpProcessButton
 860              		.section	.text.CapSense_DpProcessCsxWidgetStatus,"ax",%progbits
 861              		.align	2
 862              		.global	CapSense_DpProcessCsxWidgetStatus
 863              		.code	16
 864              		.thumb_func
ARM GAS  C:\Users\ikomb\AppData\Local\Temp\cc6TxH90.s 			page 40


 865              		.type	CapSense_DpProcessCsxWidgetStatus, %function
 866              	CapSense_DpProcessCsxWidgetStatus:
 867              	.LFB40:
 706:Generated_Source\PSoC6/CapSense_Processing.c ****     uint32 sensorStatus;
 868              		.loc 1 706 0
 869              		.cfi_startproc
 870              		@ args = 0, pretend = 0, frame = 0
 871              		@ frame_needed = 0, uses_anonymous_args = 0
 872              	.LVL159:
 873 0000 70B5     		push	{r4, r5, r6, lr}
 874              		.cfi_def_cfa_offset 16
 875              		.cfi_offset 4, -16
 876              		.cfi_offset 5, -12
 877              		.cfi_offset 6, -8
 878              		.cfi_offset 14, -4
 879 0002 0400     		movs	r4, r0
 712:Generated_Source\PSoC6/CapSense_Processing.c ****     sensorStatus = CapSense_dsRam.snsStatus[widgetId];
 880              		.loc 1 712 0
 881 0004 8A7E     		ldrb	r2, [r1, #26]
 882              	.LVL160:
 713:Generated_Source\PSoC6/CapSense_Processing.c **** 
 883              		.loc 1 713 0
 884 0006 144B     		ldr	r3, .L59
 885 0008 1B18     		adds	r3, r3, r0
 886 000a 1D7E     		ldrb	r5, [r3, #24]
 887              	.LVL161:
 715:Generated_Source\PSoC6/CapSense_Processing.c ****     {
 888              		.loc 1 715 0
 889 000c 012A     		cmp	r2, #1
 890 000e 04D1     		bne	.L58
 719:Generated_Source\PSoC6/CapSense_Processing.c ****             break;
 891              		.loc 1 719 0
 892 0010 2800     		movs	r0, r5
 893              	.LVL162:
 894 0012 FFF7FEFF 		bl	CapSense_DpProcessButton
 895              	.LVL163:
 896 0016 0500     		movs	r5, r0
 897              	.LVL164:
 720:Generated_Source\PSoC6/CapSense_Processing.c ****     #endif /* #if (0u != CapSense_BUTTON_WIDGET_EN) */
 898              		.loc 1 720 0
 899 0018 04E0     		b	.L55
 900              	.LVL165:
 901              	.L58:
 736:Generated_Source\PSoC6/CapSense_Processing.c ****         break;
 902              		.loc 1 736 0 discriminator 1
 903 001a B821     		movs	r1, #184
 904              	.LVL166:
 905 001c 8900     		lsls	r1, r1, #2
 906 001e 0F48     		ldr	r0, .L59+4
 907              	.LVL167:
 908 0020 FFF7FEFF 		bl	Cy_SysLib_AssertFailed
 909              	.LVL168:
 910              	.L55:
 741:Generated_Source\PSoC6/CapSense_Processing.c **** 
 911              		.loc 1 741 0
 912 0024 0C4B     		ldr	r3, .L59
 913 0026 1B19     		adds	r3, r3, r4
ARM GAS  C:\Users\ikomb\AppData\Local\Temp\cc6TxH90.s 			page 41


 914 0028 1D76     		strb	r5, [r3, #24]
 744:Generated_Source\PSoC6/CapSense_Processing.c ****     wdStatusMask = CapSense_GET_WDGT_STATUS_MASK(widgetId);
 915              		.loc 1 744 0
 916 002a 6309     		lsrs	r3, r4, #5
 917              	.LVL169:
 745:Generated_Source\PSoC6/CapSense_Processing.c **** 
 918              		.loc 1 745 0
 919 002c 1F22     		movs	r2, #31
 920 002e 1440     		ands	r4, r2
 921              	.LVL170:
 922 0030 1E3A     		subs	r2, r2, #30
 923 0032 A240     		lsls	r2, r2, r4
 924              	.LVL171:
 748:Generated_Source\PSoC6/CapSense_Processing.c ****     {
 925              		.loc 1 748 0
 926 0034 002D     		cmp	r5, #0
 927 0036 07D1     		bne	.L56
 750:Generated_Source\PSoC6/CapSense_Processing.c ****     }
 928              		.loc 1 750 0
 929 0038 0433     		adds	r3, r3, #4
 930              	.LVL172:
 931 003a 9B00     		lsls	r3, r3, #2
 932              	.LVL173:
 933 003c 0649     		ldr	r1, .L59
 934 003e CB18     		adds	r3, r1, r3
 935 0040 5968     		ldr	r1, [r3, #4]
 936 0042 9143     		bics	r1, r2
 937 0044 5960     		str	r1, [r3, #4]
 938 0046 06E0     		b	.L52
 939              	.LVL174:
 940              	.L56:
 754:Generated_Source\PSoC6/CapSense_Processing.c ****     }
 941              		.loc 1 754 0
 942 0048 0433     		adds	r3, r3, #4
 943              	.LVL175:
 944 004a 9B00     		lsls	r3, r3, #2
 945              	.LVL176:
 946 004c 0249     		ldr	r1, .L59
 947 004e CB18     		adds	r3, r1, r3
 948 0050 5968     		ldr	r1, [r3, #4]
 949 0052 0A43     		orrs	r2, r1
 950              	.LVL177:
 951 0054 5A60     		str	r2, [r3, #4]
 952              	.L52:
 756:Generated_Source\PSoC6/CapSense_Processing.c **** #endif /* #if CapSense_TOTAL_CSX_WIDGETS */
 953              		.loc 1 756 0
 954              		@ sp needed
 955              	.LVL178:
 956              	.LVL179:
 957 0056 70BD     		pop	{r4, r5, r6, pc}
 958              	.L60:
 959              		.align	2
 960              	.L59:
 961 0058 00000000 		.word	CapSense_dsRam
 962 005c 00000000 		.word	.LC3
 963              		.cfi_endproc
 964              	.LFE40:
ARM GAS  C:\Users\ikomb\AppData\Local\Temp\cc6TxH90.s 			page 42


 965              		.size	CapSense_DpProcessCsxWidgetStatus, .-CapSense_DpProcessCsxWidgetStatus
 966              		.section	.text.CapSense_DpProcessSlider,"ax",%progbits
 967              		.align	2
 968              		.global	CapSense_DpProcessSlider
 969              		.code	16
 970              		.thumb_func
 971              		.type	CapSense_DpProcessSlider, %function
 972              	CapSense_DpProcessSlider:
 973              	.LFB47:
1282:Generated_Source\PSoC6/CapSense_Processing.c **** #endif /* #if ((0u != CapSense_BUTTON_WIDGET_EN) || (0u != CapSense_CSX_MATRIX_WIDGET_EN)) */
1283:Generated_Source\PSoC6/CapSense_Processing.c **** 
1284:Generated_Source\PSoC6/CapSense_Processing.c **** 
1285:Generated_Source\PSoC6/CapSense_Processing.c **** #if (0u != CapSense_PROXIMITY_WIDGET_EN)
1286:Generated_Source\PSoC6/CapSense_Processing.c **** /*******************************************************************************
1287:Generated_Source\PSoC6/CapSense_Processing.c **** * Function Name: CapSense_DpProcessProximity
1288:Generated_Source\PSoC6/CapSense_Processing.c **** ****************************************************************************//**
1289:Generated_Source\PSoC6/CapSense_Processing.c **** *
1290:Generated_Source\PSoC6/CapSense_Processing.c **** * \brief
1291:Generated_Source\PSoC6/CapSense_Processing.c **** *   Processes the status of the Proximity widget.
1292:Generated_Source\PSoC6/CapSense_Processing.c **** *
1293:Generated_Source\PSoC6/CapSense_Processing.c **** * \details
1294:Generated_Source\PSoC6/CapSense_Processing.c **** *   This API processes the status of the CSD Proximity widget. It applies the
1295:Generated_Source\PSoC6/CapSense_Processing.c **** *   hysteresis and debounce algorithm to each sensor difference value.
1296:Generated_Source\PSoC6/CapSense_Processing.c **** *   The proximity and touch events are considered independently so debounce and
1297:Generated_Source\PSoC6/CapSense_Processing.c **** *   hysteresis are also applied independently.
1298:Generated_Source\PSoC6/CapSense_Processing.c **** *
1299:Generated_Source\PSoC6/CapSense_Processing.c **** *   This API is expected to be called after each new widget scan. If it is
1300:Generated_Source\PSoC6/CapSense_Processing.c **** *   called multiple times for the same scan data the debounce algorithm
1301:Generated_Source\PSoC6/CapSense_Processing.c **** *   will not work properly.
1302:Generated_Source\PSoC6/CapSense_Processing.c **** *
1303:Generated_Source\PSoC6/CapSense_Processing.c **** *   This API does not update any Data Structure registers
1304:Generated_Source\PSoC6/CapSense_Processing.c **** *   except the debounce counters.
1305:Generated_Source\PSoC6/CapSense_Processing.c **** *
1306:Generated_Source\PSoC6/CapSense_Processing.c **** * \param currStatus   The value with the current widget status.
1307:Generated_Source\PSoC6/CapSense_Processing.c **** * \param ptrFlashWdgt The pointer to the Flash Widget Object.
1308:Generated_Source\PSoC6/CapSense_Processing.c **** *
1309:Generated_Source\PSoC6/CapSense_Processing.c **** * \return
1310:Generated_Source\PSoC6/CapSense_Processing.c **** *  Returns the status of the proximity sensors. Each sensor is represented by two bits
1311:Generated_Source\PSoC6/CapSense_Processing.c **** *  that can take the following values:
1312:Generated_Source\PSoC6/CapSense_Processing.c **** *   - 00b not active
1313:Generated_Source\PSoC6/CapSense_Processing.c **** *   - 01b proximity is detected (signal is above finger threshold)
1314:Generated_Source\PSoC6/CapSense_Processing.c **** *   - 11b finger touch is detected (signal is above the touch threshold)
1315:Generated_Source\PSoC6/CapSense_Processing.c **** *
1316:Generated_Source\PSoC6/CapSense_Processing.c **** *******************************************************************************/
1317:Generated_Source\PSoC6/CapSense_Processing.c **** uint32 CapSense_DpProcessProximity(uint32 currStatus, CapSense_FLASH_WD_STRUCT const *ptrFlashWdgt)
1318:Generated_Source\PSoC6/CapSense_Processing.c **** {
1319:Generated_Source\PSoC6/CapSense_Processing.c ****     uint32 currTh;
1320:Generated_Source\PSoC6/CapSense_Processing.c ****     uint32 snsCnt;
1321:Generated_Source\PSoC6/CapSense_Processing.c ****     uint32 snsMask;
1322:Generated_Source\PSoC6/CapSense_Processing.c ****     uint32 newStatus;
1323:Generated_Source\PSoC6/CapSense_Processing.c ****     uint32 difference;
1324:Generated_Source\PSoC6/CapSense_Processing.c **** 
1325:Generated_Source\PSoC6/CapSense_Processing.c ****     uint8 *ptrDebounceCnt;
1326:Generated_Source\PSoC6/CapSense_Processing.c ****     CapSense_RAM_SNS_STRUCT *ptrSnsTmp;
1327:Generated_Source\PSoC6/CapSense_Processing.c ****     CapSense_RAM_WD_PROXIMITY_STRUCT *ptrRamWdgt;
1328:Generated_Source\PSoC6/CapSense_Processing.c **** 
1329:Generated_Source\PSoC6/CapSense_Processing.c ****     /* Mask for proximity status bits. (All odd bits.) */
ARM GAS  C:\Users\ikomb\AppData\Local\Temp\cc6TxH90.s 			page 43


1330:Generated_Source\PSoC6/CapSense_Processing.c ****     const uint32 proxMask = UINT32_ODD_BITS_CONST;
1331:Generated_Source\PSoC6/CapSense_Processing.c **** 
1332:Generated_Source\PSoC6/CapSense_Processing.c ****     ptrSnsTmp = ptrFlashWdgt->ptr2SnsRam;
1333:Generated_Source\PSoC6/CapSense_Processing.c ****     ptrRamWdgt = (CapSense_RAM_WD_PROXIMITY_STRUCT *)ptrFlashWdgt->ptr2WdgtRam;
1334:Generated_Source\PSoC6/CapSense_Processing.c ****     ptrDebounceCnt = ptrFlashWdgt->ptr2DebounceArr;
1335:Generated_Source\PSoC6/CapSense_Processing.c **** 
1336:Generated_Source\PSoC6/CapSense_Processing.c ****     /* Get number of sensors and multiply it by 2 - proximity and touch statuses per sensor. */
1337:Generated_Source\PSoC6/CapSense_Processing.c ****     snsCnt = (uint32)ptrFlashWdgt->totalNumSns << 1u;
1338:Generated_Source\PSoC6/CapSense_Processing.c **** 
1339:Generated_Source\PSoC6/CapSense_Processing.c ****     /* Go through all sensor's status bits */
1340:Generated_Source\PSoC6/CapSense_Processing.c ****     snsMask = 1Lu;
1341:Generated_Source\PSoC6/CapSense_Processing.c ****     for (; snsCnt-- > 0u;)
1342:Generated_Source\PSoC6/CapSense_Processing.c ****     {
1343:Generated_Source\PSoC6/CapSense_Processing.c ****         difference = ptrSnsTmp->diff;
1344:Generated_Source\PSoC6/CapSense_Processing.c **** 
1345:Generated_Source\PSoC6/CapSense_Processing.c ****         /* Determine current event (proximity - odd; touch - even) and get appropriate threshold. *
1346:Generated_Source\PSoC6/CapSense_Processing.c ****         currTh = ptrRamWdgt->fingerTh;
1347:Generated_Source\PSoC6/CapSense_Processing.c **** 
1348:Generated_Source\PSoC6/CapSense_Processing.c ****         if (0u == (snsMask & proxMask))
1349:Generated_Source\PSoC6/CapSense_Processing.c ****         {
1350:Generated_Source\PSoC6/CapSense_Processing.c ****             currTh = ptrRamWdgt->proxTouchTh;
1351:Generated_Source\PSoC6/CapSense_Processing.c ****             ptrSnsTmp++;
1352:Generated_Source\PSoC6/CapSense_Processing.c ****         }
1353:Generated_Source\PSoC6/CapSense_Processing.c **** 
1354:Generated_Source\PSoC6/CapSense_Processing.c ****         /* Calculate finger threshold applying hysteresis based on current sensor state. */
1355:Generated_Source\PSoC6/CapSense_Processing.c ****         currTh = (0u == (currStatus & snsMask)) ? (currTh + ptrRamWdgt->hysteresis) : (currTh - ptr
1356:Generated_Source\PSoC6/CapSense_Processing.c **** 
1357:Generated_Source\PSoC6/CapSense_Processing.c ****         /* Determine new potential sensor state before de-bounce */
1358:Generated_Source\PSoC6/CapSense_Processing.c ****         newStatus = (difference > currTh) ? snsMask : 0Lu;
1359:Generated_Source\PSoC6/CapSense_Processing.c **** 
1360:Generated_Source\PSoC6/CapSense_Processing.c ****         /* Sensor state changed ? */
1361:Generated_Source\PSoC6/CapSense_Processing.c ****         if (newStatus != (currStatus & snsMask))
1362:Generated_Source\PSoC6/CapSense_Processing.c ****         {
1363:Generated_Source\PSoC6/CapSense_Processing.c ****             /* Decrement de-bounce counter */
1364:Generated_Source\PSoC6/CapSense_Processing.c ****             (*ptrDebounceCnt)--;
1365:Generated_Source\PSoC6/CapSense_Processing.c ****         }
1366:Generated_Source\PSoC6/CapSense_Processing.c **** 
1367:Generated_Source\PSoC6/CapSense_Processing.c ****         /*
1368:Generated_Source\PSoC6/CapSense_Processing.c ****         *  This piece of code has two objectives:
1369:Generated_Source\PSoC6/CapSense_Processing.c ****         *  1. Reset de-bounce counter if new sensor state has not changed.
1370:Generated_Source\PSoC6/CapSense_Processing.c ****         *     (It is possible that during previous processing cycles the sensor
1371:Generated_Source\PSoC6/CapSense_Processing.c ****         *     state was different which caused de-bounce counter change.)
1372:Generated_Source\PSoC6/CapSense_Processing.c ****         *  2. Set new sensor state after successful de-bounce.
1373:Generated_Source\PSoC6/CapSense_Processing.c ****         */
1374:Generated_Source\PSoC6/CapSense_Processing.c ****         if ((newStatus == (currStatus & snsMask)) || (0u == (*ptrDebounceCnt)))
1375:Generated_Source\PSoC6/CapSense_Processing.c ****         {
1376:Generated_Source\PSoC6/CapSense_Processing.c ****             /* Set new sensor status */
1377:Generated_Source\PSoC6/CapSense_Processing.c ****             currStatus &= ~snsMask;
1378:Generated_Source\PSoC6/CapSense_Processing.c ****             currStatus |= newStatus;
1379:Generated_Source\PSoC6/CapSense_Processing.c **** 
1380:Generated_Source\PSoC6/CapSense_Processing.c ****             /* Reset de-bounce counter */
1381:Generated_Source\PSoC6/CapSense_Processing.c ****             #if (0u != CapSense_OFF_DEBOUNCE_EN)
1382:Generated_Source\PSoC6/CapSense_Processing.c ****                 *ptrDebounceCnt = (0Lu == newStatus) ? ptrRamWdgt->onDebounce : ptrRamWdgt->offDebo
1383:Generated_Source\PSoC6/CapSense_Processing.c ****             #else
1384:Generated_Source\PSoC6/CapSense_Processing.c ****                 *ptrDebounceCnt = (0Lu == newStatus) ? ptrRamWdgt->onDebounce : DEFAULT_OFF_DEBOUNC
1385:Generated_Source\PSoC6/CapSense_Processing.c ****             #endif /* #if (0u != CapSense_OFF_DEBOUNCE_EN) */
1386:Generated_Source\PSoC6/CapSense_Processing.c ****         }
ARM GAS  C:\Users\ikomb\AppData\Local\Temp\cc6TxH90.s 			page 44


1387:Generated_Source\PSoC6/CapSense_Processing.c **** 
1388:Generated_Source\PSoC6/CapSense_Processing.c ****         ptrDebounceCnt++;
1389:Generated_Source\PSoC6/CapSense_Processing.c **** 
1390:Generated_Source\PSoC6/CapSense_Processing.c ****         /* Move sensor mask to the next sensor */
1391:Generated_Source\PSoC6/CapSense_Processing.c ****         snsMask <<= 1u;
1392:Generated_Source\PSoC6/CapSense_Processing.c ****     }
1393:Generated_Source\PSoC6/CapSense_Processing.c **** 
1394:Generated_Source\PSoC6/CapSense_Processing.c ****     return currStatus;
1395:Generated_Source\PSoC6/CapSense_Processing.c **** }
1396:Generated_Source\PSoC6/CapSense_Processing.c **** #endif /* #if (0u != CapSense_PROXIMITY_WIDGET_EN) */
1397:Generated_Source\PSoC6/CapSense_Processing.c **** 
1398:Generated_Source\PSoC6/CapSense_Processing.c **** 
1399:Generated_Source\PSoC6/CapSense_Processing.c **** #if (0u != CapSense_SLIDER_WIDGET_EN)
1400:Generated_Source\PSoC6/CapSense_Processing.c **** /*******************************************************************************
1401:Generated_Source\PSoC6/CapSense_Processing.c **** * Function Name: CapSense_DpProcessSlider
1402:Generated_Source\PSoC6/CapSense_Processing.c **** ****************************************************************************//**
1403:Generated_Source\PSoC6/CapSense_Processing.c **** *
1404:Generated_Source\PSoC6/CapSense_Processing.c **** * \brief
1405:Generated_Source\PSoC6/CapSense_Processing.c **** *   Processes the status of the Linear/Radial Slider widget.
1406:Generated_Source\PSoC6/CapSense_Processing.c **** *   The process involves running the Linear/Radial Centroid algorithm.
1407:Generated_Source\PSoC6/CapSense_Processing.c **** *
1408:Generated_Source\PSoC6/CapSense_Processing.c **** * \details
1409:Generated_Source\PSoC6/CapSense_Processing.c **** *   This API processes the status of the CSD Slider widget (Linear and Radial).
1410:Generated_Source\PSoC6/CapSense_Processing.c **** *   It applies the hysteresis and de-bounce algorithm to the widget ignoring
1411:Generated_Source\PSoC6/CapSense_Processing.c **** *   the individual states of the sensors.
1412:Generated_Source\PSoC6/CapSense_Processing.c **** *
1413:Generated_Source\PSoC6/CapSense_Processing.c **** *   This API is expected to be called after each new widget scan. If it is
1414:Generated_Source\PSoC6/CapSense_Processing.c **** *   called multiple times for the same scan data, the debounce algorithm
1415:Generated_Source\PSoC6/CapSense_Processing.c **** *   will not work properly.
1416:Generated_Source\PSoC6/CapSense_Processing.c **** *
1417:Generated_Source\PSoC6/CapSense_Processing.c **** *   Slider widgets do not support the ON to OFF debounce.
1418:Generated_Source\PSoC6/CapSense_Processing.c **** *
1419:Generated_Source\PSoC6/CapSense_Processing.c **** *   This API does not update any Data Structure registers
1420:Generated_Source\PSoC6/CapSense_Processing.c **** *   except the debounce counters.
1421:Generated_Source\PSoC6/CapSense_Processing.c **** *
1422:Generated_Source\PSoC6/CapSense_Processing.c **** * \param currStatus   The current sensor status of the Slider widget.
1423:Generated_Source\PSoC6/CapSense_Processing.c **** * \param ptrFlashWdgt The pointer to the Flash Widget Object.
1424:Generated_Source\PSoC6/CapSense_Processing.c **** *
1425:Generated_Source\PSoC6/CapSense_Processing.c **** * \return Returns the status of the widget's sensors. Bit #0 - corresponds to Sensor #0.
1426:Generated_Source\PSoC6/CapSense_Processing.c **** *
1427:Generated_Source\PSoC6/CapSense_Processing.c **** *******************************************************************************/
1428:Generated_Source\PSoC6/CapSense_Processing.c **** uint32 CapSense_DpProcessSlider(uint32 currStatus, CapSense_FLASH_WD_STRUCT const *ptrFlashWdgt)
1429:Generated_Source\PSoC6/CapSense_Processing.c **** {
 974              		.loc 1 1429 0
 975              		.cfi_startproc
 976              		@ args = 0, pretend = 0, frame = 8
 977              		@ frame_needed = 0, uses_anonymous_args = 0
 978              	.LVL180:
 979 0000 F0B5     		push	{r4, r5, r6, r7, lr}
 980              		.cfi_def_cfa_offset 20
 981              		.cfi_offset 4, -20
 982              		.cfi_offset 5, -16
 983              		.cfi_offset 6, -12
 984              		.cfi_offset 7, -8
 985              		.cfi_offset 14, -4
 986 0002 5F46     		mov	r7, fp
 987 0004 5646     		mov	r6, r10
ARM GAS  C:\Users\ikomb\AppData\Local\Temp\cc6TxH90.s 			page 45


 988 0006 4D46     		mov	r5, r9
 989 0008 4446     		mov	r4, r8
 990 000a F0B4     		push	{r4, r5, r6, r7}
 991              		.cfi_def_cfa_offset 36
 992              		.cfi_offset 8, -36
 993              		.cfi_offset 9, -32
 994              		.cfi_offset 10, -28
 995              		.cfi_offset 11, -24
 996 000c 83B0     		sub	sp, sp, #12
 997              		.cfi_def_cfa_offset 48
 998 000e 8446     		mov	ip, r0
 999 0010 8846     		mov	r8, r1
 1000              	.LVL181:
1430:Generated_Source\PSoC6/CapSense_Processing.c ****     uint32 snsCnt;
1431:Generated_Source\PSoC6/CapSense_Processing.c ****     uint32 snsMask;
1432:Generated_Source\PSoC6/CapSense_Processing.c ****     uint32 touchTh;
1433:Generated_Source\PSoC6/CapSense_Processing.c ****     uint32 newStatus = 0Lu;
1434:Generated_Source\PSoC6/CapSense_Processing.c ****     uint8 * ptrDebounceCnt;
1435:Generated_Source\PSoC6/CapSense_Processing.c ****     CapSense_RAM_SNS_STRUCT *ptrSnsTmp;
1436:Generated_Source\PSoC6/CapSense_Processing.c ****     CapSense_RAM_WD_SLIDER_STRUCT *ptrRamWdgt;
1437:Generated_Source\PSoC6/CapSense_Processing.c **** 
1438:Generated_Source\PSoC6/CapSense_Processing.c ****     #if (0u != CapSense_POSITION_FILTER_EN)
1439:Generated_Source\PSoC6/CapSense_Processing.c ****         CapSense_SLIDER_POS_HISTORY_STRUCT *ptrHistory;
1440:Generated_Source\PSoC6/CapSense_Processing.c ****     #endif /* #if (0u != CapSense_POSITION_FILTER_EN) */
1441:Generated_Source\PSoC6/CapSense_Processing.c **** 
1442:Generated_Source\PSoC6/CapSense_Processing.c ****     uint32 touchIdx;
1443:Generated_Source\PSoC6/CapSense_Processing.c ****     uint32 touchCnt = 0Lu;
1444:Generated_Source\PSoC6/CapSense_Processing.c ****     uint16 newPos[CapSense_NUM_CENTROIDS];
1445:Generated_Source\PSoC6/CapSense_Processing.c **** 
1446:Generated_Source\PSoC6/CapSense_Processing.c ****     snsCnt = ptrFlashWdgt->totalNumSns;
 1001              		.loc 1 1446 0
 1002 0012 0B8B     		ldrh	r3, [r1, #24]
 1003              	.LVL182:
1447:Generated_Source\PSoC6/CapSense_Processing.c ****     ptrSnsTmp = ptrFlashWdgt->ptr2SnsRam;
 1004              		.loc 1 1447 0
 1005 0014 8A68     		ldr	r2, [r1, #8]
 1006              	.LVL183:
1448:Generated_Source\PSoC6/CapSense_Processing.c ****     ptrRamWdgt = (CapSense_RAM_WD_SLIDER_STRUCT *)ptrFlashWdgt->ptr2WdgtRam;
 1007              		.loc 1 1448 0
 1008 0016 4F68     		ldr	r7, [r1, #4]
 1009              	.LVL184:
1449:Generated_Source\PSoC6/CapSense_Processing.c ****     ptrDebounceCnt = ptrFlashWdgt->ptr2DebounceArr;
 1010              		.loc 1 1449 0
 1011 0018 0969     		ldr	r1, [r1, #16]
 1012              	.LVL185:
 1013 001a 8946     		mov	r9, r1
 1014              	.LVL186:
1450:Generated_Source\PSoC6/CapSense_Processing.c **** 
1451:Generated_Source\PSoC6/CapSense_Processing.c ****     #if (0u != CapSense_POSITION_FILTER_EN)
1452:Generated_Source\PSoC6/CapSense_Processing.c ****         ptrHistory = ptrFlashWdgt->ptr2PosHistory;
 1015              		.loc 1 1452 0
 1016 001c 4146     		mov	r1, r8
 1017              	.LVL187:
 1018 001e 8E6A     		ldr	r6, [r1, #40]
 1019              	.LVL188:
1453:Generated_Source\PSoC6/CapSense_Processing.c ****     #endif /* #if (0u != CapSense_POSITION_FILTER_EN) */
1454:Generated_Source\PSoC6/CapSense_Processing.c **** 
ARM GAS  C:\Users\ikomb\AppData\Local\Temp\cc6TxH90.s 			page 46


1455:Generated_Source\PSoC6/CapSense_Processing.c ****     /* Calculate touch threshold based on current slider state */
1456:Generated_Source\PSoC6/CapSense_Processing.c ****     touchTh = (0Lu == currStatus ) ?
1457:Generated_Source\PSoC6/CapSense_Processing.c ****               ((uint32)ptrRamWdgt->fingerTh + ptrRamWdgt->hysteresis) :
 1020              		.loc 1 1457 0
 1021 0020 0028     		cmp	r0, #0
 1022 0022 03D1     		bne	.L62
 1023              		.loc 1 1457 0 is_stmt 0 discriminator 1
 1024 0024 7888     		ldrh	r0, [r7, #2]
 1025              	.LVL189:
 1026 0026 B979     		ldrb	r1, [r7, #6]
 1027 0028 4018     		adds	r0, r0, r1
 1028 002a 02E0     		b	.L63
 1029              	.LVL190:
 1030              	.L62:
1458:Generated_Source\PSoC6/CapSense_Processing.c ****               ((uint32)ptrRamWdgt->fingerTh - ptrRamWdgt->hysteresis);
 1031              		.loc 1 1458 0 is_stmt 1 discriminator 2
 1032 002c 7988     		ldrh	r1, [r7, #2]
 1033              	.LVL191:
 1034 002e B879     		ldrb	r0, [r7, #6]
 1035              	.LVL192:
1457:Generated_Source\PSoC6/CapSense_Processing.c ****               ((uint32)ptrRamWdgt->fingerTh - ptrRamWdgt->hysteresis);
 1036              		.loc 1 1457 0 discriminator 2
 1037 0030 081A     		subs	r0, r1, r0
 1038              	.L63:
 1039              	.LVL193:
1433:Generated_Source\PSoC6/CapSense_Processing.c ****     uint8 * ptrDebounceCnt;
 1040              		.loc 1 1433 0
 1041 0032 0025     		movs	r5, #0
1459:Generated_Source\PSoC6/CapSense_Processing.c **** 
1460:Generated_Source\PSoC6/CapSense_Processing.c ****     /* Go through all widget's sensors */
1461:Generated_Source\PSoC6/CapSense_Processing.c ****     snsMask = 1Lu;
 1042              		.loc 1 1461 0
 1043 0034 0121     		movs	r1, #1
1462:Generated_Source\PSoC6/CapSense_Processing.c ****     for (; snsCnt-- > 0Lu; )
 1044              		.loc 1 1462 0
 1045 0036 09E0     		b	.L64
 1046              	.LVL194:
 1047              	.L66:
1463:Generated_Source\PSoC6/CapSense_Processing.c ****     {
1464:Generated_Source\PSoC6/CapSense_Processing.c ****         /* Determine new potential sensor state */
1465:Generated_Source\PSoC6/CapSense_Processing.c ****         newStatus |= (ptrSnsTmp->diff > touchTh) ? snsMask : 0Lu;
 1048              		.loc 1 1465 0
 1049 0038 D388     		ldrh	r3, [r2, #6]
 1050 003a 9842     		cmp	r0, r3
 1051 003c 01D3     		bcc	.L79
 1052 003e 0023     		movs	r3, #0
 1053 0040 00E0     		b	.L65
 1054              	.L79:
 1055 0042 0B00     		movs	r3, r1
 1056              	.L65:
 1057              		.loc 1 1465 0 is_stmt 0 discriminator 4
 1058 0044 1D43     		orrs	r5, r3
 1059              	.LVL195:
1466:Generated_Source\PSoC6/CapSense_Processing.c ****         ptrSnsTmp++;
 1060              		.loc 1 1466 0 is_stmt 1 discriminator 4
 1061 0046 0A32     		adds	r2, r2, #10
 1062              	.LVL196:
ARM GAS  C:\Users\ikomb\AppData\Local\Temp\cc6TxH90.s 			page 47


1467:Generated_Source\PSoC6/CapSense_Processing.c **** 
1468:Generated_Source\PSoC6/CapSense_Processing.c ****         snsMask <<= 1u;
 1063              		.loc 1 1468 0 discriminator 4
 1064 0048 4900     		lsls	r1, r1, #1
 1065              	.LVL197:
1462:Generated_Source\PSoC6/CapSense_Processing.c ****     {
 1066              		.loc 1 1462 0 discriminator 4
 1067 004a 2300     		movs	r3, r4
 1068              	.LVL198:
 1069              	.L64:
1462:Generated_Source\PSoC6/CapSense_Processing.c ****     {
 1070              		.loc 1 1462 0 is_stmt 0
 1071 004c 5C1E     		subs	r4, r3, #1
 1072              	.LVL199:
 1073 004e 002B     		cmp	r3, #0
 1074 0050 F2D1     		bne	.L66
1469:Generated_Source\PSoC6/CapSense_Processing.c ****     }
1470:Generated_Source\PSoC6/CapSense_Processing.c **** 
1471:Generated_Source\PSoC6/CapSense_Processing.c ****     /* If widget is active, check whether debounce is needed */
1472:Generated_Source\PSoC6/CapSense_Processing.c ****     if (0Lu != newStatus)
 1075              		.loc 1 1472 0 is_stmt 1
 1076 0052 002D     		cmp	r5, #0
 1077 0054 0CD0     		beq	.L67
1473:Generated_Source\PSoC6/CapSense_Processing.c ****     {
1474:Generated_Source\PSoC6/CapSense_Processing.c ****         if (0u < (*ptrDebounceCnt))
 1078              		.loc 1 1474 0
 1079 0056 4B46     		mov	r3, r9
 1080 0058 1B78     		ldrb	r3, [r3]
 1081 005a 002B     		cmp	r3, #0
 1082 005c 02D0     		beq	.L68
1475:Generated_Source\PSoC6/CapSense_Processing.c ****         {
1476:Generated_Source\PSoC6/CapSense_Processing.c ****             /* Decrement debounce counter */
1477:Generated_Source\PSoC6/CapSense_Processing.c ****             (*ptrDebounceCnt)--;
 1083              		.loc 1 1477 0
 1084 005e 013B     		subs	r3, r3, #1
 1085 0060 4A46     		mov	r2, r9
 1086              	.LVL200:
 1087 0062 1370     		strb	r3, [r2]
 1088              	.L68:
1478:Generated_Source\PSoC6/CapSense_Processing.c ****         }
1479:Generated_Source\PSoC6/CapSense_Processing.c **** 
1480:Generated_Source\PSoC6/CapSense_Processing.c ****         if (0u == (*ptrDebounceCnt))
 1089              		.loc 1 1480 0
 1090 0064 4B46     		mov	r3, r9
 1091 0066 1B78     		ldrb	r3, [r3]
 1092 0068 002B     		cmp	r3, #0
 1093 006a 04D0     		beq	.L69
 1094 006c 6546     		mov	r5, ip
 1095              	.LVL201:
 1096 006e 02E0     		b	.L69
 1097              	.LVL202:
 1098              	.L67:
1481:Generated_Source\PSoC6/CapSense_Processing.c ****         {
1482:Generated_Source\PSoC6/CapSense_Processing.c ****             /* Update slider sensor state when debounce completes */
1483:Generated_Source\PSoC6/CapSense_Processing.c ****             currStatus = newStatus;
1484:Generated_Source\PSoC6/CapSense_Processing.c ****         }
1485:Generated_Source\PSoC6/CapSense_Processing.c ****     }
ARM GAS  C:\Users\ikomb\AppData\Local\Temp\cc6TxH90.s 			page 48


1486:Generated_Source\PSoC6/CapSense_Processing.c ****     else
1487:Generated_Source\PSoC6/CapSense_Processing.c ****     {
1488:Generated_Source\PSoC6/CapSense_Processing.c ****         /* Reset debounce counter */
1489:Generated_Source\PSoC6/CapSense_Processing.c ****         *ptrDebounceCnt = ptrRamWdgt->onDebounce;
 1099              		.loc 1 1489 0
 1100 0070 FB79     		ldrb	r3, [r7, #7]
 1101 0072 4A46     		mov	r2, r9
 1102              	.LVL203:
 1103 0074 1370     		strb	r3, [r2]
 1104              	.LVL204:
 1105              	.L69:
1490:Generated_Source\PSoC6/CapSense_Processing.c **** 
1491:Generated_Source\PSoC6/CapSense_Processing.c ****         /* Clear slider sensor state */
1492:Generated_Source\PSoC6/CapSense_Processing.c ****         currStatus = 0Lu;
1493:Generated_Source\PSoC6/CapSense_Processing.c ****     }
1494:Generated_Source\PSoC6/CapSense_Processing.c **** 
1495:Generated_Source\PSoC6/CapSense_Processing.c ****     /* Centroid processing */
1496:Generated_Source\PSoC6/CapSense_Processing.c ****     /* If there are active sensors after debounce run the centroid algorithm */
1497:Generated_Source\PSoC6/CapSense_Processing.c ****     if (0u != currStatus)
 1106              		.loc 1 1497 0
 1107 0076 002D     		cmp	r5, #0
 1108 0078 51D0     		beq	.L80
1498:Generated_Source\PSoC6/CapSense_Processing.c ****     {
1499:Generated_Source\PSoC6/CapSense_Processing.c ****         /* Centroid always uses the lowest finger threshold (minus hysteresis)
1500:Generated_Source\PSoC6/CapSense_Processing.c ****          * to produce same results for first and all consecutive invocations */
1501:Generated_Source\PSoC6/CapSense_Processing.c ****         touchTh = (uint32)ptrRamWdgt->fingerTh - ptrRamWdgt->hysteresis;
 1109              		.loc 1 1501 0
 1110 007a 7B88     		ldrh	r3, [r7, #2]
 1111 007c BA79     		ldrb	r2, [r7, #6]
 1112 007e 9A1A     		subs	r2, r3, r2
 1113              	.LVL205:
1502:Generated_Source\PSoC6/CapSense_Processing.c ****         snsCnt = ptrFlashWdgt->totalNumSns;
 1114              		.loc 1 1502 0
 1115 0080 4346     		mov	r3, r8
 1116 0082 1B8B     		ldrh	r3, [r3, #24]
 1117 0084 9946     		mov	r9, r3
 1118              	.LVL206:
1503:Generated_Source\PSoC6/CapSense_Processing.c **** 
1504:Generated_Source\PSoC6/CapSense_Processing.c ****         #if (0u != CapSense_TOTAL_DIPLEXED_SLIDERS)
1505:Generated_Source\PSoC6/CapSense_Processing.c ****             if ((0u != (ptrFlashWdgt->staticConfig & CapSense_DIPLEXING_MASK)))
1506:Generated_Source\PSoC6/CapSense_Processing.c ****             {
1507:Generated_Source\PSoC6/CapSense_Processing.c ****                 /* Run local maximum search for duplexed slider */
1508:Generated_Source\PSoC6/CapSense_Processing.c ****                 touchCnt = CapSense_DpFindLocalMaxDiplex(
1509:Generated_Source\PSoC6/CapSense_Processing.c ****                                 ptrFlashWdgt->ptr2SnsRam, snsCnt, ptrFlashWdgt->ptr2DiplexTable, to
1510:Generated_Source\PSoC6/CapSense_Processing.c **** 
1511:Generated_Source\PSoC6/CapSense_Processing.c ****                 /* Centroid calculation API requires double sensor count for the diplexed sliders. 
1512:Generated_Source\PSoC6/CapSense_Processing.c ****                 snsCnt *= 2u;
1513:Generated_Source\PSoC6/CapSense_Processing.c ****             }
1514:Generated_Source\PSoC6/CapSense_Processing.c ****             else
1515:Generated_Source\PSoC6/CapSense_Processing.c ****             {
1516:Generated_Source\PSoC6/CapSense_Processing.c ****                 /* Run local maximum search for NON-duplexed slider */
1517:Generated_Source\PSoC6/CapSense_Processing.c ****                 #if (CapSense_ENABLE == CapSense_4PTS_LOCAL_MAX_EN)
1518:Generated_Source\PSoC6/CapSense_Processing.c ****                     touchCnt = CapSense_DpFindLocalMaxSd4pts(ptrFlashWdgt, ptrFlashWdgt->ptr2SnsRam
1519:Generated_Source\PSoC6/CapSense_Processing.c ****                 #else
1520:Generated_Source\PSoC6/CapSense_Processing.c ****                     touchCnt = CapSense_DpFindLocalMaxSd(ptrFlashWdgt->ptr2SnsRam, snsCnt, touchTh)
1521:Generated_Source\PSoC6/CapSense_Processing.c ****                 #endif
1522:Generated_Source\PSoC6/CapSense_Processing.c ****             }
ARM GAS  C:\Users\ikomb\AppData\Local\Temp\cc6TxH90.s 			page 49


1523:Generated_Source\PSoC6/CapSense_Processing.c ****         #else
1524:Generated_Source\PSoC6/CapSense_Processing.c ****             /* Run local maximum search for NON-duplexed slider */
1525:Generated_Source\PSoC6/CapSense_Processing.c ****             #if (CapSense_ENABLE == CapSense_4PTS_LOCAL_MAX_EN)
1526:Generated_Source\PSoC6/CapSense_Processing.c ****                 touchCnt = CapSense_DpFindLocalMaxSd4pts(ptrFlashWdgt, ptrFlashWdgt->ptr2SnsRam, sn
1527:Generated_Source\PSoC6/CapSense_Processing.c ****             #else
1528:Generated_Source\PSoC6/CapSense_Processing.c ****                 touchCnt = CapSense_DpFindLocalMaxSd(ptrFlashWdgt->ptr2SnsRam, snsCnt, touchTh);
 1119              		.loc 1 1528 0
 1120 0086 1900     		movs	r1, r3
 1121              	.LVL207:
 1122 0088 4346     		mov	r3, r8
 1123              	.LVL208:
 1124 008a 9868     		ldr	r0, [r3, #8]
 1125 008c FFF7FEFF 		bl	CapSense_DpFindLocalMaxSd
 1126              	.LVL209:
 1127 0090 041E     		subs	r4, r0, #0
 1128              	.LVL210:
1529:Generated_Source\PSoC6/CapSense_Processing.c ****             #endif
1530:Generated_Source\PSoC6/CapSense_Processing.c ****         #endif /* #if (0u != CapSense_TOTAL_DIPLEXED_SLIDERS) */
1531:Generated_Source\PSoC6/CapSense_Processing.c **** 
1532:Generated_Source\PSoC6/CapSense_Processing.c ****         /* If at least one touch is detected */
1533:Generated_Source\PSoC6/CapSense_Processing.c ****         if (0u != touchCnt)
 1129              		.loc 1 1533 0
 1130 0092 55D0     		beq	.L76
1534:Generated_Source\PSoC6/CapSense_Processing.c ****         {
1535:Generated_Source\PSoC6/CapSense_Processing.c ****             /* Determine slider type and calculate new position(s) */
1536:Generated_Source\PSoC6/CapSense_Processing.c ****             #if (0u != CapSense_TOTAL_LINEAR_SLIDERS)
1537:Generated_Source\PSoC6/CapSense_Processing.c ****                 if ((CapSense_WD_TYPE_ENUM)ptrFlashWdgt->wdgtType == CapSense_WD_LINEAR_SLIDER_E)
 1131              		.loc 1 1537 0
 1132 0094 4346     		mov	r3, r8
 1133 0096 9B7E     		ldrb	r3, [r3, #26]
 1134 0098 022B     		cmp	r3, #2
 1135 009a 51D1     		bne	.L76
1538:Generated_Source\PSoC6/CapSense_Processing.c ****                 {
1539:Generated_Source\PSoC6/CapSense_Processing.c ****                     #if (CapSense_ENABLE == CapSense_SLIDER_MULT_METHOD)
1540:Generated_Source\PSoC6/CapSense_Processing.c ****                         touchCnt = CapSense_DpCalcLinearCentroid(newPos, (uint32)ptrFlashWdgt->xCen
1541:Generated_Source\PSoC6/CapSense_Processing.c ****                                     snsCnt, (uint32)(ptrFlashWdgt->xCentroidMultiplier >> 1));
1542:Generated_Source\PSoC6/CapSense_Processing.c ****                     #else
1543:Generated_Source\PSoC6/CapSense_Processing.c ****                         touchCnt = CapSense_DpCalcLinearCentroid(
 1136              		.loc 1 1543 0
 1137 009c 0023     		movs	r3, #0
 1138 009e 4A46     		mov	r2, r9
 1139 00a0 4146     		mov	r1, r8
 1140 00a2 096A     		ldr	r1, [r1, #32]
 1141 00a4 01A8     		add	r0, sp, #4
 1142              	.LVL211:
 1143 00a6 FFF7FEFF 		bl	CapSense_DpCalcLinearCentroid
 1144              	.LVL212:
 1145 00aa 0400     		movs	r4, r0
 1146              	.LVL213:
 1147              	.LBB8:
 1148              	.LBB9:
1544:Generated_Source\PSoC6/CapSense_Processing.c ****                                         newPos, (uint32)ptrFlashWdgt->xCentroidMultiplier, snsCnt, 
1545:Generated_Source\PSoC6/CapSense_Processing.c ****                     #endif
1546:Generated_Source\PSoC6/CapSense_Processing.c ****                     DpUpdateLinSlider(newPos, touchCnt, ptrFlashWdgt, ptrRamWdgt);
1547:Generated_Source\PSoC6/CapSense_Processing.c ****                 }
1548:Generated_Source\PSoC6/CapSense_Processing.c ****             #endif /* #if (0u != CapSense_TOTAL_LINEAR_SLIDERS) */
1549:Generated_Source\PSoC6/CapSense_Processing.c **** 
ARM GAS  C:\Users\ikomb\AppData\Local\Temp\cc6TxH90.s 			page 50


1550:Generated_Source\PSoC6/CapSense_Processing.c ****             #if (0u != CapSense_TOTAL_RADIAL_SLIDERS)
1551:Generated_Source\PSoC6/CapSense_Processing.c ****                 if ((CapSense_WD_TYPE_ENUM)ptrFlashWdgt->wdgtType == CapSense_WD_RADIAL_SLIDER_E)
1552:Generated_Source\PSoC6/CapSense_Processing.c ****                 {
1553:Generated_Source\PSoC6/CapSense_Processing.c ****                     touchCnt = CapSense_DpCalcRadialCentroid(
1554:Generated_Source\PSoC6/CapSense_Processing.c ****                                     newPos, (uint32)ptrFlashWdgt->xCentroidMultiplier, snsCnt);
1555:Generated_Source\PSoC6/CapSense_Processing.c ****                     DpUpdateRadSlider(newPos, touchCnt, ptrFlashWdgt, ptrRamWdgt);
1556:Generated_Source\PSoC6/CapSense_Processing.c ****                 }
1557:Generated_Source\PSoC6/CapSense_Processing.c ****             #endif /* #if (0u != CapSense_TOTAL_RADIAL_SLIDERS) */
1558:Generated_Source\PSoC6/CapSense_Processing.c ****         }
1559:Generated_Source\PSoC6/CapSense_Processing.c ****     }
1560:Generated_Source\PSoC6/CapSense_Processing.c **** 
1561:Generated_Source\PSoC6/CapSense_Processing.c ****     /* Clear not active position data slots */
1562:Generated_Source\PSoC6/CapSense_Processing.c ****     for (touchIdx = touchCnt; touchIdx < CapSense_NUM_CENTROIDS; touchIdx++)
1563:Generated_Source\PSoC6/CapSense_Processing.c ****     {
1564:Generated_Source\PSoC6/CapSense_Processing.c ****         ptrRamWdgt->position[touchIdx] = CapSense_SLIDER_POS_NONE;
1565:Generated_Source\PSoC6/CapSense_Processing.c **** 
1566:Generated_Source\PSoC6/CapSense_Processing.c ****         #if (0u != CapSense_POSITION_FILTER_EN)
1567:Generated_Source\PSoC6/CapSense_Processing.c ****             if (NULL != ptrHistory)
1568:Generated_Source\PSoC6/CapSense_Processing.c ****             {
1569:Generated_Source\PSoC6/CapSense_Processing.c ****                 CapSense_InitPosFiltersSd(&ptrHistory[touchIdx], CapSense_SLIDER_POS_NONE);
1570:Generated_Source\PSoC6/CapSense_Processing.c ****             }
1571:Generated_Source\PSoC6/CapSense_Processing.c ****         #endif /* #if (0u != CapSense_POSITION_FILTER_EN) */
1572:Generated_Source\PSoC6/CapSense_Processing.c ****     }
1573:Generated_Source\PSoC6/CapSense_Processing.c **** 
1574:Generated_Source\PSoC6/CapSense_Processing.c ****     return currStatus;
1575:Generated_Source\PSoC6/CapSense_Processing.c **** }
1576:Generated_Source\PSoC6/CapSense_Processing.c **** #endif /* #if (0u != CapSense_SLIDER_WIDGET_EN) */
1577:Generated_Source\PSoC6/CapSense_Processing.c **** 
1578:Generated_Source\PSoC6/CapSense_Processing.c **** #if (0u != CapSense_TOTAL_LINEAR_SLIDERS)
1579:Generated_Source\PSoC6/CapSense_Processing.c **** /*******************************************************************************
1580:Generated_Source\PSoC6/CapSense_Processing.c **** * Function Name: DpUpdateLinSlider
1581:Generated_Source\PSoC6/CapSense_Processing.c **** ****************************************************************************//**
1582:Generated_Source\PSoC6/CapSense_Processing.c **** *
1583:Generated_Source\PSoC6/CapSense_Processing.c **** * \brief
1584:Generated_Source\PSoC6/CapSense_Processing.c **** *   Updates the touch status of the Linear Slider widget.
1585:Generated_Source\PSoC6/CapSense_Processing.c **** *
1586:Generated_Source\PSoC6/CapSense_Processing.c **** * \details
1587:Generated_Source\PSoC6/CapSense_Processing.c **** *   This function updates the position data of the Linear Slider
1588:Generated_Source\PSoC6/CapSense_Processing.c **** *   in the Data Structure. Also, this function runs position filters for the
1589:Generated_Source\PSoC6/CapSense_Processing.c **** *   position data if any enabled.
1590:Generated_Source\PSoC6/CapSense_Processing.c **** *
1591:Generated_Source\PSoC6/CapSense_Processing.c **** * \param newPos       The pointer to the array with the new finger position coordinates.
1592:Generated_Source\PSoC6/CapSense_Processing.c **** * \param numTouches   The number of the coordinates in the newPos array.
1593:Generated_Source\PSoC6/CapSense_Processing.c **** * \param ptrFlashWdgt The pointer to the Flash Widget Object.
1594:Generated_Source\PSoC6/CapSense_Processing.c **** * \param ptrRamWdgt   The pointer to the RAM Widget Object.
1595:Generated_Source\PSoC6/CapSense_Processing.c **** *
1596:Generated_Source\PSoC6/CapSense_Processing.c **** *******************************************************************************/
1597:Generated_Source\PSoC6/CapSense_Processing.c **** __STATIC_INLINE void DpUpdateLinSlider(
1598:Generated_Source\PSoC6/CapSense_Processing.c ****                         const uint16 newPos[],
1599:Generated_Source\PSoC6/CapSense_Processing.c ****                         uint32 numTouches,
1600:Generated_Source\PSoC6/CapSense_Processing.c ****                         CapSense_FLASH_WD_STRUCT const *ptrFlashWdgt,
1601:Generated_Source\PSoC6/CapSense_Processing.c ****                         CapSense_RAM_WD_SLIDER_STRUCT *ptrRamWdgt)
1602:Generated_Source\PSoC6/CapSense_Processing.c **** {
1603:Generated_Source\PSoC6/CapSense_Processing.c ****     uint32 touchIdx;
1604:Generated_Source\PSoC6/CapSense_Processing.c **** 
1605:Generated_Source\PSoC6/CapSense_Processing.c ****     #if (0u != CapSense_POS_AVERAGE_FILTER_EN)
1606:Generated_Source\PSoC6/CapSense_Processing.c ****         uint16 tempPosition;
ARM GAS  C:\Users\ikomb\AppData\Local\Temp\cc6TxH90.s 			page 51


1607:Generated_Source\PSoC6/CapSense_Processing.c ****     #endif /* (0u != CapSense_POS_AVERAGE_FILTER_EN) */
1608:Generated_Source\PSoC6/CapSense_Processing.c **** 
1609:Generated_Source\PSoC6/CapSense_Processing.c ****     #if (0u == CapSense_POSITION_FILTER_EN)
1610:Generated_Source\PSoC6/CapSense_Processing.c ****         /* This parameter is unused in such configurations */
1611:Generated_Source\PSoC6/CapSense_Processing.c ****         (void)ptrFlashWdgt;
1612:Generated_Source\PSoC6/CapSense_Processing.c ****     #else
1613:Generated_Source\PSoC6/CapSense_Processing.c ****         uint16 filteredPosition;
1614:Generated_Source\PSoC6/CapSense_Processing.c ****         /* Get bitmask with the enabled filters */
1615:Generated_Source\PSoC6/CapSense_Processing.c ****         uint32 filterConfig = (uint32)ptrFlashWdgt->staticConfig;
 1149              		.loc 1 1615 0
 1150 00ac 4346     		mov	r3, r8
 1151 00ae 5B69     		ldr	r3, [r3, #20]
 1152 00b0 9A46     		mov	r10, r3
 1153              	.LVL214:
1616:Generated_Source\PSoC6/CapSense_Processing.c ****         /* Get pointer to the position filter history */
1617:Generated_Source\PSoC6/CapSense_Processing.c ****         CapSense_SLIDER_POS_HISTORY_STRUCT *ptrHistory = ptrFlashWdgt->ptr2PosHistory;
 1154              		.loc 1 1617 0
 1155 00b2 4346     		mov	r3, r8
 1156              	.LVL215:
 1157 00b4 9B6A     		ldr	r3, [r3, #40]
 1158 00b6 9946     		mov	r9, r3
 1159              	.LVL216:
1618:Generated_Source\PSoC6/CapSense_Processing.c ****     #endif /* #if (0u == CapSense_POSITION_FILTER_EN) */
1619:Generated_Source\PSoC6/CapSense_Processing.c **** 
1620:Generated_Source\PSoC6/CapSense_Processing.c ****     #if (0u != CapSense_POS_ADAPTIVE_IIR_FILTER_EN)
1621:Generated_Source\PSoC6/CapSense_Processing.c ****         ADAPTIVE_FILTER_CONTEXT_STRUCT contextAIIR;
1622:Generated_Source\PSoC6/CapSense_Processing.c ****         uint16 emptyPosition = 0;
1623:Generated_Source\PSoC6/CapSense_Processing.c ****     #endif /* (0u != CapSense_POS_ADAPTIVE_IIR_FILTER_EN) */
1624:Generated_Source\PSoC6/CapSense_Processing.c **** 
1625:Generated_Source\PSoC6/CapSense_Processing.c ****     /* Run Filter and update the position registers with the filtered data */
1626:Generated_Source\PSoC6/CapSense_Processing.c ****     for (touchIdx = 0u; touchIdx < numTouches; touchIdx++)
 1160              		.loc 1 1626 0
 1161 00b8 0023     		movs	r3, #0
 1162              	.LVL217:
 1163 00ba 9846     		mov	r8, r3
 1164              	.LVL218:
 1165 00bc 2CE0     		b	.L71
 1166              	.LVL219:
 1167              	.L75:
1627:Generated_Source\PSoC6/CapSense_Processing.c ****     {
1628:Generated_Source\PSoC6/CapSense_Processing.c ****         #if (0u == CapSense_POSITION_FILTER_EN)
1629:Generated_Source\PSoC6/CapSense_Processing.c ****             /* If filters are not enabled just copy the position data */
1630:Generated_Source\PSoC6/CapSense_Processing.c ****             ptrRamWdgt->position[touchIdx] = newPos[touchIdx];
1631:Generated_Source\PSoC6/CapSense_Processing.c ****         #else
1632:Generated_Source\PSoC6/CapSense_Processing.c ****             filteredPosition = newPos[touchIdx];
 1168              		.loc 1 1632 0
 1169 00be 4346     		mov	r3, r8
 1170 00c0 5B00     		lsls	r3, r3, #1
 1171 00c2 01AA     		add	r2, sp, #4
 1172              	.LVL220:
 1173 00c4 D35A     		ldrh	r3, [r2, r3]
 1174 00c6 9B46     		mov	fp, r3
 1175              	.LVL221:
1633:Generated_Source\PSoC6/CapSense_Processing.c **** 
1634:Generated_Source\PSoC6/CapSense_Processing.c ****             /* If there were no touch initialize the current position with new position data */
1635:Generated_Source\PSoC6/CapSense_Processing.c ****             if (ptrRamWdgt->position[touchIdx] == CapSense_SLIDER_POS_NONE)
 1176              		.loc 1 1635 0
ARM GAS  C:\Users\ikomb\AppData\Local\Temp\cc6TxH90.s 			page 52


 1177 00c8 4346     		mov	r3, r8
 1178 00ca 0833     		adds	r3, r3, #8
 1179 00cc 5B00     		lsls	r3, r3, #1
 1180 00ce FB18     		adds	r3, r7, r3
 1181 00d0 5A88     		ldrh	r2, [r3, #2]
 1182              	.LVL222:
 1183 00d2 204B     		ldr	r3, .L81
 1184 00d4 9A42     		cmp	r2, r3
 1185 00d6 04D1     		bne	.L72
1636:Generated_Source\PSoC6/CapSense_Processing.c ****             {
1637:Generated_Source\PSoC6/CapSense_Processing.c ****                 CapSense_InitPosFiltersSd(ptrHistory, filteredPosition);
 1186              		.loc 1 1637 0
 1187 00d8 5946     		mov	r1, fp
 1188 00da 4846     		mov	r0, r9
 1189 00dc FFF7FEFF 		bl	CapSense_InitPosFiltersSd
 1190              	.LVL223:
 1191 00e0 0BE0     		b	.L73
 1192              	.L72:
1638:Generated_Source\PSoC6/CapSense_Processing.c ****             }
1639:Generated_Source\PSoC6/CapSense_Processing.c ****             else
1640:Generated_Source\PSoC6/CapSense_Processing.c ****             {
1641:Generated_Source\PSoC6/CapSense_Processing.c ****                 #if (0u != CapSense_POS_MEDIAN_FILTER_EN)
1642:Generated_Source\PSoC6/CapSense_Processing.c ****                     if (0u != (filterConfig & CapSense_POS_MEDIAN_FILTER_MASK))
1643:Generated_Source\PSoC6/CapSense_Processing.c ****                     {
1644:Generated_Source\PSoC6/CapSense_Processing.c ****                         filteredPosition = (uint16)CapSense_FtMedian((uint32)ptrHistory->posMedianZ
1645:Generated_Source\PSoC6/CapSense_Processing.c ****                                             (uint32)ptrHistory->posMedianZ1, (uint32)newPos[touchId
1646:Generated_Source\PSoC6/CapSense_Processing.c ****                         ptrHistory->posMedianZ2 = ptrHistory->posMedianZ1;
1647:Generated_Source\PSoC6/CapSense_Processing.c ****                         ptrHistory->posMedianZ1 = newPos[touchIdx];
1648:Generated_Source\PSoC6/CapSense_Processing.c ****                     }
1649:Generated_Source\PSoC6/CapSense_Processing.c ****                 #endif /* #if (0u != CapSense_POS_MEDIAN_FILTER_EN) */
1650:Generated_Source\PSoC6/CapSense_Processing.c **** 
1651:Generated_Source\PSoC6/CapSense_Processing.c ****                 #if (0u != CapSense_POS_IIR_FILTER_EN)
1652:Generated_Source\PSoC6/CapSense_Processing.c ****                     if (0u != (filterConfig & CapSense_POS_IIR_FILTER_MASK))
1653:Generated_Source\PSoC6/CapSense_Processing.c ****                     {
1654:Generated_Source\PSoC6/CapSense_Processing.c ****                         filteredPosition = (uint16)CapSense_FtIIR1stOrder((uint32)filteredPosition,
1655:Generated_Source\PSoC6/CapSense_Processing.c ****                                             (uint32)ptrFlashWdgt->iirFilterCoeff, 0uL);
1656:Generated_Source\PSoC6/CapSense_Processing.c ****                         ptrHistory->posIIR = filteredPosition;
1657:Generated_Source\PSoC6/CapSense_Processing.c ****                     }
1658:Generated_Source\PSoC6/CapSense_Processing.c ****                 #endif /* #if (0u != CapSense_POS_IIR_FILTER_EN) */
1659:Generated_Source\PSoC6/CapSense_Processing.c **** 
1660:Generated_Source\PSoC6/CapSense_Processing.c ****                 #if (0u != CapSense_POS_ADAPTIVE_IIR_FILTER_EN)
1661:Generated_Source\PSoC6/CapSense_Processing.c ****                     if (0u != (filterConfig & CapSense_AIIR_FILTER_MASK))
1662:Generated_Source\PSoC6/CapSense_Processing.c ****                     {
1663:Generated_Source\PSoC6/CapSense_Processing.c ****                         contextAIIR.previousX = ptrHistory->posAIIR;
1664:Generated_Source\PSoC6/CapSense_Processing.c ****                         contextAIIR.previousY = emptyPosition;
1665:Generated_Source\PSoC6/CapSense_Processing.c ****                         contextAIIR.coefficient = ptrHistory->posAIIRCoeff;
1666:Generated_Source\PSoC6/CapSense_Processing.c ****                         AdaptiveFilter_Run(&ptrRamWdgt->aiirConfig, &contextAIIR, &filteredPosition
1667:Generated_Source\PSoC6/CapSense_Processing.c ****                         ptrHistory->posAIIR = contextAIIR.previousX;
1668:Generated_Source\PSoC6/CapSense_Processing.c ****                         ptrHistory->posAIIRCoeff = contextAIIR.coefficient;
1669:Generated_Source\PSoC6/CapSense_Processing.c ****                     }
1670:Generated_Source\PSoC6/CapSense_Processing.c ****                 #endif /* (0u != CapSense_POS_ADAPTIVE_IIR_FILTER_EN) */
1671:Generated_Source\PSoC6/CapSense_Processing.c **** 
1672:Generated_Source\PSoC6/CapSense_Processing.c ****                 #if (0u != CapSense_POS_AVERAGE_FILTER_EN)
1673:Generated_Source\PSoC6/CapSense_Processing.c ****                     if (0u != (filterConfig & CapSense_POS_AVERAGE_FILTER_MASK))
 1193              		.loc 1 1673 0
 1194 00e2 5346     		mov	r3, r10
 1195 00e4 5B06     		lsls	r3, r3, #25
ARM GAS  C:\Users\ikomb\AppData\Local\Temp\cc6TxH90.s 			page 53


 1196 00e6 08D5     		bpl	.L73
 1197              	.LVL224:
1674:Generated_Source\PSoC6/CapSense_Processing.c ****                     {
1675:Generated_Source\PSoC6/CapSense_Processing.c ****                         tempPosition = filteredPosition;
1676:Generated_Source\PSoC6/CapSense_Processing.c ****                         filteredPosition = (uint16)(filteredPosition + ptrHistory->posAverage) >> 1
 1198              		.loc 1 1676 0
 1199 00e8 4B46     		mov	r3, r9
 1200 00ea 1B88     		ldrh	r3, [r3]
 1201 00ec 5B44     		add	r3, r3, fp
 1202 00ee 9BB2     		uxth	r3, r3
 1203              	.LVL225:
1677:Generated_Source\PSoC6/CapSense_Processing.c ****                         ptrHistory->posAverage = tempPosition;
 1204              		.loc 1 1677 0
 1205 00f0 4A46     		mov	r2, r9
 1206 00f2 5946     		mov	r1, fp
 1207 00f4 1180     		strh	r1, [r2]
1676:Generated_Source\PSoC6/CapSense_Processing.c ****                         ptrHistory->posAverage = tempPosition;
 1208              		.loc 1 1676 0
 1209 00f6 5B08     		lsrs	r3, r3, #1
 1210              	.LVL226:
 1211 00f8 9B46     		mov	fp, r3
 1212              	.LVL227:
 1213              	.L73:
1678:Generated_Source\PSoC6/CapSense_Processing.c ****                     }
1679:Generated_Source\PSoC6/CapSense_Processing.c ****                 #endif /* #if (0u != CapSense_POS_AVERAGE_FILTER_EN) */
1680:Generated_Source\PSoC6/CapSense_Processing.c **** 
1681:Generated_Source\PSoC6/CapSense_Processing.c ****                 #if (0u != CapSense_POS_JITTER_FILTER_EN)
1682:Generated_Source\PSoC6/CapSense_Processing.c ****                     if (0u != (filterConfig & CapSense_POS_JITTER_FILTER_MASK))
1683:Generated_Source\PSoC6/CapSense_Processing.c ****                     {
1684:Generated_Source\PSoC6/CapSense_Processing.c ****                         filteredPosition = (uint16)CapSense_FtJitter((uint32)filteredPosition, (uin
1685:Generated_Source\PSoC6/CapSense_Processing.c ****                         ptrHistory->posJitter = filteredPosition;
1686:Generated_Source\PSoC6/CapSense_Processing.c ****                     }
1687:Generated_Source\PSoC6/CapSense_Processing.c ****                 #endif /* #if (0u != CapSense_POS_JITTER_FILTER_EN) */
1688:Generated_Source\PSoC6/CapSense_Processing.c ****             }
1689:Generated_Source\PSoC6/CapSense_Processing.c **** 
1690:Generated_Source\PSoC6/CapSense_Processing.c ****             /* Update position data */
1691:Generated_Source\PSoC6/CapSense_Processing.c ****             ptrRamWdgt->position[touchIdx] = filteredPosition;
 1214              		.loc 1 1691 0
 1215 00fa 4346     		mov	r3, r8
 1216 00fc 0833     		adds	r3, r3, #8
 1217 00fe 5B00     		lsls	r3, r3, #1
 1218 0100 FB18     		adds	r3, r7, r3
 1219 0102 5A46     		mov	r2, fp
 1220 0104 5A80     		strh	r2, [r3, #2]
1692:Generated_Source\PSoC6/CapSense_Processing.c **** 
1693:Generated_Source\PSoC6/CapSense_Processing.c ****             ptrHistory = (NULL != ptrHistory) ? (ptrHistory + 1) : NULL;
 1221              		.loc 1 1693 0
 1222 0106 4B46     		mov	r3, r9
 1223 0108 002B     		cmp	r3, #0
 1224 010a 02D0     		beq	.L74
 1225              	.LVL228:
 1226 010c 0223     		movs	r3, #2
 1227              	.LVL229:
 1228 010e 9C46     		mov	ip, r3
 1229 0110 E144     		add	r9, r9, ip
 1230              	.LVL230:
 1231              	.L74:
ARM GAS  C:\Users\ikomb\AppData\Local\Temp\cc6TxH90.s 			page 54


1626:Generated_Source\PSoC6/CapSense_Processing.c ****     {
 1232              		.loc 1 1626 0
 1233 0112 0123     		movs	r3, #1
 1234 0114 9C46     		mov	ip, r3
 1235 0116 E044     		add	r8, r8, ip
 1236              	.LVL231:
 1237              	.L71:
 1238 0118 4445     		cmp	r4, r8
 1239 011a D0D8     		bhi	.L75
 1240 011c 10E0     		b	.L76
 1241              	.LVL232:
 1242              	.L80:
 1243              	.LBE9:
 1244              	.LBE8:
1443:Generated_Source\PSoC6/CapSense_Processing.c ****     uint16 newPos[CapSense_NUM_CENTROIDS];
 1245              		.loc 1 1443 0
 1246 011e 0024     		movs	r4, #0
 1247              	.LVL233:
 1248 0120 0EE0     		b	.L76
 1249              	.LVL234:
 1250              	.L78:
1564:Generated_Source\PSoC6/CapSense_Processing.c **** 
 1251              		.loc 1 1564 0
 1252 0122 2300     		movs	r3, r4
 1253 0124 0833     		adds	r3, r3, #8
 1254 0126 5B00     		lsls	r3, r3, #1
 1255 0128 FB18     		adds	r3, r7, r3
 1256 012a 0122     		movs	r2, #1
 1257 012c 5242     		rsbs	r2, r2, #0
 1258 012e 5A80     		strh	r2, [r3, #2]
1567:Generated_Source\PSoC6/CapSense_Processing.c ****             {
 1259              		.loc 1 1567 0
 1260 0130 002E     		cmp	r6, #0
 1261 0132 04D0     		beq	.L77
1569:Generated_Source\PSoC6/CapSense_Processing.c ****             }
 1262              		.loc 1 1569 0
 1263 0134 6000     		lsls	r0, r4, #1
 1264 0136 3018     		adds	r0, r6, r0
 1265 0138 0649     		ldr	r1, .L81
 1266 013a FFF7FEFF 		bl	CapSense_InitPosFiltersSd
 1267              	.LVL235:
 1268              	.L77:
1562:Generated_Source\PSoC6/CapSense_Processing.c ****     {
 1269              		.loc 1 1562 0 discriminator 2
 1270 013e 0134     		adds	r4, r4, #1
 1271              	.LVL236:
 1272              	.L76:
1562:Generated_Source\PSoC6/CapSense_Processing.c ****     {
 1273              		.loc 1 1562 0 is_stmt 0 discriminator 1
 1274 0140 002C     		cmp	r4, #0
 1275 0142 EED0     		beq	.L78
1575:Generated_Source\PSoC6/CapSense_Processing.c **** #endif /* #if (0u != CapSense_SLIDER_WIDGET_EN) */
 1276              		.loc 1 1575 0 is_stmt 1
 1277 0144 2800     		movs	r0, r5
 1278 0146 03B0     		add	sp, sp, #12
 1279              		@ sp needed
 1280              	.LVL237:
ARM GAS  C:\Users\ikomb\AppData\Local\Temp\cc6TxH90.s 			page 55


 1281              	.LVL238:
 1282              	.LVL239:
 1283              	.LVL240:
 1284 0148 3CBC     		pop	{r2, r3, r4, r5}
 1285 014a 9046     		mov	r8, r2
 1286 014c 9946     		mov	r9, r3
 1287 014e A246     		mov	r10, r4
 1288 0150 AB46     		mov	fp, r5
 1289 0152 F0BD     		pop	{r4, r5, r6, r7, pc}
 1290              	.L82:
 1291              		.align	2
 1292              	.L81:
 1293 0154 FFFF0000 		.word	65535
 1294              		.cfi_endproc
 1295              	.LFE47:
 1296              		.size	CapSense_DpProcessSlider, .-CapSense_DpProcessSlider
 1297              		.section	.text.CapSense_DpProcessCsdWidgetStatus,"ax",%progbits
 1298              		.align	2
 1299              		.global	CapSense_DpProcessCsdWidgetStatus
 1300              		.code	16
 1301              		.thumb_func
 1302              		.type	CapSense_DpProcessCsdWidgetStatus, %function
 1303              	CapSense_DpProcessCsdWidgetStatus:
 1304              	.LFB43:
1016:Generated_Source\PSoC6/CapSense_Processing.c ****     uint32 sensorStatus;
 1305              		.loc 1 1016 0
 1306              		.cfi_startproc
 1307              		@ args = 0, pretend = 0, frame = 0
 1308              		@ frame_needed = 0, uses_anonymous_args = 0
 1309              	.LVL241:
 1310 0000 70B5     		push	{r4, r5, r6, lr}
 1311              		.cfi_def_cfa_offset 16
 1312              		.cfi_offset 4, -16
 1313              		.cfi_offset 5, -12
 1314              		.cfi_offset 6, -8
 1315              		.cfi_offset 14, -4
 1316 0002 0400     		movs	r4, r0
1022:Generated_Source\PSoC6/CapSense_Processing.c ****     sensorStatus = CapSense_dsRam.snsStatus[widgetId];
 1317              		.loc 1 1022 0
 1318 0004 8A7E     		ldrb	r2, [r1, #26]
 1319              	.LVL242:
1023:Generated_Source\PSoC6/CapSense_Processing.c **** 
 1320              		.loc 1 1023 0
 1321 0006 194B     		ldr	r3, .L91
 1322 0008 1B18     		adds	r3, r3, r0
 1323 000a 1D7E     		ldrb	r5, [r3, #24]
 1324              	.LVL243:
1025:Generated_Source\PSoC6/CapSense_Processing.c ****     {
 1325              		.loc 1 1025 0
 1326 000c 012A     		cmp	r2, #1
 1327 000e 04D0     		beq	.L85
 1328 0010 002A     		cmp	r2, #0
 1329 0012 0CD0     		beq	.L84
 1330 0014 032A     		cmp	r2, #3
 1331 0016 05D9     		bls	.L90
 1332 0018 09E0     		b	.L84
 1333              	.L85:
ARM GAS  C:\Users\ikomb\AppData\Local\Temp\cc6TxH90.s 			page 56


1029:Generated_Source\PSoC6/CapSense_Processing.c ****             break;
 1334              		.loc 1 1029 0
 1335 001a 2800     		movs	r0, r5
 1336              	.LVL244:
 1337 001c FFF7FEFF 		bl	CapSense_DpProcessButton
 1338              	.LVL245:
 1339 0020 0500     		movs	r5, r0
 1340              	.LVL246:
1030:Generated_Source\PSoC6/CapSense_Processing.c ****     #endif /* #if (0u != CapSense_BUTTON_WIDGET_EN) */
 1341              		.loc 1 1030 0
 1342 0022 08E0     		b	.L87
 1343              	.LVL247:
 1344              	.L90:
1036:Generated_Source\PSoC6/CapSense_Processing.c ****             break;
 1345              		.loc 1 1036 0
 1346 0024 2800     		movs	r0, r5
 1347              	.LVL248:
 1348 0026 FFF7FEFF 		bl	CapSense_DpProcessSlider
 1349              	.LVL249:
 1350 002a 0500     		movs	r5, r0
 1351              	.LVL250:
1037:Generated_Source\PSoC6/CapSense_Processing.c ****     #endif /* #if (0u != CapSense_SLIDER_WIDGET_EN) */
 1352              		.loc 1 1037 0
 1353 002c 03E0     		b	.L87
 1354              	.LVL251:
 1355              	.L84:
1062:Generated_Source\PSoC6/CapSense_Processing.c ****         break;
 1356              		.loc 1 1062 0 discriminator 1
 1357 002e 1049     		ldr	r1, .L91+4
 1358              	.LVL252:
 1359 0030 1048     		ldr	r0, .L91+8
 1360              	.LVL253:
 1361 0032 FFF7FEFF 		bl	Cy_SysLib_AssertFailed
 1362              	.LVL254:
 1363              	.L87:
1066:Generated_Source\PSoC6/CapSense_Processing.c **** 
 1364              		.loc 1 1066 0
 1365 0036 0D4B     		ldr	r3, .L91
 1366 0038 1B19     		adds	r3, r3, r4
 1367 003a 1D76     		strb	r5, [r3, #24]
1069:Generated_Source\PSoC6/CapSense_Processing.c ****     wdStatusMask = CapSense_GET_WDGT_STATUS_MASK(widgetId);
 1368              		.loc 1 1069 0
 1369 003c 6309     		lsrs	r3, r4, #5
 1370              	.LVL255:
1070:Generated_Source\PSoC6/CapSense_Processing.c **** 
 1371              		.loc 1 1070 0
 1372 003e 1F22     		movs	r2, #31
 1373 0040 1440     		ands	r4, r2
 1374              	.LVL256:
 1375 0042 1E3A     		subs	r2, r2, #30
 1376 0044 A240     		lsls	r2, r2, r4
 1377              	.LVL257:
1073:Generated_Source\PSoC6/CapSense_Processing.c ****     {
 1378              		.loc 1 1073 0
 1379 0046 002D     		cmp	r5, #0
 1380 0048 07D1     		bne	.L88
1075:Generated_Source\PSoC6/CapSense_Processing.c ****     }
ARM GAS  C:\Users\ikomb\AppData\Local\Temp\cc6TxH90.s 			page 57


 1381              		.loc 1 1075 0
 1382 004a 0433     		adds	r3, r3, #4
 1383              	.LVL258:
 1384 004c 9B00     		lsls	r3, r3, #2
 1385              	.LVL259:
 1386 004e 0749     		ldr	r1, .L91
 1387 0050 CB18     		adds	r3, r1, r3
 1388 0052 5968     		ldr	r1, [r3, #4]
 1389 0054 9143     		bics	r1, r2
 1390 0056 5960     		str	r1, [r3, #4]
 1391 0058 06E0     		b	.L83
 1392              	.LVL260:
 1393              	.L88:
1079:Generated_Source\PSoC6/CapSense_Processing.c ****     }
 1394              		.loc 1 1079 0
 1395 005a 0433     		adds	r3, r3, #4
 1396              	.LVL261:
 1397 005c 9B00     		lsls	r3, r3, #2
 1398              	.LVL262:
 1399 005e 0349     		ldr	r1, .L91
 1400 0060 CB18     		adds	r3, r1, r3
 1401 0062 5968     		ldr	r1, [r3, #4]
 1402 0064 0A43     		orrs	r2, r1
 1403              	.LVL263:
 1404 0066 5A60     		str	r2, [r3, #4]
 1405              	.L83:
1081:Generated_Source\PSoC6/CapSense_Processing.c **** #endif /* #if (0u != CapSense_TOTAL_CSD_WIDGETS) */
 1406              		.loc 1 1081 0
 1407              		@ sp needed
 1408              	.LVL264:
 1409              	.LVL265:
 1410 0068 70BD     		pop	{r4, r5, r6, pc}
 1411              	.L92:
 1412 006a C046     		.align	2
 1413              	.L91:
 1414 006c 00000000 		.word	CapSense_dsRam
 1415 0070 26040000 		.word	1062
 1416 0074 00000000 		.word	.LC3
 1417              		.cfi_endproc
 1418              	.LFE43:
 1419              		.size	CapSense_DpProcessCsdWidgetStatus, .-CapSense_DpProcessCsdWidgetStatus
 1420              		.section	.rodata.str1.4,"aMS",%progbits,1
 1421              		.align	2
 1422              	.LC3:
 1423 0000 47656E65 		.ascii	"Generated_Source\\PSoC6\\CapSense_Processing.c\000"
 1423      72617465 
 1423      645F536F 
 1423      75726365 
 1423      5C50536F 
 1424              		.text
 1425              	.Letext0:
 1426              		.file 2 "c:\\program files (x86)\\cypress\\psoc creator\\4.4\\psoc creator\\import\\gnu\\arm\\5.4.
 1427              		.file 3 "c:\\program files (x86)\\cypress\\psoc creator\\4.4\\psoc creator\\import\\gnu\\arm\\5.4.
 1428              		.file 4 "Generated_Source\\PSoC6\\pdl\\drivers/peripheral/syslib/cy_syslib.h"
 1429              		.file 5 "c:\\program files (x86)\\cypress\\psoc creator\\4.4\\psoc creator\\import\\gnu\\arm\\5.4.
 1430              		.file 6 "Generated_Source\\PSoC6\\CapSense_Configuration.h"
 1431              		.file 7 "Generated_Source\\PSoC6\\CapSense_SmartSense_LL.h"
ARM GAS  C:\Users\ikomb\AppData\Local\Temp\cc6TxH90.s 			page 58


 1432              		.file 8 "Generated_Source\\PSoC6\\CapSense_Structure.h"
 1433              		.file 9 "Generated_Source\\PSoC6\\CapSense_Centroid_LL.h"
 1434              		.file 10 "c:\\program files (x86)\\cypress\\psoc creator\\4.4\\psoc creator\\import\\gnu\\arm\\5.4
 1435              		.file 11 "Generated_Source\\PSoC6\\CapSense_Filter.h"
 1436              		.section	.debug_info,"",%progbits
 1437              	.Ldebug_info0:
 1438 0000 6A130000 		.4byte	0x136a
 1439 0004 0400     		.2byte	0x4
 1440 0006 00000000 		.4byte	.Ldebug_abbrev0
 1441 000a 04       		.byte	0x4
 1442 000b 01       		.uleb128 0x1
 1443 000c 8F080000 		.4byte	.LASF180
 1444 0010 0C       		.byte	0xc
 1445 0011 C9000000 		.4byte	.LASF181
 1446 0015 2F050000 		.4byte	.LASF182
 1447 0019 00000000 		.4byte	.Ldebug_ranges0+0
 1448 001d 00000000 		.4byte	0
 1449 0021 00000000 		.4byte	.Ldebug_line0
 1450 0025 02       		.uleb128 0x2
 1451 0026 01       		.byte	0x1
 1452 0027 06       		.byte	0x6
 1453 0028 FF010000 		.4byte	.LASF0
 1454 002c 03       		.uleb128 0x3
 1455 002d 85000000 		.4byte	.LASF3
 1456 0031 02       		.byte	0x2
 1457 0032 1D       		.byte	0x1d
 1458 0033 37000000 		.4byte	0x37
 1459 0037 02       		.uleb128 0x2
 1460 0038 01       		.byte	0x1
 1461 0039 08       		.byte	0x8
 1462 003a B2090000 		.4byte	.LASF1
 1463 003e 02       		.uleb128 0x2
 1464 003f 02       		.byte	0x2
 1465 0040 05       		.byte	0x5
 1466 0041 8A020000 		.4byte	.LASF2
 1467 0045 03       		.uleb128 0x3
 1468 0046 37090000 		.4byte	.LASF4
 1469 004a 02       		.byte	0x2
 1470 004b 2B       		.byte	0x2b
 1471 004c 50000000 		.4byte	0x50
 1472 0050 02       		.uleb128 0x2
 1473 0051 02       		.byte	0x2
 1474 0052 07       		.byte	0x7
 1475 0053 13030000 		.4byte	.LASF5
 1476 0057 03       		.uleb128 0x3
 1477 0058 65090000 		.4byte	.LASF6
 1478 005c 02       		.byte	0x2
 1479 005d 3F       		.byte	0x3f
 1480 005e 62000000 		.4byte	0x62
 1481 0062 02       		.uleb128 0x2
 1482 0063 04       		.byte	0x4
 1483 0064 05       		.byte	0x5
 1484 0065 5A020000 		.4byte	.LASF7
 1485 0069 03       		.uleb128 0x3
 1486 006a 3E030000 		.4byte	.LASF8
 1487 006e 02       		.byte	0x2
 1488 006f 41       		.byte	0x41
ARM GAS  C:\Users\ikomb\AppData\Local\Temp\cc6TxH90.s 			page 59


 1489 0070 74000000 		.4byte	0x74
 1490 0074 02       		.uleb128 0x2
 1491 0075 04       		.byte	0x4
 1492 0076 07       		.byte	0x7
 1493 0077 DD030000 		.4byte	.LASF9
 1494 007b 02       		.uleb128 0x2
 1495 007c 08       		.byte	0x8
 1496 007d 05       		.byte	0x5
 1497 007e F1010000 		.4byte	.LASF10
 1498 0082 02       		.uleb128 0x2
 1499 0083 08       		.byte	0x8
 1500 0084 07       		.byte	0x7
 1501 0085 0E010000 		.4byte	.LASF11
 1502 0089 04       		.uleb128 0x4
 1503 008a 04       		.byte	0x4
 1504 008b 05       		.byte	0x5
 1505 008c 696E7400 		.ascii	"int\000"
 1506 0090 02       		.uleb128 0x2
 1507 0091 04       		.byte	0x4
 1508 0092 07       		.byte	0x7
 1509 0093 A8030000 		.4byte	.LASF12
 1510 0097 03       		.uleb128 0x3
 1511 0098 810A0000 		.4byte	.LASF13
 1512 009c 03       		.byte	0x3
 1513 009d 18       		.byte	0x18
 1514 009e 2C000000 		.4byte	0x2c
 1515 00a2 03       		.uleb128 0x3
 1516 00a3 9B020000 		.4byte	.LASF14
 1517 00a7 03       		.byte	0x3
 1518 00a8 24       		.byte	0x24
 1519 00a9 45000000 		.4byte	0x45
 1520 00ad 03       		.uleb128 0x3
 1521 00ae 47070000 		.4byte	.LASF15
 1522 00b2 03       		.byte	0x3
 1523 00b3 2C       		.byte	0x2c
 1524 00b4 57000000 		.4byte	0x57
 1525 00b8 03       		.uleb128 0x3
 1526 00b9 59080000 		.4byte	.LASF16
 1527 00bd 03       		.byte	0x3
 1528 00be 30       		.byte	0x30
 1529 00bf 69000000 		.4byte	0x69
 1530 00c3 02       		.uleb128 0x2
 1531 00c4 04       		.byte	0x4
 1532 00c5 07       		.byte	0x7
 1533 00c6 890A0000 		.4byte	.LASF17
 1534 00ca 05       		.uleb128 0x5
 1535 00cb 24040000 		.4byte	.LASF18
 1536 00cf 04       		.byte	0x4
 1537 00d0 C401     		.2byte	0x1c4
 1538 00d2 D6000000 		.4byte	0xd6
 1539 00d6 02       		.uleb128 0x2
 1540 00d7 01       		.byte	0x1
 1541 00d8 08       		.byte	0x8
 1542 00d9 2D090000 		.4byte	.LASF19
 1543 00dd 02       		.uleb128 0x2
 1544 00de 04       		.byte	0x4
 1545 00df 04       		.byte	0x4
ARM GAS  C:\Users\ikomb\AppData\Local\Temp\cc6TxH90.s 			page 60


 1546 00e0 4F060000 		.4byte	.LASF20
 1547 00e4 02       		.uleb128 0x2
 1548 00e5 08       		.byte	0x8
 1549 00e6 04       		.byte	0x4
 1550 00e7 A4020000 		.4byte	.LASF21
 1551 00eb 05       		.uleb128 0x5
 1552 00ec 84020000 		.4byte	.LASF22
 1553 00f0 04       		.byte	0x4
 1554 00f1 8503     		.2byte	0x385
 1555 00f3 97000000 		.4byte	0x97
 1556 00f7 05       		.uleb128 0x5
 1557 00f8 0A000000 		.4byte	.LASF23
 1558 00fc 04       		.byte	0x4
 1559 00fd 8603     		.2byte	0x386
 1560 00ff A2000000 		.4byte	0xa2
 1561 0103 05       		.uleb128 0x5
 1562 0104 26030000 		.4byte	.LASF24
 1563 0108 04       		.byte	0x4
 1564 0109 8703     		.2byte	0x387
 1565 010b B8000000 		.4byte	0xb8
 1566 010f 05       		.uleb128 0x5
 1567 0110 28020000 		.4byte	.LASF25
 1568 0114 04       		.byte	0x4
 1569 0115 8A03     		.2byte	0x38a
 1570 0117 AD000000 		.4byte	0xad
 1571 011b 03       		.uleb128 0x3
 1572 011c 46000000 		.4byte	.LASF26
 1573 0120 05       		.byte	0x5
 1574 0121 D8       		.byte	0xd8
 1575 0122 90000000 		.4byte	0x90
 1576 0126 02       		.uleb128 0x2
 1577 0127 08       		.byte	0x8
 1578 0128 04       		.byte	0x4
 1579 0129 21090000 		.4byte	.LASF27
 1580 012d 06       		.uleb128 0x6
 1581 012e 04       		.byte	0x4
 1582 012f 03       		.uleb128 0x3
 1583 0130 9A010000 		.4byte	.LASF28
 1584 0134 06       		.byte	0x6
 1585 0135 F2       		.byte	0xf2
 1586 0136 F7000000 		.4byte	0xf7
 1587 013a 03       		.uleb128 0x3
 1588 013b 5E010000 		.4byte	.LASF29
 1589 013f 06       		.byte	0x6
 1590 0140 F6       		.byte	0xf6
 1591 0141 EB000000 		.4byte	0xeb
 1592 0145 07       		.uleb128 0x7
 1593 0146 0C       		.byte	0xc
 1594 0147 07       		.byte	0x7
 1595 0148 6E       		.byte	0x6e
 1596 0149 A2010000 		.4byte	0x1a2
 1597 014d 08       		.uleb128 0x8
 1598 014e 4F070000 		.4byte	.LASF30
 1599 0152 07       		.byte	0x7
 1600 0153 73       		.byte	0x73
 1601 0154 F7000000 		.4byte	0xf7
 1602 0158 00       		.byte	0
ARM GAS  C:\Users\ikomb\AppData\Local\Temp\cc6TxH90.s 			page 61


 1603 0159 08       		.uleb128 0x8
 1604 015a 56070000 		.4byte	.LASF31
 1605 015e 07       		.byte	0x7
 1606 015f 77       		.byte	0x77
 1607 0160 F7000000 		.4byte	0xf7
 1608 0164 02       		.byte	0x2
 1609 0165 08       		.uleb128 0x8
 1610 0166 5D070000 		.4byte	.LASF32
 1611 016a 07       		.byte	0x7
 1612 016b 7B       		.byte	0x7b
 1613 016c F7000000 		.4byte	0xf7
 1614 0170 04       		.byte	0x4
 1615 0171 08       		.uleb128 0x8
 1616 0172 64070000 		.4byte	.LASF33
 1617 0176 07       		.byte	0x7
 1618 0177 7F       		.byte	0x7f
 1619 0178 F7000000 		.4byte	0xf7
 1620 017c 06       		.byte	0x6
 1621 017d 08       		.uleb128 0x8
 1622 017e 6B070000 		.4byte	.LASF34
 1623 0182 07       		.byte	0x7
 1624 0183 83       		.byte	0x83
 1625 0184 F7000000 		.4byte	0xf7
 1626 0188 08       		.byte	0x8
 1627 0189 08       		.uleb128 0x8
 1628 018a 72070000 		.4byte	.LASF35
 1629 018e 07       		.byte	0x7
 1630 018f 87       		.byte	0x87
 1631 0190 EB000000 		.4byte	0xeb
 1632 0194 0A       		.byte	0xa
 1633 0195 08       		.uleb128 0x8
 1634 0196 79070000 		.4byte	.LASF36
 1635 019a 07       		.byte	0x7
 1636 019b 8B       		.byte	0x8b
 1637 019c EB000000 		.4byte	0xeb
 1638 01a0 0B       		.byte	0xb
 1639 01a1 00       		.byte	0
 1640 01a2 03       		.uleb128 0x3
 1641 01a3 71060000 		.4byte	.LASF37
 1642 01a7 07       		.byte	0x7
 1643 01a8 8C       		.byte	0x8c
 1644 01a9 45010000 		.4byte	0x145
 1645 01ad 07       		.uleb128 0x7
 1646 01ae 06       		.byte	0x6
 1647 01af 07       		.byte	0x7
 1648 01b0 94       		.byte	0x94
 1649 01b1 E6010000 		.4byte	0x1e6
 1650 01b5 08       		.uleb128 0x8
 1651 01b6 F90A0000 		.4byte	.LASF38
 1652 01ba 07       		.byte	0x7
 1653 01bb 99       		.byte	0x99
 1654 01bc F7000000 		.4byte	0xf7
 1655 01c0 00       		.byte	0
 1656 01c1 08       		.uleb128 0x8
 1657 01c2 AA0B0000 		.4byte	.LASF39
 1658 01c6 07       		.byte	0x7
 1659 01c7 9E       		.byte	0x9e
ARM GAS  C:\Users\ikomb\AppData\Local\Temp\cc6TxH90.s 			page 62


 1660 01c8 EB000000 		.4byte	0xeb
 1661 01cc 02       		.byte	0x2
 1662 01cd 08       		.uleb128 0x8
 1663 01ce 8F050000 		.4byte	.LASF40
 1664 01d2 07       		.byte	0x7
 1665 01d3 A3       		.byte	0xa3
 1666 01d4 EB000000 		.4byte	0xeb
 1667 01d8 03       		.byte	0x3
 1668 01d9 08       		.uleb128 0x8
 1669 01da 2D030000 		.4byte	.LASF41
 1670 01de 07       		.byte	0x7
 1671 01df A8       		.byte	0xa8
 1672 01e0 EB000000 		.4byte	0xeb
 1673 01e4 04       		.byte	0x4
 1674 01e5 00       		.byte	0
 1675 01e6 03       		.uleb128 0x3
 1676 01e7 22060000 		.4byte	.LASF42
 1677 01eb 07       		.byte	0x7
 1678 01ec A9       		.byte	0xa9
 1679 01ed AD010000 		.4byte	0x1ad
 1680 01f1 09       		.uleb128 0x9
 1681 01f2 01       		.byte	0x1
 1682 01f3 37000000 		.4byte	0x37
 1683 01f7 08       		.byte	0x8
 1684 01f8 61       		.byte	0x61
 1685 01f9 22020000 		.4byte	0x222
 1686 01fd 0A       		.uleb128 0xa
 1687 01fe 32070000 		.4byte	.LASF43
 1688 0202 01       		.byte	0x1
 1689 0203 0A       		.uleb128 0xa
 1690 0204 D5010000 		.4byte	.LASF44
 1691 0208 02       		.byte	0x2
 1692 0209 0A       		.uleb128 0xa
 1693 020a 55060000 		.4byte	.LASF45
 1694 020e 03       		.byte	0x3
 1695 020f 0A       		.uleb128 0xa
 1696 0210 70030000 		.4byte	.LASF46
 1697 0214 04       		.byte	0x4
 1698 0215 0A       		.uleb128 0xa
 1699 0216 F1070000 		.4byte	.LASF47
 1700 021a 05       		.byte	0x5
 1701 021b 0A       		.uleb128 0xa
 1702 021c 0B0B0000 		.4byte	.LASF48
 1703 0220 06       		.byte	0x6
 1704 0221 00       		.byte	0
 1705 0222 03       		.uleb128 0x3
 1706 0223 7A090000 		.4byte	.LASF49
 1707 0227 08       		.byte	0x8
 1708 0228 68       		.byte	0x68
 1709 0229 F1010000 		.4byte	0x1f1
 1710 022d 07       		.uleb128 0x7
 1711 022e 12       		.byte	0x12
 1712 022f 08       		.byte	0x8
 1713 0230 8C       		.byte	0x8c
 1714 0231 C6020000 		.4byte	0x2c6
 1715 0235 08       		.uleb128 0x8
 1716 0236 920A0000 		.4byte	.LASF50
ARM GAS  C:\Users\ikomb\AppData\Local\Temp\cc6TxH90.s 			page 63


 1717 023a 08       		.byte	0x8
 1718 023b 92       		.byte	0x92
 1719 023c F7000000 		.4byte	0xf7
 1720 0240 00       		.byte	0
 1721 0241 08       		.uleb128 0x8
 1722 0242 F90A0000 		.4byte	.LASF38
 1723 0246 08       		.byte	0x8
 1724 0247 97       		.byte	0x97
 1725 0248 2F010000 		.4byte	0x12f
 1726 024c 02       		.byte	0x2
 1727 024d 08       		.uleb128 0x8
 1728 024e AA0B0000 		.4byte	.LASF39
 1729 0252 08       		.byte	0x8
 1730 0253 9C       		.byte	0x9c
 1731 0254 EB000000 		.4byte	0xeb
 1732 0258 04       		.byte	0x4
 1733 0259 08       		.uleb128 0x8
 1734 025a 8F050000 		.4byte	.LASF40
 1735 025e 08       		.byte	0x8
 1736 025f A1       		.byte	0xa1
 1737 0260 EB000000 		.4byte	0xeb
 1738 0264 05       		.byte	0x5
 1739 0265 08       		.uleb128 0x8
 1740 0266 2D030000 		.4byte	.LASF41
 1741 026a 08       		.byte	0x8
 1742 026b A6       		.byte	0xa6
 1743 026c EB000000 		.4byte	0xeb
 1744 0270 06       		.byte	0x6
 1745 0271 08       		.uleb128 0x8
 1746 0272 6F090000 		.4byte	.LASF51
 1747 0276 08       		.byte	0x8
 1748 0277 AB       		.byte	0xab
 1749 0278 EB000000 		.4byte	0xeb
 1750 027c 07       		.byte	0x7
 1751 027d 08       		.uleb128 0x8
 1752 027e 0F040000 		.4byte	.LASF52
 1753 0282 08       		.byte	0x8
 1754 0283 B2       		.byte	0xb2
 1755 0284 3A010000 		.4byte	0x13a
 1756 0288 08       		.byte	0x8
 1757 0289 08       		.uleb128 0x8
 1758 028a AC040000 		.4byte	.LASF53
 1759 028e 08       		.byte	0x8
 1760 028f BA       		.byte	0xba
 1761 0290 C6020000 		.4byte	0x2c6
 1762 0294 09       		.byte	0x9
 1763 0295 08       		.uleb128 0x8
 1764 0296 42090000 		.4byte	.LASF54
 1765 029a 08       		.byte	0x8
 1766 029b C3       		.byte	0xc3
 1767 029c F7000000 		.4byte	0xf7
 1768 02a0 0A       		.byte	0xa
 1769 02a1 08       		.uleb128 0x8
 1770 02a2 9D0A0000 		.4byte	.LASF55
 1771 02a6 08       		.byte	0x8
 1772 02a7 C8       		.byte	0xc8
 1773 02a8 EB000000 		.4byte	0xeb
ARM GAS  C:\Users\ikomb\AppData\Local\Temp\cc6TxH90.s 			page 64


 1774 02ac 0C       		.byte	0xc
 1775 02ad 08       		.uleb128 0x8
 1776 02ae 8F000000 		.4byte	.LASF56
 1777 02b2 08       		.byte	0x8
 1778 02b3 CF       		.byte	0xcf
 1779 02b4 F7000000 		.4byte	0xf7
 1780 02b8 0E       		.byte	0xe
 1781 02b9 08       		.uleb128 0x8
 1782 02ba 98050000 		.4byte	.LASF57
 1783 02be 08       		.byte	0x8
 1784 02bf D4       		.byte	0xd4
 1785 02c0 F7000000 		.4byte	0xf7
 1786 02c4 10       		.byte	0x10
 1787 02c5 00       		.byte	0
 1788 02c6 0B       		.uleb128 0xb
 1789 02c7 EB000000 		.4byte	0xeb
 1790 02cb D6020000 		.4byte	0x2d6
 1791 02cf 0C       		.uleb128 0xc
 1792 02d0 C3000000 		.4byte	0xc3
 1793 02d4 00       		.byte	0
 1794 02d5 00       		.byte	0
 1795 02d6 03       		.uleb128 0x3
 1796 02d7 49090000 		.4byte	.LASF58
 1797 02db 08       		.byte	0x8
 1798 02dc D5       		.byte	0xd5
 1799 02dd 2D020000 		.4byte	0x22d
 1800 02e1 07       		.uleb128 0x7
 1801 02e2 12       		.byte	0x12
 1802 02e3 08       		.byte	0x8
 1803 02e4 DA       		.byte	0xda
 1804 02e5 80030000 		.4byte	0x380
 1805 02e9 08       		.uleb128 0x8
 1806 02ea 920A0000 		.4byte	.LASF50
 1807 02ee 08       		.byte	0x8
 1808 02ef E0       		.byte	0xe0
 1809 02f0 F7000000 		.4byte	0xf7
 1810 02f4 00       		.byte	0
 1811 02f5 08       		.uleb128 0x8
 1812 02f6 F90A0000 		.4byte	.LASF38
 1813 02fa 08       		.byte	0x8
 1814 02fb E5       		.byte	0xe5
 1815 02fc 2F010000 		.4byte	0x12f
 1816 0300 02       		.byte	0x2
 1817 0301 08       		.uleb128 0x8
 1818 0302 AA0B0000 		.4byte	.LASF39
 1819 0306 08       		.byte	0x8
 1820 0307 EA       		.byte	0xea
 1821 0308 EB000000 		.4byte	0xeb
 1822 030c 04       		.byte	0x4
 1823 030d 08       		.uleb128 0x8
 1824 030e 8F050000 		.4byte	.LASF40
 1825 0312 08       		.byte	0x8
 1826 0313 EF       		.byte	0xef
 1827 0314 EB000000 		.4byte	0xeb
 1828 0318 05       		.byte	0x5
 1829 0319 08       		.uleb128 0x8
 1830 031a 2D030000 		.4byte	.LASF41
ARM GAS  C:\Users\ikomb\AppData\Local\Temp\cc6TxH90.s 			page 65


 1831 031e 08       		.byte	0x8
 1832 031f F4       		.byte	0xf4
 1833 0320 EB000000 		.4byte	0xeb
 1834 0324 06       		.byte	0x6
 1835 0325 08       		.uleb128 0x8
 1836 0326 6F090000 		.4byte	.LASF51
 1837 032a 08       		.byte	0x8
 1838 032b F9       		.byte	0xf9
 1839 032c EB000000 		.4byte	0xeb
 1840 0330 07       		.byte	0x7
 1841 0331 0D       		.uleb128 0xd
 1842 0332 0F040000 		.4byte	.LASF52
 1843 0336 08       		.byte	0x8
 1844 0337 0001     		.2byte	0x100
 1845 0339 3A010000 		.4byte	0x13a
 1846 033d 08       		.byte	0x8
 1847 033e 0D       		.uleb128 0xd
 1848 033f AC040000 		.4byte	.LASF53
 1849 0343 08       		.byte	0x8
 1850 0344 0801     		.2byte	0x108
 1851 0346 C6020000 		.4byte	0x2c6
 1852 034a 09       		.byte	0x9
 1853 034b 0D       		.uleb128 0xd
 1854 034c 42090000 		.4byte	.LASF54
 1855 0350 08       		.byte	0x8
 1856 0351 1101     		.2byte	0x111
 1857 0353 F7000000 		.4byte	0xf7
 1858 0357 0A       		.byte	0xa
 1859 0358 0D       		.uleb128 0xd
 1860 0359 9D0A0000 		.4byte	.LASF55
 1861 035d 08       		.byte	0x8
 1862 035e 1601     		.2byte	0x116
 1863 0360 EB000000 		.4byte	0xeb
 1864 0364 0C       		.byte	0xc
 1865 0365 0D       		.uleb128 0xd
 1866 0366 8F000000 		.4byte	.LASF56
 1867 036a 08       		.byte	0x8
 1868 036b 1D01     		.2byte	0x11d
 1869 036d F7000000 		.4byte	0xf7
 1870 0371 0E       		.byte	0xe
 1871 0372 0D       		.uleb128 0xd
 1872 0373 98050000 		.4byte	.LASF57
 1873 0377 08       		.byte	0x8
 1874 0378 2201     		.2byte	0x122
 1875 037a F7000000 		.4byte	0xf7
 1876 037e 10       		.byte	0x10
 1877 037f 00       		.byte	0
 1878 0380 05       		.uleb128 0x5
 1879 0381 77040000 		.4byte	.LASF59
 1880 0385 08       		.byte	0x8
 1881 0386 2301     		.2byte	0x123
 1882 0388 E1020000 		.4byte	0x2e1
 1883 038c 0E       		.uleb128 0xe
 1884 038d 14       		.byte	0x14
 1885 038e 08       		.byte	0x8
 1886 038f 2801     		.2byte	0x128
 1887 0391 3F040000 		.4byte	0x43f
ARM GAS  C:\Users\ikomb\AppData\Local\Temp\cc6TxH90.s 			page 66


 1888 0395 0D       		.uleb128 0xd
 1889 0396 920A0000 		.4byte	.LASF50
 1890 039a 08       		.byte	0x8
 1891 039b 2E01     		.2byte	0x12e
 1892 039d F7000000 		.4byte	0xf7
 1893 03a1 00       		.byte	0
 1894 03a2 0D       		.uleb128 0xd
 1895 03a3 F90A0000 		.4byte	.LASF38
 1896 03a7 08       		.byte	0x8
 1897 03a8 3301     		.2byte	0x133
 1898 03aa 2F010000 		.4byte	0x12f
 1899 03ae 02       		.byte	0x2
 1900 03af 0D       		.uleb128 0xd
 1901 03b0 AA0B0000 		.4byte	.LASF39
 1902 03b4 08       		.byte	0x8
 1903 03b5 3801     		.2byte	0x138
 1904 03b7 EB000000 		.4byte	0xeb
 1905 03bb 04       		.byte	0x4
 1906 03bc 0D       		.uleb128 0xd
 1907 03bd 8F050000 		.4byte	.LASF40
 1908 03c1 08       		.byte	0x8
 1909 03c2 3D01     		.2byte	0x13d
 1910 03c4 EB000000 		.4byte	0xeb
 1911 03c8 05       		.byte	0x5
 1912 03c9 0D       		.uleb128 0xd
 1913 03ca 2D030000 		.4byte	.LASF41
 1914 03ce 08       		.byte	0x8
 1915 03cf 4201     		.2byte	0x142
 1916 03d1 EB000000 		.4byte	0xeb
 1917 03d5 06       		.byte	0x6
 1918 03d6 0D       		.uleb128 0xd
 1919 03d7 6F090000 		.4byte	.LASF51
 1920 03db 08       		.byte	0x8
 1921 03dc 4701     		.2byte	0x147
 1922 03de EB000000 		.4byte	0xeb
 1923 03e2 07       		.byte	0x7
 1924 03e3 0D       		.uleb128 0xd
 1925 03e4 0F040000 		.4byte	.LASF52
 1926 03e8 08       		.byte	0x8
 1927 03e9 4E01     		.2byte	0x14e
 1928 03eb 3A010000 		.4byte	0x13a
 1929 03ef 08       		.byte	0x8
 1930 03f0 0D       		.uleb128 0xd
 1931 03f1 AC040000 		.4byte	.LASF53
 1932 03f5 08       		.byte	0x8
 1933 03f6 5601     		.2byte	0x156
 1934 03f8 C6020000 		.4byte	0x2c6
 1935 03fc 09       		.byte	0x9
 1936 03fd 0D       		.uleb128 0xd
 1937 03fe 42090000 		.4byte	.LASF54
 1938 0402 08       		.byte	0x8
 1939 0403 5F01     		.2byte	0x15f
 1940 0405 F7000000 		.4byte	0xf7
 1941 0409 0A       		.byte	0xa
 1942 040a 0D       		.uleb128 0xd
 1943 040b 9D0A0000 		.4byte	.LASF55
 1944 040f 08       		.byte	0x8
ARM GAS  C:\Users\ikomb\AppData\Local\Temp\cc6TxH90.s 			page 67


 1945 0410 6401     		.2byte	0x164
 1946 0412 EB000000 		.4byte	0xeb
 1947 0416 0C       		.byte	0xc
 1948 0417 0D       		.uleb128 0xd
 1949 0418 8F000000 		.4byte	.LASF56
 1950 041c 08       		.byte	0x8
 1951 041d 6B01     		.2byte	0x16b
 1952 041f F7000000 		.4byte	0xf7
 1953 0423 0E       		.byte	0xe
 1954 0424 0D       		.uleb128 0xd
 1955 0425 98050000 		.4byte	.LASF57
 1956 0429 08       		.byte	0x8
 1957 042a 7001     		.2byte	0x170
 1958 042c F7000000 		.4byte	0xf7
 1959 0430 10       		.byte	0x10
 1960 0431 0D       		.uleb128 0xd
 1961 0432 B5030000 		.4byte	.LASF60
 1962 0436 08       		.byte	0x8
 1963 0437 7501     		.2byte	0x175
 1964 0439 3F040000 		.4byte	0x43f
 1965 043d 12       		.byte	0x12
 1966 043e 00       		.byte	0
 1967 043f 0B       		.uleb128 0xb
 1968 0440 F7000000 		.4byte	0xf7
 1969 0444 4F040000 		.4byte	0x44f
 1970 0448 0C       		.uleb128 0xc
 1971 0449 C3000000 		.4byte	0xc3
 1972 044d 00       		.byte	0
 1973 044e 00       		.byte	0
 1974 044f 05       		.uleb128 0x5
 1975 0450 B4040000 		.4byte	.LASF61
 1976 0454 08       		.byte	0x8
 1977 0455 7601     		.2byte	0x176
 1978 0457 8C030000 		.4byte	0x38c
 1979 045b 0E       		.uleb128 0xe
 1980 045c 38       		.byte	0x38
 1981 045d 08       		.byte	0x8
 1982 045e 7C01     		.2byte	0x17c
 1983 0460 8C040000 		.4byte	0x48c
 1984 0464 0D       		.uleb128 0xd
 1985 0465 18020000 		.4byte	.LASF62
 1986 0469 08       		.byte	0x8
 1987 046a 8101     		.2byte	0x181
 1988 046c 80030000 		.4byte	0x380
 1989 0470 00       		.byte	0
 1990 0471 0D       		.uleb128 0xd
 1991 0472 20020000 		.4byte	.LASF63
 1992 0476 08       		.byte	0x8
 1993 0477 8601     		.2byte	0x186
 1994 0479 80030000 		.4byte	0x380
 1995 047d 12       		.byte	0x12
 1996 047e 0D       		.uleb128 0xd
 1997 047f 81080000 		.4byte	.LASF64
 1998 0483 08       		.byte	0x8
 1999 0484 8B01     		.2byte	0x18b
 2000 0486 4F040000 		.4byte	0x44f
 2001 048a 24       		.byte	0x24
ARM GAS  C:\Users\ikomb\AppData\Local\Temp\cc6TxH90.s 			page 68


 2002 048b 00       		.byte	0
 2003 048c 05       		.uleb128 0x5
 2004 048d 230B0000 		.4byte	.LASF65
 2005 0491 08       		.byte	0x8
 2006 0492 8C01     		.2byte	0x18c
 2007 0494 5B040000 		.4byte	0x45b
 2008 0498 0E       		.uleb128 0xe
 2009 0499 0A       		.byte	0xa
 2010 049a 08       		.byte	0x8
 2011 049b 9201     		.2byte	0x192
 2012 049d F0040000 		.4byte	0x4f0
 2013 04a1 0F       		.uleb128 0xf
 2014 04a2 72617700 		.ascii	"raw\000"
 2015 04a6 08       		.byte	0x8
 2016 04a7 9701     		.2byte	0x197
 2017 04a9 3F040000 		.4byte	0x43f
 2018 04ad 00       		.byte	0
 2019 04ae 0D       		.uleb128 0xd
 2020 04af 96030000 		.4byte	.LASF66
 2021 04b3 08       		.byte	0x8
 2022 04b4 9C01     		.2byte	0x19c
 2023 04b6 3F040000 		.4byte	0x43f
 2024 04ba 02       		.byte	0x2
 2025 04bb 0D       		.uleb128 0xd
 2026 04bc F2020000 		.4byte	.LASF67
 2027 04c0 08       		.byte	0x8
 2028 04c1 A201     		.2byte	0x1a2
 2029 04c3 C6020000 		.4byte	0x2c6
 2030 04c7 04       		.byte	0x4
 2031 04c8 0D       		.uleb128 0xd
 2032 04c9 59010000 		.4byte	.LASF68
 2033 04cd 08       		.byte	0x8
 2034 04ce A701     		.2byte	0x1a7
 2035 04d0 2F010000 		.4byte	0x12f
 2036 04d4 06       		.byte	0x6
 2037 04d5 0D       		.uleb128 0xd
 2038 04d6 C0090000 		.4byte	.LASF69
 2039 04da 08       		.byte	0x8
 2040 04db AC01     		.2byte	0x1ac
 2041 04dd F0040000 		.4byte	0x4f0
 2042 04e1 08       		.byte	0x8
 2043 04e2 0D       		.uleb128 0xd
 2044 04e3 6C0A0000 		.4byte	.LASF70
 2045 04e7 08       		.byte	0x8
 2046 04e8 B201     		.2byte	0x1b2
 2047 04ea C6020000 		.4byte	0x2c6
 2048 04ee 09       		.byte	0x9
 2049 04ef 00       		.byte	0
 2050 04f0 0B       		.uleb128 0xb
 2051 04f1 3A010000 		.4byte	0x13a
 2052 04f5 00050000 		.4byte	0x500
 2053 04f9 0C       		.uleb128 0xc
 2054 04fa C3000000 		.4byte	0xc3
 2055 04fe 00       		.byte	0
 2056 04ff 00       		.byte	0
 2057 0500 05       		.uleb128 0x5
 2058 0501 F6000000 		.4byte	.LASF71
ARM GAS  C:\Users\ikomb\AppData\Local\Temp\cc6TxH90.s 			page 69


 2059 0505 08       		.byte	0x8
 2060 0506 B301     		.2byte	0x1b3
 2061 0508 98040000 		.4byte	0x498
 2062 050c 0E       		.uleb128 0xe
 2063 050d 46       		.byte	0x46
 2064 050e 08       		.byte	0x8
 2065 050f B901     		.2byte	0x1b9
 2066 0511 3D050000 		.4byte	0x53d
 2067 0515 0D       		.uleb128 0xd
 2068 0516 18020000 		.4byte	.LASF62
 2069 051a 08       		.byte	0x8
 2070 051b BE01     		.2byte	0x1be
 2071 051d 3D050000 		.4byte	0x53d
 2072 0521 00       		.byte	0
 2073 0522 0D       		.uleb128 0xd
 2074 0523 20020000 		.4byte	.LASF63
 2075 0527 08       		.byte	0x8
 2076 0528 C301     		.2byte	0x1c3
 2077 052a 3D050000 		.4byte	0x53d
 2078 052e 0A       		.byte	0xa
 2079 052f 0D       		.uleb128 0xd
 2080 0530 81080000 		.4byte	.LASF64
 2081 0534 08       		.byte	0x8
 2082 0535 C801     		.2byte	0x1c8
 2083 0537 4D050000 		.4byte	0x54d
 2084 053b 14       		.byte	0x14
 2085 053c 00       		.byte	0
 2086 053d 0B       		.uleb128 0xb
 2087 053e 00050000 		.4byte	0x500
 2088 0542 4D050000 		.4byte	0x54d
 2089 0546 0C       		.uleb128 0xc
 2090 0547 C3000000 		.4byte	0xc3
 2091 054b 00       		.byte	0
 2092 054c 00       		.byte	0
 2093 054d 0B       		.uleb128 0xb
 2094 054e 00050000 		.4byte	0x500
 2095 0552 5D050000 		.4byte	0x55d
 2096 0556 0C       		.uleb128 0xc
 2097 0557 C3000000 		.4byte	0xc3
 2098 055b 04       		.byte	0x4
 2099 055c 00       		.byte	0
 2100 055d 05       		.uleb128 0x5
 2101 055e BF060000 		.4byte	.LASF72
 2102 0562 08       		.byte	0x8
 2103 0563 C901     		.2byte	0x1c9
 2104 0565 0C050000 		.4byte	0x50c
 2105 0569 0E       		.uleb128 0xe
 2106 056a A4       		.byte	0xa4
 2107 056b 08       		.byte	0x8
 2108 056c CF01     		.2byte	0x1cf
 2109 056e 5D060000 		.4byte	0x65d
 2110 0572 0D       		.uleb128 0xd
 2111 0573 42040000 		.4byte	.LASF73
 2112 0577 08       		.byte	0x8
 2113 0578 D701     		.2byte	0x1d7
 2114 057a F7000000 		.4byte	0xf7
 2115 057e 00       		.byte	0
ARM GAS  C:\Users\ikomb\AppData\Local\Temp\cc6TxH90.s 			page 70


 2116 057f 0D       		.uleb128 0xd
 2117 0580 6E040000 		.4byte	.LASF74
 2118 0584 08       		.byte	0x8
 2119 0585 DC01     		.2byte	0x1dc
 2120 0587 F7000000 		.4byte	0xf7
 2121 058b 02       		.byte	0x2
 2122 058c 0D       		.uleb128 0xd
 2123 058d B8050000 		.4byte	.LASF75
 2124 0591 08       		.byte	0x8
 2125 0592 E101     		.2byte	0x1e1
 2126 0594 F7000000 		.4byte	0xf7
 2127 0598 04       		.byte	0x4
 2128 0599 0D       		.uleb128 0xd
 2129 059a 46060000 		.4byte	.LASF76
 2130 059e 08       		.byte	0x8
 2131 059f E701     		.2byte	0x1e7
 2132 05a1 F7000000 		.4byte	0xf7
 2133 05a5 06       		.byte	0x6
 2134 05a6 0D       		.uleb128 0xd
 2135 05a7 E8050000 		.4byte	.LASF77
 2136 05ab 08       		.byte	0x8
 2137 05ac EC01     		.2byte	0x1ec
 2138 05ae F7000000 		.4byte	0xf7
 2139 05b2 08       		.byte	0x8
 2140 05b3 0D       		.uleb128 0xd
 2141 05b4 500A0000 		.4byte	.LASF78
 2142 05b8 08       		.byte	0x8
 2143 05b9 F101     		.2byte	0x1f1
 2144 05bb 5D060000 		.4byte	0x65d
 2145 05bf 0C       		.byte	0xc
 2146 05c0 0D       		.uleb128 0xd
 2147 05c1 EF030000 		.4byte	.LASF79
 2148 05c5 08       		.byte	0x8
 2149 05c6 F701     		.2byte	0x1f7
 2150 05c8 62060000 		.4byte	0x662
 2151 05cc 10       		.byte	0x10
 2152 05cd 0D       		.uleb128 0xd
 2153 05ce 65030000 		.4byte	.LASF80
 2154 05d2 08       		.byte	0x8
 2155 05d3 FD01     		.2byte	0x1fd
 2156 05d5 62060000 		.4byte	0x662
 2157 05d9 14       		.byte	0x14
 2158 05da 0D       		.uleb128 0xd
 2159 05db 50020000 		.4byte	.LASF81
 2160 05df 08       		.byte	0x8
 2161 05e0 0F02     		.2byte	0x20f
 2162 05e2 72060000 		.4byte	0x672
 2163 05e6 18       		.byte	0x18
 2164 05e7 0D       		.uleb128 0xd
 2165 05e8 57040000 		.4byte	.LASF82
 2166 05ec 08       		.byte	0x8
 2167 05ed 1402     		.2byte	0x214
 2168 05ef F7000000 		.4byte	0xf7
 2169 05f3 1C       		.byte	0x1c
 2170 05f4 0D       		.uleb128 0xd
 2171 05f5 63020000 		.4byte	.LASF83
 2172 05f9 08       		.byte	0x8
ARM GAS  C:\Users\ikomb\AppData\Local\Temp\cc6TxH90.s 			page 71


 2173 05fa 1902     		.2byte	0x219
 2174 05fc EB000000 		.4byte	0xeb
 2175 0600 1E       		.byte	0x1e
 2176 0601 0D       		.uleb128 0xd
 2177 0602 00000000 		.4byte	.LASF84
 2178 0606 08       		.byte	0x8
 2179 0607 1E02     		.2byte	0x21e
 2180 0609 EB000000 		.4byte	0xeb
 2181 060d 1F       		.byte	0x1f
 2182 060e 0D       		.uleb128 0xd
 2183 060f 62080000 		.4byte	.LASF85
 2184 0613 08       		.byte	0x8
 2185 0614 2302     		.2byte	0x223
 2186 0616 8C040000 		.4byte	0x48c
 2187 061a 20       		.byte	0x20
 2188 061b 0D       		.uleb128 0xd
 2189 061c 3A040000 		.4byte	.LASF86
 2190 0620 08       		.byte	0x8
 2191 0621 2802     		.2byte	0x228
 2192 0623 5D050000 		.4byte	0x55d
 2193 0627 58       		.byte	0x58
 2194 0628 0D       		.uleb128 0xd
 2195 0629 BE030000 		.4byte	.LASF87
 2196 062d 08       		.byte	0x8
 2197 062e 2D02     		.2byte	0x22d
 2198 0630 EB000000 		.4byte	0xeb
 2199 0634 9E       		.byte	0x9e
 2200 0635 0D       		.uleb128 0xd
 2201 0636 79010000 		.4byte	.LASF88
 2202 063a 08       		.byte	0x8
 2203 063b 3202     		.2byte	0x232
 2204 063d EB000000 		.4byte	0xeb
 2205 0641 9F       		.byte	0x9f
 2206 0642 0D       		.uleb128 0xd
 2207 0643 3F0B0000 		.4byte	.LASF89
 2208 0647 08       		.byte	0x8
 2209 0648 3702     		.2byte	0x237
 2210 064a F7000000 		.4byte	0xf7
 2211 064e A0       		.byte	0xa0
 2212 064f 0D       		.uleb128 0xd
 2213 0650 E2020000 		.4byte	.LASF90
 2214 0654 08       		.byte	0x8
 2215 0655 3C02     		.2byte	0x23c
 2216 0657 3F040000 		.4byte	0x43f
 2217 065b A2       		.byte	0xa2
 2218 065c 00       		.byte	0
 2219 065d 10       		.uleb128 0x10
 2220 065e 03010000 		.4byte	0x103
 2221 0662 0B       		.uleb128 0xb
 2222 0663 03010000 		.4byte	0x103
 2223 0667 72060000 		.4byte	0x672
 2224 066b 0C       		.uleb128 0xc
 2225 066c C3000000 		.4byte	0xc3
 2226 0670 00       		.byte	0
 2227 0671 00       		.byte	0
 2228 0672 0B       		.uleb128 0xb
 2229 0673 EB000000 		.4byte	0xeb
ARM GAS  C:\Users\ikomb\AppData\Local\Temp\cc6TxH90.s 			page 72


 2230 0677 82060000 		.4byte	0x682
 2231 067b 0C       		.uleb128 0xc
 2232 067c C3000000 		.4byte	0xc3
 2233 0680 02       		.byte	0x2
 2234 0681 00       		.byte	0
 2235 0682 05       		.uleb128 0x5
 2236 0683 ED060000 		.4byte	.LASF91
 2237 0687 08       		.byte	0x8
 2238 0688 3D02     		.2byte	0x23d
 2239 068a 69050000 		.4byte	0x569
 2240 068e 0E       		.uleb128 0xe
 2241 068f 30       		.byte	0x30
 2242 0690 08       		.byte	0x8
 2243 0691 7B02     		.2byte	0x27b
 2244 0693 68070000 		.4byte	0x768
 2245 0697 0D       		.uleb128 0xd
 2246 0698 4C010000 		.4byte	.LASF92
 2247 069c 08       		.byte	0x8
 2248 069d 8402     		.2byte	0x284
 2249 069f 68070000 		.4byte	0x768
 2250 06a3 00       		.byte	0
 2251 06a4 0D       		.uleb128 0xd
 2252 06a5 62040000 		.4byte	.LASF93
 2253 06a9 08       		.byte	0x8
 2254 06aa 8B02     		.2byte	0x28b
 2255 06ac 2D010000 		.4byte	0x12d
 2256 06b0 04       		.byte	0x4
 2257 06b1 0D       		.uleb128 0xd
 2258 06b2 6D020000 		.4byte	.LASF94
 2259 06b6 08       		.byte	0x8
 2260 06b7 9102     		.2byte	0x291
 2261 06b9 6F070000 		.4byte	0x76f
 2262 06bd 08       		.byte	0x8
 2263 06be 0D       		.uleb128 0xd
 2264 06bf 36000000 		.4byte	.LASF95
 2265 06c3 08       		.byte	0x8
 2266 06c4 9602     		.2byte	0x296
 2267 06c6 2D010000 		.4byte	0x12d
 2268 06ca 0C       		.byte	0xc
 2269 06cb 0D       		.uleb128 0xd
 2270 06cc E9090000 		.4byte	.LASF96
 2271 06d0 08       		.byte	0x8
 2272 06d1 9D02     		.2byte	0x29d
 2273 06d3 75070000 		.4byte	0x775
 2274 06d7 10       		.byte	0x10
 2275 06d8 0D       		.uleb128 0xd
 2276 06d9 200A0000 		.4byte	.LASF97
 2277 06dd 08       		.byte	0x8
 2278 06de A202     		.2byte	0x2a2
 2279 06e0 03010000 		.4byte	0x103
 2280 06e4 14       		.byte	0x14
 2281 06e5 0D       		.uleb128 0xd
 2282 06e6 D5090000 		.4byte	.LASF98
 2283 06ea 08       		.byte	0x8
 2284 06eb A902     		.2byte	0x2a9
 2285 06ed F7000000 		.4byte	0xf7
 2286 06f1 18       		.byte	0x18
ARM GAS  C:\Users\ikomb\AppData\Local\Temp\cc6TxH90.s 			page 73


 2287 06f2 0D       		.uleb128 0xd
 2288 06f3 C0050000 		.4byte	.LASF99
 2289 06f7 08       		.byte	0x8
 2290 06f8 B402     		.2byte	0x2b4
 2291 06fa EB000000 		.4byte	0xeb
 2292 06fe 1A       		.byte	0x1a
 2293 06ff 0D       		.uleb128 0xd
 2294 0700 4B040000 		.4byte	.LASF100
 2295 0704 08       		.byte	0x8
 2296 0705 B902     		.2byte	0x2b9
 2297 0707 EB000000 		.4byte	0xeb
 2298 070b 1B       		.byte	0x1b
 2299 070c 0D       		.uleb128 0xd
 2300 070d D2040000 		.4byte	.LASF101
 2301 0711 08       		.byte	0x8
 2302 0712 C102     		.2byte	0x2c1
 2303 0714 EB000000 		.4byte	0xeb
 2304 0718 1C       		.byte	0x1c
 2305 0719 0D       		.uleb128 0xd
 2306 071a 5D030000 		.4byte	.LASF102
 2307 071e 08       		.byte	0x8
 2308 071f C802     		.2byte	0x2c8
 2309 0721 EB000000 		.4byte	0xeb
 2310 0725 1D       		.byte	0x1d
 2311 0726 0D       		.uleb128 0xd
 2312 0727 78020000 		.4byte	.LASF103
 2313 072b 08       		.byte	0x8
 2314 072c CE02     		.2byte	0x2ce
 2315 072e F7000000 		.4byte	0xf7
 2316 0732 1E       		.byte	0x1e
 2317 0733 0D       		.uleb128 0xd
 2318 0734 C9050000 		.4byte	.LASF104
 2319 0738 08       		.byte	0x8
 2320 0739 D802     		.2byte	0x2d8
 2321 073b 03010000 		.4byte	0x103
 2322 073f 20       		.byte	0x20
 2323 0740 0D       		.uleb128 0xd
 2324 0741 CE030000 		.4byte	.LASF105
 2325 0745 08       		.byte	0x8
 2326 0746 E002     		.2byte	0x2e0
 2327 0748 7B070000 		.4byte	0x77b
 2328 074c 24       		.byte	0x24
 2329 074d 0D       		.uleb128 0xd
 2330 074e B40A0000 		.4byte	.LASF106
 2331 0752 08       		.byte	0x8
 2332 0753 E502     		.2byte	0x2e5
 2333 0755 2D010000 		.4byte	0x12d
 2334 0759 28       		.byte	0x28
 2335 075a 0D       		.uleb128 0xd
 2336 075b BA000000 		.4byte	.LASF107
 2337 075f 08       		.byte	0x8
 2338 0760 EA02     		.2byte	0x2ea
 2339 0762 EB000000 		.4byte	0xeb
 2340 0766 2C       		.byte	0x2c
 2341 0767 00       		.byte	0
 2342 0768 11       		.uleb128 0x11
 2343 0769 04       		.byte	0x4
ARM GAS  C:\Users\ikomb\AppData\Local\Temp\cc6TxH90.s 			page 74


 2344 076a 6E070000 		.4byte	0x76e
 2345 076e 12       		.uleb128 0x12
 2346 076f 11       		.uleb128 0x11
 2347 0770 04       		.byte	0x4
 2348 0771 00050000 		.4byte	0x500
 2349 0775 11       		.uleb128 0x11
 2350 0776 04       		.byte	0x4
 2351 0777 EB000000 		.4byte	0xeb
 2352 077b 11       		.uleb128 0x11
 2353 077c 04       		.byte	0x4
 2354 077d A2010000 		.4byte	0x1a2
 2355 0781 05       		.uleb128 0x5
 2356 0782 A4070000 		.4byte	.LASF108
 2357 0786 08       		.byte	0x8
 2358 0787 EB02     		.2byte	0x2eb
 2359 0789 8E060000 		.4byte	0x68e
 2360 078d 0E       		.uleb128 0xe
 2361 078e 90       		.byte	0x90
 2362 078f 08       		.byte	0x8
 2363 0790 F102     		.2byte	0x2f1
 2364 0792 A4070000 		.4byte	0x7a4
 2365 0796 0D       		.uleb128 0xd
 2366 0797 570A0000 		.4byte	.LASF109
 2367 079b 08       		.byte	0x8
 2368 079c F602     		.2byte	0x2f6
 2369 079e A4070000 		.4byte	0x7a4
 2370 07a2 00       		.byte	0
 2371 07a3 00       		.byte	0
 2372 07a4 0B       		.uleb128 0xb
 2373 07a5 81070000 		.4byte	0x781
 2374 07a9 B4070000 		.4byte	0x7b4
 2375 07ad 0C       		.uleb128 0xc
 2376 07ae C3000000 		.4byte	0xc3
 2377 07b2 02       		.byte	0x2
 2378 07b3 00       		.byte	0
 2379 07b4 05       		.uleb128 0x5
 2380 07b5 F9090000 		.4byte	.LASF110
 2381 07b9 08       		.byte	0x8
 2382 07ba F702     		.2byte	0x2f7
 2383 07bc 8D070000 		.4byte	0x78d
 2384 07c0 0E       		.uleb128 0xe
 2385 07c1 0A       		.byte	0xa
 2386 07c2 08       		.byte	0x8
 2387 07c3 2C03     		.2byte	0x32c
 2388 07c5 E4070000 		.4byte	0x7e4
 2389 07c9 0D       		.uleb128 0xd
 2390 07ca FA030000 		.4byte	.LASF111
 2391 07ce 08       		.byte	0x8
 2392 07cf 3203     		.2byte	0x332
 2393 07d1 E4070000 		.4byte	0x7e4
 2394 07d5 00       		.byte	0
 2395 07d6 0D       		.uleb128 0xd
 2396 07d7 DD050000 		.4byte	.LASF112
 2397 07db 08       		.byte	0x8
 2398 07dc 3703     		.2byte	0x337
 2399 07de F4070000 		.4byte	0x7f4
 2400 07e2 04       		.byte	0x4
ARM GAS  C:\Users\ikomb\AppData\Local\Temp\cc6TxH90.s 			page 75


 2401 07e3 00       		.byte	0
 2402 07e4 0B       		.uleb128 0xb
 2403 07e5 F7000000 		.4byte	0xf7
 2404 07e9 F4070000 		.4byte	0x7f4
 2405 07ed 0C       		.uleb128 0xc
 2406 07ee C3000000 		.4byte	0xc3
 2407 07f2 01       		.byte	0x1
 2408 07f3 00       		.byte	0
 2409 07f4 0B       		.uleb128 0xb
 2410 07f5 F7000000 		.4byte	0xf7
 2411 07f9 04080000 		.4byte	0x804
 2412 07fd 0C       		.uleb128 0xc
 2413 07fe C3000000 		.4byte	0xc3
 2414 0802 02       		.byte	0x2
 2415 0803 00       		.byte	0
 2416 0804 05       		.uleb128 0x5
 2417 0805 FD040000 		.4byte	.LASF113
 2418 0809 08       		.byte	0x8
 2419 080a 3803     		.2byte	0x338
 2420 080c C0070000 		.4byte	0x7c0
 2421 0810 0E       		.uleb128 0xe
 2422 0811 0A       		.byte	0xa
 2423 0812 08       		.byte	0x8
 2424 0813 3D03     		.2byte	0x33d
 2425 0815 27080000 		.4byte	0x827
 2426 0819 0D       		.uleb128 0xd
 2427 081a 23070000 		.4byte	.LASF114
 2428 081e 08       		.byte	0x8
 2429 081f 4203     		.2byte	0x342
 2430 0821 27080000 		.4byte	0x827
 2431 0825 00       		.byte	0
 2432 0826 00       		.byte	0
 2433 0827 0B       		.uleb128 0xb
 2434 0828 04080000 		.4byte	0x804
 2435 082c 37080000 		.4byte	0x837
 2436 0830 0C       		.uleb128 0xc
 2437 0831 C3000000 		.4byte	0xc3
 2438 0835 00       		.byte	0
 2439 0836 00       		.byte	0
 2440 0837 05       		.uleb128 0x5
 2441 0838 C5020000 		.4byte	.LASF115
 2442 083c 08       		.byte	0x8
 2443 083d 4303     		.2byte	0x343
 2444 083f 10080000 		.4byte	0x810
 2445 0843 13       		.uleb128 0x13
 2446 0844 04       		.byte	0x4
 2447 0845 08       		.byte	0x8
 2448 0846 4803     		.2byte	0x348
 2449 0848 65080000 		.4byte	0x865
 2450 084c 14       		.uleb128 0x14
 2451 084d 70747200 		.ascii	"ptr\000"
 2452 0851 08       		.byte	0x8
 2453 0852 4D03     		.2byte	0x34d
 2454 0854 2D010000 		.4byte	0x12d
 2455 0858 15       		.uleb128 0x15
 2456 0859 520B0000 		.4byte	.LASF116
 2457 085d 08       		.byte	0x8
ARM GAS  C:\Users\ikomb\AppData\Local\Temp\cc6TxH90.s 			page 76


 2458 085e 5203     		.2byte	0x352
 2459 0860 65080000 		.4byte	0x865
 2460 0864 00       		.byte	0
 2461 0865 11       		.uleb128 0x11
 2462 0866 04       		.byte	0x4
 2463 0867 37080000 		.4byte	0x837
 2464 086b 05       		.uleb128 0x5
 2465 086c 08080000 		.4byte	.LASF117
 2466 0870 08       		.byte	0x8
 2467 0871 5303     		.2byte	0x353
 2468 0873 43080000 		.4byte	0x843
 2469 0877 0E       		.uleb128 0xe
 2470 0878 02       		.byte	0x2
 2471 0879 08       		.byte	0x8
 2472 087a 5703     		.2byte	0x357
 2473 087c 8E080000 		.4byte	0x88e
 2474 0880 0D       		.uleb128 0xd
 2475 0881 52030000 		.4byte	.LASF118
 2476 0885 08       		.byte	0x8
 2477 0886 6703     		.2byte	0x367
 2478 0888 F7000000 		.4byte	0xf7
 2479 088c 00       		.byte	0
 2480 088d 00       		.byte	0
 2481 088e 05       		.uleb128 0x5
 2482 088f 2D0A0000 		.4byte	.LASF119
 2483 0893 08       		.byte	0x8
 2484 0894 7103     		.2byte	0x371
 2485 0896 77080000 		.4byte	0x877
 2486 089a 16       		.uleb128 0x16
 2487 089b 80070000 		.4byte	.LASF158
 2488 089f 01       		.byte	0x1
 2489 08a0 3B01     		.2byte	0x13b
 2490 08a2 03       		.byte	0x3
 2491 08a3 D8080000 		.4byte	0x8d8
 2492 08a7 17       		.uleb128 0x17
 2493 08a8 9B030000 		.4byte	.LASF125
 2494 08ac 01       		.byte	0x1
 2495 08ad 3B01     		.2byte	0x13b
 2496 08af D8080000 		.4byte	0x8d8
 2497 08b3 18       		.uleb128 0x18
 2498 08b4 69647800 		.ascii	"idx\000"
 2499 08b8 01       		.byte	0x1
 2500 08b9 3D01     		.2byte	0x13d
 2501 08bb 03010000 		.4byte	0x103
 2502 08bf 19       		.uleb128 0x19
 2503 08c0 750A0000 		.4byte	.LASF120
 2504 08c4 01       		.byte	0x1
 2505 08c5 3E01     		.2byte	0x13e
 2506 08c7 E3080000 		.4byte	0x8e3
 2507 08cb 19       		.uleb128 0x19
 2508 08cc 770B0000 		.4byte	.LASF121
 2509 08d0 01       		.byte	0x1
 2510 08d1 4101     		.2byte	0x141
 2511 08d3 E9080000 		.4byte	0x8e9
 2512 08d7 00       		.byte	0
 2513 08d8 11       		.uleb128 0x11
 2514 08d9 04       		.byte	0x4
ARM GAS  C:\Users\ikomb\AppData\Local\Temp\cc6TxH90.s 			page 77


 2515 08da DE080000 		.4byte	0x8de
 2516 08de 1A       		.uleb128 0x1a
 2517 08df 81070000 		.4byte	0x781
 2518 08e3 11       		.uleb128 0x11
 2519 08e4 04       		.byte	0x4
 2520 08e5 4F040000 		.4byte	0x44f
 2521 08e9 11       		.uleb128 0x11
 2522 08ea 04       		.byte	0x4
 2523 08eb 8E080000 		.4byte	0x88e
 2524 08ef 1B       		.uleb128 0x1b
 2525 08f0 6B080000 		.4byte	.LASF126
 2526 08f4 01       		.byte	0x1
 2527 08f5 9101     		.2byte	0x191
 2528 08f7 00000000 		.4byte	.LFB37
 2529 08fb 9C000000 		.4byte	.LFE37-.LFB37
 2530 08ff 01       		.uleb128 0x1
 2531 0900 9C       		.byte	0x9c
 2532 0901 A2090000 		.4byte	0x9a2
 2533 0905 1C       		.uleb128 0x1c
 2534 0906 CE010000 		.4byte	.LASF122
 2535 090a 01       		.byte	0x1
 2536 090b 9301     		.2byte	0x193
 2537 090d 03010000 		.4byte	0x103
 2538 0911 00000000 		.4byte	.LLST0
 2539 0915 1C       		.uleb128 0x1c
 2540 0916 F2040000 		.4byte	.LASF123
 2541 091a 01       		.byte	0x1
 2542 091b 9401     		.2byte	0x194
 2543 091d 22020000 		.4byte	0x222
 2544 0921 4D000000 		.4byte	.LLST1
 2545 0925 1C       		.uleb128 0x1c
 2546 0926 DA040000 		.4byte	.LASF124
 2547 092a 01       		.byte	0x1
 2548 092b 9501     		.2byte	0x195
 2549 092d A2090000 		.4byte	0x9a2
 2550 0931 6B000000 		.4byte	.LLST2
 2551 0935 1C       		.uleb128 0x1c
 2552 0936 9B030000 		.4byte	.LASF125
 2553 093a 01       		.byte	0x1
 2554 093b 9601     		.2byte	0x196
 2555 093d D8080000 		.4byte	0x8d8
 2556 0941 7E000000 		.4byte	.LLST3
 2557 0945 1D       		.uleb128 0x1d
 2558 0946 9A080000 		.4byte	0x89a
 2559 094a 58000000 		.4byte	.LBB4
 2560 094e 2A000000 		.4byte	.LBE4-.LBB4
 2561 0952 01       		.byte	0x1
 2562 0953 DB01     		.2byte	0x1db
 2563 0955 98090000 		.4byte	0x998
 2564 0959 1E       		.uleb128 0x1e
 2565 095a A7080000 		.4byte	0x8a7
 2566 095e 91000000 		.4byte	.LLST4
 2567 0962 1F       		.uleb128 0x1f
 2568 0963 58000000 		.4byte	.LBB5
 2569 0967 2A000000 		.4byte	.LBE5-.LBB5
 2570 096b 20       		.uleb128 0x20
 2571 096c B3080000 		.4byte	0x8b3
ARM GAS  C:\Users\ikomb\AppData\Local\Temp\cc6TxH90.s 			page 78


 2572 0970 A4000000 		.4byte	.LLST5
 2573 0974 20       		.uleb128 0x20
 2574 0975 BF080000 		.4byte	0x8bf
 2575 0979 C3000000 		.4byte	.LLST6
 2576 097d 20       		.uleb128 0x20
 2577 097e CB080000 		.4byte	0x8cb
 2578 0982 D6000000 		.4byte	.LLST7
 2579 0986 21       		.uleb128 0x21
 2580 0987 7C000000 		.4byte	.LVL17
 2581 098b 09130000 		.4byte	0x1309
 2582 098f 22       		.uleb128 0x22
 2583 0990 01       		.uleb128 0x1
 2584 0991 51       		.byte	0x51
 2585 0992 02       		.uleb128 0x2
 2586 0993 09       		.byte	0x9
 2587 0994 FF       		.byte	0xff
 2588 0995 00       		.byte	0
 2589 0996 00       		.byte	0
 2590 0997 00       		.byte	0
 2591 0998 23       		.uleb128 0x23
 2592 0999 4C000000 		.4byte	.LVL8
 2593 099d 14130000 		.4byte	0x1314
 2594 09a1 00       		.byte	0
 2595 09a2 11       		.uleb128 0x11
 2596 09a3 04       		.byte	0x4
 2597 09a4 D6020000 		.4byte	0x2d6
 2598 09a8 1B       		.uleb128 0x1b
 2599 09a9 69000000 		.4byte	.LASF127
 2600 09ad 01       		.byte	0x1
 2601 09ae 4E04     		.2byte	0x44e
 2602 09b0 00000000 		.4byte	.LFB44
 2603 09b4 32000000 		.4byte	.LFE44-.LFB44
 2604 09b8 01       		.uleb128 0x1
 2605 09b9 9C       		.byte	0x9c
 2606 09ba 2C0A0000 		.4byte	0xa2c
 2607 09be 24       		.uleb128 0x24
 2608 09bf DA040000 		.4byte	.LASF124
 2609 09c3 01       		.byte	0x1
 2610 09c4 4E04     		.2byte	0x44e
 2611 09c6 A2090000 		.4byte	0x9a2
 2612 09ca F5000000 		.4byte	.LLST8
 2613 09ce 24       		.uleb128 0x24
 2614 09cf E80A0000 		.4byte	.LASF128
 2615 09d3 01       		.byte	0x1
 2616 09d4 4F04     		.2byte	0x44f
 2617 09d6 7B070000 		.4byte	0x77b
 2618 09da 21010000 		.4byte	.LLST9
 2619 09de 24       		.uleb128 0x24
 2620 09df 05040000 		.4byte	.LASF129
 2621 09e3 01       		.byte	0x1
 2622 09e4 5004     		.2byte	0x450
 2623 09e6 03010000 		.4byte	0x103
 2624 09ea 4D010000 		.4byte	.LLST10
 2625 09ee 25       		.uleb128 0x25
 2626 09ef 610A0000 		.4byte	.LASF130
 2627 09f3 01       		.byte	0x1
 2628 09f4 5204     		.2byte	0x452
ARM GAS  C:\Users\ikomb\AppData\Local\Temp\cc6TxH90.s 			page 79


 2629 09f6 E6010000 		.4byte	0x1e6
 2630 09fa 02       		.uleb128 0x2
 2631 09fb 91       		.byte	0x91
 2632 09fc 70       		.sleb128 -16
 2633 09fd 1C       		.uleb128 0x1c
 2634 09fe 96070000 		.4byte	.LASF131
 2635 0a02 01       		.byte	0x1
 2636 0a03 5304     		.2byte	0x453
 2637 0a05 2C0A0000 		.4byte	0xa2c
 2638 0a09 79010000 		.4byte	.LLST11
 2639 0a0d 21       		.uleb128 0x21
 2640 0a0e 16000000 		.4byte	.LVL30
 2641 0a12 1F130000 		.4byte	0x131f
 2642 0a16 22       		.uleb128 0x22
 2643 0a17 01       		.uleb128 0x1
 2644 0a18 50       		.byte	0x50
 2645 0a19 03       		.uleb128 0x3
 2646 0a1a F3       		.byte	0xf3
 2647 0a1b 01       		.uleb128 0x1
 2648 0a1c 51       		.byte	0x51
 2649 0a1d 22       		.uleb128 0x22
 2650 0a1e 01       		.uleb128 0x1
 2651 0a1f 51       		.byte	0x51
 2652 0a20 02       		.uleb128 0x2
 2653 0a21 7D       		.byte	0x7d
 2654 0a22 00       		.sleb128 0
 2655 0a23 22       		.uleb128 0x22
 2656 0a24 01       		.uleb128 0x1
 2657 0a25 53       		.byte	0x53
 2658 0a26 03       		.uleb128 0x3
 2659 0a27 F3       		.byte	0xf3
 2660 0a28 01       		.uleb128 0x1
 2661 0a29 52       		.byte	0x52
 2662 0a2a 00       		.byte	0
 2663 0a2b 00       		.byte	0
 2664 0a2c 11       		.uleb128 0x11
 2665 0a2d 04       		.byte	0x4
 2666 0a2e E6010000 		.4byte	0x1e6
 2667 0a32 1B       		.uleb128 0x1b
 2668 0a33 2F010000 		.4byte	.LASF132
 2669 0a37 01       		.byte	0x1
 2670 0a38 7704     		.2byte	0x477
 2671 0a3a 00000000 		.4byte	.LFB45
 2672 0a3e 16000000 		.4byte	.LFE45-.LFB45
 2673 0a42 01       		.uleb128 0x1
 2674 0a43 9C       		.byte	0x9c
 2675 0a44 770A0000 		.4byte	0xa77
 2676 0a48 24       		.uleb128 0x24
 2677 0a49 DA040000 		.4byte	.LASF124
 2678 0a4d 01       		.byte	0x1
 2679 0a4e 7804     		.2byte	0x478
 2680 0a50 A2090000 		.4byte	0x9a2
 2681 0a54 99010000 		.4byte	.LLST12
 2682 0a58 26       		.uleb128 0x26
 2683 0a59 25010000 		.4byte	.LASF133
 2684 0a5d 01       		.byte	0x1
 2685 0a5e 7904     		.2byte	0x479
ARM GAS  C:\Users\ikomb\AppData\Local\Temp\cc6TxH90.s 			page 80


 2686 0a60 6F070000 		.4byte	0x76f
 2687 0a64 01       		.uleb128 0x1
 2688 0a65 51       		.byte	0x51
 2689 0a66 1C       		.uleb128 0x1c
 2690 0a67 0F0A0000 		.4byte	.LASF134
 2691 0a6b 01       		.byte	0x1
 2692 0a6c 7B04     		.2byte	0x47b
 2693 0a6e 0F010000 		.4byte	0x10f
 2694 0a72 BA010000 		.4byte	.LLST13
 2695 0a76 00       		.byte	0
 2696 0a77 27       		.uleb128 0x27
 2697 0a78 C30A0000 		.4byte	.LASF139
 2698 0a7c 01       		.byte	0x1
 2699 0a7d 2A02     		.2byte	0x22a
 2700 0a7f 03010000 		.4byte	0x103
 2701 0a83 00000000 		.4byte	.LFB38
 2702 0a87 46000000 		.4byte	.LFE38-.LFB38
 2703 0a8b 01       		.uleb128 0x1
 2704 0a8c 9C       		.byte	0x9c
 2705 0a8d 5A0B0000 		.4byte	0xb5a
 2706 0a91 24       		.uleb128 0x24
 2707 0a92 9B030000 		.4byte	.LASF125
 2708 0a96 01       		.byte	0x1
 2709 0a97 2A02     		.2byte	0x22a
 2710 0a99 D8080000 		.4byte	0x8d8
 2711 0a9d E9010000 		.4byte	.LLST14
 2712 0aa1 1C       		.uleb128 0x1c
 2713 0aa2 94020000 		.4byte	.LASF135
 2714 0aa6 01       		.byte	0x1
 2715 0aa7 2C02     		.2byte	0x22c
 2716 0aa9 03010000 		.4byte	0x103
 2717 0aad 0A020000 		.4byte	.LLST15
 2718 0ab1 1C       		.uleb128 0x1c
 2719 0ab2 F2040000 		.4byte	.LASF123
 2720 0ab6 01       		.byte	0x1
 2721 0ab7 2D02     		.2byte	0x22d
 2722 0ab9 03010000 		.4byte	0x103
 2723 0abd 41020000 		.4byte	.LLST16
 2724 0ac1 1C       		.uleb128 0x1c
 2725 0ac2 49030000 		.4byte	.LASF136
 2726 0ac6 01       		.byte	0x1
 2727 0ac7 2E02     		.2byte	0x22e
 2728 0ac9 03010000 		.4byte	0x103
 2729 0acd 6C020000 		.4byte	.LLST17
 2730 0ad1 1C       		.uleb128 0x1c
 2731 0ad2 1A040000 		.4byte	.LASF137
 2732 0ad6 01       		.byte	0x1
 2733 0ad7 2F02     		.2byte	0x22f
 2734 0ad9 6F070000 		.4byte	0x76f
 2735 0add AD020000 		.4byte	.LLST18
 2736 0ae1 1C       		.uleb128 0x1c
 2737 0ae2 DA040000 		.4byte	.LASF124
 2738 0ae6 01       		.byte	0x1
 2739 0ae7 3002     		.2byte	0x230
 2740 0ae9 A2090000 		.4byte	0x9a2
 2741 0aed C0020000 		.4byte	.LLST19
 2742 0af1 1C       		.uleb128 0x1c
ARM GAS  C:\Users\ikomb\AppData\Local\Temp\cc6TxH90.s 			page 81


 2743 0af2 8C030000 		.4byte	.LASF138
 2744 0af6 01       		.byte	0x1
 2745 0af7 3302     		.2byte	0x233
 2746 0af9 6B080000 		.4byte	0x86b
 2747 0afd D3020000 		.4byte	.LLST20
 2748 0b01 28       		.uleb128 0x28
 2749 0b02 20000000 		.4byte	.LVL48
 2750 0b06 2A130000 		.4byte	0x132a
 2751 0b0a 220B0000 		.4byte	0xb22
 2752 0b0e 22       		.uleb128 0x22
 2753 0b0f 01       		.uleb128 0x1
 2754 0b10 50       		.byte	0x50
 2755 0b11 02       		.uleb128 0x2
 2756 0b12 77       		.byte	0x77
 2757 0b13 00       		.sleb128 0
 2758 0b14 22       		.uleb128 0x22
 2759 0b15 01       		.uleb128 0x1
 2760 0b16 51       		.byte	0x51
 2761 0b17 02       		.uleb128 0x2
 2762 0b18 74       		.byte	0x74
 2763 0b19 00       		.sleb128 0
 2764 0b1a 22       		.uleb128 0x22
 2765 0b1b 01       		.uleb128 0x1
 2766 0b1c 52       		.byte	0x52
 2767 0b1d 03       		.uleb128 0x3
 2768 0b1e 7D       		.byte	0x7d
 2769 0b1f 00       		.sleb128 0
 2770 0b20 06       		.byte	0x6
 2771 0b21 00       		.byte	0
 2772 0b22 28       		.uleb128 0x28
 2773 0b23 2A000000 		.4byte	.LVL49
 2774 0b27 35130000 		.4byte	0x1335
 2775 0b2b 430B0000 		.4byte	0xb43
 2776 0b2f 22       		.uleb128 0x22
 2777 0b30 01       		.uleb128 0x1
 2778 0b31 50       		.byte	0x50
 2779 0b32 02       		.uleb128 0x2
 2780 0b33 76       		.byte	0x76
 2781 0b34 00       		.sleb128 0
 2782 0b35 22       		.uleb128 0x22
 2783 0b36 01       		.uleb128 0x1
 2784 0b37 51       		.byte	0x51
 2785 0b38 02       		.uleb128 0x2
 2786 0b39 74       		.byte	0x74
 2787 0b3a 00       		.sleb128 0
 2788 0b3b 22       		.uleb128 0x22
 2789 0b3c 01       		.uleb128 0x1
 2790 0b3d 52       		.byte	0x52
 2791 0b3e 03       		.uleb128 0x3
 2792 0b3f 7D       		.byte	0x7d
 2793 0b40 00       		.sleb128 0
 2794 0b41 06       		.byte	0x6
 2795 0b42 00       		.byte	0
 2796 0b43 21       		.uleb128 0x21
 2797 0b44 34000000 		.4byte	.LVL52
 2798 0b48 320A0000 		.4byte	0xa32
 2799 0b4c 22       		.uleb128 0x22
ARM GAS  C:\Users\ikomb\AppData\Local\Temp\cc6TxH90.s 			page 82


 2800 0b4d 01       		.uleb128 0x1
 2801 0b4e 50       		.byte	0x50
 2802 0b4f 02       		.uleb128 0x2
 2803 0b50 76       		.byte	0x76
 2804 0b51 00       		.sleb128 0
 2805 0b52 22       		.uleb128 0x22
 2806 0b53 01       		.uleb128 0x1
 2807 0b54 51       		.byte	0x51
 2808 0b55 02       		.uleb128 0x2
 2809 0b56 74       		.byte	0x74
 2810 0b57 00       		.sleb128 0
 2811 0b58 00       		.byte	0
 2812 0b59 00       		.byte	0
 2813 0b5a 27       		.uleb128 0x27
 2814 0b5b 24080000 		.4byte	.LASF140
 2815 0b5f 01       		.byte	0x1
 2816 0b60 8202     		.2byte	0x282
 2817 0b62 03010000 		.4byte	0x103
 2818 0b66 00000000 		.4byte	.LFB39
 2819 0b6a 40000000 		.4byte	.LFE39-.LFB39
 2820 0b6e 01       		.uleb128 0x1
 2821 0b6f 9C       		.byte	0x9c
 2822 0b70 3C0C0000 		.4byte	0xc3c
 2823 0b74 24       		.uleb128 0x24
 2824 0b75 9B030000 		.4byte	.LASF125
 2825 0b79 01       		.byte	0x1
 2826 0b7a 8302     		.2byte	0x283
 2827 0b7c D8080000 		.4byte	0x8d8
 2828 0b80 E6020000 		.4byte	.LLST21
 2829 0b84 24       		.uleb128 0x24
 2830 0b85 25010000 		.4byte	.LASF133
 2831 0b89 01       		.byte	0x1
 2832 0b8a 8402     		.2byte	0x284
 2833 0b8c 6F070000 		.4byte	0x76f
 2834 0b90 07030000 		.4byte	.LLST22
 2835 0b94 24       		.uleb128 0x24
 2836 0b95 8C030000 		.4byte	.LASF138
 2837 0b99 01       		.byte	0x1
 2838 0b9a 8502     		.2byte	0x285
 2839 0b9c 6B080000 		.4byte	0x86b
 2840 0ba0 33030000 		.4byte	.LLST23
 2841 0ba4 24       		.uleb128 0x24
 2842 0ba5 32090000 		.4byte	.LASF141
 2843 0ba9 01       		.byte	0x1
 2844 0baa 8602     		.2byte	0x286
 2845 0bac 03010000 		.4byte	0x103
 2846 0bb0 67030000 		.4byte	.LLST24
 2847 0bb4 1C       		.uleb128 0x1c
 2848 0bb5 94020000 		.4byte	.LASF135
 2849 0bb9 01       		.byte	0x1
 2850 0bba 8802     		.2byte	0x288
 2851 0bbc 03010000 		.4byte	0x103
 2852 0bc0 93030000 		.4byte	.LLST25
 2853 0bc4 1C       		.uleb128 0x1c
 2854 0bc5 F2040000 		.4byte	.LASF123
 2855 0bc9 01       		.byte	0x1
 2856 0bca 8902     		.2byte	0x289
ARM GAS  C:\Users\ikomb\AppData\Local\Temp\cc6TxH90.s 			page 83


 2857 0bcc 03010000 		.4byte	0x103
 2858 0bd0 D4030000 		.4byte	.LLST26
 2859 0bd4 1C       		.uleb128 0x1c
 2860 0bd5 DA040000 		.4byte	.LASF124
 2861 0bd9 01       		.byte	0x1
 2862 0bda 8A02     		.2byte	0x28a
 2863 0bdc A2090000 		.4byte	0x9a2
 2864 0be0 F2030000 		.4byte	.LLST27
 2865 0be4 28       		.uleb128 0x28
 2866 0be5 1A000000 		.4byte	.LVL68
 2867 0be9 2A130000 		.4byte	0x132a
 2868 0bed 050C0000 		.4byte	0xc05
 2869 0bf1 22       		.uleb128 0x22
 2870 0bf2 01       		.uleb128 0x1
 2871 0bf3 50       		.byte	0x50
 2872 0bf4 03       		.uleb128 0x3
 2873 0bf5 91       		.byte	0x91
 2874 0bf6 64       		.sleb128 -28
 2875 0bf7 06       		.byte	0x6
 2876 0bf8 22       		.uleb128 0x22
 2877 0bf9 01       		.uleb128 0x1
 2878 0bfa 51       		.byte	0x51
 2879 0bfb 02       		.uleb128 0x2
 2880 0bfc 76       		.byte	0x76
 2881 0bfd 00       		.sleb128 0
 2882 0bfe 22       		.uleb128 0x22
 2883 0bff 01       		.uleb128 0x1
 2884 0c00 52       		.byte	0x52
 2885 0c01 02       		.uleb128 0x2
 2886 0c02 75       		.byte	0x75
 2887 0c03 00       		.sleb128 0
 2888 0c04 00       		.byte	0
 2889 0c05 28       		.uleb128 0x28
 2890 0c06 28000000 		.4byte	.LVL70
 2891 0c0a 35130000 		.4byte	0x1335
 2892 0c0e 250C0000 		.4byte	0xc25
 2893 0c12 22       		.uleb128 0x22
 2894 0c13 01       		.uleb128 0x1
 2895 0c14 50       		.byte	0x50
 2896 0c15 02       		.uleb128 0x2
 2897 0c16 77       		.byte	0x77
 2898 0c17 00       		.sleb128 0
 2899 0c18 22       		.uleb128 0x22
 2900 0c19 01       		.uleb128 0x1
 2901 0c1a 51       		.byte	0x51
 2902 0c1b 02       		.uleb128 0x2
 2903 0c1c 76       		.byte	0x76
 2904 0c1d 00       		.sleb128 0
 2905 0c1e 22       		.uleb128 0x22
 2906 0c1f 01       		.uleb128 0x1
 2907 0c20 52       		.byte	0x52
 2908 0c21 02       		.uleb128 0x2
 2909 0c22 75       		.byte	0x75
 2910 0c23 00       		.sleb128 0
 2911 0c24 00       		.byte	0
 2912 0c25 21       		.uleb128 0x21
 2913 0c26 3A000000 		.4byte	.LVL74
ARM GAS  C:\Users\ikomb\AppData\Local\Temp\cc6TxH90.s 			page 84


 2914 0c2a 320A0000 		.4byte	0xa32
 2915 0c2e 22       		.uleb128 0x22
 2916 0c2f 01       		.uleb128 0x1
 2917 0c30 50       		.byte	0x50
 2918 0c31 02       		.uleb128 0x2
 2919 0c32 77       		.byte	0x77
 2920 0c33 00       		.sleb128 0
 2921 0c34 22       		.uleb128 0x22
 2922 0c35 01       		.uleb128 0x1
 2923 0c36 51       		.byte	0x51
 2924 0c37 02       		.uleb128 0x2
 2925 0c38 76       		.byte	0x76
 2926 0c39 00       		.sleb128 0
 2927 0c3a 00       		.byte	0
 2928 0c3b 00       		.byte	0
 2929 0c3c 27       		.uleb128 0x27
 2930 0c3d F4050000 		.4byte	.LASF142
 2931 0c41 01       		.byte	0x1
 2932 0c42 1103     		.2byte	0x311
 2933 0c44 03010000 		.4byte	0x103
 2934 0c48 00000000 		.4byte	.LFB41
 2935 0c4c 90000000 		.4byte	.LFE41-.LFB41
 2936 0c50 01       		.uleb128 0x1
 2937 0c51 9C       		.byte	0x9c
 2938 0c52 730D0000 		.4byte	0xd73
 2939 0c56 24       		.uleb128 0x24
 2940 0c57 9B030000 		.4byte	.LASF125
 2941 0c5b 01       		.byte	0x1
 2942 0c5c 1103     		.2byte	0x311
 2943 0c5e D8080000 		.4byte	0x8d8
 2944 0c62 05040000 		.4byte	.LLST28
 2945 0c66 1C       		.uleb128 0x1c
 2946 0c67 94020000 		.4byte	.LASF135
 2947 0c6b 01       		.byte	0x1
 2948 0c6c 1303     		.2byte	0x313
 2949 0c6e 03010000 		.4byte	0x103
 2950 0c72 31040000 		.4byte	.LLST29
 2951 0c76 1C       		.uleb128 0x1c
 2952 0c77 F2040000 		.4byte	.LASF123
 2953 0c7b 01       		.byte	0x1
 2954 0c7c 1903     		.2byte	0x319
 2955 0c7e 03010000 		.4byte	0x103
 2956 0c82 68040000 		.4byte	.LLST30
 2957 0c86 1C       		.uleb128 0x1c
 2958 0c87 38030000 		.4byte	.LASF143
 2959 0c8b 01       		.byte	0x1
 2960 0c8c 1A03     		.2byte	0x31a
 2961 0c8e 03010000 		.4byte	0x103
 2962 0c92 88040000 		.4byte	.LLST31
 2963 0c96 1C       		.uleb128 0x1c
 2964 0c97 1A040000 		.4byte	.LASF137
 2965 0c9b 01       		.byte	0x1
 2966 0c9c 1B03     		.2byte	0x31b
 2967 0c9e 6F070000 		.4byte	0x76f
 2968 0ca2 A7040000 		.4byte	.LLST32
 2969 0ca6 1C       		.uleb128 0x1c
 2970 0ca7 DA040000 		.4byte	.LASF124
ARM GAS  C:\Users\ikomb\AppData\Local\Temp\cc6TxH90.s 			page 85


 2971 0cab 01       		.byte	0x1
 2972 0cac 1C03     		.2byte	0x31c
 2973 0cae A2090000 		.4byte	0x9a2
 2974 0cb2 BA040000 		.4byte	.LLST33
 2975 0cb6 1C       		.uleb128 0x1c
 2976 0cb7 E80A0000 		.4byte	.LASF128
 2977 0cbb 01       		.byte	0x1
 2978 0cbc 2003     		.2byte	0x320
 2979 0cbe 7B070000 		.4byte	0x77b
 2980 0cc2 CD040000 		.4byte	.LLST34
 2981 0cc6 1C       		.uleb128 0x1c
 2982 0cc7 8C030000 		.4byte	.LASF138
 2983 0ccb 01       		.byte	0x1
 2984 0ccc 2703     		.2byte	0x327
 2985 0cce 6B080000 		.4byte	0x86b
 2986 0cd2 E0040000 		.4byte	.LLST35
 2987 0cd6 1C       		.uleb128 0x1c
 2988 0cd7 96060000 		.4byte	.LASF144
 2989 0cdb 01       		.byte	0x1
 2990 0cdc 2A03     		.2byte	0x32a
 2991 0cde 03010000 		.4byte	0x103
 2992 0ce2 FE040000 		.4byte	.LLST36
 2993 0ce6 28       		.uleb128 0x28
 2994 0ce7 40000000 		.4byte	.LVL89
 2995 0ceb 2A130000 		.4byte	0x132a
 2996 0cef 070D0000 		.4byte	0xd07
 2997 0cf3 22       		.uleb128 0x22
 2998 0cf4 01       		.uleb128 0x1
 2999 0cf5 50       		.byte	0x50
 3000 0cf6 02       		.uleb128 0x2
 3001 0cf7 79       		.byte	0x79
 3002 0cf8 00       		.sleb128 0
 3003 0cf9 22       		.uleb128 0x22
 3004 0cfa 01       		.uleb128 0x1
 3005 0cfb 51       		.byte	0x51
 3006 0cfc 02       		.uleb128 0x2
 3007 0cfd 74       		.byte	0x74
 3008 0cfe 00       		.sleb128 0
 3009 0cff 22       		.uleb128 0x22
 3010 0d00 01       		.uleb128 0x1
 3011 0d01 52       		.byte	0x52
 3012 0d02 03       		.uleb128 0x3
 3013 0d03 7D       		.byte	0x7d
 3014 0d04 00       		.sleb128 0
 3015 0d05 06       		.byte	0x6
 3016 0d06 00       		.byte	0
 3017 0d07 28       		.uleb128 0x28
 3018 0d08 4A000000 		.4byte	.LVL90
 3019 0d0c 40130000 		.4byte	0x1340
 3020 0d10 1B0D0000 		.4byte	0xd1b
 3021 0d14 22       		.uleb128 0x22
 3022 0d15 01       		.uleb128 0x1
 3023 0d16 52       		.byte	0x52
 3024 0d17 02       		.uleb128 0x2
 3025 0d18 77       		.byte	0x77
 3026 0d19 00       		.sleb128 0
 3027 0d1a 00       		.byte	0
ARM GAS  C:\Users\ikomb\AppData\Local\Temp\cc6TxH90.s 			page 86


 3028 0d1b 28       		.uleb128 0x28
 3029 0d1c 54000000 		.4byte	.LVL91
 3030 0d20 A8090000 		.4byte	0x9a8
 3031 0d24 3B0D0000 		.4byte	0xd3b
 3032 0d28 22       		.uleb128 0x22
 3033 0d29 01       		.uleb128 0x1
 3034 0d2a 50       		.byte	0x50
 3035 0d2b 02       		.uleb128 0x2
 3036 0d2c 76       		.byte	0x76
 3037 0d2d 00       		.sleb128 0
 3038 0d2e 22       		.uleb128 0x22
 3039 0d2f 01       		.uleb128 0x1
 3040 0d30 51       		.byte	0x51
 3041 0d31 02       		.uleb128 0x2
 3042 0d32 77       		.byte	0x77
 3043 0d33 00       		.sleb128 0
 3044 0d34 22       		.uleb128 0x22
 3045 0d35 01       		.uleb128 0x1
 3046 0d36 52       		.byte	0x52
 3047 0d37 02       		.uleb128 0x2
 3048 0d38 75       		.byte	0x75
 3049 0d39 00       		.sleb128 0
 3050 0d3a 00       		.byte	0
 3051 0d3b 28       		.uleb128 0x28
 3052 0d3c 60000000 		.4byte	.LVL93
 3053 0d40 35130000 		.4byte	0x1335
 3054 0d44 5C0D0000 		.4byte	0xd5c
 3055 0d48 22       		.uleb128 0x22
 3056 0d49 01       		.uleb128 0x1
 3057 0d4a 50       		.byte	0x50
 3058 0d4b 02       		.uleb128 0x2
 3059 0d4c 76       		.byte	0x76
 3060 0d4d 00       		.sleb128 0
 3061 0d4e 22       		.uleb128 0x22
 3062 0d4f 01       		.uleb128 0x1
 3063 0d50 51       		.byte	0x51
 3064 0d51 02       		.uleb128 0x2
 3065 0d52 74       		.byte	0x74
 3066 0d53 00       		.sleb128 0
 3067 0d54 22       		.uleb128 0x22
 3068 0d55 01       		.uleb128 0x1
 3069 0d56 52       		.byte	0x52
 3070 0d57 03       		.uleb128 0x3
 3071 0d58 7D       		.byte	0x7d
 3072 0d59 00       		.sleb128 0
 3073 0d5a 06       		.byte	0x6
 3074 0d5b 00       		.byte	0
 3075 0d5c 21       		.uleb128 0x21
 3076 0d5d 6A000000 		.4byte	.LVL96
 3077 0d61 320A0000 		.4byte	0xa32
 3078 0d65 22       		.uleb128 0x22
 3079 0d66 01       		.uleb128 0x1
 3080 0d67 50       		.byte	0x50
 3081 0d68 02       		.uleb128 0x2
 3082 0d69 76       		.byte	0x76
 3083 0d6a 00       		.sleb128 0
 3084 0d6b 22       		.uleb128 0x22
ARM GAS  C:\Users\ikomb\AppData\Local\Temp\cc6TxH90.s 			page 87


 3085 0d6c 01       		.uleb128 0x1
 3086 0d6d 51       		.byte	0x51
 3087 0d6e 02       		.uleb128 0x2
 3088 0d6f 74       		.byte	0x74
 3089 0d70 00       		.sleb128 0
 3090 0d71 00       		.byte	0
 3091 0d72 00       		.byte	0
 3092 0d73 27       		.uleb128 0x27
 3093 0d74 820B0000 		.4byte	.LASF145
 3094 0d78 01       		.byte	0x1
 3095 0d79 9303     		.2byte	0x393
 3096 0d7b 03010000 		.4byte	0x103
 3097 0d7f 00000000 		.4byte	.LFB42
 3098 0d83 60000000 		.4byte	.LFE42-.LFB42
 3099 0d87 01       		.uleb128 0x1
 3100 0d88 9C       		.byte	0x9c
 3101 0d89 9B0E0000 		.4byte	0xe9b
 3102 0d8d 24       		.uleb128 0x24
 3103 0d8e 9B030000 		.4byte	.LASF125
 3104 0d92 01       		.byte	0x1
 3105 0d93 9403     		.2byte	0x394
 3106 0d95 D8080000 		.4byte	0x8d8
 3107 0d99 27050000 		.4byte	.LLST37
 3108 0d9d 24       		.uleb128 0x24
 3109 0d9e 25010000 		.4byte	.LASF133
 3110 0da2 01       		.byte	0x1
 3111 0da3 9503     		.2byte	0x395
 3112 0da5 6F070000 		.4byte	0x76f
 3113 0da9 48050000 		.4byte	.LLST38
 3114 0dad 24       		.uleb128 0x24
 3115 0dae 8C030000 		.4byte	.LASF138
 3116 0db2 01       		.byte	0x1
 3117 0db3 9603     		.2byte	0x396
 3118 0db5 6B080000 		.4byte	0x86b
 3119 0db9 73050000 		.4byte	.LLST39
 3120 0dbd 24       		.uleb128 0x24
 3121 0dbe 32090000 		.4byte	.LASF141
 3122 0dc2 01       		.byte	0x1
 3123 0dc3 9703     		.2byte	0x397
 3124 0dc5 03010000 		.4byte	0x103
 3125 0dc9 BD050000 		.4byte	.LLST40
 3126 0dcd 1C       		.uleb128 0x1c
 3127 0dce 94020000 		.4byte	.LASF135
 3128 0dd2 01       		.byte	0x1
 3129 0dd3 9903     		.2byte	0x399
 3130 0dd5 03010000 		.4byte	0x103
 3131 0dd9 E9050000 		.4byte	.LLST41
 3132 0ddd 1C       		.uleb128 0x1c
 3133 0dde F2040000 		.4byte	.LASF123
 3134 0de2 01       		.byte	0x1
 3135 0de3 9A03     		.2byte	0x39a
 3136 0de5 03010000 		.4byte	0x103
 3137 0de9 2A060000 		.4byte	.LLST42
 3138 0ded 1C       		.uleb128 0x1c
 3139 0dee DA040000 		.4byte	.LASF124
 3140 0df2 01       		.byte	0x1
 3141 0df3 9B03     		.2byte	0x39b
ARM GAS  C:\Users\ikomb\AppData\Local\Temp\cc6TxH90.s 			page 88


 3142 0df5 A2090000 		.4byte	0x9a2
 3143 0df9 48060000 		.4byte	.LLST43
 3144 0dfd 1C       		.uleb128 0x1c
 3145 0dfe E80A0000 		.4byte	.LASF128
 3146 0e02 01       		.byte	0x1
 3147 0e03 9E03     		.2byte	0x39e
 3148 0e05 7B070000 		.4byte	0x77b
 3149 0e09 5B060000 		.4byte	.LLST44
 3150 0e0d 28       		.uleb128 0x28
 3151 0e0e 1C000000 		.4byte	.LVL118
 3152 0e12 2A130000 		.4byte	0x132a
 3153 0e16 2F0E0000 		.4byte	0xe2f
 3154 0e1a 22       		.uleb128 0x22
 3155 0e1b 01       		.uleb128 0x1
 3156 0e1c 50       		.byte	0x50
 3157 0e1d 03       		.uleb128 0x3
 3158 0e1e 91       		.byte	0x91
 3159 0e1f 64       		.sleb128 -28
 3160 0e20 06       		.byte	0x6
 3161 0e21 22       		.uleb128 0x22
 3162 0e22 01       		.uleb128 0x1
 3163 0e23 51       		.byte	0x51
 3164 0e24 03       		.uleb128 0x3
 3165 0e25 7D       		.byte	0x7d
 3166 0e26 00       		.sleb128 0
 3167 0e27 06       		.byte	0x6
 3168 0e28 22       		.uleb128 0x22
 3169 0e29 01       		.uleb128 0x1
 3170 0e2a 52       		.byte	0x52
 3171 0e2b 02       		.uleb128 0x2
 3172 0e2c 77       		.byte	0x77
 3173 0e2d 00       		.sleb128 0
 3174 0e2e 00       		.byte	0
 3175 0e2f 28       		.uleb128 0x28
 3176 0e30 2C000000 		.4byte	.LVL120
 3177 0e34 40130000 		.4byte	0x1340
 3178 0e38 430E0000 		.4byte	0xe43
 3179 0e3c 22       		.uleb128 0x22
 3180 0e3d 01       		.uleb128 0x1
 3181 0e3e 52       		.byte	0x52
 3182 0e3f 02       		.uleb128 0x2
 3183 0e40 76       		.byte	0x76
 3184 0e41 00       		.sleb128 0
 3185 0e42 00       		.byte	0
 3186 0e43 28       		.uleb128 0x28
 3187 0e44 3A000000 		.4byte	.LVL122
 3188 0e48 A8090000 		.4byte	0x9a8
 3189 0e4c 620E0000 		.4byte	0xe62
 3190 0e50 22       		.uleb128 0x22
 3191 0e51 01       		.uleb128 0x1
 3192 0e52 50       		.byte	0x50
 3193 0e53 02       		.uleb128 0x2
 3194 0e54 75       		.byte	0x75
 3195 0e55 00       		.sleb128 0
 3196 0e56 22       		.uleb128 0x22
 3197 0e57 01       		.uleb128 0x1
 3198 0e58 51       		.byte	0x51
ARM GAS  C:\Users\ikomb\AppData\Local\Temp\cc6TxH90.s 			page 89


 3199 0e59 02       		.uleb128 0x2
 3200 0e5a 76       		.byte	0x76
 3201 0e5b 00       		.sleb128 0
 3202 0e5c 22       		.uleb128 0x22
 3203 0e5d 01       		.uleb128 0x1
 3204 0e5e 52       		.byte	0x52
 3205 0e5f 01       		.uleb128 0x1
 3206 0e60 30       		.byte	0x30
 3207 0e61 00       		.byte	0
 3208 0e62 28       		.uleb128 0x28
 3209 0e63 48000000 		.4byte	.LVL124
 3210 0e67 35130000 		.4byte	0x1335
 3211 0e6b 830E0000 		.4byte	0xe83
 3212 0e6f 22       		.uleb128 0x22
 3213 0e70 01       		.uleb128 0x1
 3214 0e71 50       		.byte	0x50
 3215 0e72 02       		.uleb128 0x2
 3216 0e73 75       		.byte	0x75
 3217 0e74 00       		.sleb128 0
 3218 0e75 22       		.uleb128 0x22
 3219 0e76 01       		.uleb128 0x1
 3220 0e77 51       		.byte	0x51
 3221 0e78 03       		.uleb128 0x3
 3222 0e79 7D       		.byte	0x7d
 3223 0e7a 00       		.sleb128 0
 3224 0e7b 06       		.byte	0x6
 3225 0e7c 22       		.uleb128 0x22
 3226 0e7d 01       		.uleb128 0x1
 3227 0e7e 52       		.byte	0x52
 3228 0e7f 02       		.uleb128 0x2
 3229 0e80 77       		.byte	0x77
 3230 0e81 00       		.sleb128 0
 3231 0e82 00       		.byte	0
 3232 0e83 21       		.uleb128 0x21
 3233 0e84 5A000000 		.4byte	.LVL128
 3234 0e88 320A0000 		.4byte	0xa32
 3235 0e8c 22       		.uleb128 0x22
 3236 0e8d 01       		.uleb128 0x1
 3237 0e8e 50       		.byte	0x50
 3238 0e8f 02       		.uleb128 0x2
 3239 0e90 75       		.byte	0x75
 3240 0e91 00       		.sleb128 0
 3241 0e92 22       		.uleb128 0x22
 3242 0e93 01       		.uleb128 0x1
 3243 0e94 51       		.byte	0x51
 3244 0e95 03       		.uleb128 0x3
 3245 0e96 7D       		.byte	0x7d
 3246 0e97 00       		.sleb128 0
 3247 0e98 06       		.byte	0x6
 3248 0e99 00       		.byte	0
 3249 0e9a 00       		.byte	0
 3250 0e9b 27       		.uleb128 0x27
 3251 0e9c 9F050000 		.4byte	.LASF146
 3252 0ea0 01       		.byte	0x1
 3253 0ea1 C104     		.2byte	0x4c1
 3254 0ea3 03010000 		.4byte	0x103
 3255 0ea7 00000000 		.4byte	.LFB46
ARM GAS  C:\Users\ikomb\AppData\Local\Temp\cc6TxH90.s 			page 90


 3256 0eab 64000000 		.4byte	.LFE46-.LFB46
 3257 0eaf 01       		.uleb128 0x1
 3258 0eb0 9C       		.byte	0x9c
 3259 0eb1 440F0000 		.4byte	0xf44
 3260 0eb5 24       		.uleb128 0x24
 3261 0eb6 11000000 		.4byte	.LASF147
 3262 0eba 01       		.byte	0x1
 3263 0ebb C104     		.2byte	0x4c1
 3264 0ebd 03010000 		.4byte	0x103
 3265 0ec1 6E060000 		.4byte	.LLST45
 3266 0ec5 24       		.uleb128 0x24
 3267 0ec6 9B030000 		.4byte	.LASF125
 3268 0eca 01       		.byte	0x1
 3269 0ecb C104     		.2byte	0x4c1
 3270 0ecd D8080000 		.4byte	0x8d8
 3271 0ed1 8C060000 		.4byte	.LLST46
 3272 0ed5 1C       		.uleb128 0x1c
 3273 0ed6 99000000 		.4byte	.LASF148
 3274 0eda 01       		.byte	0x1
 3275 0edb C304     		.2byte	0x4c3
 3276 0edd 03010000 		.4byte	0x103
 3277 0ee1 AD060000 		.4byte	.LLST47
 3278 0ee5 1C       		.uleb128 0x1c
 3279 0ee6 1C000000 		.4byte	.LASF149
 3280 0eea 01       		.byte	0x1
 3281 0eeb C404     		.2byte	0x4c4
 3282 0eed 03010000 		.4byte	0x103
 3283 0ef1 F7060000 		.4byte	.LLST48
 3284 0ef5 1C       		.uleb128 0x1c
 3285 0ef6 AA0A0000 		.4byte	.LASF150
 3286 0efa 01       		.byte	0x1
 3287 0efb C504     		.2byte	0x4c5
 3288 0efd 03010000 		.4byte	0x103
 3289 0f01 16070000 		.4byte	.LLST49
 3290 0f05 1C       		.uleb128 0x1c
 3291 0f06 E1090000 		.4byte	.LASF151
 3292 0f0a 01       		.byte	0x1
 3293 0f0b C604     		.2byte	0x4c6
 3294 0f0d 03010000 		.4byte	0x103
 3295 0f11 34070000 		.4byte	.LLST50
 3296 0f15 1C       		.uleb128 0x1c
 3297 0f16 1A040000 		.4byte	.LASF137
 3298 0f1a 01       		.byte	0x1
 3299 0f1b C704     		.2byte	0x4c7
 3300 0f1d 6F070000 		.4byte	0x76f
 3301 0f21 52070000 		.4byte	.LLST51
 3302 0f25 1C       		.uleb128 0x1c
 3303 0f26 DA040000 		.4byte	.LASF124
 3304 0f2a 01       		.byte	0x1
 3305 0f2b C804     		.2byte	0x4c8
 3306 0f2d A2090000 		.4byte	0x9a2
 3307 0f31 65070000 		.4byte	.LLST52
 3308 0f35 25       		.uleb128 0x25
 3309 0f36 BD070000 		.4byte	.LASF152
 3310 0f3a 01       		.byte	0x1
 3311 0f3b C904     		.2byte	0x4c9
 3312 0f3d 75070000 		.4byte	0x775
ARM GAS  C:\Users\ikomb\AppData\Local\Temp\cc6TxH90.s 			page 91


 3313 0f41 01       		.uleb128 0x1
 3314 0f42 53       		.byte	0x53
 3315 0f43 00       		.byte	0
 3316 0f44 1B       		.uleb128 0x1b
 3317 0f45 01070000 		.4byte	.LASF153
 3318 0f49 01       		.byte	0x1
 3319 0f4a C102     		.2byte	0x2c1
 3320 0f4c 00000000 		.4byte	.LFB40
 3321 0f50 60000000 		.4byte	.LFE40-.LFB40
 3322 0f54 01       		.uleb128 0x1
 3323 0f55 9C       		.byte	0x9c
 3324 0f56 F00F0000 		.4byte	0xff0
 3325 0f5a 24       		.uleb128 0x24
 3326 0f5b 95040000 		.4byte	.LASF154
 3327 0f5f 01       		.byte	0x1
 3328 0f60 C102     		.2byte	0x2c1
 3329 0f62 03010000 		.4byte	0x103
 3330 0f66 78070000 		.4byte	.LLST53
 3331 0f6a 24       		.uleb128 0x24
 3332 0f6b 9B030000 		.4byte	.LASF125
 3333 0f6f 01       		.byte	0x1
 3334 0f70 C102     		.2byte	0x2c1
 3335 0f72 D8080000 		.4byte	0x8d8
 3336 0f76 BA070000 		.4byte	.LLST54
 3337 0f7a 1C       		.uleb128 0x1c
 3338 0f7b E5040000 		.4byte	.LASF155
 3339 0f7f 01       		.byte	0x1
 3340 0f80 C302     		.2byte	0x2c3
 3341 0f82 03010000 		.4byte	0x103
 3342 0f86 F4070000 		.4byte	.LLST55
 3343 0f8a 1C       		.uleb128 0x1c
 3344 0f8b 9E040000 		.4byte	.LASF156
 3345 0f8f 01       		.byte	0x1
 3346 0f90 C402     		.2byte	0x2c4
 3347 0f92 03010000 		.4byte	0x103
 3348 0f96 1D080000 		.4byte	.LLST56
 3349 0f9a 1C       		.uleb128 0x1c
 3350 0f9b 4C080000 		.4byte	.LASF157
 3351 0f9f 01       		.byte	0x1
 3352 0fa0 C502     		.2byte	0x2c5
 3353 0fa2 03010000 		.4byte	0x103
 3354 0fa6 75080000 		.4byte	.LLST57
 3355 0faa 1C       		.uleb128 0x1c
 3356 0fab F2040000 		.4byte	.LASF123
 3357 0faf 01       		.byte	0x1
 3358 0fb0 C602     		.2byte	0x2c6
 3359 0fb2 22020000 		.4byte	0x222
 3360 0fb6 A9080000 		.4byte	.LLST58
 3361 0fba 28       		.uleb128 0x28
 3362 0fbb 16000000 		.4byte	.LVL163
 3363 0fbf 9B0E0000 		.4byte	0xe9b
 3364 0fc3 D50F0000 		.4byte	0xfd5
 3365 0fc7 22       		.uleb128 0x22
 3366 0fc8 01       		.uleb128 0x1
 3367 0fc9 50       		.byte	0x50
 3368 0fca 02       		.uleb128 0x2
 3369 0fcb 75       		.byte	0x75
ARM GAS  C:\Users\ikomb\AppData\Local\Temp\cc6TxH90.s 			page 92


 3370 0fcc 00       		.sleb128 0
 3371 0fcd 22       		.uleb128 0x22
 3372 0fce 01       		.uleb128 0x1
 3373 0fcf 51       		.byte	0x51
 3374 0fd0 03       		.uleb128 0x3
 3375 0fd1 F3       		.byte	0xf3
 3376 0fd2 01       		.uleb128 0x1
 3377 0fd3 51       		.byte	0x51
 3378 0fd4 00       		.byte	0
 3379 0fd5 21       		.uleb128 0x21
 3380 0fd6 24000000 		.4byte	.LVL168
 3381 0fda 4B130000 		.4byte	0x134b
 3382 0fde 22       		.uleb128 0x22
 3383 0fdf 01       		.uleb128 0x1
 3384 0fe0 50       		.byte	0x50
 3385 0fe1 05       		.uleb128 0x5
 3386 0fe2 03       		.byte	0x3
 3387 0fe3 00000000 		.4byte	.LC3
 3388 0fe7 22       		.uleb128 0x22
 3389 0fe8 01       		.uleb128 0x1
 3390 0fe9 51       		.byte	0x51
 3391 0fea 03       		.uleb128 0x3
 3392 0feb 0A       		.byte	0xa
 3393 0fec E002     		.2byte	0x2e0
 3394 0fee 00       		.byte	0
 3395 0fef 00       		.byte	0
 3396 0ff0 16       		.uleb128 0x16
 3397 0ff1 24000000 		.4byte	.LASF159
 3398 0ff5 01       		.byte	0x1
 3399 0ff6 3D06     		.2byte	0x63d
 3400 0ff8 03       		.byte	0x3
 3401 0ff9 6A100000 		.4byte	0x106a
 3402 0ffd 17       		.uleb128 0x17
 3403 0ffe CE090000 		.4byte	.LASF160
 3404 1002 01       		.byte	0x1
 3405 1003 3E06     		.2byte	0x63e
 3406 1005 6A100000 		.4byte	0x106a
 3407 1009 17       		.uleb128 0x17
 3408 100a 90090000 		.4byte	.LASF161
 3409 100e 01       		.byte	0x1
 3410 100f 3F06     		.2byte	0x63f
 3411 1011 03010000 		.4byte	0x103
 3412 1015 17       		.uleb128 0x17
 3413 1016 9B030000 		.4byte	.LASF125
 3414 101a 01       		.byte	0x1
 3415 101b 4006     		.2byte	0x640
 3416 101d D8080000 		.4byte	0x8d8
 3417 1021 17       		.uleb128 0x17
 3418 1022 DA040000 		.4byte	.LASF124
 3419 1026 01       		.byte	0x1
 3420 1027 4106     		.2byte	0x641
 3421 1029 E3080000 		.4byte	0x8e3
 3422 102d 19       		.uleb128 0x19
 3423 102e 19060000 		.4byte	.LASF162
 3424 1032 01       		.byte	0x1
 3425 1033 4306     		.2byte	0x643
 3426 1035 03010000 		.4byte	0x103
ARM GAS  C:\Users\ikomb\AppData\Local\Temp\cc6TxH90.s 			page 93


 3427 1039 19       		.uleb128 0x19
 3428 103a 0B020000 		.4byte	.LASF163
 3429 103e 01       		.byte	0x1
 3430 103f 4606     		.2byte	0x646
 3431 1041 F7000000 		.4byte	0xf7
 3432 1045 19       		.uleb128 0x19
 3433 1046 DC060000 		.4byte	.LASF164
 3434 104a 01       		.byte	0x1
 3435 104b 4D06     		.2byte	0x64d
 3436 104d F7000000 		.4byte	0xf7
 3437 1051 19       		.uleb128 0x19
 3438 1052 22050000 		.4byte	.LASF165
 3439 1056 01       		.byte	0x1
 3440 1057 4F06     		.2byte	0x64f
 3441 1059 03010000 		.4byte	0x103
 3442 105d 19       		.uleb128 0x19
 3443 105e 770B0000 		.4byte	.LASF121
 3444 1062 01       		.byte	0x1
 3445 1063 5106     		.2byte	0x651
 3446 1065 E9080000 		.4byte	0x8e9
 3447 1069 00       		.byte	0
 3448 106a 11       		.uleb128 0x11
 3449 106b 04       		.byte	0x4
 3450 106c 70100000 		.4byte	0x1070
 3451 1070 1A       		.uleb128 0x1a
 3452 1071 F7000000 		.4byte	0xf7
 3453 1075 27       		.uleb128 0x27
 3454 1076 FA020000 		.4byte	.LASF166
 3455 107a 01       		.byte	0x1
 3456 107b 9405     		.2byte	0x594
 3457 107d 03010000 		.4byte	0x103
 3458 1081 00000000 		.4byte	.LFB47
 3459 1085 58010000 		.4byte	.LFE47-.LFB47
 3460 1089 01       		.uleb128 0x1
 3461 108a 9C       		.byte	0x9c
 3462 108b 33120000 		.4byte	0x1233
 3463 108f 24       		.uleb128 0x24
 3464 1090 11000000 		.4byte	.LASF147
 3465 1094 01       		.byte	0x1
 3466 1095 9405     		.2byte	0x594
 3467 1097 03010000 		.4byte	0x103
 3468 109b C7080000 		.4byte	.LLST59
 3469 109f 24       		.uleb128 0x24
 3470 10a0 9B030000 		.4byte	.LASF125
 3471 10a4 01       		.byte	0x1
 3472 10a5 9405     		.2byte	0x594
 3473 10a7 D8080000 		.4byte	0x8d8
 3474 10ab 11090000 		.4byte	.LLST60
 3475 10af 1C       		.uleb128 0x1c
 3476 10b0 99000000 		.4byte	.LASF148
 3477 10b4 01       		.byte	0x1
 3478 10b5 9605     		.2byte	0x596
 3479 10b7 03010000 		.4byte	0x103
 3480 10bb 6C090000 		.4byte	.LLST61
 3481 10bf 1C       		.uleb128 0x1c
 3482 10c0 1C000000 		.4byte	.LASF149
 3483 10c4 01       		.byte	0x1
ARM GAS  C:\Users\ikomb\AppData\Local\Temp\cc6TxH90.s 			page 94


 3484 10c5 9705     		.2byte	0x597
 3485 10c7 03010000 		.4byte	0x103
 3486 10cb CC090000 		.4byte	.LLST62
 3487 10cf 1C       		.uleb128 0x1c
 3488 10d0 E1090000 		.4byte	.LASF151
 3489 10d4 01       		.byte	0x1
 3490 10d5 9805     		.2byte	0x598
 3491 10d7 03010000 		.4byte	0x103
 3492 10db F6090000 		.4byte	.LLST63
 3493 10df 1C       		.uleb128 0x1c
 3494 10e0 AA0A0000 		.4byte	.LASF150
 3495 10e4 01       		.byte	0x1
 3496 10e5 9905     		.2byte	0x599
 3497 10e7 03010000 		.4byte	0x103
 3498 10eb 1F0A0000 		.4byte	.LLST64
 3499 10ef 1C       		.uleb128 0x1c
 3500 10f0 BD070000 		.4byte	.LASF152
 3501 10f4 01       		.byte	0x1
 3502 10f5 9A05     		.2byte	0x59a
 3503 10f7 75070000 		.4byte	0x775
 3504 10fb 490A0000 		.4byte	.LLST65
 3505 10ff 1C       		.uleb128 0x1c
 3506 1100 1A040000 		.4byte	.LASF137
 3507 1104 01       		.byte	0x1
 3508 1105 9B05     		.2byte	0x59b
 3509 1107 6F070000 		.4byte	0x76f
 3510 110b 720A0000 		.4byte	.LLST66
 3511 110f 1C       		.uleb128 0x1c
 3512 1110 DA040000 		.4byte	.LASF124
 3513 1114 01       		.byte	0x1
 3514 1115 9C05     		.2byte	0x59c
 3515 1117 E3080000 		.4byte	0x8e3
 3516 111b 900A0000 		.4byte	.LLST67
 3517 111f 1C       		.uleb128 0x1c
 3518 1120 770B0000 		.4byte	.LASF121
 3519 1124 01       		.byte	0x1
 3520 1125 9F05     		.2byte	0x59f
 3521 1127 E9080000 		.4byte	0x8e9
 3522 112b A30A0000 		.4byte	.LLST68
 3523 112f 1C       		.uleb128 0x1c
 3524 1130 19060000 		.4byte	.LASF162
 3525 1134 01       		.byte	0x1
 3526 1135 A205     		.2byte	0x5a2
 3527 1137 03010000 		.4byte	0x103
 3528 113b B60A0000 		.4byte	.LLST69
 3529 113f 1C       		.uleb128 0x1c
 3530 1140 020B0000 		.4byte	.LASF167
 3531 1144 01       		.byte	0x1
 3532 1145 A305     		.2byte	0x5a3
 3533 1147 03010000 		.4byte	0x103
 3534 114b C90A0000 		.4byte	.LLST70
 3535 114f 25       		.uleb128 0x25
 3536 1150 CE090000 		.4byte	.LASF160
 3537 1154 01       		.byte	0x1
 3538 1155 A405     		.2byte	0x5a4
 3539 1157 3F040000 		.4byte	0x43f
 3540 115b 02       		.uleb128 0x2
ARM GAS  C:\Users\ikomb\AppData\Local\Temp\cc6TxH90.s 			page 95


 3541 115c 91       		.byte	0x91
 3542 115d 54       		.sleb128 -44
 3543 115e 1D       		.uleb128 0x1d
 3544 115f F00F0000 		.4byte	0xff0
 3545 1163 AC000000 		.4byte	.LBB8
 3546 1167 72000000 		.4byte	.LBE8-.LBB8
 3547 116b 01       		.byte	0x1
 3548 116c 0A06     		.2byte	0x60a
 3549 116e E4110000 		.4byte	0x11e4
 3550 1172 1E       		.uleb128 0x1e
 3551 1173 21100000 		.4byte	0x1021
 3552 1177 150B0000 		.4byte	.LLST71
 3553 117b 1E       		.uleb128 0x1e
 3554 117c 15100000 		.4byte	0x1015
 3555 1180 280B0000 		.4byte	.LLST72
 3556 1184 1E       		.uleb128 0x1e
 3557 1185 09100000 		.4byte	0x1009
 3558 1189 490B0000 		.4byte	.LLST73
 3559 118d 1E       		.uleb128 0x1e
 3560 118e FD0F0000 		.4byte	0xffd
 3561 1192 670B0000 		.4byte	.LLST74
 3562 1196 1F       		.uleb128 0x1f
 3563 1197 AC000000 		.4byte	.LBB9
 3564 119b 72000000 		.4byte	.LBE9-.LBB9
 3565 119f 20       		.uleb128 0x20
 3566 11a0 2D100000 		.4byte	0x102d
 3567 11a4 940B0000 		.4byte	.LLST75
 3568 11a8 20       		.uleb128 0x20
 3569 11a9 39100000 		.4byte	0x1039
 3570 11ad B30B0000 		.4byte	.LLST76
 3571 11b1 20       		.uleb128 0x20
 3572 11b2 45100000 		.4byte	0x1045
 3573 11b6 C60B0000 		.4byte	.LLST77
 3574 11ba 20       		.uleb128 0x20
 3575 11bb 51100000 		.4byte	0x1051
 3576 11bf F30B0000 		.4byte	.LLST78
 3577 11c3 20       		.uleb128 0x20
 3578 11c4 5D100000 		.4byte	0x105d
 3579 11c8 110C0000 		.4byte	.LLST79
 3580 11cc 21       		.uleb128 0x21
 3581 11cd E0000000 		.4byte	.LVL223
 3582 11d1 09130000 		.4byte	0x1309
 3583 11d5 22       		.uleb128 0x22
 3584 11d6 01       		.uleb128 0x1
 3585 11d7 50       		.byte	0x50
 3586 11d8 02       		.uleb128 0x2
 3587 11d9 79       		.byte	0x79
 3588 11da 00       		.sleb128 0
 3589 11db 22       		.uleb128 0x22
 3590 11dc 01       		.uleb128 0x1
 3591 11dd 51       		.byte	0x51
 3592 11de 02       		.uleb128 0x2
 3593 11df 7B       		.byte	0x7b
 3594 11e0 00       		.sleb128 0
 3595 11e1 00       		.byte	0
 3596 11e2 00       		.byte	0
 3597 11e3 00       		.byte	0
ARM GAS  C:\Users\ikomb\AppData\Local\Temp\cc6TxH90.s 			page 96


 3598 11e4 28       		.uleb128 0x28
 3599 11e5 90000000 		.4byte	.LVL209
 3600 11e9 57130000 		.4byte	0x1357
 3601 11ed F8110000 		.4byte	0x11f8
 3602 11f1 22       		.uleb128 0x22
 3603 11f2 01       		.uleb128 0x1
 3604 11f3 51       		.byte	0x51
 3605 11f4 02       		.uleb128 0x2
 3606 11f5 79       		.byte	0x79
 3607 11f6 00       		.sleb128 0
 3608 11f7 00       		.byte	0
 3609 11f8 28       		.uleb128 0x28
 3610 11f9 AA000000 		.4byte	.LVL212
 3611 11fd 62130000 		.4byte	0x1362
 3612 1201 17120000 		.4byte	0x1217
 3613 1205 22       		.uleb128 0x22
 3614 1206 01       		.uleb128 0x1
 3615 1207 50       		.byte	0x50
 3616 1208 02       		.uleb128 0x2
 3617 1209 91       		.byte	0x91
 3618 120a 54       		.sleb128 -44
 3619 120b 22       		.uleb128 0x22
 3620 120c 01       		.uleb128 0x1
 3621 120d 52       		.byte	0x52
 3622 120e 02       		.uleb128 0x2
 3623 120f 79       		.byte	0x79
 3624 1210 00       		.sleb128 0
 3625 1211 22       		.uleb128 0x22
 3626 1212 01       		.uleb128 0x1
 3627 1213 53       		.byte	0x53
 3628 1214 01       		.uleb128 0x1
 3629 1215 30       		.byte	0x30
 3630 1216 00       		.byte	0
 3631 1217 21       		.uleb128 0x21
 3632 1218 3E010000 		.4byte	.LVL235
 3633 121c 09130000 		.4byte	0x1309
 3634 1220 22       		.uleb128 0x22
 3635 1221 01       		.uleb128 0x1
 3636 1222 50       		.byte	0x50
 3637 1223 07       		.uleb128 0x7
 3638 1224 74       		.byte	0x74
 3639 1225 00       		.sleb128 0
 3640 1226 31       		.byte	0x31
 3641 1227 24       		.byte	0x24
 3642 1228 76       		.byte	0x76
 3643 1229 00       		.sleb128 0
 3644 122a 22       		.byte	0x22
 3645 122b 22       		.uleb128 0x22
 3646 122c 01       		.uleb128 0x1
 3647 122d 51       		.byte	0x51
 3648 122e 02       		.uleb128 0x2
 3649 122f 09       		.byte	0x9
 3650 1230 FF       		.byte	0xff
 3651 1231 00       		.byte	0
 3652 1232 00       		.byte	0
 3653 1233 1B       		.uleb128 0x1b
 3654 1234 2E020000 		.4byte	.LASF168
ARM GAS  C:\Users\ikomb\AppData\Local\Temp\cc6TxH90.s 			page 97


 3655 1238 01       		.byte	0x1
 3656 1239 F703     		.2byte	0x3f7
 3657 123b 00000000 		.4byte	.LFB43
 3658 123f 78000000 		.4byte	.LFE43-.LFB43
 3659 1243 01       		.uleb128 0x1
 3660 1244 9C       		.byte	0x9c
 3661 1245 EC120000 		.4byte	0x12ec
 3662 1249 24       		.uleb128 0x24
 3663 124a 95040000 		.4byte	.LASF154
 3664 124e 01       		.byte	0x1
 3665 124f F703     		.2byte	0x3f7
 3666 1251 03010000 		.4byte	0x103
 3667 1255 450C0000 		.4byte	.LLST80
 3668 1259 24       		.uleb128 0x24
 3669 125a 9B030000 		.4byte	.LASF125
 3670 125e 01       		.byte	0x1
 3671 125f F703     		.2byte	0x3f7
 3672 1261 D8080000 		.4byte	0x8d8
 3673 1265 9D0C0000 		.4byte	.LLST81
 3674 1269 1C       		.uleb128 0x1c
 3675 126a E5040000 		.4byte	.LASF155
 3676 126e 01       		.byte	0x1
 3677 126f F903     		.2byte	0x3f9
 3678 1271 03010000 		.4byte	0x103
 3679 1275 F00C0000 		.4byte	.LLST82
 3680 1279 1C       		.uleb128 0x1c
 3681 127a 9E040000 		.4byte	.LASF156
 3682 127e 01       		.byte	0x1
 3683 127f FA03     		.2byte	0x3fa
 3684 1281 03010000 		.4byte	0x103
 3685 1285 2F0D0000 		.4byte	.LLST83
 3686 1289 1C       		.uleb128 0x1c
 3687 128a 4C080000 		.4byte	.LASF157
 3688 128e 01       		.byte	0x1
 3689 128f FB03     		.2byte	0x3fb
 3690 1291 03010000 		.4byte	0x103
 3691 1295 870D0000 		.4byte	.LLST84
 3692 1299 1C       		.uleb128 0x1c
 3693 129a F2040000 		.4byte	.LASF123
 3694 129e 01       		.byte	0x1
 3695 129f FC03     		.2byte	0x3fc
 3696 12a1 22020000 		.4byte	0x222
 3697 12a5 BB0D0000 		.4byte	.LLST85
 3698 12a9 28       		.uleb128 0x28
 3699 12aa 20000000 		.4byte	.LVL245
 3700 12ae 9B0E0000 		.4byte	0xe9b
 3701 12b2 BD120000 		.4byte	0x12bd
 3702 12b6 22       		.uleb128 0x22
 3703 12b7 01       		.uleb128 0x1
 3704 12b8 50       		.byte	0x50
 3705 12b9 02       		.uleb128 0x2
 3706 12ba 75       		.byte	0x75
 3707 12bb 00       		.sleb128 0
 3708 12bc 00       		.byte	0
 3709 12bd 28       		.uleb128 0x28
 3710 12be 2A000000 		.4byte	.LVL249
 3711 12c2 75100000 		.4byte	0x1075
ARM GAS  C:\Users\ikomb\AppData\Local\Temp\cc6TxH90.s 			page 98


 3712 12c6 D1120000 		.4byte	0x12d1
 3713 12ca 22       		.uleb128 0x22
 3714 12cb 01       		.uleb128 0x1
 3715 12cc 50       		.byte	0x50
 3716 12cd 02       		.uleb128 0x2
 3717 12ce 75       		.byte	0x75
 3718 12cf 00       		.sleb128 0
 3719 12d0 00       		.byte	0
 3720 12d1 21       		.uleb128 0x21
 3721 12d2 36000000 		.4byte	.LVL254
 3722 12d6 4B130000 		.4byte	0x134b
 3723 12da 22       		.uleb128 0x22
 3724 12db 01       		.uleb128 0x1
 3725 12dc 50       		.byte	0x50
 3726 12dd 05       		.uleb128 0x5
 3727 12de 03       		.byte	0x3
 3728 12df 00000000 		.4byte	.LC3
 3729 12e3 22       		.uleb128 0x22
 3730 12e4 01       		.uleb128 0x1
 3731 12e5 51       		.byte	0x51
 3732 12e6 03       		.uleb128 0x3
 3733 12e7 0A       		.byte	0xa
 3734 12e8 2604     		.2byte	0x426
 3735 12ea 00       		.byte	0
 3736 12eb 00       		.byte	0
 3737 12ec 29       		.uleb128 0x29
 3738 12ed 2B040000 		.4byte	.LASF169
 3739 12f1 08       		.byte	0x8
 3740 12f2 8D04     		.2byte	0x48d
 3741 12f4 82060000 		.4byte	0x682
 3742 12f8 29       		.uleb128 0x29
 3743 12f9 89010000 		.4byte	.LASF170
 3744 12fd 08       		.byte	0x8
 3745 12fe 8E04     		.2byte	0x48e
 3746 1300 04130000 		.4byte	0x1304
 3747 1304 1A       		.uleb128 0x1a
 3748 1305 B4070000 		.4byte	0x7b4
 3749 1309 2A       		.uleb128 0x2a
 3750 130a A0000000 		.4byte	.LASF171
 3751 130e A0000000 		.4byte	.LASF171
 3752 1312 09       		.byte	0x9
 3753 1313 6C       		.byte	0x6c
 3754 1314 2A       		.uleb128 0x2a
 3755 1315 190A0000 		.4byte	.LASF172
 3756 1319 190A0000 		.4byte	.LASF172
 3757 131d 0A       		.byte	0xa
 3758 131e 19       		.byte	0x19
 3759 131f 2A       		.uleb128 0x2a
 3760 1320 B2010000 		.4byte	.LASF173
 3761 1324 B2010000 		.4byte	.LASF173
 3762 1328 07       		.byte	0x7
 3763 1329 B3       		.byte	0xb3
 3764 132a 2A       		.uleb128 0x2a
 3765 132b CC070000 		.4byte	.LASF174
 3766 132f CC070000 		.4byte	.LASF174
 3767 1333 0B       		.byte	0xb
 3768 1334 83       		.byte	0x83
ARM GAS  C:\Users\ikomb\AppData\Local\Temp\cc6TxH90.s 			page 99


 3769 1335 2A       		.uleb128 0x2a
 3770 1336 AB020000 		.4byte	.LASF175
 3771 133a AB020000 		.4byte	.LASF175
 3772 133e 0B       		.byte	0xb
 3773 133f 70       		.byte	0x70
 3774 1340 2A       		.uleb128 0x2a
 3775 1341 4D000000 		.4byte	.LASF176
 3776 1345 4D000000 		.4byte	.LASF176
 3777 1349 07       		.byte	0x7
 3778 134a BC       		.byte	0xbc
 3779 134b 2B       		.uleb128 0x2b
 3780 134c 9B090000 		.4byte	.LASF177
 3781 1350 9B090000 		.4byte	.LASF177
 3782 1354 04       		.byte	0x4
 3783 1355 2A03     		.2byte	0x32a
 3784 1357 2A       		.uleb128 0x2a
 3785 1358 5D0B0000 		.4byte	.LASF178
 3786 135c 5D0B0000 		.4byte	.LASF178
 3787 1360 09       		.byte	0x9
 3788 1361 4E       		.byte	0x4e
 3789 1362 2A       		.uleb128 0x2a
 3790 1363 A1060000 		.4byte	.LASF179
 3791 1367 A1060000 		.4byte	.LASF179
 3792 136b 09       		.byte	0x9
 3793 136c 5D       		.byte	0x5d
 3794 136d 00       		.byte	0
 3795              		.section	.debug_abbrev,"",%progbits
 3796              	.Ldebug_abbrev0:
 3797 0000 01       		.uleb128 0x1
 3798 0001 11       		.uleb128 0x11
 3799 0002 01       		.byte	0x1
 3800 0003 25       		.uleb128 0x25
 3801 0004 0E       		.uleb128 0xe
 3802 0005 13       		.uleb128 0x13
 3803 0006 0B       		.uleb128 0xb
 3804 0007 03       		.uleb128 0x3
 3805 0008 0E       		.uleb128 0xe
 3806 0009 1B       		.uleb128 0x1b
 3807 000a 0E       		.uleb128 0xe
 3808 000b 55       		.uleb128 0x55
 3809 000c 17       		.uleb128 0x17
 3810 000d 11       		.uleb128 0x11
 3811 000e 01       		.uleb128 0x1
 3812 000f 10       		.uleb128 0x10
 3813 0010 17       		.uleb128 0x17
 3814 0011 00       		.byte	0
 3815 0012 00       		.byte	0
 3816 0013 02       		.uleb128 0x2
 3817 0014 24       		.uleb128 0x24
 3818 0015 00       		.byte	0
 3819 0016 0B       		.uleb128 0xb
 3820 0017 0B       		.uleb128 0xb
 3821 0018 3E       		.uleb128 0x3e
 3822 0019 0B       		.uleb128 0xb
 3823 001a 03       		.uleb128 0x3
 3824 001b 0E       		.uleb128 0xe
 3825 001c 00       		.byte	0
ARM GAS  C:\Users\ikomb\AppData\Local\Temp\cc6TxH90.s 			page 100


 3826 001d 00       		.byte	0
 3827 001e 03       		.uleb128 0x3
 3828 001f 16       		.uleb128 0x16
 3829 0020 00       		.byte	0
 3830 0021 03       		.uleb128 0x3
 3831 0022 0E       		.uleb128 0xe
 3832 0023 3A       		.uleb128 0x3a
 3833 0024 0B       		.uleb128 0xb
 3834 0025 3B       		.uleb128 0x3b
 3835 0026 0B       		.uleb128 0xb
 3836 0027 49       		.uleb128 0x49
 3837 0028 13       		.uleb128 0x13
 3838 0029 00       		.byte	0
 3839 002a 00       		.byte	0
 3840 002b 04       		.uleb128 0x4
 3841 002c 24       		.uleb128 0x24
 3842 002d 00       		.byte	0
 3843 002e 0B       		.uleb128 0xb
 3844 002f 0B       		.uleb128 0xb
 3845 0030 3E       		.uleb128 0x3e
 3846 0031 0B       		.uleb128 0xb
 3847 0032 03       		.uleb128 0x3
 3848 0033 08       		.uleb128 0x8
 3849 0034 00       		.byte	0
 3850 0035 00       		.byte	0
 3851 0036 05       		.uleb128 0x5
 3852 0037 16       		.uleb128 0x16
 3853 0038 00       		.byte	0
 3854 0039 03       		.uleb128 0x3
 3855 003a 0E       		.uleb128 0xe
 3856 003b 3A       		.uleb128 0x3a
 3857 003c 0B       		.uleb128 0xb
 3858 003d 3B       		.uleb128 0x3b
 3859 003e 05       		.uleb128 0x5
 3860 003f 49       		.uleb128 0x49
 3861 0040 13       		.uleb128 0x13
 3862 0041 00       		.byte	0
 3863 0042 00       		.byte	0
 3864 0043 06       		.uleb128 0x6
 3865 0044 0F       		.uleb128 0xf
 3866 0045 00       		.byte	0
 3867 0046 0B       		.uleb128 0xb
 3868 0047 0B       		.uleb128 0xb
 3869 0048 00       		.byte	0
 3870 0049 00       		.byte	0
 3871 004a 07       		.uleb128 0x7
 3872 004b 13       		.uleb128 0x13
 3873 004c 01       		.byte	0x1
 3874 004d 0B       		.uleb128 0xb
 3875 004e 0B       		.uleb128 0xb
 3876 004f 3A       		.uleb128 0x3a
 3877 0050 0B       		.uleb128 0xb
 3878 0051 3B       		.uleb128 0x3b
 3879 0052 0B       		.uleb128 0xb
 3880 0053 01       		.uleb128 0x1
 3881 0054 13       		.uleb128 0x13
 3882 0055 00       		.byte	0
ARM GAS  C:\Users\ikomb\AppData\Local\Temp\cc6TxH90.s 			page 101


 3883 0056 00       		.byte	0
 3884 0057 08       		.uleb128 0x8
 3885 0058 0D       		.uleb128 0xd
 3886 0059 00       		.byte	0
 3887 005a 03       		.uleb128 0x3
 3888 005b 0E       		.uleb128 0xe
 3889 005c 3A       		.uleb128 0x3a
 3890 005d 0B       		.uleb128 0xb
 3891 005e 3B       		.uleb128 0x3b
 3892 005f 0B       		.uleb128 0xb
 3893 0060 49       		.uleb128 0x49
 3894 0061 13       		.uleb128 0x13
 3895 0062 38       		.uleb128 0x38
 3896 0063 0B       		.uleb128 0xb
 3897 0064 00       		.byte	0
 3898 0065 00       		.byte	0
 3899 0066 09       		.uleb128 0x9
 3900 0067 04       		.uleb128 0x4
 3901 0068 01       		.byte	0x1
 3902 0069 0B       		.uleb128 0xb
 3903 006a 0B       		.uleb128 0xb
 3904 006b 49       		.uleb128 0x49
 3905 006c 13       		.uleb128 0x13
 3906 006d 3A       		.uleb128 0x3a
 3907 006e 0B       		.uleb128 0xb
 3908 006f 3B       		.uleb128 0x3b
 3909 0070 0B       		.uleb128 0xb
 3910 0071 01       		.uleb128 0x1
 3911 0072 13       		.uleb128 0x13
 3912 0073 00       		.byte	0
 3913 0074 00       		.byte	0
 3914 0075 0A       		.uleb128 0xa
 3915 0076 28       		.uleb128 0x28
 3916 0077 00       		.byte	0
 3917 0078 03       		.uleb128 0x3
 3918 0079 0E       		.uleb128 0xe
 3919 007a 1C       		.uleb128 0x1c
 3920 007b 0B       		.uleb128 0xb
 3921 007c 00       		.byte	0
 3922 007d 00       		.byte	0
 3923 007e 0B       		.uleb128 0xb
 3924 007f 01       		.uleb128 0x1
 3925 0080 01       		.byte	0x1
 3926 0081 49       		.uleb128 0x49
 3927 0082 13       		.uleb128 0x13
 3928 0083 01       		.uleb128 0x1
 3929 0084 13       		.uleb128 0x13
 3930 0085 00       		.byte	0
 3931 0086 00       		.byte	0
 3932 0087 0C       		.uleb128 0xc
 3933 0088 21       		.uleb128 0x21
 3934 0089 00       		.byte	0
 3935 008a 49       		.uleb128 0x49
 3936 008b 13       		.uleb128 0x13
 3937 008c 2F       		.uleb128 0x2f
 3938 008d 0B       		.uleb128 0xb
 3939 008e 00       		.byte	0
ARM GAS  C:\Users\ikomb\AppData\Local\Temp\cc6TxH90.s 			page 102


 3940 008f 00       		.byte	0
 3941 0090 0D       		.uleb128 0xd
 3942 0091 0D       		.uleb128 0xd
 3943 0092 00       		.byte	0
 3944 0093 03       		.uleb128 0x3
 3945 0094 0E       		.uleb128 0xe
 3946 0095 3A       		.uleb128 0x3a
 3947 0096 0B       		.uleb128 0xb
 3948 0097 3B       		.uleb128 0x3b
 3949 0098 05       		.uleb128 0x5
 3950 0099 49       		.uleb128 0x49
 3951 009a 13       		.uleb128 0x13
 3952 009b 38       		.uleb128 0x38
 3953 009c 0B       		.uleb128 0xb
 3954 009d 00       		.byte	0
 3955 009e 00       		.byte	0
 3956 009f 0E       		.uleb128 0xe
 3957 00a0 13       		.uleb128 0x13
 3958 00a1 01       		.byte	0x1
 3959 00a2 0B       		.uleb128 0xb
 3960 00a3 0B       		.uleb128 0xb
 3961 00a4 3A       		.uleb128 0x3a
 3962 00a5 0B       		.uleb128 0xb
 3963 00a6 3B       		.uleb128 0x3b
 3964 00a7 05       		.uleb128 0x5
 3965 00a8 01       		.uleb128 0x1
 3966 00a9 13       		.uleb128 0x13
 3967 00aa 00       		.byte	0
 3968 00ab 00       		.byte	0
 3969 00ac 0F       		.uleb128 0xf
 3970 00ad 0D       		.uleb128 0xd
 3971 00ae 00       		.byte	0
 3972 00af 03       		.uleb128 0x3
 3973 00b0 08       		.uleb128 0x8
 3974 00b1 3A       		.uleb128 0x3a
 3975 00b2 0B       		.uleb128 0xb
 3976 00b3 3B       		.uleb128 0x3b
 3977 00b4 05       		.uleb128 0x5
 3978 00b5 49       		.uleb128 0x49
 3979 00b6 13       		.uleb128 0x13
 3980 00b7 38       		.uleb128 0x38
 3981 00b8 0B       		.uleb128 0xb
 3982 00b9 00       		.byte	0
 3983 00ba 00       		.byte	0
 3984 00bb 10       		.uleb128 0x10
 3985 00bc 35       		.uleb128 0x35
 3986 00bd 00       		.byte	0
 3987 00be 49       		.uleb128 0x49
 3988 00bf 13       		.uleb128 0x13
 3989 00c0 00       		.byte	0
 3990 00c1 00       		.byte	0
 3991 00c2 11       		.uleb128 0x11
 3992 00c3 0F       		.uleb128 0xf
 3993 00c4 00       		.byte	0
 3994 00c5 0B       		.uleb128 0xb
 3995 00c6 0B       		.uleb128 0xb
 3996 00c7 49       		.uleb128 0x49
ARM GAS  C:\Users\ikomb\AppData\Local\Temp\cc6TxH90.s 			page 103


 3997 00c8 13       		.uleb128 0x13
 3998 00c9 00       		.byte	0
 3999 00ca 00       		.byte	0
 4000 00cb 12       		.uleb128 0x12
 4001 00cc 26       		.uleb128 0x26
 4002 00cd 00       		.byte	0
 4003 00ce 00       		.byte	0
 4004 00cf 00       		.byte	0
 4005 00d0 13       		.uleb128 0x13
 4006 00d1 17       		.uleb128 0x17
 4007 00d2 01       		.byte	0x1
 4008 00d3 0B       		.uleb128 0xb
 4009 00d4 0B       		.uleb128 0xb
 4010 00d5 3A       		.uleb128 0x3a
 4011 00d6 0B       		.uleb128 0xb
 4012 00d7 3B       		.uleb128 0x3b
 4013 00d8 05       		.uleb128 0x5
 4014 00d9 01       		.uleb128 0x1
 4015 00da 13       		.uleb128 0x13
 4016 00db 00       		.byte	0
 4017 00dc 00       		.byte	0
 4018 00dd 14       		.uleb128 0x14
 4019 00de 0D       		.uleb128 0xd
 4020 00df 00       		.byte	0
 4021 00e0 03       		.uleb128 0x3
 4022 00e1 08       		.uleb128 0x8
 4023 00e2 3A       		.uleb128 0x3a
 4024 00e3 0B       		.uleb128 0xb
 4025 00e4 3B       		.uleb128 0x3b
 4026 00e5 05       		.uleb128 0x5
 4027 00e6 49       		.uleb128 0x49
 4028 00e7 13       		.uleb128 0x13
 4029 00e8 00       		.byte	0
 4030 00e9 00       		.byte	0
 4031 00ea 15       		.uleb128 0x15
 4032 00eb 0D       		.uleb128 0xd
 4033 00ec 00       		.byte	0
 4034 00ed 03       		.uleb128 0x3
 4035 00ee 0E       		.uleb128 0xe
 4036 00ef 3A       		.uleb128 0x3a
 4037 00f0 0B       		.uleb128 0xb
 4038 00f1 3B       		.uleb128 0x3b
 4039 00f2 05       		.uleb128 0x5
 4040 00f3 49       		.uleb128 0x49
 4041 00f4 13       		.uleb128 0x13
 4042 00f5 00       		.byte	0
 4043 00f6 00       		.byte	0
 4044 00f7 16       		.uleb128 0x16
 4045 00f8 2E       		.uleb128 0x2e
 4046 00f9 01       		.byte	0x1
 4047 00fa 03       		.uleb128 0x3
 4048 00fb 0E       		.uleb128 0xe
 4049 00fc 3A       		.uleb128 0x3a
 4050 00fd 0B       		.uleb128 0xb
 4051 00fe 3B       		.uleb128 0x3b
 4052 00ff 05       		.uleb128 0x5
 4053 0100 27       		.uleb128 0x27
ARM GAS  C:\Users\ikomb\AppData\Local\Temp\cc6TxH90.s 			page 104


 4054 0101 19       		.uleb128 0x19
 4055 0102 20       		.uleb128 0x20
 4056 0103 0B       		.uleb128 0xb
 4057 0104 01       		.uleb128 0x1
 4058 0105 13       		.uleb128 0x13
 4059 0106 00       		.byte	0
 4060 0107 00       		.byte	0
 4061 0108 17       		.uleb128 0x17
 4062 0109 05       		.uleb128 0x5
 4063 010a 00       		.byte	0
 4064 010b 03       		.uleb128 0x3
 4065 010c 0E       		.uleb128 0xe
 4066 010d 3A       		.uleb128 0x3a
 4067 010e 0B       		.uleb128 0xb
 4068 010f 3B       		.uleb128 0x3b
 4069 0110 05       		.uleb128 0x5
 4070 0111 49       		.uleb128 0x49
 4071 0112 13       		.uleb128 0x13
 4072 0113 00       		.byte	0
 4073 0114 00       		.byte	0
 4074 0115 18       		.uleb128 0x18
 4075 0116 34       		.uleb128 0x34
 4076 0117 00       		.byte	0
 4077 0118 03       		.uleb128 0x3
 4078 0119 08       		.uleb128 0x8
 4079 011a 3A       		.uleb128 0x3a
 4080 011b 0B       		.uleb128 0xb
 4081 011c 3B       		.uleb128 0x3b
 4082 011d 05       		.uleb128 0x5
 4083 011e 49       		.uleb128 0x49
 4084 011f 13       		.uleb128 0x13
 4085 0120 00       		.byte	0
 4086 0121 00       		.byte	0
 4087 0122 19       		.uleb128 0x19
 4088 0123 34       		.uleb128 0x34
 4089 0124 00       		.byte	0
 4090 0125 03       		.uleb128 0x3
 4091 0126 0E       		.uleb128 0xe
 4092 0127 3A       		.uleb128 0x3a
 4093 0128 0B       		.uleb128 0xb
 4094 0129 3B       		.uleb128 0x3b
 4095 012a 05       		.uleb128 0x5
 4096 012b 49       		.uleb128 0x49
 4097 012c 13       		.uleb128 0x13
 4098 012d 00       		.byte	0
 4099 012e 00       		.byte	0
 4100 012f 1A       		.uleb128 0x1a
 4101 0130 26       		.uleb128 0x26
 4102 0131 00       		.byte	0
 4103 0132 49       		.uleb128 0x49
 4104 0133 13       		.uleb128 0x13
 4105 0134 00       		.byte	0
 4106 0135 00       		.byte	0
 4107 0136 1B       		.uleb128 0x1b
 4108 0137 2E       		.uleb128 0x2e
 4109 0138 01       		.byte	0x1
 4110 0139 3F       		.uleb128 0x3f
ARM GAS  C:\Users\ikomb\AppData\Local\Temp\cc6TxH90.s 			page 105


 4111 013a 19       		.uleb128 0x19
 4112 013b 03       		.uleb128 0x3
 4113 013c 0E       		.uleb128 0xe
 4114 013d 3A       		.uleb128 0x3a
 4115 013e 0B       		.uleb128 0xb
 4116 013f 3B       		.uleb128 0x3b
 4117 0140 05       		.uleb128 0x5
 4118 0141 27       		.uleb128 0x27
 4119 0142 19       		.uleb128 0x19
 4120 0143 11       		.uleb128 0x11
 4121 0144 01       		.uleb128 0x1
 4122 0145 12       		.uleb128 0x12
 4123 0146 06       		.uleb128 0x6
 4124 0147 40       		.uleb128 0x40
 4125 0148 18       		.uleb128 0x18
 4126 0149 9742     		.uleb128 0x2117
 4127 014b 19       		.uleb128 0x19
 4128 014c 01       		.uleb128 0x1
 4129 014d 13       		.uleb128 0x13
 4130 014e 00       		.byte	0
 4131 014f 00       		.byte	0
 4132 0150 1C       		.uleb128 0x1c
 4133 0151 34       		.uleb128 0x34
 4134 0152 00       		.byte	0
 4135 0153 03       		.uleb128 0x3
 4136 0154 0E       		.uleb128 0xe
 4137 0155 3A       		.uleb128 0x3a
 4138 0156 0B       		.uleb128 0xb
 4139 0157 3B       		.uleb128 0x3b
 4140 0158 05       		.uleb128 0x5
 4141 0159 49       		.uleb128 0x49
 4142 015a 13       		.uleb128 0x13
 4143 015b 02       		.uleb128 0x2
 4144 015c 17       		.uleb128 0x17
 4145 015d 00       		.byte	0
 4146 015e 00       		.byte	0
 4147 015f 1D       		.uleb128 0x1d
 4148 0160 1D       		.uleb128 0x1d
 4149 0161 01       		.byte	0x1
 4150 0162 31       		.uleb128 0x31
 4151 0163 13       		.uleb128 0x13
 4152 0164 11       		.uleb128 0x11
 4153 0165 01       		.uleb128 0x1
 4154 0166 12       		.uleb128 0x12
 4155 0167 06       		.uleb128 0x6
 4156 0168 58       		.uleb128 0x58
 4157 0169 0B       		.uleb128 0xb
 4158 016a 59       		.uleb128 0x59
 4159 016b 05       		.uleb128 0x5
 4160 016c 01       		.uleb128 0x1
 4161 016d 13       		.uleb128 0x13
 4162 016e 00       		.byte	0
 4163 016f 00       		.byte	0
 4164 0170 1E       		.uleb128 0x1e
 4165 0171 05       		.uleb128 0x5
 4166 0172 00       		.byte	0
 4167 0173 31       		.uleb128 0x31
ARM GAS  C:\Users\ikomb\AppData\Local\Temp\cc6TxH90.s 			page 106


 4168 0174 13       		.uleb128 0x13
 4169 0175 02       		.uleb128 0x2
 4170 0176 17       		.uleb128 0x17
 4171 0177 00       		.byte	0
 4172 0178 00       		.byte	0
 4173 0179 1F       		.uleb128 0x1f
 4174 017a 0B       		.uleb128 0xb
 4175 017b 01       		.byte	0x1
 4176 017c 11       		.uleb128 0x11
 4177 017d 01       		.uleb128 0x1
 4178 017e 12       		.uleb128 0x12
 4179 017f 06       		.uleb128 0x6
 4180 0180 00       		.byte	0
 4181 0181 00       		.byte	0
 4182 0182 20       		.uleb128 0x20
 4183 0183 34       		.uleb128 0x34
 4184 0184 00       		.byte	0
 4185 0185 31       		.uleb128 0x31
 4186 0186 13       		.uleb128 0x13
 4187 0187 02       		.uleb128 0x2
 4188 0188 17       		.uleb128 0x17
 4189 0189 00       		.byte	0
 4190 018a 00       		.byte	0
 4191 018b 21       		.uleb128 0x21
 4192 018c 898201   		.uleb128 0x4109
 4193 018f 01       		.byte	0x1
 4194 0190 11       		.uleb128 0x11
 4195 0191 01       		.uleb128 0x1
 4196 0192 31       		.uleb128 0x31
 4197 0193 13       		.uleb128 0x13
 4198 0194 00       		.byte	0
 4199 0195 00       		.byte	0
 4200 0196 22       		.uleb128 0x22
 4201 0197 8A8201   		.uleb128 0x410a
 4202 019a 00       		.byte	0
 4203 019b 02       		.uleb128 0x2
 4204 019c 18       		.uleb128 0x18
 4205 019d 9142     		.uleb128 0x2111
 4206 019f 18       		.uleb128 0x18
 4207 01a0 00       		.byte	0
 4208 01a1 00       		.byte	0
 4209 01a2 23       		.uleb128 0x23
 4210 01a3 898201   		.uleb128 0x4109
 4211 01a6 00       		.byte	0
 4212 01a7 11       		.uleb128 0x11
 4213 01a8 01       		.uleb128 0x1
 4214 01a9 31       		.uleb128 0x31
 4215 01aa 13       		.uleb128 0x13
 4216 01ab 00       		.byte	0
 4217 01ac 00       		.byte	0
 4218 01ad 24       		.uleb128 0x24
 4219 01ae 05       		.uleb128 0x5
 4220 01af 00       		.byte	0
 4221 01b0 03       		.uleb128 0x3
 4222 01b1 0E       		.uleb128 0xe
 4223 01b2 3A       		.uleb128 0x3a
 4224 01b3 0B       		.uleb128 0xb
ARM GAS  C:\Users\ikomb\AppData\Local\Temp\cc6TxH90.s 			page 107


 4225 01b4 3B       		.uleb128 0x3b
 4226 01b5 05       		.uleb128 0x5
 4227 01b6 49       		.uleb128 0x49
 4228 01b7 13       		.uleb128 0x13
 4229 01b8 02       		.uleb128 0x2
 4230 01b9 17       		.uleb128 0x17
 4231 01ba 00       		.byte	0
 4232 01bb 00       		.byte	0
 4233 01bc 25       		.uleb128 0x25
 4234 01bd 34       		.uleb128 0x34
 4235 01be 00       		.byte	0
 4236 01bf 03       		.uleb128 0x3
 4237 01c0 0E       		.uleb128 0xe
 4238 01c1 3A       		.uleb128 0x3a
 4239 01c2 0B       		.uleb128 0xb
 4240 01c3 3B       		.uleb128 0x3b
 4241 01c4 05       		.uleb128 0x5
 4242 01c5 49       		.uleb128 0x49
 4243 01c6 13       		.uleb128 0x13
 4244 01c7 02       		.uleb128 0x2
 4245 01c8 18       		.uleb128 0x18
 4246 01c9 00       		.byte	0
 4247 01ca 00       		.byte	0
 4248 01cb 26       		.uleb128 0x26
 4249 01cc 05       		.uleb128 0x5
 4250 01cd 00       		.byte	0
 4251 01ce 03       		.uleb128 0x3
 4252 01cf 0E       		.uleb128 0xe
 4253 01d0 3A       		.uleb128 0x3a
 4254 01d1 0B       		.uleb128 0xb
 4255 01d2 3B       		.uleb128 0x3b
 4256 01d3 05       		.uleb128 0x5
 4257 01d4 49       		.uleb128 0x49
 4258 01d5 13       		.uleb128 0x13
 4259 01d6 02       		.uleb128 0x2
 4260 01d7 18       		.uleb128 0x18
 4261 01d8 00       		.byte	0
 4262 01d9 00       		.byte	0
 4263 01da 27       		.uleb128 0x27
 4264 01db 2E       		.uleb128 0x2e
 4265 01dc 01       		.byte	0x1
 4266 01dd 3F       		.uleb128 0x3f
 4267 01de 19       		.uleb128 0x19
 4268 01df 03       		.uleb128 0x3
 4269 01e0 0E       		.uleb128 0xe
 4270 01e1 3A       		.uleb128 0x3a
 4271 01e2 0B       		.uleb128 0xb
 4272 01e3 3B       		.uleb128 0x3b
 4273 01e4 05       		.uleb128 0x5
 4274 01e5 27       		.uleb128 0x27
 4275 01e6 19       		.uleb128 0x19
 4276 01e7 49       		.uleb128 0x49
 4277 01e8 13       		.uleb128 0x13
 4278 01e9 11       		.uleb128 0x11
 4279 01ea 01       		.uleb128 0x1
 4280 01eb 12       		.uleb128 0x12
 4281 01ec 06       		.uleb128 0x6
ARM GAS  C:\Users\ikomb\AppData\Local\Temp\cc6TxH90.s 			page 108


 4282 01ed 40       		.uleb128 0x40
 4283 01ee 18       		.uleb128 0x18
 4284 01ef 9742     		.uleb128 0x2117
 4285 01f1 19       		.uleb128 0x19
 4286 01f2 01       		.uleb128 0x1
 4287 01f3 13       		.uleb128 0x13
 4288 01f4 00       		.byte	0
 4289 01f5 00       		.byte	0
 4290 01f6 28       		.uleb128 0x28
 4291 01f7 898201   		.uleb128 0x4109
 4292 01fa 01       		.byte	0x1
 4293 01fb 11       		.uleb128 0x11
 4294 01fc 01       		.uleb128 0x1
 4295 01fd 31       		.uleb128 0x31
 4296 01fe 13       		.uleb128 0x13
 4297 01ff 01       		.uleb128 0x1
 4298 0200 13       		.uleb128 0x13
 4299 0201 00       		.byte	0
 4300 0202 00       		.byte	0
 4301 0203 29       		.uleb128 0x29
 4302 0204 34       		.uleb128 0x34
 4303 0205 00       		.byte	0
 4304 0206 03       		.uleb128 0x3
 4305 0207 0E       		.uleb128 0xe
 4306 0208 3A       		.uleb128 0x3a
 4307 0209 0B       		.uleb128 0xb
 4308 020a 3B       		.uleb128 0x3b
 4309 020b 05       		.uleb128 0x5
 4310 020c 49       		.uleb128 0x49
 4311 020d 13       		.uleb128 0x13
 4312 020e 3F       		.uleb128 0x3f
 4313 020f 19       		.uleb128 0x19
 4314 0210 3C       		.uleb128 0x3c
 4315 0211 19       		.uleb128 0x19
 4316 0212 00       		.byte	0
 4317 0213 00       		.byte	0
 4318 0214 2A       		.uleb128 0x2a
 4319 0215 2E       		.uleb128 0x2e
 4320 0216 00       		.byte	0
 4321 0217 3F       		.uleb128 0x3f
 4322 0218 19       		.uleb128 0x19
 4323 0219 3C       		.uleb128 0x3c
 4324 021a 19       		.uleb128 0x19
 4325 021b 6E       		.uleb128 0x6e
 4326 021c 0E       		.uleb128 0xe
 4327 021d 03       		.uleb128 0x3
 4328 021e 0E       		.uleb128 0xe
 4329 021f 3A       		.uleb128 0x3a
 4330 0220 0B       		.uleb128 0xb
 4331 0221 3B       		.uleb128 0x3b
 4332 0222 0B       		.uleb128 0xb
 4333 0223 00       		.byte	0
 4334 0224 00       		.byte	0
 4335 0225 2B       		.uleb128 0x2b
 4336 0226 2E       		.uleb128 0x2e
 4337 0227 00       		.byte	0
 4338 0228 3F       		.uleb128 0x3f
ARM GAS  C:\Users\ikomb\AppData\Local\Temp\cc6TxH90.s 			page 109


 4339 0229 19       		.uleb128 0x19
 4340 022a 3C       		.uleb128 0x3c
 4341 022b 19       		.uleb128 0x19
 4342 022c 6E       		.uleb128 0x6e
 4343 022d 0E       		.uleb128 0xe
 4344 022e 03       		.uleb128 0x3
 4345 022f 0E       		.uleb128 0xe
 4346 0230 3A       		.uleb128 0x3a
 4347 0231 0B       		.uleb128 0xb
 4348 0232 3B       		.uleb128 0x3b
 4349 0233 05       		.uleb128 0x5
 4350 0234 00       		.byte	0
 4351 0235 00       		.byte	0
 4352 0236 00       		.byte	0
 4353              		.section	.debug_loc,"",%progbits
 4354              	.Ldebug_loc0:
 4355              	.LLST0:
 4356 0000 02000000 		.4byte	.LVL0
 4357 0004 06000000 		.4byte	.LVL1
 4358 0008 0200     		.2byte	0x2
 4359 000a 30       		.byte	0x30
 4360 000b 9F       		.byte	0x9f
 4361 000c 06000000 		.4byte	.LVL1
 4362 0010 22000000 		.4byte	.LVL3
 4363 0014 0100     		.2byte	0x1
 4364 0016 53       		.byte	0x53
 4365 0017 24000000 		.4byte	.LVL4
 4366 001b 86000000 		.4byte	.LVL21
 4367 001f 0100     		.2byte	0x1
 4368 0021 55       		.byte	0x55
 4369 0022 86000000 		.4byte	.LVL21
 4370 0026 88000000 		.4byte	.LVL22
 4371 002a 0100     		.2byte	0x1
 4372 002c 53       		.byte	0x53
 4373 002d 88000000 		.4byte	.LVL22
 4374 0031 8C000000 		.4byte	.LVL24
 4375 0035 0100     		.2byte	0x1
 4376 0037 55       		.byte	0x55
 4377 0038 8C000000 		.4byte	.LVL24
 4378 003c 9C000000 		.4byte	.LFE37
 4379 0040 0300     		.2byte	0x3
 4380 0042 73       		.byte	0x73
 4381 0043 7F       		.sleb128 -1
 4382 0044 9F       		.byte	0x9f
 4383 0045 00000000 		.4byte	0
 4384 0049 00000000 		.4byte	0
 4385              	.LLST1:
 4386 004d 28000000 		.4byte	.LVL6
 4387 0051 48000000 		.4byte	.LVL7
 4388 0055 0100     		.2byte	0x1
 4389 0057 52       		.byte	0x52
 4390 0058 4E000000 		.4byte	.LVL9
 4391 005c 56000000 		.4byte	.LVL10
 4392 0060 0100     		.2byte	0x1
 4393 0062 52       		.byte	0x52
 4394 0063 00000000 		.4byte	0
 4395 0067 00000000 		.4byte	0
ARM GAS  C:\Users\ikomb\AppData\Local\Temp\cc6TxH90.s 			page 110


 4396              	.LLST2:
 4397 006b 26000000 		.4byte	.LVL5
 4398 006f 5C000000 		.4byte	.LVL13
 4399 0073 0100     		.2byte	0x1
 4400 0075 56       		.byte	0x56
 4401 0076 00000000 		.4byte	0
 4402 007a 00000000 		.4byte	0
 4403              	.LLST3:
 4404 007e 24000000 		.4byte	.LVL4
 4405 0082 8C000000 		.4byte	.LVL23
 4406 0086 0100     		.2byte	0x1
 4407 0088 54       		.byte	0x54
 4408 0089 00000000 		.4byte	0
 4409 008d 00000000 		.4byte	0
 4410              	.LLST4:
 4411 0091 58000000 		.4byte	.LVL11
 4412 0095 82000000 		.4byte	.LVL19
 4413 0099 0100     		.2byte	0x1
 4414 009b 54       		.byte	0x54
 4415 009c 00000000 		.4byte	0
 4416 00a0 00000000 		.4byte	0
 4417              	.LLST5:
 4418 00a4 5A000000 		.4byte	.LVL12
 4419 00a8 5E000000 		.4byte	.LVL14
 4420 00ac 0200     		.2byte	0x2
 4421 00ae 30       		.byte	0x30
 4422 00af 9F       		.byte	0x9f
 4423 00b0 5E000000 		.4byte	.LVL14
 4424 00b4 82000000 		.4byte	.LVL19
 4425 00b8 0100     		.2byte	0x1
 4426 00ba 56       		.byte	0x56
 4427 00bb 00000000 		.4byte	0
 4428 00bf 00000000 		.4byte	0
 4429              	.LLST6:
 4430 00c3 5A000000 		.4byte	.LVL12
 4431 00c7 82000000 		.4byte	.LVL19
 4432 00cb 0100     		.2byte	0x1
 4433 00cd 57       		.byte	0x57
 4434 00ce 00000000 		.4byte	0
 4435 00d2 00000000 		.4byte	0
 4436              	.LLST7:
 4437 00d6 6E000000 		.4byte	.LVL15
 4438 00da 76000000 		.4byte	.LVL16
 4439 00de 0100     		.2byte	0x1
 4440 00e0 50       		.byte	0x50
 4441 00e1 76000000 		.4byte	.LVL16
 4442 00e5 7B000000 		.4byte	.LVL17-1
 4443 00e9 0200     		.2byte	0x2
 4444 00eb 74       		.byte	0x74
 4445 00ec 28       		.sleb128 40
 4446 00ed 00000000 		.4byte	0
 4447 00f1 00000000 		.4byte	0
 4448              	.LLST8:
 4449 00f5 00000000 		.4byte	.LVL25
 4450 00f9 08000000 		.4byte	.LVL26
 4451 00fd 0100     		.2byte	0x1
 4452 00ff 50       		.byte	0x50
ARM GAS  C:\Users\ikomb\AppData\Local\Temp\cc6TxH90.s 			page 111


 4453 0100 08000000 		.4byte	.LVL26
 4454 0104 30000000 		.4byte	.LVL32
 4455 0108 0100     		.2byte	0x1
 4456 010a 54       		.byte	0x54
 4457 010b 30000000 		.4byte	.LVL32
 4458 010f 32000000 		.4byte	.LFE44
 4459 0113 0400     		.2byte	0x4
 4460 0115 F3       		.byte	0xf3
 4461 0116 01       		.uleb128 0x1
 4462 0117 50       		.byte	0x50
 4463 0118 9F       		.byte	0x9f
 4464 0119 00000000 		.4byte	0
 4465 011d 00000000 		.4byte	0
 4466              	.LLST9:
 4467 0121 00000000 		.4byte	.LVL25
 4468 0125 0E000000 		.4byte	.LVL29
 4469 0129 0100     		.2byte	0x1
 4470 012b 51       		.byte	0x51
 4471 012c 0E000000 		.4byte	.LVL29
 4472 0130 15000000 		.4byte	.LVL30-1
 4473 0134 0100     		.2byte	0x1
 4474 0136 50       		.byte	0x50
 4475 0137 15000000 		.4byte	.LVL30-1
 4476 013b 32000000 		.4byte	.LFE44
 4477 013f 0400     		.2byte	0x4
 4478 0141 F3       		.byte	0xf3
 4479 0142 01       		.uleb128 0x1
 4480 0143 51       		.byte	0x51
 4481 0144 9F       		.byte	0x9f
 4482 0145 00000000 		.4byte	0
 4483 0149 00000000 		.4byte	0
 4484              	.LLST10:
 4485 014d 00000000 		.4byte	.LVL25
 4486 0151 0C000000 		.4byte	.LVL28
 4487 0155 0100     		.2byte	0x1
 4488 0157 52       		.byte	0x52
 4489 0158 0C000000 		.4byte	.LVL28
 4490 015c 15000000 		.4byte	.LVL30-1
 4491 0160 0100     		.2byte	0x1
 4492 0162 53       		.byte	0x53
 4493 0163 15000000 		.4byte	.LVL30-1
 4494 0167 32000000 		.4byte	.LFE44
 4495 016b 0400     		.2byte	0x4
 4496 016d F3       		.byte	0xf3
 4497 016e 01       		.uleb128 0x1
 4498 016f 52       		.byte	0x52
 4499 0170 9F       		.byte	0x9f
 4500 0171 00000000 		.4byte	0
 4501 0175 00000000 		.4byte	0
 4502              	.LLST11:
 4503 0179 0A000000 		.4byte	.LVL27
 4504 017d 30000000 		.4byte	.LVL31
 4505 0181 0100     		.2byte	0x1
 4506 0183 5D       		.byte	0x5d
 4507 0184 30000000 		.4byte	.LVL31
 4508 0188 32000000 		.4byte	.LFE44
 4509 018c 0300     		.2byte	0x3
ARM GAS  C:\Users\ikomb\AppData\Local\Temp\cc6TxH90.s 			page 112


 4510 018e 91       		.byte	0x91
 4511 018f 70       		.sleb128 -16
 4512 0190 9F       		.byte	0x9f
 4513 0191 00000000 		.4byte	0
 4514 0195 00000000 		.4byte	0
 4515              	.LLST12:
 4516 0199 00000000 		.4byte	.LVL33
 4517 019d 0E000000 		.4byte	.LVL36
 4518 01a1 0100     		.2byte	0x1
 4519 01a3 50       		.byte	0x50
 4520 01a4 0E000000 		.4byte	.LVL36
 4521 01a8 16000000 		.4byte	.LFE45
 4522 01ac 0400     		.2byte	0x4
 4523 01ae F3       		.byte	0xf3
 4524 01af 01       		.uleb128 0x1
 4525 01b0 50       		.byte	0x50
 4526 01b1 9F       		.byte	0x9f
 4527 01b2 00000000 		.4byte	0
 4528 01b6 00000000 		.4byte	0
 4529              	.LLST13:
 4530 01ba 02000000 		.4byte	.LVL34
 4531 01be 08000000 		.4byte	.LVL35
 4532 01c2 0200     		.2byte	0x2
 4533 01c4 30       		.byte	0x30
 4534 01c5 9F       		.byte	0x9f
 4535 01c6 08000000 		.4byte	.LVL35
 4536 01ca 14000000 		.4byte	.LVL37
 4537 01ce 0100     		.2byte	0x1
 4538 01d0 54       		.byte	0x54
 4539 01d1 14000000 		.4byte	.LVL37
 4540 01d5 16000000 		.4byte	.LFE45
 4541 01d9 0600     		.2byte	0x6
 4542 01db 73       		.byte	0x73
 4543 01dc 00       		.sleb128 0
 4544 01dd 72       		.byte	0x72
 4545 01de 00       		.sleb128 0
 4546 01df 1C       		.byte	0x1c
 4547 01e0 9F       		.byte	0x9f
 4548 01e1 00000000 		.4byte	0
 4549 01e5 00000000 		.4byte	0
 4550              	.LLST14:
 4551 01e9 00000000 		.4byte	.LVL38
 4552 01ed 16000000 		.4byte	.LVL46
 4553 01f1 0100     		.2byte	0x1
 4554 01f3 50       		.byte	0x50
 4555 01f4 16000000 		.4byte	.LVL46
 4556 01f8 46000000 		.4byte	.LFE38
 4557 01fc 0400     		.2byte	0x4
 4558 01fe F3       		.byte	0xf3
 4559 01ff 01       		.uleb128 0x1
 4560 0200 50       		.byte	0x50
 4561 0201 9F       		.byte	0x9f
 4562 0202 00000000 		.4byte	0
 4563 0206 00000000 		.4byte	0
 4564              	.LLST15:
 4565 020a 04000000 		.4byte	.LVL39
 4566 020e 16000000 		.4byte	.LVL46
ARM GAS  C:\Users\ikomb\AppData\Local\Temp\cc6TxH90.s 			page 113


 4567 0212 0200     		.2byte	0x2
 4568 0214 30       		.byte	0x30
 4569 0215 9F       		.byte	0x9f
 4570 0216 16000000 		.4byte	.LVL46
 4571 021a 2C000000 		.4byte	.LVL50
 4572 021e 0200     		.2byte	0x2
 4573 0220 91       		.byte	0x91
 4574 0221 64       		.sleb128 -28
 4575 0222 2C000000 		.4byte	.LVL50
 4576 0226 30000000 		.4byte	.LVL51
 4577 022a 0100     		.2byte	0x1
 4578 022c 50       		.byte	0x50
 4579 022d 30000000 		.4byte	.LVL51
 4580 0231 46000000 		.4byte	.LFE38
 4581 0235 0200     		.2byte	0x2
 4582 0237 91       		.byte	0x91
 4583 0238 64       		.sleb128 -28
 4584 0239 00000000 		.4byte	0
 4585 023d 00000000 		.4byte	0
 4586              	.LLST16:
 4587 0241 10000000 		.4byte	.LVL44
 4588 0245 12000000 		.4byte	.LVL45
 4589 0249 0100     		.2byte	0x1
 4590 024b 52       		.byte	0x52
 4591 024c 12000000 		.4byte	.LVL45
 4592 0250 44000000 		.4byte	.LVL57
 4593 0254 0200     		.2byte	0x2
 4594 0256 7D       		.byte	0x7d
 4595 0257 00       		.sleb128 0
 4596 0258 44000000 		.4byte	.LVL57
 4597 025c 46000000 		.4byte	.LFE38
 4598 0260 0200     		.2byte	0x2
 4599 0262 91       		.byte	0x91
 4600 0263 60       		.sleb128 -32
 4601 0264 00000000 		.4byte	0
 4602 0268 00000000 		.4byte	0
 4603              	.LLST17:
 4604 026c 0A000000 		.4byte	.LVL42
 4605 0270 16000000 		.4byte	.LVL46
 4606 0274 0100     		.2byte	0x1
 4607 0276 53       		.byte	0x53
 4608 0277 16000000 		.4byte	.LVL46
 4609 027b 3A000000 		.4byte	.LVL55
 4610 027f 0100     		.2byte	0x1
 4611 0281 55       		.byte	0x55
 4612 0282 3A000000 		.4byte	.LVL55
 4613 0286 3C000000 		.4byte	.LVL56
 4614 028a 0100     		.2byte	0x1
 4615 028c 53       		.byte	0x53
 4616 028d 3C000000 		.4byte	.LVL56
 4617 0291 44000000 		.4byte	.LVL59
 4618 0295 0100     		.2byte	0x1
 4619 0297 55       		.byte	0x55
 4620 0298 44000000 		.4byte	.LVL59
 4621 029c 46000000 		.4byte	.LFE38
 4622 02a0 0300     		.2byte	0x3
 4623 02a2 73       		.byte	0x73
ARM GAS  C:\Users\ikomb\AppData\Local\Temp\cc6TxH90.s 			page 114


 4624 02a3 7F       		.sleb128 -1
 4625 02a4 9F       		.byte	0x9f
 4626 02a5 00000000 		.4byte	0
 4627 02a9 00000000 		.4byte	0
 4628              	.LLST18:
 4629 02ad 08000000 		.4byte	.LVL41
 4630 02b1 44000000 		.4byte	.LVL58
 4631 02b5 0100     		.2byte	0x1
 4632 02b7 54       		.byte	0x54
 4633 02b8 00000000 		.4byte	0
 4634 02bc 00000000 		.4byte	0
 4635              	.LLST19:
 4636 02c0 0C000000 		.4byte	.LVL43
 4637 02c4 44000000 		.4byte	.LVL60
 4638 02c8 0100     		.2byte	0x1
 4639 02ca 56       		.byte	0x56
 4640 02cb 00000000 		.4byte	0
 4641 02cf 00000000 		.4byte	0
 4642              	.LLST20:
 4643 02d3 1A000000 		.4byte	.LVL47
 4644 02d7 38000000 		.4byte	.LVL54
 4645 02db 0100     		.2byte	0x1
 4646 02dd 57       		.byte	0x57
 4647 02de 00000000 		.4byte	0
 4648 02e2 00000000 		.4byte	0
 4649              	.LLST21:
 4650 02e6 00000000 		.4byte	.LVL61
 4651 02ea 16000000 		.4byte	.LVL67
 4652 02ee 0100     		.2byte	0x1
 4653 02f0 50       		.byte	0x50
 4654 02f1 16000000 		.4byte	.LVL67
 4655 02f5 40000000 		.4byte	.LFE39
 4656 02f9 0400     		.2byte	0x4
 4657 02fb F3       		.byte	0xf3
 4658 02fc 01       		.uleb128 0x1
 4659 02fd 50       		.byte	0x50
 4660 02fe 9F       		.byte	0x9f
 4661 02ff 00000000 		.4byte	0
 4662 0303 00000000 		.4byte	0
 4663              	.LLST22:
 4664 0307 00000000 		.4byte	.LVL61
 4665 030b 19000000 		.4byte	.LVL68-1
 4666 030f 0100     		.2byte	0x1
 4667 0311 51       		.byte	0x51
 4668 0312 19000000 		.4byte	.LVL68-1
 4669 0316 3E000000 		.4byte	.LVL77
 4670 031a 0100     		.2byte	0x1
 4671 031c 56       		.byte	0x56
 4672 031d 3E000000 		.4byte	.LVL77
 4673 0321 40000000 		.4byte	.LFE39
 4674 0325 0400     		.2byte	0x4
 4675 0327 F3       		.byte	0xf3
 4676 0328 01       		.uleb128 0x1
 4677 0329 51       		.byte	0x51
 4678 032a 9F       		.byte	0x9f
 4679 032b 00000000 		.4byte	0
 4680 032f 00000000 		.4byte	0
ARM GAS  C:\Users\ikomb\AppData\Local\Temp\cc6TxH90.s 			page 115


 4681              	.LLST23:
 4682 0333 00000000 		.4byte	.LVL61
 4683 0337 14000000 		.4byte	.LVL66
 4684 033b 0100     		.2byte	0x1
 4685 033d 52       		.byte	0x52
 4686 033e 1A000000 		.4byte	.LVL68
 4687 0342 20000000 		.4byte	.LVL69
 4688 0346 0100     		.2byte	0x1
 4689 0348 52       		.byte	0x52
 4690 0349 2C000000 		.4byte	.LVL72
 4691 034d 39000000 		.4byte	.LVL74-1
 4692 0351 0100     		.2byte	0x1
 4693 0353 52       		.byte	0x52
 4694 0354 3A000000 		.4byte	.LVL74
 4695 0358 40000000 		.4byte	.LFE39
 4696 035c 0100     		.2byte	0x1
 4697 035e 52       		.byte	0x52
 4698 035f 00000000 		.4byte	0
 4699 0363 00000000 		.4byte	0
 4700              	.LLST24:
 4701 0367 00000000 		.4byte	.LVL61
 4702 036b 12000000 		.4byte	.LVL65
 4703 036f 0100     		.2byte	0x1
 4704 0371 53       		.byte	0x53
 4705 0372 12000000 		.4byte	.LVL65
 4706 0376 3E000000 		.4byte	.LVL75
 4707 037a 0100     		.2byte	0x1
 4708 037c 54       		.byte	0x54
 4709 037d 3E000000 		.4byte	.LVL75
 4710 0381 40000000 		.4byte	.LFE39
 4711 0385 0400     		.2byte	0x4
 4712 0387 F3       		.byte	0xf3
 4713 0388 01       		.uleb128 0x1
 4714 0389 53       		.byte	0x53
 4715 038a 9F       		.byte	0x9f
 4716 038b 00000000 		.4byte	0
 4717 038f 00000000 		.4byte	0
 4718              	.LLST25:
 4719 0393 0A000000 		.4byte	.LVL62
 4720 0397 2A000000 		.4byte	.LVL71
 4721 039b 0200     		.2byte	0x2
 4722 039d 30       		.byte	0x30
 4723 039e 9F       		.byte	0x9f
 4724 039f 2A000000 		.4byte	.LVL71
 4725 03a3 2C000000 		.4byte	.LVL72
 4726 03a7 0100     		.2byte	0x1
 4727 03a9 50       		.byte	0x50
 4728 03aa 2C000000 		.4byte	.LVL72
 4729 03ae 2E000000 		.4byte	.LVL73
 4730 03b2 0200     		.2byte	0x2
 4731 03b4 30       		.byte	0x30
 4732 03b5 9F       		.byte	0x9f
 4733 03b6 2E000000 		.4byte	.LVL73
 4734 03ba 3E000000 		.4byte	.LVL76
 4735 03be 0100     		.2byte	0x1
 4736 03c0 55       		.byte	0x55
 4737 03c1 3E000000 		.4byte	.LVL76
ARM GAS  C:\Users\ikomb\AppData\Local\Temp\cc6TxH90.s 			page 116


 4738 03c5 40000000 		.4byte	.LFE39
 4739 03c9 0100     		.2byte	0x1
 4740 03cb 50       		.byte	0x50
 4741 03cc 00000000 		.4byte	0
 4742 03d0 00000000 		.4byte	0
 4743              	.LLST26:
 4744 03d4 0C000000 		.4byte	.LVL63
 4745 03d8 2A000000 		.4byte	.LVL71
 4746 03dc 0100     		.2byte	0x1
 4747 03de 55       		.byte	0x55
 4748 03df 2C000000 		.4byte	.LVL72
 4749 03e3 2E000000 		.4byte	.LVL73
 4750 03e7 0100     		.2byte	0x1
 4751 03e9 55       		.byte	0x55
 4752 03ea 00000000 		.4byte	0
 4753 03ee 00000000 		.4byte	0
 4754              	.LLST27:
 4755 03f2 0E000000 		.4byte	.LVL64
 4756 03f6 3E000000 		.4byte	.LVL78
 4757 03fa 0100     		.2byte	0x1
 4758 03fc 57       		.byte	0x57
 4759 03fd 00000000 		.4byte	0
 4760 0401 00000000 		.4byte	0
 4761              	.LLST28:
 4762 0405 00000000 		.4byte	.LVL79
 4763 0409 36000000 		.4byte	.LVL88
 4764 040d 0100     		.2byte	0x1
 4765 040f 50       		.byte	0x50
 4766 0410 36000000 		.4byte	.LVL88
 4767 0414 86000000 		.4byte	.LVL108
 4768 0418 0100     		.2byte	0x1
 4769 041a 5A       		.byte	0x5a
 4770 041b 86000000 		.4byte	.LVL108
 4771 041f 90000000 		.4byte	.LFE41
 4772 0423 0400     		.2byte	0x4
 4773 0425 F3       		.byte	0xf3
 4774 0426 01       		.uleb128 0x1
 4775 0427 50       		.byte	0x50
 4776 0428 9F       		.byte	0x9f
 4777 0429 00000000 		.4byte	0
 4778 042d 00000000 		.4byte	0
 4779              	.LLST29:
 4780 0431 0E000000 		.4byte	.LVL80
 4781 0435 36000000 		.4byte	.LVL88
 4782 0439 0200     		.2byte	0x2
 4783 043b 30       		.byte	0x30
 4784 043c 9F       		.byte	0x9f
 4785 043d 36000000 		.4byte	.LVL88
 4786 0441 62000000 		.4byte	.LVL94
 4787 0445 0200     		.2byte	0x2
 4788 0447 91       		.byte	0x91
 4789 0448 5C       		.sleb128 -36
 4790 0449 62000000 		.4byte	.LVL94
 4791 044d 66000000 		.4byte	.LVL95
 4792 0451 0100     		.2byte	0x1
 4793 0453 50       		.byte	0x50
 4794 0454 66000000 		.4byte	.LVL95
ARM GAS  C:\Users\ikomb\AppData\Local\Temp\cc6TxH90.s 			page 117


 4795 0458 90000000 		.4byte	.LFE41
 4796 045c 0200     		.2byte	0x2
 4797 045e 91       		.byte	0x91
 4798 045f 5C       		.sleb128 -36
 4799 0460 00000000 		.4byte	0
 4800 0464 00000000 		.4byte	0
 4801              	.LLST30:
 4802 0468 2C000000 		.4byte	.LVL86
 4803 046c 86000000 		.4byte	.LVL102
 4804 0470 0200     		.2byte	0x2
 4805 0472 7D       		.byte	0x7d
 4806 0473 00       		.sleb128 0
 4807 0474 86000000 		.4byte	.LVL102
 4808 0478 90000000 		.4byte	.LFE41
 4809 047c 0200     		.2byte	0x2
 4810 047e 91       		.byte	0x91
 4811 047f 58       		.sleb128 -40
 4812 0480 00000000 		.4byte	0
 4813 0484 00000000 		.4byte	0
 4814              	.LLST31:
 4815 0488 2E000000 		.4byte	.LVL87
 4816 048c 36000000 		.4byte	.LVL88
 4817 0490 0200     		.2byte	0x2
 4818 0492 30       		.byte	0x30
 4819 0493 9F       		.byte	0x9f
 4820 0494 36000000 		.4byte	.LVL88
 4821 0498 86000000 		.4byte	.LVL104
 4822 049c 0100     		.2byte	0x1
 4823 049e 55       		.byte	0x55
 4824 049f 00000000 		.4byte	0
 4825 04a3 00000000 		.4byte	0
 4826              	.LLST32:
 4827 04a7 28000000 		.4byte	.LVL84
 4828 04ab 86000000 		.4byte	.LVL103
 4829 04af 0100     		.2byte	0x1
 4830 04b1 54       		.byte	0x54
 4831 04b2 00000000 		.4byte	0
 4832 04b6 00000000 		.4byte	0
 4833              	.LLST33:
 4834 04ba 2A000000 		.4byte	.LVL85
 4835 04be 86000000 		.4byte	.LVL105
 4836 04c2 0100     		.2byte	0x1
 4837 04c4 56       		.byte	0x56
 4838 04c5 00000000 		.4byte	0
 4839 04c9 00000000 		.4byte	0
 4840              	.LLST34:
 4841 04cd 2E000000 		.4byte	.LVL87
 4842 04d1 86000000 		.4byte	.LVL106
 4843 04d5 0100     		.2byte	0x1
 4844 04d7 57       		.byte	0x57
 4845 04d8 00000000 		.4byte	0
 4846 04dc 00000000 		.4byte	0
 4847              	.LLST35:
 4848 04e0 22000000 		.4byte	.LVL82
 4849 04e4 26000000 		.4byte	.LVL83
 4850 04e8 0100     		.2byte	0x1
 4851 04ea 52       		.byte	0x52
ARM GAS  C:\Users\ikomb\AppData\Local\Temp\cc6TxH90.s 			page 118


 4852 04eb 36000000 		.4byte	.LVL88
 4853 04ef 86000000 		.4byte	.LVL107
 4854 04f3 0100     		.2byte	0x1
 4855 04f5 59       		.byte	0x59
 4856 04f6 00000000 		.4byte	0
 4857 04fa 00000000 		.4byte	0
 4858              	.LLST36:
 4859 04fe 1E000000 		.4byte	.LVL81
 4860 0502 72000000 		.4byte	.LVL98
 4861 0506 0100     		.2byte	0x1
 4862 0508 5B       		.byte	0x5b
 4863 0509 72000000 		.4byte	.LVL98
 4864 050d 74000000 		.4byte	.LVL99
 4865 0511 0100     		.2byte	0x1
 4866 0513 53       		.byte	0x53
 4867 0514 74000000 		.4byte	.LVL99
 4868 0518 86000000 		.4byte	.LVL109
 4869 051c 0100     		.2byte	0x1
 4870 051e 5B       		.byte	0x5b
 4871 051f 00000000 		.4byte	0
 4872 0523 00000000 		.4byte	0
 4873              	.LLST37:
 4874 0527 00000000 		.4byte	.LVL110
 4875 052b 18000000 		.4byte	.LVL117
 4876 052f 0100     		.2byte	0x1
 4877 0531 50       		.byte	0x50
 4878 0532 18000000 		.4byte	.LVL117
 4879 0536 60000000 		.4byte	.LFE42
 4880 053a 0400     		.2byte	0x4
 4881 053c F3       		.byte	0xf3
 4882 053d 01       		.uleb128 0x1
 4883 053e 50       		.byte	0x50
 4884 053f 9F       		.byte	0x9f
 4885 0540 00000000 		.4byte	0
 4886 0544 00000000 		.4byte	0
 4887              	.LLST38:
 4888 0548 00000000 		.4byte	.LVL110
 4889 054c 1B000000 		.4byte	.LVL118-1
 4890 0550 0100     		.2byte	0x1
 4891 0552 51       		.byte	0x51
 4892 0553 1B000000 		.4byte	.LVL118-1
 4893 0557 5E000000 		.4byte	.LVL129
 4894 055b 0200     		.2byte	0x2
 4895 055d 7D       		.byte	0x7d
 4896 055e 00       		.sleb128 0
 4897 055f 5E000000 		.4byte	.LVL129
 4898 0563 60000000 		.4byte	.LFE42
 4899 0567 0200     		.2byte	0x2
 4900 0569 91       		.byte	0x91
 4901 056a 60       		.sleb128 -32
 4902 056b 00000000 		.4byte	0
 4903 056f 00000000 		.4byte	0
 4904              	.LLST39:
 4905 0573 00000000 		.4byte	.LVL110
 4906 0577 16000000 		.4byte	.LVL116
 4907 057b 0100     		.2byte	0x1
 4908 057d 52       		.byte	0x52
ARM GAS  C:\Users\ikomb\AppData\Local\Temp\cc6TxH90.s 			page 119


 4909 057e 1C000000 		.4byte	.LVL118
 4910 0582 28000000 		.4byte	.LVL119
 4911 0586 0100     		.2byte	0x1
 4912 0588 52       		.byte	0x52
 4913 0589 2C000000 		.4byte	.LVL120
 4914 058d 32000000 		.4byte	.LVL121
 4915 0591 0100     		.2byte	0x1
 4916 0593 52       		.byte	0x52
 4917 0594 3A000000 		.4byte	.LVL122
 4918 0598 40000000 		.4byte	.LVL123
 4919 059c 0100     		.2byte	0x1
 4920 059e 52       		.byte	0x52
 4921 059f 4C000000 		.4byte	.LVL126
 4922 05a3 59000000 		.4byte	.LVL128-1
 4923 05a7 0100     		.2byte	0x1
 4924 05a9 52       		.byte	0x52
 4925 05aa 5A000000 		.4byte	.LVL128
 4926 05ae 60000000 		.4byte	.LFE42
 4927 05b2 0100     		.2byte	0x1
 4928 05b4 52       		.byte	0x52
 4929 05b5 00000000 		.4byte	0
 4930 05b9 00000000 		.4byte	0
 4931              	.LLST40:
 4932 05bd 00000000 		.4byte	.LVL110
 4933 05c1 14000000 		.4byte	.LVL115
 4934 05c5 0100     		.2byte	0x1
 4935 05c7 53       		.byte	0x53
 4936 05c8 14000000 		.4byte	.LVL115
 4937 05cc 5E000000 		.4byte	.LVL130
 4938 05d0 0100     		.2byte	0x1
 4939 05d2 54       		.byte	0x54
 4940 05d3 5E000000 		.4byte	.LVL130
 4941 05d7 60000000 		.4byte	.LFE42
 4942 05db 0400     		.2byte	0x4
 4943 05dd F3       		.byte	0xf3
 4944 05de 01       		.uleb128 0x1
 4945 05df 53       		.byte	0x53
 4946 05e0 9F       		.byte	0x9f
 4947 05e1 00000000 		.4byte	0
 4948 05e5 00000000 		.4byte	0
 4949              	.LLST41:
 4950 05e9 0A000000 		.4byte	.LVL111
 4951 05ed 4A000000 		.4byte	.LVL125
 4952 05f1 0200     		.2byte	0x2
 4953 05f3 30       		.byte	0x30
 4954 05f4 9F       		.byte	0x9f
 4955 05f5 4A000000 		.4byte	.LVL125
 4956 05f9 4C000000 		.4byte	.LVL126
 4957 05fd 0100     		.2byte	0x1
 4958 05ff 50       		.byte	0x50
 4959 0600 4C000000 		.4byte	.LVL126
 4960 0604 4E000000 		.4byte	.LVL127
 4961 0608 0200     		.2byte	0x2
 4962 060a 30       		.byte	0x30
 4963 060b 9F       		.byte	0x9f
 4964 060c 4E000000 		.4byte	.LVL127
 4965 0610 5E000000 		.4byte	.LVL133
ARM GAS  C:\Users\ikomb\AppData\Local\Temp\cc6TxH90.s 			page 120


 4966 0614 0100     		.2byte	0x1
 4967 0616 57       		.byte	0x57
 4968 0617 5E000000 		.4byte	.LVL133
 4969 061b 60000000 		.4byte	.LFE42
 4970 061f 0100     		.2byte	0x1
 4971 0621 50       		.byte	0x50
 4972 0622 00000000 		.4byte	0
 4973 0626 00000000 		.4byte	0
 4974              	.LLST42:
 4975 062a 0E000000 		.4byte	.LVL113
 4976 062e 4A000000 		.4byte	.LVL125
 4977 0632 0100     		.2byte	0x1
 4978 0634 57       		.byte	0x57
 4979 0635 4C000000 		.4byte	.LVL126
 4980 0639 4E000000 		.4byte	.LVL127
 4981 063d 0100     		.2byte	0x1
 4982 063f 57       		.byte	0x57
 4983 0640 00000000 		.4byte	0
 4984 0644 00000000 		.4byte	0
 4985              	.LLST43:
 4986 0648 10000000 		.4byte	.LVL114
 4987 064c 5E000000 		.4byte	.LVL131
 4988 0650 0100     		.2byte	0x1
 4989 0652 55       		.byte	0x55
 4990 0653 00000000 		.4byte	0
 4991 0657 00000000 		.4byte	0
 4992              	.LLST44:
 4993 065b 0C000000 		.4byte	.LVL112
 4994 065f 5E000000 		.4byte	.LVL132
 4995 0663 0100     		.2byte	0x1
 4996 0665 56       		.byte	0x56
 4997 0666 00000000 		.4byte	0
 4998 066a 00000000 		.4byte	0
 4999              	.LLST45:
 5000 066e 00000000 		.4byte	.LVL134
 5001 0672 44000000 		.4byte	.LVL146
 5002 0676 0100     		.2byte	0x1
 5003 0678 50       		.byte	0x50
 5004 0679 44000000 		.4byte	.LVL146
 5005 067d 64000000 		.4byte	.LFE46
 5006 0681 0100     		.2byte	0x1
 5007 0683 50       		.byte	0x50
 5008 0684 00000000 		.4byte	0
 5009 0688 00000000 		.4byte	0
 5010              	.LLST46:
 5011 068c 00000000 		.4byte	.LVL134
 5012 0690 0C000000 		.4byte	.LVL139
 5013 0694 0100     		.2byte	0x1
 5014 0696 51       		.byte	0x51
 5015 0697 0C000000 		.4byte	.LVL139
 5016 069b 64000000 		.4byte	.LFE46
 5017 069f 0400     		.2byte	0x4
 5018 06a1 F3       		.byte	0xf3
 5019 06a2 01       		.uleb128 0x1
 5020 06a3 51       		.byte	0x51
 5021 06a4 9F       		.byte	0x9f
 5022 06a5 00000000 		.4byte	0
ARM GAS  C:\Users\ikomb\AppData\Local\Temp\cc6TxH90.s 			page 121


 5023 06a9 00000000 		.4byte	0
 5024              	.LLST47:
 5025 06ad 04000000 		.4byte	.LVL135
 5026 06b1 0E000000 		.4byte	.LVL140
 5027 06b5 0100     		.2byte	0x1
 5028 06b7 52       		.byte	0x52
 5029 06b8 0E000000 		.4byte	.LVL140
 5030 06bc 10000000 		.4byte	.LVL141
 5031 06c0 0100     		.2byte	0x1
 5032 06c2 54       		.byte	0x54
 5033 06c3 10000000 		.4byte	.LVL141
 5034 06c7 5A000000 		.4byte	.LVL154
 5035 06cb 0100     		.2byte	0x1
 5036 06cd 5C       		.byte	0x5c
 5037 06ce 5A000000 		.4byte	.LVL154
 5038 06d2 5E000000 		.4byte	.LVL155
 5039 06d6 0100     		.2byte	0x1
 5040 06d8 52       		.byte	0x52
 5041 06d9 5E000000 		.4byte	.LVL155
 5042 06dd 62000000 		.4byte	.LVL156
 5043 06e1 0100     		.2byte	0x1
 5044 06e3 54       		.byte	0x54
 5045 06e4 62000000 		.4byte	.LVL156
 5046 06e8 64000000 		.4byte	.LFE46
 5047 06ec 0100     		.2byte	0x1
 5048 06ee 5C       		.byte	0x5c
 5049 06ef 00000000 		.4byte	0
 5050 06f3 00000000 		.4byte	0
 5051              	.LLST48:
 5052 06f7 0A000000 		.4byte	.LVL138
 5053 06fb 0E000000 		.4byte	.LVL140
 5054 06ff 0200     		.2byte	0x2
 5055 0701 31       		.byte	0x31
 5056 0702 9F       		.byte	0x9f
 5057 0703 0E000000 		.4byte	.LVL140
 5058 0707 64000000 		.4byte	.LFE46
 5059 070b 0100     		.2byte	0x1
 5060 070d 51       		.byte	0x51
 5061 070e 00000000 		.4byte	0
 5062 0712 00000000 		.4byte	0
 5063              	.LLST49:
 5064 0716 2E000000 		.4byte	.LVL145
 5065 071a 4C000000 		.4byte	.LVL148
 5066 071e 0100     		.2byte	0x1
 5067 0720 52       		.byte	0x52
 5068 0721 4E000000 		.4byte	.LVL149
 5069 0725 50000000 		.4byte	.LVL150
 5070 0729 0100     		.2byte	0x1
 5071 072b 52       		.byte	0x52
 5072 072c 00000000 		.4byte	0
 5073 0730 00000000 		.4byte	0
 5074              	.LLST50:
 5075 0734 22000000 		.4byte	.LVL142
 5076 0738 2A000000 		.4byte	.LVL143
 5077 073c 0100     		.2byte	0x1
 5078 073e 52       		.byte	0x52
 5079 073f 2C000000 		.4byte	.LVL144
ARM GAS  C:\Users\ikomb\AppData\Local\Temp\cc6TxH90.s 			page 122


 5080 0743 2E000000 		.4byte	.LVL145
 5081 0747 0100     		.2byte	0x1
 5082 0749 52       		.byte	0x52
 5083 074a 00000000 		.4byte	0
 5084 074e 00000000 		.4byte	0
 5085              	.LLST51:
 5086 0752 06000000 		.4byte	.LVL136
 5087 0756 62000000 		.4byte	.LVL157
 5088 075a 0100     		.2byte	0x1
 5089 075c 55       		.byte	0x55
 5090 075d 00000000 		.4byte	0
 5091 0761 00000000 		.4byte	0
 5092              	.LLST52:
 5093 0765 08000000 		.4byte	.LVL137
 5094 0769 62000000 		.4byte	.LVL158
 5095 076d 0100     		.2byte	0x1
 5096 076f 57       		.byte	0x57
 5097 0770 00000000 		.4byte	0
 5098 0774 00000000 		.4byte	0
 5099              	.LLST53:
 5100 0778 00000000 		.4byte	.LVL159
 5101 077c 12000000 		.4byte	.LVL162
 5102 0780 0100     		.2byte	0x1
 5103 0782 50       		.byte	0x50
 5104 0783 12000000 		.4byte	.LVL162
 5105 0787 1A000000 		.4byte	.LVL165
 5106 078b 0100     		.2byte	0x1
 5107 078d 54       		.byte	0x54
 5108 078e 1A000000 		.4byte	.LVL165
 5109 0792 20000000 		.4byte	.LVL167
 5110 0796 0100     		.2byte	0x1
 5111 0798 50       		.byte	0x50
 5112 0799 20000000 		.4byte	.LVL167
 5113 079d 30000000 		.4byte	.LVL170
 5114 07a1 0100     		.2byte	0x1
 5115 07a3 54       		.byte	0x54
 5116 07a4 30000000 		.4byte	.LVL170
 5117 07a8 60000000 		.4byte	.LFE40
 5118 07ac 0400     		.2byte	0x4
 5119 07ae F3       		.byte	0xf3
 5120 07af 01       		.uleb128 0x1
 5121 07b0 50       		.byte	0x50
 5122 07b1 9F       		.byte	0x9f
 5123 07b2 00000000 		.4byte	0
 5124 07b6 00000000 		.4byte	0
 5125              	.LLST54:
 5126 07ba 00000000 		.4byte	.LVL159
 5127 07be 15000000 		.4byte	.LVL163-1
 5128 07c2 0100     		.2byte	0x1
 5129 07c4 51       		.byte	0x51
 5130 07c5 15000000 		.4byte	.LVL163-1
 5131 07c9 1A000000 		.4byte	.LVL165
 5132 07cd 0400     		.2byte	0x4
 5133 07cf F3       		.byte	0xf3
 5134 07d0 01       		.uleb128 0x1
 5135 07d1 51       		.byte	0x51
 5136 07d2 9F       		.byte	0x9f
ARM GAS  C:\Users\ikomb\AppData\Local\Temp\cc6TxH90.s 			page 123


 5137 07d3 1A000000 		.4byte	.LVL165
 5138 07d7 1C000000 		.4byte	.LVL166
 5139 07db 0100     		.2byte	0x1
 5140 07dd 51       		.byte	0x51
 5141 07de 1C000000 		.4byte	.LVL166
 5142 07e2 60000000 		.4byte	.LFE40
 5143 07e6 0400     		.2byte	0x4
 5144 07e8 F3       		.byte	0xf3
 5145 07e9 01       		.uleb128 0x1
 5146 07ea 51       		.byte	0x51
 5147 07eb 9F       		.byte	0x9f
 5148 07ec 00000000 		.4byte	0
 5149 07f0 00000000 		.4byte	0
 5150              	.LLST55:
 5151 07f4 0C000000 		.4byte	.LVL161
 5152 07f8 18000000 		.4byte	.LVL164
 5153 07fc 0100     		.2byte	0x1
 5154 07fe 55       		.byte	0x55
 5155 07ff 18000000 		.4byte	.LVL164
 5156 0803 1A000000 		.4byte	.LVL165
 5157 0807 0100     		.2byte	0x1
 5158 0809 50       		.byte	0x50
 5159 080a 1A000000 		.4byte	.LVL165
 5160 080e 56000000 		.4byte	.LVL179
 5161 0812 0100     		.2byte	0x1
 5162 0814 55       		.byte	0x55
 5163 0815 00000000 		.4byte	0
 5164 0819 00000000 		.4byte	0
 5165              	.LLST56:
 5166 081d 2C000000 		.4byte	.LVL169
 5167 0821 3A000000 		.4byte	.LVL172
 5168 0825 0100     		.2byte	0x1
 5169 0827 53       		.byte	0x53
 5170 0828 3A000000 		.4byte	.LVL172
 5171 082c 3C000000 		.4byte	.LVL173
 5172 0830 0300     		.2byte	0x3
 5173 0832 73       		.byte	0x73
 5174 0833 7C       		.sleb128 -4
 5175 0834 9F       		.byte	0x9f
 5176 0835 3C000000 		.4byte	.LVL173
 5177 0839 48000000 		.4byte	.LVL174
 5178 083d 0600     		.2byte	0x6
 5179 083f F3       		.byte	0xf3
 5180 0840 01       		.uleb128 0x1
 5181 0841 50       		.byte	0x50
 5182 0842 35       		.byte	0x35
 5183 0843 25       		.byte	0x25
 5184 0844 9F       		.byte	0x9f
 5185 0845 48000000 		.4byte	.LVL174
 5186 0849 4A000000 		.4byte	.LVL175
 5187 084d 0100     		.2byte	0x1
 5188 084f 53       		.byte	0x53
 5189 0850 4A000000 		.4byte	.LVL175
 5190 0854 4C000000 		.4byte	.LVL176
 5191 0858 0300     		.2byte	0x3
 5192 085a 73       		.byte	0x73
 5193 085b 7C       		.sleb128 -4
ARM GAS  C:\Users\ikomb\AppData\Local\Temp\cc6TxH90.s 			page 124


 5194 085c 9F       		.byte	0x9f
 5195 085d 4C000000 		.4byte	.LVL176
 5196 0861 60000000 		.4byte	.LFE40
 5197 0865 0600     		.2byte	0x6
 5198 0867 F3       		.byte	0xf3
 5199 0868 01       		.uleb128 0x1
 5200 0869 50       		.byte	0x50
 5201 086a 35       		.byte	0x35
 5202 086b 25       		.byte	0x25
 5203 086c 9F       		.byte	0x9f
 5204 086d 00000000 		.4byte	0
 5205 0871 00000000 		.4byte	0
 5206              	.LLST57:
 5207 0875 34000000 		.4byte	.LVL171
 5208 0879 54000000 		.4byte	.LVL177
 5209 087d 0100     		.2byte	0x1
 5210 087f 52       		.byte	0x52
 5211 0880 54000000 		.4byte	.LVL177
 5212 0884 56000000 		.4byte	.LVL178
 5213 0888 0500     		.2byte	0x5
 5214 088a 31       		.byte	0x31
 5215 088b 74       		.byte	0x74
 5216 088c 00       		.sleb128 0
 5217 088d 24       		.byte	0x24
 5218 088e 9F       		.byte	0x9f
 5219 088f 56000000 		.4byte	.LVL178
 5220 0893 60000000 		.4byte	.LFE40
 5221 0897 0800     		.2byte	0x8
 5222 0899 31       		.byte	0x31
 5223 089a F3       		.byte	0xf3
 5224 089b 01       		.uleb128 0x1
 5225 089c 50       		.byte	0x50
 5226 089d 4F       		.byte	0x4f
 5227 089e 1A       		.byte	0x1a
 5228 089f 24       		.byte	0x24
 5229 08a0 9F       		.byte	0x9f
 5230 08a1 00000000 		.4byte	0
 5231 08a5 00000000 		.4byte	0
 5232              	.LLST58:
 5233 08a9 06000000 		.4byte	.LVL160
 5234 08ad 15000000 		.4byte	.LVL163-1
 5235 08b1 0100     		.2byte	0x1
 5236 08b3 52       		.byte	0x52
 5237 08b4 1A000000 		.4byte	.LVL165
 5238 08b8 23000000 		.4byte	.LVL168-1
 5239 08bc 0100     		.2byte	0x1
 5240 08be 52       		.byte	0x52
 5241 08bf 00000000 		.4byte	0
 5242 08c3 00000000 		.4byte	0
 5243              	.LLST59:
 5244 08c7 00000000 		.4byte	.LVL180
 5245 08cb 26000000 		.4byte	.LVL189
 5246 08cf 0100     		.2byte	0x1
 5247 08d1 50       		.byte	0x50
 5248 08d2 26000000 		.4byte	.LVL189
 5249 08d6 2C000000 		.4byte	.LVL190
 5250 08da 0100     		.2byte	0x1
ARM GAS  C:\Users\ikomb\AppData\Local\Temp\cc6TxH90.s 			page 125


 5251 08dc 5C       		.byte	0x5c
 5252 08dd 2C000000 		.4byte	.LVL190
 5253 08e1 30000000 		.4byte	.LVL192
 5254 08e5 0100     		.2byte	0x1
 5255 08e7 50       		.byte	0x50
 5256 08e8 30000000 		.4byte	.LVL192
 5257 08ec 76000000 		.4byte	.LVL204
 5258 08f0 0100     		.2byte	0x1
 5259 08f2 5C       		.byte	0x5c
 5260 08f3 76000000 		.4byte	.LVL204
 5261 08f7 48010000 		.4byte	.LVL238
 5262 08fb 0100     		.2byte	0x1
 5263 08fd 55       		.byte	0x55
 5264 08fe 48010000 		.4byte	.LVL238
 5265 0902 58010000 		.4byte	.LFE47
 5266 0906 0100     		.2byte	0x1
 5267 0908 50       		.byte	0x50
 5268 0909 00000000 		.4byte	0
 5269 090d 00000000 		.4byte	0
 5270              	.LLST60:
 5271 0911 00000000 		.4byte	.LVL180
 5272 0915 1A000000 		.4byte	.LVL185
 5273 0919 0100     		.2byte	0x1
 5274 091b 51       		.byte	0x51
 5275 091c 1A000000 		.4byte	.LVL185
 5276 0920 2C000000 		.4byte	.LVL190
 5277 0924 0100     		.2byte	0x1
 5278 0926 58       		.byte	0x58
 5279 0927 2C000000 		.4byte	.LVL190
 5280 092b 2E000000 		.4byte	.LVL191
 5281 092f 0100     		.2byte	0x1
 5282 0931 51       		.byte	0x51
 5283 0932 2E000000 		.4byte	.LVL191
 5284 0936 BC000000 		.4byte	.LVL218
 5285 093a 0100     		.2byte	0x1
 5286 093c 58       		.byte	0x58
 5287 093d BC000000 		.4byte	.LVL218
 5288 0941 1E010000 		.4byte	.LVL232
 5289 0945 0400     		.2byte	0x4
 5290 0947 F3       		.byte	0xf3
 5291 0948 01       		.uleb128 0x1
 5292 0949 51       		.byte	0x51
 5293 094a 9F       		.byte	0x9f
 5294 094b 1E010000 		.4byte	.LVL232
 5295 094f 22010000 		.4byte	.LVL234
 5296 0953 0100     		.2byte	0x1
 5297 0955 58       		.byte	0x58
 5298 0956 22010000 		.4byte	.LVL234
 5299 095a 58010000 		.4byte	.LFE47
 5300 095e 0400     		.2byte	0x4
 5301 0960 F3       		.byte	0xf3
 5302 0961 01       		.uleb128 0x1
 5303 0962 51       		.byte	0x51
 5304 0963 9F       		.byte	0x9f
 5305 0964 00000000 		.4byte	0
 5306 0968 00000000 		.4byte	0
 5307              	.LLST61:
ARM GAS  C:\Users\ikomb\AppData\Local\Temp\cc6TxH90.s 			page 126


 5308 096c 14000000 		.4byte	.LVL182
 5309 0970 38000000 		.4byte	.LVL194
 5310 0974 0100     		.2byte	0x1
 5311 0976 53       		.byte	0x53
 5312 0977 38000000 		.4byte	.LVL194
 5313 097b 4C000000 		.4byte	.LVL198
 5314 097f 0100     		.2byte	0x1
 5315 0981 54       		.byte	0x54
 5316 0982 4C000000 		.4byte	.LVL198
 5317 0986 4E000000 		.4byte	.LVL199
 5318 098a 0100     		.2byte	0x1
 5319 098c 53       		.byte	0x53
 5320 098d 4E000000 		.4byte	.LVL199
 5321 0991 86000000 		.4byte	.LVL206
 5322 0995 0100     		.2byte	0x1
 5323 0997 54       		.byte	0x54
 5324 0998 86000000 		.4byte	.LVL206
 5325 099c 8A000000 		.4byte	.LVL208
 5326 09a0 0100     		.2byte	0x1
 5327 09a2 53       		.byte	0x53
 5328 09a3 8A000000 		.4byte	.LVL208
 5329 09a7 8F000000 		.4byte	.LVL209-1
 5330 09ab 0100     		.2byte	0x1
 5331 09ad 51       		.byte	0x51
 5332 09ae 8F000000 		.4byte	.LVL209-1
 5333 09b2 B8000000 		.4byte	.LVL216
 5334 09b6 0100     		.2byte	0x1
 5335 09b8 59       		.byte	0x59
 5336 09b9 1E010000 		.4byte	.LVL232
 5337 09bd 20010000 		.4byte	.LVL233
 5338 09c1 0100     		.2byte	0x1
 5339 09c3 54       		.byte	0x54
 5340 09c4 00000000 		.4byte	0
 5341 09c8 00000000 		.4byte	0
 5342              	.LLST62:
 5343 09cc 32000000 		.4byte	.LVL193
 5344 09d0 38000000 		.4byte	.LVL194
 5345 09d4 0200     		.2byte	0x2
 5346 09d6 31       		.byte	0x31
 5347 09d7 9F       		.byte	0x9f
 5348 09d8 38000000 		.4byte	.LVL194
 5349 09dc 88000000 		.4byte	.LVL207
 5350 09e0 0100     		.2byte	0x1
 5351 09e2 51       		.byte	0x51
 5352 09e3 1E010000 		.4byte	.LVL232
 5353 09e7 22010000 		.4byte	.LVL234
 5354 09eb 0100     		.2byte	0x1
 5355 09ed 51       		.byte	0x51
 5356 09ee 00000000 		.4byte	0
 5357 09f2 00000000 		.4byte	0
 5358              	.LLST63:
 5359 09f6 32000000 		.4byte	.LVL193
 5360 09fa 80000000 		.4byte	.LVL205
 5361 09fe 0100     		.2byte	0x1
 5362 0a00 50       		.byte	0x50
 5363 0a01 80000000 		.4byte	.LVL205
 5364 0a05 8F000000 		.4byte	.LVL209-1
ARM GAS  C:\Users\ikomb\AppData\Local\Temp\cc6TxH90.s 			page 127


 5365 0a09 0100     		.2byte	0x1
 5366 0a0b 52       		.byte	0x52
 5367 0a0c 1E010000 		.4byte	.LVL232
 5368 0a10 22010000 		.4byte	.LVL234
 5369 0a14 0100     		.2byte	0x1
 5370 0a16 50       		.byte	0x50
 5371 0a17 00000000 		.4byte	0
 5372 0a1b 00000000 		.4byte	0
 5373              	.LLST64:
 5374 0a1f 12000000 		.4byte	.LVL181
 5375 0a23 38000000 		.4byte	.LVL194
 5376 0a27 0200     		.2byte	0x2
 5377 0a29 30       		.byte	0x30
 5378 0a2a 9F       		.byte	0x9f
 5379 0a2b 38000000 		.4byte	.LVL194
 5380 0a2f 6E000000 		.4byte	.LVL201
 5381 0a33 0100     		.2byte	0x1
 5382 0a35 55       		.byte	0x55
 5383 0a36 70000000 		.4byte	.LVL202
 5384 0a3a 76000000 		.4byte	.LVL204
 5385 0a3e 0100     		.2byte	0x1
 5386 0a40 55       		.byte	0x55
 5387 0a41 00000000 		.4byte	0
 5388 0a45 00000000 		.4byte	0
 5389              	.LLST65:
 5390 0a49 1C000000 		.4byte	.LVL186
 5391 0a4d 1E000000 		.4byte	.LVL187
 5392 0a51 0100     		.2byte	0x1
 5393 0a53 51       		.byte	0x51
 5394 0a54 1E000000 		.4byte	.LVL187
 5395 0a58 86000000 		.4byte	.LVL206
 5396 0a5c 0100     		.2byte	0x1
 5397 0a5e 59       		.byte	0x59
 5398 0a5f 1E010000 		.4byte	.LVL232
 5399 0a63 22010000 		.4byte	.LVL234
 5400 0a67 0100     		.2byte	0x1
 5401 0a69 59       		.byte	0x59
 5402 0a6a 00000000 		.4byte	0
 5403 0a6e 00000000 		.4byte	0
 5404              	.LLST66:
 5405 0a72 16000000 		.4byte	.LVL183
 5406 0a76 62000000 		.4byte	.LVL200
 5407 0a7a 0100     		.2byte	0x1
 5408 0a7c 52       		.byte	0x52
 5409 0a7d 70000000 		.4byte	.LVL202
 5410 0a81 74000000 		.4byte	.LVL203
 5411 0a85 0100     		.2byte	0x1
 5412 0a87 52       		.byte	0x52
 5413 0a88 00000000 		.4byte	0
 5414 0a8c 00000000 		.4byte	0
 5415              	.LLST67:
 5416 0a90 18000000 		.4byte	.LVL184
 5417 0a94 48010000 		.4byte	.LVL240
 5418 0a98 0100     		.2byte	0x1
 5419 0a9a 57       		.byte	0x57
 5420 0a9b 00000000 		.4byte	0
 5421 0a9f 00000000 		.4byte	0
ARM GAS  C:\Users\ikomb\AppData\Local\Temp\cc6TxH90.s 			page 128


 5422              	.LLST68:
 5423 0aa3 20000000 		.4byte	.LVL188
 5424 0aa7 48010000 		.4byte	.LVL239
 5425 0aab 0100     		.2byte	0x1
 5426 0aad 56       		.byte	0x56
 5427 0aae 00000000 		.4byte	0
 5428 0ab2 00000000 		.4byte	0
 5429              	.LLST69:
 5430 0ab6 22010000 		.4byte	.LVL234
 5431 0aba 48010000 		.4byte	.LVL237
 5432 0abe 0100     		.2byte	0x1
 5433 0ac0 54       		.byte	0x54
 5434 0ac1 00000000 		.4byte	0
 5435 0ac5 00000000 		.4byte	0
 5436              	.LLST70:
 5437 0ac9 12000000 		.4byte	.LVL181
 5438 0acd 92000000 		.4byte	.LVL210
 5439 0ad1 0200     		.2byte	0x2
 5440 0ad3 30       		.byte	0x30
 5441 0ad4 9F       		.byte	0x9f
 5442 0ad5 92000000 		.4byte	.LVL210
 5443 0ad9 A6000000 		.4byte	.LVL211
 5444 0add 0100     		.2byte	0x1
 5445 0adf 50       		.byte	0x50
 5446 0ae0 A6000000 		.4byte	.LVL211
 5447 0ae4 AC000000 		.4byte	.LVL213
 5448 0ae8 0100     		.2byte	0x1
 5449 0aea 54       		.byte	0x54
 5450 0aeb AC000000 		.4byte	.LVL213
 5451 0aef BE000000 		.4byte	.LVL219
 5452 0af3 0100     		.2byte	0x1
 5453 0af5 50       		.byte	0x50
 5454 0af6 BE000000 		.4byte	.LVL219
 5455 0afa 1E010000 		.4byte	.LVL232
 5456 0afe 0100     		.2byte	0x1
 5457 0b00 54       		.byte	0x54
 5458 0b01 1E010000 		.4byte	.LVL232
 5459 0b05 22010000 		.4byte	.LVL234
 5460 0b09 0200     		.2byte	0x2
 5461 0b0b 30       		.byte	0x30
 5462 0b0c 9F       		.byte	0x9f
 5463 0b0d 00000000 		.4byte	0
 5464 0b11 00000000 		.4byte	0
 5465              	.LLST71:
 5466 0b15 AC000000 		.4byte	.LVL213
 5467 0b19 1E010000 		.4byte	.LVL232
 5468 0b1d 0100     		.2byte	0x1
 5469 0b1f 57       		.byte	0x57
 5470 0b20 00000000 		.4byte	0
 5471 0b24 00000000 		.4byte	0
 5472              	.LLST72:
 5473 0b28 AC000000 		.4byte	.LVL213
 5474 0b2c BC000000 		.4byte	.LVL218
 5475 0b30 0100     		.2byte	0x1
 5476 0b32 58       		.byte	0x58
 5477 0b33 BC000000 		.4byte	.LVL218
 5478 0b37 1E010000 		.4byte	.LVL232
ARM GAS  C:\Users\ikomb\AppData\Local\Temp\cc6TxH90.s 			page 129


 5479 0b3b 0400     		.2byte	0x4
 5480 0b3d F3       		.byte	0xf3
 5481 0b3e 01       		.uleb128 0x1
 5482 0b3f 51       		.byte	0x51
 5483 0b40 9F       		.byte	0x9f
 5484 0b41 00000000 		.4byte	0
 5485 0b45 00000000 		.4byte	0
 5486              	.LLST73:
 5487 0b49 AC000000 		.4byte	.LVL213
 5488 0b4d BE000000 		.4byte	.LVL219
 5489 0b51 0100     		.2byte	0x1
 5490 0b53 50       		.byte	0x50
 5491 0b54 BE000000 		.4byte	.LVL219
 5492 0b58 1E010000 		.4byte	.LVL232
 5493 0b5c 0100     		.2byte	0x1
 5494 0b5e 54       		.byte	0x54
 5495 0b5f 00000000 		.4byte	0
 5496 0b63 00000000 		.4byte	0
 5497              	.LLST74:
 5498 0b67 AC000000 		.4byte	.LVL213
 5499 0b6b C4000000 		.4byte	.LVL220
 5500 0b6f 0300     		.2byte	0x3
 5501 0b71 91       		.byte	0x91
 5502 0b72 54       		.sleb128 -44
 5503 0b73 9F       		.byte	0x9f
 5504 0b74 C4000000 		.4byte	.LVL220
 5505 0b78 D2000000 		.4byte	.LVL222
 5506 0b7c 0100     		.2byte	0x1
 5507 0b7e 52       		.byte	0x52
 5508 0b7f D2000000 		.4byte	.LVL222
 5509 0b83 1E010000 		.4byte	.LVL232
 5510 0b87 0300     		.2byte	0x3
 5511 0b89 91       		.byte	0x91
 5512 0b8a 54       		.sleb128 -44
 5513 0b8b 9F       		.byte	0x9f
 5514 0b8c 00000000 		.4byte	0
 5515 0b90 00000000 		.4byte	0
 5516              	.LLST75:
 5517 0b94 B8000000 		.4byte	.LVL216
 5518 0b98 BE000000 		.4byte	.LVL219
 5519 0b9c 0200     		.2byte	0x2
 5520 0b9e 30       		.byte	0x30
 5521 0b9f 9F       		.byte	0x9f
 5522 0ba0 BE000000 		.4byte	.LVL219
 5523 0ba4 1E010000 		.4byte	.LVL232
 5524 0ba8 0100     		.2byte	0x1
 5525 0baa 58       		.byte	0x58
 5526 0bab 00000000 		.4byte	0
 5527 0baf 00000000 		.4byte	0
 5528              	.LLST76:
 5529 0bb3 E8000000 		.4byte	.LVL224
 5530 0bb7 FA000000 		.4byte	.LVL227
 5531 0bbb 0100     		.2byte	0x1
 5532 0bbd 5B       		.byte	0x5b
 5533 0bbe 00000000 		.4byte	0
 5534 0bc2 00000000 		.4byte	0
 5535              	.LLST77:
ARM GAS  C:\Users\ikomb\AppData\Local\Temp\cc6TxH90.s 			page 130


 5536 0bc6 C8000000 		.4byte	.LVL221
 5537 0bca F0000000 		.4byte	.LVL225
 5538 0bce 0100     		.2byte	0x1
 5539 0bd0 5B       		.byte	0x5b
 5540 0bd1 F0000000 		.4byte	.LVL225
 5541 0bd5 F8000000 		.4byte	.LVL226
 5542 0bd9 0500     		.2byte	0x5
 5543 0bdb 73       		.byte	0x73
 5544 0bdc 00       		.sleb128 0
 5545 0bdd 31       		.byte	0x31
 5546 0bde 25       		.byte	0x25
 5547 0bdf 9F       		.byte	0x9f
 5548 0be0 FA000000 		.4byte	.LVL227
 5549 0be4 18010000 		.4byte	.LVL231
 5550 0be8 0100     		.2byte	0x1
 5551 0bea 5B       		.byte	0x5b
 5552 0beb 00000000 		.4byte	0
 5553 0bef 00000000 		.4byte	0
 5554              	.LLST78:
 5555 0bf3 B2000000 		.4byte	.LVL214
 5556 0bf7 B4000000 		.4byte	.LVL215
 5557 0bfb 0100     		.2byte	0x1
 5558 0bfd 53       		.byte	0x53
 5559 0bfe B4000000 		.4byte	.LVL215
 5560 0c02 1E010000 		.4byte	.LVL232
 5561 0c06 0100     		.2byte	0x1
 5562 0c08 5A       		.byte	0x5a
 5563 0c09 00000000 		.4byte	0
 5564 0c0d 00000000 		.4byte	0
 5565              	.LLST79:
 5566 0c11 B8000000 		.4byte	.LVL216
 5567 0c15 BA000000 		.4byte	.LVL217
 5568 0c19 0100     		.2byte	0x1
 5569 0c1b 53       		.byte	0x53
 5570 0c1c BA000000 		.4byte	.LVL217
 5571 0c20 0C010000 		.4byte	.LVL228
 5572 0c24 0100     		.2byte	0x1
 5573 0c26 59       		.byte	0x59
 5574 0c27 0C010000 		.4byte	.LVL228
 5575 0c2b 0E010000 		.4byte	.LVL229
 5576 0c2f 0100     		.2byte	0x1
 5577 0c31 53       		.byte	0x53
 5578 0c32 0E010000 		.4byte	.LVL229
 5579 0c36 1E010000 		.4byte	.LVL232
 5580 0c3a 0100     		.2byte	0x1
 5581 0c3c 59       		.byte	0x59
 5582 0c3d 00000000 		.4byte	0
 5583 0c41 00000000 		.4byte	0
 5584              	.LLST80:
 5585 0c45 00000000 		.4byte	.LVL241
 5586 0c49 1C000000 		.4byte	.LVL244
 5587 0c4d 0100     		.2byte	0x1
 5588 0c4f 50       		.byte	0x50
 5589 0c50 1C000000 		.4byte	.LVL244
 5590 0c54 24000000 		.4byte	.LVL247
 5591 0c58 0100     		.2byte	0x1
 5592 0c5a 54       		.byte	0x54
ARM GAS  C:\Users\ikomb\AppData\Local\Temp\cc6TxH90.s 			page 131


 5593 0c5b 24000000 		.4byte	.LVL247
 5594 0c5f 26000000 		.4byte	.LVL248
 5595 0c63 0100     		.2byte	0x1
 5596 0c65 50       		.byte	0x50
 5597 0c66 26000000 		.4byte	.LVL248
 5598 0c6a 2E000000 		.4byte	.LVL251
 5599 0c6e 0100     		.2byte	0x1
 5600 0c70 54       		.byte	0x54
 5601 0c71 2E000000 		.4byte	.LVL251
 5602 0c75 32000000 		.4byte	.LVL253
 5603 0c79 0100     		.2byte	0x1
 5604 0c7b 50       		.byte	0x50
 5605 0c7c 32000000 		.4byte	.LVL253
 5606 0c80 42000000 		.4byte	.LVL256
 5607 0c84 0100     		.2byte	0x1
 5608 0c86 54       		.byte	0x54
 5609 0c87 42000000 		.4byte	.LVL256
 5610 0c8b 78000000 		.4byte	.LFE43
 5611 0c8f 0400     		.2byte	0x4
 5612 0c91 F3       		.byte	0xf3
 5613 0c92 01       		.uleb128 0x1
 5614 0c93 50       		.byte	0x50
 5615 0c94 9F       		.byte	0x9f
 5616 0c95 00000000 		.4byte	0
 5617 0c99 00000000 		.4byte	0
 5618              	.LLST81:
 5619 0c9d 00000000 		.4byte	.LVL241
 5620 0ca1 1F000000 		.4byte	.LVL245-1
 5621 0ca5 0100     		.2byte	0x1
 5622 0ca7 51       		.byte	0x51
 5623 0ca8 1F000000 		.4byte	.LVL245-1
 5624 0cac 24000000 		.4byte	.LVL247
 5625 0cb0 0400     		.2byte	0x4
 5626 0cb2 F3       		.byte	0xf3
 5627 0cb3 01       		.uleb128 0x1
 5628 0cb4 51       		.byte	0x51
 5629 0cb5 9F       		.byte	0x9f
 5630 0cb6 24000000 		.4byte	.LVL247
 5631 0cba 29000000 		.4byte	.LVL249-1
 5632 0cbe 0100     		.2byte	0x1
 5633 0cc0 51       		.byte	0x51
 5634 0cc1 29000000 		.4byte	.LVL249-1
 5635 0cc5 2E000000 		.4byte	.LVL251
 5636 0cc9 0400     		.2byte	0x4
 5637 0ccb F3       		.byte	0xf3
 5638 0ccc 01       		.uleb128 0x1
 5639 0ccd 51       		.byte	0x51
 5640 0cce 9F       		.byte	0x9f
 5641 0ccf 2E000000 		.4byte	.LVL251
 5642 0cd3 30000000 		.4byte	.LVL252
 5643 0cd7 0100     		.2byte	0x1
 5644 0cd9 51       		.byte	0x51
 5645 0cda 30000000 		.4byte	.LVL252
 5646 0cde 78000000 		.4byte	.LFE43
 5647 0ce2 0400     		.2byte	0x4
 5648 0ce4 F3       		.byte	0xf3
 5649 0ce5 01       		.uleb128 0x1
ARM GAS  C:\Users\ikomb\AppData\Local\Temp\cc6TxH90.s 			page 132


 5650 0ce6 51       		.byte	0x51
 5651 0ce7 9F       		.byte	0x9f
 5652 0ce8 00000000 		.4byte	0
 5653 0cec 00000000 		.4byte	0
 5654              	.LLST82:
 5655 0cf0 0C000000 		.4byte	.LVL243
 5656 0cf4 22000000 		.4byte	.LVL246
 5657 0cf8 0100     		.2byte	0x1
 5658 0cfa 55       		.byte	0x55
 5659 0cfb 22000000 		.4byte	.LVL246
 5660 0cff 24000000 		.4byte	.LVL247
 5661 0d03 0100     		.2byte	0x1
 5662 0d05 50       		.byte	0x50
 5663 0d06 24000000 		.4byte	.LVL247
 5664 0d0a 2C000000 		.4byte	.LVL250
 5665 0d0e 0100     		.2byte	0x1
 5666 0d10 55       		.byte	0x55
 5667 0d11 2C000000 		.4byte	.LVL250
 5668 0d15 2E000000 		.4byte	.LVL251
 5669 0d19 0100     		.2byte	0x1
 5670 0d1b 50       		.byte	0x50
 5671 0d1c 2E000000 		.4byte	.LVL251
 5672 0d20 68000000 		.4byte	.LVL265
 5673 0d24 0100     		.2byte	0x1
 5674 0d26 55       		.byte	0x55
 5675 0d27 00000000 		.4byte	0
 5676 0d2b 00000000 		.4byte	0
 5677              	.LLST83:
 5678 0d2f 3E000000 		.4byte	.LVL255
 5679 0d33 4C000000 		.4byte	.LVL258
 5680 0d37 0100     		.2byte	0x1
 5681 0d39 53       		.byte	0x53
 5682 0d3a 4C000000 		.4byte	.LVL258
 5683 0d3e 4E000000 		.4byte	.LVL259
 5684 0d42 0300     		.2byte	0x3
 5685 0d44 73       		.byte	0x73
 5686 0d45 7C       		.sleb128 -4
 5687 0d46 9F       		.byte	0x9f
 5688 0d47 4E000000 		.4byte	.LVL259
 5689 0d4b 5A000000 		.4byte	.LVL260
 5690 0d4f 0600     		.2byte	0x6
 5691 0d51 F3       		.byte	0xf3
 5692 0d52 01       		.uleb128 0x1
 5693 0d53 50       		.byte	0x50
 5694 0d54 35       		.byte	0x35
 5695 0d55 25       		.byte	0x25
 5696 0d56 9F       		.byte	0x9f
 5697 0d57 5A000000 		.4byte	.LVL260
 5698 0d5b 5C000000 		.4byte	.LVL261
 5699 0d5f 0100     		.2byte	0x1
 5700 0d61 53       		.byte	0x53
 5701 0d62 5C000000 		.4byte	.LVL261
 5702 0d66 5E000000 		.4byte	.LVL262
 5703 0d6a 0300     		.2byte	0x3
 5704 0d6c 73       		.byte	0x73
 5705 0d6d 7C       		.sleb128 -4
 5706 0d6e 9F       		.byte	0x9f
ARM GAS  C:\Users\ikomb\AppData\Local\Temp\cc6TxH90.s 			page 133


 5707 0d6f 5E000000 		.4byte	.LVL262
 5708 0d73 78000000 		.4byte	.LFE43
 5709 0d77 0600     		.2byte	0x6
 5710 0d79 F3       		.byte	0xf3
 5711 0d7a 01       		.uleb128 0x1
 5712 0d7b 50       		.byte	0x50
 5713 0d7c 35       		.byte	0x35
 5714 0d7d 25       		.byte	0x25
 5715 0d7e 9F       		.byte	0x9f
 5716 0d7f 00000000 		.4byte	0
 5717 0d83 00000000 		.4byte	0
 5718              	.LLST84:
 5719 0d87 46000000 		.4byte	.LVL257
 5720 0d8b 66000000 		.4byte	.LVL263
 5721 0d8f 0100     		.2byte	0x1
 5722 0d91 52       		.byte	0x52
 5723 0d92 66000000 		.4byte	.LVL263
 5724 0d96 68000000 		.4byte	.LVL264
 5725 0d9a 0500     		.2byte	0x5
 5726 0d9c 31       		.byte	0x31
 5727 0d9d 74       		.byte	0x74
 5728 0d9e 00       		.sleb128 0
 5729 0d9f 24       		.byte	0x24
 5730 0da0 9F       		.byte	0x9f
 5731 0da1 68000000 		.4byte	.LVL264
 5732 0da5 78000000 		.4byte	.LFE43
 5733 0da9 0800     		.2byte	0x8
 5734 0dab 31       		.byte	0x31
 5735 0dac F3       		.byte	0xf3
 5736 0dad 01       		.uleb128 0x1
 5737 0dae 50       		.byte	0x50
 5738 0daf 4F       		.byte	0x4f
 5739 0db0 1A       		.byte	0x1a
 5740 0db1 24       		.byte	0x24
 5741 0db2 9F       		.byte	0x9f
 5742 0db3 00000000 		.4byte	0
 5743 0db7 00000000 		.4byte	0
 5744              	.LLST85:
 5745 0dbb 06000000 		.4byte	.LVL242
 5746 0dbf 1F000000 		.4byte	.LVL245-1
 5747 0dc3 0100     		.2byte	0x1
 5748 0dc5 52       		.byte	0x52
 5749 0dc6 24000000 		.4byte	.LVL247
 5750 0dca 29000000 		.4byte	.LVL249-1
 5751 0dce 0100     		.2byte	0x1
 5752 0dd0 52       		.byte	0x52
 5753 0dd1 2E000000 		.4byte	.LVL251
 5754 0dd5 35000000 		.4byte	.LVL254-1
 5755 0dd9 0100     		.2byte	0x1
 5756 0ddb 52       		.byte	0x52
 5757 0ddc 00000000 		.4byte	0
 5758 0de0 00000000 		.4byte	0
 5759              		.section	.debug_aranges,"",%progbits
 5760 0000 6C000000 		.4byte	0x6c
 5761 0004 0200     		.2byte	0x2
 5762 0006 00000000 		.4byte	.Ldebug_info0
 5763 000a 04       		.byte	0x4
ARM GAS  C:\Users\ikomb\AppData\Local\Temp\cc6TxH90.s 			page 134


 5764 000b 00       		.byte	0
 5765 000c 0000     		.2byte	0
 5766 000e 0000     		.2byte	0
 5767 0010 00000000 		.4byte	.LFB37
 5768 0014 9C000000 		.4byte	.LFE37-.LFB37
 5769 0018 00000000 		.4byte	.LFB44
 5770 001c 32000000 		.4byte	.LFE44-.LFB44
 5771 0020 00000000 		.4byte	.LFB45
 5772 0024 16000000 		.4byte	.LFE45-.LFB45
 5773 0028 00000000 		.4byte	.LFB38
 5774 002c 46000000 		.4byte	.LFE38-.LFB38
 5775 0030 00000000 		.4byte	.LFB39
 5776 0034 40000000 		.4byte	.LFE39-.LFB39
 5777 0038 00000000 		.4byte	.LFB41
 5778 003c 90000000 		.4byte	.LFE41-.LFB41
 5779 0040 00000000 		.4byte	.LFB42
 5780 0044 60000000 		.4byte	.LFE42-.LFB42
 5781 0048 00000000 		.4byte	.LFB46
 5782 004c 64000000 		.4byte	.LFE46-.LFB46
 5783 0050 00000000 		.4byte	.LFB40
 5784 0054 60000000 		.4byte	.LFE40-.LFB40
 5785 0058 00000000 		.4byte	.LFB47
 5786 005c 58010000 		.4byte	.LFE47-.LFB47
 5787 0060 00000000 		.4byte	.LFB43
 5788 0064 78000000 		.4byte	.LFE43-.LFB43
 5789 0068 00000000 		.4byte	0
 5790 006c 00000000 		.4byte	0
 5791              		.section	.debug_ranges,"",%progbits
 5792              	.Ldebug_ranges0:
 5793 0000 00000000 		.4byte	.LFB37
 5794 0004 9C000000 		.4byte	.LFE37
 5795 0008 00000000 		.4byte	.LFB44
 5796 000c 32000000 		.4byte	.LFE44
 5797 0010 00000000 		.4byte	.LFB45
 5798 0014 16000000 		.4byte	.LFE45
 5799 0018 00000000 		.4byte	.LFB38
 5800 001c 46000000 		.4byte	.LFE38
 5801 0020 00000000 		.4byte	.LFB39
 5802 0024 40000000 		.4byte	.LFE39
 5803 0028 00000000 		.4byte	.LFB41
 5804 002c 90000000 		.4byte	.LFE41
 5805 0030 00000000 		.4byte	.LFB42
 5806 0034 60000000 		.4byte	.LFE42
 5807 0038 00000000 		.4byte	.LFB46
 5808 003c 64000000 		.4byte	.LFE46
 5809 0040 00000000 		.4byte	.LFB40
 5810 0044 60000000 		.4byte	.LFE40
 5811 0048 00000000 		.4byte	.LFB47
 5812 004c 58010000 		.4byte	.LFE47
 5813 0050 00000000 		.4byte	.LFB43
 5814 0054 78000000 		.4byte	.LFE43
 5815 0058 00000000 		.4byte	0
 5816 005c 00000000 		.4byte	0
 5817              		.section	.debug_line,"",%progbits
 5818              	.Ldebug_line0:
 5819 0000 8C050000 		.section	.debug_str,"MS",%progbits,1
 5819      0200F902 
ARM GAS  C:\Users\ikomb\AppData\Local\Temp\cc6TxH90.s 			page 135


 5819      00000201 
 5819      FB0E0D00 
 5819      01010101 
 5820              	.LASF84:
 5821 0000 6D6F6443 		.ascii	"modCsxClk\000"
 5821      7378436C 
 5821      6B00
 5822              	.LASF23:
 5823 000a 75696E74 		.ascii	"uint16\000"
 5823      313600
 5824              	.LASF147:
 5825 0011 63757272 		.ascii	"currStatus\000"
 5825      53746174 
 5825      757300
 5826              	.LASF149:
 5827 001c 736E734D 		.ascii	"snsMask\000"
 5827      61736B00 
 5828              	.LASF159:
 5829 0024 44705570 		.ascii	"DpUpdateLinSlider\000"
 5829      64617465 
 5829      4C696E53 
 5829      6C696465 
 5829      7200
 5830              	.LASF95:
 5831 0036 70747232 		.ascii	"ptr2FltrHistory\000"
 5831      466C7472 
 5831      48697374 
 5831      6F727900 
 5832              	.LASF26:
 5833 0046 73697A65 		.ascii	"size_t\000"
 5833      5F7400
 5834              	.LASF176:
 5835 004d 536D6172 		.ascii	"SmartSense_RunNoiseEnvelope\000"
 5835      7453656E 
 5835      73655F52 
 5835      756E4E6F 
 5835      69736545 
 5836              	.LASF127:
 5837 0069 43617053 		.ascii	"CapSense_DpUpdateThresholds\000"
 5837      656E7365 
 5837      5F447055 
 5837      70646174 
 5837      65546872 
 5838              	.LASF3:
 5839 0085 5F5F7569 		.ascii	"__uint8_t\000"
 5839      6E74385F 
 5839      7400
 5840              	.LASF56:
 5841 008f 66696E67 		.ascii	"fingerCap\000"
 5841      65724361 
 5841      7000
 5842              	.LASF148:
 5843 0099 736E7343 		.ascii	"snsCnt\000"
 5843      6E7400
 5844              	.LASF171:
 5845 00a0 43617053 		.ascii	"CapSense_InitPosFiltersSd\000"
 5845      656E7365 
ARM GAS  C:\Users\ikomb\AppData\Local\Temp\cc6TxH90.s 			page 136


 5845      5F496E69 
 5845      74506F73 
 5845      46696C74 
 5846              	.LASF107:
 5847 00ba 69697246 		.ascii	"iirFilterCoeff\000"
 5847      696C7465 
 5847      72436F65 
 5847      666600
 5848              	.LASF181:
 5849 00c9 47656E65 		.ascii	"Generated_Source\\PSoC6\\CapSense_Processing.c\000"
 5849      72617465 
 5849      645F536F 
 5849      75726365 
 5849      5C50536F 
 5850              	.LASF71:
 5851 00f6 43617053 		.ascii	"CapSense_RAM_SNS_STRUCT\000"
 5851      656E7365 
 5851      5F52414D 
 5851      5F534E53 
 5851      5F535452 
 5852              	.LASF11:
 5853 010e 6C6F6E67 		.ascii	"long long unsigned int\000"
 5853      206C6F6E 
 5853      6720756E 
 5853      7369676E 
 5853      65642069 
 5854              	.LASF133:
 5855 0125 63757253 		.ascii	"curSnsPtr\000"
 5855      6E735074 
 5855      7200
 5856              	.LASF132:
 5857 012f 43617053 		.ascii	"CapSense_DpUpdateDifferences\000"
 5857      656E7365 
 5857      5F447055 
 5857      70646174 
 5857      65446966 
 5858              	.LASF92:
 5859 014c 70747232 		.ascii	"ptr2SnsFlash\000"
 5859      536E7346 
 5859      6C617368 
 5859      00
 5860              	.LASF68:
 5861 0159 64696666 		.ascii	"diff\000"
 5861      00
 5862              	.LASF29:
 5863 015e 43617053 		.ascii	"CapSense_LOW_BSLN_RST_TYPE\000"
 5863      656E7365 
 5863      5F4C4F57 
 5863      5F42534C 
 5863      4E5F5253 
 5864              	.LASF88:
 5865 0179 736E7254 		.ascii	"snrTestSensorId\000"
 5865      65737453 
 5865      656E736F 
 5865      72496400 
 5866              	.LASF170:
 5867 0189 43617053 		.ascii	"CapSense_dsFlash\000"
ARM GAS  C:\Users\ikomb\AppData\Local\Temp\cc6TxH90.s 			page 137


 5867      656E7365 
 5867      5F647346 
 5867      6C617368 
 5867      00
 5868              	.LASF28:
 5869 019a 43617053 		.ascii	"CapSense_THRESHOLD_TYPE\000"
 5869      656E7365 
 5869      5F544852 
 5869      4553484F 
 5869      4C445F54 
 5870              	.LASF173:
 5871 01b2 536D6172 		.ascii	"SmartSense_UpdateThresholds\000"
 5871      7453656E 
 5871      73655F55 
 5871      70646174 
 5871      65546872 
 5872              	.LASF122:
 5873 01ce 77646774 		.ascii	"wdgtId\000"
 5873      496400
 5874              	.LASF44:
 5875 01d5 43617053 		.ascii	"CapSense_WD_LINEAR_SLIDER_E\000"
 5875      656E7365 
 5875      5F57445F 
 5875      4C494E45 
 5875      41525F53 
 5876              	.LASF10:
 5877 01f1 6C6F6E67 		.ascii	"long long int\000"
 5877      206C6F6E 
 5877      6720696E 
 5877      7400
 5878              	.LASF0:
 5879 01ff 7369676E 		.ascii	"signed char\000"
 5879      65642063 
 5879      68617200 
 5880              	.LASF163:
 5881 020b 74656D70 		.ascii	"tempPosition\000"
 5881      506F7369 
 5881      74696F6E 
 5881      00
 5882              	.LASF62:
 5883 0218 62757474 		.ascii	"button0\000"
 5883      6F6E3000 
 5884              	.LASF63:
 5885 0220 62757474 		.ascii	"button1\000"
 5885      6F6E3100 
 5886              	.LASF25:
 5887 0228 696E7433 		.ascii	"int32\000"
 5887      3200
 5888              	.LASF168:
 5889 022e 43617053 		.ascii	"CapSense_DpProcessCsdWidgetStatus\000"
 5889      656E7365 
 5889      5F447050 
 5889      726F6365 
 5889      73734373 
 5890              	.LASF81:
 5891 0250 736E7353 		.ascii	"snsStatus\000"
 5891      74617475 
ARM GAS  C:\Users\ikomb\AppData\Local\Temp\cc6TxH90.s 			page 138


 5891      7300
 5892              	.LASF7:
 5893 025a 6C6F6E67 		.ascii	"long int\000"
 5893      20696E74 
 5893      00
 5894              	.LASF83:
 5895 0263 6D6F6443 		.ascii	"modCsdClk\000"
 5895      7364436C 
 5895      6B00
 5896              	.LASF94:
 5897 026d 70747232 		.ascii	"ptr2SnsRam\000"
 5897      536E7352 
 5897      616D00
 5898              	.LASF103:
 5899 0278 78526573 		.ascii	"xResolution\000"
 5899      6F6C7574 
 5899      696F6E00 
 5900              	.LASF22:
 5901 0284 75696E74 		.ascii	"uint8\000"
 5901      3800
 5902              	.LASF2:
 5903 028a 73686F72 		.ascii	"short int\000"
 5903      7420696E 
 5903      7400
 5904              	.LASF135:
 5905 0294 72657375 		.ascii	"result\000"
 5905      6C7400
 5906              	.LASF14:
 5907 029b 75696E74 		.ascii	"uint16_t\000"
 5907      31365F74 
 5907      00
 5908              	.LASF21:
 5909 02a4 646F7562 		.ascii	"double\000"
 5909      6C6500
 5910              	.LASF175:
 5911 02ab 43617053 		.ascii	"CapSense_FtUpdateBaseline\000"
 5911      656E7365 
 5911      5F467455 
 5911      70646174 
 5911      65426173 
 5912              	.LASF115:
 5913 02c5 43617053 		.ascii	"CapSense_REGULAR_FLTR_STRUCT\000"
 5913      656E7365 
 5913      5F524547 
 5913      554C4152 
 5913      5F464C54 
 5914              	.LASF90:
 5915 02e2 736E7254 		.ascii	"snrTestRawCount\000"
 5915      65737452 
 5915      6177436F 
 5915      756E7400 
 5916              	.LASF67:
 5917 02f2 62736C6E 		.ascii	"bslnExt\000"
 5917      45787400 
 5918              	.LASF166:
 5919 02fa 43617053 		.ascii	"CapSense_DpProcessSlider\000"
 5919      656E7365 
ARM GAS  C:\Users\ikomb\AppData\Local\Temp\cc6TxH90.s 			page 139


 5919      5F447050 
 5919      726F6365 
 5919      7373536C 
 5920              	.LASF5:
 5921 0313 73686F72 		.ascii	"short unsigned int\000"
 5921      7420756E 
 5921      7369676E 
 5921      65642069 
 5921      6E7400
 5922              	.LASF24:
 5923 0326 75696E74 		.ascii	"uint32\000"
 5923      333200
 5924              	.LASF41:
 5925 032d 68797374 		.ascii	"hysteresis\000"
 5925      65726573 
 5925      697300
 5926              	.LASF143:
 5927 0338 736E7349 		.ascii	"snsId\000"
 5927      6400
 5928              	.LASF8:
 5929 033e 5F5F7569 		.ascii	"__uint32_t\000"
 5929      6E743332 
 5929      5F7400
 5930              	.LASF136:
 5931 0349 736E7343 		.ascii	"snsCount\000"
 5931      6F756E74 
 5931      00
 5932              	.LASF118:
 5933 0352 706F7341 		.ascii	"posAverage\000"
 5933      76657261 
 5933      676500
 5934              	.LASF102:
 5935 035d 6E756D52 		.ascii	"numRows\000"
 5935      6F777300 
 5936              	.LASF80:
 5937 0365 77646774 		.ascii	"wdgtStatus\000"
 5937      53746174 
 5937      757300
 5938              	.LASF46:
 5939 0370 43617053 		.ascii	"CapSense_WD_MATRIX_BUTTON_E\000"
 5939      656E7365 
 5939      5F57445F 
 5939      4D415452 
 5939      49585F42 
 5940              	.LASF138:
 5941 038c 666C7472 		.ascii	"fltrHistV\000"
 5941      48697374 
 5941      5600
 5942              	.LASF66:
 5943 0396 62736C6E 		.ascii	"bsln\000"
 5943      00
 5944              	.LASF125:
 5945 039b 70747246 		.ascii	"ptrFlashWdgt\000"
 5945      6C617368 
 5945      57646774 
 5945      00
 5946              	.LASF12:
ARM GAS  C:\Users\ikomb\AppData\Local\Temp\cc6TxH90.s 			page 140


 5947 03a8 756E7369 		.ascii	"unsigned int\000"
 5947      676E6564 
 5947      20696E74 
 5947      00
 5948              	.LASF60:
 5949 03b5 706F7369 		.ascii	"position\000"
 5949      74696F6E 
 5949      00
 5950              	.LASF87:
 5951 03be 736E7254 		.ascii	"snrTestWidgetId\000"
 5951      65737457 
 5951      69646765 
 5951      74496400 
 5952              	.LASF105:
 5953 03ce 70747232 		.ascii	"ptr2NoiseEnvlp\000"
 5953      4E6F6973 
 5953      65456E76 
 5953      6C7000
 5954              	.LASF9:
 5955 03dd 6C6F6E67 		.ascii	"long unsigned int\000"
 5955      20756E73 
 5955      69676E65 
 5955      6420696E 
 5955      7400
 5956              	.LASF79:
 5957 03ef 77646774 		.ascii	"wdgtEnable\000"
 5957      456E6162 
 5957      6C6500
 5958              	.LASF111:
 5959 03fa 6D656448 		.ascii	"medHistory\000"
 5959      6973746F 
 5959      727900
 5960              	.LASF129:
 5961 0405 73746172 		.ascii	"startFlag\000"
 5961      74466C61 
 5961      6700
 5962              	.LASF52:
 5963 040f 6C6F7742 		.ascii	"lowBslnRst\000"
 5963      736C6E52 
 5963      737400
 5964              	.LASF137:
 5965 041a 70747253 		.ascii	"ptrSnsTmp\000"
 5965      6E73546D 
 5965      7000
 5966              	.LASF18:
 5967 0424 63686172 		.ascii	"char_t\000"
 5967      5F7400
 5968              	.LASF169:
 5969 042b 43617053 		.ascii	"CapSense_dsRam\000"
 5969      656E7365 
 5969      5F647352 
 5969      616D00
 5970              	.LASF86:
 5971 043a 736E734C 		.ascii	"snsList\000"
 5971      69737400 
 5972              	.LASF73:
 5973 0442 636F6E66 		.ascii	"configId\000"
ARM GAS  C:\Users\ikomb\AppData\Local\Temp\cc6TxH90.s 			page 141


 5973      69674964 
 5973      00
 5974              	.LASF100:
 5975 044b 73656E73 		.ascii	"senseMethod\000"
 5975      654D6574 
 5975      686F6400 
 5976              	.LASF82:
 5977 0457 63736430 		.ascii	"csd0Config\000"
 5977      436F6E66 
 5977      696700
 5978              	.LASF93:
 5979 0462 70747232 		.ascii	"ptr2WdgtRam\000"
 5979      57646774 
 5979      52616D00 
 5980              	.LASF74:
 5981 046e 64657669 		.ascii	"deviceId\000"
 5981      63654964 
 5981      00
 5982              	.LASF59:
 5983 0477 43617053 		.ascii	"CapSense_RAM_WD_BUTTON_STRUCT\000"
 5983      656E7365 
 5983      5F52414D 
 5983      5F57445F 
 5983      42555454 
 5984              	.LASF154:
 5985 0495 77696467 		.ascii	"widgetId\000"
 5985      65744964 
 5985      00
 5986              	.LASF156:
 5987 049e 77645374 		.ascii	"wdStatusIndex\000"
 5987      61747573 
 5987      496E6465 
 5987      7800
 5988              	.LASF53:
 5989 04ac 69646163 		.ascii	"idacMod\000"
 5989      4D6F6400 
 5990              	.LASF61:
 5991 04b4 43617053 		.ascii	"CapSense_RAM_WD_SLIDER_STRUCT\000"
 5991      656E7365 
 5991      5F52414D 
 5991      5F57445F 
 5991      534C4944 
 5992              	.LASF101:
 5993 04d2 6E756D43 		.ascii	"numCols\000"
 5993      6F6C7300 
 5994              	.LASF124:
 5995 04da 70747252 		.ascii	"ptrRamWdgt\000"
 5995      616D5764 
 5995      677400
 5996              	.LASF155:
 5997 04e5 73656E73 		.ascii	"sensorStatus\000"
 5997      6F725374 
 5997      61747573 
 5997      00
 5998              	.LASF123:
 5999 04f2 77696467 		.ascii	"widgetType\000"
 5999      65745479 
ARM GAS  C:\Users\ikomb\AppData\Local\Temp\cc6TxH90.s 			page 142


 5999      706500
 6000              	.LASF113:
 6001 04fd 43617053 		.ascii	"CapSense_REGULAR_FLTR_CHANNEL_STRUCT\000"
 6001      656E7365 
 6001      5F524547 
 6001      554C4152 
 6001      5F464C54 
 6002              	.LASF165:
 6003 0522 66696C74 		.ascii	"filterConfig\000"
 6003      6572436F 
 6003      6E666967 
 6003      00
 6004              	.LASF182:
 6005 052f 433A5C55 		.ascii	"C:\\Users\\ikomb\\Documents\\PSoC Creator\\CE222221"
 6005      73657273 
 6005      5C696B6F 
 6005      6D625C44 
 6005      6F63756D 
 6006 055d 5F566F69 		.ascii	"_Voice_Recorder01\\CE222221_Voice_Recorder01.cydsn\000"
 6006      63655F52 
 6006      65636F72 
 6006      64657230 
 6006      315C4345 
 6007              	.LASF40:
 6008 058f 6E4E6F69 		.ascii	"nNoiseTh\000"
 6008      73655468 
 6008      00
 6009              	.LASF57:
 6010 0598 73696750 		.ascii	"sigPFC\000"
 6010      464300
 6011              	.LASF146:
 6012 059f 43617053 		.ascii	"CapSense_DpProcessButton\000"
 6012      656E7365 
 6012      5F447050 
 6012      726F6365 
 6012      73734275 
 6013              	.LASF75:
 6014 05b8 6877436C 		.ascii	"hwClock\000"
 6014      6F636B00 
 6015              	.LASF99:
 6016 05c0 77646774 		.ascii	"wdgtType\000"
 6016      54797065 
 6016      00
 6017              	.LASF104:
 6018 05c9 7843656E 		.ascii	"xCentroidMultiplier\000"
 6018      74726F69 
 6018      644D756C 
 6018      7469706C 
 6018      69657200 
 6019              	.LASF112:
 6020 05dd 61766748 		.ascii	"avgHistory\000"
 6020      6973746F 
 6020      727900
 6021              	.LASF77:
 6022 05e8 7363616E 		.ascii	"scanCounter\000"
 6022      436F756E 
 6022      74657200 
ARM GAS  C:\Users\ikomb\AppData\Local\Temp\cc6TxH90.s 			page 143


 6023              	.LASF142:
 6024 05f4 43617053 		.ascii	"CapSense_DpProcessCsdWidgetRawCounts\000"
 6024      656E7365 
 6024      5F447050 
 6024      726F6365 
 6024      73734373 
 6025              	.LASF162:
 6026 0619 746F7563 		.ascii	"touchIdx\000"
 6026      68496478 
 6026      00
 6027              	.LASF42:
 6028 0622 534D4152 		.ascii	"SMARTSENSE_UPDATE_THRESHOLDS_STRUCT\000"
 6028      5453454E 
 6028      53455F55 
 6028      50444154 
 6028      455F5448 
 6029              	.LASF76:
 6030 0646 74756E65 		.ascii	"tunerCmd\000"
 6030      72436D64 
 6030      00
 6031              	.LASF20:
 6032 064f 666C6F61 		.ascii	"float\000"
 6032      7400
 6033              	.LASF45:
 6034 0655 43617053 		.ascii	"CapSense_WD_RADIAL_SLIDER_E\000"
 6034      656E7365 
 6034      5F57445F 
 6034      52414449 
 6034      414C5F53 
 6035              	.LASF37:
 6036 0671 534D4152 		.ascii	"SMARTSENSE_CSD_NOISE_ENVELOPE_STRUCT\000"
 6036      5453454E 
 6036      53455F43 
 6036      53445F4E 
 6036      4F495345 
 6037              	.LASF144:
 6038 0696 69735072 		.ascii	"isProxWdgt\000"
 6038      6F785764 
 6038      677400
 6039              	.LASF179:
 6040 06a1 43617053 		.ascii	"CapSense_DpCalcLinearCentroid\000"
 6040      656E7365 
 6040      5F447043 
 6040      616C634C 
 6040      696E6561 
 6041              	.LASF72:
 6042 06bf 43617053 		.ascii	"CapSense_RAM_SNS_LIST_STRUCT\000"
 6042      656E7365 
 6042      5F52414D 
 6042      5F534E53 
 6042      5F4C4953 
 6043              	.LASF164:
 6044 06dc 66696C74 		.ascii	"filteredPosition\000"
 6044      65726564 
 6044      506F7369 
 6044      74696F6E 
 6044      00
ARM GAS  C:\Users\ikomb\AppData\Local\Temp\cc6TxH90.s 			page 144


 6045              	.LASF91:
 6046 06ed 43617053 		.ascii	"CapSense_RAM_STRUCT\000"
 6046      656E7365 
 6046      5F52414D 
 6046      5F535452 
 6046      55435400 
 6047              	.LASF153:
 6048 0701 43617053 		.ascii	"CapSense_DpProcessCsxWidgetStatus\000"
 6048      656E7365 
 6048      5F447050 
 6048      726F6365 
 6048      73734373 
 6049              	.LASF114:
 6050 0723 72656775 		.ascii	"regularChannel\000"
 6050      6C617243 
 6050      68616E6E 
 6050      656C00
 6051              	.LASF43:
 6052 0732 43617053 		.ascii	"CapSense_WD_BUTTON_E\000"
 6052      656E7365 
 6052      5F57445F 
 6052      42555454 
 6052      4F4E5F45 
 6053              	.LASF15:
 6054 0747 696E7433 		.ascii	"int32_t\000"
 6054      325F7400 
 6055              	.LASF30:
 6056 074f 70617261 		.ascii	"param0\000"
 6056      6D3000
 6057              	.LASF31:
 6058 0756 70617261 		.ascii	"param1\000"
 6058      6D3100
 6059              	.LASF32:
 6060 075d 70617261 		.ascii	"param2\000"
 6060      6D3200
 6061              	.LASF33:
 6062 0764 70617261 		.ascii	"param3\000"
 6062      6D3300
 6063              	.LASF34:
 6064 076b 70617261 		.ascii	"param4\000"
 6064      6D3400
 6065              	.LASF35:
 6066 0772 70617261 		.ascii	"param5\000"
 6066      6D3500
 6067              	.LASF36:
 6068 0779 70617261 		.ascii	"param6\000"
 6068      6D3600
 6069              	.LASF158:
 6070 0780 43617053 		.ascii	"CapSense_DpInitSlider\000"
 6070      656E7365 
 6070      5F447049 
 6070      6E697453 
 6070      6C696465 
 6071              	.LASF131:
 6072 0796 70747254 		.ascii	"ptrThresholds\000"
 6072      68726573 
 6072      686F6C64 
ARM GAS  C:\Users\ikomb\AppData\Local\Temp\cc6TxH90.s 			page 145


 6072      7300
 6073              	.LASF108:
 6074 07a4 43617053 		.ascii	"CapSense_FLASH_WD_STRUCT\000"
 6074      656E7365 
 6074      5F464C41 
 6074      53485F57 
 6074      445F5354 
 6075              	.LASF152:
 6076 07bd 70747244 		.ascii	"ptrDebounceCnt\000"
 6076      65626F75 
 6076      6E636543 
 6076      6E7400
 6077              	.LASF174:
 6078 07cc 43617053 		.ascii	"CapSense_FtRunEnabledFiltersInternal\000"
 6078      656E7365 
 6078      5F467452 
 6078      756E456E 
 6078      61626C65 
 6079              	.LASF47:
 6080 07f1 43617053 		.ascii	"CapSense_WD_TOUCHPAD_E\000"
 6080      656E7365 
 6080      5F57445F 
 6080      544F5543 
 6080      48504144 
 6081              	.LASF117:
 6082 0808 43617053 		.ascii	"CapSense_PTR_FILTER_VARIANT\000"
 6082      656E7365 
 6082      5F505452 
 6082      5F46494C 
 6082      5445525F 
 6083              	.LASF140:
 6084 0824 43617053 		.ascii	"CapSense_DpProcessCsxSensorRawCountsExt\000"
 6084      656E7365 
 6084      5F447050 
 6084      726F6365 
 6084      73734373 
 6085              	.LASF157:
 6086 084c 77645374 		.ascii	"wdStatusMask\000"
 6086      61747573 
 6086      4D61736B 
 6086      00
 6087              	.LASF16:
 6088 0859 75696E74 		.ascii	"uint32_t\000"
 6088      33325F74 
 6088      00
 6089              	.LASF85:
 6090 0862 77646774 		.ascii	"wdgtList\000"
 6090      4C697374 
 6090      00
 6091              	.LASF126:
 6092 086b 43617053 		.ascii	"CapSense_DpInitialize\000"
 6092      656E7365 
 6092      5F447049 
 6092      6E697469 
 6092      616C697A 
 6093              	.LASF64:
 6094 0881 6C696E65 		.ascii	"linearslider0\000"
ARM GAS  C:\Users\ikomb\AppData\Local\Temp\cc6TxH90.s 			page 146


 6094      6172736C 
 6094      69646572 
 6094      3000
 6095              	.LASF180:
 6096 088f 474E5520 		.ascii	"GNU C11 5.4.1 20160609 (release) [ARM/embedded-5-br"
 6096      43313120 
 6096      352E342E 
 6096      31203230 
 6096      31363036 
 6097 08c2 616E6368 		.ascii	"anch revision 237715] -mcpu=cortex-m0plus -mthumb -"
 6097      20726576 
 6097      6973696F 
 6097      6E203233 
 6097      37373135 
 6098 08f5 67202D4F 		.ascii	"g -Og -ffunction-sections -ffat-lto-objects\000"
 6098      67202D66 
 6098      66756E63 
 6098      74696F6E 
 6098      2D736563 
 6099              	.LASF27:
 6100 0921 6C6F6E67 		.ascii	"long double\000"
 6100      20646F75 
 6100      626C6500 
 6101              	.LASF19:
 6102 092d 63686172 		.ascii	"char\000"
 6102      00
 6103              	.LASF141:
 6104 0932 6D6F6465 		.ascii	"mode\000"
 6104      00
 6105              	.LASF4:
 6106 0937 5F5F7569 		.ascii	"__uint16_t\000"
 6106      6E743136 
 6106      5F7400
 6107              	.LASF54:
 6108 0942 736E7343 		.ascii	"snsClk\000"
 6108      6C6B00
 6109              	.LASF58:
 6110 0949 43617053 		.ascii	"CapSense_RAM_WD_BASE_STRUCT\000"
 6110      656E7365 
 6110      5F52414D 
 6110      5F57445F 
 6110      42415345 
 6111              	.LASF6:
 6112 0965 5F5F696E 		.ascii	"__int32_t\000"
 6112      7433325F 
 6112      7400
 6113              	.LASF51:
 6114 096f 6F6E4465 		.ascii	"onDebounce\000"
 6114      626F756E 
 6114      636500
 6115              	.LASF49:
 6116 097a 43617053 		.ascii	"CapSense_WD_TYPE_ENUM\000"
 6116      656E7365 
 6116      5F57445F 
 6116      54595045 
 6116      5F454E55 
 6117              	.LASF161:
ARM GAS  C:\Users\ikomb\AppData\Local\Temp\cc6TxH90.s 			page 147


 6118 0990 6E756D54 		.ascii	"numTouches\000"
 6118      6F756368 
 6118      657300
 6119              	.LASF177:
 6120 099b 43795F53 		.ascii	"Cy_SysLib_AssertFailed\000"
 6120      79734C69 
 6120      625F4173 
 6120      73657274 
 6120      4661696C 
 6121              	.LASF1:
 6122 09b2 756E7369 		.ascii	"unsigned char\000"
 6122      676E6564 
 6122      20636861 
 6122      7200
 6123              	.LASF69:
 6124 09c0 6E656742 		.ascii	"negBslnRstCnt\000"
 6124      736C6E52 
 6124      7374436E 
 6124      7400
 6125              	.LASF160:
 6126 09ce 6E657750 		.ascii	"newPos\000"
 6126      6F7300
 6127              	.LASF98:
 6128 09d5 746F7461 		.ascii	"totalNumSns\000"
 6128      6C4E756D 
 6128      536E7300 
 6129              	.LASF151:
 6130 09e1 746F7563 		.ascii	"touchTh\000"
 6130      68546800 
 6131              	.LASF96:
 6132 09e9 70747232 		.ascii	"ptr2DebounceArr\000"
 6132      4465626F 
 6132      756E6365 
 6132      41727200 
 6133              	.LASF110:
 6134 09f9 43617053 		.ascii	"CapSense_FLASH_STRUCT\000"
 6134      656E7365 
 6134      5F464C41 
 6134      53485F53 
 6134      54525543 
 6135              	.LASF134:
 6136 0a0f 64696666 		.ascii	"diffValue\000"
 6136      56616C75 
 6136      6500
 6137              	.LASF172:
 6138 0a19 6D656D73 		.ascii	"memset\000"
 6138      657400
 6139              	.LASF97:
 6140 0a20 73746174 		.ascii	"staticConfig\000"
 6140      6963436F 
 6140      6E666967 
 6140      00
 6141              	.LASF119:
 6142 0a2d 43617053 		.ascii	"CapSense_SLIDER_POS_HISTORY_STRUCT\000"
 6142      656E7365 
 6142      5F534C49 
 6142      4445525F 
ARM GAS  C:\Users\ikomb\AppData\Local\Temp\cc6TxH90.s 			page 148


 6142      504F535F 
 6143              	.LASF78:
 6144 0a50 73746174 		.ascii	"status\000"
 6144      757300
 6145              	.LASF109:
 6146 0a57 77646774 		.ascii	"wdgtArray\000"
 6146      41727261 
 6146      7900
 6147              	.LASF130:
 6148 0a61 74687265 		.ascii	"thresholds\000"
 6148      73686F6C 
 6148      647300
 6149              	.LASF70:
 6150 0a6c 69646163 		.ascii	"idacComp\000"
 6150      436F6D70 
 6150      00
 6151              	.LASF120:
 6152 0a75 70747257 		.ascii	"ptrWdSlider\000"
 6152      64536C69 
 6152      64657200 
 6153              	.LASF13:
 6154 0a81 75696E74 		.ascii	"uint8_t\000"
 6154      385F7400 
 6155              	.LASF17:
 6156 0a89 73697A65 		.ascii	"sizetype\000"
 6156      74797065 
 6156      00
 6157              	.LASF50:
 6158 0a92 7265736F 		.ascii	"resolution\000"
 6158      6C757469 
 6158      6F6E00
 6159              	.LASF55:
 6160 0a9d 736E7343 		.ascii	"snsClkSource\000"
 6160      6C6B536F 
 6160      75726365 
 6160      00
 6161              	.LASF150:
 6162 0aaa 6E657753 		.ascii	"newStatus\000"
 6162      74617475 
 6162      7300
 6163              	.LASF106:
 6164 0ab4 70747232 		.ascii	"ptr2PosHistory\000"
 6164      506F7348 
 6164      6973746F 
 6164      727900
 6165              	.LASF139:
 6166 0ac3 43617053 		.ascii	"CapSense_DpProcessCsxWidgetRawCounts\000"
 6166      656E7365 
 6166      5F447050 
 6166      726F6365 
 6166      73734373 
 6167              	.LASF128:
 6168 0ae8 7074724E 		.ascii	"ptrNoiseEnvelope\000"
 6168      6F697365 
 6168      456E7665 
 6168      6C6F7065 
 6168      00
ARM GAS  C:\Users\ikomb\AppData\Local\Temp\cc6TxH90.s 			page 149


 6169              	.LASF38:
 6170 0af9 66696E67 		.ascii	"fingerTh\000"
 6170      65725468 
 6170      00
 6171              	.LASF167:
 6172 0b02 746F7563 		.ascii	"touchCnt\000"
 6172      68436E74 
 6172      00
 6173              	.LASF48:
 6174 0b0b 43617053 		.ascii	"CapSense_WD_PROXIMITY_E\000"
 6174      656E7365 
 6174      5F57445F 
 6174      50524F58 
 6174      494D4954 
 6175              	.LASF65:
 6176 0b23 43617053 		.ascii	"CapSense_RAM_WD_LIST_STRUCT\000"
 6176      656E7365 
 6176      5F52414D 
 6176      5F57445F 
 6176      4C495354 
 6177              	.LASF89:
 6178 0b3f 736E7254 		.ascii	"snrTestScanCounter\000"
 6178      65737453 
 6178      63616E43 
 6178      6F756E74 
 6178      657200
 6179              	.LASF116:
 6180 0b52 70747252 		.ascii	"ptrRegular\000"
 6180      6567756C 
 6180      617200
 6181              	.LASF178:
 6182 0b5d 43617053 		.ascii	"CapSense_DpFindLocalMaxSd\000"
 6182      656E7365 
 6182      5F447046 
 6182      696E644C 
 6182      6F63616C 
 6183              	.LASF121:
 6184 0b77 70747248 		.ascii	"ptrHistory\000"
 6184      6973746F 
 6184      727900
 6185              	.LASF145:
 6186 0b82 43617053 		.ascii	"CapSense_DpProcessCsdSensorRawCountsExt\000"
 6186      656E7365 
 6186      5F447050 
 6186      726F6365 
 6186      73734373 
 6187              	.LASF39:
 6188 0baa 6E6F6973 		.ascii	"noiseTh\000"
 6188      65546800 
 6189              		.ident	"GCC: (GNU Tools for ARM Embedded Processors) 5.4.1 20160609 (release) [ARM/embedded-5-bran
