ARM GAS  C:\Users\ikomb\AppData\Local\Temp\ccgK0zqu.s 			page 1


   1              		.syntax unified
   2              		.cpu cortex-m0plus
   3              		.fpu softvfp
   4              		.eabi_attribute 20, 1
   5              		.eabi_attribute 21, 1
   6              		.eabi_attribute 23, 3
   7              		.eabi_attribute 24, 1
   8              		.eabi_attribute 25, 1
   9              		.eabi_attribute 26, 1
  10              		.eabi_attribute 30, 1
  11              		.eabi_attribute 34, 0
  12              		.eabi_attribute 18, 4
  13              		.thumb
  14              		.syntax unified
  15              		.file	"CapSense_INT.c"
  16              		.text
  17              	.Ltext0:
  18              		.cfi_sections	.debug_frame
  19              		.section	.text.CapSense_SsCSDPostScan,"ax",%progbits
  20              		.align	2
  21              		.code	16
  22              		.thumb_func
  23              		.type	CapSense_SsCSDPostScan, %function
  24              	CapSense_SsCSDPostScan:
  25              	.LFB166:
  26              		.file 1 "Generated_Source\\PSoC6\\CapSense_INT.c"
   1:Generated_Source\PSoC6/CapSense_INT.c **** /***************************************************************************//**
   2:Generated_Source\PSoC6/CapSense_INT.c **** * \file CapSense_INT.c
   3:Generated_Source\PSoC6/CapSense_INT.c **** * \version 2.0
   4:Generated_Source\PSoC6/CapSense_INT.c **** *
   5:Generated_Source\PSoC6/CapSense_INT.c **** * \brief
   6:Generated_Source\PSoC6/CapSense_INT.c **** *   This file contains the source code for implementation of the CapSense
   7:Generated_Source\PSoC6/CapSense_INT.c **** *   Component Interrupt Service Routine (ISR).
   8:Generated_Source\PSoC6/CapSense_INT.c **** *
   9:Generated_Source\PSoC6/CapSense_INT.c **** * \see CapSense v2.0 Datasheet
  10:Generated_Source\PSoC6/CapSense_INT.c **** *
  11:Generated_Source\PSoC6/CapSense_INT.c **** *//*****************************************************************************
  12:Generated_Source\PSoC6/CapSense_INT.c **** * Copyright (2016-2017), Cypress Semiconductor Corporation.
  13:Generated_Source\PSoC6/CapSense_INT.c **** ********************************************************************************
  14:Generated_Source\PSoC6/CapSense_INT.c **** * This software is owned by Cypress Semiconductor Corporation (Cypress) and is
  15:Generated_Source\PSoC6/CapSense_INT.c **** * protected by and subject to worldwide patent protection (United States and
  16:Generated_Source\PSoC6/CapSense_INT.c **** * foreign), United States copyright laws and international treaty provisions.
  17:Generated_Source\PSoC6/CapSense_INT.c **** * Cypress hereby grants to licensee a personal, non-exclusive, non-transferable
  18:Generated_Source\PSoC6/CapSense_INT.c **** * license to copy, use, modify, create derivative works of, and compile the
  19:Generated_Source\PSoC6/CapSense_INT.c **** * Cypress Source Code and derivative works for the sole purpose of creating
  20:Generated_Source\PSoC6/CapSense_INT.c **** * custom software in support of licensee product to be used only in conjunction
  21:Generated_Source\PSoC6/CapSense_INT.c **** * with a Cypress integrated circuit as specified in the applicable agreement.
  22:Generated_Source\PSoC6/CapSense_INT.c **** * Any reproduction, modification, translation, compilation, or representation of
  23:Generated_Source\PSoC6/CapSense_INT.c **** * this software except as specified above is prohibited without the express
  24:Generated_Source\PSoC6/CapSense_INT.c **** * written permission of Cypress.
  25:Generated_Source\PSoC6/CapSense_INT.c **** *
  26:Generated_Source\PSoC6/CapSense_INT.c **** * Disclaimer: CYPRESS MAKES NO WARRANTY OF ANY KIND, EXPRESS OR IMPLIED, WITH
  27:Generated_Source\PSoC6/CapSense_INT.c **** * REGARD TO THIS MATERIAL, INCLUDING, BUT NOT LIMITED TO, THE IMPLIED
  28:Generated_Source\PSoC6/CapSense_INT.c **** * WARRANTIES OF MERCHANTABILITY AND FITNESS FOR A PARTICULAR PURPOSE.
  29:Generated_Source\PSoC6/CapSense_INT.c **** * Cypress reserves the right to make changes without further notice to the
  30:Generated_Source\PSoC6/CapSense_INT.c **** * materials described herein. Cypress does not assume any liability arising out
  31:Generated_Source\PSoC6/CapSense_INT.c **** * of the application or use of any product or circuit described herein. Cypress
ARM GAS  C:\Users\ikomb\AppData\Local\Temp\ccgK0zqu.s 			page 2


  32:Generated_Source\PSoC6/CapSense_INT.c **** * does not authorize its products for use as critical components in life-support
  33:Generated_Source\PSoC6/CapSense_INT.c **** * systems where a malfunction or failure may reasonably be expected to result in
  34:Generated_Source\PSoC6/CapSense_INT.c **** * significant injury to the user. The inclusion of Cypress' product in a life-
  35:Generated_Source\PSoC6/CapSense_INT.c **** * support systems application implies that the manufacturer assumes all risk of
  36:Generated_Source\PSoC6/CapSense_INT.c **** * such use and in doing so indemnifies Cypress against all charges. Use may be
  37:Generated_Source\PSoC6/CapSense_INT.c **** * limited by and subject to the applicable Cypress software license agreement.
  38:Generated_Source\PSoC6/CapSense_INT.c **** *******************************************************************************/
  39:Generated_Source\PSoC6/CapSense_INT.c **** #include "syslib/cy_syslib.h"
  40:Generated_Source\PSoC6/CapSense_INT.c **** #include "cyfitter.h"
  41:Generated_Source\PSoC6/CapSense_INT.c **** #include "CapSense_Configuration.h"
  42:Generated_Source\PSoC6/CapSense_INT.c **** #include "CapSense_Structure.h"
  43:Generated_Source\PSoC6/CapSense_INT.c **** #include "CapSense_Sensing.h"
  44:Generated_Source\PSoC6/CapSense_INT.c **** #if (CapSense_ENABLE == CapSense_CSD_EN)
  45:Generated_Source\PSoC6/CapSense_INT.c ****     #include "CapSense_SensingCSD_LL.h"
  46:Generated_Source\PSoC6/CapSense_INT.c **** #endif /* (CapSense_ENABLE == CapSense_CSD_EN) */
  47:Generated_Source\PSoC6/CapSense_INT.c **** #include "cyapicallbacks.h"
  48:Generated_Source\PSoC6/CapSense_INT.c **** 
  49:Generated_Source\PSoC6/CapSense_INT.c **** /*******************************************************************************
  50:Generated_Source\PSoC6/CapSense_INT.c **** * Static Function Prototypes
  51:Generated_Source\PSoC6/CapSense_INT.c **** *******************************************************************************/
  52:Generated_Source\PSoC6/CapSense_INT.c **** /**
  53:Generated_Source\PSoC6/CapSense_INT.c **** * \cond SECTION_CYSENSE_INTERNAL
  54:Generated_Source\PSoC6/CapSense_INT.c **** * \addtogroup group_cysense_internal
  55:Generated_Source\PSoC6/CapSense_INT.c **** * \{
  56:Generated_Source\PSoC6/CapSense_INT.c **** */
  57:Generated_Source\PSoC6/CapSense_INT.c **** 
  58:Generated_Source\PSoC6/CapSense_INT.c **** #if (((CapSense_ENABLE == CapSense_CSD_EN) || (CapSense_ENABLE == CapSense_CSD_CSX_EN)) && \
  59:Generated_Source\PSoC6/CapSense_INT.c ****      (CapSense_ENABLE == CapSense_MULTI_FREQ_SCAN_EN))
  60:Generated_Source\PSoC6/CapSense_INT.c ****     static void CapSense_SsNextFrequencyScan(void);
  61:Generated_Source\PSoC6/CapSense_INT.c **** #endif /* (((CapSense_ENABLE == CapSense_CSD_EN) || (CapSense_ENABLE == CapSense_CSD_CSX_EN)) && \
  62:Generated_Source\PSoC6/CapSense_INT.c ****             (CapSense_ENABLE == CapSense_MULTI_FREQ_SCAN_EN)) */
  63:Generated_Source\PSoC6/CapSense_INT.c **** 
  64:Generated_Source\PSoC6/CapSense_INT.c **** #if ((CapSense_ENABLE == CapSense_CSD_EN) || (CapSense_ENABLE == CapSense_CSD_CSX_EN))
  65:Generated_Source\PSoC6/CapSense_INT.c ****     static void CapSense_SsCSDPostScan(void);
  66:Generated_Source\PSoC6/CapSense_INT.c ****     static void CapSense_SsCSDInitNextScan(void);
  67:Generated_Source\PSoC6/CapSense_INT.c **** #endif /* ((CapSense_ENABLE == CapSense_CSD_EN) || (CapSense_ENABLE == CapSense_CSD_CSX_EN)) */
  68:Generated_Source\PSoC6/CapSense_INT.c **** /** \}
  69:Generated_Source\PSoC6/CapSense_INT.c **** * \endcond */
  70:Generated_Source\PSoC6/CapSense_INT.c **** 
  71:Generated_Source\PSoC6/CapSense_INT.c **** 
  72:Generated_Source\PSoC6/CapSense_INT.c **** /**
  73:Generated_Source\PSoC6/CapSense_INT.c **** * \cond SECTION_CYSENSE_INTERRUPT
  74:Generated_Source\PSoC6/CapSense_INT.c **** * \addtogroup group_cysense_interrupt
  75:Generated_Source\PSoC6/CapSense_INT.c **** * \{
  76:Generated_Source\PSoC6/CapSense_INT.c **** */
  77:Generated_Source\PSoC6/CapSense_INT.c **** 
  78:Generated_Source\PSoC6/CapSense_INT.c **** 
  79:Generated_Source\PSoC6/CapSense_INT.c **** #if ((CapSense_ENABLE == CapSense_CSD_EN) || (CapSense_ENABLE == CapSense_CSD_CSX_EN))
  80:Generated_Source\PSoC6/CapSense_INT.c **** 
  81:Generated_Source\PSoC6/CapSense_INT.c **** 
  82:Generated_Source\PSoC6/CapSense_INT.c ****     /*******************************************************************************
  83:Generated_Source\PSoC6/CapSense_INT.c ****     * Function Name: CapSense_CSDPostSingleScan
  84:Generated_Source\PSoC6/CapSense_INT.c ****     ****************************************************************************//**
  85:Generated_Source\PSoC6/CapSense_INT.c ****     *
  86:Generated_Source\PSoC6/CapSense_INT.c ****     * \brief
  87:Generated_Source\PSoC6/CapSense_INT.c ****     *  This is an internal ISR function for the single-sensor scanning implementation.
  88:Generated_Source\PSoC6/CapSense_INT.c ****     *
ARM GAS  C:\Users\ikomb\AppData\Local\Temp\ccgK0zqu.s 			page 3


  89:Generated_Source\PSoC6/CapSense_INT.c ****     * \details
  90:Generated_Source\PSoC6/CapSense_INT.c ****     *  This ISR handler is triggered when the user calls the
  91:Generated_Source\PSoC6/CapSense_INT.c ****     *  CapSense_CSDScanExt() function.
  92:Generated_Source\PSoC6/CapSense_INT.c ****     *
  93:Generated_Source\PSoC6/CapSense_INT.c ****     *  The following tasks are performed:
  94:Generated_Source\PSoC6/CapSense_INT.c ****     *    1. Check if the raw data is not noisy.
  95:Generated_Source\PSoC6/CapSense_INT.c ****     *    2. Read the Counter register and update the data structure with raw data.
  96:Generated_Source\PSoC6/CapSense_INT.c ****     *    3. Configure and start the scan for the next frequency if the
  97:Generated_Source\PSoC6/CapSense_INT.c ****     *      multi-frequency is enabled.
  98:Generated_Source\PSoC6/CapSense_INT.c ****     *    4. Update the Scan Counter.
  99:Generated_Source\PSoC6/CapSense_INT.c ****     *    5. Reset the BUSY flag.
 100:Generated_Source\PSoC6/CapSense_INT.c ****     *    6. Enable the CSD interrupt.
 101:Generated_Source\PSoC6/CapSense_INT.c ****     *
 102:Generated_Source\PSoC6/CapSense_INT.c ****     *  The ISR handler changes the scanning for the next frequency
 103:Generated_Source\PSoC6/CapSense_INT.c ****     *  channels when multi-frequency scanning is enabled.
 104:Generated_Source\PSoC6/CapSense_INT.c ****     *
 105:Generated_Source\PSoC6/CapSense_INT.c ****     *  This function has two Macro Callbacks that allow calling the user code
 106:Generated_Source\PSoC6/CapSense_INT.c ****     *  from macros specified in Component's generated code. Refer to the
 107:Generated_Source\PSoC6/CapSense_INT.c ****     *  \ref group_cysense_macrocallbacks section of the PSoC Creator User Guide
 108:Generated_Source\PSoC6/CapSense_INT.c ****     *  for details.
 109:Generated_Source\PSoC6/CapSense_INT.c ****     *
 110:Generated_Source\PSoC6/CapSense_INT.c ****     *******************************************************************************/
 111:Generated_Source\PSoC6/CapSense_INT.c ****     void CapSense_CSDPostSingleScan(void)
 112:Generated_Source\PSoC6/CapSense_INT.c ****     {
 113:Generated_Source\PSoC6/CapSense_INT.c ****         #ifdef CapSense_ENTRY_CALLBACK
 114:Generated_Source\PSoC6/CapSense_INT.c ****             CapSense_EntryCallback();
 115:Generated_Source\PSoC6/CapSense_INT.c ****         #endif /* CapSense_ENTRY_CALLBACK */
 116:Generated_Source\PSoC6/CapSense_INT.c **** 
 117:Generated_Source\PSoC6/CapSense_INT.c ****         /* Clear pending interrupt */
 118:Generated_Source\PSoC6/CapSense_INT.c ****         CY_SET_REG32(CapSense_CSD_INTR_PTR, CapSense_CSD_INTR_ALL_MSK);
 119:Generated_Source\PSoC6/CapSense_INT.c ****         (void)CY_GET_REG32(CapSense_CSD_INTR_PTR);
 120:Generated_Source\PSoC6/CapSense_INT.c **** 
 121:Generated_Source\PSoC6/CapSense_INT.c ****         #if (CapSense_ENABLE == CapSense_CSD_NOISE_METRIC_EN)
 122:Generated_Source\PSoC6/CapSense_INT.c ****             if ((CapSense_CSD_NOISE_METRIC_TH < ((CY_GET_REG32(CapSense_CSD_RESULT_VAL1_PTR) &
 123:Generated_Source\PSoC6/CapSense_INT.c ****                                                         CapSense_CSD_RESULT_VAL1_BAD_CONVS_MSK) >>
 124:Generated_Source\PSoC6/CapSense_INT.c ****                                                         CapSense_CSD_RESULT_VAL1_BAD_CONVS_POS)) &&
 125:Generated_Source\PSoC6/CapSense_INT.c ****                                                         (0u < CapSense_badConversionsNum))
 126:Generated_Source\PSoC6/CapSense_INT.c ****             {
 127:Generated_Source\PSoC6/CapSense_INT.c ****                 /* Decrement bad conversions number */
 128:Generated_Source\PSoC6/CapSense_INT.c ****                 CapSense_badConversionsNum--;
 129:Generated_Source\PSoC6/CapSense_INT.c **** 
 130:Generated_Source\PSoC6/CapSense_INT.c ****                 /* Start the re-scan */
 131:Generated_Source\PSoC6/CapSense_INT.c ****                 CY_SET_REG32(CapSense_CSD_SEQ_START_PTR, CapSense_CSD_SEQ_START_AZ0_SKIP_MSK |
 132:Generated_Source\PSoC6/CapSense_INT.c ****                                                              CapSense_CSD_SEQ_START_AZ1_SKIP_MSK |
 133:Generated_Source\PSoC6/CapSense_INT.c ****                                                              CapSense_CSD_SEQ_START_START_MSK);
 134:Generated_Source\PSoC6/CapSense_INT.c ****             }
 135:Generated_Source\PSoC6/CapSense_INT.c ****             else
 136:Generated_Source\PSoC6/CapSense_INT.c ****             {
 137:Generated_Source\PSoC6/CapSense_INT.c ****         #endif /* (CapSense_ENABLE == CapSense_CSD_NOISE_METRIC_EN) */
 138:Generated_Source\PSoC6/CapSense_INT.c **** 
 139:Generated_Source\PSoC6/CapSense_INT.c ****             CapSense_SsCSDPostScan();
 140:Generated_Source\PSoC6/CapSense_INT.c **** 
 141:Generated_Source\PSoC6/CapSense_INT.c ****             #if (CapSense_ENABLE == CapSense_MULTI_FREQ_SCAN_EN)
 142:Generated_Source\PSoC6/CapSense_INT.c ****                 if (CapSense_FREQ_CHANNEL_2 > CapSense_scanFreqIndex)
 143:Generated_Source\PSoC6/CapSense_INT.c ****                 {
 144:Generated_Source\PSoC6/CapSense_INT.c ****                     /* Scan the next channel */
 145:Generated_Source\PSoC6/CapSense_INT.c ****                     CapSense_SsNextFrequencyScan();
ARM GAS  C:\Users\ikomb\AppData\Local\Temp\ccgK0zqu.s 			page 4


 146:Generated_Source\PSoC6/CapSense_INT.c ****                 }
 147:Generated_Source\PSoC6/CapSense_INT.c ****                 else
 148:Generated_Source\PSoC6/CapSense_INT.c ****                 {
 149:Generated_Source\PSoC6/CapSense_INT.c ****                     /* All channels are scanned. Reset the frequency scan channel */
 150:Generated_Source\PSoC6/CapSense_INT.c ****                     CapSense_scanFreqIndex = CapSense_FREQ_CHANNEL_0;
 151:Generated_Source\PSoC6/CapSense_INT.c ****                     CapSense_SsChangeClkFreq(CapSense_FREQ_CHANNEL_0);
 152:Generated_Source\PSoC6/CapSense_INT.c **** 
 153:Generated_Source\PSoC6/CapSense_INT.c ****                     #if (CapSense_ENABLE == CapSense_BLOCK_OFF_AFTER_SCAN_EN)
 154:Generated_Source\PSoC6/CapSense_INT.c ****                         /* Disable HW IP block */
 155:Generated_Source\PSoC6/CapSense_INT.c ****                         CY_SET_REG32(CapSense_CSD_CONFIG_PTR, CapSense_configCsd);
 156:Generated_Source\PSoC6/CapSense_INT.c ****                     #endif /* (CapSense_ENABLE == CapSense_BLOCK_OFF_AFTER_SCAN_EN) */
 157:Generated_Source\PSoC6/CapSense_INT.c **** 
 158:Generated_Source\PSoC6/CapSense_INT.c ****                     /* Update Scan Counter */
 159:Generated_Source\PSoC6/CapSense_INT.c ****                     CapSense_dsRam.scanCounter++;
 160:Generated_Source\PSoC6/CapSense_INT.c **** 
 161:Generated_Source\PSoC6/CapSense_INT.c ****                     /* Sensor is totally scanned. Reset BUSY flag */
 162:Generated_Source\PSoC6/CapSense_INT.c ****                     CapSense_dsRam.status &= ~(CapSense_SW_STS_BUSY | CapSense_WDGT_SW_STS_BUSY);
 163:Generated_Source\PSoC6/CapSense_INT.c ****                 }
 164:Generated_Source\PSoC6/CapSense_INT.c ****             #else
 165:Generated_Source\PSoC6/CapSense_INT.c ****                 {
 166:Generated_Source\PSoC6/CapSense_INT.c ****                     #if (CapSense_ENABLE == CapSense_BLOCK_OFF_AFTER_SCAN_EN)
 167:Generated_Source\PSoC6/CapSense_INT.c ****                         /* Disable HW IP block */
 168:Generated_Source\PSoC6/CapSense_INT.c ****                         CY_SET_REG32(CapSense_CSD_CONFIG_PTR, CapSense_configCsd);
 169:Generated_Source\PSoC6/CapSense_INT.c ****                     #endif /* (CapSense_ENABLE == CapSense_BLOCK_OFF_AFTER_SCAN_EN) */
 170:Generated_Source\PSoC6/CapSense_INT.c **** 
 171:Generated_Source\PSoC6/CapSense_INT.c ****                     /* Update Scan Counter */
 172:Generated_Source\PSoC6/CapSense_INT.c ****                     CapSense_dsRam.scanCounter++;
 173:Generated_Source\PSoC6/CapSense_INT.c **** 
 174:Generated_Source\PSoC6/CapSense_INT.c ****                     /* Sensor is totally scanned. Reset BUSY flag */
 175:Generated_Source\PSoC6/CapSense_INT.c ****                     CapSense_dsRam.status &= ~(CapSense_SW_STS_BUSY | CapSense_WDGT_SW_STS_BUSY);
 176:Generated_Source\PSoC6/CapSense_INT.c ****                 }
 177:Generated_Source\PSoC6/CapSense_INT.c ****             #endif /* (CapSense_ENABLE == CapSense_MULTI_FREQ_SCAN_EN) */
 178:Generated_Source\PSoC6/CapSense_INT.c ****     #if (CapSense_ENABLE == CapSense_CSD_NOISE_METRIC_EN)
 179:Generated_Source\PSoC6/CapSense_INT.c ****         }
 180:Generated_Source\PSoC6/CapSense_INT.c ****     #endif /* (CapSense_ENABLE == CapSense_CSD_NOISE_METRIC_EN) */
 181:Generated_Source\PSoC6/CapSense_INT.c **** 
 182:Generated_Source\PSoC6/CapSense_INT.c ****         #ifdef CapSense_EXIT_CALLBACK
 183:Generated_Source\PSoC6/CapSense_INT.c ****             CapSense_ExitCallback();
 184:Generated_Source\PSoC6/CapSense_INT.c ****         #endif /* CapSense_EXIT_CALLBACK */
 185:Generated_Source\PSoC6/CapSense_INT.c ****     }
 186:Generated_Source\PSoC6/CapSense_INT.c **** 
 187:Generated_Source\PSoC6/CapSense_INT.c **** 
 188:Generated_Source\PSoC6/CapSense_INT.c ****     /*******************************************************************************
 189:Generated_Source\PSoC6/CapSense_INT.c ****     * Function Name: CapSense_CSDPostMultiScan
 190:Generated_Source\PSoC6/CapSense_INT.c ****     ****************************************************************************//**
 191:Generated_Source\PSoC6/CapSense_INT.c ****     *
 192:Generated_Source\PSoC6/CapSense_INT.c ****     * \brief
 193:Generated_Source\PSoC6/CapSense_INT.c ****     *  This is an internal ISR function for the multiple-sensor scanning
 194:Generated_Source\PSoC6/CapSense_INT.c ****     *  implementation.
 195:Generated_Source\PSoC6/CapSense_INT.c ****     *
 196:Generated_Source\PSoC6/CapSense_INT.c ****     * \details
 197:Generated_Source\PSoC6/CapSense_INT.c ****     *  This ISR handler is triggered when the user calls the
 198:Generated_Source\PSoC6/CapSense_INT.c ****     *  CapSense_Scan() or CapSense_ScanAllWidgets() APIs.
 199:Generated_Source\PSoC6/CapSense_INT.c ****     *
 200:Generated_Source\PSoC6/CapSense_INT.c ****     *  The following tasks are performed:
 201:Generated_Source\PSoC6/CapSense_INT.c ****     *    1. Disable the CSD interrupt.
 202:Generated_Source\PSoC6/CapSense_INT.c ****     *    2. Read the Counter register and update the data structure with raw data.
ARM GAS  C:\Users\ikomb\AppData\Local\Temp\ccgK0zqu.s 			page 5


 203:Generated_Source\PSoC6/CapSense_INT.c ****     *    3. Connect the Vref buffer to the AMUX bus.
 204:Generated_Source\PSoC6/CapSense_INT.c ****     *    4. Disable the CSD block (after the widget has been scanned).
 205:Generated_Source\PSoC6/CapSense_INT.c ****     *    5. Update the Scan Counter.
 206:Generated_Source\PSoC6/CapSense_INT.c ****     *    6. Reset the BUSY flag.
 207:Generated_Source\PSoC6/CapSense_INT.c ****     *    7. Enable the CSD interrupt.
 208:Generated_Source\PSoC6/CapSense_INT.c ****     *
 209:Generated_Source\PSoC6/CapSense_INT.c ****     *  The ISR handler initializes scanning for the previous sensor when the
 210:Generated_Source\PSoC6/CapSense_INT.c ****     *  widget has more than one sensor.
 211:Generated_Source\PSoC6/CapSense_INT.c ****     *  The ISR handler initializes scanning for the next widget when the
 212:Generated_Source\PSoC6/CapSense_INT.c ****     *  CapSense_ScanAllWidgets() APIs are called and the project has
 213:Generated_Source\PSoC6/CapSense_INT.c ****     *  more than one widget.
 214:Generated_Source\PSoC6/CapSense_INT.c ****     *  The ISR handler changes the IMO and initializes scanning for the next
 215:Generated_Source\PSoC6/CapSense_INT.c ****     *  frequency channels when multi-frequency scanning is enabled.
 216:Generated_Source\PSoC6/CapSense_INT.c ****     *
 217:Generated_Source\PSoC6/CapSense_INT.c ****     *  This function has two Macro Callbacks that allow calling the user
 218:Generated_Source\PSoC6/CapSense_INT.c ****     *  code from macros specified in Component's generated code. Refer to the
 219:Generated_Source\PSoC6/CapSense_INT.c ****     *  \ref group_cysense_macrocallbacks section of the PSoC Creator User Guide
 220:Generated_Source\PSoC6/CapSense_INT.c ****     *  for details.
 221:Generated_Source\PSoC6/CapSense_INT.c ****     *
 222:Generated_Source\PSoC6/CapSense_INT.c ****     *******************************************************************************/
 223:Generated_Source\PSoC6/CapSense_INT.c ****     void CapSense_CSDPostMultiScan(void)
 224:Generated_Source\PSoC6/CapSense_INT.c ****     {
 225:Generated_Source\PSoC6/CapSense_INT.c ****         /* Declare and initialize ptr to sensor IO structure to appropriate address */
 226:Generated_Source\PSoC6/CapSense_INT.c ****         CapSense_FLASH_IO_STRUCT const *curSnsIOPtr = (CapSense_FLASH_IO_STRUCT const *)
 227:Generated_Source\PSoC6/CapSense_INT.c ****                                                           CapSense_dsFlash.wdgtArray[CapSense_widge
 228:Generated_Source\PSoC6/CapSense_INT.c ****                                                           + CapSense_sensorIndex;
 229:Generated_Source\PSoC6/CapSense_INT.c **** 
 230:Generated_Source\PSoC6/CapSense_INT.c ****         #ifdef CapSense_ENTRY_CALLBACK
 231:Generated_Source\PSoC6/CapSense_INT.c ****             CapSense_EntryCallback();
 232:Generated_Source\PSoC6/CapSense_INT.c ****         #endif /* CapSense_ENTRY_CALLBACK */
 233:Generated_Source\PSoC6/CapSense_INT.c **** 
 234:Generated_Source\PSoC6/CapSense_INT.c ****         /* Clear pending interrupt */
 235:Generated_Source\PSoC6/CapSense_INT.c ****         CY_SET_REG32(CapSense_CSD_INTR_PTR, CapSense_CSD_INTR_ALL_MSK);
 236:Generated_Source\PSoC6/CapSense_INT.c ****         (void)CY_GET_REG32(CapSense_CSD_INTR_PTR);
 237:Generated_Source\PSoC6/CapSense_INT.c **** 
 238:Generated_Source\PSoC6/CapSense_INT.c ****         #if (CapSense_ENABLE == CapSense_CSD_NOISE_METRIC_EN)
 239:Generated_Source\PSoC6/CapSense_INT.c ****             if ((CapSense_CSD_NOISE_METRIC_TH < ((CY_GET_REG32(CapSense_CSD_RESULT_VAL1_PTR) &
 240:Generated_Source\PSoC6/CapSense_INT.c ****                                                       CapSense_CSD_RESULT_VAL1_BAD_CONVS_MSK) >>
 241:Generated_Source\PSoC6/CapSense_INT.c ****                                                       CapSense_CSD_RESULT_VAL1_BAD_CONVS_POS)) &&
 242:Generated_Source\PSoC6/CapSense_INT.c ****                                                       (0u < CapSense_badConversionsNum))
 243:Generated_Source\PSoC6/CapSense_INT.c ****             {
 244:Generated_Source\PSoC6/CapSense_INT.c ****                 /* Decrement bad conversions number */
 245:Generated_Source\PSoC6/CapSense_INT.c ****                 CapSense_badConversionsNum--;
 246:Generated_Source\PSoC6/CapSense_INT.c **** 
 247:Generated_Source\PSoC6/CapSense_INT.c ****                 /* Start the re-scan */
 248:Generated_Source\PSoC6/CapSense_INT.c ****                 CY_SET_REG32(CapSense_CSD_SEQ_START_PTR, CapSense_CSD_SEQ_START_AZ0_SKIP_MSK |
 249:Generated_Source\PSoC6/CapSense_INT.c ****                                                              CapSense_CSD_SEQ_START_AZ1_SKIP_MSK |
 250:Generated_Source\PSoC6/CapSense_INT.c ****                                                              CapSense_CSD_SEQ_START_START_MSK);
 251:Generated_Source\PSoC6/CapSense_INT.c ****             }
 252:Generated_Source\PSoC6/CapSense_INT.c ****             else
 253:Generated_Source\PSoC6/CapSense_INT.c ****             {
 254:Generated_Source\PSoC6/CapSense_INT.c ****         #endif /* (CapSense_ENABLE == CapSense_CSD_NOISE_METRIC_EN) */
 255:Generated_Source\PSoC6/CapSense_INT.c **** 
 256:Generated_Source\PSoC6/CapSense_INT.c ****         CapSense_SsCSDPostScan();
 257:Generated_Source\PSoC6/CapSense_INT.c **** 
 258:Generated_Source\PSoC6/CapSense_INT.c ****         /* Disable sensor when all frequency channels are scanned */
 259:Generated_Source\PSoC6/CapSense_INT.c ****         #if (CapSense_ENABLE == CapSense_MULTI_FREQ_SCAN_EN)
ARM GAS  C:\Users\ikomb\AppData\Local\Temp\ccgK0zqu.s 			page 6


 260:Generated_Source\PSoC6/CapSense_INT.c ****             if (CapSense_FREQ_CHANNEL_2 == CapSense_scanFreqIndex)
 261:Generated_Source\PSoC6/CapSense_INT.c ****         #endif /* (CapSense_ENABLE == CapSense_MULTI_FREQ_SCAN_EN) */
 262:Generated_Source\PSoC6/CapSense_INT.c ****         {
 263:Generated_Source\PSoC6/CapSense_INT.c ****             /* Disable sensor */
 264:Generated_Source\PSoC6/CapSense_INT.c ****             CapSense_CSDDisconnectSns(curSnsIOPtr);
 265:Generated_Source\PSoC6/CapSense_INT.c ****         }
 266:Generated_Source\PSoC6/CapSense_INT.c **** 
 267:Generated_Source\PSoC6/CapSense_INT.c ****         #if (CapSense_ENABLE == CapSense_MULTI_FREQ_SCAN_EN)
 268:Generated_Source\PSoC6/CapSense_INT.c ****             if (CapSense_FREQ_CHANNEL_2 > CapSense_scanFreqIndex)
 269:Generated_Source\PSoC6/CapSense_INT.c ****             {
 270:Generated_Source\PSoC6/CapSense_INT.c ****                  /* Scan the next channel */
 271:Generated_Source\PSoC6/CapSense_INT.c ****                 CapSense_SsNextFrequencyScan();
 272:Generated_Source\PSoC6/CapSense_INT.c ****             }
 273:Generated_Source\PSoC6/CapSense_INT.c ****             else
 274:Generated_Source\PSoC6/CapSense_INT.c ****             {
 275:Generated_Source\PSoC6/CapSense_INT.c ****                 /* All channels are scanned. Reset the frequency scan channel */
 276:Generated_Source\PSoC6/CapSense_INT.c ****                 CapSense_scanFreqIndex = CapSense_FREQ_CHANNEL_0;
 277:Generated_Source\PSoC6/CapSense_INT.c ****                 CapSense_SsChangeClkFreq(CapSense_FREQ_CHANNEL_0);
 278:Generated_Source\PSoC6/CapSense_INT.c **** 
 279:Generated_Source\PSoC6/CapSense_INT.c ****                  /* Scan the next sensor */
 280:Generated_Source\PSoC6/CapSense_INT.c ****                 CapSense_SsCSDInitNextScan();
 281:Generated_Source\PSoC6/CapSense_INT.c ****             }
 282:Generated_Source\PSoC6/CapSense_INT.c ****         #else
 283:Generated_Source\PSoC6/CapSense_INT.c ****             /* Scan the next sensor */
 284:Generated_Source\PSoC6/CapSense_INT.c ****             CapSense_SsCSDInitNextScan();
 285:Generated_Source\PSoC6/CapSense_INT.c ****         #endif /* (CapSense_ENABLE == CapSense_MULTI_FREQ_SCAN_EN) */
 286:Generated_Source\PSoC6/CapSense_INT.c ****     #if (CapSense_ENABLE == CapSense_CSD_NOISE_METRIC_EN)
 287:Generated_Source\PSoC6/CapSense_INT.c ****         }
 288:Generated_Source\PSoC6/CapSense_INT.c ****     #endif /* (CapSense_ENABLE == CapSense_CSD_NOISE_METRIC_EN) */
 289:Generated_Source\PSoC6/CapSense_INT.c **** 
 290:Generated_Source\PSoC6/CapSense_INT.c ****     #ifdef CapSense_EXIT_CALLBACK
 291:Generated_Source\PSoC6/CapSense_INT.c ****         CapSense_ExitCallback();
 292:Generated_Source\PSoC6/CapSense_INT.c ****     #endif /* CapSense_EXIT_CALLBACK */
 293:Generated_Source\PSoC6/CapSense_INT.c **** }
 294:Generated_Source\PSoC6/CapSense_INT.c **** 
 295:Generated_Source\PSoC6/CapSense_INT.c **** 
 296:Generated_Source\PSoC6/CapSense_INT.c **** #if (CapSense_ENABLE == CapSense_CSD_GANGED_SNS_EN)
 297:Generated_Source\PSoC6/CapSense_INT.c **** /*******************************************************************************
 298:Generated_Source\PSoC6/CapSense_INT.c **** * Function Name: CapSense_CSDPostMultiScanGanged
 299:Generated_Source\PSoC6/CapSense_INT.c **** ****************************************************************************//**
 300:Generated_Source\PSoC6/CapSense_INT.c **** *
 301:Generated_Source\PSoC6/CapSense_INT.c **** * \brief
 302:Generated_Source\PSoC6/CapSense_INT.c **** *  This is an internal ISR function for the multiple-sensor scanning
 303:Generated_Source\PSoC6/CapSense_INT.c **** *  implementation for ganged sensors.
 304:Generated_Source\PSoC6/CapSense_INT.c **** *
 305:Generated_Source\PSoC6/CapSense_INT.c **** * \details
 306:Generated_Source\PSoC6/CapSense_INT.c **** *  This ISR handler is triggered when the user calls the
 307:Generated_Source\PSoC6/CapSense_INT.c **** *  CapSense_Scan() API for a ganged sensor or the
 308:Generated_Source\PSoC6/CapSense_INT.c **** *  CapSense_ScanAllWidgets() API in the project with ganged sensors.
 309:Generated_Source\PSoC6/CapSense_INT.c **** *
 310:Generated_Source\PSoC6/CapSense_INT.c **** *  The following tasks are performed:
 311:Generated_Source\PSoC6/CapSense_INT.c **** *    1. Disable the CSD interrupt.
 312:Generated_Source\PSoC6/CapSense_INT.c **** *    2. Read the Counter register and update the data structure with raw data.
 313:Generated_Source\PSoC6/CapSense_INT.c **** *    3. Connect the Vref buffer to the AMUX bus.
 314:Generated_Source\PSoC6/CapSense_INT.c **** *    4. Disable the CSD block (after the widget has been scanned).
 315:Generated_Source\PSoC6/CapSense_INT.c **** *    5. Update the Scan Counter.
 316:Generated_Source\PSoC6/CapSense_INT.c **** *    6. Reset the BUSY flag.
ARM GAS  C:\Users\ikomb\AppData\Local\Temp\ccgK0zqu.s 			page 7


 317:Generated_Source\PSoC6/CapSense_INT.c **** *    7. Enable the CSD interrupt.
 318:Generated_Source\PSoC6/CapSense_INT.c **** *
 319:Generated_Source\PSoC6/CapSense_INT.c **** *  The ISR handler initializes scanning for the previous sensor when the
 320:Generated_Source\PSoC6/CapSense_INT.c **** *  widget has more than one sensor.
 321:Generated_Source\PSoC6/CapSense_INT.c **** *  The ISR handler initializes scanning for the next widget when the
 322:Generated_Source\PSoC6/CapSense_INT.c **** *  CapSense_ScanAllWidgets() APIs are called and the project has
 323:Generated_Source\PSoC6/CapSense_INT.c **** *  more than one widget.
 324:Generated_Source\PSoC6/CapSense_INT.c **** *  The ISR handler changes the IMO and initializes scanning for the next
 325:Generated_Source\PSoC6/CapSense_INT.c **** *  frequency channels when multi-frequency scanning is enabled.
 326:Generated_Source\PSoC6/CapSense_INT.c **** *
 327:Generated_Source\PSoC6/CapSense_INT.c **** *  This function has two Macro Callbacks that allow calling the user
 328:Generated_Source\PSoC6/CapSense_INT.c **** *  code from macros specified in Component's generated code. Refer to the
 329:Generated_Source\PSoC6/CapSense_INT.c **** *  \ref group_cysense_macrocallbacks section of the PSoC Creator User Guide
 330:Generated_Source\PSoC6/CapSense_INT.c **** *  for details.
 331:Generated_Source\PSoC6/CapSense_INT.c **** *
 332:Generated_Source\PSoC6/CapSense_INT.c **** *******************************************************************************/
 333:Generated_Source\PSoC6/CapSense_INT.c **** void CapSense_CSDPostMultiScanGanged(void)
 334:Generated_Source\PSoC6/CapSense_INT.c **** {
 335:Generated_Source\PSoC6/CapSense_INT.c ****     #ifdef CapSense_ENTRY_CALLBACK
 336:Generated_Source\PSoC6/CapSense_INT.c ****         CapSense_EntryCallback();
 337:Generated_Source\PSoC6/CapSense_INT.c ****     #endif /* CapSense_ENTRY_CALLBACK */
 338:Generated_Source\PSoC6/CapSense_INT.c **** 
 339:Generated_Source\PSoC6/CapSense_INT.c ****         /* Clear pending interrupt */
 340:Generated_Source\PSoC6/CapSense_INT.c ****     CY_SET_REG32(CapSense_CSD_INTR_PTR, CapSense_CSD_INTR_ALL_MSK);
 341:Generated_Source\PSoC6/CapSense_INT.c ****     (void)CY_GET_REG32(CapSense_CSD_INTR_PTR);
 342:Generated_Source\PSoC6/CapSense_INT.c **** 
 343:Generated_Source\PSoC6/CapSense_INT.c ****     #if (CapSense_ENABLE == CapSense_CSD_NOISE_METRIC_EN)
 344:Generated_Source\PSoC6/CapSense_INT.c ****         if ((CapSense_CSD_NOISE_METRIC_TH < ((CY_GET_REG32(CapSense_CSD_RESULT_VAL1_PTR) &
 345:Generated_Source\PSoC6/CapSense_INT.c ****                                                   CapSense_CSD_RESULT_VAL1_BAD_CONVS_MSK) >>
 346:Generated_Source\PSoC6/CapSense_INT.c ****                                                   CapSense_CSD_RESULT_VAL1_BAD_CONVS_POS)) &&
 347:Generated_Source\PSoC6/CapSense_INT.c ****                                                   (0u < CapSense_badConversionsNum))
 348:Generated_Source\PSoC6/CapSense_INT.c ****         {
 349:Generated_Source\PSoC6/CapSense_INT.c ****             /* Decrement bad conversions number */
 350:Generated_Source\PSoC6/CapSense_INT.c ****             CapSense_badConversionsNum--;
 351:Generated_Source\PSoC6/CapSense_INT.c **** 
 352:Generated_Source\PSoC6/CapSense_INT.c ****             /* Start the re-scan */
 353:Generated_Source\PSoC6/CapSense_INT.c ****             CY_SET_REG32(CapSense_CSD_SEQ_START_PTR, CapSense_CSD_SEQ_START_AZ0_SKIP_MSK |
 354:Generated_Source\PSoC6/CapSense_INT.c ****                                                          CapSense_CSD_SEQ_START_AZ1_SKIP_MSK |
 355:Generated_Source\PSoC6/CapSense_INT.c ****                                                          CapSense_CSD_SEQ_START_START_MSK);
 356:Generated_Source\PSoC6/CapSense_INT.c ****         }
 357:Generated_Source\PSoC6/CapSense_INT.c ****         else
 358:Generated_Source\PSoC6/CapSense_INT.c ****         {
 359:Generated_Source\PSoC6/CapSense_INT.c ****     #endif /* (CapSense_ENABLE == CapSense_CSD_NOISE_METRIC_EN) */
 360:Generated_Source\PSoC6/CapSense_INT.c **** 
 361:Generated_Source\PSoC6/CapSense_INT.c ****         CapSense_SsCSDPostScan();
 362:Generated_Source\PSoC6/CapSense_INT.c **** 
 363:Generated_Source\PSoC6/CapSense_INT.c ****         #if (CapSense_ENABLE == CapSense_MULTI_FREQ_SCAN_EN)
 364:Generated_Source\PSoC6/CapSense_INT.c ****             if (CapSense_FREQ_CHANNEL_2 == CapSense_scanFreqIndex)
 365:Generated_Source\PSoC6/CapSense_INT.c ****         #endif /* (CapSense_ENABLE == CapSense_MULTI_FREQ_SCAN_EN) */
 366:Generated_Source\PSoC6/CapSense_INT.c ****         {
 367:Generated_Source\PSoC6/CapSense_INT.c ****             CapSense_SsCSDDisconnectSnsExt((uint32)CapSense_widgetIndex, (uint32)CapSense_sensorInd
 368:Generated_Source\PSoC6/CapSense_INT.c ****         }
 369:Generated_Source\PSoC6/CapSense_INT.c **** 
 370:Generated_Source\PSoC6/CapSense_INT.c ****         #if (CapSense_ENABLE == CapSense_MULTI_FREQ_SCAN_EN)
 371:Generated_Source\PSoC6/CapSense_INT.c ****             if (CapSense_FREQ_CHANNEL_2 > CapSense_scanFreqIndex)
 372:Generated_Source\PSoC6/CapSense_INT.c ****             {
 373:Generated_Source\PSoC6/CapSense_INT.c ****                  /* Scan the next channel */
ARM GAS  C:\Users\ikomb\AppData\Local\Temp\ccgK0zqu.s 			page 8


 374:Generated_Source\PSoC6/CapSense_INT.c ****                 CapSense_SsNextFrequencyScan();
 375:Generated_Source\PSoC6/CapSense_INT.c ****             }
 376:Generated_Source\PSoC6/CapSense_INT.c ****             else
 377:Generated_Source\PSoC6/CapSense_INT.c ****             {
 378:Generated_Source\PSoC6/CapSense_INT.c ****                 /* All channels are scanned. Reset the frequency scan channel */
 379:Generated_Source\PSoC6/CapSense_INT.c ****                 CapSense_scanFreqIndex = CapSense_FREQ_CHANNEL_0;
 380:Generated_Source\PSoC6/CapSense_INT.c ****                 CapSense_SsChangeClkFreq(CapSense_FREQ_CHANNEL_0);
 381:Generated_Source\PSoC6/CapSense_INT.c **** 
 382:Generated_Source\PSoC6/CapSense_INT.c ****                  /* Scan the next sensor */
 383:Generated_Source\PSoC6/CapSense_INT.c ****                 CapSense_SsCSDInitNextScan();
 384:Generated_Source\PSoC6/CapSense_INT.c ****             }
 385:Generated_Source\PSoC6/CapSense_INT.c ****         #else
 386:Generated_Source\PSoC6/CapSense_INT.c ****              /* Scan the next sensor */
 387:Generated_Source\PSoC6/CapSense_INT.c ****             CapSense_SsCSDInitNextScan();
 388:Generated_Source\PSoC6/CapSense_INT.c ****         #endif /* (CapSense_ENABLE == CapSense_MULTI_FREQ_SCAN_EN) */
 389:Generated_Source\PSoC6/CapSense_INT.c ****     #if (CapSense_ENABLE == CapSense_CSD_NOISE_METRIC_EN)
 390:Generated_Source\PSoC6/CapSense_INT.c ****         }
 391:Generated_Source\PSoC6/CapSense_INT.c ****     #endif /* (CapSense_ENABLE == CapSense_CSD_NOISE_METRIC_EN) */
 392:Generated_Source\PSoC6/CapSense_INT.c **** 
 393:Generated_Source\PSoC6/CapSense_INT.c ****     #ifdef CapSense_EXIT_CALLBACK
 394:Generated_Source\PSoC6/CapSense_INT.c ****         CapSense_ExitCallback();
 395:Generated_Source\PSoC6/CapSense_INT.c ****     #endif /* CapSense_EXIT_CALLBACK */
 396:Generated_Source\PSoC6/CapSense_INT.c **** 
 397:Generated_Source\PSoC6/CapSense_INT.c ****     (void)CY_GET_REG32(CapSense_CSD_INTR_PTR);
 398:Generated_Source\PSoC6/CapSense_INT.c **** }
 399:Generated_Source\PSoC6/CapSense_INT.c **** #endif /* (CapSense_ENABLE == CapSense_CSD_GANGED_SNS_EN) */
 400:Generated_Source\PSoC6/CapSense_INT.c **** 
 401:Generated_Source\PSoC6/CapSense_INT.c **** 
 402:Generated_Source\PSoC6/CapSense_INT.c **** #endif /* ((CapSense_ENABLE == CapSense_CSD_EN) || (CapSense_ENABLE == CapSense_CSD_CSX_EN)) */
 403:Generated_Source\PSoC6/CapSense_INT.c **** 
 404:Generated_Source\PSoC6/CapSense_INT.c **** /** \}
 405:Generated_Source\PSoC6/CapSense_INT.c ****  * \endcond */
 406:Generated_Source\PSoC6/CapSense_INT.c **** 
 407:Generated_Source\PSoC6/CapSense_INT.c **** 
 408:Generated_Source\PSoC6/CapSense_INT.c **** #if ((CapSense_ENABLE == CapSense_CSD_EN) || (CapSense_ENABLE == CapSense_CSD_CSX_EN))
 409:Generated_Source\PSoC6/CapSense_INT.c **** 
 410:Generated_Source\PSoC6/CapSense_INT.c **** /*******************************************************************************
 411:Generated_Source\PSoC6/CapSense_INT.c **** * Function Name: CapSense_SsCSDPostScan
 412:Generated_Source\PSoC6/CapSense_INT.c **** ****************************************************************************//**
 413:Generated_Source\PSoC6/CapSense_INT.c **** *
 414:Generated_Source\PSoC6/CapSense_INT.c **** * \brief
 415:Generated_Source\PSoC6/CapSense_INT.c **** *   This function reads rawdata and releases required HW resources after scan.
 416:Generated_Source\PSoC6/CapSense_INT.c **** *
 417:Generated_Source\PSoC6/CapSense_INT.c **** * \details
 418:Generated_Source\PSoC6/CapSense_INT.c **** *   This function performs following tasks after scan:
 419:Generated_Source\PSoC6/CapSense_INT.c **** *   - Reads SlotResult from Raw Counter;
 420:Generated_Source\PSoC6/CapSense_INT.c **** *   - Inits bad Conversions number;
 421:Generated_Source\PSoC6/CapSense_INT.c **** *   - Disconnects Vrefhi from AMUBUF positive input;
 422:Generated_Source\PSoC6/CapSense_INT.c **** *   - Disconnects AMUBUF output from CSDBUSB with sych PHI2+HSCMP;
 423:Generated_Source\PSoC6/CapSense_INT.c **** *   - Opens HCBV and HCBG switches.
 424:Generated_Source\PSoC6/CapSense_INT.c **** *
 425:Generated_Source\PSoC6/CapSense_INT.c **** *******************************************************************************/
 426:Generated_Source\PSoC6/CapSense_INT.c **** static void CapSense_SsCSDPostScan(void)
 427:Generated_Source\PSoC6/CapSense_INT.c **** {
  27              		.loc 1 427 0
  28              		.cfi_startproc
  29              		@ args = 0, pretend = 0, frame = 0
ARM GAS  C:\Users\ikomb\AppData\Local\Temp\ccgK0zqu.s 			page 9


  30              		@ frame_needed = 0, uses_anonymous_args = 0
  31              		@ link register save eliminated.
 428:Generated_Source\PSoC6/CapSense_INT.c ****     uint32 tmpRawData;
 429:Generated_Source\PSoC6/CapSense_INT.c ****     uint32 tmpMaxCount;
 430:Generated_Source\PSoC6/CapSense_INT.c ****     CapSense_RAM_WD_BASE_STRUCT const *ptrWdgt = (CapSense_RAM_WD_BASE_STRUCT *)
 431:Generated_Source\PSoC6/CapSense_INT.c ****                                         CapSense_dsFlash.wdgtArray[CapSense_widgetIndex].ptr2WdgtRa
  32              		.loc 1 431 0
  33 0000 104B     		ldr	r3, .L4
  34 0002 1B78     		ldrb	r3, [r3]
  35 0004 DBB2     		uxtb	r3, r3
 430:Generated_Source\PSoC6/CapSense_INT.c ****                                         CapSense_dsFlash.wdgtArray[CapSense_widgetIndex].ptr2WdgtRa
  36              		.loc 1 430 0
  37 0006 5A00     		lsls	r2, r3, #1
  38 0008 D318     		adds	r3, r2, r3
  39 000a 1A01     		lsls	r2, r3, #4
  40 000c 0E4B     		ldr	r3, .L4+4
  41 000e 9A18     		adds	r2, r3, r2
  42 0010 5368     		ldr	r3, [r2, #4]
  43              	.LVL0:
 432:Generated_Source\PSoC6/CapSense_INT.c **** 
 433:Generated_Source\PSoC6/CapSense_INT.c ****     /* Read SlotResult from Raw Counter */
 434:Generated_Source\PSoC6/CapSense_INT.c ****     tmpRawData = CapSense_CSD_RESULT_VAL1_REG & CapSense_CSD_RESULT_VAL1_VALUE_MSK;
  44              		.loc 1 434 0
  45 0012 D022     		movs	r2, #208
  46 0014 0D49     		ldr	r1, .L4+8
  47 0016 8958     		ldr	r1, [r1, r2]
  48 0018 0A04     		lsls	r2, r1, #16
  49 001a 120C     		lsrs	r2, r2, #16
  50              	.LVL1:
 435:Generated_Source\PSoC6/CapSense_INT.c **** 
 436:Generated_Source\PSoC6/CapSense_INT.c ****     tmpMaxCount = ((1uL << ptrWdgt->resolution) - 1uL);
  51              		.loc 1 436 0
  52 001c 1888     		ldrh	r0, [r3]
  53 001e 0123     		movs	r3, #1
  54              	.LVL2:
  55 0020 8340     		lsls	r3, r3, r0
  56 0022 013B     		subs	r3, r3, #1
  57              	.LVL3:
 437:Generated_Source\PSoC6/CapSense_INT.c ****     if(tmpRawData < tmpMaxCount)
  58              		.loc 1 437 0
  59 0024 9A42     		cmp	r2, r3
  60 0026 06D2     		bcs	.L2
 438:Generated_Source\PSoC6/CapSense_INT.c ****     {
 439:Generated_Source\PSoC6/CapSense_INT.c ****         CapSense_curRamSnsPtr->raw[CapSense_scanFreqIndex] = CY_LO16(tmpRawData);
  61              		.loc 1 439 0
  62 0028 094B     		ldr	r3, .L4+12
  63              	.LVL4:
  64 002a 1A68     		ldr	r2, [r3]
  65              	.LVL5:
  66 002c 094B     		ldr	r3, .L4+16
  67 002e 1B78     		ldrb	r3, [r3]
  68 0030 5B00     		lsls	r3, r3, #1
  69 0032 D152     		strh	r1, [r2, r3]
  70 0034 05E0     		b	.L1
  71              	.LVL6:
  72              	.L2:
 440:Generated_Source\PSoC6/CapSense_INT.c ****     }
ARM GAS  C:\Users\ikomb\AppData\Local\Temp\ccgK0zqu.s 			page 10


 441:Generated_Source\PSoC6/CapSense_INT.c ****     else
 442:Generated_Source\PSoC6/CapSense_INT.c ****     {
 443:Generated_Source\PSoC6/CapSense_INT.c ****         CapSense_curRamSnsPtr->raw[CapSense_scanFreqIndex] = CY_LO16(tmpMaxCount);
  73              		.loc 1 443 0
  74 0036 064A     		ldr	r2, .L4+12
  75              	.LVL7:
  76 0038 1168     		ldr	r1, [r2]
  77              	.LVL8:
  78 003a 064A     		ldr	r2, .L4+16
  79 003c 1278     		ldrb	r2, [r2]
  80 003e 5200     		lsls	r2, r2, #1
  81 0040 8B52     		strh	r3, [r1, r2]
  82              	.LVL9:
  83              	.L1:
 444:Generated_Source\PSoC6/CapSense_INT.c ****     }
 445:Generated_Source\PSoC6/CapSense_INT.c **** 
 446:Generated_Source\PSoC6/CapSense_INT.c ****     #if (CapSense_ENABLE == CapSense_CSD_NOISE_METRIC_EN)
 447:Generated_Source\PSoC6/CapSense_INT.c ****         /* Init bad Conversions number */
 448:Generated_Source\PSoC6/CapSense_INT.c ****         CapSense_badConversionsNum = CapSense_BAD_CONVERSIONS_NUM;
 449:Generated_Source\PSoC6/CapSense_INT.c ****     #endif /* (CapSense_ENABLE == CapSense_CSD_NOISE_METRIC_EN) */
 450:Generated_Source\PSoC6/CapSense_INT.c **** 
 451:Generated_Source\PSoC6/CapSense_INT.c ****     #if (CapSense_ENABLE == CapSense_CSD_SHIELD_EN)
 452:Generated_Source\PSoC6/CapSense_INT.c ****         /* Open HCBV and HCBG switches */
 453:Generated_Source\PSoC6/CapSense_INT.c ****         CY_SET_REG32(CapSense_CSD_SW_SHIELD_SEL_PTR, CapSense_CSD_SW_SHIELD_SEL_SW_HCBV_STATIC_OPEN
 454:Generated_Source\PSoC6/CapSense_INT.c ****                                                          CapSense_CSD_SW_SHIELD_SEL_SW_HCBG_STATIC_
 455:Generated_Source\PSoC6/CapSense_INT.c ****     #endif /* (CapSense_ENABLE == CapSense_CSD_SHIELD_EN) */
 456:Generated_Source\PSoC6/CapSense_INT.c **** }
  84              		.loc 1 456 0
  85              		@ sp needed
  86 0042 7047     		bx	lr
  87              	.L5:
  88              		.align	2
  89              	.L4:
  90 0044 00000000 		.word	CapSense_widgetIndex
  91 0048 00000000 		.word	CapSense_dsFlash
  92 004c 00003640 		.word	1077280768
  93 0050 00000000 		.word	CapSense_curRamSnsPtr
  94 0054 00000000 		.word	CapSense_scanFreqIndex
  95              		.cfi_endproc
  96              	.LFE166:
  97              		.size	CapSense_SsCSDPostScan, .-CapSense_SsCSDPostScan
  98              		.section	.text.CapSense_SsCSDInitNextScan,"ax",%progbits
  99              		.align	2
 100              		.code	16
 101              		.thumb_func
 102              		.type	CapSense_SsCSDInitNextScan, %function
 103              	CapSense_SsCSDInitNextScan:
 104              	.LFB167:
 457:Generated_Source\PSoC6/CapSense_INT.c **** 
 458:Generated_Source\PSoC6/CapSense_INT.c **** 
 459:Generated_Source\PSoC6/CapSense_INT.c **** /*******************************************************************************
 460:Generated_Source\PSoC6/CapSense_INT.c **** * Function Name: CapSense_SsCSDInitNextScan
 461:Generated_Source\PSoC6/CapSense_INT.c **** ****************************************************************************//**
 462:Generated_Source\PSoC6/CapSense_INT.c **** *
 463:Generated_Source\PSoC6/CapSense_INT.c **** * \brief
 464:Generated_Source\PSoC6/CapSense_INT.c **** *   This function initializes the next sensor scan.
 465:Generated_Source\PSoC6/CapSense_INT.c **** *
ARM GAS  C:\Users\ikomb\AppData\Local\Temp\ccgK0zqu.s 			page 11


 466:Generated_Source\PSoC6/CapSense_INT.c **** * \details
 467:Generated_Source\PSoC6/CapSense_INT.c **** *   The function increments the sensor index, updates sense clock for matrix
 468:Generated_Source\PSoC6/CapSense_INT.c **** *   or touchpad widgets only, sets up Compensation IDAC, enables the sensor and
 469:Generated_Source\PSoC6/CapSense_INT.c **** *   scans it. When all the sensors are scanned it continues to set up the next widget
 470:Generated_Source\PSoC6/CapSense_INT.c **** *   until all the widgets are scanned. The CSD block is disabled when all the widgets are
 471:Generated_Source\PSoC6/CapSense_INT.c **** *   scanned.
 472:Generated_Source\PSoC6/CapSense_INT.c **** *
 473:Generated_Source\PSoC6/CapSense_INT.c **** *******************************************************************************/
 474:Generated_Source\PSoC6/CapSense_INT.c **** static void CapSense_SsCSDInitNextScan(void)
 475:Generated_Source\PSoC6/CapSense_INT.c **** {
 105              		.loc 1 475 0
 106              		.cfi_startproc
 107              		@ args = 0, pretend = 0, frame = 0
 108              		@ frame_needed = 0, uses_anonymous_args = 0
 109 0000 70B5     		push	{r4, r5, r6, lr}
 110              		.cfi_def_cfa_offset 16
 111              		.cfi_offset 4, -16
 112              		.cfi_offset 5, -12
 113              		.cfi_offset 6, -8
 114              		.cfi_offset 14, -4
 476:Generated_Source\PSoC6/CapSense_INT.c ****     /* Declare and initialize ptr to widget and sensor structures to appropriate address */
 477:Generated_Source\PSoC6/CapSense_INT.c ****     #if (((CapSense_ENABLE == CapSense_CSD_IDAC_COMP_EN) || \
 478:Generated_Source\PSoC6/CapSense_INT.c ****             (CapSense_CSD_MATRIX_WIDGET_EN || CapSense_CSD_TOUCHPAD_WIDGET_EN)) || \
 479:Generated_Source\PSoC6/CapSense_INT.c ****             (((CapSense_DISABLE == CapSense_CSD_COMMON_SNS_CLK_EN) && \
 480:Generated_Source\PSoC6/CapSense_INT.c ****             (CapSense_CSD_MATRIX_WIDGET_EN || CapSense_CSD_TOUCHPAD_WIDGET_EN))))
 481:Generated_Source\PSoC6/CapSense_INT.c ****         CapSense_RAM_WD_BASE_STRUCT *ptrWdgt = (CapSense_RAM_WD_BASE_STRUCT *)
 482:Generated_Source\PSoC6/CapSense_INT.c ****             CapSense_dsFlash.wdgtArray[CapSense_widgetIndex].ptr2WdgtRam;
 115              		.loc 1 482 0
 116 0002 274A     		ldr	r2, .L10
 117 0004 1378     		ldrb	r3, [r2]
 118 0006 DBB2     		uxtb	r3, r3
 481:Generated_Source\PSoC6/CapSense_INT.c ****             CapSense_dsFlash.wdgtArray[CapSense_widgetIndex].ptr2WdgtRam;
 119              		.loc 1 481 0
 120 0008 264C     		ldr	r4, .L10+4
 121 000a 5900     		lsls	r1, r3, #1
 122 000c CB18     		adds	r3, r1, r3
 123 000e 1901     		lsls	r1, r3, #4
 124 0010 6118     		adds	r1, r4, r1
 125 0012 4868     		ldr	r0, [r1, #4]
 126              	.LVL10:
 483:Generated_Source\PSoC6/CapSense_INT.c ****     #endif
 484:Generated_Source\PSoC6/CapSense_INT.c **** 
 485:Generated_Source\PSoC6/CapSense_INT.c ****     /* Check if all the sensors are scanned in widget */
 486:Generated_Source\PSoC6/CapSense_INT.c ****     if (((uint8)CapSense_dsFlash.wdgtArray[(CapSense_widgetIndex)].totalNumSns - 1u) > CapSense_sen
 127              		.loc 1 486 0
 128 0014 1378     		ldrb	r3, [r2]
 129 0016 DBB2     		uxtb	r3, r3
 130 0018 5A00     		lsls	r2, r3, #1
 131 001a D318     		adds	r3, r2, r3
 132 001c 1A01     		lsls	r2, r3, #4
 133 001e A218     		adds	r2, r4, r2
 134 0020 127E     		ldrb	r2, [r2, #24]
 135 0022 013A     		subs	r2, r2, #1
 136 0024 204B     		ldr	r3, .L10+8
 137 0026 1B78     		ldrb	r3, [r3]
 138 0028 DBB2     		uxtb	r3, r3
 139 002a 9A42     		cmp	r2, r3
ARM GAS  C:\Users\ikomb\AppData\Local\Temp\ccgK0zqu.s 			page 12


 140 002c 20D9     		bls	.L7
 487:Generated_Source\PSoC6/CapSense_INT.c ****     {
 488:Generated_Source\PSoC6/CapSense_INT.c ****         /* Increment sensor index to configure next sensor in widget */
 489:Generated_Source\PSoC6/CapSense_INT.c ****         CapSense_sensorIndex++;
 141              		.loc 1 489 0
 142 002e 1E4C     		ldr	r4, .L10+8
 143 0030 2378     		ldrb	r3, [r4]
 144 0032 0133     		adds	r3, r3, #1
 145 0034 DBB2     		uxtb	r3, r3
 146 0036 2370     		strb	r3, [r4]
 490:Generated_Source\PSoC6/CapSense_INT.c **** 
 491:Generated_Source\PSoC6/CapSense_INT.c ****         /* Update global pointer to CapSense_RAM_SNS_STRUCT to current sensor */
 492:Generated_Source\PSoC6/CapSense_INT.c ****         CapSense_curRamSnsPtr = (CapSense_RAM_SNS_STRUCT *)
 147              		.loc 1 492 0
 148 0038 194D     		ldr	r5, .L10
 149 003a 2B78     		ldrb	r3, [r5]
 150 003c DBB2     		uxtb	r3, r3
 493:Generated_Source\PSoC6/CapSense_INT.c ****                                                   CapSense_dsFlash.wdgtArray[CapSense_widgetIndex].
 151              		.loc 1 493 0
 152 003e 5A00     		lsls	r2, r3, #1
 153 0040 D318     		adds	r3, r2, r3
 154 0042 1A01     		lsls	r2, r3, #4
 155 0044 174B     		ldr	r3, .L10+4
 156 0046 9A18     		adds	r2, r3, r2
 157 0048 9168     		ldr	r1, [r2, #8]
 494:Generated_Source\PSoC6/CapSense_INT.c ****                                                   + CapSense_sensorIndex;
 158              		.loc 1 494 0
 159 004a 2378     		ldrb	r3, [r4]
 160 004c DBB2     		uxtb	r3, r3
 161 004e 9A00     		lsls	r2, r3, #2
 162 0050 D318     		adds	r3, r2, r3
 163 0052 5A00     		lsls	r2, r3, #1
 164 0054 8A18     		adds	r2, r1, r2
 492:Generated_Source\PSoC6/CapSense_INT.c ****                                                   CapSense_dsFlash.wdgtArray[CapSense_widgetIndex].
 165              		.loc 1 492 0
 166 0056 154B     		ldr	r3, .L10+12
 167 0058 1A60     		str	r2, [r3]
 495:Generated_Source\PSoC6/CapSense_INT.c **** 
 496:Generated_Source\PSoC6/CapSense_INT.c ****         /* Configure clock divider to row or column */
 497:Generated_Source\PSoC6/CapSense_INT.c ****         #if ((CapSense_DISABLE == CapSense_CSD_COMMON_SNS_CLK_EN) && \
 498:Generated_Source\PSoC6/CapSense_INT.c ****              (CapSense_CSD_MATRIX_WIDGET_EN || CapSense_CSD_TOUCHPAD_WIDGET_EN))
 499:Generated_Source\PSoC6/CapSense_INT.c ****             if ((CapSense_WD_TOUCHPAD_E == (CapSense_WD_TYPE_ENUM)CapSense_dsFlash.wdgtArray[(CapSe
 500:Generated_Source\PSoC6/CapSense_INT.c ****                 (CapSense_WD_MATRIX_BUTTON_E == (CapSense_WD_TYPE_ENUM)CapSense_dsFlash.wdgtArray[(
 501:Generated_Source\PSoC6/CapSense_INT.c ****             {
 502:Generated_Source\PSoC6/CapSense_INT.c ****                 CapSense_SsCSDConfigClock();
 503:Generated_Source\PSoC6/CapSense_INT.c **** 
 504:Generated_Source\PSoC6/CapSense_INT.c ****                 /* Set up scanning resolution */
 505:Generated_Source\PSoC6/CapSense_INT.c ****                 CapSense_SsCSDCalculateScanDuration(ptrWdgt);
 506:Generated_Source\PSoC6/CapSense_INT.c ****             }
 507:Generated_Source\PSoC6/CapSense_INT.c ****         #endif /* ((CapSense_DISABLE == CapSense_CSD_COMMON_SNS_CLK_EN) && \
 508:Generated_Source\PSoC6/CapSense_INT.c ****                    (CapSense_CSD_MATRIX_WIDGET_EN || CapSense_CSD_TOUCHPAD_WIDGET_EN))) */
 509:Generated_Source\PSoC6/CapSense_INT.c **** 
 510:Generated_Source\PSoC6/CapSense_INT.c ****         /* Setup Compensation IDAC for next sensor in widget */
 511:Generated_Source\PSoC6/CapSense_INT.c ****         #if ((CapSense_ENABLE == CapSense_CSD_IDAC_COMP_EN) || \
 512:Generated_Source\PSoC6/CapSense_INT.c ****              (CapSense_CSD_MATRIX_WIDGET_EN || CapSense_CSD_TOUCHPAD_WIDGET_EN))
 513:Generated_Source\PSoC6/CapSense_INT.c ****             CapSense_SsCSDSetUpIdacs(ptrWdgt);
 168              		.loc 1 513 0
ARM GAS  C:\Users\ikomb\AppData\Local\Temp\ccgK0zqu.s 			page 13


 169 005a FFF7FEFF 		bl	CapSense_SsCSDSetUpIdacs
 170              	.LVL11:
 514:Generated_Source\PSoC6/CapSense_INT.c ****         #endif /* ((CapSense_ENABLE == CapSense_CSD_IDAC_COMP_EN) || \
 515:Generated_Source\PSoC6/CapSense_INT.c ****              (CapSense_CSD_MATRIX_WIDGET_EN || CapSense_CSD_TOUCHPAD_WIDGET_EN)) */
 516:Generated_Source\PSoC6/CapSense_INT.c **** 
 517:Generated_Source\PSoC6/CapSense_INT.c ****         /* Enable sensor */
 518:Generated_Source\PSoC6/CapSense_INT.c ****         CapSense_SsCSDConnectSensorExt((uint32)CapSense_widgetIndex, (uint32)CapSense_sensorIndex);
 171              		.loc 1 518 0
 172 005e 2878     		ldrb	r0, [r5]
 173 0060 C0B2     		uxtb	r0, r0
 174 0062 2178     		ldrb	r1, [r4]
 175 0064 C9B2     		uxtb	r1, r1
 176 0066 FFF7FEFF 		bl	CapSense_SsCSDConnectSensorExt
 177              	.LVL12:
 519:Generated_Source\PSoC6/CapSense_INT.c **** 
 520:Generated_Source\PSoC6/CapSense_INT.c ****         /* Proceed scanning */
 521:Generated_Source\PSoC6/CapSense_INT.c ****         CapSense_SsCSDStartSample();
 178              		.loc 1 521 0
 179 006a FFF7FEFF 		bl	CapSense_SsCSDStartSample
 180              	.LVL13:
 181 006e 16E0     		b	.L6
 182              	.LVL14:
 183              	.L7:
 522:Generated_Source\PSoC6/CapSense_INT.c ****     }
 523:Generated_Source\PSoC6/CapSense_INT.c ****     /* Call scan next widget API if requested, if not, complete the scan */
 524:Generated_Source\PSoC6/CapSense_INT.c ****     else
 525:Generated_Source\PSoC6/CapSense_INT.c ****     {
 526:Generated_Source\PSoC6/CapSense_INT.c ****         CapSense_sensorIndex = 0u;
 184              		.loc 1 526 0
 185 0070 0022     		movs	r2, #0
 186 0072 0D4B     		ldr	r3, .L10+8
 187 0074 1A70     		strb	r2, [r3]
 527:Generated_Source\PSoC6/CapSense_INT.c **** 
 528:Generated_Source\PSoC6/CapSense_INT.c ****         /* Current widget is totally scanned. Reset WIDGET BUSY flag */
 529:Generated_Source\PSoC6/CapSense_INT.c ****         CapSense_dsRam.status &= ~CapSense_WDGT_SW_STS_BUSY;
 188              		.loc 1 529 0
 189 0076 0E4A     		ldr	r2, .L10+16
 190 0078 D168     		ldr	r1, [r2, #12]
 191 007a 0E4B     		ldr	r3, .L10+20
 192 007c 0B40     		ands	r3, r1
 193 007e D360     		str	r3, [r2, #12]
 530:Generated_Source\PSoC6/CapSense_INT.c **** 
 531:Generated_Source\PSoC6/CapSense_INT.c ****         /* Check if all the widgets have been scanned */
 532:Generated_Source\PSoC6/CapSense_INT.c ****         if (CapSense_ENABLE == CapSense_requestScanAllWidget)
 194              		.loc 1 532 0
 195 0080 0D4B     		ldr	r3, .L10+24
 196 0082 1B78     		ldrb	r3, [r3]
 197 0084 012B     		cmp	r3, #1
 198 0086 02D1     		bne	.L9
 533:Generated_Source\PSoC6/CapSense_INT.c ****         {
 534:Generated_Source\PSoC6/CapSense_INT.c ****             /* Configure and begin scanning next widget */
 535:Generated_Source\PSoC6/CapSense_INT.c ****             CapSense_SsPostAllWidgetsScan();
 199              		.loc 1 535 0
 200 0088 FFF7FEFF 		bl	CapSense_SsPostAllWidgetsScan
 201              	.LVL15:
 202 008c 07E0     		b	.L6
 203              	.LVL16:
ARM GAS  C:\Users\ikomb\AppData\Local\Temp\ccgK0zqu.s 			page 14


 204              	.L9:
 536:Generated_Source\PSoC6/CapSense_INT.c ****         }
 537:Generated_Source\PSoC6/CapSense_INT.c ****         else
 538:Generated_Source\PSoC6/CapSense_INT.c ****         {
 539:Generated_Source\PSoC6/CapSense_INT.c ****             #if (CapSense_ENABLE == CapSense_BLOCK_OFF_AFTER_SCAN_EN)
 540:Generated_Source\PSoC6/CapSense_INT.c ****                 /* Disable the CSD block */
 541:Generated_Source\PSoC6/CapSense_INT.c ****                 CY_SET_REG32(CapSense_CSD_CONFIG_PTR, CapSense_configCsd);
 542:Generated_Source\PSoC6/CapSense_INT.c ****             #endif /* (CapSense_ENABLE == CapSense_BLOCK_OFF_AFTER_SCAN_EN) */
 543:Generated_Source\PSoC6/CapSense_INT.c **** 
 544:Generated_Source\PSoC6/CapSense_INT.c ****             /* all the widgets are totally scanned. Reset BUSY flag */
 545:Generated_Source\PSoC6/CapSense_INT.c ****             CapSense_dsRam.status &= ~CapSense_SW_STS_BUSY;
 205              		.loc 1 545 0
 206 008e 084B     		ldr	r3, .L10+16
 207 0090 DA68     		ldr	r2, [r3, #12]
 208 0092 8021     		movs	r1, #128
 209 0094 8A43     		bics	r2, r1
 210 0096 DA60     		str	r2, [r3, #12]
 546:Generated_Source\PSoC6/CapSense_INT.c **** 
 547:Generated_Source\PSoC6/CapSense_INT.c ****             /* Update scan Counter */
 548:Generated_Source\PSoC6/CapSense_INT.c ****             CapSense_dsRam.scanCounter++;
 211              		.loc 1 548 0
 212 0098 1A89     		ldrh	r2, [r3, #8]
 213 009a 0132     		adds	r2, r2, #1
 214 009c 1A81     		strh	r2, [r3, #8]
 215              	.LVL17:
 216              	.L6:
 549:Generated_Source\PSoC6/CapSense_INT.c ****         }
 550:Generated_Source\PSoC6/CapSense_INT.c ****     }
 551:Generated_Source\PSoC6/CapSense_INT.c **** }
 217              		.loc 1 551 0
 218              		@ sp needed
 219 009e 70BD     		pop	{r4, r5, r6, pc}
 220              	.L11:
 221              		.align	2
 222              	.L10:
 223 00a0 00000000 		.word	CapSense_widgetIndex
 224 00a4 00000000 		.word	CapSense_dsFlash
 225 00a8 00000000 		.word	CapSense_sensorIndex
 226 00ac 00000000 		.word	CapSense_curRamSnsPtr
 227 00b0 00000000 		.word	CapSense_dsRam
 228 00b4 FFFFFEFF 		.word	-65537
 229 00b8 00000000 		.word	CapSense_requestScanAllWidget
 230              		.cfi_endproc
 231              	.LFE167:
 232              		.size	CapSense_SsCSDInitNextScan, .-CapSense_SsCSDInitNextScan
 233              		.section	.text.CapSense_CSDPostSingleScan,"ax",%progbits
 234              		.align	2
 235              		.global	CapSense_CSDPostSingleScan
 236              		.code	16
 237              		.thumb_func
 238              		.type	CapSense_CSDPostSingleScan, %function
 239              	CapSense_CSDPostSingleScan:
 240              	.LFB164:
 112:Generated_Source\PSoC6/CapSense_INT.c ****         #ifdef CapSense_ENTRY_CALLBACK
 241              		.loc 1 112 0
 242              		.cfi_startproc
 243              		@ args = 0, pretend = 0, frame = 0
ARM GAS  C:\Users\ikomb\AppData\Local\Temp\ccgK0zqu.s 			page 15


 244              		@ frame_needed = 0, uses_anonymous_args = 0
 245 0000 10B5     		push	{r4, lr}
 246              		.cfi_def_cfa_offset 8
 247              		.cfi_offset 4, -8
 248              		.cfi_offset 14, -4
 118:Generated_Source\PSoC6/CapSense_INT.c ****         (void)CY_GET_REG32(CapSense_CSD_INTR_PTR);
 249              		.loc 1 118 0
 250 0002 084B     		ldr	r3, .L13
 251 0004 8322     		movs	r2, #131
 252 0006 5200     		lsls	r2, r2, #1
 253 0008 1A60     		str	r2, [r3]
 119:Generated_Source\PSoC6/CapSense_INT.c **** 
 254              		.loc 1 119 0
 255 000a 1B68     		ldr	r3, [r3]
 139:Generated_Source\PSoC6/CapSense_INT.c **** 
 256              		.loc 1 139 0
 257 000c FFF7FEFF 		bl	CapSense_SsCSDPostScan
 258              	.LVL18:
 172:Generated_Source\PSoC6/CapSense_INT.c **** 
 259              		.loc 1 172 0
 260 0010 054B     		ldr	r3, .L13+4
 261 0012 1A89     		ldrh	r2, [r3, #8]
 262 0014 0132     		adds	r2, r2, #1
 263 0016 1A81     		strh	r2, [r3, #8]
 175:Generated_Source\PSoC6/CapSense_INT.c ****                 }
 264              		.loc 1 175 0
 265 0018 D968     		ldr	r1, [r3, #12]
 266 001a 044A     		ldr	r2, .L13+8
 267 001c 0A40     		ands	r2, r1
 268 001e DA60     		str	r2, [r3, #12]
 185:Generated_Source\PSoC6/CapSense_INT.c **** 
 269              		.loc 1 185 0
 270              		@ sp needed
 271 0020 10BD     		pop	{r4, pc}
 272              	.L14:
 273 0022 C046     		.align	2
 274              	.L13:
 275 0024 F0003640 		.word	1077281008
 276 0028 00000000 		.word	CapSense_dsRam
 277 002c 7FFFFEFF 		.word	-65665
 278              		.cfi_endproc
 279              	.LFE164:
 280              		.size	CapSense_CSDPostSingleScan, .-CapSense_CSDPostSingleScan
 281              		.section	.text.CapSense_CSDPostMultiScan,"ax",%progbits
 282              		.align	2
 283              		.global	CapSense_CSDPostMultiScan
 284              		.code	16
 285              		.thumb_func
 286              		.type	CapSense_CSDPostMultiScan, %function
 287              	CapSense_CSDPostMultiScan:
 288              	.LFB165:
 224:Generated_Source\PSoC6/CapSense_INT.c ****         /* Declare and initialize ptr to sensor IO structure to appropriate address */
 289              		.loc 1 224 0
 290              		.cfi_startproc
 291              		@ args = 0, pretend = 0, frame = 0
 292              		@ frame_needed = 0, uses_anonymous_args = 0
 293 0000 10B5     		push	{r4, lr}
ARM GAS  C:\Users\ikomb\AppData\Local\Temp\ccgK0zqu.s 			page 16


 294              		.cfi_def_cfa_offset 8
 295              		.cfi_offset 4, -8
 296              		.cfi_offset 14, -4
 226:Generated_Source\PSoC6/CapSense_INT.c ****                                                           CapSense_dsFlash.wdgtArray[CapSense_widge
 297              		.loc 1 226 0
 298 0002 0C4B     		ldr	r3, .L16
 299 0004 1B78     		ldrb	r3, [r3]
 300 0006 DBB2     		uxtb	r3, r3
 227:Generated_Source\PSoC6/CapSense_INT.c ****                                                           + CapSense_sensorIndex;
 301              		.loc 1 227 0
 302 0008 5A00     		lsls	r2, r3, #1
 303 000a D318     		adds	r3, r2, r3
 304 000c 1A01     		lsls	r2, r3, #4
 305 000e 0A4B     		ldr	r3, .L16+4
 306 0010 D358     		ldr	r3, [r2, r3]
 228:Generated_Source\PSoC6/CapSense_INT.c **** 
 307              		.loc 1 228 0
 308 0012 0A4A     		ldr	r2, .L16+8
 309 0014 1478     		ldrb	r4, [r2]
 310 0016 E400     		lsls	r4, r4, #3
 226:Generated_Source\PSoC6/CapSense_INT.c ****                                                           CapSense_dsFlash.wdgtArray[CapSense_widge
 311              		.loc 1 226 0
 312 0018 1C19     		adds	r4, r3, r4
 313              	.LVL19:
 235:Generated_Source\PSoC6/CapSense_INT.c ****         (void)CY_GET_REG32(CapSense_CSD_INTR_PTR);
 314              		.loc 1 235 0
 315 001a 094B     		ldr	r3, .L16+12
 316 001c 8322     		movs	r2, #131
 317 001e 5200     		lsls	r2, r2, #1
 318 0020 1A60     		str	r2, [r3]
 236:Generated_Source\PSoC6/CapSense_INT.c **** 
 319              		.loc 1 236 0
 320 0022 1B68     		ldr	r3, [r3]
 256:Generated_Source\PSoC6/CapSense_INT.c **** 
 321              		.loc 1 256 0
 322 0024 FFF7FEFF 		bl	CapSense_SsCSDPostScan
 323              	.LVL20:
 264:Generated_Source\PSoC6/CapSense_INT.c ****         }
 324              		.loc 1 264 0
 325 0028 2000     		movs	r0, r4
 326 002a FFF7FEFF 		bl	CapSense_CSDDisconnectSns
 327              	.LVL21:
 284:Generated_Source\PSoC6/CapSense_INT.c ****         #endif /* (CapSense_ENABLE == CapSense_MULTI_FREQ_SCAN_EN) */
 328              		.loc 1 284 0
 329 002e FFF7FEFF 		bl	CapSense_SsCSDInitNextScan
 330              	.LVL22:
 293:Generated_Source\PSoC6/CapSense_INT.c **** 
 331              		.loc 1 293 0
 332              		@ sp needed
 333              	.LVL23:
 334 0032 10BD     		pop	{r4, pc}
 335              	.L17:
 336              		.align	2
 337              	.L16:
 338 0034 00000000 		.word	CapSense_widgetIndex
 339 0038 00000000 		.word	CapSense_dsFlash
 340 003c 00000000 		.word	CapSense_sensorIndex
ARM GAS  C:\Users\ikomb\AppData\Local\Temp\ccgK0zqu.s 			page 17


 341 0040 F0003640 		.word	1077281008
 342              		.cfi_endproc
 343              	.LFE165:
 344              		.size	CapSense_CSDPostMultiScan, .-CapSense_CSDPostMultiScan
 345              		.text
 346              	.Letext0:
 347              		.file 2 "c:\\program files (x86)\\cypress\\psoc creator\\4.4\\psoc creator\\import\\gnu\\arm\\5.4.
 348              		.file 3 "c:\\program files (x86)\\cypress\\psoc creator\\4.4\\psoc creator\\import\\gnu\\arm\\5.4.
 349              		.file 4 "Generated_Source\\PSoC6\\pdl\\devices/psoc6/ip/cyip_gpio.h"
 350              		.file 5 "Generated_Source\\PSoC6\\pdl\\devices/psoc6/ip/cyip_csd.h"
 351              		.file 6 "Generated_Source\\PSoC6\\pdl\\drivers/peripheral/syslib/cy_syslib.h"
 352              		.file 7 "Generated_Source\\PSoC6\\CapSense_Configuration.h"
 353              		.file 8 "Generated_Source\\PSoC6\\CapSense_SmartSense_LL.h"
 354              		.file 9 "Generated_Source\\PSoC6\\CapSense_Structure.h"
 355              		.file 10 "Generated_Source\\PSoC6\\CapSense_Sensing.h"
 356              		.file 11 "Generated_Source\\PSoC6\\CapSense_SensingCSD_LL.h"