ARM GAS  C:\Users\ikomb\AppData\Local\Temp\cchczmzd.s 			page 1


   1              		.syntax unified
   2              		.cpu cortex-m0plus
   3              		.fpu softvfp
   4              		.eabi_attribute 20, 1
   5              		.eabi_attribute 21, 1
   6              		.eabi_attribute 23, 3
   7              		.eabi_attribute 24, 1
   8              		.eabi_attribute 25, 1
   9              		.eabi_attribute 26, 1
  10              		.eabi_attribute 30, 1
  11              		.eabi_attribute 34, 0
  12              		.eabi_attribute 18, 4
  13              		.thumb
  14              		.syntax unified
  15              		.file	"cy_i2s.c"
  16              		.text
  17              	.Ltext0:
  18              		.cfi_sections	.debug_frame
  19              		.section	.text.Cy_I2S_Init,"ax",%progbits
  20              		.align	2
  21              		.global	Cy_I2S_Init
  22              		.code	16
  23              		.thumb_func
  24              		.type	Cy_I2S_Init, %function
  25              	Cy_I2S_Init:
  26              	.LFB97:
  27              		.file 1 "Generated_Source\\PSoC6\\pdl\\drivers\\peripheral\\i2s\\cy_i2s.c"
   1:Generated_Source\PSoC6\pdl\drivers\peripheral\i2s/cy_i2s.c **** /***************************************************************************//**
   2:Generated_Source\PSoC6\pdl\drivers\peripheral\i2s/cy_i2s.c **** * \file cy_i2s.c
   3:Generated_Source\PSoC6\pdl\drivers\peripheral\i2s/cy_i2s.c **** * \version 2.0.1
   4:Generated_Source\PSoC6\pdl\drivers\peripheral\i2s/cy_i2s.c **** *
   5:Generated_Source\PSoC6\pdl\drivers\peripheral\i2s/cy_i2s.c **** * The source code file for the I2S driver.
   6:Generated_Source\PSoC6\pdl\drivers\peripheral\i2s/cy_i2s.c **** *
   7:Generated_Source\PSoC6\pdl\drivers\peripheral\i2s/cy_i2s.c **** ********************************************************************************
   8:Generated_Source\PSoC6\pdl\drivers\peripheral\i2s/cy_i2s.c **** * \copyright
   9:Generated_Source\PSoC6\pdl\drivers\peripheral\i2s/cy_i2s.c **** * Copyright 2016-2018, Cypress Semiconductor Corporation. All rights reserved.
  10:Generated_Source\PSoC6\pdl\drivers\peripheral\i2s/cy_i2s.c **** * You may use this file only in accordance with the license, terms, conditions,
  11:Generated_Source\PSoC6\pdl\drivers\peripheral\i2s/cy_i2s.c **** * disclaimers, and limitations in the end user license agreement accompanying
  12:Generated_Source\PSoC6\pdl\drivers\peripheral\i2s/cy_i2s.c **** * the software package with which this file was provided.
  13:Generated_Source\PSoC6\pdl\drivers\peripheral\i2s/cy_i2s.c **** *******************************************************************************/
  14:Generated_Source\PSoC6\pdl\drivers\peripheral\i2s/cy_i2s.c **** 
  15:Generated_Source\PSoC6\pdl\drivers\peripheral\i2s/cy_i2s.c **** #include "cy_i2s.h"
  16:Generated_Source\PSoC6\pdl\drivers\peripheral\i2s/cy_i2s.c **** 
  17:Generated_Source\PSoC6\pdl\drivers\peripheral\i2s/cy_i2s.c **** #ifdef __cplusplus
  18:Generated_Source\PSoC6\pdl\drivers\peripheral\i2s/cy_i2s.c **** extern "C" {
  19:Generated_Source\PSoC6\pdl\drivers\peripheral\i2s/cy_i2s.c **** #endif
  20:Generated_Source\PSoC6\pdl\drivers\peripheral\i2s/cy_i2s.c **** 
  21:Generated_Source\PSoC6\pdl\drivers\peripheral\i2s/cy_i2s.c **** 
  22:Generated_Source\PSoC6\pdl\drivers\peripheral\i2s/cy_i2s.c **** /*******************************************************************************
  23:Generated_Source\PSoC6\pdl\drivers\peripheral\i2s/cy_i2s.c **** * Function Name: Cy_I2S_Init
  24:Generated_Source\PSoC6\pdl\drivers\peripheral\i2s/cy_i2s.c **** ****************************************************************************//**
  25:Generated_Source\PSoC6\pdl\drivers\peripheral\i2s/cy_i2s.c **** *
  26:Generated_Source\PSoC6\pdl\drivers\peripheral\i2s/cy_i2s.c **** * Initializes the I2S module in accordance with a configuration structure.
  27:Generated_Source\PSoC6\pdl\drivers\peripheral\i2s/cy_i2s.c **** *
  28:Generated_Source\PSoC6\pdl\drivers\peripheral\i2s/cy_i2s.c **** * \pre If the I2S module is initialized previously, the \ref Cy_I2S_DeInit()
  29:Generated_Source\PSoC6\pdl\drivers\peripheral\i2s/cy_i2s.c **** * must be called before calling this function.
  30:Generated_Source\PSoC6\pdl\drivers\peripheral\i2s/cy_i2s.c **** *
ARM GAS  C:\Users\ikomb\AppData\Local\Temp\cchczmzd.s 			page 2


  31:Generated_Source\PSoC6\pdl\drivers\peripheral\i2s/cy_i2s.c **** * \param base      The pointer to the I2S instance address.
  32:Generated_Source\PSoC6\pdl\drivers\peripheral\i2s/cy_i2s.c **** *
  33:Generated_Source\PSoC6\pdl\drivers\peripheral\i2s/cy_i2s.c **** * \param config    The pointer to a configuration structure.
  34:Generated_Source\PSoC6\pdl\drivers\peripheral\i2s/cy_i2s.c **** *
  35:Generated_Source\PSoC6\pdl\drivers\peripheral\i2s/cy_i2s.c **** * \return error / status code. See \ref cy_en_i2s_status_t.
  36:Generated_Source\PSoC6\pdl\drivers\peripheral\i2s/cy_i2s.c **** *
  37:Generated_Source\PSoC6\pdl\drivers\peripheral\i2s/cy_i2s.c **** * \funcusage
  38:Generated_Source\PSoC6\pdl\drivers\peripheral\i2s/cy_i2s.c **** * \snippet i2s/i2s_v2_0_sut_00.cydsn/main_cm4.c snippet_Cy_I2S_Init
  39:Generated_Source\PSoC6\pdl\drivers\peripheral\i2s/cy_i2s.c **** *
  40:Generated_Source\PSoC6\pdl\drivers\peripheral\i2s/cy_i2s.c **** *******************************************************************************/
  41:Generated_Source\PSoC6\pdl\drivers\peripheral\i2s/cy_i2s.c **** cy_en_i2s_status_t Cy_I2S_Init(I2S_Type * base, cy_stc_i2s_config_t const * config)
  42:Generated_Source\PSoC6\pdl\drivers\peripheral\i2s/cy_i2s.c **** {
  28              		.loc 1 42 0
  29              		.cfi_startproc
  30              		@ args = 0, pretend = 0, frame = 0
  31              		@ frame_needed = 0, uses_anonymous_args = 0
  32              	.LVL0:
  33 0000 F0B5     		push	{r4, r5, r6, r7, lr}
  34              		.cfi_def_cfa_offset 20
  35              		.cfi_offset 4, -20
  36              		.cfi_offset 5, -16
  37              		.cfi_offset 6, -12
  38              		.cfi_offset 7, -8
  39              		.cfi_offset 14, -4
  40 0002 4746     		mov	r7, r8
  41 0004 80B4     		push	{r7}
  42              		.cfi_def_cfa_offset 24
  43              		.cfi_offset 8, -24
  44 0006 0500     		movs	r5, r0
  45 0008 0C00     		movs	r4, r1
  46              	.LVL1:
  43:Generated_Source\PSoC6\pdl\drivers\peripheral\i2s/cy_i2s.c ****     cy_en_i2s_status_t ret = CY_I2S_BAD_PARAM;
  44:Generated_Source\PSoC6\pdl\drivers\peripheral\i2s/cy_i2s.c ****     
  45:Generated_Source\PSoC6\pdl\drivers\peripheral\i2s/cy_i2s.c ****     if((NULL != base) && (NULL != config))
  47              		.loc 1 45 0
  48 000a 0028     		cmp	r0, #0
  49 000c 00D1     		bne	.LCB21
  50 000e 86E1     		b	.L38	@long jump
  51              	.LCB21:
  52              		.loc 1 45 0 is_stmt 0 discriminator 1
  53 0010 0029     		cmp	r1, #0
  54 0012 00D1     		bne	.LCB23
  55 0014 85E1     		b	.L39	@long jump
  56              	.LCB23:
  57              	.LBB30:
  46:Generated_Source\PSoC6\pdl\drivers\peripheral\i2s/cy_i2s.c ****     {
  47:Generated_Source\PSoC6\pdl\drivers\peripheral\i2s/cy_i2s.c ****         cy_en_i2s_ws_pw_t wsPulseWidth;
  48:Generated_Source\PSoC6\pdl\drivers\peripheral\i2s/cy_i2s.c ****         cy_en_i2s_len_t channelLength;
  49:Generated_Source\PSoC6\pdl\drivers\peripheral\i2s/cy_i2s.c ****         uint32_t channels;
  50:Generated_Source\PSoC6\pdl\drivers\peripheral\i2s/cy_i2s.c ****         uint32_t clockDiv = (uint32_t)config->clkDiv - 1U;
  58              		.loc 1 50 0 is_stmt 1
  59 0016 0E79     		ldrb	r6, [r1, #4]
  60 0018 013E     		subs	r6, r6, #1
  61              	.LVL2:
  51:Generated_Source\PSoC6\pdl\drivers\peripheral\i2s/cy_i2s.c ****         
  52:Generated_Source\PSoC6\pdl\drivers\peripheral\i2s/cy_i2s.c ****         CY_ASSERT_L2(CY_I2S_IS_CLK_DIV_VALID(clockDiv));
  62              		.loc 1 52 0
ARM GAS  C:\Users\ikomb\AppData\Local\Temp\cchczmzd.s 			page 3


  63 001a 3F2E     		cmp	r6, #63
  64 001c 03D9     		bls	.L3
  65              		.loc 1 52 0 is_stmt 0 discriminator 1
  66 001e 3421     		movs	r1, #52
  67              	.LVL3:
  68 0020 C148     		ldr	r0, .L59
  69              	.LVL4:
  70 0022 FFF7FEFF 		bl	Cy_SysLib_AssertFailed
  71              	.LVL5:
  72              	.L3:
  53:Generated_Source\PSoC6\pdl\drivers\peripheral\i2s/cy_i2s.c ****         
  54:Generated_Source\PSoC6\pdl\drivers\peripheral\i2s/cy_i2s.c ****         /* The clock setting */
  55:Generated_Source\PSoC6\pdl\drivers\peripheral\i2s/cy_i2s.c ****         base->CLOCK_CTL = _VAL2FLD(I2S_CLOCK_CTL_CLOCK_DIV, clockDiv) |
  73              		.loc 1 55 0 is_stmt 1
  74 0026 3F23     		movs	r3, #63
  75 0028 1E40     		ands	r6, r3
  76              	.LVL6:
  56:Generated_Source\PSoC6\pdl\drivers\peripheral\i2s/cy_i2s.c ****                           _BOOL2FLD(I2S_CLOCK_CTL_CLOCK_SEL, config->extClk);
  77              		.loc 1 56 0
  78 002a 6379     		ldrb	r3, [r4, #5]
  79 002c 002B     		cmp	r3, #0
  80 002e 02D0     		beq	.L40
  81 0030 8023     		movs	r3, #128
  82 0032 5B00     		lsls	r3, r3, #1
  83 0034 00E0     		b	.L4
  84              	.L40:
  85 0036 0023     		movs	r3, #0
  86              	.L4:
  55:Generated_Source\PSoC6\pdl\drivers\peripheral\i2s/cy_i2s.c ****                           _BOOL2FLD(I2S_CLOCK_CTL_CLOCK_SEL, config->extClk);
  87              		.loc 1 55 0
  88 0038 1E43     		orrs	r6, r3
  89 003a 2E61     		str	r6, [r5, #16]
  57:Generated_Source\PSoC6\pdl\drivers\peripheral\i2s/cy_i2s.c **** 
  58:Generated_Source\PSoC6\pdl\drivers\peripheral\i2s/cy_i2s.c ****         /* The Tx setting */
  59:Generated_Source\PSoC6\pdl\drivers\peripheral\i2s/cy_i2s.c ****         if (config->txEnabled)
  90              		.loc 1 59 0
  91 003c 2378     		ldrb	r3, [r4]
  92 003e 002B     		cmp	r3, #0
  93 0040 00D1     		bne	.LCB57
  94 0042 99E0     		b	.L5	@long jump
  95              	.LCB57:
  60:Generated_Source\PSoC6\pdl\drivers\peripheral\i2s/cy_i2s.c ****         {
  61:Generated_Source\PSoC6\pdl\drivers\peripheral\i2s/cy_i2s.c ****             CY_ASSERT_L3(CY_I2S_IS_ALIGNMENT_VALID(config->txAlignment));
  96              		.loc 1 61 0
  97 0044 E379     		ldrb	r3, [r4, #7]
  98 0046 032B     		cmp	r3, #3
  99 0048 03D9     		bls	.L6
 100              		.loc 1 61 0 is_stmt 0 discriminator 1
 101 004a 3D21     		movs	r1, #61
 102 004c B648     		ldr	r0, .L59
 103 004e FFF7FEFF 		bl	Cy_SysLib_AssertFailed
 104              	.LVL7:
 105              	.L6:
  62:Generated_Source\PSoC6\pdl\drivers\peripheral\i2s/cy_i2s.c ****             CY_ASSERT_L3(CY_I2S_IS_OVHDATA_VALID(config->txOverheadValue));
 106              		.loc 1 62 0 is_stmt 1
 107 0052 A37D     		ldrb	r3, [r4, #22]
 108 0054 012B     		cmp	r3, #1
ARM GAS  C:\Users\ikomb\AppData\Local\Temp\cchczmzd.s 			page 4


 109 0056 03D9     		bls	.L7
 110              		.loc 1 62 0 is_stmt 0 discriminator 1
 111 0058 3E21     		movs	r1, #62
 112 005a B348     		ldr	r0, .L59
 113 005c FFF7FEFF 		bl	Cy_SysLib_AssertFailed
 114              	.LVL8:
 115              	.L7:
  63:Generated_Source\PSoC6\pdl\drivers\peripheral\i2s/cy_i2s.c ****             
  64:Generated_Source\PSoC6\pdl\drivers\peripheral\i2s/cy_i2s.c ****             if ((CY_I2S_TDM_MODE_A == config->txAlignment) || (CY_I2S_TDM_MODE_B == config->txAlign
 116              		.loc 1 64 0 is_stmt 1
 117 0060 E379     		ldrb	r3, [r4, #7]
 118 0062 023B     		subs	r3, r3, #2
 119 0064 DBB2     		uxtb	r3, r3
 120 0066 012B     		cmp	r3, #1
 121 0068 19D8     		bhi	.L8
  65:Generated_Source\PSoC6\pdl\drivers\peripheral\i2s/cy_i2s.c ****             {
  66:Generated_Source\PSoC6\pdl\drivers\peripheral\i2s/cy_i2s.c ****                 channels = (uint32_t)config->txChannels - 1UL;
 122              		.loc 1 66 0
 123 006a E77C     		ldrb	r7, [r4, #19]
 124 006c 013F     		subs	r7, r7, #1
 125              	.LVL9:
  67:Generated_Source\PSoC6\pdl\drivers\peripheral\i2s/cy_i2s.c ****                 wsPulseWidth = config->txWsPulseWidth;
 126              		.loc 1 67 0
 127 006e 237A     		ldrb	r3, [r4, #8]
 128 0070 9846     		mov	r8, r3
 129              	.LVL10:
  68:Generated_Source\PSoC6\pdl\drivers\peripheral\i2s/cy_i2s.c ****                 channelLength = CY_I2S_LEN32;
  69:Generated_Source\PSoC6\pdl\drivers\peripheral\i2s/cy_i2s.c ****                 
  70:Generated_Source\PSoC6\pdl\drivers\peripheral\i2s/cy_i2s.c ****                 CY_ASSERT_L2(CY_I2S_IS_CHANNELS_VALID(channels));
 130              		.loc 1 70 0
 131 0072 072F     		cmp	r7, #7
 132 0074 03D9     		bls	.L9
 133              		.loc 1 70 0 is_stmt 0 discriminator 1
 134 0076 4621     		movs	r1, #70
 135 0078 AB48     		ldr	r0, .L59
 136 007a FFF7FEFF 		bl	Cy_SysLib_AssertFailed
 137              	.LVL11:
 138              	.L9:
  71:Generated_Source\PSoC6\pdl\drivers\peripheral\i2s/cy_i2s.c ****                 CY_ASSERT_L3(CY_I2S_IS_WSPULSE_VALID(wsPulseWidth));
 139              		.loc 1 71 0 is_stmt 1
 140 007e 4346     		mov	r3, r8
 141 0080 012B     		cmp	r3, #1
 142 0082 03D9     		bls	.L10
 143              		.loc 1 71 0 is_stmt 0 discriminator 1
 144 0084 4721     		movs	r1, #71
 145 0086 A848     		ldr	r0, .L59
 146 0088 FFF7FEFF 		bl	Cy_SysLib_AssertFailed
 147              	.LVL12:
 148              	.L10:
  72:Generated_Source\PSoC6\pdl\drivers\peripheral\i2s/cy_i2s.c ****                 CY_ASSERT_L3(CY_I2S_IS_LEN_VALID(config->txWordLength));
 149              		.loc 1 72 0 is_stmt 1
 150 008c 637D     		ldrb	r3, [r4, #21]
 151 008e 052B     		cmp	r3, #5
 152 0090 15D9     		bls	.L41
 153              		.loc 1 72 0 is_stmt 0 discriminator 1
 154 0092 4821     		movs	r1, #72
 155 0094 A448     		ldr	r0, .L59
ARM GAS  C:\Users\ikomb\AppData\Local\Temp\cchczmzd.s 			page 5


 156 0096 FFF7FEFF 		bl	Cy_SysLib_AssertFailed
 157              	.LVL13:
  68:Generated_Source\PSoC6\pdl\drivers\peripheral\i2s/cy_i2s.c ****                 channelLength = CY_I2S_LEN32;
 158              		.loc 1 68 0 is_stmt 1 discriminator 1
 159 009a 0526     		movs	r6, #5
 160 009c 14E0     		b	.L11
 161              	.LVL14:
 162              	.L8:
  73:Generated_Source\PSoC6\pdl\drivers\peripheral\i2s/cy_i2s.c ****             }
  74:Generated_Source\PSoC6\pdl\drivers\peripheral\i2s/cy_i2s.c ****             else
  75:Generated_Source\PSoC6\pdl\drivers\peripheral\i2s/cy_i2s.c ****             {
  76:Generated_Source\PSoC6\pdl\drivers\peripheral\i2s/cy_i2s.c ****                 channels = 1UL;
  77:Generated_Source\PSoC6\pdl\drivers\peripheral\i2s/cy_i2s.c ****                 wsPulseWidth = CY_I2S_WS_ONE_CHANNEL_LENGTH;
  78:Generated_Source\PSoC6\pdl\drivers\peripheral\i2s/cy_i2s.c ****                 channelLength = config->txChannelLength;
 163              		.loc 1 78 0
 164 009e 267D     		ldrb	r6, [r4, #20]
 165              	.LVL15:
  79:Generated_Source\PSoC6\pdl\drivers\peripheral\i2s/cy_i2s.c ****                 
  80:Generated_Source\PSoC6\pdl\drivers\peripheral\i2s/cy_i2s.c ****                 CY_ASSERT_L3(CY_I2S_IS_CHAN_WORD_VALID(channelLength, config->txWordLength));
 166              		.loc 1 80 0
 167 00a0 052E     		cmp	r6, #5
 168 00a2 04D8     		bhi	.L12
 169              		.loc 1 80 0 is_stmt 0 discriminator 2
 170 00a4 637D     		ldrb	r3, [r4, #21]
 171 00a6 052B     		cmp	r3, #5
 172 00a8 01D8     		bhi	.L12
 173              		.loc 1 80 0 discriminator 4
 174 00aa 9E42     		cmp	r6, r3
 175 00ac 09D2     		bcs	.L42
 176              	.L12:
 177              		.loc 1 80 0 discriminator 5
 178 00ae 5021     		movs	r1, #80
 179 00b0 9D48     		ldr	r0, .L59
 180 00b2 FFF7FEFF 		bl	Cy_SysLib_AssertFailed
 181              	.LVL16:
  76:Generated_Source\PSoC6\pdl\drivers\peripheral\i2s/cy_i2s.c ****                 wsPulseWidth = CY_I2S_WS_ONE_CHANNEL_LENGTH;
 182              		.loc 1 76 0 is_stmt 1 discriminator 5
 183 00b6 0127     		movs	r7, #1
  77:Generated_Source\PSoC6\pdl\drivers\peripheral\i2s/cy_i2s.c ****                 channelLength = config->txChannelLength;
 184              		.loc 1 77 0 discriminator 5
 185 00b8 0123     		movs	r3, #1
 186 00ba 9846     		mov	r8, r3
 187 00bc 04E0     		b	.L11
 188              	.LVL17:
 189              	.L41:
  68:Generated_Source\PSoC6\pdl\drivers\peripheral\i2s/cy_i2s.c ****                 
 190              		.loc 1 68 0
 191 00be 0526     		movs	r6, #5
 192 00c0 02E0     		b	.L11
 193              	.LVL18:
 194              	.L42:
  76:Generated_Source\PSoC6\pdl\drivers\peripheral\i2s/cy_i2s.c ****                 wsPulseWidth = CY_I2S_WS_ONE_CHANNEL_LENGTH;
 195              		.loc 1 76 0
 196 00c2 0127     		movs	r7, #1
  77:Generated_Source\PSoC6\pdl\drivers\peripheral\i2s/cy_i2s.c ****                 channelLength = config->txChannelLength;
 197              		.loc 1 77 0
 198 00c4 0123     		movs	r3, #1
ARM GAS  C:\Users\ikomb\AppData\Local\Temp\cchczmzd.s 			page 6


 199 00c6 9846     		mov	r8, r3
 200              	.LVL19:
 201              	.L11:
  81:Generated_Source\PSoC6\pdl\drivers\peripheral\i2s/cy_i2s.c ****             }
  82:Generated_Source\PSoC6\pdl\drivers\peripheral\i2s/cy_i2s.c ****             
  83:Generated_Source\PSoC6\pdl\drivers\peripheral\i2s/cy_i2s.c ****             CY_ASSERT_L2(CY_I2S_IS_TRIG_LEVEL_VALID(config->txFifoTriggerLevel, channels));
 202              		.loc 1 83 0
 203 00c8 E27D     		ldrb	r2, [r4, #23]
 204 00ca FF23     		movs	r3, #255
 205 00cc DB1B     		subs	r3, r3, r7
 206 00ce 9A42     		cmp	r2, r3
 207 00d0 03D9     		bls	.L13
 208              		.loc 1 83 0 is_stmt 0 discriminator 1
 209 00d2 5321     		movs	r1, #83
 210 00d4 9448     		ldr	r0, .L59
 211 00d6 FFF7FEFF 		bl	Cy_SysLib_AssertFailed
 212              	.LVL20:
 213              	.L13:
  84:Generated_Source\PSoC6\pdl\drivers\peripheral\i2s/cy_i2s.c ****             
  85:Generated_Source\PSoC6\pdl\drivers\peripheral\i2s/cy_i2s.c ****             base->TX_WATCHDOG = config->txWatchdogValue;
 214              		.loc 1 85 0 is_stmt 1
 215 00da 8423     		movs	r3, #132
 216 00dc E268     		ldr	r2, [r4, #12]
 217 00de EA50     		str	r2, [r5, r3]
  86:Generated_Source\PSoC6\pdl\drivers\peripheral\i2s/cy_i2s.c **** 
  87:Generated_Source\PSoC6\pdl\drivers\peripheral\i2s/cy_i2s.c ****             base->TX_CTL = _VAL2FLD(I2S_TX_CTL_I2S_MODE, config->txAlignment) |
 218              		.loc 1 87 0
 219 00e0 E379     		ldrb	r3, [r4, #7]
 220 00e2 1B02     		lsls	r3, r3, #8
 221 00e4 C022     		movs	r2, #192
 222 00e6 9200     		lsls	r2, r2, #2
 223 00e8 1340     		ands	r3, r2
  88:Generated_Source\PSoC6\pdl\drivers\peripheral\i2s/cy_i2s.c ****                            _BOOL2FLD(I2S_TX_CTL_B_CLOCK_INV, config->txSdoLatchingTime) |
 224              		.loc 1 88 0
 225 00ea 227C     		ldrb	r2, [r4, #16]
 226 00ec 002A     		cmp	r2, #0
 227 00ee 01D0     		beq	.L43
 228 00f0 0822     		movs	r2, #8
 229 00f2 00E0     		b	.L14
 230              	.L43:
 231 00f4 0022     		movs	r2, #0
 232              	.L14:
  87:Generated_Source\PSoC6\pdl\drivers\peripheral\i2s/cy_i2s.c ****                            _BOOL2FLD(I2S_TX_CTL_B_CLOCK_INV, config->txSdoLatchingTime) |
 233              		.loc 1 87 0
 234 00f6 1343     		orrs	r3, r2
  89:Generated_Source\PSoC6\pdl\drivers\peripheral\i2s/cy_i2s.c ****                            _VAL2FLD(I2S_TX_CTL_CH_NR, channels) |
 235              		.loc 1 89 0
 236 00f8 3A01     		lsls	r2, r7, #4
 237 00fa 7027     		movs	r7, #112
 238              	.LVL21:
 239 00fc 1740     		ands	r7, r2
  88:Generated_Source\PSoC6\pdl\drivers\peripheral\i2s/cy_i2s.c ****                            _BOOL2FLD(I2S_TX_CTL_B_CLOCK_INV, config->txSdoLatchingTime) |
 240              		.loc 1 88 0
 241 00fe 1F43     		orrs	r7, r3
  90:Generated_Source\PSoC6\pdl\drivers\peripheral\i2s/cy_i2s.c ****                            _BOOL2FLD(I2S_TX_CTL_MS, config->txMasterMode) |
 242              		.loc 1 90 0
 243 0100 A379     		ldrb	r3, [r4, #6]
ARM GAS  C:\Users\ikomb\AppData\Local\Temp\cchczmzd.s 			page 7


 244 0102 002B     		cmp	r3, #0
 245 0104 01D0     		beq	.L44
 246 0106 8023     		movs	r3, #128
 247 0108 00E0     		b	.L15
 248              	.L44:
 249 010a 0023     		movs	r3, #0
 250              	.L15:
  89:Generated_Source\PSoC6\pdl\drivers\peripheral\i2s/cy_i2s.c ****                            _VAL2FLD(I2S_TX_CTL_CH_NR, channels) |
 251              		.loc 1 89 0
 252 010c 3B43     		orrs	r3, r7
  91:Generated_Source\PSoC6\pdl\drivers\peripheral\i2s/cy_i2s.c ****                            _VAL2FLD(I2S_TX_CTL_WS_PULSE, wsPulseWidth) |
 253              		.loc 1 91 0
 254 010e 4246     		mov	r2, r8
 255 0110 9202     		lsls	r2, r2, #10
 256 0112 8021     		movs	r1, #128
 257 0114 C900     		lsls	r1, r1, #3
 258 0116 0A40     		ands	r2, r1
  90:Generated_Source\PSoC6\pdl\drivers\peripheral\i2s/cy_i2s.c ****                            _BOOL2FLD(I2S_TX_CTL_MS, config->txMasterMode) |
 259              		.loc 1 90 0
 260 0118 1343     		orrs	r3, r2
  92:Generated_Source\PSoC6\pdl\drivers\peripheral\i2s/cy_i2s.c ****                            _BOOL2FLD(I2S_TX_CTL_WD_EN, config->txWatchdogEnable) |
 261              		.loc 1 92 0
 262 011a 627A     		ldrb	r2, [r4, #9]
 263 011c 002A     		cmp	r2, #0
 264 011e 02D0     		beq	.L45
 265 0120 8022     		movs	r2, #128
 266 0122 9201     		lsls	r2, r2, #6
 267 0124 00E0     		b	.L16
 268              	.L45:
 269 0126 0022     		movs	r2, #0
 270              	.L16:
  91:Generated_Source\PSoC6\pdl\drivers\peripheral\i2s/cy_i2s.c ****                            _VAL2FLD(I2S_TX_CTL_WS_PULSE, wsPulseWidth) |
 271              		.loc 1 91 0
 272 0128 1343     		orrs	r3, r2
  93:Generated_Source\PSoC6\pdl\drivers\peripheral\i2s/cy_i2s.c ****                            _BOOL2FLD(I2S_TX_CTL_SCKO_POL, config->txSckoInversion) |
 273              		.loc 1 93 0
 274 012a 627C     		ldrb	r2, [r4, #17]
 275 012c 002A     		cmp	r2, #0
 276 012e 02D0     		beq	.L46
 277 0130 8022     		movs	r2, #128
 278 0132 5204     		lsls	r2, r2, #17
 279 0134 00E0     		b	.L17
 280              	.L46:
 281 0136 0022     		movs	r2, #0
 282              	.L17:
  92:Generated_Source\PSoC6\pdl\drivers\peripheral\i2s/cy_i2s.c ****                            _BOOL2FLD(I2S_TX_CTL_WD_EN, config->txWatchdogEnable) |
 283              		.loc 1 92 0
 284 0138 1343     		orrs	r3, r2
  94:Generated_Source\PSoC6\pdl\drivers\peripheral\i2s/cy_i2s.c ****                            _BOOL2FLD(I2S_TX_CTL_SCKI_POL, config->txSckiInversion) |
 285              		.loc 1 94 0
 286 013a A27C     		ldrb	r2, [r4, #18]
 287 013c 002A     		cmp	r2, #0
 288 013e 02D0     		beq	.L47
 289 0140 8022     		movs	r2, #128
 290 0142 9204     		lsls	r2, r2, #18
 291 0144 00E0     		b	.L18
 292              	.L47:
ARM GAS  C:\Users\ikomb\AppData\Local\Temp\cchczmzd.s 			page 8


 293 0146 0022     		movs	r2, #0
 294              	.L18:
  93:Generated_Source\PSoC6\pdl\drivers\peripheral\i2s/cy_i2s.c ****                            _BOOL2FLD(I2S_TX_CTL_SCKO_POL, config->txSckoInversion) |
 295              		.loc 1 93 0
 296 0148 1343     		orrs	r3, r2
  95:Generated_Source\PSoC6\pdl\drivers\peripheral\i2s/cy_i2s.c ****                            _VAL2FLD(I2S_TX_CTL_CH_LEN, channelLength) |
 297              		.loc 1 95 0
 298 014a 3604     		lsls	r6, r6, #16
 299              	.LVL22:
 300 014c E022     		movs	r2, #224
 301 014e D202     		lsls	r2, r2, #11
 302 0150 1640     		ands	r6, r2
  94:Generated_Source\PSoC6\pdl\drivers\peripheral\i2s/cy_i2s.c ****                            _BOOL2FLD(I2S_TX_CTL_SCKI_POL, config->txSckiInversion) |
 303              		.loc 1 94 0
 304 0152 3343     		orrs	r3, r6
  96:Generated_Source\PSoC6\pdl\drivers\peripheral\i2s/cy_i2s.c ****                            _VAL2FLD(I2S_TX_CTL_WORD_LEN, config->txWordLength) |
 305              		.loc 1 96 0
 306 0154 667D     		ldrb	r6, [r4, #21]
 307 0156 3605     		lsls	r6, r6, #20
 308 0158 E021     		movs	r1, #224
 309 015a C903     		lsls	r1, r1, #15
 310 015c 3200     		movs	r2, r6
 311 015e 0A40     		ands	r2, r1
  95:Generated_Source\PSoC6\pdl\drivers\peripheral\i2s/cy_i2s.c ****                            _VAL2FLD(I2S_TX_CTL_CH_LEN, channelLength) |
 312              		.loc 1 95 0
 313 0160 1343     		orrs	r3, r2
 314 0162 1E00     		movs	r6, r3
  97:Generated_Source\PSoC6\pdl\drivers\peripheral\i2s/cy_i2s.c ****                            _VAL2FLD(I2S_TX_CTL_OVHDATA, config->txOverheadValue);
 315              		.loc 1 97 0
 316 0164 A37D     		ldrb	r3, [r4, #22]
 317 0166 1B03     		lsls	r3, r3, #12
 318 0168 8021     		movs	r1, #128
 319 016a 4901     		lsls	r1, r1, #5
 320 016c 0B40     		ands	r3, r1
 321 016e 1A00     		movs	r2, r3
  96:Generated_Source\PSoC6\pdl\drivers\peripheral\i2s/cy_i2s.c ****                            _VAL2FLD(I2S_TX_CTL_WORD_LEN, config->txWordLength) |
 322              		.loc 1 96 0
 323 0170 3300     		movs	r3, r6
 324 0172 1343     		orrs	r3, r2
  87:Generated_Source\PSoC6\pdl\drivers\peripheral\i2s/cy_i2s.c ****                            _BOOL2FLD(I2S_TX_CTL_B_CLOCK_INV, config->txSdoLatchingTime) |
 325              		.loc 1 87 0
 326 0174 8022     		movs	r2, #128
 327 0176 AB50     		str	r3, [r5, r2]
 328              	.LVL23:
 329              	.L5:
  98:Generated_Source\PSoC6\pdl\drivers\peripheral\i2s/cy_i2s.c ****         }
  99:Generated_Source\PSoC6\pdl\drivers\peripheral\i2s/cy_i2s.c **** 
 100:Generated_Source\PSoC6\pdl\drivers\peripheral\i2s/cy_i2s.c ****         /* The Rx setting */
 101:Generated_Source\PSoC6\pdl\drivers\peripheral\i2s/cy_i2s.c ****         if (config->rxEnabled)
 330              		.loc 1 101 0
 331 0178 6378     		ldrb	r3, [r4, #1]
 332 017a 002B     		cmp	r3, #0
 333 017c 00D1     		bne	.LCB296
 334 017e 9AE0     		b	.L19	@long jump
 335              	.LCB296:
 102:Generated_Source\PSoC6\pdl\drivers\peripheral\i2s/cy_i2s.c ****         {
 103:Generated_Source\PSoC6\pdl\drivers\peripheral\i2s/cy_i2s.c ****             CY_ASSERT_L3(CY_I2S_IS_ALIGNMENT_VALID(config->rxAlignment));
ARM GAS  C:\Users\ikomb\AppData\Local\Temp\cchczmzd.s 			page 9


 336              		.loc 1 103 0
 337 0180 637E     		ldrb	r3, [r4, #25]
 338 0182 032B     		cmp	r3, #3
 339 0184 03D9     		bls	.L20
 340              		.loc 1 103 0 is_stmt 0 discriminator 1
 341 0186 6721     		movs	r1, #103
 342 0188 6748     		ldr	r0, .L59
 343 018a FFF7FEFF 		bl	Cy_SysLib_AssertFailed
 344              	.LVL24:
 345              	.L20:
 104:Generated_Source\PSoC6\pdl\drivers\peripheral\i2s/cy_i2s.c ****             
 105:Generated_Source\PSoC6\pdl\drivers\peripheral\i2s/cy_i2s.c ****             if ((CY_I2S_TDM_MODE_A == config->rxAlignment) || (CY_I2S_TDM_MODE_B == config->rxAlign
 346              		.loc 1 105 0 is_stmt 1
 347 018e 637E     		ldrb	r3, [r4, #25]
 348 0190 023B     		subs	r3, r3, #2
 349 0192 DBB2     		uxtb	r3, r3
 350 0194 012B     		cmp	r3, #1
 351 0196 1BD8     		bhi	.L21
 106:Generated_Source\PSoC6\pdl\drivers\peripheral\i2s/cy_i2s.c ****             {
 107:Generated_Source\PSoC6\pdl\drivers\peripheral\i2s/cy_i2s.c ****                 channels = (uint32_t)config->rxChannels - 1UL;
 352              		.loc 1 107 0
 353 0198 2323     		movs	r3, #35
 354 019a E75C     		ldrb	r7, [r4, r3]
 355 019c 013F     		subs	r7, r7, #1
 356              	.LVL25:
 108:Generated_Source\PSoC6\pdl\drivers\peripheral\i2s/cy_i2s.c ****                 wsPulseWidth = config->rxWsPulseWidth;
 357              		.loc 1 108 0
 358 019e A37E     		ldrb	r3, [r4, #26]
 359 01a0 9846     		mov	r8, r3
 360              	.LVL26:
 109:Generated_Source\PSoC6\pdl\drivers\peripheral\i2s/cy_i2s.c ****                 channelLength = CY_I2S_LEN32;
 110:Generated_Source\PSoC6\pdl\drivers\peripheral\i2s/cy_i2s.c ****                 
 111:Generated_Source\PSoC6\pdl\drivers\peripheral\i2s/cy_i2s.c ****                 CY_ASSERT_L2(CY_I2S_IS_CHANNELS_VALID(channels));
 361              		.loc 1 111 0
 362 01a2 072F     		cmp	r7, #7
 363 01a4 03D9     		bls	.L22
 364              		.loc 1 111 0 is_stmt 0 discriminator 1
 365 01a6 6F21     		movs	r1, #111
 366 01a8 5F48     		ldr	r0, .L59
 367 01aa FFF7FEFF 		bl	Cy_SysLib_AssertFailed
 368              	.LVL27:
 369              	.L22:
 112:Generated_Source\PSoC6\pdl\drivers\peripheral\i2s/cy_i2s.c ****                 CY_ASSERT_L3(CY_I2S_IS_WSPULSE_VALID(wsPulseWidth));
 370              		.loc 1 112 0 is_stmt 1
 371 01ae 4346     		mov	r3, r8
 372 01b0 012B     		cmp	r3, #1
 373 01b2 03D9     		bls	.L23
 374              		.loc 1 112 0 is_stmt 0 discriminator 1
 375 01b4 7021     		movs	r1, #112
 376 01b6 5C48     		ldr	r0, .L59
 377 01b8 FFF7FEFF 		bl	Cy_SysLib_AssertFailed
 378              	.LVL28:
 379              	.L23:
 113:Generated_Source\PSoC6\pdl\drivers\peripheral\i2s/cy_i2s.c ****                 CY_ASSERT_L3(CY_I2S_IS_LEN_VALID(config->rxWordLength));
 380              		.loc 1 113 0 is_stmt 1
 381 01bc 2523     		movs	r3, #37
 382 01be E35C     		ldrb	r3, [r4, r3]
ARM GAS  C:\Users\ikomb\AppData\Local\Temp\cchczmzd.s 			page 10


 383 01c0 052B     		cmp	r3, #5
 384 01c2 17D9     		bls	.L48
 385              		.loc 1 113 0 is_stmt 0 discriminator 1
 386 01c4 7121     		movs	r1, #113
 387 01c6 5848     		ldr	r0, .L59
 388 01c8 FFF7FEFF 		bl	Cy_SysLib_AssertFailed
 389              	.LVL29:
 109:Generated_Source\PSoC6\pdl\drivers\peripheral\i2s/cy_i2s.c ****                 channelLength = CY_I2S_LEN32;
 390              		.loc 1 109 0 is_stmt 1 discriminator 1
 391 01cc 0526     		movs	r6, #5
 392 01ce 16E0     		b	.L24
 393              	.LVL30:
 394              	.L21:
 114:Generated_Source\PSoC6\pdl\drivers\peripheral\i2s/cy_i2s.c ****             }
 115:Generated_Source\PSoC6\pdl\drivers\peripheral\i2s/cy_i2s.c ****             else
 116:Generated_Source\PSoC6\pdl\drivers\peripheral\i2s/cy_i2s.c ****             {
 117:Generated_Source\PSoC6\pdl\drivers\peripheral\i2s/cy_i2s.c ****                 channels = 1UL;
 118:Generated_Source\PSoC6\pdl\drivers\peripheral\i2s/cy_i2s.c ****                 wsPulseWidth = CY_I2S_WS_ONE_CHANNEL_LENGTH;
 119:Generated_Source\PSoC6\pdl\drivers\peripheral\i2s/cy_i2s.c ****                 channelLength = config->rxChannelLength;
 395              		.loc 1 119 0
 396 01d0 2423     		movs	r3, #36
 397 01d2 E65C     		ldrb	r6, [r4, r3]
 398              	.LVL31:
 120:Generated_Source\PSoC6\pdl\drivers\peripheral\i2s/cy_i2s.c ****                 
 121:Generated_Source\PSoC6\pdl\drivers\peripheral\i2s/cy_i2s.c ****                 CY_ASSERT_L3(CY_I2S_IS_CHAN_WORD_VALID(channelLength, config->rxWordLength));
 399              		.loc 1 121 0
 400 01d4 052E     		cmp	r6, #5
 401 01d6 05D8     		bhi	.L25
 402              		.loc 1 121 0 is_stmt 0 discriminator 2
 403 01d8 0133     		adds	r3, r3, #1
 404 01da E35C     		ldrb	r3, [r4, r3]
 405 01dc 052B     		cmp	r3, #5
 406 01de 01D8     		bhi	.L25
 407              		.loc 1 121 0 discriminator 4
 408 01e0 9E42     		cmp	r6, r3
 409 01e2 09D2     		bcs	.L49
 410              	.L25:
 411              		.loc 1 121 0 discriminator 5
 412 01e4 7921     		movs	r1, #121
 413 01e6 5048     		ldr	r0, .L59
 414 01e8 FFF7FEFF 		bl	Cy_SysLib_AssertFailed
 415              	.LVL32:
 117:Generated_Source\PSoC6\pdl\drivers\peripheral\i2s/cy_i2s.c ****                 wsPulseWidth = CY_I2S_WS_ONE_CHANNEL_LENGTH;
 416              		.loc 1 117 0 is_stmt 1 discriminator 5
 417 01ec 0127     		movs	r7, #1
 118:Generated_Source\PSoC6\pdl\drivers\peripheral\i2s/cy_i2s.c ****                 channelLength = config->rxChannelLength;
 418              		.loc 1 118 0 discriminator 5
 419 01ee 0123     		movs	r3, #1
 420 01f0 9846     		mov	r8, r3
 421 01f2 04E0     		b	.L24
 422              	.LVL33:
 423              	.L48:
 109:Generated_Source\PSoC6\pdl\drivers\peripheral\i2s/cy_i2s.c ****                 
 424              		.loc 1 109 0
 425 01f4 0526     		movs	r6, #5
 426 01f6 02E0     		b	.L24
 427              	.LVL34:
ARM GAS  C:\Users\ikomb\AppData\Local\Temp\cchczmzd.s 			page 11


 428              	.L49:
 117:Generated_Source\PSoC6\pdl\drivers\peripheral\i2s/cy_i2s.c ****                 wsPulseWidth = CY_I2S_WS_ONE_CHANNEL_LENGTH;
 429              		.loc 1 117 0
 430 01f8 0127     		movs	r7, #1
 118:Generated_Source\PSoC6\pdl\drivers\peripheral\i2s/cy_i2s.c ****                 channelLength = config->rxChannelLength;
 431              		.loc 1 118 0
 432 01fa 0123     		movs	r3, #1
 433 01fc 9846     		mov	r8, r3
 434              	.LVL35:
 435              	.L24:
 122:Generated_Source\PSoC6\pdl\drivers\peripheral\i2s/cy_i2s.c ****             }
 123:Generated_Source\PSoC6\pdl\drivers\peripheral\i2s/cy_i2s.c ****             
 124:Generated_Source\PSoC6\pdl\drivers\peripheral\i2s/cy_i2s.c ****             CY_ASSERT_L2(CY_I2S_IS_TRIG_LEVEL_VALID(config->rxFifoTriggerLevel, channels));
 436              		.loc 1 124 0
 437 01fe 2723     		movs	r3, #39
 438 0200 E25C     		ldrb	r2, [r4, r3]
 439 0202 D833     		adds	r3, r3, #216
 440 0204 DB1B     		subs	r3, r3, r7
 441 0206 9A42     		cmp	r2, r3
 442 0208 03D9     		bls	.L26
 443              		.loc 1 124 0 is_stmt 0 discriminator 1
 444 020a 7C21     		movs	r1, #124
 445 020c 4648     		ldr	r0, .L59
 446 020e FFF7FEFF 		bl	Cy_SysLib_AssertFailed
 447              	.LVL36:
 448              	.L26:
 125:Generated_Source\PSoC6\pdl\drivers\peripheral\i2s/cy_i2s.c **** 
 126:Generated_Source\PSoC6\pdl\drivers\peripheral\i2s/cy_i2s.c ****             base->RX_WATCHDOG = config->rxWatchdogValue;
 449              		.loc 1 126 0 is_stmt 1
 450 0212 A423     		movs	r3, #164
 451 0214 E269     		ldr	r2, [r4, #28]
 452 0216 EA50     		str	r2, [r5, r3]
 127:Generated_Source\PSoC6\pdl\drivers\peripheral\i2s/cy_i2s.c **** 
 128:Generated_Source\PSoC6\pdl\drivers\peripheral\i2s/cy_i2s.c ****             base->RX_CTL = _VAL2FLD(I2S_RX_CTL_I2S_MODE, config->rxAlignment) |
 453              		.loc 1 128 0
 454 0218 637E     		ldrb	r3, [r4, #25]
 455 021a 1B02     		lsls	r3, r3, #8
 456 021c C022     		movs	r2, #192
 457 021e 9200     		lsls	r2, r2, #2
 458 0220 1340     		ands	r3, r2
 129:Generated_Source\PSoC6\pdl\drivers\peripheral\i2s/cy_i2s.c ****                            _BOOL2FLD(I2S_RX_CTL_B_CLOCK_INV, config->rxSdiLatchingTime) |
 459              		.loc 1 129 0
 460 0222 2022     		movs	r2, #32
 461 0224 A25C     		ldrb	r2, [r4, r2]
 462 0226 002A     		cmp	r2, #0
 463 0228 01D0     		beq	.L50
 464 022a 0822     		movs	r2, #8
 465 022c 00E0     		b	.L27
 466              	.L50:
 467 022e 0022     		movs	r2, #0
 468              	.L27:
 128:Generated_Source\PSoC6\pdl\drivers\peripheral\i2s/cy_i2s.c ****                            _BOOL2FLD(I2S_RX_CTL_B_CLOCK_INV, config->rxSdiLatchingTime) |
 469              		.loc 1 128 0
 470 0230 1343     		orrs	r3, r2
 130:Generated_Source\PSoC6\pdl\drivers\peripheral\i2s/cy_i2s.c ****                            _VAL2FLD(I2S_RX_CTL_CH_NR, channels) |
 471              		.loc 1 130 0
 472 0232 3A01     		lsls	r2, r7, #4
ARM GAS  C:\Users\ikomb\AppData\Local\Temp\cchczmzd.s 			page 12


 473 0234 7027     		movs	r7, #112
 474              	.LVL37:
 475 0236 1740     		ands	r7, r2
 129:Generated_Source\PSoC6\pdl\drivers\peripheral\i2s/cy_i2s.c ****                            _BOOL2FLD(I2S_RX_CTL_B_CLOCK_INV, config->rxSdiLatchingTime) |
 476              		.loc 1 129 0
 477 0238 1F43     		orrs	r7, r3
 131:Generated_Source\PSoC6\pdl\drivers\peripheral\i2s/cy_i2s.c ****                            _BOOL2FLD(I2S_RX_CTL_MS, config->rxMasterMode) |
 478              		.loc 1 131 0
 479 023a 237E     		ldrb	r3, [r4, #24]
 480 023c 002B     		cmp	r3, #0
 481 023e 01D0     		beq	.L51
 482 0240 8023     		movs	r3, #128
 483 0242 00E0     		b	.L28
 484              	.L51:
 485 0244 0023     		movs	r3, #0
 486              	.L28:
 130:Generated_Source\PSoC6\pdl\drivers\peripheral\i2s/cy_i2s.c ****                            _VAL2FLD(I2S_RX_CTL_CH_NR, channels) |
 487              		.loc 1 130 0
 488 0246 3B43     		orrs	r3, r7
 132:Generated_Source\PSoC6\pdl\drivers\peripheral\i2s/cy_i2s.c ****                            _VAL2FLD(I2S_RX_CTL_WS_PULSE, wsPulseWidth) |
 489              		.loc 1 132 0
 490 0248 4246     		mov	r2, r8
 491 024a 9202     		lsls	r2, r2, #10
 492 024c 8021     		movs	r1, #128
 493 024e C900     		lsls	r1, r1, #3
 494 0250 0A40     		ands	r2, r1
 131:Generated_Source\PSoC6\pdl\drivers\peripheral\i2s/cy_i2s.c ****                            _BOOL2FLD(I2S_RX_CTL_MS, config->rxMasterMode) |
 495              		.loc 1 131 0
 496 0252 1343     		orrs	r3, r2
 133:Generated_Source\PSoC6\pdl\drivers\peripheral\i2s/cy_i2s.c ****                            _BOOL2FLD(I2S_RX_CTL_WD_EN, config->rxWatchdogEnable) |
 497              		.loc 1 133 0
 498 0254 E27E     		ldrb	r2, [r4, #27]
 499 0256 002A     		cmp	r2, #0
 500 0258 02D0     		beq	.L52
 501 025a 8022     		movs	r2, #128
 502 025c 9201     		lsls	r2, r2, #6
 503 025e 00E0     		b	.L29
 504              	.L52:
 505 0260 0022     		movs	r2, #0
 506              	.L29:
 132:Generated_Source\PSoC6\pdl\drivers\peripheral\i2s/cy_i2s.c ****                            _VAL2FLD(I2S_RX_CTL_WS_PULSE, wsPulseWidth) |
 507              		.loc 1 132 0
 508 0262 1343     		orrs	r3, r2
 134:Generated_Source\PSoC6\pdl\drivers\peripheral\i2s/cy_i2s.c ****                            _BOOL2FLD(I2S_RX_CTL_SCKO_POL, config->rxSckoInversion) |
 509              		.loc 1 134 0
 510 0264 2122     		movs	r2, #33
 511 0266 A25C     		ldrb	r2, [r4, r2]
 512 0268 002A     		cmp	r2, #0
 513 026a 02D0     		beq	.L53
 514 026c 8022     		movs	r2, #128
 515 026e 5204     		lsls	r2, r2, #17
 516 0270 00E0     		b	.L30
 517              	.L53:
 518 0272 0022     		movs	r2, #0
 519              	.L30:
 133:Generated_Source\PSoC6\pdl\drivers\peripheral\i2s/cy_i2s.c ****                            _BOOL2FLD(I2S_RX_CTL_WD_EN, config->rxWatchdogEnable) |
 520              		.loc 1 133 0
ARM GAS  C:\Users\ikomb\AppData\Local\Temp\cchczmzd.s 			page 13


 521 0274 1343     		orrs	r3, r2
 135:Generated_Source\PSoC6\pdl\drivers\peripheral\i2s/cy_i2s.c ****                            _BOOL2FLD(I2S_RX_CTL_SCKI_POL, config->rxSckiInversion) |
 522              		.loc 1 135 0
 523 0276 2222     		movs	r2, #34
 524 0278 A25C     		ldrb	r2, [r4, r2]
 525 027a 002A     		cmp	r2, #0
 526 027c 02D0     		beq	.L54
 527 027e 8022     		movs	r2, #128
 528 0280 9204     		lsls	r2, r2, #18
 529 0282 00E0     		b	.L31
 530              	.L54:
 531 0284 0022     		movs	r2, #0
 532              	.L31:
 134:Generated_Source\PSoC6\pdl\drivers\peripheral\i2s/cy_i2s.c ****                            _BOOL2FLD(I2S_RX_CTL_SCKO_POL, config->rxSckoInversion) |
 533              		.loc 1 134 0
 534 0286 1343     		orrs	r3, r2
 136:Generated_Source\PSoC6\pdl\drivers\peripheral\i2s/cy_i2s.c ****                            _VAL2FLD(I2S_RX_CTL_CH_LEN, channelLength) |
 535              		.loc 1 136 0
 536 0288 3604     		lsls	r6, r6, #16
 537              	.LVL38:
 538 028a E022     		movs	r2, #224
 539 028c D202     		lsls	r2, r2, #11
 540 028e 1640     		ands	r6, r2
 135:Generated_Source\PSoC6\pdl\drivers\peripheral\i2s/cy_i2s.c ****                            _BOOL2FLD(I2S_RX_CTL_SCKI_POL, config->rxSckiInversion) |
 541              		.loc 1 135 0
 542 0290 3343     		orrs	r3, r6
 137:Generated_Source\PSoC6\pdl\drivers\peripheral\i2s/cy_i2s.c ****                            _VAL2FLD(I2S_RX_CTL_WORD_LEN, config->rxWordLength) |
 543              		.loc 1 137 0
 544 0292 2522     		movs	r2, #37
 545 0294 A25C     		ldrb	r2, [r4, r2]
 546 0296 1205     		lsls	r2, r2, #20
 547 0298 E021     		movs	r1, #224
 548 029a C903     		lsls	r1, r1, #15
 549 029c 0A40     		ands	r2, r1
 136:Generated_Source\PSoC6\pdl\drivers\peripheral\i2s/cy_i2s.c ****                            _VAL2FLD(I2S_RX_CTL_CH_LEN, channelLength) |
 550              		.loc 1 136 0
 551 029e 1343     		orrs	r3, r2
 138:Generated_Source\PSoC6\pdl\drivers\peripheral\i2s/cy_i2s.c ****                            _BOOL2FLD(I2S_RX_CTL_BIT_EXTENSION, config->rxSignExtension);
 552              		.loc 1 138 0
 553 02a0 2622     		movs	r2, #38
 554 02a2 A25C     		ldrb	r2, [r4, r2]
 555 02a4 002A     		cmp	r2, #0
 556 02a6 02D0     		beq	.L55
 557 02a8 8026     		movs	r6, #128
 558 02aa 3604     		lsls	r6, r6, #16
 559 02ac 00E0     		b	.L32
 560              	.L55:
 561 02ae 0026     		movs	r6, #0
 562              	.L32:
 137:Generated_Source\PSoC6\pdl\drivers\peripheral\i2s/cy_i2s.c ****                            _VAL2FLD(I2S_RX_CTL_WORD_LEN, config->rxWordLength) |
 563              		.loc 1 137 0
 564 02b0 3343     		orrs	r3, r6
 128:Generated_Source\PSoC6\pdl\drivers\peripheral\i2s/cy_i2s.c ****                            _BOOL2FLD(I2S_RX_CTL_B_CLOCK_INV, config->rxSdiLatchingTime) |
 565              		.loc 1 128 0
 566 02b2 A022     		movs	r2, #160
 567 02b4 AB50     		str	r3, [r5, r2]
 568              	.LVL39:
ARM GAS  C:\Users\ikomb\AppData\Local\Temp\cchczmzd.s 			page 14


 569              	.L19:
 139:Generated_Source\PSoC6\pdl\drivers\peripheral\i2s/cy_i2s.c ****         }
 140:Generated_Source\PSoC6\pdl\drivers\peripheral\i2s/cy_i2s.c **** 
 141:Generated_Source\PSoC6\pdl\drivers\peripheral\i2s/cy_i2s.c ****         /* The I2S enable setting */
 142:Generated_Source\PSoC6\pdl\drivers\peripheral\i2s/cy_i2s.c ****         if (config->txEnabled)
 570              		.loc 1 142 0
 571 02b6 2378     		ldrb	r3, [r4]
 572 02b8 002B     		cmp	r3, #0
 573 02ba 04D0     		beq	.L33
 143:Generated_Source\PSoC6\pdl\drivers\peripheral\i2s/cy_i2s.c ****         {
 144:Generated_Source\PSoC6\pdl\drivers\peripheral\i2s/cy_i2s.c ****             base->CTL |= I2S_CTL_TX_ENABLED_Msk;
 574              		.loc 1 144 0
 575 02bc 2B68     		ldr	r3, [r5]
 576 02be 8022     		movs	r2, #128
 577 02c0 D205     		lsls	r2, r2, #23
 578 02c2 1343     		orrs	r3, r2
 579 02c4 2B60     		str	r3, [r5]
 580              	.L33:
 145:Generated_Source\PSoC6\pdl\drivers\peripheral\i2s/cy_i2s.c ****         }
 146:Generated_Source\PSoC6\pdl\drivers\peripheral\i2s/cy_i2s.c **** 
 147:Generated_Source\PSoC6\pdl\drivers\peripheral\i2s/cy_i2s.c ****         if (config->rxEnabled)
 581              		.loc 1 147 0
 582 02c6 6378     		ldrb	r3, [r4, #1]
 583 02c8 002B     		cmp	r3, #0
 584 02ca 04D0     		beq	.L34
 148:Generated_Source\PSoC6\pdl\drivers\peripheral\i2s/cy_i2s.c ****         {
 149:Generated_Source\PSoC6\pdl\drivers\peripheral\i2s/cy_i2s.c ****             base->CTL |= I2S_CTL_RX_ENABLED_Msk;
 585              		.loc 1 149 0
 586 02cc 2B68     		ldr	r3, [r5]
 587 02ce 8022     		movs	r2, #128
 588 02d0 1206     		lsls	r2, r2, #24
 589 02d2 1343     		orrs	r3, r2
 590 02d4 2B60     		str	r3, [r5]
 591              	.L34:
 150:Generated_Source\PSoC6\pdl\drivers\peripheral\i2s/cy_i2s.c ****         }
 151:Generated_Source\PSoC6\pdl\drivers\peripheral\i2s/cy_i2s.c **** 
 152:Generated_Source\PSoC6\pdl\drivers\peripheral\i2s/cy_i2s.c ****         /* The FIFO setting */
 153:Generated_Source\PSoC6\pdl\drivers\peripheral\i2s/cy_i2s.c ****         if (config->txEnabled)
 592              		.loc 1 153 0
 593 02d6 2378     		ldrb	r3, [r4]
 594 02d8 002B     		cmp	r3, #0
 595 02da 0CD0     		beq	.L35
 154:Generated_Source\PSoC6\pdl\drivers\peripheral\i2s/cy_i2s.c ****         {
 155:Generated_Source\PSoC6\pdl\drivers\peripheral\i2s/cy_i2s.c ****             base->TX_FIFO_CTL = _VAL2FLD(I2S_TX_FIFO_CTL_TRIGGER_LEVEL, config->txFifoTriggerLevel)
 596              		.loc 1 155 0
 597 02dc E27D     		ldrb	r2, [r4, #23]
 598 02de 8023     		movs	r3, #128
 599 02e0 9B00     		lsls	r3, r3, #2
 600 02e2 EA50     		str	r2, [r5, r3]
 156:Generated_Source\PSoC6\pdl\drivers\peripheral\i2s/cy_i2s.c **** 
 157:Generated_Source\PSoC6\pdl\drivers\peripheral\i2s/cy_i2s.c ****             base->TR_CTL |= _BOOL2FLD(I2S_TR_CTL_TX_REQ_EN, config->txDmaTrigger);
 601              		.loc 1 157 0
 602 02e4 2B6C     		ldr	r3, [r5, #64]
 603 02e6 A278     		ldrb	r2, [r4, #2]
 604 02e8 002A     		cmp	r2, #0
 605 02ea 01D0     		beq	.L56
 606 02ec 0122     		movs	r2, #1
ARM GAS  C:\Users\ikomb\AppData\Local\Temp\cchczmzd.s 			page 15


 607 02ee 00E0     		b	.L36
 608              	.L56:
 609 02f0 0022     		movs	r2, #0
 610              	.L36:
 611              		.loc 1 157 0 is_stmt 0 discriminator 4
 612 02f2 1343     		orrs	r3, r2
 613 02f4 2B64     		str	r3, [r5, #64]
 614              	.L35:
 158:Generated_Source\PSoC6\pdl\drivers\peripheral\i2s/cy_i2s.c ****         }
 159:Generated_Source\PSoC6\pdl\drivers\peripheral\i2s/cy_i2s.c **** 
 160:Generated_Source\PSoC6\pdl\drivers\peripheral\i2s/cy_i2s.c ****         if (config->rxEnabled)
 615              		.loc 1 160 0 is_stmt 1
 616 02f6 6378     		ldrb	r3, [r4, #1]
 617 02f8 002B     		cmp	r3, #0
 618 02fa 19D0     		beq	.L57
 161:Generated_Source\PSoC6\pdl\drivers\peripheral\i2s/cy_i2s.c ****         {
 162:Generated_Source\PSoC6\pdl\drivers\peripheral\i2s/cy_i2s.c ****             base->RX_FIFO_CTL = _VAL2FLD(I2S_RX_FIFO_CTL_TRIGGER_LEVEL, config->rxFifoTriggerLevel)
 619              		.loc 1 162 0
 620 02fc 2723     		movs	r3, #39
 621 02fe E25C     		ldrb	r2, [r4, r3]
 622 0300 C023     		movs	r3, #192
 623 0302 9B00     		lsls	r3, r3, #2
 624 0304 EA50     		str	r2, [r5, r3]
 163:Generated_Source\PSoC6\pdl\drivers\peripheral\i2s/cy_i2s.c **** 
 164:Generated_Source\PSoC6\pdl\drivers\peripheral\i2s/cy_i2s.c ****             base->TR_CTL |= _BOOL2FLD(I2S_TR_CTL_RX_REQ_EN, config->rxDmaTrigger);
 625              		.loc 1 164 0
 626 0306 2B6C     		ldr	r3, [r5, #64]
 627 0308 E278     		ldrb	r2, [r4, #3]
 628 030a 002A     		cmp	r2, #0
 629 030c 02D0     		beq	.L58
 630 030e 8022     		movs	r2, #128
 631 0310 5202     		lsls	r2, r2, #9
 632 0312 00E0     		b	.L37
 633              	.L58:
 634 0314 0022     		movs	r2, #0
 635              	.L37:
 636              		.loc 1 164 0 is_stmt 0 discriminator 4
 637 0316 1343     		orrs	r3, r2
 638 0318 2B64     		str	r3, [r5, #64]
 165:Generated_Source\PSoC6\pdl\drivers\peripheral\i2s/cy_i2s.c ****         }
 166:Generated_Source\PSoC6\pdl\drivers\peripheral\i2s/cy_i2s.c ****         
 167:Generated_Source\PSoC6\pdl\drivers\peripheral\i2s/cy_i2s.c ****         ret = CY_I2S_SUCCESS;
 639              		.loc 1 167 0 is_stmt 1 discriminator 4
 640 031a 0020     		movs	r0, #0
 641 031c 09E0     		b	.L2
 642              	.LVL40:
 643              	.L38:
 644              	.LBE30:
  43:Generated_Source\PSoC6\pdl\drivers\peripheral\i2s/cy_i2s.c ****     
 645              		.loc 1 43 0
 646 031e 0348     		ldr	r0, .L59+4
 647              	.LVL41:
 648 0320 07E0     		b	.L2
 649              	.LVL42:
 650              	.L39:
 651 0322 0248     		ldr	r0, .L59+4
 652              	.LVL43:
ARM GAS  C:\Users\ikomb\AppData\Local\Temp\cchczmzd.s 			page 16


 653 0324 05E0     		b	.L2
 654              	.L60:
 655 0326 C046     		.align	2
 656              	.L59:
 657 0328 00000000 		.word	.LC0
 658 032c 01008200 		.word	8519681
 659              	.LVL44:
 660              	.L57:
 661              	.LBB31:
 662              		.loc 1 167 0
 663 0330 0020     		movs	r0, #0
 664              	.L2:
 665              	.LVL45:
 666              	.LBE31:
 168:Generated_Source\PSoC6\pdl\drivers\peripheral\i2s/cy_i2s.c ****     }
 169:Generated_Source\PSoC6\pdl\drivers\peripheral\i2s/cy_i2s.c **** 
 170:Generated_Source\PSoC6\pdl\drivers\peripheral\i2s/cy_i2s.c ****     return (ret);
 171:Generated_Source\PSoC6\pdl\drivers\peripheral\i2s/cy_i2s.c **** }
 667              		.loc 1 171 0
 668              		@ sp needed
 669              	.LVL46:
 670              	.LVL47:
 671 0332 04BC     		pop	{r2}
 672 0334 9046     		mov	r8, r2
 673 0336 F0BD     		pop	{r4, r5, r6, r7, pc}
 674              		.cfi_endproc
 675              	.LFE97:
 676              		.size	Cy_I2S_Init, .-Cy_I2S_Init
 677              		.section	.text.Cy_I2S_DeInit,"ax",%progbits
 678              		.align	2
 679              		.global	Cy_I2S_DeInit
 680              		.code	16
 681              		.thumb_func
 682              		.type	Cy_I2S_DeInit, %function
 683              	Cy_I2S_DeInit:
 684              	.LFB98:
 172:Generated_Source\PSoC6\pdl\drivers\peripheral\i2s/cy_i2s.c **** 
 173:Generated_Source\PSoC6\pdl\drivers\peripheral\i2s/cy_i2s.c **** 
 174:Generated_Source\PSoC6\pdl\drivers\peripheral\i2s/cy_i2s.c **** /*******************************************************************************
 175:Generated_Source\PSoC6\pdl\drivers\peripheral\i2s/cy_i2s.c **** * Function Name: Cy_I2S_DeInit
 176:Generated_Source\PSoC6\pdl\drivers\peripheral\i2s/cy_i2s.c **** ****************************************************************************//**
 177:Generated_Source\PSoC6\pdl\drivers\peripheral\i2s/cy_i2s.c **** *
 178:Generated_Source\PSoC6\pdl\drivers\peripheral\i2s/cy_i2s.c **** * Uninitializes the I2S module (reverts default register values).
 179:Generated_Source\PSoC6\pdl\drivers\peripheral\i2s/cy_i2s.c **** *
 180:Generated_Source\PSoC6\pdl\drivers\peripheral\i2s/cy_i2s.c **** * \param base The pointer to the I2S instance address.
 181:Generated_Source\PSoC6\pdl\drivers\peripheral\i2s/cy_i2s.c **** *
 182:Generated_Source\PSoC6\pdl\drivers\peripheral\i2s/cy_i2s.c **** * \funcusage
 183:Generated_Source\PSoC6\pdl\drivers\peripheral\i2s/cy_i2s.c **** * \snippet i2s/i2s_v2_0_sut_00.cydsn/main_cm4.c snippet_Cy_I2S_DeInit
 184:Generated_Source\PSoC6\pdl\drivers\peripheral\i2s/cy_i2s.c **** *
 185:Generated_Source\PSoC6\pdl\drivers\peripheral\i2s/cy_i2s.c **** *******************************************************************************/
 186:Generated_Source\PSoC6\pdl\drivers\peripheral\i2s/cy_i2s.c **** void Cy_I2S_DeInit(I2S_Type * base)
 187:Generated_Source\PSoC6\pdl\drivers\peripheral\i2s/cy_i2s.c **** {
 685              		.loc 1 187 0
 686              		.cfi_startproc
 687              		@ args = 0, pretend = 0, frame = 0
 688              		@ frame_needed = 0, uses_anonymous_args = 0
 689              		@ link register save eliminated.
ARM GAS  C:\Users\ikomb\AppData\Local\Temp\cchczmzd.s 			page 17


 690              	.LVL48:
 188:Generated_Source\PSoC6\pdl\drivers\peripheral\i2s/cy_i2s.c ****     base->INTR_MASK = 0UL; /* Disable interrupts prior to stopping the operation */
 691              		.loc 1 188 0
 692 0000 0023     		movs	r3, #0
 693 0002 0B4A     		ldr	r2, .L62
 694 0004 8350     		str	r3, [r0, r2]
 189:Generated_Source\PSoC6\pdl\drivers\peripheral\i2s/cy_i2s.c ****     base->CMD = 0UL;
 695              		.loc 1 189 0
 696 0006 0362     		str	r3, [r0, #32]
 190:Generated_Source\PSoC6\pdl\drivers\peripheral\i2s/cy_i2s.c ****     base->TR_CTL = 0UL;
 697              		.loc 1 190 0
 698 0008 0364     		str	r3, [r0, #64]
 191:Generated_Source\PSoC6\pdl\drivers\peripheral\i2s/cy_i2s.c ****     base->TX_FIFO_CTL = 0UL;
 699              		.loc 1 191 0
 700 000a 8022     		movs	r2, #128
 701 000c 9200     		lsls	r2, r2, #2
 702 000e 8350     		str	r3, [r0, r2]
 192:Generated_Source\PSoC6\pdl\drivers\peripheral\i2s/cy_i2s.c ****     base->RX_FIFO_CTL = 0UL;
 703              		.loc 1 192 0
 704 0010 0132     		adds	r2, r2, #1
 705 0012 FF32     		adds	r2, r2, #255
 706 0014 8350     		str	r3, [r0, r2]
 193:Generated_Source\PSoC6\pdl\drivers\peripheral\i2s/cy_i2s.c ****     base->CTL = 0UL;
 707              		.loc 1 193 0
 708 0016 0360     		str	r3, [r0]
 194:Generated_Source\PSoC6\pdl\drivers\peripheral\i2s/cy_i2s.c ****     base->TX_CTL = CY_I2S_TX_CTL_DEFAULT;
 709              		.loc 1 194 0
 710 0018 064A     		ldr	r2, .L62+4
 711 001a 8021     		movs	r1, #128
 712 001c 4250     		str	r2, [r0, r1]
 195:Generated_Source\PSoC6\pdl\drivers\peripheral\i2s/cy_i2s.c ****     base->RX_CTL = CY_I2S_RX_CTL_DEFAULT;
 713              		.loc 1 195 0
 714 001e 2031     		adds	r1, r1, #32
 715 0020 4250     		str	r2, [r0, r1]
 196:Generated_Source\PSoC6\pdl\drivers\peripheral\i2s/cy_i2s.c ****     base->TX_WATCHDOG = 0UL;
 716              		.loc 1 196 0
 717 0022 8422     		movs	r2, #132
 718 0024 8350     		str	r3, [r0, r2]
 197:Generated_Source\PSoC6\pdl\drivers\peripheral\i2s/cy_i2s.c ****     base->RX_WATCHDOG = 0UL;
 719              		.loc 1 197 0
 720 0026 2032     		adds	r2, r2, #32
 721 0028 8350     		str	r3, [r0, r2]
 198:Generated_Source\PSoC6\pdl\drivers\peripheral\i2s/cy_i2s.c ****     base->CLOCK_CTL = 0UL;
 722              		.loc 1 198 0
 723 002a 0361     		str	r3, [r0, #16]
 199:Generated_Source\PSoC6\pdl\drivers\peripheral\i2s/cy_i2s.c **** }
 724              		.loc 1 199 0
 725              		@ sp needed
 726 002c 7047     		bx	lr
 727              	.L63:
 728 002e C046     		.align	2
 729              	.L62:
 730 0030 080F0000 		.word	3848
 731 0034 10064400 		.word	4458000
 732              		.cfi_endproc
 733              	.LFE98:
 734              		.size	Cy_I2S_DeInit, .-Cy_I2S_DeInit
ARM GAS  C:\Users\ikomb\AppData\Local\Temp\cchczmzd.s 			page 18


 735              		.section	.text.Cy_I2S_DeepSleepCallback,"ax",%progbits
 736              		.align	2
 737              		.global	Cy_I2S_DeepSleepCallback
 738              		.code	16
 739              		.thumb_func
 740              		.type	Cy_I2S_DeepSleepCallback, %function
 741              	Cy_I2S_DeepSleepCallback:
 742              	.LFB99:
 200:Generated_Source\PSoC6\pdl\drivers\peripheral\i2s/cy_i2s.c **** 
 201:Generated_Source\PSoC6\pdl\drivers\peripheral\i2s/cy_i2s.c **** 
 202:Generated_Source\PSoC6\pdl\drivers\peripheral\i2s/cy_i2s.c **** /*******************************************************************************
 203:Generated_Source\PSoC6\pdl\drivers\peripheral\i2s/cy_i2s.c **** * Function Name: Cy_I2S_DeepSleepCallback
 204:Generated_Source\PSoC6\pdl\drivers\peripheral\i2s/cy_i2s.c **** ****************************************************************************//**
 205:Generated_Source\PSoC6\pdl\drivers\peripheral\i2s/cy_i2s.c **** *
 206:Generated_Source\PSoC6\pdl\drivers\peripheral\i2s/cy_i2s.c **** * This is a callback function to be used at the application layer to
 207:Generated_Source\PSoC6\pdl\drivers\peripheral\i2s/cy_i2s.c **** * manage an I2S operation during the Deep-Sleep cycle. It stores the I2S state 
 208:Generated_Source\PSoC6\pdl\drivers\peripheral\i2s/cy_i2s.c **** * (Tx/Rx enabled/disabled/paused) into the context structure and stops the 
 209:Generated_Source\PSoC6\pdl\drivers\peripheral\i2s/cy_i2s.c **** * communication before entering into Deep-Sleep power mode and restores the I2S
 210:Generated_Source\PSoC6\pdl\drivers\peripheral\i2s/cy_i2s.c **** * state after waking up.
 211:Generated_Source\PSoC6\pdl\drivers\peripheral\i2s/cy_i2s.c **** *
 212:Generated_Source\PSoC6\pdl\drivers\peripheral\i2s/cy_i2s.c **** * \param 
 213:Generated_Source\PSoC6\pdl\drivers\peripheral\i2s/cy_i2s.c **** * callbackParams - The pointer to the callback parameters structure, 
 214:Generated_Source\PSoC6\pdl\drivers\peripheral\i2s/cy_i2s.c **** * see \ref cy_stc_syspm_callback_params_t.
 215:Generated_Source\PSoC6\pdl\drivers\peripheral\i2s/cy_i2s.c **** *
 216:Generated_Source\PSoC6\pdl\drivers\peripheral\i2s/cy_i2s.c **** * \return the SysPm callback status \ref cy_en_syspm_status_t.
 217:Generated_Source\PSoC6\pdl\drivers\peripheral\i2s/cy_i2s.c **** *
 218:Generated_Source\PSoC6\pdl\drivers\peripheral\i2s/cy_i2s.c **** * \note Use the \ref cy_stc_i2s_context_t data type for definition of the 
 219:Generated_Source\PSoC6\pdl\drivers\peripheral\i2s/cy_i2s.c **** * *context element of the \ref cy_stc_syspm_callback_params_t strusture.
 220:Generated_Source\PSoC6\pdl\drivers\peripheral\i2s/cy_i2s.c **** *
 221:Generated_Source\PSoC6\pdl\drivers\peripheral\i2s/cy_i2s.c **** * \funcusage
 222:Generated_Source\PSoC6\pdl\drivers\peripheral\i2s/cy_i2s.c **** * \snippet i2s/i2s_v2_0_sut_00.cydsn/main_cm4.c snippet_Cy_I2S_DeepSleepCallback
 223:Generated_Source\PSoC6\pdl\drivers\peripheral\i2s/cy_i2s.c **** *
 224:Generated_Source\PSoC6\pdl\drivers\peripheral\i2s/cy_i2s.c **** *******************************************************************************/
 225:Generated_Source\PSoC6\pdl\drivers\peripheral\i2s/cy_i2s.c **** cy_en_syspm_status_t Cy_I2S_DeepSleepCallback(cy_stc_syspm_callback_params_t * callbackParams)
 226:Generated_Source\PSoC6\pdl\drivers\peripheral\i2s/cy_i2s.c **** {
 743              		.loc 1 226 0
 744              		.cfi_startproc
 745              		@ args = 0, pretend = 0, frame = 0
 746              		@ frame_needed = 0, uses_anonymous_args = 0
 747              	.LVL49:
 748 0000 70B5     		push	{r4, r5, r6, lr}
 749              		.cfi_def_cfa_offset 16
 750              		.cfi_offset 4, -16
 751              		.cfi_offset 5, -12
 752              		.cfi_offset 6, -8
 753              		.cfi_offset 14, -4
 754 0002 0500     		movs	r5, r0
 755              	.LVL50:
 227:Generated_Source\PSoC6\pdl\drivers\peripheral\i2s/cy_i2s.c ****     cy_en_syspm_status_t ret = CY_SYSPM_SUCCESS;
 228:Generated_Source\PSoC6\pdl\drivers\peripheral\i2s/cy_i2s.c ****     CY_ASSERT_L1(NULL != callbackParams->context);
 756              		.loc 1 228 0
 757 0004 8368     		ldr	r3, [r0, #8]
 758 0006 002B     		cmp	r3, #0
 759 0008 03D1     		bne	.L65
 760              		.loc 1 228 0 is_stmt 0 discriminator 1
 761 000a E421     		movs	r1, #228
 762 000c 3B48     		ldr	r0, .L80
ARM GAS  C:\Users\ikomb\AppData\Local\Temp\cchczmzd.s 			page 19


 763              	.LVL51:
 764 000e FFF7FEFF 		bl	Cy_SysLib_AssertFailed
 765              	.LVL52:
 766              	.L65:
 229:Generated_Source\PSoC6\pdl\drivers\peripheral\i2s/cy_i2s.c ****     I2S_Type * locBase = (I2S_Type*) callbackParams->base;
 767              		.loc 1 229 0 is_stmt 1
 768 0012 6C68     		ldr	r4, [r5, #4]
 769              	.LVL53:
 230:Generated_Source\PSoC6\pdl\drivers\peripheral\i2s/cy_i2s.c ****     uint32_t * locInterruptMask = (uint32_t*) &(((cy_stc_i2s_context_t*)(callbackParams->context))-
 770              		.loc 1 230 0
 771 0014 AE68     		ldr	r6, [r5, #8]
 772              	.LVL54:
 231:Generated_Source\PSoC6\pdl\drivers\peripheral\i2s/cy_i2s.c ****     uint32_t * locState = (uint32_t*) &(((cy_stc_i2s_context_t*)(callbackParams->context))->enableS
 232:Generated_Source\PSoC6\pdl\drivers\peripheral\i2s/cy_i2s.c ****     
 233:Generated_Source\PSoC6\pdl\drivers\peripheral\i2s/cy_i2s.c ****     switch(callbackParams->mode)
 773              		.loc 1 233 0
 774 0016 2B78     		ldrb	r3, [r5]
 775 0018 042B     		cmp	r3, #4
 776 001a 0AD0     		beq	.L67
 777 001c 04D8     		bhi	.L68
 778 001e 013B     		subs	r3, r3, #1
 779 0020 DBB2     		uxtb	r3, r3
 780 0022 012B     		cmp	r3, #1
 781 0024 03D9     		bls	.L79
 782 0026 67E0     		b	.L78
 783              	.L68:
 784 0028 082B     		cmp	r3, #8
 785 002a 1BD0     		beq	.L70
 786 002c 64E0     		b	.L78
 787              	.L79:
 227:Generated_Source\PSoC6\pdl\drivers\peripheral\i2s/cy_i2s.c ****     CY_ASSERT_L1(NULL != callbackParams->context);
 788              		.loc 1 227 0
 789 002e 0020     		movs	r0, #0
 790 0030 63E0     		b	.L66
 791              	.L67:
 792              	.LVL55:
 793              	.LBB32:
 794              	.LBB33:
 795              		.file 2 "Generated_Source\\PSoC6\\pdl\\drivers\\peripheral\\i2s\\cy_i2s.h"
   1:Generated_Source\PSoC6\pdl\drivers\peripheral\i2s/cy_i2s.h **** /***************************************************************************//**
   2:Generated_Source\PSoC6\pdl\drivers\peripheral\i2s/cy_i2s.h **** * \file cy_i2s.h
   3:Generated_Source\PSoC6\pdl\drivers\peripheral\i2s/cy_i2s.h **** * \version 2.0.1
   4:Generated_Source\PSoC6\pdl\drivers\peripheral\i2s/cy_i2s.h **** * 
   5:Generated_Source\PSoC6\pdl\drivers\peripheral\i2s/cy_i2s.h **** * The header file of the I2S driver.
   6:Generated_Source\PSoC6\pdl\drivers\peripheral\i2s/cy_i2s.h **** *
   7:Generated_Source\PSoC6\pdl\drivers\peripheral\i2s/cy_i2s.h **** ********************************************************************************
   8:Generated_Source\PSoC6\pdl\drivers\peripheral\i2s/cy_i2s.h **** * \copyright
   9:Generated_Source\PSoC6\pdl\drivers\peripheral\i2s/cy_i2s.h **** * Copyright 2016-2018, Cypress Semiconductor Corporation. All rights reserved.
  10:Generated_Source\PSoC6\pdl\drivers\peripheral\i2s/cy_i2s.h **** * You may use this file only in accordance with the license, terms, conditions,
  11:Generated_Source\PSoC6\pdl\drivers\peripheral\i2s/cy_i2s.h **** * disclaimers, and limitations in the end user license agreement accompanying
  12:Generated_Source\PSoC6\pdl\drivers\peripheral\i2s/cy_i2s.h **** * the software package with which this file was provided.
  13:Generated_Source\PSoC6\pdl\drivers\peripheral\i2s/cy_i2s.h **** *******************************************************************************/
  14:Generated_Source\PSoC6\pdl\drivers\peripheral\i2s/cy_i2s.h **** 
  15:Generated_Source\PSoC6\pdl\drivers\peripheral\i2s/cy_i2s.h **** /**
  16:Generated_Source\PSoC6\pdl\drivers\peripheral\i2s/cy_i2s.h **** * \defgroup group_i2s Inter-IC Sound (I2S)
  17:Generated_Source\PSoC6\pdl\drivers\peripheral\i2s/cy_i2s.h **** * \{
  18:Generated_Source\PSoC6\pdl\drivers\peripheral\i2s/cy_i2s.h **** * The I2S driver provides a function API to manage Inter-IC Sound. I2S is used 
ARM GAS  C:\Users\ikomb\AppData\Local\Temp\cchczmzd.s 			page 20


  19:Generated_Source\PSoC6\pdl\drivers\peripheral\i2s/cy_i2s.h **** * to send digital audio streaming data to external I2S devices, such as audio 
  20:Generated_Source\PSoC6\pdl\drivers\peripheral\i2s/cy_i2s.h **** * codecs or simple DACs. It can also receive digital audio streaming data.
  21:Generated_Source\PSoC6\pdl\drivers\peripheral\i2s/cy_i2s.h **** *
  22:Generated_Source\PSoC6\pdl\drivers\peripheral\i2s/cy_i2s.h **** * Features:
  23:Generated_Source\PSoC6\pdl\drivers\peripheral\i2s/cy_i2s.h **** * * An industry standard NXP I2S interface.
  24:Generated_Source\PSoC6\pdl\drivers\peripheral\i2s/cy_i2s.h **** * * Supports master/slave TX/RX operation.
  25:Generated_Source\PSoC6\pdl\drivers\peripheral\i2s/cy_i2s.h **** * * Programmable Channel/Word Lengths.
  26:Generated_Source\PSoC6\pdl\drivers\peripheral\i2s/cy_i2s.h **** * * Supports External Clock operation.
  27:Generated_Source\PSoC6\pdl\drivers\peripheral\i2s/cy_i2s.h **** *
  28:Generated_Source\PSoC6\pdl\drivers\peripheral\i2s/cy_i2s.h **** * The I2S bus is an industry standard. The hardware interface was 
  29:Generated_Source\PSoC6\pdl\drivers\peripheral\i2s/cy_i2s.h **** * developed by Philips Semiconductors (now NXP Semiconductors). 
  30:Generated_Source\PSoC6\pdl\drivers\peripheral\i2s/cy_i2s.h **** *
  31:Generated_Source\PSoC6\pdl\drivers\peripheral\i2s/cy_i2s.h **** * \section group_i2s_configuration_considerations Configuration Considerations
  32:Generated_Source\PSoC6\pdl\drivers\peripheral\i2s/cy_i2s.h **** *
  33:Generated_Source\PSoC6\pdl\drivers\peripheral\i2s/cy_i2s.h **** * To set up an I2S, provide the configuration parameters in the
  34:Generated_Source\PSoC6\pdl\drivers\peripheral\i2s/cy_i2s.h **** * \ref cy_stc_i2s_config_t structure. 
  35:Generated_Source\PSoC6\pdl\drivers\peripheral\i2s/cy_i2s.h **** * 
  36:Generated_Source\PSoC6\pdl\drivers\peripheral\i2s/cy_i2s.h **** * For example, for Tx configuration, set txEnabled to true, configure
  37:Generated_Source\PSoC6\pdl\drivers\peripheral\i2s/cy_i2s.h **** * txDmaTrigger (depending on whether DMA is going to be used or not), set
  38:Generated_Source\PSoC6\pdl\drivers\peripheral\i2s/cy_i2s.h **** * extClk (if an external clock is used), provide clkDiv, txMasterMode,
  39:Generated_Source\PSoC6\pdl\drivers\peripheral\i2s/cy_i2s.h **** * txAlignment, txChannels (only 2 is supported in I2S and Left Justified modes)
  40:Generated_Source\PSoC6\pdl\drivers\peripheral\i2s/cy_i2s.h **** * txSdoLatchingTime (for slave mode only), txChannelLength, txWordLength,
  41:Generated_Source\PSoC6\pdl\drivers\peripheral\i2s/cy_i2s.h **** * txWsPulseWidth (for TMD modes only), txWatchdogEnable and txWatchdogValue
  42:Generated_Source\PSoC6\pdl\drivers\peripheral\i2s/cy_i2s.h **** * (both for Slave mode only, and when the watchdog interrupt will be used),
  43:Generated_Source\PSoC6\pdl\drivers\peripheral\i2s/cy_i2s.h **** * either txSckoInversion or txSckiInversion (based on txMasterMode setting),
  44:Generated_Source\PSoC6\pdl\drivers\peripheral\i2s/cy_i2s.h **** * txFifoTriggerLevel (when the Trig interrupt will be used) and txOverheadValue
  45:Generated_Source\PSoC6\pdl\drivers\peripheral\i2s/cy_i2s.h **** * (only when the word length is less than channel length).
  46:Generated_Source\PSoC6\pdl\drivers\peripheral\i2s/cy_i2s.h **** * A similar setup is for the Rx configuration.
  47:Generated_Source\PSoC6\pdl\drivers\peripheral\i2s/cy_i2s.h **** *
  48:Generated_Source\PSoC6\pdl\drivers\peripheral\i2s/cy_i2s.h **** * To initialize the I2S block, call the \ref Cy_I2S_Init function, providing the
  49:Generated_Source\PSoC6\pdl\drivers\peripheral\i2s/cy_i2s.h **** * filled \ref cy_stc_i2s_config_t structure.
  50:Generated_Source\PSoC6\pdl\drivers\peripheral\i2s/cy_i2s.h **** * Before starting the transmission, clear the FIFO \ref Cy_I2S_ClearTxFifo, then
  51:Generated_Source\PSoC6\pdl\drivers\peripheral\i2s/cy_i2s.h **** * fill the first Tx data frame by calling \ref Cy_I2S_WriteTxData once for each
  52:Generated_Source\PSoC6\pdl\drivers\peripheral\i2s/cy_i2s.h **** * channel (e.g. twice for I2S mode with only two channels) with zero data. Then
  53:Generated_Source\PSoC6\pdl\drivers\peripheral\i2s/cy_i2s.h **** * call the \ref Cy_I2S_EnableTx itself.
  54:Generated_Source\PSoC6\pdl\drivers\peripheral\i2s/cy_i2s.h **** * For the reception the sequence is the same except for filling the first data
  55:Generated_Source\PSoC6\pdl\drivers\peripheral\i2s/cy_i2s.h **** * frame, just RX FIFO clearing is enough.
  56:Generated_Source\PSoC6\pdl\drivers\peripheral\i2s/cy_i2s.h **** *
  57:Generated_Source\PSoC6\pdl\drivers\peripheral\i2s/cy_i2s.h **** * For example:
  58:Generated_Source\PSoC6\pdl\drivers\peripheral\i2s/cy_i2s.h **** * \snippet i2s/i2s_v2_0_sut_00.cydsn/main_cm4.c snippet_Cy_I2S_Init
  59:Generated_Source\PSoC6\pdl\drivers\peripheral\i2s/cy_i2s.h **** * 
  60:Generated_Source\PSoC6\pdl\drivers\peripheral\i2s/cy_i2s.h **** * If you use a DMA, the DMA channel should be previously configured. The I2S interrupts 
  61:Generated_Source\PSoC6\pdl\drivers\peripheral\i2s/cy_i2s.h **** * (if applicable) can be enabled by calling \ref Cy_I2S_SetInterruptMask.
  62:Generated_Source\PSoC6\pdl\drivers\peripheral\i2s/cy_i2s.h **** *
  63:Generated_Source\PSoC6\pdl\drivers\peripheral\i2s/cy_i2s.h **** * For example, if the trigger interrupt is used, during operation the ISR
  64:Generated_Source\PSoC6\pdl\drivers\peripheral\i2s/cy_i2s.h **** * should call the \ref Cy_I2S_WriteTxData as many times as required for your 
  65:Generated_Source\PSoC6\pdl\drivers\peripheral\i2s/cy_i2s.h **** * FIFO payload, but not more than the FIFO size. Then call \ref Cy_I2S_ClearInterrupt 
  66:Generated_Source\PSoC6\pdl\drivers\peripheral\i2s/cy_i2s.h **** * with appropriate parameters.
  67:Generated_Source\PSoC6\pdl\drivers\peripheral\i2s/cy_i2s.h **** *
  68:Generated_Source\PSoC6\pdl\drivers\peripheral\i2s/cy_i2s.h **** * The I2S/Left Justified data formats always contains two data channels.
  69:Generated_Source\PSoC6\pdl\drivers\peripheral\i2s/cy_i2s.h **** * They are ordered one-by-one in the FIFOs, left always goes first.
  70:Generated_Source\PSoC6\pdl\drivers\peripheral\i2s/cy_i2s.h **** * So in case of mono audio stream transmission, each sample can be put twice
  71:Generated_Source\PSoC6\pdl\drivers\peripheral\i2s/cy_i2s.h **** * into the TX FIFO (in this case both channels will sound the same),
  72:Generated_Source\PSoC6\pdl\drivers\peripheral\i2s/cy_i2s.h **** * or combined with zeroes: sample1-zero-sample2-zero (in this case only the
  73:Generated_Source\PSoC6\pdl\drivers\peripheral\i2s/cy_i2s.h **** * left channel will finally sound, for right-only case zero should go first).
  74:Generated_Source\PSoC6\pdl\drivers\peripheral\i2s/cy_i2s.h **** * The TDM frame word order in FIFOs is similar, one-by-one.
  75:Generated_Source\PSoC6\pdl\drivers\peripheral\i2s/cy_i2s.h **** * 
ARM GAS  C:\Users\ikomb\AppData\Local\Temp\cchczmzd.s 			page 21


  76:Generated_Source\PSoC6\pdl\drivers\peripheral\i2s/cy_i2s.h **** * If a DMA is used and the DMA channel is properly configured - no CPU activity
  77:Generated_Source\PSoC6\pdl\drivers\peripheral\i2s/cy_i2s.h **** * (or any application code) is needed for I2S operation.
  78:Generated_Source\PSoC6\pdl\drivers\peripheral\i2s/cy_i2s.h **** *
  79:Generated_Source\PSoC6\pdl\drivers\peripheral\i2s/cy_i2s.h **** * The I2S frame appears as:
  80:Generated_Source\PSoC6\pdl\drivers\peripheral\i2s/cy_i2s.h **** * \image html i2s_frame.png
  81:Generated_Source\PSoC6\pdl\drivers\peripheral\i2s/cy_i2s.h **** * This is an example for the channel length = 32. A similar is for all the rest
  82:Generated_Source\PSoC6\pdl\drivers\peripheral\i2s/cy_i2s.h **** * channel lengths, with one limitation: the word length could be less or equal
  83:Generated_Source\PSoC6\pdl\drivers\peripheral\i2s/cy_i2s.h **** * to the channel length. See the device Technical Reference Manual (TRM)
  84:Generated_Source\PSoC6\pdl\drivers\peripheral\i2s/cy_i2s.h **** * for more details.
  85:Generated_Source\PSoC6\pdl\drivers\peripheral\i2s/cy_i2s.h **** *
  86:Generated_Source\PSoC6\pdl\drivers\peripheral\i2s/cy_i2s.h **** * \section group_i2s_more_information More Information
  87:Generated_Source\PSoC6\pdl\drivers\peripheral\i2s/cy_i2s.h **** * See: the the I2S chapter of the device technical reference manual (TRM);
  88:Generated_Source\PSoC6\pdl\drivers\peripheral\i2s/cy_i2s.h **** *      I2S_PDL Component datasheet;
  89:Generated_Source\PSoC6\pdl\drivers\peripheral\i2s/cy_i2s.h **** *      CE218636 - PSOC 6 MCU INTER-IC SOUND (I2S) EXAMPLE.
  90:Generated_Source\PSoC6\pdl\drivers\peripheral\i2s/cy_i2s.h **** *
  91:Generated_Source\PSoC6\pdl\drivers\peripheral\i2s/cy_i2s.h **** * \section group_i2s_MISRA MISRA-C Compliance
  92:Generated_Source\PSoC6\pdl\drivers\peripheral\i2s/cy_i2s.h **** * The I2S driver has the following specific deviations:
  93:Generated_Source\PSoC6\pdl\drivers\peripheral\i2s/cy_i2s.h **** * <table class="doxtable">
  94:Generated_Source\PSoC6\pdl\drivers\peripheral\i2s/cy_i2s.h **** *   <tr>
  95:Generated_Source\PSoC6\pdl\drivers\peripheral\i2s/cy_i2s.h **** *     <th>MISRA Rule</th>
  96:Generated_Source\PSoC6\pdl\drivers\peripheral\i2s/cy_i2s.h **** *     <th>Rule Class (Required/Advisory)</th>
  97:Generated_Source\PSoC6\pdl\drivers\peripheral\i2s/cy_i2s.h **** *     <th>Rule Description</th>
  98:Generated_Source\PSoC6\pdl\drivers\peripheral\i2s/cy_i2s.h **** *     <th>Description of Deviation(s)</th>
  99:Generated_Source\PSoC6\pdl\drivers\peripheral\i2s/cy_i2s.h **** *   </tr>
 100:Generated_Source\PSoC6\pdl\drivers\peripheral\i2s/cy_i2s.h **** *   <tr>
 101:Generated_Source\PSoC6\pdl\drivers\peripheral\i2s/cy_i2s.h **** *     <td>11.4</td>
 102:Generated_Source\PSoC6\pdl\drivers\peripheral\i2s/cy_i2s.h **** *     <td>A</td>
 103:Generated_Source\PSoC6\pdl\drivers\peripheral\i2s/cy_i2s.h **** *     <td>A cast should not be performed between a pointer to the object type and
 104:Generated_Source\PSoC6\pdl\drivers\peripheral\i2s/cy_i2s.h **** *         a different pointer to the object type.</td>
 105:Generated_Source\PSoC6\pdl\drivers\peripheral\i2s/cy_i2s.h **** *     <td>The function \ref Cy_I2S_DeepSleepCallback is a callback of
 106:Generated_Source\PSoC6\pdl\drivers\peripheral\i2s/cy_i2s.h **** *         \ref cy_en_syspm_status_t type. The cast operation safety in this
 107:Generated_Source\PSoC6\pdl\drivers\peripheral\i2s/cy_i2s.h **** *         function becomes the user responsibility because the pointer is
 108:Generated_Source\PSoC6\pdl\drivers\peripheral\i2s/cy_i2s.h **** *         initialized when a callback is registered in the SysPm driver.</td>
 109:Generated_Source\PSoC6\pdl\drivers\peripheral\i2s/cy_i2s.h **** *   </tr>
 110:Generated_Source\PSoC6\pdl\drivers\peripheral\i2s/cy_i2s.h **** * </table>
 111:Generated_Source\PSoC6\pdl\drivers\peripheral\i2s/cy_i2s.h **** *
 112:Generated_Source\PSoC6\pdl\drivers\peripheral\i2s/cy_i2s.h **** * \section group_i2s_changelog Changelog
 113:Generated_Source\PSoC6\pdl\drivers\peripheral\i2s/cy_i2s.h **** * <table class="doxtable">
 114:Generated_Source\PSoC6\pdl\drivers\peripheral\i2s/cy_i2s.h **** *   <tr><th>Version</th><th>Changes</th><th>Reason for Change</th></tr>
 115:Generated_Source\PSoC6\pdl\drivers\peripheral\i2s/cy_i2s.h **** *   <tr>
 116:Generated_Source\PSoC6\pdl\drivers\peripheral\i2s/cy_i2s.h **** *     <td>2.0.1</td>
 117:Generated_Source\PSoC6\pdl\drivers\peripheral\i2s/cy_i2s.h **** *     <td>Added Low Power Callback section</td>
 118:Generated_Source\PSoC6\pdl\drivers\peripheral\i2s/cy_i2s.h **** *     <td>Documentation update and clarification</td>
 119:Generated_Source\PSoC6\pdl\drivers\peripheral\i2s/cy_i2s.h **** *   </tr>
 120:Generated_Source\PSoC6\pdl\drivers\peripheral\i2s/cy_i2s.h **** *   <tr>
 121:Generated_Source\PSoC6\pdl\drivers\peripheral\i2s/cy_i2s.h **** *     <td>2.0</td>
 122:Generated_Source\PSoC6\pdl\drivers\peripheral\i2s/cy_i2s.h **** *     <td>The slave operation is added, Left Justified and TDM modes are added</td>
 123:Generated_Source\PSoC6\pdl\drivers\peripheral\i2s/cy_i2s.h **** *     <td></td>
 124:Generated_Source\PSoC6\pdl\drivers\peripheral\i2s/cy_i2s.h **** *   </tr>
 125:Generated_Source\PSoC6\pdl\drivers\peripheral\i2s/cy_i2s.h **** *   <tr>
 126:Generated_Source\PSoC6\pdl\drivers\peripheral\i2s/cy_i2s.h **** *     <td>1.0</td>
 127:Generated_Source\PSoC6\pdl\drivers\peripheral\i2s/cy_i2s.h **** *     <td>Initial version</td>
 128:Generated_Source\PSoC6\pdl\drivers\peripheral\i2s/cy_i2s.h **** *     <td></td>
 129:Generated_Source\PSoC6\pdl\drivers\peripheral\i2s/cy_i2s.h **** *   </tr>
 130:Generated_Source\PSoC6\pdl\drivers\peripheral\i2s/cy_i2s.h **** * </table>
 131:Generated_Source\PSoC6\pdl\drivers\peripheral\i2s/cy_i2s.h **** *
 132:Generated_Source\PSoC6\pdl\drivers\peripheral\i2s/cy_i2s.h **** * \defgroup group_i2s_macros Macros
ARM GAS  C:\Users\ikomb\AppData\Local\Temp\cchczmzd.s 			page 22


 133:Generated_Source\PSoC6\pdl\drivers\peripheral\i2s/cy_i2s.h **** * \defgroup group_i2s_functions Functions
 134:Generated_Source\PSoC6\pdl\drivers\peripheral\i2s/cy_i2s.h **** *   \{
 135:Generated_Source\PSoC6\pdl\drivers\peripheral\i2s/cy_i2s.h **** *       \defgroup group_i2s_functions_syspm_callback  Low Power Callback
 136:Generated_Source\PSoC6\pdl\drivers\peripheral\i2s/cy_i2s.h **** *   \}
 137:Generated_Source\PSoC6\pdl\drivers\peripheral\i2s/cy_i2s.h **** * \defgroup group_i2s_data_structures Data Structures
 138:Generated_Source\PSoC6\pdl\drivers\peripheral\i2s/cy_i2s.h **** * \defgroup group_i2s_enums Enumerated Types
 139:Generated_Source\PSoC6\pdl\drivers\peripheral\i2s/cy_i2s.h **** */
 140:Generated_Source\PSoC6\pdl\drivers\peripheral\i2s/cy_i2s.h **** 
 141:Generated_Source\PSoC6\pdl\drivers\peripheral\i2s/cy_i2s.h **** 
 142:Generated_Source\PSoC6\pdl\drivers\peripheral\i2s/cy_i2s.h **** #if !defined CY_I2S_H
 143:Generated_Source\PSoC6\pdl\drivers\peripheral\i2s/cy_i2s.h **** #define CY_I2S_H
 144:Generated_Source\PSoC6\pdl\drivers\peripheral\i2s/cy_i2s.h **** 
 145:Generated_Source\PSoC6\pdl\drivers\peripheral\i2s/cy_i2s.h **** #include <stddef.h>
 146:Generated_Source\PSoC6\pdl\drivers\peripheral\i2s/cy_i2s.h **** #include <stdbool.h>
 147:Generated_Source\PSoC6\pdl\drivers\peripheral\i2s/cy_i2s.h **** #include "syslib/cy_syslib.h"
 148:Generated_Source\PSoC6\pdl\drivers\peripheral\i2s/cy_i2s.h **** #include "syspm/cy_syspm.h"
 149:Generated_Source\PSoC6\pdl\drivers\peripheral\i2s/cy_i2s.h **** 
 150:Generated_Source\PSoC6\pdl\drivers\peripheral\i2s/cy_i2s.h **** #ifndef CY_IP_MXAUDIOSS
 151:Generated_Source\PSoC6\pdl\drivers\peripheral\i2s/cy_i2s.h ****     #error "The I2S driver is not supported on this device"
 152:Generated_Source\PSoC6\pdl\drivers\peripheral\i2s/cy_i2s.h **** #endif
 153:Generated_Source\PSoC6\pdl\drivers\peripheral\i2s/cy_i2s.h **** 
 154:Generated_Source\PSoC6\pdl\drivers\peripheral\i2s/cy_i2s.h **** #ifdef __cplusplus
 155:Generated_Source\PSoC6\pdl\drivers\peripheral\i2s/cy_i2s.h **** extern "C" {
 156:Generated_Source\PSoC6\pdl\drivers\peripheral\i2s/cy_i2s.h **** #endif
 157:Generated_Source\PSoC6\pdl\drivers\peripheral\i2s/cy_i2s.h **** 
 158:Generated_Source\PSoC6\pdl\drivers\peripheral\i2s/cy_i2s.h **** /** \addtogroup group_i2s_macros
 159:Generated_Source\PSoC6\pdl\drivers\peripheral\i2s/cy_i2s.h **** * \{
 160:Generated_Source\PSoC6\pdl\drivers\peripheral\i2s/cy_i2s.h **** */
 161:Generated_Source\PSoC6\pdl\drivers\peripheral\i2s/cy_i2s.h **** 
 162:Generated_Source\PSoC6\pdl\drivers\peripheral\i2s/cy_i2s.h **** /** The driver major version */
 163:Generated_Source\PSoC6\pdl\drivers\peripheral\i2s/cy_i2s.h **** #define CY_I2S_DRV_VERSION_MAJOR       2
 164:Generated_Source\PSoC6\pdl\drivers\peripheral\i2s/cy_i2s.h **** 
 165:Generated_Source\PSoC6\pdl\drivers\peripheral\i2s/cy_i2s.h **** /** The driver minor version */
 166:Generated_Source\PSoC6\pdl\drivers\peripheral\i2s/cy_i2s.h **** #define CY_I2S_DRV_VERSION_MINOR       0
 167:Generated_Source\PSoC6\pdl\drivers\peripheral\i2s/cy_i2s.h **** 
 168:Generated_Source\PSoC6\pdl\drivers\peripheral\i2s/cy_i2s.h **** /** The I2S driver identifier */
 169:Generated_Source\PSoC6\pdl\drivers\peripheral\i2s/cy_i2s.h **** #define CY_I2S_ID                      (CY_PDL_DRV_ID(0x20U))
 170:Generated_Source\PSoC6\pdl\drivers\peripheral\i2s/cy_i2s.h **** 
 171:Generated_Source\PSoC6\pdl\drivers\peripheral\i2s/cy_i2s.h **** /**
 172:Generated_Source\PSoC6\pdl\drivers\peripheral\i2s/cy_i2s.h **** * \defgroup group_i2s_macros_intrerrupt_masks Interrupt Masks
 173:Generated_Source\PSoC6\pdl\drivers\peripheral\i2s/cy_i2s.h **** * \{
 174:Generated_Source\PSoC6\pdl\drivers\peripheral\i2s/cy_i2s.h **** */
 175:Generated_Source\PSoC6\pdl\drivers\peripheral\i2s/cy_i2s.h **** 
 176:Generated_Source\PSoC6\pdl\drivers\peripheral\i2s/cy_i2s.h **** /** Bit 0: Less entries in the TX FIFO than specified by Trigger Level. */
 177:Generated_Source\PSoC6\pdl\drivers\peripheral\i2s/cy_i2s.h **** #define CY_I2S_INTR_TX_TRIGGER         (I2S_INTR_TX_TRIGGER_Msk)
 178:Generated_Source\PSoC6\pdl\drivers\peripheral\i2s/cy_i2s.h **** /** Bit 1: TX FIFO is not full. */
 179:Generated_Source\PSoC6\pdl\drivers\peripheral\i2s/cy_i2s.h **** #define CY_I2S_INTR_TX_NOT_FULL        (I2S_INTR_TX_NOT_FULL_Msk)
 180:Generated_Source\PSoC6\pdl\drivers\peripheral\i2s/cy_i2s.h **** /** Bit 4: TX FIFO is empty, i.e. it has 0 entries. */
 181:Generated_Source\PSoC6\pdl\drivers\peripheral\i2s/cy_i2s.h **** #define CY_I2S_INTR_TX_EMPTY           (I2S_INTR_TX_EMPTY_Msk)
 182:Generated_Source\PSoC6\pdl\drivers\peripheral\i2s/cy_i2s.h **** /** Bit 5: Attempt to write to a full TX FIFO. */
 183:Generated_Source\PSoC6\pdl\drivers\peripheral\i2s/cy_i2s.h **** #define CY_I2S_INTR_TX_OVERFLOW        (I2S_INTR_TX_OVERFLOW_Msk)
 184:Generated_Source\PSoC6\pdl\drivers\peripheral\i2s/cy_i2s.h **** /** Bit 6: Attempt to read from an empty TX FIFO.
 185:Generated_Source\PSoC6\pdl\drivers\peripheral\i2s/cy_i2s.h **** * This happens when the IP is ready to transfer data and TX_EMPTY is '1'. */
 186:Generated_Source\PSoC6\pdl\drivers\peripheral\i2s/cy_i2s.h **** #define CY_I2S_INTR_TX_UNDERFLOW       (I2S_INTR_TX_UNDERFLOW_Msk)
 187:Generated_Source\PSoC6\pdl\drivers\peripheral\i2s/cy_i2s.h **** /** Bit 8: Tx watchdog event occurs. */
 188:Generated_Source\PSoC6\pdl\drivers\peripheral\i2s/cy_i2s.h **** #define CY_I2S_INTR_TX_WD              (I2S_INTR_TX_WD_Msk)
 189:Generated_Source\PSoC6\pdl\drivers\peripheral\i2s/cy_i2s.h **** /** Bit 16: More entries in the RX FIFO than specified by Trigger Level. */
ARM GAS  C:\Users\ikomb\AppData\Local\Temp\cchczmzd.s 			page 23


 190:Generated_Source\PSoC6\pdl\drivers\peripheral\i2s/cy_i2s.h **** #define CY_I2S_INTR_RX_TRIGGER         (I2S_INTR_RX_TRIGGER_Msk)
 191:Generated_Source\PSoC6\pdl\drivers\peripheral\i2s/cy_i2s.h **** /** Bit 18: RX FIFO is not empty. */
 192:Generated_Source\PSoC6\pdl\drivers\peripheral\i2s/cy_i2s.h **** #define CY_I2S_INTR_RX_NOT_EMPTY       (I2S_INTR_RX_NOT_EMPTY_Msk)
 193:Generated_Source\PSoC6\pdl\drivers\peripheral\i2s/cy_i2s.h **** /** Bit 19: RX FIFO is full. */
 194:Generated_Source\PSoC6\pdl\drivers\peripheral\i2s/cy_i2s.h **** #define CY_I2S_INTR_RX_FULL            (I2S_INTR_RX_FULL_Msk)
 195:Generated_Source\PSoC6\pdl\drivers\peripheral\i2s/cy_i2s.h **** /** Bit 21: Attempt to write to a full RX FIFO. */
 196:Generated_Source\PSoC6\pdl\drivers\peripheral\i2s/cy_i2s.h **** #define CY_I2S_INTR_RX_OVERFLOW        (I2S_INTR_RX_OVERFLOW_Msk)
 197:Generated_Source\PSoC6\pdl\drivers\peripheral\i2s/cy_i2s.h **** /** Bit 22: Attempt to read from an empty RX FIFO. */
 198:Generated_Source\PSoC6\pdl\drivers\peripheral\i2s/cy_i2s.h **** #define CY_I2S_INTR_RX_UNDERFLOW       (I2S_INTR_RX_UNDERFLOW_Msk)
 199:Generated_Source\PSoC6\pdl\drivers\peripheral\i2s/cy_i2s.h **** /** Bit 24: Rx watchdog event occurs. */
 200:Generated_Source\PSoC6\pdl\drivers\peripheral\i2s/cy_i2s.h **** #define CY_I2S_INTR_RX_WD              (I2S_INTR_RX_WD_Msk)
 201:Generated_Source\PSoC6\pdl\drivers\peripheral\i2s/cy_i2s.h **** 
 202:Generated_Source\PSoC6\pdl\drivers\peripheral\i2s/cy_i2s.h **** /** \} group_i2s_macros_intrerrupt_masks */
 203:Generated_Source\PSoC6\pdl\drivers\peripheral\i2s/cy_i2s.h **** 
 204:Generated_Source\PSoC6\pdl\drivers\peripheral\i2s/cy_i2s.h **** 
 205:Generated_Source\PSoC6\pdl\drivers\peripheral\i2s/cy_i2s.h **** /**
 206:Generated_Source\PSoC6\pdl\drivers\peripheral\i2s/cy_i2s.h **** * \defgroup group_i2s_macros_current_state Current State
 207:Generated_Source\PSoC6\pdl\drivers\peripheral\i2s/cy_i2s.h **** * \{
 208:Generated_Source\PSoC6\pdl\drivers\peripheral\i2s/cy_i2s.h **** */
 209:Generated_Source\PSoC6\pdl\drivers\peripheral\i2s/cy_i2s.h **** 
 210:Generated_Source\PSoC6\pdl\drivers\peripheral\i2s/cy_i2s.h **** /** Transmission is active */ 
 211:Generated_Source\PSoC6\pdl\drivers\peripheral\i2s/cy_i2s.h **** #define CY_I2S_TX_START                (I2S_CMD_TX_START_Msk)
 212:Generated_Source\PSoC6\pdl\drivers\peripheral\i2s/cy_i2s.h **** /** Transmission is paused */
 213:Generated_Source\PSoC6\pdl\drivers\peripheral\i2s/cy_i2s.h **** #define CY_I2S_TX_PAUSE                (I2S_CMD_TX_PAUSE_Msk)
 214:Generated_Source\PSoC6\pdl\drivers\peripheral\i2s/cy_i2s.h **** /** Reception is active */
 215:Generated_Source\PSoC6\pdl\drivers\peripheral\i2s/cy_i2s.h **** #define CY_I2S_RX_START                (I2S_CMD_RX_START_Msk)
 216:Generated_Source\PSoC6\pdl\drivers\peripheral\i2s/cy_i2s.h **** 
 217:Generated_Source\PSoC6\pdl\drivers\peripheral\i2s/cy_i2s.h **** /** \} group_i2s_macros_current_state */
 218:Generated_Source\PSoC6\pdl\drivers\peripheral\i2s/cy_i2s.h **** 
 219:Generated_Source\PSoC6\pdl\drivers\peripheral\i2s/cy_i2s.h **** /** \} group_i2s_macros */
 220:Generated_Source\PSoC6\pdl\drivers\peripheral\i2s/cy_i2s.h **** 
 221:Generated_Source\PSoC6\pdl\drivers\peripheral\i2s/cy_i2s.h **** /**
 222:Generated_Source\PSoC6\pdl\drivers\peripheral\i2s/cy_i2s.h **** * \addtogroup group_i2s_enums
 223:Generated_Source\PSoC6\pdl\drivers\peripheral\i2s/cy_i2s.h **** * \{
 224:Generated_Source\PSoC6\pdl\drivers\peripheral\i2s/cy_i2s.h **** */
 225:Generated_Source\PSoC6\pdl\drivers\peripheral\i2s/cy_i2s.h **** 
 226:Generated_Source\PSoC6\pdl\drivers\peripheral\i2s/cy_i2s.h **** /**
 227:Generated_Source\PSoC6\pdl\drivers\peripheral\i2s/cy_i2s.h **** * I2S status definitions.
 228:Generated_Source\PSoC6\pdl\drivers\peripheral\i2s/cy_i2s.h **** */
 229:Generated_Source\PSoC6\pdl\drivers\peripheral\i2s/cy_i2s.h **** 
 230:Generated_Source\PSoC6\pdl\drivers\peripheral\i2s/cy_i2s.h **** typedef enum 
 231:Generated_Source\PSoC6\pdl\drivers\peripheral\i2s/cy_i2s.h **** {
 232:Generated_Source\PSoC6\pdl\drivers\peripheral\i2s/cy_i2s.h ****     CY_I2S_SUCCESS   = 0x00UL, /**< Successful. */
 233:Generated_Source\PSoC6\pdl\drivers\peripheral\i2s/cy_i2s.h ****     CY_I2S_BAD_PARAM = CY_I2S_ID | CY_PDL_STATUS_ERROR | 0x01UL /**< One or more invalid parameters
 234:Generated_Source\PSoC6\pdl\drivers\peripheral\i2s/cy_i2s.h **** } cy_en_i2s_status_t;
 235:Generated_Source\PSoC6\pdl\drivers\peripheral\i2s/cy_i2s.h **** 
 236:Generated_Source\PSoC6\pdl\drivers\peripheral\i2s/cy_i2s.h **** 
 237:Generated_Source\PSoC6\pdl\drivers\peripheral\i2s/cy_i2s.h **** /**
 238:Generated_Source\PSoC6\pdl\drivers\peripheral\i2s/cy_i2s.h **** * I2S data alignment.
 239:Generated_Source\PSoC6\pdl\drivers\peripheral\i2s/cy_i2s.h **** */
 240:Generated_Source\PSoC6\pdl\drivers\peripheral\i2s/cy_i2s.h **** typedef enum
 241:Generated_Source\PSoC6\pdl\drivers\peripheral\i2s/cy_i2s.h **** {
 242:Generated_Source\PSoC6\pdl\drivers\peripheral\i2s/cy_i2s.h ****     CY_I2S_LEFT_JUSTIFIED = 0U, /**< Left justified. */
 243:Generated_Source\PSoC6\pdl\drivers\peripheral\i2s/cy_i2s.h ****     CY_I2S_I2S_MODE       = 1U, /**< I2S mode. */
 244:Generated_Source\PSoC6\pdl\drivers\peripheral\i2s/cy_i2s.h ****     CY_I2S_TDM_MODE_A     = 2U, /**< TDM mode A. */
 245:Generated_Source\PSoC6\pdl\drivers\peripheral\i2s/cy_i2s.h ****     CY_I2S_TDM_MODE_B     = 3U  /**< TDM mode B. */
 246:Generated_Source\PSoC6\pdl\drivers\peripheral\i2s/cy_i2s.h **** } cy_en_i2s_alignment_t;
ARM GAS  C:\Users\ikomb\AppData\Local\Temp\cchczmzd.s 			page 24


 247:Generated_Source\PSoC6\pdl\drivers\peripheral\i2s/cy_i2s.h **** 
 248:Generated_Source\PSoC6\pdl\drivers\peripheral\i2s/cy_i2s.h **** /**
 249:Generated_Source\PSoC6\pdl\drivers\peripheral\i2s/cy_i2s.h **** * I2S channel/word length.
 250:Generated_Source\PSoC6\pdl\drivers\peripheral\i2s/cy_i2s.h **** */
 251:Generated_Source\PSoC6\pdl\drivers\peripheral\i2s/cy_i2s.h **** typedef enum
 252:Generated_Source\PSoC6\pdl\drivers\peripheral\i2s/cy_i2s.h **** {
 253:Generated_Source\PSoC6\pdl\drivers\peripheral\i2s/cy_i2s.h ****     CY_I2S_LEN8  = 0U, /**< Channel/word length:  8 bit. */
 254:Generated_Source\PSoC6\pdl\drivers\peripheral\i2s/cy_i2s.h ****     CY_I2S_LEN16 = 1U, /**< Channel/Word length: 16 bit. */
 255:Generated_Source\PSoC6\pdl\drivers\peripheral\i2s/cy_i2s.h ****     CY_I2S_LEN18 = 2U, /**< Channel/Word length: 18 bit. */
 256:Generated_Source\PSoC6\pdl\drivers\peripheral\i2s/cy_i2s.h ****     CY_I2S_LEN20 = 3U, /**< Channel/Word length: 20 bit. */
 257:Generated_Source\PSoC6\pdl\drivers\peripheral\i2s/cy_i2s.h ****     CY_I2S_LEN24 = 4U, /**< Channel/Word length: 24 bit. */
 258:Generated_Source\PSoC6\pdl\drivers\peripheral\i2s/cy_i2s.h ****     CY_I2S_LEN32 = 5U  /**< Channel/Word length: 32 bit. */
 259:Generated_Source\PSoC6\pdl\drivers\peripheral\i2s/cy_i2s.h **** } cy_en_i2s_len_t;
 260:Generated_Source\PSoC6\pdl\drivers\peripheral\i2s/cy_i2s.h **** 
 261:Generated_Source\PSoC6\pdl\drivers\peripheral\i2s/cy_i2s.h **** /**
 262:Generated_Source\PSoC6\pdl\drivers\peripheral\i2s/cy_i2s.h **** * I2S TX overhead value.
 263:Generated_Source\PSoC6\pdl\drivers\peripheral\i2s/cy_i2s.h **** */
 264:Generated_Source\PSoC6\pdl\drivers\peripheral\i2s/cy_i2s.h **** typedef enum
 265:Generated_Source\PSoC6\pdl\drivers\peripheral\i2s/cy_i2s.h **** {
 266:Generated_Source\PSoC6\pdl\drivers\peripheral\i2s/cy_i2s.h ****     CY_I2S_OVHDATA_ZERO = 0U, /**< Fill overhead bits by zeroes. */
 267:Generated_Source\PSoC6\pdl\drivers\peripheral\i2s/cy_i2s.h ****     CY_I2S_OVHDATA_ONE  = 1U, /**< Fill overhead bits by ones. */
 268:Generated_Source\PSoC6\pdl\drivers\peripheral\i2s/cy_i2s.h **** } cy_en_i2s_overhead_t;
 269:Generated_Source\PSoC6\pdl\drivers\peripheral\i2s/cy_i2s.h **** 
 270:Generated_Source\PSoC6\pdl\drivers\peripheral\i2s/cy_i2s.h **** /**
 271:Generated_Source\PSoC6\pdl\drivers\peripheral\i2s/cy_i2s.h **** * I2S WS pulse width.
 272:Generated_Source\PSoC6\pdl\drivers\peripheral\i2s/cy_i2s.h **** */
 273:Generated_Source\PSoC6\pdl\drivers\peripheral\i2s/cy_i2s.h **** typedef enum
 274:Generated_Source\PSoC6\pdl\drivers\peripheral\i2s/cy_i2s.h **** {
 275:Generated_Source\PSoC6\pdl\drivers\peripheral\i2s/cy_i2s.h ****     CY_I2S_WS_ONE_SCK_CYCLE      = 0U, /**< WS pulse width is one SCK cycle. */
 276:Generated_Source\PSoC6\pdl\drivers\peripheral\i2s/cy_i2s.h ****     CY_I2S_WS_ONE_CHANNEL_LENGTH = 1U, /**< WS pulse width is one channel length. */
 277:Generated_Source\PSoC6\pdl\drivers\peripheral\i2s/cy_i2s.h **** } cy_en_i2s_ws_pw_t;
 278:Generated_Source\PSoC6\pdl\drivers\peripheral\i2s/cy_i2s.h **** 
 279:Generated_Source\PSoC6\pdl\drivers\peripheral\i2s/cy_i2s.h **** /** \} group_i2s_enums */
 280:Generated_Source\PSoC6\pdl\drivers\peripheral\i2s/cy_i2s.h **** 
 281:Generated_Source\PSoC6\pdl\drivers\peripheral\i2s/cy_i2s.h **** /**
 282:Generated_Source\PSoC6\pdl\drivers\peripheral\i2s/cy_i2s.h **** * \addtogroup group_i2s_data_structures
 283:Generated_Source\PSoC6\pdl\drivers\peripheral\i2s/cy_i2s.h **** * \{
 284:Generated_Source\PSoC6\pdl\drivers\peripheral\i2s/cy_i2s.h **** */
 285:Generated_Source\PSoC6\pdl\drivers\peripheral\i2s/cy_i2s.h **** 
 286:Generated_Source\PSoC6\pdl\drivers\peripheral\i2s/cy_i2s.h **** /**
 287:Generated_Source\PSoC6\pdl\drivers\peripheral\i2s/cy_i2s.h **** * I2S initialization configuration.
 288:Generated_Source\PSoC6\pdl\drivers\peripheral\i2s/cy_i2s.h **** */
 289:Generated_Source\PSoC6\pdl\drivers\peripheral\i2s/cy_i2s.h **** typedef struct
 290:Generated_Source\PSoC6\pdl\drivers\peripheral\i2s/cy_i2s.h **** {
 291:Generated_Source\PSoC6\pdl\drivers\peripheral\i2s/cy_i2s.h ****     bool                  txEnabled;          /**< Enables the I2S TX component: 'false': disabled.
 292:Generated_Source\PSoC6\pdl\drivers\peripheral\i2s/cy_i2s.h ****     bool                  rxEnabled;          /**< Enables the I2S RX component: 'false': disabled.
 293:Generated_Source\PSoC6\pdl\drivers\peripheral\i2s/cy_i2s.h ****     bool                  txDmaTrigger;       /**< 'false': TX DMA trigger disable, 'true': TX DMA 
 294:Generated_Source\PSoC6\pdl\drivers\peripheral\i2s/cy_i2s.h ****     bool                  rxDmaTrigger;       /**< 'false': RX DMA trigger disable, 'true': RX DMA 
 295:Generated_Source\PSoC6\pdl\drivers\peripheral\i2s/cy_i2s.h ****     uint8_t               clkDiv;             /**< CLK_SEL divider: 1: Bypass, 2: 1/2, 3: 1/3, ...,
 296:Generated_Source\PSoC6\pdl\drivers\peripheral\i2s/cy_i2s.h ****     bool                  extClk;             /**< 'false': internal clock, 'true': external clock.
 297:Generated_Source\PSoC6\pdl\drivers\peripheral\i2s/cy_i2s.h ****     bool                  txMasterMode;       /**< 'false': TX in slave mode, 'true': TX in master 
 298:Generated_Source\PSoC6\pdl\drivers\peripheral\i2s/cy_i2s.h ****     cy_en_i2s_alignment_t txAlignment;        /**< TX data alignment, see: #cy_en_i2s_alignment_t. 
 299:Generated_Source\PSoC6\pdl\drivers\peripheral\i2s/cy_i2s.h ****     cy_en_i2s_ws_pw_t     txWsPulseWidth;     /**< TX Word Select pulse width.
 300:Generated_Source\PSoC6\pdl\drivers\peripheral\i2s/cy_i2s.h ****                                                    The value of this parameter is ignored in I2S an
 301:Generated_Source\PSoC6\pdl\drivers\peripheral\i2s/cy_i2s.h ****                                                    the WS pulse width is always "one channel length
 302:Generated_Source\PSoC6\pdl\drivers\peripheral\i2s/cy_i2s.h ****     bool                  txWatchdogEnable;   /**< 'false': TX watchdog disabled, 'true': TX watchd
 303:Generated_Source\PSoC6\pdl\drivers\peripheral\i2s/cy_i2s.h ****     uint32_t              txWatchdogValue;    /**< TX watchdog counter value (32 bit). */
ARM GAS  C:\Users\ikomb\AppData\Local\Temp\cchczmzd.s 			page 25


 304:Generated_Source\PSoC6\pdl\drivers\peripheral\i2s/cy_i2s.h ****     bool                  txSdoLatchingTime;  /**< 'false': SDO bit starts at falling edge (accordi
 305:Generated_Source\PSoC6\pdl\drivers\peripheral\i2s/cy_i2s.h ****                                                    Standard, if txSckoInversion is false),
 306:Generated_Source\PSoC6\pdl\drivers\peripheral\i2s/cy_i2s.h ****                                                    'true': SDO bit starts at rising edge which goes
 307:Generated_Source\PSoC6\pdl\drivers\peripheral\i2s/cy_i2s.h ****                                                    mentioned falling edge, i.e. the SDO signal is a
 308:Generated_Source\PSoC6\pdl\drivers\peripheral\i2s/cy_i2s.h ****                                                    period (if txSckoInversion is false).
 309:Generated_Source\PSoC6\pdl\drivers\peripheral\i2s/cy_i2s.h ****                                                    If txSckoInversion is true - the rising/falling 
 310:Generated_Source\PSoC6\pdl\drivers\peripheral\i2s/cy_i2s.h ****                                                    in above explanations.
 311:Generated_Source\PSoC6\pdl\drivers\peripheral\i2s/cy_i2s.h ****                                                    Effective only in slave mode, must be false in m
 312:Generated_Source\PSoC6\pdl\drivers\peripheral\i2s/cy_i2s.h ****     bool                  txSckoInversion;    /**< TX SCKO polarity:
 313:Generated_Source\PSoC6\pdl\drivers\peripheral\i2s/cy_i2s.h ****                                                    'false': When transmitter is in master mode, ser
 314:Generated_Source\PSoC6\pdl\drivers\peripheral\i2s/cy_i2s.h ****                                                             transmitted off the falling bit clock e
 315:Generated_Source\PSoC6\pdl\drivers\peripheral\i2s/cy_i2s.h ****                                                             the I2S Standard);
 316:Generated_Source\PSoC6\pdl\drivers\peripheral\i2s/cy_i2s.h ****                                                    'true':  When transmitter is in master mode, ser
 317:Generated_Source\PSoC6\pdl\drivers\peripheral\i2s/cy_i2s.h ****                                                             transmitted off the rising bit clock ed
 318:Generated_Source\PSoC6\pdl\drivers\peripheral\i2s/cy_i2s.h ****                                                    Effective only in master mode. */
 319:Generated_Source\PSoC6\pdl\drivers\peripheral\i2s/cy_i2s.h ****     bool                  txSckiInversion;    /**< TX SCKI polarity:
 320:Generated_Source\PSoC6\pdl\drivers\peripheral\i2s/cy_i2s.h ****                                                    'false': When transmitter is in slave mode, seri
 321:Generated_Source\PSoC6\pdl\drivers\peripheral\i2s/cy_i2s.h ****                                                             transmitted off the falling bit clock e
 322:Generated_Source\PSoC6\pdl\drivers\peripheral\i2s/cy_i2s.h ****                                                             the I2S Standard);
 323:Generated_Source\PSoC6\pdl\drivers\peripheral\i2s/cy_i2s.h ****                                                    'true':  When transmitter is in slave mode, seri
 324:Generated_Source\PSoC6\pdl\drivers\peripheral\i2s/cy_i2s.h ****                                                             transmitted off the rising bit clock ed
 325:Generated_Source\PSoC6\pdl\drivers\peripheral\i2s/cy_i2s.h ****                                                    Effective only in slave mode. */
 326:Generated_Source\PSoC6\pdl\drivers\peripheral\i2s/cy_i2s.h ****     uint8_t               txChannels;         /**< Number of TX channels, valid range is 1...8 for 
 327:Generated_Source\PSoC6\pdl\drivers\peripheral\i2s/cy_i2s.h ****                                                    In the I2S and Left Justified modes the value of
 328:Generated_Source\PSoC6\pdl\drivers\peripheral\i2s/cy_i2s.h ****                                                    ignored - the real number of channels is always 
 329:Generated_Source\PSoC6\pdl\drivers\peripheral\i2s/cy_i2s.h ****     cy_en_i2s_len_t       txChannelLength;    /**< TX channel length, see #cy_en_i2s_len_t,
 330:Generated_Source\PSoC6\pdl\drivers\peripheral\i2s/cy_i2s.h ****                                                    the value of this parameter is ignored in TDM mo
 331:Generated_Source\PSoC6\pdl\drivers\peripheral\i2s/cy_i2s.h ****                                                    channel length is 32 bit in these modes. */
 332:Generated_Source\PSoC6\pdl\drivers\peripheral\i2s/cy_i2s.h ****     cy_en_i2s_len_t       txWordLength;       /**< TX word length, see #cy_en_i2s_len_t,
 333:Generated_Source\PSoC6\pdl\drivers\peripheral\i2s/cy_i2s.h ****                                                    must be less or equal to txChannelLength. */
 334:Generated_Source\PSoC6\pdl\drivers\peripheral\i2s/cy_i2s.h ****     cy_en_i2s_overhead_t  txOverheadValue;    /**< TX overhead bits value
 335:Generated_Source\PSoC6\pdl\drivers\peripheral\i2s/cy_i2s.h ****                                                    when the word length is less than the channel le
 336:Generated_Source\PSoC6\pdl\drivers\peripheral\i2s/cy_i2s.h ****     uint8_t               txFifoTriggerLevel; /**< TX FIFO interrupt trigger level (0, 1, ..., 255)
 337:Generated_Source\PSoC6\pdl\drivers\peripheral\i2s/cy_i2s.h ****     bool                  rxMasterMode;       /**< 'false': RX in slave mode, 'true': RX in master 
 338:Generated_Source\PSoC6\pdl\drivers\peripheral\i2s/cy_i2s.h ****     cy_en_i2s_alignment_t rxAlignment;        /**< RX data alignment, see: #cy_en_i2s_alignment_t. 
 339:Generated_Source\PSoC6\pdl\drivers\peripheral\i2s/cy_i2s.h ****     cy_en_i2s_ws_pw_t     rxWsPulseWidth;     /**< RX Word Select pulse width.
 340:Generated_Source\PSoC6\pdl\drivers\peripheral\i2s/cy_i2s.h ****                                                    The value of this parameter is ignored in I2S an
 341:Generated_Source\PSoC6\pdl\drivers\peripheral\i2s/cy_i2s.h ****                                                    the WS pulse width is always "one channel length
 342:Generated_Source\PSoC6\pdl\drivers\peripheral\i2s/cy_i2s.h ****     bool                  rxWatchdogEnable;   /**< 'false': RX watchdog disabled, 'true': RX watchd
 343:Generated_Source\PSoC6\pdl\drivers\peripheral\i2s/cy_i2s.h ****     uint32_t              rxWatchdogValue;    /**< RX watchdog counter value (32 bit). */
 344:Generated_Source\PSoC6\pdl\drivers\peripheral\i2s/cy_i2s.h ****     bool                  rxSdiLatchingTime;  /**< 'false': SDI bit starts at falling edge (accordi
 345:Generated_Source\PSoC6\pdl\drivers\peripheral\i2s/cy_i2s.h ****                                                    Standard if rxSckoInversion is false),
 346:Generated_Source\PSoC6\pdl\drivers\peripheral\i2s/cy_i2s.h ****                                                    'true': SDI bit starts at rising edge which goes
 347:Generated_Source\PSoC6\pdl\drivers\peripheral\i2s/cy_i2s.h ****                                                    mentioned falling edge, i.e. the SDI signal is d
 348:Generated_Source\PSoC6\pdl\drivers\peripheral\i2s/cy_i2s.h ****                                                    period (if rxSckoInversion is false).
 349:Generated_Source\PSoC6\pdl\drivers\peripheral\i2s/cy_i2s.h ****                                                    If rxSckoInversion is true - the rising/falling 
 350:Generated_Source\PSoC6\pdl\drivers\peripheral\i2s/cy_i2s.h ****                                                    in above explanations.
 351:Generated_Source\PSoC6\pdl\drivers\peripheral\i2s/cy_i2s.h ****                                                    Effective only in master mode, must be false in 
 352:Generated_Source\PSoC6\pdl\drivers\peripheral\i2s/cy_i2s.h ****     bool                  rxSckoInversion;    /**< RX SCKO polarity:
 353:Generated_Source\PSoC6\pdl\drivers\peripheral\i2s/cy_i2s.h ****                                                    'false': When receiver is in master mode, serial
 354:Generated_Source\PSoC6\pdl\drivers\peripheral\i2s/cy_i2s.h ****                                                             captured by the rising bit clock edge (
 355:Generated_Source\PSoC6\pdl\drivers\peripheral\i2s/cy_i2s.h ****                                                             I2S Standard);
 356:Generated_Source\PSoC6\pdl\drivers\peripheral\i2s/cy_i2s.h ****                                                    'true':  When receiver is in master mode, serial
 357:Generated_Source\PSoC6\pdl\drivers\peripheral\i2s/cy_i2s.h ****                                                             captured by the falling bit clock edge.
 358:Generated_Source\PSoC6\pdl\drivers\peripheral\i2s/cy_i2s.h ****                                                    Effective only in master mode. */
 359:Generated_Source\PSoC6\pdl\drivers\peripheral\i2s/cy_i2s.h ****     bool                  rxSckiInversion;    /**< RX SCKI polarity:
 360:Generated_Source\PSoC6\pdl\drivers\peripheral\i2s/cy_i2s.h ****                                                    'false': When receiver is in slave mode, serial 
ARM GAS  C:\Users\ikomb\AppData\Local\Temp\cchczmzd.s 			page 26


 361:Generated_Source\PSoC6\pdl\drivers\peripheral\i2s/cy_i2s.h ****                                                             captured by the rising bit clock edge (
 362:Generated_Source\PSoC6\pdl\drivers\peripheral\i2s/cy_i2s.h ****                                                             I2S Standard);
 363:Generated_Source\PSoC6\pdl\drivers\peripheral\i2s/cy_i2s.h ****                                                    'true':  When receiver is in slave mode, serial 
 364:Generated_Source\PSoC6\pdl\drivers\peripheral\i2s/cy_i2s.h ****                                                             captured by the falling bit clock edge.
 365:Generated_Source\PSoC6\pdl\drivers\peripheral\i2s/cy_i2s.h ****                                                    Effective only in slave mode. */
 366:Generated_Source\PSoC6\pdl\drivers\peripheral\i2s/cy_i2s.h ****     uint8_t               rxChannels;         /**< Number of RX channels, valid range is 1...8 for 
 367:Generated_Source\PSoC6\pdl\drivers\peripheral\i2s/cy_i2s.h ****                                                    In the I2S and Left Justified modes the value of
 368:Generated_Source\PSoC6\pdl\drivers\peripheral\i2s/cy_i2s.h ****                                                    ignored - the real number of channels is always 
 369:Generated_Source\PSoC6\pdl\drivers\peripheral\i2s/cy_i2s.h ****     cy_en_i2s_len_t       rxChannelLength;    /**< RX channel length, see #cy_en_i2s_len_t,
 370:Generated_Source\PSoC6\pdl\drivers\peripheral\i2s/cy_i2s.h ****                                                    the value of this parameter is ignored in TDM mo
 371:Generated_Source\PSoC6\pdl\drivers\peripheral\i2s/cy_i2s.h ****                                                    channel length is 32 bit in these modes. */
 372:Generated_Source\PSoC6\pdl\drivers\peripheral\i2s/cy_i2s.h ****     cy_en_i2s_len_t       rxWordLength;       /**< RX word length, see #cy_en_i2s_len_t,
 373:Generated_Source\PSoC6\pdl\drivers\peripheral\i2s/cy_i2s.h ****                                                    must be less or equal to rxChannelLength. */
 374:Generated_Source\PSoC6\pdl\drivers\peripheral\i2s/cy_i2s.h ****     bool                  rxSignExtension;    /**< RX value sign extension (when the word length is
 375:Generated_Source\PSoC6\pdl\drivers\peripheral\i2s/cy_i2s.h ****                                                    'false': all MSB are filled by zeroes, 
 376:Generated_Source\PSoC6\pdl\drivers\peripheral\i2s/cy_i2s.h ****                                                    'true': all MSB are filled by the original sign 
 377:Generated_Source\PSoC6\pdl\drivers\peripheral\i2s/cy_i2s.h ****     uint8_t               rxFifoTriggerLevel; /**< RX FIFO interrupt trigger level
 378:Generated_Source\PSoC6\pdl\drivers\peripheral\i2s/cy_i2s.h ****                                                    (0, 1, ..., (255 - (number of channels))). */
 379:Generated_Source\PSoC6\pdl\drivers\peripheral\i2s/cy_i2s.h **** } cy_stc_i2s_config_t;
 380:Generated_Source\PSoC6\pdl\drivers\peripheral\i2s/cy_i2s.h **** 
 381:Generated_Source\PSoC6\pdl\drivers\peripheral\i2s/cy_i2s.h **** 
 382:Generated_Source\PSoC6\pdl\drivers\peripheral\i2s/cy_i2s.h **** /**
 383:Generated_Source\PSoC6\pdl\drivers\peripheral\i2s/cy_i2s.h ****  * The I2S backup structure type to be used for the SysPm callback.
 384:Generated_Source\PSoC6\pdl\drivers\peripheral\i2s/cy_i2s.h ****  * \ref Cy_I2S_DeepSleepCallback context definition.
 385:Generated_Source\PSoC6\pdl\drivers\peripheral\i2s/cy_i2s.h ****  *
 386:Generated_Source\PSoC6\pdl\drivers\peripheral\i2s/cy_i2s.h ****  * \cond Also can be used for other purposes to store the current Tx/Rx
 387:Generated_Source\PSoC6\pdl\drivers\peripheral\i2s/cy_i2s.h ****  * operation state and interrupt settings - the factors that are usually
 388:Generated_Source\PSoC6\pdl\drivers\peripheral\i2s/cy_i2s.h ****  * changed on the fly. \endcond
 389:Generated_Source\PSoC6\pdl\drivers\peripheral\i2s/cy_i2s.h ****  */
 390:Generated_Source\PSoC6\pdl\drivers\peripheral\i2s/cy_i2s.h **** typedef struct
 391:Generated_Source\PSoC6\pdl\drivers\peripheral\i2s/cy_i2s.h **** {
 392:Generated_Source\PSoC6\pdl\drivers\peripheral\i2s/cy_i2s.h ****     uint32_t enableState;            /**< Stores the I2S state */
 393:Generated_Source\PSoC6\pdl\drivers\peripheral\i2s/cy_i2s.h ****     uint32_t interruptMask;          /**< Stores the I2S interrupt mask */
 394:Generated_Source\PSoC6\pdl\drivers\peripheral\i2s/cy_i2s.h **** } cy_stc_i2s_context_t;
 395:Generated_Source\PSoC6\pdl\drivers\peripheral\i2s/cy_i2s.h **** 
 396:Generated_Source\PSoC6\pdl\drivers\peripheral\i2s/cy_i2s.h **** /** \} group_i2s_data_structures */
 397:Generated_Source\PSoC6\pdl\drivers\peripheral\i2s/cy_i2s.h **** 
 398:Generated_Source\PSoC6\pdl\drivers\peripheral\i2s/cy_i2s.h **** /** \cond INTERNAL */
 399:Generated_Source\PSoC6\pdl\drivers\peripheral\i2s/cy_i2s.h **** /******************************************************************************
 400:Generated_Source\PSoC6\pdl\drivers\peripheral\i2s/cy_i2s.h ****  * Local definitions
 401:Generated_Source\PSoC6\pdl\drivers\peripheral\i2s/cy_i2s.h **** *******************************************************************************/
 402:Generated_Source\PSoC6\pdl\drivers\peripheral\i2s/cy_i2s.h **** 
 403:Generated_Source\PSoC6\pdl\drivers\peripheral\i2s/cy_i2s.h **** #define CY_I2S_INTR_MASK           (CY_I2S_INTR_TX_TRIGGER   | \
 404:Generated_Source\PSoC6\pdl\drivers\peripheral\i2s/cy_i2s.h ****                                     CY_I2S_INTR_TX_NOT_FULL  | \
 405:Generated_Source\PSoC6\pdl\drivers\peripheral\i2s/cy_i2s.h ****                                     CY_I2S_INTR_TX_EMPTY     | \
 406:Generated_Source\PSoC6\pdl\drivers\peripheral\i2s/cy_i2s.h ****                                     CY_I2S_INTR_TX_OVERFLOW  | \
 407:Generated_Source\PSoC6\pdl\drivers\peripheral\i2s/cy_i2s.h ****                                     CY_I2S_INTR_TX_UNDERFLOW | \
 408:Generated_Source\PSoC6\pdl\drivers\peripheral\i2s/cy_i2s.h ****                                     CY_I2S_INTR_TX_WD        | \
 409:Generated_Source\PSoC6\pdl\drivers\peripheral\i2s/cy_i2s.h ****                                     CY_I2S_INTR_RX_TRIGGER   | \
 410:Generated_Source\PSoC6\pdl\drivers\peripheral\i2s/cy_i2s.h ****                                     CY_I2S_INTR_RX_NOT_EMPTY | \
 411:Generated_Source\PSoC6\pdl\drivers\peripheral\i2s/cy_i2s.h ****                                     CY_I2S_INTR_RX_FULL      | \
 412:Generated_Source\PSoC6\pdl\drivers\peripheral\i2s/cy_i2s.h ****                                     CY_I2S_INTR_RX_OVERFLOW  | \
 413:Generated_Source\PSoC6\pdl\drivers\peripheral\i2s/cy_i2s.h ****                                     CY_I2S_INTR_RX_UNDERFLOW | \
 414:Generated_Source\PSoC6\pdl\drivers\peripheral\i2s/cy_i2s.h ****                                     CY_I2S_INTR_RX_WD)
 415:Generated_Source\PSoC6\pdl\drivers\peripheral\i2s/cy_i2s.h **** 
 416:Generated_Source\PSoC6\pdl\drivers\peripheral\i2s/cy_i2s.h **** /* Non-zero default values */
 417:Generated_Source\PSoC6\pdl\drivers\peripheral\i2s/cy_i2s.h **** #define CY_I2S_TX_CTL_CH_NR_DEFAULT    (0x1U)
ARM GAS  C:\Users\ikomb\AppData\Local\Temp\cchczmzd.s 			page 27


 418:Generated_Source\PSoC6\pdl\drivers\peripheral\i2s/cy_i2s.h **** #define CY_I2S_TX_CTL_I2S_MODE_DEFAULT (0x2U)
 419:Generated_Source\PSoC6\pdl\drivers\peripheral\i2s/cy_i2s.h **** #define CY_I2S_TX_CTL_WS_PULSE_DEFAULT (0x1U)
 420:Generated_Source\PSoC6\pdl\drivers\peripheral\i2s/cy_i2s.h **** #define CY_I2S_TX_CTL_CH_LEN_DEFAULT   (0x4U)
 421:Generated_Source\PSoC6\pdl\drivers\peripheral\i2s/cy_i2s.h **** #define CY_I2S_TX_CTL_WORD_LEN_DEFAULT (0x4U)
 422:Generated_Source\PSoC6\pdl\drivers\peripheral\i2s/cy_i2s.h **** 
 423:Generated_Source\PSoC6\pdl\drivers\peripheral\i2s/cy_i2s.h **** #define CY_I2S_TX_CTL_DEFAULT (_VAL2FLD(I2S_TX_CTL_CH_NR,    CY_I2S_TX_CTL_CH_NR_DEFAULT)    | \
 424:Generated_Source\PSoC6\pdl\drivers\peripheral\i2s/cy_i2s.h ****                                _VAL2FLD(I2S_TX_CTL_I2S_MODE, CY_I2S_TX_CTL_I2S_MODE_DEFAULT) | \
 425:Generated_Source\PSoC6\pdl\drivers\peripheral\i2s/cy_i2s.h ****                                _VAL2FLD(I2S_TX_CTL_WS_PULSE, CY_I2S_TX_CTL_WS_PULSE_DEFAULT) | \
 426:Generated_Source\PSoC6\pdl\drivers\peripheral\i2s/cy_i2s.h ****                                _VAL2FLD(I2S_TX_CTL_CH_LEN,   CY_I2S_TX_CTL_CH_LEN_DEFAULT)   | \
 427:Generated_Source\PSoC6\pdl\drivers\peripheral\i2s/cy_i2s.h ****                                _VAL2FLD(I2S_TX_CTL_WORD_LEN, CY_I2S_TX_CTL_WORD_LEN_DEFAULT))
 428:Generated_Source\PSoC6\pdl\drivers\peripheral\i2s/cy_i2s.h **** 
 429:Generated_Source\PSoC6\pdl\drivers\peripheral\i2s/cy_i2s.h **** #define CY_I2S_RX_CTL_CH_NR_DEFAULT    (0x1U)
 430:Generated_Source\PSoC6\pdl\drivers\peripheral\i2s/cy_i2s.h **** #define CY_I2S_RX_CTL_I2S_MODE_DEFAULT (0x2U)
 431:Generated_Source\PSoC6\pdl\drivers\peripheral\i2s/cy_i2s.h **** #define CY_I2S_RX_CTL_WS_PULSE_DEFAULT (0x1U)
 432:Generated_Source\PSoC6\pdl\drivers\peripheral\i2s/cy_i2s.h **** #define CY_I2S_RX_CTL_CH_LEN_DEFAULT   (0x4U)
 433:Generated_Source\PSoC6\pdl\drivers\peripheral\i2s/cy_i2s.h **** #define CY_I2S_RX_CTL_WORD_LEN_DEFAULT (0x4U)
 434:Generated_Source\PSoC6\pdl\drivers\peripheral\i2s/cy_i2s.h **** 
 435:Generated_Source\PSoC6\pdl\drivers\peripheral\i2s/cy_i2s.h **** #define CY_I2S_RX_CTL_DEFAULT (_VAL2FLD(I2S_RX_CTL_CH_NR,    CY_I2S_RX_CTL_CH_NR_DEFAULT)    | \
 436:Generated_Source\PSoC6\pdl\drivers\peripheral\i2s/cy_i2s.h ****                                _VAL2FLD(I2S_RX_CTL_I2S_MODE, CY_I2S_RX_CTL_I2S_MODE_DEFAULT) | \
 437:Generated_Source\PSoC6\pdl\drivers\peripheral\i2s/cy_i2s.h ****                                _VAL2FLD(I2S_RX_CTL_WS_PULSE, CY_I2S_RX_CTL_WS_PULSE_DEFAULT) | \
 438:Generated_Source\PSoC6\pdl\drivers\peripheral\i2s/cy_i2s.h ****                                _VAL2FLD(I2S_RX_CTL_CH_LEN,   CY_I2S_RX_CTL_CH_LEN_DEFAULT)   | \
 439:Generated_Source\PSoC6\pdl\drivers\peripheral\i2s/cy_i2s.h ****                                _VAL2FLD(I2S_RX_CTL_WORD_LEN, CY_I2S_RX_CTL_WORD_LEN_DEFAULT))
 440:Generated_Source\PSoC6\pdl\drivers\peripheral\i2s/cy_i2s.h **** 
 441:Generated_Source\PSoC6\pdl\drivers\peripheral\i2s/cy_i2s.h **** /* Macros for conditions used by CY_ASSERT calls */
 442:Generated_Source\PSoC6\pdl\drivers\peripheral\i2s/cy_i2s.h **** #define CY_I2S_IS_ALIGNMENT_VALID(alignment) ((CY_I2S_LEFT_JUSTIFIED == (alignment)) || \
 443:Generated_Source\PSoC6\pdl\drivers\peripheral\i2s/cy_i2s.h ****                                               (CY_I2S_I2S_MODE       == (alignment)) || \
 444:Generated_Source\PSoC6\pdl\drivers\peripheral\i2s/cy_i2s.h ****                                               (CY_I2S_TDM_MODE_A     == (alignment)) || \
 445:Generated_Source\PSoC6\pdl\drivers\peripheral\i2s/cy_i2s.h ****                                               (CY_I2S_TDM_MODE_B     == (alignment)))
 446:Generated_Source\PSoC6\pdl\drivers\peripheral\i2s/cy_i2s.h **** 
 447:Generated_Source\PSoC6\pdl\drivers\peripheral\i2s/cy_i2s.h **** #define CY_I2S_IS_LEN_VALID(length)          ((CY_I2S_LEN8  == (length)) || \
 448:Generated_Source\PSoC6\pdl\drivers\peripheral\i2s/cy_i2s.h ****                                               (CY_I2S_LEN16 == (length)) || \
 449:Generated_Source\PSoC6\pdl\drivers\peripheral\i2s/cy_i2s.h ****                                               (CY_I2S_LEN18 == (length)) || \
 450:Generated_Source\PSoC6\pdl\drivers\peripheral\i2s/cy_i2s.h ****                                               (CY_I2S_LEN20 == (length)) || \
 451:Generated_Source\PSoC6\pdl\drivers\peripheral\i2s/cy_i2s.h ****                                               (CY_I2S_LEN24 == (length)) || \
 452:Generated_Source\PSoC6\pdl\drivers\peripheral\i2s/cy_i2s.h ****                                               (CY_I2S_LEN32 == (length)))
 453:Generated_Source\PSoC6\pdl\drivers\peripheral\i2s/cy_i2s.h **** 
 454:Generated_Source\PSoC6\pdl\drivers\peripheral\i2s/cy_i2s.h **** #define CY_I2S_IS_OVHDATA_VALID(overhead)    ((CY_I2S_OVHDATA_ZERO == (overhead)) || \
 455:Generated_Source\PSoC6\pdl\drivers\peripheral\i2s/cy_i2s.h ****                                               (CY_I2S_OVHDATA_ONE  == (overhead)))
 456:Generated_Source\PSoC6\pdl\drivers\peripheral\i2s/cy_i2s.h **** 
 457:Generated_Source\PSoC6\pdl\drivers\peripheral\i2s/cy_i2s.h **** #define CY_I2S_IS_WSPULSE_VALID(wsPulse)     ((CY_I2S_WS_ONE_SCK_CYCLE      == (wsPulse)) || \
 458:Generated_Source\PSoC6\pdl\drivers\peripheral\i2s/cy_i2s.h ****                                               (CY_I2S_WS_ONE_CHANNEL_LENGTH == (wsPulse)))
 459:Generated_Source\PSoC6\pdl\drivers\peripheral\i2s/cy_i2s.h **** 
 460:Generated_Source\PSoC6\pdl\drivers\peripheral\i2s/cy_i2s.h **** #define CY_I2S_IS_CLK_DIV_VALID(clkDiv)      ((clkDiv) <= 63U)
 461:Generated_Source\PSoC6\pdl\drivers\peripheral\i2s/cy_i2s.h **** #define CY_I2S_IS_CHANNELS_VALID(channels)   ((channels) <= 7UL)
 462:Generated_Source\PSoC6\pdl\drivers\peripheral\i2s/cy_i2s.h **** #define CY_I2S_IS_INTR_MASK_VALID(interrupt) (0UL == ((interrupt) & ((uint32_t) ~CY_I2S_INTR_MASK))
 463:Generated_Source\PSoC6\pdl\drivers\peripheral\i2s/cy_i2s.h **** 
 464:Generated_Source\PSoC6\pdl\drivers\peripheral\i2s/cy_i2s.h **** #define CY_I2S_IS_CHAN_WORD_VALID(channel, word)        ((CY_I2S_IS_LEN_VALID(channel)) && \
 465:Generated_Source\PSoC6\pdl\drivers\peripheral\i2s/cy_i2s.h ****                                                          (CY_I2S_IS_LEN_VALID(word))    && \
 466:Generated_Source\PSoC6\pdl\drivers\peripheral\i2s/cy_i2s.h ****                                                          ((channel) >= (word)))
 467:Generated_Source\PSoC6\pdl\drivers\peripheral\i2s/cy_i2s.h **** #define CY_I2S_IS_TRIG_LEVEL_VALID(trigLevel, channels) ((trigLevel) <= (255U - (channels)))
 468:Generated_Source\PSoC6\pdl\drivers\peripheral\i2s/cy_i2s.h **** 
 469:Generated_Source\PSoC6\pdl\drivers\peripheral\i2s/cy_i2s.h **** /** \endcond */
 470:Generated_Source\PSoC6\pdl\drivers\peripheral\i2s/cy_i2s.h **** 
 471:Generated_Source\PSoC6\pdl\drivers\peripheral\i2s/cy_i2s.h **** 
 472:Generated_Source\PSoC6\pdl\drivers\peripheral\i2s/cy_i2s.h **** /**
 473:Generated_Source\PSoC6\pdl\drivers\peripheral\i2s/cy_i2s.h **** * \addtogroup group_i2s_functions
 474:Generated_Source\PSoC6\pdl\drivers\peripheral\i2s/cy_i2s.h **** * \{
ARM GAS  C:\Users\ikomb\AppData\Local\Temp\cchczmzd.s 			page 28


 475:Generated_Source\PSoC6\pdl\drivers\peripheral\i2s/cy_i2s.h **** */
 476:Generated_Source\PSoC6\pdl\drivers\peripheral\i2s/cy_i2s.h **** 
 477:Generated_Source\PSoC6\pdl\drivers\peripheral\i2s/cy_i2s.h ****   cy_en_i2s_status_t     Cy_I2S_Init(I2S_Type * base, cy_stc_i2s_config_t const * config);
 478:Generated_Source\PSoC6\pdl\drivers\peripheral\i2s/cy_i2s.h ****                 void     Cy_I2S_DeInit(I2S_Type * base);
 479:Generated_Source\PSoC6\pdl\drivers\peripheral\i2s/cy_i2s.h ****                 
 480:Generated_Source\PSoC6\pdl\drivers\peripheral\i2s/cy_i2s.h **** /** \addtogroup group_i2s_functions_syspm_callback
 481:Generated_Source\PSoC6\pdl\drivers\peripheral\i2s/cy_i2s.h **** * The driver supports SysPm callback for Deep Sleep transition.
 482:Generated_Source\PSoC6\pdl\drivers\peripheral\i2s/cy_i2s.h **** * \{
 483:Generated_Source\PSoC6\pdl\drivers\peripheral\i2s/cy_i2s.h **** */
 484:Generated_Source\PSoC6\pdl\drivers\peripheral\i2s/cy_i2s.h **** cy_en_syspm_status_t     Cy_I2S_DeepSleepCallback(cy_stc_syspm_callback_params_t * callbackParams);
 485:Generated_Source\PSoC6\pdl\drivers\peripheral\i2s/cy_i2s.h **** /** \} */
 486:Generated_Source\PSoC6\pdl\drivers\peripheral\i2s/cy_i2s.h **** 
 487:Generated_Source\PSoC6\pdl\drivers\peripheral\i2s/cy_i2s.h **** __STATIC_INLINE void     Cy_I2S_EnableTx(I2S_Type * base);
 488:Generated_Source\PSoC6\pdl\drivers\peripheral\i2s/cy_i2s.h **** __STATIC_INLINE void     Cy_I2S_PauseTx(I2S_Type * base);
 489:Generated_Source\PSoC6\pdl\drivers\peripheral\i2s/cy_i2s.h **** __STATIC_INLINE void     Cy_I2S_ResumeTx(I2S_Type * base);
 490:Generated_Source\PSoC6\pdl\drivers\peripheral\i2s/cy_i2s.h **** __STATIC_INLINE void     Cy_I2S_DisableTx(I2S_Type * base);
 491:Generated_Source\PSoC6\pdl\drivers\peripheral\i2s/cy_i2s.h **** __STATIC_INLINE void     Cy_I2S_EnableRx(I2S_Type * base);
 492:Generated_Source\PSoC6\pdl\drivers\peripheral\i2s/cy_i2s.h **** __STATIC_INLINE void     Cy_I2S_DisableRx(I2S_Type * base);
 493:Generated_Source\PSoC6\pdl\drivers\peripheral\i2s/cy_i2s.h **** __STATIC_INLINE uint32_t Cy_I2S_GetCurrentState(I2S_Type const * base);
 494:Generated_Source\PSoC6\pdl\drivers\peripheral\i2s/cy_i2s.h **** 
 495:Generated_Source\PSoC6\pdl\drivers\peripheral\i2s/cy_i2s.h **** __STATIC_INLINE void     Cy_I2S_ClearTxFifo(I2S_Type * base);
 496:Generated_Source\PSoC6\pdl\drivers\peripheral\i2s/cy_i2s.h **** __STATIC_INLINE uint32_t Cy_I2S_GetNumInTxFifo(I2S_Type const * base);
 497:Generated_Source\PSoC6\pdl\drivers\peripheral\i2s/cy_i2s.h **** __STATIC_INLINE void     Cy_I2S_WriteTxData(I2S_Type * base, uint32_t data);
 498:Generated_Source\PSoC6\pdl\drivers\peripheral\i2s/cy_i2s.h **** __STATIC_INLINE uint8_t  Cy_I2S_GetTxReadPointer(I2S_Type const * base);
 499:Generated_Source\PSoC6\pdl\drivers\peripheral\i2s/cy_i2s.h **** __STATIC_INLINE uint8_t  Cy_I2S_GetTxWritePointer(I2S_Type const * base);
 500:Generated_Source\PSoC6\pdl\drivers\peripheral\i2s/cy_i2s.h **** __STATIC_INLINE void     Cy_I2S_FreezeTxFifo(I2S_Type * base);
 501:Generated_Source\PSoC6\pdl\drivers\peripheral\i2s/cy_i2s.h **** __STATIC_INLINE void     Cy_I2S_UnfreezeTxFifo(I2S_Type * base);
 502:Generated_Source\PSoC6\pdl\drivers\peripheral\i2s/cy_i2s.h **** 
 503:Generated_Source\PSoC6\pdl\drivers\peripheral\i2s/cy_i2s.h **** __STATIC_INLINE void     Cy_I2S_ClearRxFifo(I2S_Type * base);
 504:Generated_Source\PSoC6\pdl\drivers\peripheral\i2s/cy_i2s.h **** __STATIC_INLINE uint32_t Cy_I2S_GetNumInRxFifo(I2S_Type const * base);
 505:Generated_Source\PSoC6\pdl\drivers\peripheral\i2s/cy_i2s.h **** __STATIC_INLINE uint32_t Cy_I2S_ReadRxData(I2S_Type const * base);
 506:Generated_Source\PSoC6\pdl\drivers\peripheral\i2s/cy_i2s.h **** __STATIC_INLINE uint32_t Cy_I2S_ReadRxDataSilent(I2S_Type const * base);
 507:Generated_Source\PSoC6\pdl\drivers\peripheral\i2s/cy_i2s.h **** __STATIC_INLINE uint8_t  Cy_I2S_GetRxReadPointer(I2S_Type const * base);
 508:Generated_Source\PSoC6\pdl\drivers\peripheral\i2s/cy_i2s.h **** __STATIC_INLINE uint8_t  Cy_I2S_GetRxWritePointer(I2S_Type const * base);
 509:Generated_Source\PSoC6\pdl\drivers\peripheral\i2s/cy_i2s.h **** __STATIC_INLINE void     Cy_I2S_FreezeRxFifo(I2S_Type * base);
 510:Generated_Source\PSoC6\pdl\drivers\peripheral\i2s/cy_i2s.h **** __STATIC_INLINE void     Cy_I2S_UnfreezeRxFifo(I2S_Type * base);
 511:Generated_Source\PSoC6\pdl\drivers\peripheral\i2s/cy_i2s.h **** 
 512:Generated_Source\PSoC6\pdl\drivers\peripheral\i2s/cy_i2s.h **** __STATIC_INLINE uint32_t Cy_I2S_GetInterruptStatus(I2S_Type const * base);
 513:Generated_Source\PSoC6\pdl\drivers\peripheral\i2s/cy_i2s.h **** __STATIC_INLINE void     Cy_I2S_ClearInterrupt(I2S_Type * base, uint32_t interrupt);
 514:Generated_Source\PSoC6\pdl\drivers\peripheral\i2s/cy_i2s.h **** __STATIC_INLINE void     Cy_I2S_SetInterrupt(I2S_Type * base, uint32_t interrupt);
 515:Generated_Source\PSoC6\pdl\drivers\peripheral\i2s/cy_i2s.h **** __STATIC_INLINE uint32_t Cy_I2S_GetInterruptMask(I2S_Type const * base);
 516:Generated_Source\PSoC6\pdl\drivers\peripheral\i2s/cy_i2s.h **** __STATIC_INLINE void     Cy_I2S_SetInterruptMask(I2S_Type * base, uint32_t interrupt);
 517:Generated_Source\PSoC6\pdl\drivers\peripheral\i2s/cy_i2s.h **** __STATIC_INLINE uint32_t Cy_I2S_GetInterruptStatusMasked(I2S_Type const * base);
 518:Generated_Source\PSoC6\pdl\drivers\peripheral\i2s/cy_i2s.h **** 
 519:Generated_Source\PSoC6\pdl\drivers\peripheral\i2s/cy_i2s.h **** /*******************************************************************************
 520:Generated_Source\PSoC6\pdl\drivers\peripheral\i2s/cy_i2s.h **** * Function Name: Cy_I2S_EnableTx
 521:Generated_Source\PSoC6\pdl\drivers\peripheral\i2s/cy_i2s.h **** ****************************************************************************//**
 522:Generated_Source\PSoC6\pdl\drivers\peripheral\i2s/cy_i2s.h **** *
 523:Generated_Source\PSoC6\pdl\drivers\peripheral\i2s/cy_i2s.h **** * Starts an I2S transmission. Interrupts enabling (by the 
 524:Generated_Source\PSoC6\pdl\drivers\peripheral\i2s/cy_i2s.h **** * \ref Cy_I2S_SetInterruptMask) is required after this function call, in case
 525:Generated_Source\PSoC6\pdl\drivers\peripheral\i2s/cy_i2s.h **** * if any I2S interrupts are used in the application.
 526:Generated_Source\PSoC6\pdl\drivers\peripheral\i2s/cy_i2s.h **** *
 527:Generated_Source\PSoC6\pdl\drivers\peripheral\i2s/cy_i2s.h **** * \pre Cy_I2S_Init() must be called before.
 528:Generated_Source\PSoC6\pdl\drivers\peripheral\i2s/cy_i2s.h **** *
 529:Generated_Source\PSoC6\pdl\drivers\peripheral\i2s/cy_i2s.h **** * \param base The pointer to the I2S instance address.
 530:Generated_Source\PSoC6\pdl\drivers\peripheral\i2s/cy_i2s.h **** *
 531:Generated_Source\PSoC6\pdl\drivers\peripheral\i2s/cy_i2s.h **** * \funcusage
ARM GAS  C:\Users\ikomb\AppData\Local\Temp\cchczmzd.s 			page 29


 532:Generated_Source\PSoC6\pdl\drivers\peripheral\i2s/cy_i2s.h **** * \snippet i2s/i2s_v2_0_sut_00.cydsn/main_cm4.c snippet_Cy_I2S_EnableTx
 533:Generated_Source\PSoC6\pdl\drivers\peripheral\i2s/cy_i2s.h **** *
 534:Generated_Source\PSoC6\pdl\drivers\peripheral\i2s/cy_i2s.h **** *******************************************************************************/
 535:Generated_Source\PSoC6\pdl\drivers\peripheral\i2s/cy_i2s.h **** __STATIC_INLINE void Cy_I2S_EnableTx(I2S_Type * base)
 536:Generated_Source\PSoC6\pdl\drivers\peripheral\i2s/cy_i2s.h **** {
 537:Generated_Source\PSoC6\pdl\drivers\peripheral\i2s/cy_i2s.h ****     base->CMD |= I2S_CMD_TX_START_Msk;
 538:Generated_Source\PSoC6\pdl\drivers\peripheral\i2s/cy_i2s.h **** }
 539:Generated_Source\PSoC6\pdl\drivers\peripheral\i2s/cy_i2s.h **** 
 540:Generated_Source\PSoC6\pdl\drivers\peripheral\i2s/cy_i2s.h **** 
 541:Generated_Source\PSoC6\pdl\drivers\peripheral\i2s/cy_i2s.h **** /*******************************************************************************
 542:Generated_Source\PSoC6\pdl\drivers\peripheral\i2s/cy_i2s.h **** * Function Name: Cy_I2S_PauseTx
 543:Generated_Source\PSoC6\pdl\drivers\peripheral\i2s/cy_i2s.h **** ****************************************************************************//**
 544:Generated_Source\PSoC6\pdl\drivers\peripheral\i2s/cy_i2s.h **** *
 545:Generated_Source\PSoC6\pdl\drivers\peripheral\i2s/cy_i2s.h **** * Pauses an I2S transmission.
 546:Generated_Source\PSoC6\pdl\drivers\peripheral\i2s/cy_i2s.h **** *
 547:Generated_Source\PSoC6\pdl\drivers\peripheral\i2s/cy_i2s.h **** * \param base The pointer to the I2S instance address.
 548:Generated_Source\PSoC6\pdl\drivers\peripheral\i2s/cy_i2s.h **** *
 549:Generated_Source\PSoC6\pdl\drivers\peripheral\i2s/cy_i2s.h **** * \funcusage
 550:Generated_Source\PSoC6\pdl\drivers\peripheral\i2s/cy_i2s.h **** * \snippet i2s/i2s_v2_0_sut_00.cydsn/main_cm4.c snippet_Cy_I2S_PauseTx
 551:Generated_Source\PSoC6\pdl\drivers\peripheral\i2s/cy_i2s.h **** *
 552:Generated_Source\PSoC6\pdl\drivers\peripheral\i2s/cy_i2s.h **** *******************************************************************************/
 553:Generated_Source\PSoC6\pdl\drivers\peripheral\i2s/cy_i2s.h **** __STATIC_INLINE void Cy_I2S_PauseTx(I2S_Type * base)
 554:Generated_Source\PSoC6\pdl\drivers\peripheral\i2s/cy_i2s.h **** {
 555:Generated_Source\PSoC6\pdl\drivers\peripheral\i2s/cy_i2s.h ****     base->CMD |= I2S_CMD_TX_PAUSE_Msk;
 556:Generated_Source\PSoC6\pdl\drivers\peripheral\i2s/cy_i2s.h **** }
 557:Generated_Source\PSoC6\pdl\drivers\peripheral\i2s/cy_i2s.h **** 
 558:Generated_Source\PSoC6\pdl\drivers\peripheral\i2s/cy_i2s.h **** 
 559:Generated_Source\PSoC6\pdl\drivers\peripheral\i2s/cy_i2s.h **** /*******************************************************************************
 560:Generated_Source\PSoC6\pdl\drivers\peripheral\i2s/cy_i2s.h **** * Function Name: Cy_I2S_ResumeTx
 561:Generated_Source\PSoC6\pdl\drivers\peripheral\i2s/cy_i2s.h **** ****************************************************************************//**
 562:Generated_Source\PSoC6\pdl\drivers\peripheral\i2s/cy_i2s.h **** *
 563:Generated_Source\PSoC6\pdl\drivers\peripheral\i2s/cy_i2s.h **** * Resumes an I2S transmission.
 564:Generated_Source\PSoC6\pdl\drivers\peripheral\i2s/cy_i2s.h **** *
 565:Generated_Source\PSoC6\pdl\drivers\peripheral\i2s/cy_i2s.h **** * \param base The pointer to the I2S instance address.
 566:Generated_Source\PSoC6\pdl\drivers\peripheral\i2s/cy_i2s.h **** *
 567:Generated_Source\PSoC6\pdl\drivers\peripheral\i2s/cy_i2s.h **** * \funcusage
 568:Generated_Source\PSoC6\pdl\drivers\peripheral\i2s/cy_i2s.h **** * \snippet i2s/i2s_v2_0_sut_00.cydsn/main_cm4.c snippet_Cy_I2S_ResumeTx
 569:Generated_Source\PSoC6\pdl\drivers\peripheral\i2s/cy_i2s.h **** *
 570:Generated_Source\PSoC6\pdl\drivers\peripheral\i2s/cy_i2s.h **** *******************************************************************************/
 571:Generated_Source\PSoC6\pdl\drivers\peripheral\i2s/cy_i2s.h **** __STATIC_INLINE void Cy_I2S_ResumeTx(I2S_Type * base)
 572:Generated_Source\PSoC6\pdl\drivers\peripheral\i2s/cy_i2s.h **** {
 573:Generated_Source\PSoC6\pdl\drivers\peripheral\i2s/cy_i2s.h ****     base->CMD &= (uint32_t) ~I2S_CMD_TX_PAUSE_Msk;
 574:Generated_Source\PSoC6\pdl\drivers\peripheral\i2s/cy_i2s.h **** }
 575:Generated_Source\PSoC6\pdl\drivers\peripheral\i2s/cy_i2s.h **** 
 576:Generated_Source\PSoC6\pdl\drivers\peripheral\i2s/cy_i2s.h **** 
 577:Generated_Source\PSoC6\pdl\drivers\peripheral\i2s/cy_i2s.h **** /*******************************************************************************
 578:Generated_Source\PSoC6\pdl\drivers\peripheral\i2s/cy_i2s.h **** * Function Name: Cy_I2S_DisableTx
 579:Generated_Source\PSoC6\pdl\drivers\peripheral\i2s/cy_i2s.h **** ****************************************************************************//**
 580:Generated_Source\PSoC6\pdl\drivers\peripheral\i2s/cy_i2s.h **** *
 581:Generated_Source\PSoC6\pdl\drivers\peripheral\i2s/cy_i2s.h **** * Stops an I2S transmission. 
 582:Generated_Source\PSoC6\pdl\drivers\peripheral\i2s/cy_i2s.h **** *
 583:Generated_Source\PSoC6\pdl\drivers\peripheral\i2s/cy_i2s.h **** * \pre TX interrupts disabling (by the \ref Cy_I2S_SetInterruptMask) is required
 584:Generated_Source\PSoC6\pdl\drivers\peripheral\i2s/cy_i2s.h **** * prior to this function call, in case if any TX I2S interrupts are used.
 585:Generated_Source\PSoC6\pdl\drivers\peripheral\i2s/cy_i2s.h **** *
 586:Generated_Source\PSoC6\pdl\drivers\peripheral\i2s/cy_i2s.h **** * \param base The pointer to the I2S instance address.
 587:Generated_Source\PSoC6\pdl\drivers\peripheral\i2s/cy_i2s.h **** *
 588:Generated_Source\PSoC6\pdl\drivers\peripheral\i2s/cy_i2s.h **** * \funcusage
ARM GAS  C:\Users\ikomb\AppData\Local\Temp\cchczmzd.s 			page 30


 589:Generated_Source\PSoC6\pdl\drivers\peripheral\i2s/cy_i2s.h **** * \snippet i2s/i2s_v2_0_sut_00.cydsn/main_cm4.c snippet_Cy_I2S_DisableTx
 590:Generated_Source\PSoC6\pdl\drivers\peripheral\i2s/cy_i2s.h **** *
 591:Generated_Source\PSoC6\pdl\drivers\peripheral\i2s/cy_i2s.h **** *******************************************************************************/
 592:Generated_Source\PSoC6\pdl\drivers\peripheral\i2s/cy_i2s.h **** __STATIC_INLINE void Cy_I2S_DisableTx(I2S_Type * base)
 593:Generated_Source\PSoC6\pdl\drivers\peripheral\i2s/cy_i2s.h **** {
 594:Generated_Source\PSoC6\pdl\drivers\peripheral\i2s/cy_i2s.h ****     base->CMD &= (uint32_t) ~I2S_CMD_TX_START_Msk;
 595:Generated_Source\PSoC6\pdl\drivers\peripheral\i2s/cy_i2s.h **** }
 596:Generated_Source\PSoC6\pdl\drivers\peripheral\i2s/cy_i2s.h **** 
 597:Generated_Source\PSoC6\pdl\drivers\peripheral\i2s/cy_i2s.h **** 
 598:Generated_Source\PSoC6\pdl\drivers\peripheral\i2s/cy_i2s.h **** /*******************************************************************************
 599:Generated_Source\PSoC6\pdl\drivers\peripheral\i2s/cy_i2s.h **** * Function Name: Cy_I2S_EnableRx
 600:Generated_Source\PSoC6\pdl\drivers\peripheral\i2s/cy_i2s.h **** ****************************************************************************//**
 601:Generated_Source\PSoC6\pdl\drivers\peripheral\i2s/cy_i2s.h **** *
 602:Generated_Source\PSoC6\pdl\drivers\peripheral\i2s/cy_i2s.h **** * Starts an I2S reception. Interrupts enabling (by the 
 603:Generated_Source\PSoC6\pdl\drivers\peripheral\i2s/cy_i2s.h **** * \ref Cy_I2S_SetInterruptMask) is required after this function call, in case
 604:Generated_Source\PSoC6\pdl\drivers\peripheral\i2s/cy_i2s.h **** * if any I2S interrupts are used in the application.
 605:Generated_Source\PSoC6\pdl\drivers\peripheral\i2s/cy_i2s.h **** *
 606:Generated_Source\PSoC6\pdl\drivers\peripheral\i2s/cy_i2s.h **** * \pre \ref Cy_I2S_Init() must be called before.
 607:Generated_Source\PSoC6\pdl\drivers\peripheral\i2s/cy_i2s.h **** *
 608:Generated_Source\PSoC6\pdl\drivers\peripheral\i2s/cy_i2s.h **** * \param base The pointer to the I2S instance address.
 609:Generated_Source\PSoC6\pdl\drivers\peripheral\i2s/cy_i2s.h **** *
 610:Generated_Source\PSoC6\pdl\drivers\peripheral\i2s/cy_i2s.h **** * \funcusage
 611:Generated_Source\PSoC6\pdl\drivers\peripheral\i2s/cy_i2s.h **** * \snippet i2s/i2s_v2_0_sut_00.cydsn/main_cm4.c snippet_Cy_I2S_EnableRx
 612:Generated_Source\PSoC6\pdl\drivers\peripheral\i2s/cy_i2s.h **** *
 613:Generated_Source\PSoC6\pdl\drivers\peripheral\i2s/cy_i2s.h **** *******************************************************************************/
 614:Generated_Source\PSoC6\pdl\drivers\peripheral\i2s/cy_i2s.h **** __STATIC_INLINE void Cy_I2S_EnableRx(I2S_Type * base)
 615:Generated_Source\PSoC6\pdl\drivers\peripheral\i2s/cy_i2s.h **** {
 616:Generated_Source\PSoC6\pdl\drivers\peripheral\i2s/cy_i2s.h ****     base->CMD |= I2S_CMD_RX_START_Msk;
 617:Generated_Source\PSoC6\pdl\drivers\peripheral\i2s/cy_i2s.h **** }
 618:Generated_Source\PSoC6\pdl\drivers\peripheral\i2s/cy_i2s.h **** 
 619:Generated_Source\PSoC6\pdl\drivers\peripheral\i2s/cy_i2s.h **** 
 620:Generated_Source\PSoC6\pdl\drivers\peripheral\i2s/cy_i2s.h **** /*******************************************************************************
 621:Generated_Source\PSoC6\pdl\drivers\peripheral\i2s/cy_i2s.h **** * Function Name: Cy_I2S_DisableRx
 622:Generated_Source\PSoC6\pdl\drivers\peripheral\i2s/cy_i2s.h **** ****************************************************************************//**
 623:Generated_Source\PSoC6\pdl\drivers\peripheral\i2s/cy_i2s.h **** *
 624:Generated_Source\PSoC6\pdl\drivers\peripheral\i2s/cy_i2s.h **** * Stops an I2S reception.
 625:Generated_Source\PSoC6\pdl\drivers\peripheral\i2s/cy_i2s.h **** *
 626:Generated_Source\PSoC6\pdl\drivers\peripheral\i2s/cy_i2s.h **** * \pre RX interrupts disabling (by the \ref Cy_I2S_SetInterruptMask) is required
 627:Generated_Source\PSoC6\pdl\drivers\peripheral\i2s/cy_i2s.h **** * prior to this function call, in case if any RX I2S interrupts are used.
 628:Generated_Source\PSoC6\pdl\drivers\peripheral\i2s/cy_i2s.h **** *
 629:Generated_Source\PSoC6\pdl\drivers\peripheral\i2s/cy_i2s.h **** * \param base The pointer to the I2S instance address.
 630:Generated_Source\PSoC6\pdl\drivers\peripheral\i2s/cy_i2s.h **** *
 631:Generated_Source\PSoC6\pdl\drivers\peripheral\i2s/cy_i2s.h **** * \funcusage
 632:Generated_Source\PSoC6\pdl\drivers\peripheral\i2s/cy_i2s.h **** * \snippet i2s/i2s_v2_0_sut_00.cydsn/main_cm4.c snippet_Cy_I2S_DisableRx
 633:Generated_Source\PSoC6\pdl\drivers\peripheral\i2s/cy_i2s.h **** *
 634:Generated_Source\PSoC6\pdl\drivers\peripheral\i2s/cy_i2s.h **** *******************************************************************************/
 635:Generated_Source\PSoC6\pdl\drivers\peripheral\i2s/cy_i2s.h **** __STATIC_INLINE void Cy_I2S_DisableRx(I2S_Type * base)
 636:Generated_Source\PSoC6\pdl\drivers\peripheral\i2s/cy_i2s.h **** {
 637:Generated_Source\PSoC6\pdl\drivers\peripheral\i2s/cy_i2s.h ****     base->CMD &= (uint32_t) ~I2S_CMD_RX_START_Msk;
 638:Generated_Source\PSoC6\pdl\drivers\peripheral\i2s/cy_i2s.h **** }
 639:Generated_Source\PSoC6\pdl\drivers\peripheral\i2s/cy_i2s.h **** 
 640:Generated_Source\PSoC6\pdl\drivers\peripheral\i2s/cy_i2s.h **** 
 641:Generated_Source\PSoC6\pdl\drivers\peripheral\i2s/cy_i2s.h **** /*******************************************************************************
 642:Generated_Source\PSoC6\pdl\drivers\peripheral\i2s/cy_i2s.h **** * Function Name: Cy_I2S_GetCurrentState
 643:Generated_Source\PSoC6\pdl\drivers\peripheral\i2s/cy_i2s.h **** ****************************************************************************//**
 644:Generated_Source\PSoC6\pdl\drivers\peripheral\i2s/cy_i2s.h **** *
 645:Generated_Source\PSoC6\pdl\drivers\peripheral\i2s/cy_i2s.h **** * Returns the current I2S state (TX/RX running/paused/stopped).
ARM GAS  C:\Users\ikomb\AppData\Local\Temp\cchczmzd.s 			page 31


 646:Generated_Source\PSoC6\pdl\drivers\peripheral\i2s/cy_i2s.h **** *
 647:Generated_Source\PSoC6\pdl\drivers\peripheral\i2s/cy_i2s.h **** * \param base The pointer to the I2S instance address.
 648:Generated_Source\PSoC6\pdl\drivers\peripheral\i2s/cy_i2s.h **** *
 649:Generated_Source\PSoC6\pdl\drivers\peripheral\i2s/cy_i2s.h **** * \return The current state \ref group_i2s_macros_current_state.
 650:Generated_Source\PSoC6\pdl\drivers\peripheral\i2s/cy_i2s.h **** *
 651:Generated_Source\PSoC6\pdl\drivers\peripheral\i2s/cy_i2s.h **** * \funcusage
 652:Generated_Source\PSoC6\pdl\drivers\peripheral\i2s/cy_i2s.h **** * \snippet i2s/i2s_v2_0_sut_00.cydsn/main_cm4.c snippet_Cy_I2S_GetCurrentState
 653:Generated_Source\PSoC6\pdl\drivers\peripheral\i2s/cy_i2s.h **** *
 654:Generated_Source\PSoC6\pdl\drivers\peripheral\i2s/cy_i2s.h **** *******************************************************************************/
 655:Generated_Source\PSoC6\pdl\drivers\peripheral\i2s/cy_i2s.h **** __STATIC_INLINE uint32_t Cy_I2S_GetCurrentState(I2S_Type const * base)
 656:Generated_Source\PSoC6\pdl\drivers\peripheral\i2s/cy_i2s.h **** {
 657:Generated_Source\PSoC6\pdl\drivers\peripheral\i2s/cy_i2s.h ****     return (base->CMD & (I2S_CMD_TX_START_Msk | I2S_CMD_TX_PAUSE_Msk | I2S_CMD_RX_START_Msk));
 658:Generated_Source\PSoC6\pdl\drivers\peripheral\i2s/cy_i2s.h **** }
 659:Generated_Source\PSoC6\pdl\drivers\peripheral\i2s/cy_i2s.h **** 
 660:Generated_Source\PSoC6\pdl\drivers\peripheral\i2s/cy_i2s.h **** 
 661:Generated_Source\PSoC6\pdl\drivers\peripheral\i2s/cy_i2s.h **** /*******************************************************************************
 662:Generated_Source\PSoC6\pdl\drivers\peripheral\i2s/cy_i2s.h **** * Function Name: Cy_I2S_ClearTxFifo
 663:Generated_Source\PSoC6\pdl\drivers\peripheral\i2s/cy_i2s.h **** ****************************************************************************//**
 664:Generated_Source\PSoC6\pdl\drivers\peripheral\i2s/cy_i2s.h **** *
 665:Generated_Source\PSoC6\pdl\drivers\peripheral\i2s/cy_i2s.h **** * Clears the TX FIFO (resets the Read/Write FIFO pointers).
 666:Generated_Source\PSoC6\pdl\drivers\peripheral\i2s/cy_i2s.h **** *
 667:Generated_Source\PSoC6\pdl\drivers\peripheral\i2s/cy_i2s.h **** * \param base The pointer to the I2S instance address.
 668:Generated_Source\PSoC6\pdl\drivers\peripheral\i2s/cy_i2s.h **** *
 669:Generated_Source\PSoC6\pdl\drivers\peripheral\i2s/cy_i2s.h **** * \funcusage
 670:Generated_Source\PSoC6\pdl\drivers\peripheral\i2s/cy_i2s.h **** * \snippet i2s/i2s_v2_0_sut_00.cydsn/main_cm4.c snippet_Cy_I2S_ClearTxFifo
 671:Generated_Source\PSoC6\pdl\drivers\peripheral\i2s/cy_i2s.h **** *
 672:Generated_Source\PSoC6\pdl\drivers\peripheral\i2s/cy_i2s.h **** *******************************************************************************/
 673:Generated_Source\PSoC6\pdl\drivers\peripheral\i2s/cy_i2s.h **** __STATIC_INLINE void Cy_I2S_ClearTxFifo(I2S_Type * base)
 674:Generated_Source\PSoC6\pdl\drivers\peripheral\i2s/cy_i2s.h **** {
 675:Generated_Source\PSoC6\pdl\drivers\peripheral\i2s/cy_i2s.h ****     base->TX_FIFO_CTL |= I2S_TX_FIFO_CTL_CLEAR_Msk;
 676:Generated_Source\PSoC6\pdl\drivers\peripheral\i2s/cy_i2s.h ****     base->TX_FIFO_CTL &= (uint32_t) ~I2S_TX_FIFO_CTL_CLEAR_Msk;
 677:Generated_Source\PSoC6\pdl\drivers\peripheral\i2s/cy_i2s.h ****     (void) base->TX_FIFO_CTL;
 678:Generated_Source\PSoC6\pdl\drivers\peripheral\i2s/cy_i2s.h **** }
 679:Generated_Source\PSoC6\pdl\drivers\peripheral\i2s/cy_i2s.h **** 
 680:Generated_Source\PSoC6\pdl\drivers\peripheral\i2s/cy_i2s.h **** 
 681:Generated_Source\PSoC6\pdl\drivers\peripheral\i2s/cy_i2s.h **** /*******************************************************************************
 682:Generated_Source\PSoC6\pdl\drivers\peripheral\i2s/cy_i2s.h **** * Function Name: Cy_I2S_GetNumInTxFifo
 683:Generated_Source\PSoC6\pdl\drivers\peripheral\i2s/cy_i2s.h **** ****************************************************************************//**
 684:Generated_Source\PSoC6\pdl\drivers\peripheral\i2s/cy_i2s.h **** *
 685:Generated_Source\PSoC6\pdl\drivers\peripheral\i2s/cy_i2s.h **** * Gets the number of used words in the TX FIFO.
 686:Generated_Source\PSoC6\pdl\drivers\peripheral\i2s/cy_i2s.h **** *
 687:Generated_Source\PSoC6\pdl\drivers\peripheral\i2s/cy_i2s.h **** * \param base The pointer to the I2S instance address.
 688:Generated_Source\PSoC6\pdl\drivers\peripheral\i2s/cy_i2s.h **** *
 689:Generated_Source\PSoC6\pdl\drivers\peripheral\i2s/cy_i2s.h **** * \return The current number of used words in the TX FIFO.
 690:Generated_Source\PSoC6\pdl\drivers\peripheral\i2s/cy_i2s.h **** *
 691:Generated_Source\PSoC6\pdl\drivers\peripheral\i2s/cy_i2s.h **** * \funcusage
 692:Generated_Source\PSoC6\pdl\drivers\peripheral\i2s/cy_i2s.h **** * \snippet i2s/i2s_v2_0_sut_00.cydsn/main_cm4.c snippet_Cy_I2S_GetNumInTxFifo
 693:Generated_Source\PSoC6\pdl\drivers\peripheral\i2s/cy_i2s.h **** *
 694:Generated_Source\PSoC6\pdl\drivers\peripheral\i2s/cy_i2s.h **** *******************************************************************************/
 695:Generated_Source\PSoC6\pdl\drivers\peripheral\i2s/cy_i2s.h **** __STATIC_INLINE uint32_t Cy_I2S_GetNumInTxFifo(I2S_Type const * base)
 696:Generated_Source\PSoC6\pdl\drivers\peripheral\i2s/cy_i2s.h **** {   
 697:Generated_Source\PSoC6\pdl\drivers\peripheral\i2s/cy_i2s.h ****     return (_FLD2VAL(I2S_TX_FIFO_STATUS_USED, base->TX_FIFO_STATUS));
 698:Generated_Source\PSoC6\pdl\drivers\peripheral\i2s/cy_i2s.h **** }
 699:Generated_Source\PSoC6\pdl\drivers\peripheral\i2s/cy_i2s.h **** 
 700:Generated_Source\PSoC6\pdl\drivers\peripheral\i2s/cy_i2s.h **** 
 701:Generated_Source\PSoC6\pdl\drivers\peripheral\i2s/cy_i2s.h **** /*******************************************************************************
 702:Generated_Source\PSoC6\pdl\drivers\peripheral\i2s/cy_i2s.h **** * Function Name: Cy_I2S_WriteTxData
ARM GAS  C:\Users\ikomb\AppData\Local\Temp\cchczmzd.s 			page 32


 703:Generated_Source\PSoC6\pdl\drivers\peripheral\i2s/cy_i2s.h **** ****************************************************************************//**
 704:Generated_Source\PSoC6\pdl\drivers\peripheral\i2s/cy_i2s.h **** *
 705:Generated_Source\PSoC6\pdl\drivers\peripheral\i2s/cy_i2s.h **** * Writes data to the TX FIFO. Increases the TX FIFO level.
 706:Generated_Source\PSoC6\pdl\drivers\peripheral\i2s/cy_i2s.h **** *
 707:Generated_Source\PSoC6\pdl\drivers\peripheral\i2s/cy_i2s.h **** * \param base The pointer to the I2S instance address.
 708:Generated_Source\PSoC6\pdl\drivers\peripheral\i2s/cy_i2s.h **** *
 709:Generated_Source\PSoC6\pdl\drivers\peripheral\i2s/cy_i2s.h **** * \param data Data to be written to the TX FIFO.
 710:Generated_Source\PSoC6\pdl\drivers\peripheral\i2s/cy_i2s.h **** *
 711:Generated_Source\PSoC6\pdl\drivers\peripheral\i2s/cy_i2s.h **** * \funcusage
 712:Generated_Source\PSoC6\pdl\drivers\peripheral\i2s/cy_i2s.h **** * \snippet i2s/i2s_v2_0_sut_00.cydsn/main_cm4.c snippet_Cy_I2S_WriteTxData
 713:Generated_Source\PSoC6\pdl\drivers\peripheral\i2s/cy_i2s.h **** *
 714:Generated_Source\PSoC6\pdl\drivers\peripheral\i2s/cy_i2s.h **** *******************************************************************************/
 715:Generated_Source\PSoC6\pdl\drivers\peripheral\i2s/cy_i2s.h **** __STATIC_INLINE void Cy_I2S_WriteTxData(I2S_Type * base, uint32_t data)
 716:Generated_Source\PSoC6\pdl\drivers\peripheral\i2s/cy_i2s.h **** {
 717:Generated_Source\PSoC6\pdl\drivers\peripheral\i2s/cy_i2s.h ****     base->TX_FIFO_WR = data;
 718:Generated_Source\PSoC6\pdl\drivers\peripheral\i2s/cy_i2s.h **** }
 719:Generated_Source\PSoC6\pdl\drivers\peripheral\i2s/cy_i2s.h **** 
 720:Generated_Source\PSoC6\pdl\drivers\peripheral\i2s/cy_i2s.h **** 
 721:Generated_Source\PSoC6\pdl\drivers\peripheral\i2s/cy_i2s.h **** /*******************************************************************************
 722:Generated_Source\PSoC6\pdl\drivers\peripheral\i2s/cy_i2s.h **** * Function Name: Cy_I2S_GetTxReadPointer
 723:Generated_Source\PSoC6\pdl\drivers\peripheral\i2s/cy_i2s.h **** ****************************************************************************//**
 724:Generated_Source\PSoC6\pdl\drivers\peripheral\i2s/cy_i2s.h **** *
 725:Generated_Source\PSoC6\pdl\drivers\peripheral\i2s/cy_i2s.h **** * Gets the TX FIFO Read pointer. This function is rather for debug purposes.
 726:Generated_Source\PSoC6\pdl\drivers\peripheral\i2s/cy_i2s.h **** *
 727:Generated_Source\PSoC6\pdl\drivers\peripheral\i2s/cy_i2s.h **** * \param base The pointer to the I2S instance address.
 728:Generated_Source\PSoC6\pdl\drivers\peripheral\i2s/cy_i2s.h **** *
 729:Generated_Source\PSoC6\pdl\drivers\peripheral\i2s/cy_i2s.h **** * \return The current TX Read pointer value.
 730:Generated_Source\PSoC6\pdl\drivers\peripheral\i2s/cy_i2s.h **** *
 731:Generated_Source\PSoC6\pdl\drivers\peripheral\i2s/cy_i2s.h **** * \funcusage
 732:Generated_Source\PSoC6\pdl\drivers\peripheral\i2s/cy_i2s.h **** * \snippet i2s/i2s_v2_0_sut_00.cydsn/main_cm4.c snippet_Cy_I2S_GetTxReadPointer
 733:Generated_Source\PSoC6\pdl\drivers\peripheral\i2s/cy_i2s.h **** *
 734:Generated_Source\PSoC6\pdl\drivers\peripheral\i2s/cy_i2s.h **** *******************************************************************************/
 735:Generated_Source\PSoC6\pdl\drivers\peripheral\i2s/cy_i2s.h **** __STATIC_INLINE uint8_t Cy_I2S_GetTxReadPointer(I2S_Type const * base)
 736:Generated_Source\PSoC6\pdl\drivers\peripheral\i2s/cy_i2s.h **** {
 737:Generated_Source\PSoC6\pdl\drivers\peripheral\i2s/cy_i2s.h ****     return ((uint8_t) _FLD2VAL(I2S_TX_FIFO_STATUS_RD_PTR, base->TX_FIFO_STATUS));
 738:Generated_Source\PSoC6\pdl\drivers\peripheral\i2s/cy_i2s.h **** }
 739:Generated_Source\PSoC6\pdl\drivers\peripheral\i2s/cy_i2s.h **** 
 740:Generated_Source\PSoC6\pdl\drivers\peripheral\i2s/cy_i2s.h **** 
 741:Generated_Source\PSoC6\pdl\drivers\peripheral\i2s/cy_i2s.h **** /*******************************************************************************
 742:Generated_Source\PSoC6\pdl\drivers\peripheral\i2s/cy_i2s.h **** * Function Name: Cy_I2S_GetTxWritePointer
 743:Generated_Source\PSoC6\pdl\drivers\peripheral\i2s/cy_i2s.h **** ****************************************************************************//**
 744:Generated_Source\PSoC6\pdl\drivers\peripheral\i2s/cy_i2s.h **** *
 745:Generated_Source\PSoC6\pdl\drivers\peripheral\i2s/cy_i2s.h **** * Gets the TX FIFO Write pointer. This function is rather for debug purposes.
 746:Generated_Source\PSoC6\pdl\drivers\peripheral\i2s/cy_i2s.h **** *
 747:Generated_Source\PSoC6\pdl\drivers\peripheral\i2s/cy_i2s.h **** * \param base The pointer to the I2S instance address.
 748:Generated_Source\PSoC6\pdl\drivers\peripheral\i2s/cy_i2s.h **** *
 749:Generated_Source\PSoC6\pdl\drivers\peripheral\i2s/cy_i2s.h **** * \return The current TX Write pointer value.
 750:Generated_Source\PSoC6\pdl\drivers\peripheral\i2s/cy_i2s.h **** *
 751:Generated_Source\PSoC6\pdl\drivers\peripheral\i2s/cy_i2s.h **** * \funcusage
 752:Generated_Source\PSoC6\pdl\drivers\peripheral\i2s/cy_i2s.h **** * \snippet i2s/i2s_v2_0_sut_00.cydsn/main_cm4.c snippet_Cy_I2S_GetTxWritePointer
 753:Generated_Source\PSoC6\pdl\drivers\peripheral\i2s/cy_i2s.h **** *
 754:Generated_Source\PSoC6\pdl\drivers\peripheral\i2s/cy_i2s.h **** *******************************************************************************/
 755:Generated_Source\PSoC6\pdl\drivers\peripheral\i2s/cy_i2s.h **** __STATIC_INLINE uint8_t Cy_I2S_GetTxWritePointer(I2S_Type const * base)
 756:Generated_Source\PSoC6\pdl\drivers\peripheral\i2s/cy_i2s.h **** {
 757:Generated_Source\PSoC6\pdl\drivers\peripheral\i2s/cy_i2s.h ****     return ((uint8_t) _FLD2VAL(I2S_TX_FIFO_STATUS_WR_PTR, base->TX_FIFO_STATUS));
 758:Generated_Source\PSoC6\pdl\drivers\peripheral\i2s/cy_i2s.h **** }
 759:Generated_Source\PSoC6\pdl\drivers\peripheral\i2s/cy_i2s.h **** 
ARM GAS  C:\Users\ikomb\AppData\Local\Temp\cchczmzd.s 			page 33


 760:Generated_Source\PSoC6\pdl\drivers\peripheral\i2s/cy_i2s.h **** 
 761:Generated_Source\PSoC6\pdl\drivers\peripheral\i2s/cy_i2s.h **** /*******************************************************************************
 762:Generated_Source\PSoC6\pdl\drivers\peripheral\i2s/cy_i2s.h **** * Function Name: Cy_I2S_FreezeTxFifo
 763:Generated_Source\PSoC6\pdl\drivers\peripheral\i2s/cy_i2s.h **** ****************************************************************************//**
 764:Generated_Source\PSoC6\pdl\drivers\peripheral\i2s/cy_i2s.h **** *
 765:Generated_Source\PSoC6\pdl\drivers\peripheral\i2s/cy_i2s.h **** * Freezes the TX FIFO. This function is rather for debug purposes.
 766:Generated_Source\PSoC6\pdl\drivers\peripheral\i2s/cy_i2s.h **** *
 767:Generated_Source\PSoC6\pdl\drivers\peripheral\i2s/cy_i2s.h **** * \param base The pointer to the I2S instance address.
 768:Generated_Source\PSoC6\pdl\drivers\peripheral\i2s/cy_i2s.h **** *
 769:Generated_Source\PSoC6\pdl\drivers\peripheral\i2s/cy_i2s.h **** * \funcusage
 770:Generated_Source\PSoC6\pdl\drivers\peripheral\i2s/cy_i2s.h **** * \snippet i2s/i2s_v2_0_sut_00.cydsn/main_cm4.c snippet_Cy_I2S_FreezeTxFifo
 771:Generated_Source\PSoC6\pdl\drivers\peripheral\i2s/cy_i2s.h **** *
 772:Generated_Source\PSoC6\pdl\drivers\peripheral\i2s/cy_i2s.h **** *******************************************************************************/
 773:Generated_Source\PSoC6\pdl\drivers\peripheral\i2s/cy_i2s.h **** __STATIC_INLINE void Cy_I2S_FreezeTxFifo(I2S_Type * base)
 774:Generated_Source\PSoC6\pdl\drivers\peripheral\i2s/cy_i2s.h **** {
 775:Generated_Source\PSoC6\pdl\drivers\peripheral\i2s/cy_i2s.h ****     base->TX_FIFO_CTL |= I2S_TX_FIFO_CTL_FREEZE_Msk;
 776:Generated_Source\PSoC6\pdl\drivers\peripheral\i2s/cy_i2s.h **** }
 777:Generated_Source\PSoC6\pdl\drivers\peripheral\i2s/cy_i2s.h **** 
 778:Generated_Source\PSoC6\pdl\drivers\peripheral\i2s/cy_i2s.h **** 
 779:Generated_Source\PSoC6\pdl\drivers\peripheral\i2s/cy_i2s.h **** /*******************************************************************************
 780:Generated_Source\PSoC6\pdl\drivers\peripheral\i2s/cy_i2s.h **** * Function Name: Cy_I2S_UnfreezeTxFifo
 781:Generated_Source\PSoC6\pdl\drivers\peripheral\i2s/cy_i2s.h **** ****************************************************************************//**
 782:Generated_Source\PSoC6\pdl\drivers\peripheral\i2s/cy_i2s.h **** *
 783:Generated_Source\PSoC6\pdl\drivers\peripheral\i2s/cy_i2s.h **** * Unfreezes the TX FIFO. This function is rather for debug purposes.
 784:Generated_Source\PSoC6\pdl\drivers\peripheral\i2s/cy_i2s.h **** *
 785:Generated_Source\PSoC6\pdl\drivers\peripheral\i2s/cy_i2s.h **** * \param base The pointer to the I2S instance address.
 786:Generated_Source\PSoC6\pdl\drivers\peripheral\i2s/cy_i2s.h **** *
 787:Generated_Source\PSoC6\pdl\drivers\peripheral\i2s/cy_i2s.h **** * \funcusage
 788:Generated_Source\PSoC6\pdl\drivers\peripheral\i2s/cy_i2s.h **** * \snippet i2s/i2s_v2_0_sut_00.cydsn/main_cm4.c snippet_Cy_I2S_UnfreezeTxFifo
 789:Generated_Source\PSoC6\pdl\drivers\peripheral\i2s/cy_i2s.h **** *
 790:Generated_Source\PSoC6\pdl\drivers\peripheral\i2s/cy_i2s.h **** *******************************************************************************/
 791:Generated_Source\PSoC6\pdl\drivers\peripheral\i2s/cy_i2s.h **** __STATIC_INLINE void Cy_I2S_UnfreezeTxFifo(I2S_Type * base)
 792:Generated_Source\PSoC6\pdl\drivers\peripheral\i2s/cy_i2s.h **** {
 793:Generated_Source\PSoC6\pdl\drivers\peripheral\i2s/cy_i2s.h ****     base->TX_FIFO_CTL &= (uint32_t) ~I2S_TX_FIFO_CTL_FREEZE_Msk;
 794:Generated_Source\PSoC6\pdl\drivers\peripheral\i2s/cy_i2s.h **** }
 795:Generated_Source\PSoC6\pdl\drivers\peripheral\i2s/cy_i2s.h **** 
 796:Generated_Source\PSoC6\pdl\drivers\peripheral\i2s/cy_i2s.h **** 
 797:Generated_Source\PSoC6\pdl\drivers\peripheral\i2s/cy_i2s.h **** /*******************************************************************************
 798:Generated_Source\PSoC6\pdl\drivers\peripheral\i2s/cy_i2s.h **** * Function Name: Cy_I2S_ClearRxFifo
 799:Generated_Source\PSoC6\pdl\drivers\peripheral\i2s/cy_i2s.h **** ****************************************************************************//**
 800:Generated_Source\PSoC6\pdl\drivers\peripheral\i2s/cy_i2s.h **** *
 801:Generated_Source\PSoC6\pdl\drivers\peripheral\i2s/cy_i2s.h **** * Clears the RX FIFO (resets the Read/Write FIFO pointers).
 802:Generated_Source\PSoC6\pdl\drivers\peripheral\i2s/cy_i2s.h **** *
 803:Generated_Source\PSoC6\pdl\drivers\peripheral\i2s/cy_i2s.h **** * \param base The pointer to the I2S instance address.
 804:Generated_Source\PSoC6\pdl\drivers\peripheral\i2s/cy_i2s.h **** *
 805:Generated_Source\PSoC6\pdl\drivers\peripheral\i2s/cy_i2s.h **** * \funcusage
 806:Generated_Source\PSoC6\pdl\drivers\peripheral\i2s/cy_i2s.h **** * \snippet i2s/i2s_v2_0_sut_00.cydsn/main_cm4.c snippet_Cy_I2S_ClearRxFifo
 807:Generated_Source\PSoC6\pdl\drivers\peripheral\i2s/cy_i2s.h **** *
 808:Generated_Source\PSoC6\pdl\drivers\peripheral\i2s/cy_i2s.h **** *******************************************************************************/
 809:Generated_Source\PSoC6\pdl\drivers\peripheral\i2s/cy_i2s.h **** __STATIC_INLINE void Cy_I2S_ClearRxFifo(I2S_Type * base)
 810:Generated_Source\PSoC6\pdl\drivers\peripheral\i2s/cy_i2s.h **** {
 811:Generated_Source\PSoC6\pdl\drivers\peripheral\i2s/cy_i2s.h ****     base->RX_FIFO_CTL |= I2S_RX_FIFO_CTL_CLEAR_Msk;
 812:Generated_Source\PSoC6\pdl\drivers\peripheral\i2s/cy_i2s.h ****     base->RX_FIFO_CTL &= (uint32_t) ~I2S_RX_FIFO_CTL_CLEAR_Msk;
 813:Generated_Source\PSoC6\pdl\drivers\peripheral\i2s/cy_i2s.h ****     (void) base->RX_FIFO_CTL;
 814:Generated_Source\PSoC6\pdl\drivers\peripheral\i2s/cy_i2s.h **** }
 815:Generated_Source\PSoC6\pdl\drivers\peripheral\i2s/cy_i2s.h **** 
 816:Generated_Source\PSoC6\pdl\drivers\peripheral\i2s/cy_i2s.h **** 
ARM GAS  C:\Users\ikomb\AppData\Local\Temp\cchczmzd.s 			page 34


 817:Generated_Source\PSoC6\pdl\drivers\peripheral\i2s/cy_i2s.h **** /*******************************************************************************
 818:Generated_Source\PSoC6\pdl\drivers\peripheral\i2s/cy_i2s.h **** * Function Name: Cy_I2S_GetNumInRxFifo
 819:Generated_Source\PSoC6\pdl\drivers\peripheral\i2s/cy_i2s.h **** ****************************************************************************//**
 820:Generated_Source\PSoC6\pdl\drivers\peripheral\i2s/cy_i2s.h **** *
 821:Generated_Source\PSoC6\pdl\drivers\peripheral\i2s/cy_i2s.h **** * Gets the number of used words in the RX FIFO.
 822:Generated_Source\PSoC6\pdl\drivers\peripheral\i2s/cy_i2s.h **** *
 823:Generated_Source\PSoC6\pdl\drivers\peripheral\i2s/cy_i2s.h **** * \param base The pointer to the I2S instance address.
 824:Generated_Source\PSoC6\pdl\drivers\peripheral\i2s/cy_i2s.h **** *
 825:Generated_Source\PSoC6\pdl\drivers\peripheral\i2s/cy_i2s.h **** * \return The current number of used words in rge RX FIFO.
 826:Generated_Source\PSoC6\pdl\drivers\peripheral\i2s/cy_i2s.h **** *
 827:Generated_Source\PSoC6\pdl\drivers\peripheral\i2s/cy_i2s.h **** * \funcusage
 828:Generated_Source\PSoC6\pdl\drivers\peripheral\i2s/cy_i2s.h **** * \snippet i2s/i2s_v2_0_sut_00.cydsn/main_cm4.c snippet_Cy_I2S_GetNumInRxFifo
 829:Generated_Source\PSoC6\pdl\drivers\peripheral\i2s/cy_i2s.h **** *
 830:Generated_Source\PSoC6\pdl\drivers\peripheral\i2s/cy_i2s.h **** *******************************************************************************/
 831:Generated_Source\PSoC6\pdl\drivers\peripheral\i2s/cy_i2s.h **** __STATIC_INLINE uint32_t Cy_I2S_GetNumInRxFifo(I2S_Type const * base)
 832:Generated_Source\PSoC6\pdl\drivers\peripheral\i2s/cy_i2s.h **** {
 833:Generated_Source\PSoC6\pdl\drivers\peripheral\i2s/cy_i2s.h ****     return (_FLD2VAL(I2S_RX_FIFO_STATUS_USED, base->RX_FIFO_STATUS));
 834:Generated_Source\PSoC6\pdl\drivers\peripheral\i2s/cy_i2s.h **** }
 835:Generated_Source\PSoC6\pdl\drivers\peripheral\i2s/cy_i2s.h **** 
 836:Generated_Source\PSoC6\pdl\drivers\peripheral\i2s/cy_i2s.h **** 
 837:Generated_Source\PSoC6\pdl\drivers\peripheral\i2s/cy_i2s.h **** /*******************************************************************************
 838:Generated_Source\PSoC6\pdl\drivers\peripheral\i2s/cy_i2s.h **** * Function Name: Cy_I2S_ReadRxData
 839:Generated_Source\PSoC6\pdl\drivers\peripheral\i2s/cy_i2s.h **** ****************************************************************************//**
 840:Generated_Source\PSoC6\pdl\drivers\peripheral\i2s/cy_i2s.h **** *
 841:Generated_Source\PSoC6\pdl\drivers\peripheral\i2s/cy_i2s.h **** * Reads data from the RX FIFO. Decreases the RX FIFO level.
 842:Generated_Source\PSoC6\pdl\drivers\peripheral\i2s/cy_i2s.h **** *
 843:Generated_Source\PSoC6\pdl\drivers\peripheral\i2s/cy_i2s.h **** * \param base The pointer to the I2S instance address.
 844:Generated_Source\PSoC6\pdl\drivers\peripheral\i2s/cy_i2s.h **** *
 845:Generated_Source\PSoC6\pdl\drivers\peripheral\i2s/cy_i2s.h **** * \return The read data.
 846:Generated_Source\PSoC6\pdl\drivers\peripheral\i2s/cy_i2s.h **** *
 847:Generated_Source\PSoC6\pdl\drivers\peripheral\i2s/cy_i2s.h **** * \funcusage
 848:Generated_Source\PSoC6\pdl\drivers\peripheral\i2s/cy_i2s.h **** * \snippet i2s/i2s_v2_0_sut_00.cydsn/main_cm4.c snippet_Cy_I2S_ReadRxData
 849:Generated_Source\PSoC6\pdl\drivers\peripheral\i2s/cy_i2s.h **** *
 850:Generated_Source\PSoC6\pdl\drivers\peripheral\i2s/cy_i2s.h **** *******************************************************************************/
 851:Generated_Source\PSoC6\pdl\drivers\peripheral\i2s/cy_i2s.h **** __STATIC_INLINE uint32_t Cy_I2S_ReadRxData(I2S_Type const * base)
 852:Generated_Source\PSoC6\pdl\drivers\peripheral\i2s/cy_i2s.h **** {
 853:Generated_Source\PSoC6\pdl\drivers\peripheral\i2s/cy_i2s.h ****     return (base->RX_FIFO_RD);
 854:Generated_Source\PSoC6\pdl\drivers\peripheral\i2s/cy_i2s.h **** }
 855:Generated_Source\PSoC6\pdl\drivers\peripheral\i2s/cy_i2s.h **** 
 856:Generated_Source\PSoC6\pdl\drivers\peripheral\i2s/cy_i2s.h **** 
 857:Generated_Source\PSoC6\pdl\drivers\peripheral\i2s/cy_i2s.h **** /*******************************************************************************
 858:Generated_Source\PSoC6\pdl\drivers\peripheral\i2s/cy_i2s.h **** * Function Name: Cy_I2S_ReadRxDataSilent
 859:Generated_Source\PSoC6\pdl\drivers\peripheral\i2s/cy_i2s.h **** ****************************************************************************//**
 860:Generated_Source\PSoC6\pdl\drivers\peripheral\i2s/cy_i2s.h **** *
 861:Generated_Source\PSoC6\pdl\drivers\peripheral\i2s/cy_i2s.h **** * Reads data from the RX FIFO without updating the RX FIFO read pointer.
 862:Generated_Source\PSoC6\pdl\drivers\peripheral\i2s/cy_i2s.h **** * This function is rather for debug purposes.
 863:Generated_Source\PSoC6\pdl\drivers\peripheral\i2s/cy_i2s.h **** *
 864:Generated_Source\PSoC6\pdl\drivers\peripheral\i2s/cy_i2s.h **** * \param base The pointer to the I2S instance address.
 865:Generated_Source\PSoC6\pdl\drivers\peripheral\i2s/cy_i2s.h **** *
 866:Generated_Source\PSoC6\pdl\drivers\peripheral\i2s/cy_i2s.h **** * \return The read data.
 867:Generated_Source\PSoC6\pdl\drivers\peripheral\i2s/cy_i2s.h **** *
 868:Generated_Source\PSoC6\pdl\drivers\peripheral\i2s/cy_i2s.h **** * \funcusage
 869:Generated_Source\PSoC6\pdl\drivers\peripheral\i2s/cy_i2s.h **** * \snippet i2s/i2s_v2_0_sut_00.cydsn/main_cm4.c snippet_Cy_I2S_ReadRxDataSilent
 870:Generated_Source\PSoC6\pdl\drivers\peripheral\i2s/cy_i2s.h **** *
 871:Generated_Source\PSoC6\pdl\drivers\peripheral\i2s/cy_i2s.h **** *******************************************************************************/
 872:Generated_Source\PSoC6\pdl\drivers\peripheral\i2s/cy_i2s.h **** __STATIC_INLINE uint32_t Cy_I2S_ReadRxDataSilent(I2S_Type const * base)
 873:Generated_Source\PSoC6\pdl\drivers\peripheral\i2s/cy_i2s.h **** {
ARM GAS  C:\Users\ikomb\AppData\Local\Temp\cchczmzd.s 			page 35


 874:Generated_Source\PSoC6\pdl\drivers\peripheral\i2s/cy_i2s.h ****     return (base->RX_FIFO_RD_SILENT);
 875:Generated_Source\PSoC6\pdl\drivers\peripheral\i2s/cy_i2s.h **** }
 876:Generated_Source\PSoC6\pdl\drivers\peripheral\i2s/cy_i2s.h **** 
 877:Generated_Source\PSoC6\pdl\drivers\peripheral\i2s/cy_i2s.h **** 
 878:Generated_Source\PSoC6\pdl\drivers\peripheral\i2s/cy_i2s.h **** /*******************************************************************************
 879:Generated_Source\PSoC6\pdl\drivers\peripheral\i2s/cy_i2s.h **** * Function Name: Cy_I2S_GetRxReadPointer
 880:Generated_Source\PSoC6\pdl\drivers\peripheral\i2s/cy_i2s.h **** ****************************************************************************//**
 881:Generated_Source\PSoC6\pdl\drivers\peripheral\i2s/cy_i2s.h **** *
 882:Generated_Source\PSoC6\pdl\drivers\peripheral\i2s/cy_i2s.h **** * Gets the RX FIFO Read pointer. This function is rather for debug purposes.
 883:Generated_Source\PSoC6\pdl\drivers\peripheral\i2s/cy_i2s.h **** *
 884:Generated_Source\PSoC6\pdl\drivers\peripheral\i2s/cy_i2s.h **** * \param base The pointer to the I2S instance address.
 885:Generated_Source\PSoC6\pdl\drivers\peripheral\i2s/cy_i2s.h **** *
 886:Generated_Source\PSoC6\pdl\drivers\peripheral\i2s/cy_i2s.h **** * \return The current RX Read pointer value.
 887:Generated_Source\PSoC6\pdl\drivers\peripheral\i2s/cy_i2s.h **** *
 888:Generated_Source\PSoC6\pdl\drivers\peripheral\i2s/cy_i2s.h **** * \funcusage
 889:Generated_Source\PSoC6\pdl\drivers\peripheral\i2s/cy_i2s.h **** * \snippet i2s/i2s_v2_0_sut_00.cydsn/main_cm4.c snippet_Cy_I2S_GetRxReadPointer
 890:Generated_Source\PSoC6\pdl\drivers\peripheral\i2s/cy_i2s.h **** *
 891:Generated_Source\PSoC6\pdl\drivers\peripheral\i2s/cy_i2s.h **** *******************************************************************************/
 892:Generated_Source\PSoC6\pdl\drivers\peripheral\i2s/cy_i2s.h **** __STATIC_INLINE uint8_t Cy_I2S_GetRxReadPointer(I2S_Type const * base)
 893:Generated_Source\PSoC6\pdl\drivers\peripheral\i2s/cy_i2s.h **** {
 894:Generated_Source\PSoC6\pdl\drivers\peripheral\i2s/cy_i2s.h ****     return ((uint8_t) _FLD2VAL(I2S_RX_FIFO_STATUS_RD_PTR, base->RX_FIFO_STATUS));
 895:Generated_Source\PSoC6\pdl\drivers\peripheral\i2s/cy_i2s.h **** }
 896:Generated_Source\PSoC6\pdl\drivers\peripheral\i2s/cy_i2s.h **** 
 897:Generated_Source\PSoC6\pdl\drivers\peripheral\i2s/cy_i2s.h **** 
 898:Generated_Source\PSoC6\pdl\drivers\peripheral\i2s/cy_i2s.h **** /*******************************************************************************
 899:Generated_Source\PSoC6\pdl\drivers\peripheral\i2s/cy_i2s.h **** * Function Name: Cy_I2S_GetRxWritePointer
 900:Generated_Source\PSoC6\pdl\drivers\peripheral\i2s/cy_i2s.h **** ****************************************************************************//**
 901:Generated_Source\PSoC6\pdl\drivers\peripheral\i2s/cy_i2s.h **** *
 902:Generated_Source\PSoC6\pdl\drivers\peripheral\i2s/cy_i2s.h **** * Gets the RX FIFO Write pointer. This function is rather for debug purposes.
 903:Generated_Source\PSoC6\pdl\drivers\peripheral\i2s/cy_i2s.h **** *
 904:Generated_Source\PSoC6\pdl\drivers\peripheral\i2s/cy_i2s.h **** * \param base The pointer to the I2S instance address.
 905:Generated_Source\PSoC6\pdl\drivers\peripheral\i2s/cy_i2s.h **** *
 906:Generated_Source\PSoC6\pdl\drivers\peripheral\i2s/cy_i2s.h **** * \return The current RX Write pointer value.
 907:Generated_Source\PSoC6\pdl\drivers\peripheral\i2s/cy_i2s.h **** *
 908:Generated_Source\PSoC6\pdl\drivers\peripheral\i2s/cy_i2s.h **** * \funcusage
 909:Generated_Source\PSoC6\pdl\drivers\peripheral\i2s/cy_i2s.h **** * \snippet i2s/i2s_v2_0_sut_00.cydsn/main_cm4.c snippet_Cy_I2S_GetRxWritePointer
 910:Generated_Source\PSoC6\pdl\drivers\peripheral\i2s/cy_i2s.h **** *
 911:Generated_Source\PSoC6\pdl\drivers\peripheral\i2s/cy_i2s.h **** *******************************************************************************/
 912:Generated_Source\PSoC6\pdl\drivers\peripheral\i2s/cy_i2s.h **** __STATIC_INLINE uint8_t Cy_I2S_GetRxWritePointer(I2S_Type const * base)
 913:Generated_Source\PSoC6\pdl\drivers\peripheral\i2s/cy_i2s.h **** {
 914:Generated_Source\PSoC6\pdl\drivers\peripheral\i2s/cy_i2s.h ****     return ((uint8_t) _FLD2VAL(I2S_RX_FIFO_STATUS_WR_PTR, base->RX_FIFO_STATUS));
 915:Generated_Source\PSoC6\pdl\drivers\peripheral\i2s/cy_i2s.h **** }
 916:Generated_Source\PSoC6\pdl\drivers\peripheral\i2s/cy_i2s.h **** 
 917:Generated_Source\PSoC6\pdl\drivers\peripheral\i2s/cy_i2s.h **** 
 918:Generated_Source\PSoC6\pdl\drivers\peripheral\i2s/cy_i2s.h **** /*******************************************************************************
 919:Generated_Source\PSoC6\pdl\drivers\peripheral\i2s/cy_i2s.h **** * Function Name: Cy_I2S_FreezeRxFifo
 920:Generated_Source\PSoC6\pdl\drivers\peripheral\i2s/cy_i2s.h **** ****************************************************************************//**
 921:Generated_Source\PSoC6\pdl\drivers\peripheral\i2s/cy_i2s.h **** *
 922:Generated_Source\PSoC6\pdl\drivers\peripheral\i2s/cy_i2s.h **** * Freezes the RX FIFO. This function is rather for debug purposes.
 923:Generated_Source\PSoC6\pdl\drivers\peripheral\i2s/cy_i2s.h **** *
 924:Generated_Source\PSoC6\pdl\drivers\peripheral\i2s/cy_i2s.h **** * \param base The pointer to the I2S instance address.
 925:Generated_Source\PSoC6\pdl\drivers\peripheral\i2s/cy_i2s.h **** *
 926:Generated_Source\PSoC6\pdl\drivers\peripheral\i2s/cy_i2s.h **** * \funcusage
 927:Generated_Source\PSoC6\pdl\drivers\peripheral\i2s/cy_i2s.h **** * \snippet i2s/i2s_v2_0_sut_00.cydsn/main_cm4.c snippet_Cy_I2S_FreezeRxFifo
 928:Generated_Source\PSoC6\pdl\drivers\peripheral\i2s/cy_i2s.h **** *
 929:Generated_Source\PSoC6\pdl\drivers\peripheral\i2s/cy_i2s.h **** *******************************************************************************/
 930:Generated_Source\PSoC6\pdl\drivers\peripheral\i2s/cy_i2s.h **** __STATIC_INLINE void Cy_I2S_FreezeRxFifo(I2S_Type * base)
ARM GAS  C:\Users\ikomb\AppData\Local\Temp\cchczmzd.s 			page 36


 931:Generated_Source\PSoC6\pdl\drivers\peripheral\i2s/cy_i2s.h **** {
 932:Generated_Source\PSoC6\pdl\drivers\peripheral\i2s/cy_i2s.h ****     base->RX_FIFO_CTL |= I2S_RX_FIFO_CTL_FREEZE_Msk;
 933:Generated_Source\PSoC6\pdl\drivers\peripheral\i2s/cy_i2s.h **** }
 934:Generated_Source\PSoC6\pdl\drivers\peripheral\i2s/cy_i2s.h **** 
 935:Generated_Source\PSoC6\pdl\drivers\peripheral\i2s/cy_i2s.h **** 
 936:Generated_Source\PSoC6\pdl\drivers\peripheral\i2s/cy_i2s.h **** /*******************************************************************************
 937:Generated_Source\PSoC6\pdl\drivers\peripheral\i2s/cy_i2s.h **** * Function Name: Cy_I2S_UnfreezeRxFifo
 938:Generated_Source\PSoC6\pdl\drivers\peripheral\i2s/cy_i2s.h **** ****************************************************************************//**
 939:Generated_Source\PSoC6\pdl\drivers\peripheral\i2s/cy_i2s.h **** *
 940:Generated_Source\PSoC6\pdl\drivers\peripheral\i2s/cy_i2s.h **** * Unfreezes the RX FIFO. This function is rather for debug purposes.
 941:Generated_Source\PSoC6\pdl\drivers\peripheral\i2s/cy_i2s.h **** *
 942:Generated_Source\PSoC6\pdl\drivers\peripheral\i2s/cy_i2s.h **** * \param base The pointer to the I2S instance address.
 943:Generated_Source\PSoC6\pdl\drivers\peripheral\i2s/cy_i2s.h **** *
 944:Generated_Source\PSoC6\pdl\drivers\peripheral\i2s/cy_i2s.h **** * \funcusage
 945:Generated_Source\PSoC6\pdl\drivers\peripheral\i2s/cy_i2s.h **** * \snippet i2s/i2s_v2_0_sut_00.cydsn/main_cm4.c snippet_Cy_I2S_UnfreezeRxFifo
 946:Generated_Source\PSoC6\pdl\drivers\peripheral\i2s/cy_i2s.h **** *
 947:Generated_Source\PSoC6\pdl\drivers\peripheral\i2s/cy_i2s.h **** *******************************************************************************/
 948:Generated_Source\PSoC6\pdl\drivers\peripheral\i2s/cy_i2s.h **** __STATIC_INLINE void Cy_I2S_UnfreezeRxFifo(I2S_Type * base)
 949:Generated_Source\PSoC6\pdl\drivers\peripheral\i2s/cy_i2s.h **** {
 950:Generated_Source\PSoC6\pdl\drivers\peripheral\i2s/cy_i2s.h ****     base->RX_FIFO_CTL &= (uint32_t) ~I2S_RX_FIFO_CTL_FREEZE_Msk;
 951:Generated_Source\PSoC6\pdl\drivers\peripheral\i2s/cy_i2s.h **** }
 952:Generated_Source\PSoC6\pdl\drivers\peripheral\i2s/cy_i2s.h **** 
 953:Generated_Source\PSoC6\pdl\drivers\peripheral\i2s/cy_i2s.h **** 
 954:Generated_Source\PSoC6\pdl\drivers\peripheral\i2s/cy_i2s.h **** /*******************************************************************************
 955:Generated_Source\PSoC6\pdl\drivers\peripheral\i2s/cy_i2s.h **** * Function Name: Cy_I2S_GetInterruptStatus
 956:Generated_Source\PSoC6\pdl\drivers\peripheral\i2s/cy_i2s.h **** ****************************************************************************//**
 957:Generated_Source\PSoC6\pdl\drivers\peripheral\i2s/cy_i2s.h **** *
 958:Generated_Source\PSoC6\pdl\drivers\peripheral\i2s/cy_i2s.h **** * Gets an interrupt status (returns a content of the INTR register).
 959:Generated_Source\PSoC6\pdl\drivers\peripheral\i2s/cy_i2s.h **** *
 960:Generated_Source\PSoC6\pdl\drivers\peripheral\i2s/cy_i2s.h **** * \param base The pointer to the I2S instance address.
 961:Generated_Source\PSoC6\pdl\drivers\peripheral\i2s/cy_i2s.h **** *
 962:Generated_Source\PSoC6\pdl\drivers\peripheral\i2s/cy_i2s.h **** * \return The interrupt bit mask \ref group_i2s_macros_intrerrupt_masks.
 963:Generated_Source\PSoC6\pdl\drivers\peripheral\i2s/cy_i2s.h **** *
 964:Generated_Source\PSoC6\pdl\drivers\peripheral\i2s/cy_i2s.h **** * \funcusage
 965:Generated_Source\PSoC6\pdl\drivers\peripheral\i2s/cy_i2s.h **** * \snippet i2s/i2s_v2_0_sut_00.cydsn/main_cm4.c snippet_Cy_I2S_GetInterruptStatus
 966:Generated_Source\PSoC6\pdl\drivers\peripheral\i2s/cy_i2s.h **** *
 967:Generated_Source\PSoC6\pdl\drivers\peripheral\i2s/cy_i2s.h **** *******************************************************************************/
 968:Generated_Source\PSoC6\pdl\drivers\peripheral\i2s/cy_i2s.h **** __STATIC_INLINE uint32_t Cy_I2S_GetInterruptStatus(I2S_Type const * base)
 969:Generated_Source\PSoC6\pdl\drivers\peripheral\i2s/cy_i2s.h **** {
 970:Generated_Source\PSoC6\pdl\drivers\peripheral\i2s/cy_i2s.h ****     return (base->INTR);
 971:Generated_Source\PSoC6\pdl\drivers\peripheral\i2s/cy_i2s.h **** }
 972:Generated_Source\PSoC6\pdl\drivers\peripheral\i2s/cy_i2s.h **** 
 973:Generated_Source\PSoC6\pdl\drivers\peripheral\i2s/cy_i2s.h **** 
 974:Generated_Source\PSoC6\pdl\drivers\peripheral\i2s/cy_i2s.h **** /*******************************************************************************
 975:Generated_Source\PSoC6\pdl\drivers\peripheral\i2s/cy_i2s.h **** * Function Name: Cy_I2S_ClearInterrupt
 976:Generated_Source\PSoC6\pdl\drivers\peripheral\i2s/cy_i2s.h **** ****************************************************************************//**
 977:Generated_Source\PSoC6\pdl\drivers\peripheral\i2s/cy_i2s.h **** *
 978:Generated_Source\PSoC6\pdl\drivers\peripheral\i2s/cy_i2s.h **** * Clears one or more interrupt factors (sets the INTR register).
 979:Generated_Source\PSoC6\pdl\drivers\peripheral\i2s/cy_i2s.h **** *
 980:Generated_Source\PSoC6\pdl\drivers\peripheral\i2s/cy_i2s.h **** * \param base      The pointer to the I2S instance address.
 981:Generated_Source\PSoC6\pdl\drivers\peripheral\i2s/cy_i2s.h **** *
 982:Generated_Source\PSoC6\pdl\drivers\peripheral\i2s/cy_i2s.h **** * \param interrupt Interrupt bit mask \ref group_i2s_macros_intrerrupt_masks.
 983:Generated_Source\PSoC6\pdl\drivers\peripheral\i2s/cy_i2s.h **** *
 984:Generated_Source\PSoC6\pdl\drivers\peripheral\i2s/cy_i2s.h **** * \funcusage
 985:Generated_Source\PSoC6\pdl\drivers\peripheral\i2s/cy_i2s.h **** * \snippet i2s/i2s_v2_0_sut_00.cydsn/main_cm4.c snippet_Cy_I2S_ClearInterrupt
 986:Generated_Source\PSoC6\pdl\drivers\peripheral\i2s/cy_i2s.h **** *
 987:Generated_Source\PSoC6\pdl\drivers\peripheral\i2s/cy_i2s.h **** *******************************************************************************/
ARM GAS  C:\Users\ikomb\AppData\Local\Temp\cchczmzd.s 			page 37


 988:Generated_Source\PSoC6\pdl\drivers\peripheral\i2s/cy_i2s.h **** __STATIC_INLINE void Cy_I2S_ClearInterrupt(I2S_Type * base, uint32_t interrupt)
 989:Generated_Source\PSoC6\pdl\drivers\peripheral\i2s/cy_i2s.h **** {
 990:Generated_Source\PSoC6\pdl\drivers\peripheral\i2s/cy_i2s.h ****     CY_ASSERT_L2(CY_I2S_IS_INTR_MASK_VALID(interrupt));
 991:Generated_Source\PSoC6\pdl\drivers\peripheral\i2s/cy_i2s.h ****     base->INTR = interrupt;
 992:Generated_Source\PSoC6\pdl\drivers\peripheral\i2s/cy_i2s.h ****     (void) base->INTR;
 993:Generated_Source\PSoC6\pdl\drivers\peripheral\i2s/cy_i2s.h **** }
 994:Generated_Source\PSoC6\pdl\drivers\peripheral\i2s/cy_i2s.h **** 
 995:Generated_Source\PSoC6\pdl\drivers\peripheral\i2s/cy_i2s.h **** 
 996:Generated_Source\PSoC6\pdl\drivers\peripheral\i2s/cy_i2s.h **** /*******************************************************************************
 997:Generated_Source\PSoC6\pdl\drivers\peripheral\i2s/cy_i2s.h **** * Function Name: Cy_I2S_SetInterrupt
 998:Generated_Source\PSoC6\pdl\drivers\peripheral\i2s/cy_i2s.h **** ****************************************************************************//**
 999:Generated_Source\PSoC6\pdl\drivers\peripheral\i2s/cy_i2s.h **** *
1000:Generated_Source\PSoC6\pdl\drivers\peripheral\i2s/cy_i2s.h **** * Sets one or more interrupt factors (sets the INTR_SET register).
1001:Generated_Source\PSoC6\pdl\drivers\peripheral\i2s/cy_i2s.h **** *
1002:Generated_Source\PSoC6\pdl\drivers\peripheral\i2s/cy_i2s.h **** * \param base      The pointer to the I2S instance address.
1003:Generated_Source\PSoC6\pdl\drivers\peripheral\i2s/cy_i2s.h **** *
1004:Generated_Source\PSoC6\pdl\drivers\peripheral\i2s/cy_i2s.h **** * \param interrupt Interrupt bit mask \ref group_i2s_macros_intrerrupt_masks.
1005:Generated_Source\PSoC6\pdl\drivers\peripheral\i2s/cy_i2s.h **** *
1006:Generated_Source\PSoC6\pdl\drivers\peripheral\i2s/cy_i2s.h **** * \funcusage
1007:Generated_Source\PSoC6\pdl\drivers\peripheral\i2s/cy_i2s.h **** * \snippet i2s/i2s_v2_0_sut_00.cydsn/main_cm4.c snippet_Cy_I2S_SetInterrupt
1008:Generated_Source\PSoC6\pdl\drivers\peripheral\i2s/cy_i2s.h **** *
1009:Generated_Source\PSoC6\pdl\drivers\peripheral\i2s/cy_i2s.h **** *******************************************************************************/
1010:Generated_Source\PSoC6\pdl\drivers\peripheral\i2s/cy_i2s.h **** __STATIC_INLINE void Cy_I2S_SetInterrupt(I2S_Type * base, uint32_t interrupt)
1011:Generated_Source\PSoC6\pdl\drivers\peripheral\i2s/cy_i2s.h **** {
1012:Generated_Source\PSoC6\pdl\drivers\peripheral\i2s/cy_i2s.h ****     CY_ASSERT_L2(CY_I2S_IS_INTR_MASK_VALID(interrupt));
1013:Generated_Source\PSoC6\pdl\drivers\peripheral\i2s/cy_i2s.h ****     base->INTR_SET = interrupt;
1014:Generated_Source\PSoC6\pdl\drivers\peripheral\i2s/cy_i2s.h **** }
1015:Generated_Source\PSoC6\pdl\drivers\peripheral\i2s/cy_i2s.h **** 
1016:Generated_Source\PSoC6\pdl\drivers\peripheral\i2s/cy_i2s.h **** 
1017:Generated_Source\PSoC6\pdl\drivers\peripheral\i2s/cy_i2s.h **** /*******************************************************************************
1018:Generated_Source\PSoC6\pdl\drivers\peripheral\i2s/cy_i2s.h **** * Function Name: Cy_I2S_GetInterruptMask
1019:Generated_Source\PSoC6\pdl\drivers\peripheral\i2s/cy_i2s.h **** ****************************************************************************//**
1020:Generated_Source\PSoC6\pdl\drivers\peripheral\i2s/cy_i2s.h **** *
1021:Generated_Source\PSoC6\pdl\drivers\peripheral\i2s/cy_i2s.h **** * Returns the interrupt mask (a content of the INTR_MASK register).
1022:Generated_Source\PSoC6\pdl\drivers\peripheral\i2s/cy_i2s.h **** *
1023:Generated_Source\PSoC6\pdl\drivers\peripheral\i2s/cy_i2s.h **** * \param base The pointer to the I2S instance address.
1024:Generated_Source\PSoC6\pdl\drivers\peripheral\i2s/cy_i2s.h **** *
1025:Generated_Source\PSoC6\pdl\drivers\peripheral\i2s/cy_i2s.h **** * \return The interrupt bit mask \ref group_i2s_macros_intrerrupt_masks.
1026:Generated_Source\PSoC6\pdl\drivers\peripheral\i2s/cy_i2s.h **** *
1027:Generated_Source\PSoC6\pdl\drivers\peripheral\i2s/cy_i2s.h **** * \funcusage
1028:Generated_Source\PSoC6\pdl\drivers\peripheral\i2s/cy_i2s.h **** * \snippet i2s/i2s_v2_0_sut_00.cydsn/main_cm4.c snippet_Cy_I2S_GetInterruptMask
1029:Generated_Source\PSoC6\pdl\drivers\peripheral\i2s/cy_i2s.h **** *
1030:Generated_Source\PSoC6\pdl\drivers\peripheral\i2s/cy_i2s.h **** *******************************************************************************/
1031:Generated_Source\PSoC6\pdl\drivers\peripheral\i2s/cy_i2s.h **** __STATIC_INLINE uint32_t Cy_I2S_GetInterruptMask(I2S_Type const * base)
1032:Generated_Source\PSoC6\pdl\drivers\peripheral\i2s/cy_i2s.h **** {
1033:Generated_Source\PSoC6\pdl\drivers\peripheral\i2s/cy_i2s.h ****     return (base->INTR_MASK);
 796              		.loc 2 1033 0
 797 0032 334B     		ldr	r3, .L80+4
 798 0034 E358     		ldr	r3, [r4, r3]
 799              	.LVL56:
 800              	.LBE33:
 801              	.LBE32:
 234:Generated_Source\PSoC6\pdl\drivers\peripheral\i2s/cy_i2s.c ****     {
 235:Generated_Source\PSoC6\pdl\drivers\peripheral\i2s/cy_i2s.c ****         case CY_SYSPM_CHECK_READY:            
 236:Generated_Source\PSoC6\pdl\drivers\peripheral\i2s/cy_i2s.c ****         case CY_SYSPM_CHECK_FAIL:
 237:Generated_Source\PSoC6\pdl\drivers\peripheral\i2s/cy_i2s.c ****             break;
 238:Generated_Source\PSoC6\pdl\drivers\peripheral\i2s/cy_i2s.c ****         
ARM GAS  C:\Users\ikomb\AppData\Local\Temp\cchczmzd.s 			page 38


 239:Generated_Source\PSoC6\pdl\drivers\peripheral\i2s/cy_i2s.c ****         case CY_SYSPM_BEFORE_TRANSITION:
 240:Generated_Source\PSoC6\pdl\drivers\peripheral\i2s/cy_i2s.c ****             *locInterruptMask = Cy_I2S_GetInterruptMask(locBase); /* Store I2S interrupts */
 802              		.loc 1 240 0
 803 0036 7360     		str	r3, [r6, #4]
 804              	.LVL57:
 805              	.LBB34:
 806              	.LBB35:
 657:Generated_Source\PSoC6\pdl\drivers\peripheral\i2s/cy_i2s.h **** }
 807              		.loc 2 657 0
 808 0038 226A     		ldr	r2, [r4, #32]
 809 003a 324B     		ldr	r3, .L80+8
 810 003c 1340     		ands	r3, r2
 811              	.LVL58:
 812              	.LBE35:
 813              	.LBE34:
 241:Generated_Source\PSoC6\pdl\drivers\peripheral\i2s/cy_i2s.c ****             *locState = Cy_I2S_GetCurrentState(locBase); /* Store I2S state */
 814              		.loc 1 241 0
 815 003e 3360     		str	r3, [r6]
 242:Generated_Source\PSoC6\pdl\drivers\peripheral\i2s/cy_i2s.c ****             if (0UL != (*locState & I2S_CMD_TX_START_Msk))
 816              		.loc 1 242 0
 817 0040 DB07     		lsls	r3, r3, #31
 818 0042 03D5     		bpl	.L71
 819              	.LVL59:
 820              	.LBB36:
 821              	.LBB37:
 594:Generated_Source\PSoC6\pdl\drivers\peripheral\i2s/cy_i2s.h **** }
 822              		.loc 2 594 0
 823 0044 236A     		ldr	r3, [r4, #32]
 824 0046 0122     		movs	r2, #1
 825 0048 9343     		bics	r3, r2
 826 004a 2362     		str	r3, [r4, #32]
 827              	.LVL60:
 828              	.L71:
 829              	.LBE37:
 830              	.LBE36:
 243:Generated_Source\PSoC6\pdl\drivers\peripheral\i2s/cy_i2s.c ****             {
 244:Generated_Source\PSoC6\pdl\drivers\peripheral\i2s/cy_i2s.c ****                 Cy_I2S_DisableTx(locBase); /* Stop TX operation */
 245:Generated_Source\PSoC6\pdl\drivers\peripheral\i2s/cy_i2s.c ****             }
 246:Generated_Source\PSoC6\pdl\drivers\peripheral\i2s/cy_i2s.c ****             if (0UL != (*locState & I2S_CMD_RX_START_Msk))
 831              		.loc 1 246 0
 832 004c 3368     		ldr	r3, [r6]
 833 004e DB03     		lsls	r3, r3, #15
 834 0050 03D5     		bpl	.L72
 835              	.LVL61:
 836              	.LBB38:
 837              	.LBB39:
 637:Generated_Source\PSoC6\pdl\drivers\peripheral\i2s/cy_i2s.h **** }
 838              		.loc 2 637 0
 839 0052 226A     		ldr	r2, [r4, #32]
 840 0054 2C4B     		ldr	r3, .L80+12
 841 0056 1340     		ands	r3, r2
 842 0058 2362     		str	r3, [r4, #32]
 843              	.LVL62:
 844              	.L72:
 845              	.LBE39:
 846              	.LBE38:
 847              	.LBB40:
ARM GAS  C:\Users\ikomb\AppData\Local\Temp\cchczmzd.s 			page 39


 848              	.LBB41:
1034:Generated_Source\PSoC6\pdl\drivers\peripheral\i2s/cy_i2s.h **** }
1035:Generated_Source\PSoC6\pdl\drivers\peripheral\i2s/cy_i2s.h **** 
1036:Generated_Source\PSoC6\pdl\drivers\peripheral\i2s/cy_i2s.h **** 
1037:Generated_Source\PSoC6\pdl\drivers\peripheral\i2s/cy_i2s.h **** /*******************************************************************************
1038:Generated_Source\PSoC6\pdl\drivers\peripheral\i2s/cy_i2s.h **** * Function Name: Cy_I2S_SetInterruptMask
1039:Generated_Source\PSoC6\pdl\drivers\peripheral\i2s/cy_i2s.h **** ****************************************************************************//**
1040:Generated_Source\PSoC6\pdl\drivers\peripheral\i2s/cy_i2s.h **** *
1041:Generated_Source\PSoC6\pdl\drivers\peripheral\i2s/cy_i2s.h **** * Sets one or more interrupt factor masks (the INTR_MASK register).
1042:Generated_Source\PSoC6\pdl\drivers\peripheral\i2s/cy_i2s.h **** *
1043:Generated_Source\PSoC6\pdl\drivers\peripheral\i2s/cy_i2s.h **** * \param base      The pointer to the I2S instance address.
1044:Generated_Source\PSoC6\pdl\drivers\peripheral\i2s/cy_i2s.h **** *
1045:Generated_Source\PSoC6\pdl\drivers\peripheral\i2s/cy_i2s.h **** * \param interrupt Interrupt bit mask \ref group_i2s_macros_intrerrupt_masks.
1046:Generated_Source\PSoC6\pdl\drivers\peripheral\i2s/cy_i2s.h **** *
1047:Generated_Source\PSoC6\pdl\drivers\peripheral\i2s/cy_i2s.h **** * \funcusage
1048:Generated_Source\PSoC6\pdl\drivers\peripheral\i2s/cy_i2s.h **** * \snippet i2s/i2s_v2_0_sut_00.cydsn/main_cm4.c snippet_Cy_I2S_SetInterruptMask
1049:Generated_Source\PSoC6\pdl\drivers\peripheral\i2s/cy_i2s.h **** *
1050:Generated_Source\PSoC6\pdl\drivers\peripheral\i2s/cy_i2s.h **** *******************************************************************************/
1051:Generated_Source\PSoC6\pdl\drivers\peripheral\i2s/cy_i2s.h **** __STATIC_INLINE void Cy_I2S_SetInterruptMask(I2S_Type * base, uint32_t interrupt)
1052:Generated_Source\PSoC6\pdl\drivers\peripheral\i2s/cy_i2s.h **** {
1053:Generated_Source\PSoC6\pdl\drivers\peripheral\i2s/cy_i2s.h ****     CY_ASSERT_L2(CY_I2S_IS_INTR_MASK_VALID(interrupt));
1054:Generated_Source\PSoC6\pdl\drivers\peripheral\i2s/cy_i2s.h ****     base->INTR_MASK = interrupt;
 849              		.loc 2 1054 0
 850 005a 0022     		movs	r2, #0
 851 005c 284B     		ldr	r3, .L80+4
 852 005e E250     		str	r2, [r4, r3]
 853              	.LBE41:
 854              	.LBE40:
 227:Generated_Source\PSoC6\pdl\drivers\peripheral\i2s/cy_i2s.c ****     CY_ASSERT_L1(NULL != callbackParams->context);
 855              		.loc 1 227 0
 856 0060 0020     		movs	r0, #0
 857 0062 4AE0     		b	.L66
 858              	.LVL63:
 859              	.L70:
 247:Generated_Source\PSoC6\pdl\drivers\peripheral\i2s/cy_i2s.c ****             {
 248:Generated_Source\PSoC6\pdl\drivers\peripheral\i2s/cy_i2s.c ****                 Cy_I2S_DisableRx(locBase); /* Stop RX operation */
 249:Generated_Source\PSoC6\pdl\drivers\peripheral\i2s/cy_i2s.c ****             }
 250:Generated_Source\PSoC6\pdl\drivers\peripheral\i2s/cy_i2s.c ****             Cy_I2S_SetInterruptMask(locBase, 0UL); /* Disable I2S interrupts */
 251:Generated_Source\PSoC6\pdl\drivers\peripheral\i2s/cy_i2s.c ****             /* Unload FIFOs in order not to lose data (if needed) */
 252:Generated_Source\PSoC6\pdl\drivers\peripheral\i2s/cy_i2s.c ****             break;
 253:Generated_Source\PSoC6\pdl\drivers\peripheral\i2s/cy_i2s.c ****             
 254:Generated_Source\PSoC6\pdl\drivers\peripheral\i2s/cy_i2s.c ****         case CY_SYSPM_AFTER_TRANSITION:
 255:Generated_Source\PSoC6\pdl\drivers\peripheral\i2s/cy_i2s.c ****             if (0UL != (*locState & I2S_CMD_RX_START_Msk))
 860              		.loc 1 255 0
 861 0064 3368     		ldr	r3, [r6]
 862 0066 DB03     		lsls	r3, r3, #15
 863 0068 0ED5     		bpl	.L73
 864              	.LVL64:
 865              	.LBB42:
 866              	.LBB43:
 811:Generated_Source\PSoC6\pdl\drivers\peripheral\i2s/cy_i2s.h ****     base->RX_FIFO_CTL &= (uint32_t) ~I2S_RX_FIFO_CTL_CLEAR_Msk;
 867              		.loc 2 811 0
 868 006a C023     		movs	r3, #192
 869 006c 9B00     		lsls	r3, r3, #2
 870 006e E258     		ldr	r2, [r4, r3]
 871 0070 8021     		movs	r1, #128
 872 0072 4902     		lsls	r1, r1, #9
ARM GAS  C:\Users\ikomb\AppData\Local\Temp\cchczmzd.s 			page 40


 873 0074 0A43     		orrs	r2, r1
 874 0076 E250     		str	r2, [r4, r3]
 812:Generated_Source\PSoC6\pdl\drivers\peripheral\i2s/cy_i2s.h ****     (void) base->RX_FIFO_CTL;
 875              		.loc 2 812 0
 876 0078 E058     		ldr	r0, [r4, r3]
 877 007a 234A     		ldr	r2, .L80+12
 878 007c 0240     		ands	r2, r0
 879 007e E250     		str	r2, [r4, r3]
 813:Generated_Source\PSoC6\pdl\drivers\peripheral\i2s/cy_i2s.h **** }
 880              		.loc 2 813 0
 881 0080 E358     		ldr	r3, [r4, r3]
 882              	.LVL65:
 883              	.LBE43:
 884              	.LBE42:
 885              	.LBB44:
 886              	.LBB45:
 616:Generated_Source\PSoC6\pdl\drivers\peripheral\i2s/cy_i2s.h **** }
 887              		.loc 2 616 0
 888 0082 236A     		ldr	r3, [r4, #32]
 889 0084 0B43     		orrs	r3, r1
 890 0086 2362     		str	r3, [r4, #32]
 891              	.LVL66:
 892              	.L73:
 893              	.LBE45:
 894              	.LBE44:
 256:Generated_Source\PSoC6\pdl\drivers\peripheral\i2s/cy_i2s.c ****             {
 257:Generated_Source\PSoC6\pdl\drivers\peripheral\i2s/cy_i2s.c ****                 Cy_I2S_ClearRxFifo(locBase); /* Clear the RX FIFO */
 258:Generated_Source\PSoC6\pdl\drivers\peripheral\i2s/cy_i2s.c ****                 Cy_I2S_EnableRx(locBase); /* Start RX operation */
 259:Generated_Source\PSoC6\pdl\drivers\peripheral\i2s/cy_i2s.c ****             }
 260:Generated_Source\PSoC6\pdl\drivers\peripheral\i2s/cy_i2s.c ****             if (0UL != (*locState & I2S_CMD_TX_START_Msk))
 895              		.loc 1 260 0
 896 0088 3368     		ldr	r3, [r6]
 897 008a DB07     		lsls	r3, r3, #31
 898 008c 1CD5     		bpl	.L74
 899              	.LVL67:
 900              	.LBB46:
 901              	.LBB47:
 675:Generated_Source\PSoC6\pdl\drivers\peripheral\i2s/cy_i2s.h ****     base->TX_FIFO_CTL &= (uint32_t) ~I2S_TX_FIFO_CTL_CLEAR_Msk;
 902              		.loc 2 675 0
 903 008e 8023     		movs	r3, #128
 904 0090 9B00     		lsls	r3, r3, #2
 905 0092 E258     		ldr	r2, [r4, r3]
 906 0094 8021     		movs	r1, #128
 907 0096 4902     		lsls	r1, r1, #9
 908 0098 0A43     		orrs	r2, r1
 909 009a E250     		str	r2, [r4, r3]
 676:Generated_Source\PSoC6\pdl\drivers\peripheral\i2s/cy_i2s.h ****     (void) base->TX_FIFO_CTL;
 910              		.loc 2 676 0
 911 009c E158     		ldr	r1, [r4, r3]
 912 009e 1A4A     		ldr	r2, .L80+12
 913 00a0 0A40     		ands	r2, r1
 914 00a2 E250     		str	r2, [r4, r3]
 677:Generated_Source\PSoC6\pdl\drivers\peripheral\i2s/cy_i2s.h **** }
 915              		.loc 2 677 0
 916 00a4 E358     		ldr	r3, [r4, r3]
 917              	.LVL68:
 918              	.LBE47:
ARM GAS  C:\Users\ikomb\AppData\Local\Temp\cchczmzd.s 			page 41


 919              	.LBE46:
 920              	.LBB48:
 921              	.LBB49:
 717:Generated_Source\PSoC6\pdl\drivers\peripheral\i2s/cy_i2s.h **** }
 922              		.loc 2 717 0
 923 00a6 8223     		movs	r3, #130
 924 00a8 9B00     		lsls	r3, r3, #2
 925 00aa 0022     		movs	r2, #0
 926 00ac E250     		str	r2, [r4, r3]
 927              	.LVL69:
 928              	.LBE49:
 929              	.LBE48:
 930              	.LBB50:
 931              	.LBB51:
 932 00ae E250     		str	r2, [r4, r3]
 933              	.LVL70:
 934              	.LBE51:
 935              	.LBE50:
 261:Generated_Source\PSoC6\pdl\drivers\peripheral\i2s/cy_i2s.c ****             {
 262:Generated_Source\PSoC6\pdl\drivers\peripheral\i2s/cy_i2s.c ****                 Cy_I2S_ClearTxFifo(locBase); /* Clear the TX FIFO */
 263:Generated_Source\PSoC6\pdl\drivers\peripheral\i2s/cy_i2s.c ****                 Cy_I2S_WriteTxData(locBase, 0UL); /* Fill at least one TX frame */
 264:Generated_Source\PSoC6\pdl\drivers\peripheral\i2s/cy_i2s.c ****                 Cy_I2S_WriteTxData(locBase, 0UL);
 265:Generated_Source\PSoC6\pdl\drivers\peripheral\i2s/cy_i2s.c ****                 if (0UL != (*locState & I2S_CMD_TX_PAUSE_Msk))
 936              		.loc 1 265 0
 937 00b0 3368     		ldr	r3, [r6]
 938 00b2 DB05     		lsls	r3, r3, #23
 939 00b4 04D5     		bpl	.L75
 940              	.LVL71:
 941              	.LBB52:
 942              	.LBB53:
 555:Generated_Source\PSoC6\pdl\drivers\peripheral\i2s/cy_i2s.h **** }
 943              		.loc 2 555 0
 944 00b6 236A     		ldr	r3, [r4, #32]
 945 00b8 0132     		adds	r2, r2, #1
 946 00ba FF32     		adds	r2, r2, #255
 947 00bc 1343     		orrs	r3, r2
 948 00be 2362     		str	r3, [r4, #32]
 949              	.LVL72:
 950              	.L75:
 951              	.LBE53:
 952              	.LBE52:
 953              	.LBB54:
 954              	.LBB55:
 537:Generated_Source\PSoC6\pdl\drivers\peripheral\i2s/cy_i2s.h **** }
 955              		.loc 2 537 0
 956 00c0 226A     		ldr	r2, [r4, #32]
 957 00c2 0123     		movs	r3, #1
 958 00c4 1343     		orrs	r3, r2
 959 00c6 2362     		str	r3, [r4, #32]
 960              	.LVL73:
 961              	.L74:
 962              	.LBE55:
 963              	.LBE54:
 266:Generated_Source\PSoC6\pdl\drivers\peripheral\i2s/cy_i2s.c ****                 {
 267:Generated_Source\PSoC6\pdl\drivers\peripheral\i2s/cy_i2s.c ****                     Cy_I2S_PauseTx(locBase); /* Restore the TX paused state */
 268:Generated_Source\PSoC6\pdl\drivers\peripheral\i2s/cy_i2s.c ****                 }
 269:Generated_Source\PSoC6\pdl\drivers\peripheral\i2s/cy_i2s.c ****                 Cy_I2S_EnableTx(locBase); /* Start TX operation */
ARM GAS  C:\Users\ikomb\AppData\Local\Temp\cchczmzd.s 			page 42


 270:Generated_Source\PSoC6\pdl\drivers\peripheral\i2s/cy_i2s.c ****             }
 271:Generated_Source\PSoC6\pdl\drivers\peripheral\i2s/cy_i2s.c ****             Cy_I2S_ClearInterrupt(locBase, *locInterruptMask); /* Clear possible pending I2S interr
 964              		.loc 1 271 0
 965 00c8 7568     		ldr	r5, [r6, #4]
 966              	.LVL74:
 967              	.LBB56:
 968              	.LBB57:
 990:Generated_Source\PSoC6\pdl\drivers\peripheral\i2s/cy_i2s.h ****     base->INTR = interrupt;
 969              		.loc 2 990 0
 970 00ca 104B     		ldr	r3, .L80+16
 971 00cc 1D42     		tst	r5, r3
 972 00ce 03D0     		beq	.L76
 973 00d0 0F49     		ldr	r1, .L80+20
 974 00d2 1048     		ldr	r0, .L80+24
 975 00d4 FFF7FEFF 		bl	Cy_SysLib_AssertFailed
 976              	.LVL75:
 977              	.L76:
 991:Generated_Source\PSoC6\pdl\drivers\peripheral\i2s/cy_i2s.h ****     (void) base->INTR;
 978              		.loc 2 991 0
 979 00d8 F023     		movs	r3, #240
 980 00da 1B01     		lsls	r3, r3, #4
 981 00dc E550     		str	r5, [r4, r3]
 992:Generated_Source\PSoC6\pdl\drivers\peripheral\i2s/cy_i2s.h **** }
 982              		.loc 2 992 0
 983 00de E358     		ldr	r3, [r4, r3]
 984              	.LVL76:
 985              	.LBE57:
 986              	.LBE56:
 272:Generated_Source\PSoC6\pdl\drivers\peripheral\i2s/cy_i2s.c ****             Cy_I2S_SetInterruptMask(locBase, *locInterruptMask); /* Restore I2S interrupts */
 987              		.loc 1 272 0
 988 00e0 7568     		ldr	r5, [r6, #4]
 989              	.LVL77:
 990              	.LBB58:
 991              	.LBB59:
1053:Generated_Source\PSoC6\pdl\drivers\peripheral\i2s/cy_i2s.h ****     base->INTR_MASK = interrupt;
 992              		.loc 2 1053 0
 993 00e2 0A4B     		ldr	r3, .L80+16
 994 00e4 1D42     		tst	r5, r3
 995 00e6 03D0     		beq	.L77
 996 00e8 0B49     		ldr	r1, .L80+28
 997 00ea 0A48     		ldr	r0, .L80+24
 998 00ec FFF7FEFF 		bl	Cy_SysLib_AssertFailed
 999              	.LVL78:
 1000              	.L77:
 1001              		.loc 2 1054 0
 1002 00f0 034B     		ldr	r3, .L80+4
 1003 00f2 E550     		str	r5, [r4, r3]
 1004              	.LBE59:
 1005              	.LBE58:
 227:Generated_Source\PSoC6\pdl\drivers\peripheral\i2s/cy_i2s.c ****     CY_ASSERT_L1(NULL != callbackParams->context);
 1006              		.loc 1 227 0
 1007 00f4 0020     		movs	r0, #0
 1008 00f6 00E0     		b	.L66
 1009              	.LVL79:
 1010              	.L78:
 273:Generated_Source\PSoC6\pdl\drivers\peripheral\i2s/cy_i2s.c ****             break;
 274:Generated_Source\PSoC6\pdl\drivers\peripheral\i2s/cy_i2s.c ****         
ARM GAS  C:\Users\ikomb\AppData\Local\Temp\cchczmzd.s 			page 43


 275:Generated_Source\PSoC6\pdl\drivers\peripheral\i2s/cy_i2s.c ****         default:
 276:Generated_Source\PSoC6\pdl\drivers\peripheral\i2s/cy_i2s.c ****             ret = CY_SYSPM_FAIL;
 1011              		.loc 1 276 0
 1012 00f8 0848     		ldr	r0, .L80+32
 1013              	.LVL80:
 1014              	.L66:
 277:Generated_Source\PSoC6\pdl\drivers\peripheral\i2s/cy_i2s.c ****             break;
 278:Generated_Source\PSoC6\pdl\drivers\peripheral\i2s/cy_i2s.c ****     }
 279:Generated_Source\PSoC6\pdl\drivers\peripheral\i2s/cy_i2s.c ****         
 280:Generated_Source\PSoC6\pdl\drivers\peripheral\i2s/cy_i2s.c ****     return(ret);
 281:Generated_Source\PSoC6\pdl\drivers\peripheral\i2s/cy_i2s.c **** }
 1015              		.loc 1 281 0
 1016              		@ sp needed
 1017              	.LVL81:
 1018              	.LVL82:
 1019 00fa 70BD     		pop	{r4, r5, r6, pc}
 1020              	.L81:
 1021              		.align	2
 1022              	.L80:
 1023 00fc 00000000 		.word	.LC0
 1024 0100 080F0000 		.word	3848
 1025 0104 01010100 		.word	65793
 1026 0108 FFFFFEFF 		.word	-65537
 1027 010c 8CFE92FE 		.word	-23921012
 1028 0110 DE030000 		.word	990
 1029 0114 3C000000 		.word	.LC3
 1030 0118 1D040000 		.word	1053
 1031 011c FF004200 		.word	4325631
 1032              		.cfi_endproc
 1033              	.LFE99:
 1034              		.size	Cy_I2S_DeepSleepCallback, .-Cy_I2S_DeepSleepCallback
 1035              		.section	.rodata.str1.4,"aMS",%progbits,1
 1036              		.align	2
 1037              	.LC0:
 1038 0000 47656E65 		.ascii	"Generated_Source\\PSoC6\\pdl\\drivers\\peripheral\\"
 1038      72617465 
 1038      645F536F 
 1038      75726365 
 1038      5C50536F 
 1039 002e 6932735C 		.ascii	"i2s\\cy_i2s.c\000"
 1039      63795F69 
 1039      32732E63 
 1039      00
 1040 003b 00       		.space	1
 1041              	.LC3:
 1042 003c 47656E65 		.ascii	"Generated_Source\\PSoC6\\pdl\\drivers\\peripheral\\"
 1042      72617465 
 1042      645F536F 
 1042      75726365 
 1042      5C50536F 
 1043 006a 6932735C 		.ascii	"i2s\\cy_i2s.h\000"
 1043      63795F69 
 1043      32732E68 
 1043      00
 1044              		.text
 1045              	.Letext0:
 1046              		.file 3 "c:\\program files (x86)\\cypress\\psoc creator\\4.4\\psoc creator\\import\\gnu\\arm\\5.4.
ARM GAS  C:\Users\ikomb\AppData\Local\Temp\cchczmzd.s 			page 44


 1047              		.file 4 "c:\\program files (x86)\\cypress\\psoc creator\\4.4\\psoc creator\\import\\gnu\\arm\\5.4.
 1048              		.file 5 "Generated_Source\\PSoC6\\pdl\\devices/psoc6/ip/cyip_i2s.h"
 1049              		.file 6 "Generated_Source\\PSoC6\\pdl\\drivers/peripheral/syslib/cy_syslib.h"
 1050              		.file 7 "Generated_Source\\PSoC6\\pdl\\drivers/peripheral/syspm/cy_syspm.h"