ARM GAS  C:\Users\ikomb\AppData\Local\Temp\cchczmzd.s 			page 1


   1              		.syntax unified
   2              		.cpu cortex-m0plus
   3              		.fpu softvfp
   4              		.eabi_attribute 20, 1
   5              		.eabi_attribute 21, 1
   6              		.eabi_attribute 23, 3
   7              		.eabi_attribute 24, 1
   8              		.eabi_attribute 25, 1
   9              		.eabi_attribute 26, 1
  10              		.eabi_attribute 30, 1
  11              		.eabi_attribute 34, 0
  12              		.eabi_attribute 18, 4
  13              		.thumb
  14              		.syntax unified
  15              		.file	"cy_i2s.c"
  16              		.text
  17              	.Ltext0:
  18              		.cfi_sections	.debug_frame
  19              		.section	.text.Cy_I2S_Init,"ax",%progbits
  20              		.align	2
  21              		.global	Cy_I2S_Init
  22              		.code	16
  23              		.thumb_func
  24              		.type	Cy_I2S_Init, %function
  25              	Cy_I2S_Init:
  26              	.LFB97:
  27              		.file 1 "Generated_Source\\PSoC6\\pdl\\drivers\\peripheral\\i2s\\cy_i2s.c"
   1:Generated_Source\PSoC6\pdl\drivers\peripheral\i2s/cy_i2s.c **** /***************************************************************************//**
   2:Generated_Source\PSoC6\pdl\drivers\peripheral\i2s/cy_i2s.c **** * \file cy_i2s.c
   3:Generated_Source\PSoC6\pdl\drivers\peripheral\i2s/cy_i2s.c **** * \version 2.0.1
   4:Generated_Source\PSoC6\pdl\drivers\peripheral\i2s/cy_i2s.c **** *
   5:Generated_Source\PSoC6\pdl\drivers\peripheral\i2s/cy_i2s.c **** * The source code file for the I2S driver.
   6:Generated_Source\PSoC6\pdl\drivers\peripheral\i2s/cy_i2s.c **** *
   7:Generated_Source\PSoC6\pdl\drivers\peripheral\i2s/cy_i2s.c **** ********************************************************************************
   8:Generated_Source\PSoC6\pdl\drivers\peripheral\i2s/cy_i2s.c **** * \copyright
   9:Generated_Source\PSoC6\pdl\drivers\peripheral\i2s/cy_i2s.c **** * Copyright 2016-2018, Cypress Semiconductor Corporation. All rights reserved.
  10:Generated_Source\PSoC6\pdl\drivers\peripheral\i2s/cy_i2s.c **** * You may use this file only in accordance with the license, terms, conditions,
  11:Generated_Source\PSoC6\pdl\drivers\peripheral\i2s/cy_i2s.c **** * disclaimers, and limitations in the end user license agreement accompanying
  12:Generated_Source\PSoC6\pdl\drivers\peripheral\i2s/cy_i2s.c **** * the software package with which this file was provided.
  13:Generated_Source\PSoC6\pdl\drivers\peripheral\i2s/cy_i2s.c **** *******************************************************************************/
  14:Generated_Source\PSoC6\pdl\drivers\peripheral\i2s/cy_i2s.c **** 
  15:Generated_Source\PSoC6\pdl\drivers\peripheral\i2s/cy_i2s.c **** #include "cy_i2s.h"
  16:Generated_Source\PSoC6\pdl\drivers\peripheral\i2s/cy_i2s.c **** 
  17:Generated_Source\PSoC6\pdl\drivers\peripheral\i2s/cy_i2s.c **** #ifdef __cplusplus
  18:Generated_Source\PSoC6\pdl\drivers\peripheral\i2s/cy_i2s.c **** extern "C" {
  19:Generated_Source\PSoC6\pdl\drivers\peripheral\i2s/cy_i2s.c **** #endif
  20:Generated_Source\PSoC6\pdl\drivers\peripheral\i2s/cy_i2s.c **** 
  21:Generated_Source\PSoC6\pdl\drivers\peripheral\i2s/cy_i2s.c **** 
  22:Generated_Source\PSoC6\pdl\drivers\peripheral\i2s/cy_i2s.c **** /*******************************************************************************
  23:Generated_Source\PSoC6\pdl\drivers\peripheral\i2s/cy_i2s.c **** * Function Name: Cy_I2S_Init
  24:Generated_Source\PSoC6\pdl\drivers\peripheral\i2s/cy_i2s.c **** ****************************************************************************//**
  25:Generated_Source\PSoC6\pdl\drivers\peripheral\i2s/cy_i2s.c **** *
  26:Generated_Source\PSoC6\pdl\drivers\peripheral\i2s/cy_i2s.c **** * Initializes the I2S module in accordance with a configuration structure.
  27:Generated_Source\PSoC6\pdl\drivers\peripheral\i2s/cy_i2s.c **** *
  28:Generated_Source\PSoC6\pdl\drivers\peripheral\i2s/cy_i2s.c **** * \pre If the I2S module is initialized previously, the \ref Cy_I2S_DeInit()
  29:Generated_Source\PSoC6\pdl\drivers\peripheral\i2s/cy_i2s.c **** * must be called before calling this function.
  30:Generated_Source\PSoC6\pdl\drivers\peripheral\i2s/cy_i2s.c **** *
ARM GAS  C:\Users\ikomb\AppData\Local\Temp\cchczmzd.s 			page 2


  31:Generated_Source\PSoC6\pdl\drivers\peripheral\i2s/cy_i2s.c **** * \param base      The pointer to the I2S instance address.
  32:Generated_Source\PSoC6\pdl\drivers\peripheral\i2s/cy_i2s.c **** *
  33:Generated_Source\PSoC6\pdl\drivers\peripheral\i2s/cy_i2s.c **** * \param config    The pointer to a configuration structure.
  34:Generated_Source\PSoC6\pdl\drivers\peripheral\i2s/cy_i2s.c **** *
  35:Generated_Source\PSoC6\pdl\drivers\peripheral\i2s/cy_i2s.c **** * \return error / status code. See \ref cy_en_i2s_status_t.
  36:Generated_Source\PSoC6\pdl\drivers\peripheral\i2s/cy_i2s.c **** *
  37:Generated_Source\PSoC6\pdl\drivers\peripheral\i2s/cy_i2s.c **** * \funcusage
  38:Generated_Source\PSoC6\pdl\drivers\peripheral\i2s/cy_i2s.c **** * \snippet i2s/i2s_v2_0_sut_00.cydsn/main_cm4.c snippet_Cy_I2S_Init
  39:Generated_Source\PSoC6\pdl\drivers\peripheral\i2s/cy_i2s.c **** *
  40:Generated_Source\PSoC6\pdl\drivers\peripheral\i2s/cy_i2s.c **** *******************************************************************************/
  41:Generated_Source\PSoC6\pdl\drivers\peripheral\i2s/cy_i2s.c **** cy_en_i2s_status_t Cy_I2S_Init(I2S_Type * base, cy_stc_i2s_config_t const * config)
  42:Generated_Source\PSoC6\pdl\drivers\peripheral\i2s/cy_i2s.c **** {
  28              		.loc 1 42 0
  29              		.cfi_startproc
  30              		@ args = 0, pretend = 0, frame = 0
  31              		@ frame_needed = 0, uses_anonymous_args = 0
  32              	.LVL0:
  33 0000 F0B5     		push	{r4, r5, r6, r7, lr}
  34              		.cfi_def_cfa_offset 20
  35              		.cfi_offset 4, -20
  36              		.cfi_offset 5, -16
  37              		.cfi_offset 6, -12
  38              		.cfi_offset 7, -8
  39              		.cfi_offset 14, -4
  40 0002 4746     		mov	r7, r8
  41 0004 80B4     		push	{r7}
  42              		.cfi_def_cfa_offset 24
  43              		.cfi_offset 8, -24
  44 0006 0500     		movs	r5, r0
  45 0008 0C00     		movs	r4, r1
  46              	.LVL1:
  43:Generated_Source\PSoC6\pdl\drivers\peripheral\i2s/cy_i2s.c ****     cy_en_i2s_status_t ret = CY_I2S_BAD_PARAM;
  44:Generated_Source\PSoC6\pdl\drivers\peripheral\i2s/cy_i2s.c ****     
  45:Generated_Source\PSoC6\pdl\drivers\peripheral\i2s/cy_i2s.c ****     if((NULL != base) && (NULL != config))
  47              		.loc 1 45 0
  48 000a 0028     		cmp	r0, #0
  49 000c 00D1     		bne	.LCB21
  50 000e 86E1     		b	.L38	@long jump
  51              	.LCB21:
  52              		.loc 1 45 0 is_stmt 0 discriminator 1
  53 0010 0029     		cmp	r1, #0
  54 0012 00D1     		bne	.LCB23
  55 0014 85E1     		b	.L39	@long jump
  56              	.LCB23:
  57              	.LBB30:
  46:Generated_Source\PSoC6\pdl\drivers\peripheral\i2s/cy_i2s.c ****     {
  47:Generated_Source\PSoC6\pdl\drivers\peripheral\i2s/cy_i2s.c ****         cy_en_i2s_ws_pw_t wsPulseWidth;
  48:Generated_Source\PSoC6\pdl\drivers\peripheral\i2s/cy_i2s.c ****         cy_en_i2s_len_t channelLength;
  49:Generated_Source\PSoC6\pdl\drivers\peripheral\i2s/cy_i2s.c ****         uint32_t channels;
  50:Generated_Source\PSoC6\pdl\drivers\peripheral\i2s/cy_i2s.c ****         uint32_t clockDiv = (uint32_t)config->clkDiv - 1U;
  58              		.loc 1 50 0 is_stmt 1
  59 0016 0E79     		ldrb	r6, [r1, #4]
  60 0018 013E     		subs	r6, r6, #1
  61              	.LVL2:
  51:Generated_Source\PSoC6\pdl\drivers\peripheral\i2s/cy_i2s.c ****         
  52:Generated_Source\PSoC6\pdl\drivers\peripheral\i2s/cy_i2s.c ****         CY_ASSERT_L2(CY_I2S_IS_CLK_DIV_VALID(clockDiv));
  62              		.loc 1 52 0
ARM GAS  C:\Users\ikomb\AppData\Local\Temp\cchczmzd.s 			page 3


  63 001a 3F2E     		cmp	r6, #63
  64 001c 03D9     		bls	.L3
  65              		.loc 1 52 0 is_stmt 0 discriminator 1
  66 001e 3421     		movs	r1, #52
  67              	.LVL3:
  68 0020 C148     		ldr	r0, .L59
  69              	.LVL4:
  70 0022 FFF7FEFF 		bl	Cy_SysLib_AssertFailed
  71              	.LVL5:
  72              	.L3:
  53:Generated_Source\PSoC6\pdl\drivers\peripheral\i2s/cy_i2s.c ****         
  54:Generated_Source\PSoC6\pdl\drivers\peripheral\i2s/cy_i2s.c ****         /* The clock setting */
  55:Generated_Source\PSoC6\pdl\drivers\peripheral\i2s/cy_i2s.c ****         base->CLOCK_CTL = _VAL2FLD(I2S_CLOCK_CTL_CLOCK_DIV, clockDiv) |
  73              		.loc 1 55 0 is_stmt 1
  74 0026 3F23     		movs	r3, #63
  75 0028 1E40     		ands	r6, r3
  76              	.LVL6:
  56:Generated_Source\PSoC6\pdl\drivers\peripheral\i2s/cy_i2s.c ****                           _BOOL2FLD(I2S_CLOCK_CTL_CLOCK_SEL, config->extClk);
  77              		.loc 1 56 0
  78 002a 6379     		ldrb	r3, [r4, #5]
  79 002c 002B     		cmp	r3, #0
  80 002e 02D0     		beq	.L40
  81 0030 8023     		movs	r3, #128
  82 0032 5B00     		lsls	r3, r3, #1
  83 0034 00E0     		b	.L4
  84              	.L40:
  85 0036 0023     		movs	r3, #0
  86              	.L4:
  55:Generated_Source\PSoC6\pdl\drivers\peripheral\i2s/cy_i2s.c ****                           _BOOL2FLD(I2S_CLOCK_CTL_CLOCK_SEL, config->extClk);
  87              		.loc 1 55 0
  88 0038 1E43     		orrs	r6, r3
  89 003a 2E61     		str	r6, [r5, #16]
  57:Generated_Source\PSoC6\pdl\drivers\peripheral\i2s/cy_i2s.c **** 
  58:Generated_Source\PSoC6\pdl\drivers\peripheral\i2s/cy_i2s.c ****         /* The Tx setting */
  59:Generated_Source\PSoC6\pdl\drivers\peripheral\i2s/cy_i2s.c ****         if (config->txEnabled)
  90              		.loc 1 59 0
  91 003c 2378     		ldrb	r3, [r4]
  92 003e 002B     		cmp	r3, #0
  93 0040 00D1     		bne	.LCB57
  94 0042 99E0     		b	.L5	@long jump
  95              	.LCB57:
  60:Generated_Source\PSoC6\pdl\drivers\peripheral\i2s/cy_i2s.c ****         {
  61:Generated_Source\PSoC6\pdl\drivers\peripheral\i2s/cy_i2s.c ****             CY_ASSERT_L3(CY_I2S_IS_ALIGNMENT_VALID(config->txAlignment));
  96              		.loc 1 61 0
  97 0044 E379     		ldrb	r3, [r4, #7]
  98 0046 032B     		cmp	r3, #3
  99 0048 03D9     		bls	.L6
 100              		.loc 1 61 0 is_stmt 0 discriminator 1
 101 004a 3D21     		movs	r1, #61
 102 004c B648     		ldr	r0, .L59
 103 004e FFF7FEFF 		bl	Cy_SysLib_AssertFailed
 104              	.LVL7:
 105              	.L6:
  62:Generated_Source\PSoC6\pdl\drivers\peripheral\i2s/cy_i2s.c ****             CY_ASSERT_L3(CY_I2S_IS_OVHDATA_VALID(config->txOverheadValue));
 106              		.loc 1 62 0 is_stmt 1
 107 0052 A37D     		ldrb	r3, [r4, #22]
 108 0054 012B     		cmp	r3, #1
ARM GAS  C:\Users\ikomb\AppData\Local\Temp\cchczmzd.s 			page 4


 109 0056 03D9     		bls	.L7
 110              		.loc 1 62 0 is_stmt 0 discriminator 1
 111 0058 3E21     		movs	r1, #62
 112 005a B348     		ldr	r0, .L59
 113 005c FFF7FEFF 		bl	Cy_SysLib_AssertFailed
 114              	.LVL8:
 115              	.L7:
  63:Generated_Source\PSoC6\pdl\drivers\peripheral\i2s/cy_i2s.c ****             
  64:Generated_Source\PSoC6\pdl\drivers\peripheral\i2s/cy_i2s.c ****             if ((CY_I2S_TDM_MODE_A == config->txAlignment) || (CY_I2S_TDM_MODE_B == config->txAlign
 116              		.loc 1 64 0 is_stmt 1
 117 0060 E379     		ldrb	r3, [r4, #7]
 118 0062 023B     		subs	r3, r3, #2
 119 0064 DBB2     		uxtb	r3, r3
 120 0066 012B     		cmp	r3, #1
 121 0068 19D8     		bhi	.L8
  65:Generated_Source\PSoC6\pdl\drivers\peripheral\i2s/cy_i2s.c ****             {
  66:Generated_Source\PSoC6\pdl\drivers\peripheral\i2s/cy_i2s.c ****                 channels = (uint32_t)config->txChannels - 1UL;
 122              		.loc 1 66 0
 123 006a E77C     		ldrb	r7, [r4, #19]
 124 006c 013F     		subs	r7, r7, #1
 125              	.LVL9:
  67:Generated_Source\PSoC6\pdl\drivers\peripheral\i2s/cy_i2s.c ****                 wsPulseWidth = config->txWsPulseWidth;
 126              		.loc 1 67 0
 127 006e 237A     		ldrb	r3, [r4, #8]
 128 0070 9846     		mov	r8, r3
 129              	.LVL10:
  68:Generated_Source\PSoC6\pdl\drivers\peripheral\i2s/cy_i2s.c ****                 channelLength = CY_I2S_LEN32;
  69:Generated_Source\PSoC6\pdl\drivers\peripheral\i2s/cy_i2s.c ****                 
  70:Generated_Source\PSoC6\pdl\drivers\peripheral\i2s/cy_i2s.c ****                 CY_ASSERT_L2(CY_I2S_IS_CHANNELS_VALID(channels));
 130              		.loc 1 70 0
 131 0072 072F     		cmp	r7, #7
 132 0074 03D9     		bls	.L9
 133              		.loc 1 70 0 is_stmt 0 discriminator 1
 134 0076 4621     		movs	r1, #70
 135 0078 AB48     		ldr	r0, .L59
 136 007a FFF7FEFF 		bl	Cy_SysLib_AssertFailed
 137              	.LVL11:
 138              	.L9:
  71:Generated_Source\PSoC6\pdl\drivers\peripheral\i2s/cy_i2s.c ****                 CY_ASSERT_L3(CY_I2S_IS_WSPULSE_VALID(wsPulseWidth));
 139              		.loc 1 71 0 is_stmt 1
 140 007e 4346     		mov	r3, r8
 141 0080 012B     		cmp	r3, #1
 142 0082 03D9     		bls	.L10
 143              		.loc 1 71 0 is_stmt 0 discriminator 1
 144 0084 4721     		movs	r1, #71
 145 0086 A848     		ldr	r0, .L59
 146 0088 FFF7FEFF 		bl	Cy_SysLib_AssertFailed
 147              	.LVL12:
 148              	.L10:
  72:Generated_Source\PSoC6\pdl\drivers\peripheral\i2s/cy_i2s.c ****                 CY_ASSERT_L3(CY_I2S_IS_LEN_VALID(config->txWordLength));
 149              		.loc 1 72 0 is_stmt 1
 150 008c 637D     		ldrb	r3, [r4, #21]
 151 008e 052B     		cmp	r3, #5
 152 0090 15D9     		bls	.L41
 153              		.loc 1 72 0 is_stmt 0 discriminator 1
 154 0092 4821     		movs	r1, #72
 155 0094 A448     		ldr	r0, .L59
ARM GAS  C:\Users\ikomb\AppData\Local\Temp\cchczmzd.s 			page 5


 156 0096 FFF7FEFF 		bl	Cy_SysLib_AssertFailed
 157              	.LVL13:
  68:Generated_Source\PSoC6\pdl\drivers\peripheral\i2s/cy_i2s.c ****                 channelLength = CY_I2S_LEN32;
 158              		.loc 1 68 0 is_stmt 1 discriminator 1
 159 009a 0526     		movs	r6, #5
 160 009c 14E0     		b	.L11
 161              	.LVL14:
 162              	.L8:
  73:Generated_Source\PSoC6\pdl\drivers\peripheral\i2s/cy_i2s.c ****             }
  74:Generated_Source\PSoC6\pdl\drivers\peripheral\i2s/cy_i2s.c ****             else
  75:Generated_Source\PSoC6\pdl\drivers\peripheral\i2s/cy_i2s.c ****             {
  76:Generated_Source\PSoC6\pdl\drivers\peripheral\i2s/cy_i2s.c ****                 channels = 1UL;
  77:Generated_Source\PSoC6\pdl\drivers\peripheral\i2s/cy_i2s.c ****                 wsPulseWidth = CY_I2S_WS_ONE_CHANNEL_LENGTH;
  78:Generated_Source\PSoC6\pdl\drivers\peripheral\i2s/cy_i2s.c ****                 channelLength = config->txChannelLength;
 163              		.loc 1 78 0
 164 009e 267D     		ldrb	r6, [r4, #20]
 165              	.LVL15:
  79:Generated_Source\PSoC6\pdl\drivers\peripheral\i2s/cy_i2s.c ****                 
  80:Generated_Source\PSoC6\pdl\drivers\peripheral\i2s/cy_i2s.c ****                 CY_ASSERT_L3(CY_I2S_IS_CHAN_WORD_VALID(channelLength, config->txWordLength));
 166              		.loc 1 80 0
 167 00a0 052E     		cmp	r6, #5
 168 00a2 04D8     		bhi	.L12
 169              		.loc 1 80 0 is_stmt 0 discriminator 2
 170 00a4 637D     		ldrb	r3, [r4, #21]
 171 00a6 052B     		cmp	r3, #5
 172 00a8 01D8     		bhi	.L12
 173              		.loc 1 80 0 discriminator 4
 174 00aa 9E42     		cmp	r6, r3
 175 00ac 09D2     		bcs	.L42
 176              	.L12:
 177              		.loc 1 80 0 discriminator 5
 178 00ae 5021     		movs	r1, #80
 179 00b0 9D48     		ldr	r0, .L59
 180 00b2 FFF7FEFF 		bl	Cy_SysLib_AssertFailed
 181              	.LVL16:
  76:Generated_Source\PSoC6\pdl\drivers\peripheral\i2s/cy_i2s.c ****                 wsPulseWidth = CY_I2S_WS_ONE_CHANNEL_LENGTH;
 182              		.loc 1 76 0 is_stmt 1 discriminator 5
 183 00b6 0127     		movs	r7, #1
  77:Generated_Source\PSoC6\pdl\drivers\peripheral\i2s/cy_i2s.c ****                 channelLength = config->txChannelLength;
 184              		.loc 1 77 0 discriminator 5
 185 00b8 0123     		movs	r3, #1
 186 00ba 9846     		mov	r8, r3
 187 00bc 04E0     		b	.L11
 188              	.LVL17:
 189              	.L41:
  68:Generated_Source\PSoC6\pdl\drivers\peripheral\i2s/cy_i2s.c ****                 
 190              		.loc 1 68 0
 191 00be 0526     		movs	r6, #5
 192 00c0 02E0     		b	.L11
 193              	.LVL18:
 194              	.L42:
  76:Generated_Source\PSoC6\pdl\drivers\peripheral\i2s/cy_i2s.c ****                 wsPulseWidth = CY_I2S_WS_ONE_CHANNEL_LENGTH;
 195              		.loc 1 76 0
 196 00c2 0127     		movs	r7, #1
  77:Generated_Source\PSoC6\pdl\drivers\peripheral\i2s/cy_i2s.c ****                 channelLength = config->txChannelLength;
 197              		.loc 1 77 0
 198 00c4 0123     		movs	r3, #1
ARM GAS  C:\Users\ikomb\AppData\Local\Temp\cchczmzd.s 			page 6


 199 00c6 9846     		mov	r8, r3
 200              	.LVL19:
 201              	.L11:
  81:Generated_Source\PSoC6\pdl\drivers\peripheral\i2s/cy_i2s.c ****             }
  82:Generated_Source\PSoC6\pdl\drivers\peripheral\i2s/cy_i2s.c ****             
  83:Generated_Source\PSoC6\pdl\drivers\peripheral\i2s/cy_i2s.c ****             CY_ASSERT_L2(CY_I2S_IS_TRIG_LEVEL_VALID(config->txFifoTriggerLevel, channels));
 202              		.loc 1 83 0
 203 00c8 E27D     		ldrb	r2, [r4, #23]
 204 00ca FF23     		movs	r3, #255
 205 00cc DB1B     		subs	r3, r3, r7
 206 00ce 9A42     		cmp	r2, r3
 207 00d0 03D9     		bls	.L13
 208              		.loc 1 83 0 is_stmt 0 discriminator 1
 209 00d2 5321     		movs	r1, #83
 210 00d4 9448     		ldr	r0, .L59
 211 00d6 FFF7FEFF 		bl	Cy_SysLib_AssertFailed
 212              	.LVL20:
 213              	.L13:
  84:Generated_Source\PSoC6\pdl\drivers\peripheral\i2s/cy_i2s.c ****             
  85:Generated_Source\PSoC6\pdl\drivers\peripheral\i2s/cy_i2s.c ****             base->TX_WATCHDOG = config->txWatchdogValue;
 214              		.loc 1 85 0 is_stmt 1
 215 00da 8423     		movs	r3, #132
 216 00dc E268     		ldr	r2, [r4, #12]
 217 00de EA50     		str	r2, [r5, r3]
  86:Generated_Source\PSoC6\pdl\drivers\peripheral\i2s/cy_i2s.c **** 
  87:Generated_Source\PSoC6\pdl\drivers\peripheral\i2s/cy_i2s.c ****             base->TX_CTL = _VAL2FLD(I2S_TX_CTL_I2S_MODE, config->txAlignment) |
 218              		.loc 1 87 0
 219 00e0 E379     		ldrb	r3, [r4, #7]
 220 00e2 1B02     		lsls	r3, r3, #8
 221 00e4 C022     		movs	r2, #192
 222 00e6 9200     		lsls	r2, r2, #2
 223 00e8 1340     		ands	r3, r2
  88:Generated_Source\PSoC6\pdl\drivers\peripheral\i2s/cy_i2s.c ****                            _BOOL2FLD(I2S_TX_CTL_B_CLOCK_INV, config->txSdoLatchingTime) |
 224              		.loc 1 88 0
 225 00ea 227C     		ldrb	r2, [r4, #16]
 226 00ec 002A     		cmp	r2, #0
 227 00ee 01D0     		beq	.L43
 228 00f0 0822     		movs	r2, #8
 229 00f2 00E0     		b	.L14
 230              	.L43:
 231 00f4 0022     		movs	r2, #0
 232              	.L14:
  87:Generated_Source\PSoC6\pdl\drivers\peripheral\i2s/cy_i2s.c ****                            _BOOL2FLD(I2S_TX_CTL_B_CLOCK_INV, config->txSdoLatchingTime) |
 233              		.loc 1 87 0
 234 00f6 1343     		orrs	r3, r2
  89:Generated_Source\PSoC6\pdl\drivers\peripheral\i2s/cy_i2s.c ****                            _VAL2FLD(I2S_TX_CTL_CH_NR, channels) |
 235              		.loc 1 89 0
 236 00f8 3A01     		lsls	r2, r7, #4
 237 00fa 7027     		movs	r7, #112
 238              	.LVL21:
 239 00fc 1740     		ands	r7, r2
  88:Generated_Source\PSoC6\pdl\drivers\peripheral\i2s/cy_i2s.c ****                            _BOOL2FLD(I2S_TX_CTL_B_CLOCK_INV, config->txSdoLatchingTime) |
 240              		.loc 1 88 0
 241 00fe 1F43     		orrs	r7, r3
  90:Generated_Source\PSoC6\pdl\drivers\peripheral\i2s/cy_i2s.c ****                            _BOOL2FLD(I2S_TX_CTL_MS, config->txMasterMode) |
 242              		.loc 1 90 0
 243 0100 A379     		ldrb	r3, [r4, #6]
ARM GAS  C:\Users\ikomb\AppData\Local\Temp\cchczmzd.s 			page 7


 244 0102 002B     		cmp	r3, #0
 245 0104 01D0     		beq	.L44
 246 0106 8023     		movs	r3, #128
 247 0108 00E0     		b	.L15
 248              	.L44:
 249 010a 0023     		movs	r3, #0
 250              	.L15:
  89:Generated_Source\PSoC6\pdl\drivers\peripheral\i2s/cy_i2s.c ****                            _VAL2FLD(I2S_TX_CTL_CH_NR, channels) |
 251              		.loc 1 89 0
 252 010c 3B43     		orrs	r3, r7
  91:Generated_Source\PSoC6\pdl\drivers\peripheral\i2s/cy_i2s.c ****                            _VAL2FLD(I2S_TX_CTL_WS_PULSE, wsPulseWidth) |
 253              		.loc 1 91 0
 254 010e 4246     		mov	r2, r8
 255 0110 9202     		lsls	r2, r2, #10
 256 0112 8021     		movs	r1, #128
 257 0114 C900     		lsls	r1, r1, #3
 258 0116 0A40     		ands	r2, r1
  90:Generated_Source\PSoC6\pdl\drivers\peripheral\i2s/cy_i2s.c ****                            _BOOL2FLD(I2S_TX_CTL_MS, config->txMasterMode) |
 259              		.loc 1 90 0
 260 0118 1343     		orrs	r3, r2
  92:Generated_Source\PSoC6\pdl\drivers\peripheral\i2s/cy_i2s.c ****                            _BOOL2FLD(I2S_TX_CTL_WD_EN, config->txWatchdogEnable) |
 261              		.loc 1 92 0
 262 011a 627A     		ldrb	r2, [r4, #9]
 263 011c 002A     		cmp	r2, #0
 264 011e 02D0     		beq	.L45
 265 0120 8022     		movs	r2, #128
 266 0122 9201     		lsls	r2, r2, #6
 267 0124 00E0     		b	.L16
 268              	.L45:
 269 0126 0022     		movs	r2, #0
 270              	.L16:
  91:Generated_Source\PSoC6\pdl\drivers\peripheral\i2s/cy_i2s.c ****                            _VAL2FLD(I2S_TX_CTL_WS_PULSE, wsPulseWidth) |
 271              		.loc 1 91 0
 272 0128 1343     		orrs	r3, r2
  93:Generated_Source\PSoC6\pdl\drivers\peripheral\i2s/cy_i2s.c ****                            _BOOL2FLD(I2S_TX_CTL_SCKO_POL, config->txSckoInversion) |
 273              		.loc 1 93 0
 274 012a 627C     		ldrb	r2, [r4, #17]
 275 012c 002A     		cmp	r2, #0
 276 012e 02D0     		beq	.L46
 277 0130 8022     		movs	r2, #128
 278 0132 5204     		lsls	r2, r2, #17
 279 0134 00E0     		b	.L17
 280              	.L46:
 281 0136 0022     		movs	r2, #0
 282              	.L17:
  92:Generated_Source\PSoC6\pdl\drivers\peripheral\i2s/cy_i2s.c ****                            _BOOL2FLD(I2S_TX_CTL_WD_EN, config->txWatchdogEnable) |
 283              		.loc 1 92 0
 284 0138 1343     		orrs	r3, r2
  94:Generated_Source\PSoC6\pdl\drivers\peripheral\i2s/cy_i2s.c ****                            _BOOL2FLD(I2S_TX_CTL_SCKI_POL, config->txSckiInversion) |
 285              		.loc 1 94 0
 286 013a A27C     		ldrb	r2, [r4, #18]
 287 013c 002A     		cmp	r2, #0
 288 013e 02D0     		beq	.L47
 289 0140 8022     		movs	r2, #128
 290 0142 9204     		lsls	r2, r2, #18
 291 0144 00E0     		b	.L18
 292              	.L47:
ARM GAS  C:\Users\ikomb\AppData\Local\Temp\cchczmzd.s 			page 8


 293 0146 0022     		movs	r2, #0
 294              	.L18:
  93:Generated_Source\PSoC6\pdl\drivers\peripheral\i2s/cy_i2s.c ****                            _BOOL2FLD(I2S_TX_CTL_SCKO_POL, config->txSckoInversion) |
 295              		.loc 1 93 0
 296 0148 1343     		orrs	r3, r2
  95:Generated_Source\PSoC6\pdl\drivers\peripheral\i2s/cy_i2s.c ****                            _VAL2FLD(I2S_TX_CTL_CH_LEN, channelLength) |
 297              		.loc 1 95 0
 298 014a 3604     		lsls	r6, r6, #16
 299              	.LVL22:
 300 014c E022     		movs	r2, #224
 301 014e D202     		lsls	r2, r2, #11
 302 0150 1640     		ands	r6, r2
  94:Generated_Source\PSoC6\pdl\drivers\peripheral\i2s/cy_i2s.c ****                            _BOOL2FLD(I2S_TX_CTL_SCKI_POL, config->txSckiInversion) |
 303              		.loc 1 94 0
 304 0152 3343     		orrs	r3, r6
  96:Generated_Source\PSoC6\pdl\drivers\peripheral\i2s/cy_i2s.c ****                            _VAL2FLD(I2S_TX_CTL_WORD_LEN, config->txWordLength) |
 305              		.loc 1 96 0
 306 0154 667D     		ldrb	r6, [r4, #21]
 307 0156 3605     		lsls	r6, r6, #20
 308 0158 E021     		movs	r1, #224
 309 015a C903     		lsls	r1, r1, #15
 310 015c 3200     		movs	r2, r6
 311 015e 0A40     		ands	r2, r1
  95:Generated_Source\PSoC6\pdl\drivers\peripheral\i2s/cy_i2s.c ****                            _VAL2FLD(I2S_TX_CTL_CH_LEN, channelLength) |
 312              		.loc 1 95 0
 313 0160 1343     		orrs	r3, r2
 314 0162 1E00     		movs	r6, r3
  97:Generated_Source\PSoC6\pdl\drivers\peripheral\i2s/cy_i2s.c ****                            _VAL2FLD(I2S_TX_CTL_OVHDATA, config->txOverheadValue);
 315              		.loc 1 97 0
 316 0164 A37D     		ldrb	r3, [r4, #22]
 317 0166 1B03     		lsls	r3, r3, #12
 318 0168 8021     		movs	r1, #128
 319 016a 4901     		lsls	r1, r1, #5
 320 016c 0B40     		ands	r3, r1
 321 016e 1A00     		movs	r2, r3
  96:Generated_Source\PSoC6\pdl\drivers\peripheral\i2s/cy_i2s.c ****                            _VAL2FLD(I2S_TX_CTL_WORD_LEN, config->txWordLength) |
 322              		.loc 1 96 0
 323 0170 3300     		movs	r3, r6
 324 0172 1343     		orrs	r3, r2
  87:Generated_Source\PSoC6\pdl\drivers\peripheral\i2s/cy_i2s.c ****                            _BOOL2FLD(I2S_TX_CTL_B_CLOCK_INV, config->txSdoLatchingTime) |
 325              		.loc 1 87 0
 326 0174 8022     		movs	r2, #128
 327 0176 AB50     		str	r3, [r5, r2]
 328              	.LVL23:
 329              	.L5:
  98:Generated_Source\PSoC6\pdl\drivers\peripheral\i2s/cy_i2s.c ****         }
  99:Generated_Source\PSoC6\pdl\drivers\peripheral\i2s/cy_i2s.c **** 
 100:Generated_Source\PSoC6\pdl\drivers\peripheral\i2s/cy_i2s.c ****         /* The Rx setting */
 101:Generated_Source\PSoC6\pdl\drivers\peripheral\i2s/cy_i2s.c ****         if (config->rxEnabled)
 330              		.loc 1 101 0
 331 0178 6378     		ldrb	r3, [r4, #1]
 332 017a 002B     		cmp	r3, #0
 333 017c 00D1     		bne	.LCB296
 334 017e 9AE0     		b	.L19	@long jump
 335              	.LCB296:
 102:Generated_Source\PSoC6\pdl\drivers\peripheral\i2s/cy_i2s.c ****         {
 103:Generated_Source\PSoC6\pdl\drivers\peripheral\i2s/cy_i2s.c ****             CY_ASSERT_L3(CY_I2S_IS_ALIGNMENT_VALID(config->rxAlignment));
ARM GAS  C:\Users\ikomb\AppData\Local\Temp\cchczmzd.s 			page 9


 336              		.loc 1 103 0
 337 0180 637E     		ldrb	r3, [r4, #25]
 338 0182 032B     		cmp	r3, #3
 339 0184 03D9     		bls	.L20
 340              		.loc 1 103 0 is_stmt 0 discriminator 1
 341 0186 6721     		movs	r1, #103
 342 0188 6748     		ldr	r0, .L59
 343 018a FFF7FEFF 		bl	Cy_SysLib_AssertFailed
 344              	.LVL24:
 345              	.L20:
 104:Generated_Source\PSoC6\pdl\drivers\peripheral\i2s/cy_i2s.c ****             
 105:Generated_Source\PSoC6\pdl\drivers\peripheral\i2s/cy_i2s.c ****             if ((CY_I2S_TDM_MODE_A == config->rxAlignment) || (CY_I2S_TDM_MODE_B == config->rxAlign
 346              		.loc 1 105 0 is_stmt 1
 347 018e 637E     		ldrb	r3, [r4, #25]
 348 0190 023B     		subs	r3, r3, #2
 349 0192 DBB2     		uxtb	r3, r3
 350 0194 012B     		cmp	r3, #1
 351 0196 1BD8     		bhi	.L21
 106:Generated_Source\PSoC6\pdl\drivers\peripheral\i2s/cy_i2s.c ****             {
 107:Generated_Source\PSoC6\pdl\drivers\peripheral\i2s/cy_i2s.c ****                 channels = (uint32_t)config->rxChannels - 1UL;
 352              		.loc 1 107 0
 353 0198 2323     		movs	r3, #35
 354 019a E75C     		ldrb	r7, [r4, r3]
 355 019c 013F     		subs	r7, r7, #1
 356              	.LVL25:
 108:Generated_Source\PSoC6\pdl\drivers\peripheral\i2s/cy_i2s.c ****                 wsPulseWidth = config->rxWsPulseWidth;
 357              		.loc 1 108 0
 358 019e A37E     		ldrb	r3, [r4, #26]
 359 01a0 9846     		mov	r8, r3
 360              	.LVL26:
 109:Generated_Source\PSoC6\pdl\drivers\peripheral\i2s/cy_i2s.c ****                 channelLength = CY_I2S_LEN32;
 110:Generated_Source\PSoC6\pdl\drivers\peripheral\i2s/cy_i2s.c ****                 
 111:Generated_Source\PSoC6\pdl\drivers\peripheral\i2s/cy_i2s.c ****                 CY_ASSERT_L2(CY_I2S_IS_CHANNELS_VALID(channels));
 361              		.loc 1 111 0
 362 01a2 072F     		cmp	r7, #7
 363 01a4 03D9     		bls	.L22
 364              		.loc 1 111 0 is_stmt 0 discriminator 1
 365 01a6 6F21     		movs	r1, #111
 366 01a8 5F48     		ldr	r0, .L59
 367 01aa FFF7FEFF 		bl	Cy_SysLib_AssertFailed
 368              	.LVL27:
 369              	.L22:
 112:Generated_Source\PSoC6\pdl\drivers\peripheral\i2s/cy_i2s.c ****                 CY_ASSERT_L3(CY_I2S_IS_WSPULSE_VALID(wsPulseWidth));
 370              		.loc 1 112 0 is_stmt 1
 371 01ae 4346     		mov	r3, r8
 372 01b0 012B     		cmp	r3, #1
 373 01b2 03D9     		bls	.L23
 374              		.loc 1 112 0 is_stmt 0 discriminator 1
 375 01b4 7021     		movs	r1, #112
 376 01b6 5C48     		ldr	r0, .L59
 377 01b8 FFF7FEFF 		bl	Cy_SysLib_AssertFailed
 378              	.LVL28:
 379              	.L23:
 113:Generated_Source\PSoC6\pdl\drivers\peripheral\i2s/cy_i2s.c ****                 CY_ASSERT_L3(CY_I2S_IS_LEN_VALID(config->rxWordLength));
 380              		.loc 1 113 0 is_stmt 1
 381 01bc 2523     		movs	r3, #37
 382 01be E35C     		ldrb	r3, [r4, r3]
ARM GAS  C:\Users\ikomb\AppData\Local\Temp\cchczmzd.s 			page 10


 383 01c0 052B     		cmp	r3, #5
 384 01c2 17D9     		bls	.L48
 385              		.loc 1 113 0 is_stmt 0 discriminator 1
 386 01c4 7121     		movs	r1, #113
 387 01c6 5848     		ldr	r0, .L59
 388 01c8 FFF7FEFF 		bl	Cy_SysLib_AssertFailed
 389              	.LVL29:
 109:Generated_Source\PSoC6\pdl\drivers\peripheral\i2s/cy_i2s.c ****                 channelLength = CY_I2S_LEN32;
 390              		.loc 1 109 0 is_stmt 1 discriminator 1
 391 01cc 0526     		movs	r6, #5
 392 01ce 16E0     		b	.L24
 393              	.LVL30:
 394              	.L21:
 114:Generated_Source\PSoC6\pdl\drivers\peripheral\i2s/cy_i2s.c ****             }
 115:Generated_Source\PSoC6\pdl\drivers\peripheral\i2s/cy_i2s.c ****             else
 116:Generated_Source\PSoC6\pdl\drivers\peripheral\i2s/cy_i2s.c ****             {
 117:Generated_Source\PSoC6\pdl\drivers\peripheral\i2s/cy_i2s.c ****                 channels = 1UL;
 118:Generated_Source\PSoC6\pdl\drivers\peripheral\i2s/cy_i2s.c ****                 wsPulseWidth = CY_I2S_WS_ONE_CHANNEL_LENGTH;
 119:Generated_Source\PSoC6\pdl\drivers\peripheral\i2s/cy_i2s.c ****                 channelLength = config->rxChannelLength;
 395              		.loc 1 119 0
 396 01d0 2423     		movs	r3, #36
 397 01d2 E65C     		ldrb	r6, [r4, r3]
 398              	.LVL31:
 120:Generated_Source\PSoC6\pdl\drivers\peripheral\i2s/cy_i2s.c ****                 
 121:Generated_Source\PSoC6\pdl\drivers\peripheral\i2s/cy_i2s.c ****                 CY_ASSERT_L3(CY_I2S_IS_CHAN_WORD_VALID(channelLength, config->rxWordLength));
 399              		.loc 1 121 0
 400 01d4 052E     		cmp	r6, #5
 401 01d6 05D8     		bhi	.L25
 402              		.loc 1 121 0 is_stmt 0 discriminator 2
 403 01d8 0133     		adds	r3, r3, #1
 404 01da E35C     		ldrb	r3, [r4, r3]
 405 01dc 052B     		cmp	r3, #5
 406 01de 01D8     		bhi	.L25
 407              		.loc 1 121 0 discriminator 4
 408 01e0 9E42     		cmp	r6, r3
 409 01e2 09D2     		bcs	.L49
 410              	.L25:
 411              		.loc 1 121 0 discriminator 5
 412 01e4 7921     		movs	r1, #121
 413 01e6 5048     		ldr	r0, .L59
 414 01e8 FFF7FEFF 		bl	Cy_SysLib_AssertFailed
 415              	.LVL32:
 117:Generated_Source\PSoC6\pdl\drivers\peripheral\i2s/cy_i2s.c ****                 wsPulseWidth = CY_I2S_WS_ONE_CHANNEL_LENGTH;
 416              		.loc 1 117 0 is_stmt 1 discriminator 5
 417 01ec 0127     		movs	r7, #1
 118:Generated_Source\PSoC6\pdl\drivers\peripheral\i2s/cy_i2s.c ****                 channelLength = config->rxChannelLength;
 418              		.loc 1 118 0 discriminator 5
 419 01ee 0123     		movs	r3, #1
 420 01f0 9846     		mov	r8, r3
 421 01f2 04E0     		b	.L24
 422              	.LVL33:
 423              	.L48:
 109:Generated_Source\PSoC6\pdl\drivers\peripheral\i2s/cy_i2s.c ****                 
 424              		.loc 1 109 0
 425 01f4 0526     		movs	r6, #5
 426 01f6 02E0     		b	.L24
 427              	.LVL34:
ARM GAS  C:\Users\ikomb\AppData\Local\Temp\cchczmzd.s 			page 11


 428              	.L49:
 117:Generated_Source\PSoC6\pdl\drivers\peripheral\i2s/cy_i2s.c ****                 wsPulseWidth = CY_I2S_WS_ONE_CHANNEL_LENGTH;
 429              		.loc 1 117 0
 430 01f8 0127     		movs	r7, #1
 118:Generated_Source\PSoC6\pdl\drivers\peripheral\i2s/cy_i2s.c ****                 channelLength = config->rxChannelLength;
 431              		.loc 1 118 0
 432 01fa 0123     		movs	r3, #1
 433 01fc 9846     		mov	r8, r3
 434              	.LVL35:
 435              	.L24:
 122:Generated_Source\PSoC6\pdl\drivers\peripheral\i2s/cy_i2s.c ****             }
 123:Generated_Source\PSoC6\pdl\drivers\peripheral\i2s/cy_i2s.c ****             
 124:Generated_Source\PSoC6\pdl\drivers\peripheral\i2s/cy_i2s.c ****             CY_ASSERT_L2(CY_I2S_IS_TRIG_LEVEL_VALID(config->rxFifoTriggerLevel, channels));
 436              		.loc 1 124 0
 437 01fe 2723     		movs	r3, #39
 438 0200 E25C     		ldrb	r2, [r4, r3]
 439 0202 D833     		adds	r3, r3, #216
 440 0204 DB1B     		subs	r3, r3, r7
 441 0206 9A42     		cmp	r2, r3
 442 0208 03D9     		bls	.L26
 443              		.loc 1 124 0 is_stmt 0 discriminator 1
 444 020a 7C21     		movs	r1, #124
 445 020c 4648     		ldr	r0, .L59
 446 020e FFF7FEFF 		bl	Cy_SysLib_AssertFailed
 447              	.LVL36:
 448              	.L26:
 125:Generated_Source\PSoC6\pdl\drivers\peripheral\i2s/cy_i2s.c **** 
 126:Generated_Source\PSoC6\pdl\drivers\peripheral\i2s/cy_i2s.c ****             base->RX_WATCHDOG = config->rxWatchdogValue;
 449              		.loc 1 126 0 is_stmt 1
 450 0212 A423     		movs	r3, #164
 451 0214 E269     		ldr	r2, [r4, #28]
 452 0216 EA50     		str	r2, [r5, r3]
 127:Generated_Source\PSoC6\pdl\drivers\peripheral\i2s/cy_i2s.c **** 
 128:Generated_Source\PSoC6\pdl\drivers\peripheral\i2s/cy_i2s.c ****             base->RX_CTL = _VAL2FLD(I2S_RX_CTL_I2S_MODE, config->rxAlignment) |
 453              		.loc 1 128 0
 454 0218 637E     		ldrb	r3, [r4, #25]
 455 021a 1B02     		lsls	r3, r3, #8
 456 021c C022     		movs	r2, #192
 457 021e 9200     		lsls	r2, r2, #2
 458 0220 1340     		ands	r3, r2
 129:Generated_Source\PSoC6\pdl\drivers\peripheral\i2s/cy_i2s.c ****                            _BOOL2FLD(I2S_RX_CTL_B_CLOCK_INV, config->rxSdiLatchingTime) |
 459              		.loc 1 129 0
 460 0222 2022     		movs	r2, #32
 461 0224 A25C     		ldrb	r2, [r4, r2]
 462 0226 002A     		cmp	r2, #0
 463 0228 01D0     		beq	.L50
 464 022a 0822     		movs	r2, #8
 465 022c 00E0     		b	.L27
 466              	.L50:
 467 022e 0022     		movs	r2, #0
 468              	.L27:
 128:Generated_Source\PSoC6\pdl\drivers\peripheral\i2s/cy_i2s.c ****                            _BOOL2FLD(I2S_RX_CTL_B_CLOCK_INV, config->rxSdiLatchingTime) |
 469              		.loc 1 128 0
 470 0230 1343     		orrs	r3, r2
 130:Generated_Source\PSoC6\pdl\drivers\peripheral\i2s/cy_i2s.c ****                            _VAL2FLD(I2S_RX_CTL_CH_NR, channels) |
 471              		.loc 1 130 0
 472 0232 3A01     		lsls	r2, r7, #4
ARM GAS  C:\Users\ikomb\AppData\Local\Temp\cchczmzd.s 			page 12


 473 0234 7027     		movs	r7, #112
 474              	.LVL37:
 475 0236 1740     		ands	r7, r2
 129:Generated_Source\PSoC6\pdl\drivers\peripheral\i2s/cy_i2s.c ****                            _BOOL2FLD(I2S_RX_CTL_B_CLOCK_INV, config->rxSdiLatchingTime) |
 476              		.loc 1 129 0
 477 0238 1F43     		orrs	r7, r3
 131:Generated_Source\PSoC6\pdl\drivers\peripheral\i2s/cy_i2s.c ****                            _BOOL2FLD(I2S_RX_CTL_MS, config->rxMasterMode) |
 478              		.loc 1 131 0
 479 023a 237E     		ldrb	r3, [r4, #24]
 480 023c 002B     		cmp	r3, #0
 481 023e 01D0     		beq	.L51
 482 0240 8023     		movs	r3, #128
 483 0242 00E0     		b	.L28
 484              	.L51:
 485 0244 0023     		movs	r3, #0
 486              	.L28:
 130:Generated_Source\PSoC6\pdl\drivers\peripheral\i2s/cy_i2s.c ****                            _VAL2FLD(I2S_RX_CTL_CH_NR, channels) |
 487              		.loc 1 130 0
 488 0246 3B43     		orrs	r3, r7
 132:Generated_Source\PSoC6\pdl\drivers\peripheral\i2s/cy_i2s.c ****                            _VAL2FLD(I2S_RX_CTL_WS_PULSE, wsPulseWidth) |
 489              		.loc 1 132 0
 490 0248 4246     		mov	r2, r8
 491 024a 9202     		lsls	r2, r2, #10
 492 024c 8021     		movs	r1, #128
 493 024e C900     		lsls	r1, r1, #3
 494 0250 0A40     		ands	r2, r1
 131:Generated_Source\PSoC6\pdl\drivers\peripheral\i2s/cy_i2s.c ****                            _BOOL2FLD(I2S_RX_CTL_MS, config->rxMasterMode) |
 495              		.loc 1 131 0
 496 0252 1343     		orrs	r3, r2
 133:Generated_Source\PSoC6\pdl\drivers\peripheral\i2s/cy_i2s.c ****                            _BOOL2FLD(I2S_RX_CTL_WD_EN, config->rxWatchdogEnable) |
 497              		.loc 1 133 0
 498 0254 E27E     		ldrb	r2, [r4, #27]
 499 0256 002A     		cmp	r2, #0
 500 0258 02D0     		beq	.L52
 501 025a 8022     		movs	r2, #128
 502 025c 9201     		lsls	r2, r2, #6
 503 025e 00E0     		b	.L29
 504              	.L52:
 505 0260 0022     		movs	r2, #0
 506              	.L29:
 132:Generated_Source\PSoC6\pdl\drivers\peripheral\i2s/cy_i2s.c ****                            _VAL2FLD(I2S_RX_CTL_WS_PULSE, wsPulseWidth) |
 507              		.loc 1 132 0
 508 0262 1343     		orrs	r3, r2
 134:Generated_Source\PSoC6\pdl\drivers\peripheral\i2s/cy_i2s.c ****                            _BOOL2FLD(I2S_RX_CTL_SCKO_POL, config->rxSckoInversion) |
 509              		.loc 1 134 0
 510 0264 2122     		movs	r2, #33
 511 0266 A25C     		ldrb	r2, [r4, r2]
 512 0268 002A     		cmp	r2, #0
 513 026a 02D0     		beq	.L53
 514 026c 8022     		movs	r2, #128
 515 026e 5204     		lsls	r2, r2, #17
 516 0270 00E0     		b	.L30
 517              	.L53:
 518 0272 0022     		movs	r2, #0
 519              	.L30:
 133:Generated_Source\PSoC6\pdl\drivers\peripheral\i2s/cy_i2s.c ****                            _BOOL2FLD(I2S_RX_CTL_WD_EN, config->rxWatchdogEnable) |
 520              		.loc 1 133 0
ARM GAS  C:\Users\ikomb\AppData\Local\Temp\cchczmzd.s 			page 13


 521 0274 1343     		orrs	r3, r2
 135:Generated_Source\PSoC6\pdl\drivers\peripheral\i2s/cy_i2s.c ****                            _BOOL2FLD(I2S_RX_CTL_SCKI_POL, config->rxSckiInversion) |
 522              		.loc 1 135 0
 523 0276 2222     		movs	r2, #34
 524 0278 A25C     		ldrb	r2, [r4, r2]
 525 027a 002A     		cmp	r2, #0
 526 027c 02D0     		beq	.L54
 527 027e 8022     		movs	r2, #128
 528 0280 9204     		lsls	r2, r2, #18
 529 0282 00E0     		b	.L31
 530              	.L54:
 531 0284 0022     		movs	r2, #0
 532              	.L31:
 134:Generated_Source\PSoC6\pdl\drivers\peripheral\i2s/cy_i2s.c ****                            _BOOL2FLD(I2S_RX_CTL_SCKO_POL, config->rxSckoInversion) |
 533              		.loc 1 134 0
 534 0286 1343     		orrs	r3, r2
 136:Generated_Source\PSoC6\pdl\drivers\peripheral\i2s/cy_i2s.c ****                            _VAL2FLD(I2S_RX_CTL_CH_LEN, channelLength) |
 535              		.loc 1 136 0
 536 0288 3604     		lsls	r6, r6, #16
 537              	.LVL38:
 538 028a E022     		movs	r2, #224
 539 028c D202     		lsls	r2, r2, #11
 540 028e 1640     		ands	r6, r2
 135:Generated_Source\PSoC6\pdl\drivers\peripheral\i2s/cy_i2s.c ****                            _BOOL2FLD(I2S_RX_CTL_SCKI_POL, config->rxSckiInversion) |
 541              		.loc 1 135 0
 542 0290 3343     		orrs	r3, r6
 137:Generated_Source\PSoC6\pdl\drivers\peripheral\i2s/cy_i2s.c ****                            _VAL2FLD(I2S_RX_CTL_WORD_LEN, config->rxWordLength) |
 543              		.loc 1 137 0
 544 0292 2522     		movs	r2, #37
 545 0294 A25C     		ldrb	r2, [r4, r2]
 546 0296 1205     		lsls	r2, r2, #20
 547 0298 E021     		movs	r1, #224
 548 029a C903     		lsls	r1, r1, #15
 549 029c 0A40     		ands	r2, r1
 136:Generated_Source\PSoC6\pdl\drivers\peripheral\i2s/cy_i2s.c ****                            _VAL2FLD(I2S_RX_CTL_CH_LEN, channelLength) |
 550              		.loc 1 136 0
 551 029e 1343     		orrs	r3, r2
 138:Generated_Source\PSoC6\pdl\drivers\peripheral\i2s/cy_i2s.c ****                            _BOOL2FLD(I2S_RX_CTL_BIT_EXTENSION, config->rxSignExtension);
 552              		.loc 1 138 0
 553 02a0 2622     		movs	r2, #38
 554 02a2 A25C     		ldrb	r2, [r4, r2]
 555 02a4 002A     		cmp	r2, #0
 556 02a6 02D0     		beq	.L55
 557 02a8 8026     		movs	r6, #128
 558 02aa 3604     		lsls	r6, r6, #16
 559 02ac 00E0     		b	.L32
 560              	.L55:
 561 02ae 0026     		movs	r6, #0
 562              	.L32:
 137:Generated_Source\PSoC6\pdl\drivers\peripheral\i2s/cy_i2s.c ****                            _VAL2FLD(I2S_RX_CTL_WORD_LEN, config->rxWordLength) |
 563              		.loc 1 137 0
 564 02b0 3343     		orrs	r3, r6
 128:Generated_Source\PSoC6\pdl\drivers\peripheral\i2s/cy_i2s.c ****                            _BOOL2FLD(I2S_RX_CTL_B_CLOCK_INV, config->rxSdiLatchingTime) |
 565              		.loc 1 128 0
 566 02b2 A022     		movs	r2, #160
 567 02b4 AB50     		str	r3, [r5, r2]
 568              	.LVL39:
ARM GAS  C:\Users\ikomb\AppData\Local\Temp\cchczmzd.s 			page 14


 569              	.L19:
 139:Generated_Source\PSoC6\pdl\drivers\peripheral\i2s/cy_i2s.c ****         }
 140:Generated_Source\PSoC6\pdl\drivers\peripheral\i2s/cy_i2s.c **** 
 141:Generated_Source\PSoC6\pdl\drivers\peripheral\i2s/cy_i2s.c ****         /* The I2S enable setting */
 142:Generated_Source\PSoC6\pdl\drivers\peripheral\i2s/cy_i2s.c ****         if (config->txEnabled)
 570              		.loc 1 142 0
 571 02b6 2378     		ldrb	r3, [r4]
 572 02b8 002B     		cmp	r3, #0
 573 02ba 04D0     		beq	.L33
 143:Generated_Source\PSoC6\pdl\drivers\peripheral\i2s/cy_i2s.c ****         {
 144:Generated_Source\PSoC6\pdl\drivers\peripheral\i2s/cy_i2s.c ****             base->CTL |= I2S_CTL_TX_ENABLED_Msk;
 574              		.loc 1 144 0
 575 02bc 2B68     		ldr	r3, [r5]
 576 02be 8022     		movs	r2, #128
 577 02c0 D205     		lsls	r2, r2, #23
 578 02c2 1343     		orrs	r3, r2
 579 02c4 2B60     		str	r3, [r5]
 580              	.L33:
 145:Generated_Source\PSoC6\pdl\drivers\peripheral\i2s/cy_i2s.c ****         }
 146:Generated_Source\PSoC6\pdl\drivers\peripheral\i2s/cy_i2s.c **** 
 147:Generated_Source\PSoC6\pdl\drivers\peripheral\i2s/cy_i2s.c ****         if (config->rxEnabled)
 581              		.loc 1 147 0
 582 02c6 6378     		ldrb	r3, [r4, #1]
 583 02c8 002B     		cmp	r3, #0
 584 02ca 04D0     		beq	.L34
 148:Generated_Source\PSoC6\pdl\drivers\peripheral\i2s/cy_i2s.c ****         {
 149:Generated_Source\PSoC6\pdl\drivers\peripheral\i2s/cy_i2s.c ****             base->CTL |= I2S_CTL_RX_ENABLED_Msk;
 585              		.loc 1 149 0
 586 02cc 2B68     		ldr	r3, [r5]
 587 02ce 8022     		movs	r2, #128
 588 02d0 1206     		lsls	r2, r2, #24
 589 02d2 1343     		orrs	r3, r2
 590 02d4 2B60     		str	r3, [r5]
 591              	.L34:
 150:Generated_Source\PSoC6\pdl\drivers\peripheral\i2s/cy_i2s.c ****         }
 151:Generated_Source\PSoC6\pdl\drivers\peripheral\i2s/cy_i2s.c **** 
 152:Generated_Source\PSoC6\pdl\drivers\peripheral\i2s/cy_i2s.c ****         /* The FIFO setting */
 153:Generated_Source\PSoC6\pdl\drivers\peripheral\i2s/cy_i2s.c ****         if (config->txEnabled)
 592              		.loc 1 153 0
 593 02d6 2378     		ldrb	r3, [r4]
 594 02d8 002B     		cmp	r3, #0
 595 02da 0CD0     		beq	.L35
 154:Generated_Source\PSoC6\pdl\drivers\peripheral\i2s/cy_i2s.c ****         {
 155:Generated_Source\PSoC6\pdl\drivers\peripheral\i2s/cy_i2s.c ****             base->TX_FIFO_CTL = _VAL2FLD(I2S_TX_FIFO_CTL_TRIGGER_LEVEL, config->txFifoTriggerLevel)
 596              		.loc 1 155 0
 597 02dc E27D     		ldrb	r2, [r4, #23]
 598 02de 8023     		movs	r3, #128
 599 02e0 9B00     		lsls	r3, r3, #2
 600 02e2 EA50     		str	r2, [r5, r3]
 156:Generated_Source\PSoC6\pdl\drivers\peripheral\i2s/cy_i2s.c **** 
 157:Generated_Source\PSoC6\pdl\drivers\peripheral\i2s/cy_i2s.c ****             base->TR_CTL |= _BOOL2FLD(I2S_TR_CTL_TX_REQ_EN, config->txDmaTrigger);
 601              		.loc 1 157 0
 602 02e4 2B6C     		ldr	r3, [r5, #64]
 603 02e6 A278     		ldrb	r2, [r4, #2]
 604 02e8 002A     		cmp	r2, #0
 605 02ea 01D0     		beq	.L56
 606 02ec 0122     		movs	r2, #1
ARM GAS  C:\Users\ikomb\AppData\Local\Temp\cchczmzd.s 			page 15


 607 02ee 00E0     		b	.L36
 608              	.L56:
 609 02f0 0022     		movs	r2, #0
 610              	.L36:
 611              		.loc 1 157 0 is_stmt 0 discriminator 4
 612 02f2 1343     		orrs	r3, r2
 613 02f4 2B64     		str	r3, [r5, #64]
 614              	.L35:
 158:Generated_Source\PSoC6\pdl\drivers\peripheral\i2s/cy_i2s.c ****         }
 159:Generated_Source\PSoC6\pdl\drivers\peripheral\i2s/cy_i2s.c **** 
 160:Generated_Source\PSoC6\pdl\drivers\peripheral\i2s/cy_i2s.c ****         if (config->rxEnabled)
 615              		.loc 1 160 0 is_stmt 1
 616 02f6 6378     		ldrb	r3, [r4, #1]
 617 02f8 002B     		cmp	r3, #0
 618 02fa 19D0     		beq	.L57
 161:Generated_Source\PSoC6\pdl\drivers\peripheral\i2s/cy_i2s.c ****         {
 162:Generated_Source\PSoC6\pdl\drivers\peripheral\i2s/cy_i2s.c ****             base->RX_FIFO_CTL = _VAL2FLD(I2S_RX_FIFO_CTL_TRIGGER_LEVEL, config->rxFifoTriggerLevel)
 619              		.loc 1 162 0
 620 02fc 2723     		movs	r3, #39
 621 02fe E25C     		ldrb	r2, [r4, r3]
 622 0300 C023     		movs	r3, #192
 623 0302 9B00     		lsls	r3, r3, #2
 624 0304 EA50     		str	r2, [r5, r3]
 163:Generated_Source\PSoC6\pdl\drivers\peripheral\i2s/cy_i2s.c **** 
 164:Generated_Source\PSoC6\pdl\drivers\peripheral\i2s/cy_i2s.c ****             base->TR_CTL |= _BOOL2FLD(I2S_TR_CTL_RX_REQ_EN, config->rxDmaTrigger);
 625              		.loc 1 164 0
 626 0306 2B6C     		ldr	r3, [r5, #64]
 627 0308 E278     		ldrb	r2, [r4, #3]
 628 030a 002A     		cmp	r2, #0
 629 030c 02D0     		beq	.L58
 630 030e 8022     		movs	r2, #128
 631 0310 5202     		lsls	r2, r2, #9
 632 0312 00E0     		b	.L37
 633              	.L58:
 634 0314 0022     		movs	r2, #0
 635              	.L37:
 636              		.loc 1 164 0 is_stmt 0 discriminator 4
 637 0316 1343     		orrs	r3, r2
 638 0318 2B64     		str	r3, [r5, #64]
 165:Generated_Source\PSoC6\pdl\drivers\peripheral\i2s/cy_i2s.c ****         }
 166:Generated_Source\PSoC6\pdl\drivers\peripheral\i2s/cy_i2s.c ****         
 167:Generated_Source\PSoC6\pdl\drivers\peripheral\i2s/cy_i2s.c ****         ret = CY_I2S_SUCCESS;
 639              		.loc 1 167 0 is_stmt 1 discriminator 4
 640 031a 0020     		movs	r0, #0
 641 031c 09E0     		b	.L2
 642              	.LVL40:
 643              	.L38:
 644              	.LBE30:
  43:Generated_Source\PSoC6\pdl\drivers\peripheral\i2s/cy_i2s.c ****     
 645              		.loc 1 43 0
 646 031e 0348     		ldr	r0, .L59+4
 647              	.LVL41:
 648 0320 07E0     		b	.L2
 649              	.LVL42:
 650              	.L39:
 651 0322 0248     		ldr	r0, .L59+4
 652              	.LVL43:
ARM GAS  C:\Users\ikomb\AppData\Local\Temp\cchczmzd.s 			page 16


 653 0324 05E0     		b	.L2
 654              	.L60:
 655 0326 C046     		.align	2
 656              	.L59:
 657 0328 00000000 		.word	.LC0
 658 032c 01008200 		.word	8519681
 659              	.LVL44:
 660              	.L57:
 661              	.LBB31:
 662              		.loc 1 167 0
 663 0330 0020     		movs	r0, #0
 664              	.L2:
 665              	.LVL45:
 666              	.LBE31:
 168:Generated_Source\PSoC6\pdl\drivers\peripheral\i2s/cy_i2s.c ****     }
 169:Generated_Source\PSoC6\pdl\drivers\peripheral\i2s/cy_i2s.c **** 
 170:Generated_Source\PSoC6\pdl\drivers\peripheral\i2s/cy_i2s.c ****     return (ret);
 171:Generated_Source\PSoC6\pdl\drivers\peripheral\i2s/cy_i2s.c **** }
 667              		.loc 1 171 0
 668              		@ sp needed
 669              	.LVL46:
 670              	.LVL47:
 671 0332 04BC     		pop	{r2}
 672 0334 9046     		mov	r8, r2
 673 0336 F0BD     		pop	{r4, r5, r6, r7, pc}
 674              		.cfi_endproc
 675              	.LFE97:
 676              		.size	Cy_I2S_Init, .-Cy_I2S_Init
 677              		.section	.text.Cy_I2S_DeInit,"ax",%progbits
 678              		.align	2
 679              		.global	Cy_I2S_DeInit
 680              		.code	16
 681              		.thumb_func
 682              		.type	Cy_I2S_DeInit, %function
 683              	Cy_I2S_DeInit:
 684              	.LFB98:
 172:Generated_Source\PSoC6\pdl\drivers\peripheral\i2s/cy_i2s.c **** 
 173:Generated_Source\PSoC6\pdl\drivers\peripheral\i2s/cy_i2s.c **** 
 174:Generated_Source\PSoC6\pdl\drivers\peripheral\i2s/cy_i2s.c **** /*******************************************************************************
 175:Generated_Source\PSoC6\pdl\drivers\peripheral\i2s/cy_i2s.c **** * Function Name: Cy_I2S_DeInit
 176:Generated_Source\PSoC6\pdl\drivers\peripheral\i2s/cy_i2s.c **** ****************************************************************************//**
 177:Generated_Source\PSoC6\pdl\drivers\peripheral\i2s/cy_i2s.c **** *
 178:Generated_Source\PSoC6\pdl\drivers\peripheral\i2s/cy_i2s.c **** * Uninitializes the I2S module (reverts default register values).
 179:Generated_Source\PSoC6\pdl\drivers\peripheral\i2s/cy_i2s.c **** *
 180:Generated_Source\PSoC6\pdl\drivers\peripheral\i2s/cy_i2s.c **** * \param base The pointer to the I2S instance address.
 181:Generated_Source\PSoC6\pdl\drivers\peripheral\i2s/cy_i2s.c **** *
 182:Generated_Source\PSoC6\pdl\drivers\peripheral\i2s/cy_i2s.c **** * \funcusage
 183:Generated_Source\PSoC6\pdl\drivers\peripheral\i2s/cy_i2s.c **** * \snippet i2s/i2s_v2_0_sut_00.cydsn/main_cm4.c snippet_Cy_I2S_DeInit
 184:Generated_Source\PSoC6\pdl\drivers\peripheral\i2s/cy_i2s.c **** *
 185:Generated_Source\PSoC6\pdl\drivers\peripheral\i2s/cy_i2s.c **** *******************************************************************************/
 186:Generated_Source\PSoC6\pdl\drivers\peripheral\i2s/cy_i2s.c **** void Cy_I2S_DeInit(I2S_Type * base)
 187:Generated_Source\PSoC6\pdl\drivers\peripheral\i2s/cy_i2s.c **** {
 685              		.loc 1 187 0
 686              		.cfi_startproc
 687              		@ args = 0, pretend = 0, frame = 0
 688              		@ frame_needed = 0, uses_anonymous_args = 0
 689              		@ link register save eliminated.
ARM GAS  C:\Users\ikomb\AppData\Local\Temp\cchczmzd.s 			page 17


 690              	.LVL48:
 188:Generated_Source\PSoC6\pdl\drivers\peripheral\i2s/cy_i2s.c ****     base->INTR_MASK = 0UL; /* Disable interrupts prior to stopping the operation */
 691              		.loc 1 188 0
 692 0000 0023     		movs	r3, #0
 693 0002 0B4A     		ldr	r2, .L62
 694 0004 8350     		str	r3, [r0, r2]
 189:Generated_Source\PSoC6\pdl\drivers\peripheral\i2s/cy_i2s.c ****     base->CMD = 0UL;
 695              		.loc 1 189 0
 696 0006 0362     		str	r3, [r0, #32]
 190:Generated_Source\PSoC6\pdl\drivers\peripheral\i2s/cy_i2s.c ****     base->TR_CTL = 0UL;
 697              		.loc 1 190 0
 698 0008 0364     		str	r3, [r0, #64]
 191:Generated_Source\PSoC6\pdl\drivers\peripheral\i2s/cy_i2s.c ****     base->TX_FIFO_CTL = 0UL;
 699              		.loc 1 191 0
 700 000a 8022     		movs	r2, #128
 701 000c 9200     		lsls	r2, r2, #2
 702 000e 8350     		str	r3, [r0, r2]
 192:Generated_Source\PSoC6\pdl\drivers\peripheral\i2s/cy_i2s.c ****     base->RX_FIFO_CTL = 0UL;
 703              		.loc 1 192 0
 704 0010 0132     		adds	r2, r2, #1
 705 0012 FF32     		adds	r2, r2, #255
 706 0014 8350     		str	r3, [r0, r2]
 193:Generated_Source\PSoC6\pdl\drivers\peripheral\i2s/cy_i2s.c ****     base->CTL = 0UL;
 707              		.loc 1 193 0
 708 0016 0360     		str	r3, [r0]
 194:Generated_Source\PSoC6\pdl\drivers\peripheral\i2s/cy_i2s.c ****     base->TX_CTL = CY_I2S_TX_CTL_DEFAULT;
 709              		.loc 1 194 0
 710 0018 064A     		ldr	r2, .L62+4
 711 001a 8021     		movs	r1, #128
 712 001c 4250     		str	r2, [r0, r1]
 195:Generated_Source\PSoC6\pdl\drivers\peripheral\i2s/cy_i2s.c ****     base->RX_CTL = CY_I2S_RX_CTL_DEFAULT;
 713              		.loc 1 195 0
 714 001e 2031     		adds	r1, r1, #32
 715 0020 4250     		str	r2, [r0, r1]
 196:Generated_Source\PSoC6\pdl\drivers\peripheral\i2s/cy_i2s.c ****     base->TX_WATCHDOG = 0UL;
 716              		.loc 1 196 0
 717 0022 8422     		movs	r2, #132
 718 0024 8350     		str	r3, [r0, r2]
 197:Generated_Source\PSoC6\pdl\drivers\peripheral\i2s/cy_i2s.c ****     base->RX_WATCHDOG = 0UL;
 719              		.loc 1 197 0
 720 0026 2032     		adds	r2, r2, #32
 721 0028 8350     		str	r3, [r0, r2]
 198:Generated_Source\PSoC6\pdl\drivers\peripheral\i2s/cy_i2s.c ****     base->CLOCK_CTL = 0UL;
 722              		.loc 1 198 0
 723 002a 0361     		str	r3, [r0, #16]
 199:Generated_Source\PSoC6\pdl\drivers\peripheral\i2s/cy_i2s.c **** }
 724              		.loc 1 199 0
 725              		@ sp needed
 726 002c 7047     		bx	lr
 727              	.L63:
 728 002e C046     		.align	2
 729              	.L62:
 730 0030 080F0000 		.word	3848
 731 0034 10064400 		.word	4458000
 732              		.cfi_endproc
 733              	.LFE98:
 734              		.size	Cy_I2S_DeInit, .-Cy_I2S_DeInit
ARM GAS  C:\Users\ikomb\AppData\Local\Temp\cchczmzd.s 			page 18


 735              		.section	.text.Cy_I2S_DeepSleepCallback,"ax",%progbits
 736              		.align	2
 737              		.global	Cy_I2S_DeepSleepCallback
 738              		.code	16
 739              		.thumb_func
 740              		.type	Cy_I2S_DeepSleepCallback, %function
 741              	Cy_I2S_DeepSleepCallback:
 742              	.LFB99:
 200:Generated_Source\PSoC6\pdl\drivers\peripheral\i2s/cy_i2s.c **** 
 201:Generated_Source\PSoC6\pdl\drivers\peripheral\i2s/cy_i2s.c **** 
 202:Generated_Source\PSoC6\pdl\drivers\peripheral\i2s/cy_i2s.c **** /*******************************************************************************
 203:Generated_Source\PSoC6\pdl\drivers\peripheral\i2s/cy_i2s.c **** * Function Name: Cy_I2S_DeepSleepCallback
 204:Generated_Source\PSoC6\pdl\drivers\peripheral\i2s/cy_i2s.c **** ****************************************************************************//**
 205:Generated_Source\PSoC6\pdl\drivers\peripheral\i2s/cy_i2s.c **** *
 206:Generated_Source\PSoC6\pdl\drivers\peripheral\i2s/cy_i2s.c **** * This is a callback function to be used at the application layer to
 207:Generated_Source\PSoC6\pdl\drivers\peripheral\i2s/cy_i2s.c **** * manage an I2S operation during the Deep-Sleep cycle. It stores the I2S state 
 208:Generated_Source\PSoC6\pdl\drivers\peripheral\i2s/cy_i2s.c **** * (Tx/Rx enabled/disabled/paused) into the context structure and stops the 
 209:Generated_Source\PSoC6\pdl\drivers\peripheral\i2s/cy_i2s.c **** * communication before entering into Deep-Sleep power mode and restores the I2S
 210:Generated_Source\PSoC6\pdl\drivers\peripheral\i2s/cy_i2s.c **** * state after waking up.
 211:Generated_Source\PSoC6\pdl\drivers\peripheral\i2s/cy_i2s.c **** *
 212:Generated_Source\PSoC6\pdl\drivers\peripheral\i2s/cy_i2s.c **** * \param 
 213:Generated_Source\PSoC6\pdl\drivers\peripheral\i2s/cy_i2s.c **** * callbackParams - The pointer to the callback parameters structure, 
 214:Generated_Source\PSoC6\pdl\drivers\peripheral\i2s/cy_i2s.c **** * see \ref cy_stc_syspm_callback_params_t.
 215:Generated_Source\PSoC6\pdl\drivers\peripheral\i2s/cy_i2s.c **** *
 216:Generated_Source\PSoC6\pdl\drivers\peripheral\i2s/cy_i2s.c **** * \return the SysPm callback status \ref cy_en_syspm_status_t.
 217:Generated_Source\PSoC6\pdl\drivers\peripheral\i2s/cy_i2s.c **** *
 218:Generated_Source\PSoC6\pdl\drivers\peripheral\i2s/cy_i2s.c **** * \note Use the \ref cy_stc_i2s_context_t data type for definition of the 
 219:Generated_Source\PSoC6\pdl\drivers\peripheral\i2s/cy_i2s.c **** * *context element of the \ref cy_stc_syspm_callback_params_t strusture.
 220:Generated_Source\PSoC6\pdl\drivers\peripheral\i2s/cy_i2s.c **** *
 221:Generated_Source\PSoC6\pdl\drivers\peripheral\i2s/cy_i2s.c **** * \funcusage
 222:Generated_Source\PSoC6\pdl\drivers\peripheral\i2s/cy_i2s.c **** * \snippet i2s/i2s_v2_0_sut_00.cydsn/main_cm4.c snippet_Cy_I2S_DeepSleepCallback
 223:Generated_Source\PSoC6\pdl\drivers\peripheral\i2s/cy_i2s.c **** *
 224:Generated_Source\PSoC6\pdl\drivers\peripheral\i2s/cy_i2s.c **** *******************************************************************************/
 225:Generated_Source\PSoC6\pdl\drivers\peripheral\i2s/cy_i2s.c **** cy_en_syspm_status_t Cy_I2S_DeepSleepCallback(cy_stc_syspm_callback_params_t * callbackParams)
 226:Generated_Source\PSoC6\pdl\drivers\peripheral\i2s/cy_i2s.c **** {
 743              		.loc 1 226 0
 744              		.cfi_startproc
 745              		@ args = 0, pretend = 0, frame = 0
 746              		@ frame_needed = 0, uses_anonymous_args = 0
 747              	.LVL49:
 748 0000 70B5     		push	{r4, r5, r6, lr}
 749              		.cfi_def_cfa_offset 16
 750              		.cfi_offset 4, -16
 751              		.cfi_offset 5, -12
 752              		.cfi_offset 6, -8
 753              		.cfi_offset 14, -4
 754 0002 0500     		movs	r5, r0
 755              	.LVL50:
 227:Generated_Source\PSoC6\pdl\drivers\peripheral\i2s/cy_i2s.c ****     cy_en_syspm_status_t ret = CY_SYSPM_SUCCESS;
 228:Generated_Source\PSoC6\pdl\drivers\peripheral\i2s/cy_i2s.c ****     CY_ASSERT_L1(NULL != callbackParams->context);
 756              		.loc 1 228 0
 757 0004 8368     		ldr	r3, [r0, #8]
 758 0006 002B     		cmp	r3, #0
 759 0008 03D1     		bne	.L65
 760              		.loc 1 228 0 is_stmt 0 discriminator 1
 761 000a E421     		movs	r1, #228
 762 000c 3B48     		ldr	r0, .L80
ARM GAS  C:\Users\ikomb\AppData\Local\Temp\cchczmzd.s 			page 19


 763              	.LVL51:
 764 000e FFF7FEFF 		bl	Cy_SysLib_AssertFailed
 765              	.LVL52:
 766              	.L65:
 229:Generated_Source\PSoC6\pdl\drivers\peripheral\i2s/cy_i2s.c ****     I2S_Type * locBase = (I2S_Type*) callbackParams->base;
 767              		.loc 1 229 0 is_stmt 1
 768 0012 6C68     		ldr	r4, [r5, #4]
 769              	.LVL53:
 230:Generated_Source\PSoC6\pdl\drivers\peripheral\i2s/cy_i2s.c ****     uint32_t * locInterruptMask = (uint32_t*) &(((cy_stc_i2s_context_t*)(callbackParams->context))-
 770              		.loc 1 230 0
 771 0014 AE68     		ldr	r6, [r5, #8]
 772              	.LVL54:
 231:Generated_Source\PSoC6\pdl\drivers\peripheral\i2s/cy_i2s.c ****     uint32_t * locState = (uint32_t*) &(((cy_stc_i2s_context_t*)(callbackParams->context))->enableS
 232:Generated_Source\PSoC6\pdl\drivers\peripheral\i2s/cy_i2s.c ****     
 233:Generated_Source\PSoC6\pdl\drivers\peripheral\i2s/cy_i2s.c ****     switch(callbackParams->mode)
 773              		.loc 1 233 0
 774 0016 2B78     		ldrb	r3, [r5]
 775 0018 042B     		cmp	r3, #4
 776 001a 0AD0     		beq	.L67
 777 001c 04D8     		bhi	.L68
 778 001e 013B     		subs	r3, r3, #1
 779 0020 DBB2     		uxtb	r3, r3
 780 0022 012B     		cmp	r3, #1
 781 0024 03D9     		bls	.L79
 782 0026 67E0     		b	.L78
 783              	.L68:
 784 0028 082B     		cmp	r3, #8
 785 002a 1BD0     		beq	.L70
 786 002c 64E0     		b	.L78
 787              	.L79:
 227:Generated_Source\PSoC6\pdl\drivers\peripheral\i2s/cy_i2s.c ****     CY_ASSERT_L1(NULL != callbackParams->context);
 788              		.loc 1 227 0
 789 002e 0020     		movs	r0, #0
 790 0030 63E0     		b	.L66
 791              	.L67:
 792              	.LVL55:
 793              	.LBB32:
 794              	.LBB33:
 795              		.file 2 "Generated_Source\\PSoC6\\pdl\\drivers\\peripheral\\i2s\\cy_i2s.h"
   1:Generated_Source\PSoC6\pdl\drivers\peripheral\i2s/cy_i2s.h **** /***************************************************************************//**
   2:Generated_Source\PSoC6\pdl\drivers\peripheral\i2s/cy_i2s.h **** * \file cy_i2s.h
   3:Generated_Source\PSoC6\pdl\drivers\peripheral\i2s/cy_i2s.h **** * \version 2.0.1
   4:Generated_Source\PSoC6\pdl\drivers\peripheral\i2s/cy_i2s.h **** * 
   5:Generated_Source\PSoC6\pdl\drivers\peripheral\i2s/cy_i2s.h **** * The header file of the I2S driver.
   6:Generated_Source\PSoC6\pdl\drivers\peripheral\i2s/cy_i2s.h **** *
   7:Generated_Source\PSoC6\pdl\drivers\peripheral\i2s/cy_i2s.h **** ********************************************************************************
   8:Generated_Source\PSoC6\pdl\drivers\peripheral\i2s/cy_i2s.h **** * \copyright
   9:Generated_Source\PSoC6\pdl\drivers\peripheral\i2s/cy_i2s.h **** * Copyright 2016-2018, Cypress Semiconductor Corporation. All rights reserved.
  10:Generated_Source\PSoC6\pdl\drivers\peripheral\i2s/cy_i2s.h **** * You may use this file only in accordance with the license, terms, conditions,
  11:Generated_Source\PSoC6\pdl\drivers\peripheral\i2s/cy_i2s.h **** * disclaimers, and limitations in the end user license agreement accompanying
  12:Generated_Source\PSoC6\pdl\drivers\peripheral\i2s/cy_i2s.h **** * the software package with which this file was provided.
  13:Generated_Source\PSoC6\pdl\drivers\peripheral\i2s/cy_i2s.h **** *******************************************************************************/
  14:Generated_Source\PSoC6\pdl\drivers\peripheral\i2s/cy_i2s.h **** 
  15:Generated_Source\PSoC6\pdl\drivers\peripheral\i2s/cy_i2s.h **** /**
  16:Generated_Source\PSoC6\pdl\drivers\peripheral\i2s/cy_i2s.h **** * \defgroup group_i2s Inter-IC Sound (I2S)
  17:Generated_Source\PSoC6\pdl\drivers\peripheral\i2s/cy_i2s.h **** * \{
  18:Generated_Source\PSoC6\pdl\drivers\peripheral\i2s/cy_i2s.h **** * The I2S driver provides a function API to manage Inter-IC Sound. I2S is used 
ARM GAS  C:\Users\ikomb\AppData\Local\Temp\cchczmzd.s 			page 20


  19:Generated_Source\PSoC6\pdl\drivers\peripheral\i2s/cy_i2s.h **** * to send digital audio streaming data to external I2S devices, such as audio 
  20:Generated_Source\PSoC6\pdl\drivers\peripheral\i2s/cy_i2s.h **** * codecs or simple DACs. It can also receive digital audio streaming data.
  21:Generated_Source\PSoC6\pdl\drivers\peripheral\i2s/cy_i2s.h **** *
  22:Generated_Source\PSoC6\pdl\drivers\peripheral\i2s/cy_i2s.h **** * Features:
  23:Generated_Source\PSoC6\pdl\drivers\peripheral\i2s/cy_i2s.h **** * * An industry standard NXP I2S interface.
  24:Generated_Source\PSoC6\pdl\drivers\peripheral\i2s/cy_i2s.h **** * * Supports master/slave TX/RX operation.
  25:Generated_Source\PSoC6\pdl\drivers\peripheral\i2s/cy_i2s.h **** * * Programmable Channel/Word Lengths.
  26:Generated_Source\PSoC6\pdl\drivers\peripheral\i2s/cy_i2s.h **** * * Supports External Clock operation.
  27:Generated_Source\PSoC6\pdl\drivers\peripheral\i2s/cy_i2s.h **** *
  28:Generated_Source\PSoC6\pdl\drivers\peripheral\i2s/cy_i2s.h **** * The I2S bus is an industry standard. The hardware interface was 
  29:Generated_Source\PSoC6\pdl\drivers\peripheral\i2s/cy_i2s.h **** * developed by Philips Semiconductors (now NXP Semiconductors). 
  30:Generated_Source\PSoC6\pdl\drivers\peripheral\i2s/cy_i2s.h **** *
  31:Generated_Source\PSoC6\pdl\drivers\peripheral\i2s/cy_i2s.h **** * \section group_i2s_configuration_considerations Configuration Considerations
  32:Generated_Source\PSoC6\pdl\drivers\peripheral\i2s/cy_i2s.h **** *
  33:Generated_Source\PSoC6\pdl\drivers\peripheral\i2s/cy_i2s.h **** * To set up an I2S, provide the configuration parameters in the
  34:Generated_Source\PSoC6\pdl\drivers\peripheral\i2s/cy_i2s.h **** * \ref cy_stc_i2s_config_t structure. 
  35:Generated_Source\PSoC6\pdl\drivers\peripheral\i2s/cy_i2s.h **** * 
  36:Generated_Source\PSoC6\pdl\drivers\peripheral\i2s/cy_i2s.h **** * For example, for Tx configuration, set txEnabled to true, configure
  37:Generated_Source\PSoC6\pdl\drivers\peripheral\i2s/cy_i2s.h **** * txDmaTrigger (depending on whether DMA is going to be used or not), set
  38:Generated_Source\PSoC6\pdl\drivers\peripheral\i2s/cy_i2s.h **** * extClk (if an external clock is used), provide clkDiv, txMasterMode,
  39:Generated_Source\PSoC6\pdl\drivers\peripheral\i2s/cy_i2s.h **** * txAlignment, txChannels (only 2 is supported in I2S and Left Justified modes)
  40:Generated_Source\PSoC6\pdl\drivers\peripheral\i2s/cy_i2s.h **** * txSdoLatchingTime (for slave mode only), txChannelLength, txWordLength,
  41:Generated_Source\PSoC6\pdl\drivers\peripheral\i2s/cy_i2s.h **** * txWsPulseWidth (for TMD modes only), txWatchdogEnable and txWatchdogValue
  42:Generated_Source\PSoC6\pdl\drivers\peripheral\i2s/cy_i2s.h **** * (both for Slave mode only, and when the watchdog interrupt will be used),
  43:Generated_Source\PSoC6\pdl\drivers\peripheral\i2s/cy_i2s.h **** * either txSckoInversion or txSckiInversion (based on txMasterMode setting),
  44:Generated_Source\PSoC6\pdl\drivers\peripheral\i2s/cy_i2s.h **** * txFifoTriggerLevel (when the Trig interrupt will be used) and txOverheadValue
  45:Generated_Source\PSoC6\pdl\drivers\peripheral\i2s/cy_i2s.h **** * (only when the word length is less than channel length).
  46:Generated_Source\PSoC6\pdl\drivers\peripheral\i2s/cy_i2s.h **** * A similar setup is for the Rx configuration.
  47:Generated_Source\PSoC6\pdl\drivers\peripheral\i2s/cy_i2s.h **** *
  48:Generated_Source\PSoC6\pdl\drivers\peripheral\i2s/cy_i2s.h **** * To initialize the I2S block, call the \ref Cy_I2S_Init function, providing the
  49:Generated_Source\PSoC6\pdl\drivers\peripheral\i2s/cy_i2s.h **** * filled \ref cy_stc_i2s_config_t structure.
  50:Generated_Source\PSoC6\pdl\drivers\peripheral\i2s/cy_i2s.h **** * Before starting the transmission, clear the FIFO \ref Cy_I2S_ClearTxFifo, then
  51:Generated_Source\PSoC6\pdl\drivers\peripheral\i2s/cy_i2s.h **** * fill the first Tx data frame by calling \ref Cy_I2S_WriteTxData once for each
  52:Generated_Source\PSoC6\pdl\drivers\peripheral\i2s/cy_i2s.h **** * channel (e.g. twice for I2S mode with only two channels) with zero data. Then
  53:Generated_Source\PSoC6\pdl\drivers\peripheral\i2s/cy_i2s.h **** * call the \ref Cy_I2S_EnableTx itself.
  54:Generated_Source\PSoC6\pdl\drivers\peripheral\i2s/cy_i2s.h **** * For the reception the sequence is the same except for filling the first data
  55:Generated_Source\PSoC6\pdl\drivers\peripheral\i2s/cy_i2s.h **** * frame, just RX FIFO clearing is enough.
  56:Generated_Source\PSoC6\pdl\drivers\peripheral\i2s/cy_i2s.h **** *
  57:Generated_Source\PSoC6\pdl\drivers\peripheral\i2s/cy_i2s.h **** * For example:
  58:Generated_Source\PSoC6\pdl\drivers\peripheral\i2s/cy_i2s.h **** * \snippet i2s/i2s_v2_0_sut_00.cydsn/main_cm4.c snippet_Cy_I2S_Init
  59:Generated_Source\PSoC6\pdl\drivers\peripheral\i2s/cy_i2s.h **** * 
  60:Generated_Source\PSoC6\pdl\drivers\peripheral\i2s/cy_i2s.h **** * If you use a DMA, the DMA channel should be previously configured. The I2S interrupts 
  61:Generated_Source\PSoC6\pdl\drivers\peripheral\i2s/cy_i2s.h **** * (if applicable) can be enabled by calling \ref Cy_I2S_SetInterruptMask.
  62:Generated_Source\PSoC6\pdl\drivers\peripheral\i2s/cy_i2s.h **** *
  63:Generated_Source\PSoC6\pdl\drivers\peripheral\i2s/cy_i2s.h **** * For example, if the trigger interrupt is used, during operation the ISR
  64:Generated_Source\PSoC6\pdl\drivers\peripheral\i2s/cy_i2s.h **** * should call the \ref Cy_I2S_WriteTxData as many times as required for your 
  65:Generated_Source\PSoC6\pdl\drivers\peripheral\i2s/cy_i2s.h **** * FIFO payload, but not more than the FIFO size. Then call \ref Cy_I2S_ClearInterrupt 
  66:Generated_Source\PSoC6\pdl\drivers\peripheral\i2s/cy_i2s.h **** * with appropriate parameters.
  67:Generated_Source\PSoC6\pdl\drivers\peripheral\i2s/cy_i2s.h **** *
  68:Generated_Source\PSoC6\pdl\drivers\peripheral\i2s/cy_i2s.h **** * The I2S/Left Justified data formats always contains two data channels.
  69:Generated_Source\PSoC6\pdl\drivers\peripheral\i2s/cy_i2s.h **** * They are ordered one-by-one in the FIFOs, left always goes first.
  70:Generated_Source\PSoC6\pdl\drivers\peripheral\i2s/cy_i2s.h **** * So in case of mono audio stream transmission, each sample can be put twice
  71:Generated_Source\PSoC6\pdl\drivers\peripheral\i2s/cy_i2s.h **** * into the TX FIFO (in this case both channels will sound the same),
  72:Generated_Source\PSoC6\pdl\drivers\peripheral\i2s/cy_i2s.h **** * or combined with zeroes: sample1-zero-sample2-zero (in this case only the
  73:Generated_Source\PSoC6\pdl\drivers\peripheral\i2s/cy_i2s.h **** * left channel will finally sound, for right-only case zero should go first).
  74:Generated_Source\PSoC6\pdl\drivers\peripheral\i2s/cy_i2s.h **** * The TDM frame word order in FIFOs is similar, one-by-one.
  75:Generated_Source\PSoC6\pdl\drivers\peripheral\i2s/cy_i2s.h **** * 
ARM GAS  C:\Users\ikomb\AppData\Local\Temp\cchczmzd.s 			page 21


  76:Generated_Source\PSoC6\pdl\drivers\peripheral\i2s/cy_i2s.h **** * If a DMA is used and the DMA channel is properly configured - no CPU activity
  77:Generated_Source\PSoC6\pdl\drivers\peripheral\i2s/cy_i2s.h **** * (or any application code) is needed for I2S operation.
  78:Generated_Source\PSoC6\pdl\drivers\peripheral\i2s/cy_i2s.h **** *
  79:Generated_Source\PSoC6\pdl\drivers\peripheral\i2s/cy_i2s.h **** * The I2S frame appears as:
  80:Generated_Source\PSoC6\pdl\drivers\peripheral\i2s/cy_i2s.h **** * \image html i2s_frame.png
  81:Generated_Source\PSoC6\pdl\drivers\peripheral\i2s/cy_i2s.h **** * This is an example for the channel length = 32. A similar is for all the rest
  82:Generated_Source\PSoC6\pdl\drivers\peripheral\i2s/cy_i2s.h **** * channel lengths, with one limitation: the word length could be less or equal
  83:Generated_Source\PSoC6\pdl\drivers\peripheral\i2s/cy_i2s.h **** * to the channel length. See the device Technical Reference Manual (TRM)
  84:Generated_Source\PSoC6\pdl\drivers\peripheral\i2s/cy_i2s.h **** * for more details.
  85:Generated_Source\PSoC6\pdl\drivers\peripheral\i2s/cy_i2s.h **** *
  86:Generated_Source\PSoC6\pdl\drivers\peripheral\i2s/cy_i2s.h **** * \section group_i2s_more_information More Information
  87:Generated_Source\PSoC6\pdl\drivers\peripheral\i2s/cy_i2s.h **** * See: the the I2S chapter of the device technical reference manual (TRM);
  88:Generated_Source\PSoC6\pdl\drivers\peripheral\i2s/cy_i2s.h **** *      I2S_PDL Component datasheet;
  89:Generated_Source\PSoC6\pdl\drivers\peripheral\i2s/cy_i2s.h **** *      CE218636 - PSOC 6 MCU INTER-IC SOUND (I2S) EXAMPLE.
  90:Generated_Source\PSoC6\pdl\drivers\peripheral\i2s/cy_i2s.h **** *
  91:Generated_Source\PSoC6\pdl\drivers\peripheral\i2s/cy_i2s.h **** * \section group_i2s_MISRA MISRA-C Compliance
  92:Generated_Source\PSoC6\pdl\drivers\peripheral\i2s/cy_i2s.h **** * The I2S driver has the following specific deviations:
  93:Generated_Source\PSoC6\pdl\drivers\peripheral\i2s/cy_i2s.h **** * <table class="doxtable">
  94:Generated_Source\PSoC6\pdl\drivers\peripheral\i2s/cy_i2s.h **** *   <tr>
  95:Generated_Source\PSoC6\pdl\drivers\peripheral\i2s/cy_i2s.h **** *     <th>MISRA Rule</th>
  96:Generated_Source\PSoC6\pdl\drivers\peripheral\i2s/cy_i2s.h **** *     <th>Rule Class (Required/Advisory)</th>
  97:Generated_Source\PSoC6\pdl\drivers\peripheral\i2s/cy_i2s.h **** *     <th>Rule Description</th>
  98:Generated_Source\PSoC6\pdl\drivers\peripheral\i2s/cy_i2s.h **** *     <th>Description of Deviation(s)</th>
  99:Generated_Source\PSoC6\pdl\drivers\peripheral\i2s/cy_i2s.h **** *   </tr>
 100:Generated_Source\PSoC6\pdl\drivers\peripheral\i2s/cy_i2s.h **** *   <tr>
 101:Generated_Source\PSoC6\pdl\drivers\peripheral\i2s/cy_i2s.h **** *     <td>11.4</td>
 102:Generated_Source\PSoC6\pdl\drivers\peripheral\i2s/cy_i2s.h **** *     <td>A</td>
 103:Generated_Source\PSoC6\pdl\drivers\peripheral\i2s/cy_i2s.h **** *     <td>A cast should not be performed between a pointer to the object type and
 104:Generated_Source\PSoC6\pdl\drivers\peripheral\i2s/cy_i2s.h **** *         a different pointer to the object type.</td>
 105:Generated_Source\PSoC6\pdl\drivers\peripheral\i2s/cy_i2s.h **** *     <td>The function \ref Cy_I2S_DeepSleepCallback is a callback of
 106:Generated_Source\PSoC6\pdl\drivers\peripheral\i2s/cy_i2s.h **** *         \ref cy_en_syspm_status_t type. The cast operation safety in this
 107:Generated_Source\PSoC6\pdl\drivers\peripheral\i2s/cy_i2s.h **** *         function becomes the user responsibility because the pointer is
 108:Generated_Source\PSoC6\pdl\drivers\peripheral\i2s/cy_i2s.h **** *         initialized when a callback is registered in the SysPm driver.</td>
 109:Generated_Source\PSoC6\pdl\drivers\peripheral\i2s/cy_i2s.h **** *   </tr>
 110:Generated_Source\PSoC6\pdl\drivers\peripheral\i2s/cy_i2s.h **** * </table>
 111:Generated_Source\PSoC6\pdl\drivers\peripheral\i2s/cy_i2s.h **** *
 112:Generated_Source\PSoC6\pdl\drivers\peripheral\i2s/cy_i2s.h **** * \section group_i2s_changelog Changelog
 113:Generated_Source\PSoC6\pdl\drivers\peripheral\i2s/cy_i2s.h **** * <table class="doxtable">
 114:Generated_Source\PSoC6\pdl\drivers\peripheral\i2s/cy_i2s.h **** *   <tr><th>Version</th><th>Changes</th><th>Reason for Change</th></tr>
 115:Generated_Source\PSoC6\pdl\drivers\peripheral\i2s/cy_i2s.h **** *   <tr>
 116:Generated_Source\PSoC6\pdl\drivers\peripheral\i2s/cy_i2s.h **** *     <td>2.0.1</td>
 117:Generated_Source\PSoC6\pdl\drivers\peripheral\i2s/cy_i2s.h **** *     <td>Added Low Power Callback section</td>
 118:Generated_Source\PSoC6\pdl\drivers\peripheral\i2s/cy_i2s.h **** *     <td>Documentation update and clarification</td>
 119:Generated_Source\PSoC6\pdl\drivers\peripheral\i2s/cy_i2s.h **** *   </tr>
 120:Generated_Source\PSoC6\pdl\drivers\peripheral\i2s/cy_i2s.h **** *   <tr>
 121:Generated_Source\PSoC6\pdl\drivers\peripheral\i2s/cy_i2s.h **** *     <td>2.0</td>
 122:Generated_Source\PSoC6\pdl\drivers\peripheral\i2s/cy_i2s.h **** *     <td>The slave operation is added, Left Justified and TDM modes are added</td>
 123:Generated_Source\PSoC6\pdl\drivers\peripheral\i2s/cy_i2s.h **** *     <td></td>
 124:Generated_Source\PSoC6\pdl\drivers\peripheral\i2s/cy_i2s.h **** *   </tr>
 125:Generated_Source\PSoC6\pdl\drivers\peripheral\i2s/cy_i2s.h **** *   <tr>
 126:Generated_Source\PSoC6\pdl\drivers\peripheral\i2s/cy_i2s.h **** *     <td>1.0</td>
 127:Generated_Source\PSoC6\pdl\drivers\peripheral\i2s/cy_i2s.h **** *     <td>Initial version</td>
 128:Generated_Source\PSoC6\pdl\drivers\peripheral\i2s/cy_i2s.h **** *     <td></td>
 129:Generated_Source\PSoC6\pdl\drivers\peripheral\i2s/cy_i2s.h **** *   </tr>
 130:Generated_Source\PSoC6\pdl\drivers\peripheral\i2s/cy_i2s.h **** * </table>
 131:Generated_Source\PSoC6\pdl\drivers\peripheral\i2s/cy_i2s.h **** *
 132:Generated_Source\PSoC6\pdl\drivers\peripheral\i2s/cy_i2s.h **** * \defgroup group_i2s_macros Macros
ARM GAS  C:\Users\ikomb\AppData\Local\Temp\cchczmzd.s 			page 22


 133:Generated_Source\PSoC6\pdl\drivers\peripheral\i2s/cy_i2s.h **** * \defgroup group_i2s_functions Functions
 134:Generated_Source\PSoC6\pdl\drivers\peripheral\i2s/cy_i2s.h **** *   \{
 135:Generated_Source\PSoC6\pdl\drivers\peripheral\i2s/cy_i2s.h **** *       \defgroup group_i2s_functions_syspm_callback  Low Power Callback
 136:Generated_Source\PSoC6\pdl\drivers\peripheral\i2s/cy_i2s.h **** *   \}
 137:Generated_Source\PSoC6\pdl\drivers\peripheral\i2s/cy_i2s.h **** * \defgroup group_i2s_data_structures Data Structures
 138:Generated_Source\PSoC6\pdl\drivers\peripheral\i2s/cy_i2s.h **** * \defgroup group_i2s_enums Enumerated Types
 139:Generated_Source\PSoC6\pdl\drivers\peripheral\i2s/cy_i2s.h **** */
 140:Generated_Source\PSoC6\pdl\drivers\peripheral\i2s/cy_i2s.h **** 
 141:Generated_Source\PSoC6\pdl\drivers\peripheral\i2s/cy_i2s.h **** 
 142:Generated_Source\PSoC6\pdl\drivers\peripheral\i2s/cy_i2s.h **** #if !defined CY_I2S_H
 143:Generated_Source\PSoC6\pdl\drivers\peripheral\i2s/cy_i2s.h **** #define CY_I2S_H
 144:Generated_Source\PSoC6\pdl\drivers\peripheral\i2s/cy_i2s.h **** 
 145:Generated_Source\PSoC6\pdl\drivers\peripheral\i2s/cy_i2s.h **** #include <stddef.h>
 146:Generated_Source\PSoC6\pdl\drivers\peripheral\i2s/cy_i2s.h **** #include <stdbool.h>
 147:Generated_Source\PSoC6\pdl\drivers\peripheral\i2s/cy_i2s.h **** #include "syslib/cy_syslib.h"
 148:Generated_Source\PSoC6\pdl\drivers\peripheral\i2s/cy_i2s.h **** #include "syspm/cy_syspm.h"
 149:Generated_Source\PSoC6\pdl\drivers\peripheral\i2s/cy_i2s.h **** 
 150:Generated_Source\PSoC6\pdl\drivers\peripheral\i2s/cy_i2s.h **** #ifndef CY_IP_MXAUDIOSS
 151:Generated_Source\PSoC6\pdl\drivers\peripheral\i2s/cy_i2s.h ****     #error "The I2S driver is not supported on this device"
 152:Generated_Source\PSoC6\pdl\drivers\peripheral\i2s/cy_i2s.h **** #endif
 153:Generated_Source\PSoC6\pdl\drivers\peripheral\i2s/cy_i2s.h **** 
 154:Generated_Source\PSoC6\pdl\drivers\peripheral\i2s/cy_i2s.h **** #ifdef __cplusplus
 155:Generated_Source\PSoC6\pdl\drivers\peripheral\i2s/cy_i2s.h **** extern "C" {
 156:Generated_Source\PSoC6\pdl\drivers\peripheral\i2s/cy_i2s.h **** #endif
 157:Generated_Source\PSoC6\pdl\drivers\peripheral\i2s/cy_i2s.h **** 
 158:Generated_Source\PSoC6\pdl\drivers\peripheral\i2s/cy_i2s.h **** /** \addtogroup group_i2s_macros
 159:Generated_Source\PSoC6\pdl\drivers\peripheral\i2s/cy_i2s.h **** * \{
 160:Generated_Source\PSoC6\pdl\drivers\peripheral\i2s/cy_i2s.h **** */
 161:Generated_Source\PSoC6\pdl\drivers\peripheral\i2s/cy_i2s.h **** 
 162:Generated_Source\PSoC6\pdl\drivers\peripheral\i2s/cy_i2s.h **** /** The driver major version */
 163:Generated_Source\PSoC6\pdl\drivers\peripheral\i2s/cy_i2s.h **** #define CY_I2S_DRV_VERSION_MAJOR       2
 164:Generated_Source\PSoC6\pdl\drivers\peripheral\i2s/cy_i2s.h **** 
 165:Generated_Source\PSoC6\pdl\drivers\peripheral\i2s/cy_i2s.h **** /** The driver minor version */
 166:Generated_Source\PSoC6\pdl\drivers\peripheral\i2s/cy_i2s.h **** #define CY_I2S_DRV_VERSION_MINOR       0
 167:Generated_Source\PSoC6\pdl\drivers\peripheral\i2s/cy_i2s.h **** 
 168:Generated_Source\PSoC6\pdl\drivers\peripheral\i2s/cy_i2s.h **** /** The I2S driver identifier */
 169:Generated_Source\PSoC6\pdl\drivers\peripheral\i2s/cy_i2s.h **** #define CY_I2S_ID                      (CY_PDL_DRV_ID(0x20U))
 170:Generated_Source\PSoC6\pdl\drivers\peripheral\i2s/cy_i2s.h **** 
 171:Generated_Source\PSoC6\pdl\drivers\peripheral\i2s/cy_i2s.h **** /**
 172:Generated_Source\PSoC6\pdl\drivers\peripheral\i2s/cy_i2s.h **** * \defgroup group_i2s_macros_intrerrupt_masks Interrupt Masks
 173:Generated_Source\PSoC6\pdl\drivers\peripheral\i2s/cy_i2s.h **** * \{
 174:Generated_Source\PSoC6\pdl\drivers\peripheral\i2s/cy_i2s.h **** */
 175:Generated_Source\PSoC6\pdl\drivers\peripheral\i2s/cy_i2s.h **** 
 176:Generated_Source\PSoC6\pdl\drivers\peripheral\i2s/cy_i2s.h **** /** Bit 0: Less entries in the TX FIFO than specified by Trigger Level. */
 177:Generated_Source\PSoC6\pdl\drivers\peripheral\i2s/cy_i2s.h **** #define CY_I2S_INTR_TX_TRIGGER         (I2S_INTR_TX_TRIGGER_Msk)
 178:Generated_Source\PSoC6\pdl\drivers\peripheral\i2s/cy_i2s.h **** /** Bit 1: TX FIFO is not full. */
 179:Generated_Source\PSoC6\pdl\drivers\peripheral\i2s/cy_i2s.h **** #define CY_I2S_INTR_TX_NOT_FULL        (I2S_INTR_TX_NOT_FULL_Msk)
 180:Generated_Source\PSoC6\pdl\drivers\peripheral\i2s/cy_i2s.h **** /** Bit 4: TX FIFO is empty, i.e. it has 0 entries. */
 181:Generated_Source\PSoC6\pdl\drivers\peripheral\i2s/cy_i2s.h **** #define CY_I2S_INTR_TX_EMPTY           (I2S_INTR_TX_EMPTY_Msk)
 182:Generated_Source\PSoC6\pdl\drivers\peripheral\i2s/cy_i2s.h **** /** Bit 5: Attempt to write to a full TX FIFO. */
 183:Generated_Source\PSoC6\pdl\drivers\peripheral\i2s/cy_i2s.h **** #define CY_I2S_INTR_TX_OVERFLOW        (I2S_INTR_TX_OVERFLOW_Msk)
 184:Generated_Source\PSoC6\pdl\drivers\peripheral\i2s/cy_i2s.h **** /** Bit 6: Attempt to read from an empty TX FIFO.
 185:Generated_Source\PSoC6\pdl\drivers\peripheral\i2s/cy_i2s.h **** * This happens when the IP is ready to transfer data and TX_EMPTY is '1'. */
 186:Generated_Source\PSoC6\pdl\drivers\peripheral\i2s/cy_i2s.h **** #define CY_I2S_INTR_TX_UNDERFLOW       (I2S_INTR_TX_UNDERFLOW_Msk)
 187:Generated_Source\PSoC6\pdl\drivers\peripheral\i2s/cy_i2s.h **** /** Bit 8: Tx watchdog event occurs. */
 188:Generated_Source\PSoC6\pdl\drivers\peripheral\i2s/cy_i2s.h **** #define CY_I2S_INTR_TX_WD              (I2S_INTR_TX_WD_Msk)
 189:Generated_Source\PSoC6\pdl\drivers\peripheral\i2s/cy_i2s.h **** /** Bit 16: More entries in the RX FIFO than specified by Trigger Level. */
ARM GAS  C:\Users\ikomb\AppData\Local\Temp\cchczmzd.s 			page 23


 190:Generated_Source\PSoC6\pdl\drivers\peripheral\i2s/cy_i2s.h **** #define CY_I2S_INTR_RX_TRIGGER         (I2S_INTR_RX_TRIGGER_Msk)
 191:Generated_Source\PSoC6\pdl\drivers\peripheral\i2s/cy_i2s.h **** /** Bit 18: RX FIFO is not empty. */
 192:Generated_Source\PSoC6\pdl\drivers\peripheral\i2s/cy_i2s.h **** #define CY_I2S_INTR_RX_NOT_EMPTY       (I2S_INTR_RX_NOT_EMPTY_Msk)
 193:Generated_Source\PSoC6\pdl\drivers\peripheral\i2s/cy_i2s.h **** /** Bit 19: RX FIFO is full. */
 194:Generated_Source\PSoC6\pdl\drivers\peripheral\i2s/cy_i2s.h **** #define CY_I2S_INTR_RX_FULL            (I2S_INTR_RX_FULL_Msk)
 195:Generated_Source\PSoC6\pdl\drivers\peripheral\i2s/cy_i2s.h **** /** Bit 21: Attempt to write to a full RX FIFO. */
 196:Generated_Source\PSoC6\pdl\drivers\peripheral\i2s/cy_i2s.h **** #define CY_I2S_INTR_RX_OVERFLOW        (I2S_INTR_RX_OVERFLOW_Msk)
 197:Generated_Source\PSoC6\pdl\drivers\peripheral\i2s/cy_i2s.h **** /** Bit 22: Attempt to read from an empty RX FIFO. */
 198:Generated_Source\PSoC6\pdl\drivers\peripheral\i2s/cy_i2s.h **** #define CY_I2S_INTR_RX_UNDERFLOW       (I2S_INTR_RX_UNDERFLOW_Msk)
 199:Generated_Source\PSoC6\pdl\drivers\peripheral\i2s/cy_i2s.h **** /** Bit 24: Rx watchdog event occurs. */
 200:Generated_Source\PSoC6\pdl\drivers\peripheral\i2s/cy_i2s.h **** #define CY_I2S_INTR_RX_WD              (I2S_INTR_RX_WD_Msk)
 201:Generated_Source\PSoC6\pdl\drivers\peripheral\i2s/cy_i2s.h **** 
 202:Generated_Source\PSoC6\pdl\drivers\peripheral\i2s/cy_i2s.h **** /** \} group_i2s_macros_intrerrupt_masks */
 203:Generated_Source\PSoC6\pdl\drivers\peripheral\i2s/cy_i2s.h **** 
 204:Generated_Source\PSoC6\pdl\drivers\peripheral\i2s/cy_i2s.h **** 
 205:Generated_Source\PSoC6\pdl\drivers\peripheral\i2s/cy_i2s.h **** /**
 206:Generated_Source\PSoC6\pdl\drivers\peripheral\i2s/cy_i2s.h **** * \defgroup group_i2s_macros_current_state Current State
 207:Generated_Source\PSoC6\pdl\drivers\peripheral\i2s/cy_i2s.h **** * \{
 208:Generated_Source\PSoC6\pdl\drivers\peripheral\i2s/cy_i2s.h **** */
 209:Generated_Source\PSoC6\pdl\drivers\peripheral\i2s/cy_i2s.h **** 
 210:Generated_Source\PSoC6\pdl\drivers\peripheral\i2s/cy_i2s.h **** /** Transmission is active */ 
 211:Generated_Source\PSoC6\pdl\drivers\peripheral\i2s/cy_i2s.h **** #define CY_I2S_TX_START                (I2S_CMD_TX_START_Msk)
 212:Generated_Source\PSoC6\pdl\drivers\peripheral\i2s/cy_i2s.h **** /** Transmission is paused */
 213:Generated_Source\PSoC6\pdl\drivers\peripheral\i2s/cy_i2s.h **** #define CY_I2S_TX_PAUSE                (I2S_CMD_TX_PAUSE_Msk)
 214:Generated_Source\PSoC6\pdl\drivers\peripheral\i2s/cy_i2s.h **** /** Reception is active */
 215:Generated_Source\PSoC6\pdl\drivers\peripheral\i2s/cy_i2s.h **** #define CY_I2S_RX_START                (I2S_CMD_RX_START_Msk)
 216:Generated_Source\PSoC6\pdl\drivers\peripheral\i2s/cy_i2s.h **** 
 217:Generated_Source\PSoC6\pdl\drivers\peripheral\i2s/cy_i2s.h **** /** \} group_i2s_macros_current_state */
 218:Generated_Source\PSoC6\pdl\drivers\peripheral\i2s/cy_i2s.h **** 
 219:Generated_Source\PSoC6\pdl\drivers\peripheral\i2s/cy_i2s.h **** /** \} group_i2s_macros */
 220:Generated_Source\PSoC6\pdl\drivers\peripheral\i2s/cy_i2s.h **** 
 221:Generated_Source\PSoC6\pdl\drivers\peripheral\i2s/cy_i2s.h **** /**
 222:Generated_Source\PSoC6\pdl\drivers\peripheral\i2s/cy_i2s.h **** * \addtogroup group_i2s_enums
 223:Generated_Source\PSoC6\pdl\drivers\peripheral\i2s/cy_i2s.h **** * \{
 224:Generated_Source\PSoC6\pdl\drivers\peripheral\i2s/cy_i2s.h **** */
 225:Generated_Source\PSoC6\pdl\drivers\peripheral\i2s/cy_i2s.h **** 
 226:Generated_Source\PSoC6\pdl\drivers\peripheral\i2s/cy_i2s.h **** /**
 227:Generated_Source\PSoC6\pdl\drivers\peripheral\i2s/cy_i2s.h **** * I2S status definitions.
 228:Generated_Source\PSoC6\pdl\drivers\peripheral\i2s/cy_i2s.h **** */
 229:Generated_Source\PSoC6\pdl\drivers\peripheral\i2s/cy_i2s.h **** 
 230:Generated_Source\PSoC6\pdl\drivers\peripheral\i2s/cy_i2s.h **** typedef enum 
 231:Generated_Source\PSoC6\pdl\drivers\peripheral\i2s/cy_i2s.h **** {
 232:Generated_Source\PSoC6\pdl\drivers\peripheral\i2s/cy_i2s.h ****     CY_I2S_SUCCESS   = 0x00UL, /**< Successful. */
 233:Generated_Source\PSoC6\pdl\drivers\peripheral\i2s/cy_i2s.h ****     CY_I2S_BAD_PARAM = CY_I2S_ID | CY_PDL_STATUS_ERROR | 0x01UL /**< One or more invalid parameters
 234:Generated_Source\PSoC6\pdl\drivers\peripheral\i2s/cy_i2s.h **** } cy_en_i2s_status_t;
 235:Generated_Source\PSoC6\pdl\drivers\peripheral\i2s/cy_i2s.h **** 
 236:Generated_Source\PSoC6\pdl\drivers\peripheral\i2s/cy_i2s.h **** 
 237:Generated_Source\PSoC6\pdl\drivers\peripheral\i2s/cy_i2s.h **** /**
 238:Generated_Source\PSoC6\pdl\drivers\peripheral\i2s/cy_i2s.h **** * I2S data alignment.
 239:Generated_Source\PSoC6\pdl\drivers\peripheral\i2s/cy_i2s.h **** */
 240:Generated_Source\PSoC6\pdl\drivers\peripheral\i2s/cy_i2s.h **** typedef enum
 241:Generated_Source\PSoC6\pdl\drivers\peripheral\i2s/cy_i2s.h **** {
 242:Generated_Source\PSoC6\pdl\drivers\peripheral\i2s/cy_i2s.h ****     CY_I2S_LEFT_JUSTIFIED = 0U, /**< Left justified. */
 243:Generated_Source\PSoC6\pdl\drivers\peripheral\i2s/cy_i2s.h ****     CY_I2S_I2S_MODE       = 1U, /**< I2S mode. */
 244:Generated_Source\PSoC6\pdl\drivers\peripheral\i2s/cy_i2s.h ****     CY_I2S_TDM_MODE_A     = 2U, /**< TDM mode A. */
 245:Generated_Source\PSoC6\pdl\drivers\peripheral\i2s/cy_i2s.h ****     CY_I2S_TDM_MODE_B     = 3U  /**< TDM mode B. */
 246:Generated_Source\PSoC6\pdl\drivers\peripheral\i2s/cy_i2s.h **** } cy_en_i2s_alignment_t;
ARM GAS  C:\Users\ikomb\AppData\Local\Temp\cchczmzd.s 			page 24


 247:Generated_Source\PSoC6\pdl\drivers\peripheral\i2s/cy_i2s.h **** 
 248:Generated_Source\PSoC6\pdl\drivers\peripheral\i2s/cy_i2s.h **** /**
 249:Generated_Source\PSoC6\pdl\drivers\peripheral\i2s/cy_i2s.h **** * I2S channel/word length.
 250:Generated_Source\PSoC6\pdl\drivers\peripheral\i2s/cy_i2s.h **** */
 251:Generated_Source\PSoC6\pdl\drivers\peripheral\i2s/cy_i2s.h **** typedef enum
 252:Generated_Source\PSoC6\pdl\drivers\peripheral\i2s/cy_i2s.h **** {
 253:Generated_Source\PSoC6\pdl\drivers\peripheral\i2s/cy_i2s.h ****     CY_I2S_LEN8  = 0U, /**< Channel/word length:  8 bit. */
 254:Generated_Source\PSoC6\pdl\drivers\peripheral\i2s/cy_i2s.h ****     CY_I2S_LEN16 = 1U, /**< Channel/Word length: 16 bit. */
 255:Generated_Source\PSoC6\pdl\drivers\peripheral\i2s/cy_i2s.h ****     CY_I2S_LEN18 = 2U, /**< Channel/Word length: 18 bit. */
 256:Generated_Source\PSoC6\pdl\drivers\peripheral\i2s/cy_i2s.h ****     CY_I2S_LEN20 = 3U, /**< Channel/Word length: 20 bit. */
 257:Generated_Source\PSoC6\pdl\drivers\peripheral\i2s/cy_i2s.h ****     CY_I2S_LEN24 = 4U, /**< Channel/Word length: 24 bit. */
 258:Generated_Source\PSoC6\pdl\drivers\peripheral\i2s/cy_i2s.h ****     CY_I2S_LEN32 = 5U  /**< Channel/Word length: 32 bit. */
 259:Generated_Source\PSoC6\pdl\drivers\peripheral\i2s/cy_i2s.h **** } cy_en_i2s_len_t;
 260:Generated_Source\PSoC6\pdl\drivers\peripheral\i2s/cy_i2s.h **** 
 261:Generated_Source\PSoC6\pdl\drivers\peripheral\i2s/cy_i2s.h **** /**
 262:Generated_Source\PSoC6\pdl\drivers\peripheral\i2s/cy_i2s.h **** * I2S TX overhead value.
 263:Generated_Source\PSoC6\pdl\drivers\peripheral\i2s/cy_i2s.h **** */
 264:Generated_Source\PSoC6\pdl\drivers\peripheral\i2s/cy_i2s.h **** typedef enum
 265:Generated_Source\PSoC6\pdl\drivers\peripheral\i2s/cy_i2s.h **** {
 266:Generated_Source\PSoC6\pdl\drivers\peripheral\i2s/cy_i2s.h ****     CY_I2S_OVHDATA_ZERO = 0U, /**< Fill overhead bits by zeroes. */
 267:Generated_Source\PSoC6\pdl\drivers\peripheral\i2s/cy_i2s.h ****     CY_I2S_OVHDATA_ONE  = 1U, /**< Fill overhead bits by ones. */
 268:Generated_Source\PSoC6\pdl\drivers\peripheral\i2s/cy_i2s.h **** } cy_en_i2s_overhead_t;
 269:Generated_Source\PSoC6\pdl\drivers\peripheral\i2s/cy_i2s.h **** 
 270:Generated_Source\PSoC6\pdl\drivers\peripheral\i2s/cy_i2s.h **** /**
 271:Generated_Source\PSoC6\pdl\drivers\peripheral\i2s/cy_i2s.h **** * I2S WS pulse width.
 272:Generated_Source\PSoC6\pdl\drivers\peripheral\i2s/cy_i2s.h **** */
 273:Generated_Source\PSoC6\pdl\drivers\peripheral\i2s/cy_i2s.h **** typedef enum
 274:Generated_Source\PSoC6\pdl\drivers\peripheral\i2s/cy_i2s.h **** {
 275:Generated_Source\PSoC6\pdl\drivers\peripheral\i2s/cy_i2s.h ****     CY_I2S_WS_ONE_SCK_CYCLE      = 0U, /**< WS pulse width is one SCK cycle. */
 276:Generated_Source\PSoC6\pdl\drivers\peripheral\i2s/cy_i2s.h ****     CY_I2S_WS_ONE_CHANNEL_LENGTH = 1U, /**< WS pulse width is one channel length. */
 277:Generated_Source\PSoC6\pdl\drivers\peripheral\i2s/cy_i2s.h **** } cy_en_i2s_ws_pw_t;
 278:Generated_Source\PSoC6\pdl\drivers\peripheral\i2s/cy_i2s.h **** 
 279:Generated_Source\PSoC6\pdl\drivers\peripheral\i2s/cy_i2s.h **** /** \} group_i2s_enums */
 280:Generated_Source\PSoC6\pdl\drivers\peripheral\i2s/cy_i2s.h **** 
 281:Generated_Source\PSoC6\pdl\drivers\peripheral\i2s/cy_i2s.h **** /**
 282:Generated_Source\PSoC6\pdl\drivers\peripheral\i2s/cy_i2s.h **** * \addtogroup group_i2s_data_structures
 283:Generated_Source\PSoC6\pdl\drivers\peripheral\i2s/cy_i2s.h **** * \{
 284:Generated_Source\PSoC6\pdl\drivers\peripheral\i2s/cy_i2s.h **** */
 285:Generated_Source\PSoC6\pdl\drivers\peripheral\i2s/cy_i2s.h **** 
 286:Generated_Source\PSoC6\pdl\drivers\peripheral\i2s/cy_i2s.h **** /**
 287:Generated_Source\PSoC6\pdl\drivers\peripheral\i2s/cy_i2s.h **** * I2S initialization configuration.
 288:Generated_Source\PSoC6\pdl\drivers\peripheral\i2s/cy_i2s.h **** */
 289:Generated_Source\PSoC6\pdl\drivers\peripheral\i2s/cy_i2s.h **** typedef struct
 290:Generated_Source\PSoC6\pdl\drivers\peripheral\i2s/cy_i2s.h **** {
 291:Generated_Source\PSoC6\pdl\drivers\peripheral\i2s/cy_i2s.h ****     bool                  txEnabled;          /**< Enables the I2S TX component: 'false': disabled.
 292:Generated_Source\PSoC6\pdl\drivers\peripheral\i2s/cy_i2s.h ****     bool                  rxEnabled;          /**< Enables the I2S RX component: 'false': disabled.
 293:Generated_Source\PSoC6\pdl\drivers\peripheral\i2s/cy_i2s.h ****     bool                  txDmaTrigger;       /**< 'false': TX DMA trigger disable, 'true': TX DMA 
 294:Generated_Source\PSoC6\pdl\drivers\peripheral\i2s/cy_i2s.h ****     bool                  rxDmaTrigger;       /**< 'false': RX DMA trigger disable, 'true': RX DMA 
 295:Generated_Source\PSoC6\pdl\drivers\peripheral\i2s/cy_i2s.h ****     uint8_t               clkDiv;             /**< CLK_SEL divider: 1: Bypass, 2: 1/2, 3: 1/3, ...,
 296:Generated_Source\PSoC6\pdl\drivers\peripheral\i2s/cy_i2s.h ****     bool                  extClk;             /**< 'false': internal clock, 'true': external clock.
 297:Generated_Source\PSoC6\pdl\drivers\peripheral\i2s/cy_i2s.h ****     bool                  txMasterMode;       /**< 'false': TX in slave mode, 'true': TX in master 
 298:Generated_Source\PSoC6\pdl\drivers\peripheral\i2s/cy_i2s.h ****     cy_en_i2s_alignment_t txAlignment;        /**< TX data alignment, see: #cy_en_i2s_alignment_t. 
 299:Generated_Source\PSoC6\pdl\drivers\peripheral\i2s/cy_i2s.h ****     cy_en_i2s_ws_pw_t     txWsPulseWidth;     /**< TX Word Select pulse width.
 300:Generated_Source\PSoC6\pdl\drivers\peripheral\i2s/cy_i2s.h ****                                                    The value of this parameter is ignored in I2S an
 301:Generated_Source\PSoC6\pdl\drivers\peripheral\i2s/cy_i2s.h ****                                                    the WS pulse width is always "one channel length
 302:Generated_Source\PSoC6\pdl\drivers\peripheral\i2s/cy_i2s.h ****     bool                  txWatchdogEnable;   /**< 'false': TX watchdog disabled, 'true': TX watchd
 303:Generated_Source\PSoC6\pdl\drivers\peripheral\i2s/cy_i2s.h ****     uint32_t              txWatchdogValue;    /**< TX watchdog counter value (32 bit). */
ARM GAS  C:\Users\ikomb\AppData\Local\Temp\cchczmzd.s 			page 25


 304:Generated_Source\PSoC6\pdl\drivers\peripheral\i2s/cy_i2s.h ****     bool                  txSdoLatchingTime;  /**< 'false': SDO bit starts at falling edge (accordi
 305:Generated_Source\PSoC6\pdl\drivers\peripheral\i2s/cy_i2s.h ****                                                    Standard, if txSckoInversion is false),
 306:Generated_Source\PSoC6\pdl\drivers\peripheral\i2s/cy_i2s.h ****                                                    'true': SDO bit starts at rising edge which goes
 307:Generated_Source\PSoC6\pdl\drivers\peripheral\i2s/cy_i2s.h ****                                                    mentioned falling edge, i.e. the SDO signal is a
 308:Generated_Source\PSoC6\pdl\drivers\peripheral\i2s/cy_i2s.h ****                                                    period (if txSckoInversion is false).
 309:Generated_Source\PSoC6\pdl\drivers\peripheral\i2s/cy_i2s.h ****                                                    If txSckoInversion is true - the rising/falling 
 310:Generated_Source\PSoC6\pdl\drivers\peripheral\i2s/cy_i2s.h ****                                                    in above explanations.
 311:Generated_Source\PSoC6\pdl\drivers\peripheral\i2s/cy_i2s.h ****                                                    Effective only in slave mode, must be false in m
 312:Generated_Source\PSoC6\pdl\drivers\peripheral\i2s/cy_i2s.h ****     bool                  txSckoInversion;    /**< TX SCKO polarity:
 313:Generated_Source\PSoC6\pdl\drivers\peripheral\i2s/cy_i2s.h ****                                                    'false': When transmitter is in master mode, ser
 314:Generated_Source\PSoC6\pdl\drivers\peripheral\i2s/cy_i2s.h ****                                                             transmitted off the falling bit clock e
 315:Generated_Source\PSoC6\pdl\drivers\peripheral\i2s/cy_i2s.h ****                                                             the I2S Standard);
 316:Generated_Source\PSoC6\pdl\drivers\peripheral\i2s/cy_i2s.h ****                                                    'true':  When transmitter is in master mode, ser
 317:Generated_Source\PSoC6\pdl\drivers\peripheral\i2s/cy_i2s.h ****                                                             transmitted off the rising bit clock ed
 318:Generated_Source\PSoC6\pdl\drivers\peripheral\i2s/cy_i2s.h ****                                                    Effective only in master mode. */
 319:Generated_Source\PSoC6\pdl\drivers\peripheral\i2s/cy_i2s.h ****     bool                  txSckiInversion;    /**< TX SCKI polarity:
 320:Generated_Source\PSoC6\pdl\drivers\peripheral\i2s/cy_i2s.h ****                                                    'false': When transmitter is in slave mode, seri
 321:Generated_Source\PSoC6\pdl\drivers\peripheral\i2s/cy_i2s.h ****                                                             transmitted off the falling bit clock e
 322:Generated_Source\PSoC6\pdl\drivers\peripheral\i2s/cy_i2s.h ****                                                             the I2S Standard);
 323:Generated_Source\PSoC6\pdl\drivers\peripheral\i2s/cy_i2s.h ****                                                    'true':  When transmitter is in slave mode, seri
 324:Generated_Source\PSoC6\pdl\drivers\peripheral\i2s/cy_i2s.h ****                                                             transmitted off the rising bit clock ed
 325:Generated_Source\PSoC6\pdl\drivers\peripheral\i2s/cy_i2s.h ****                                                    Effective only in slave mode. */
 326:Generated_Source\PSoC6\pdl\drivers\peripheral\i2s/cy_i2s.h ****     uint8_t               txChannels;         /**< Number of TX channels, valid range is 1...8 for 
 327:Generated_Source\PSoC6\pdl\drivers\peripheral\i2s/cy_i2s.h ****                                                    In the I2S and Left Justified modes the value of
 328:Generated_Source\PSoC6\pdl\drivers\peripheral\i2s/cy_i2s.h ****                                                    ignored - the real number of channels is always 
 329:Generated_Source\PSoC6\pdl\drivers\peripheral\i2s/cy_i2s.h ****     cy_en_i2s_len_t       txChannelLength;    /**< TX channel length, see #cy_en_i2s_len_t,
 330:Generated_Source\PSoC6\pdl\drivers\peripheral\i2s/cy_i2s.h ****                                                    the value of this parameter is ignored in TDM mo
 331:Generated_Source\PSoC6\pdl\drivers\peripheral\i2s/cy_i2s.h ****                                                    channel length is 32 bit in these modes. */
 332:Generated_Source\PSoC6\pdl\drivers\peripheral\i2s/cy_i2s.h ****     cy_en_i2s_len_t       txWordLength;       /**< TX word length, see #cy_en_i2s_len_t,
 333:Generated_Source\PSoC6\pdl\drivers\peripheral\i2s/cy_i2s.h ****                                                    must be less or equal to txChannelLength. */
 334:Generated_Source\PSoC6\pdl\drivers\peripheral\i2s/cy_i2s.h ****     cy_en_i2s_overhead_t  txOverheadValue;    /**< TX overhead bits value
 335:Generated_Source\PSoC6\pdl\drivers\peripheral\i2s/cy_i2s.h ****                                                    when the word length is less than the channel le
 336:Generated_Source\PSoC6\pdl\drivers\peripheral\i2s/cy_i2s.h ****     uint8_t               txFifoTriggerLevel; /**< TX FIFO interrupt trigger level (0, 1, ..., 255)
 337:Generated_Source\PSoC6\pdl\drivers\peripheral\i2s/cy_i2s.h ****     bool                  rxMasterMode;       /**< 'false': RX in slave mode, 'true': RX in master 
 338:Generated_Source\PSoC6\pdl\drivers\peripheral\i2s/cy_i2s.h ****     cy_en_i2s_alignment_t rxAlignment;        /**< RX data alignment, see: #cy_en_i2s_alignment_t. 
 339:Generated_Source\PSoC6\pdl\drivers\peripheral\i2s/cy_i2s.h ****     cy_en_i2s_ws_pw_t     rxWsPulseWidth;     /**< RX Word Select pulse width.
 340:Generated_Source\PSoC6\pdl\drivers\peripheral\i2s/cy_i2s.h ****                                                    The value of this parameter is ignored in I2S an
 341:Generated_Source\PSoC6\pdl\drivers\peripheral\i2s/cy_i2s.h ****                                                    the WS pulse width is always "one channel length
 342:Generated_Source\PSoC6\pdl\drivers\peripheral\i2s/cy_i2s.h ****     bool                  rxWatchdogEnable;   /**< 'false': RX watchdog disabled, 'true': RX watchd
 343:Generated_Source\PSoC6\pdl\drivers\peripheral\i2s/cy_i2s.h ****     uint32_t              rxWatchdogValue;    /**< RX watchdog counter value (32 bit). */
 344:Generated_Source\PSoC6\pdl\drivers\peripheral\i2s/cy_i2s.h ****     bool                  rxSdiLatchingTime;  /**< 'false': SDI bit starts at falling edge (accordi
 345:Generated_Source\PSoC6\pdl\drivers\peripheral\i2s/cy_i2s.h ****                                                    Standard if rxSckoInversion is false),
 346:Generated_Source\PSoC6\pdl\drivers\peripheral\i2s/cy_i2s.h ****                                                    'true': SDI bit starts at rising edge which goes
 347:Generated_Source\PSoC6\pdl\drivers\peripheral\i2s/cy_i2s.h ****                                                    mentioned falling edge, i.e. the SDI signal is d
 348:Generated_Source\PSoC6\pdl\drivers\peripheral\i2s/cy_i2s.h ****                                                    period (if rxSckoInversion is false).
 349:Generated_Source\PSoC6\pdl\drivers\peripheral\i2s/cy_i2s.h ****                                                    If rxSckoInversion is true - the rising/falling 
 350:Generated_Source\PSoC6\pdl\drivers\peripheral\i2s/cy_i2s.h ****                                                    in above explanations.
 351:Generated_Source\PSoC6\pdl\drivers\peripheral\i2s/cy_i2s.h ****                                                    Effective only in master mode, must be false in 
 352:Generated_Source\PSoC6\pdl\drivers\peripheral\i2s/cy_i2s.h ****     bool                  rxSckoInversion;    /**< RX SCKO polarity:
 353:Generated_Source\PSoC6\pdl\drivers\peripheral\i2s/cy_i2s.h ****                                                    'false': When receiver is in master mode, serial
 354:Generated_Source\PSoC6\pdl\drivers\peripheral\i2s/cy_i2s.h ****                                                             captured by the rising bit clock edge (
 355:Generated_Source\PSoC6\pdl\drivers\peripheral\i2s/cy_i2s.h ****                                                             I2S Standard);
 356:Generated_Source\PSoC6\pdl\drivers\peripheral\i2s/cy_i2s.h ****                                                    'true':  When receiver is in master mode, serial
 357:Generated_Source\PSoC6\pdl\drivers\peripheral\i2s/cy_i2s.h ****                                                             captured by the falling bit clock edge.
 358:Generated_Source\PSoC6\pdl\drivers\peripheral\i2s/cy_i2s.h ****                                                    Effective only in master mode. */
 359:Generated_Source\PSoC6\pdl\drivers\peripheral\i2s/cy_i2s.h ****     bool                  rxSckiInversion;    /**< RX SCKI polarity:
 360:Generated_Source\PSoC6\pdl\drivers\peripheral\i2s/cy_i2s.h ****                                                    'false': When receiver is in slave mode, serial 
ARM GAS  C:\Users\ikomb\AppData\Local\Temp\cchczmzd.s 			page 26


 361:Generated_Source\PSoC6\pdl\drivers\peripheral\i2s/cy_i2s.h ****                                                             captured by the rising bit clock edge (
 362:Generated_Source\PSoC6\pdl\drivers\peripheral\i2s/cy_i2s.h ****                                                             I2S Standard);
 363:Generated_Source\PSoC6\pdl\drivers\peripheral\i2s/cy_i2s.h ****                                                    'true':  When receiver is in slave mode, serial 
 364:Generated_Source\PSoC6\pdl\drivers\peripheral\i2s/cy_i2s.h ****                                                             captured by the falling bit clock edge.
 365:Generated_Source\PSoC6\pdl\drivers\peripheral\i2s/cy_i2s.h ****                                                    Effective only in slave mode. */
 366:Generated_Source\PSoC6\pdl\drivers\peripheral\i2s/cy_i2s.h ****     uint8_t               rxChannels;         /**< Number of RX channels, valid range is 1...8 for 
 367:Generated_Source\PSoC6\pdl\drivers\peripheral\i2s/cy_i2s.h ****                                                    In the I2S and Left Justified modes the value of
 368:Generated_Source\PSoC6\pdl\drivers\peripheral\i2s/cy_i2s.h ****                                                    ignored - the real number of channels is always 
 369:Generated_Source\PSoC6\pdl\drivers\peripheral\i2s/cy_i2s.h ****     cy_en_i2s_len_t       rxChannelLength;    /**< RX channel length, see #cy_en_i2s_len_t,
 370:Generated_Source\PSoC6\pdl\drivers\peripheral\i2s/cy_i2s.h ****                                                    the value of this parameter is ignored in TDM mo
 371:Generated_Source\PSoC6\pdl\drivers\peripheral\i2s/cy_i2s.h ****                                                    channel length is 32 bit in these modes. */
 372:Generated_Source\PSoC6\pdl\drivers\peripheral\i2s/cy_i2s.h ****     cy_en_i2s_len_t       rxWordLength;       /**< RX word length, see #cy_en_i2s_len_t,
 373:Generated_Source\PSoC6\pdl\drivers\peripheral\i2s/cy_i2s.h ****                                                    must be less or equal to rxChannelLength. */
 374:Generated_Source\PSoC6\pdl\drivers\peripheral\i2s/cy_i2s.h ****     bool                  rxSignExtension;    /**< RX value sign extension (when the word length is
 375:Generated_Source\PSoC6\pdl\drivers\peripheral\i2s/cy_i2s.h ****                                                    'false': all MSB are filled by zeroes, 
 376:Generated_Source\PSoC6\pdl\drivers\peripheral\i2s/cy_i2s.h ****                                                    'true': all MSB are filled by the original sign 
 377:Generated_Source\PSoC6\pdl\drivers\peripheral\i2s/cy_i2s.h ****     uint8_t               rxFifoTriggerLevel; /**< RX FIFO interrupt trigger level
 378:Generated_Source\PSoC6\pdl\drivers\peripheral\i2s/cy_i2s.h ****                                                    (0, 1, ..., (255 - (number of channels))). */
 379:Generated_Source\PSoC6\pdl\drivers\peripheral\i2s/cy_i2s.h **** } cy_stc_i2s_config_t;
 380:Generated_Source\PSoC6\pdl\drivers\peripheral\i2s/cy_i2s.h **** 
 381:Generated_Source\PSoC6\pdl\drivers\peripheral\i2s/cy_i2s.h **** 
 382:Generated_Source\PSoC6\pdl\drivers\peripheral\i2s/cy_i2s.h **** /**
 383:Generated_Source\PSoC6\pdl\drivers\peripheral\i2s/cy_i2s.h ****  * The I2S backup structure type to be used for the SysPm callback.
 384:Generated_Source\PSoC6\pdl\drivers\peripheral\i2s/cy_i2s.h ****  * \ref Cy_I2S_DeepSleepCallback context definition.
 385:Generated_Source\PSoC6\pdl\drivers\peripheral\i2s/cy_i2s.h ****  *
 386:Generated_Source\PSoC6\pdl\drivers\peripheral\i2s/cy_i2s.h ****  * \cond Also can be used for other purposes to store the current Tx/Rx
 387:Generated_Source\PSoC6\pdl\drivers\peripheral\i2s/cy_i2s.h ****  * operation state and interrupt settings - the factors that are usually
 388:Generated_Source\PSoC6\pdl\drivers\peripheral\i2s/cy_i2s.h ****  * changed on the fly. \endcond
 389:Generated_Source\PSoC6\pdl\drivers\peripheral\i2s/cy_i2s.h ****  */
 390:Generated_Source\PSoC6\pdl\drivers\peripheral\i2s/cy_i2s.h **** typedef struct
 391:Generated_Source\PSoC6\pdl\drivers\peripheral\i2s/cy_i2s.h **** {
 392:Generated_Source\PSoC6\pdl\drivers\peripheral\i2s/cy_i2s.h ****     uint32_t enableState;            /**< Stores the I2S state */
 393:Generated_Source\PSoC6\pdl\drivers\peripheral\i2s/cy_i2s.h ****     uint32_t interruptMask;          /**< Stores the I2S interrupt mask */
 394:Generated_Source\PSoC6\pdl\drivers\peripheral\i2s/cy_i2s.h **** } cy_stc_i2s_context_t;
 395:Generated_Source\PSoC6\pdl\drivers\peripheral\i2s/cy_i2s.h **** 
 396:Generated_Source\PSoC6\pdl\drivers\peripheral\i2s/cy_i2s.h **** /** \} group_i2s_data_structures */
 397:Generated_Source\PSoC6\pdl\drivers\peripheral\i2s/cy_i2s.h **** 
 398:Generated_Source\PSoC6\pdl\drivers\peripheral\i2s/cy_i2s.h **** /** \cond INTERNAL */
 399:Generated_Source\PSoC6\pdl\drivers\peripheral\i2s/cy_i2s.h **** /******************************************************************************
 400:Generated_Source\PSoC6\pdl\drivers\peripheral\i2s/cy_i2s.h ****  * Local definitions
 401:Generated_Source\PSoC6\pdl\drivers\peripheral\i2s/cy_i2s.h **** *******************************************************************************/
 402:Generated_Source\PSoC6\pdl\drivers\peripheral\i2s/cy_i2s.h **** 
 403:Generated_Source\PSoC6\pdl\drivers\peripheral\i2s/cy_i2s.h **** #define CY_I2S_INTR_MASK           (CY_I2S_INTR_TX_TRIGGER   | \
 404:Generated_Source\PSoC6\pdl\drivers\peripheral\i2s/cy_i2s.h ****                                     CY_I2S_INTR_TX_NOT_FULL  | \
 405:Generated_Source\PSoC6\pdl\drivers\peripheral\i2s/cy_i2s.h ****                                     CY_I2S_INTR_TX_EMPTY     | \
 406:Generated_Source\PSoC6\pdl\drivers\peripheral\i2s/cy_i2s.h ****                                     CY_I2S_INTR_TX_OVERFLOW  | \
 407:Generated_Source\PSoC6\pdl\drivers\peripheral\i2s/cy_i2s.h ****                                     CY_I2S_INTR_TX_UNDERFLOW | \
 408:Generated_Source\PSoC6\pdl\drivers\peripheral\i2s/cy_i2s.h ****                                     CY_I2S_INTR_TX_WD        | \
 409:Generated_Source\PSoC6\pdl\drivers\peripheral\i2s/cy_i2s.h ****                                     CY_I2S_INTR_RX_TRIGGER   | \
 410:Generated_Source\PSoC6\pdl\drivers\peripheral\i2s/cy_i2s.h ****                                     CY_I2S_INTR_RX_NOT_EMPTY | \
 411:Generated_Source\PSoC6\pdl\drivers\peripheral\i2s/cy_i2s.h ****                                     CY_I2S_INTR_RX_FULL      | \
 412:Generated_Source\PSoC6\pdl\drivers\peripheral\i2s/cy_i2s.h ****                                     CY_I2S_INTR_RX_OVERFLOW  | \
 413:Generated_Source\PSoC6\pdl\drivers\peripheral\i2s/cy_i2s.h ****                                     CY_I2S_INTR_RX_UNDERFLOW | \
 414:Generated_Source\PSoC6\pdl\drivers\peripheral\i2s/cy_i2s.h ****                                     CY_I2S_INTR_RX_WD)
 415:Generated_Source\PSoC6\pdl\drivers\peripheral\i2s/cy_i2s.h **** 
 416:Generated_Source\PSoC6\pdl\drivers\peripheral\i2s/cy_i2s.h **** /* Non-zero default values */
 417:Generated_Source\PSoC6\pdl\drivers\peripheral\i2s/cy_i2s.h **** #define CY_I2S_TX_CTL_CH_NR_DEFAULT    (0x1U)
ARM GAS  C:\Users\ikomb\AppData\Local\Temp\cchczmzd.s 			page 27


 418:Generated_Source\PSoC6\pdl\drivers\peripheral\i2s/cy_i2s.h **** #define CY_I2S_TX_CTL_I2S_MODE_DEFAULT (0x2U)
 419:Generated_Source\PSoC6\pdl\drivers\peripheral\i2s/cy_i2s.h **** #define CY_I2S_TX_CTL_WS_PULSE_DEFAULT (0x1U)
 420:Generated_Source\PSoC6\pdl\drivers\peripheral\i2s/cy_i2s.h **** #define CY_I2S_TX_CTL_CH_LEN_DEFAULT   (0x4U)
 421:Generated_Source\PSoC6\pdl\drivers\peripheral\i2s/cy_i2s.h **** #define CY_I2S_TX_CTL_WORD_LEN_DEFAULT (0x4U)
 422:Generated_Source\PSoC6\pdl\drivers\peripheral\i2s/cy_i2s.h **** 
 423:Generated_Source\PSoC6\pdl\drivers\peripheral\i2s/cy_i2s.h **** #define CY_I2S_TX_CTL_DEFAULT (_VAL2FLD(I2S_TX_CTL_CH_NR,    CY_I2S_TX_CTL_CH_NR_DEFAULT)    | \
 424:Generated_Source\PSoC6\pdl\drivers\peripheral\i2s/cy_i2s.h ****                                _VAL2FLD(I2S_TX_CTL_I2S_MODE, CY_I2S_TX_CTL_I2S_MODE_DEFAULT) | \
 425:Generated_Source\PSoC6\pdl\drivers\peripheral\i2s/cy_i2s.h ****                                _VAL2FLD(I2S_TX_CTL_WS_PULSE, CY_I2S_TX_CTL_WS_PULSE_DEFAULT) | \
 426:Generated_Source\PSoC6\pdl\drivers\peripheral\i2s/cy_i2s.h ****                                _VAL2FLD(I2S_TX_CTL_CH_LEN,   CY_I2S_TX_CTL_CH_LEN_DEFAULT)   | \
 427:Generated_Source\PSoC6\pdl\drivers\peripheral\i2s/cy_i2s.h ****                                _VAL2FLD(I2S_TX_CTL_WORD_LEN, CY_I2S_TX_CTL_WORD_LEN_DEFAULT))
 428:Generated_Source\PSoC6\pdl\drivers\peripheral\i2s/cy_i2s.h **** 
 429:Generated_Source\PSoC6\pdl\drivers\peripheral\i2s/cy_i2s.h **** #define CY_I2S_RX_CTL_CH_NR_DEFAULT    (0x1U)
 430:Generated_Source\PSoC6\pdl\drivers\peripheral\i2s/cy_i2s.h **** #define CY_I2S_RX_CTL_I2S_MODE_DEFAULT (0x2U)
 431:Generated_Source\PSoC6\pdl\drivers\peripheral\i2s/cy_i2s.h **** #define CY_I2S_RX_CTL_WS_PULSE_DEFAULT (0x1U)
 432:Generated_Source\PSoC6\pdl\drivers\peripheral\i2s/cy_i2s.h **** #define CY_I2S_RX_CTL_CH_LEN_DEFAULT   (0x4U)
 433:Generated_Source\PSoC6\pdl\drivers\peripheral\i2s/cy_i2s.h **** #define CY_I2S_RX_CTL_WORD_LEN_DEFAULT (0x4U)
 434:Generated_Source\PSoC6\pdl\drivers\peripheral\i2s/cy_i2s.h **** 
 435:Generated_Source\PSoC6\pdl\drivers\peripheral\i2s/cy_i2s.h **** #define CY_I2S_RX_CTL_DEFAULT (_VAL2FLD(I2S_RX_CTL_CH_NR,    CY_I2S_RX_CTL_CH_NR_DEFAULT)    | \
 436:Generated_Source\PSoC6\pdl\drivers\peripheral\i2s/cy_i2s.h ****                                _VAL2FLD(I2S_RX_CTL_I2S_MODE, CY_I2S_RX_CTL_I2S_MODE_DEFAULT) | \
 437:Generated_Source\PSoC6\pdl\drivers\peripheral\i2s/cy_i2s.h ****                                _VAL2FLD(I2S_RX_CTL_WS_PULSE, CY_I2S_RX_CTL_WS_PULSE_DEFAULT) | \
 438:Generated_Source\PSoC6\pdl\drivers\peripheral\i2s/cy_i2s.h ****                                _VAL2FLD(I2S_RX_CTL_CH_LEN,   CY_I2S_RX_CTL_CH_LEN_DEFAULT)   | \
 439:Generated_Source\PSoC6\pdl\drivers\peripheral\i2s/cy_i2s.h ****                                _VAL2FLD(I2S_RX_CTL_WORD_LEN, CY_I2S_RX_CTL_WORD_LEN_DEFAULT))
 440:Generated_Source\PSoC6\pdl\drivers\peripheral\i2s/cy_i2s.h **** 
 441:Generated_Source\PSoC6\pdl\drivers\peripheral\i2s/cy_i2s.h **** /* Macros for conditions used by CY_ASSERT calls */
 442:Generated_Source\PSoC6\pdl\drivers\peripheral\i2s/cy_i2s.h **** #define CY_I2S_IS_ALIGNMENT_VALID(alignment) ((CY_I2S_LEFT_JUSTIFIED == (alignment)) || \
 443:Generated_Source\PSoC6\pdl\drivers\peripheral\i2s/cy_i2s.h ****                                               (CY_I2S_I2S_MODE       == (alignment)) || \
 444:Generated_Source\PSoC6\pdl\drivers\peripheral\i2s/cy_i2s.h ****                                               (CY_I2S_TDM_MODE_A     == (alignment)) || \
 445:Generated_Source\PSoC6\pdl\drivers\peripheral\i2s/cy_i2s.h ****                                               (CY_I2S_TDM_MODE_B     == (alignment)))
 446:Generated_Source\PSoC6\pdl\drivers\peripheral\i2s/cy_i2s.h **** 
 447:Generated_Source\PSoC6\pdl\drivers\peripheral\i2s/cy_i2s.h **** #define CY_I2S_IS_LEN_VALID(length)          ((CY_I2S_LEN8  == (length)) || \
 448:Generated_Source\PSoC6\pdl\drivers\peripheral\i2s/cy_i2s.h ****                                               (CY_I2S_LEN16 == (length)) || \
 449:Generated_Source\PSoC6\pdl\drivers\peripheral\i2s/cy_i2s.h ****                                               (CY_I2S_LEN18 == (length)) || \
 450:Generated_Source\PSoC6\pdl\drivers\peripheral\i2s/cy_i2s.h ****                                               (CY_I2S_LEN20 == (length)) || \
 451:Generated_Source\PSoC6\pdl\drivers\peripheral\i2s/cy_i2s.h ****                                               (CY_I2S_LEN24 == (length)) || \
 452:Generated_Source\PSoC6\pdl\drivers\peripheral\i2s/cy_i2s.h ****                                               (CY_I2S_LEN32 == (length)))
 453:Generated_Source\PSoC6\pdl\drivers\peripheral\i2s/cy_i2s.h **** 
 454:Generated_Source\PSoC6\pdl\drivers\peripheral\i2s/cy_i2s.h **** #define CY_I2S_IS_OVHDATA_VALID(overhead)    ((CY_I2S_OVHDATA_ZERO == (overhead)) || \
 455:Generated_Source\PSoC6\pdl\drivers\peripheral\i2s/cy_i2s.h ****                                               (CY_I2S_OVHDATA_ONE  == (overhead)))
 456:Generated_Source\PSoC6\pdl\drivers\peripheral\i2s/cy_i2s.h **** 
 457:Generated_Source\PSoC6\pdl\drivers\peripheral\i2s/cy_i2s.h **** #define CY_I2S_IS_WSPULSE_VALID(wsPulse)     ((CY_I2S_WS_ONE_SCK_CYCLE      == (wsPulse)) || \
 458:Generated_Source\PSoC6\pdl\drivers\peripheral\i2s/cy_i2s.h ****                                               (CY_I2S_WS_ONE_CHANNEL_LENGTH == (wsPulse)))
 459:Generated_Source\PSoC6\pdl\drivers\peripheral\i2s/cy_i2s.h **** 
 460:Generated_Source\PSoC6\pdl\drivers\peripheral\i2s/cy_i2s.h **** #define CY_I2S_IS_CLK_DIV_VALID(clkDiv)      ((clkDiv) <= 63U)
 461:Generated_Source\PSoC6\pdl\drivers\peripheral\i2s/cy_i2s.h **** #define CY_I2S_IS_CHANNELS_VALID(channels)   ((channels) <= 7UL)
 462:Generated_Source\PSoC6\pdl\drivers\peripheral\i2s/cy_i2s.h **** #define CY_I2S_IS_INTR_MASK_VALID(interrupt) (0UL == ((interrupt) & ((uint32_t) ~CY_I2S_INTR_MASK))
 463:Generated_Source\PSoC6\pdl\drivers\peripheral\i2s/cy_i2s.h **** 
 464:Generated_Source\PSoC6\pdl\drivers\peripheral\i2s/cy_i2s.h **** #define CY_I2S_IS_CHAN_WORD_VALID(channel, word)        ((CY_I2S_IS_LEN_VALID(channel)) && \
 465:Generated_Source\PSoC6\pdl\drivers\peripheral\i2s/cy_i2s.h ****                                                          (CY_I2S_IS_LEN_VALID(word))    && \
 466:Generated_Source\PSoC6\pdl\drivers\peripheral\i2s/cy_i2s.h ****                                                          ((channel) >= (word)))
 467:Generated_Source\PSoC6\pdl\drivers\peripheral\i2s/cy_i2s.h **** #define CY_I2S_IS_TRIG_LEVEL_VALID(trigLevel, channels) ((trigLevel) <= (255U - (channels)))
 468:Generated_Source\PSoC6\pdl\drivers\peripheral\i2s/cy_i2s.h **** 
 469:Generated_Source\PSoC6\pdl\drivers\peripheral\i2s/cy_i2s.h **** /** \endcond */
 470:Generated_Source\PSoC6\pdl\drivers\peripheral\i2s/cy_i2s.h **** 
 471:Generated_Source\PSoC6\pdl\drivers\peripheral\i2s/cy_i2s.h **** 
 472:Generated_Source\PSoC6\pdl\drivers\peripheral\i2s/cy_i2s.h **** /**
 473:Generated_Source\PSoC6\pdl\drivers\peripheral\i2s/cy_i2s.h **** * \addtogroup group_i2s_functions
 474:Generated_Source\PSoC6\pdl\drivers\peripheral\i2s/cy_i2s.h **** * \{
ARM GAS  C:\Users\ikomb\AppData\Local\Temp\cchczmzd.s 			page 28


 475:Generated_Source\PSoC6\pdl\drivers\peripheral\i2s/cy_i2s.h **** */
 476:Generated_Source\PSoC6\pdl\drivers\peripheral\i2s/cy_i2s.h **** 
 477:Generated_Source\PSoC6\pdl\drivers\peripheral\i2s/cy_i2s.h ****   cy_en_i2s_status_t     Cy_I2S_Init(I2S_Type * base, cy_stc_i2s_config_t const * config);
 478:Generated_Source\PSoC6\pdl\drivers\peripheral\i2s/cy_i2s.h ****                 void     Cy_I2S_DeInit(I2S_Type * base);
 479:Generated_Source\PSoC6\pdl\drivers\peripheral\i2s/cy_i2s.h ****                 
 480:Generated_Source\PSoC6\pdl\drivers\peripheral\i2s/cy_i2s.h **** /** \addtogroup group_i2s_functions_syspm_callback
 481:Generated_Source\PSoC6\pdl\drivers\peripheral\i2s/cy_i2s.h **** * The driver supports SysPm callback for Deep Sleep transition.
 482:Generated_Source\PSoC6\pdl\drivers\peripheral\i2s/cy_i2s.h **** * \{
 483:Generated_Source\PSoC6\pdl\drivers\peripheral\i2s/cy_i2s.h **** */
 484:Generated_Source\PSoC6\pdl\drivers\peripheral\i2s/cy_i2s.h **** cy_en_syspm_status_t     Cy_I2S_DeepSleepCallback(cy_stc_syspm_callback_params_t * callbackParams);
 485:Generated_Source\PSoC6\pdl\drivers\peripheral\i2s/cy_i2s.h **** /** \} */
 486:Generated_Source\PSoC6\pdl\drivers\peripheral\i2s/cy_i2s.h **** 
 487:Generated_Source\PSoC6\pdl\drivers\peripheral\i2s/cy_i2s.h **** __STATIC_INLINE void     Cy_I2S_EnableTx(I2S_Type * base);
 488:Generated_Source\PSoC6\pdl\drivers\peripheral\i2s/cy_i2s.h **** __STATIC_INLINE void     Cy_I2S_PauseTx(I2S_Type * base);
 489:Generated_Source\PSoC6\pdl\drivers\peripheral\i2s/cy_i2s.h **** __STATIC_INLINE void     Cy_I2S_ResumeTx(I2S_Type * base);
 490:Generated_Source\PSoC6\pdl\drivers\peripheral\i2s/cy_i2s.h **** __STATIC_INLINE void     Cy_I2S_DisableTx(I2S_Type * base);
 491:Generated_Source\PSoC6\pdl\drivers\peripheral\i2s/cy_i2s.h **** __STATIC_INLINE void     Cy_I2S_EnableRx(I2S_Type * base);
 492:Generated_Source\PSoC6\pdl\drivers\peripheral\i2s/cy_i2s.h **** __STATIC_INLINE void     Cy_I2S_DisableRx(I2S_Type * base);
 493:Generated_Source\PSoC6\pdl\drivers\peripheral\i2s/cy_i2s.h **** __STATIC_INLINE uint32_t Cy_I2S_GetCurrentState(I2S_Type const * base);
 494:Generated_Source\PSoC6\pdl\drivers\peripheral\i2s/cy_i2s.h **** 
 495:Generated_Source\PSoC6\pdl\drivers\peripheral\i2s/cy_i2s.h **** __STATIC_INLINE void     Cy_I2S_ClearTxFifo(I2S_Type * base);
 496:Generated_Source\PSoC6\pdl\drivers\peripheral\i2s/cy_i2s.h **** __STATIC_INLINE uint32_t Cy_I2S_GetNumInTxFifo(I2S_Type const * base);
 497:Generated_Source\PSoC6\pdl\drivers\peripheral\i2s/cy_i2s.h **** __STATIC_INLINE void     Cy_I2S_WriteTxData(I2S_Type * base, uint32_t data);
 498:Generated_Source\PSoC6\pdl\drivers\peripheral\i2s/cy_i2s.h **** __STATIC_INLINE uint8_t  Cy_I2S_GetTxReadPointer(I2S_Type const * base);
 499:Generated_Source\PSoC6\pdl\drivers\peripheral\i2s/cy_i2s.h **** __STATIC_INLINE uint8_t  Cy_I2S_GetTxWritePointer(I2S_Type const * base);
 500:Generated_Source\PSoC6\pdl\drivers\peripheral\i2s/cy_i2s.h **** __STATIC_INLINE void     Cy_I2S_FreezeTxFifo(I2S_Type * base);
 501:Generated_Source\PSoC6\pdl\drivers\peripheral\i2s/cy_i2s.h **** __STATIC_INLINE void     Cy_I2S_UnfreezeTxFifo(I2S_Type * base);
 502:Generated_Source\PSoC6\pdl\drivers\peripheral\i2s/cy_i2s.h **** 
 503:Generated_Source\PSoC6\pdl\drivers\peripheral\i2s/cy_i2s.h **** __STATIC_INLINE void     Cy_I2S_ClearRxFifo(I2S_Type * base);
 504:Generated_Source\PSoC6\pdl\drivers\peripheral\i2s/cy_i2s.h **** __STATIC_INLINE uint32_t Cy_I2S_GetNumInRxFifo(I2S_Type const * base);
 505:Generated_Source\PSoC6\pdl\drivers\peripheral\i2s/cy_i2s.h **** __STATIC_INLINE uint32_t Cy_I2S_ReadRxData(I2S_Type const * base);
 506:Generated_Source\PSoC6\pdl\drivers\peripheral\i2s/cy_i2s.h **** __STATIC_INLINE uint32_t Cy_I2S_ReadRxDataSilent(I2S_Type const * base);
 507:Generated_Source\PSoC6\pdl\drivers\peripheral\i2s/cy_i2s.h **** __STATIC_INLINE uint8_t  Cy_I2S_GetRxReadPointer(I2S_Type const * base);
 508:Generated_Source\PSoC6\pdl\drivers\peripheral\i2s/cy_i2s.h **** __STATIC_INLINE uint8_t  Cy_I2S_GetRxWritePointer(I2S_Type const * base);
 509:Generated_Source\PSoC6\pdl\drivers\peripheral\i2s/cy_i2s.h **** __STATIC_INLINE void     Cy_I2S_FreezeRxFifo(I2S_Type * base);
 510:Generated_Source\PSoC6\pdl\drivers\peripheral\i2s/cy_i2s.h **** __STATIC_INLINE void     Cy_I2S_UnfreezeRxFifo(I2S_Type * base);
 511:Generated_Source\PSoC6\pdl\drivers\peripheral\i2s/cy_i2s.h **** 
 512:Generated_Source\PSoC6\pdl\drivers\peripheral\i2s/cy_i2s.h **** __STATIC_INLINE uint32_t Cy_I2S_GetInterruptStatus(I2S_Type const * base);
 513:Generated_Source\PSoC6\pdl\drivers\peripheral\i2s/cy_i2s.h **** __STATIC_INLINE void     Cy_I2S_ClearInterrupt(I2S_Type * base, uint32_t interrupt);
 514:Generated_Source\PSoC6\pdl\drivers\peripheral\i2s/cy_i2s.h **** __STATIC_INLINE void     Cy_I2S_SetInterrupt(I2S_Type * base, uint32_t interrupt);
 515:Generated_Source\PSoC6\pdl\drivers\peripheral\i2s/cy_i2s.h **** __STATIC_INLINE uint32_t Cy_I2S_GetInterruptMask(I2S_Type const * base);
 516:Generated_Source\PSoC6\pdl\drivers\peripheral\i2s/cy_i2s.h **** __STATIC_INLINE void     Cy_I2S_SetInterruptMask(I2S_Type * base, uint32_t interrupt);
 517:Generated_Source\PSoC6\pdl\drivers\peripheral\i2s/cy_i2s.h **** __STATIC_INLINE uint32_t Cy_I2S_GetInterruptStatusMasked(I2S_Type const * base);
 518:Generated_Source\PSoC6\pdl\drivers\peripheral\i2s/cy_i2s.h **** 
 519:Generated_Source\PSoC6\pdl\drivers\peripheral\i2s/cy_i2s.h **** /*******************************************************************************
 520:Generated_Source\PSoC6\pdl\drivers\peripheral\i2s/cy_i2s.h **** * Function Name: Cy_I2S_EnableTx
 521:Generated_Source\PSoC6\pdl\drivers\peripheral\i2s/cy_i2s.h **** ****************************************************************************//**
 522:Generated_Source\PSoC6\pdl\drivers\peripheral\i2s/cy_i2s.h **** *
 523:Generated_Source\PSoC6\pdl\drivers\peripheral\i2s/cy_i2s.h **** * Starts an I2S transmission. Interrupts enabling (by the 
 524:Generated_Source\PSoC6\pdl\drivers\peripheral\i2s/cy_i2s.h **** * \ref Cy_I2S_SetInterruptMask) is required after this function call, in case
 525:Generated_Source\PSoC6\pdl\drivers\peripheral\i2s/cy_i2s.h **** * if any I2S interrupts are used in the application.
 526:Generated_Source\PSoC6\pdl\drivers\peripheral\i2s/cy_i2s.h **** *
 527:Generated_Source\PSoC6\pdl\drivers\peripheral\i2s/cy_i2s.h **** * \pre Cy_I2S_Init() must be called before.
 528:Generated_Source\PSoC6\pdl\drivers\peripheral\i2s/cy_i2s.h **** *
 529:Generated_Source\PSoC6\pdl\drivers\peripheral\i2s/cy_i2s.h **** * \param base The pointer to the I2S instance address.
 530:Generated_Source\PSoC6\pdl\drivers\peripheral\i2s/cy_i2s.h **** *
 531:Generated_Source\PSoC6\pdl\drivers\peripheral\i2s/cy_i2s.h **** * \funcusage
ARM GAS  C:\Users\ikomb\AppData\Local\Temp\cchczmzd.s 			page 29


 532:Generated_Source\PSoC6\pdl\drivers\peripheral\i2s/cy_i2s.h **** * \snippet i2s/i2s_v2_0_sut_00.cydsn/main_cm4.c snippet_Cy_I2S_EnableTx
 533:Generated_Source\PSoC6\pdl\drivers\peripheral\i2s/cy_i2s.h **** *
 534:Generated_Source\PSoC6\pdl\drivers\peripheral\i2s/cy_i2s.h **** *******************************************************************************/
 535:Generated_Source\PSoC6\pdl\drivers\peripheral\i2s/cy_i2s.h **** __STATIC_INLINE void Cy_I2S_EnableTx(I2S_Type * base)
 536:Generated_Source\PSoC6\pdl\drivers\peripheral\i2s/cy_i2s.h **** {
 537:Generated_Source\PSoC6\pdl\drivers\peripheral\i2s/cy_i2s.h ****     base->CMD |= I2S_CMD_TX_START_Msk;
 538:Generated_Source\PSoC6\pdl\drivers\peripheral\i2s/cy_i2s.h **** }
 539:Generated_Source\PSoC6\pdl\drivers\peripheral\i2s/cy_i2s.h **** 
 540:Generated_Source\PSoC6\pdl\drivers\peripheral\i2s/cy_i2s.h **** 
 541:Generated_Source\PSoC6\pdl\drivers\peripheral\i2s/cy_i2s.h **** /*******************************************************************************
 542:Generated_Source\PSoC6\pdl\drivers\peripheral\i2s/cy_i2s.h **** * Function Name: Cy_I2S_PauseTx
 543:Generated_Source\PSoC6\pdl\drivers\peripheral\i2s/cy_i2s.h **** ****************************************************************************//**
 544:Generated_Source\PSoC6\pdl\drivers\peripheral\i2s/cy_i2s.h **** *
 545:Generated_Source\PSoC6\pdl\drivers\peripheral\i2s/cy_i2s.h **** * Pauses an I2S transmission.
 546:Generated_Source\PSoC6\pdl\drivers\peripheral\i2s/cy_i2s.h **** *
 547:Generated_Source\PSoC6\pdl\drivers\peripheral\i2s/cy_i2s.h **** * \param base The pointer to the I2S instance address.
 548:Generated_Source\PSoC6\pdl\drivers\peripheral\i2s/cy_i2s.h **** *
 549:Generated_Source\PSoC6\pdl\drivers\peripheral\i2s/cy_i2s.h **** * \funcusage
 550:Generated_Source\PSoC6\pdl\drivers\peripheral\i2s/cy_i2s.h **** * \snippet i2s/i2s_v2_0_sut_00.cydsn/main_cm4.c snippet_Cy_I2S_PauseTx
 551:Generated_Source\PSoC6\pdl\drivers\peripheral\i2s/cy_i2s.h **** *
 552:Generated_Source\PSoC6\pdl\drivers\peripheral\i2s/cy_i2s.h **** *******************************************************************************/
 553:Generated_Source\PSoC6\pdl\drivers\peripheral\i2s/cy_i2s.h **** __STATIC_INLINE void Cy_I2S_PauseTx(I2S_Type * base)
 554:Generated_Source\PSoC6\pdl\drivers\peripheral\i2s/cy_i2s.h **** {
 555:Generated_Source\PSoC6\pdl\drivers\peripheral\i2s/cy_i2s.h ****     base->CMD |= I2S_CMD_TX_PAUSE_Msk;
 556:Generated_Source\PSoC6\pdl\drivers\peripheral\i2s/cy_i2s.h **** }
 557:Generated_Source\PSoC6\pdl\drivers\peripheral\i2s/cy_i2s.h **** 
 558:Generated_Source\PSoC6\pdl\drivers\peripheral\i2s/cy_i2s.h **** 
 559:Generated_Source\PSoC6\pdl\drivers\peripheral\i2s/cy_i2s.h **** /*******************************************************************************
 560:Generated_Source\PSoC6\pdl\drivers\peripheral\i2s/cy_i2s.h **** * Function Name: Cy_I2S_ResumeTx
 561:Generated_Source\PSoC6\pdl\drivers\peripheral\i2s/cy_i2s.h **** ****************************************************************************//**
 562:Generated_Source\PSoC6\pdl\drivers\peripheral\i2s/cy_i2s.h **** *
 563:Generated_Source\PSoC6\pdl\drivers\peripheral\i2s/cy_i2s.h **** * Resumes an I2S transmission.
 564:Generated_Source\PSoC6\pdl\drivers\peripheral\i2s/cy_i2s.h **** *
 565:Generated_Source\PSoC6\pdl\drivers\peripheral\i2s/cy_i2s.h **** * \param base The pointer to the I2S instance address.
 566:Generated_Source\PSoC6\pdl\drivers\peripheral\i2s/cy_i2s.h **** *
 567:Generated_Source\PSoC6\pdl\drivers\peripheral\i2s/cy_i2s.h **** * \funcusage
 568:Generated_Source\PSoC6\pdl\drivers\peripheral\i2s/cy_i2s.h **** * \snippet i2s/i2s_v2_0_sut_00.cydsn/main_cm4.c snippet_Cy_I2S_ResumeTx
 569:Generated_Source\PSoC6\pdl\drivers\peripheral\i2s/cy_i2s.h **** *
 570:Generated_Source\PSoC6\pdl\drivers\peripheral\i2s/cy_i2s.h **** *******************************************************************************/
 571:Generated_Source\PSoC6\pdl\drivers\peripheral\i2s/cy_i2s.h **** __STATIC_INLINE void Cy_I2S_ResumeTx(I2S_Type * base)
 572:Generated_Source\PSoC6\pdl\drivers\peripheral\i2s/cy_i2s.h **** {
 573:Generated_Source\PSoC6\pdl\drivers\peripheral\i2s/cy_i2s.h ****     base->CMD &= (uint32_t) ~I2S_CMD_TX_PAUSE_Msk;
 574:Generated_Source\PSoC6\pdl\drivers\peripheral\i2s/cy_i2s.h **** }
 575:Generated_Source\PSoC6\pdl\drivers\peripheral\i2s/cy_i2s.h **** 
 576:Generated_Source\PSoC6\pdl\drivers\peripheral\i2s/cy_i2s.h **** 
 577:Generated_Source\PSoC6\pdl\drivers\peripheral\i2s/cy_i2s.h **** /*******************************************************************************
 578:Generated_Source\PSoC6\pdl\drivers\peripheral\i2s/cy_i2s.h **** * Function Name: Cy_I2S_DisableTx
 579:Generated_Source\PSoC6\pdl\drivers\peripheral\i2s/cy_i2s.h **** ****************************************************************************//**
 580:Generated_Source\PSoC6\pdl\drivers\peripheral\i2s/cy_i2s.h **** *
 581:Generated_Source\PSoC6\pdl\drivers\peripheral\i2s/cy_i2s.h **** * Stops an I2S transmission. 
 582:Generated_Source\PSoC6\pdl\drivers\peripheral\i2s/cy_i2s.h **** *
 583:Generated_Source\PSoC6\pdl\drivers\peripheral\i2s/cy_i2s.h **** * \pre TX interrupts disabling (by the \ref Cy_I2S_SetInterruptMask) is required
 584:Generated_Source\PSoC6\pdl\drivers\peripheral\i2s/cy_i2s.h **** * prior to this function call, in case if any TX I2S interrupts are used.
 585:Generated_Source\PSoC6\pdl\drivers\peripheral\i2s/cy_i2s.h **** *
 586:Generated_Source\PSoC6\pdl\drivers\peripheral\i2s/cy_i2s.h **** * \param base The pointer to the I2S instance address.
 587:Generated_Source\PSoC6\pdl\drivers\peripheral\i2s/cy_i2s.h **** *
 588:Generated_Source\PSoC6\pdl\drivers\peripheral\i2s/cy_i2s.h **** * \funcusage
ARM GAS  C:\Users\ikomb\AppData\Local\Temp\cchczmzd.s 			page 30


 589:Generated_Source\PSoC6\pdl\drivers\peripheral\i2s/cy_i2s.h **** * \snippet i2s/i2s_v2_0_sut_00.cydsn/main_cm4.c snippet_Cy_I2S_DisableTx
 590:Generated_Source\PSoC6\pdl\drivers\peripheral\i2s/cy_i2s.h **** *
 591:Generated_Source\PSoC6\pdl\drivers\peripheral\i2s/cy_i2s.h **** *******************************************************************************/
 592:Generated_Source\PSoC6\pdl\drivers\peripheral\i2s/cy_i2s.h **** __STATIC_INLINE void Cy_I2S_DisableTx(I2S_Type * base)
 593:Generated_Source\PSoC6\pdl\drivers\peripheral\i2s/cy_i2s.h **** {
 594:Generated_Source\PSoC6\pdl\drivers\peripheral\i2s/cy_i2s.h ****     base->CMD &= (uint32_t) ~I2S_CMD_TX_START_Msk;
 595:Generated_Source\PSoC6\pdl\drivers\peripheral\i2s/cy_i2s.h **** }
 596:Generated_Source\PSoC6\pdl\drivers\peripheral\i2s/cy_i2s.h **** 
 597:Generated_Source\PSoC6\pdl\drivers\peripheral\i2s/cy_i2s.h **** 
 598:Generated_Source\PSoC6\pdl\drivers\peripheral\i2s/cy_i2s.h **** /*******************************************************************************
 599:Generated_Source\PSoC6\pdl\drivers\peripheral\i2s/cy_i2s.h **** * Function Name: Cy_I2S_EnableRx
 600:Generated_Source\PSoC6\pdl\drivers\peripheral\i2s/cy_i2s.h **** ****************************************************************************//**
 601:Generated_Source\PSoC6\pdl\drivers\peripheral\i2s/cy_i2s.h **** *
 602:Generated_Source\PSoC6\pdl\drivers\peripheral\i2s/cy_i2s.h **** * Starts an I2S reception. Interrupts enabling (by the 
 603:Generated_Source\PSoC6\pdl\drivers\peripheral\i2s/cy_i2s.h **** * \ref Cy_I2S_SetInterruptMask) is required after this function call, in case
 604:Generated_Source\PSoC6\pdl\drivers\peripheral\i2s/cy_i2s.h **** * if any I2S interrupts are used in the application.
 605:Generated_Source\PSoC6\pdl\drivers\peripheral\i2s/cy_i2s.h **** *
 606:Generated_Source\PSoC6\pdl\drivers\peripheral\i2s/cy_i2s.h **** * \pre \ref Cy_I2S_Init() must be called before.
 607:Generated_Source\PSoC6\pdl\drivers\peripheral\i2s/cy_i2s.h **** *
 608:Generated_Source\PSoC6\pdl\drivers\peripheral\i2s/cy_i2s.h **** * \param base The pointer to the I2S instance address.
 609:Generated_Source\PSoC6\pdl\drivers\peripheral\i2s/cy_i2s.h **** *
 610:Generated_Source\PSoC6\pdl\drivers\peripheral\i2s/cy_i2s.h **** * \funcusage
 611:Generated_Source\PSoC6\pdl\drivers\peripheral\i2s/cy_i2s.h **** * \snippet i2s/i2s_v2_0_sut_00.cydsn/main_cm4.c snippet_Cy_I2S_EnableRx
 612:Generated_Source\PSoC6\pdl\drivers\peripheral\i2s/cy_i2s.h **** *
 613:Generated_Source\PSoC6\pdl\drivers\peripheral\i2s/cy_i2s.h **** *******************************************************************************/
 614:Generated_Source\PSoC6\pdl\drivers\peripheral\i2s/cy_i2s.h **** __STATIC_INLINE void Cy_I2S_EnableRx(I2S_Type * base)
 615:Generated_Source\PSoC6\pdl\drivers\peripheral\i2s/cy_i2s.h **** {
 616:Generated_Source\PSoC6\pdl\drivers\peripheral\i2s/cy_i2s.h ****     base->CMD |= I2S_CMD_RX_START_Msk;
 617:Generated_Source\PSoC6\pdl\drivers\peripheral\i2s/cy_i2s.h **** }
 618:Generated_Source\PSoC6\pdl\drivers\peripheral\i2s/cy_i2s.h **** 
 619:Generated_Source\PSoC6\pdl\drivers\peripheral\i2s/cy_i2s.h **** 
 620:Generated_Source\PSoC6\pdl\drivers\peripheral\i2s/cy_i2s.h **** /*******************************************************************************
 621:Generated_Source\PSoC6\pdl\drivers\peripheral\i2s/cy_i2s.h **** * Function Name: Cy_I2S_DisableRx
 622:Generated_Source\PSoC6\pdl\drivers\peripheral\i2s/cy_i2s.h **** ****************************************************************************//**
 623:Generated_Source\PSoC6\pdl\drivers\peripheral\i2s/cy_i2s.h **** *
 624:Generated_Source\PSoC6\pdl\drivers\peripheral\i2s/cy_i2s.h **** * Stops an I2S reception.
 625:Generated_Source\PSoC6\pdl\drivers\peripheral\i2s/cy_i2s.h **** *
 626:Generated_Source\PSoC6\pdl\drivers\peripheral\i2s/cy_i2s.h **** * \pre RX interrupts disabling (by the \ref Cy_I2S_SetInterruptMask) is required
 627:Generated_Source\PSoC6\pdl\drivers\peripheral\i2s/cy_i2s.h **** * prior to this function call, in case if any RX I2S interrupts are used.
 628:Generated_Source\PSoC6\pdl\drivers\peripheral\i2s/cy_i2s.h **** *
 629:Generated_Source\PSoC6\pdl\drivers\peripheral\i2s/cy_i2s.h **** * \param base The pointer to the I2S instance address.
 630:Generated_Source\PSoC6\pdl\drivers\peripheral\i2s/cy_i2s.h **** *
 631:Generated_Source\PSoC6\pdl\drivers\peripheral\i2s/cy_i2s.h **** * \funcusage
 632:Generated_Source\PSoC6\pdl\drivers\peripheral\i2s/cy_i2s.h **** * \snippet i2s/i2s_v2_0_sut_00.cydsn/main_cm4.c snippet_Cy_I2S_DisableRx
 633:Generated_Source\PSoC6\pdl\drivers\peripheral\i2s/cy_i2s.h **** *
 634:Generated_Source\PSoC6\pdl\drivers\peripheral\i2s/cy_i2s.h **** *******************************************************************************/
 635:Generated_Source\PSoC6\pdl\drivers\peripheral\i2s/cy_i2s.h **** __STATIC_INLINE void Cy_I2S_DisableRx(I2S_Type * base)
 636:Generated_Source\PSoC6\pdl\drivers\peripheral\i2s/cy_i2s.h **** {
 637:Generated_Source\PSoC6\pdl\drivers\peripheral\i2s/cy_i2s.h ****     base->CMD &= (uint32_t) ~I2S_CMD_RX_START_Msk;
 638:Generated_Source\PSoC6\pdl\drivers\peripheral\i2s/cy_i2s.h **** }
 639:Generated_Source\PSoC6\pdl\drivers\peripheral\i2s/cy_i2s.h **** 
 640:Generated_Source\PSoC6\pdl\drivers\peripheral\i2s/cy_i2s.h **** 
 641:Generated_Source\PSoC6\pdl\drivers\peripheral\i2s/cy_i2s.h **** /*******************************************************************************
 642:Generated_Source\PSoC6\pdl\drivers\peripheral\i2s/cy_i2s.h **** * Function Name: Cy_I2S_GetCurrentState
 643:Generated_Source\PSoC6\pdl\drivers\peripheral\i2s/cy_i2s.h **** ****************************************************************************//**
 644:Generated_Source\PSoC6\pdl\drivers\peripheral\i2s/cy_i2s.h **** *
 645:Generated_Source\PSoC6\pdl\drivers\peripheral\i2s/cy_i2s.h **** * Returns the current I2S state (TX/RX running/paused/stopped).
ARM GAS  C:\Users\ikomb\AppData\Local\Temp\cchczmzd.s 			page 31


 646:Generated_Source\PSoC6\pdl\drivers\peripheral\i2s/cy_i2s.h **** *
 647:Generated_Source\PSoC6\pdl\drivers\peripheral\i2s/cy_i2s.h **** * \param base The pointer to the I2S instance address.
 648:Generated_Source\PSoC6\pdl\drivers\peripheral\i2s/cy_i2s.h **** *
 649:Generated_Source\PSoC6\pdl\drivers\peripheral\i2s/cy_i2s.h **** * \return The current state \ref group_i2s_macros_current_state.
 650:Generated_Source\PSoC6\pdl\drivers\peripheral\i2s/cy_i2s.h **** *
 651:Generated_Source\PSoC6\pdl\drivers\peripheral\i2s/cy_i2s.h **** * \funcusage
 652:Generated_Source\PSoC6\pdl\drivers\peripheral\i2s/cy_i2s.h **** * \snippet i2s/i2s_v2_0_sut_00.cydsn/main_cm4.c snippet_Cy_I2S_GetCurrentState
 653:Generated_Source\PSoC6\pdl\drivers\peripheral\i2s/cy_i2s.h **** *
 654:Generated_Source\PSoC6\pdl\drivers\peripheral\i2s/cy_i2s.h **** *******************************************************************************/
 655:Generated_Source\PSoC6\pdl\drivers\peripheral\i2s/cy_i2s.h **** __STATIC_INLINE uint32_t Cy_I2S_GetCurrentState(I2S_Type const * base)
 656:Generated_Source\PSoC6\pdl\drivers\peripheral\i2s/cy_i2s.h **** {
 657:Generated_Source\PSoC6\pdl\drivers\peripheral\i2s/cy_i2s.h ****     return (base->CMD & (I2S_CMD_TX_START_Msk | I2S_CMD_TX_PAUSE_Msk | I2S_CMD_RX_START_Msk));
 658:Generated_Source\PSoC6\pdl\drivers\peripheral\i2s/cy_i2s.h **** }
 659:Generated_Source\PSoC6\pdl\drivers\peripheral\i2s/cy_i2s.h **** 
 660:Generated_Source\PSoC6\pdl\drivers\peripheral\i2s/cy_i2s.h **** 
 661:Generated_Source\PSoC6\pdl\drivers\peripheral\i2s/cy_i2s.h **** /*******************************************************************************
 662:Generated_Source\PSoC6\pdl\drivers\peripheral\i2s/cy_i2s.h **** * Function Name: Cy_I2S_ClearTxFifo
 663:Generated_Source\PSoC6\pdl\drivers\peripheral\i2s/cy_i2s.h **** ****************************************************************************//**
 664:Generated_Source\PSoC6\pdl\drivers\peripheral\i2s/cy_i2s.h **** *
 665:Generated_Source\PSoC6\pdl\drivers\peripheral\i2s/cy_i2s.h **** * Clears the TX FIFO (resets the Read/Write FIFO pointers).
 666:Generated_Source\PSoC6\pdl\drivers\peripheral\i2s/cy_i2s.h **** *
 667:Generated_Source\PSoC6\pdl\drivers\peripheral\i2s/cy_i2s.h **** * \param base The pointer to the I2S instance address.
 668:Generated_Source\PSoC6\pdl\drivers\peripheral\i2s/cy_i2s.h **** *
 669:Generated_Source\PSoC6\pdl\drivers\peripheral\i2s/cy_i2s.h **** * \funcusage
 670:Generated_Source\PSoC6\pdl\drivers\peripheral\i2s/cy_i2s.h **** * \snippet i2s/i2s_v2_0_sut_00.cydsn/main_cm4.c snippet_Cy_I2S_ClearTxFifo
 671:Generated_Source\PSoC6\pdl\drivers\peripheral\i2s/cy_i2s.h **** *
 672:Generated_Source\PSoC6\pdl\drivers\peripheral\i2s/cy_i2s.h **** *******************************************************************************/
 673:Generated_Source\PSoC6\pdl\drivers\peripheral\i2s/cy_i2s.h **** __STATIC_INLINE void Cy_I2S_ClearTxFifo(I2S_Type * base)
 674:Generated_Source\PSoC6\pdl\drivers\peripheral\i2s/cy_i2s.h **** {
 675:Generated_Source\PSoC6\pdl\drivers\peripheral\i2s/cy_i2s.h ****     base->TX_FIFO_CTL |= I2S_TX_FIFO_CTL_CLEAR_Msk;
 676:Generated_Source\PSoC6\pdl\drivers\peripheral\i2s/cy_i2s.h ****     base->TX_FIFO_CTL &= (uint32_t) ~I2S_TX_FIFO_CTL_CLEAR_Msk;
 677:Generated_Source\PSoC6\pdl\drivers\peripheral\i2s/cy_i2s.h ****     (void) base->TX_FIFO_CTL;
 678:Generated_Source\PSoC6\pdl\drivers\peripheral\i2s/cy_i2s.h **** }
 679:Generated_Source\PSoC6\pdl\drivers\peripheral\i2s/cy_i2s.h **** 
 680:Generated_Source\PSoC6\pdl\drivers\peripheral\i2s/cy_i2s.h **** 
 681:Generated_Source\PSoC6\pdl\drivers\peripheral\i2s/cy_i2s.h **** /*******************************************************************************
 682:Generated_Source\PSoC6\pdl\drivers\peripheral\i2s/cy_i2s.h **** * Function Name: Cy_I2S_GetNumInTxFifo
 683:Generated_Source\PSoC6\pdl\drivers\peripheral\i2s/cy_i2s.h **** ****************************************************************************//**
 684:Generated_Source\PSoC6\pdl\drivers\peripheral\i2s/cy_i2s.h **** *
 685:Generated_Source\PSoC6\pdl\drivers\peripheral\i2s/cy_i2s.h **** * Gets the number of used words in the TX FIFO.
 686:Generated_Source\PSoC6\pdl\drivers\peripheral\i2s/cy_i2s.h **** *
 687:Generated_Source\PSoC6\pdl\drivers\peripheral\i2s/cy_i2s.h **** * \param base The pointer to the I2S instance address.
 688:Generated_Source\PSoC6\pdl\drivers\peripheral\i2s/cy_i2s.h **** *
 689:Generated_Source\PSoC6\pdl\drivers\peripheral\i2s/cy_i2s.h **** * \return The current number of used words in the TX FIFO.
 690:Generated_Source\PSoC6\pdl\drivers\peripheral\i2s/cy_i2s.h **** *
 691:Generated_Source\PSoC6\pdl\drivers\peripheral\i2s/cy_i2s.h **** * \funcusage
 692:Generated_Source\PSoC6\pdl\drivers\peripheral\i2s/cy_i2s.h **** * \snippet i2s/i2s_v2_0_sut_00.cydsn/main_cm4.c snippet_Cy_I2S_GetNumInTxFifo
 693:Generated_Source\PSoC6\pdl\drivers\peripheral\i2s/cy_i2s.h **** *
 694:Generated_Source\PSoC6\pdl\drivers\peripheral\i2s/cy_i2s.h **** *******************************************************************************/
 695:Generated_Source\PSoC6\pdl\drivers\peripheral\i2s/cy_i2s.h **** __STATIC_INLINE uint32_t Cy_I2S_GetNumInTxFifo(I2S_Type const * base)
 696:Generated_Source\PSoC6\pdl\drivers\peripheral\i2s/cy_i2s.h **** {   
 697:Generated_Source\PSoC6\pdl\drivers\peripheral\i2s/cy_i2s.h ****     return (_FLD2VAL(I2S_TX_FIFO_STATUS_USED, base->TX_FIFO_STATUS));
 698:Generated_Source\PSoC6\pdl\drivers\peripheral\i2s/cy_i2s.h **** }
 699:Generated_Source\PSoC6\pdl\drivers\peripheral\i2s/cy_i2s.h **** 
 700:Generated_Source\PSoC6\pdl\drivers\peripheral\i2s/cy_i2s.h **** 
 701:Generated_Source\PSoC6\pdl\drivers\peripheral\i2s/cy_i2s.h **** /*******************************************************************************
 702:Generated_Source\PSoC6\pdl\drivers\peripheral\i2s/cy_i2s.h **** * Function Name: Cy_I2S_WriteTxData
ARM GAS  C:\Users\ikomb\AppData\Local\Temp\cchczmzd.s 			page 32


 703:Generated_Source\PSoC6\pdl\drivers\peripheral\i2s/cy_i2s.h **** ****************************************************************************//**
 704:Generated_Source\PSoC6\pdl\drivers\peripheral\i2s/cy_i2s.h **** *
 705:Generated_Source\PSoC6\pdl\drivers\peripheral\i2s/cy_i2s.h **** * Writes data to the TX FIFO. Increases the TX FIFO level.
 706:Generated_Source\PSoC6\pdl\drivers\peripheral\i2s/cy_i2s.h **** *
 707:Generated_Source\PSoC6\pdl\drivers\peripheral\i2s/cy_i2s.h **** * \param base The pointer to the I2S instance address.
 708:Generated_Source\PSoC6\pdl\drivers\peripheral\i2s/cy_i2s.h **** *
 709:Generated_Source\PSoC6\pdl\drivers\peripheral\i2s/cy_i2s.h **** * \param data Data to be written to the TX FIFO.
 710:Generated_Source\PSoC6\pdl\drivers\peripheral\i2s/cy_i2s.h **** *
 711:Generated_Source\PSoC6\pdl\drivers\peripheral\i2s/cy_i2s.h **** * \funcusage
 712:Generated_Source\PSoC6\pdl\drivers\peripheral\i2s/cy_i2s.h **** * \snippet i2s/i2s_v2_0_sut_00.cydsn/main_cm4.c snippet_Cy_I2S_WriteTxData
 713:Generated_Source\PSoC6\pdl\drivers\peripheral\i2s/cy_i2s.h **** *
 714:Generated_Source\PSoC6\pdl\drivers\peripheral\i2s/cy_i2s.h **** *******************************************************************************/
 715:Generated_Source\PSoC6\pdl\drivers\peripheral\i2s/cy_i2s.h **** __STATIC_INLINE void Cy_I2S_WriteTxData(I2S_Type * base, uint32_t data)
 716:Generated_Source\PSoC6\pdl\drivers\peripheral\i2s/cy_i2s.h **** {
 717:Generated_Source\PSoC6\pdl\drivers\peripheral\i2s/cy_i2s.h ****     base->TX_FIFO_WR = data;
 718:Generated_Source\PSoC6\pdl\drivers\peripheral\i2s/cy_i2s.h **** }
 719:Generated_Source\PSoC6\pdl\drivers\peripheral\i2s/cy_i2s.h **** 
 720:Generated_Source\PSoC6\pdl\drivers\peripheral\i2s/cy_i2s.h **** 
 721:Generated_Source\PSoC6\pdl\drivers\peripheral\i2s/cy_i2s.h **** /*******************************************************************************
 722:Generated_Source\PSoC6\pdl\drivers\peripheral\i2s/cy_i2s.h **** * Function Name: Cy_I2S_GetTxReadPointer
 723:Generated_Source\PSoC6\pdl\drivers\peripheral\i2s/cy_i2s.h **** ****************************************************************************//**
 724:Generated_Source\PSoC6\pdl\drivers\peripheral\i2s/cy_i2s.h **** *
 725:Generated_Source\PSoC6\pdl\drivers\peripheral\i2s/cy_i2s.h **** * Gets the TX FIFO Read pointer. This function is rather for debug purposes.
 726:Generated_Source\PSoC6\pdl\drivers\peripheral\i2s/cy_i2s.h **** *
 727:Generated_Source\PSoC6\pdl\drivers\peripheral\i2s/cy_i2s.h **** * \param base The pointer to the I2S instance address.
 728:Generated_Source\PSoC6\pdl\drivers\peripheral\i2s/cy_i2s.h **** *
 729:Generated_Source\PSoC6\pdl\drivers\peripheral\i2s/cy_i2s.h **** * \return The current TX Read pointer value.
 730:Generated_Source\PSoC6\pdl\drivers\peripheral\i2s/cy_i2s.h **** *
 731:Generated_Source\PSoC6\pdl\drivers\peripheral\i2s/cy_i2s.h **** * \funcusage
 732:Generated_Source\PSoC6\pdl\drivers\peripheral\i2s/cy_i2s.h **** * \snippet i2s/i2s_v2_0_sut_00.cydsn/main_cm4.c snippet_Cy_I2S_GetTxReadPointer
 733:Generated_Source\PSoC6\pdl\drivers\peripheral\i2s/cy_i2s.h **** *
 734:Generated_Source\PSoC6\pdl\drivers\peripheral\i2s/cy_i2s.h **** *******************************************************************************/
 735:Generated_Source\PSoC6\pdl\drivers\peripheral\i2s/cy_i2s.h **** __STATIC_INLINE uint8_t Cy_I2S_GetTxReadPointer(I2S_Type const * base)
 736:Generated_Source\PSoC6\pdl\drivers\peripheral\i2s/cy_i2s.h **** {
 737:Generated_Source\PSoC6\pdl\drivers\peripheral\i2s/cy_i2s.h ****     return ((uint8_t) _FLD2VAL(I2S_TX_FIFO_STATUS_RD_PTR, base->TX_FIFO_STATUS));
 738:Generated_Source\PSoC6\pdl\drivers\peripheral\i2s/cy_i2s.h **** }
 739:Generated_Source\PSoC6\pdl\drivers\peripheral\i2s/cy_i2s.h **** 
 740:Generated_Source\PSoC6\pdl\drivers\peripheral\i2s/cy_i2s.h **** 
 741:Generated_Source\PSoC6\pdl\drivers\peripheral\i2s/cy_i2s.h **** /*******************************************************************************
 742:Generated_Source\PSoC6\pdl\drivers\peripheral\i2s/cy_i2s.h **** * Function Name: Cy_I2S_GetTxWritePointer
 743:Generated_Source\PSoC6\pdl\drivers\peripheral\i2s/cy_i2s.h **** ****************************************************************************//**
 744:Generated_Source\PSoC6\pdl\drivers\peripheral\i2s/cy_i2s.h **** *
 745:Generated_Source\PSoC6\pdl\drivers\peripheral\i2s/cy_i2s.h **** * Gets the TX FIFO Write pointer. This function is rather for debug purposes.
 746:Generated_Source\PSoC6\pdl\drivers\peripheral\i2s/cy_i2s.h **** *
 747:Generated_Source\PSoC6\pdl\drivers\peripheral\i2s/cy_i2s.h **** * \param base The pointer to the I2S instance address.
 748:Generated_Source\PSoC6\pdl\drivers\peripheral\i2s/cy_i2s.h **** *
 749:Generated_Source\PSoC6\pdl\drivers\peripheral\i2s/cy_i2s.h **** * \return The current TX Write pointer value.
 750:Generated_Source\PSoC6\pdl\drivers\peripheral\i2s/cy_i2s.h **** *
 751:Generated_Source\PSoC6\pdl\drivers\peripheral\i2s/cy_i2s.h **** * \funcusage
 752:Generated_Source\PSoC6\pdl\drivers\peripheral\i2s/cy_i2s.h **** * \snippet i2s/i2s_v2_0_sut_00.cydsn/main_cm4.c snippet_Cy_I2S_GetTxWritePointer
 753:Generated_Source\PSoC6\pdl\drivers\peripheral\i2s/cy_i2s.h **** *
 754:Generated_Source\PSoC6\pdl\drivers\peripheral\i2s/cy_i2s.h **** *******************************************************************************/
 755:Generated_Source\PSoC6\pdl\drivers\peripheral\i2s/cy_i2s.h **** __STATIC_INLINE uint8_t Cy_I2S_GetTxWritePointer(I2S_Type const * base)
 756:Generated_Source\PSoC6\pdl\drivers\peripheral\i2s/cy_i2s.h **** {
 757:Generated_Source\PSoC6\pdl\drivers\peripheral\i2s/cy_i2s.h ****     return ((uint8_t) _FLD2VAL(I2S_TX_FIFO_STATUS_WR_PTR, base->TX_FIFO_STATUS));
 758:Generated_Source\PSoC6\pdl\drivers\peripheral\i2s/cy_i2s.h **** }
 759:Generated_Source\PSoC6\pdl\drivers\peripheral\i2s/cy_i2s.h **** 
ARM GAS  C:\Users\ikomb\AppData\Local\Temp\cchczmzd.s 			page 33


 760:Generated_Source\PSoC6\pdl\drivers\peripheral\i2s/cy_i2s.h **** 
 761:Generated_Source\PSoC6\pdl\drivers\peripheral\i2s/cy_i2s.h **** /*******************************************************************************
 762:Generated_Source\PSoC6\pdl\drivers\peripheral\i2s/cy_i2s.h **** * Function Name: Cy_I2S_FreezeTxFifo
 763:Generated_Source\PSoC6\pdl\drivers\peripheral\i2s/cy_i2s.h **** ****************************************************************************//**
 764:Generated_Source\PSoC6\pdl\drivers\peripheral\i2s/cy_i2s.h **** *
 765:Generated_Source\PSoC6\pdl\drivers\peripheral\i2s/cy_i2s.h **** * Freezes the TX FIFO. This function is rather for debug purposes.
 766:Generated_Source\PSoC6\pdl\drivers\peripheral\i2s/cy_i2s.h **** *
 767:Generated_Source\PSoC6\pdl\drivers\peripheral\i2s/cy_i2s.h **** * \param base The pointer to the I2S instance address.
 768:Generated_Source\PSoC6\pdl\drivers\peripheral\i2s/cy_i2s.h **** *
 769:Generated_Source\PSoC6\pdl\drivers\peripheral\i2s/cy_i2s.h **** * \funcusage
 770:Generated_Source\PSoC6\pdl\drivers\peripheral\i2s/cy_i2s.h **** * \snippet i2s/i2s_v2_0_sut_00.cydsn/main_cm4.c snippet_Cy_I2S_FreezeTxFifo
 771:Generated_Source\PSoC6\pdl\drivers\peripheral\i2s/cy_i2s.h **** *
 772:Generated_Source\PSoC6\pdl\drivers\peripheral\i2s/cy_i2s.h **** *******************************************************************************/
 773:Generated_Source\PSoC6\pdl\drivers\peripheral\i2s/cy_i2s.h **** __STATIC_INLINE void Cy_I2S_FreezeTxFifo(I2S_Type * base)
 774:Generated_Source\PSoC6\pdl\drivers\peripheral\i2s/cy_i2s.h **** {
 775:Generated_Source\PSoC6\pdl\drivers\peripheral\i2s/cy_i2s.h ****     base->TX_FIFO_CTL |= I2S_TX_FIFO_CTL_FREEZE_Msk;
 776:Generated_Source\PSoC6\pdl\drivers\peripheral\i2s/cy_i2s.h **** }
 777:Generated_Source\PSoC6\pdl\drivers\peripheral\i2s/cy_i2s.h **** 
 778:Generated_Source\PSoC6\pdl\drivers\peripheral\i2s/cy_i2s.h **** 
 779:Generated_Source\PSoC6\pdl\drivers\peripheral\i2s/cy_i2s.h **** /*******************************************************************************
 780:Generated_Source\PSoC6\pdl\drivers\peripheral\i2s/cy_i2s.h **** * Function Name: Cy_I2S_UnfreezeTxFifo
 781:Generated_Source\PSoC6\pdl\drivers\peripheral\i2s/cy_i2s.h **** ****************************************************************************//**
 782:Generated_Source\PSoC6\pdl\drivers\peripheral\i2s/cy_i2s.h **** *
 783:Generated_Source\PSoC6\pdl\drivers\peripheral\i2s/cy_i2s.h **** * Unfreezes the TX FIFO. This function is rather for debug purposes.
 784:Generated_Source\PSoC6\pdl\drivers\peripheral\i2s/cy_i2s.h **** *
 785:Generated_Source\PSoC6\pdl\drivers\peripheral\i2s/cy_i2s.h **** * \param base The pointer to the I2S instance address.
 786:Generated_Source\PSoC6\pdl\drivers\peripheral\i2s/cy_i2s.h **** *
 787:Generated_Source\PSoC6\pdl\drivers\peripheral\i2s/cy_i2s.h **** * \funcusage
 788:Generated_Source\PSoC6\pdl\drivers\peripheral\i2s/cy_i2s.h **** * \snippet i2s/i2s_v2_0_sut_00.cydsn/main_cm4.c snippet_Cy_I2S_UnfreezeTxFifo
 789:Generated_Source\PSoC6\pdl\drivers\peripheral\i2s/cy_i2s.h **** *
 790:Generated_Source\PSoC6\pdl\drivers\peripheral\i2s/cy_i2s.h **** *******************************************************************************/
 791:Generated_Source\PSoC6\pdl\drivers\peripheral\i2s/cy_i2s.h **** __STATIC_INLINE void Cy_I2S_UnfreezeTxFifo(I2S_Type * base)
 792:Generated_Source\PSoC6\pdl\drivers\peripheral\i2s/cy_i2s.h **** {
 793:Generated_Source\PSoC6\pdl\drivers\peripheral\i2s/cy_i2s.h ****     base->TX_FIFO_CTL &= (uint32_t) ~I2S_TX_FIFO_CTL_FREEZE_Msk;
 794:Generated_Source\PSoC6\pdl\drivers\peripheral\i2s/cy_i2s.h **** }
 795:Generated_Source\PSoC6\pdl\drivers\peripheral\i2s/cy_i2s.h **** 
 796:Generated_Source\PSoC6\pdl\drivers\peripheral\i2s/cy_i2s.h **** 
 797:Generated_Source\PSoC6\pdl\drivers\peripheral\i2s/cy_i2s.h **** /*******************************************************************************
 798:Generated_Source\PSoC6\pdl\drivers\peripheral\i2s/cy_i2s.h **** * Function Name: Cy_I2S_ClearRxFifo
 799:Generated_Source\PSoC6\pdl\drivers\peripheral\i2s/cy_i2s.h **** ****************************************************************************//**
 800:Generated_Source\PSoC6\pdl\drivers\peripheral\i2s/cy_i2s.h **** *
 801:Generated_Source\PSoC6\pdl\drivers\peripheral\i2s/cy_i2s.h **** * Clears the RX FIFO (resets the Read/Write FIFO pointers).
 802:Generated_Source\PSoC6\pdl\drivers\peripheral\i2s/cy_i2s.h **** *
 803:Generated_Source\PSoC6\pdl\drivers\peripheral\i2s/cy_i2s.h **** * \param base The pointer to the I2S instance address.
 804:Generated_Source\PSoC6\pdl\drivers\peripheral\i2s/cy_i2s.h **** *
 805:Generated_Source\PSoC6\pdl\drivers\peripheral\i2s/cy_i2s.h **** * \funcusage
 806:Generated_Source\PSoC6\pdl\drivers\peripheral\i2s/cy_i2s.h **** * \snippet i2s/i2s_v2_0_sut_00.cydsn/main_cm4.c snippet_Cy_I2S_ClearRxFifo
 807:Generated_Source\PSoC6\pdl\drivers\peripheral\i2s/cy_i2s.h **** *
 808:Generated_Source\PSoC6\pdl\drivers\peripheral\i2s/cy_i2s.h **** *******************************************************************************/
 809:Generated_Source\PSoC6\pdl\drivers\peripheral\i2s/cy_i2s.h **** __STATIC_INLINE void Cy_I2S_ClearRxFifo(I2S_Type * base)
 810:Generated_Source\PSoC6\pdl\drivers\peripheral\i2s/cy_i2s.h **** {
 811:Generated_Source\PSoC6\pdl\drivers\peripheral\i2s/cy_i2s.h ****     base->RX_FIFO_CTL |= I2S_RX_FIFO_CTL_CLEAR_Msk;
 812:Generated_Source\PSoC6\pdl\drivers\peripheral\i2s/cy_i2s.h ****     base->RX_FIFO_CTL &= (uint32_t) ~I2S_RX_FIFO_CTL_CLEAR_Msk;
 813:Generated_Source\PSoC6\pdl\drivers\peripheral\i2s/cy_i2s.h ****     (void) base->RX_FIFO_CTL;
 814:Generated_Source\PSoC6\pdl\drivers\peripheral\i2s/cy_i2s.h **** }
 815:Generated_Source\PSoC6\pdl\drivers\peripheral\i2s/cy_i2s.h **** 
 816:Generated_Source\PSoC6\pdl\drivers\peripheral\i2s/cy_i2s.h **** 
ARM GAS  C:\Users\ikomb\AppData\Local\Temp\cchczmzd.s 			page 34


 817:Generated_Source\PSoC6\pdl\drivers\peripheral\i2s/cy_i2s.h **** /*******************************************************************************
 818:Generated_Source\PSoC6\pdl\drivers\peripheral\i2s/cy_i2s.h **** * Function Name: Cy_I2S_GetNumInRxFifo
 819:Generated_Source\PSoC6\pdl\drivers\peripheral\i2s/cy_i2s.h **** ****************************************************************************//**
 820:Generated_Source\PSoC6\pdl\drivers\peripheral\i2s/cy_i2s.h **** *
 821:Generated_Source\PSoC6\pdl\drivers\peripheral\i2s/cy_i2s.h **** * Gets the number of used words in the RX FIFO.
 822:Generated_Source\PSoC6\pdl\drivers\peripheral\i2s/cy_i2s.h **** *
 823:Generated_Source\PSoC6\pdl\drivers\peripheral\i2s/cy_i2s.h **** * \param base The pointer to the I2S instance address.
 824:Generated_Source\PSoC6\pdl\drivers\peripheral\i2s/cy_i2s.h **** *
 825:Generated_Source\PSoC6\pdl\drivers\peripheral\i2s/cy_i2s.h **** * \return The current number of used words in rge RX FIFO.
 826:Generated_Source\PSoC6\pdl\drivers\peripheral\i2s/cy_i2s.h **** *
 827:Generated_Source\PSoC6\pdl\drivers\peripheral\i2s/cy_i2s.h **** * \funcusage
 828:Generated_Source\PSoC6\pdl\drivers\peripheral\i2s/cy_i2s.h **** * \snippet i2s/i2s_v2_0_sut_00.cydsn/main_cm4.c snippet_Cy_I2S_GetNumInRxFifo
 829:Generated_Source\PSoC6\pdl\drivers\peripheral\i2s/cy_i2s.h **** *
 830:Generated_Source\PSoC6\pdl\drivers\peripheral\i2s/cy_i2s.h **** *******************************************************************************/
 831:Generated_Source\PSoC6\pdl\drivers\peripheral\i2s/cy_i2s.h **** __STATIC_INLINE uint32_t Cy_I2S_GetNumInRxFifo(I2S_Type const * base)
 832:Generated_Source\PSoC6\pdl\drivers\peripheral\i2s/cy_i2s.h **** {
 833:Generated_Source\PSoC6\pdl\drivers\peripheral\i2s/cy_i2s.h ****     return (_FLD2VAL(I2S_RX_FIFO_STATUS_USED, base->RX_FIFO_STATUS));
 834:Generated_Source\PSoC6\pdl\drivers\peripheral\i2s/cy_i2s.h **** }
 835:Generated_Source\PSoC6\pdl\drivers\peripheral\i2s/cy_i2s.h **** 
 836:Generated_Source\PSoC6\pdl\drivers\peripheral\i2s/cy_i2s.h **** 
 837:Generated_Source\PSoC6\pdl\drivers\peripheral\i2s/cy_i2s.h **** /*******************************************************************************
 838:Generated_Source\PSoC6\pdl\drivers\peripheral\i2s/cy_i2s.h **** * Function Name: Cy_I2S_ReadRxData
 839:Generated_Source\PSoC6\pdl\drivers\peripheral\i2s/cy_i2s.h **** ****************************************************************************//**
 840:Generated_Source\PSoC6\pdl\drivers\peripheral\i2s/cy_i2s.h **** *
 841:Generated_Source\PSoC6\pdl\drivers\peripheral\i2s/cy_i2s.h **** * Reads data from the RX FIFO. Decreases the RX FIFO level.
 842:Generated_Source\PSoC6\pdl\drivers\peripheral\i2s/cy_i2s.h **** *
 843:Generated_Source\PSoC6\pdl\drivers\peripheral\i2s/cy_i2s.h **** * \param base The pointer to the I2S instance address.
 844:Generated_Source\PSoC6\pdl\drivers\peripheral\i2s/cy_i2s.h **** *
 845:Generated_Source\PSoC6\pdl\drivers\peripheral\i2s/cy_i2s.h **** * \return The read data.
 846:Generated_Source\PSoC6\pdl\drivers\peripheral\i2s/cy_i2s.h **** *
 847:Generated_Source\PSoC6\pdl\drivers\peripheral\i2s/cy_i2s.h **** * \funcusage
 848:Generated_Source\PSoC6\pdl\drivers\peripheral\i2s/cy_i2s.h **** * \snippet i2s/i2s_v2_0_sut_00.cydsn/main_cm4.c snippet_Cy_I2S_ReadRxData
 849:Generated_Source\PSoC6\pdl\drivers\peripheral\i2s/cy_i2s.h **** *
 850:Generated_Source\PSoC6\pdl\drivers\peripheral\i2s/cy_i2s.h **** *******************************************************************************/
 851:Generated_Source\PSoC6\pdl\drivers\peripheral\i2s/cy_i2s.h **** __STATIC_INLINE uint32_t Cy_I2S_ReadRxData(I2S_Type const * base)
 852:Generated_Source\PSoC6\pdl\drivers\peripheral\i2s/cy_i2s.h **** {
 853:Generated_Source\PSoC6\pdl\drivers\peripheral\i2s/cy_i2s.h ****     return (base->RX_FIFO_RD);
 854:Generated_Source\PSoC6\pdl\drivers\peripheral\i2s/cy_i2s.h **** }
 855:Generated_Source\PSoC6\pdl\drivers\peripheral\i2s/cy_i2s.h **** 
 856:Generated_Source\PSoC6\pdl\drivers\peripheral\i2s/cy_i2s.h **** 
 857:Generated_Source\PSoC6\pdl\drivers\peripheral\i2s/cy_i2s.h **** /*******************************************************************************
 858:Generated_Source\PSoC6\pdl\drivers\peripheral\i2s/cy_i2s.h **** * Function Name: Cy_I2S_ReadRxDataSilent
 859:Generated_Source\PSoC6\pdl\drivers\peripheral\i2s/cy_i2s.h **** ****************************************************************************//**
 860:Generated_Source\PSoC6\pdl\drivers\peripheral\i2s/cy_i2s.h **** *
 861:Generated_Source\PSoC6\pdl\drivers\peripheral\i2s/cy_i2s.h **** * Reads data from the RX FIFO without updating the RX FIFO read pointer.
 862:Generated_Source\PSoC6\pdl\drivers\peripheral\i2s/cy_i2s.h **** * This function is rather for debug purposes.
 863:Generated_Source\PSoC6\pdl\drivers\peripheral\i2s/cy_i2s.h **** *
 864:Generated_Source\PSoC6\pdl\drivers\peripheral\i2s/cy_i2s.h **** * \param base The pointer to the I2S instance address.
 865:Generated_Source\PSoC6\pdl\drivers\peripheral\i2s/cy_i2s.h **** *
 866:Generated_Source\PSoC6\pdl\drivers\peripheral\i2s/cy_i2s.h **** * \return The read data.
 867:Generated_Source\PSoC6\pdl\drivers\peripheral\i2s/cy_i2s.h **** *
 868:Generated_Source\PSoC6\pdl\drivers\peripheral\i2s/cy_i2s.h **** * \funcusage
 869:Generated_Source\PSoC6\pdl\drivers\peripheral\i2s/cy_i2s.h **** * \snippet i2s/i2s_v2_0_sut_00.cydsn/main_cm4.c snippet_Cy_I2S_ReadRxDataSilent
 870:Generated_Source\PSoC6\pdl\drivers\peripheral\i2s/cy_i2s.h **** *
 871:Generated_Source\PSoC6\pdl\drivers\peripheral\i2s/cy_i2s.h **** *******************************************************************************/
 872:Generated_Source\PSoC6\pdl\drivers\peripheral\i2s/cy_i2s.h **** __STATIC_INLINE uint32_t Cy_I2S_ReadRxDataSilent(I2S_Type const * base)
 873:Generated_Source\PSoC6\pdl\drivers\peripheral\i2s/cy_i2s.h **** {
ARM GAS  C:\Users\ikomb\AppData\Local\Temp\cchczmzd.s 			page 35


 874:Generated_Source\PSoC6\pdl\drivers\peripheral\i2s/cy_i2s.h ****     return (base->RX_FIFO_RD_SILENT);
 875:Generated_Source\PSoC6\pdl\drivers\peripheral\i2s/cy_i2s.h **** }
 876:Generated_Source\PSoC6\pdl\drivers\peripheral\i2s/cy_i2s.h **** 
 877:Generated_Source\PSoC6\pdl\drivers\peripheral\i2s/cy_i2s.h **** 
 878:Generated_Source\PSoC6\pdl\drivers\peripheral\i2s/cy_i2s.h **** /*******************************************************************************
 879:Generated_Source\PSoC6\pdl\drivers\peripheral\i2s/cy_i2s.h **** * Function Name: Cy_I2S_GetRxReadPointer
 880:Generated_Source\PSoC6\pdl\drivers\peripheral\i2s/cy_i2s.h **** ****************************************************************************//**
 881:Generated_Source\PSoC6\pdl\drivers\peripheral\i2s/cy_i2s.h **** *
 882:Generated_Source\PSoC6\pdl\drivers\peripheral\i2s/cy_i2s.h **** * Gets the RX FIFO Read pointer. This function is rather for debug purposes.
 883:Generated_Source\PSoC6\pdl\drivers\peripheral\i2s/cy_i2s.h **** *
 884:Generated_Source\PSoC6\pdl\drivers\peripheral\i2s/cy_i2s.h **** * \param base The pointer to the I2S instance address.
 885:Generated_Source\PSoC6\pdl\drivers\peripheral\i2s/cy_i2s.h **** *
 886:Generated_Source\PSoC6\pdl\drivers\peripheral\i2s/cy_i2s.h **** * \return The current RX Read pointer value.
 887:Generated_Source\PSoC6\pdl\drivers\peripheral\i2s/cy_i2s.h **** *
 888:Generated_Source\PSoC6\pdl\drivers\peripheral\i2s/cy_i2s.h **** * \funcusage
 889:Generated_Source\PSoC6\pdl\drivers\peripheral\i2s/cy_i2s.h **** * \snippet i2s/i2s_v2_0_sut_00.cydsn/main_cm4.c snippet_Cy_I2S_GetRxReadPointer
 890:Generated_Source\PSoC6\pdl\drivers\peripheral\i2s/cy_i2s.h **** *
 891:Generated_Source\PSoC6\pdl\drivers\peripheral\i2s/cy_i2s.h **** *******************************************************************************/
 892:Generated_Source\PSoC6\pdl\drivers\peripheral\i2s/cy_i2s.h **** __STATIC_INLINE uint8_t Cy_I2S_GetRxReadPointer(I2S_Type const * base)
 893:Generated_Source\PSoC6\pdl\drivers\peripheral\i2s/cy_i2s.h **** {
 894:Generated_Source\PSoC6\pdl\drivers\peripheral\i2s/cy_i2s.h ****     return ((uint8_t) _FLD2VAL(I2S_RX_FIFO_STATUS_RD_PTR, base->RX_FIFO_STATUS));
 895:Generated_Source\PSoC6\pdl\drivers\peripheral\i2s/cy_i2s.h **** }
 896:Generated_Source\PSoC6\pdl\drivers\peripheral\i2s/cy_i2s.h **** 
 897:Generated_Source\PSoC6\pdl\drivers\peripheral\i2s/cy_i2s.h **** 
 898:Generated_Source\PSoC6\pdl\drivers\peripheral\i2s/cy_i2s.h **** /*******************************************************************************
 899:Generated_Source\PSoC6\pdl\drivers\peripheral\i2s/cy_i2s.h **** * Function Name: Cy_I2S_GetRxWritePointer
 900:Generated_Source\PSoC6\pdl\drivers\peripheral\i2s/cy_i2s.h **** ****************************************************************************//**
 901:Generated_Source\PSoC6\pdl\drivers\peripheral\i2s/cy_i2s.h **** *
 902:Generated_Source\PSoC6\pdl\drivers\peripheral\i2s/cy_i2s.h **** * Gets the RX FIFO Write pointer. This function is rather for debug purposes.
 903:Generated_Source\PSoC6\pdl\drivers\peripheral\i2s/cy_i2s.h **** *
 904:Generated_Source\PSoC6\pdl\drivers\peripheral\i2s/cy_i2s.h **** * \param base The pointer to the I2S instance address.
 905:Generated_Source\PSoC6\pdl\drivers\peripheral\i2s/cy_i2s.h **** *
 906:Generated_Source\PSoC6\pdl\drivers\peripheral\i2s/cy_i2s.h **** * \return The current RX Write pointer value.
 907:Generated_Source\PSoC6\pdl\drivers\peripheral\i2s/cy_i2s.h **** *
 908:Generated_Source\PSoC6\pdl\drivers\peripheral\i2s/cy_i2s.h **** * \funcusage
 909:Generated_Source\PSoC6\pdl\drivers\peripheral\i2s/cy_i2s.h **** * \snippet i2s/i2s_v2_0_sut_00.cydsn/main_cm4.c snippet_Cy_I2S_GetRxWritePointer
 910:Generated_Source\PSoC6\pdl\drivers\peripheral\i2s/cy_i2s.h **** *
 911:Generated_Source\PSoC6\pdl\drivers\peripheral\i2s/cy_i2s.h **** *******************************************************************************/
 912:Generated_Source\PSoC6\pdl\drivers\peripheral\i2s/cy_i2s.h **** __STATIC_INLINE uint8_t Cy_I2S_GetRxWritePointer(I2S_Type const * base)
 913:Generated_Source\PSoC6\pdl\drivers\peripheral\i2s/cy_i2s.h **** {
 914:Generated_Source\PSoC6\pdl\drivers\peripheral\i2s/cy_i2s.h ****     return ((uint8_t) _FLD2VAL(I2S_RX_FIFO_STATUS_WR_PTR, base->RX_FIFO_STATUS));
 915:Generated_Source\PSoC6\pdl\drivers\peripheral\i2s/cy_i2s.h **** }
 916:Generated_Source\PSoC6\pdl\drivers\peripheral\i2s/cy_i2s.h **** 
 917:Generated_Source\PSoC6\pdl\drivers\peripheral\i2s/cy_i2s.h **** 
 918:Generated_Source\PSoC6\pdl\drivers\peripheral\i2s/cy_i2s.h **** /*******************************************************************************
 919:Generated_Source\PSoC6\pdl\drivers\peripheral\i2s/cy_i2s.h **** * Function Name: Cy_I2S_FreezeRxFifo
 920:Generated_Source\PSoC6\pdl\drivers\peripheral\i2s/cy_i2s.h **** ****************************************************************************//**
 921:Generated_Source\PSoC6\pdl\drivers\peripheral\i2s/cy_i2s.h **** *
 922:Generated_Source\PSoC6\pdl\drivers\peripheral\i2s/cy_i2s.h **** * Freezes the RX FIFO. This function is rather for debug purposes.
 923:Generated_Source\PSoC6\pdl\drivers\peripheral\i2s/cy_i2s.h **** *
 924:Generated_Source\PSoC6\pdl\drivers\peripheral\i2s/cy_i2s.h **** * \param base The pointer to the I2S instance address.
 925:Generated_Source\PSoC6\pdl\drivers\peripheral\i2s/cy_i2s.h **** *
 926:Generated_Source\PSoC6\pdl\drivers\peripheral\i2s/cy_i2s.h **** * \funcusage
 927:Generated_Source\PSoC6\pdl\drivers\peripheral\i2s/cy_i2s.h **** * \snippet i2s/i2s_v2_0_sut_00.cydsn/main_cm4.c snippet_Cy_I2S_FreezeRxFifo
 928:Generated_Source\PSoC6\pdl\drivers\peripheral\i2s/cy_i2s.h **** *
 929:Generated_Source\PSoC6\pdl\drivers\peripheral\i2s/cy_i2s.h **** *******************************************************************************/
 930:Generated_Source\PSoC6\pdl\drivers\peripheral\i2s/cy_i2s.h **** __STATIC_INLINE void Cy_I2S_FreezeRxFifo(I2S_Type * base)
ARM GAS  C:\Users\ikomb\AppData\Local\Temp\cchczmzd.s 			page 36


 931:Generated_Source\PSoC6\pdl\drivers\peripheral\i2s/cy_i2s.h **** {
 932:Generated_Source\PSoC6\pdl\drivers\peripheral\i2s/cy_i2s.h ****     base->RX_FIFO_CTL |= I2S_RX_FIFO_CTL_FREEZE_Msk;
 933:Generated_Source\PSoC6\pdl\drivers\peripheral\i2s/cy_i2s.h **** }
 934:Generated_Source\PSoC6\pdl\drivers\peripheral\i2s/cy_i2s.h **** 
 935:Generated_Source\PSoC6\pdl\drivers\peripheral\i2s/cy_i2s.h **** 
 936:Generated_Source\PSoC6\pdl\drivers\peripheral\i2s/cy_i2s.h **** /*******************************************************************************
 937:Generated_Source\PSoC6\pdl\drivers\peripheral\i2s/cy_i2s.h **** * Function Name: Cy_I2S_UnfreezeRxFifo
 938:Generated_Source\PSoC6\pdl\drivers\peripheral\i2s/cy_i2s.h **** ****************************************************************************//**
 939:Generated_Source\PSoC6\pdl\drivers\peripheral\i2s/cy_i2s.h **** *
 940:Generated_Source\PSoC6\pdl\drivers\peripheral\i2s/cy_i2s.h **** * Unfreezes the RX FIFO. This function is rather for debug purposes.
 941:Generated_Source\PSoC6\pdl\drivers\peripheral\i2s/cy_i2s.h **** *
 942:Generated_Source\PSoC6\pdl\drivers\peripheral\i2s/cy_i2s.h **** * \param base The pointer to the I2S instance address.
 943:Generated_Source\PSoC6\pdl\drivers\peripheral\i2s/cy_i2s.h **** *
 944:Generated_Source\PSoC6\pdl\drivers\peripheral\i2s/cy_i2s.h **** * \funcusage
 945:Generated_Source\PSoC6\pdl\drivers\peripheral\i2s/cy_i2s.h **** * \snippet i2s/i2s_v2_0_sut_00.cydsn/main_cm4.c snippet_Cy_I2S_UnfreezeRxFifo
 946:Generated_Source\PSoC6\pdl\drivers\peripheral\i2s/cy_i2s.h **** *
 947:Generated_Source\PSoC6\pdl\drivers\peripheral\i2s/cy_i2s.h **** *******************************************************************************/
 948:Generated_Source\PSoC6\pdl\drivers\peripheral\i2s/cy_i2s.h **** __STATIC_INLINE void Cy_I2S_UnfreezeRxFifo(I2S_Type * base)
 949:Generated_Source\PSoC6\pdl\drivers\peripheral\i2s/cy_i2s.h **** {
 950:Generated_Source\PSoC6\pdl\drivers\peripheral\i2s/cy_i2s.h ****     base->RX_FIFO_CTL &= (uint32_t) ~I2S_RX_FIFO_CTL_FREEZE_Msk;
 951:Generated_Source\PSoC6\pdl\drivers\peripheral\i2s/cy_i2s.h **** }
 952:Generated_Source\PSoC6\pdl\drivers\peripheral\i2s/cy_i2s.h **** 
 953:Generated_Source\PSoC6\pdl\drivers\peripheral\i2s/cy_i2s.h **** 
 954:Generated_Source\PSoC6\pdl\drivers\peripheral\i2s/cy_i2s.h **** /*******************************************************************************
 955:Generated_Source\PSoC6\pdl\drivers\peripheral\i2s/cy_i2s.h **** * Function Name: Cy_I2S_GetInterruptStatus
 956:Generated_Source\PSoC6\pdl\drivers\peripheral\i2s/cy_i2s.h **** ****************************************************************************//**
 957:Generated_Source\PSoC6\pdl\drivers\peripheral\i2s/cy_i2s.h **** *
 958:Generated_Source\PSoC6\pdl\drivers\peripheral\i2s/cy_i2s.h **** * Gets an interrupt status (returns a content of the INTR register).
 959:Generated_Source\PSoC6\pdl\drivers\peripheral\i2s/cy_i2s.h **** *
 960:Generated_Source\PSoC6\pdl\drivers\peripheral\i2s/cy_i2s.h **** * \param base The pointer to the I2S instance address.
 961:Generated_Source\PSoC6\pdl\drivers\peripheral\i2s/cy_i2s.h **** *
 962:Generated_Source\PSoC6\pdl\drivers\peripheral\i2s/cy_i2s.h **** * \return The interrupt bit mask \ref group_i2s_macros_intrerrupt_masks.
 963:Generated_Source\PSoC6\pdl\drivers\peripheral\i2s/cy_i2s.h **** *
 964:Generated_Source\PSoC6\pdl\drivers\peripheral\i2s/cy_i2s.h **** * \funcusage
 965:Generated_Source\PSoC6\pdl\drivers\peripheral\i2s/cy_i2s.h **** * \snippet i2s/i2s_v2_0_sut_00.cydsn/main_cm4.c snippet_Cy_I2S_GetInterruptStatus
 966:Generated_Source\PSoC6\pdl\drivers\peripheral\i2s/cy_i2s.h **** *
 967:Generated_Source\PSoC6\pdl\drivers\peripheral\i2s/cy_i2s.h **** *******************************************************************************/
 968:Generated_Source\PSoC6\pdl\drivers\peripheral\i2s/cy_i2s.h **** __STATIC_INLINE uint32_t Cy_I2S_GetInterruptStatus(I2S_Type const * base)
 969:Generated_Source\PSoC6\pdl\drivers\peripheral\i2s/cy_i2s.h **** {
 970:Generated_Source\PSoC6\pdl\drivers\peripheral\i2s/cy_i2s.h ****     return (base->INTR);
 971:Generated_Source\PSoC6\pdl\drivers\peripheral\i2s/cy_i2s.h **** }
 972:Generated_Source\PSoC6\pdl\drivers\peripheral\i2s/cy_i2s.h **** 
 973:Generated_Source\PSoC6\pdl\drivers\peripheral\i2s/cy_i2s.h **** 
 974:Generated_Source\PSoC6\pdl\drivers\peripheral\i2s/cy_i2s.h **** /*******************************************************************************
 975:Generated_Source\PSoC6\pdl\drivers\peripheral\i2s/cy_i2s.h **** * Function Name: Cy_I2S_ClearInterrupt
 976:Generated_Source\PSoC6\pdl\drivers\peripheral\i2s/cy_i2s.h **** ****************************************************************************//**
 977:Generated_Source\PSoC6\pdl\drivers\peripheral\i2s/cy_i2s.h **** *
 978:Generated_Source\PSoC6\pdl\drivers\peripheral\i2s/cy_i2s.h **** * Clears one or more interrupt factors (sets the INTR register).
 979:Generated_Source\PSoC6\pdl\drivers\peripheral\i2s/cy_i2s.h **** *
 980:Generated_Source\PSoC6\pdl\drivers\peripheral\i2s/cy_i2s.h **** * \param base      The pointer to the I2S instance address.
 981:Generated_Source\PSoC6\pdl\drivers\peripheral\i2s/cy_i2s.h **** *
 982:Generated_Source\PSoC6\pdl\drivers\peripheral\i2s/cy_i2s.h **** * \param interrupt Interrupt bit mask \ref group_i2s_macros_intrerrupt_masks.
 983:Generated_Source\PSoC6\pdl\drivers\peripheral\i2s/cy_i2s.h **** *
 984:Generated_Source\PSoC6\pdl\drivers\peripheral\i2s/cy_i2s.h **** * \funcusage
 985:Generated_Source\PSoC6\pdl\drivers\peripheral\i2s/cy_i2s.h **** * \snippet i2s/i2s_v2_0_sut_00.cydsn/main_cm4.c snippet_Cy_I2S_ClearInterrupt
 986:Generated_Source\PSoC6\pdl\drivers\peripheral\i2s/cy_i2s.h **** *
 987:Generated_Source\PSoC6\pdl\drivers\peripheral\i2s/cy_i2s.h **** *******************************************************************************/
ARM GAS  C:\Users\ikomb\AppData\Local\Temp\cchczmzd.s 			page 37


 988:Generated_Source\PSoC6\pdl\drivers\peripheral\i2s/cy_i2s.h **** __STATIC_INLINE void Cy_I2S_ClearInterrupt(I2S_Type * base, uint32_t interrupt)
 989:Generated_Source\PSoC6\pdl\drivers\peripheral\i2s/cy_i2s.h **** {
 990:Generated_Source\PSoC6\pdl\drivers\peripheral\i2s/cy_i2s.h ****     CY_ASSERT_L2(CY_I2S_IS_INTR_MASK_VALID(interrupt));
 991:Generated_Source\PSoC6\pdl\drivers\peripheral\i2s/cy_i2s.h ****     base->INTR = interrupt;
 992:Generated_Source\PSoC6\pdl\drivers\peripheral\i2s/cy_i2s.h ****     (void) base->INTR;
 993:Generated_Source\PSoC6\pdl\drivers\peripheral\i2s/cy_i2s.h **** }
 994:Generated_Source\PSoC6\pdl\drivers\peripheral\i2s/cy_i2s.h **** 
 995:Generated_Source\PSoC6\pdl\drivers\peripheral\i2s/cy_i2s.h **** 
 996:Generated_Source\PSoC6\pdl\drivers\peripheral\i2s/cy_i2s.h **** /*******************************************************************************
 997:Generated_Source\PSoC6\pdl\drivers\peripheral\i2s/cy_i2s.h **** * Function Name: Cy_I2S_SetInterrupt
 998:Generated_Source\PSoC6\pdl\drivers\peripheral\i2s/cy_i2s.h **** ****************************************************************************//**
 999:Generated_Source\PSoC6\pdl\drivers\peripheral\i2s/cy_i2s.h **** *
1000:Generated_Source\PSoC6\pdl\drivers\peripheral\i2s/cy_i2s.h **** * Sets one or more interrupt factors (sets the INTR_SET register).
1001:Generated_Source\PSoC6\pdl\drivers\peripheral\i2s/cy_i2s.h **** *
1002:Generated_Source\PSoC6\pdl\drivers\peripheral\i2s/cy_i2s.h **** * \param base      The pointer to the I2S instance address.
1003:Generated_Source\PSoC6\pdl\drivers\peripheral\i2s/cy_i2s.h **** *
1004:Generated_Source\PSoC6\pdl\drivers\peripheral\i2s/cy_i2s.h **** * \param interrupt Interrupt bit mask \ref group_i2s_macros_intrerrupt_masks.
1005:Generated_Source\PSoC6\pdl\drivers\peripheral\i2s/cy_i2s.h **** *
1006:Generated_Source\PSoC6\pdl\drivers\peripheral\i2s/cy_i2s.h **** * \funcusage
1007:Generated_Source\PSoC6\pdl\drivers\peripheral\i2s/cy_i2s.h **** * \snippet i2s/i2s_v2_0_sut_00.cydsn/main_cm4.c snippet_Cy_I2S_SetInterrupt
1008:Generated_Source\PSoC6\pdl\drivers\peripheral\i2s/cy_i2s.h **** *
1009:Generated_Source\PSoC6\pdl\drivers\peripheral\i2s/cy_i2s.h **** *******************************************************************************/
1010:Generated_Source\PSoC6\pdl\drivers\peripheral\i2s/cy_i2s.h **** __STATIC_INLINE void Cy_I2S_SetInterrupt(I2S_Type * base, uint32_t interrupt)
1011:Generated_Source\PSoC6\pdl\drivers\peripheral\i2s/cy_i2s.h **** {
1012:Generated_Source\PSoC6\pdl\drivers\peripheral\i2s/cy_i2s.h ****     CY_ASSERT_L2(CY_I2S_IS_INTR_MASK_VALID(interrupt));
1013:Generated_Source\PSoC6\pdl\drivers\peripheral\i2s/cy_i2s.h ****     base->INTR_SET = interrupt;
1014:Generated_Source\PSoC6\pdl\drivers\peripheral\i2s/cy_i2s.h **** }
1015:Generated_Source\PSoC6\pdl\drivers\peripheral\i2s/cy_i2s.h **** 
1016:Generated_Source\PSoC6\pdl\drivers\peripheral\i2s/cy_i2s.h **** 
1017:Generated_Source\PSoC6\pdl\drivers\peripheral\i2s/cy_i2s.h **** /*******************************************************************************
1018:Generated_Source\PSoC6\pdl\drivers\peripheral\i2s/cy_i2s.h **** * Function Name: Cy_I2S_GetInterruptMask
1019:Generated_Source\PSoC6\pdl\drivers\peripheral\i2s/cy_i2s.h **** ****************************************************************************//**
1020:Generated_Source\PSoC6\pdl\drivers\peripheral\i2s/cy_i2s.h **** *
1021:Generated_Source\PSoC6\pdl\drivers\peripheral\i2s/cy_i2s.h **** * Returns the interrupt mask (a content of the INTR_MASK register).
1022:Generated_Source\PSoC6\pdl\drivers\peripheral\i2s/cy_i2s.h **** *
1023:Generated_Source\PSoC6\pdl\drivers\peripheral\i2s/cy_i2s.h **** * \param base The pointer to the I2S instance address.
1024:Generated_Source\PSoC6\pdl\drivers\peripheral\i2s/cy_i2s.h **** *
1025:Generated_Source\PSoC6\pdl\drivers\peripheral\i2s/cy_i2s.h **** * \return The interrupt bit mask \ref group_i2s_macros_intrerrupt_masks.
1026:Generated_Source\PSoC6\pdl\drivers\peripheral\i2s/cy_i2s.h **** *
1027:Generated_Source\PSoC6\pdl\drivers\peripheral\i2s/cy_i2s.h **** * \funcusage
1028:Generated_Source\PSoC6\pdl\drivers\peripheral\i2s/cy_i2s.h **** * \snippet i2s/i2s_v2_0_sut_00.cydsn/main_cm4.c snippet_Cy_I2S_GetInterruptMask
1029:Generated_Source\PSoC6\pdl\drivers\peripheral\i2s/cy_i2s.h **** *
1030:Generated_Source\PSoC6\pdl\drivers\peripheral\i2s/cy_i2s.h **** *******************************************************************************/
1031:Generated_Source\PSoC6\pdl\drivers\peripheral\i2s/cy_i2s.h **** __STATIC_INLINE uint32_t Cy_I2S_GetInterruptMask(I2S_Type const * base)
1032:Generated_Source\PSoC6\pdl\drivers\peripheral\i2s/cy_i2s.h **** {
1033:Generated_Source\PSoC6\pdl\drivers\peripheral\i2s/cy_i2s.h ****     return (base->INTR_MASK);
 796              		.loc 2 1033 0
 797 0032 334B     		ldr	r3, .L80+4
 798 0034 E358     		ldr	r3, [r4, r3]
 799              	.LVL56:
 800              	.LBE33:
 801              	.LBE32:
 234:Generated_Source\PSoC6\pdl\drivers\peripheral\i2s/cy_i2s.c ****     {
 235:Generated_Source\PSoC6\pdl\drivers\peripheral\i2s/cy_i2s.c ****         case CY_SYSPM_CHECK_READY:            
 236:Generated_Source\PSoC6\pdl\drivers\peripheral\i2s/cy_i2s.c ****         case CY_SYSPM_CHECK_FAIL:
 237:Generated_Source\PSoC6\pdl\drivers\peripheral\i2s/cy_i2s.c ****             break;
 238:Generated_Source\PSoC6\pdl\drivers\peripheral\i2s/cy_i2s.c ****         
ARM GAS  C:\Users\ikomb\AppData\Local\Temp\cchczmzd.s 			page 38


 239:Generated_Source\PSoC6\pdl\drivers\peripheral\i2s/cy_i2s.c ****         case CY_SYSPM_BEFORE_TRANSITION:
 240:Generated_Source\PSoC6\pdl\drivers\peripheral\i2s/cy_i2s.c ****             *locInterruptMask = Cy_I2S_GetInterruptMask(locBase); /* Store I2S interrupts */
 802              		.loc 1 240 0
 803 0036 7360     		str	r3, [r6, #4]
 804              	.LVL57:
 805              	.LBB34:
 806              	.LBB35:
 657:Generated_Source\PSoC6\pdl\drivers\peripheral\i2s/cy_i2s.h **** }
 807              		.loc 2 657 0
 808 0038 226A     		ldr	r2, [r4, #32]
 809 003a 324B     		ldr	r3, .L80+8
 810 003c 1340     		ands	r3, r2
 811              	.LVL58:
 812              	.LBE35:
 813              	.LBE34:
 241:Generated_Source\PSoC6\pdl\drivers\peripheral\i2s/cy_i2s.c ****             *locState = Cy_I2S_GetCurrentState(locBase); /* Store I2S state */
 814              		.loc 1 241 0
 815 003e 3360     		str	r3, [r6]
 242:Generated_Source\PSoC6\pdl\drivers\peripheral\i2s/cy_i2s.c ****             if (0UL != (*locState & I2S_CMD_TX_START_Msk))
 816              		.loc 1 242 0
 817 0040 DB07     		lsls	r3, r3, #31
 818 0042 03D5     		bpl	.L71
 819              	.LVL59:
 820              	.LBB36:
 821              	.LBB37:
 594:Generated_Source\PSoC6\pdl\drivers\peripheral\i2s/cy_i2s.h **** }
 822              		.loc 2 594 0
 823 0044 236A     		ldr	r3, [r4, #32]
 824 0046 0122     		movs	r2, #1
 825 0048 9343     		bics	r3, r2
 826 004a 2362     		str	r3, [r4, #32]
 827              	.LVL60:
 828              	.L71:
 829              	.LBE37:
 830              	.LBE36:
 243:Generated_Source\PSoC6\pdl\drivers\peripheral\i2s/cy_i2s.c ****             {
 244:Generated_Source\PSoC6\pdl\drivers\peripheral\i2s/cy_i2s.c ****                 Cy_I2S_DisableTx(locBase); /* Stop TX operation */
 245:Generated_Source\PSoC6\pdl\drivers\peripheral\i2s/cy_i2s.c ****             }
 246:Generated_Source\PSoC6\pdl\drivers\peripheral\i2s/cy_i2s.c ****             if (0UL != (*locState & I2S_CMD_RX_START_Msk))
 831              		.loc 1 246 0
 832 004c 3368     		ldr	r3, [r6]
 833 004e DB03     		lsls	r3, r3, #15
 834 0050 03D5     		bpl	.L72
 835              	.LVL61:
 836              	.LBB38:
 837              	.LBB39:
 637:Generated_Source\PSoC6\pdl\drivers\peripheral\i2s/cy_i2s.h **** }
 838              		.loc 2 637 0
 839 0052 226A     		ldr	r2, [r4, #32]
 840 0054 2C4B     		ldr	r3, .L80+12
 841 0056 1340     		ands	r3, r2
 842 0058 2362     		str	r3, [r4, #32]
 843              	.LVL62:
 844              	.L72:
 845              	.LBE39:
 846              	.LBE38:
 847              	.LBB40:
ARM GAS  C:\Users\ikomb\AppData\Local\Temp\cchczmzd.s 			page 39


 848              	.LBB41:
1034:Generated_Source\PSoC6\pdl\drivers\peripheral\i2s/cy_i2s.h **** }
1035:Generated_Source\PSoC6\pdl\drivers\peripheral\i2s/cy_i2s.h **** 
1036:Generated_Source\PSoC6\pdl\drivers\peripheral\i2s/cy_i2s.h **** 
1037:Generated_Source\PSoC6\pdl\drivers\peripheral\i2s/cy_i2s.h **** /*******************************************************************************
1038:Generated_Source\PSoC6\pdl\drivers\peripheral\i2s/cy_i2s.h **** * Function Name: Cy_I2S_SetInterruptMask
1039:Generated_Source\PSoC6\pdl\drivers\peripheral\i2s/cy_i2s.h **** ****************************************************************************//**
1040:Generated_Source\PSoC6\pdl\drivers\peripheral\i2s/cy_i2s.h **** *
1041:Generated_Source\PSoC6\pdl\drivers\peripheral\i2s/cy_i2s.h **** * Sets one or more interrupt factor masks (the INTR_MASK register).
1042:Generated_Source\PSoC6\pdl\drivers\peripheral\i2s/cy_i2s.h **** *
1043:Generated_Source\PSoC6\pdl\drivers\peripheral\i2s/cy_i2s.h **** * \param base      The pointer to the I2S instance address.
1044:Generated_Source\PSoC6\pdl\drivers\peripheral\i2s/cy_i2s.h **** *
1045:Generated_Source\PSoC6\pdl\drivers\peripheral\i2s/cy_i2s.h **** * \param interrupt Interrupt bit mask \ref group_i2s_macros_intrerrupt_masks.
1046:Generated_Source\PSoC6\pdl\drivers\peripheral\i2s/cy_i2s.h **** *
1047:Generated_Source\PSoC6\pdl\drivers\peripheral\i2s/cy_i2s.h **** * \funcusage
1048:Generated_Source\PSoC6\pdl\drivers\peripheral\i2s/cy_i2s.h **** * \snippet i2s/i2s_v2_0_sut_00.cydsn/main_cm4.c snippet_Cy_I2S_SetInterruptMask
1049:Generated_Source\PSoC6\pdl\drivers\peripheral\i2s/cy_i2s.h **** *
1050:Generated_Source\PSoC6\pdl\drivers\peripheral\i2s/cy_i2s.h **** *******************************************************************************/
1051:Generated_Source\PSoC6\pdl\drivers\peripheral\i2s/cy_i2s.h **** __STATIC_INLINE void Cy_I2S_SetInterruptMask(I2S_Type * base, uint32_t interrupt)
1052:Generated_Source\PSoC6\pdl\drivers\peripheral\i2s/cy_i2s.h **** {
1053:Generated_Source\PSoC6\pdl\drivers\peripheral\i2s/cy_i2s.h ****     CY_ASSERT_L2(CY_I2S_IS_INTR_MASK_VALID(interrupt));
1054:Generated_Source\PSoC6\pdl\drivers\peripheral\i2s/cy_i2s.h ****     base->INTR_MASK = interrupt;
 849              		.loc 2 1054 0
 850 005a 0022     		movs	r2, #0
 851 005c 284B     		ldr	r3, .L80+4
 852 005e E250     		str	r2, [r4, r3]
 853              	.LBE41:
 854              	.LBE40:
 227:Generated_Source\PSoC6\pdl\drivers\peripheral\i2s/cy_i2s.c ****     CY_ASSERT_L1(NULL != callbackParams->context);
 855              		.loc 1 227 0
 856 0060 0020     		movs	r0, #0
 857 0062 4AE0     		b	.L66
 858              	.LVL63:
 859              	.L70:
 247:Generated_Source\PSoC6\pdl\drivers\peripheral\i2s/cy_i2s.c ****             {
 248:Generated_Source\PSoC6\pdl\drivers\peripheral\i2s/cy_i2s.c ****                 Cy_I2S_DisableRx(locBase); /* Stop RX operation */
 249:Generated_Source\PSoC6\pdl\drivers\peripheral\i2s/cy_i2s.c ****             }
 250:Generated_Source\PSoC6\pdl\drivers\peripheral\i2s/cy_i2s.c ****             Cy_I2S_SetInterruptMask(locBase, 0UL); /* Disable I2S interrupts */
 251:Generated_Source\PSoC6\pdl\drivers\peripheral\i2s/cy_i2s.c ****             /* Unload FIFOs in order not to lose data (if needed) */
 252:Generated_Source\PSoC6\pdl\drivers\peripheral\i2s/cy_i2s.c ****             break;
 253:Generated_Source\PSoC6\pdl\drivers\peripheral\i2s/cy_i2s.c ****             
 254:Generated_Source\PSoC6\pdl\drivers\peripheral\i2s/cy_i2s.c ****         case CY_SYSPM_AFTER_TRANSITION:
 255:Generated_Source\PSoC6\pdl\drivers\peripheral\i2s/cy_i2s.c ****             if (0UL != (*locState & I2S_CMD_RX_START_Msk))
 860              		.loc 1 255 0
 861 0064 3368     		ldr	r3, [r6]
 862 0066 DB03     		lsls	r3, r3, #15
 863 0068 0ED5     		bpl	.L73
 864              	.LVL64:
 865              	.LBB42:
 866              	.LBB43:
 811:Generated_Source\PSoC6\pdl\drivers\peripheral\i2s/cy_i2s.h ****     base->RX_FIFO_CTL &= (uint32_t) ~I2S_RX_FIFO_CTL_CLEAR_Msk;
 867              		.loc 2 811 0
 868 006a C023     		movs	r3, #192
 869 006c 9B00     		lsls	r3, r3, #2
 870 006e E258     		ldr	r2, [r4, r3]
 871 0070 8021     		movs	r1, #128
 872 0072 4902     		lsls	r1, r1, #9
ARM GAS  C:\Users\ikomb\AppData\Local\Temp\cchczmzd.s 			page 40


 873 0074 0A43     		orrs	r2, r1
 874 0076 E250     		str	r2, [r4, r3]
 812:Generated_Source\PSoC6\pdl\drivers\peripheral\i2s/cy_i2s.h ****     (void) base->RX_FIFO_CTL;
 875              		.loc 2 812 0
 876 0078 E058     		ldr	r0, [r4, r3]
 877 007a 234A     		ldr	r2, .L80+12
 878 007c 0240     		ands	r2, r0
 879 007e E250     		str	r2, [r4, r3]
 813:Generated_Source\PSoC6\pdl\drivers\peripheral\i2s/cy_i2s.h **** }
 880              		.loc 2 813 0
 881 0080 E358     		ldr	r3, [r4, r3]
 882              	.LVL65:
 883              	.LBE43:
 884              	.LBE42:
 885              	.LBB44:
 886              	.LBB45:
 616:Generated_Source\PSoC6\pdl\drivers\peripheral\i2s/cy_i2s.h **** }
 887              		.loc 2 616 0
 888 0082 236A     		ldr	r3, [r4, #32]
 889 0084 0B43     		orrs	r3, r1
 890 0086 2362     		str	r3, [r4, #32]
 891              	.LVL66:
 892              	.L73:
 893              	.LBE45:
 894              	.LBE44:
 256:Generated_Source\PSoC6\pdl\drivers\peripheral\i2s/cy_i2s.c ****             {
 257:Generated_Source\PSoC6\pdl\drivers\peripheral\i2s/cy_i2s.c ****                 Cy_I2S_ClearRxFifo(locBase); /* Clear the RX FIFO */
 258:Generated_Source\PSoC6\pdl\drivers\peripheral\i2s/cy_i2s.c ****                 Cy_I2S_EnableRx(locBase); /* Start RX operation */
 259:Generated_Source\PSoC6\pdl\drivers\peripheral\i2s/cy_i2s.c ****             }
 260:Generated_Source\PSoC6\pdl\drivers\peripheral\i2s/cy_i2s.c ****             if (0UL != (*locState & I2S_CMD_TX_START_Msk))
 895              		.loc 1 260 0
 896 0088 3368     		ldr	r3, [r6]
 897 008a DB07     		lsls	r3, r3, #31
 898 008c 1CD5     		bpl	.L74
 899              	.LVL67:
 900              	.LBB46:
 901              	.LBB47:
 675:Generated_Source\PSoC6\pdl\drivers\peripheral\i2s/cy_i2s.h ****     base->TX_FIFO_CTL &= (uint32_t) ~I2S_TX_FIFO_CTL_CLEAR_Msk;
 902              		.loc 2 675 0
 903 008e 8023     		movs	r3, #128
 904 0090 9B00     		lsls	r3, r3, #2
 905 0092 E258     		ldr	r2, [r4, r3]
 906 0094 8021     		movs	r1, #128
 907 0096 4902     		lsls	r1, r1, #9
 908 0098 0A43     		orrs	r2, r1
 909 009a E250     		str	r2, [r4, r3]
 676:Generated_Source\PSoC6\pdl\drivers\peripheral\i2s/cy_i2s.h ****     (void) base->TX_FIFO_CTL;
 910              		.loc 2 676 0
 911 009c E158     		ldr	r1, [r4, r3]
 912 009e 1A4A     		ldr	r2, .L80+12
 913 00a0 0A40     		ands	r2, r1
 914 00a2 E250     		str	r2, [r4, r3]
 677:Generated_Source\PSoC6\pdl\drivers\peripheral\i2s/cy_i2s.h **** }
 915              		.loc 2 677 0
 916 00a4 E358     		ldr	r3, [r4, r3]
 917              	.LVL68:
 918              	.LBE47:
ARM GAS  C:\Users\ikomb\AppData\Local\Temp\cchczmzd.s 			page 41


 919              	.LBE46:
 920              	.LBB48:
 921              	.LBB49:
 717:Generated_Source\PSoC6\pdl\drivers\peripheral\i2s/cy_i2s.h **** }
 922              		.loc 2 717 0
 923 00a6 8223     		movs	r3, #130
 924 00a8 9B00     		lsls	r3, r3, #2
 925 00aa 0022     		movs	r2, #0
 926 00ac E250     		str	r2, [r4, r3]
 927              	.LVL69:
 928              	.LBE49:
 929              	.LBE48:
 930              	.LBB50:
 931              	.LBB51:
 932 00ae E250     		str	r2, [r4, r3]
 933              	.LVL70:
 934              	.LBE51:
 935              	.LBE50:
 261:Generated_Source\PSoC6\pdl\drivers\peripheral\i2s/cy_i2s.c ****             {
 262:Generated_Source\PSoC6\pdl\drivers\peripheral\i2s/cy_i2s.c ****                 Cy_I2S_ClearTxFifo(locBase); /* Clear the TX FIFO */
 263:Generated_Source\PSoC6\pdl\drivers\peripheral\i2s/cy_i2s.c ****                 Cy_I2S_WriteTxData(locBase, 0UL); /* Fill at least one TX frame */
 264:Generated_Source\PSoC6\pdl\drivers\peripheral\i2s/cy_i2s.c ****                 Cy_I2S_WriteTxData(locBase, 0UL);
 265:Generated_Source\PSoC6\pdl\drivers\peripheral\i2s/cy_i2s.c ****                 if (0UL != (*locState & I2S_CMD_TX_PAUSE_Msk))
 936              		.loc 1 265 0
 937 00b0 3368     		ldr	r3, [r6]
 938 00b2 DB05     		lsls	r3, r3, #23
 939 00b4 04D5     		bpl	.L75
 940              	.LVL71:
 941              	.LBB52:
 942              	.LBB53:
 555:Generated_Source\PSoC6\pdl\drivers\peripheral\i2s/cy_i2s.h **** }
 943              		.loc 2 555 0
 944 00b6 236A     		ldr	r3, [r4, #32]
 945 00b8 0132     		adds	r2, r2, #1
 946 00ba FF32     		adds	r2, r2, #255
 947 00bc 1343     		orrs	r3, r2
 948 00be 2362     		str	r3, [r4, #32]
 949              	.LVL72:
 950              	.L75:
 951              	.LBE53:
 952              	.LBE52:
 953              	.LBB54:
 954              	.LBB55:
 537:Generated_Source\PSoC6\pdl\drivers\peripheral\i2s/cy_i2s.h **** }
 955              		.loc 2 537 0
 956 00c0 226A     		ldr	r2, [r4, #32]
 957 00c2 0123     		movs	r3, #1
 958 00c4 1343     		orrs	r3, r2
 959 00c6 2362     		str	r3, [r4, #32]
 960              	.LVL73:
 961              	.L74:
 962              	.LBE55:
 963              	.LBE54:
 266:Generated_Source\PSoC6\pdl\drivers\peripheral\i2s/cy_i2s.c ****                 {
 267:Generated_Source\PSoC6\pdl\drivers\peripheral\i2s/cy_i2s.c ****                     Cy_I2S_PauseTx(locBase); /* Restore the TX paused state */
 268:Generated_Source\PSoC6\pdl\drivers\peripheral\i2s/cy_i2s.c ****                 }
 269:Generated_Source\PSoC6\pdl\drivers\peripheral\i2s/cy_i2s.c ****                 Cy_I2S_EnableTx(locBase); /* Start TX operation */
ARM GAS  C:\Users\ikomb\AppData\Local\Temp\cchczmzd.s 			page 42


 270:Generated_Source\PSoC6\pdl\drivers\peripheral\i2s/cy_i2s.c ****             }
 271:Generated_Source\PSoC6\pdl\drivers\peripheral\i2s/cy_i2s.c ****             Cy_I2S_ClearInterrupt(locBase, *locInterruptMask); /* Clear possible pending I2S interr
 964              		.loc 1 271 0
 965 00c8 7568     		ldr	r5, [r6, #4]
 966              	.LVL74:
 967              	.LBB56:
 968              	.LBB57:
 990:Generated_Source\PSoC6\pdl\drivers\peripheral\i2s/cy_i2s.h ****     base->INTR = interrupt;
 969              		.loc 2 990 0
 970 00ca 104B     		ldr	r3, .L80+16
 971 00cc 1D42     		tst	r5, r3
 972 00ce 03D0     		beq	.L76
 973 00d0 0F49     		ldr	r1, .L80+20
 974 00d2 1048     		ldr	r0, .L80+24
 975 00d4 FFF7FEFF 		bl	Cy_SysLib_AssertFailed
 976              	.LVL75:
 977              	.L76:
 991:Generated_Source\PSoC6\pdl\drivers\peripheral\i2s/cy_i2s.h ****     (void) base->INTR;
 978              		.loc 2 991 0
 979 00d8 F023     		movs	r3, #240
 980 00da 1B01     		lsls	r3, r3, #4
 981 00dc E550     		str	r5, [r4, r3]
 992:Generated_Source\PSoC6\pdl\drivers\peripheral\i2s/cy_i2s.h **** }
 982              		.loc 2 992 0
 983 00de E358     		ldr	r3, [r4, r3]
 984              	.LVL76:
 985              	.LBE57:
 986              	.LBE56:
 272:Generated_Source\PSoC6\pdl\drivers\peripheral\i2s/cy_i2s.c ****             Cy_I2S_SetInterruptMask(locBase, *locInterruptMask); /* Restore I2S interrupts */
 987              		.loc 1 272 0
 988 00e0 7568     		ldr	r5, [r6, #4]
 989              	.LVL77:
 990              	.LBB58:
 991              	.LBB59:
1053:Generated_Source\PSoC6\pdl\drivers\peripheral\i2s/cy_i2s.h ****     base->INTR_MASK = interrupt;
 992              		.loc 2 1053 0
 993 00e2 0A4B     		ldr	r3, .L80+16
 994 00e4 1D42     		tst	r5, r3
 995 00e6 03D0     		beq	.L77
 996 00e8 0B49     		ldr	r1, .L80+28
 997 00ea 0A48     		ldr	r0, .L80+24
 998 00ec FFF7FEFF 		bl	Cy_SysLib_AssertFailed
 999              	.LVL78:
 1000              	.L77:
 1001              		.loc 2 1054 0
 1002 00f0 034B     		ldr	r3, .L80+4
 1003 00f2 E550     		str	r5, [r4, r3]
 1004              	.LBE59:
 1005              	.LBE58:
 227:Generated_Source\PSoC6\pdl\drivers\peripheral\i2s/cy_i2s.c ****     CY_ASSERT_L1(NULL != callbackParams->context);
 1006              		.loc 1 227 0
 1007 00f4 0020     		movs	r0, #0
 1008 00f6 00E0     		b	.L66
 1009              	.LVL79:
 1010              	.L78:
 273:Generated_Source\PSoC6\pdl\drivers\peripheral\i2s/cy_i2s.c ****             break;
 274:Generated_Source\PSoC6\pdl\drivers\peripheral\i2s/cy_i2s.c ****         
ARM GAS  C:\Users\ikomb\AppData\Local\Temp\cchczmzd.s 			page 43


 275:Generated_Source\PSoC6\pdl\drivers\peripheral\i2s/cy_i2s.c ****         default:
 276:Generated_Source\PSoC6\pdl\drivers\peripheral\i2s/cy_i2s.c ****             ret = CY_SYSPM_FAIL;
 1011              		.loc 1 276 0
 1012 00f8 0848     		ldr	r0, .L80+32
 1013              	.LVL80:
 1014              	.L66:
 277:Generated_Source\PSoC6\pdl\drivers\peripheral\i2s/cy_i2s.c ****             break;
 278:Generated_Source\PSoC6\pdl\drivers\peripheral\i2s/cy_i2s.c ****     }
 279:Generated_Source\PSoC6\pdl\drivers\peripheral\i2s/cy_i2s.c ****         
 280:Generated_Source\PSoC6\pdl\drivers\peripheral\i2s/cy_i2s.c ****     return(ret);
 281:Generated_Source\PSoC6\pdl\drivers\peripheral\i2s/cy_i2s.c **** }
 1015              		.loc 1 281 0
 1016              		@ sp needed
 1017              	.LVL81:
 1018              	.LVL82:
 1019 00fa 70BD     		pop	{r4, r5, r6, pc}
 1020              	.L81:
 1021              		.align	2
 1022              	.L80:
 1023 00fc 00000000 		.word	.LC0
 1024 0100 080F0000 		.word	3848
 1025 0104 01010100 		.word	65793
 1026 0108 FFFFFEFF 		.word	-65537
 1027 010c 8CFE92FE 		.word	-23921012
 1028 0110 DE030000 		.word	990
 1029 0114 3C000000 		.word	.LC3
 1030 0118 1D040000 		.word	1053
 1031 011c FF004200 		.word	4325631
 1032              		.cfi_endproc
 1033              	.LFE99:
 1034              		.size	Cy_I2S_DeepSleepCallback, .-Cy_I2S_DeepSleepCallback
 1035              		.section	.rodata.str1.4,"aMS",%progbits,1
 1036              		.align	2
 1037              	.LC0:
 1038 0000 47656E65 		.ascii	"Generated_Source\\PSoC6\\pdl\\drivers\\peripheral\\"
 1038      72617465 
 1038      645F536F 
 1038      75726365 
 1038      5C50536F 
 1039 002e 6932735C 		.ascii	"i2s\\cy_i2s.c\000"
 1039      63795F69 
 1039      32732E63 
 1039      00
 1040 003b 00       		.space	1
 1041              	.LC3:
 1042 003c 47656E65 		.ascii	"Generated_Source\\PSoC6\\pdl\\drivers\\peripheral\\"
 1042      72617465 
 1042      645F536F 
 1042      75726365 
 1042      5C50536F 
 1043 006a 6932735C 		.ascii	"i2s\\cy_i2s.h\000"
 1043      63795F69 
 1043      32732E68 
 1043      00
 1044              		.text
 1045              	.Letext0:
 1046              		.file 3 "c:\\program files (x86)\\cypress\\psoc creator\\4.4\\psoc creator\\import\\gnu\\arm\\5.4.
ARM GAS  C:\Users\ikomb\AppData\Local\Temp\cchczmzd.s 			page 44


 1047              		.file 4 "c:\\program files (x86)\\cypress\\psoc creator\\4.4\\psoc creator\\import\\gnu\\arm\\5.4.
 1048              		.file 5 "Generated_Source\\PSoC6\\pdl\\devices/psoc6/ip/cyip_i2s.h"
 1049              		.file 6 "Generated_Source\\PSoC6\\pdl\\drivers/peripheral/syslib/cy_syslib.h"
 1050              		.file 7 "Generated_Source\\PSoC6\\pdl\\drivers/peripheral/syspm/cy_syspm.h"
 1051              		.section	.debug_info,"",%progbits
 1052              	.Ldebug_info0:
 1053 0000 CA0C0000 		.4byte	0xcca
 1054 0004 0400     		.2byte	0x4
 1055 0006 00000000 		.4byte	.Ldebug_abbrev0
 1056 000a 04       		.byte	0x4
 1057 000b 01       		.uleb128 0x1
 1058 000c 87060000 		.4byte	.LASF143
 1059 0010 0C       		.byte	0xc
 1060 0011 F8000000 		.4byte	.LASF144
 1061 0015 AE030000 		.4byte	.LASF145
 1062 0019 18000000 		.4byte	.Ldebug_ranges0+0x18
 1063 001d 00000000 		.4byte	0
 1064 0021 00000000 		.4byte	.Ldebug_line0
 1065 0025 02       		.uleb128 0x2
 1066 0026 04       		.byte	0x4
 1067 0027 05       		.byte	0x5
 1068 0028 696E7400 		.ascii	"int\000"
 1069 002c 03       		.uleb128 0x3
 1070 002d 04       		.byte	0x4
 1071 002e 07       		.byte	0x7
 1072 002f 69010000 		.4byte	.LASF0
 1073 0033 03       		.uleb128 0x3
 1074 0034 08       		.byte	0x8
 1075 0035 05       		.byte	0x5
 1076 0036 C1000000 		.4byte	.LASF1
 1077 003a 03       		.uleb128 0x3
 1078 003b 08       		.byte	0x8
 1079 003c 04       		.byte	0x4
 1080 003d 19070000 		.4byte	.LASF2
 1081 0041 03       		.uleb128 0x3
 1082 0042 01       		.byte	0x1
 1083 0043 06       		.byte	0x6
 1084 0044 CF000000 		.4byte	.LASF3
 1085 0048 04       		.uleb128 0x4
 1086 0049 6E000000 		.4byte	.LASF8
 1087 004d 03       		.byte	0x3
 1088 004e 1D       		.byte	0x1d
 1089 004f 53000000 		.4byte	0x53
 1090 0053 03       		.uleb128 0x3
 1091 0054 01       		.byte	0x1
 1092 0055 08       		.byte	0x8
 1093 0056 76050000 		.4byte	.LASF4
 1094 005a 03       		.uleb128 0x3
 1095 005b 02       		.byte	0x2
 1096 005c 05       		.byte	0x5
 1097 005d A0050000 		.4byte	.LASF5
 1098 0061 03       		.uleb128 0x3
 1099 0062 02       		.byte	0x2
 1100 0063 07       		.byte	0x7
 1101 0064 EA020000 		.4byte	.LASF6
 1102 0068 03       		.uleb128 0x3
 1103 0069 04       		.byte	0x4
ARM GAS  C:\Users\ikomb\AppData\Local\Temp\cchczmzd.s 			page 45


 1104 006a 05       		.byte	0x5
 1105 006b 50010000 		.4byte	.LASF7
 1106 006f 04       		.uleb128 0x4
 1107 0070 FA010000 		.4byte	.LASF9
 1108 0074 03       		.byte	0x3
 1109 0075 41       		.byte	0x41
 1110 0076 7A000000 		.4byte	0x7a
 1111 007a 03       		.uleb128 0x3
 1112 007b 04       		.byte	0x4
 1113 007c 07       		.byte	0x7
 1114 007d A1020000 		.4byte	.LASF10
 1115 0081 03       		.uleb128 0x3
 1116 0082 08       		.byte	0x8
 1117 0083 07       		.byte	0x7
 1118 0084 96000000 		.4byte	.LASF11
 1119 0088 04       		.uleb128 0x4
 1120 0089 81070000 		.4byte	.LASF12
 1121 008d 04       		.byte	0x4
 1122 008e 18       		.byte	0x18
 1123 008f 48000000 		.4byte	0x48
 1124 0093 04       		.uleb128 0x4
 1125 0094 7E060000 		.4byte	.LASF13
 1126 0098 04       		.byte	0x4
 1127 0099 30       		.byte	0x30
 1128 009a 6F000000 		.4byte	0x6f
 1129 009e 03       		.uleb128 0x3
 1130 009f 04       		.byte	0x4
 1131 00a0 07       		.byte	0x7
 1132 00a1 86030000 		.4byte	.LASF14
 1133 00a5 05       		.uleb128 0x5
 1134 00a6 93000000 		.4byte	0x93
 1135 00aa 06       		.uleb128 0x6
 1136 00ab A5000000 		.4byte	0xa5
 1137 00af 07       		.uleb128 0x7
 1138 00b0 AA000000 		.4byte	0xaa
 1139 00b4 BF000000 		.4byte	0xbf
 1140 00b8 08       		.uleb128 0x8
 1141 00b9 9E000000 		.4byte	0x9e
 1142 00bd 06       		.byte	0x6
 1143 00be 00       		.byte	0
 1144 00bf 07       		.uleb128 0x7
 1145 00c0 AA000000 		.4byte	0xaa
 1146 00c4 CF000000 		.4byte	0xcf
 1147 00c8 08       		.uleb128 0x8
 1148 00c9 9E000000 		.4byte	0x9e
 1149 00cd 05       		.byte	0x5
 1150 00ce 00       		.byte	0
 1151 00cf 07       		.uleb128 0x7
 1152 00d0 AA000000 		.4byte	0xaa
 1153 00d4 DF000000 		.4byte	0xdf
 1154 00d8 08       		.uleb128 0x8
 1155 00d9 9E000000 		.4byte	0x9e
 1156 00dd 02       		.byte	0x2
 1157 00de 00       		.byte	0
 1158 00df 07       		.uleb128 0x7
 1159 00e0 AA000000 		.4byte	0xaa
 1160 00e4 EF000000 		.4byte	0xef
ARM GAS  C:\Users\ikomb\AppData\Local\Temp\cchczmzd.s 			page 46


 1161 00e8 08       		.uleb128 0x8
 1162 00e9 9E000000 		.4byte	0x9e
 1163 00ed 0E       		.byte	0xe
 1164 00ee 00       		.byte	0
 1165 00ef 07       		.uleb128 0x7
 1166 00f0 AA000000 		.4byte	0xaa
 1167 00f4 FF000000 		.4byte	0xff
 1168 00f8 08       		.uleb128 0x8
 1169 00f9 9E000000 		.4byte	0x9e
 1170 00fd 3C       		.byte	0x3c
 1171 00fe 00       		.byte	0
 1172 00ff 09       		.uleb128 0x9
 1173 0100 100F     		.2byte	0xf10
 1174 0102 05       		.byte	0x5
 1175 0103 21       		.byte	0x21
 1176 0104 5A020000 		.4byte	0x25a
 1177 0108 0A       		.uleb128 0xa
 1178 0109 43544C00 		.ascii	"CTL\000"
 1179 010d 05       		.byte	0x5
 1180 010e 22       		.byte	0x22
 1181 010f A5000000 		.4byte	0xa5
 1182 0113 00       		.byte	0
 1183 0114 0B       		.uleb128 0xb
 1184 0115 EC050000 		.4byte	.LASF15
 1185 0119 05       		.byte	0x5
 1186 011a 23       		.byte	0x23
 1187 011b 5F020000 		.4byte	0x25f
 1188 011f 04       		.byte	0x4
 1189 0120 0B       		.uleb128 0xb
 1190 0121 8C000000 		.4byte	.LASF16
 1191 0125 05       		.byte	0x5
 1192 0126 24       		.byte	0x24
 1193 0127 A5000000 		.4byte	0xa5
 1194 012b 10       		.byte	0x10
 1195 012c 0B       		.uleb128 0xb
 1196 012d F1040000 		.4byte	.LASF17
 1197 0131 05       		.byte	0x5
 1198 0132 25       		.byte	0x25
 1199 0133 69020000 		.4byte	0x269
 1200 0137 14       		.byte	0x14
 1201 0138 0A       		.uleb128 0xa
 1202 0139 434D4400 		.ascii	"CMD\000"
 1203 013d 05       		.byte	0x5
 1204 013e 26       		.byte	0x26
 1205 013f A5000000 		.4byte	0xa5
 1206 0143 20       		.byte	0x20
 1207 0144 0B       		.uleb128 0xb
 1208 0145 FB040000 		.4byte	.LASF18
 1209 0149 05       		.byte	0x5
 1210 014a 27       		.byte	0x27
 1211 014b 73020000 		.4byte	0x273
 1212 014f 24       		.byte	0x24
 1213 0150 0B       		.uleb128 0xb
 1214 0151 81020000 		.4byte	.LASF19
 1215 0155 05       		.byte	0x5
 1216 0156 28       		.byte	0x28
 1217 0157 A5000000 		.4byte	0xa5
ARM GAS  C:\Users\ikomb\AppData\Local\Temp\cchczmzd.s 			page 47


 1218 015b 40       		.byte	0x40
 1219 015c 0B       		.uleb128 0xb
 1220 015d 05050000 		.4byte	.LASF20
 1221 0161 05       		.byte	0x5
 1222 0162 29       		.byte	0x29
 1223 0163 7D020000 		.4byte	0x27d
 1224 0167 44       		.byte	0x44
 1225 0168 0B       		.uleb128 0xb
 1226 0169 BA000000 		.4byte	.LASF21
 1227 016d 05       		.byte	0x5
 1228 016e 2A       		.byte	0x2a
 1229 016f A5000000 		.4byte	0xa5
 1230 0173 80       		.byte	0x80
 1231 0174 0B       		.uleb128 0xb
 1232 0175 78000000 		.4byte	.LASF22
 1233 0179 05       		.byte	0x5
 1234 017a 2B       		.byte	0x2b
 1235 017b A5000000 		.4byte	0xa5
 1236 017f 84       		.byte	0x84
 1237 0180 0B       		.uleb128 0xb
 1238 0181 0F050000 		.4byte	.LASF23
 1239 0185 05       		.byte	0x5
 1240 0186 2C       		.byte	0x2c
 1241 0187 87020000 		.4byte	0x287
 1242 018b 88       		.byte	0x88
 1243 018c 0B       		.uleb128 0xb
 1244 018d 37080000 		.4byte	.LASF24
 1245 0191 05       		.byte	0x5
 1246 0192 2D       		.byte	0x2d
 1247 0193 A5000000 		.4byte	0xa5
 1248 0197 A0       		.byte	0xa0
 1249 0198 0B       		.uleb128 0xb
 1250 0199 DB000000 		.4byte	.LASF25
 1251 019d 05       		.byte	0x5
 1252 019e 2E       		.byte	0x2e
 1253 019f A5000000 		.4byte	0xa5
 1254 01a3 A4       		.byte	0xa4
 1255 01a4 0B       		.uleb128 0xb
 1256 01a5 19050000 		.4byte	.LASF26
 1257 01a9 05       		.byte	0x5
 1258 01aa 2F       		.byte	0x2f
 1259 01ab A1020000 		.4byte	0x2a1
 1260 01af A8       		.byte	0xa8
 1261 01b0 0C       		.uleb128 0xc
 1262 01b1 94050000 		.4byte	.LASF27
 1263 01b5 05       		.byte	0x5
 1264 01b6 30       		.byte	0x30
 1265 01b7 A5000000 		.4byte	0xa5
 1266 01bb 0002     		.2byte	0x200
 1267 01bd 0C       		.uleb128 0xc
 1268 01be 77030000 		.4byte	.LASF28
 1269 01c2 05       		.byte	0x5
 1270 01c3 31       		.byte	0x31
 1271 01c4 AA000000 		.4byte	0xaa
 1272 01c8 0402     		.2byte	0x204
 1273 01ca 0C       		.uleb128 0xc
 1274 01cb 01080000 		.4byte	.LASF29
ARM GAS  C:\Users\ikomb\AppData\Local\Temp\cchczmzd.s 			page 48


 1275 01cf 05       		.byte	0x5
 1276 01d0 32       		.byte	0x32
 1277 01d1 A5000000 		.4byte	0xa5
 1278 01d5 0802     		.2byte	0x208
 1279 01d7 0C       		.uleb128 0xc
 1280 01d8 23050000 		.4byte	.LASF30
 1281 01dc 05       		.byte	0x5
 1282 01dd 33       		.byte	0x33
 1283 01de AB020000 		.4byte	0x2ab
 1284 01e2 0C02     		.2byte	0x20c
 1285 01e4 0C       		.uleb128 0xc
 1286 01e5 2F070000 		.4byte	.LASF31
 1287 01e9 05       		.byte	0x5
 1288 01ea 34       		.byte	0x34
 1289 01eb A5000000 		.4byte	0xa5
 1290 01ef 0003     		.2byte	0x300
 1291 01f1 0C       		.uleb128 0xc
 1292 01f2 89070000 		.4byte	.LASF32
 1293 01f6 05       		.byte	0x5
 1294 01f7 35       		.byte	0x35
 1295 01f8 AA000000 		.4byte	0xaa
 1296 01fc 0403     		.2byte	0x304
 1297 01fe 0C       		.uleb128 0xc
 1298 01ff F6070000 		.4byte	.LASF33
 1299 0203 05       		.byte	0x5
 1300 0204 36       		.byte	0x36
 1301 0205 AA000000 		.4byte	0xaa
 1302 0209 0803     		.2byte	0x308
 1303 020b 0C       		.uleb128 0xc
 1304 020c CE080000 		.4byte	.LASF34
 1305 0210 05       		.byte	0x5
 1306 0211 37       		.byte	0x37
 1307 0212 AA000000 		.4byte	0xaa
 1308 0216 0C03     		.2byte	0x30c
 1309 0218 0C       		.uleb128 0xc
 1310 0219 2D050000 		.4byte	.LASF35
 1311 021d 05       		.byte	0x5
 1312 021e 38       		.byte	0x38
 1313 021f C6020000 		.4byte	0x2c6
 1314 0223 1003     		.2byte	0x310
 1315 0225 0C       		.uleb128 0xc
 1316 0226 3D040000 		.4byte	.LASF36
 1317 022a 05       		.byte	0x5
 1318 022b 39       		.byte	0x39
 1319 022c A5000000 		.4byte	0xa5
 1320 0230 000F     		.2byte	0xf00
 1321 0232 0C       		.uleb128 0xc
 1322 0233 5B030000 		.4byte	.LASF37
 1323 0237 05       		.byte	0x5
 1324 0238 3A       		.byte	0x3a
 1325 0239 A5000000 		.4byte	0xa5
 1326 023d 040F     		.2byte	0xf04
 1327 023f 0C       		.uleb128 0xc
 1328 0240 D3020000 		.4byte	.LASF38
 1329 0244 05       		.byte	0x5
 1330 0245 3B       		.byte	0x3b
 1331 0246 A5000000 		.4byte	0xa5
ARM GAS  C:\Users\ikomb\AppData\Local\Temp\cchczmzd.s 			page 49


 1332 024a 080F     		.2byte	0xf08
 1333 024c 0C       		.uleb128 0xc
 1334 024d B0040000 		.4byte	.LASF39
 1335 0251 05       		.byte	0x5
 1336 0252 3C       		.byte	0x3c
 1337 0253 AA000000 		.4byte	0xaa
 1338 0257 0C0F     		.2byte	0xf0c
 1339 0259 00       		.byte	0
 1340 025a 05       		.uleb128 0x5
 1341 025b CF000000 		.4byte	0xcf
 1342 025f 06       		.uleb128 0x6
 1343 0260 5A020000 		.4byte	0x25a
 1344 0264 05       		.uleb128 0x5
 1345 0265 CF000000 		.4byte	0xcf
 1346 0269 06       		.uleb128 0x6
 1347 026a 64020000 		.4byte	0x264
 1348 026e 05       		.uleb128 0x5
 1349 026f AF000000 		.4byte	0xaf
 1350 0273 06       		.uleb128 0x6
 1351 0274 6E020000 		.4byte	0x26e
 1352 0278 05       		.uleb128 0x5
 1353 0279 DF000000 		.4byte	0xdf
 1354 027d 06       		.uleb128 0x6
 1355 027e 78020000 		.4byte	0x278
 1356 0282 05       		.uleb128 0x5
 1357 0283 BF000000 		.4byte	0xbf
 1358 0287 06       		.uleb128 0x6
 1359 0288 82020000 		.4byte	0x282
 1360 028c 07       		.uleb128 0x7
 1361 028d AA000000 		.4byte	0xaa
 1362 0291 9C020000 		.4byte	0x29c
 1363 0295 08       		.uleb128 0x8
 1364 0296 9E000000 		.4byte	0x9e
 1365 029a 55       		.byte	0x55
 1366 029b 00       		.byte	0
 1367 029c 05       		.uleb128 0x5
 1368 029d 8C020000 		.4byte	0x28c
 1369 02a1 06       		.uleb128 0x6
 1370 02a2 9C020000 		.4byte	0x29c
 1371 02a6 05       		.uleb128 0x5
 1372 02a7 EF000000 		.4byte	0xef
 1373 02ab 06       		.uleb128 0x6
 1374 02ac A6020000 		.4byte	0x2a6
 1375 02b0 07       		.uleb128 0x7
 1376 02b1 AA000000 		.4byte	0xaa
 1377 02b5 C1020000 		.4byte	0x2c1
 1378 02b9 0D       		.uleb128 0xd
 1379 02ba 9E000000 		.4byte	0x9e
 1380 02be FB02     		.2byte	0x2fb
 1381 02c0 00       		.byte	0
 1382 02c1 05       		.uleb128 0x5
 1383 02c2 B0020000 		.4byte	0x2b0
 1384 02c6 06       		.uleb128 0x6
 1385 02c7 C1020000 		.4byte	0x2c1
 1386 02cb 04       		.uleb128 0x4
 1387 02cc 34040000 		.4byte	.LASF40
 1388 02d0 05       		.byte	0x5
ARM GAS  C:\Users\ikomb\AppData\Local\Temp\cchczmzd.s 			page 50


 1389 02d1 3D       		.byte	0x3d
 1390 02d2 FF000000 		.4byte	0xff
 1391 02d6 0E       		.uleb128 0xe
 1392 02d7 88020000 		.4byte	.LASF41
 1393 02db 06       		.byte	0x6
 1394 02dc C401     		.2byte	0x1c4
 1395 02de E2020000 		.4byte	0x2e2
 1396 02e2 03       		.uleb128 0x3
 1397 02e3 01       		.byte	0x1
 1398 02e4 08       		.byte	0x8
 1399 02e5 25070000 		.4byte	.LASF42
 1400 02e9 03       		.uleb128 0x3
 1401 02ea 04       		.byte	0x4
 1402 02eb 04       		.byte	0x4
 1403 02ec BC040000 		.4byte	.LASF43
 1404 02f0 03       		.uleb128 0x3
 1405 02f1 08       		.byte	0x8
 1406 02f2 04       		.byte	0x4
 1407 02f3 89010000 		.4byte	.LASF44
 1408 02f7 0F       		.uleb128 0xf
 1409 02f8 04       		.byte	0x4
 1410 02f9 2C000000 		.4byte	0x2c
 1411 02fd 07       		.byte	0x7
 1412 02fe 9703     		.2byte	0x397
 1413 0300 2F030000 		.4byte	0x32f
 1414 0304 10       		.uleb128 0x10
 1415 0305 97080000 		.4byte	.LASF45
 1416 0309 00       		.byte	0
 1417 030a 11       		.uleb128 0x11
 1418 030b 3F000000 		.4byte	.LASF46
 1419 030f 01004200 		.4byte	0x420001
 1420 0313 11       		.uleb128 0x11
 1421 0314 2E000000 		.4byte	.LASF47
 1422 0318 02004200 		.4byte	0x420002
 1423 031c 11       		.uleb128 0x11
 1424 031d 6A020000 		.4byte	.LASF48
 1425 0321 03004200 		.4byte	0x420003
 1426 0325 11       		.uleb128 0x11
 1427 0326 19080000 		.4byte	.LASF49
 1428 032a FF004200 		.4byte	0x4200ff
 1429 032e 00       		.byte	0
 1430 032f 0E       		.uleb128 0xe
 1431 0330 F0080000 		.4byte	.LASF50
 1432 0334 07       		.byte	0x7
 1433 0335 9E03     		.2byte	0x39e
 1434 0337 F7020000 		.4byte	0x2f7
 1435 033b 0F       		.uleb128 0xf
 1436 033c 01       		.byte	0x1
 1437 033d 53000000 		.4byte	0x53
 1438 0341 07       		.byte	0x7
 1439 0342 3704     		.2byte	0x437
 1440 0344 61030000 		.4byte	0x361
 1441 0348 10       		.uleb128 0x10
 1442 0349 B9080000 		.4byte	.LASF51
 1443 034d 01       		.byte	0x1
 1444 034e 10       		.uleb128 0x10
 1445 034f CB070000 		.4byte	.LASF52
ARM GAS  C:\Users\ikomb\AppData\Local\Temp\cchczmzd.s 			page 51


 1446 0353 02       		.byte	0x2
 1447 0354 10       		.uleb128 0x10
 1448 0355 42040000 		.4byte	.LASF53
 1449 0359 04       		.byte	0x4
 1450 035a 10       		.uleb128 0x10
 1451 035b 41030000 		.4byte	.LASF54
 1452 035f 08       		.byte	0x8
 1453 0360 00       		.byte	0
 1454 0361 0E       		.uleb128 0xe
 1455 0362 94040000 		.4byte	.LASF55
 1456 0366 07       		.byte	0x7
 1457 0367 4104     		.2byte	0x441
 1458 0369 3B030000 		.4byte	0x33b
 1459 036d 12       		.uleb128 0x12
 1460 036e 0C       		.byte	0xc
 1461 036f 07       		.byte	0x7
 1462 0370 5D04     		.2byte	0x45d
 1463 0372 9E030000 		.4byte	0x39e
 1464 0376 13       		.uleb128 0x13
 1465 0377 2A070000 		.4byte	.LASF56
 1466 037b 07       		.byte	0x7
 1467 037c 5F04     		.2byte	0x45f
 1468 037e 61030000 		.4byte	0x361
 1469 0382 00       		.byte	0
 1470 0383 13       		.uleb128 0x13
 1471 0384 64030000 		.4byte	.LASF57
 1472 0388 07       		.byte	0x7
 1473 0389 6304     		.2byte	0x463
 1474 038b 9E030000 		.4byte	0x39e
 1475 038f 04       		.byte	0x4
 1476 0390 13       		.uleb128 0x13
 1477 0391 E2020000 		.4byte	.LASF58
 1478 0395 07       		.byte	0x7
 1479 0396 6504     		.2byte	0x465
 1480 0398 9E030000 		.4byte	0x39e
 1481 039c 08       		.byte	0x8
 1482 039d 00       		.byte	0
 1483 039e 14       		.uleb128 0x14
 1484 039f 04       		.byte	0x4
 1485 03a0 0E       		.uleb128 0xe
 1486 03a1 C5010000 		.4byte	.LASF59
 1487 03a5 07       		.byte	0x7
 1488 03a6 6804     		.2byte	0x468
 1489 03a8 6D030000 		.4byte	0x36d
 1490 03ac 15       		.uleb128 0x15
 1491 03ad 04       		.byte	0x4
 1492 03ae A0030000 		.4byte	0x3a0
 1493 03b2 16       		.uleb128 0x16
 1494 03b3 04       		.byte	0x4
 1495 03b4 2C000000 		.4byte	0x2c
 1496 03b8 02       		.byte	0x2
 1497 03b9 E7       		.byte	0xe7
 1498 03ba CE030000 		.4byte	0x3ce
 1499 03be 10       		.uleb128 0x10
 1500 03bf 6F060000 		.4byte	.LASF60
 1501 03c3 00       		.byte	0
 1502 03c4 11       		.uleb128 0x11
ARM GAS  C:\Users\ikomb\AppData\Local\Temp\cchczmzd.s 			page 52


 1503 03c5 E7000000 		.4byte	.LASF61
 1504 03c9 01008200 		.4byte	0x820001
 1505 03cd 00       		.byte	0
 1506 03ce 04       		.uleb128 0x4
 1507 03cf A8010000 		.4byte	.LASF62
 1508 03d3 02       		.byte	0x2
 1509 03d4 EA       		.byte	0xea
 1510 03d5 B2030000 		.4byte	0x3b2
 1511 03d9 16       		.uleb128 0x16
 1512 03da 01       		.byte	0x1
 1513 03db 53000000 		.4byte	0x53
 1514 03df 02       		.byte	0x2
 1515 03e0 F1       		.byte	0xf1
 1516 03e1 FE030000 		.4byte	0x3fe
 1517 03e5 10       		.uleb128 0x10
 1518 03e6 E4010000 		.4byte	.LASF63
 1519 03ea 00       		.byte	0
 1520 03eb 10       		.uleb128 0x10
 1521 03ec 49090000 		.4byte	.LASF64
 1522 03f0 01       		.byte	0x1
 1523 03f1 10       		.uleb128 0x10
 1524 03f2 3A020000 		.4byte	.LASF65
 1525 03f6 02       		.byte	0x2
 1526 03f7 10       		.uleb128 0x10
 1527 03f8 4C020000 		.4byte	.LASF66
 1528 03fc 03       		.byte	0x3
 1529 03fd 00       		.byte	0
 1530 03fe 04       		.uleb128 0x4
 1531 03ff 6D080000 		.4byte	.LASF67
 1532 0403 02       		.byte	0x2
 1533 0404 F6       		.byte	0xf6
 1534 0405 D9030000 		.4byte	0x3d9
 1535 0409 16       		.uleb128 0x16
 1536 040a 01       		.byte	0x1
 1537 040b 53000000 		.4byte	0x53
 1538 040f 02       		.byte	0x2
 1539 0410 FC       		.byte	0xfc
 1540 0411 3A040000 		.4byte	0x43a
 1541 0415 10       		.uleb128 0x10
 1542 0416 15020000 		.4byte	.LASF68
 1543 041a 00       		.byte	0
 1544 041b 10       		.uleb128 0x10
 1545 041c 5D040000 		.4byte	.LASF69
 1546 0420 01       		.byte	0x1
 1547 0421 10       		.uleb128 0x10
 1548 0422 7A040000 		.4byte	.LASF70
 1549 0426 02       		.byte	0x2
 1550 0427 10       		.uleb128 0x10
 1551 0428 C6050000 		.4byte	.LASF71
 1552 042c 03       		.byte	0x3
 1553 042d 10       		.uleb128 0x10
 1554 042e F5050000 		.4byte	.LASF72
 1555 0432 04       		.byte	0x4
 1556 0433 10       		.uleb128 0x10
 1557 0434 BE070000 		.4byte	.LASF73
 1558 0438 05       		.byte	0x5
 1559 0439 00       		.byte	0
ARM GAS  C:\Users\ikomb\AppData\Local\Temp\cchczmzd.s 			page 53


 1560 043a 0E       		.uleb128 0xe
 1561 043b C3020000 		.4byte	.LASF74
 1562 043f 02       		.byte	0x2
 1563 0440 0301     		.2byte	0x103
 1564 0442 09040000 		.4byte	0x409
 1565 0446 0F       		.uleb128 0xf
 1566 0447 01       		.byte	0x1
 1567 0448 53000000 		.4byte	0x53
 1568 044c 02       		.byte	0x2
 1569 044d 0901     		.2byte	0x109
 1570 044f 60040000 		.4byte	0x460
 1571 0453 10       		.uleb128 0x10
 1572 0454 83080000 		.4byte	.LASF75
 1573 0458 00       		.byte	0
 1574 0459 10       		.uleb128 0x10
 1575 045a 02060000 		.4byte	.LASF76
 1576 045e 01       		.byte	0x1
 1577 045f 00       		.byte	0
 1578 0460 0E       		.uleb128 0xe
 1579 0461 A9070000 		.4byte	.LASF77
 1580 0465 02       		.byte	0x2
 1581 0466 0C01     		.2byte	0x10c
 1582 0468 46040000 		.4byte	0x446
 1583 046c 0F       		.uleb128 0xf
 1584 046d 01       		.byte	0x1
 1585 046e 53000000 		.4byte	0x53
 1586 0472 02       		.byte	0x2
 1587 0473 1201     		.2byte	0x112
 1588 0475 86040000 		.4byte	0x486
 1589 0479 10       		.uleb128 0x10
 1590 047a 45080000 		.4byte	.LASF78
 1591 047e 00       		.byte	0
 1592 047f 10       		.uleb128 0x10
 1593 0480 FD020000 		.4byte	.LASF79
 1594 0484 01       		.byte	0x1
 1595 0485 00       		.byte	0
 1596 0486 0E       		.uleb128 0xe
 1597 0487 3B070000 		.4byte	.LASF80
 1598 048b 02       		.byte	0x2
 1599 048c 1501     		.2byte	0x115
 1600 048e 6C040000 		.4byte	0x46c
 1601 0492 12       		.uleb128 0x12
 1602 0493 28       		.byte	0x28
 1603 0494 02       		.byte	0x2
 1604 0495 2101     		.2byte	0x121
 1605 0497 3C060000 		.4byte	0x63c
 1606 049b 13       		.uleb128 0x13
 1607 049c 30020000 		.4byte	.LASF81
 1608 04a0 02       		.byte	0x2
 1609 04a1 2301     		.2byte	0x123
 1610 04a3 3C060000 		.4byte	0x63c
 1611 04a7 00       		.byte	0
 1612 04a8 13       		.uleb128 0x13
 1613 04a9 00000000 		.4byte	.LASF82
 1614 04ad 02       		.byte	0x2
 1615 04ae 2401     		.2byte	0x124
 1616 04b0 3C060000 		.4byte	0x63c
ARM GAS  C:\Users\ikomb\AppData\Local\Temp\cchczmzd.s 			page 54


 1617 04b4 01       		.byte	0x1
 1618 04b5 13       		.uleb128 0x13
 1619 04b6 AD000000 		.4byte	.LASF83
 1620 04ba 02       		.byte	0x2
 1621 04bb 2501     		.2byte	0x125
 1622 04bd 3C060000 		.4byte	0x63c
 1623 04c1 02       		.byte	0x2
 1624 04c2 13       		.uleb128 0x13
 1625 04c3 AA050000 		.4byte	.LASF84
 1626 04c7 02       		.byte	0x2
 1627 04c8 2601     		.2byte	0x126
 1628 04ca 3C060000 		.4byte	0x63c
 1629 04ce 03       		.byte	0x3
 1630 04cf 13       		.uleb128 0x13
 1631 04d0 3E080000 		.4byte	.LASF85
 1632 04d4 02       		.byte	0x2
 1633 04d5 2701     		.2byte	0x127
 1634 04d7 88000000 		.4byte	0x88
 1635 04db 04       		.byte	0x4
 1636 04dc 13       		.uleb128 0x13
 1637 04dd 5B000000 		.4byte	.LASF86
 1638 04e1 02       		.byte	0x2
 1639 04e2 2801     		.2byte	0x128
 1640 04e4 3C060000 		.4byte	0x63c
 1641 04e8 05       		.byte	0x5
 1642 04e9 13       		.uleb128 0x13
 1643 04ea 2C060000 		.4byte	.LASF87
 1644 04ee 02       		.byte	0x2
 1645 04ef 2901     		.2byte	0x129
 1646 04f1 3C060000 		.4byte	0x63c
 1647 04f5 06       		.byte	0x6
 1648 04f6 13       		.uleb128 0x13
 1649 04f7 8F030000 		.4byte	.LASF88
 1650 04fb 02       		.byte	0x2
 1651 04fc 2A01     		.2byte	0x12a
 1652 04fe FE030000 		.4byte	0x3fe
 1653 0502 07       		.byte	0x7
 1654 0503 13       		.uleb128 0x13
 1655 0504 21020000 		.4byte	.LASF89
 1656 0508 02       		.byte	0x2
 1657 0509 2B01     		.2byte	0x12b
 1658 050b 86040000 		.4byte	0x486
 1659 050f 08       		.byte	0x8
 1660 0510 13       		.uleb128 0x13
 1661 0511 A8080000 		.4byte	.LASF90
 1662 0515 02       		.byte	0x2
 1663 0516 2E01     		.2byte	0x12e
 1664 0518 3C060000 		.4byte	0x63c
 1665 051c 09       		.byte	0x9
 1666 051d 13       		.uleb128 0x13
 1667 051e 39060000 		.4byte	.LASF91
 1668 0522 02       		.byte	0x2
 1669 0523 2F01     		.2byte	0x12f
 1670 0525 93000000 		.4byte	0x93
 1671 0529 0C       		.byte	0xc
 1672 052a 13       		.uleb128 0x13
 1673 052b 8F020000 		.4byte	.LASF92
ARM GAS  C:\Users\ikomb\AppData\Local\Temp\cchczmzd.s 			page 55


 1674 052f 02       		.byte	0x2
 1675 0530 3001     		.2byte	0x130
 1676 0532 3C060000 		.4byte	0x63c
 1677 0536 10       		.byte	0x10
 1678 0537 13       		.uleb128 0x13
 1679 0538 54060000 		.4byte	.LASF93
 1680 053c 02       		.byte	0x2
 1681 053d 3801     		.2byte	0x138
 1682 053f 3C060000 		.4byte	0x63c
 1683 0543 11       		.byte	0x11
 1684 0544 13       		.uleb128 0x13
 1685 0545 0E090000 		.4byte	.LASF94
 1686 0549 02       		.byte	0x2
 1687 054a 3F01     		.2byte	0x13f
 1688 054c 3C060000 		.4byte	0x63c
 1689 0550 12       		.byte	0x12
 1690 0551 13       		.uleb128 0x13
 1691 0552 64060000 		.4byte	.LASF95
 1692 0556 02       		.byte	0x2
 1693 0557 4601     		.2byte	0x146
 1694 0559 88000000 		.4byte	0x88
 1695 055d 13       		.byte	0x13
 1696 055e 13       		.uleb128 0x13
 1697 055f 84050000 		.4byte	.LASF96
 1698 0563 02       		.byte	0x2
 1699 0564 4901     		.2byte	0x149
 1700 0566 3A040000 		.4byte	0x43a
 1701 056a 14       		.byte	0x14
 1702 056b 13       		.uleb128 0x13
 1703 056c 87040000 		.4byte	.LASF97
 1704 0570 02       		.byte	0x2
 1705 0571 4C01     		.2byte	0x14c
 1706 0573 3A040000 		.4byte	0x43a
 1707 0577 15       		.byte	0x15
 1708 0578 13       		.uleb128 0x13
 1709 0579 27080000 		.4byte	.LASF98
 1710 057d 02       		.byte	0x2
 1711 057e 4E01     		.2byte	0x14e
 1712 0580 60040000 		.4byte	0x460
 1713 0584 16       		.byte	0x16
 1714 0585 13       		.uleb128 0x13
 1715 0586 37050000 		.4byte	.LASF99
 1716 058a 02       		.byte	0x2
 1717 058b 5001     		.2byte	0x150
 1718 058d 88000000 		.4byte	0x88
 1719 0591 17       		.byte	0x17
 1720 0592 13       		.uleb128 0x13
 1721 0593 1E090000 		.4byte	.LASF100
 1722 0597 02       		.byte	0x2
 1723 0598 5101     		.2byte	0x151
 1724 059a 3C060000 		.4byte	0x63c
 1725 059e 18       		.byte	0x18
 1726 059f 13       		.uleb128 0x13
 1727 05a0 5E020000 		.4byte	.LASF101
 1728 05a4 02       		.byte	0x2
 1729 05a5 5201     		.2byte	0x152
 1730 05a7 FE030000 		.4byte	0x3fe
ARM GAS  C:\Users\ikomb\AppData\Local\Temp\cchczmzd.s 			page 56


 1731 05ab 19       		.byte	0x19
 1732 05ac 13       		.uleb128 0x13
 1733 05ad D0040000 		.4byte	.LASF102
 1734 05b1 02       		.byte	0x2
 1735 05b2 5301     		.2byte	0x153
 1736 05b4 86040000 		.4byte	0x486
 1737 05b8 1A       		.byte	0x1a
 1738 05b9 13       		.uleb128 0x13
 1739 05ba 2B090000 		.4byte	.LASF103
 1740 05be 02       		.byte	0x2
 1741 05bf 5601     		.2byte	0x156
 1742 05c1 3C060000 		.4byte	0x63c
 1743 05c5 1B       		.byte	0x1b
 1744 05c6 13       		.uleb128 0x13
 1745 05c7 E0080000 		.4byte	.LASF104
 1746 05cb 02       		.byte	0x2
 1747 05cc 5701     		.2byte	0x157
 1748 05ce 93000000 		.4byte	0x93
 1749 05d2 1C       		.byte	0x1c
 1750 05d3 13       		.uleb128 0x13
 1751 05d4 DF040000 		.4byte	.LASF105
 1752 05d8 02       		.byte	0x2
 1753 05d9 5801     		.2byte	0x158
 1754 05db 3C060000 		.4byte	0x63c
 1755 05df 20       		.byte	0x20
 1756 05e0 13       		.uleb128 0x13
 1757 05e1 05020000 		.4byte	.LASF106
 1758 05e5 02       		.byte	0x2
 1759 05e6 6001     		.2byte	0x160
 1760 05e8 3C060000 		.4byte	0x63c
 1761 05ec 21       		.byte	0x21
 1762 05ed 13       		.uleb128 0x13
 1763 05ee 6A040000 		.4byte	.LASF107
 1764 05f2 02       		.byte	0x2
 1765 05f3 6701     		.2byte	0x167
 1766 05f5 3C060000 		.4byte	0x63c
 1767 05f9 22       		.byte	0x22
 1768 05fa 13       		.uleb128 0x13
 1769 05fb 49060000 		.4byte	.LASF108
 1770 05ff 02       		.byte	0x2
 1771 0600 6E01     		.2byte	0x16e
 1772 0602 88000000 		.4byte	0x88
 1773 0606 23       		.byte	0x23
 1774 0607 13       		.uleb128 0x13
 1775 0608 B3020000 		.4byte	.LASF109
 1776 060c 02       		.byte	0x2
 1777 060d 7101     		.2byte	0x171
 1778 060f 3A040000 		.4byte	0x43a
 1779 0613 24       		.byte	0x24
 1780 0614 13       		.uleb128 0x13
 1781 0615 0C080000 		.4byte	.LASF110
 1782 0619 02       		.byte	0x2
 1783 061a 7401     		.2byte	0x174
 1784 061c 3A040000 		.4byte	0x43a
 1785 0620 25       		.byte	0x25
 1786 0621 13       		.uleb128 0x13
 1787 0622 59010000 		.4byte	.LASF111
ARM GAS  C:\Users\ikomb\AppData\Local\Temp\cchczmzd.s 			page 57


 1788 0626 02       		.byte	0x2
 1789 0627 7601     		.2byte	0x176
 1790 0629 3C060000 		.4byte	0x63c
 1791 062d 26       		.byte	0x26
 1792 062e 13       		.uleb128 0x13
 1793 062f 1B000000 		.4byte	.LASF112
 1794 0633 02       		.byte	0x2
 1795 0634 7901     		.2byte	0x179
 1796 0636 88000000 		.4byte	0x88
 1797 063a 27       		.byte	0x27
 1798 063b 00       		.byte	0
 1799 063c 03       		.uleb128 0x3
 1800 063d 01       		.byte	0x1
 1801 063e 02       		.byte	0x2
 1802 063f 70050000 		.4byte	.LASF113
 1803 0643 0E       		.uleb128 0xe
 1804 0644 33010000 		.4byte	.LASF114
 1805 0648 02       		.byte	0x2
 1806 0649 7B01     		.2byte	0x17b
 1807 064b 92040000 		.4byte	0x492
 1808 064f 12       		.uleb128 0x12
 1809 0650 08       		.byte	0x8
 1810 0651 02       		.byte	0x2
 1811 0652 8601     		.2byte	0x186
 1812 0654 73060000 		.4byte	0x673
 1813 0658 13       		.uleb128 0x13
 1814 0659 54070000 		.4byte	.LASF115
 1815 065d 02       		.byte	0x2
 1816 065e 8801     		.2byte	0x188
 1817 0660 93000000 		.4byte	0x93
 1818 0664 00       		.byte	0
 1819 0665 13       		.uleb128 0x13
 1820 0666 C2040000 		.4byte	.LASF116
 1821 066a 02       		.byte	0x2
 1822 066b 8901     		.2byte	0x189
 1823 066d 93000000 		.4byte	0x93
 1824 0671 04       		.byte	0x4
 1825 0672 00       		.byte	0
 1826 0673 0E       		.uleb128 0xe
 1827 0674 0E040000 		.4byte	.LASF117
 1828 0678 02       		.byte	0x2
 1829 0679 8A01     		.2byte	0x18a
 1830 067b 4F060000 		.4byte	0x64f
 1831 067f 17       		.uleb128 0x17
 1832 0680 15060000 		.4byte	.LASF118
 1833 0684 02       		.byte	0x2
 1834 0685 8F02     		.2byte	0x28f
 1835 0687 93000000 		.4byte	0x93
 1836 068b 03       		.byte	0x3
 1837 068c 9D060000 		.4byte	0x69d
 1838 0690 18       		.uleb128 0x18
 1839 0691 64030000 		.4byte	.LASF57
 1840 0695 02       		.byte	0x2
 1841 0696 8F02     		.2byte	0x28f
 1842 0698 9D060000 		.4byte	0x69d
 1843 069c 00       		.byte	0
 1844 069d 15       		.uleb128 0x15
ARM GAS  C:\Users\ikomb\AppData\Local\Temp\cchczmzd.s 			page 58


 1845 069e 04       		.byte	0x4
 1846 069f A3060000 		.4byte	0x6a3
 1847 06a3 06       		.uleb128 0x6
 1848 06a4 CB020000 		.4byte	0x2cb
 1849 06a8 17       		.uleb128 0x17
 1850 06a9 90010000 		.4byte	.LASF119
 1851 06ad 02       		.byte	0x2
 1852 06ae 0704     		.2byte	0x407
 1853 06b0 93000000 		.4byte	0x93
 1854 06b4 03       		.byte	0x3
 1855 06b5 C6060000 		.4byte	0x6c6
 1856 06b9 18       		.uleb128 0x18
 1857 06ba 64030000 		.4byte	.LASF57
 1858 06be 02       		.byte	0x2
 1859 06bf 0704     		.2byte	0x407
 1860 06c1 9D060000 		.4byte	0x69d
 1861 06c5 00       		.byte	0
 1862 06c6 19       		.uleb128 0x19
 1863 06c7 98070000 		.4byte	.LASF120
 1864 06cb 02       		.byte	0x2
 1865 06cc 5002     		.2byte	0x250
 1866 06ce 03       		.byte	0x3
 1867 06cf E0060000 		.4byte	0x6e0
 1868 06d3 18       		.uleb128 0x18
 1869 06d4 64030000 		.4byte	.LASF57
 1870 06d8 02       		.byte	0x2
 1871 06d9 5002     		.2byte	0x250
 1872 06db E0060000 		.4byte	0x6e0
 1873 06df 00       		.byte	0
 1874 06e0 15       		.uleb128 0x15
 1875 06e1 04       		.byte	0x4
 1876 06e2 CB020000 		.4byte	0x2cb
 1877 06e6 19       		.uleb128 0x19
 1878 06e7 23040000 		.4byte	.LASF121
 1879 06eb 02       		.byte	0x2
 1880 06ec 7B02     		.2byte	0x27b
 1881 06ee 03       		.byte	0x3
 1882 06ef 00070000 		.4byte	0x700
 1883 06f3 18       		.uleb128 0x18
 1884 06f4 64030000 		.4byte	.LASF57
 1885 06f8 02       		.byte	0x2
 1886 06f9 7B02     		.2byte	0x27b
 1887 06fb E0060000 		.4byte	0x6e0
 1888 06ff 00       		.byte	0
 1889 0700 19       		.uleb128 0x19
 1890 0701 1A030000 		.4byte	.LASF122
 1891 0705 02       		.byte	0x2
 1892 0706 1B04     		.2byte	0x41b
 1893 0708 03       		.byte	0x3
 1894 0709 26070000 		.4byte	0x726
 1895 070d 18       		.uleb128 0x18
 1896 070e 64030000 		.4byte	.LASF57
 1897 0712 02       		.byte	0x2
 1898 0713 1B04     		.2byte	0x41b
 1899 0715 E0060000 		.4byte	0x6e0
 1900 0719 18       		.uleb128 0x18
 1901 071a BB010000 		.4byte	.LASF123
ARM GAS  C:\Users\ikomb\AppData\Local\Temp\cchczmzd.s 			page 59


 1902 071e 02       		.byte	0x2
 1903 071f 1B04     		.2byte	0x41b
 1904 0721 93000000 		.4byte	0x93
 1905 0725 00       		.byte	0
 1906 0726 19       		.uleb128 0x19
 1907 0727 60050000 		.4byte	.LASF124
 1908 072b 02       		.byte	0x2
 1909 072c 6602     		.2byte	0x266
 1910 072e 03       		.byte	0x3
 1911 072f 40070000 		.4byte	0x740
 1912 0733 18       		.uleb128 0x18
 1913 0734 64030000 		.4byte	.LASF57
 1914 0738 02       		.byte	0x2
 1915 0739 6602     		.2byte	0x266
 1916 073b E0060000 		.4byte	0x6e0
 1917 073f 00       		.byte	0
 1918 0740 19       		.uleb128 0x19
 1919 0741 76010000 		.4byte	.LASF125
 1920 0745 02       		.byte	0x2
 1921 0746 2903     		.2byte	0x329
 1922 0748 03       		.byte	0x3
 1923 0749 5A070000 		.4byte	0x75a
 1924 074d 18       		.uleb128 0x18
 1925 074e 64030000 		.4byte	.LASF57
 1926 0752 02       		.byte	0x2
 1927 0753 2903     		.2byte	0x329
 1928 0755 E0060000 		.4byte	0x6e0
 1929 0759 00       		.byte	0
 1930 075a 19       		.uleb128 0x19
 1931 075b 9B030000 		.4byte	.LASF126
 1932 075f 02       		.byte	0x2
 1933 0760 CB02     		.2byte	0x2cb
 1934 0762 03       		.byte	0x3
 1935 0763 80070000 		.4byte	0x780
 1936 0767 18       		.uleb128 0x18
 1937 0768 64030000 		.4byte	.LASF57
 1938 076c 02       		.byte	0x2
 1939 076d CB02     		.2byte	0x2cb
 1940 076f E0060000 		.4byte	0x6e0
 1941 0773 18       		.uleb128 0x18
 1942 0774 DD020000 		.4byte	.LASF127
 1943 0778 02       		.byte	0x2
 1944 0779 CB02     		.2byte	0x2cb
 1945 077b 93000000 		.4byte	0x93
 1946 077f 00       		.byte	0
 1947 0780 19       		.uleb128 0x19
 1948 0781 60070000 		.4byte	.LASF128
 1949 0785 02       		.byte	0x2
 1950 0786 A102     		.2byte	0x2a1
 1951 0788 03       		.byte	0x3
 1952 0789 9A070000 		.4byte	0x79a
 1953 078d 18       		.uleb128 0x18
 1954 078e 64030000 		.4byte	.LASF57
 1955 0792 02       		.byte	0x2
 1956 0793 A102     		.2byte	0x2a1
 1957 0795 E0060000 		.4byte	0x6e0
 1958 0799 00       		.byte	0
ARM GAS  C:\Users\ikomb\AppData\Local\Temp\cchczmzd.s 			page 60


 1959 079a 19       		.uleb128 0x19
 1960 079b B7050000 		.4byte	.LASF129
 1961 079f 02       		.byte	0x2
 1962 07a0 2902     		.2byte	0x229
 1963 07a2 03       		.byte	0x3
 1964 07a3 B4070000 		.4byte	0x7b4
 1965 07a7 18       		.uleb128 0x18
 1966 07a8 64030000 		.4byte	.LASF57
 1967 07ac 02       		.byte	0x2
 1968 07ad 2902     		.2byte	0x229
 1969 07af E0060000 		.4byte	0x6e0
 1970 07b3 00       		.byte	0
 1971 07b4 19       		.uleb128 0x19
 1972 07b5 5D080000 		.4byte	.LASF130
 1973 07b9 02       		.byte	0x2
 1974 07ba 1702     		.2byte	0x217
 1975 07bc 03       		.byte	0x3
 1976 07bd CE070000 		.4byte	0x7ce
 1977 07c1 18       		.uleb128 0x18
 1978 07c2 64030000 		.4byte	.LASF57
 1979 07c6 02       		.byte	0x2
 1980 07c7 1702     		.2byte	0x217
 1981 07c9 E0060000 		.4byte	0x6e0
 1982 07cd 00       		.byte	0
 1983 07ce 19       		.uleb128 0x19
 1984 07cf 4A050000 		.4byte	.LASF131
 1985 07d3 02       		.byte	0x2
 1986 07d4 DC03     		.2byte	0x3dc
 1987 07d6 03       		.byte	0x3
 1988 07d7 F4070000 		.4byte	0x7f4
 1989 07db 18       		.uleb128 0x18
 1990 07dc 64030000 		.4byte	.LASF57
 1991 07e0 02       		.byte	0x2
 1992 07e1 DC03     		.2byte	0x3dc
 1993 07e3 E0060000 		.4byte	0x6e0
 1994 07e7 18       		.uleb128 0x18
 1995 07e8 BB010000 		.4byte	.LASF123
 1996 07ec 02       		.byte	0x2
 1997 07ed DC03     		.2byte	0x3dc
 1998 07ef 93000000 		.4byte	0x93
 1999 07f3 00       		.byte	0
 2000 07f4 1A       		.uleb128 0x1a
 2001 07f5 62000000 		.4byte	.LASF137
 2002 07f9 01       		.byte	0x1
 2003 07fa 29       		.byte	0x29
 2004 07fb CE030000 		.4byte	0x3ce
 2005 07ff 00000000 		.4byte	.LFB97
 2006 0803 38030000 		.4byte	.LFE97-.LFB97
 2007 0807 01       		.uleb128 0x1
 2008 0808 9C       		.byte	0x9c
 2009 0809 0F0A0000 		.4byte	0xa0f
 2010 080d 1B       		.uleb128 0x1b
 2011 080e 64030000 		.4byte	.LASF57
 2012 0812 01       		.byte	0x1
 2013 0813 29       		.byte	0x29
 2014 0814 E0060000 		.4byte	0x6e0
 2015 0818 00000000 		.4byte	.LLST0
ARM GAS  C:\Users\ikomb\AppData\Local\Temp\cchczmzd.s 			page 61


 2016 081c 1B       		.uleb128 0x1b
 2017 081d 4D070000 		.4byte	.LASF132
 2018 0821 01       		.byte	0x1
 2019 0822 29       		.byte	0x29
 2020 0823 0F0A0000 		.4byte	0xa0f
 2021 0827 58000000 		.4byte	.LLST1
 2022 082b 1C       		.uleb128 0x1c
 2023 082c 72657400 		.ascii	"ret\000"
 2024 0830 01       		.byte	0x1
 2025 0831 2B       		.byte	0x2b
 2026 0832 CE030000 		.4byte	0x3ce
 2027 0836 9A000000 		.4byte	.LLST2
 2028 083a 1D       		.uleb128 0x1d
 2029 083b 00000000 		.4byte	.Ldebug_ranges0+0
 2030 083f 1E       		.uleb128 0x1e
 2031 0840 3C090000 		.4byte	.LASF133
 2032 0844 01       		.byte	0x1
 2033 0845 2F       		.byte	0x2f
 2034 0846 86040000 		.4byte	0x486
 2035 084a BD000000 		.4byte	.LLST3
 2036 084e 1E       		.uleb128 0x1e
 2037 084f 69030000 		.4byte	.LASF134
 2038 0853 01       		.byte	0x1
 2039 0854 30       		.byte	0x30
 2040 0855 3A040000 		.4byte	0x43a
 2041 0859 37010000 		.4byte	.LLST4
 2042 085d 1E       		.uleb128 0x1e
 2043 085e 47010000 		.4byte	.LASF135
 2044 0862 01       		.byte	0x1
 2045 0863 31       		.byte	0x31
 2046 0864 93000000 		.4byte	0x93
 2047 0868 9B010000 		.4byte	.LLST5
 2048 086c 1E       		.uleb128 0x1e
 2049 086d 05090000 		.4byte	.LASF136
 2050 0871 01       		.byte	0x1
 2051 0872 32       		.byte	0x32
 2052 0873 93000000 		.4byte	0x93
 2053 0877 15020000 		.4byte	.LLST6
 2054 087b 1F       		.uleb128 0x1f
 2055 087c 26000000 		.4byte	.LVL5
 2056 0880 C10C0000 		.4byte	0xcc1
 2057 0884 98080000 		.4byte	0x898
 2058 0888 20       		.uleb128 0x20
 2059 0889 01       		.uleb128 0x1
 2060 088a 50       		.byte	0x50
 2061 088b 05       		.uleb128 0x5
 2062 088c 03       		.byte	0x3
 2063 088d 00000000 		.4byte	.LC0
 2064 0891 20       		.uleb128 0x20
 2065 0892 01       		.uleb128 0x1
 2066 0893 51       		.byte	0x51
 2067 0894 02       		.uleb128 0x2
 2068 0895 08       		.byte	0x8
 2069 0896 34       		.byte	0x34
 2070 0897 00       		.byte	0
 2071 0898 1F       		.uleb128 0x1f
 2072 0899 52000000 		.4byte	.LVL7
ARM GAS  C:\Users\ikomb\AppData\Local\Temp\cchczmzd.s 			page 62


 2073 089d C10C0000 		.4byte	0xcc1
 2074 08a1 B5080000 		.4byte	0x8b5
 2075 08a5 20       		.uleb128 0x20
 2076 08a6 01       		.uleb128 0x1
 2077 08a7 50       		.byte	0x50
 2078 08a8 05       		.uleb128 0x5
 2079 08a9 03       		.byte	0x3
 2080 08aa 00000000 		.4byte	.LC0
 2081 08ae 20       		.uleb128 0x20
 2082 08af 01       		.uleb128 0x1
 2083 08b0 51       		.byte	0x51
 2084 08b1 02       		.uleb128 0x2
 2085 08b2 08       		.byte	0x8
 2086 08b3 3D       		.byte	0x3d
 2087 08b4 00       		.byte	0
 2088 08b5 1F       		.uleb128 0x1f
 2089 08b6 60000000 		.4byte	.LVL8
 2090 08ba C10C0000 		.4byte	0xcc1
 2091 08be D2080000 		.4byte	0x8d2
 2092 08c2 20       		.uleb128 0x20
 2093 08c3 01       		.uleb128 0x1
 2094 08c4 50       		.byte	0x50
 2095 08c5 05       		.uleb128 0x5
 2096 08c6 03       		.byte	0x3
 2097 08c7 00000000 		.4byte	.LC0
 2098 08cb 20       		.uleb128 0x20
 2099 08cc 01       		.uleb128 0x1
 2100 08cd 51       		.byte	0x51
 2101 08ce 02       		.uleb128 0x2
 2102 08cf 08       		.byte	0x8
 2103 08d0 3E       		.byte	0x3e
 2104 08d1 00       		.byte	0
 2105 08d2 1F       		.uleb128 0x1f
 2106 08d3 7E000000 		.4byte	.LVL11
 2107 08d7 C10C0000 		.4byte	0xcc1
 2108 08db EF080000 		.4byte	0x8ef
 2109 08df 20       		.uleb128 0x20
 2110 08e0 01       		.uleb128 0x1
 2111 08e1 50       		.byte	0x50
 2112 08e2 05       		.uleb128 0x5
 2113 08e3 03       		.byte	0x3
 2114 08e4 00000000 		.4byte	.LC0
 2115 08e8 20       		.uleb128 0x20
 2116 08e9 01       		.uleb128 0x1
 2117 08ea 51       		.byte	0x51
 2118 08eb 02       		.uleb128 0x2
 2119 08ec 08       		.byte	0x8
 2120 08ed 46       		.byte	0x46
 2121 08ee 00       		.byte	0
 2122 08ef 1F       		.uleb128 0x1f
 2123 08f0 8C000000 		.4byte	.LVL12
 2124 08f4 C10C0000 		.4byte	0xcc1
 2125 08f8 0C090000 		.4byte	0x90c
 2126 08fc 20       		.uleb128 0x20
 2127 08fd 01       		.uleb128 0x1
 2128 08fe 50       		.byte	0x50
 2129 08ff 05       		.uleb128 0x5
ARM GAS  C:\Users\ikomb\AppData\Local\Temp\cchczmzd.s 			page 63


 2130 0900 03       		.byte	0x3
 2131 0901 00000000 		.4byte	.LC0
 2132 0905 20       		.uleb128 0x20
 2133 0906 01       		.uleb128 0x1
 2134 0907 51       		.byte	0x51
 2135 0908 02       		.uleb128 0x2
 2136 0909 08       		.byte	0x8
 2137 090a 47       		.byte	0x47
 2138 090b 00       		.byte	0
 2139 090c 1F       		.uleb128 0x1f
 2140 090d 9A000000 		.4byte	.LVL13
 2141 0911 C10C0000 		.4byte	0xcc1
 2142 0915 29090000 		.4byte	0x929
 2143 0919 20       		.uleb128 0x20
 2144 091a 01       		.uleb128 0x1
 2145 091b 50       		.byte	0x50
 2146 091c 05       		.uleb128 0x5
 2147 091d 03       		.byte	0x3
 2148 091e 00000000 		.4byte	.LC0
 2149 0922 20       		.uleb128 0x20
 2150 0923 01       		.uleb128 0x1
 2151 0924 51       		.byte	0x51
 2152 0925 02       		.uleb128 0x2
 2153 0926 08       		.byte	0x8
 2154 0927 48       		.byte	0x48
 2155 0928 00       		.byte	0
 2156 0929 1F       		.uleb128 0x1f
 2157 092a B6000000 		.4byte	.LVL16
 2158 092e C10C0000 		.4byte	0xcc1
 2159 0932 46090000 		.4byte	0x946
 2160 0936 20       		.uleb128 0x20
 2161 0937 01       		.uleb128 0x1
 2162 0938 50       		.byte	0x50
 2163 0939 05       		.uleb128 0x5
 2164 093a 03       		.byte	0x3
 2165 093b 00000000 		.4byte	.LC0
 2166 093f 20       		.uleb128 0x20
 2167 0940 01       		.uleb128 0x1
 2168 0941 51       		.byte	0x51
 2169 0942 02       		.uleb128 0x2
 2170 0943 08       		.byte	0x8
 2171 0944 50       		.byte	0x50
 2172 0945 00       		.byte	0
 2173 0946 1F       		.uleb128 0x1f
 2174 0947 DA000000 		.4byte	.LVL20
 2175 094b C10C0000 		.4byte	0xcc1
 2176 094f 63090000 		.4byte	0x963
 2177 0953 20       		.uleb128 0x20
 2178 0954 01       		.uleb128 0x1
 2179 0955 50       		.byte	0x50
 2180 0956 05       		.uleb128 0x5
 2181 0957 03       		.byte	0x3
 2182 0958 00000000 		.4byte	.LC0
 2183 095c 20       		.uleb128 0x20
 2184 095d 01       		.uleb128 0x1
 2185 095e 51       		.byte	0x51
 2186 095f 02       		.uleb128 0x2
ARM GAS  C:\Users\ikomb\AppData\Local\Temp\cchczmzd.s 			page 64


 2187 0960 08       		.byte	0x8
 2188 0961 53       		.byte	0x53
 2189 0962 00       		.byte	0
 2190 0963 1F       		.uleb128 0x1f
 2191 0964 8E010000 		.4byte	.LVL24
 2192 0968 C10C0000 		.4byte	0xcc1
 2193 096c 80090000 		.4byte	0x980
 2194 0970 20       		.uleb128 0x20
 2195 0971 01       		.uleb128 0x1
 2196 0972 50       		.byte	0x50
 2197 0973 05       		.uleb128 0x5
 2198 0974 03       		.byte	0x3
 2199 0975 00000000 		.4byte	.LC0
 2200 0979 20       		.uleb128 0x20
 2201 097a 01       		.uleb128 0x1
 2202 097b 51       		.byte	0x51
 2203 097c 02       		.uleb128 0x2
 2204 097d 08       		.byte	0x8
 2205 097e 67       		.byte	0x67
 2206 097f 00       		.byte	0
 2207 0980 1F       		.uleb128 0x1f
 2208 0981 AE010000 		.4byte	.LVL27
 2209 0985 C10C0000 		.4byte	0xcc1
 2210 0989 9D090000 		.4byte	0x99d
 2211 098d 20       		.uleb128 0x20
 2212 098e 01       		.uleb128 0x1
 2213 098f 50       		.byte	0x50
 2214 0990 05       		.uleb128 0x5
 2215 0991 03       		.byte	0x3
 2216 0992 00000000 		.4byte	.LC0
 2217 0996 20       		.uleb128 0x20
 2218 0997 01       		.uleb128 0x1
 2219 0998 51       		.byte	0x51
 2220 0999 02       		.uleb128 0x2
 2221 099a 08       		.byte	0x8
 2222 099b 6F       		.byte	0x6f
 2223 099c 00       		.byte	0
 2224 099d 1F       		.uleb128 0x1f
 2225 099e BC010000 		.4byte	.LVL28
 2226 09a2 C10C0000 		.4byte	0xcc1
 2227 09a6 BA090000 		.4byte	0x9ba
 2228 09aa 20       		.uleb128 0x20
 2229 09ab 01       		.uleb128 0x1
 2230 09ac 50       		.byte	0x50
 2231 09ad 05       		.uleb128 0x5
 2232 09ae 03       		.byte	0x3
 2233 09af 00000000 		.4byte	.LC0
 2234 09b3 20       		.uleb128 0x20
 2235 09b4 01       		.uleb128 0x1
 2236 09b5 51       		.byte	0x51
 2237 09b6 02       		.uleb128 0x2
 2238 09b7 08       		.byte	0x8
 2239 09b8 70       		.byte	0x70
 2240 09b9 00       		.byte	0
 2241 09ba 1F       		.uleb128 0x1f
 2242 09bb CC010000 		.4byte	.LVL29
 2243 09bf C10C0000 		.4byte	0xcc1
ARM GAS  C:\Users\ikomb\AppData\Local\Temp\cchczmzd.s 			page 65


 2244 09c3 D7090000 		.4byte	0x9d7
 2245 09c7 20       		.uleb128 0x20
 2246 09c8 01       		.uleb128 0x1
 2247 09c9 50       		.byte	0x50
 2248 09ca 05       		.uleb128 0x5
 2249 09cb 03       		.byte	0x3
 2250 09cc 00000000 		.4byte	.LC0
 2251 09d0 20       		.uleb128 0x20
 2252 09d1 01       		.uleb128 0x1
 2253 09d2 51       		.byte	0x51
 2254 09d3 02       		.uleb128 0x2
 2255 09d4 08       		.byte	0x8
 2256 09d5 71       		.byte	0x71
 2257 09d6 00       		.byte	0
 2258 09d7 1F       		.uleb128 0x1f
 2259 09d8 EC010000 		.4byte	.LVL32
 2260 09dc C10C0000 		.4byte	0xcc1
 2261 09e0 F4090000 		.4byte	0x9f4
 2262 09e4 20       		.uleb128 0x20
 2263 09e5 01       		.uleb128 0x1
 2264 09e6 50       		.byte	0x50
 2265 09e7 05       		.uleb128 0x5
 2266 09e8 03       		.byte	0x3
 2267 09e9 00000000 		.4byte	.LC0
 2268 09ed 20       		.uleb128 0x20
 2269 09ee 01       		.uleb128 0x1
 2270 09ef 51       		.byte	0x51
 2271 09f0 02       		.uleb128 0x2
 2272 09f1 08       		.byte	0x8
 2273 09f2 79       		.byte	0x79
 2274 09f3 00       		.byte	0
 2275 09f4 21       		.uleb128 0x21
 2276 09f5 12020000 		.4byte	.LVL36
 2277 09f9 C10C0000 		.4byte	0xcc1
 2278 09fd 20       		.uleb128 0x20
 2279 09fe 01       		.uleb128 0x1
 2280 09ff 50       		.byte	0x50
 2281 0a00 05       		.uleb128 0x5
 2282 0a01 03       		.byte	0x3
 2283 0a02 00000000 		.4byte	.LC0
 2284 0a06 20       		.uleb128 0x20
 2285 0a07 01       		.uleb128 0x1
 2286 0a08 51       		.byte	0x51
 2287 0a09 02       		.uleb128 0x2
 2288 0a0a 08       		.byte	0x8
 2289 0a0b 7C       		.byte	0x7c
 2290 0a0c 00       		.byte	0
 2291 0a0d 00       		.byte	0
 2292 0a0e 00       		.byte	0
 2293 0a0f 15       		.uleb128 0x15
 2294 0a10 04       		.byte	0x4
 2295 0a11 150A0000 		.4byte	0xa15
 2296 0a15 06       		.uleb128 0x6
 2297 0a16 43060000 		.4byte	0x643
 2298 0a1a 22       		.uleb128 0x22
 2299 0a1b 73070000 		.4byte	.LASF146
 2300 0a1f 01       		.byte	0x1
ARM GAS  C:\Users\ikomb\AppData\Local\Temp\cchczmzd.s 			page 66


 2301 0a20 BA       		.byte	0xba
 2302 0a21 00000000 		.4byte	.LFB98
 2303 0a25 38000000 		.4byte	.LFE98-.LFB98
 2304 0a29 01       		.uleb128 0x1
 2305 0a2a 9C       		.byte	0x9c
 2306 0a2b 3D0A0000 		.4byte	0xa3d
 2307 0a2f 23       		.uleb128 0x23
 2308 0a30 64030000 		.4byte	.LASF57
 2309 0a34 01       		.byte	0x1
 2310 0a35 BA       		.byte	0xba
 2311 0a36 E0060000 		.4byte	0x6e0
 2312 0a3a 01       		.uleb128 0x1
 2313 0a3b 50       		.byte	0x50
 2314 0a3c 00       		.byte	0
 2315 0a3d 1A       		.uleb128 0x1a
 2316 0a3e D3050000 		.4byte	.LASF138
 2317 0a42 01       		.byte	0x1
 2318 0a43 E1       		.byte	0xe1
 2319 0a44 2F030000 		.4byte	0x32f
 2320 0a48 00000000 		.4byte	.LFB99
 2321 0a4c 20010000 		.4byte	.LFE99-.LFB99
 2322 0a50 01       		.uleb128 0x1
 2323 0a51 9C       		.byte	0x9c
 2324 0a52 BB0C0000 		.4byte	0xcbb
 2325 0a56 1B       		.uleb128 0x1b
 2326 0a57 32030000 		.4byte	.LASF139
 2327 0a5b 01       		.byte	0x1
 2328 0a5c E1       		.byte	0xe1
 2329 0a5d AC030000 		.4byte	0x3ac
 2330 0a61 28020000 		.4byte	.LLST7
 2331 0a65 1C       		.uleb128 0x1c
 2332 0a66 72657400 		.ascii	"ret\000"
 2333 0a6a 01       		.byte	0x1
 2334 0a6b E3       		.byte	0xe3
 2335 0a6c 2F030000 		.4byte	0x32f
 2336 0a70 6D020000 		.4byte	.LLST8
 2337 0a74 1E       		.uleb128 0x1e
 2338 0a75 84000000 		.4byte	.LASF140
 2339 0a79 01       		.byte	0x1
 2340 0a7a E5       		.byte	0xe5
 2341 0a7b E0060000 		.4byte	0x6e0
 2342 0a7f 8C020000 		.4byte	.LLST9
 2343 0a83 1E       		.uleb128 0x1e
 2344 0a84 0A000000 		.4byte	.LASF141
 2345 0a88 01       		.byte	0x1
 2346 0a89 E6       		.byte	0xe6
 2347 0a8a BB0C0000 		.4byte	0xcbb
 2348 0a8e 9F020000 		.4byte	.LLST10
 2349 0a92 1E       		.uleb128 0x1e
 2350 0a93 52000000 		.4byte	.LASF142
 2351 0a97 01       		.byte	0x1
 2352 0a98 E7       		.byte	0xe7
 2353 0a99 BB0C0000 		.4byte	0xcbb
 2354 0a9d B4020000 		.4byte	.LLST11
 2355 0aa1 24       		.uleb128 0x24
 2356 0aa2 A8060000 		.4byte	0x6a8
 2357 0aa6 32000000 		.4byte	.LBB32
ARM GAS  C:\Users\ikomb\AppData\Local\Temp\cchczmzd.s 			page 67


 2358 0aaa 04000000 		.4byte	.LBE32-.LBB32
 2359 0aae 01       		.byte	0x1
 2360 0aaf F0       		.byte	0xf0
 2361 0ab0 BE0A0000 		.4byte	0xabe
 2362 0ab4 25       		.uleb128 0x25
 2363 0ab5 B9060000 		.4byte	0x6b9
 2364 0ab9 C7020000 		.4byte	.LLST12
 2365 0abd 00       		.byte	0
 2366 0abe 24       		.uleb128 0x24
 2367 0abf 7F060000 		.4byte	0x67f
 2368 0ac3 38000000 		.4byte	.LBB34
 2369 0ac7 06000000 		.4byte	.LBE34-.LBB34
 2370 0acb 01       		.byte	0x1
 2371 0acc F1       		.byte	0xf1
 2372 0acd DB0A0000 		.4byte	0xadb
 2373 0ad1 25       		.uleb128 0x25
 2374 0ad2 90060000 		.4byte	0x690
 2375 0ad6 DA020000 		.4byte	.LLST13
 2376 0ada 00       		.byte	0
 2377 0adb 24       		.uleb128 0x24
 2378 0adc C6060000 		.4byte	0x6c6
 2379 0ae0 44000000 		.4byte	.LBB36
 2380 0ae4 08000000 		.4byte	.LBE36-.LBB36
 2381 0ae8 01       		.byte	0x1
 2382 0ae9 F4       		.byte	0xf4
 2383 0aea F80A0000 		.4byte	0xaf8
 2384 0aee 25       		.uleb128 0x25
 2385 0aef D3060000 		.4byte	0x6d3
 2386 0af3 ED020000 		.4byte	.LLST14
 2387 0af7 00       		.byte	0
 2388 0af8 24       		.uleb128 0x24
 2389 0af9 E6060000 		.4byte	0x6e6
 2390 0afd 52000000 		.4byte	.LBB38
 2391 0b01 08000000 		.4byte	.LBE38-.LBB38
 2392 0b05 01       		.byte	0x1
 2393 0b06 F8       		.byte	0xf8
 2394 0b07 150B0000 		.4byte	0xb15
 2395 0b0b 25       		.uleb128 0x25
 2396 0b0c F3060000 		.4byte	0x6f3
 2397 0b10 00030000 		.4byte	.LLST15
 2398 0b14 00       		.byte	0
 2399 0b15 24       		.uleb128 0x24
 2400 0b16 00070000 		.4byte	0x700
 2401 0b1a 5A000000 		.4byte	.LBB40
 2402 0b1e 06000000 		.4byte	.LBE40-.LBB40
 2403 0b22 01       		.byte	0x1
 2404 0b23 FA       		.byte	0xfa
 2405 0b24 3B0B0000 		.4byte	0xb3b
 2406 0b28 25       		.uleb128 0x25
 2407 0b29 19070000 		.4byte	0x719
 2408 0b2d 13030000 		.4byte	.LLST16
 2409 0b31 25       		.uleb128 0x25
 2410 0b32 0D070000 		.4byte	0x70d
 2411 0b36 27030000 		.4byte	.LLST17
 2412 0b3a 00       		.byte	0
 2413 0b3b 26       		.uleb128 0x26
 2414 0b3c 40070000 		.4byte	0x740
ARM GAS  C:\Users\ikomb\AppData\Local\Temp\cchczmzd.s 			page 68


 2415 0b40 6A000000 		.4byte	.LBB42
 2416 0b44 18000000 		.4byte	.LBE42-.LBB42
 2417 0b48 01       		.byte	0x1
 2418 0b49 0101     		.2byte	0x101
 2419 0b4b 590B0000 		.4byte	0xb59
 2420 0b4f 25       		.uleb128 0x25
 2421 0b50 4D070000 		.4byte	0x74d
 2422 0b54 3A030000 		.4byte	.LLST18
 2423 0b58 00       		.byte	0
 2424 0b59 26       		.uleb128 0x26
 2425 0b5a 26070000 		.4byte	0x726
 2426 0b5e 82000000 		.4byte	.LBB44
 2427 0b62 06000000 		.4byte	.LBE44-.LBB44
 2428 0b66 01       		.byte	0x1
 2429 0b67 0201     		.2byte	0x102
 2430 0b69 770B0000 		.4byte	0xb77
 2431 0b6d 25       		.uleb128 0x25
 2432 0b6e 33070000 		.4byte	0x733
 2433 0b72 4D030000 		.4byte	.LLST19
 2434 0b76 00       		.byte	0
 2435 0b77 26       		.uleb128 0x26
 2436 0b78 80070000 		.4byte	0x780
 2437 0b7c 8E000000 		.4byte	.LBB46
 2438 0b80 18000000 		.4byte	.LBE46-.LBB46
 2439 0b84 01       		.byte	0x1
 2440 0b85 0601     		.2byte	0x106
 2441 0b87 950B0000 		.4byte	0xb95
 2442 0b8b 25       		.uleb128 0x25
 2443 0b8c 8D070000 		.4byte	0x78d
 2444 0b90 60030000 		.4byte	.LLST20
 2445 0b94 00       		.byte	0
 2446 0b95 26       		.uleb128 0x26
 2447 0b96 5A070000 		.4byte	0x75a
 2448 0b9a A6000000 		.4byte	.LBB48
 2449 0b9e 08000000 		.4byte	.LBE48-.LBB48
 2450 0ba2 01       		.byte	0x1
 2451 0ba3 0701     		.2byte	0x107
 2452 0ba5 BC0B0000 		.4byte	0xbbc
 2453 0ba9 25       		.uleb128 0x25
 2454 0baa 73070000 		.4byte	0x773
 2455 0bae 73030000 		.4byte	.LLST21
 2456 0bb2 25       		.uleb128 0x25
 2457 0bb3 67070000 		.4byte	0x767
 2458 0bb7 87030000 		.4byte	.LLST22
 2459 0bbb 00       		.byte	0
 2460 0bbc 26       		.uleb128 0x26
 2461 0bbd 5A070000 		.4byte	0x75a
 2462 0bc1 AE000000 		.4byte	.LBB50
 2463 0bc5 02000000 		.4byte	.LBE50-.LBB50
 2464 0bc9 01       		.byte	0x1
 2465 0bca 0801     		.2byte	0x108
 2466 0bcc E30B0000 		.4byte	0xbe3
 2467 0bd0 25       		.uleb128 0x25
 2468 0bd1 73070000 		.4byte	0x773
 2469 0bd5 9A030000 		.4byte	.LLST23
 2470 0bd9 25       		.uleb128 0x25
 2471 0bda 67070000 		.4byte	0x767
ARM GAS  C:\Users\ikomb\AppData\Local\Temp\cchczmzd.s 			page 69


 2472 0bde AE030000 		.4byte	.LLST24
 2473 0be2 00       		.byte	0
 2474 0be3 26       		.uleb128 0x26
 2475 0be4 9A070000 		.4byte	0x79a
 2476 0be8 B6000000 		.4byte	.LBB52
 2477 0bec 0A000000 		.4byte	.LBE52-.LBB52
 2478 0bf0 01       		.byte	0x1
 2479 0bf1 0B01     		.2byte	0x10b
 2480 0bf3 010C0000 		.4byte	0xc01
 2481 0bf7 25       		.uleb128 0x25
 2482 0bf8 A7070000 		.4byte	0x7a7
 2483 0bfc C1030000 		.4byte	.LLST25
 2484 0c00 00       		.byte	0
 2485 0c01 26       		.uleb128 0x26
 2486 0c02 B4070000 		.4byte	0x7b4
 2487 0c06 C0000000 		.4byte	.LBB54
 2488 0c0a 08000000 		.4byte	.LBE54-.LBB54
 2489 0c0e 01       		.byte	0x1
 2490 0c0f 0D01     		.2byte	0x10d
 2491 0c11 1F0C0000 		.4byte	0xc1f
 2492 0c15 25       		.uleb128 0x25
 2493 0c16 C1070000 		.4byte	0x7c1
 2494 0c1a D4030000 		.4byte	.LLST26
 2495 0c1e 00       		.byte	0
 2496 0c1f 26       		.uleb128 0x26
 2497 0c20 CE070000 		.4byte	0x7ce
 2498 0c24 CA000000 		.4byte	.LBB56
 2499 0c28 16000000 		.4byte	.LBE56-.LBB56
 2500 0c2c 01       		.byte	0x1
 2501 0c2d 0F01     		.2byte	0x10f
 2502 0c2f 600C0000 		.4byte	0xc60
 2503 0c33 25       		.uleb128 0x25
 2504 0c34 E7070000 		.4byte	0x7e7
 2505 0c38 E7030000 		.4byte	.LLST27
 2506 0c3c 25       		.uleb128 0x25
 2507 0c3d DB070000 		.4byte	0x7db
 2508 0c41 FA030000 		.4byte	.LLST28
 2509 0c45 21       		.uleb128 0x21
 2510 0c46 D8000000 		.4byte	.LVL75
 2511 0c4a C10C0000 		.4byte	0xcc1
 2512 0c4e 20       		.uleb128 0x20
 2513 0c4f 01       		.uleb128 0x1
 2514 0c50 50       		.byte	0x50
 2515 0c51 05       		.uleb128 0x5
 2516 0c52 03       		.byte	0x3
 2517 0c53 3C000000 		.4byte	.LC3
 2518 0c57 20       		.uleb128 0x20
 2519 0c58 01       		.uleb128 0x1
 2520 0c59 51       		.byte	0x51
 2521 0c5a 03       		.uleb128 0x3
 2522 0c5b 0A       		.byte	0xa
 2523 0c5c DE03     		.2byte	0x3de
 2524 0c5e 00       		.byte	0
 2525 0c5f 00       		.byte	0
 2526 0c60 26       		.uleb128 0x26
 2527 0c61 00070000 		.4byte	0x700
 2528 0c65 E2000000 		.4byte	.LBB58
ARM GAS  C:\Users\ikomb\AppData\Local\Temp\cchczmzd.s 			page 70


 2529 0c69 12000000 		.4byte	.LBE58-.LBB58
 2530 0c6d 01       		.byte	0x1
 2531 0c6e 1001     		.2byte	0x110
 2532 0c70 A10C0000 		.4byte	0xca1
 2533 0c74 25       		.uleb128 0x25
 2534 0c75 19070000 		.4byte	0x719
 2535 0c79 0D040000 		.4byte	.LLST29
 2536 0c7d 25       		.uleb128 0x25
 2537 0c7e 0D070000 		.4byte	0x70d
 2538 0c82 20040000 		.4byte	.LLST30
 2539 0c86 21       		.uleb128 0x21
 2540 0c87 F0000000 		.4byte	.LVL78
 2541 0c8b C10C0000 		.4byte	0xcc1
 2542 0c8f 20       		.uleb128 0x20
 2543 0c90 01       		.uleb128 0x1
 2544 0c91 50       		.byte	0x50
 2545 0c92 05       		.uleb128 0x5
 2546 0c93 03       		.byte	0x3
 2547 0c94 3C000000 		.4byte	.LC3
 2548 0c98 20       		.uleb128 0x20
 2549 0c99 01       		.uleb128 0x1
 2550 0c9a 51       		.byte	0x51
 2551 0c9b 03       		.uleb128 0x3
 2552 0c9c 0A       		.byte	0xa
 2553 0c9d 1D04     		.2byte	0x41d
 2554 0c9f 00       		.byte	0
 2555 0ca0 00       		.byte	0
 2556 0ca1 21       		.uleb128 0x21
 2557 0ca2 12000000 		.4byte	.LVL52
 2558 0ca6 C10C0000 		.4byte	0xcc1
 2559 0caa 20       		.uleb128 0x20
 2560 0cab 01       		.uleb128 0x1
 2561 0cac 50       		.byte	0x50
 2562 0cad 05       		.uleb128 0x5
 2563 0cae 03       		.byte	0x3
 2564 0caf 00000000 		.4byte	.LC0
 2565 0cb3 20       		.uleb128 0x20
 2566 0cb4 01       		.uleb128 0x1
 2567 0cb5 51       		.byte	0x51
 2568 0cb6 02       		.uleb128 0x2
 2569 0cb7 08       		.byte	0x8
 2570 0cb8 E4       		.byte	0xe4
 2571 0cb9 00       		.byte	0
 2572 0cba 00       		.byte	0
 2573 0cbb 15       		.uleb128 0x15
 2574 0cbc 04       		.byte	0x4
 2575 0cbd 93000000 		.4byte	0x93
 2576 0cc1 27       		.uleb128 0x27
 2577 0cc2 DF070000 		.4byte	.LASF147
 2578 0cc6 DF070000 		.4byte	.LASF147
 2579 0cca 06       		.byte	0x6
 2580 0ccb 2A03     		.2byte	0x32a
 2581 0ccd 00       		.byte	0
 2582              		.section	.debug_abbrev,"",%progbits
 2583              	.Ldebug_abbrev0:
 2584 0000 01       		.uleb128 0x1
 2585 0001 11       		.uleb128 0x11
ARM GAS  C:\Users\ikomb\AppData\Local\Temp\cchczmzd.s 			page 71


 2586 0002 01       		.byte	0x1
 2587 0003 25       		.uleb128 0x25
 2588 0004 0E       		.uleb128 0xe
 2589 0005 13       		.uleb128 0x13
 2590 0006 0B       		.uleb128 0xb
 2591 0007 03       		.uleb128 0x3
 2592 0008 0E       		.uleb128 0xe
 2593 0009 1B       		.uleb128 0x1b
 2594 000a 0E       		.uleb128 0xe
 2595 000b 55       		.uleb128 0x55
 2596 000c 17       		.uleb128 0x17
 2597 000d 11       		.uleb128 0x11
 2598 000e 01       		.uleb128 0x1
 2599 000f 10       		.uleb128 0x10
 2600 0010 17       		.uleb128 0x17
 2601 0011 00       		.byte	0
 2602 0012 00       		.byte	0
 2603 0013 02       		.uleb128 0x2
 2604 0014 24       		.uleb128 0x24
 2605 0015 00       		.byte	0
 2606 0016 0B       		.uleb128 0xb
 2607 0017 0B       		.uleb128 0xb
 2608 0018 3E       		.uleb128 0x3e
 2609 0019 0B       		.uleb128 0xb
 2610 001a 03       		.uleb128 0x3
 2611 001b 08       		.uleb128 0x8
 2612 001c 00       		.byte	0
 2613 001d 00       		.byte	0
 2614 001e 03       		.uleb128 0x3
 2615 001f 24       		.uleb128 0x24
 2616 0020 00       		.byte	0
 2617 0021 0B       		.uleb128 0xb
 2618 0022 0B       		.uleb128 0xb
 2619 0023 3E       		.uleb128 0x3e
 2620 0024 0B       		.uleb128 0xb
 2621 0025 03       		.uleb128 0x3
 2622 0026 0E       		.uleb128 0xe
 2623 0027 00       		.byte	0
 2624 0028 00       		.byte	0
 2625 0029 04       		.uleb128 0x4
 2626 002a 16       		.uleb128 0x16
 2627 002b 00       		.byte	0
 2628 002c 03       		.uleb128 0x3
 2629 002d 0E       		.uleb128 0xe
 2630 002e 3A       		.uleb128 0x3a
 2631 002f 0B       		.uleb128 0xb
 2632 0030 3B       		.uleb128 0x3b
 2633 0031 0B       		.uleb128 0xb
 2634 0032 49       		.uleb128 0x49
 2635 0033 13       		.uleb128 0x13
 2636 0034 00       		.byte	0
 2637 0035 00       		.byte	0
 2638 0036 05       		.uleb128 0x5
 2639 0037 35       		.uleb128 0x35
 2640 0038 00       		.byte	0
 2641 0039 49       		.uleb128 0x49
 2642 003a 13       		.uleb128 0x13
ARM GAS  C:\Users\ikomb\AppData\Local\Temp\cchczmzd.s 			page 72


 2643 003b 00       		.byte	0
 2644 003c 00       		.byte	0
 2645 003d 06       		.uleb128 0x6
 2646 003e 26       		.uleb128 0x26
 2647 003f 00       		.byte	0
 2648 0040 49       		.uleb128 0x49
 2649 0041 13       		.uleb128 0x13
 2650 0042 00       		.byte	0
 2651 0043 00       		.byte	0
 2652 0044 07       		.uleb128 0x7
 2653 0045 01       		.uleb128 0x1
 2654 0046 01       		.byte	0x1
 2655 0047 49       		.uleb128 0x49
 2656 0048 13       		.uleb128 0x13
 2657 0049 01       		.uleb128 0x1
 2658 004a 13       		.uleb128 0x13
 2659 004b 00       		.byte	0
 2660 004c 00       		.byte	0
 2661 004d 08       		.uleb128 0x8
 2662 004e 21       		.uleb128 0x21
 2663 004f 00       		.byte	0
 2664 0050 49       		.uleb128 0x49
 2665 0051 13       		.uleb128 0x13
 2666 0052 2F       		.uleb128 0x2f
 2667 0053 0B       		.uleb128 0xb
 2668 0054 00       		.byte	0
 2669 0055 00       		.byte	0
 2670 0056 09       		.uleb128 0x9
 2671 0057 13       		.uleb128 0x13
 2672 0058 01       		.byte	0x1
 2673 0059 0B       		.uleb128 0xb
 2674 005a 05       		.uleb128 0x5
 2675 005b 3A       		.uleb128 0x3a
 2676 005c 0B       		.uleb128 0xb
 2677 005d 3B       		.uleb128 0x3b
 2678 005e 0B       		.uleb128 0xb
 2679 005f 01       		.uleb128 0x1
 2680 0060 13       		.uleb128 0x13
 2681 0061 00       		.byte	0
 2682 0062 00       		.byte	0
 2683 0063 0A       		.uleb128 0xa
 2684 0064 0D       		.uleb128 0xd
 2685 0065 00       		.byte	0
 2686 0066 03       		.uleb128 0x3
 2687 0067 08       		.uleb128 0x8
 2688 0068 3A       		.uleb128 0x3a
 2689 0069 0B       		.uleb128 0xb
 2690 006a 3B       		.uleb128 0x3b
 2691 006b 0B       		.uleb128 0xb
 2692 006c 49       		.uleb128 0x49
 2693 006d 13       		.uleb128 0x13
 2694 006e 38       		.uleb128 0x38
 2695 006f 0B       		.uleb128 0xb
 2696 0070 00       		.byte	0
 2697 0071 00       		.byte	0
 2698 0072 0B       		.uleb128 0xb
 2699 0073 0D       		.uleb128 0xd
ARM GAS  C:\Users\ikomb\AppData\Local\Temp\cchczmzd.s 			page 73


 2700 0074 00       		.byte	0
 2701 0075 03       		.uleb128 0x3
 2702 0076 0E       		.uleb128 0xe
 2703 0077 3A       		.uleb128 0x3a
 2704 0078 0B       		.uleb128 0xb
 2705 0079 3B       		.uleb128 0x3b
 2706 007a 0B       		.uleb128 0xb
 2707 007b 49       		.uleb128 0x49
 2708 007c 13       		.uleb128 0x13
 2709 007d 38       		.uleb128 0x38
 2710 007e 0B       		.uleb128 0xb
 2711 007f 00       		.byte	0
 2712 0080 00       		.byte	0
 2713 0081 0C       		.uleb128 0xc
 2714 0082 0D       		.uleb128 0xd
 2715 0083 00       		.byte	0
 2716 0084 03       		.uleb128 0x3
 2717 0085 0E       		.uleb128 0xe
 2718 0086 3A       		.uleb128 0x3a
 2719 0087 0B       		.uleb128 0xb
 2720 0088 3B       		.uleb128 0x3b
 2721 0089 0B       		.uleb128 0xb
 2722 008a 49       		.uleb128 0x49
 2723 008b 13       		.uleb128 0x13
 2724 008c 38       		.uleb128 0x38
 2725 008d 05       		.uleb128 0x5
 2726 008e 00       		.byte	0
 2727 008f 00       		.byte	0
 2728 0090 0D       		.uleb128 0xd
 2729 0091 21       		.uleb128 0x21
 2730 0092 00       		.byte	0
 2731 0093 49       		.uleb128 0x49
 2732 0094 13       		.uleb128 0x13
 2733 0095 2F       		.uleb128 0x2f
 2734 0096 05       		.uleb128 0x5
 2735 0097 00       		.byte	0
 2736 0098 00       		.byte	0
 2737 0099 0E       		.uleb128 0xe
 2738 009a 16       		.uleb128 0x16
 2739 009b 00       		.byte	0
 2740 009c 03       		.uleb128 0x3
 2741 009d 0E       		.uleb128 0xe
 2742 009e 3A       		.uleb128 0x3a
 2743 009f 0B       		.uleb128 0xb
 2744 00a0 3B       		.uleb128 0x3b
 2745 00a1 05       		.uleb128 0x5
 2746 00a2 49       		.uleb128 0x49
 2747 00a3 13       		.uleb128 0x13
 2748 00a4 00       		.byte	0
 2749 00a5 00       		.byte	0
 2750 00a6 0F       		.uleb128 0xf
 2751 00a7 04       		.uleb128 0x4
 2752 00a8 01       		.byte	0x1
 2753 00a9 0B       		.uleb128 0xb
 2754 00aa 0B       		.uleb128 0xb
 2755 00ab 49       		.uleb128 0x49
 2756 00ac 13       		.uleb128 0x13
ARM GAS  C:\Users\ikomb\AppData\Local\Temp\cchczmzd.s 			page 74


 2757 00ad 3A       		.uleb128 0x3a
 2758 00ae 0B       		.uleb128 0xb
 2759 00af 3B       		.uleb128 0x3b
 2760 00b0 05       		.uleb128 0x5
 2761 00b1 01       		.uleb128 0x1
 2762 00b2 13       		.uleb128 0x13
 2763 00b3 00       		.byte	0
 2764 00b4 00       		.byte	0
 2765 00b5 10       		.uleb128 0x10
 2766 00b6 28       		.uleb128 0x28
 2767 00b7 00       		.byte	0
 2768 00b8 03       		.uleb128 0x3
 2769 00b9 0E       		.uleb128 0xe
 2770 00ba 1C       		.uleb128 0x1c
 2771 00bb 0B       		.uleb128 0xb
 2772 00bc 00       		.byte	0
 2773 00bd 00       		.byte	0
 2774 00be 11       		.uleb128 0x11
 2775 00bf 28       		.uleb128 0x28
 2776 00c0 00       		.byte	0
 2777 00c1 03       		.uleb128 0x3
 2778 00c2 0E       		.uleb128 0xe
 2779 00c3 1C       		.uleb128 0x1c
 2780 00c4 06       		.uleb128 0x6
 2781 00c5 00       		.byte	0
 2782 00c6 00       		.byte	0
 2783 00c7 12       		.uleb128 0x12
 2784 00c8 13       		.uleb128 0x13
 2785 00c9 01       		.byte	0x1
 2786 00ca 0B       		.uleb128 0xb
 2787 00cb 0B       		.uleb128 0xb
 2788 00cc 3A       		.uleb128 0x3a
 2789 00cd 0B       		.uleb128 0xb
 2790 00ce 3B       		.uleb128 0x3b
 2791 00cf 05       		.uleb128 0x5
 2792 00d0 01       		.uleb128 0x1
 2793 00d1 13       		.uleb128 0x13
 2794 00d2 00       		.byte	0
 2795 00d3 00       		.byte	0
 2796 00d4 13       		.uleb128 0x13
 2797 00d5 0D       		.uleb128 0xd
 2798 00d6 00       		.byte	0
 2799 00d7 03       		.uleb128 0x3
 2800 00d8 0E       		.uleb128 0xe
 2801 00d9 3A       		.uleb128 0x3a
 2802 00da 0B       		.uleb128 0xb
 2803 00db 3B       		.uleb128 0x3b
 2804 00dc 05       		.uleb128 0x5
 2805 00dd 49       		.uleb128 0x49
 2806 00de 13       		.uleb128 0x13
 2807 00df 38       		.uleb128 0x38
 2808 00e0 0B       		.uleb128 0xb
 2809 00e1 00       		.byte	0
 2810 00e2 00       		.byte	0
 2811 00e3 14       		.uleb128 0x14
 2812 00e4 0F       		.uleb128 0xf
 2813 00e5 00       		.byte	0
ARM GAS  C:\Users\ikomb\AppData\Local\Temp\cchczmzd.s 			page 75


 2814 00e6 0B       		.uleb128 0xb
 2815 00e7 0B       		.uleb128 0xb
 2816 00e8 00       		.byte	0
 2817 00e9 00       		.byte	0
 2818 00ea 15       		.uleb128 0x15
 2819 00eb 0F       		.uleb128 0xf
 2820 00ec 00       		.byte	0
 2821 00ed 0B       		.uleb128 0xb
 2822 00ee 0B       		.uleb128 0xb
 2823 00ef 49       		.uleb128 0x49
 2824 00f0 13       		.uleb128 0x13
 2825 00f1 00       		.byte	0
 2826 00f2 00       		.byte	0
 2827 00f3 16       		.uleb128 0x16
 2828 00f4 04       		.uleb128 0x4
 2829 00f5 01       		.byte	0x1
 2830 00f6 0B       		.uleb128 0xb
 2831 00f7 0B       		.uleb128 0xb
 2832 00f8 49       		.uleb128 0x49
 2833 00f9 13       		.uleb128 0x13
 2834 00fa 3A       		.uleb128 0x3a
 2835 00fb 0B       		.uleb128 0xb
 2836 00fc 3B       		.uleb128 0x3b
 2837 00fd 0B       		.uleb128 0xb
 2838 00fe 01       		.uleb128 0x1
 2839 00ff 13       		.uleb128 0x13
 2840 0100 00       		.byte	0
 2841 0101 00       		.byte	0
 2842 0102 17       		.uleb128 0x17
 2843 0103 2E       		.uleb128 0x2e
 2844 0104 01       		.byte	0x1
 2845 0105 03       		.uleb128 0x3
 2846 0106 0E       		.uleb128 0xe
 2847 0107 3A       		.uleb128 0x3a
 2848 0108 0B       		.uleb128 0xb
 2849 0109 3B       		.uleb128 0x3b
 2850 010a 05       		.uleb128 0x5
 2851 010b 27       		.uleb128 0x27
 2852 010c 19       		.uleb128 0x19
 2853 010d 49       		.uleb128 0x49
 2854 010e 13       		.uleb128 0x13
 2855 010f 20       		.uleb128 0x20
 2856 0110 0B       		.uleb128 0xb
 2857 0111 01       		.uleb128 0x1
 2858 0112 13       		.uleb128 0x13
 2859 0113 00       		.byte	0
 2860 0114 00       		.byte	0
 2861 0115 18       		.uleb128 0x18
 2862 0116 05       		.uleb128 0x5
 2863 0117 00       		.byte	0
 2864 0118 03       		.uleb128 0x3
 2865 0119 0E       		.uleb128 0xe
 2866 011a 3A       		.uleb128 0x3a
 2867 011b 0B       		.uleb128 0xb
 2868 011c 3B       		.uleb128 0x3b
 2869 011d 05       		.uleb128 0x5
 2870 011e 49       		.uleb128 0x49
ARM GAS  C:\Users\ikomb\AppData\Local\Temp\cchczmzd.s 			page 76


 2871 011f 13       		.uleb128 0x13
 2872 0120 00       		.byte	0
 2873 0121 00       		.byte	0
 2874 0122 19       		.uleb128 0x19
 2875 0123 2E       		.uleb128 0x2e
 2876 0124 01       		.byte	0x1
 2877 0125 03       		.uleb128 0x3
 2878 0126 0E       		.uleb128 0xe
 2879 0127 3A       		.uleb128 0x3a
 2880 0128 0B       		.uleb128 0xb
 2881 0129 3B       		.uleb128 0x3b
 2882 012a 05       		.uleb128 0x5
 2883 012b 27       		.uleb128 0x27
 2884 012c 19       		.uleb128 0x19
 2885 012d 20       		.uleb128 0x20
 2886 012e 0B       		.uleb128 0xb
 2887 012f 01       		.uleb128 0x1
 2888 0130 13       		.uleb128 0x13
 2889 0131 00       		.byte	0
 2890 0132 00       		.byte	0
 2891 0133 1A       		.uleb128 0x1a
 2892 0134 2E       		.uleb128 0x2e
 2893 0135 01       		.byte	0x1
 2894 0136 3F       		.uleb128 0x3f
 2895 0137 19       		.uleb128 0x19
 2896 0138 03       		.uleb128 0x3
 2897 0139 0E       		.uleb128 0xe
 2898 013a 3A       		.uleb128 0x3a
 2899 013b 0B       		.uleb128 0xb
 2900 013c 3B       		.uleb128 0x3b
 2901 013d 0B       		.uleb128 0xb
 2902 013e 27       		.uleb128 0x27
 2903 013f 19       		.uleb128 0x19
 2904 0140 49       		.uleb128 0x49
 2905 0141 13       		.uleb128 0x13
 2906 0142 11       		.uleb128 0x11
 2907 0143 01       		.uleb128 0x1
 2908 0144 12       		.uleb128 0x12
 2909 0145 06       		.uleb128 0x6
 2910 0146 40       		.uleb128 0x40
 2911 0147 18       		.uleb128 0x18
 2912 0148 9742     		.uleb128 0x2117
 2913 014a 19       		.uleb128 0x19
 2914 014b 01       		.uleb128 0x1
 2915 014c 13       		.uleb128 0x13
 2916 014d 00       		.byte	0
 2917 014e 00       		.byte	0
 2918 014f 1B       		.uleb128 0x1b
 2919 0150 05       		.uleb128 0x5
 2920 0151 00       		.byte	0
 2921 0152 03       		.uleb128 0x3
 2922 0153 0E       		.uleb128 0xe
 2923 0154 3A       		.uleb128 0x3a
 2924 0155 0B       		.uleb128 0xb
 2925 0156 3B       		.uleb128 0x3b
 2926 0157 0B       		.uleb128 0xb
 2927 0158 49       		.uleb128 0x49
ARM GAS  C:\Users\ikomb\AppData\Local\Temp\cchczmzd.s 			page 77


 2928 0159 13       		.uleb128 0x13
 2929 015a 02       		.uleb128 0x2
 2930 015b 17       		.uleb128 0x17
 2931 015c 00       		.byte	0
 2932 015d 00       		.byte	0
 2933 015e 1C       		.uleb128 0x1c
 2934 015f 34       		.uleb128 0x34
 2935 0160 00       		.byte	0
 2936 0161 03       		.uleb128 0x3
 2937 0162 08       		.uleb128 0x8
 2938 0163 3A       		.uleb128 0x3a
 2939 0164 0B       		.uleb128 0xb
 2940 0165 3B       		.uleb128 0x3b
 2941 0166 0B       		.uleb128 0xb
 2942 0167 49       		.uleb128 0x49
 2943 0168 13       		.uleb128 0x13
 2944 0169 02       		.uleb128 0x2
 2945 016a 17       		.uleb128 0x17
 2946 016b 00       		.byte	0
 2947 016c 00       		.byte	0
 2948 016d 1D       		.uleb128 0x1d
 2949 016e 0B       		.uleb128 0xb
 2950 016f 01       		.byte	0x1
 2951 0170 55       		.uleb128 0x55
 2952 0171 17       		.uleb128 0x17
 2953 0172 00       		.byte	0
 2954 0173 00       		.byte	0
 2955 0174 1E       		.uleb128 0x1e
 2956 0175 34       		.uleb128 0x34
 2957 0176 00       		.byte	0
 2958 0177 03       		.uleb128 0x3
 2959 0178 0E       		.uleb128 0xe
 2960 0179 3A       		.uleb128 0x3a
 2961 017a 0B       		.uleb128 0xb
 2962 017b 3B       		.uleb128 0x3b
 2963 017c 0B       		.uleb128 0xb
 2964 017d 49       		.uleb128 0x49
 2965 017e 13       		.uleb128 0x13
 2966 017f 02       		.uleb128 0x2
 2967 0180 17       		.uleb128 0x17
 2968 0181 00       		.byte	0
 2969 0182 00       		.byte	0
 2970 0183 1F       		.uleb128 0x1f
 2971 0184 898201   		.uleb128 0x4109
 2972 0187 01       		.byte	0x1
 2973 0188 11       		.uleb128 0x11
 2974 0189 01       		.uleb128 0x1
 2975 018a 31       		.uleb128 0x31
 2976 018b 13       		.uleb128 0x13
 2977 018c 01       		.uleb128 0x1
 2978 018d 13       		.uleb128 0x13
 2979 018e 00       		.byte	0
 2980 018f 00       		.byte	0
 2981 0190 20       		.uleb128 0x20
 2982 0191 8A8201   		.uleb128 0x410a
 2983 0194 00       		.byte	0
 2984 0195 02       		.uleb128 0x2
ARM GAS  C:\Users\ikomb\AppData\Local\Temp\cchczmzd.s 			page 78


 2985 0196 18       		.uleb128 0x18
 2986 0197 9142     		.uleb128 0x2111
 2987 0199 18       		.uleb128 0x18
 2988 019a 00       		.byte	0
 2989 019b 00       		.byte	0
 2990 019c 21       		.uleb128 0x21
 2991 019d 898201   		.uleb128 0x4109
 2992 01a0 01       		.byte	0x1
 2993 01a1 11       		.uleb128 0x11
 2994 01a2 01       		.uleb128 0x1
 2995 01a3 31       		.uleb128 0x31
 2996 01a4 13       		.uleb128 0x13
 2997 01a5 00       		.byte	0
 2998 01a6 00       		.byte	0
 2999 01a7 22       		.uleb128 0x22
 3000 01a8 2E       		.uleb128 0x2e
 3001 01a9 01       		.byte	0x1
 3002 01aa 3F       		.uleb128 0x3f
 3003 01ab 19       		.uleb128 0x19
 3004 01ac 03       		.uleb128 0x3
 3005 01ad 0E       		.uleb128 0xe
 3006 01ae 3A       		.uleb128 0x3a
 3007 01af 0B       		.uleb128 0xb
 3008 01b0 3B       		.uleb128 0x3b
 3009 01b1 0B       		.uleb128 0xb
 3010 01b2 27       		.uleb128 0x27
 3011 01b3 19       		.uleb128 0x19
 3012 01b4 11       		.uleb128 0x11
 3013 01b5 01       		.uleb128 0x1
 3014 01b6 12       		.uleb128 0x12
 3015 01b7 06       		.uleb128 0x6
 3016 01b8 40       		.uleb128 0x40
 3017 01b9 18       		.uleb128 0x18
 3018 01ba 9742     		.uleb128 0x2117
 3019 01bc 19       		.uleb128 0x19
 3020 01bd 01       		.uleb128 0x1
 3021 01be 13       		.uleb128 0x13
 3022 01bf 00       		.byte	0
 3023 01c0 00       		.byte	0
 3024 01c1 23       		.uleb128 0x23
 3025 01c2 05       		.uleb128 0x5
 3026 01c3 00       		.byte	0
 3027 01c4 03       		.uleb128 0x3
 3028 01c5 0E       		.uleb128 0xe
 3029 01c6 3A       		.uleb128 0x3a
 3030 01c7 0B       		.uleb128 0xb
 3031 01c8 3B       		.uleb128 0x3b
 3032 01c9 0B       		.uleb128 0xb
 3033 01ca 49       		.uleb128 0x49
 3034 01cb 13       		.uleb128 0x13
 3035 01cc 02       		.uleb128 0x2
 3036 01cd 18       		.uleb128 0x18
 3037 01ce 00       		.byte	0
 3038 01cf 00       		.byte	0
 3039 01d0 24       		.uleb128 0x24
 3040 01d1 1D       		.uleb128 0x1d
 3041 01d2 01       		.byte	0x1
ARM GAS  C:\Users\ikomb\AppData\Local\Temp\cchczmzd.s 			page 79


 3042 01d3 31       		.uleb128 0x31
 3043 01d4 13       		.uleb128 0x13
 3044 01d5 11       		.uleb128 0x11
 3045 01d6 01       		.uleb128 0x1
 3046 01d7 12       		.uleb128 0x12
 3047 01d8 06       		.uleb128 0x6
 3048 01d9 58       		.uleb128 0x58
 3049 01da 0B       		.uleb128 0xb
 3050 01db 59       		.uleb128 0x59
 3051 01dc 0B       		.uleb128 0xb
 3052 01dd 01       		.uleb128 0x1
 3053 01de 13       		.uleb128 0x13
 3054 01df 00       		.byte	0
 3055 01e0 00       		.byte	0
 3056 01e1 25       		.uleb128 0x25
 3057 01e2 05       		.uleb128 0x5
 3058 01e3 00       		.byte	0
 3059 01e4 31       		.uleb128 0x31
 3060 01e5 13       		.uleb128 0x13
 3061 01e6 02       		.uleb128 0x2
 3062 01e7 17       		.uleb128 0x17
 3063 01e8 00       		.byte	0
 3064 01e9 00       		.byte	0
 3065 01ea 26       		.uleb128 0x26
 3066 01eb 1D       		.uleb128 0x1d
 3067 01ec 01       		.byte	0x1
 3068 01ed 31       		.uleb128 0x31
 3069 01ee 13       		.uleb128 0x13
 3070 01ef 11       		.uleb128 0x11
 3071 01f0 01       		.uleb128 0x1
 3072 01f1 12       		.uleb128 0x12
 3073 01f2 06       		.uleb128 0x6
 3074 01f3 58       		.uleb128 0x58
 3075 01f4 0B       		.uleb128 0xb
 3076 01f5 59       		.uleb128 0x59
 3077 01f6 05       		.uleb128 0x5
 3078 01f7 01       		.uleb128 0x1
 3079 01f8 13       		.uleb128 0x13
 3080 01f9 00       		.byte	0
 3081 01fa 00       		.byte	0
 3082 01fb 27       		.uleb128 0x27
 3083 01fc 2E       		.uleb128 0x2e
 3084 01fd 00       		.byte	0
 3085 01fe 3F       		.uleb128 0x3f
 3086 01ff 19       		.uleb128 0x19
 3087 0200 3C       		.uleb128 0x3c
 3088 0201 19       		.uleb128 0x19
 3089 0202 6E       		.uleb128 0x6e
 3090 0203 0E       		.uleb128 0xe
 3091 0204 03       		.uleb128 0x3
 3092 0205 0E       		.uleb128 0xe
 3093 0206 3A       		.uleb128 0x3a
 3094 0207 0B       		.uleb128 0xb
 3095 0208 3B       		.uleb128 0x3b
 3096 0209 05       		.uleb128 0x5
 3097 020a 00       		.byte	0
 3098 020b 00       		.byte	0
ARM GAS  C:\Users\ikomb\AppData\Local\Temp\cchczmzd.s 			page 80


 3099 020c 00       		.byte	0
 3100              		.section	.debug_loc,"",%progbits
 3101              	.Ldebug_loc0:
 3102              	.LLST0:
 3103 0000 00000000 		.4byte	.LVL0
 3104 0004 22000000 		.4byte	.LVL4
 3105 0008 0100     		.2byte	0x1
 3106 000a 50       		.byte	0x50
 3107 000b 22000000 		.4byte	.LVL4
 3108 000f 1E030000 		.4byte	.LVL40
 3109 0013 0100     		.2byte	0x1
 3110 0015 55       		.byte	0x55
 3111 0016 1E030000 		.4byte	.LVL40
 3112 001a 20030000 		.4byte	.LVL41
 3113 001e 0100     		.2byte	0x1
 3114 0020 50       		.byte	0x50
 3115 0021 20030000 		.4byte	.LVL41
 3116 0025 22030000 		.4byte	.LVL42
 3117 0029 0100     		.2byte	0x1
 3118 002b 55       		.byte	0x55
 3119 002c 22030000 		.4byte	.LVL42
 3120 0030 24030000 		.4byte	.LVL43
 3121 0034 0100     		.2byte	0x1
 3122 0036 50       		.byte	0x50
 3123 0037 24030000 		.4byte	.LVL43
 3124 003b 32030000 		.4byte	.LVL47
 3125 003f 0100     		.2byte	0x1
 3126 0041 55       		.byte	0x55
 3127 0042 32030000 		.4byte	.LVL47
 3128 0046 38030000 		.4byte	.LFE97
 3129 004a 0400     		.2byte	0x4
 3130 004c F3       		.byte	0xf3
 3131 004d 01       		.uleb128 0x1
 3132 004e 50       		.byte	0x50
 3133 004f 9F       		.byte	0x9f
 3134 0050 00000000 		.4byte	0
 3135 0054 00000000 		.4byte	0
 3136              	.LLST1:
 3137 0058 00000000 		.4byte	.LVL0
 3138 005c 20000000 		.4byte	.LVL3
 3139 0060 0100     		.2byte	0x1
 3140 0062 51       		.byte	0x51
 3141 0063 20000000 		.4byte	.LVL3
 3142 0067 1E030000 		.4byte	.LVL40
 3143 006b 0100     		.2byte	0x1
 3144 006d 54       		.byte	0x54
 3145 006e 1E030000 		.4byte	.LVL40
 3146 0072 30030000 		.4byte	.LVL44
 3147 0076 0100     		.2byte	0x1
 3148 0078 51       		.byte	0x51
 3149 0079 30030000 		.4byte	.LVL44
 3150 007d 32030000 		.4byte	.LVL46
 3151 0081 0100     		.2byte	0x1
 3152 0083 54       		.byte	0x54
 3153 0084 32030000 		.4byte	.LVL46
 3154 0088 38030000 		.4byte	.LFE97
 3155 008c 0400     		.2byte	0x4
ARM GAS  C:\Users\ikomb\AppData\Local\Temp\cchczmzd.s 			page 81


 3156 008e F3       		.byte	0xf3
 3157 008f 01       		.uleb128 0x1
 3158 0090 51       		.byte	0x51
 3159 0091 9F       		.byte	0x9f
 3160 0092 00000000 		.4byte	0
 3161 0096 00000000 		.4byte	0
 3162              	.LLST2:
 3163 009a 0A000000 		.4byte	.LVL1
 3164 009e 32030000 		.4byte	.LVL45
 3165 00a2 0600     		.2byte	0x6
 3166 00a4 0C       		.byte	0xc
 3167 00a5 01008200 		.4byte	0x820001
 3168 00a9 9F       		.byte	0x9f
 3169 00aa 32030000 		.4byte	.LVL45
 3170 00ae 38030000 		.4byte	.LFE97
 3171 00b2 0100     		.2byte	0x1
 3172 00b4 50       		.byte	0x50
 3173 00b5 00000000 		.4byte	0
 3174 00b9 00000000 		.4byte	0
 3175              	.LLST3:
 3176 00bd 72000000 		.4byte	.LVL10
 3177 00c1 9E000000 		.4byte	.LVL14
 3178 00c5 0100     		.2byte	0x1
 3179 00c7 58       		.byte	0x58
 3180 00c8 9E000000 		.4byte	.LVL14
 3181 00cc BE000000 		.4byte	.LVL17
 3182 00d0 0200     		.2byte	0x2
 3183 00d2 31       		.byte	0x31
 3184 00d3 9F       		.byte	0x9f
 3185 00d4 BE000000 		.4byte	.LVL17
 3186 00d8 C2000000 		.4byte	.LVL18
 3187 00dc 0100     		.2byte	0x1
 3188 00de 58       		.byte	0x58
 3189 00df C2000000 		.4byte	.LVL18
 3190 00e3 C8000000 		.4byte	.LVL19
 3191 00e7 0200     		.2byte	0x2
 3192 00e9 31       		.byte	0x31
 3193 00ea 9F       		.byte	0x9f
 3194 00eb C8000000 		.4byte	.LVL19
 3195 00ef 78010000 		.4byte	.LVL23
 3196 00f3 0100     		.2byte	0x1
 3197 00f5 58       		.byte	0x58
 3198 00f6 A2010000 		.4byte	.LVL26
 3199 00fa D0010000 		.4byte	.LVL30
 3200 00fe 0100     		.2byte	0x1
 3201 0100 58       		.byte	0x58
 3202 0101 D0010000 		.4byte	.LVL30
 3203 0105 F4010000 		.4byte	.LVL33
 3204 0109 0200     		.2byte	0x2
 3205 010b 31       		.byte	0x31
 3206 010c 9F       		.byte	0x9f
 3207 010d F4010000 		.4byte	.LVL33
 3208 0111 F8010000 		.4byte	.LVL34
 3209 0115 0100     		.2byte	0x1
 3210 0117 58       		.byte	0x58
 3211 0118 F8010000 		.4byte	.LVL34
 3212 011c FE010000 		.4byte	.LVL35
ARM GAS  C:\Users\ikomb\AppData\Local\Temp\cchczmzd.s 			page 82


 3213 0120 0200     		.2byte	0x2
 3214 0122 31       		.byte	0x31
 3215 0123 9F       		.byte	0x9f
 3216 0124 FE010000 		.4byte	.LVL35
 3217 0128 B6020000 		.4byte	.LVL39
 3218 012c 0100     		.2byte	0x1
 3219 012e 58       		.byte	0x58
 3220 012f 00000000 		.4byte	0
 3221 0133 00000000 		.4byte	0
 3222              	.LLST4:
 3223 0137 72000000 		.4byte	.LVL10
 3224 013b 9E000000 		.4byte	.LVL14
 3225 013f 0200     		.2byte	0x2
 3226 0141 35       		.byte	0x35
 3227 0142 9F       		.byte	0x9f
 3228 0143 A0000000 		.4byte	.LVL15
 3229 0147 BE000000 		.4byte	.LVL17
 3230 014b 0100     		.2byte	0x1
 3231 014d 56       		.byte	0x56
 3232 014e BE000000 		.4byte	.LVL17
 3233 0152 C2000000 		.4byte	.LVL18
 3234 0156 0200     		.2byte	0x2
 3235 0158 35       		.byte	0x35
 3236 0159 9F       		.byte	0x9f
 3237 015a C2000000 		.4byte	.LVL18
 3238 015e 4C010000 		.4byte	.LVL22
 3239 0162 0100     		.2byte	0x1
 3240 0164 56       		.byte	0x56
 3241 0165 A2010000 		.4byte	.LVL26
 3242 0169 D0010000 		.4byte	.LVL30
 3243 016d 0200     		.2byte	0x2
 3244 016f 35       		.byte	0x35
 3245 0170 9F       		.byte	0x9f
 3246 0171 D4010000 		.4byte	.LVL31
 3247 0175 F4010000 		.4byte	.LVL33
 3248 0179 0100     		.2byte	0x1
 3249 017b 56       		.byte	0x56
 3250 017c F4010000 		.4byte	.LVL33
 3251 0180 F8010000 		.4byte	.LVL34
 3252 0184 0200     		.2byte	0x2
 3253 0186 35       		.byte	0x35
 3254 0187 9F       		.byte	0x9f
 3255 0188 F8010000 		.4byte	.LVL34
 3256 018c 8A020000 		.4byte	.LVL38
 3257 0190 0100     		.2byte	0x1
 3258 0192 56       		.byte	0x56
 3259 0193 00000000 		.4byte	0
 3260 0197 00000000 		.4byte	0
 3261              	.LLST5:
 3262 019b 6E000000 		.4byte	.LVL9
 3263 019f 9E000000 		.4byte	.LVL14
 3264 01a3 0100     		.2byte	0x1
 3265 01a5 57       		.byte	0x57
 3266 01a6 9E000000 		.4byte	.LVL14
 3267 01aa BE000000 		.4byte	.LVL17
 3268 01ae 0200     		.2byte	0x2
 3269 01b0 31       		.byte	0x31
ARM GAS  C:\Users\ikomb\AppData\Local\Temp\cchczmzd.s 			page 83


 3270 01b1 9F       		.byte	0x9f
 3271 01b2 BE000000 		.4byte	.LVL17
 3272 01b6 C2000000 		.4byte	.LVL18
 3273 01ba 0100     		.2byte	0x1
 3274 01bc 57       		.byte	0x57
 3275 01bd C2000000 		.4byte	.LVL18
 3276 01c1 C8000000 		.4byte	.LVL19
 3277 01c5 0200     		.2byte	0x2
 3278 01c7 31       		.byte	0x31
 3279 01c8 9F       		.byte	0x9f
 3280 01c9 C8000000 		.4byte	.LVL19
 3281 01cd FC000000 		.4byte	.LVL21
 3282 01d1 0100     		.2byte	0x1
 3283 01d3 57       		.byte	0x57
 3284 01d4 9E010000 		.4byte	.LVL25
 3285 01d8 D0010000 		.4byte	.LVL30
 3286 01dc 0100     		.2byte	0x1
 3287 01de 57       		.byte	0x57
 3288 01df D0010000 		.4byte	.LVL30
 3289 01e3 F4010000 		.4byte	.LVL33
 3290 01e7 0200     		.2byte	0x2
 3291 01e9 31       		.byte	0x31
 3292 01ea 9F       		.byte	0x9f
 3293 01eb F4010000 		.4byte	.LVL33
 3294 01ef F8010000 		.4byte	.LVL34
 3295 01f3 0100     		.2byte	0x1
 3296 01f5 57       		.byte	0x57
 3297 01f6 F8010000 		.4byte	.LVL34
 3298 01fa FE010000 		.4byte	.LVL35
 3299 01fe 0200     		.2byte	0x2
 3300 0200 31       		.byte	0x31
 3301 0201 9F       		.byte	0x9f
 3302 0202 FE010000 		.4byte	.LVL35
 3303 0206 36020000 		.4byte	.LVL37
 3304 020a 0100     		.2byte	0x1
 3305 020c 57       		.byte	0x57
 3306 020d 00000000 		.4byte	0
 3307 0211 00000000 		.4byte	0
 3308              	.LLST6:
 3309 0215 1A000000 		.4byte	.LVL2
 3310 0219 2A000000 		.4byte	.LVL6
 3311 021d 0100     		.2byte	0x1
 3312 021f 56       		.byte	0x56
 3313 0220 00000000 		.4byte	0
 3314 0224 00000000 		.4byte	0
 3315              	.LLST7:
 3316 0228 00000000 		.4byte	.LVL49
 3317 022c 0E000000 		.4byte	.LVL51
 3318 0230 0100     		.2byte	0x1
 3319 0232 50       		.byte	0x50
 3320 0233 0E000000 		.4byte	.LVL51
 3321 0237 CA000000 		.4byte	.LVL74
 3322 023b 0100     		.2byte	0x1
 3323 023d 55       		.byte	0x55
 3324 023e CA000000 		.4byte	.LVL74
 3325 0242 F8000000 		.4byte	.LVL79
 3326 0246 0400     		.2byte	0x4
ARM GAS  C:\Users\ikomb\AppData\Local\Temp\cchczmzd.s 			page 84


 3327 0248 F3       		.byte	0xf3
 3328 0249 01       		.uleb128 0x1
 3329 024a 50       		.byte	0x50
 3330 024b 9F       		.byte	0x9f
 3331 024c F8000000 		.4byte	.LVL79
 3332 0250 FA000000 		.4byte	.LVL80
 3333 0254 0100     		.2byte	0x1
 3334 0256 55       		.byte	0x55
 3335 0257 FA000000 		.4byte	.LVL80
 3336 025b 20010000 		.4byte	.LFE99
 3337 025f 0400     		.2byte	0x4
 3338 0261 F3       		.byte	0xf3
 3339 0262 01       		.uleb128 0x1
 3340 0263 50       		.byte	0x50
 3341 0264 9F       		.byte	0x9f
 3342 0265 00000000 		.4byte	0
 3343 0269 00000000 		.4byte	0
 3344              	.LLST8:
 3345 026d 04000000 		.4byte	.LVL50
 3346 0271 FA000000 		.4byte	.LVL80
 3347 0275 0200     		.2byte	0x2
 3348 0277 30       		.byte	0x30
 3349 0278 9F       		.byte	0x9f
 3350 0279 FA000000 		.4byte	.LVL80
 3351 027d 20010000 		.4byte	.LFE99
 3352 0281 0100     		.2byte	0x1
 3353 0283 50       		.byte	0x50
 3354 0284 00000000 		.4byte	0
 3355 0288 00000000 		.4byte	0
 3356              	.LLST9:
 3357 028c 14000000 		.4byte	.LVL53
 3358 0290 FA000000 		.4byte	.LVL81
 3359 0294 0100     		.2byte	0x1
 3360 0296 54       		.byte	0x54
 3361 0297 00000000 		.4byte	0
 3362 029b 00000000 		.4byte	0
 3363              	.LLST10:
 3364 029f 16000000 		.4byte	.LVL54
 3365 02a3 FA000000 		.4byte	.LVL82
 3366 02a7 0300     		.2byte	0x3
 3367 02a9 76       		.byte	0x76
 3368 02aa 04       		.sleb128 4
 3369 02ab 9F       		.byte	0x9f
 3370 02ac 00000000 		.4byte	0
 3371 02b0 00000000 		.4byte	0
 3372              	.LLST11:
 3373 02b4 16000000 		.4byte	.LVL54
 3374 02b8 FA000000 		.4byte	.LVL82
 3375 02bc 0100     		.2byte	0x1
 3376 02be 56       		.byte	0x56
 3377 02bf 00000000 		.4byte	0
 3378 02c3 00000000 		.4byte	0
 3379              	.LLST12:
 3380 02c7 32000000 		.4byte	.LVL55
 3381 02cb 36000000 		.4byte	.LVL56
 3382 02cf 0100     		.2byte	0x1
 3383 02d1 54       		.byte	0x54
ARM GAS  C:\Users\ikomb\AppData\Local\Temp\cchczmzd.s 			page 85


 3384 02d2 00000000 		.4byte	0
 3385 02d6 00000000 		.4byte	0
 3386              	.LLST13:
 3387 02da 38000000 		.4byte	.LVL57
 3388 02de 3E000000 		.4byte	.LVL58
 3389 02e2 0100     		.2byte	0x1
 3390 02e4 54       		.byte	0x54
 3391 02e5 00000000 		.4byte	0
 3392 02e9 00000000 		.4byte	0
 3393              	.LLST14:
 3394 02ed 44000000 		.4byte	.LVL59
 3395 02f1 4C000000 		.4byte	.LVL60
 3396 02f5 0100     		.2byte	0x1
 3397 02f7 54       		.byte	0x54
 3398 02f8 00000000 		.4byte	0
 3399 02fc 00000000 		.4byte	0
 3400              	.LLST15:
 3401 0300 52000000 		.4byte	.LVL61
 3402 0304 5A000000 		.4byte	.LVL62
 3403 0308 0100     		.2byte	0x1
 3404 030a 54       		.byte	0x54
 3405 030b 00000000 		.4byte	0
 3406 030f 00000000 		.4byte	0
 3407              	.LLST16:
 3408 0313 5A000000 		.4byte	.LVL62
 3409 0317 64000000 		.4byte	.LVL63
 3410 031b 0200     		.2byte	0x2
 3411 031d 30       		.byte	0x30
 3412 031e 9F       		.byte	0x9f
 3413 031f 00000000 		.4byte	0
 3414 0323 00000000 		.4byte	0
 3415              	.LLST17:
 3416 0327 5A000000 		.4byte	.LVL62
 3417 032b 64000000 		.4byte	.LVL63
 3418 032f 0100     		.2byte	0x1
 3419 0331 54       		.byte	0x54
 3420 0332 00000000 		.4byte	0
 3421 0336 00000000 		.4byte	0
 3422              	.LLST18:
 3423 033a 6A000000 		.4byte	.LVL64
 3424 033e 82000000 		.4byte	.LVL65
 3425 0342 0100     		.2byte	0x1
 3426 0344 54       		.byte	0x54
 3427 0345 00000000 		.4byte	0
 3428 0349 00000000 		.4byte	0
 3429              	.LLST19:
 3430 034d 82000000 		.4byte	.LVL65
 3431 0351 88000000 		.4byte	.LVL66
 3432 0355 0100     		.2byte	0x1
 3433 0357 54       		.byte	0x54
 3434 0358 00000000 		.4byte	0
 3435 035c 00000000 		.4byte	0
 3436              	.LLST20:
 3437 0360 8E000000 		.4byte	.LVL67
 3438 0364 A6000000 		.4byte	.LVL68
 3439 0368 0100     		.2byte	0x1
 3440 036a 54       		.byte	0x54
ARM GAS  C:\Users\ikomb\AppData\Local\Temp\cchczmzd.s 			page 86


 3441 036b 00000000 		.4byte	0
 3442 036f 00000000 		.4byte	0
 3443              	.LLST21:
 3444 0373 A6000000 		.4byte	.LVL68
 3445 0377 AE000000 		.4byte	.LVL69
 3446 037b 0200     		.2byte	0x2
 3447 037d 30       		.byte	0x30
 3448 037e 9F       		.byte	0x9f
 3449 037f 00000000 		.4byte	0
 3450 0383 00000000 		.4byte	0
 3451              	.LLST22:
 3452 0387 A6000000 		.4byte	.LVL68
 3453 038b AE000000 		.4byte	.LVL69
 3454 038f 0100     		.2byte	0x1
 3455 0391 54       		.byte	0x54
 3456 0392 00000000 		.4byte	0
 3457 0396 00000000 		.4byte	0
 3458              	.LLST23:
 3459 039a AE000000 		.4byte	.LVL69
 3460 039e B0000000 		.4byte	.LVL70
 3461 03a2 0200     		.2byte	0x2
 3462 03a4 30       		.byte	0x30
 3463 03a5 9F       		.byte	0x9f
 3464 03a6 00000000 		.4byte	0
 3465 03aa 00000000 		.4byte	0
 3466              	.LLST24:
 3467 03ae AE000000 		.4byte	.LVL69
 3468 03b2 B0000000 		.4byte	.LVL70
 3469 03b6 0100     		.2byte	0x1
 3470 03b8 54       		.byte	0x54
 3471 03b9 00000000 		.4byte	0
 3472 03bd 00000000 		.4byte	0
 3473              	.LLST25:
 3474 03c1 B6000000 		.4byte	.LVL71
 3475 03c5 C0000000 		.4byte	.LVL72
 3476 03c9 0100     		.2byte	0x1
 3477 03cb 54       		.byte	0x54
 3478 03cc 00000000 		.4byte	0
 3479 03d0 00000000 		.4byte	0
 3480              	.LLST26:
 3481 03d4 C0000000 		.4byte	.LVL72
 3482 03d8 C8000000 		.4byte	.LVL73
 3483 03dc 0100     		.2byte	0x1
 3484 03de 54       		.byte	0x54
 3485 03df 00000000 		.4byte	0
 3486 03e3 00000000 		.4byte	0
 3487              	.LLST27:
 3488 03e7 CA000000 		.4byte	.LVL74
 3489 03eb E0000000 		.4byte	.LVL76
 3490 03ef 0100     		.2byte	0x1
 3491 03f1 55       		.byte	0x55
 3492 03f2 00000000 		.4byte	0
 3493 03f6 00000000 		.4byte	0
 3494              	.LLST28:
 3495 03fa CA000000 		.4byte	.LVL74
 3496 03fe E0000000 		.4byte	.LVL76
 3497 0402 0100     		.2byte	0x1
ARM GAS  C:\Users\ikomb\AppData\Local\Temp\cchczmzd.s 			page 87


 3498 0404 54       		.byte	0x54
 3499 0405 00000000 		.4byte	0
 3500 0409 00000000 		.4byte	0
 3501              	.LLST29:
 3502 040d E2000000 		.4byte	.LVL77
 3503 0411 F8000000 		.4byte	.LVL79
 3504 0415 0100     		.2byte	0x1
 3505 0417 55       		.byte	0x55
 3506 0418 00000000 		.4byte	0
 3507 041c 00000000 		.4byte	0
 3508              	.LLST30:
 3509 0420 E2000000 		.4byte	.LVL77
 3510 0424 F8000000 		.4byte	.LVL79
 3511 0428 0100     		.2byte	0x1
 3512 042a 54       		.byte	0x54
 3513 042b 00000000 		.4byte	0
 3514 042f 00000000 		.4byte	0
 3515              		.section	.debug_aranges,"",%progbits
 3516 0000 2C000000 		.4byte	0x2c
 3517 0004 0200     		.2byte	0x2
 3518 0006 00000000 		.4byte	.Ldebug_info0
 3519 000a 04       		.byte	0x4
 3520 000b 00       		.byte	0
 3521 000c 0000     		.2byte	0
 3522 000e 0000     		.2byte	0
 3523 0010 00000000 		.4byte	.LFB97
 3524 0014 38030000 		.4byte	.LFE97-.LFB97
 3525 0018 00000000 		.4byte	.LFB98
 3526 001c 38000000 		.4byte	.LFE98-.LFB98
 3527 0020 00000000 		.4byte	.LFB99
 3528 0024 20010000 		.4byte	.LFE99-.LFB99
 3529 0028 00000000 		.4byte	0
 3530 002c 00000000 		.4byte	0
 3531              		.section	.debug_ranges,"",%progbits
 3532              	.Ldebug_ranges0:
 3533 0000 16000000 		.4byte	.LBB30
 3534 0004 1E030000 		.4byte	.LBE30
 3535 0008 30030000 		.4byte	.LBB31
 3536 000c 32030000 		.4byte	.LBE31
 3537 0010 00000000 		.4byte	0
 3538 0014 00000000 		.4byte	0
 3539 0018 00000000 		.4byte	.LFB97
 3540 001c 38030000 		.4byte	.LFE97
 3541 0020 00000000 		.4byte	.LFB98
 3542 0024 38000000 		.4byte	.LFE98
 3543 0028 00000000 		.4byte	.LFB99
 3544 002c 20010000 		.4byte	.LFE99
 3545 0030 00000000 		.4byte	0
 3546 0034 00000000 		.4byte	0
 3547              		.section	.debug_line,"",%progbits
 3548              	.Ldebug_line0:
 3549 0000 14040000 		.section	.debug_str,"MS",%progbits,1
 3549      02001A02 
 3549      00000201 
 3549      FB0E0D00 
 3549      01010101 
 3550              	.LASF82:
ARM GAS  C:\Users\ikomb\AppData\Local\Temp\cchczmzd.s 			page 88


 3551 0000 7278456E 		.ascii	"rxEnabled\000"
 3551      61626C65 
 3551      6400
 3552              	.LASF141:
 3553 000a 6C6F6349 		.ascii	"locInterruptMask\000"
 3553      6E746572 
 3553      72757074 
 3553      4D61736B 
 3553      00
 3554              	.LASF112:
 3555 001b 72784669 		.ascii	"rxFifoTriggerLevel\000"
 3555      666F5472 
 3555      69676765 
 3555      724C6576 
 3555      656C00
 3556              	.LASF47:
 3557 002e 43595F53 		.ascii	"CY_SYSPM_TIMEOUT\000"
 3557      5953504D 
 3557      5F54494D 
 3557      454F5554 
 3557      00
 3558              	.LASF46:
 3559 003f 43595F53 		.ascii	"CY_SYSPM_BAD_PARAM\000"
 3559      5953504D 
 3559      5F424144 
 3559      5F504152 
 3559      414D00
 3560              	.LASF142:
 3561 0052 6C6F6353 		.ascii	"locState\000"
 3561      74617465 
 3561      00
 3562              	.LASF86:
 3563 005b 65787443 		.ascii	"extClk\000"
 3563      6C6B00
 3564              	.LASF137:
 3565 0062 43795F49 		.ascii	"Cy_I2S_Init\000"
 3565      32535F49 
 3565      6E697400 
 3566              	.LASF8:
 3567 006e 5F5F7569 		.ascii	"__uint8_t\000"
 3567      6E74385F 
 3567      7400
 3568              	.LASF22:
 3569 0078 54585F57 		.ascii	"TX_WATCHDOG\000"
 3569      41544348 
 3569      444F4700 
 3570              	.LASF140:
 3571 0084 6C6F6342 		.ascii	"locBase\000"
 3571      61736500 
 3572              	.LASF16:
 3573 008c 434C4F43 		.ascii	"CLOCK_CTL\000"
 3573      4B5F4354 
 3573      4C00
 3574              	.LASF11:
 3575 0096 6C6F6E67 		.ascii	"long long unsigned int\000"
 3575      206C6F6E 
 3575      6720756E 
ARM GAS  C:\Users\ikomb\AppData\Local\Temp\cchczmzd.s 			page 89


 3575      7369676E 
 3575      65642069 
 3576              	.LASF83:
 3577 00ad 7478446D 		.ascii	"txDmaTrigger\000"
 3577      61547269 
 3577      67676572 
 3577      00
 3578              	.LASF21:
 3579 00ba 54585F43 		.ascii	"TX_CTL\000"
 3579      544C00
 3580              	.LASF1:
 3581 00c1 6C6F6E67 		.ascii	"long long int\000"
 3581      206C6F6E 
 3581      6720696E 
 3581      7400
 3582              	.LASF3:
 3583 00cf 7369676E 		.ascii	"signed char\000"
 3583      65642063 
 3583      68617200 
 3584              	.LASF25:
 3585 00db 52585F57 		.ascii	"RX_WATCHDOG\000"
 3585      41544348 
 3585      444F4700 
 3586              	.LASF61:
 3587 00e7 43595F49 		.ascii	"CY_I2S_BAD_PARAM\000"
 3587      32535F42 
 3587      41445F50 
 3587      4152414D 
 3587      00
 3588              	.LASF144:
 3589 00f8 47656E65 		.ascii	"Generated_Source\\PSoC6\\pdl\\drivers\\peripheral\\"
 3589      72617465 
 3589      645F536F 
 3589      75726365 
 3589      5C50536F 
 3590 0126 6932735C 		.ascii	"i2s\\cy_i2s.c\000"
 3590      63795F69 
 3590      32732E63 
 3590      00
 3591              	.LASF114:
 3592 0133 63795F73 		.ascii	"cy_stc_i2s_config_t\000"
 3592      74635F69 
 3592      32735F63 
 3592      6F6E6669 
 3592      675F7400 
 3593              	.LASF135:
 3594 0147 6368616E 		.ascii	"channels\000"
 3594      6E656C73 
 3594      00
 3595              	.LASF7:
 3596 0150 6C6F6E67 		.ascii	"long int\000"
 3596      20696E74 
 3596      00
 3597              	.LASF111:
 3598 0159 72785369 		.ascii	"rxSignExtension\000"
 3598      676E4578 
 3598      74656E73 
ARM GAS  C:\Users\ikomb\AppData\Local\Temp\cchczmzd.s 			page 90


 3598      696F6E00 
 3599              	.LASF0:
 3600 0169 756E7369 		.ascii	"unsigned int\000"
 3600      676E6564 
 3600      20696E74 
 3600      00
 3601              	.LASF125:
 3602 0176 43795F49 		.ascii	"Cy_I2S_ClearRxFifo\000"
 3602      32535F43 
 3602      6C656172 
 3602      52784669 
 3602      666F00
 3603              	.LASF44:
 3604 0189 646F7562 		.ascii	"double\000"
 3604      6C6500
 3605              	.LASF119:
 3606 0190 43795F49 		.ascii	"Cy_I2S_GetInterruptMask\000"
 3606      32535F47 
 3606      6574496E 
 3606      74657272 
 3606      7570744D 
 3607              	.LASF62:
 3608 01a8 63795F65 		.ascii	"cy_en_i2s_status_t\000"
 3608      6E5F6932 
 3608      735F7374 
 3608      61747573 
 3608      5F7400
 3609              	.LASF123:
 3610 01bb 696E7465 		.ascii	"interrupt\000"
 3610      72727570 
 3610      7400
 3611              	.LASF59:
 3612 01c5 63795F73 		.ascii	"cy_stc_syspm_callback_params_t\000"
 3612      74635F73 
 3612      7973706D 
 3612      5F63616C 
 3612      6C626163 
 3613              	.LASF63:
 3614 01e4 43595F49 		.ascii	"CY_I2S_LEFT_JUSTIFIED\000"
 3614      32535F4C 
 3614      4546545F 
 3614      4A555354 
 3614      49464945 
 3615              	.LASF9:
 3616 01fa 5F5F7569 		.ascii	"__uint32_t\000"
 3616      6E743332 
 3616      5F7400
 3617              	.LASF106:
 3618 0205 72785363 		.ascii	"rxSckoInversion\000"
 3618      6B6F496E 
 3618      76657273 
 3618      696F6E00 
 3619              	.LASF68:
 3620 0215 43595F49 		.ascii	"CY_I2S_LEN8\000"
 3620      32535F4C 
 3620      454E3800 
 3621              	.LASF89:
ARM GAS  C:\Users\ikomb\AppData\Local\Temp\cchczmzd.s 			page 91


 3622 0221 74785773 		.ascii	"txWsPulseWidth\000"
 3622      50756C73 
 3622      65576964 
 3622      746800
 3623              	.LASF81:
 3624 0230 7478456E 		.ascii	"txEnabled\000"
 3624      61626C65 
 3624      6400
 3625              	.LASF65:
 3626 023a 43595F49 		.ascii	"CY_I2S_TDM_MODE_A\000"
 3626      32535F54 
 3626      444D5F4D 
 3626      4F44455F 
 3626      4100
 3627              	.LASF66:
 3628 024c 43595F49 		.ascii	"CY_I2S_TDM_MODE_B\000"
 3628      32535F54 
 3628      444D5F4D 
 3628      4F44455F 
 3628      4200
 3629              	.LASF101:
 3630 025e 7278416C 		.ascii	"rxAlignment\000"
 3630      69676E6D 
 3630      656E7400 
 3631              	.LASF48:
 3632 026a 43595F53 		.ascii	"CY_SYSPM_INVALID_STATE\000"
 3632      5953504D 
 3632      5F494E56 
 3632      414C4944 
 3632      5F535441 
 3633              	.LASF19:
 3634 0281 54525F43 		.ascii	"TR_CTL\000"
 3634      544C00
 3635              	.LASF41:
 3636 0288 63686172 		.ascii	"char_t\000"
 3636      5F7400
 3637              	.LASF92:
 3638 028f 74785364 		.ascii	"txSdoLatchingTime\000"
 3638      6F4C6174 
 3638      6368696E 
 3638      6754696D 
 3638      6500
 3639              	.LASF10:
 3640 02a1 6C6F6E67 		.ascii	"long unsigned int\000"
 3640      20756E73 
 3640      69676E65 
 3640      6420696E 
 3640      7400
 3641              	.LASF109:
 3642 02b3 72784368 		.ascii	"rxChannelLength\000"
 3642      616E6E65 
 3642      6C4C656E 
 3642      67746800 
 3643              	.LASF74:
 3644 02c3 63795F65 		.ascii	"cy_en_i2s_len_t\000"
 3644      6E5F6932 
 3644      735F6C65 
ARM GAS  C:\Users\ikomb\AppData\Local\Temp\cchczmzd.s 			page 92


 3644      6E5F7400 
 3645              	.LASF38:
 3646 02d3 494E5452 		.ascii	"INTR_MASK\000"
 3646      5F4D4153 
 3646      4B00
 3647              	.LASF127:
 3648 02dd 64617461 		.ascii	"data\000"
 3648      00
 3649              	.LASF58:
 3650 02e2 636F6E74 		.ascii	"context\000"
 3650      65787400 
 3651              	.LASF6:
 3652 02ea 73686F72 		.ascii	"short unsigned int\000"
 3652      7420756E 
 3652      7369676E 
 3652      65642069 
 3652      6E7400
 3653              	.LASF79:
 3654 02fd 43595F49 		.ascii	"CY_I2S_WS_ONE_CHANNEL_LENGTH\000"
 3654      32535F57 
 3654      535F4F4E 
 3654      455F4348 
 3654      414E4E45 
 3655              	.LASF122:
 3656 031a 43795F49 		.ascii	"Cy_I2S_SetInterruptMask\000"
 3656      32535F53 
 3656      6574496E 
 3656      74657272 
 3656      7570744D 
 3657              	.LASF139:
 3658 0332 63616C6C 		.ascii	"callbackParams\000"
 3658      6261636B 
 3658      50617261 
 3658      6D7300
 3659              	.LASF54:
 3660 0341 43595F53 		.ascii	"CY_SYSPM_AFTER_TRANSITION\000"
 3660      5953504D 
 3660      5F414654 
 3660      45525F54 
 3660      52414E53 
 3661              	.LASF37:
 3662 035b 494E5452 		.ascii	"INTR_SET\000"
 3662      5F534554 
 3662      00
 3663              	.LASF57:
 3664 0364 62617365 		.ascii	"base\000"
 3664      00
 3665              	.LASF134:
 3666 0369 6368616E 		.ascii	"channelLength\000"
 3666      6E656C4C 
 3666      656E6774 
 3666      6800
 3667              	.LASF28:
 3668 0377 54585F46 		.ascii	"TX_FIFO_STATUS\000"
 3668      49464F5F 
 3668      53544154 
 3668      555300
ARM GAS  C:\Users\ikomb\AppData\Local\Temp\cchczmzd.s 			page 93


 3669              	.LASF14:
 3670 0386 73697A65 		.ascii	"sizetype\000"
 3670      74797065 
 3670      00
 3671              	.LASF88:
 3672 038f 7478416C 		.ascii	"txAlignment\000"
 3672      69676E6D 
 3672      656E7400 
 3673              	.LASF126:
 3674 039b 43795F49 		.ascii	"Cy_I2S_WriteTxData\000"
 3674      32535F57 
 3674      72697465 
 3674      54784461 
 3674      746100
 3675              	.LASF145:
 3676 03ae 433A5C55 		.ascii	"C:\\Users\\ikomb\\Documents\\PSoC Creator\\CE222221"
 3676      73657273 
 3676      5C696B6F 
 3676      6D625C44 
 3676      6F63756D 
 3677 03dc 5F566F69 		.ascii	"_Voice_Recorder01\\CE222221_Voice_Recorder01.cydsn\000"
 3677      63655F52 
 3677      65636F72 
 3677      64657230 
 3677      315C4345 
 3678              	.LASF117:
 3679 040e 63795F73 		.ascii	"cy_stc_i2s_context_t\000"
 3679      74635F69 
 3679      32735F63 
 3679      6F6E7465 
 3679      78745F74 
 3680              	.LASF121:
 3681 0423 43795F49 		.ascii	"Cy_I2S_DisableRx\000"
 3681      32535F44 
 3681      69736162 
 3681      6C655278 
 3681      00
 3682              	.LASF40:
 3683 0434 4932535F 		.ascii	"I2S_Type\000"
 3683      54797065 
 3683      00
 3684              	.LASF36:
 3685 043d 494E5452 		.ascii	"INTR\000"
 3685      00
 3686              	.LASF53:
 3687 0442 43595F53 		.ascii	"CY_SYSPM_BEFORE_TRANSITION\000"
 3687      5953504D 
 3687      5F424546 
 3687      4F52455F 
 3687      5452414E 
 3688              	.LASF69:
 3689 045d 43595F49 		.ascii	"CY_I2S_LEN16\000"
 3689      32535F4C 
 3689      454E3136 
 3689      00
 3690              	.LASF107:
 3691 046a 72785363 		.ascii	"rxSckiInversion\000"
ARM GAS  C:\Users\ikomb\AppData\Local\Temp\cchczmzd.s 			page 94


 3691      6B69496E 
 3691      76657273 
 3691      696F6E00 
 3692              	.LASF70:
 3693 047a 43595F49 		.ascii	"CY_I2S_LEN18\000"
 3693      32535F4C 
 3693      454E3138 
 3693      00
 3694              	.LASF97:
 3695 0487 7478576F 		.ascii	"txWordLength\000"
 3695      72644C65 
 3695      6E677468 
 3695      00
 3696              	.LASF55:
 3697 0494 63795F65 		.ascii	"cy_en_syspm_callback_mode_t\000"
 3697      6E5F7379 
 3697      73706D5F 
 3697      63616C6C 
 3697      6261636B 
 3698              	.LASF39:
 3699 04b0 494E5452 		.ascii	"INTR_MASKED\000"
 3699      5F4D4153 
 3699      4B454400 
 3700              	.LASF43:
 3701 04bc 666C6F61 		.ascii	"float\000"
 3701      7400
 3702              	.LASF116:
 3703 04c2 696E7465 		.ascii	"interruptMask\000"
 3703      72727570 
 3703      744D6173 
 3703      6B00
 3704              	.LASF102:
 3705 04d0 72785773 		.ascii	"rxWsPulseWidth\000"
 3705      50756C73 
 3705      65576964 
 3705      746800
 3706              	.LASF105:
 3707 04df 72785364 		.ascii	"rxSdiLatchingTime\000"
 3707      694C6174 
 3707      6368696E 
 3707      6754696D 
 3707      6500
 3708              	.LASF17:
 3709 04f1 52455345 		.ascii	"RESERVED1\000"
 3709      52564544 
 3709      3100
 3710              	.LASF18:
 3711 04fb 52455345 		.ascii	"RESERVED2\000"
 3711      52564544 
 3711      3200
 3712              	.LASF20:
 3713 0505 52455345 		.ascii	"RESERVED3\000"
 3713      52564544 
 3713      3300
 3714              	.LASF23:
 3715 050f 52455345 		.ascii	"RESERVED4\000"
 3715      52564544 
ARM GAS  C:\Users\ikomb\AppData\Local\Temp\cchczmzd.s 			page 95


 3715      3400
 3716              	.LASF26:
 3717 0519 52455345 		.ascii	"RESERVED5\000"
 3717      52564544 
 3717      3500
 3718              	.LASF30:
 3719 0523 52455345 		.ascii	"RESERVED6\000"
 3719      52564544 
 3719      3600
 3720              	.LASF35:
 3721 052d 52455345 		.ascii	"RESERVED7\000"
 3721      52564544 
 3721      3700
 3722              	.LASF99:
 3723 0537 74784669 		.ascii	"txFifoTriggerLevel\000"
 3723      666F5472 
 3723      69676765 
 3723      724C6576 
 3723      656C00
 3724              	.LASF131:
 3725 054a 43795F49 		.ascii	"Cy_I2S_ClearInterrupt\000"
 3725      32535F43 
 3725      6C656172 
 3725      496E7465 
 3725      72727570 
 3726              	.LASF124:
 3727 0560 43795F49 		.ascii	"Cy_I2S_EnableRx\000"
 3727      32535F45 
 3727      6E61626C 
 3727      65527800 
 3728              	.LASF113:
 3729 0570 5F426F6F 		.ascii	"_Bool\000"
 3729      6C00
 3730              	.LASF4:
 3731 0576 756E7369 		.ascii	"unsigned char\000"
 3731      676E6564 
 3731      20636861 
 3731      7200
 3732              	.LASF96:
 3733 0584 74784368 		.ascii	"txChannelLength\000"
 3733      616E6E65 
 3733      6C4C656E 
 3733      67746800 
 3734              	.LASF27:
 3735 0594 54585F46 		.ascii	"TX_FIFO_CTL\000"
 3735      49464F5F 
 3735      43544C00 
 3736              	.LASF5:
 3737 05a0 73686F72 		.ascii	"short int\000"
 3737      7420696E 
 3737      7400
 3738              	.LASF84:
 3739 05aa 7278446D 		.ascii	"rxDmaTrigger\000"
 3739      61547269 
 3739      67676572 
 3739      00
 3740              	.LASF129:
ARM GAS  C:\Users\ikomb\AppData\Local\Temp\cchczmzd.s 			page 96


 3741 05b7 43795F49 		.ascii	"Cy_I2S_PauseTx\000"
 3741      32535F50 
 3741      61757365 
 3741      547800
 3742              	.LASF71:
 3743 05c6 43595F49 		.ascii	"CY_I2S_LEN20\000"
 3743      32535F4C 
 3743      454E3230 
 3743      00
 3744              	.LASF138:
 3745 05d3 43795F49 		.ascii	"Cy_I2S_DeepSleepCallback\000"
 3745      32535F44 
 3745      65657053 
 3745      6C656570 
 3745      43616C6C 
 3746              	.LASF15:
 3747 05ec 52455345 		.ascii	"RESERVED\000"
 3747      52564544 
 3747      00
 3748              	.LASF72:
 3749 05f5 43595F49 		.ascii	"CY_I2S_LEN24\000"
 3749      32535F4C 
 3749      454E3234 
 3749      00
 3750              	.LASF76:
 3751 0602 43595F49 		.ascii	"CY_I2S_OVHDATA_ONE\000"
 3751      32535F4F 
 3751      56484441 
 3751      54415F4F 
 3751      4E4500
 3752              	.LASF118:
 3753 0615 43795F49 		.ascii	"Cy_I2S_GetCurrentState\000"
 3753      32535F47 
 3753      65744375 
 3753      7272656E 
 3753      74537461 
 3754              	.LASF87:
 3755 062c 74784D61 		.ascii	"txMasterMode\000"
 3755      73746572 
 3755      4D6F6465 
 3755      00
 3756              	.LASF91:
 3757 0639 74785761 		.ascii	"txWatchdogValue\000"
 3757      74636864 
 3757      6F675661 
 3757      6C756500 
 3758              	.LASF108:
 3759 0649 72784368 		.ascii	"rxChannels\000"
 3759      616E6E65 
 3759      6C7300
 3760              	.LASF93:
 3761 0654 74785363 		.ascii	"txSckoInversion\000"
 3761      6B6F496E 
 3761      76657273 
 3761      696F6E00 
 3762              	.LASF95:
 3763 0664 74784368 		.ascii	"txChannels\000"
ARM GAS  C:\Users\ikomb\AppData\Local\Temp\cchczmzd.s 			page 97


 3763      616E6E65 
 3763      6C7300
 3764              	.LASF60:
 3765 066f 43595F49 		.ascii	"CY_I2S_SUCCESS\000"
 3765      32535F53 
 3765      55434345 
 3765      535300
 3766              	.LASF13:
 3767 067e 75696E74 		.ascii	"uint32_t\000"
 3767      33325F74 
 3767      00
 3768              	.LASF143:
 3769 0687 474E5520 		.ascii	"GNU C11 5.4.1 20160609 (release) [ARM/embedded-5-br"
 3769      43313120 
 3769      352E342E 
 3769      31203230 
 3769      31363036 
 3770 06ba 616E6368 		.ascii	"anch revision 237715] -mcpu=cortex-m0plus -mthumb -"
 3770      20726576 
 3770      6973696F 
 3770      6E203233 
 3770      37373135 
 3771 06ed 67202D4F 		.ascii	"g -Og -ffunction-sections -ffat-lto-objects\000"
 3771      67202D66 
 3771      66756E63 
 3771      74696F6E 
 3771      2D736563 
 3772              	.LASF2:
 3773 0719 6C6F6E67 		.ascii	"long double\000"
 3773      20646F75 
 3773      626C6500 
 3774              	.LASF42:
 3775 0725 63686172 		.ascii	"char\000"
 3775      00
 3776              	.LASF56:
 3777 072a 6D6F6465 		.ascii	"mode\000"
 3777      00
 3778              	.LASF31:
 3779 072f 52585F46 		.ascii	"RX_FIFO_CTL\000"
 3779      49464F5F 
 3779      43544C00 
 3780              	.LASF80:
 3781 073b 63795F65 		.ascii	"cy_en_i2s_ws_pw_t\000"
 3781      6E5F6932 
 3781      735F7773 
 3781      5F70775F 
 3781      7400
 3782              	.LASF132:
 3783 074d 636F6E66 		.ascii	"config\000"
 3783      696700
 3784              	.LASF115:
 3785 0754 656E6162 		.ascii	"enableState\000"
 3785      6C655374 
 3785      61746500 
 3786              	.LASF128:
 3787 0760 43795F49 		.ascii	"Cy_I2S_ClearTxFifo\000"
 3787      32535F43 
ARM GAS  C:\Users\ikomb\AppData\Local\Temp\cchczmzd.s 			page 98


 3787      6C656172 
 3787      54784669 
 3787      666F00
 3788              	.LASF146:
 3789 0773 43795F49 		.ascii	"Cy_I2S_DeInit\000"
 3789      32535F44 
 3789      65496E69 
 3789      7400
 3790              	.LASF12:
 3791 0781 75696E74 		.ascii	"uint8_t\000"
 3791      385F7400 
 3792              	.LASF32:
 3793 0789 52585F46 		.ascii	"RX_FIFO_STATUS\000"
 3793      49464F5F 
 3793      53544154 
 3793      555300
 3794              	.LASF120:
 3795 0798 43795F49 		.ascii	"Cy_I2S_DisableTx\000"
 3795      32535F44 
 3795      69736162 
 3795      6C655478 
 3795      00
 3796              	.LASF77:
 3797 07a9 63795F65 		.ascii	"cy_en_i2s_overhead_t\000"
 3797      6E5F6932 
 3797      735F6F76 
 3797      65726865 
 3797      61645F74 
 3798              	.LASF73:
 3799 07be 43595F49 		.ascii	"CY_I2S_LEN32\000"
 3799      32535F4C 
 3799      454E3332 
 3799      00
 3800              	.LASF52:
 3801 07cb 43595F53 		.ascii	"CY_SYSPM_CHECK_FAIL\000"
 3801      5953504D 
 3801      5F434845 
 3801      434B5F46 
 3801      41494C00 
 3802              	.LASF147:
 3803 07df 43795F53 		.ascii	"Cy_SysLib_AssertFailed\000"
 3803      79734C69 
 3803      625F4173 
 3803      73657274 
 3803      4661696C 
 3804              	.LASF33:
 3805 07f6 52585F46 		.ascii	"RX_FIFO_RD\000"
 3805      49464F5F 
 3805      524400
 3806              	.LASF29:
 3807 0801 54585F46 		.ascii	"TX_FIFO_WR\000"
 3807      49464F5F 
 3807      575200
 3808              	.LASF110:
 3809 080c 7278576F 		.ascii	"rxWordLength\000"
 3809      72644C65 
 3809      6E677468 
ARM GAS  C:\Users\ikomb\AppData\Local\Temp\cchczmzd.s 			page 99


 3809      00
 3810              	.LASF49:
 3811 0819 43595F53 		.ascii	"CY_SYSPM_FAIL\000"
 3811      5953504D 
 3811      5F464149 
 3811      4C00
 3812              	.LASF98:
 3813 0827 74784F76 		.ascii	"txOverheadValue\000"
 3813      65726865 
 3813      61645661 
 3813      6C756500 
 3814              	.LASF24:
 3815 0837 52585F43 		.ascii	"RX_CTL\000"
 3815      544C00
 3816              	.LASF85:
 3817 083e 636C6B44 		.ascii	"clkDiv\000"
 3817      697600
 3818              	.LASF78:
 3819 0845 43595F49 		.ascii	"CY_I2S_WS_ONE_SCK_CYCLE\000"
 3819      32535F57 
 3819      535F4F4E 
 3819      455F5343 
 3819      4B5F4359 
 3820              	.LASF130:
 3821 085d 43795F49 		.ascii	"Cy_I2S_EnableTx\000"
 3821      32535F45 
 3821      6E61626C 
 3821      65547800 
 3822              	.LASF67:
 3823 086d 63795F65 		.ascii	"cy_en_i2s_alignment_t\000"
 3823      6E5F6932 
 3823      735F616C 
 3823      69676E6D 
 3823      656E745F 
 3824              	.LASF75:
 3825 0883 43595F49 		.ascii	"CY_I2S_OVHDATA_ZERO\000"
 3825      32535F4F 
 3825      56484441 
 3825      54415F5A 
 3825      45524F00 
 3826              	.LASF45:
 3827 0897 43595F53 		.ascii	"CY_SYSPM_SUCCESS\000"
 3827      5953504D 
 3827      5F535543 
 3827      43455353 
 3827      00
 3828              	.LASF90:
 3829 08a8 74785761 		.ascii	"txWatchdogEnable\000"
 3829      74636864 
 3829      6F67456E 
 3829      61626C65 
 3829      00
 3830              	.LASF51:
 3831 08b9 43595F53 		.ascii	"CY_SYSPM_CHECK_READY\000"
 3831      5953504D 
 3831      5F434845 
 3831      434B5F52 
ARM GAS  C:\Users\ikomb\AppData\Local\Temp\cchczmzd.s 			page 100


 3831      45414459 
 3832              	.LASF34:
 3833 08ce 52585F46 		.ascii	"RX_FIFO_RD_SILENT\000"
 3833      49464F5F 
 3833      52445F53 
 3833      494C454E 
 3833      5400
 3834              	.LASF104:
 3835 08e0 72785761 		.ascii	"rxWatchdogValue\000"
 3835      74636864 
 3835      6F675661 
 3835      6C756500 
 3836              	.LASF50:
 3837 08f0 63795F65 		.ascii	"cy_en_syspm_status_t\000"
 3837      6E5F7379 
 3837      73706D5F 
 3837      73746174 
 3837      75735F74 
 3838              	.LASF136:
 3839 0905 636C6F63 		.ascii	"clockDiv\000"
 3839      6B446976 
 3839      00
 3840              	.LASF94:
 3841 090e 74785363 		.ascii	"txSckiInversion\000"
 3841      6B69496E 
 3841      76657273 
 3841      696F6E00 
 3842              	.LASF100:
 3843 091e 72784D61 		.ascii	"rxMasterMode\000"
 3843      73746572 
 3843      4D6F6465 
 3843      00
 3844              	.LASF103:
 3845 092b 72785761 		.ascii	"rxWatchdogEnable\000"
 3845      74636864 
 3845      6F67456E 
 3845      61626C65 
 3845      00
 3846              	.LASF133:
 3847 093c 77735075 		.ascii	"wsPulseWidth\000"
 3847      6C736557 
 3847      69647468 
 3847      00
 3848              	.LASF64:
 3849 0949 43595F49 		.ascii	"CY_I2S_I2S_MODE\000"
 3849      32535F49 
 3849      32535F4D 
 3849      4F444500 
 3850              		.ident	"GCC: (GNU Tools for ARM Embedded Processors) 5.4.1 20160609 (release) [ARM/embedded-5-bran
