ARM GAS  C:\Users\ikomb\AppData\Local\Temp\cc5YtlHT.s 			page 1


   1              		.syntax unified
   2              		.cpu cortex-m0plus
   3              		.fpu softvfp
   4              		.eabi_attribute 20, 1
   5              		.eabi_attribute 21, 1
   6              		.eabi_attribute 23, 3
   7              		.eabi_attribute 24, 1
   8              		.eabi_attribute 25, 1
   9              		.eabi_attribute 26, 1
  10              		.eabi_attribute 30, 1
  11              		.eabi_attribute 34, 0
  12              		.eabi_attribute 18, 4
  13              		.thumb
  14              		.syntax unified
  15              		.file	"cy_smif_memslot.c"
  16              		.text
  17              	.Ltext0:
  18              		.cfi_sections	.debug_frame
  19              		.section	.text.Cy_SMIF_Memslot_XipRegInit,"ax",%progbits
  20              		.align	2
  21              		.code	16
  22              		.thumb_func
  23              		.type	Cy_SMIF_Memslot_XipRegInit, %function
  24              	Cy_SMIF_Memslot_XipRegInit:
  25              	.LFB90:
  26              		.file 1 "Generated_Source\\PSoC6\\pdl\\drivers\\peripheral\\smif\\cy_smif_memslot.c"
   1:Generated_Source\PSoC6\pdl\drivers\peripheral\smif/cy_smif_memslot.c **** /***************************************************************************//**
   2:Generated_Source\PSoC6\pdl\drivers\peripheral\smif/cy_smif_memslot.c **** * \file cy_smif_memslot.c
   3:Generated_Source\PSoC6\pdl\drivers\peripheral\smif/cy_smif_memslot.c **** * \version 1.10.1
   4:Generated_Source\PSoC6\pdl\drivers\peripheral\smif/cy_smif_memslot.c **** *
   5:Generated_Source\PSoC6\pdl\drivers\peripheral\smif/cy_smif_memslot.c **** * \brief
   6:Generated_Source\PSoC6\pdl\drivers\peripheral\smif/cy_smif_memslot.c **** *  This file provides the source code for the memory-level APIs of the SMIF driver.
   7:Generated_Source\PSoC6\pdl\drivers\peripheral\smif/cy_smif_memslot.c **** *
   8:Generated_Source\PSoC6\pdl\drivers\peripheral\smif/cy_smif_memslot.c **** * Note:
   9:Generated_Source\PSoC6\pdl\drivers\peripheral\smif/cy_smif_memslot.c **** *
  10:Generated_Source\PSoC6\pdl\drivers\peripheral\smif/cy_smif_memslot.c **** ********************************************************************************
  11:Generated_Source\PSoC6\pdl\drivers\peripheral\smif/cy_smif_memslot.c **** * \copyright
  12:Generated_Source\PSoC6\pdl\drivers\peripheral\smif/cy_smif_memslot.c **** * Copyright 2016-2018, Cypress Semiconductor Corporation.  All rights reserved.
  13:Generated_Source\PSoC6\pdl\drivers\peripheral\smif/cy_smif_memslot.c **** * You may use this file only in accordance with the license, terms, conditions,
  14:Generated_Source\PSoC6\pdl\drivers\peripheral\smif/cy_smif_memslot.c **** * disclaimers, and limitations in the end user license agreement accompanying
  15:Generated_Source\PSoC6\pdl\drivers\peripheral\smif/cy_smif_memslot.c **** * the software package with which this file was provided.
  16:Generated_Source\PSoC6\pdl\drivers\peripheral\smif/cy_smif_memslot.c **** *******************************************************************************/
  17:Generated_Source\PSoC6\pdl\drivers\peripheral\smif/cy_smif_memslot.c **** 
  18:Generated_Source\PSoC6\pdl\drivers\peripheral\smif/cy_smif_memslot.c **** #include "cy_smif_memslot.h"
  19:Generated_Source\PSoC6\pdl\drivers\peripheral\smif/cy_smif_memslot.c **** 
  20:Generated_Source\PSoC6\pdl\drivers\peripheral\smif/cy_smif_memslot.c **** #if defined(__cplusplus)
  21:Generated_Source\PSoC6\pdl\drivers\peripheral\smif/cy_smif_memslot.c **** extern "C" {
  22:Generated_Source\PSoC6\pdl\drivers\peripheral\smif/cy_smif_memslot.c **** #endif
  23:Generated_Source\PSoC6\pdl\drivers\peripheral\smif/cy_smif_memslot.c **** 
  24:Generated_Source\PSoC6\pdl\drivers\peripheral\smif/cy_smif_memslot.c **** /***************************************
  25:Generated_Source\PSoC6\pdl\drivers\peripheral\smif/cy_smif_memslot.c **** *     Function Prototypes
  26:Generated_Source\PSoC6\pdl\drivers\peripheral\smif/cy_smif_memslot.c **** ***************************************/
  27:Generated_Source\PSoC6\pdl\drivers\peripheral\smif/cy_smif_memslot.c **** static void Cy_SMIF_Memslot_XipRegInit(SMIF_DEVICE_Type volatile *dev,
  28:Generated_Source\PSoC6\pdl\drivers\peripheral\smif/cy_smif_memslot.c ****                             cy_stc_smif_mem_config_t const * memCfg);
  29:Generated_Source\PSoC6\pdl\drivers\peripheral\smif/cy_smif_memslot.c **** 
  30:Generated_Source\PSoC6\pdl\drivers\peripheral\smif/cy_smif_memslot.c **** 
  31:Generated_Source\PSoC6\pdl\drivers\peripheral\smif/cy_smif_memslot.c **** /*******************************************************************************
ARM GAS  C:\Users\ikomb\AppData\Local\Temp\cc5YtlHT.s 			page 2


  32:Generated_Source\PSoC6\pdl\drivers\peripheral\smif/cy_smif_memslot.c **** * Function Name: Cy_SMIF_Memslot_Init
  33:Generated_Source\PSoC6\pdl\drivers\peripheral\smif/cy_smif_memslot.c **** ****************************************************************************//**
  34:Generated_Source\PSoC6\pdl\drivers\peripheral\smif/cy_smif_memslot.c **** *
  35:Generated_Source\PSoC6\pdl\drivers\peripheral\smif/cy_smif_memslot.c **** * This function initializes the slots of the memory device in the SMIF
  36:Generated_Source\PSoC6\pdl\drivers\peripheral\smif/cy_smif_memslot.c **** * configuration. After this initialization, the memory slave devices are
  37:Generated_Source\PSoC6\pdl\drivers\peripheral\smif/cy_smif_memslot.c **** * automatically mapped into the PSoC memory map. The function needs the SMIF
  38:Generated_Source\PSoC6\pdl\drivers\peripheral\smif/cy_smif_memslot.c **** * to be running in the memory mode to have the memory mapped into the PSoC
  39:Generated_Source\PSoC6\pdl\drivers\peripheral\smif/cy_smif_memslot.c **** * address space. This function is typically called in the System initialization
  40:Generated_Source\PSoC6\pdl\drivers\peripheral\smif/cy_smif_memslot.c **** * phase to initialize all the memory-mapped SMIF devices.
  41:Generated_Source\PSoC6\pdl\drivers\peripheral\smif/cy_smif_memslot.c **** * This function only configures the memory device portion of the SMIF
  42:Generated_Source\PSoC6\pdl\drivers\peripheral\smif/cy_smif_memslot.c **** * initialization and therefore assumes that the SMIF blocks initialization is
  43:Generated_Source\PSoC6\pdl\drivers\peripheral\smif/cy_smif_memslot.c **** * achieved using Cy_SMIF_Init(). The cy_stc_smif_context_t context structure
  44:Generated_Source\PSoC6\pdl\drivers\peripheral\smif/cy_smif_memslot.c **** * returned from Cy_SMIF_Init() is passed as a parameter to this function.
  45:Generated_Source\PSoC6\pdl\drivers\peripheral\smif/cy_smif_memslot.c **** * This function calls the \ref Cy_SMIF_Memslot_SfdpDetect() function for each
  46:Generated_Source\PSoC6\pdl\drivers\peripheral\smif/cy_smif_memslot.c **** * element of the \ref cy_stc_smif_mem_config_t memConfig array and fills the memory                
  47:Generated_Source\PSoC6\pdl\drivers\peripheral\smif/cy_smif_memslot.c **** * parameters if the autoDetectSfdp field is enabled in \ref cy_stc_smif_mem_config_t.
  48:Generated_Source\PSoC6\pdl\drivers\peripheral\smif/cy_smif_memslot.c **** * The filled memConfig is a part of the \ref cy_stc_smif_block_config_t * blockConfig
  49:Generated_Source\PSoC6\pdl\drivers\peripheral\smif/cy_smif_memslot.c **** * structure. The function expects that all the requirements of
  50:Generated_Source\PSoC6\pdl\drivers\peripheral\smif/cy_smif_memslot.c **** *  \ref Cy_SMIF_Memslot_SfdpDetect() is provided.
  51:Generated_Source\PSoC6\pdl\drivers\peripheral\smif/cy_smif_memslot.c **** *
  52:Generated_Source\PSoC6\pdl\drivers\peripheral\smif/cy_smif_memslot.c **** * \param base
  53:Generated_Source\PSoC6\pdl\drivers\peripheral\smif/cy_smif_memslot.c **** * The address of the slave-slot device register to initialize.
  54:Generated_Source\PSoC6\pdl\drivers\peripheral\smif/cy_smif_memslot.c **** *
  55:Generated_Source\PSoC6\pdl\drivers\peripheral\smif/cy_smif_memslot.c **** * \param context
  56:Generated_Source\PSoC6\pdl\drivers\peripheral\smif/cy_smif_memslot.c **** * The SMIF internal context structure of the block.
  57:Generated_Source\PSoC6\pdl\drivers\peripheral\smif/cy_smif_memslot.c **** *
  58:Generated_Source\PSoC6\pdl\drivers\peripheral\smif/cy_smif_memslot.c **** * \param blockConfig
  59:Generated_Source\PSoC6\pdl\drivers\peripheral\smif/cy_smif_memslot.c **** * The configuration structure array that configures the SMIF memory device to be
  60:Generated_Source\PSoC6\pdl\drivers\peripheral\smif/cy_smif_memslot.c **** * mapped into the PSoC memory map. \ref cy_stc_smif_mem_config_t
  61:Generated_Source\PSoC6\pdl\drivers\peripheral\smif/cy_smif_memslot.c **** *
  62:Generated_Source\PSoC6\pdl\drivers\peripheral\smif/cy_smif_memslot.c **** * \return The memory slot initialization status.
  63:Generated_Source\PSoC6\pdl\drivers\peripheral\smif/cy_smif_memslot.c **** *       - \ref CY_SMIF_SUCCESS
  64:Generated_Source\PSoC6\pdl\drivers\peripheral\smif/cy_smif_memslot.c **** *       - \ref CY_SMIF_BAD_PARAM
  65:Generated_Source\PSoC6\pdl\drivers\peripheral\smif/cy_smif_memslot.c **** *
  66:Generated_Source\PSoC6\pdl\drivers\peripheral\smif/cy_smif_memslot.c **** *******************************************************************************/
  67:Generated_Source\PSoC6\pdl\drivers\peripheral\smif/cy_smif_memslot.c **** cy_en_smif_status_t Cy_SMIF_Memslot_Init(SMIF_Type *base,
  68:Generated_Source\PSoC6\pdl\drivers\peripheral\smif/cy_smif_memslot.c ****                             cy_stc_smif_block_config_t * const blockConfig,
  69:Generated_Source\PSoC6\pdl\drivers\peripheral\smif/cy_smif_memslot.c ****                             cy_stc_smif_context_t *context)
  70:Generated_Source\PSoC6\pdl\drivers\peripheral\smif/cy_smif_memslot.c **** {
  71:Generated_Source\PSoC6\pdl\drivers\peripheral\smif/cy_smif_memslot.c ****     SMIF_DEVICE_Type volatile * device;
  72:Generated_Source\PSoC6\pdl\drivers\peripheral\smif/cy_smif_memslot.c ****     cy_stc_smif_mem_config_t const * memCfg;
  73:Generated_Source\PSoC6\pdl\drivers\peripheral\smif/cy_smif_memslot.c ****     uint32_t result = (uint32_t)CY_SMIF_BAD_PARAM;
  74:Generated_Source\PSoC6\pdl\drivers\peripheral\smif/cy_smif_memslot.c ****     uint32_t sfdpRes =(uint32_t)CY_SMIF_SUCCESS;
  75:Generated_Source\PSoC6\pdl\drivers\peripheral\smif/cy_smif_memslot.c ****     uint32_t idx;
  76:Generated_Source\PSoC6\pdl\drivers\peripheral\smif/cy_smif_memslot.c **** 
  77:Generated_Source\PSoC6\pdl\drivers\peripheral\smif/cy_smif_memslot.c ****     if ((NULL != base) && (NULL != blockConfig) && (NULL != blockConfig->memConfig) 
  78:Generated_Source\PSoC6\pdl\drivers\peripheral\smif/cy_smif_memslot.c ****         && (NULL != context) && (0U != blockConfig->memCount))
  79:Generated_Source\PSoC6\pdl\drivers\peripheral\smif/cy_smif_memslot.c ****     {
  80:Generated_Source\PSoC6\pdl\drivers\peripheral\smif/cy_smif_memslot.c ****         uint32_t size = blockConfig->memCount;
  81:Generated_Source\PSoC6\pdl\drivers\peripheral\smif/cy_smif_memslot.c ****         cy_stc_smif_mem_config_t** extMemCfg = blockConfig->memConfig;
  82:Generated_Source\PSoC6\pdl\drivers\peripheral\smif/cy_smif_memslot.c **** 
  83:Generated_Source\PSoC6\pdl\drivers\peripheral\smif/cy_smif_memslot.c ****         result = (uint32_t)CY_SMIF_SUCCESS;
  84:Generated_Source\PSoC6\pdl\drivers\peripheral\smif/cy_smif_memslot.c ****         for(idx = 0UL; idx < size; idx++)
  85:Generated_Source\PSoC6\pdl\drivers\peripheral\smif/cy_smif_memslot.c ****         {
  86:Generated_Source\PSoC6\pdl\drivers\peripheral\smif/cy_smif_memslot.c ****             memCfg = extMemCfg[idx];
  87:Generated_Source\PSoC6\pdl\drivers\peripheral\smif/cy_smif_memslot.c ****             if (NULL != memCfg)
  88:Generated_Source\PSoC6\pdl\drivers\peripheral\smif/cy_smif_memslot.c ****             {
ARM GAS  C:\Users\ikomb\AppData\Local\Temp\cc5YtlHT.s 			page 3


  89:Generated_Source\PSoC6\pdl\drivers\peripheral\smif/cy_smif_memslot.c ****                 /* Check smif memory slot configuration*/
  90:Generated_Source\PSoC6\pdl\drivers\peripheral\smif/cy_smif_memslot.c ****                 CY_ASSERT_L3(CY_SMIF_SLAVE_SEL_VALID(memCfg->slaveSelect));
  91:Generated_Source\PSoC6\pdl\drivers\peripheral\smif/cy_smif_memslot.c ****                 CY_ASSERT_L3(CY_SMIF_DATA_SEL_VALID(memCfg->dataSelect));
  92:Generated_Source\PSoC6\pdl\drivers\peripheral\smif/cy_smif_memslot.c ****                 CY_ASSERT_L1(NULL != memCfg->deviceCfg);
  93:Generated_Source\PSoC6\pdl\drivers\peripheral\smif/cy_smif_memslot.c ****                 CY_ASSERT_L2(CY_SMIF_MEM_ADDR_SIZE_VALID(memCfg->deviceCfg->numOfAddrBytes));
  94:Generated_Source\PSoC6\pdl\drivers\peripheral\smif/cy_smif_memslot.c ****                 
  95:Generated_Source\PSoC6\pdl\drivers\peripheral\smif/cy_smif_memslot.c ****                 device = Cy_SMIF_GetDeviceBySlot(base, memCfg->slaveSelect);
  96:Generated_Source\PSoC6\pdl\drivers\peripheral\smif/cy_smif_memslot.c ****                 if (NULL != device)
  97:Generated_Source\PSoC6\pdl\drivers\peripheral\smif/cy_smif_memslot.c ****                 {
  98:Generated_Source\PSoC6\pdl\drivers\peripheral\smif/cy_smif_memslot.c ****                     /* The slave-slot initialization of the device control register.
  99:Generated_Source\PSoC6\pdl\drivers\peripheral\smif/cy_smif_memslot.c ****                      * Cy_SMIF_Memslot_SfdpDetect() must work */
 100:Generated_Source\PSoC6\pdl\drivers\peripheral\smif/cy_smif_memslot.c ****                     device->CTL = _CLR_SET_FLD32U(device->CTL,
 101:Generated_Source\PSoC6\pdl\drivers\peripheral\smif/cy_smif_memslot.c ****                                                 SMIF_DEVICE_CTL_DATA_SEL,
 102:Generated_Source\PSoC6\pdl\drivers\peripheral\smif/cy_smif_memslot.c ****                                                 (uint32_t)memCfg->dataSelect);
 103:Generated_Source\PSoC6\pdl\drivers\peripheral\smif/cy_smif_memslot.c ****                     uint32_t sfdpRet = (uint32_t)CY_SMIF_SUCCESS;
 104:Generated_Source\PSoC6\pdl\drivers\peripheral\smif/cy_smif_memslot.c ****                     if (0U != (memCfg->flags & CY_SMIF_FLAG_DETECT_SFDP))
 105:Generated_Source\PSoC6\pdl\drivers\peripheral\smif/cy_smif_memslot.c ****                     {
 106:Generated_Source\PSoC6\pdl\drivers\peripheral\smif/cy_smif_memslot.c ****                         sfdpRet = (uint32_t)Cy_SMIF_Memslot_SfdpDetect(base,
 107:Generated_Source\PSoC6\pdl\drivers\peripheral\smif/cy_smif_memslot.c ****                                                 memCfg->deviceCfg,
 108:Generated_Source\PSoC6\pdl\drivers\peripheral\smif/cy_smif_memslot.c ****                                                 memCfg->slaveSelect,
 109:Generated_Source\PSoC6\pdl\drivers\peripheral\smif/cy_smif_memslot.c ****                                                 memCfg->dataSelect,
 110:Generated_Source\PSoC6\pdl\drivers\peripheral\smif/cy_smif_memslot.c ****                                                 context);
 111:Generated_Source\PSoC6\pdl\drivers\peripheral\smif/cy_smif_memslot.c ****                         if((uint32_t)CY_SMIF_SUCCESS != sfdpRet)
 112:Generated_Source\PSoC6\pdl\drivers\peripheral\smif/cy_smif_memslot.c ****                         {
 113:Generated_Source\PSoC6\pdl\drivers\peripheral\smif/cy_smif_memslot.c ****                             sfdpRes |=  ((uint32_t)CY_SMIF_SFDP_FAIL << idx);
 114:Generated_Source\PSoC6\pdl\drivers\peripheral\smif/cy_smif_memslot.c ****                         }
 115:Generated_Source\PSoC6\pdl\drivers\peripheral\smif/cy_smif_memslot.c ****                     }
 116:Generated_Source\PSoC6\pdl\drivers\peripheral\smif/cy_smif_memslot.c ****                     if (((uint32_t)CY_SMIF_SUCCESS == sfdpRet) &&
 117:Generated_Source\PSoC6\pdl\drivers\peripheral\smif/cy_smif_memslot.c ****                             (0U != (memCfg->flags & CY_SMIF_FLAG_MEMORY_MAPPED)))
 118:Generated_Source\PSoC6\pdl\drivers\peripheral\smif/cy_smif_memslot.c ****                     {
 119:Generated_Source\PSoC6\pdl\drivers\peripheral\smif/cy_smif_memslot.c ****                         /* Check valid parameters for XIP */
 120:Generated_Source\PSoC6\pdl\drivers\peripheral\smif/cy_smif_memslot.c ****                         CY_ASSERT_L3(CY_SMIF_MEM_ADDR_VALID( memCfg->baseAddress, memCfg->memMapped
 121:Generated_Source\PSoC6\pdl\drivers\peripheral\smif/cy_smif_memslot.c ****                         CY_ASSERT_L3(CY_SMIF_MEM_MAPPED_SIZE_VALID( memCfg->memMappedSize));
 122:Generated_Source\PSoC6\pdl\drivers\peripheral\smif/cy_smif_memslot.c ****                         
 123:Generated_Source\PSoC6\pdl\drivers\peripheral\smif/cy_smif_memslot.c ****                         Cy_SMIF_Memslot_XipRegInit(device, memCfg);
 124:Generated_Source\PSoC6\pdl\drivers\peripheral\smif/cy_smif_memslot.c **** 
 125:Generated_Source\PSoC6\pdl\drivers\peripheral\smif/cy_smif_memslot.c ****                         /* The device control register initialization */
 126:Generated_Source\PSoC6\pdl\drivers\peripheral\smif/cy_smif_memslot.c ****                         device->CTL = (memCfg->flags & CY_SMIF_FLAG_WR_EN) |
 127:Generated_Source\PSoC6\pdl\drivers\peripheral\smif/cy_smif_memslot.c ****                                       (memCfg->flags & CY_SMIF_FLAG_CRYPTO_EN) |
 128:Generated_Source\PSoC6\pdl\drivers\peripheral\smif/cy_smif_memslot.c ****                                       _VAL2FLD(SMIF_DEVICE_CTL_DATA_SEL,  (uint32_t)memCfg->dataSel
 129:Generated_Source\PSoC6\pdl\drivers\peripheral\smif/cy_smif_memslot.c ****                                       SMIF_DEVICE_CTL_ENABLED_Msk;
 130:Generated_Source\PSoC6\pdl\drivers\peripheral\smif/cy_smif_memslot.c ****                     }
 131:Generated_Source\PSoC6\pdl\drivers\peripheral\smif/cy_smif_memslot.c **** 
 132:Generated_Source\PSoC6\pdl\drivers\peripheral\smif/cy_smif_memslot.c ****                     /* Read the register to flush the buffer */
 133:Generated_Source\PSoC6\pdl\drivers\peripheral\smif/cy_smif_memslot.c ****                     (void) device->CTL;
 134:Generated_Source\PSoC6\pdl\drivers\peripheral\smif/cy_smif_memslot.c ****                 }
 135:Generated_Source\PSoC6\pdl\drivers\peripheral\smif/cy_smif_memslot.c ****                 else
 136:Generated_Source\PSoC6\pdl\drivers\peripheral\smif/cy_smif_memslot.c ****                 {
 137:Generated_Source\PSoC6\pdl\drivers\peripheral\smif/cy_smif_memslot.c ****                     result = (uint32_t)CY_SMIF_BAD_PARAM;
 138:Generated_Source\PSoC6\pdl\drivers\peripheral\smif/cy_smif_memslot.c ****                     break;
 139:Generated_Source\PSoC6\pdl\drivers\peripheral\smif/cy_smif_memslot.c ****                 }
 140:Generated_Source\PSoC6\pdl\drivers\peripheral\smif/cy_smif_memslot.c ****             }
 141:Generated_Source\PSoC6\pdl\drivers\peripheral\smif/cy_smif_memslot.c ****         }
 142:Generated_Source\PSoC6\pdl\drivers\peripheral\smif/cy_smif_memslot.c ****     }
 143:Generated_Source\PSoC6\pdl\drivers\peripheral\smif/cy_smif_memslot.c ****     if((uint32_t)CY_SMIF_SUCCESS != sfdpRes)
 144:Generated_Source\PSoC6\pdl\drivers\peripheral\smif/cy_smif_memslot.c ****     {
 145:Generated_Source\PSoC6\pdl\drivers\peripheral\smif/cy_smif_memslot.c ****         result = CY_SMIF_ID | CY_PDL_STATUS_ERROR | sfdpRes;
ARM GAS  C:\Users\ikomb\AppData\Local\Temp\cc5YtlHT.s 			page 4


 146:Generated_Source\PSoC6\pdl\drivers\peripheral\smif/cy_smif_memslot.c ****     }
 147:Generated_Source\PSoC6\pdl\drivers\peripheral\smif/cy_smif_memslot.c ****     return (cy_en_smif_status_t) result;
 148:Generated_Source\PSoC6\pdl\drivers\peripheral\smif/cy_smif_memslot.c **** }
 149:Generated_Source\PSoC6\pdl\drivers\peripheral\smif/cy_smif_memslot.c **** 
 150:Generated_Source\PSoC6\pdl\drivers\peripheral\smif/cy_smif_memslot.c **** 
 151:Generated_Source\PSoC6\pdl\drivers\peripheral\smif/cy_smif_memslot.c **** /*******************************************************************************
 152:Generated_Source\PSoC6\pdl\drivers\peripheral\smif/cy_smif_memslot.c **** * Function Name: Cy_SMIF_Memslot_XipRegInit
 153:Generated_Source\PSoC6\pdl\drivers\peripheral\smif/cy_smif_memslot.c **** ****************************************************************************//**
 154:Generated_Source\PSoC6\pdl\drivers\peripheral\smif/cy_smif_memslot.c **** *
 155:Generated_Source\PSoC6\pdl\drivers\peripheral\smif/cy_smif_memslot.c **** * \internal
 156:Generated_Source\PSoC6\pdl\drivers\peripheral\smif/cy_smif_memslot.c **** * This function initializes the memory device registers used for the XIP mode of
 157:Generated_Source\PSoC6\pdl\drivers\peripheral\smif/cy_smif_memslot.c **** * the specified device.
 158:Generated_Source\PSoC6\pdl\drivers\peripheral\smif/cy_smif_memslot.c **** *
 159:Generated_Source\PSoC6\pdl\drivers\peripheral\smif/cy_smif_memslot.c **** * \param dev
 160:Generated_Source\PSoC6\pdl\drivers\peripheral\smif/cy_smif_memslot.c **** * The SMIF memory device registers structure. \ref SMIF_DEVICE_Type
 161:Generated_Source\PSoC6\pdl\drivers\peripheral\smif/cy_smif_memslot.c **** *
 162:Generated_Source\PSoC6\pdl\drivers\peripheral\smif/cy_smif_memslot.c **** * \param memCfg
 163:Generated_Source\PSoC6\pdl\drivers\peripheral\smif/cy_smif_memslot.c **** * The memory configuration structure that configures the SMIF memory device to
 164:Generated_Source\PSoC6\pdl\drivers\peripheral\smif/cy_smif_memslot.c **** *  map into the PSoC memory map. \ref cy_stc_smif_mem_config_t
 165:Generated_Source\PSoC6\pdl\drivers\peripheral\smif/cy_smif_memslot.c **** *
 166:Generated_Source\PSoC6\pdl\drivers\peripheral\smif/cy_smif_memslot.c **** *******************************************************************************/
 167:Generated_Source\PSoC6\pdl\drivers\peripheral\smif/cy_smif_memslot.c **** static void Cy_SMIF_Memslot_XipRegInit(SMIF_DEVICE_Type volatile *dev,
 168:Generated_Source\PSoC6\pdl\drivers\peripheral\smif/cy_smif_memslot.c ****                             cy_stc_smif_mem_config_t const * memCfg)
 169:Generated_Source\PSoC6\pdl\drivers\peripheral\smif/cy_smif_memslot.c **** {
  27              		.loc 1 169 0
  28              		.cfi_startproc
  29              		@ args = 0, pretend = 0, frame = 0
  30              		@ frame_needed = 0, uses_anonymous_args = 0
  31              	.LVL0:
  32 0000 70B5     		push	{r4, r5, r6, lr}
  33              		.cfi_def_cfa_offset 16
  34              		.cfi_offset 4, -16
  35              		.cfi_offset 5, -12
  36              		.cfi_offset 6, -8
  37              		.cfi_offset 14, -4
 170:Generated_Source\PSoC6\pdl\drivers\peripheral\smif/cy_smif_memslot.c ****     cy_stc_smif_mem_device_cfg_t const * devCfg = memCfg->deviceCfg;
  38              		.loc 1 170 0
  39 0002 8D69     		ldr	r5, [r1, #24]
  40              	.LVL1:
 171:Generated_Source\PSoC6\pdl\drivers\peripheral\smif/cy_smif_memslot.c ****     cy_stc_smif_mem_cmd_t const * read = devCfg->readCmd;
  41              		.loc 1 171 0
  42 0004 AC68     		ldr	r4, [r5, #8]
  43              	.LVL2:
 172:Generated_Source\PSoC6\pdl\drivers\peripheral\smif/cy_smif_memslot.c ****     cy_stc_smif_mem_cmd_t const * prog = devCfg->programCmd;
  44              		.loc 1 172 0
  45 0006 2A6A     		ldr	r2, [r5, #32]
  46              	.LVL3:
 173:Generated_Source\PSoC6\pdl\drivers\peripheral\smif/cy_smif_memslot.c **** 
 174:Generated_Source\PSoC6\pdl\drivers\peripheral\smif/cy_smif_memslot.c ****     dev->ADDR = (SMIF_DEVICE_ADDR_ADDR_Msk & memCfg->baseAddress);
  47              		.loc 1 174 0
  48 0008 FF26     		movs	r6, #255
  49 000a CB68     		ldr	r3, [r1, #12]
  50 000c B343     		bics	r3, r6
  51 000e 8360     		str	r3, [r0, #8]
 175:Generated_Source\PSoC6\pdl\drivers\peripheral\smif/cy_smif_memslot.c ****     /* Convert the size in the mask*/
 176:Generated_Source\PSoC6\pdl\drivers\peripheral\smif/cy_smif_memslot.c ****     dev->MASK = (SMIF_DEVICE_MASK_MASK_Msk & (~(memCfg->memMappedSize) + 1UL));
  52              		.loc 1 176 0
ARM GAS  C:\Users\ikomb\AppData\Local\Temp\cc5YtlHT.s 			page 5


  53 0010 0B69     		ldr	r3, [r1, #16]
  54 0012 5B42     		rsbs	r3, r3, #0
  55 0014 B343     		bics	r3, r6
  56 0016 C360     		str	r3, [r0, #12]
 177:Generated_Source\PSoC6\pdl\drivers\peripheral\smif/cy_smif_memslot.c **** 
 178:Generated_Source\PSoC6\pdl\drivers\peripheral\smif/cy_smif_memslot.c ****     dev->ADDR_CTL = _VAL2FLD(SMIF_DEVICE_ADDR_CTL_SIZE2, (devCfg->numOfAddrBytes - 1UL)) |
  57              		.loc 1 178 0
  58 0018 2B68     		ldr	r3, [r5]
  59 001a 013B     		subs	r3, r3, #1
  60 001c 0325     		movs	r5, #3
  61              	.LVL4:
  62 001e 2B40     		ands	r3, r5
 179:Generated_Source\PSoC6\pdl\drivers\peripheral\smif/cy_smif_memslot.c ****                    ((0UL != memCfg->dualQuadSlots)? SMIF_DEVICE_ADDR_CTL_DIV2_Msk: 0UL);
  63              		.loc 1 179 0
  64 0020 4969     		ldr	r1, [r1, #20]
  65              	.LVL5:
  66 0022 0029     		cmp	r1, #0
  67 0024 01D0     		beq	.L2
  68 0026 8021     		movs	r1, #128
  69 0028 4900     		lsls	r1, r1, #1
  70              	.L2:
 178:Generated_Source\PSoC6\pdl\drivers\peripheral\smif/cy_smif_memslot.c ****                    ((0UL != memCfg->dualQuadSlots)? SMIF_DEVICE_ADDR_CTL_DIV2_Msk: 0UL);
  71              		.loc 1 178 0
  72 002a 0B43     		orrs	r3, r1
  73 002c 0362     		str	r3, [r0, #32]
 180:Generated_Source\PSoC6\pdl\drivers\peripheral\smif/cy_smif_memslot.c **** 
 181:Generated_Source\PSoC6\pdl\drivers\peripheral\smif/cy_smif_memslot.c ****     dev->RD_CMD_CTL = (CY_SMIF_NO_COMMAND_OR_MODE != read->command)?
  74              		.loc 1 181 0
  75 002e 2368     		ldr	r3, [r4]
 182:Generated_Source\PSoC6\pdl\drivers\peripheral\smif/cy_smif_memslot.c ****                         (_VAL2FLD(SMIF_DEVICE_RD_CMD_CTL_CODE,  (uint32_t)read->command)  |
 183:Generated_Source\PSoC6\pdl\drivers\peripheral\smif/cy_smif_memslot.c ****                          _VAL2FLD(SMIF_DEVICE_RD_CMD_CTL_WIDTH, (uint32_t)read->cmdWidth) |
 184:Generated_Source\PSoC6\pdl\drivers\peripheral\smif/cy_smif_memslot.c ****                          SMIF_DEVICE_RD_CMD_CTL_PRESENT_Msk)
 185:Generated_Source\PSoC6\pdl\drivers\peripheral\smif/cy_smif_memslot.c ****                         : 0U;
  76              		.loc 1 185 0
  77 0030 591C     		adds	r1, r3, #1
  78 0032 0BD0     		beq	.L9
 182:Generated_Source\PSoC6\pdl\drivers\peripheral\smif/cy_smif_memslot.c ****                         (_VAL2FLD(SMIF_DEVICE_RD_CMD_CTL_CODE,  (uint32_t)read->command)  |
  79              		.loc 1 182 0 discriminator 1
  80 0034 FF25     		movs	r5, #255
  81 0036 1D40     		ands	r5, r3
 183:Generated_Source\PSoC6\pdl\drivers\peripheral\smif/cy_smif_memslot.c ****                          SMIF_DEVICE_RD_CMD_CTL_PRESENT_Msk)
  82              		.loc 1 183 0 discriminator 1
  83 0038 2379     		ldrb	r3, [r4, #4]
  84 003a 1B04     		lsls	r3, r3, #16
  85 003c C021     		movs	r1, #192
  86 003e 8902     		lsls	r1, r1, #10
  87 0040 0B40     		ands	r3, r1
 182:Generated_Source\PSoC6\pdl\drivers\peripheral\smif/cy_smif_memslot.c ****                         (_VAL2FLD(SMIF_DEVICE_RD_CMD_CTL_CODE,  (uint32_t)read->command)  |
  88              		.loc 1 182 0 discriminator 1
  89 0042 2B43     		orrs	r3, r5
  90              		.loc 1 185 0 discriminator 1
  91 0044 8021     		movs	r1, #128
  92 0046 0906     		lsls	r1, r1, #24
  93 0048 0B43     		orrs	r3, r1
  94 004a 00E0     		b	.L3
  95              	.L9:
  96              		.loc 1 185 0 is_stmt 0
ARM GAS  C:\Users\ikomb\AppData\Local\Temp\cc5YtlHT.s 			page 6


  97 004c 0023     		movs	r3, #0
  98              	.L3:
 181:Generated_Source\PSoC6\pdl\drivers\peripheral\smif/cy_smif_memslot.c ****                         (_VAL2FLD(SMIF_DEVICE_RD_CMD_CTL_CODE,  (uint32_t)read->command)  |
  99              		.loc 1 181 0 is_stmt 1
 100 004e 0364     		str	r3, [r0, #64]
 186:Generated_Source\PSoC6\pdl\drivers\peripheral\smif/cy_smif_memslot.c **** 
 187:Generated_Source\PSoC6\pdl\drivers\peripheral\smif/cy_smif_memslot.c ****     dev->RD_ADDR_CTL = _VAL2FLD(SMIF_DEVICE_RD_ADDR_CTL_WIDTH, (uint32_t)read->addrWidth);
 101              		.loc 1 187 0
 102 0050 6379     		ldrb	r3, [r4, #5]
 103 0052 1B04     		lsls	r3, r3, #16
 104 0054 C021     		movs	r1, #192
 105 0056 8902     		lsls	r1, r1, #10
 106 0058 0B40     		ands	r3, r1
 107 005a 4364     		str	r3, [r0, #68]
 188:Generated_Source\PSoC6\pdl\drivers\peripheral\smif/cy_smif_memslot.c **** 
 189:Generated_Source\PSoC6\pdl\drivers\peripheral\smif/cy_smif_memslot.c ****     dev->RD_MODE_CTL = (CY_SMIF_NO_COMMAND_OR_MODE != read->mode)?
 108              		.loc 1 189 0
 109 005c A368     		ldr	r3, [r4, #8]
 190:Generated_Source\PSoC6\pdl\drivers\peripheral\smif/cy_smif_memslot.c ****                         (_VAL2FLD(SMIF_DEVICE_RD_CMD_CTL_CODE,  (uint32_t)read->mode)     |
 191:Generated_Source\PSoC6\pdl\drivers\peripheral\smif/cy_smif_memslot.c ****                          _VAL2FLD(SMIF_DEVICE_RD_CMD_CTL_WIDTH, (uint32_t)read->modeWidth)|
 192:Generated_Source\PSoC6\pdl\drivers\peripheral\smif/cy_smif_memslot.c ****                          SMIF_DEVICE_RD_CMD_CTL_PRESENT_Msk)
 193:Generated_Source\PSoC6\pdl\drivers\peripheral\smif/cy_smif_memslot.c ****                         : 0U;
 110              		.loc 1 193 0
 111 005e 591C     		adds	r1, r3, #1
 112 0060 0BD0     		beq	.L10
 190:Generated_Source\PSoC6\pdl\drivers\peripheral\smif/cy_smif_memslot.c ****                         (_VAL2FLD(SMIF_DEVICE_RD_CMD_CTL_CODE,  (uint32_t)read->mode)     |
 113              		.loc 1 190 0 discriminator 1
 114 0062 FF25     		movs	r5, #255
 115 0064 1D40     		ands	r5, r3
 191:Generated_Source\PSoC6\pdl\drivers\peripheral\smif/cy_smif_memslot.c ****                          SMIF_DEVICE_RD_CMD_CTL_PRESENT_Msk)
 116              		.loc 1 191 0 discriminator 1
 117 0066 237B     		ldrb	r3, [r4, #12]
 118 0068 1B04     		lsls	r3, r3, #16
 119 006a C021     		movs	r1, #192
 120 006c 8902     		lsls	r1, r1, #10
 121 006e 0B40     		ands	r3, r1
 190:Generated_Source\PSoC6\pdl\drivers\peripheral\smif/cy_smif_memslot.c ****                         (_VAL2FLD(SMIF_DEVICE_RD_CMD_CTL_CODE,  (uint32_t)read->mode)     |
 122              		.loc 1 190 0 discriminator 1
 123 0070 2B43     		orrs	r3, r5
 124              		.loc 1 193 0 discriminator 1
 125 0072 8021     		movs	r1, #128
 126 0074 0906     		lsls	r1, r1, #24
 127 0076 0B43     		orrs	r3, r1
 128 0078 00E0     		b	.L4
 129              	.L10:
 130              		.loc 1 193 0 is_stmt 0
 131 007a 0023     		movs	r3, #0
 132              	.L4:
 189:Generated_Source\PSoC6\pdl\drivers\peripheral\smif/cy_smif_memslot.c ****                         (_VAL2FLD(SMIF_DEVICE_RD_CMD_CTL_CODE,  (uint32_t)read->mode)     |
 133              		.loc 1 189 0 is_stmt 1
 134 007c 8364     		str	r3, [r0, #72]
 194:Generated_Source\PSoC6\pdl\drivers\peripheral\smif/cy_smif_memslot.c **** 
 195:Generated_Source\PSoC6\pdl\drivers\peripheral\smif/cy_smif_memslot.c ****     dev->RD_DUMMY_CTL = (0UL != read->dummyCycles)?
 135              		.loc 1 195 0
 136 007e 2369     		ldr	r3, [r4, #16]
 196:Generated_Source\PSoC6\pdl\drivers\peripheral\smif/cy_smif_memslot.c ****                         (_VAL2FLD(SMIF_DEVICE_RD_DUMMY_CTL_SIZE5, (read->dummyCycles - 1UL)) |
 197:Generated_Source\PSoC6\pdl\drivers\peripheral\smif/cy_smif_memslot.c ****                          SMIF_DEVICE_RD_DUMMY_CTL_PRESENT_Msk)
ARM GAS  C:\Users\ikomb\AppData\Local\Temp\cc5YtlHT.s 			page 7


 198:Generated_Source\PSoC6\pdl\drivers\peripheral\smif/cy_smif_memslot.c ****                         : 0U;
 137              		.loc 1 198 0
 138 0080 002B     		cmp	r3, #0
 139 0082 05D0     		beq	.L5
 196:Generated_Source\PSoC6\pdl\drivers\peripheral\smif/cy_smif_memslot.c ****                         (_VAL2FLD(SMIF_DEVICE_RD_DUMMY_CTL_SIZE5, (read->dummyCycles - 1UL)) |
 140              		.loc 1 196 0 discriminator 1
 141 0084 013B     		subs	r3, r3, #1
 142 0086 1F21     		movs	r1, #31
 143 0088 0B40     		ands	r3, r1
 144              		.loc 1 198 0 discriminator 1
 145 008a 8021     		movs	r1, #128
 146 008c 0906     		lsls	r1, r1, #24
 147 008e 0B43     		orrs	r3, r1
 148              	.L5:
 195:Generated_Source\PSoC6\pdl\drivers\peripheral\smif/cy_smif_memslot.c ****                         (_VAL2FLD(SMIF_DEVICE_RD_DUMMY_CTL_SIZE5, (read->dummyCycles - 1UL)) |
 149              		.loc 1 195 0
 150 0090 C364     		str	r3, [r0, #76]
 199:Generated_Source\PSoC6\pdl\drivers\peripheral\smif/cy_smif_memslot.c **** 
 200:Generated_Source\PSoC6\pdl\drivers\peripheral\smif/cy_smif_memslot.c ****     dev->RD_DATA_CTL = _VAL2FLD(SMIF_DEVICE_RD_DATA_CTL_WIDTH, (uint32_t)read->dataWidth);
 151              		.loc 1 200 0
 152 0092 237D     		ldrb	r3, [r4, #20]
 153 0094 1B04     		lsls	r3, r3, #16
 154 0096 C021     		movs	r1, #192
 155 0098 8902     		lsls	r1, r1, #10
 156 009a 0B40     		ands	r3, r1
 157 009c 0365     		str	r3, [r0, #80]
 201:Generated_Source\PSoC6\pdl\drivers\peripheral\smif/cy_smif_memslot.c **** 
 202:Generated_Source\PSoC6\pdl\drivers\peripheral\smif/cy_smif_memslot.c ****     dev->WR_CMD_CTL = (CY_SMIF_NO_COMMAND_OR_MODE != prog->command)?
 158              		.loc 1 202 0
 159 009e 1368     		ldr	r3, [r2]
 203:Generated_Source\PSoC6\pdl\drivers\peripheral\smif/cy_smif_memslot.c ****                         (_VAL2FLD(SMIF_DEVICE_WR_CMD_CTL_CODE,  (uint32_t)prog->command) |
 204:Generated_Source\PSoC6\pdl\drivers\peripheral\smif/cy_smif_memslot.c ****                          _VAL2FLD(SMIF_DEVICE_WR_CMD_CTL_WIDTH, (uint32_t)prog->cmdWidth)|
 205:Generated_Source\PSoC6\pdl\drivers\peripheral\smif/cy_smif_memslot.c ****                          SMIF_DEVICE_WR_CMD_CTL_PRESENT_Msk)
 206:Generated_Source\PSoC6\pdl\drivers\peripheral\smif/cy_smif_memslot.c ****                         : 0U;
 160              		.loc 1 206 0
 161 00a0 591C     		adds	r1, r3, #1
 162 00a2 0BD0     		beq	.L11
 203:Generated_Source\PSoC6\pdl\drivers\peripheral\smif/cy_smif_memslot.c ****                         (_VAL2FLD(SMIF_DEVICE_WR_CMD_CTL_CODE,  (uint32_t)prog->command) |
 163              		.loc 1 203 0 discriminator 1
 164 00a4 FF24     		movs	r4, #255
 165              	.LVL6:
 166 00a6 1C40     		ands	r4, r3
 204:Generated_Source\PSoC6\pdl\drivers\peripheral\smif/cy_smif_memslot.c ****                          SMIF_DEVICE_WR_CMD_CTL_PRESENT_Msk)
 167              		.loc 1 204 0 discriminator 1
 168 00a8 1379     		ldrb	r3, [r2, #4]
 169 00aa 1B04     		lsls	r3, r3, #16
 170 00ac C021     		movs	r1, #192
 171 00ae 8902     		lsls	r1, r1, #10
 172 00b0 0B40     		ands	r3, r1
 203:Generated_Source\PSoC6\pdl\drivers\peripheral\smif/cy_smif_memslot.c ****                         (_VAL2FLD(SMIF_DEVICE_WR_CMD_CTL_CODE,  (uint32_t)prog->command) |
 173              		.loc 1 203 0 discriminator 1
 174 00b2 2343     		orrs	r3, r4
 175              		.loc 1 206 0 discriminator 1
 176 00b4 8021     		movs	r1, #128
 177 00b6 0906     		lsls	r1, r1, #24
 178 00b8 0B43     		orrs	r3, r1
 179 00ba 00E0     		b	.L6
ARM GAS  C:\Users\ikomb\AppData\Local\Temp\cc5YtlHT.s 			page 8


 180              	.LVL7:
 181              	.L11:
 182              		.loc 1 206 0 is_stmt 0
 183 00bc 0023     		movs	r3, #0
 184              	.LVL8:
 185              	.L6:
 202:Generated_Source\PSoC6\pdl\drivers\peripheral\smif/cy_smif_memslot.c ****                         (_VAL2FLD(SMIF_DEVICE_WR_CMD_CTL_CODE,  (uint32_t)prog->command) |
 186              		.loc 1 202 0 is_stmt 1
 187 00be 0366     		str	r3, [r0, #96]
 207:Generated_Source\PSoC6\pdl\drivers\peripheral\smif/cy_smif_memslot.c **** 
 208:Generated_Source\PSoC6\pdl\drivers\peripheral\smif/cy_smif_memslot.c ****     dev->WR_ADDR_CTL = _VAL2FLD(SMIF_DEVICE_WR_ADDR_CTL_WIDTH, (uint32_t)prog->addrWidth);
 188              		.loc 1 208 0
 189 00c0 5379     		ldrb	r3, [r2, #5]
 190 00c2 1B04     		lsls	r3, r3, #16
 191 00c4 C021     		movs	r1, #192
 192 00c6 8902     		lsls	r1, r1, #10
 193 00c8 0B40     		ands	r3, r1
 194 00ca 4366     		str	r3, [r0, #100]
 209:Generated_Source\PSoC6\pdl\drivers\peripheral\smif/cy_smif_memslot.c **** 
 210:Generated_Source\PSoC6\pdl\drivers\peripheral\smif/cy_smif_memslot.c ****     dev->WR_MODE_CTL = (CY_SMIF_NO_COMMAND_OR_MODE != prog->mode)?
 195              		.loc 1 210 0
 196 00cc 9368     		ldr	r3, [r2, #8]
 211:Generated_Source\PSoC6\pdl\drivers\peripheral\smif/cy_smif_memslot.c ****                       (_VAL2FLD(SMIF_DEVICE_WR_CMD_CTL_CODE,  (uint32_t)prog->mode)     |
 212:Generated_Source\PSoC6\pdl\drivers\peripheral\smif/cy_smif_memslot.c ****                        _VAL2FLD(SMIF_DEVICE_WR_CMD_CTL_WIDTH, (uint32_t)prog->modeWidth)|
 213:Generated_Source\PSoC6\pdl\drivers\peripheral\smif/cy_smif_memslot.c ****                        SMIF_DEVICE_WR_CMD_CTL_PRESENT_Msk)
 214:Generated_Source\PSoC6\pdl\drivers\peripheral\smif/cy_smif_memslot.c ****                        : 0UL;
 197              		.loc 1 214 0
 198 00ce 591C     		adds	r1, r3, #1
 199 00d0 0BD0     		beq	.L12
 211:Generated_Source\PSoC6\pdl\drivers\peripheral\smif/cy_smif_memslot.c ****                       (_VAL2FLD(SMIF_DEVICE_WR_CMD_CTL_CODE,  (uint32_t)prog->mode)     |
 200              		.loc 1 211 0 discriminator 1
 201 00d2 FF24     		movs	r4, #255
 202 00d4 1C40     		ands	r4, r3
 212:Generated_Source\PSoC6\pdl\drivers\peripheral\smif/cy_smif_memslot.c ****                        SMIF_DEVICE_WR_CMD_CTL_PRESENT_Msk)
 203              		.loc 1 212 0 discriminator 1
 204 00d6 137B     		ldrb	r3, [r2, #12]
 205 00d8 1B04     		lsls	r3, r3, #16
 206 00da C021     		movs	r1, #192
 207 00dc 8902     		lsls	r1, r1, #10
 208 00de 0B40     		ands	r3, r1
 211:Generated_Source\PSoC6\pdl\drivers\peripheral\smif/cy_smif_memslot.c ****                       (_VAL2FLD(SMIF_DEVICE_WR_CMD_CTL_CODE,  (uint32_t)prog->mode)     |
 209              		.loc 1 211 0 discriminator 1
 210 00e0 2343     		orrs	r3, r4
 211              		.loc 1 214 0 discriminator 1
 212 00e2 8021     		movs	r1, #128
 213 00e4 0906     		lsls	r1, r1, #24
 214 00e6 0B43     		orrs	r3, r1
 215 00e8 00E0     		b	.L7
 216              	.L12:
 217              		.loc 1 214 0 is_stmt 0
 218 00ea 0023     		movs	r3, #0
 219              	.L7:
 210:Generated_Source\PSoC6\pdl\drivers\peripheral\smif/cy_smif_memslot.c ****                       (_VAL2FLD(SMIF_DEVICE_WR_CMD_CTL_CODE,  (uint32_t)prog->mode)     |
 220              		.loc 1 210 0 is_stmt 1
 221 00ec 8366     		str	r3, [r0, #104]
 215:Generated_Source\PSoC6\pdl\drivers\peripheral\smif/cy_smif_memslot.c **** 
 216:Generated_Source\PSoC6\pdl\drivers\peripheral\smif/cy_smif_memslot.c ****     dev->WR_DUMMY_CTL = (0UL != prog->dummyCycles)?
ARM GAS  C:\Users\ikomb\AppData\Local\Temp\cc5YtlHT.s 			page 9


 222              		.loc 1 216 0
 223 00ee 1369     		ldr	r3, [r2, #16]
 217:Generated_Source\PSoC6\pdl\drivers\peripheral\smif/cy_smif_memslot.c ****                         (_VAL2FLD(SMIF_DEVICE_WR_DUMMY_CTL_SIZE5, (prog->dummyCycles - 1UL)) |
 218:Generated_Source\PSoC6\pdl\drivers\peripheral\smif/cy_smif_memslot.c ****                          SMIF_DEVICE_WR_DUMMY_CTL_PRESENT_Msk)
 219:Generated_Source\PSoC6\pdl\drivers\peripheral\smif/cy_smif_memslot.c ****                         : 0U;
 224              		.loc 1 219 0
 225 00f0 002B     		cmp	r3, #0
 226 00f2 05D0     		beq	.L8
 217:Generated_Source\PSoC6\pdl\drivers\peripheral\smif/cy_smif_memslot.c ****                         (_VAL2FLD(SMIF_DEVICE_WR_DUMMY_CTL_SIZE5, (prog->dummyCycles - 1UL)) |
 227              		.loc 1 217 0 discriminator 1
 228 00f4 013B     		subs	r3, r3, #1
 229 00f6 1F21     		movs	r1, #31
 230 00f8 0B40     		ands	r3, r1
 231              		.loc 1 219 0 discriminator 1
 232 00fa 8021     		movs	r1, #128
 233 00fc 0906     		lsls	r1, r1, #24
 234 00fe 0B43     		orrs	r3, r1
 235              	.L8:
 216:Generated_Source\PSoC6\pdl\drivers\peripheral\smif/cy_smif_memslot.c ****                         (_VAL2FLD(SMIF_DEVICE_WR_DUMMY_CTL_SIZE5, (prog->dummyCycles - 1UL)) |
 236              		.loc 1 216 0
 237 0100 C366     		str	r3, [r0, #108]
 220:Generated_Source\PSoC6\pdl\drivers\peripheral\smif/cy_smif_memslot.c **** 
 221:Generated_Source\PSoC6\pdl\drivers\peripheral\smif/cy_smif_memslot.c ****     dev->WR_DATA_CTL = _VAL2FLD(SMIF_DEVICE_WR_DATA_CTL_WIDTH, (uint32_t)prog->dataWidth);
 238              		.loc 1 221 0
 239 0102 137D     		ldrb	r3, [r2, #20]
 240 0104 1B04     		lsls	r3, r3, #16
 241 0106 C022     		movs	r2, #192
 242              	.LVL9:
 243 0108 9202     		lsls	r2, r2, #10
 244 010a 1340     		ands	r3, r2
 245 010c 0367     		str	r3, [r0, #112]
 222:Generated_Source\PSoC6\pdl\drivers\peripheral\smif/cy_smif_memslot.c **** }
 246              		.loc 1 222 0
 247              		@ sp needed
 248 010e 70BD     		pop	{r4, r5, r6, pc}
 249              		.cfi_endproc
 250              	.LFE90:
 251              		.size	Cy_SMIF_Memslot_XipRegInit, .-Cy_SMIF_Memslot_XipRegInit
 252              		.section	.text.Cy_SMIF_Memslot_DeInit,"ax",%progbits
 253              		.align	2
 254              		.global	Cy_SMIF_Memslot_DeInit
 255              		.code	16
 256              		.thumb_func
 257              		.type	Cy_SMIF_Memslot_DeInit, %function
 258              	Cy_SMIF_Memslot_DeInit:
 259              	.LFB91:
 223:Generated_Source\PSoC6\pdl\drivers\peripheral\smif/cy_smif_memslot.c **** 
 224:Generated_Source\PSoC6\pdl\drivers\peripheral\smif/cy_smif_memslot.c **** 
 225:Generated_Source\PSoC6\pdl\drivers\peripheral\smif/cy_smif_memslot.c **** /*******************************************************************************
 226:Generated_Source\PSoC6\pdl\drivers\peripheral\smif/cy_smif_memslot.c **** * Function Name: Cy_SMIF_MemoryDeInit
 227:Generated_Source\PSoC6\pdl\drivers\peripheral\smif/cy_smif_memslot.c **** ****************************************************************************//**
 228:Generated_Source\PSoC6\pdl\drivers\peripheral\smif/cy_smif_memslot.c **** *
 229:Generated_Source\PSoC6\pdl\drivers\peripheral\smif/cy_smif_memslot.c **** * This function de-initializes all slave slots of the memory device to their default
 230:Generated_Source\PSoC6\pdl\drivers\peripheral\smif/cy_smif_memslot.c **** * values.
 231:Generated_Source\PSoC6\pdl\drivers\peripheral\smif/cy_smif_memslot.c **** *
 232:Generated_Source\PSoC6\pdl\drivers\peripheral\smif/cy_smif_memslot.c **** * \param base
 233:Generated_Source\PSoC6\pdl\drivers\peripheral\smif/cy_smif_memslot.c **** * Holds the base address of the SMIF block registers.
ARM GAS  C:\Users\ikomb\AppData\Local\Temp\cc5YtlHT.s 			page 10


 234:Generated_Source\PSoC6\pdl\drivers\peripheral\smif/cy_smif_memslot.c **** *
 235:Generated_Source\PSoC6\pdl\drivers\peripheral\smif/cy_smif_memslot.c **** *******************************************************************************/
 236:Generated_Source\PSoC6\pdl\drivers\peripheral\smif/cy_smif_memslot.c **** void Cy_SMIF_Memslot_DeInit(SMIF_Type *base)
 237:Generated_Source\PSoC6\pdl\drivers\peripheral\smif/cy_smif_memslot.c **** {
 260              		.loc 1 237 0
 261              		.cfi_startproc
 262              		@ args = 0, pretend = 0, frame = 0
 263              		@ frame_needed = 0, uses_anonymous_args = 0
 264              	.LVL10:
 265 0000 30B5     		push	{r4, r5, lr}
 266              		.cfi_def_cfa_offset 12
 267              		.cfi_offset 4, -12
 268              		.cfi_offset 5, -8
 269              		.cfi_offset 14, -4
 270              	.LVL11:
 238:Generated_Source\PSoC6\pdl\drivers\peripheral\smif/cy_smif_memslot.c ****     /* Configure the SMIF device slots to the default values. The default value is 0 */
 239:Generated_Source\PSoC6\pdl\drivers\peripheral\smif/cy_smif_memslot.c ****     uint32_t deviceIndex;
 240:Generated_Source\PSoC6\pdl\drivers\peripheral\smif/cy_smif_memslot.c **** 
 241:Generated_Source\PSoC6\pdl\drivers\peripheral\smif/cy_smif_memslot.c ****     for(deviceIndex = 0UL; deviceIndex < (uint32_t)SMIF_DEVICE_NR; deviceIndex++)
 271              		.loc 1 241 0
 272 0002 0021     		movs	r1, #0
 273 0004 35E0     		b	.L14
 274              	.LVL12:
 275              	.L15:
 242:Generated_Source\PSoC6\pdl\drivers\peripheral\smif/cy_smif_memslot.c ****     {
 243:Generated_Source\PSoC6\pdl\drivers\peripheral\smif/cy_smif_memslot.c ****         base->DEVICE[deviceIndex].CTL           = 0U;
 276              		.loc 1 243 0 discriminator 3
 277 0006 0C00     		movs	r4, r1
 278 0008 1034     		adds	r4, r4, #16
 279 000a E401     		lsls	r4, r4, #7
 280 000c 0022     		movs	r2, #0
 281 000e 2250     		str	r2, [r4, r0]
 244:Generated_Source\PSoC6\pdl\drivers\peripheral\smif/cy_smif_memslot.c ****         base->DEVICE[deviceIndex].ADDR          = 0U;
 282              		.loc 1 244 0 discriminator 3
 283 0010 CB01     		lsls	r3, r1, #7
 284 0012 C318     		adds	r3, r0, r3
 285 0014 184D     		ldr	r5, .L16
 286 0016 5D19     		adds	r5, r3, r5
 287 0018 2A60     		str	r2, [r5]
 245:Generated_Source\PSoC6\pdl\drivers\peripheral\smif/cy_smif_memslot.c ****         base->DEVICE[deviceIndex].MASK          = 0U;
 288              		.loc 1 245 0 discriminator 3
 289 001a 184D     		ldr	r5, .L16+4
 290 001c 5D19     		adds	r5, r3, r5
 291 001e 2A60     		str	r2, [r5]
 246:Generated_Source\PSoC6\pdl\drivers\peripheral\smif/cy_smif_memslot.c ****         base->DEVICE[deviceIndex].ADDR_CTL      = 0U;
 292              		.loc 1 246 0 discriminator 3
 293 0020 8225     		movs	r5, #130
 294 0022 2D01     		lsls	r5, r5, #4
 295 0024 5D19     		adds	r5, r3, r5
 296 0026 2A60     		str	r2, [r5]
 247:Generated_Source\PSoC6\pdl\drivers\peripheral\smif/cy_smif_memslot.c ****         base->DEVICE[deviceIndex].RD_CMD_CTL    = 0U;
 297              		.loc 1 247 0 discriminator 3
 298 0028 8425     		movs	r5, #132
 299 002a 2D01     		lsls	r5, r5, #4
 300 002c 5D19     		adds	r5, r3, r5
 301 002e 2A60     		str	r2, [r5]
 248:Generated_Source\PSoC6\pdl\drivers\peripheral\smif/cy_smif_memslot.c ****         base->DEVICE[deviceIndex].RD_ADDR_CTL   = 0U;
ARM GAS  C:\Users\ikomb\AppData\Local\Temp\cc5YtlHT.s 			page 11


 302              		.loc 1 248 0 discriminator 3
 303 0030 134D     		ldr	r5, .L16+8
 304 0032 5D19     		adds	r5, r3, r5
 305 0034 2A60     		str	r2, [r5]
 249:Generated_Source\PSoC6\pdl\drivers\peripheral\smif/cy_smif_memslot.c ****         base->DEVICE[deviceIndex].RD_MODE_CTL   = 0U;
 306              		.loc 1 249 0 discriminator 3
 307 0036 134D     		ldr	r5, .L16+12
 308 0038 5D19     		adds	r5, r3, r5
 309 003a 2A60     		str	r2, [r5]
 250:Generated_Source\PSoC6\pdl\drivers\peripheral\smif/cy_smif_memslot.c ****         base->DEVICE[deviceIndex].RD_DUMMY_CTL  = 0U;
 310              		.loc 1 250 0 discriminator 3
 311 003c 124D     		ldr	r5, .L16+16
 312 003e 5D19     		adds	r5, r3, r5
 313 0040 2A60     		str	r2, [r5]
 251:Generated_Source\PSoC6\pdl\drivers\peripheral\smif/cy_smif_memslot.c ****         base->DEVICE[deviceIndex].RD_DATA_CTL   = 0U;
 314              		.loc 1 251 0 discriminator 3
 315 0042 8525     		movs	r5, #133
 316 0044 2D01     		lsls	r5, r5, #4
 317 0046 5D19     		adds	r5, r3, r5
 318 0048 2A60     		str	r2, [r5]
 252:Generated_Source\PSoC6\pdl\drivers\peripheral\smif/cy_smif_memslot.c ****         base->DEVICE[deviceIndex].WR_CMD_CTL    = 0U;
 319              		.loc 1 252 0 discriminator 3
 320 004a 8625     		movs	r5, #134
 321 004c 2D01     		lsls	r5, r5, #4
 322 004e 5D19     		adds	r5, r3, r5
 323 0050 2A60     		str	r2, [r5]
 253:Generated_Source\PSoC6\pdl\drivers\peripheral\smif/cy_smif_memslot.c ****         base->DEVICE[deviceIndex].WR_ADDR_CTL   = 0U;
 324              		.loc 1 253 0 discriminator 3
 325 0052 0E4D     		ldr	r5, .L16+20
 326 0054 5D19     		adds	r5, r3, r5
 327 0056 2A60     		str	r2, [r5]
 254:Generated_Source\PSoC6\pdl\drivers\peripheral\smif/cy_smif_memslot.c ****         base->DEVICE[deviceIndex].WR_MODE_CTL   = 0U;
 328              		.loc 1 254 0 discriminator 3
 329 0058 0D4D     		ldr	r5, .L16+24
 330 005a 5D19     		adds	r5, r3, r5
 331 005c 2A60     		str	r2, [r5]
 255:Generated_Source\PSoC6\pdl\drivers\peripheral\smif/cy_smif_memslot.c ****         base->DEVICE[deviceIndex].WR_DUMMY_CTL  = 0U;
 332              		.loc 1 255 0 discriminator 3
 333 005e 0D4D     		ldr	r5, .L16+28
 334 0060 5D19     		adds	r5, r3, r5
 335 0062 2A60     		str	r2, [r5]
 256:Generated_Source\PSoC6\pdl\drivers\peripheral\smif/cy_smif_memslot.c ****         base->DEVICE[deviceIndex].WR_DATA_CTL   = 0U;
 336              		.loc 1 256 0 discriminator 3
 337 0064 8725     		movs	r5, #135
 338 0066 2D01     		lsls	r5, r5, #4
 339 0068 AC46     		mov	ip, r5
 340 006a 6344     		add	r3, r3, ip
 341 006c 1A60     		str	r2, [r3]
 257:Generated_Source\PSoC6\pdl\drivers\peripheral\smif/cy_smif_memslot.c **** 
 258:Generated_Source\PSoC6\pdl\drivers\peripheral\smif/cy_smif_memslot.c ****         /* Read the register to flush the buffer */
 259:Generated_Source\PSoC6\pdl\drivers\peripheral\smif/cy_smif_memslot.c ****         (void) base->DEVICE[deviceIndex].CTL;
 342              		.loc 1 259 0 discriminator 3
 343 006e 2358     		ldr	r3, [r4, r0]
 241:Generated_Source\PSoC6\pdl\drivers\peripheral\smif/cy_smif_memslot.c ****     {
 344              		.loc 1 241 0 discriminator 3
 345 0070 0131     		adds	r1, r1, #1
 346              	.LVL13:
ARM GAS  C:\Users\ikomb\AppData\Local\Temp\cc5YtlHT.s 			page 12


 347              	.L14:
 241:Generated_Source\PSoC6\pdl\drivers\peripheral\smif/cy_smif_memslot.c ****     {
 348              		.loc 1 241 0 is_stmt 0 discriminator 1
 349 0072 0329     		cmp	r1, #3
 350 0074 C7D9     		bls	.L15
 260:Generated_Source\PSoC6\pdl\drivers\peripheral\smif/cy_smif_memslot.c ****     }
 261:Generated_Source\PSoC6\pdl\drivers\peripheral\smif/cy_smif_memslot.c **** }
 351              		.loc 1 261 0 is_stmt 1
 352              		@ sp needed
 353 0076 30BD     		pop	{r4, r5, pc}
 354              	.L17:
 355              		.align	2
 356              	.L16:
 357 0078 08080000 		.word	2056
 358 007c 0C080000 		.word	2060
 359 0080 44080000 		.word	2116
 360 0084 48080000 		.word	2120
 361 0088 4C080000 		.word	2124
 362 008c 64080000 		.word	2148
 363 0090 68080000 		.word	2152
 364 0094 6C080000 		.word	2156
 365              		.cfi_endproc
 366              	.LFE91:
 367              		.size	Cy_SMIF_Memslot_DeInit, .-Cy_SMIF_Memslot_DeInit
 368              		.section	.text.Cy_SMIF_Memslot_CmdWriteEnable,"ax",%progbits
 369              		.align	2
 370              		.global	Cy_SMIF_Memslot_CmdWriteEnable
 371              		.code	16
 372              		.thumb_func
 373              		.type	Cy_SMIF_Memslot_CmdWriteEnable, %function
 374              	Cy_SMIF_Memslot_CmdWriteEnable:
 375              	.LFB92:
 262:Generated_Source\PSoC6\pdl\drivers\peripheral\smif/cy_smif_memslot.c **** 
 263:Generated_Source\PSoC6\pdl\drivers\peripheral\smif/cy_smif_memslot.c **** 
 264:Generated_Source\PSoC6\pdl\drivers\peripheral\smif/cy_smif_memslot.c **** /*******************************************************************************
 265:Generated_Source\PSoC6\pdl\drivers\peripheral\smif/cy_smif_memslot.c **** * Function Name: Cy_SMIF_Memslot_CmdWriteEnable
 266:Generated_Source\PSoC6\pdl\drivers\peripheral\smif/cy_smif_memslot.c **** ****************************************************************************//**
 267:Generated_Source\PSoC6\pdl\drivers\peripheral\smif/cy_smif_memslot.c **** *
 268:Generated_Source\PSoC6\pdl\drivers\peripheral\smif/cy_smif_memslot.c **** * This function sends the Write Enable command to the memory device.
 269:Generated_Source\PSoC6\pdl\drivers\peripheral\smif/cy_smif_memslot.c **** *
 270:Generated_Source\PSoC6\pdl\drivers\peripheral\smif/cy_smif_memslot.c **** * \note This function uses the low-level Cy_SMIF_TransmitCommand() API.
 271:Generated_Source\PSoC6\pdl\drivers\peripheral\smif/cy_smif_memslot.c **** * The Cy_SMIF_TransmitCommand() API works in a blocking mode. In the dual quad mode,
 272:Generated_Source\PSoC6\pdl\drivers\peripheral\smif/cy_smif_memslot.c **** * this API is called for each memory.
 273:Generated_Source\PSoC6\pdl\drivers\peripheral\smif/cy_smif_memslot.c **** *
 274:Generated_Source\PSoC6\pdl\drivers\peripheral\smif/cy_smif_memslot.c **** * \param base
 275:Generated_Source\PSoC6\pdl\drivers\peripheral\smif/cy_smif_memslot.c **** * Holds the base address of the SMIF block registers.
 276:Generated_Source\PSoC6\pdl\drivers\peripheral\smif/cy_smif_memslot.c **** *
 277:Generated_Source\PSoC6\pdl\drivers\peripheral\smif/cy_smif_memslot.c **** * \param context
 278:Generated_Source\PSoC6\pdl\drivers\peripheral\smif/cy_smif_memslot.c **** * The internal SMIF context data. \ref cy_stc_smif_context_t
 279:Generated_Source\PSoC6\pdl\drivers\peripheral\smif/cy_smif_memslot.c **** *
 280:Generated_Source\PSoC6\pdl\drivers\peripheral\smif/cy_smif_memslot.c **** * \param memDevice
 281:Generated_Source\PSoC6\pdl\drivers\peripheral\smif/cy_smif_memslot.c **** * The device to which the command is sent.
 282:Generated_Source\PSoC6\pdl\drivers\peripheral\smif/cy_smif_memslot.c **** *
 283:Generated_Source\PSoC6\pdl\drivers\peripheral\smif/cy_smif_memslot.c **** * \return A status of the command transmission.
 284:Generated_Source\PSoC6\pdl\drivers\peripheral\smif/cy_smif_memslot.c **** *       - \ref CY_SMIF_SUCCESS
 285:Generated_Source\PSoC6\pdl\drivers\peripheral\smif/cy_smif_memslot.c **** *       - \ref CY_SMIF_EXCEED_TIMEOUT
 286:Generated_Source\PSoC6\pdl\drivers\peripheral\smif/cy_smif_memslot.c **** *
ARM GAS  C:\Users\ikomb\AppData\Local\Temp\cc5YtlHT.s 			page 13


 287:Generated_Source\PSoC6\pdl\drivers\peripheral\smif/cy_smif_memslot.c **** *******************************************************************************/
 288:Generated_Source\PSoC6\pdl\drivers\peripheral\smif/cy_smif_memslot.c **** cy_en_smif_status_t Cy_SMIF_Memslot_CmdWriteEnable(SMIF_Type *base,
 289:Generated_Source\PSoC6\pdl\drivers\peripheral\smif/cy_smif_memslot.c ****                                         cy_stc_smif_mem_config_t const *memDevice,
 290:Generated_Source\PSoC6\pdl\drivers\peripheral\smif/cy_smif_memslot.c ****                                         cy_stc_smif_context_t const *context)
 291:Generated_Source\PSoC6\pdl\drivers\peripheral\smif/cy_smif_memslot.c **** {
 376              		.loc 1 291 0
 377              		.cfi_startproc
 378              		@ args = 0, pretend = 0, frame = 0
 379              		@ frame_needed = 0, uses_anonymous_args = 0
 380              	.LVL14:
 381 0000 F0B5     		push	{r4, r5, r6, r7, lr}
 382              		.cfi_def_cfa_offset 20
 383              		.cfi_offset 4, -20
 384              		.cfi_offset 5, -16
 385              		.cfi_offset 6, -12
 386              		.cfi_offset 7, -8
 387              		.cfi_offset 14, -4
 388 0002 87B0     		sub	sp, sp, #28
 389              		.cfi_def_cfa_offset 48
 390 0004 0600     		movs	r6, r0
 391 0006 0D00     		movs	r5, r1
 392 0008 1700     		movs	r7, r2
 292:Generated_Source\PSoC6\pdl\drivers\peripheral\smif/cy_smif_memslot.c ****     /* The memory Write Enable */
 293:Generated_Source\PSoC6\pdl\drivers\peripheral\smif/cy_smif_memslot.c ****     cy_stc_smif_mem_cmd_t* writeEn = memDevice->deviceCfg->writeEnCmd;
 393              		.loc 1 293 0
 394 000a 8B69     		ldr	r3, [r1, #24]
 395 000c DC68     		ldr	r4, [r3, #12]
 396              	.LVL15:
 294:Generated_Source\PSoC6\pdl\drivers\peripheral\smif/cy_smif_memslot.c ****     
 295:Generated_Source\PSoC6\pdl\drivers\peripheral\smif/cy_smif_memslot.c ****     CY_ASSERT_L1(NULL != writeEn);  
 397              		.loc 1 295 0
 398 000e 002C     		cmp	r4, #0
 399 0010 04D1     		bne	.L19
 400              		.loc 1 295 0 is_stmt 0 discriminator 1
 401 0012 2821     		movs	r1, #40
 402              	.LVL16:
 403 0014 FF31     		adds	r1, r1, #255
 404 0016 0948     		ldr	r0, .L20
 405              	.LVL17:
 406 0018 FFF7FEFF 		bl	Cy_SysLib_AssertFailed
 407              	.LVL18:
 408              	.L19:
 296:Generated_Source\PSoC6\pdl\drivers\peripheral\smif/cy_smif_memslot.c **** 
 297:Generated_Source\PSoC6\pdl\drivers\peripheral\smif/cy_smif_memslot.c ****     return Cy_SMIF_TransmitCommand( base, (uint8_t) writeEn->command,
 409              		.loc 1 297 0 is_stmt 1
 410 001c 2279     		ldrb	r2, [r4, #4]
 411 001e 2178     		ldrb	r1, [r4]
 412 0020 0497     		str	r7, [sp, #16]
 413 0022 0123     		movs	r3, #1
 414 0024 0393     		str	r3, [sp, #12]
 415 0026 2B78     		ldrb	r3, [r5]
 416 0028 0293     		str	r3, [sp, #8]
 417 002a 0023     		movs	r3, #0
 418 002c 0193     		str	r3, [sp, #4]
 419 002e 0093     		str	r3, [sp]
 420 0030 3000     		movs	r0, r6
 421 0032 FFF7FEFF 		bl	Cy_SMIF_TransmitCommand
ARM GAS  C:\Users\ikomb\AppData\Local\Temp\cc5YtlHT.s 			page 14


 422              	.LVL19:
 298:Generated_Source\PSoC6\pdl\drivers\peripheral\smif/cy_smif_memslot.c ****                                     writeEn->cmdWidth,
 299:Generated_Source\PSoC6\pdl\drivers\peripheral\smif/cy_smif_memslot.c ****                                     CY_SMIF_CMD_WITHOUT_PARAM,
 300:Generated_Source\PSoC6\pdl\drivers\peripheral\smif/cy_smif_memslot.c ****                                     CY_SMIF_CMD_WITHOUT_PARAM,
 301:Generated_Source\PSoC6\pdl\drivers\peripheral\smif/cy_smif_memslot.c ****                                     (cy_en_smif_txfr_width_t)CY_SMIF_CMD_WITHOUT_PARAM,
 302:Generated_Source\PSoC6\pdl\drivers\peripheral\smif/cy_smif_memslot.c ****                                     memDevice->slaveSelect,
 303:Generated_Source\PSoC6\pdl\drivers\peripheral\smif/cy_smif_memslot.c ****                                     CY_SMIF_TX_LAST_BYTE,
 304:Generated_Source\PSoC6\pdl\drivers\peripheral\smif/cy_smif_memslot.c ****                                     context);
 305:Generated_Source\PSoC6\pdl\drivers\peripheral\smif/cy_smif_memslot.c **** }
 423              		.loc 1 305 0
 424 0036 07B0     		add	sp, sp, #28
 425              		@ sp needed
 426              	.LVL20:
 427              	.LVL21:
 428              	.LVL22:
 429              	.LVL23:
 430 0038 F0BD     		pop	{r4, r5, r6, r7, pc}
 431              	.L21:
 432 003a C046     		.align	2
 433              	.L20:
 434 003c 00000000 		.word	.LC0
 435              		.cfi_endproc
 436              	.LFE92:
 437              		.size	Cy_SMIF_Memslot_CmdWriteEnable, .-Cy_SMIF_Memslot_CmdWriteEnable
 438              		.section	.text.Cy_SMIF_Memslot_CmdWriteDisable,"ax",%progbits
 439              		.align	2
 440              		.global	Cy_SMIF_Memslot_CmdWriteDisable
 441              		.code	16
 442              		.thumb_func
 443              		.type	Cy_SMIF_Memslot_CmdWriteDisable, %function
 444              	Cy_SMIF_Memslot_CmdWriteDisable:
 445              	.LFB93:
 306:Generated_Source\PSoC6\pdl\drivers\peripheral\smif/cy_smif_memslot.c **** 
 307:Generated_Source\PSoC6\pdl\drivers\peripheral\smif/cy_smif_memslot.c **** 
 308:Generated_Source\PSoC6\pdl\drivers\peripheral\smif/cy_smif_memslot.c **** /*******************************************************************************
 309:Generated_Source\PSoC6\pdl\drivers\peripheral\smif/cy_smif_memslot.c **** * Function Name: Cy_SMIF_Memslot_CmdWriteDisable
 310:Generated_Source\PSoC6\pdl\drivers\peripheral\smif/cy_smif_memslot.c **** ****************************************************************************//**
 311:Generated_Source\PSoC6\pdl\drivers\peripheral\smif/cy_smif_memslot.c **** *
 312:Generated_Source\PSoC6\pdl\drivers\peripheral\smif/cy_smif_memslot.c **** * This function sends a Write Disable command to the memory device.
 313:Generated_Source\PSoC6\pdl\drivers\peripheral\smif/cy_smif_memslot.c **** *
 314:Generated_Source\PSoC6\pdl\drivers\peripheral\smif/cy_smif_memslot.c **** * \note This function uses the low-level Cy_SMIF_TransmitCommand() API.
 315:Generated_Source\PSoC6\pdl\drivers\peripheral\smif/cy_smif_memslot.c **** * Cy_SMIF_TransmitCommand() API works in a blocking mode. In the dual quad mode
 316:Generated_Source\PSoC6\pdl\drivers\peripheral\smif/cy_smif_memslot.c **** * this API should be called for each memory.
 317:Generated_Source\PSoC6\pdl\drivers\peripheral\smif/cy_smif_memslot.c **** *
 318:Generated_Source\PSoC6\pdl\drivers\peripheral\smif/cy_smif_memslot.c **** * \param base
 319:Generated_Source\PSoC6\pdl\drivers\peripheral\smif/cy_smif_memslot.c **** * Holds the base address of the SMIF block registers.
 320:Generated_Source\PSoC6\pdl\drivers\peripheral\smif/cy_smif_memslot.c **** *
 321:Generated_Source\PSoC6\pdl\drivers\peripheral\smif/cy_smif_memslot.c **** * \param context
 322:Generated_Source\PSoC6\pdl\drivers\peripheral\smif/cy_smif_memslot.c **** * The internal SMIF context data. \ref cy_stc_smif_context_t
 323:Generated_Source\PSoC6\pdl\drivers\peripheral\smif/cy_smif_memslot.c **** *
 324:Generated_Source\PSoC6\pdl\drivers\peripheral\smif/cy_smif_memslot.c **** * \param memDevice
 325:Generated_Source\PSoC6\pdl\drivers\peripheral\smif/cy_smif_memslot.c **** * The device to which the command is sent.
 326:Generated_Source\PSoC6\pdl\drivers\peripheral\smif/cy_smif_memslot.c **** *
 327:Generated_Source\PSoC6\pdl\drivers\peripheral\smif/cy_smif_memslot.c **** * \return A status of the command transmission.
 328:Generated_Source\PSoC6\pdl\drivers\peripheral\smif/cy_smif_memslot.c **** *       - \ref CY_SMIF_SUCCESS
 329:Generated_Source\PSoC6\pdl\drivers\peripheral\smif/cy_smif_memslot.c **** *       - \ref CY_SMIF_EXCEED_TIMEOUT
 330:Generated_Source\PSoC6\pdl\drivers\peripheral\smif/cy_smif_memslot.c **** *
ARM GAS  C:\Users\ikomb\AppData\Local\Temp\cc5YtlHT.s 			page 15


 331:Generated_Source\PSoC6\pdl\drivers\peripheral\smif/cy_smif_memslot.c **** *******************************************************************************/
 332:Generated_Source\PSoC6\pdl\drivers\peripheral\smif/cy_smif_memslot.c **** cy_en_smif_status_t Cy_SMIF_Memslot_CmdWriteDisable(SMIF_Type *base,
 333:Generated_Source\PSoC6\pdl\drivers\peripheral\smif/cy_smif_memslot.c ****                                     cy_stc_smif_mem_config_t const *memDevice,
 334:Generated_Source\PSoC6\pdl\drivers\peripheral\smif/cy_smif_memslot.c ****                                     cy_stc_smif_context_t const *context)
 335:Generated_Source\PSoC6\pdl\drivers\peripheral\smif/cy_smif_memslot.c **** {
 446              		.loc 1 335 0
 447              		.cfi_startproc
 448              		@ args = 0, pretend = 0, frame = 0
 449              		@ frame_needed = 0, uses_anonymous_args = 0
 450              	.LVL24:
 451 0000 F0B5     		push	{r4, r5, r6, r7, lr}
 452              		.cfi_def_cfa_offset 20
 453              		.cfi_offset 4, -20
 454              		.cfi_offset 5, -16
 455              		.cfi_offset 6, -12
 456              		.cfi_offset 7, -8
 457              		.cfi_offset 14, -4
 458 0002 87B0     		sub	sp, sp, #28
 459              		.cfi_def_cfa_offset 48
 460 0004 0600     		movs	r6, r0
 461 0006 0D00     		movs	r5, r1
 462 0008 1700     		movs	r7, r2
 336:Generated_Source\PSoC6\pdl\drivers\peripheral\smif/cy_smif_memslot.c ****     cy_stc_smif_mem_cmd_t* writeDis = memDevice->deviceCfg->writeDisCmd;
 463              		.loc 1 336 0
 464 000a 8B69     		ldr	r3, [r1, #24]
 465 000c 1C69     		ldr	r4, [r3, #16]
 466              	.LVL25:
 337:Generated_Source\PSoC6\pdl\drivers\peripheral\smif/cy_smif_memslot.c **** 
 338:Generated_Source\PSoC6\pdl\drivers\peripheral\smif/cy_smif_memslot.c ****     CY_ASSERT_L1(NULL != writeDis);  
 467              		.loc 1 338 0
 468 000e 002C     		cmp	r4, #0
 469 0010 04D1     		bne	.L23
 470              		.loc 1 338 0 is_stmt 0 discriminator 1
 471 0012 A921     		movs	r1, #169
 472              	.LVL26:
 473 0014 4900     		lsls	r1, r1, #1
 474 0016 0948     		ldr	r0, .L24
 475              	.LVL27:
 476 0018 FFF7FEFF 		bl	Cy_SysLib_AssertFailed
 477              	.LVL28:
 478              	.L23:
 339:Generated_Source\PSoC6\pdl\drivers\peripheral\smif/cy_smif_memslot.c ****      
 340:Generated_Source\PSoC6\pdl\drivers\peripheral\smif/cy_smif_memslot.c ****     /* The memory write disable */
 341:Generated_Source\PSoC6\pdl\drivers\peripheral\smif/cy_smif_memslot.c ****     return Cy_SMIF_TransmitCommand( base, (uint8_t)writeDis->command,
 479              		.loc 1 341 0 is_stmt 1
 480 001c 2279     		ldrb	r2, [r4, #4]
 481 001e 2178     		ldrb	r1, [r4]
 482 0020 0497     		str	r7, [sp, #16]
 483 0022 0123     		movs	r3, #1
 484 0024 0393     		str	r3, [sp, #12]
 485 0026 2B78     		ldrb	r3, [r5]
 486 0028 0293     		str	r3, [sp, #8]
 487 002a 0023     		movs	r3, #0
 488 002c 0193     		str	r3, [sp, #4]
 489 002e 0093     		str	r3, [sp]
 490 0030 3000     		movs	r0, r6
 491 0032 FFF7FEFF 		bl	Cy_SMIF_TransmitCommand
ARM GAS  C:\Users\ikomb\AppData\Local\Temp\cc5YtlHT.s 			page 16


 492              	.LVL29:
 342:Generated_Source\PSoC6\pdl\drivers\peripheral\smif/cy_smif_memslot.c ****                                 writeDis->cmdWidth,
 343:Generated_Source\PSoC6\pdl\drivers\peripheral\smif/cy_smif_memslot.c ****                                 CY_SMIF_CMD_WITHOUT_PARAM,
 344:Generated_Source\PSoC6\pdl\drivers\peripheral\smif/cy_smif_memslot.c ****                                 CY_SMIF_CMD_WITHOUT_PARAM,
 345:Generated_Source\PSoC6\pdl\drivers\peripheral\smif/cy_smif_memslot.c ****                                 (cy_en_smif_txfr_width_t) CY_SMIF_CMD_WITHOUT_PARAM,
 346:Generated_Source\PSoC6\pdl\drivers\peripheral\smif/cy_smif_memslot.c ****                                 memDevice->slaveSelect,
 347:Generated_Source\PSoC6\pdl\drivers\peripheral\smif/cy_smif_memslot.c ****                                 CY_SMIF_TX_LAST_BYTE,
 348:Generated_Source\PSoC6\pdl\drivers\peripheral\smif/cy_smif_memslot.c ****                                 context);
 349:Generated_Source\PSoC6\pdl\drivers\peripheral\smif/cy_smif_memslot.c **** }
 493              		.loc 1 349 0
 494 0036 07B0     		add	sp, sp, #28
 495              		@ sp needed
 496              	.LVL30:
 497              	.LVL31:
 498              	.LVL32:
 499              	.LVL33:
 500 0038 F0BD     		pop	{r4, r5, r6, r7, pc}
 501              	.L25:
 502 003a C046     		.align	2
 503              	.L24:
 504 003c 00000000 		.word	.LC0
 505              		.cfi_endproc
 506              	.LFE93:
 507              		.size	Cy_SMIF_Memslot_CmdWriteDisable, .-Cy_SMIF_Memslot_CmdWriteDisable
 508              		.section	.text.Cy_SMIF_Memslot_CmdReadSts,"ax",%progbits
 509              		.align	2
 510              		.global	Cy_SMIF_Memslot_CmdReadSts
 511              		.code	16
 512              		.thumb_func
 513              		.type	Cy_SMIF_Memslot_CmdReadSts, %function
 514              	Cy_SMIF_Memslot_CmdReadSts:
 515              	.LFB96:
 350:Generated_Source\PSoC6\pdl\drivers\peripheral\smif/cy_smif_memslot.c **** 
 351:Generated_Source\PSoC6\pdl\drivers\peripheral\smif/cy_smif_memslot.c **** 
 352:Generated_Source\PSoC6\pdl\drivers\peripheral\smif/cy_smif_memslot.c **** /*******************************************************************************
 353:Generated_Source\PSoC6\pdl\drivers\peripheral\smif/cy_smif_memslot.c **** * Function Name: Cy_SMIF_Memslot_IsBusy
 354:Generated_Source\PSoC6\pdl\drivers\peripheral\smif/cy_smif_memslot.c **** ****************************************************************************//**
 355:Generated_Source\PSoC6\pdl\drivers\peripheral\smif/cy_smif_memslot.c **** *
 356:Generated_Source\PSoC6\pdl\drivers\peripheral\smif/cy_smif_memslot.c **** * This function checks if the status of the memory device is busy.
 357:Generated_Source\PSoC6\pdl\drivers\peripheral\smif/cy_smif_memslot.c **** * This is done by reading the status register and the corresponding bit
 358:Generated_Source\PSoC6\pdl\drivers\peripheral\smif/cy_smif_memslot.c **** * (stsRegBusyMask). This function is a blocking function until the status
 359:Generated_Source\PSoC6\pdl\drivers\peripheral\smif/cy_smif_memslot.c **** * register from the memory is read.
 360:Generated_Source\PSoC6\pdl\drivers\peripheral\smif/cy_smif_memslot.c **** *
 361:Generated_Source\PSoC6\pdl\drivers\peripheral\smif/cy_smif_memslot.c **** * \note In the dual quad mode, this API is called for each memory.
 362:Generated_Source\PSoC6\pdl\drivers\peripheral\smif/cy_smif_memslot.c **** *
 363:Generated_Source\PSoC6\pdl\drivers\peripheral\smif/cy_smif_memslot.c **** * \param base
 364:Generated_Source\PSoC6\pdl\drivers\peripheral\smif/cy_smif_memslot.c **** * Holds the base address of the SMIF block registers.
 365:Generated_Source\PSoC6\pdl\drivers\peripheral\smif/cy_smif_memslot.c **** *
 366:Generated_Source\PSoC6\pdl\drivers\peripheral\smif/cy_smif_memslot.c **** * \param context
 367:Generated_Source\PSoC6\pdl\drivers\peripheral\smif/cy_smif_memslot.c **** * The internal SMIF context data.
 368:Generated_Source\PSoC6\pdl\drivers\peripheral\smif/cy_smif_memslot.c **** *
 369:Generated_Source\PSoC6\pdl\drivers\peripheral\smif/cy_smif_memslot.c **** * \param memDevice
 370:Generated_Source\PSoC6\pdl\drivers\peripheral\smif/cy_smif_memslot.c **** *  The device to which the command is sent.
 371:Generated_Source\PSoC6\pdl\drivers\peripheral\smif/cy_smif_memslot.c **** *
 372:Generated_Source\PSoC6\pdl\drivers\peripheral\smif/cy_smif_memslot.c **** * \return A status of the memory device.
 373:Generated_Source\PSoC6\pdl\drivers\peripheral\smif/cy_smif_memslot.c **** *       - True - The device is busy or a timeout occurs.
 374:Generated_Source\PSoC6\pdl\drivers\peripheral\smif/cy_smif_memslot.c **** *       - False - The device is not busy.
ARM GAS  C:\Users\ikomb\AppData\Local\Temp\cc5YtlHT.s 			page 17


 375:Generated_Source\PSoC6\pdl\drivers\peripheral\smif/cy_smif_memslot.c **** *
 376:Generated_Source\PSoC6\pdl\drivers\peripheral\smif/cy_smif_memslot.c **** *******************************************************************************/
 377:Generated_Source\PSoC6\pdl\drivers\peripheral\smif/cy_smif_memslot.c **** bool Cy_SMIF_Memslot_IsBusy(SMIF_Type *base, cy_stc_smif_mem_config_t *memDevice,
 378:Generated_Source\PSoC6\pdl\drivers\peripheral\smif/cy_smif_memslot.c ****                             cy_stc_smif_context_t const *context)
 379:Generated_Source\PSoC6\pdl\drivers\peripheral\smif/cy_smif_memslot.c **** {
 380:Generated_Source\PSoC6\pdl\drivers\peripheral\smif/cy_smif_memslot.c ****     uint8_t  status = 1U;
 381:Generated_Source\PSoC6\pdl\drivers\peripheral\smif/cy_smif_memslot.c ****     cy_en_smif_status_t readStsResult;
 382:Generated_Source\PSoC6\pdl\drivers\peripheral\smif/cy_smif_memslot.c ****     cy_stc_smif_mem_device_cfg_t* device =  memDevice->deviceCfg;
 383:Generated_Source\PSoC6\pdl\drivers\peripheral\smif/cy_smif_memslot.c **** 
 384:Generated_Source\PSoC6\pdl\drivers\peripheral\smif/cy_smif_memslot.c ****     CY_ASSERT_L1(NULL != device->readStsRegWipCmd);  
 385:Generated_Source\PSoC6\pdl\drivers\peripheral\smif/cy_smif_memslot.c ****     
 386:Generated_Source\PSoC6\pdl\drivers\peripheral\smif/cy_smif_memslot.c ****     readStsResult = Cy_SMIF_Memslot_CmdReadSts(base, memDevice, &status,
 387:Generated_Source\PSoC6\pdl\drivers\peripheral\smif/cy_smif_memslot.c ****                          (uint8_t)device->readStsRegWipCmd->command,
 388:Generated_Source\PSoC6\pdl\drivers\peripheral\smif/cy_smif_memslot.c ****                          context);
 389:Generated_Source\PSoC6\pdl\drivers\peripheral\smif/cy_smif_memslot.c **** 
 390:Generated_Source\PSoC6\pdl\drivers\peripheral\smif/cy_smif_memslot.c ****     if (CY_SMIF_SUCCESS == readStsResult)
 391:Generated_Source\PSoC6\pdl\drivers\peripheral\smif/cy_smif_memslot.c ****     {
 392:Generated_Source\PSoC6\pdl\drivers\peripheral\smif/cy_smif_memslot.c ****         /* Masked not busy bits in returned status */
 393:Generated_Source\PSoC6\pdl\drivers\peripheral\smif/cy_smif_memslot.c ****         status &= (uint8_t)device->stsRegBusyMask;
 394:Generated_Source\PSoC6\pdl\drivers\peripheral\smif/cy_smif_memslot.c ****     }
 395:Generated_Source\PSoC6\pdl\drivers\peripheral\smif/cy_smif_memslot.c **** 
 396:Generated_Source\PSoC6\pdl\drivers\peripheral\smif/cy_smif_memslot.c ****     return (0U != status);
 397:Generated_Source\PSoC6\pdl\drivers\peripheral\smif/cy_smif_memslot.c **** }
 398:Generated_Source\PSoC6\pdl\drivers\peripheral\smif/cy_smif_memslot.c **** 
 399:Generated_Source\PSoC6\pdl\drivers\peripheral\smif/cy_smif_memslot.c **** 
 400:Generated_Source\PSoC6\pdl\drivers\peripheral\smif/cy_smif_memslot.c **** /*******************************************************************************
 401:Generated_Source\PSoC6\pdl\drivers\peripheral\smif/cy_smif_memslot.c **** * Function Name: Cy_SMIF_Memslot_QuadEnable
 402:Generated_Source\PSoC6\pdl\drivers\peripheral\smif/cy_smif_memslot.c **** ****************************************************************************//**
 403:Generated_Source\PSoC6\pdl\drivers\peripheral\smif/cy_smif_memslot.c **** *
 404:Generated_Source\PSoC6\pdl\drivers\peripheral\smif/cy_smif_memslot.c **** * This function enables the memory device for the quad mode of operation.
 405:Generated_Source\PSoC6\pdl\drivers\peripheral\smif/cy_smif_memslot.c **** * This command must be executed before sending Quad SPI commands to the
 406:Generated_Source\PSoC6\pdl\drivers\peripheral\smif/cy_smif_memslot.c **** * memory device.
 407:Generated_Source\PSoC6\pdl\drivers\peripheral\smif/cy_smif_memslot.c **** *
 408:Generated_Source\PSoC6\pdl\drivers\peripheral\smif/cy_smif_memslot.c **** * \note In the dual quad mode, this API is called for each memory.
 409:Generated_Source\PSoC6\pdl\drivers\peripheral\smif/cy_smif_memslot.c **** *
 410:Generated_Source\PSoC6\pdl\drivers\peripheral\smif/cy_smif_memslot.c **** * \param base
 411:Generated_Source\PSoC6\pdl\drivers\peripheral\smif/cy_smif_memslot.c **** * Holds the base address of the SMIF block registers.
 412:Generated_Source\PSoC6\pdl\drivers\peripheral\smif/cy_smif_memslot.c **** *
 413:Generated_Source\PSoC6\pdl\drivers\peripheral\smif/cy_smif_memslot.c **** * \param context
 414:Generated_Source\PSoC6\pdl\drivers\peripheral\smif/cy_smif_memslot.c **** * The internal SMIF context data.
 415:Generated_Source\PSoC6\pdl\drivers\peripheral\smif/cy_smif_memslot.c **** *
 416:Generated_Source\PSoC6\pdl\drivers\peripheral\smif/cy_smif_memslot.c **** * \param memDevice
 417:Generated_Source\PSoC6\pdl\drivers\peripheral\smif/cy_smif_memslot.c **** * The device to which the command is sent.
 418:Generated_Source\PSoC6\pdl\drivers\peripheral\smif/cy_smif_memslot.c **** *
 419:Generated_Source\PSoC6\pdl\drivers\peripheral\smif/cy_smif_memslot.c **** * \return A status of the command.
 420:Generated_Source\PSoC6\pdl\drivers\peripheral\smif/cy_smif_memslot.c **** *   - \ref CY_SMIF_SUCCESS
 421:Generated_Source\PSoC6\pdl\drivers\peripheral\smif/cy_smif_memslot.c **** *   - \ref CY_SMIF_NO_QE_BIT
 422:Generated_Source\PSoC6\pdl\drivers\peripheral\smif/cy_smif_memslot.c **** *   - \ref CY_SMIF_CMD_FIFO_FULL
 423:Generated_Source\PSoC6\pdl\drivers\peripheral\smif/cy_smif_memslot.c **** *   - \ref CY_SMIF_BAD_PARAM
 424:Generated_Source\PSoC6\pdl\drivers\peripheral\smif/cy_smif_memslot.c **** *
 425:Generated_Source\PSoC6\pdl\drivers\peripheral\smif/cy_smif_memslot.c **** *******************************************************************************/
 426:Generated_Source\PSoC6\pdl\drivers\peripheral\smif/cy_smif_memslot.c **** cy_en_smif_status_t Cy_SMIF_Memslot_QuadEnable(SMIF_Type *base,
 427:Generated_Source\PSoC6\pdl\drivers\peripheral\smif/cy_smif_memslot.c ****                                     cy_stc_smif_mem_config_t *memDevice,
 428:Generated_Source\PSoC6\pdl\drivers\peripheral\smif/cy_smif_memslot.c ****                                     cy_stc_smif_context_t const *context)
 429:Generated_Source\PSoC6\pdl\drivers\peripheral\smif/cy_smif_memslot.c **** {
 430:Generated_Source\PSoC6\pdl\drivers\peripheral\smif/cy_smif_memslot.c ****     cy_en_smif_status_t result;
 431:Generated_Source\PSoC6\pdl\drivers\peripheral\smif/cy_smif_memslot.c ****     uint8_t statusReg[CY_SMIF_QE_BIT_STS_REG2_T1] = {0U};  
ARM GAS  C:\Users\ikomb\AppData\Local\Temp\cc5YtlHT.s 			page 18


 432:Generated_Source\PSoC6\pdl\drivers\peripheral\smif/cy_smif_memslot.c ****     cy_stc_smif_mem_device_cfg_t* device =  memDevice->deviceCfg;
 433:Generated_Source\PSoC6\pdl\drivers\peripheral\smif/cy_smif_memslot.c ****     
 434:Generated_Source\PSoC6\pdl\drivers\peripheral\smif/cy_smif_memslot.c ****     /* Check that command exists */
 435:Generated_Source\PSoC6\pdl\drivers\peripheral\smif/cy_smif_memslot.c ****     CY_ASSERT_L1(NULL != device->readStsRegQeCmd);
 436:Generated_Source\PSoC6\pdl\drivers\peripheral\smif/cy_smif_memslot.c ****     CY_ASSERT_L1(NULL != device->writeStsRegQeCmd);
 437:Generated_Source\PSoC6\pdl\drivers\peripheral\smif/cy_smif_memslot.c ****     CY_ASSERT_L1(NULL != device->readStsRegWipCmd);
 438:Generated_Source\PSoC6\pdl\drivers\peripheral\smif/cy_smif_memslot.c ****     
 439:Generated_Source\PSoC6\pdl\drivers\peripheral\smif/cy_smif_memslot.c ****     uint8_t readQeCmd  = (uint8_t)device->readStsRegQeCmd->command;
 440:Generated_Source\PSoC6\pdl\drivers\peripheral\smif/cy_smif_memslot.c ****     uint8_t writeQeCmd = (uint8_t)device->writeStsRegQeCmd->command;
 441:Generated_Source\PSoC6\pdl\drivers\peripheral\smif/cy_smif_memslot.c ****     uint8_t readWipCmd = (uint8_t)device->readStsRegWipCmd->command;
 442:Generated_Source\PSoC6\pdl\drivers\peripheral\smif/cy_smif_memslot.c **** 
 443:Generated_Source\PSoC6\pdl\drivers\peripheral\smif/cy_smif_memslot.c ****     result = Cy_SMIF_Memslot_CmdReadSts(base, memDevice, &statusReg[0U],
 444:Generated_Source\PSoC6\pdl\drivers\peripheral\smif/cy_smif_memslot.c ****                 readQeCmd, context);
 445:Generated_Source\PSoC6\pdl\drivers\peripheral\smif/cy_smif_memslot.c **** 
 446:Generated_Source\PSoC6\pdl\drivers\peripheral\smif/cy_smif_memslot.c ****     if (CY_SMIF_SUCCESS == result)
 447:Generated_Source\PSoC6\pdl\drivers\peripheral\smif/cy_smif_memslot.c ****     {
 448:Generated_Source\PSoC6\pdl\drivers\peripheral\smif/cy_smif_memslot.c ****         uint32_t qeMask = device->stsRegQuadEnableMask;
 449:Generated_Source\PSoC6\pdl\drivers\peripheral\smif/cy_smif_memslot.c **** 
 450:Generated_Source\PSoC6\pdl\drivers\peripheral\smif/cy_smif_memslot.c ****         switch(qeMask)
 451:Generated_Source\PSoC6\pdl\drivers\peripheral\smif/cy_smif_memslot.c ****         {
 452:Generated_Source\PSoC6\pdl\drivers\peripheral\smif/cy_smif_memslot.c ****             case CY_SMIF_SFDP_QE_BIT_6_OF_SR_1:
 453:Generated_Source\PSoC6\pdl\drivers\peripheral\smif/cy_smif_memslot.c ****                 statusReg[0U] |= (uint8_t)qeMask;
 454:Generated_Source\PSoC6\pdl\drivers\peripheral\smif/cy_smif_memslot.c ****                 result = Cy_SMIF_Memslot_CmdWriteSts(base, memDevice,
 455:Generated_Source\PSoC6\pdl\drivers\peripheral\smif/cy_smif_memslot.c ****                             &statusReg[0U], writeQeCmd, context);
 456:Generated_Source\PSoC6\pdl\drivers\peripheral\smif/cy_smif_memslot.c ****                 break;
 457:Generated_Source\PSoC6\pdl\drivers\peripheral\smif/cy_smif_memslot.c ****             case CY_SMIF_SFDP_QE_BIT_1_OF_SR_2:
 458:Generated_Source\PSoC6\pdl\drivers\peripheral\smif/cy_smif_memslot.c ****                 /* Read status register 1 with the assumption that WIP is always in
 459:Generated_Source\PSoC6\pdl\drivers\peripheral\smif/cy_smif_memslot.c ****                  * status register 1 */
 460:Generated_Source\PSoC6\pdl\drivers\peripheral\smif/cy_smif_memslot.c ****                 result = Cy_SMIF_Memslot_CmdReadSts(base, memDevice,
 461:Generated_Source\PSoC6\pdl\drivers\peripheral\smif/cy_smif_memslot.c ****                             &statusReg[0U], readWipCmd, context);
 462:Generated_Source\PSoC6\pdl\drivers\peripheral\smif/cy_smif_memslot.c ****                 if (CY_SMIF_SUCCESS == result)
 463:Generated_Source\PSoC6\pdl\drivers\peripheral\smif/cy_smif_memslot.c ****                 {
 464:Generated_Source\PSoC6\pdl\drivers\peripheral\smif/cy_smif_memslot.c ****                     result = Cy_SMIF_Memslot_CmdReadSts(base, memDevice,
 465:Generated_Source\PSoC6\pdl\drivers\peripheral\smif/cy_smif_memslot.c ****                                 &statusReg[1U], readQeCmd, context);
 466:Generated_Source\PSoC6\pdl\drivers\peripheral\smif/cy_smif_memslot.c ****                     if (CY_SMIF_SUCCESS == result)
 467:Generated_Source\PSoC6\pdl\drivers\peripheral\smif/cy_smif_memslot.c ****                     {
 468:Generated_Source\PSoC6\pdl\drivers\peripheral\smif/cy_smif_memslot.c ****                         statusReg[1U] |= (uint8_t)qeMask;
 469:Generated_Source\PSoC6\pdl\drivers\peripheral\smif/cy_smif_memslot.c ****                         result = Cy_SMIF_Memslot_CmdWriteSts(base, memDevice,
 470:Generated_Source\PSoC6\pdl\drivers\peripheral\smif/cy_smif_memslot.c ****                                     statusReg, writeQeCmd, context);
 471:Generated_Source\PSoC6\pdl\drivers\peripheral\smif/cy_smif_memslot.c ****                     }
 472:Generated_Source\PSoC6\pdl\drivers\peripheral\smif/cy_smif_memslot.c ****                 }
 473:Generated_Source\PSoC6\pdl\drivers\peripheral\smif/cy_smif_memslot.c ****                 break;
 474:Generated_Source\PSoC6\pdl\drivers\peripheral\smif/cy_smif_memslot.c ****             case CY_SMIF_SFDP_QE_BIT_7_OF_SR_2:
 475:Generated_Source\PSoC6\pdl\drivers\peripheral\smif/cy_smif_memslot.c ****                 result = Cy_SMIF_Memslot_CmdReadSts(base, memDevice,
 476:Generated_Source\PSoC6\pdl\drivers\peripheral\smif/cy_smif_memslot.c ****                             &statusReg[1U], readQeCmd, context);
 477:Generated_Source\PSoC6\pdl\drivers\peripheral\smif/cy_smif_memslot.c ****                 if (CY_SMIF_SUCCESS == result)
 478:Generated_Source\PSoC6\pdl\drivers\peripheral\smif/cy_smif_memslot.c ****                 {
 479:Generated_Source\PSoC6\pdl\drivers\peripheral\smif/cy_smif_memslot.c ****                     statusReg[1U] |= (uint8_t)qeMask;
 480:Generated_Source\PSoC6\pdl\drivers\peripheral\smif/cy_smif_memslot.c ****                     result = Cy_SMIF_Memslot_CmdWriteSts(base, memDevice,
 481:Generated_Source\PSoC6\pdl\drivers\peripheral\smif/cy_smif_memslot.c ****                                 &statusReg[1U], writeQeCmd, context);
 482:Generated_Source\PSoC6\pdl\drivers\peripheral\smif/cy_smif_memslot.c ****                 }
 483:Generated_Source\PSoC6\pdl\drivers\peripheral\smif/cy_smif_memslot.c ****                 break;
 484:Generated_Source\PSoC6\pdl\drivers\peripheral\smif/cy_smif_memslot.c ****             default:
 485:Generated_Source\PSoC6\pdl\drivers\peripheral\smif/cy_smif_memslot.c ****                 result = CY_SMIF_NO_QE_BIT;
 486:Generated_Source\PSoC6\pdl\drivers\peripheral\smif/cy_smif_memslot.c ****                 break;
 487:Generated_Source\PSoC6\pdl\drivers\peripheral\smif/cy_smif_memslot.c ****         }
 488:Generated_Source\PSoC6\pdl\drivers\peripheral\smif/cy_smif_memslot.c **** 
ARM GAS  C:\Users\ikomb\AppData\Local\Temp\cc5YtlHT.s 			page 19


 489:Generated_Source\PSoC6\pdl\drivers\peripheral\smif/cy_smif_memslot.c ****     }
 490:Generated_Source\PSoC6\pdl\drivers\peripheral\smif/cy_smif_memslot.c **** 
 491:Generated_Source\PSoC6\pdl\drivers\peripheral\smif/cy_smif_memslot.c ****     return(result);
 492:Generated_Source\PSoC6\pdl\drivers\peripheral\smif/cy_smif_memslot.c **** }
 493:Generated_Source\PSoC6\pdl\drivers\peripheral\smif/cy_smif_memslot.c **** 
 494:Generated_Source\PSoC6\pdl\drivers\peripheral\smif/cy_smif_memslot.c **** 
 495:Generated_Source\PSoC6\pdl\drivers\peripheral\smif/cy_smif_memslot.c **** /*******************************************************************************
 496:Generated_Source\PSoC6\pdl\drivers\peripheral\smif/cy_smif_memslot.c **** * Function Name: Cy_SMIF_Memslot_CmdReadSts
 497:Generated_Source\PSoC6\pdl\drivers\peripheral\smif/cy_smif_memslot.c **** ****************************************************************************//**
 498:Generated_Source\PSoC6\pdl\drivers\peripheral\smif/cy_smif_memslot.c **** *
 499:Generated_Source\PSoC6\pdl\drivers\peripheral\smif/cy_smif_memslot.c **** * This function reads the status register. This function is a blocking function,
 500:Generated_Source\PSoC6\pdl\drivers\peripheral\smif/cy_smif_memslot.c **** * it will block the execution flow until the status register is read.
 501:Generated_Source\PSoC6\pdl\drivers\peripheral\smif/cy_smif_memslot.c **** *
 502:Generated_Source\PSoC6\pdl\drivers\peripheral\smif/cy_smif_memslot.c **** * \note This function uses the low-level Cy_SMIF_TransmitCommand() API.
 503:Generated_Source\PSoC6\pdl\drivers\peripheral\smif/cy_smif_memslot.c **** * the Cy_SMIF_TransmitCommand() API works in a blocking mode. In the dual quad mode,
 504:Generated_Source\PSoC6\pdl\drivers\peripheral\smif/cy_smif_memslot.c **** * this API is called for each memory.
 505:Generated_Source\PSoC6\pdl\drivers\peripheral\smif/cy_smif_memslot.c **** *
 506:Generated_Source\PSoC6\pdl\drivers\peripheral\smif/cy_smif_memslot.c **** * \param base
 507:Generated_Source\PSoC6\pdl\drivers\peripheral\smif/cy_smif_memslot.c **** * Holds the base address of the SMIF block registers.
 508:Generated_Source\PSoC6\pdl\drivers\peripheral\smif/cy_smif_memslot.c **** *
 509:Generated_Source\PSoC6\pdl\drivers\peripheral\smif/cy_smif_memslot.c **** * \param context
 510:Generated_Source\PSoC6\pdl\drivers\peripheral\smif/cy_smif_memslot.c **** * The internal SMIF context data.
 511:Generated_Source\PSoC6\pdl\drivers\peripheral\smif/cy_smif_memslot.c **** *
 512:Generated_Source\PSoC6\pdl\drivers\peripheral\smif/cy_smif_memslot.c **** * \param memDevice
 513:Generated_Source\PSoC6\pdl\drivers\peripheral\smif/cy_smif_memslot.c **** * The device to which the command is sent.
 514:Generated_Source\PSoC6\pdl\drivers\peripheral\smif/cy_smif_memslot.c **** *
 515:Generated_Source\PSoC6\pdl\drivers\peripheral\smif/cy_smif_memslot.c **** * \param status
 516:Generated_Source\PSoC6\pdl\drivers\peripheral\smif/cy_smif_memslot.c **** * The status register value returned by the external memory.
 517:Generated_Source\PSoC6\pdl\drivers\peripheral\smif/cy_smif_memslot.c **** *
 518:Generated_Source\PSoC6\pdl\drivers\peripheral\smif/cy_smif_memslot.c **** * \param command
 519:Generated_Source\PSoC6\pdl\drivers\peripheral\smif/cy_smif_memslot.c **** * The command required to read the status/configuration register.
 520:Generated_Source\PSoC6\pdl\drivers\peripheral\smif/cy_smif_memslot.c **** *
 521:Generated_Source\PSoC6\pdl\drivers\peripheral\smif/cy_smif_memslot.c **** * \return A status of the command reception.
 522:Generated_Source\PSoC6\pdl\drivers\peripheral\smif/cy_smif_memslot.c **** *       - \ref CY_SMIF_SUCCESS
 523:Generated_Source\PSoC6\pdl\drivers\peripheral\smif/cy_smif_memslot.c **** *       - \ref CY_SMIF_CMD_FIFO_FULL
 524:Generated_Source\PSoC6\pdl\drivers\peripheral\smif/cy_smif_memslot.c **** *       - \ref CY_SMIF_EXCEED_TIMEOUT
 525:Generated_Source\PSoC6\pdl\drivers\peripheral\smif/cy_smif_memslot.c **** *
 526:Generated_Source\PSoC6\pdl\drivers\peripheral\smif/cy_smif_memslot.c **** *******************************************************************************/
 527:Generated_Source\PSoC6\pdl\drivers\peripheral\smif/cy_smif_memslot.c **** cy_en_smif_status_t Cy_SMIF_Memslot_CmdReadSts(SMIF_Type *base,
 528:Generated_Source\PSoC6\pdl\drivers\peripheral\smif/cy_smif_memslot.c ****                                     cy_stc_smif_mem_config_t const *memDevice,
 529:Generated_Source\PSoC6\pdl\drivers\peripheral\smif/cy_smif_memslot.c ****                                     uint8_t *status,
 530:Generated_Source\PSoC6\pdl\drivers\peripheral\smif/cy_smif_memslot.c ****                                     uint8_t command,
 531:Generated_Source\PSoC6\pdl\drivers\peripheral\smif/cy_smif_memslot.c ****                                     cy_stc_smif_context_t const *context)
 532:Generated_Source\PSoC6\pdl\drivers\peripheral\smif/cy_smif_memslot.c **** {
 516              		.loc 1 532 0
 517              		.cfi_startproc
 518              		@ args = 4, pretend = 0, frame = 0
 519              		@ frame_needed = 0, uses_anonymous_args = 0
 520              	.LVL34:
 521 0000 30B5     		push	{r4, r5, lr}
 522              		.cfi_def_cfa_offset 12
 523              		.cfi_offset 4, -12
 524              		.cfi_offset 5, -8
 525              		.cfi_offset 14, -4
 526 0002 87B0     		sub	sp, sp, #28
 527              		.cfi_def_cfa_offset 40
 528 0004 0400     		movs	r4, r0
ARM GAS  C:\Users\ikomb\AppData\Local\Temp\cc5YtlHT.s 			page 20


 529 0006 1500     		movs	r5, r2
 530 0008 1800     		movs	r0, r3
 531              	.LVL35:
 533:Generated_Source\PSoC6\pdl\drivers\peripheral\smif/cy_smif_memslot.c ****     cy_en_smif_status_t result;
 534:Generated_Source\PSoC6\pdl\drivers\peripheral\smif/cy_smif_memslot.c **** 
 535:Generated_Source\PSoC6\pdl\drivers\peripheral\smif/cy_smif_memslot.c ****     /* Read the memory status register */
 536:Generated_Source\PSoC6\pdl\drivers\peripheral\smif/cy_smif_memslot.c ****     result = Cy_SMIF_TransmitCommand( base, command, CY_SMIF_WIDTH_SINGLE,
 532              		.loc 1 536 0
 533 000a 0A78     		ldrb	r2, [r1]
 534              	.LVL36:
 535 000c 0A9B     		ldr	r3, [sp, #40]
 536              	.LVL37:
 537 000e 0493     		str	r3, [sp, #16]
 538 0010 0023     		movs	r3, #0
 539 0012 0393     		str	r3, [sp, #12]
 540 0014 0292     		str	r2, [sp, #8]
 541 0016 0193     		str	r3, [sp, #4]
 542 0018 0093     		str	r3, [sp]
 543 001a 0022     		movs	r2, #0
 544 001c 0100     		movs	r1, r0
 545              	.LVL38:
 546 001e 2000     		movs	r0, r4
 547 0020 FFF7FEFF 		bl	Cy_SMIF_TransmitCommand
 548              	.LVL39:
 537:Generated_Source\PSoC6\pdl\drivers\peripheral\smif/cy_smif_memslot.c ****                 CY_SMIF_CMD_WITHOUT_PARAM, CY_SMIF_CMD_WITHOUT_PARAM,
 538:Generated_Source\PSoC6\pdl\drivers\peripheral\smif/cy_smif_memslot.c ****                 (cy_en_smif_txfr_width_t) CY_SMIF_CMD_WITHOUT_PARAM,
 539:Generated_Source\PSoC6\pdl\drivers\peripheral\smif/cy_smif_memslot.c ****                 memDevice->slaveSelect, CY_SMIF_TX_NOT_LAST_BYTE, context);
 540:Generated_Source\PSoC6\pdl\drivers\peripheral\smif/cy_smif_memslot.c **** 
 541:Generated_Source\PSoC6\pdl\drivers\peripheral\smif/cy_smif_memslot.c ****     if (CY_SMIF_SUCCESS == result)
 549              		.loc 1 541 0
 550 0024 0028     		cmp	r0, #0
 551 0026 07D1     		bne	.L27
 542:Generated_Source\PSoC6\pdl\drivers\peripheral\smif/cy_smif_memslot.c ****     {
 543:Generated_Source\PSoC6\pdl\drivers\peripheral\smif/cy_smif_memslot.c ****         result = Cy_SMIF_ReceiveDataBlocking( base, status,
 552              		.loc 1 543 0
 553 0028 0A9B     		ldr	r3, [sp, #40]
 554 002a 0093     		str	r3, [sp]
 555 002c 0023     		movs	r3, #0
 556 002e 0122     		movs	r2, #1
 557 0030 2900     		movs	r1, r5
 558 0032 2000     		movs	r0, r4
 559              	.LVL40:
 560 0034 FFF7FEFF 		bl	Cy_SMIF_ReceiveDataBlocking
 561              	.LVL41:
 562              	.L27:
 544:Generated_Source\PSoC6\pdl\drivers\peripheral\smif/cy_smif_memslot.c ****                     CY_SMIF_READ_ONE_BYTE, CY_SMIF_WIDTH_SINGLE, context);
 545:Generated_Source\PSoC6\pdl\drivers\peripheral\smif/cy_smif_memslot.c ****     }
 546:Generated_Source\PSoC6\pdl\drivers\peripheral\smif/cy_smif_memslot.c **** 
 547:Generated_Source\PSoC6\pdl\drivers\peripheral\smif/cy_smif_memslot.c ****     return(result);
 548:Generated_Source\PSoC6\pdl\drivers\peripheral\smif/cy_smif_memslot.c **** }
 563              		.loc 1 548 0
 564 0038 07B0     		add	sp, sp, #28
 565              		@ sp needed
 566              	.LVL42:
 567              	.LVL43:
 568 003a 30BD     		pop	{r4, r5, pc}
 569              		.cfi_endproc
ARM GAS  C:\Users\ikomb\AppData\Local\Temp\cc5YtlHT.s 			page 21


 570              	.LFE96:
 571              		.size	Cy_SMIF_Memslot_CmdReadSts, .-Cy_SMIF_Memslot_CmdReadSts
 572              		.section	.text.Cy_SMIF_Memslot_IsBusy,"ax",%progbits
 573              		.align	2
 574              		.global	Cy_SMIF_Memslot_IsBusy
 575              		.code	16
 576              		.thumb_func
 577              		.type	Cy_SMIF_Memslot_IsBusy, %function
 578              	Cy_SMIF_Memslot_IsBusy:
 579              	.LFB94:
 379:Generated_Source\PSoC6\pdl\drivers\peripheral\smif/cy_smif_memslot.c ****     uint8_t  status = 1U;
 580              		.loc 1 379 0
 581              		.cfi_startproc
 582              		@ args = 0, pretend = 0, frame = 8
 583              		@ frame_needed = 0, uses_anonymous_args = 0
 584              	.LVL44:
 585 0000 F0B5     		push	{r4, r5, r6, r7, lr}
 586              		.cfi_def_cfa_offset 20
 587              		.cfi_offset 4, -20
 588              		.cfi_offset 5, -16
 589              		.cfi_offset 6, -12
 590              		.cfi_offset 7, -8
 591              		.cfi_offset 14, -4
 592 0002 85B0     		sub	sp, sp, #20
 593              		.cfi_def_cfa_offset 40
 594 0004 0600     		movs	r6, r0
 595 0006 0D00     		movs	r5, r1
 596 0008 1700     		movs	r7, r2
 380:Generated_Source\PSoC6\pdl\drivers\peripheral\smif/cy_smif_memslot.c ****     cy_en_smif_status_t readStsResult;
 597              		.loc 1 380 0
 598 000a 0122     		movs	r2, #1
 599              	.LVL45:
 600 000c 0F23     		movs	r3, #15
 601 000e 6B44     		add	r3, r3, sp
 602 0010 1A70     		strb	r2, [r3]
 382:Generated_Source\PSoC6\pdl\drivers\peripheral\smif/cy_smif_memslot.c **** 
 603              		.loc 1 382 0
 604 0012 8C69     		ldr	r4, [r1, #24]
 605              	.LVL46:
 384:Generated_Source\PSoC6\pdl\drivers\peripheral\smif/cy_smif_memslot.c ****     
 606              		.loc 1 384 0
 607 0014 A36A     		ldr	r3, [r4, #40]
 608 0016 002B     		cmp	r3, #0
 609 0018 04D1     		bne	.L29
 384:Generated_Source\PSoC6\pdl\drivers\peripheral\smif/cy_smif_memslot.c ****     
 610              		.loc 1 384 0 is_stmt 0 discriminator 1
 611 001a C021     		movs	r1, #192
 612              	.LVL47:
 613 001c 4900     		lsls	r1, r1, #1
 614 001e 0E48     		ldr	r0, .L31
 615              	.LVL48:
 616 0020 FFF7FEFF 		bl	Cy_SysLib_AssertFailed
 617              	.LVL49:
 618              	.L29:
 386:Generated_Source\PSoC6\pdl\drivers\peripheral\smif/cy_smif_memslot.c ****                          (uint8_t)device->readStsRegWipCmd->command,
 619              		.loc 1 386 0 is_stmt 1
 620 0024 A36A     		ldr	r3, [r4, #40]
ARM GAS  C:\Users\ikomb\AppData\Local\Temp\cc5YtlHT.s 			page 22


 621 0026 1B78     		ldrb	r3, [r3]
 622 0028 0097     		str	r7, [sp]
 623 002a 0F22     		movs	r2, #15
 624 002c 6A44     		add	r2, r2, sp
 625 002e 2900     		movs	r1, r5
 626 0030 3000     		movs	r0, r6
 627 0032 FFF7FEFF 		bl	Cy_SMIF_Memslot_CmdReadSts
 628              	.LVL50:
 390:Generated_Source\PSoC6\pdl\drivers\peripheral\smif/cy_smif_memslot.c ****     {
 629              		.loc 1 390 0
 630 0036 0028     		cmp	r0, #0
 631 0038 05D1     		bne	.L30
 393:Generated_Source\PSoC6\pdl\drivers\peripheral\smif/cy_smif_memslot.c ****     }
 632              		.loc 1 393 0
 633 003a A16B     		ldr	r1, [r4, #56]
 634 003c 0F22     		movs	r2, #15
 635 003e 6A44     		add	r2, r2, sp
 636 0040 1378     		ldrb	r3, [r2]
 637 0042 0B40     		ands	r3, r1
 638 0044 1370     		strb	r3, [r2]
 639              	.L30:
 396:Generated_Source\PSoC6\pdl\drivers\peripheral\smif/cy_smif_memslot.c **** }
 640              		.loc 1 396 0
 641 0046 0F23     		movs	r3, #15
 642 0048 6B44     		add	r3, r3, sp
 643 004a 1878     		ldrb	r0, [r3]
 644              	.LVL51:
 645 004c 431E     		subs	r3, r0, #1
 646 004e 9841     		sbcs	r0, r0, r3
 647 0050 C0B2     		uxtb	r0, r0
 397:Generated_Source\PSoC6\pdl\drivers\peripheral\smif/cy_smif_memslot.c **** 
 648              		.loc 1 397 0
 649 0052 05B0     		add	sp, sp, #20
 650              		@ sp needed
 651              	.LVL52:
 652              	.LVL53:
 653              	.LVL54:
 654              	.LVL55:
 655 0054 F0BD     		pop	{r4, r5, r6, r7, pc}
 656              	.L32:
 657 0056 C046     		.align	2
 658              	.L31:
 659 0058 00000000 		.word	.LC0
 660              		.cfi_endproc
 661              	.LFE94:
 662              		.size	Cy_SMIF_Memslot_IsBusy, .-Cy_SMIF_Memslot_IsBusy
 663              		.section	.text.Cy_SMIF_Memslot_CmdWriteSts,"ax",%progbits
 664              		.align	2
 665              		.global	Cy_SMIF_Memslot_CmdWriteSts
 666              		.code	16
 667              		.thumb_func
 668              		.type	Cy_SMIF_Memslot_CmdWriteSts, %function
 669              	Cy_SMIF_Memslot_CmdWriteSts:
 670              	.LFB97:
 549:Generated_Source\PSoC6\pdl\drivers\peripheral\smif/cy_smif_memslot.c **** 
 550:Generated_Source\PSoC6\pdl\drivers\peripheral\smif/cy_smif_memslot.c **** 
 551:Generated_Source\PSoC6\pdl\drivers\peripheral\smif/cy_smif_memslot.c **** /*******************************************************************************
ARM GAS  C:\Users\ikomb\AppData\Local\Temp\cc5YtlHT.s 			page 23


 552:Generated_Source\PSoC6\pdl\drivers\peripheral\smif/cy_smif_memslot.c **** * Function Name: Cy_SMIF_Memslot_CmdWriteSts
 553:Generated_Source\PSoC6\pdl\drivers\peripheral\smif/cy_smif_memslot.c **** ****************************************************************************//**
 554:Generated_Source\PSoC6\pdl\drivers\peripheral\smif/cy_smif_memslot.c **** *
 555:Generated_Source\PSoC6\pdl\drivers\peripheral\smif/cy_smif_memslot.c **** * This function writes the status register. This is a blocking function, it will
 556:Generated_Source\PSoC6\pdl\drivers\peripheral\smif/cy_smif_memslot.c **** * block the execution flow until the command transmission is completed.
 557:Generated_Source\PSoC6\pdl\drivers\peripheral\smif/cy_smif_memslot.c **** *
 558:Generated_Source\PSoC6\pdl\drivers\peripheral\smif/cy_smif_memslot.c **** * \note This function uses the low-level Cy_SMIF_TransmitCommand() API.
 559:Generated_Source\PSoC6\pdl\drivers\peripheral\smif/cy_smif_memslot.c **** * The Cy_SMIF_TransmitCommand() API works in a blocking mode. In the dual quad mode,
 560:Generated_Source\PSoC6\pdl\drivers\peripheral\smif/cy_smif_memslot.c **** * this API is called for each memory.
 561:Generated_Source\PSoC6\pdl\drivers\peripheral\smif/cy_smif_memslot.c **** *
 562:Generated_Source\PSoC6\pdl\drivers\peripheral\smif/cy_smif_memslot.c **** * \param base
 563:Generated_Source\PSoC6\pdl\drivers\peripheral\smif/cy_smif_memslot.c **** * Holds the base address of the SMIF block registers.
 564:Generated_Source\PSoC6\pdl\drivers\peripheral\smif/cy_smif_memslot.c **** *
 565:Generated_Source\PSoC6\pdl\drivers\peripheral\smif/cy_smif_memslot.c **** * \param context
 566:Generated_Source\PSoC6\pdl\drivers\peripheral\smif/cy_smif_memslot.c **** * The internal SMIF context data. \ref cy_stc_smif_context_t
 567:Generated_Source\PSoC6\pdl\drivers\peripheral\smif/cy_smif_memslot.c **** *
 568:Generated_Source\PSoC6\pdl\drivers\peripheral\smif/cy_smif_memslot.c **** * \param memDevice
 569:Generated_Source\PSoC6\pdl\drivers\peripheral\smif/cy_smif_memslot.c **** * The device to which the command is sent.
 570:Generated_Source\PSoC6\pdl\drivers\peripheral\smif/cy_smif_memslot.c **** *
 571:Generated_Source\PSoC6\pdl\drivers\peripheral\smif/cy_smif_memslot.c **** * \param status
 572:Generated_Source\PSoC6\pdl\drivers\peripheral\smif/cy_smif_memslot.c **** * The status to write into the status register.
 573:Generated_Source\PSoC6\pdl\drivers\peripheral\smif/cy_smif_memslot.c **** *
 574:Generated_Source\PSoC6\pdl\drivers\peripheral\smif/cy_smif_memslot.c **** * \param command
 575:Generated_Source\PSoC6\pdl\drivers\peripheral\smif/cy_smif_memslot.c **** * The command to write into the status/configuration register.              
 576:Generated_Source\PSoC6\pdl\drivers\peripheral\smif/cy_smif_memslot.c **** *
 577:Generated_Source\PSoC6\pdl\drivers\peripheral\smif/cy_smif_memslot.c **** * \return A status of the command transmission.
 578:Generated_Source\PSoC6\pdl\drivers\peripheral\smif/cy_smif_memslot.c **** *       - \ref CY_SMIF_SUCCESS
 579:Generated_Source\PSoC6\pdl\drivers\peripheral\smif/cy_smif_memslot.c **** *       - \ref CY_SMIF_EXCEED_TIMEOUT
 580:Generated_Source\PSoC6\pdl\drivers\peripheral\smif/cy_smif_memslot.c **** *
 581:Generated_Source\PSoC6\pdl\drivers\peripheral\smif/cy_smif_memslot.c **** *******************************************************************************/
 582:Generated_Source\PSoC6\pdl\drivers\peripheral\smif/cy_smif_memslot.c **** cy_en_smif_status_t Cy_SMIF_Memslot_CmdWriteSts(SMIF_Type *base,
 583:Generated_Source\PSoC6\pdl\drivers\peripheral\smif/cy_smif_memslot.c ****                                     cy_stc_smif_mem_config_t const *memDevice,
 584:Generated_Source\PSoC6\pdl\drivers\peripheral\smif/cy_smif_memslot.c ****                                     void const *status,
 585:Generated_Source\PSoC6\pdl\drivers\peripheral\smif/cy_smif_memslot.c ****                                     uint8_t command,
 586:Generated_Source\PSoC6\pdl\drivers\peripheral\smif/cy_smif_memslot.c ****                                     cy_stc_smif_context_t const *context)
 587:Generated_Source\PSoC6\pdl\drivers\peripheral\smif/cy_smif_memslot.c **** {
 671              		.loc 1 587 0
 672              		.cfi_startproc
 673              		@ args = 4, pretend = 0, frame = 0
 674              		@ frame_needed = 0, uses_anonymous_args = 0
 675              	.LVL56:
 676 0000 F0B5     		push	{r4, r5, r6, r7, lr}
 677              		.cfi_def_cfa_offset 20
 678              		.cfi_offset 4, -20
 679              		.cfi_offset 5, -16
 680              		.cfi_offset 6, -12
 681              		.cfi_offset 7, -8
 682              		.cfi_offset 14, -4
 683 0002 87B0     		sub	sp, sp, #28
 684              		.cfi_def_cfa_offset 48
 685 0004 0400     		movs	r4, r0
 686 0006 0F00     		movs	r7, r1
 687 0008 1600     		movs	r6, r2
 688 000a 1D00     		movs	r5, r3
 588:Generated_Source\PSoC6\pdl\drivers\peripheral\smif/cy_smif_memslot.c ****     cy_en_smif_status_t result;
 589:Generated_Source\PSoC6\pdl\drivers\peripheral\smif/cy_smif_memslot.c **** 
 590:Generated_Source\PSoC6\pdl\drivers\peripheral\smif/cy_smif_memslot.c ****     /* The Write Enable */
ARM GAS  C:\Users\ikomb\AppData\Local\Temp\cc5YtlHT.s 			page 24


 591:Generated_Source\PSoC6\pdl\drivers\peripheral\smif/cy_smif_memslot.c ****     result =  Cy_SMIF_Memslot_CmdWriteEnable(base, memDevice, context);
 689              		.loc 1 591 0
 690 000c 0C9A     		ldr	r2, [sp, #48]
 691              	.LVL57:
 692 000e FFF7FEFF 		bl	Cy_SMIF_Memslot_CmdWriteEnable
 693              	.LVL58:
 592:Generated_Source\PSoC6\pdl\drivers\peripheral\smif/cy_smif_memslot.c **** 
 593:Generated_Source\PSoC6\pdl\drivers\peripheral\smif/cy_smif_memslot.c ****     /* The Write Status */
 594:Generated_Source\PSoC6\pdl\drivers\peripheral\smif/cy_smif_memslot.c ****     if (CY_SMIF_SUCCESS == result)
 694              		.loc 1 594 0
 695 0012 0028     		cmp	r0, #0
 696 0014 15D1     		bne	.L34
 697              	.LBB12:
 595:Generated_Source\PSoC6\pdl\drivers\peripheral\smif/cy_smif_memslot.c ****     {
 596:Generated_Source\PSoC6\pdl\drivers\peripheral\smif/cy_smif_memslot.c ****         uint32_t size;
 597:Generated_Source\PSoC6\pdl\drivers\peripheral\smif/cy_smif_memslot.c ****         uint32_t qeMask = memDevice->deviceCfg->stsRegQuadEnableMask;
 698              		.loc 1 597 0
 699 0016 BB69     		ldr	r3, [r7, #24]
 700 0018 DB6B     		ldr	r3, [r3, #60]
 701              	.LVL59:
 598:Generated_Source\PSoC6\pdl\drivers\peripheral\smif/cy_smif_memslot.c **** 
 599:Generated_Source\PSoC6\pdl\drivers\peripheral\smif/cy_smif_memslot.c ****         size = ( CY_SMIF_SFDP_QE_BIT_1_OF_SR_2 == qeMask)? CY_SMIF_WRITE_TWO_BYTES:
 702              		.loc 1 599 0
 703 001a 022B     		cmp	r3, #2
 704 001c 01D1     		bne	.L36
 705 001e 0221     		movs	r1, #2
 706 0020 00E0     		b	.L35
 707              	.L36:
 708 0022 0121     		movs	r1, #1
 709              	.L35:
 710              	.LVL60:
 600:Generated_Source\PSoC6\pdl\drivers\peripheral\smif/cy_smif_memslot.c ****                                                         CY_SMIF_WRITE_ONE_BYTE;
 601:Generated_Source\PSoC6\pdl\drivers\peripheral\smif/cy_smif_memslot.c ****         result = Cy_SMIF_TransmitCommand( base, command, CY_SMIF_WIDTH_SINGLE,
 711              		.loc 1 601 0 discriminator 4
 712 0024 3B78     		ldrb	r3, [r7]
 713              	.LVL61:
 714 0026 0C9A     		ldr	r2, [sp, #48]
 715 0028 0492     		str	r2, [sp, #16]
 716              	.LVL62:
 717 002a 0122     		movs	r2, #1
 718 002c 0392     		str	r2, [sp, #12]
 719 002e 0293     		str	r3, [sp, #8]
 720 0030 0023     		movs	r3, #0
 721 0032 0193     		str	r3, [sp, #4]
 722 0034 0091     		str	r1, [sp]
 723 0036 3300     		movs	r3, r6
 724 0038 0022     		movs	r2, #0
 725 003a 2900     		movs	r1, r5
 726              	.LVL63:
 727 003c 2000     		movs	r0, r4
 728              	.LVL64:
 729 003e FFF7FEFF 		bl	Cy_SMIF_TransmitCommand
 730              	.LVL65:
 731              	.L34:
 732              	.LBE12:
 602:Generated_Source\PSoC6\pdl\drivers\peripheral\smif/cy_smif_memslot.c ****                     (uint8_t const *)status, size, CY_SMIF_WIDTH_SINGLE,
 603:Generated_Source\PSoC6\pdl\drivers\peripheral\smif/cy_smif_memslot.c ****                     memDevice->slaveSelect, CY_SMIF_TX_LAST_BYTE, context);
ARM GAS  C:\Users\ikomb\AppData\Local\Temp\cc5YtlHT.s 			page 25


 604:Generated_Source\PSoC6\pdl\drivers\peripheral\smif/cy_smif_memslot.c ****     }
 605:Generated_Source\PSoC6\pdl\drivers\peripheral\smif/cy_smif_memslot.c **** 
 606:Generated_Source\PSoC6\pdl\drivers\peripheral\smif/cy_smif_memslot.c ****     return(result);
 607:Generated_Source\PSoC6\pdl\drivers\peripheral\smif/cy_smif_memslot.c **** }
 733              		.loc 1 607 0
 734 0042 07B0     		add	sp, sp, #28
 735              		@ sp needed
 736              	.LVL66:
 737              	.LVL67:
 738              	.LVL68:
 739 0044 F0BD     		pop	{r4, r5, r6, r7, pc}
 740              		.cfi_endproc
 741              	.LFE97:
 742              		.size	Cy_SMIF_Memslot_CmdWriteSts, .-Cy_SMIF_Memslot_CmdWriteSts
 743 0046 C046     		.section	.text.Cy_SMIF_Memslot_QuadEnable,"ax",%progbits
 744              		.align	2
 745              		.global	Cy_SMIF_Memslot_QuadEnable
 746              		.code	16
 747              		.thumb_func
 748              		.type	Cy_SMIF_Memslot_QuadEnable, %function
 749              	Cy_SMIF_Memslot_QuadEnable:
 750              	.LFB95:
 429:Generated_Source\PSoC6\pdl\drivers\peripheral\smif/cy_smif_memslot.c ****     cy_en_smif_status_t result;
 751              		.loc 1 429 0
 752              		.cfi_startproc
 753              		@ args = 0, pretend = 0, frame = 16
 754              		@ frame_needed = 0, uses_anonymous_args = 0
 755              	.LVL69:
 756 0000 F0B5     		push	{r4, r5, r6, r7, lr}
 757              		.cfi_def_cfa_offset 20
 758              		.cfi_offset 4, -20
 759              		.cfi_offset 5, -16
 760              		.cfi_offset 6, -12
 761              		.cfi_offset 7, -8
 762              		.cfi_offset 14, -4
 763 0002 5746     		mov	r7, r10
 764 0004 4646     		mov	r6, r8
 765 0006 C0B4     		push	{r6, r7}
 766              		.cfi_def_cfa_offset 28
 767              		.cfi_offset 8, -28
 768              		.cfi_offset 10, -24
 769 0008 87B0     		sub	sp, sp, #28
 770              		.cfi_def_cfa_offset 56
 771 000a 0390     		str	r0, [sp, #12]
 772 000c 0D00     		movs	r5, r1
 773 000e 1700     		movs	r7, r2
 431:Generated_Source\PSoC6\pdl\drivers\peripheral\smif/cy_smif_memslot.c ****     cy_stc_smif_mem_device_cfg_t* device =  memDevice->deviceCfg;
 774              		.loc 1 431 0
 775 0010 0022     		movs	r2, #0
 776              	.LVL70:
 777 0012 05AB     		add	r3, sp, #20
 778 0014 1A80     		strh	r2, [r3]
 432:Generated_Source\PSoC6\pdl\drivers\peripheral\smif/cy_smif_memslot.c ****     
 779              		.loc 1 432 0
 780 0016 8C69     		ldr	r4, [r1, #24]
 781              	.LVL71:
 435:Generated_Source\PSoC6\pdl\drivers\peripheral\smif/cy_smif_memslot.c ****     CY_ASSERT_L1(NULL != device->writeStsRegQeCmd);
ARM GAS  C:\Users\ikomb\AppData\Local\Temp\cc5YtlHT.s 			page 26


 782              		.loc 1 435 0
 783 0018 E36A     		ldr	r3, [r4, #44]
 784 001a 002B     		cmp	r3, #0
 785 001c 04D1     		bne	.L38
 435:Generated_Source\PSoC6\pdl\drivers\peripheral\smif/cy_smif_memslot.c ****     CY_ASSERT_L1(NULL != device->writeStsRegQeCmd);
 786              		.loc 1 435 0 is_stmt 0 discriminator 1
 787 001e B421     		movs	r1, #180
 788              	.LVL72:
 789 0020 FF31     		adds	r1, r1, #255
 790 0022 3C48     		ldr	r0, .L47
 791              	.LVL73:
 792 0024 FFF7FEFF 		bl	Cy_SysLib_AssertFailed
 793              	.LVL74:
 794              	.L38:
 436:Generated_Source\PSoC6\pdl\drivers\peripheral\smif/cy_smif_memslot.c ****     CY_ASSERT_L1(NULL != device->readStsRegWipCmd);
 795              		.loc 1 436 0 is_stmt 1
 796 0028 236B     		ldr	r3, [r4, #48]
 797 002a 002B     		cmp	r3, #0
 798 002c 04D1     		bne	.L39
 436:Generated_Source\PSoC6\pdl\drivers\peripheral\smif/cy_smif_memslot.c ****     CY_ASSERT_L1(NULL != device->readStsRegWipCmd);
 799              		.loc 1 436 0 is_stmt 0 discriminator 1
 800 002e DA21     		movs	r1, #218
 801 0030 4900     		lsls	r1, r1, #1
 802 0032 3848     		ldr	r0, .L47
 803 0034 FFF7FEFF 		bl	Cy_SysLib_AssertFailed
 804              	.LVL75:
 805              	.L39:
 437:Generated_Source\PSoC6\pdl\drivers\peripheral\smif/cy_smif_memslot.c ****     
 806              		.loc 1 437 0 is_stmt 1
 807 0038 A36A     		ldr	r3, [r4, #40]
 808 003a 002B     		cmp	r3, #0
 809 003c 04D1     		bne	.L40
 437:Generated_Source\PSoC6\pdl\drivers\peripheral\smif/cy_smif_memslot.c ****     
 810              		.loc 1 437 0 is_stmt 0 discriminator 1
 811 003e B621     		movs	r1, #182
 812 0040 FF31     		adds	r1, r1, #255
 813 0042 3448     		ldr	r0, .L47
 814 0044 FFF7FEFF 		bl	Cy_SysLib_AssertFailed
 815              	.LVL76:
 816              	.L40:
 439:Generated_Source\PSoC6\pdl\drivers\peripheral\smif/cy_smif_memslot.c ****     uint8_t writeQeCmd = (uint8_t)device->writeStsRegQeCmd->command;
 817              		.loc 1 439 0 is_stmt 1
 818 0048 E36A     		ldr	r3, [r4, #44]
 819 004a 1E78     		ldrb	r6, [r3]
 820              	.LVL77:
 440:Generated_Source\PSoC6\pdl\drivers\peripheral\smif/cy_smif_memslot.c ****     uint8_t readWipCmd = (uint8_t)device->readStsRegWipCmd->command;
 821              		.loc 1 440 0
 822 004c 236B     		ldr	r3, [r4, #48]
 823 004e 1B78     		ldrb	r3, [r3]
 824 0050 9846     		mov	r8, r3
 825              	.LVL78:
 441:Generated_Source\PSoC6\pdl\drivers\peripheral\smif/cy_smif_memslot.c **** 
 826              		.loc 1 441 0
 827 0052 A36A     		ldr	r3, [r4, #40]
 828 0054 1B78     		ldrb	r3, [r3]
 829 0056 9A46     		mov	r10, r3
 830              	.LVL79:
ARM GAS  C:\Users\ikomb\AppData\Local\Temp\cc5YtlHT.s 			page 27


 443:Generated_Source\PSoC6\pdl\drivers\peripheral\smif/cy_smif_memslot.c ****                 readQeCmd, context);
 831              		.loc 1 443 0
 832 0058 0097     		str	r7, [sp]
 833 005a 3300     		movs	r3, r6
 834 005c 05AA     		add	r2, sp, #20
 835 005e 2900     		movs	r1, r5
 836 0060 0398     		ldr	r0, [sp, #12]
 837 0062 FFF7FEFF 		bl	Cy_SMIF_Memslot_CmdReadSts
 838              	.LVL80:
 446:Generated_Source\PSoC6\pdl\drivers\peripheral\smif/cy_smif_memslot.c ****     {
 839              		.loc 1 446 0
 840 0066 0028     		cmp	r0, #0
 841 0068 4ED1     		bne	.L41
 842              	.LBB13:
 448:Generated_Source\PSoC6\pdl\drivers\peripheral\smif/cy_smif_memslot.c **** 
 843              		.loc 1 448 0
 844 006a E46B     		ldr	r4, [r4, #60]
 845              	.LVL81:
 450:Generated_Source\PSoC6\pdl\drivers\peripheral\smif/cy_smif_memslot.c ****         {
 846              		.loc 1 450 0
 847 006c 402C     		cmp	r4, #64
 848 006e 04D0     		beq	.L42
 849 0070 802C     		cmp	r4, #128
 850 0072 2DD0     		beq	.L43
 851 0074 022C     		cmp	r4, #2
 852 0076 46D1     		bne	.L46
 853 0078 0AE0     		b	.L44
 854              	.L42:
 453:Generated_Source\PSoC6\pdl\drivers\peripheral\smif/cy_smif_memslot.c ****                 result = Cy_SMIF_Memslot_CmdWriteSts(base, memDevice,
 855              		.loc 1 453 0
 856 007a 05AA     		add	r2, sp, #20
 857 007c 1378     		ldrb	r3, [r2]
 858 007e 1C43     		orrs	r4, r3
 859              	.LVL82:
 860 0080 1470     		strb	r4, [r2]
 454:Generated_Source\PSoC6\pdl\drivers\peripheral\smif/cy_smif_memslot.c ****                             &statusReg[0U], writeQeCmd, context);
 861              		.loc 1 454 0
 862 0082 0097     		str	r7, [sp]
 863 0084 4346     		mov	r3, r8
 864 0086 2900     		movs	r1, r5
 865 0088 0398     		ldr	r0, [sp, #12]
 866              	.LVL83:
 867 008a FFF7FEFF 		bl	Cy_SMIF_Memslot_CmdWriteSts
 868              	.LVL84:
 456:Generated_Source\PSoC6\pdl\drivers\peripheral\smif/cy_smif_memslot.c ****             case CY_SMIF_SFDP_QE_BIT_1_OF_SR_2:
 869              		.loc 1 456 0
 870 008e 3BE0     		b	.L41
 871              	.LVL85:
 872              	.L44:
 460:Generated_Source\PSoC6\pdl\drivers\peripheral\smif/cy_smif_memslot.c ****                             &statusReg[0U], readWipCmd, context);
 873              		.loc 1 460 0
 874 0090 0097     		str	r7, [sp]
 875 0092 5346     		mov	r3, r10
 876 0094 05AA     		add	r2, sp, #20
 877 0096 2900     		movs	r1, r5
 878 0098 0398     		ldr	r0, [sp, #12]
 879              	.LVL86:
ARM GAS  C:\Users\ikomb\AppData\Local\Temp\cc5YtlHT.s 			page 28


 880 009a FFF7FEFF 		bl	Cy_SMIF_Memslot_CmdReadSts
 881              	.LVL87:
 462:Generated_Source\PSoC6\pdl\drivers\peripheral\smif/cy_smif_memslot.c ****                 {
 882              		.loc 1 462 0
 883 009e 0028     		cmp	r0, #0
 884 00a0 32D1     		bne	.L41
 464:Generated_Source\PSoC6\pdl\drivers\peripheral\smif/cy_smif_memslot.c ****                                 &statusReg[1U], readQeCmd, context);
 885              		.loc 1 464 0
 886 00a2 0097     		str	r7, [sp]
 887 00a4 3300     		movs	r3, r6
 888 00a6 0D22     		movs	r2, #13
 889 00a8 02A9     		add	r1, sp, #8
 890 00aa 8C46     		mov	ip, r1
 891 00ac 6244     		add	r2, r2, ip
 892 00ae 2900     		movs	r1, r5
 893 00b0 0398     		ldr	r0, [sp, #12]
 894              	.LVL88:
 895 00b2 FFF7FEFF 		bl	Cy_SMIF_Memslot_CmdReadSts
 896              	.LVL89:
 466:Generated_Source\PSoC6\pdl\drivers\peripheral\smif/cy_smif_memslot.c ****                     {
 897              		.loc 1 466 0
 898 00b6 0028     		cmp	r0, #0
 899 00b8 26D1     		bne	.L41
 468:Generated_Source\PSoC6\pdl\drivers\peripheral\smif/cy_smif_memslot.c ****                         result = Cy_SMIF_Memslot_CmdWriteSts(base, memDevice,
 900              		.loc 1 468 0
 901 00ba 05AA     		add	r2, sp, #20
 902 00bc 5378     		ldrb	r3, [r2, #1]
 903 00be 1C43     		orrs	r4, r3
 904              	.LVL90:
 905 00c0 5470     		strb	r4, [r2, #1]
 469:Generated_Source\PSoC6\pdl\drivers\peripheral\smif/cy_smif_memslot.c ****                                     statusReg, writeQeCmd, context);
 906              		.loc 1 469 0
 907 00c2 0097     		str	r7, [sp]
 908 00c4 4346     		mov	r3, r8
 909 00c6 2900     		movs	r1, r5
 910 00c8 0398     		ldr	r0, [sp, #12]
 911              	.LVL91:
 912 00ca FFF7FEFF 		bl	Cy_SMIF_Memslot_CmdWriteSts
 913              	.LVL92:
 914 00ce 1BE0     		b	.L41
 915              	.LVL93:
 916              	.L43:
 475:Generated_Source\PSoC6\pdl\drivers\peripheral\smif/cy_smif_memslot.c ****                             &statusReg[1U], readQeCmd, context);
 917              		.loc 1 475 0
 918 00d0 0097     		str	r7, [sp]
 919 00d2 3300     		movs	r3, r6
 920 00d4 0D22     		movs	r2, #13
 921 00d6 02A9     		add	r1, sp, #8
 922 00d8 8C46     		mov	ip, r1
 923 00da 6244     		add	r2, r2, ip
 924 00dc 2900     		movs	r1, r5
 925 00de 0398     		ldr	r0, [sp, #12]
 926              	.LVL94:
 927 00e0 FFF7FEFF 		bl	Cy_SMIF_Memslot_CmdReadSts
 928              	.LVL95:
 477:Generated_Source\PSoC6\pdl\drivers\peripheral\smif/cy_smif_memslot.c ****                 {
 929              		.loc 1 477 0
ARM GAS  C:\Users\ikomb\AppData\Local\Temp\cc5YtlHT.s 			page 29


 930 00e4 0028     		cmp	r0, #0
 931 00e6 0FD1     		bne	.L41
 479:Generated_Source\PSoC6\pdl\drivers\peripheral\smif/cy_smif_memslot.c ****                     result = Cy_SMIF_Memslot_CmdWriteSts(base, memDevice,
 932              		.loc 1 479 0
 933 00e8 05AB     		add	r3, sp, #20
 934 00ea 5A78     		ldrb	r2, [r3, #1]
 935 00ec 1443     		orrs	r4, r2
 936              	.LVL96:
 937 00ee 5C70     		strb	r4, [r3, #1]
 480:Generated_Source\PSoC6\pdl\drivers\peripheral\smif/cy_smif_memslot.c ****                                 &statusReg[1U], writeQeCmd, context);
 938              		.loc 1 480 0
 939 00f0 0097     		str	r7, [sp]
 940 00f2 4346     		mov	r3, r8
 941 00f4 0D22     		movs	r2, #13
 942 00f6 02A9     		add	r1, sp, #8
 943 00f8 8C46     		mov	ip, r1
 944 00fa 6244     		add	r2, r2, ip
 945 00fc 2900     		movs	r1, r5
 946 00fe 0398     		ldr	r0, [sp, #12]
 947              	.LVL97:
 948 0100 FFF7FEFF 		bl	Cy_SMIF_Memslot_CmdWriteSts
 949              	.LVL98:
 950 0104 00E0     		b	.L41
 951              	.LVL99:
 952              	.L46:
 485:Generated_Source\PSoC6\pdl\drivers\peripheral\smif/cy_smif_memslot.c ****                 break;
 953              		.loc 1 485 0
 954 0106 0448     		ldr	r0, .L47+4
 955              	.LVL100:
 956              	.L41:
 957              	.LBE13:
 492:Generated_Source\PSoC6\pdl\drivers\peripheral\smif/cy_smif_memslot.c **** 
 958              		.loc 1 492 0
 959 0108 07B0     		add	sp, sp, #28
 960              		@ sp needed
 961              	.LVL101:
 962              	.LVL102:
 963              	.LVL103:
 964              	.LVL104:
 965              	.LVL105:
 966 010a 0CBC     		pop	{r2, r3}
 967 010c 9046     		mov	r8, r2
 968 010e 9A46     		mov	r10, r3
 969 0110 F0BD     		pop	{r4, r5, r6, r7, pc}
 970              	.L48:
 971 0112 C046     		.align	2
 972              	.L47:
 973 0114 00000000 		.word	.LC0
 974 0118 0300B200 		.word	11665411
 975              		.cfi_endproc
 976              	.LFE95:
 977              		.size	Cy_SMIF_Memslot_QuadEnable, .-Cy_SMIF_Memslot_QuadEnable
 978              		.section	.text.Cy_SMIF_Memslot_CmdChipErase,"ax",%progbits
 979              		.align	2
 980              		.global	Cy_SMIF_Memslot_CmdChipErase
 981              		.code	16
 982              		.thumb_func
ARM GAS  C:\Users\ikomb\AppData\Local\Temp\cc5YtlHT.s 			page 30


 983              		.type	Cy_SMIF_Memslot_CmdChipErase, %function
 984              	Cy_SMIF_Memslot_CmdChipErase:
 985              	.LFB98:
 608:Generated_Source\PSoC6\pdl\drivers\peripheral\smif/cy_smif_memslot.c **** 
 609:Generated_Source\PSoC6\pdl\drivers\peripheral\smif/cy_smif_memslot.c **** 
 610:Generated_Source\PSoC6\pdl\drivers\peripheral\smif/cy_smif_memslot.c **** /*******************************************************************************
 611:Generated_Source\PSoC6\pdl\drivers\peripheral\smif/cy_smif_memslot.c **** * Function Name: Cy_SMIF_Memslot_CmdChipErase
 612:Generated_Source\PSoC6\pdl\drivers\peripheral\smif/cy_smif_memslot.c **** ****************************************************************************//**
 613:Generated_Source\PSoC6\pdl\drivers\peripheral\smif/cy_smif_memslot.c **** *
 614:Generated_Source\PSoC6\pdl\drivers\peripheral\smif/cy_smif_memslot.c **** * This function performs a chip erase of the external memory. The Write Enable
 615:Generated_Source\PSoC6\pdl\drivers\peripheral\smif/cy_smif_memslot.c **** * command is called before this API.
 616:Generated_Source\PSoC6\pdl\drivers\peripheral\smif/cy_smif_memslot.c **** *
 617:Generated_Source\PSoC6\pdl\drivers\peripheral\smif/cy_smif_memslot.c **** * \note This function uses the low-level Cy_SMIF_TransmitCommand() API.
 618:Generated_Source\PSoC6\pdl\drivers\peripheral\smif/cy_smif_memslot.c **** * Cy_SMIF_TransmitCommand() API works in a blocking mode. In the dual quad mode,
 619:Generated_Source\PSoC6\pdl\drivers\peripheral\smif/cy_smif_memslot.c **** * this API is called for each memory.
 620:Generated_Source\PSoC6\pdl\drivers\peripheral\smif/cy_smif_memslot.c **** *
 621:Generated_Source\PSoC6\pdl\drivers\peripheral\smif/cy_smif_memslot.c **** * \param base
 622:Generated_Source\PSoC6\pdl\drivers\peripheral\smif/cy_smif_memslot.c **** * Holds the base address of the SMIF block registers.
 623:Generated_Source\PSoC6\pdl\drivers\peripheral\smif/cy_smif_memslot.c **** *
 624:Generated_Source\PSoC6\pdl\drivers\peripheral\smif/cy_smif_memslot.c **** * \param context
 625:Generated_Source\PSoC6\pdl\drivers\peripheral\smif/cy_smif_memslot.c **** * The internal SMIF context data. \ref cy_stc_smif_context_t
 626:Generated_Source\PSoC6\pdl\drivers\peripheral\smif/cy_smif_memslot.c **** *
 627:Generated_Source\PSoC6\pdl\drivers\peripheral\smif/cy_smif_memslot.c **** * \param memDevice
 628:Generated_Source\PSoC6\pdl\drivers\peripheral\smif/cy_smif_memslot.c **** * The device to which the command is sent
 629:Generated_Source\PSoC6\pdl\drivers\peripheral\smif/cy_smif_memslot.c **** *
 630:Generated_Source\PSoC6\pdl\drivers\peripheral\smif/cy_smif_memslot.c **** * \return A status of the command transmission.
 631:Generated_Source\PSoC6\pdl\drivers\peripheral\smif/cy_smif_memslot.c **** *       - \ref CY_SMIF_SUCCESS
 632:Generated_Source\PSoC6\pdl\drivers\peripheral\smif/cy_smif_memslot.c **** *       - \ref CY_SMIF_EXCEED_TIMEOUT
 633:Generated_Source\PSoC6\pdl\drivers\peripheral\smif/cy_smif_memslot.c **** *
 634:Generated_Source\PSoC6\pdl\drivers\peripheral\smif/cy_smif_memslot.c **** *******************************************************************************/
 635:Generated_Source\PSoC6\pdl\drivers\peripheral\smif/cy_smif_memslot.c **** cy_en_smif_status_t Cy_SMIF_Memslot_CmdChipErase(SMIF_Type *base,
 636:Generated_Source\PSoC6\pdl\drivers\peripheral\smif/cy_smif_memslot.c ****                 cy_stc_smif_mem_config_t const *memDevice,
 637:Generated_Source\PSoC6\pdl\drivers\peripheral\smif/cy_smif_memslot.c ****                 cy_stc_smif_context_t const *context)
 638:Generated_Source\PSoC6\pdl\drivers\peripheral\smif/cy_smif_memslot.c **** {
 986              		.loc 1 638 0
 987              		.cfi_startproc
 988              		@ args = 0, pretend = 0, frame = 0
 989              		@ frame_needed = 0, uses_anonymous_args = 0
 990              	.LVL106:
 991 0000 F0B5     		push	{r4, r5, r6, r7, lr}
 992              		.cfi_def_cfa_offset 20
 993              		.cfi_offset 4, -20
 994              		.cfi_offset 5, -16
 995              		.cfi_offset 6, -12
 996              		.cfi_offset 7, -8
 997              		.cfi_offset 14, -4
 998 0002 87B0     		sub	sp, sp, #28
 999              		.cfi_def_cfa_offset 48
 1000 0004 0600     		movs	r6, r0
 1001 0006 0D00     		movs	r5, r1
 1002 0008 1700     		movs	r7, r2
 639:Generated_Source\PSoC6\pdl\drivers\peripheral\smif/cy_smif_memslot.c ****     cy_en_smif_status_t result;
 640:Generated_Source\PSoC6\pdl\drivers\peripheral\smif/cy_smif_memslot.c **** 
 641:Generated_Source\PSoC6\pdl\drivers\peripheral\smif/cy_smif_memslot.c ****     cy_stc_smif_mem_cmd_t *cmdErase = memDevice->deviceCfg->chipEraseCmd;
 1003              		.loc 1 641 0
 1004 000a 8B69     		ldr	r3, [r1, #24]
 1005 000c DC69     		ldr	r4, [r3, #28]
ARM GAS  C:\Users\ikomb\AppData\Local\Temp\cc5YtlHT.s 			page 31


 1006              	.LVL107:
 642:Generated_Source\PSoC6\pdl\drivers\peripheral\smif/cy_smif_memslot.c ****     CY_ASSERT_L1(NULL != cmdErase);
 1007              		.loc 1 642 0
 1008 000e 002C     		cmp	r4, #0
 1009 0010 03D1     		bne	.L50
 1010              		.loc 1 642 0 is_stmt 0 discriminator 1
 1011 0012 0949     		ldr	r1, .L51
 1012              	.LVL108:
 1013 0014 0948     		ldr	r0, .L51+4
 1014              	.LVL109:
 1015 0016 FFF7FEFF 		bl	Cy_SysLib_AssertFailed
 1016              	.LVL110:
 1017              	.L50:
 643:Generated_Source\PSoC6\pdl\drivers\peripheral\smif/cy_smif_memslot.c **** 
 644:Generated_Source\PSoC6\pdl\drivers\peripheral\smif/cy_smif_memslot.c ****     result = Cy_SMIF_TransmitCommand( base, (uint8_t)cmdErase->command,
 1018              		.loc 1 644 0 is_stmt 1
 1019 001a 2178     		ldrb	r1, [r4]
 1020 001c 2279     		ldrb	r2, [r4, #4]
 1021 001e 2B78     		ldrb	r3, [r5]
 1022 0020 0497     		str	r7, [sp, #16]
 1023 0022 0120     		movs	r0, #1
 1024 0024 0390     		str	r0, [sp, #12]
 1025 0026 0293     		str	r3, [sp, #8]
 1026 0028 0023     		movs	r3, #0
 1027 002a 0193     		str	r3, [sp, #4]
 1028 002c 0093     		str	r3, [sp]
 1029 002e 3000     		movs	r0, r6
 1030 0030 FFF7FEFF 		bl	Cy_SMIF_TransmitCommand
 1031              	.LVL111:
 645:Generated_Source\PSoC6\pdl\drivers\peripheral\smif/cy_smif_memslot.c ****             cmdErase->cmdWidth, CY_SMIF_CMD_WITHOUT_PARAM,
 646:Generated_Source\PSoC6\pdl\drivers\peripheral\smif/cy_smif_memslot.c ****             CY_SMIF_CMD_WITHOUT_PARAM,
 647:Generated_Source\PSoC6\pdl\drivers\peripheral\smif/cy_smif_memslot.c ****             (cy_en_smif_txfr_width_t) CY_SMIF_CMD_WITHOUT_PARAM,
 648:Generated_Source\PSoC6\pdl\drivers\peripheral\smif/cy_smif_memslot.c ****             memDevice->slaveSelect, CY_SMIF_TX_LAST_BYTE, context);
 649:Generated_Source\PSoC6\pdl\drivers\peripheral\smif/cy_smif_memslot.c **** 
 650:Generated_Source\PSoC6\pdl\drivers\peripheral\smif/cy_smif_memslot.c ****     return(result);
 651:Generated_Source\PSoC6\pdl\drivers\peripheral\smif/cy_smif_memslot.c **** }
 1032              		.loc 1 651 0
 1033 0034 07B0     		add	sp, sp, #28
 1034              		@ sp needed
 1035              	.LVL112:
 1036              	.LVL113:
 1037              	.LVL114:
 1038              	.LVL115:
 1039 0036 F0BD     		pop	{r4, r5, r6, r7, pc}
 1040              	.L52:
 1041              		.align	2
 1042              	.L51:
 1043 0038 82020000 		.word	642
 1044 003c 00000000 		.word	.LC0
 1045              		.cfi_endproc
 1046              	.LFE98:
 1047              		.size	Cy_SMIF_Memslot_CmdChipErase, .-Cy_SMIF_Memslot_CmdChipErase
 1048              		.section	.text.Cy_SMIF_Memslot_CmdSectorErase,"ax",%progbits
 1049              		.align	2
 1050              		.global	Cy_SMIF_Memslot_CmdSectorErase
 1051              		.code	16
 1052              		.thumb_func
ARM GAS  C:\Users\ikomb\AppData\Local\Temp\cc5YtlHT.s 			page 32


 1053              		.type	Cy_SMIF_Memslot_CmdSectorErase, %function
 1054              	Cy_SMIF_Memslot_CmdSectorErase:
 1055              	.LFB99:
 652:Generated_Source\PSoC6\pdl\drivers\peripheral\smif/cy_smif_memslot.c **** 
 653:Generated_Source\PSoC6\pdl\drivers\peripheral\smif/cy_smif_memslot.c **** 
 654:Generated_Source\PSoC6\pdl\drivers\peripheral\smif/cy_smif_memslot.c **** /*******************************************************************************
 655:Generated_Source\PSoC6\pdl\drivers\peripheral\smif/cy_smif_memslot.c **** * Function Name: Cy_SMIF_Memslot_CmdSectorErase
 656:Generated_Source\PSoC6\pdl\drivers\peripheral\smif/cy_smif_memslot.c **** ****************************************************************************//**
 657:Generated_Source\PSoC6\pdl\drivers\peripheral\smif/cy_smif_memslot.c **** *
 658:Generated_Source\PSoC6\pdl\drivers\peripheral\smif/cy_smif_memslot.c **** * This function performs a block Erase of the external memory. The Write Enable
 659:Generated_Source\PSoC6\pdl\drivers\peripheral\smif/cy_smif_memslot.c **** * command is called before this API.
 660:Generated_Source\PSoC6\pdl\drivers\peripheral\smif/cy_smif_memslot.c **** *
 661:Generated_Source\PSoC6\pdl\drivers\peripheral\smif/cy_smif_memslot.c **** * \note This function uses the low-level Cy_SMIF_TransmitCommand() API.
 662:Generated_Source\PSoC6\pdl\drivers\peripheral\smif/cy_smif_memslot.c **** * The Cy_SMIF_TransmitCommand() API works in a blocking mode. In the dual quad mode,
 663:Generated_Source\PSoC6\pdl\drivers\peripheral\smif/cy_smif_memslot.c **** * this API is called for each memory.
 664:Generated_Source\PSoC6\pdl\drivers\peripheral\smif/cy_smif_memslot.c **** *
 665:Generated_Source\PSoC6\pdl\drivers\peripheral\smif/cy_smif_memslot.c **** * \param base
 666:Generated_Source\PSoC6\pdl\drivers\peripheral\smif/cy_smif_memslot.c **** * Holds the base address of the SMIF block registers.
 667:Generated_Source\PSoC6\pdl\drivers\peripheral\smif/cy_smif_memslot.c **** *
 668:Generated_Source\PSoC6\pdl\drivers\peripheral\smif/cy_smif_memslot.c **** * \param context
 669:Generated_Source\PSoC6\pdl\drivers\peripheral\smif/cy_smif_memslot.c **** * The internal SMIF context data. \ref cy_stc_smif_context_t
 670:Generated_Source\PSoC6\pdl\drivers\peripheral\smif/cy_smif_memslot.c **** *
 671:Generated_Source\PSoC6\pdl\drivers\peripheral\smif/cy_smif_memslot.c **** * \param memDevice
 672:Generated_Source\PSoC6\pdl\drivers\peripheral\smif/cy_smif_memslot.c **** * The device to which the command is sent.
 673:Generated_Source\PSoC6\pdl\drivers\peripheral\smif/cy_smif_memslot.c **** *
 674:Generated_Source\PSoC6\pdl\drivers\peripheral\smif/cy_smif_memslot.c **** * \param sectorAddr
 675:Generated_Source\PSoC6\pdl\drivers\peripheral\smif/cy_smif_memslot.c **** * The sector address to erase.
 676:Generated_Source\PSoC6\pdl\drivers\peripheral\smif/cy_smif_memslot.c **** *
 677:Generated_Source\PSoC6\pdl\drivers\peripheral\smif/cy_smif_memslot.c **** * \return A status of the command transmission.
 678:Generated_Source\PSoC6\pdl\drivers\peripheral\smif/cy_smif_memslot.c **** *       - \ref CY_SMIF_SUCCESS
 679:Generated_Source\PSoC6\pdl\drivers\peripheral\smif/cy_smif_memslot.c **** *       - \ref CY_SMIF_BAD_PARAM
 680:Generated_Source\PSoC6\pdl\drivers\peripheral\smif/cy_smif_memslot.c **** *       - \ref CY_SMIF_EXCEED_TIMEOUT
 681:Generated_Source\PSoC6\pdl\drivers\peripheral\smif/cy_smif_memslot.c **** *
 682:Generated_Source\PSoC6\pdl\drivers\peripheral\smif/cy_smif_memslot.c **** *******************************************************************************/
 683:Generated_Source\PSoC6\pdl\drivers\peripheral\smif/cy_smif_memslot.c **** cy_en_smif_status_t Cy_SMIF_Memslot_CmdSectorErase(SMIF_Type *base,
 684:Generated_Source\PSoC6\pdl\drivers\peripheral\smif/cy_smif_memslot.c ****                                         cy_stc_smif_mem_config_t *memDevice,
 685:Generated_Source\PSoC6\pdl\drivers\peripheral\smif/cy_smif_memslot.c ****                                         uint8_t const *sectorAddr,
 686:Generated_Source\PSoC6\pdl\drivers\peripheral\smif/cy_smif_memslot.c ****                                         cy_stc_smif_context_t const *context)
 687:Generated_Source\PSoC6\pdl\drivers\peripheral\smif/cy_smif_memslot.c **** {
 1056              		.loc 1 687 0
 1057              		.cfi_startproc
 1058              		@ args = 0, pretend = 0, frame = 8
 1059              		@ frame_needed = 0, uses_anonymous_args = 0
 1060              	.LVL116:
 1061 0000 F0B5     		push	{r4, r5, r6, r7, lr}
 1062              		.cfi_def_cfa_offset 20
 1063              		.cfi_offset 4, -20
 1064              		.cfi_offset 5, -16
 1065              		.cfi_offset 6, -12
 1066              		.cfi_offset 7, -8
 1067              		.cfi_offset 14, -4
 1068 0002 89B0     		sub	sp, sp, #36
 1069              		.cfi_def_cfa_offset 56
 1070 0004 0690     		str	r0, [sp, #24]
 1071 0006 0E00     		movs	r6, r1
 1072 0008 151E     		subs	r5, r2, #0
 1073 000a 0793     		str	r3, [sp, #28]
ARM GAS  C:\Users\ikomb\AppData\Local\Temp\cc5YtlHT.s 			page 33


 1074              	.LVL117:
 688:Generated_Source\PSoC6\pdl\drivers\peripheral\smif/cy_smif_memslot.c ****     cy_en_smif_status_t result = CY_SMIF_BAD_PARAM;
 689:Generated_Source\PSoC6\pdl\drivers\peripheral\smif/cy_smif_memslot.c **** 
 690:Generated_Source\PSoC6\pdl\drivers\peripheral\smif/cy_smif_memslot.c ****     if (NULL != sectorAddr)
 1075              		.loc 1 690 0
 1076 000c 18D0     		beq	.L56
 1077              	.LBB14:
 691:Generated_Source\PSoC6\pdl\drivers\peripheral\smif/cy_smif_memslot.c ****     {
 692:Generated_Source\PSoC6\pdl\drivers\peripheral\smif/cy_smif_memslot.c **** 
 693:Generated_Source\PSoC6\pdl\drivers\peripheral\smif/cy_smif_memslot.c ****         cy_stc_smif_mem_device_cfg_t *device = memDevice->deviceCfg;
 1078              		.loc 1 693 0
 1079 000e 8F69     		ldr	r7, [r1, #24]
 1080              	.LVL118:
 694:Generated_Source\PSoC6\pdl\drivers\peripheral\smif/cy_smif_memslot.c ****         cy_stc_smif_mem_cmd_t *cmdErase = device->eraseCmd;
 1081              		.loc 1 694 0
 1082 0010 7C69     		ldr	r4, [r7, #20]
 1083              	.LVL119:
 695:Generated_Source\PSoC6\pdl\drivers\peripheral\smif/cy_smif_memslot.c ****         
 696:Generated_Source\PSoC6\pdl\drivers\peripheral\smif/cy_smif_memslot.c ****         CY_ASSERT_L1(NULL != cmdErase);
 1084              		.loc 1 696 0
 1085 0012 002C     		cmp	r4, #0
 1086 0014 04D1     		bne	.L55
 1087              		.loc 1 696 0 is_stmt 0 discriminator 1
 1088 0016 AE21     		movs	r1, #174
 1089              	.LVL120:
 1090 0018 8900     		lsls	r1, r1, #2
 1091 001a 0B48     		ldr	r0, .L57
 1092              	.LVL121:
 1093 001c FFF7FEFF 		bl	Cy_SysLib_AssertFailed
 1094              	.LVL122:
 1095              	.L55:
 697:Generated_Source\PSoC6\pdl\drivers\peripheral\smif/cy_smif_memslot.c **** 
 698:Generated_Source\PSoC6\pdl\drivers\peripheral\smif/cy_smif_memslot.c ****         result = Cy_SMIF_TransmitCommand( base, (uint8_t)cmdErase->command,
 1096              		.loc 1 698 0 is_stmt 1
 1097 0020 2178     		ldrb	r1, [r4]
 1098 0022 3B68     		ldr	r3, [r7]
 1099 0024 2279     		ldrb	r2, [r4, #4]
 1100 0026 3078     		ldrb	r0, [r6]
 1101 0028 079C     		ldr	r4, [sp, #28]
 1102              	.LVL123:
 1103 002a 0494     		str	r4, [sp, #16]
 1104 002c 0124     		movs	r4, #1
 1105 002e 0394     		str	r4, [sp, #12]
 1106 0030 0290     		str	r0, [sp, #8]
 1107 0032 0192     		str	r2, [sp, #4]
 1108 0034 0093     		str	r3, [sp]
 1109 0036 2B00     		movs	r3, r5
 1110 0038 0698     		ldr	r0, [sp, #24]
 1111 003a FFF7FEFF 		bl	Cy_SMIF_TransmitCommand
 1112              	.LVL124:
 1113 003e 00E0     		b	.L54
 1114              	.LVL125:
 1115              	.L56:
 1116              	.LBE14:
 688:Generated_Source\PSoC6\pdl\drivers\peripheral\smif/cy_smif_memslot.c **** 
 1117              		.loc 1 688 0
 1118 0040 0248     		ldr	r0, .L57+4
ARM GAS  C:\Users\ikomb\AppData\Local\Temp\cc5YtlHT.s 			page 34


 1119              	.LVL126:
 1120              	.L54:
 699:Generated_Source\PSoC6\pdl\drivers\peripheral\smif/cy_smif_memslot.c ****                 cmdErase->cmdWidth, sectorAddr, device->numOfAddrBytes,
 700:Generated_Source\PSoC6\pdl\drivers\peripheral\smif/cy_smif_memslot.c ****                 cmdErase->cmdWidth, memDevice->slaveSelect,
 701:Generated_Source\PSoC6\pdl\drivers\peripheral\smif/cy_smif_memslot.c ****                 CY_SMIF_TX_LAST_BYTE, context);
 702:Generated_Source\PSoC6\pdl\drivers\peripheral\smif/cy_smif_memslot.c ****     }
 703:Generated_Source\PSoC6\pdl\drivers\peripheral\smif/cy_smif_memslot.c **** 
 704:Generated_Source\PSoC6\pdl\drivers\peripheral\smif/cy_smif_memslot.c ****     return(result);
 705:Generated_Source\PSoC6\pdl\drivers\peripheral\smif/cy_smif_memslot.c **** }
 1121              		.loc 1 705 0
 1122 0042 09B0     		add	sp, sp, #36
 1123              		@ sp needed
 1124              	.LVL127:
 1125              	.LVL128:
 1126 0044 F0BD     		pop	{r4, r5, r6, r7, pc}
 1127              	.L58:
 1128 0046 C046     		.align	2
 1129              	.L57:
 1130 0048 00000000 		.word	.LC0
 1131 004c 0400B200 		.word	11665412
 1132              		.cfi_endproc
 1133              	.LFE99:
 1134              		.size	Cy_SMIF_Memslot_CmdSectorErase, .-Cy_SMIF_Memslot_CmdSectorErase
 1135              		.section	.text.Cy_SMIF_Memslot_CmdProgram,"ax",%progbits
 1136              		.align	2
 1137              		.global	Cy_SMIF_Memslot_CmdProgram
 1138              		.code	16
 1139              		.thumb_func
 1140              		.type	Cy_SMIF_Memslot_CmdProgram, %function
 1141              	Cy_SMIF_Memslot_CmdProgram:
 1142              	.LFB100:
 706:Generated_Source\PSoC6\pdl\drivers\peripheral\smif/cy_smif_memslot.c **** 
 707:Generated_Source\PSoC6\pdl\drivers\peripheral\smif/cy_smif_memslot.c **** 
 708:Generated_Source\PSoC6\pdl\drivers\peripheral\smif/cy_smif_memslot.c **** /*******************************************************************************
 709:Generated_Source\PSoC6\pdl\drivers\peripheral\smif/cy_smif_memslot.c **** * Function Name: Cy_SMIF_Memslot_CmdProgram
 710:Generated_Source\PSoC6\pdl\drivers\peripheral\smif/cy_smif_memslot.c **** ****************************************************************************//**
 711:Generated_Source\PSoC6\pdl\drivers\peripheral\smif/cy_smif_memslot.c **** *
 712:Generated_Source\PSoC6\pdl\drivers\peripheral\smif/cy_smif_memslot.c **** * This function performs the Program operation. 
 713:Generated_Source\PSoC6\pdl\drivers\peripheral\smif/cy_smif_memslot.c **** *
 714:Generated_Source\PSoC6\pdl\drivers\peripheral\smif/cy_smif_memslot.c **** * \note This function uses the  Cy_SMIF_TransmitCommand() API.
 715:Generated_Source\PSoC6\pdl\drivers\peripheral\smif/cy_smif_memslot.c **** * The Cy_SMIF_TransmitCommand() API works in the blocking mode. In the dual quad mode,
 716:Generated_Source\PSoC6\pdl\drivers\peripheral\smif/cy_smif_memslot.c **** * this API works with both types of memory simultaneously.
 717:Generated_Source\PSoC6\pdl\drivers\peripheral\smif/cy_smif_memslot.c **** *
 718:Generated_Source\PSoC6\pdl\drivers\peripheral\smif/cy_smif_memslot.c **** * \param base
 719:Generated_Source\PSoC6\pdl\drivers\peripheral\smif/cy_smif_memslot.c **** * Holds the base address of the SMIF block registers.
 720:Generated_Source\PSoC6\pdl\drivers\peripheral\smif/cy_smif_memslot.c **** *
 721:Generated_Source\PSoC6\pdl\drivers\peripheral\smif/cy_smif_memslot.c **** * \param context
 722:Generated_Source\PSoC6\pdl\drivers\peripheral\smif/cy_smif_memslot.c **** * The internal SMIF context data.
 723:Generated_Source\PSoC6\pdl\drivers\peripheral\smif/cy_smif_memslot.c **** *
 724:Generated_Source\PSoC6\pdl\drivers\peripheral\smif/cy_smif_memslot.c **** * \param memDevice
 725:Generated_Source\PSoC6\pdl\drivers\peripheral\smif/cy_smif_memslot.c **** * The device to which the command is sent.
 726:Generated_Source\PSoC6\pdl\drivers\peripheral\smif/cy_smif_memslot.c **** *
 727:Generated_Source\PSoC6\pdl\drivers\peripheral\smif/cy_smif_memslot.c **** * \param addr
 728:Generated_Source\PSoC6\pdl\drivers\peripheral\smif/cy_smif_memslot.c **** * The address to program.
 729:Generated_Source\PSoC6\pdl\drivers\peripheral\smif/cy_smif_memslot.c **** *
 730:Generated_Source\PSoC6\pdl\drivers\peripheral\smif/cy_smif_memslot.c **** * \param writeBuff
 731:Generated_Source\PSoC6\pdl\drivers\peripheral\smif/cy_smif_memslot.c **** * The pointer to the data to program. If this pointer is a NULL, then the
ARM GAS  C:\Users\ikomb\AppData\Local\Temp\cc5YtlHT.s 			page 35


 732:Generated_Source\PSoC6\pdl\drivers\peripheral\smif/cy_smif_memslot.c **** * function does not enable the interrupt. This use case is  typically used when
 733:Generated_Source\PSoC6\pdl\drivers\peripheral\smif/cy_smif_memslot.c **** * the FIFO is handled outside the interrupt and is managed in either a 
 734:Generated_Source\PSoC6\pdl\drivers\peripheral\smif/cy_smif_memslot.c **** * polling-based code or a DMA. The user would handle the FIFO management 
 735:Generated_Source\PSoC6\pdl\drivers\peripheral\smif/cy_smif_memslot.c **** * in a DMA or a polling-based code. 
 736:Generated_Source\PSoC6\pdl\drivers\peripheral\smif/cy_smif_memslot.c **** * If the user provides a NULL pointer in this function and does not handle 
 737:Generated_Source\PSoC6\pdl\drivers\peripheral\smif/cy_smif_memslot.c **** * the FIFO transaction, this could either stall or timeout the operation 
 738:Generated_Source\PSoC6\pdl\drivers\peripheral\smif/cy_smif_memslot.c **** * \ref Cy_SMIF_TransmitData().
 739:Generated_Source\PSoC6\pdl\drivers\peripheral\smif/cy_smif_memslot.c **** *
 740:Generated_Source\PSoC6\pdl\drivers\peripheral\smif/cy_smif_memslot.c **** *
 741:Generated_Source\PSoC6\pdl\drivers\peripheral\smif/cy_smif_memslot.c **** * \param size
 742:Generated_Source\PSoC6\pdl\drivers\peripheral\smif/cy_smif_memslot.c **** * The size of data to program. The user must ensure that the data size
 743:Generated_Source\PSoC6\pdl\drivers\peripheral\smif/cy_smif_memslot.c **** * does not exceed the page size.
 744:Generated_Source\PSoC6\pdl\drivers\peripheral\smif/cy_smif_memslot.c **** *
 745:Generated_Source\PSoC6\pdl\drivers\peripheral\smif/cy_smif_memslot.c **** * \param cmdCmpltCb
 746:Generated_Source\PSoC6\pdl\drivers\peripheral\smif/cy_smif_memslot.c **** * The callback function to call after the transfer completion. NULL interpreted
 747:Generated_Source\PSoC6\pdl\drivers\peripheral\smif/cy_smif_memslot.c **** * as no callback.
 748:Generated_Source\PSoC6\pdl\drivers\peripheral\smif/cy_smif_memslot.c **** *
 749:Generated_Source\PSoC6\pdl\drivers\peripheral\smif/cy_smif_memslot.c **** * \return A status of a transmission.
 750:Generated_Source\PSoC6\pdl\drivers\peripheral\smif/cy_smif_memslot.c **** *       - \ref CY_SMIF_SUCCESS
 751:Generated_Source\PSoC6\pdl\drivers\peripheral\smif/cy_smif_memslot.c **** *       - \ref CY_SMIF_CMD_FIFO_FULL
 752:Generated_Source\PSoC6\pdl\drivers\peripheral\smif/cy_smif_memslot.c **** *       - \ref CY_SMIF_BAD_PARAM
 753:Generated_Source\PSoC6\pdl\drivers\peripheral\smif/cy_smif_memslot.c **** *       - \ref CY_SMIF_EXCEED_TIMEOUT
 754:Generated_Source\PSoC6\pdl\drivers\peripheral\smif/cy_smif_memslot.c **** *
 755:Generated_Source\PSoC6\pdl\drivers\peripheral\smif/cy_smif_memslot.c **** *******************************************************************************/
 756:Generated_Source\PSoC6\pdl\drivers\peripheral\smif/cy_smif_memslot.c **** cy_en_smif_status_t Cy_SMIF_Memslot_CmdProgram(SMIF_Type *base,
 757:Generated_Source\PSoC6\pdl\drivers\peripheral\smif/cy_smif_memslot.c ****                                     cy_stc_smif_mem_config_t const *memDevice,
 758:Generated_Source\PSoC6\pdl\drivers\peripheral\smif/cy_smif_memslot.c ****                                     uint8_t const *addr,
 759:Generated_Source\PSoC6\pdl\drivers\peripheral\smif/cy_smif_memslot.c ****                                     uint8_t* writeBuff,
 760:Generated_Source\PSoC6\pdl\drivers\peripheral\smif/cy_smif_memslot.c ****                                     uint32_t size,
 761:Generated_Source\PSoC6\pdl\drivers\peripheral\smif/cy_smif_memslot.c ****                                     cy_smif_event_cb_t cmdCmpltCb,
 762:Generated_Source\PSoC6\pdl\drivers\peripheral\smif/cy_smif_memslot.c ****                                     cy_stc_smif_context_t *context)
 763:Generated_Source\PSoC6\pdl\drivers\peripheral\smif/cy_smif_memslot.c **** {
 1143              		.loc 1 763 0
 1144              		.cfi_startproc
 1145              		@ args = 12, pretend = 0, frame = 8
 1146              		@ frame_needed = 0, uses_anonymous_args = 0
 1147              	.LVL129:
 1148 0000 F0B5     		push	{r4, r5, r6, r7, lr}
 1149              		.cfi_def_cfa_offset 20
 1150              		.cfi_offset 4, -20
 1151              		.cfi_offset 5, -16
 1152              		.cfi_offset 6, -12
 1153              		.cfi_offset 7, -8
 1154              		.cfi_offset 14, -4
 1155 0002 89B0     		sub	sp, sp, #36
 1156              		.cfi_def_cfa_offset 56
 1157 0004 0690     		str	r0, [sp, #24]
 1158 0006 0E00     		movs	r6, r1
 1159 0008 1700     		movs	r7, r2
 1160 000a 0793     		str	r3, [sp, #28]
 1161              	.LVL130:
 764:Generated_Source\PSoC6\pdl\drivers\peripheral\smif/cy_smif_memslot.c ****     cy_en_smif_status_t result = CY_SMIF_BAD_PARAM;
 765:Generated_Source\PSoC6\pdl\drivers\peripheral\smif/cy_smif_memslot.c ****     cy_en_smif_slave_select_t slaveSelected;
 766:Generated_Source\PSoC6\pdl\drivers\peripheral\smif/cy_smif_memslot.c **** 
 767:Generated_Source\PSoC6\pdl\drivers\peripheral\smif/cy_smif_memslot.c ****     cy_stc_smif_mem_device_cfg_t *device = memDevice->deviceCfg;
 1162              		.loc 1 767 0
 1163 000c 8C69     		ldr	r4, [r1, #24]
ARM GAS  C:\Users\ikomb\AppData\Local\Temp\cc5YtlHT.s 			page 36


 1164              	.LVL131:
 768:Generated_Source\PSoC6\pdl\drivers\peripheral\smif/cy_smif_memslot.c ****     cy_stc_smif_mem_cmd_t *cmdProg = device->programCmd;
 1165              		.loc 1 768 0
 1166 000e 256A     		ldr	r5, [r4, #32]
 1167              	.LVL132:
 769:Generated_Source\PSoC6\pdl\drivers\peripheral\smif/cy_smif_memslot.c ****     
 770:Generated_Source\PSoC6\pdl\drivers\peripheral\smif/cy_smif_memslot.c ****     CY_ASSERT_L1(NULL != cmdProg);
 1168              		.loc 1 770 0
 1169 0010 002D     		cmp	r5, #0
 1170 0012 03D1     		bne	.L60
 1171              		.loc 1 770 0 is_stmt 0 discriminator 1
 1172 0014 1C49     		ldr	r1, .L67
 1173              	.LVL133:
 1174 0016 1D48     		ldr	r0, .L67+4
 1175              	.LVL134:
 1176 0018 FFF7FEFF 		bl	Cy_SysLib_AssertFailed
 1177              	.LVL135:
 1178              	.L60:
 771:Generated_Source\PSoC6\pdl\drivers\peripheral\smif/cy_smif_memslot.c **** 
 772:Generated_Source\PSoC6\pdl\drivers\peripheral\smif/cy_smif_memslot.c ****     if ((NULL != addr) && (size <= device->programSize))
 1179              		.loc 1 772 0 is_stmt 1
 1180 001c 002F     		cmp	r7, #0
 1181 001e 2DD0     		beq	.L65
 1182              		.loc 1 772 0 is_stmt 0 discriminator 1
 1183 0020 636A     		ldr	r3, [r4, #36]
 1184 0022 0E9A     		ldr	r2, [sp, #56]
 1185 0024 9342     		cmp	r3, r2
 1186 0026 2BD3     		bcc	.L66
 773:Generated_Source\PSoC6\pdl\drivers\peripheral\smif/cy_smif_memslot.c ****     {
 774:Generated_Source\PSoC6\pdl\drivers\peripheral\smif/cy_smif_memslot.c ****         slaveSelected = (0U == memDevice->dualQuadSlots)?  memDevice->slaveSelect :
 1187              		.loc 1 774 0 is_stmt 1
 1188 0028 7369     		ldr	r3, [r6, #20]
 1189 002a 002B     		cmp	r3, #0
 1190 002c 01D1     		bne	.L62
 1191              		.loc 1 774 0 is_stmt 0 discriminator 1
 1192 002e 3378     		ldrb	r3, [r6]
 1193 0030 00E0     		b	.L63
 1194              	.L62:
 1195              		.loc 1 774 0 discriminator 2
 1196 0032 DBB2     		uxtb	r3, r3
 1197              	.L63:
 1198              	.LVL136:
 775:Generated_Source\PSoC6\pdl\drivers\peripheral\smif/cy_smif_memslot.c ****                                                         (cy_en_smif_slave_select_t)memDevice->dualQ
 776:Generated_Source\PSoC6\pdl\drivers\peripheral\smif/cy_smif_memslot.c ****         /* The page program command */
 777:Generated_Source\PSoC6\pdl\drivers\peripheral\smif/cy_smif_memslot.c ****         result = Cy_SMIF_TransmitCommand( base, (uint8_t)cmdProg->command,
 1199              		.loc 1 777 0 is_stmt 1 discriminator 4
 1200 0034 2978     		ldrb	r1, [r5]
 1201 0036 2A79     		ldrb	r2, [r5, #4]
 1202 0038 2068     		ldr	r0, [r4]
 1203 003a 6C79     		ldrb	r4, [r5, #5]
 1204              	.LVL137:
 1205 003c 109E     		ldr	r6, [sp, #64]
 1206              	.LVL138:
 1207 003e 0496     		str	r6, [sp, #16]
 1208 0040 0026     		movs	r6, #0
 1209 0042 0396     		str	r6, [sp, #12]
 1210 0044 0293     		str	r3, [sp, #8]
ARM GAS  C:\Users\ikomb\AppData\Local\Temp\cc5YtlHT.s 			page 37


 1211 0046 0194     		str	r4, [sp, #4]
 1212 0048 0090     		str	r0, [sp]
 1213 004a 3B00     		movs	r3, r7
 1214              	.LVL139:
 1215 004c 0698     		ldr	r0, [sp, #24]
 1216 004e FFF7FEFF 		bl	Cy_SMIF_TransmitCommand
 1217              	.LVL140:
 778:Generated_Source\PSoC6\pdl\drivers\peripheral\smif/cy_smif_memslot.c ****                 cmdProg->cmdWidth, addr, device->numOfAddrBytes,
 779:Generated_Source\PSoC6\pdl\drivers\peripheral\smif/cy_smif_memslot.c ****                 cmdProg->addrWidth, slaveSelected, CY_SMIF_TX_NOT_LAST_BYTE,
 780:Generated_Source\PSoC6\pdl\drivers\peripheral\smif/cy_smif_memslot.c ****                 context);
 781:Generated_Source\PSoC6\pdl\drivers\peripheral\smif/cy_smif_memslot.c **** 
 782:Generated_Source\PSoC6\pdl\drivers\peripheral\smif/cy_smif_memslot.c ****         if((CY_SMIF_SUCCESS == result) && (cmdProg->dummyCycles > 0U))
 1218              		.loc 1 782 0 discriminator 4
 1219 0052 0028     		cmp	r0, #0
 1220 0054 05D1     		bne	.L64
 1221              		.loc 1 782 0 is_stmt 0 discriminator 1
 1222 0056 2969     		ldr	r1, [r5, #16]
 1223 0058 0029     		cmp	r1, #0
 1224 005a 02D0     		beq	.L64
 783:Generated_Source\PSoC6\pdl\drivers\peripheral\smif/cy_smif_memslot.c ****         {
 784:Generated_Source\PSoC6\pdl\drivers\peripheral\smif/cy_smif_memslot.c ****             result = Cy_SMIF_SendDummyCycles(base, cmdProg->dummyCycles);
 1225              		.loc 1 784 0 is_stmt 1
 1226 005c 0698     		ldr	r0, [sp, #24]
 1227              	.LVL141:
 1228 005e FFF7FEFF 		bl	Cy_SMIF_SendDummyCycles
 1229              	.LVL142:
 1230              	.L64:
 785:Generated_Source\PSoC6\pdl\drivers\peripheral\smif/cy_smif_memslot.c ****         }
 786:Generated_Source\PSoC6\pdl\drivers\peripheral\smif/cy_smif_memslot.c **** 
 787:Generated_Source\PSoC6\pdl\drivers\peripheral\smif/cy_smif_memslot.c ****         if(CY_SMIF_SUCCESS == result)
 1231              		.loc 1 787 0
 1232 0062 0028     		cmp	r0, #0
 1233 0064 0DD1     		bne	.L61
 788:Generated_Source\PSoC6\pdl\drivers\peripheral\smif/cy_smif_memslot.c ****         {
 789:Generated_Source\PSoC6\pdl\drivers\peripheral\smif/cy_smif_memslot.c ****             result = Cy_SMIF_TransmitData( base, writeBuff, size,
 1234              		.loc 1 789 0
 1235 0066 2B7D     		ldrb	r3, [r5, #20]
 1236 0068 109A     		ldr	r2, [sp, #64]
 1237 006a 0192     		str	r2, [sp, #4]
 1238 006c 0F9A     		ldr	r2, [sp, #60]
 1239 006e 0092     		str	r2, [sp]
 1240 0070 0E9A     		ldr	r2, [sp, #56]
 1241 0072 0799     		ldr	r1, [sp, #28]
 1242 0074 0698     		ldr	r0, [sp, #24]
 1243              	.LVL143:
 1244 0076 FFF7FEFF 		bl	Cy_SMIF_TransmitData
 1245              	.LVL144:
 1246 007a 02E0     		b	.L61
 1247              	.LVL145:
 1248              	.L65:
 764:Generated_Source\PSoC6\pdl\drivers\peripheral\smif/cy_smif_memslot.c ****     cy_en_smif_slave_select_t slaveSelected;
 1249              		.loc 1 764 0
 1250 007c 0448     		ldr	r0, .L67+8
 1251 007e 00E0     		b	.L61
 1252              	.L66:
 1253 0080 0348     		ldr	r0, .L67+8
 1254              	.LVL146:
ARM GAS  C:\Users\ikomb\AppData\Local\Temp\cc5YtlHT.s 			page 38


 1255              	.L61:
 790:Generated_Source\PSoC6\pdl\drivers\peripheral\smif/cy_smif_memslot.c ****                     cmdProg->dataWidth, cmdCmpltCb, context);
 791:Generated_Source\PSoC6\pdl\drivers\peripheral\smif/cy_smif_memslot.c ****         }
 792:Generated_Source\PSoC6\pdl\drivers\peripheral\smif/cy_smif_memslot.c ****     }
 793:Generated_Source\PSoC6\pdl\drivers\peripheral\smif/cy_smif_memslot.c **** 
 794:Generated_Source\PSoC6\pdl\drivers\peripheral\smif/cy_smif_memslot.c ****     return(result);
 795:Generated_Source\PSoC6\pdl\drivers\peripheral\smif/cy_smif_memslot.c **** }
 1256              		.loc 1 795 0
 1257 0082 09B0     		add	sp, sp, #36
 1258              		@ sp needed
 1259              	.LVL147:
 1260              	.LVL148:
 1261 0084 F0BD     		pop	{r4, r5, r6, r7, pc}
 1262              	.L68:
 1263 0086 C046     		.align	2
 1264              	.L67:
 1265 0088 02030000 		.word	770
 1266 008c 00000000 		.word	.LC0
 1267 0090 0400B200 		.word	11665412
 1268              		.cfi_endproc
 1269              	.LFE100:
 1270              		.size	Cy_SMIF_Memslot_CmdProgram, .-Cy_SMIF_Memslot_CmdProgram
 1271              		.section	.text.Cy_SMIF_Memslot_CmdRead,"ax",%progbits
 1272              		.align	2
 1273              		.global	Cy_SMIF_Memslot_CmdRead
 1274              		.code	16
 1275              		.thumb_func
 1276              		.type	Cy_SMIF_Memslot_CmdRead, %function
 1277              	Cy_SMIF_Memslot_CmdRead:
 1278              	.LFB101:
 796:Generated_Source\PSoC6\pdl\drivers\peripheral\smif/cy_smif_memslot.c **** 
 797:Generated_Source\PSoC6\pdl\drivers\peripheral\smif/cy_smif_memslot.c **** 
 798:Generated_Source\PSoC6\pdl\drivers\peripheral\smif/cy_smif_memslot.c **** /*******************************************************************************
 799:Generated_Source\PSoC6\pdl\drivers\peripheral\smif/cy_smif_memslot.c **** * Function Name: Cy_SMIF_Memslot_CmdRead
 800:Generated_Source\PSoC6\pdl\drivers\peripheral\smif/cy_smif_memslot.c **** ****************************************************************************//**
 801:Generated_Source\PSoC6\pdl\drivers\peripheral\smif/cy_smif_memslot.c **** *
 802:Generated_Source\PSoC6\pdl\drivers\peripheral\smif/cy_smif_memslot.c **** * This function performs the Read operation.
 803:Generated_Source\PSoC6\pdl\drivers\peripheral\smif/cy_smif_memslot.c **** *
 804:Generated_Source\PSoC6\pdl\drivers\peripheral\smif/cy_smif_memslot.c **** * \note This function uses the Cy_SMIF_TransmitCommand() API.
 805:Generated_Source\PSoC6\pdl\drivers\peripheral\smif/cy_smif_memslot.c **** * The Cy_SMIF_TransmitCommand() API works in the blocking mode. In the dual quad mode,
 806:Generated_Source\PSoC6\pdl\drivers\peripheral\smif/cy_smif_memslot.c **** * this API works with both types of memory simultaneously.
 807:Generated_Source\PSoC6\pdl\drivers\peripheral\smif/cy_smif_memslot.c **** *
 808:Generated_Source\PSoC6\pdl\drivers\peripheral\smif/cy_smif_memslot.c **** * \param base
 809:Generated_Source\PSoC6\pdl\drivers\peripheral\smif/cy_smif_memslot.c **** * Holds the base address of the SMIF block registers.
 810:Generated_Source\PSoC6\pdl\drivers\peripheral\smif/cy_smif_memslot.c **** *
 811:Generated_Source\PSoC6\pdl\drivers\peripheral\smif/cy_smif_memslot.c **** * \param context
 812:Generated_Source\PSoC6\pdl\drivers\peripheral\smif/cy_smif_memslot.c **** * The internal SMIF context data.
 813:Generated_Source\PSoC6\pdl\drivers\peripheral\smif/cy_smif_memslot.c **** *
 814:Generated_Source\PSoC6\pdl\drivers\peripheral\smif/cy_smif_memslot.c **** * \param memDevice
 815:Generated_Source\PSoC6\pdl\drivers\peripheral\smif/cy_smif_memslot.c **** * The device to which the command is sent.
 816:Generated_Source\PSoC6\pdl\drivers\peripheral\smif/cy_smif_memslot.c **** *
 817:Generated_Source\PSoC6\pdl\drivers\peripheral\smif/cy_smif_memslot.c **** * \param addr
 818:Generated_Source\PSoC6\pdl\drivers\peripheral\smif/cy_smif_memslot.c **** * The address to read.
 819:Generated_Source\PSoC6\pdl\drivers\peripheral\smif/cy_smif_memslot.c **** *
 820:Generated_Source\PSoC6\pdl\drivers\peripheral\smif/cy_smif_memslot.c **** * \param readBuff
 821:Generated_Source\PSoC6\pdl\drivers\peripheral\smif/cy_smif_memslot.c **** * The pointer to the variable where the read data is stored. If this pointer is 
 822:Generated_Source\PSoC6\pdl\drivers\peripheral\smif/cy_smif_memslot.c **** * a NULL, then the function does not enable the interrupt. This use case is 
ARM GAS  C:\Users\ikomb\AppData\Local\Temp\cc5YtlHT.s 			page 39


 823:Generated_Source\PSoC6\pdl\drivers\peripheral\smif/cy_smif_memslot.c **** * typically used when the FIFO is handled outside the interrupt and is managed
 824:Generated_Source\PSoC6\pdl\drivers\peripheral\smif/cy_smif_memslot.c **** * in either a  polling-based code or a DMA. The user would handle the FIFO
 825:Generated_Source\PSoC6\pdl\drivers\peripheral\smif/cy_smif_memslot.c **** * management in a DMA or a polling-based code. 
 826:Generated_Source\PSoC6\pdl\drivers\peripheral\smif/cy_smif_memslot.c **** * If the user provides a NULL pointer in this function and does not handle 
 827:Generated_Source\PSoC6\pdl\drivers\peripheral\smif/cy_smif_memslot.c **** * the FIFO transaction, this could either stall or timeout the operation 
 828:Generated_Source\PSoC6\pdl\drivers\peripheral\smif/cy_smif_memslot.c **** * \ref Cy_SMIF_TransmitData().
 829:Generated_Source\PSoC6\pdl\drivers\peripheral\smif/cy_smif_memslot.c **** *
 830:Generated_Source\PSoC6\pdl\drivers\peripheral\smif/cy_smif_memslot.c **** * \param size
 831:Generated_Source\PSoC6\pdl\drivers\peripheral\smif/cy_smif_memslot.c **** * The size of data to read.
 832:Generated_Source\PSoC6\pdl\drivers\peripheral\smif/cy_smif_memslot.c **** *
 833:Generated_Source\PSoC6\pdl\drivers\peripheral\smif/cy_smif_memslot.c **** * \param cmdCmpltCb
 834:Generated_Source\PSoC6\pdl\drivers\peripheral\smif/cy_smif_memslot.c **** * The callback function to call after the transfer completion. NULL interpreted
 835:Generated_Source\PSoC6\pdl\drivers\peripheral\smif/cy_smif_memslot.c **** * as no callback.
 836:Generated_Source\PSoC6\pdl\drivers\peripheral\smif/cy_smif_memslot.c **** *
 837:Generated_Source\PSoC6\pdl\drivers\peripheral\smif/cy_smif_memslot.c **** * \return A status of the transmission.
 838:Generated_Source\PSoC6\pdl\drivers\peripheral\smif/cy_smif_memslot.c **** *       - \ref CY_SMIF_SUCCESS
 839:Generated_Source\PSoC6\pdl\drivers\peripheral\smif/cy_smif_memslot.c **** *       - \ref CY_SMIF_CMD_FIFO_FULL
 840:Generated_Source\PSoC6\pdl\drivers\peripheral\smif/cy_smif_memslot.c **** *       - \ref CY_SMIF_BAD_PARAM
 841:Generated_Source\PSoC6\pdl\drivers\peripheral\smif/cy_smif_memslot.c **** *       - \ref CY_SMIF_EXCEED_TIMEOUT
 842:Generated_Source\PSoC6\pdl\drivers\peripheral\smif/cy_smif_memslot.c **** *
 843:Generated_Source\PSoC6\pdl\drivers\peripheral\smif/cy_smif_memslot.c **** *******************************************************************************/
 844:Generated_Source\PSoC6\pdl\drivers\peripheral\smif/cy_smif_memslot.c **** cy_en_smif_status_t Cy_SMIF_Memslot_CmdRead(SMIF_Type *base,
 845:Generated_Source\PSoC6\pdl\drivers\peripheral\smif/cy_smif_memslot.c ****                                 cy_stc_smif_mem_config_t const *memDevice,
 846:Generated_Source\PSoC6\pdl\drivers\peripheral\smif/cy_smif_memslot.c ****                                 uint8_t const *addr,
 847:Generated_Source\PSoC6\pdl\drivers\peripheral\smif/cy_smif_memslot.c ****                                 uint8_t* readBuff,
 848:Generated_Source\PSoC6\pdl\drivers\peripheral\smif/cy_smif_memslot.c ****                                 uint32_t size,
 849:Generated_Source\PSoC6\pdl\drivers\peripheral\smif/cy_smif_memslot.c ****                                 cy_smif_event_cb_t cmdCmpltCb,
 850:Generated_Source\PSoC6\pdl\drivers\peripheral\smif/cy_smif_memslot.c ****                                 cy_stc_smif_context_t *context)
 851:Generated_Source\PSoC6\pdl\drivers\peripheral\smif/cy_smif_memslot.c **** {
 1279              		.loc 1 851 0
 1280              		.cfi_startproc
 1281              		@ args = 12, pretend = 0, frame = 8
 1282              		@ frame_needed = 0, uses_anonymous_args = 0
 1283              	.LVL149:
 1284 0000 F0B5     		push	{r4, r5, r6, r7, lr}
 1285              		.cfi_def_cfa_offset 20
 1286              		.cfi_offset 4, -20
 1287              		.cfi_offset 5, -16
 1288              		.cfi_offset 6, -12
 1289              		.cfi_offset 7, -8
 1290              		.cfi_offset 14, -4
 1291 0002 89B0     		sub	sp, sp, #36
 1292              		.cfi_def_cfa_offset 56
 1293 0004 0690     		str	r0, [sp, #24]
 1294 0006 171E     		subs	r7, r2, #0
 1295 0008 0793     		str	r3, [sp, #28]
 1296              	.LVL150:
 852:Generated_Source\PSoC6\pdl\drivers\peripheral\smif/cy_smif_memslot.c ****     cy_en_smif_status_t result = CY_SMIF_BAD_PARAM;
 853:Generated_Source\PSoC6\pdl\drivers\peripheral\smif/cy_smif_memslot.c ****     cy_en_smif_slave_select_t slaveSelected;
 854:Generated_Source\PSoC6\pdl\drivers\peripheral\smif/cy_smif_memslot.c ****     cy_stc_smif_mem_device_cfg_t *device = memDevice->deviceCfg;
 1297              		.loc 1 854 0
 1298 000a 8B69     		ldr	r3, [r1, #24]
 1299              	.LVL151:
 855:Generated_Source\PSoC6\pdl\drivers\peripheral\smif/cy_smif_memslot.c ****     cy_stc_smif_mem_cmd_t *cmdRead = device->readCmd;
 1300              		.loc 1 855 0
 1301 000c 9C68     		ldr	r4, [r3, #8]
 1302              	.LVL152:
ARM GAS  C:\Users\ikomb\AppData\Local\Temp\cc5YtlHT.s 			page 40


 856:Generated_Source\PSoC6\pdl\drivers\peripheral\smif/cy_smif_memslot.c **** 
 857:Generated_Source\PSoC6\pdl\drivers\peripheral\smif/cy_smif_memslot.c ****     if (NULL != addr)
 1303              		.loc 1 857 0
 1304 000e 3AD0     		beq	.L75
 858:Generated_Source\PSoC6\pdl\drivers\peripheral\smif/cy_smif_memslot.c ****     {
 859:Generated_Source\PSoC6\pdl\drivers\peripheral\smif/cy_smif_memslot.c ****         slaveSelected = (0U == memDevice->dualQuadSlots)?  memDevice->slaveSelect :
 1305              		.loc 1 859 0
 1306 0010 4869     		ldr	r0, [r1, #20]
 1307              	.LVL153:
 1308 0012 0028     		cmp	r0, #0
 1309 0014 01D1     		bne	.L71
 1310              		.loc 1 859 0 is_stmt 0 discriminator 1
 1311 0016 0E78     		ldrb	r6, [r1]
 1312 0018 00E0     		b	.L72
 1313              	.L71:
 1314              		.loc 1 859 0 discriminator 2
 1315 001a C6B2     		uxtb	r6, r0
 1316              	.L72:
 1317              	.LVL154:
 860:Generated_Source\PSoC6\pdl\drivers\peripheral\smif/cy_smif_memslot.c ****                                (cy_en_smif_slave_select_t)memDevice->dualQuadSlots;
 861:Generated_Source\PSoC6\pdl\drivers\peripheral\smif/cy_smif_memslot.c **** 
 862:Generated_Source\PSoC6\pdl\drivers\peripheral\smif/cy_smif_memslot.c ****         result = Cy_SMIF_TransmitCommand( base, (uint8_t)cmdRead->command,
 1318              		.loc 1 862 0 is_stmt 1 discriminator 4
 1319 001c 2178     		ldrb	r1, [r4]
 1320              	.LVL155:
 1321 001e 2279     		ldrb	r2, [r4, #4]
 1322              	.LVL156:
 1323 0020 1B68     		ldr	r3, [r3]
 1324              	.LVL157:
 1325 0022 6079     		ldrb	r0, [r4, #5]
 1326 0024 109D     		ldr	r5, [sp, #64]
 1327 0026 0495     		str	r5, [sp, #16]
 1328              	.LVL158:
 1329 0028 0025     		movs	r5, #0
 1330 002a 0395     		str	r5, [sp, #12]
 1331 002c 0296     		str	r6, [sp, #8]
 1332 002e 0190     		str	r0, [sp, #4]
 1333 0030 0093     		str	r3, [sp]
 1334 0032 3B00     		movs	r3, r7
 1335 0034 0698     		ldr	r0, [sp, #24]
 1336 0036 FFF7FEFF 		bl	Cy_SMIF_TransmitCommand
 1337              	.LVL159:
 863:Generated_Source\PSoC6\pdl\drivers\peripheral\smif/cy_smif_memslot.c ****                     cmdRead->cmdWidth, addr, device->numOfAddrBytes,
 864:Generated_Source\PSoC6\pdl\drivers\peripheral\smif/cy_smif_memslot.c ****                     cmdRead->addrWidth, slaveSelected, CY_SMIF_TX_NOT_LAST_BYTE,
 865:Generated_Source\PSoC6\pdl\drivers\peripheral\smif/cy_smif_memslot.c ****                     context);
 866:Generated_Source\PSoC6\pdl\drivers\peripheral\smif/cy_smif_memslot.c **** 
 867:Generated_Source\PSoC6\pdl\drivers\peripheral\smif/cy_smif_memslot.c ****         if((CY_SMIF_SUCCESS == result) && (0U < cmdRead->dummyCycles))
 1338              		.loc 1 867 0 discriminator 4
 1339 003a 0028     		cmp	r0, #0
 1340 003c 05D1     		bne	.L73
 1341              		.loc 1 867 0 is_stmt 0 discriminator 1
 1342 003e 2169     		ldr	r1, [r4, #16]
 1343 0040 0029     		cmp	r1, #0
 1344 0042 02D0     		beq	.L73
 868:Generated_Source\PSoC6\pdl\drivers\peripheral\smif/cy_smif_memslot.c ****         {
 869:Generated_Source\PSoC6\pdl\drivers\peripheral\smif/cy_smif_memslot.c ****             result = Cy_SMIF_SendDummyCycles(base, cmdRead->dummyCycles);
 1345              		.loc 1 869 0 is_stmt 1
ARM GAS  C:\Users\ikomb\AppData\Local\Temp\cc5YtlHT.s 			page 41


 1346 0044 0698     		ldr	r0, [sp, #24]
 1347              	.LVL160:
 1348 0046 FFF7FEFF 		bl	Cy_SMIF_SendDummyCycles
 1349              	.LVL161:
 1350              	.L73:
 870:Generated_Source\PSoC6\pdl\drivers\peripheral\smif/cy_smif_memslot.c ****         }
 871:Generated_Source\PSoC6\pdl\drivers\peripheral\smif/cy_smif_memslot.c **** 
 872:Generated_Source\PSoC6\pdl\drivers\peripheral\smif/cy_smif_memslot.c ****         if((CY_SMIF_SUCCESS == result) && (CY_SMIF_NO_COMMAND_OR_MODE != cmdRead->mode))
 1351              		.loc 1 872 0
 1352 004a 0028     		cmp	r0, #0
 1353 004c 0ED1     		bne	.L74
 1354              		.loc 1 872 0 is_stmt 0 discriminator 1
 1355 004e A168     		ldr	r1, [r4, #8]
 1356 0050 4B1C     		adds	r3, r1, #1
 1357 0052 0BD0     		beq	.L74
 873:Generated_Source\PSoC6\pdl\drivers\peripheral\smif/cy_smif_memslot.c ****         {
 874:Generated_Source\PSoC6\pdl\drivers\peripheral\smif/cy_smif_memslot.c ****             result = Cy_SMIF_TransmitCommand(base, (uint8_t)cmdRead->mode,
 1358              		.loc 1 874 0 is_stmt 1
 1359 0054 C9B2     		uxtb	r1, r1
 1360 0056 227D     		ldrb	r2, [r4, #20]
 1361 0058 109B     		ldr	r3, [sp, #64]
 1362 005a 0493     		str	r3, [sp, #16]
 1363 005c 0023     		movs	r3, #0
 1364 005e 0393     		str	r3, [sp, #12]
 1365 0060 0296     		str	r6, [sp, #8]
 1366 0062 0193     		str	r3, [sp, #4]
 1367 0064 0093     		str	r3, [sp]
 1368 0066 0698     		ldr	r0, [sp, #24]
 1369              	.LVL162:
 1370 0068 FFF7FEFF 		bl	Cy_SMIF_TransmitCommand
 1371              	.LVL163:
 1372              	.L74:
 875:Generated_Source\PSoC6\pdl\drivers\peripheral\smif/cy_smif_memslot.c ****                         cmdRead->dataWidth, CY_SMIF_CMD_WITHOUT_PARAM,
 876:Generated_Source\PSoC6\pdl\drivers\peripheral\smif/cy_smif_memslot.c ****                         CY_SMIF_CMD_WITHOUT_PARAM,
 877:Generated_Source\PSoC6\pdl\drivers\peripheral\smif/cy_smif_memslot.c ****                         (cy_en_smif_txfr_width_t) CY_SMIF_CMD_WITHOUT_PARAM,
 878:Generated_Source\PSoC6\pdl\drivers\peripheral\smif/cy_smif_memslot.c ****                         (cy_en_smif_slave_select_t)slaveSelected,
 879:Generated_Source\PSoC6\pdl\drivers\peripheral\smif/cy_smif_memslot.c ****                         CY_SMIF_TX_NOT_LAST_BYTE, context);
 880:Generated_Source\PSoC6\pdl\drivers\peripheral\smif/cy_smif_memslot.c ****         }
 881:Generated_Source\PSoC6\pdl\drivers\peripheral\smif/cy_smif_memslot.c **** 
 882:Generated_Source\PSoC6\pdl\drivers\peripheral\smif/cy_smif_memslot.c ****         if(CY_SMIF_SUCCESS == result)
 1373              		.loc 1 882 0
 1374 006c 0028     		cmp	r0, #0
 1375 006e 0BD1     		bne	.L70
 883:Generated_Source\PSoC6\pdl\drivers\peripheral\smif/cy_smif_memslot.c ****         {
 884:Generated_Source\PSoC6\pdl\drivers\peripheral\smif/cy_smif_memslot.c ****             result = Cy_SMIF_ReceiveData(base, readBuff, size,
 1376              		.loc 1 884 0
 1377 0070 237D     		ldrb	r3, [r4, #20]
 1378 0072 109A     		ldr	r2, [sp, #64]
 1379 0074 0192     		str	r2, [sp, #4]
 1380 0076 0F9A     		ldr	r2, [sp, #60]
 1381 0078 0092     		str	r2, [sp]
 1382 007a 0E9A     		ldr	r2, [sp, #56]
 1383 007c 0799     		ldr	r1, [sp, #28]
 1384 007e 0698     		ldr	r0, [sp, #24]
 1385              	.LVL164:
 1386 0080 FFF7FEFF 		bl	Cy_SMIF_ReceiveData
 1387              	.LVL165:
ARM GAS  C:\Users\ikomb\AppData\Local\Temp\cc5YtlHT.s 			page 42


 1388 0084 00E0     		b	.L70
 1389              	.LVL166:
 1390              	.L75:
 852:Generated_Source\PSoC6\pdl\drivers\peripheral\smif/cy_smif_memslot.c ****     cy_en_smif_slave_select_t slaveSelected;
 1391              		.loc 1 852 0
 1392 0086 0148     		ldr	r0, .L76
 1393              	.LVL167:
 1394              	.L70:
 885:Generated_Source\PSoC6\pdl\drivers\peripheral\smif/cy_smif_memslot.c ****                         cmdRead->dataWidth, cmdCmpltCb, context);
 886:Generated_Source\PSoC6\pdl\drivers\peripheral\smif/cy_smif_memslot.c ****         }
 887:Generated_Source\PSoC6\pdl\drivers\peripheral\smif/cy_smif_memslot.c ****     }
 888:Generated_Source\PSoC6\pdl\drivers\peripheral\smif/cy_smif_memslot.c **** 
 889:Generated_Source\PSoC6\pdl\drivers\peripheral\smif/cy_smif_memslot.c ****     return(result);
 890:Generated_Source\PSoC6\pdl\drivers\peripheral\smif/cy_smif_memslot.c **** }
 1395              		.loc 1 890 0
 1396 0088 09B0     		add	sp, sp, #36
 1397              		@ sp needed
 1398              	.LVL168:
 1399              	.LVL169:
 1400 008a F0BD     		pop	{r4, r5, r6, r7, pc}
 1401              	.L77:
 1402              		.align	2
 1403              	.L76:
 1404 008c 0400B200 		.word	11665412
 1405              		.cfi_endproc
 1406              	.LFE101:
 1407              		.size	Cy_SMIF_Memslot_CmdRead, .-Cy_SMIF_Memslot_CmdRead
 1408              		.section	.text.Cy_SMIF_Memslot_SfdpDetect,"ax",%progbits
 1409              		.align	2
 1410              		.global	Cy_SMIF_Memslot_SfdpDetect
 1411              		.code	16
 1412              		.thumb_func
 1413              		.type	Cy_SMIF_Memslot_SfdpDetect, %function
 1414              	Cy_SMIF_Memslot_SfdpDetect:
 1415              	.LFB102:
 891:Generated_Source\PSoC6\pdl\drivers\peripheral\smif/cy_smif_memslot.c **** 
 892:Generated_Source\PSoC6\pdl\drivers\peripheral\smif/cy_smif_memslot.c **** 
 893:Generated_Source\PSoC6\pdl\drivers\peripheral\smif/cy_smif_memslot.c **** /*******************************************************************************
 894:Generated_Source\PSoC6\pdl\drivers\peripheral\smif/cy_smif_memslot.c **** * Function Name: Cy_SMIF_Memslot_SfdpDetect
 895:Generated_Source\PSoC6\pdl\drivers\peripheral\smif/cy_smif_memslot.c **** ****************************************************************************//**
 896:Generated_Source\PSoC6\pdl\drivers\peripheral\smif/cy_smif_memslot.c **** *
 897:Generated_Source\PSoC6\pdl\drivers\peripheral\smif/cy_smif_memslot.c **** * This function detects the device signature for SFDP devices.
 898:Generated_Source\PSoC6\pdl\drivers\peripheral\smif/cy_smif_memslot.c **** * Refer to the SFDP spec (JESD216B) for details.
 899:Generated_Source\PSoC6\pdl\drivers\peripheral\smif/cy_smif_memslot.c **** * The function asks the device using an SPI and then populates the relevant
 900:Generated_Source\PSoC6\pdl\drivers\peripheral\smif/cy_smif_memslot.c **** * parameters for \ref cy_stc_smif_mem_device_cfg_t.
 901:Generated_Source\PSoC6\pdl\drivers\peripheral\smif/cy_smif_memslot.c **** *
 902:Generated_Source\PSoC6\pdl\drivers\peripheral\smif/cy_smif_memslot.c **** * \note This function is a blocking function and blocks until the structure data
 903:Generated_Source\PSoC6\pdl\drivers\peripheral\smif/cy_smif_memslot.c **** * is read and returned. This function uses \ref Cy_SMIF_TransmitCommand()
 904:Generated_Source\PSoC6\pdl\drivers\peripheral\smif/cy_smif_memslot.c **** * If there is no support for SFDP in the memory device, the API returns an
 905:Generated_Source\PSoC6\pdl\drivers\peripheral\smif/cy_smif_memslot.c **** * error condition. The function requires:
 906:Generated_Source\PSoC6\pdl\drivers\peripheral\smif/cy_smif_memslot.c **** *   - SMIF initialized and enabled to work in the normal mode;
 907:Generated_Source\PSoC6\pdl\drivers\peripheral\smif/cy_smif_memslot.c **** *   - readSfdpCmd field of \ref cy_stc_smif_mem_device_cfg_t is enabled.
 908:Generated_Source\PSoC6\pdl\drivers\peripheral\smif/cy_smif_memslot.c **** *
 909:Generated_Source\PSoC6\pdl\drivers\peripheral\smif/cy_smif_memslot.c **** * \note The SFDP detect takes into account the types of the SPI supported by the
 910:Generated_Source\PSoC6\pdl\drivers\peripheral\smif/cy_smif_memslot.c **** * memory device and also the dataSelect option selected to choose which SPI mode
 911:Generated_Source\PSoC6\pdl\drivers\peripheral\smif/cy_smif_memslot.c **** * (SPI, DSPI, QSPI) to load into the structures. The algorithm prefers
 912:Generated_Source\PSoC6\pdl\drivers\peripheral\smif/cy_smif_memslot.c **** * QSPI>DSPI>SPI, provided there is support for it in the memory device and the
ARM GAS  C:\Users\ikomb\AppData\Local\Temp\cc5YtlHT.s 			page 43


 913:Generated_Source\PSoC6\pdl\drivers\peripheral\smif/cy_smif_memslot.c **** * dataSelect selected by the user.
 914:Generated_Source\PSoC6\pdl\drivers\peripheral\smif/cy_smif_memslot.c **** *
 915:Generated_Source\PSoC6\pdl\drivers\peripheral\smif/cy_smif_memslot.c **** * \param base
 916:Generated_Source\PSoC6\pdl\drivers\peripheral\smif/cy_smif_memslot.c **** * Holds the base address of the SMIF block registers.
 917:Generated_Source\PSoC6\pdl\drivers\peripheral\smif/cy_smif_memslot.c **** *
 918:Generated_Source\PSoC6\pdl\drivers\peripheral\smif/cy_smif_memslot.c **** * \param context
 919:Generated_Source\PSoC6\pdl\drivers\peripheral\smif/cy_smif_memslot.c **** * The internal SMIF context data.
 920:Generated_Source\PSoC6\pdl\drivers\peripheral\smif/cy_smif_memslot.c **** *
 921:Generated_Source\PSoC6\pdl\drivers\peripheral\smif/cy_smif_memslot.c **** * \param device
 922:Generated_Source\PSoC6\pdl\drivers\peripheral\smif/cy_smif_memslot.c **** * The device structure instance declared by the user. This is where the detected
 923:Generated_Source\PSoC6\pdl\drivers\peripheral\smif/cy_smif_memslot.c **** * parameters are stored and returned.
 924:Generated_Source\PSoC6\pdl\drivers\peripheral\smif/cy_smif_memslot.c **** *
 925:Generated_Source\PSoC6\pdl\drivers\peripheral\smif/cy_smif_memslot.c **** * \param slaveSelect
 926:Generated_Source\PSoC6\pdl\drivers\peripheral\smif/cy_smif_memslot.c **** * The slave select line for the device.
 927:Generated_Source\PSoC6\pdl\drivers\peripheral\smif/cy_smif_memslot.c **** *
 928:Generated_Source\PSoC6\pdl\drivers\peripheral\smif/cy_smif_memslot.c **** * \param dataSelect
 929:Generated_Source\PSoC6\pdl\drivers\peripheral\smif/cy_smif_memslot.c **** * The data line selection options for a slave device.
 930:Generated_Source\PSoC6\pdl\drivers\peripheral\smif/cy_smif_memslot.c **** *
 931:Generated_Source\PSoC6\pdl\drivers\peripheral\smif/cy_smif_memslot.c **** * \return A status of the transmission.
 932:Generated_Source\PSoC6\pdl\drivers\peripheral\smif/cy_smif_memslot.c **** *       - \ref CY_SMIF_SUCCESS
 933:Generated_Source\PSoC6\pdl\drivers\peripheral\smif/cy_smif_memslot.c **** *       - \ref CY_SMIF_CMD_FIFO_FULL
 934:Generated_Source\PSoC6\pdl\drivers\peripheral\smif/cy_smif_memslot.c **** *       - \ref CY_SMIF_NO_SFDP_SUPPORT
 935:Generated_Source\PSoC6\pdl\drivers\peripheral\smif/cy_smif_memslot.c **** *       - \ref CY_SMIF_EXCEED_TIMEOUT
 936:Generated_Source\PSoC6\pdl\drivers\peripheral\smif/cy_smif_memslot.c **** *
 937:Generated_Source\PSoC6\pdl\drivers\peripheral\smif/cy_smif_memslot.c **** *******************************************************************************/
 938:Generated_Source\PSoC6\pdl\drivers\peripheral\smif/cy_smif_memslot.c **** cy_en_smif_status_t Cy_SMIF_Memslot_SfdpDetect(SMIF_Type *base,
 939:Generated_Source\PSoC6\pdl\drivers\peripheral\smif/cy_smif_memslot.c ****                                     cy_stc_smif_mem_device_cfg_t *device,
 940:Generated_Source\PSoC6\pdl\drivers\peripheral\smif/cy_smif_memslot.c ****                                     cy_en_smif_slave_select_t slaveSelect,
 941:Generated_Source\PSoC6\pdl\drivers\peripheral\smif/cy_smif_memslot.c ****                                     cy_en_smif_data_select_t dataSelect,
 942:Generated_Source\PSoC6\pdl\drivers\peripheral\smif/cy_smif_memslot.c ****                                     cy_stc_smif_context_t *context)
 943:Generated_Source\PSoC6\pdl\drivers\peripheral\smif/cy_smif_memslot.c **** {
 1416              		.loc 1 943 0
 1417              		.cfi_startproc
 1418              		@ args = 4, pretend = 0, frame = 280
 1419              		@ frame_needed = 0, uses_anonymous_args = 0
 1420              	.LVL170:
 1421 0000 F0B5     		push	{r4, r5, r6, r7, lr}
 1422              		.cfi_def_cfa_offset 20
 1423              		.cfi_offset 4, -20
 1424              		.cfi_offset 5, -16
 1425              		.cfi_offset 6, -12
 1426              		.cfi_offset 7, -8
 1427              		.cfi_offset 14, -4
 1428 0002 5746     		mov	r7, r10
 1429 0004 4E46     		mov	r6, r9
 1430 0006 4546     		mov	r5, r8
 1431 0008 E0B4     		push	{r5, r6, r7}
 1432              		.cfi_def_cfa_offset 32
 1433              		.cfi_offset 8, -32
 1434              		.cfi_offset 9, -28
 1435              		.cfi_offset 10, -24
 1436 000a CCB0     		sub	sp, sp, #304
 1437              		.cfi_def_cfa_offset 336
 1438 000c 0790     		str	r0, [sp, #28]
 1439 000e 0D1E     		subs	r5, r1, #0
 1440 0010 0892     		str	r2, [sp, #32]
 1441 0012 0993     		str	r3, [sp, #36]
ARM GAS  C:\Users\ikomb\AppData\Local\Temp\cc5YtlHT.s 			page 44


 1442 0014 549E     		ldr	r6, [sp, #336]
 944:Generated_Source\PSoC6\pdl\drivers\peripheral\smif/cy_smif_memslot.c ****     /* Check input parameters */
 945:Generated_Source\PSoC6\pdl\drivers\peripheral\smif/cy_smif_memslot.c ****     CY_ASSERT_L1(NULL != device);
 1443              		.loc 1 945 0
 1444 0016 03D1     		bne	.L79
 1445              		.loc 1 945 0 is_stmt 0 discriminator 1
 1446 0018 C849     		ldr	r1, .L135
 1447              	.LVL171:
 1448 001a C948     		ldr	r0, .L135+4
 1449              	.LVL172:
 1450 001c FFF7FEFF 		bl	Cy_SysLib_AssertFailed
 1451              	.LVL173:
 1452              	.L79:
 946:Generated_Source\PSoC6\pdl\drivers\peripheral\smif/cy_smif_memslot.c ****     CY_ASSERT_L1(NULL != device->readSfdpCmd);
 1453              		.loc 1 946 0 is_stmt 1
 1454 0020 6B6B     		ldr	r3, [r5, #52]
 1455 0022 002B     		cmp	r3, #0
 1456 0024 03D1     		bne	.L80
 1457              		.loc 1 946 0 is_stmt 0 discriminator 1
 1458 0026 C749     		ldr	r1, .L135+8
 1459 0028 C548     		ldr	r0, .L135+4
 1460 002a FFF7FEFF 		bl	Cy_SysLib_AssertFailed
 1461              	.LVL174:
 1462              	.L80:
 947:Generated_Source\PSoC6\pdl\drivers\peripheral\smif/cy_smif_memslot.c ****     
 948:Generated_Source\PSoC6\pdl\drivers\peripheral\smif/cy_smif_memslot.c ****     uint8_t sfdpBuffer[CY_SMIF_SFDP_LENGTH];
 949:Generated_Source\PSoC6\pdl\drivers\peripheral\smif/cy_smif_memslot.c ****     uint8_t sfdpAddress[CY_SMIF_SFDP_ADDRESS_LENGTH] = {0x00U, 0x00U, 0x00U};
 1463              		.loc 1 949 0 is_stmt 1
 1464 002e 0BAB     		add	r3, sp, #44
 1465 0030 0024     		movs	r4, #0
 1466 0032 1C70     		strb	r4, [r3]
 1467 0034 5C70     		strb	r4, [r3, #1]
 1468 0036 9C70     		strb	r4, [r3, #2]
 950:Generated_Source\PSoC6\pdl\drivers\peripheral\smif/cy_smif_memslot.c ****     cy_en_smif_status_t result;
 951:Generated_Source\PSoC6\pdl\drivers\peripheral\smif/cy_smif_memslot.c ****     cy_stc_smif_mem_cmd_t *cmdSfdp = device->readSfdpCmd;
 1469              		.loc 1 951 0
 1470 0038 6F6B     		ldr	r7, [r5, #52]
 1471              	.LVL175:
 952:Generated_Source\PSoC6\pdl\drivers\peripheral\smif/cy_smif_memslot.c **** 
 953:Generated_Source\PSoC6\pdl\drivers\peripheral\smif/cy_smif_memslot.c ****     /* Slave slot initialization */
 954:Generated_Source\PSoC6\pdl\drivers\peripheral\smif/cy_smif_memslot.c ****     Cy_SMIF_SetDataSelect(base, slaveSelect, dataSelect);
 1472              		.loc 1 954 0
 1473 003a 099A     		ldr	r2, [sp, #36]
 1474 003c 0899     		ldr	r1, [sp, #32]
 1475 003e 0798     		ldr	r0, [sp, #28]
 1476 0040 FFF7FEFF 		bl	Cy_SMIF_SetDataSelect
 1477              	.LVL176:
 955:Generated_Source\PSoC6\pdl\drivers\peripheral\smif/cy_smif_memslot.c **** 
 956:Generated_Source\PSoC6\pdl\drivers\peripheral\smif/cy_smif_memslot.c ****     result = Cy_SMIF_TransmitCommand( base, (uint8_t)cmdSfdp->command,
 1478              		.loc 1 956 0
 1479 0044 3978     		ldrb	r1, [r7]
 1480 0046 3A79     		ldrb	r2, [r7, #4]
 1481 0048 7B79     		ldrb	r3, [r7, #5]
 1482 004a 0496     		str	r6, [sp, #16]
 1483 004c 0394     		str	r4, [sp, #12]
 1484 004e 089C     		ldr	r4, [sp, #32]
 1485 0050 0294     		str	r4, [sp, #8]
ARM GAS  C:\Users\ikomb\AppData\Local\Temp\cc5YtlHT.s 			page 45


 1486 0052 0193     		str	r3, [sp, #4]
 1487 0054 0323     		movs	r3, #3
 1488 0056 0093     		str	r3, [sp]
 1489 0058 0BAB     		add	r3, sp, #44
 1490 005a 0798     		ldr	r0, [sp, #28]
 1491 005c FFF7FEFF 		bl	Cy_SMIF_TransmitCommand
 1492              	.LVL177:
 1493 0060 041E     		subs	r4, r0, #0
 1494              	.LVL178:
 957:Generated_Source\PSoC6\pdl\drivers\peripheral\smif/cy_smif_memslot.c ****                 cmdSfdp->cmdWidth, sfdpAddress, CY_SMIF_SFDP_ADDRESS_LENGTH,
 958:Generated_Source\PSoC6\pdl\drivers\peripheral\smif/cy_smif_memslot.c ****                 cmdSfdp->addrWidth, slaveSelect, CY_SMIF_TX_NOT_LAST_BYTE,
 959:Generated_Source\PSoC6\pdl\drivers\peripheral\smif/cy_smif_memslot.c ****                 context);
 960:Generated_Source\PSoC6\pdl\drivers\peripheral\smif/cy_smif_memslot.c ****     if(CY_SMIF_SUCCESS == result)
 1495              		.loc 1 960 0
 1496 0062 04D1     		bne	.L81
 961:Generated_Source\PSoC6\pdl\drivers\peripheral\smif/cy_smif_memslot.c ****     {
 962:Generated_Source\PSoC6\pdl\drivers\peripheral\smif/cy_smif_memslot.c ****         result = Cy_SMIF_SendDummyCycles(base, cmdSfdp->dummyCycles);
 1497              		.loc 1 962 0
 1498 0064 3969     		ldr	r1, [r7, #16]
 1499 0066 0798     		ldr	r0, [sp, #28]
 1500              	.LVL179:
 1501 0068 FFF7FEFF 		bl	Cy_SMIF_SendDummyCycles
 1502              	.LVL180:
 1503 006c 0400     		movs	r4, r0
 1504              	.LVL181:
 1505              	.L81:
 963:Generated_Source\PSoC6\pdl\drivers\peripheral\smif/cy_smif_memslot.c ****     }
 964:Generated_Source\PSoC6\pdl\drivers\peripheral\smif/cy_smif_memslot.c **** 
 965:Generated_Source\PSoC6\pdl\drivers\peripheral\smif/cy_smif_memslot.c ****     if(CY_SMIF_SUCCESS == result)
 1506              		.loc 1 965 0
 1507 006e 002C     		cmp	r4, #0
 1508 0070 09D1     		bne	.L82
 966:Generated_Source\PSoC6\pdl\drivers\peripheral\smif/cy_smif_memslot.c ****     {
 967:Generated_Source\PSoC6\pdl\drivers\peripheral\smif/cy_smif_memslot.c ****         result = Cy_SMIF_ReceiveData( base, sfdpBuffer, CY_SMIF_SFDP_LENGTH,
 1509              		.loc 1 967 0
 1510 0072 3B7D     		ldrb	r3, [r7, #20]
 1511 0074 0196     		str	r6, [sp, #4]
 1512 0076 0022     		movs	r2, #0
 1513 0078 0092     		str	r2, [sp]
 1514 007a FF32     		adds	r2, r2, #255
 1515 007c 0CA9     		add	r1, sp, #48
 1516 007e 0798     		ldr	r0, [sp, #28]
 1517              	.LVL182:
 1518 0080 FFF7FEFF 		bl	Cy_SMIF_ReceiveData
 1519              	.LVL183:
 1520 0084 0400     		movs	r4, r0
 1521              	.LVL184:
 1522              	.L82:
 968:Generated_Source\PSoC6\pdl\drivers\peripheral\smif/cy_smif_memslot.c ****                     cmdSfdp->dataWidth, NULL, context);
 969:Generated_Source\PSoC6\pdl\drivers\peripheral\smif/cy_smif_memslot.c ****     }
 970:Generated_Source\PSoC6\pdl\drivers\peripheral\smif/cy_smif_memslot.c **** 
 971:Generated_Source\PSoC6\pdl\drivers\peripheral\smif/cy_smif_memslot.c ****     if (CY_SMIF_SUCCESS == result)
 1523              		.loc 1 971 0
 1524 0086 002C     		cmp	r4, #0
 1525 0088 18D1     		bne	.L83
 1526              	.LBB15:
 972:Generated_Source\PSoC6\pdl\drivers\peripheral\smif/cy_smif_memslot.c ****     {
ARM GAS  C:\Users\ikomb\AppData\Local\Temp\cc5YtlHT.s 			page 46


 973:Generated_Source\PSoC6\pdl\drivers\peripheral\smif/cy_smif_memslot.c ****         uint32_t cmdTimeout = context->timeout;
 1527              		.loc 1 973 0
 1528 008a 776A     		ldr	r7, [r6, #36]
 1529              	.LVL185:
 974:Generated_Source\PSoC6\pdl\drivers\peripheral\smif/cy_smif_memslot.c ****         while (((uint32_t) CY_SMIF_REC_CMPLT != context->transferStatus) &&
 1530              		.loc 1 974 0
 1531 008c 2300     		movs	r3, r4
 1532 008e 0CE0     		b	.L84
 1533              	.LVL186:
 1534              	.L86:
 1535              	.LBB16:
 1536              	.LBB17:
 1537              		.file 2 "Generated_Source\\PSoC6\\pdl\\drivers\\peripheral\\smif\\cy_smif.h"
   1:Generated_Source\PSoC6\pdl\drivers\peripheral\smif/cy_smif.h **** /***************************************************************************//**
   2:Generated_Source\PSoC6\pdl\drivers\peripheral\smif/cy_smif.h **** * \file cy_smif.h
   3:Generated_Source\PSoC6\pdl\drivers\peripheral\smif/cy_smif.h **** * \version 1.10.1
   4:Generated_Source\PSoC6\pdl\drivers\peripheral\smif/cy_smif.h **** *
   5:Generated_Source\PSoC6\pdl\drivers\peripheral\smif/cy_smif.h **** * Provides an API declaration of the Cypress SMIF driver.
   6:Generated_Source\PSoC6\pdl\drivers\peripheral\smif/cy_smif.h **** *
   7:Generated_Source\PSoC6\pdl\drivers\peripheral\smif/cy_smif.h **** ********************************************************************************
   8:Generated_Source\PSoC6\pdl\drivers\peripheral\smif/cy_smif.h **** * \copyright
   9:Generated_Source\PSoC6\pdl\drivers\peripheral\smif/cy_smif.h **** * Copyright 2016-2018, Cypress Semiconductor Corporation.  All rights reserved.
  10:Generated_Source\PSoC6\pdl\drivers\peripheral\smif/cy_smif.h **** * You may use this file only in accordance with the license, terms, conditions,
  11:Generated_Source\PSoC6\pdl\drivers\peripheral\smif/cy_smif.h **** * disclaimers, and limitations in the end user license agreement accompanying
  12:Generated_Source\PSoC6\pdl\drivers\peripheral\smif/cy_smif.h **** * the software package with which this file was provided.
  13:Generated_Source\PSoC6\pdl\drivers\peripheral\smif/cy_smif.h **** *******************************************************************************/
  14:Generated_Source\PSoC6\pdl\drivers\peripheral\smif/cy_smif.h **** 
  15:Generated_Source\PSoC6\pdl\drivers\peripheral\smif/cy_smif.h **** /**
  16:Generated_Source\PSoC6\pdl\drivers\peripheral\smif/cy_smif.h **** * \defgroup group_smif Serial Memory Interface (SMIF)
  17:Generated_Source\PSoC6\pdl\drivers\peripheral\smif/cy_smif.h **** * \{
  18:Generated_Source\PSoC6\pdl\drivers\peripheral\smif/cy_smif.h **** * The SPI-based communication interface for external memory devices.
  19:Generated_Source\PSoC6\pdl\drivers\peripheral\smif/cy_smif.h **** *
  20:Generated_Source\PSoC6\pdl\drivers\peripheral\smif/cy_smif.h **** * SMIF: Serial Memory Interface: This IP block implements an SPI-based
  21:Generated_Source\PSoC6\pdl\drivers\peripheral\smif/cy_smif.h **** * communication interface for interfacing external memory devices to PSoC. The SMIF
  22:Generated_Source\PSoC6\pdl\drivers\peripheral\smif/cy_smif.h **** * supports Octal-SPI, Dual Quad-SPI, Quad-SPI, DSPI, and SPI.
  23:Generated_Source\PSoC6\pdl\drivers\peripheral\smif/cy_smif.h **** *
  24:Generated_Source\PSoC6\pdl\drivers\peripheral\smif/cy_smif.h **** * Features
  25:Generated_Source\PSoC6\pdl\drivers\peripheral\smif/cy_smif.h **** *   - Standard SPI Master interface
  26:Generated_Source\PSoC6\pdl\drivers\peripheral\smif/cy_smif.h **** *   - Supports Single/Dual/Quad/Octal SPI Memories
  27:Generated_Source\PSoC6\pdl\drivers\peripheral\smif/cy_smif.h **** *   - Supports Dual-Quad SPI mode
  28:Generated_Source\PSoC6\pdl\drivers\peripheral\smif/cy_smif.h **** *   - Design-time configurable support for multiple (up to 4) external serial
  29:Generated_Source\PSoC6\pdl\drivers\peripheral\smif/cy_smif.h **** *   memory devices
  30:Generated_Source\PSoC6\pdl\drivers\peripheral\smif/cy_smif.h **** *   - eXecute-In-Place (XIP) operation mode for both read and write accesses
  31:Generated_Source\PSoC6\pdl\drivers\peripheral\smif/cy_smif.h **** *   with 4KB XIP read cache and on-the-fly encryption and decryption
  32:Generated_Source\PSoC6\pdl\drivers\peripheral\smif/cy_smif.h **** *   - Supports external serial memory initialization via Serial Flash
  33:Generated_Source\PSoC6\pdl\drivers\peripheral\smif/cy_smif.h **** *   Discoverable Parameters (SFDP) standard
  34:Generated_Source\PSoC6\pdl\drivers\peripheral\smif/cy_smif.h **** *   - Support for SPI clock frequencies up to 80 MHz
  35:Generated_Source\PSoC6\pdl\drivers\peripheral\smif/cy_smif.h **** *
  36:Generated_Source\PSoC6\pdl\drivers\peripheral\smif/cy_smif.h **** *
  37:Generated_Source\PSoC6\pdl\drivers\peripheral\smif/cy_smif.h **** * The primary usage model for the SMIF is that of an external memory interface.
  38:Generated_Source\PSoC6\pdl\drivers\peripheral\smif/cy_smif.h **** * The SMIF is capable of interfacing with different types of memory, up to four
  39:Generated_Source\PSoC6\pdl\drivers\peripheral\smif/cy_smif.h **** * types.
  40:Generated_Source\PSoC6\pdl\drivers\peripheral\smif/cy_smif.h **** *
  41:Generated_Source\PSoC6\pdl\drivers\peripheral\smif/cy_smif.h **** * \b SMIF driver is divided in next layers
  42:Generated_Source\PSoC6\pdl\drivers\peripheral\smif/cy_smif.h **** *   - cy_smif.h API
  43:Generated_Source\PSoC6\pdl\drivers\peripheral\smif/cy_smif.h **** *   - cy_smif_memslot.h API
  44:Generated_Source\PSoC6\pdl\drivers\peripheral\smif/cy_smif.h **** *   - SMIF configuration structures
ARM GAS  C:\Users\ikomb\AppData\Local\Temp\cc5YtlHT.s 			page 47


  45:Generated_Source\PSoC6\pdl\drivers\peripheral\smif/cy_smif.h **** *
  46:Generated_Source\PSoC6\pdl\drivers\peripheral\smif/cy_smif.h **** * The SMIF API is divided into the low-level functions and memory-slot functions. Use
  47:Generated_Source\PSoC6\pdl\drivers\peripheral\smif/cy_smif.h **** * the low level API for the SMIF block initialization and for implementing a generic 
  48:Generated_Source\PSoC6\pdl\drivers\peripheral\smif/cy_smif.h **** * SPI communication interface using the SMIF block.
  49:Generated_Source\PSoC6\pdl\drivers\peripheral\smif/cy_smif.h **** *
  50:Generated_Source\PSoC6\pdl\drivers\peripheral\smif/cy_smif.h **** * The memory slot API has functions to implement the basic memory operations such as 
  51:Generated_Source\PSoC6\pdl\drivers\peripheral\smif/cy_smif.h **** * program, read, erase etc. These functions are implemented using the memory 
  52:Generated_Source\PSoC6\pdl\drivers\peripheral\smif/cy_smif.h **** * parameters in the memory device configuration data structure. The memory-slot
  53:Generated_Source\PSoC6\pdl\drivers\peripheral\smif/cy_smif.h **** * initialization API initializes all the memory slots based on the settings in the
  54:Generated_Source\PSoC6\pdl\drivers\peripheral\smif/cy_smif.h **** * array.
  55:Generated_Source\PSoC6\pdl\drivers\peripheral\smif/cy_smif.h **** *
  56:Generated_Source\PSoC6\pdl\drivers\peripheral\smif/cy_smif.h **** * \image html smif_1_0_p01_layers.png
  57:Generated_Source\PSoC6\pdl\drivers\peripheral\smif/cy_smif.h **** *
  58:Generated_Source\PSoC6\pdl\drivers\peripheral\smif/cy_smif.h **** * SMIF Configuration Tool is a stand-alone application, which is a part of PDL
  59:Generated_Source\PSoC6\pdl\drivers\peripheral\smif/cy_smif.h **** * and could be found in \<PDL_DIR\>/tools/\<OS_DIR\>/SMIFConfigurationTool
  60:Generated_Source\PSoC6\pdl\drivers\peripheral\smif/cy_smif.h **** * (e.g. for PDL 3.0.0 and Windows OS PDL/3.0.0/tools/win/SMIFConfigurationTool). Tool
  61:Generated_Source\PSoC6\pdl\drivers\peripheral\smif/cy_smif.h **** * generates *.c and *.h file with configuration structures. These configuration
  62:Generated_Source\PSoC6\pdl\drivers\peripheral\smif/cy_smif.h **** * structures are input parameters for cy_smif_memslot API level
  63:Generated_Source\PSoC6\pdl\drivers\peripheral\smif/cy_smif.h **** *
  64:Generated_Source\PSoC6\pdl\drivers\peripheral\smif/cy_smif.h **** * \warning The driver is not responsible for external memory persistence. You cannot edit
  65:Generated_Source\PSoC6\pdl\drivers\peripheral\smif/cy_smif.h **** * a buffer during the Read/Write operations. If there is a memory error, the SMIF ip block 
  66:Generated_Source\PSoC6\pdl\drivers\peripheral\smif/cy_smif.h **** * can require a reset. To determine if this has happened, check the SMIF 
  67:Generated_Source\PSoC6\pdl\drivers\peripheral\smif/cy_smif.h **** * busy status using Cy_SMIF_BusyCheck() and implement a timeout. Reset the SMIF 
  68:Generated_Source\PSoC6\pdl\drivers\peripheral\smif/cy_smif.h **** * block by toggling CTL.ENABLED. Then reconfigure the SMIF block.
  69:Generated_Source\PSoC6\pdl\drivers\peripheral\smif/cy_smif.h **** *
  70:Generated_Source\PSoC6\pdl\drivers\peripheral\smif/cy_smif.h **** * For the Write operation, check that the SMIF driver has completed 
  71:Generated_Source\PSoC6\pdl\drivers\peripheral\smif/cy_smif.h **** * transferring by calling Cy_SMIF_BusyCheck(). Also, check that the memory is 
  72:Generated_Source\PSoC6\pdl\drivers\peripheral\smif/cy_smif.h **** * available with Cy_SMIF_Memslot_IsBusy() before proceeding. 
  73:Generated_Source\PSoC6\pdl\drivers\peripheral\smif/cy_smif.h **** *
  74:Generated_Source\PSoC6\pdl\drivers\peripheral\smif/cy_smif.h **** * Simple example of external flash memory programming using low level SMIF API.
  75:Generated_Source\PSoC6\pdl\drivers\peripheral\smif/cy_smif.h **** * All steps mentioned in example below are incorporated in
  76:Generated_Source\PSoC6\pdl\drivers\peripheral\smif/cy_smif.h **** * \ref Cy_SMIF_Memslot_CmdWriteEnable(), \ref Cy_SMIF_Memslot_CmdProgram(), and
  77:Generated_Source\PSoC6\pdl\drivers\peripheral\smif/cy_smif.h **** * \ref Cy_SMIF_Memslot_IsBusy() of the
  78:Generated_Source\PSoC6\pdl\drivers\peripheral\smif/cy_smif.h **** * \ref group_smif_mem_slot_functions "memory slot level API".
  79:Generated_Source\PSoC6\pdl\drivers\peripheral\smif/cy_smif.h **** * \warning Example is simplified, without checks of error conditions.
  80:Generated_Source\PSoC6\pdl\drivers\peripheral\smif/cy_smif.h **** * \note Flash memories need erase operation before programming. Refer to
  81:Generated_Source\PSoC6\pdl\drivers\peripheral\smif/cy_smif.h **** * external memory datasheet for specific memory commands.
  82:Generated_Source\PSoC6\pdl\drivers\peripheral\smif/cy_smif.h **** *
  83:Generated_Source\PSoC6\pdl\drivers\peripheral\smif/cy_smif.h **** * \snippet smif/smif_sut_01.cydsn/main_cm4.c SMIF_API: Write example
  84:Generated_Source\PSoC6\pdl\drivers\peripheral\smif/cy_smif.h **** *
  85:Generated_Source\PSoC6\pdl\drivers\peripheral\smif/cy_smif.h **** * For the Read operation, before accessing the read buffer, check that it is ready
  86:Generated_Source\PSoC6\pdl\drivers\peripheral\smif/cy_smif.h **** * by calling Cy_SMIF_GetTxFifoStatus().
  87:Generated_Source\PSoC6\pdl\drivers\peripheral\smif/cy_smif.h **** *
  88:Generated_Source\PSoC6\pdl\drivers\peripheral\smif/cy_smif.h **** * Simple example of external flash memory read using low level SMIF API. All
  89:Generated_Source\PSoC6\pdl\drivers\peripheral\smif/cy_smif.h **** * steps mentioned in example below are incorporated in
  90:Generated_Source\PSoC6\pdl\drivers\peripheral\smif/cy_smif.h **** * \ref Cy_SMIF_Memslot_CmdRead() of the
  91:Generated_Source\PSoC6\pdl\drivers\peripheral\smif/cy_smif.h **** * \ref group_smif_mem_slot_functions "memory slot level API".
  92:Generated_Source\PSoC6\pdl\drivers\peripheral\smif/cy_smif.h **** * \warning Example is simplified, without checks of error conditions.
  93:Generated_Source\PSoC6\pdl\drivers\peripheral\smif/cy_smif.h **** * \note Refer to external memory datasheet for specific memory commands.
  94:Generated_Source\PSoC6\pdl\drivers\peripheral\smif/cy_smif.h **** *
  95:Generated_Source\PSoC6\pdl\drivers\peripheral\smif/cy_smif.h **** * \snippet smif/smif_sut_01.cydsn/main_cm4.c SMIF_API: Read example
  96:Generated_Source\PSoC6\pdl\drivers\peripheral\smif/cy_smif.h **** *
  97:Generated_Source\PSoC6\pdl\drivers\peripheral\smif/cy_smif.h **** * The user should invalidate the cache by calling Cy_SMIF_CacheInvalidate() when 
  98:Generated_Source\PSoC6\pdl\drivers\peripheral\smif/cy_smif.h **** * switching from the MMIO mode to XIP mode.
  99:Generated_Source\PSoC6\pdl\drivers\peripheral\smif/cy_smif.h **** *
 100:Generated_Source\PSoC6\pdl\drivers\peripheral\smif/cy_smif.h **** * \section group_smif_configuration Configuration Considerations
 101:Generated_Source\PSoC6\pdl\drivers\peripheral\smif/cy_smif.h **** *
ARM GAS  C:\Users\ikomb\AppData\Local\Temp\cc5YtlHT.s 			page 48


 102:Generated_Source\PSoC6\pdl\drivers\peripheral\smif/cy_smif.h **** * PDL API has common parameters: base, context, config described in
 103:Generated_Source\PSoC6\pdl\drivers\peripheral\smif/cy_smif.h **** * \ref page_getting_started_pdl_design "PDL Design" section.
 104:Generated_Source\PSoC6\pdl\drivers\peripheral\smif/cy_smif.h **** *
 105:Generated_Source\PSoC6\pdl\drivers\peripheral\smif/cy_smif.h **** * See the documentation for Cy_SMIF_Init() and Cy_SMIF_Memslot_Init() for details
 106:Generated_Source\PSoC6\pdl\drivers\peripheral\smif/cy_smif.h **** * on the required configuration structures and other initialization topics. 
 107:Generated_Source\PSoC6\pdl\drivers\peripheral\smif/cy_smif.h **** *
 108:Generated_Source\PSoC6\pdl\drivers\peripheral\smif/cy_smif.h **** * The normal (MMIO) mode is used for implementing a generic SPI/DSPI/QSPI/Dual
 109:Generated_Source\PSoC6\pdl\drivers\peripheral\smif/cy_smif.h **** * Quad-SPI/Octal-SPI communication interface using the SMIF block. This
 110:Generated_Source\PSoC6\pdl\drivers\peripheral\smif/cy_smif.h **** * interface can be used to implement special commands like Program/Erase of
 111:Generated_Source\PSoC6\pdl\drivers\peripheral\smif/cy_smif.h **** * flash, memory device configuration, sleep mode entry for memory devices or
 112:Generated_Source\PSoC6\pdl\drivers\peripheral\smif/cy_smif.h **** * other special commands specific to the memory device. The transfer width
 113:Generated_Source\PSoC6\pdl\drivers\peripheral\smif/cy_smif.h **** * (SPI/DSP/Quad-SPI/Octal-SPI) of a transmission is a parameter set for each
 114:Generated_Source\PSoC6\pdl\drivers\peripheral\smif/cy_smif.h **** * transmit/receive operation. So these can be changed at run time.
 115:Generated_Source\PSoC6\pdl\drivers\peripheral\smif/cy_smif.h **** *
 116:Generated_Source\PSoC6\pdl\drivers\peripheral\smif/cy_smif.h **** * In a typical memory interface with flash memory, the SMIF is used in the
 117:Generated_Source\PSoC6\pdl\drivers\peripheral\smif/cy_smif.h **** * memory mode when reading from the memory and it switches to the normal mode when
 118:Generated_Source\PSoC6\pdl\drivers\peripheral\smif/cy_smif.h **** * writing to flash memory.
 119:Generated_Source\PSoC6\pdl\drivers\peripheral\smif/cy_smif.h **** * A typical memory device has multiple types of commands.
 120:Generated_Source\PSoC6\pdl\drivers\peripheral\smif/cy_smif.h **** *
 121:Generated_Source\PSoC6\pdl\drivers\peripheral\smif/cy_smif.h **** * The SMIF interface can be used to transmit different types of commands. Each
 122:Generated_Source\PSoC6\pdl\drivers\peripheral\smif/cy_smif.h **** * command has different phases: command, dummy cycles, and transmit and receive
 123:Generated_Source\PSoC6\pdl\drivers\peripheral\smif/cy_smif.h **** * data which require separate APIs.
 124:Generated_Source\PSoC6\pdl\drivers\peripheral\smif/cy_smif.h **** *
 125:Generated_Source\PSoC6\pdl\drivers\peripheral\smif/cy_smif.h **** * \subsection group_smif_init SMIF Initialization
 126:Generated_Source\PSoC6\pdl\drivers\peripheral\smif/cy_smif.h **** * Create interrupt function and allocate memory for SMIF context
 127:Generated_Source\PSoC6\pdl\drivers\peripheral\smif/cy_smif.h **** * structure
 128:Generated_Source\PSoC6\pdl\drivers\peripheral\smif/cy_smif.h **** * \snippet smif/smif_sut_01.cydsn/main_cm4.c SMIF_INIT: context and interrupt
 129:Generated_Source\PSoC6\pdl\drivers\peripheral\smif/cy_smif.h **** * SMIF driver initialization for low level API usage (cysmif.h)
 130:Generated_Source\PSoC6\pdl\drivers\peripheral\smif/cy_smif.h **** * \snippet smif/smif_sut_01.cydsn/main_cm4.c SMIF_INIT: low level
 131:Generated_Source\PSoC6\pdl\drivers\peripheral\smif/cy_smif.h **** * Additional steps to initialize SMIF driver for memory slot level API usage
 132:Generated_Source\PSoC6\pdl\drivers\peripheral\smif/cy_smif.h **** * (cy_smif_memslot.h).
 133:Generated_Source\PSoC6\pdl\drivers\peripheral\smif/cy_smif.h **** * \snippet smif/smif_sut_01.cydsn/main_cm4.c SMIF_INIT: memslot level
 134:Generated_Source\PSoC6\pdl\drivers\peripheral\smif/cy_smif.h **** * \note Example does not include initialization of all needed configuration
 135:Generated_Source\PSoC6\pdl\drivers\peripheral\smif/cy_smif.h **** * structures (\ref cy_stc_smif_mem_device_cfg_t, \ref cy_stc_smif_mem_cmd_t).
 136:Generated_Source\PSoC6\pdl\drivers\peripheral\smif/cy_smif.h **** * SMIF Configuration tool generates all configuration structures needed for
 137:Generated_Source\PSoC6\pdl\drivers\peripheral\smif/cy_smif.h **** * memslot level API usage.
 138:Generated_Source\PSoC6\pdl\drivers\peripheral\smif/cy_smif.h **** *
 139:Generated_Source\PSoC6\pdl\drivers\peripheral\smif/cy_smif.h **** * \subsection group_smif_xip_init SMIF XIP Initialization
 140:Generated_Source\PSoC6\pdl\drivers\peripheral\smif/cy_smif.h **** * The eXecute In Place (XIP) is a mode of operation where read or write commands 
 141:Generated_Source\PSoC6\pdl\drivers\peripheral\smif/cy_smif.h **** * to the memory device are directed through the SMIF without any use of API 
 142:Generated_Source\PSoC6\pdl\drivers\peripheral\smif/cy_smif.h **** * function calls. In this mode the SMIF block maps the AHB bus-accesses to 
 143:Generated_Source\PSoC6\pdl\drivers\peripheral\smif/cy_smif.h **** * external memory device addresses to make it behave similar to internal memory. 
 144:Generated_Source\PSoC6\pdl\drivers\peripheral\smif/cy_smif.h **** * This allows the CPU to execute code directly from external memory. This mode 
 145:Generated_Source\PSoC6\pdl\drivers\peripheral\smif/cy_smif.h **** * is not limited to code and is suitable also for data read and write accesses. 
 146:Generated_Source\PSoC6\pdl\drivers\peripheral\smif/cy_smif.h **** * \snippet smif/smif_sut_01.cydsn/main_cm4.c SMIF_INIT: XIP
 147:Generated_Source\PSoC6\pdl\drivers\peripheral\smif/cy_smif.h **** * \note Example of input parameters initialization is in \ref group_smif_init 
 148:Generated_Source\PSoC6\pdl\drivers\peripheral\smif/cy_smif.h **** * section.
 149:Generated_Source\PSoC6\pdl\drivers\peripheral\smif/cy_smif.h **** * \warning Functions that called from external memory should be declared with 
 150:Generated_Source\PSoC6\pdl\drivers\peripheral\smif/cy_smif.h **** * long call attribute.     
 151:Generated_Source\PSoC6\pdl\drivers\peripheral\smif/cy_smif.h **** *
 152:Generated_Source\PSoC6\pdl\drivers\peripheral\smif/cy_smif.h **** * \section group_smif_more_information More Information
 153:Generated_Source\PSoC6\pdl\drivers\peripheral\smif/cy_smif.h **** *
 154:Generated_Source\PSoC6\pdl\drivers\peripheral\smif/cy_smif.h **** * More information regarding the Serial Memory Interface can be found in the component 
 155:Generated_Source\PSoC6\pdl\drivers\peripheral\smif/cy_smif.h **** * datasheet and the Technical Reference Manual (TRM).
 156:Generated_Source\PSoC6\pdl\drivers\peripheral\smif/cy_smif.h **** * More information regarding the SMIF Configuration Tool are in SMIF
 157:Generated_Source\PSoC6\pdl\drivers\peripheral\smif/cy_smif.h **** * Configuration Tool User Guide located in \<PDL_DIR\>/tools/\<OS_DIR\>/SMIFConfigurationTool/
 158:Generated_Source\PSoC6\pdl\drivers\peripheral\smif/cy_smif.h **** * folder
ARM GAS  C:\Users\ikomb\AppData\Local\Temp\cc5YtlHT.s 			page 49


 159:Generated_Source\PSoC6\pdl\drivers\peripheral\smif/cy_smif.h **** *
 160:Generated_Source\PSoC6\pdl\drivers\peripheral\smif/cy_smif.h **** * \section group_smif_MISRA MISRA-C Compliance]
 161:Generated_Source\PSoC6\pdl\drivers\peripheral\smif/cy_smif.h **** * <table class="doxtable">
 162:Generated_Source\PSoC6\pdl\drivers\peripheral\smif/cy_smif.h **** *   <tr>
 163:Generated_Source\PSoC6\pdl\drivers\peripheral\smif/cy_smif.h **** *     <th>MISRA rule</th>
 164:Generated_Source\PSoC6\pdl\drivers\peripheral\smif/cy_smif.h **** *     <th>Rule Class (Required/Advisory)</th>
 165:Generated_Source\PSoC6\pdl\drivers\peripheral\smif/cy_smif.h **** *     <th>Rule Description</th>
 166:Generated_Source\PSoC6\pdl\drivers\peripheral\smif/cy_smif.h **** *     <th>Description of Deviation(s)</th>
 167:Generated_Source\PSoC6\pdl\drivers\peripheral\smif/cy_smif.h **** *   </tr>
 168:Generated_Source\PSoC6\pdl\drivers\peripheral\smif/cy_smif.h **** *   <tr>
 169:Generated_Source\PSoC6\pdl\drivers\peripheral\smif/cy_smif.h **** *     <td>11.4</td>
 170:Generated_Source\PSoC6\pdl\drivers\peripheral\smif/cy_smif.h **** *     <td>A</td>
 171:Generated_Source\PSoC6\pdl\drivers\peripheral\smif/cy_smif.h **** *     <td>The cast is be performed between a pointer to the object type and a different pointer to 
 172:Generated_Source\PSoC6\pdl\drivers\peripheral\smif/cy_smif.h **** *     <td>The cast from the pointer to void to the pointer to an unsigned integer does not have any
 173:Generated_Source\PSoC6\pdl\drivers\peripheral\smif/cy_smif.h **** *         it is a consequence of the definition of a structure based on hardware registers.</td>
 174:Generated_Source\PSoC6\pdl\drivers\peripheral\smif/cy_smif.h **** *   </tr>
 175:Generated_Source\PSoC6\pdl\drivers\peripheral\smif/cy_smif.h **** *   <tr>
 176:Generated_Source\PSoC6\pdl\drivers\peripheral\smif/cy_smif.h **** *     <td>11.5</td>
 177:Generated_Source\PSoC6\pdl\drivers\peripheral\smif/cy_smif.h **** *     <td>R</td>
 178:Generated_Source\PSoC6\pdl\drivers\peripheral\smif/cy_smif.h **** *     <td>Not performed, the cast that removes any const or volatile qualification from the type ad
 179:Generated_Source\PSoC6\pdl\drivers\peripheral\smif/cy_smif.h **** *     <td>The removal of the volatile qualification inside the function has no side effects.</td>
 180:Generated_Source\PSoC6\pdl\drivers\peripheral\smif/cy_smif.h **** *   </tr>
 181:Generated_Source\PSoC6\pdl\drivers\peripheral\smif/cy_smif.h **** *   <tr>
 182:Generated_Source\PSoC6\pdl\drivers\peripheral\smif/cy_smif.h **** *     <td>14.2</td>
 183:Generated_Source\PSoC6\pdl\drivers\peripheral\smif/cy_smif.h **** *     <td>R</td>
 184:Generated_Source\PSoC6\pdl\drivers\peripheral\smif/cy_smif.h **** *     <td>All non-null statements will either:
 185:Generated_Source\PSoC6\pdl\drivers\peripheral\smif/cy_smif.h **** *       a) have at least one-side effect however executed, or
 186:Generated_Source\PSoC6\pdl\drivers\peripheral\smif/cy_smif.h **** *       b) cause control flow to change</td>
 187:Generated_Source\PSoC6\pdl\drivers\peripheral\smif/cy_smif.h **** *     <td>The readback of the register is required by the hardware.</td>
 188:Generated_Source\PSoC6\pdl\drivers\peripheral\smif/cy_smif.h **** *   </tr>
 189:Generated_Source\PSoC6\pdl\drivers\peripheral\smif/cy_smif.h **** * </table>
 190:Generated_Source\PSoC6\pdl\drivers\peripheral\smif/cy_smif.h **** *
 191:Generated_Source\PSoC6\pdl\drivers\peripheral\smif/cy_smif.h **** * \section group_smif_changelog Changelog
 192:Generated_Source\PSoC6\pdl\drivers\peripheral\smif/cy_smif.h **** * <table class="doxtable">
 193:Generated_Source\PSoC6\pdl\drivers\peripheral\smif/cy_smif.h **** *   <tr><th>Version</th><th>Changes</th><th>Reason for Change</th></tr>
 194:Generated_Source\PSoC6\pdl\drivers\peripheral\smif/cy_smif.h **** *   <tr>
 195:Generated_Source\PSoC6\pdl\drivers\peripheral\smif/cy_smif.h **** *     <td>1.10.1</td>
 196:Generated_Source\PSoC6\pdl\drivers\peripheral\smif/cy_smif.h **** *     <td>Added Low Power Callback section</td>
 197:Generated_Source\PSoC6\pdl\drivers\peripheral\smif/cy_smif.h **** *     <td>Documentation update and clarification</td>
 198:Generated_Source\PSoC6\pdl\drivers\peripheral\smif/cy_smif.h **** *   </tr>
 199:Generated_Source\PSoC6\pdl\drivers\peripheral\smif/cy_smif.h **** *   <tr>
 200:Generated_Source\PSoC6\pdl\drivers\peripheral\smif/cy_smif.h **** *     <td>1.10</td>
 201:Generated_Source\PSoC6\pdl\drivers\peripheral\smif/cy_smif.h **** *     <td>Fix write to external memory from CM0+ core. Add checks of API input parameters. 
 202:Generated_Source\PSoC6\pdl\drivers\peripheral\smif/cy_smif.h **** *         Minor documentation updates</td>
 203:Generated_Source\PSoC6\pdl\drivers\peripheral\smif/cy_smif.h **** *     <td></td>
 204:Generated_Source\PSoC6\pdl\drivers\peripheral\smif/cy_smif.h **** *   </tr>
 205:Generated_Source\PSoC6\pdl\drivers\peripheral\smif/cy_smif.h **** *   <tr>
 206:Generated_Source\PSoC6\pdl\drivers\peripheral\smif/cy_smif.h **** *     <td>1.0</td>
 207:Generated_Source\PSoC6\pdl\drivers\peripheral\smif/cy_smif.h **** *     <td>Initial version</td>
 208:Generated_Source\PSoC6\pdl\drivers\peripheral\smif/cy_smif.h **** *     <td></td>
 209:Generated_Source\PSoC6\pdl\drivers\peripheral\smif/cy_smif.h **** *   </tr>
 210:Generated_Source\PSoC6\pdl\drivers\peripheral\smif/cy_smif.h **** * </table>
 211:Generated_Source\PSoC6\pdl\drivers\peripheral\smif/cy_smif.h **** *
 212:Generated_Source\PSoC6\pdl\drivers\peripheral\smif/cy_smif.h **** * \defgroup group_smif_macros Macros
 213:Generated_Source\PSoC6\pdl\drivers\peripheral\smif/cy_smif.h **** * \{
 214:Generated_Source\PSoC6\pdl\drivers\peripheral\smif/cy_smif.h **** * \defgroup group_smif_macros_status Status Macros
 215:Generated_Source\PSoC6\pdl\drivers\peripheral\smif/cy_smif.h **** * \defgroup group_smif_macros_cmd Command Macros
ARM GAS  C:\Users\ikomb\AppData\Local\Temp\cc5YtlHT.s 			page 50


 216:Generated_Source\PSoC6\pdl\drivers\peripheral\smif/cy_smif.h **** * \defgroup group_smif_macros_flags External Memory Flags
 217:Generated_Source\PSoC6\pdl\drivers\peripheral\smif/cy_smif.h **** * \defgroup group_smif_macros_sfdp SFDP Macros
 218:Generated_Source\PSoC6\pdl\drivers\peripheral\smif/cy_smif.h **** * \defgroup group_smif_macros_isr Interrupt Macros
 219:Generated_Source\PSoC6\pdl\drivers\peripheral\smif/cy_smif.h **** * \}
 220:Generated_Source\PSoC6\pdl\drivers\peripheral\smif/cy_smif.h **** * \defgroup group_smif_functions Functions
 221:Generated_Source\PSoC6\pdl\drivers\peripheral\smif/cy_smif.h **** * \{
 222:Generated_Source\PSoC6\pdl\drivers\peripheral\smif/cy_smif.h **** * \defgroup group_smif_low_level_functions Low Level Functions
 223:Generated_Source\PSoC6\pdl\drivers\peripheral\smif/cy_smif.h **** * \{
 224:Generated_Source\PSoC6\pdl\drivers\peripheral\smif/cy_smif.h **** * Basic flow for read/write commands using \ref Cy_SMIF_TransmitCommand
 225:Generated_Source\PSoC6\pdl\drivers\peripheral\smif/cy_smif.h **** * \ref Cy_SMIF_TransmitData \ref Cy_SMIF_ReceiveData
 226:Generated_Source\PSoC6\pdl\drivers\peripheral\smif/cy_smif.h **** * \ref Cy_SMIF_SendDummyCycles
 227:Generated_Source\PSoC6\pdl\drivers\peripheral\smif/cy_smif.h **** *
 228:Generated_Source\PSoC6\pdl\drivers\peripheral\smif/cy_smif.h **** *  \image html smif_1_0_p03_rw_cmd.png
 229:Generated_Source\PSoC6\pdl\drivers\peripheral\smif/cy_smif.h **** *
 230:Generated_Source\PSoC6\pdl\drivers\peripheral\smif/cy_smif.h **** * \}
 231:Generated_Source\PSoC6\pdl\drivers\peripheral\smif/cy_smif.h **** * \defgroup group_smif_mem_slot_functions Memory Slot Functions
 232:Generated_Source\PSoC6\pdl\drivers\peripheral\smif/cy_smif.h **** * \defgroup group_smif_functions_syspm_callback  Low Power Callback
 233:Generated_Source\PSoC6\pdl\drivers\peripheral\smif/cy_smif.h **** * \}
 234:Generated_Source\PSoC6\pdl\drivers\peripheral\smif/cy_smif.h **** * \defgroup group_smif_data_structures Data Structures
 235:Generated_Source\PSoC6\pdl\drivers\peripheral\smif/cy_smif.h **** * \{
 236:Generated_Source\PSoC6\pdl\drivers\peripheral\smif/cy_smif.h **** * \defgroup group_smif_data_structures_memslot SMIF Memory Description Structures
 237:Generated_Source\PSoC6\pdl\drivers\peripheral\smif/cy_smif.h **** * General hierarchy of memory structures are:
 238:Generated_Source\PSoC6\pdl\drivers\peripheral\smif/cy_smif.h **** * \image html smif_1_0_p02_memslot_stc.png
 239:Generated_Source\PSoC6\pdl\drivers\peripheral\smif/cy_smif.h **** * Top structure is \ref cy_stc_smif_block_config_t, which could have links up to
 240:Generated_Source\PSoC6\pdl\drivers\peripheral\smif/cy_smif.h **** * 4 \ref cy_stc_smif_mem_config_t which describes each connected to the SMIF
 241:Generated_Source\PSoC6\pdl\drivers\peripheral\smif/cy_smif.h **** * external memory.
 242:Generated_Source\PSoC6\pdl\drivers\peripheral\smif/cy_smif.h **** * \}
 243:Generated_Source\PSoC6\pdl\drivers\peripheral\smif/cy_smif.h **** * \defgroup group_smif_enums Enumerated Types
 244:Generated_Source\PSoC6\pdl\drivers\peripheral\smif/cy_smif.h **** */
 245:Generated_Source\PSoC6\pdl\drivers\peripheral\smif/cy_smif.h **** 
 246:Generated_Source\PSoC6\pdl\drivers\peripheral\smif/cy_smif.h **** #if !defined(CY_SMIF_H)
 247:Generated_Source\PSoC6\pdl\drivers\peripheral\smif/cy_smif.h **** #define CY_SMIF_H
 248:Generated_Source\PSoC6\pdl\drivers\peripheral\smif/cy_smif.h **** 
 249:Generated_Source\PSoC6\pdl\drivers\peripheral\smif/cy_smif.h **** #include <stdint.h>
 250:Generated_Source\PSoC6\pdl\drivers\peripheral\smif/cy_smif.h **** #include <stdbool.h>
 251:Generated_Source\PSoC6\pdl\drivers\peripheral\smif/cy_smif.h **** #include <stddef.h>
 252:Generated_Source\PSoC6\pdl\drivers\peripheral\smif/cy_smif.h **** #include "syslib/cy_syslib.h"
 253:Generated_Source\PSoC6\pdl\drivers\peripheral\smif/cy_smif.h **** #include "syspm/cy_syspm.h"
 254:Generated_Source\PSoC6\pdl\drivers\peripheral\smif/cy_smif.h **** #include "cy_device_headers.h"
 255:Generated_Source\PSoC6\pdl\drivers\peripheral\smif/cy_smif.h **** 
 256:Generated_Source\PSoC6\pdl\drivers\peripheral\smif/cy_smif.h **** #ifndef CY_IP_MXSMIF
 257:Generated_Source\PSoC6\pdl\drivers\peripheral\smif/cy_smif.h ****     #error "The SMIF driver is not supported on this device"
 258:Generated_Source\PSoC6\pdl\drivers\peripheral\smif/cy_smif.h **** #endif
 259:Generated_Source\PSoC6\pdl\drivers\peripheral\smif/cy_smif.h **** 
 260:Generated_Source\PSoC6\pdl\drivers\peripheral\smif/cy_smif.h **** #if defined(__cplusplus)
 261:Generated_Source\PSoC6\pdl\drivers\peripheral\smif/cy_smif.h **** extern "C" {
 262:Generated_Source\PSoC6\pdl\drivers\peripheral\smif/cy_smif.h **** #endif
 263:Generated_Source\PSoC6\pdl\drivers\peripheral\smif/cy_smif.h **** 
 264:Generated_Source\PSoC6\pdl\drivers\peripheral\smif/cy_smif.h **** /***************************************
 265:Generated_Source\PSoC6\pdl\drivers\peripheral\smif/cy_smif.h **** *            Constants
 266:Generated_Source\PSoC6\pdl\drivers\peripheral\smif/cy_smif.h **** ****************************************/
 267:Generated_Source\PSoC6\pdl\drivers\peripheral\smif/cy_smif.h **** 
 268:Generated_Source\PSoC6\pdl\drivers\peripheral\smif/cy_smif.h **** /**
 269:Generated_Source\PSoC6\pdl\drivers\peripheral\smif/cy_smif.h **** * \addtogroup group_smif_macros
 270:Generated_Source\PSoC6\pdl\drivers\peripheral\smif/cy_smif.h **** * \{
 271:Generated_Source\PSoC6\pdl\drivers\peripheral\smif/cy_smif.h **** */
 272:Generated_Source\PSoC6\pdl\drivers\peripheral\smif/cy_smif.h **** 
ARM GAS  C:\Users\ikomb\AppData\Local\Temp\cc5YtlHT.s 			page 51


 273:Generated_Source\PSoC6\pdl\drivers\peripheral\smif/cy_smif.h **** /** The driver major version */
 274:Generated_Source\PSoC6\pdl\drivers\peripheral\smif/cy_smif.h **** #define CY_SMIF_DRV_VERSION_MAJOR       1
 275:Generated_Source\PSoC6\pdl\drivers\peripheral\smif/cy_smif.h **** 
 276:Generated_Source\PSoC6\pdl\drivers\peripheral\smif/cy_smif.h **** /** The driver minor version */
 277:Generated_Source\PSoC6\pdl\drivers\peripheral\smif/cy_smif.h **** #define CY_SMIF_DRV_VERSION_MINOR       10
 278:Generated_Source\PSoC6\pdl\drivers\peripheral\smif/cy_smif.h **** 
 279:Generated_Source\PSoC6\pdl\drivers\peripheral\smif/cy_smif.h **** /** One microsecond timeout for Cy_SMIF_TimeoutRun() */
 280:Generated_Source\PSoC6\pdl\drivers\peripheral\smif/cy_smif.h **** #define CY_SMIF_WAIT_1_UNIT        (1U)
 281:Generated_Source\PSoC6\pdl\drivers\peripheral\smif/cy_smif.h **** 
 282:Generated_Source\PSoC6\pdl\drivers\peripheral\smif/cy_smif.h **** /** The SMIF driver ID, reported as part of an unsuccessful API return status
 283:Generated_Source\PSoC6\pdl\drivers\peripheral\smif/cy_smif.h ****  * \ref cy_en_smif_status_t */
 284:Generated_Source\PSoC6\pdl\drivers\peripheral\smif/cy_smif.h **** #define CY_SMIF_ID CY_PDL_DRV_ID(0x2CU)
 285:Generated_Source\PSoC6\pdl\drivers\peripheral\smif/cy_smif.h **** 
 286:Generated_Source\PSoC6\pdl\drivers\peripheral\smif/cy_smif.h **** 
 287:Generated_Source\PSoC6\pdl\drivers\peripheral\smif/cy_smif.h **** /**
 288:Generated_Source\PSoC6\pdl\drivers\peripheral\smif/cy_smif.h **** * \addtogroup group_smif_macros_isr
 289:Generated_Source\PSoC6\pdl\drivers\peripheral\smif/cy_smif.h **** * \{
 290:Generated_Source\PSoC6\pdl\drivers\peripheral\smif/cy_smif.h **** */
 291:Generated_Source\PSoC6\pdl\drivers\peripheral\smif/cy_smif.h **** 
 292:Generated_Source\PSoC6\pdl\drivers\peripheral\smif/cy_smif.h **** /** Enable XIP_ALIGNMENT_ERROR interrupt see TRM for details */
 293:Generated_Source\PSoC6\pdl\drivers\peripheral\smif/cy_smif.h **** #define CY_SMIF_ALIGNMENT_ERROR                 (SMIF_INTR_XIP_ALIGNMENT_ERROR_Msk)
 294:Generated_Source\PSoC6\pdl\drivers\peripheral\smif/cy_smif.h **** /** Enable RX_DATA_FIFO_UNDERFLOW interrupt see TRM for details */
 295:Generated_Source\PSoC6\pdl\drivers\peripheral\smif/cy_smif.h **** #define CY_SMIF_RX_DATA_FIFO_UNDERFLOW          (SMIF_INTR_RX_DATA_FIFO_UNDERFLOW_Msk)
 296:Generated_Source\PSoC6\pdl\drivers\peripheral\smif/cy_smif.h **** /** Enable TX_DATA_FIFO_OVERFLOW interrupt see TRM for details */
 297:Generated_Source\PSoC6\pdl\drivers\peripheral\smif/cy_smif.h **** #define CY_SMIF_TX_DATA_FIFO_OVERFLOW           (SMIF_INTR_TX_DATA_FIFO_OVERFLOW_Msk)
 298:Generated_Source\PSoC6\pdl\drivers\peripheral\smif/cy_smif.h **** /** Enable TX_CMD_FIFO_OVERFLOW interrupt see TRM for details */
 299:Generated_Source\PSoC6\pdl\drivers\peripheral\smif/cy_smif.h **** #define CY_SMIF_TX_COMMAND_FIFO_OVERFLOW         (SMIF_INTR_TX_CMD_FIFO_OVERFLOW_Msk)
 300:Generated_Source\PSoC6\pdl\drivers\peripheral\smif/cy_smif.h **** /** Enable TR_TX_REQ interrupt see TRM for details */
 301:Generated_Source\PSoC6\pdl\drivers\peripheral\smif/cy_smif.h **** #define CY_SMIF_TX_DATA_FIFO_LEVEL_TRIGGER      (SMIF_INTR_TR_TX_REQ_Msk)
 302:Generated_Source\PSoC6\pdl\drivers\peripheral\smif/cy_smif.h **** /** Enable TR_RX_REQ interrupt see TRM for details */
 303:Generated_Source\PSoC6\pdl\drivers\peripheral\smif/cy_smif.h **** #define CY_SMIF_RX_DATA_FIFO_LEVEL_TRIGGER      (SMIF_INTR_TR_RX_REQ_Msk)
 304:Generated_Source\PSoC6\pdl\drivers\peripheral\smif/cy_smif.h **** 
 305:Generated_Source\PSoC6\pdl\drivers\peripheral\smif/cy_smif.h **** /** \} group_smif_macros_isr */
 306:Generated_Source\PSoC6\pdl\drivers\peripheral\smif/cy_smif.h **** 
 307:Generated_Source\PSoC6\pdl\drivers\peripheral\smif/cy_smif.h **** /** \cond INTERNAL */
 308:Generated_Source\PSoC6\pdl\drivers\peripheral\smif/cy_smif.h **** 
 309:Generated_Source\PSoC6\pdl\drivers\peripheral\smif/cy_smif.h **** #define CY_SMIF_CMD_FIFO_TX_MODE           (0UL)
 310:Generated_Source\PSoC6\pdl\drivers\peripheral\smif/cy_smif.h **** #define CY_SMIF_CMD_FIFO_TX_COUNT_MODE     (1UL)
 311:Generated_Source\PSoC6\pdl\drivers\peripheral\smif/cy_smif.h **** #define CY_SMIF_CMD_FIFO_RX_COUNT_MODE     (2UL)
 312:Generated_Source\PSoC6\pdl\drivers\peripheral\smif/cy_smif.h **** #define CY_SMIF_CMD_FIFO_DUMMY_COUNT_MODE  (3UL)
 313:Generated_Source\PSoC6\pdl\drivers\peripheral\smif/cy_smif.h **** 
 314:Generated_Source\PSoC6\pdl\drivers\peripheral\smif/cy_smif.h **** #define CY_SMIF_TX_CMD_FIFO_STATUS_RANGE   (4U)
 315:Generated_Source\PSoC6\pdl\drivers\peripheral\smif/cy_smif.h **** #define CY_SMIF_TX_DATA_FIFO_STATUS_RANGE  (8U)
 316:Generated_Source\PSoC6\pdl\drivers\peripheral\smif/cy_smif.h **** #define CY_SMIF_RX_DATA_FIFO_STATUS_RANGE  (8U)
 317:Generated_Source\PSoC6\pdl\drivers\peripheral\smif/cy_smif.h **** 
 318:Generated_Source\PSoC6\pdl\drivers\peripheral\smif/cy_smif.h **** #define CY_SMIF_ONE_BYTE                   (1U)
 319:Generated_Source\PSoC6\pdl\drivers\peripheral\smif/cy_smif.h **** #define CY_SMIF_TWO_BYTES                  (2U)
 320:Generated_Source\PSoC6\pdl\drivers\peripheral\smif/cy_smif.h **** #define CY_SMIF_THREE_BYTES                (3U)
 321:Generated_Source\PSoC6\pdl\drivers\peripheral\smif/cy_smif.h **** #define CY_SMIF_FOUR_BYTES                 (4U)
 322:Generated_Source\PSoC6\pdl\drivers\peripheral\smif/cy_smif.h **** #define CY_SMIF_FIVE_BYTES                 (5U)
 323:Generated_Source\PSoC6\pdl\drivers\peripheral\smif/cy_smif.h **** #define CY_SMIF_SIX_BYTES                  (6U)
 324:Generated_Source\PSoC6\pdl\drivers\peripheral\smif/cy_smif.h **** #define CY_SMIF_SEVEN_BYTES                (7U)
 325:Generated_Source\PSoC6\pdl\drivers\peripheral\smif/cy_smif.h **** #define CY_SMIF_EIGHT_BYTES                (8U)
 326:Generated_Source\PSoC6\pdl\drivers\peripheral\smif/cy_smif.h **** 
 327:Generated_Source\PSoC6\pdl\drivers\peripheral\smif/cy_smif.h **** #define CY_SMIF_CRYPTO_FIRST_WORD          (0U)
 328:Generated_Source\PSoC6\pdl\drivers\peripheral\smif/cy_smif.h **** #define CY_SMIF_CRYPTO_SECOND_WORD         (4U)
 329:Generated_Source\PSoC6\pdl\drivers\peripheral\smif/cy_smif.h **** #define CY_SMIF_CRYPTO_THIRD_WORD          (8U)
ARM GAS  C:\Users\ikomb\AppData\Local\Temp\cc5YtlHT.s 			page 52


 330:Generated_Source\PSoC6\pdl\drivers\peripheral\smif/cy_smif.h **** #define CY_SMIF_CRYPTO_FOURTH_WORD         (12U)
 331:Generated_Source\PSoC6\pdl\drivers\peripheral\smif/cy_smif.h **** 
 332:Generated_Source\PSoC6\pdl\drivers\peripheral\smif/cy_smif.h **** #define CY_SMIF_CRYPTO_START               (1UL)
 333:Generated_Source\PSoC6\pdl\drivers\peripheral\smif/cy_smif.h **** #define CY_SMIF_CRYPTO_COMPLETED           (0UL)
 334:Generated_Source\PSoC6\pdl\drivers\peripheral\smif/cy_smif.h **** #define CY_SMIF_CRYPTO_ADDR_MASK           (0xFFFFFFF0UL)
 335:Generated_Source\PSoC6\pdl\drivers\peripheral\smif/cy_smif.h **** #define CY_SMIF_AES128_BYTES               (16U)
 336:Generated_Source\PSoC6\pdl\drivers\peripheral\smif/cy_smif.h **** 
 337:Generated_Source\PSoC6\pdl\drivers\peripheral\smif/cy_smif.h **** #define CY_SMIF_CTL_REG_DEFAULT  (0x00000300U) /* 3 - [13:12] CLOCK_IF_RX_SEL  */
 338:Generated_Source\PSoC6\pdl\drivers\peripheral\smif/cy_smif.h **** 
 339:Generated_Source\PSoC6\pdl\drivers\peripheral\smif/cy_smif.h **** #define CY_SMIF_SFDP_FAIL           (0x08U)
 340:Generated_Source\PSoC6\pdl\drivers\peripheral\smif/cy_smif.h **** #define CY_SMIF_SFDP_FAIL_SS0_POS   (0x00U)
 341:Generated_Source\PSoC6\pdl\drivers\peripheral\smif/cy_smif.h **** #define CY_SMIF_SFDP_FAIL_SS1_POS   (0x01U)
 342:Generated_Source\PSoC6\pdl\drivers\peripheral\smif/cy_smif.h **** #define CY_SMIF_SFDP_FAIL_SS2_POS   (0x02U)
 343:Generated_Source\PSoC6\pdl\drivers\peripheral\smif/cy_smif.h **** #define CY_SMIF_SFDP_FAIL_SS3_POS   (0x03U)
 344:Generated_Source\PSoC6\pdl\drivers\peripheral\smif/cy_smif.h **** 
 345:Generated_Source\PSoC6\pdl\drivers\peripheral\smif/cy_smif.h **** #define CY_SMIF_MAX_DESELECT_DELAY      (7U)
 346:Generated_Source\PSoC6\pdl\drivers\peripheral\smif/cy_smif.h **** #define CY_SMIF_MAX_TX_TR_LEVEL         (8U)
 347:Generated_Source\PSoC6\pdl\drivers\peripheral\smif/cy_smif.h **** #define CY_SMIF_MAX_RX_TR_LEVEL         (8U)
 348:Generated_Source\PSoC6\pdl\drivers\peripheral\smif/cy_smif.h **** 
 349:Generated_Source\PSoC6\pdl\drivers\peripheral\smif/cy_smif.h **** #define CY_SMIF_MODE_VALID(mode)    ((CY_SMIF_NORMAL == (cy_en_smif_mode_t)(mode)) || \
 350:Generated_Source\PSoC6\pdl\drivers\peripheral\smif/cy_smif.h ****                                      (CY_SMIF_MEMORY == (cy_en_smif_mode_t)(mode)))
 351:Generated_Source\PSoC6\pdl\drivers\peripheral\smif/cy_smif.h **** #define CY_SMIF_BLOCK_EVENT_VALID(event)    ((CY_SMIF_BUS_ERROR == (cy_en_smif_error_event_t)(event
 352:Generated_Source\PSoC6\pdl\drivers\peripheral\smif/cy_smif.h ****                                              (CY_SMIF_WAIT_STATES == (cy_en_smif_error_event_t)(eve
 353:Generated_Source\PSoC6\pdl\drivers\peripheral\smif/cy_smif.h **** #define CY_SMIF_CLOCK_SEL_VALID(clkSel)     ((CY_SMIF_SEL_INTERNAL_CLK == (cy_en_smif_clk_select_t)
 354:Generated_Source\PSoC6\pdl\drivers\peripheral\smif/cy_smif.h ****                                              (CY_SMIF_SEL_INV_INTERNAL_CLK == (cy_en_smif_clk_selec
 355:Generated_Source\PSoC6\pdl\drivers\peripheral\smif/cy_smif.h ****                                              (CY_SMIF_SEL_FEEDBACK_CLK == (cy_en_smif_clk_select_t)
 356:Generated_Source\PSoC6\pdl\drivers\peripheral\smif/cy_smif.h ****                                              (CY_SMIF_SEL_INV_FEEDBACK_CLK == (cy_en_smif_clk_selec
 357:Generated_Source\PSoC6\pdl\drivers\peripheral\smif/cy_smif.h ****                                              
 358:Generated_Source\PSoC6\pdl\drivers\peripheral\smif/cy_smif.h **** #define CY_SMIF_DESELECT_DELAY_VALID(delay)     ((delay) <= CY_SMIF_MAX_DESELECT_DELAY)
 359:Generated_Source\PSoC6\pdl\drivers\peripheral\smif/cy_smif.h **** #define CY_SMIF_SLAVE_SEL_VALID(ss)     ((CY_SMIF_SLAVE_SELECT_0 == (ss)) || \
 360:Generated_Source\PSoC6\pdl\drivers\peripheral\smif/cy_smif.h ****                                          (CY_SMIF_SLAVE_SELECT_1 == (ss)) || \
 361:Generated_Source\PSoC6\pdl\drivers\peripheral\smif/cy_smif.h ****                                          (CY_SMIF_SLAVE_SELECT_2 == (ss)) || \
 362:Generated_Source\PSoC6\pdl\drivers\peripheral\smif/cy_smif.h ****                                          (CY_SMIF_SLAVE_SELECT_3 == (ss)))
 363:Generated_Source\PSoC6\pdl\drivers\peripheral\smif/cy_smif.h **** #define CY_SMIF_DATA_SEL_VALID(ss)     ((CY_SMIF_DATA_SEL0 == (ss)) || \
 364:Generated_Source\PSoC6\pdl\drivers\peripheral\smif/cy_smif.h ****                                          (CY_SMIF_DATA_SEL1 == (ss)) || \
 365:Generated_Source\PSoC6\pdl\drivers\peripheral\smif/cy_smif.h ****                                          (CY_SMIF_DATA_SEL2 == (ss)) || \
 366:Generated_Source\PSoC6\pdl\drivers\peripheral\smif/cy_smif.h ****                                          (CY_SMIF_DATA_SEL3 == (ss)))
 367:Generated_Source\PSoC6\pdl\drivers\peripheral\smif/cy_smif.h **** #define CY_SMIF_TXFR_WIDTH_VALID(width)     ((CY_SMIF_WIDTH_SINGLE == (width)) || \
 368:Generated_Source\PSoC6\pdl\drivers\peripheral\smif/cy_smif.h ****                                             (CY_SMIF_WIDTH_DUAL == (width)) || \
 369:Generated_Source\PSoC6\pdl\drivers\peripheral\smif/cy_smif.h ****                                             (CY_SMIF_WIDTH_QUAD == (width)) || \
 370:Generated_Source\PSoC6\pdl\drivers\peripheral\smif/cy_smif.h ****                                             (CY_SMIF_WIDTH_OCTAL == (width)))
 371:Generated_Source\PSoC6\pdl\drivers\peripheral\smif/cy_smif.h **** #define CY_SMIF_CMD_PARAM_VALID(param, paramSize)     (((paramSize) > 0U)? (NULL != (param)) : (tru
 372:Generated_Source\PSoC6\pdl\drivers\peripheral\smif/cy_smif.h **** 
 373:Generated_Source\PSoC6\pdl\drivers\peripheral\smif/cy_smif.h **** /***************************************
 374:Generated_Source\PSoC6\pdl\drivers\peripheral\smif/cy_smif.h **** *        Command FIFO Register
 375:Generated_Source\PSoC6\pdl\drivers\peripheral\smif/cy_smif.h **** ***************************************/
 376:Generated_Source\PSoC6\pdl\drivers\peripheral\smif/cy_smif.h **** 
 377:Generated_Source\PSoC6\pdl\drivers\peripheral\smif/cy_smif.h **** /* SMIF->TX_CMD_FIFO_WR  */
 378:Generated_Source\PSoC6\pdl\drivers\peripheral\smif/cy_smif.h **** #define CY_SMIF_TX_CMD_FIFO_WR_MODE_POS         (18U)   /* [19:18]  Command data mode */
 379:Generated_Source\PSoC6\pdl\drivers\peripheral\smif/cy_smif.h **** #define CY_SMIF_TX_CMD_FIFO_WR_WIDTH_POS        (16U)   /* [17:16]  Transfer width    */
 380:Generated_Source\PSoC6\pdl\drivers\peripheral\smif/cy_smif.h **** #define CY_SMIF_TX_CMD_FIFO_WR_LAST_BYTE_POS    (15U)   /* [15]     Last byte      */
 381:Generated_Source\PSoC6\pdl\drivers\peripheral\smif/cy_smif.h **** #define CY_SMIF_TX_CMD_FIFO_WR_SS_POS           (8U)    /* [11:8]   Slave select      */
 382:Generated_Source\PSoC6\pdl\drivers\peripheral\smif/cy_smif.h **** #define CY_SMIF_TX_CMD_FIFO_WR_TXDATA_POS       (0U)    /* [0]      Transmitted byte  */
 383:Generated_Source\PSoC6\pdl\drivers\peripheral\smif/cy_smif.h **** #define CY_SMIF_TX_CMD_FIFO_WR_DUMMY_POS        (0U)    /* [0]      Dummy count       */
 384:Generated_Source\PSoC6\pdl\drivers\peripheral\smif/cy_smif.h **** #define CY_SMIF_TX_CMD_FIFO_WR_TX_COUNT_POS     (0U)    /* [0]      TX count          */
 385:Generated_Source\PSoC6\pdl\drivers\peripheral\smif/cy_smif.h **** #define CY_SMIF_TX_CMD_FIFO_WR_RX_COUNT_POS     (0U)    /* [0]      RX count          */
 386:Generated_Source\PSoC6\pdl\drivers\peripheral\smif/cy_smif.h **** 
ARM GAS  C:\Users\ikomb\AppData\Local\Temp\cc5YtlHT.s 			page 53


 387:Generated_Source\PSoC6\pdl\drivers\peripheral\smif/cy_smif.h **** /* SMIF->TX_CMD_FIFO_WR Commands Fields */
 388:Generated_Source\PSoC6\pdl\drivers\peripheral\smif/cy_smif.h **** #define CY_SMIF_CMD_FIFO_WR_MODE_Pos            (18UL)           /* [19:18]         Command data mo
 389:Generated_Source\PSoC6\pdl\drivers\peripheral\smif/cy_smif.h **** #define CY_SMIF_CMD_FIFO_WR_MODE_Msk            (0x000C0000UL)   /* DATA[19:18]       Command data 
 390:Generated_Source\PSoC6\pdl\drivers\peripheral\smif/cy_smif.h **** 
 391:Generated_Source\PSoC6\pdl\drivers\peripheral\smif/cy_smif.h **** #define CY_SMIF_CMD_FIFO_WR_WIDTH_Pos           (16UL)           /* [17:16]         Transfer width 
 392:Generated_Source\PSoC6\pdl\drivers\peripheral\smif/cy_smif.h **** #define CY_SMIF_CMD_FIFO_WR_WIDTH_Msk           (0x00030000UL)   /* DATA[17:16]     Transfer width 
 393:Generated_Source\PSoC6\pdl\drivers\peripheral\smif/cy_smif.h **** 
 394:Generated_Source\PSoC6\pdl\drivers\peripheral\smif/cy_smif.h **** #define CY_SMIF_CMD_FIFO_WR_LAST_BYTE_Pos       (15UL)           /* [15]            Last byte      
 395:Generated_Source\PSoC6\pdl\drivers\peripheral\smif/cy_smif.h **** #define CY_SMIF_CMD_FIFO_WR_LAST_BYTE_Msk       (0x00008000UL)   /* DATA[15]        Last byte      
 396:Generated_Source\PSoC6\pdl\drivers\peripheral\smif/cy_smif.h **** 
 397:Generated_Source\PSoC6\pdl\drivers\peripheral\smif/cy_smif.h **** #define CY_SMIF_CMD_FIFO_WR_SS_Pos              (8UL)            /* [11:8]          Slave select   
 398:Generated_Source\PSoC6\pdl\drivers\peripheral\smif/cy_smif.h **** #define CY_SMIF_CMD_FIFO_WR_SS_Msk              (0x00000F00UL)   /* DATA[11:8]      Slave select   
 399:Generated_Source\PSoC6\pdl\drivers\peripheral\smif/cy_smif.h ****    
 400:Generated_Source\PSoC6\pdl\drivers\peripheral\smif/cy_smif.h **** #define CY_SMIF_CMD_FIFO_WR_TXDATA_Pos          (0UL)            /* [0]             Transmitted byt
 401:Generated_Source\PSoC6\pdl\drivers\peripheral\smif/cy_smif.h **** #define CY_SMIF_CMD_FIFO_WR_TXDATA_Msk          (0x000000FFUL)   /* DATA[7:0]         Transmitted b
 402:Generated_Source\PSoC6\pdl\drivers\peripheral\smif/cy_smif.h **** #define CY_SMIF_CMD_FIFO_WR_DUMMY_Pos           (0UL)            /* [0]             Dummy count    
 403:Generated_Source\PSoC6\pdl\drivers\peripheral\smif/cy_smif.h **** #define CY_SMIF_CMD_FIFO_WR_DUMMY_Msk           (0x0000FFFFUL)   /* DATA[15:0]      Dummy count    
 404:Generated_Source\PSoC6\pdl\drivers\peripheral\smif/cy_smif.h **** #define CY_SMIF_CMD_FIFO_WR_TX_COUNT_Msk        (0x0000FFFFUL)   /* DATA[15:0]      TX count       
 405:Generated_Source\PSoC6\pdl\drivers\peripheral\smif/cy_smif.h **** #define CY_SMIF_CMD_FIFO_WR_TX_COUNT_Pos        (0UL)            /* [0]             TX count       
 406:Generated_Source\PSoC6\pdl\drivers\peripheral\smif/cy_smif.h **** #define CY_SMIF_CMD_FIFO_WR_RX_COUNT_Msk        (0x0003FFFFUL)   /* DATA[17:0]      RX count       
 407:Generated_Source\PSoC6\pdl\drivers\peripheral\smif/cy_smif.h **** #define CY_SMIF_CMD_FIFO_WR_RX_COUNT_Pos        (0UL)            /* [0]             RX count       
 408:Generated_Source\PSoC6\pdl\drivers\peripheral\smif/cy_smif.h **** 
 409:Generated_Source\PSoC6\pdl\drivers\peripheral\smif/cy_smif.h **** /** \endcond*/
 410:Generated_Source\PSoC6\pdl\drivers\peripheral\smif/cy_smif.h **** /** \} group_smif_macros */
 411:Generated_Source\PSoC6\pdl\drivers\peripheral\smif/cy_smif.h **** 
 412:Generated_Source\PSoC6\pdl\drivers\peripheral\smif/cy_smif.h **** 
 413:Generated_Source\PSoC6\pdl\drivers\peripheral\smif/cy_smif.h **** /**
 414:Generated_Source\PSoC6\pdl\drivers\peripheral\smif/cy_smif.h **** * \addtogroup group_smif_enums
 415:Generated_Source\PSoC6\pdl\drivers\peripheral\smif/cy_smif.h **** * \{
 416:Generated_Source\PSoC6\pdl\drivers\peripheral\smif/cy_smif.h **** */
 417:Generated_Source\PSoC6\pdl\drivers\peripheral\smif/cy_smif.h **** 
 418:Generated_Source\PSoC6\pdl\drivers\peripheral\smif/cy_smif.h **** /** The Transfer width options for the command, data, the address and the mode. */
 419:Generated_Source\PSoC6\pdl\drivers\peripheral\smif/cy_smif.h **** typedef enum
 420:Generated_Source\PSoC6\pdl\drivers\peripheral\smif/cy_smif.h **** {
 421:Generated_Source\PSoC6\pdl\drivers\peripheral\smif/cy_smif.h ****     CY_SMIF_WIDTH_SINGLE   = 0U,    /**< Normal SPI mode. */
 422:Generated_Source\PSoC6\pdl\drivers\peripheral\smif/cy_smif.h ****     CY_SMIF_WIDTH_DUAL     = 1U,    /**< Dual SPI mode. */
 423:Generated_Source\PSoC6\pdl\drivers\peripheral\smif/cy_smif.h ****     CY_SMIF_WIDTH_QUAD     = 2U,    /**< Quad SPI mode. */
 424:Generated_Source\PSoC6\pdl\drivers\peripheral\smif/cy_smif.h ****     CY_SMIF_WIDTH_OCTAL    = 3U     /**< Octal SPI mode. */
 425:Generated_Source\PSoC6\pdl\drivers\peripheral\smif/cy_smif.h **** } cy_en_smif_txfr_width_t;
 426:Generated_Source\PSoC6\pdl\drivers\peripheral\smif/cy_smif.h **** 
 427:Generated_Source\PSoC6\pdl\drivers\peripheral\smif/cy_smif.h **** /** The SMIF error-event selection. */
 428:Generated_Source\PSoC6\pdl\drivers\peripheral\smif/cy_smif.h **** typedef enum
 429:Generated_Source\PSoC6\pdl\drivers\peripheral\smif/cy_smif.h **** {
 430:Generated_Source\PSoC6\pdl\drivers\peripheral\smif/cy_smif.h ****     /**< Generates a bus error. */
 431:Generated_Source\PSoC6\pdl\drivers\peripheral\smif/cy_smif.h ****     CY_SMIF_BUS_ERROR           = 0UL,
 432:Generated_Source\PSoC6\pdl\drivers\peripheral\smif/cy_smif.h ****     /** Stalls the bus with the wait states. This option will increase the 
 433:Generated_Source\PSoC6\pdl\drivers\peripheral\smif/cy_smif.h ****      * interrupt latency. 
 434:Generated_Source\PSoC6\pdl\drivers\peripheral\smif/cy_smif.h ****      */
 435:Generated_Source\PSoC6\pdl\drivers\peripheral\smif/cy_smif.h ****     CY_SMIF_WAIT_STATES         = 1UL
 436:Generated_Source\PSoC6\pdl\drivers\peripheral\smif/cy_smif.h **** } cy_en_smif_error_event_t;
 437:Generated_Source\PSoC6\pdl\drivers\peripheral\smif/cy_smif.h **** 
 438:Generated_Source\PSoC6\pdl\drivers\peripheral\smif/cy_smif.h **** /** The data line-selection options for a slave device. */
 439:Generated_Source\PSoC6\pdl\drivers\peripheral\smif/cy_smif.h **** typedef enum
 440:Generated_Source\PSoC6\pdl\drivers\peripheral\smif/cy_smif.h **** {
 441:Generated_Source\PSoC6\pdl\drivers\peripheral\smif/cy_smif.h ****     /**
 442:Generated_Source\PSoC6\pdl\drivers\peripheral\smif/cy_smif.h ****     * smif.spi_data[0] = DATA0, smif.spi_data[1] = DATA1, ..., smif.spi_data[7] = DATA7.
 443:Generated_Source\PSoC6\pdl\drivers\peripheral\smif/cy_smif.h ****     * This value is allowed for the SPI, DSPI, quad-SPI, dual quad-SPI, and octal-SPI modes.
ARM GAS  C:\Users\ikomb\AppData\Local\Temp\cc5YtlHT.s 			page 54


 444:Generated_Source\PSoC6\pdl\drivers\peripheral\smif/cy_smif.h ****     */
 445:Generated_Source\PSoC6\pdl\drivers\peripheral\smif/cy_smif.h ****     CY_SMIF_DATA_SEL0      = 0,
 446:Generated_Source\PSoC6\pdl\drivers\peripheral\smif/cy_smif.h ****     /**
 447:Generated_Source\PSoC6\pdl\drivers\peripheral\smif/cy_smif.h ****     * smif.spi_data[2] = DATA0, smif.spi_data[3] = DATA1.
 448:Generated_Source\PSoC6\pdl\drivers\peripheral\smif/cy_smif.h ****     * This value is only allowed for the SPI and DSPI modes.
 449:Generated_Source\PSoC6\pdl\drivers\peripheral\smif/cy_smif.h ****     */
 450:Generated_Source\PSoC6\pdl\drivers\peripheral\smif/cy_smif.h ****     CY_SMIF_DATA_SEL1      = 1,
 451:Generated_Source\PSoC6\pdl\drivers\peripheral\smif/cy_smif.h ****     /**
 452:Generated_Source\PSoC6\pdl\drivers\peripheral\smif/cy_smif.h ****     * smif.spi_data[4] = DATA0, smif.spi_data[5] = DATA1, ..., smif.spi_data[7] = DATA3.
 453:Generated_Source\PSoC6\pdl\drivers\peripheral\smif/cy_smif.h ****     * This value is only allowed for the SPI, DSPI, quad-SPI and dual quad-SPI modes.
 454:Generated_Source\PSoC6\pdl\drivers\peripheral\smif/cy_smif.h ****     */
 455:Generated_Source\PSoC6\pdl\drivers\peripheral\smif/cy_smif.h ****     CY_SMIF_DATA_SEL2      = 2,
 456:Generated_Source\PSoC6\pdl\drivers\peripheral\smif/cy_smif.h ****     /**
 457:Generated_Source\PSoC6\pdl\drivers\peripheral\smif/cy_smif.h ****     * smif.spi_data[6] = DATA0, smif.spi_data[7] = DATA1.
 458:Generated_Source\PSoC6\pdl\drivers\peripheral\smif/cy_smif.h ****     * This value is only allowed for the SPI and DSPI modes.
 459:Generated_Source\PSoC6\pdl\drivers\peripheral\smif/cy_smif.h ****     */
 460:Generated_Source\PSoC6\pdl\drivers\peripheral\smif/cy_smif.h ****     CY_SMIF_DATA_SEL3      = 3
 461:Generated_Source\PSoC6\pdl\drivers\peripheral\smif/cy_smif.h **** } cy_en_smif_data_select_t;
 462:Generated_Source\PSoC6\pdl\drivers\peripheral\smif/cy_smif.h **** 
 463:Generated_Source\PSoC6\pdl\drivers\peripheral\smif/cy_smif.h **** /** The SMIF modes to work with an external memory. */
 464:Generated_Source\PSoC6\pdl\drivers\peripheral\smif/cy_smif.h **** typedef enum
 465:Generated_Source\PSoC6\pdl\drivers\peripheral\smif/cy_smif.h **** {
 466:Generated_Source\PSoC6\pdl\drivers\peripheral\smif/cy_smif.h ****     CY_SMIF_NORMAL,         /**< Command mode (MMIO mode). */
 467:Generated_Source\PSoC6\pdl\drivers\peripheral\smif/cy_smif.h ****     CY_SMIF_MEMORY          /**< XIP (eXecute In Place) mode. */
 468:Generated_Source\PSoC6\pdl\drivers\peripheral\smif/cy_smif.h **** } cy_en_smif_mode_t;
 469:Generated_Source\PSoC6\pdl\drivers\peripheral\smif/cy_smif.h **** 
 470:Generated_Source\PSoC6\pdl\drivers\peripheral\smif/cy_smif.h **** /** The SMIF transfer status return values. */
 471:Generated_Source\PSoC6\pdl\drivers\peripheral\smif/cy_smif.h **** typedef enum
 472:Generated_Source\PSoC6\pdl\drivers\peripheral\smif/cy_smif.h **** {
 473:Generated_Source\PSoC6\pdl\drivers\peripheral\smif/cy_smif.h ****     CY_SMIF_STARTED,       /**< The SMIF started. */
 474:Generated_Source\PSoC6\pdl\drivers\peripheral\smif/cy_smif.h ****     CY_SMIF_SEND_CMPLT,    /**< The data transmission is complete. */
 475:Generated_Source\PSoC6\pdl\drivers\peripheral\smif/cy_smif.h ****     CY_SMIF_SEND_BUSY,     /**< The data transmission is in progress. */
 476:Generated_Source\PSoC6\pdl\drivers\peripheral\smif/cy_smif.h ****     CY_SMIF_REC_CMPLT,     /**< The data reception is completed. */
 477:Generated_Source\PSoC6\pdl\drivers\peripheral\smif/cy_smif.h ****     CY_SMIF_REC_BUSY,      /**< The data reception is in progress. */
 478:Generated_Source\PSoC6\pdl\drivers\peripheral\smif/cy_smif.h ****     CY_SMIF_XIP_ERROR,     /**< An XIP alignment error. */
 479:Generated_Source\PSoC6\pdl\drivers\peripheral\smif/cy_smif.h ****     CY_SMIF_CMD_ERROR,     /**< A TX CMD FIFO overflow. */
 480:Generated_Source\PSoC6\pdl\drivers\peripheral\smif/cy_smif.h ****     CY_SMIF_TX_ERROR,      /**< A TX DATA FIFO overflow. */
 481:Generated_Source\PSoC6\pdl\drivers\peripheral\smif/cy_smif.h ****     CY_SMIF_RX_ERROR       /**< An RX DATA FIFO underflow. */
 482:Generated_Source\PSoC6\pdl\drivers\peripheral\smif/cy_smif.h **** 
 483:Generated_Source\PSoC6\pdl\drivers\peripheral\smif/cy_smif.h **** } cy_en_smif_txfr_status_t;
 484:Generated_Source\PSoC6\pdl\drivers\peripheral\smif/cy_smif.h **** 
 485:Generated_Source\PSoC6\pdl\drivers\peripheral\smif/cy_smif.h **** /** The SMIF API return values. */
 486:Generated_Source\PSoC6\pdl\drivers\peripheral\smif/cy_smif.h **** typedef enum
 487:Generated_Source\PSoC6\pdl\drivers\peripheral\smif/cy_smif.h **** {
 488:Generated_Source\PSoC6\pdl\drivers\peripheral\smif/cy_smif.h ****     CY_SMIF_SUCCESS = 0x00U,           /**< Successful SMIF operation. */
 489:Generated_Source\PSoC6\pdl\drivers\peripheral\smif/cy_smif.h ****     CY_SMIF_CMD_FIFO_FULL   = CY_SMIF_ID |CY_PDL_STATUS_ERROR | 0x01U,     /**< The command is canc
 490:Generated_Source\PSoC6\pdl\drivers\peripheral\smif/cy_smif.h ****     CY_SMIF_EXCEED_TIMEOUT  = CY_SMIF_ID |CY_PDL_STATUS_ERROR | 0x02U,    /**< The SMIF operation t
 491:Generated_Source\PSoC6\pdl\drivers\peripheral\smif/cy_smif.h ****     /**
 492:Generated_Source\PSoC6\pdl\drivers\peripheral\smif/cy_smif.h ****     * The device does not have a QE bit. The device detects
 493:Generated_Source\PSoC6\pdl\drivers\peripheral\smif/cy_smif.h ****     * 1-1-4 and 1-4-4 Reads based on the instruction.
 494:Generated_Source\PSoC6\pdl\drivers\peripheral\smif/cy_smif.h ****     */
 495:Generated_Source\PSoC6\pdl\drivers\peripheral\smif/cy_smif.h ****     CY_SMIF_NO_QE_BIT       = CY_SMIF_ID |CY_PDL_STATUS_ERROR | 0x03U,
 496:Generated_Source\PSoC6\pdl\drivers\peripheral\smif/cy_smif.h ****     CY_SMIF_BAD_PARAM       = CY_SMIF_ID |CY_PDL_STATUS_ERROR | 0x04U,   /**< The SMIF API received
 497:Generated_Source\PSoC6\pdl\drivers\peripheral\smif/cy_smif.h ****     CY_SMIF_NO_SFDP_SUPPORT = CY_SMIF_ID |CY_PDL_STATUS_ERROR | 0x05U,   /**< The external memory d
 498:Generated_Source\PSoC6\pdl\drivers\peripheral\smif/cy_smif.h ****     /** Failed to initialize the slave select 0 external memory by auto detection (SFDP). */
 499:Generated_Source\PSoC6\pdl\drivers\peripheral\smif/cy_smif.h ****     CY_SMIF_SFDP_SS0_FAILED = CY_SMIF_ID |CY_PDL_STATUS_ERROR |
 500:Generated_Source\PSoC6\pdl\drivers\peripheral\smif/cy_smif.h ****                             ((uint32_t)CY_SMIF_SFDP_FAIL << CY_SMIF_SFDP_FAIL_SS0_POS),
ARM GAS  C:\Users\ikomb\AppData\Local\Temp\cc5YtlHT.s 			page 55


 501:Generated_Source\PSoC6\pdl\drivers\peripheral\smif/cy_smif.h ****     /** Failed to initialize the slave select 1 external memory by auto detection (SFDP). */
 502:Generated_Source\PSoC6\pdl\drivers\peripheral\smif/cy_smif.h ****     CY_SMIF_SFDP_SS1_FAILED = CY_SMIF_ID | CY_PDL_STATUS_ERROR |
 503:Generated_Source\PSoC6\pdl\drivers\peripheral\smif/cy_smif.h ****                             ((uint32_t)CY_SMIF_SFDP_FAIL << CY_SMIF_SFDP_FAIL_SS1_POS),
 504:Generated_Source\PSoC6\pdl\drivers\peripheral\smif/cy_smif.h ****     /** Failed to initialize the slave select 2 external memory by auto detection (SFDP). */
 505:Generated_Source\PSoC6\pdl\drivers\peripheral\smif/cy_smif.h ****     CY_SMIF_SFDP_SS2_FAILED = CY_SMIF_ID |CY_PDL_STATUS_ERROR |
 506:Generated_Source\PSoC6\pdl\drivers\peripheral\smif/cy_smif.h ****                             ((uint32_t)CY_SMIF_SFDP_FAIL << CY_SMIF_SFDP_FAIL_SS2_POS),
 507:Generated_Source\PSoC6\pdl\drivers\peripheral\smif/cy_smif.h ****     /** Failed to initialize the slave select 3 external memory by auto detection (SFDP). */
 508:Generated_Source\PSoC6\pdl\drivers\peripheral\smif/cy_smif.h ****     CY_SMIF_SFDP_SS3_FAILED = CY_SMIF_ID |CY_PDL_STATUS_ERROR |
 509:Generated_Source\PSoC6\pdl\drivers\peripheral\smif/cy_smif.h ****                             ((uint32_t)CY_SMIF_SFDP_FAIL << CY_SMIF_SFDP_FAIL_SS3_POS)
 510:Generated_Source\PSoC6\pdl\drivers\peripheral\smif/cy_smif.h **** 
 511:Generated_Source\PSoC6\pdl\drivers\peripheral\smif/cy_smif.h **** } cy_en_smif_status_t;
 512:Generated_Source\PSoC6\pdl\drivers\peripheral\smif/cy_smif.h **** 
 513:Generated_Source\PSoC6\pdl\drivers\peripheral\smif/cy_smif.h **** /** The SMIF slave select definitions for the driver API. Each slave select is
 514:Generated_Source\PSoC6\pdl\drivers\peripheral\smif/cy_smif.h ****  * represented by an enumeration that has the bit corresponding to the slave 
 515:Generated_Source\PSoC6\pdl\drivers\peripheral\smif/cy_smif.h ****  * select number set. */
 516:Generated_Source\PSoC6\pdl\drivers\peripheral\smif/cy_smif.h **** typedef enum
 517:Generated_Source\PSoC6\pdl\drivers\peripheral\smif/cy_smif.h **** {
 518:Generated_Source\PSoC6\pdl\drivers\peripheral\smif/cy_smif.h ****    CY_SMIF_SLAVE_SELECT_0 = 1U,  /**< The SMIF slave select 0  */
 519:Generated_Source\PSoC6\pdl\drivers\peripheral\smif/cy_smif.h ****    CY_SMIF_SLAVE_SELECT_1 = 2U,  /**< The SMIF slave select 1  */
 520:Generated_Source\PSoC6\pdl\drivers\peripheral\smif/cy_smif.h ****    CY_SMIF_SLAVE_SELECT_2 = 4U,  /**< The SMIF slave select 2  */
 521:Generated_Source\PSoC6\pdl\drivers\peripheral\smif/cy_smif.h ****    CY_SMIF_SLAVE_SELECT_3 = 8U   /**< The SMIF slave select 3  */
 522:Generated_Source\PSoC6\pdl\drivers\peripheral\smif/cy_smif.h **** } cy_en_smif_slave_select_t;
 523:Generated_Source\PSoC6\pdl\drivers\peripheral\smif/cy_smif.h **** 
 524:Generated_Source\PSoC6\pdl\drivers\peripheral\smif/cy_smif.h **** /** Specifies the clock source for the receiver clock. */
 525:Generated_Source\PSoC6\pdl\drivers\peripheral\smif/cy_smif.h **** typedef enum
 526:Generated_Source\PSoC6\pdl\drivers\peripheral\smif/cy_smif.h **** {
 527:Generated_Source\PSoC6\pdl\drivers\peripheral\smif/cy_smif.h ****    CY_SMIF_SEL_INTERNAL_CLK     = 0U,  /**< The SMIF internal clock */
 528:Generated_Source\PSoC6\pdl\drivers\peripheral\smif/cy_smif.h ****    CY_SMIF_SEL_INV_INTERNAL_CLK = 1U,  /**< The SMIF internal inverted clock */
 529:Generated_Source\PSoC6\pdl\drivers\peripheral\smif/cy_smif.h ****    CY_SMIF_SEL_FEEDBACK_CLK     = 2U,  /**< The SMIF feedback clock */
 530:Generated_Source\PSoC6\pdl\drivers\peripheral\smif/cy_smif.h ****    CY_SMIF_SEL_INV_FEEDBACK_CLK = 3U   /**< The SMIF feedback inverted clock */
 531:Generated_Source\PSoC6\pdl\drivers\peripheral\smif/cy_smif.h **** } cy_en_smif_clk_select_t;
 532:Generated_Source\PSoC6\pdl\drivers\peripheral\smif/cy_smif.h **** 
 533:Generated_Source\PSoC6\pdl\drivers\peripheral\smif/cy_smif.h **** /** Specifies enabled type of SMIF cache. */
 534:Generated_Source\PSoC6\pdl\drivers\peripheral\smif/cy_smif.h **** typedef enum
 535:Generated_Source\PSoC6\pdl\drivers\peripheral\smif/cy_smif.h **** {
 536:Generated_Source\PSoC6\pdl\drivers\peripheral\smif/cy_smif.h ****     CY_SMIF_CACHE_SLOW      = 1U,   /**< The SMIF slow cache (in the clk_slow domain) see TRM for d
 537:Generated_Source\PSoC6\pdl\drivers\peripheral\smif/cy_smif.h ****     CY_SMIF_CACHE_FAST      = 2U,   /**< The SMIF fast cache  (in the clk_fast domain) see TRM for 
 538:Generated_Source\PSoC6\pdl\drivers\peripheral\smif/cy_smif.h ****     CY_SMIF_CACHE_BOTH      = 3U    /**< The SMIF both caches */
 539:Generated_Source\PSoC6\pdl\drivers\peripheral\smif/cy_smif.h **** } cy_en_smif_cache_en_t;
 540:Generated_Source\PSoC6\pdl\drivers\peripheral\smif/cy_smif.h **** 
 541:Generated_Source\PSoC6\pdl\drivers\peripheral\smif/cy_smif.h **** /** \} group_smif_enums */
 542:Generated_Source\PSoC6\pdl\drivers\peripheral\smif/cy_smif.h **** 
 543:Generated_Source\PSoC6\pdl\drivers\peripheral\smif/cy_smif.h **** 
 544:Generated_Source\PSoC6\pdl\drivers\peripheral\smif/cy_smif.h **** /**
 545:Generated_Source\PSoC6\pdl\drivers\peripheral\smif/cy_smif.h **** * \addtogroup group_smif_data_structures
 546:Generated_Source\PSoC6\pdl\drivers\peripheral\smif/cy_smif.h **** * \{
 547:Generated_Source\PSoC6\pdl\drivers\peripheral\smif/cy_smif.h **** */
 548:Generated_Source\PSoC6\pdl\drivers\peripheral\smif/cy_smif.h **** 
 549:Generated_Source\PSoC6\pdl\drivers\peripheral\smif/cy_smif.h **** /***************************************************************************//**
 550:Generated_Source\PSoC6\pdl\drivers\peripheral\smif/cy_smif.h **** *
 551:Generated_Source\PSoC6\pdl\drivers\peripheral\smif/cy_smif.h **** * The SMIF user callback function type called at the end of a transfer.
 552:Generated_Source\PSoC6\pdl\drivers\peripheral\smif/cy_smif.h **** *
 553:Generated_Source\PSoC6\pdl\drivers\peripheral\smif/cy_smif.h **** * \param event
 554:Generated_Source\PSoC6\pdl\drivers\peripheral\smif/cy_smif.h **** * The event which caused a callback call.
 555:Generated_Source\PSoC6\pdl\drivers\peripheral\smif/cy_smif.h **** *
 556:Generated_Source\PSoC6\pdl\drivers\peripheral\smif/cy_smif.h **** *******************************************************************************/
 557:Generated_Source\PSoC6\pdl\drivers\peripheral\smif/cy_smif.h **** typedef void (*cy_smif_event_cb_t)(uint32_t event);
ARM GAS  C:\Users\ikomb\AppData\Local\Temp\cc5YtlHT.s 			page 56


 558:Generated_Source\PSoC6\pdl\drivers\peripheral\smif/cy_smif.h **** 
 559:Generated_Source\PSoC6\pdl\drivers\peripheral\smif/cy_smif.h **** 
 560:Generated_Source\PSoC6\pdl\drivers\peripheral\smif/cy_smif.h **** /** The SMIF configuration structure. */
 561:Generated_Source\PSoC6\pdl\drivers\peripheral\smif/cy_smif.h **** typedef struct
 562:Generated_Source\PSoC6\pdl\drivers\peripheral\smif/cy_smif.h **** {
 563:Generated_Source\PSoC6\pdl\drivers\peripheral\smif/cy_smif.h ****     uint32_t mode;              /**<  Specifies the mode of operation \ref cy_en_smif_mode_t. */
 564:Generated_Source\PSoC6\pdl\drivers\peripheral\smif/cy_smif.h ****     uint32_t deselectDelay;     /**<  Specifies the minimum duration of SPI de-selection between SP
 565:Generated_Source\PSoC6\pdl\drivers\peripheral\smif/cy_smif.h ****                                 *   - "0": 1 clock cycle.
 566:Generated_Source\PSoC6\pdl\drivers\peripheral\smif/cy_smif.h ****                                 *   - "1": 2 clock cycles.
 567:Generated_Source\PSoC6\pdl\drivers\peripheral\smif/cy_smif.h ****                                 *   - "2": 3 clock cycles.
 568:Generated_Source\PSoC6\pdl\drivers\peripheral\smif/cy_smif.h ****                                 *   - "3": 4 clock cycles.
 569:Generated_Source\PSoC6\pdl\drivers\peripheral\smif/cy_smif.h ****                                 *   - "4": 5 clock cycles.
 570:Generated_Source\PSoC6\pdl\drivers\peripheral\smif/cy_smif.h ****                                 *   - "5": 6 clock cycles.
 571:Generated_Source\PSoC6\pdl\drivers\peripheral\smif/cy_smif.h ****                                 *   - "6": 7 clock cycles.
 572:Generated_Source\PSoC6\pdl\drivers\peripheral\smif/cy_smif.h ****                                 *   - "7": 8 clock cycles. */
 573:Generated_Source\PSoC6\pdl\drivers\peripheral\smif/cy_smif.h ****     uint32_t rxClockSel;        /**< Specifies the clock source for the receiver 
 574:Generated_Source\PSoC6\pdl\drivers\peripheral\smif/cy_smif.h ****                                 *  clock \ref cy_en_smif_clk_select_t. */
 575:Generated_Source\PSoC6\pdl\drivers\peripheral\smif/cy_smif.h ****     uint32_t blockEvent;        /**< Specifies what happens when there is a Read  
 576:Generated_Source\PSoC6\pdl\drivers\peripheral\smif/cy_smif.h ****                                 * from an empty RX FIFO or a Write to a full 
 577:Generated_Source\PSoC6\pdl\drivers\peripheral\smif/cy_smif.h ****                                 * TX FIFO. \ref cy_en_smif_error_event_t. */
 578:Generated_Source\PSoC6\pdl\drivers\peripheral\smif/cy_smif.h **** } cy_stc_smif_config_t;
 579:Generated_Source\PSoC6\pdl\drivers\peripheral\smif/cy_smif.h **** 
 580:Generated_Source\PSoC6\pdl\drivers\peripheral\smif/cy_smif.h **** /** The SMIF internal context data. The user must not modify it. */
 581:Generated_Source\PSoC6\pdl\drivers\peripheral\smif/cy_smif.h **** typedef struct
 582:Generated_Source\PSoC6\pdl\drivers\peripheral\smif/cy_smif.h **** {
 583:Generated_Source\PSoC6\pdl\drivers\peripheral\smif/cy_smif.h ****     uint8_t volatile * volatile txBufferAddress;    /**<  The pointer to the data to transfer */
 584:Generated_Source\PSoC6\pdl\drivers\peripheral\smif/cy_smif.h ****     uint32_t txBufferSize;                          /**<  The size of the data to transmit in bytes
 585:Generated_Source\PSoC6\pdl\drivers\peripheral\smif/cy_smif.h ****     /**
 586:Generated_Source\PSoC6\pdl\drivers\peripheral\smif/cy_smif.h ****     * The transfer counter. The number of the transmitted bytes = txBufferSize - txBufferCounter
 587:Generated_Source\PSoC6\pdl\drivers\peripheral\smif/cy_smif.h ****     */
 588:Generated_Source\PSoC6\pdl\drivers\peripheral\smif/cy_smif.h ****     uint32_t volatile txBufferCounter;
 589:Generated_Source\PSoC6\pdl\drivers\peripheral\smif/cy_smif.h ****     uint8_t volatile * volatile rxBufferAddress;    /**<  The pointer to the variable where the rec
 590:Generated_Source\PSoC6\pdl\drivers\peripheral\smif/cy_smif.h ****     uint32_t rxBufferSize;                          /**<  The size of the data to be received in by
 591:Generated_Source\PSoC6\pdl\drivers\peripheral\smif/cy_smif.h ****     /**
 592:Generated_Source\PSoC6\pdl\drivers\peripheral\smif/cy_smif.h ****     * The transfer counter. The number of the received bytes = rxBufferSize - rxBufferCounter
 593:Generated_Source\PSoC6\pdl\drivers\peripheral\smif/cy_smif.h ****     */
 594:Generated_Source\PSoC6\pdl\drivers\peripheral\smif/cy_smif.h ****     uint32_t volatile rxBufferCounter;
 595:Generated_Source\PSoC6\pdl\drivers\peripheral\smif/cy_smif.h ****     /**
 596:Generated_Source\PSoC6\pdl\drivers\peripheral\smif/cy_smif.h ****     * The status of the transfer. The transmitting / receiving is completed / in progress
 597:Generated_Source\PSoC6\pdl\drivers\peripheral\smif/cy_smif.h ****     */
 598:Generated_Source\PSoC6\pdl\drivers\peripheral\smif/cy_smif.h ****     uint32_t volatile transferStatus;
 599:Generated_Source\PSoC6\pdl\drivers\peripheral\smif/cy_smif.h ****     cy_smif_event_cb_t volatile txCmpltCb;          /**< The user-defined callback executed at the 
 600:Generated_Source\PSoC6\pdl\drivers\peripheral\smif/cy_smif.h ****     cy_smif_event_cb_t volatile rxCmpltCb;          /**< The user-defined callback executed at the 
 601:Generated_Source\PSoC6\pdl\drivers\peripheral\smif/cy_smif.h ****     /**
 602:Generated_Source\PSoC6\pdl\drivers\peripheral\smif/cy_smif.h ****     * The timeout in microseconds for the blocking functions. This timeout value applies to all blo
 603:Generated_Source\PSoC6\pdl\drivers\peripheral\smif/cy_smif.h ****     */
 604:Generated_Source\PSoC6\pdl\drivers\peripheral\smif/cy_smif.h ****     uint32_t timeout;
 605:Generated_Source\PSoC6\pdl\drivers\peripheral\smif/cy_smif.h **** } cy_stc_smif_context_t;
 606:Generated_Source\PSoC6\pdl\drivers\peripheral\smif/cy_smif.h **** 
 607:Generated_Source\PSoC6\pdl\drivers\peripheral\smif/cy_smif.h **** /** \} group_smif_data_structures */
 608:Generated_Source\PSoC6\pdl\drivers\peripheral\smif/cy_smif.h **** 
 609:Generated_Source\PSoC6\pdl\drivers\peripheral\smif/cy_smif.h **** 
 610:Generated_Source\PSoC6\pdl\drivers\peripheral\smif/cy_smif.h **** /**
 611:Generated_Source\PSoC6\pdl\drivers\peripheral\smif/cy_smif.h **** * \addtogroup group_smif_low_level_functions
 612:Generated_Source\PSoC6\pdl\drivers\peripheral\smif/cy_smif.h **** * \{
 613:Generated_Source\PSoC6\pdl\drivers\peripheral\smif/cy_smif.h **** */
 614:Generated_Source\PSoC6\pdl\drivers\peripheral\smif/cy_smif.h **** 
ARM GAS  C:\Users\ikomb\AppData\Local\Temp\cc5YtlHT.s 			page 57


 615:Generated_Source\PSoC6\pdl\drivers\peripheral\smif/cy_smif.h **** cy_en_smif_status_t Cy_SMIF_Init(SMIF_Type *base, cy_stc_smif_config_t const *config,
 616:Generated_Source\PSoC6\pdl\drivers\peripheral\smif/cy_smif.h ****                                 uint32_t timeout,
 617:Generated_Source\PSoC6\pdl\drivers\peripheral\smif/cy_smif.h ****                                 cy_stc_smif_context_t *context);
 618:Generated_Source\PSoC6\pdl\drivers\peripheral\smif/cy_smif.h **** void Cy_SMIF_DeInit(SMIF_Type *base);
 619:Generated_Source\PSoC6\pdl\drivers\peripheral\smif/cy_smif.h **** void Cy_SMIF_SetDataSelect(SMIF_Type *base, cy_en_smif_slave_select_t slaveSelect,
 620:Generated_Source\PSoC6\pdl\drivers\peripheral\smif/cy_smif.h ****                                 cy_en_smif_data_select_t dataSelect);
 621:Generated_Source\PSoC6\pdl\drivers\peripheral\smif/cy_smif.h **** void Cy_SMIF_SetMode(SMIF_Type *base, cy_en_smif_mode_t mode);
 622:Generated_Source\PSoC6\pdl\drivers\peripheral\smif/cy_smif.h **** cy_en_smif_mode_t Cy_SMIF_GetMode(SMIF_Type const *base);
 623:Generated_Source\PSoC6\pdl\drivers\peripheral\smif/cy_smif.h **** cy_en_smif_status_t Cy_SMIF_TransmitCommand(SMIF_Type *base,
 624:Generated_Source\PSoC6\pdl\drivers\peripheral\smif/cy_smif.h ****                                 uint8_t cmd,
 625:Generated_Source\PSoC6\pdl\drivers\peripheral\smif/cy_smif.h ****                                 cy_en_smif_txfr_width_t cmdTxfrWidth,
 626:Generated_Source\PSoC6\pdl\drivers\peripheral\smif/cy_smif.h ****                                 uint8_t const cmdParam[], uint32_t paramSize,
 627:Generated_Source\PSoC6\pdl\drivers\peripheral\smif/cy_smif.h ****                                 cy_en_smif_txfr_width_t paramTxfrWidth,
 628:Generated_Source\PSoC6\pdl\drivers\peripheral\smif/cy_smif.h ****                                 cy_en_smif_slave_select_t slaveSelect, uint32_t cmpltTxfr,
 629:Generated_Source\PSoC6\pdl\drivers\peripheral\smif/cy_smif.h ****                                 cy_stc_smif_context_t const *context);
 630:Generated_Source\PSoC6\pdl\drivers\peripheral\smif/cy_smif.h **** cy_en_smif_status_t Cy_SMIF_TransmitData(SMIF_Type *base,
 631:Generated_Source\PSoC6\pdl\drivers\peripheral\smif/cy_smif.h ****                                 uint8_t *txBuffer, uint32_t size,
 632:Generated_Source\PSoC6\pdl\drivers\peripheral\smif/cy_smif.h ****                                 cy_en_smif_txfr_width_t transferWidth,
 633:Generated_Source\PSoC6\pdl\drivers\peripheral\smif/cy_smif.h ****                                 cy_smif_event_cb_t TxCmpltCb,
 634:Generated_Source\PSoC6\pdl\drivers\peripheral\smif/cy_smif.h ****                                 cy_stc_smif_context_t *context);
 635:Generated_Source\PSoC6\pdl\drivers\peripheral\smif/cy_smif.h **** cy_en_smif_status_t  Cy_SMIF_TransmitDataBlocking(SMIF_Type *base,
 636:Generated_Source\PSoC6\pdl\drivers\peripheral\smif/cy_smif.h ****                                 uint8_t *txBuffer,
 637:Generated_Source\PSoC6\pdl\drivers\peripheral\smif/cy_smif.h ****                                 uint32_t size,
 638:Generated_Source\PSoC6\pdl\drivers\peripheral\smif/cy_smif.h ****                                 cy_en_smif_txfr_width_t transferWidth,
 639:Generated_Source\PSoC6\pdl\drivers\peripheral\smif/cy_smif.h ****                                 cy_stc_smif_context_t const *context);
 640:Generated_Source\PSoC6\pdl\drivers\peripheral\smif/cy_smif.h **** cy_en_smif_status_t Cy_SMIF_ReceiveData(SMIF_Type *base,
 641:Generated_Source\PSoC6\pdl\drivers\peripheral\smif/cy_smif.h ****                                 uint8_t *rxBuffer, uint32_t size,
 642:Generated_Source\PSoC6\pdl\drivers\peripheral\smif/cy_smif.h ****                                 cy_en_smif_txfr_width_t transferWidth,
 643:Generated_Source\PSoC6\pdl\drivers\peripheral\smif/cy_smif.h ****                                 cy_smif_event_cb_t RxCmpltCb,
 644:Generated_Source\PSoC6\pdl\drivers\peripheral\smif/cy_smif.h ****                                 cy_stc_smif_context_t *context);
 645:Generated_Source\PSoC6\pdl\drivers\peripheral\smif/cy_smif.h **** cy_en_smif_status_t  Cy_SMIF_ReceiveDataBlocking(SMIF_Type *base,
 646:Generated_Source\PSoC6\pdl\drivers\peripheral\smif/cy_smif.h ****                                 uint8_t *rxBuffer,
 647:Generated_Source\PSoC6\pdl\drivers\peripheral\smif/cy_smif.h ****                                 uint32_t size,
 648:Generated_Source\PSoC6\pdl\drivers\peripheral\smif/cy_smif.h ****                                 cy_en_smif_txfr_width_t transferWidth,
 649:Generated_Source\PSoC6\pdl\drivers\peripheral\smif/cy_smif.h ****                                 cy_stc_smif_context_t const *context);
 650:Generated_Source\PSoC6\pdl\drivers\peripheral\smif/cy_smif.h **** cy_en_smif_status_t Cy_SMIF_SendDummyCycles(SMIF_Type *base, uint32_t cycles);
 651:Generated_Source\PSoC6\pdl\drivers\peripheral\smif/cy_smif.h **** uint32_t Cy_SMIF_GetTxfrStatus(SMIF_Type *base, cy_stc_smif_context_t const *context);
 652:Generated_Source\PSoC6\pdl\drivers\peripheral\smif/cy_smif.h **** void Cy_SMIF_Enable(SMIF_Type *base, cy_stc_smif_context_t *context);
 653:Generated_Source\PSoC6\pdl\drivers\peripheral\smif/cy_smif.h **** __STATIC_INLINE void Cy_SMIF_Disable(SMIF_Type *base);
 654:Generated_Source\PSoC6\pdl\drivers\peripheral\smif/cy_smif.h **** __STATIC_INLINE void  Cy_SMIF_SetInterruptMask(SMIF_Type *base, uint32_t interrupt);
 655:Generated_Source\PSoC6\pdl\drivers\peripheral\smif/cy_smif.h **** __STATIC_INLINE uint32_t  Cy_SMIF_GetInterruptMask(SMIF_Type const *base);
 656:Generated_Source\PSoC6\pdl\drivers\peripheral\smif/cy_smif.h **** __STATIC_INLINE uint32_t  Cy_SMIF_GetInterruptStatusMasked(SMIF_Type const *base);
 657:Generated_Source\PSoC6\pdl\drivers\peripheral\smif/cy_smif.h **** __STATIC_INLINE uint32_t  Cy_SMIF_GetInterruptStatus(SMIF_Type const *base);
 658:Generated_Source\PSoC6\pdl\drivers\peripheral\smif/cy_smif.h **** __STATIC_INLINE void  Cy_SMIF_SetInterrupt(SMIF_Type *base, uint32_t interrupt);
 659:Generated_Source\PSoC6\pdl\drivers\peripheral\smif/cy_smif.h **** __STATIC_INLINE void  Cy_SMIF_ClearInterrupt(SMIF_Type *base, uint32_t interrupt);
 660:Generated_Source\PSoC6\pdl\drivers\peripheral\smif/cy_smif.h **** __STATIC_INLINE void  Cy_SMIF_SetTxFifoTriggerLevel(SMIF_Type *base, uint32_t level);
 661:Generated_Source\PSoC6\pdl\drivers\peripheral\smif/cy_smif.h **** __STATIC_INLINE void  Cy_SMIF_SetRxFifoTriggerLevel(SMIF_Type *base, uint32_t level);
 662:Generated_Source\PSoC6\pdl\drivers\peripheral\smif/cy_smif.h **** __STATIC_INLINE uint32_t  Cy_SMIF_GetCmdFifoStatus(SMIF_Type const *base);
 663:Generated_Source\PSoC6\pdl\drivers\peripheral\smif/cy_smif.h **** __STATIC_INLINE uint32_t  Cy_SMIF_GetTxFifoStatus(SMIF_Type const *base);
 664:Generated_Source\PSoC6\pdl\drivers\peripheral\smif/cy_smif.h **** __STATIC_INLINE uint32_t  Cy_SMIF_GetRxFifoStatus(SMIF_Type const *base);
 665:Generated_Source\PSoC6\pdl\drivers\peripheral\smif/cy_smif.h **** cy_en_smif_status_t  Cy_SMIF_Encrypt(SMIF_Type *base,
 666:Generated_Source\PSoC6\pdl\drivers\peripheral\smif/cy_smif.h ****                                 uint32_t address,
 667:Generated_Source\PSoC6\pdl\drivers\peripheral\smif/cy_smif.h ****                                 uint8_t data[],
 668:Generated_Source\PSoC6\pdl\drivers\peripheral\smif/cy_smif.h ****                                 uint32_t size,
 669:Generated_Source\PSoC6\pdl\drivers\peripheral\smif/cy_smif.h ****                                 cy_stc_smif_context_t const *context);
 670:Generated_Source\PSoC6\pdl\drivers\peripheral\smif/cy_smif.h **** __STATIC_INLINE bool Cy_SMIF_BusyCheck(SMIF_Type const *base);
 671:Generated_Source\PSoC6\pdl\drivers\peripheral\smif/cy_smif.h **** __STATIC_INLINE void Cy_SMIF_Interrupt(SMIF_Type *base, cy_stc_smif_context_t *context);
ARM GAS  C:\Users\ikomb\AppData\Local\Temp\cc5YtlHT.s 			page 58


 672:Generated_Source\PSoC6\pdl\drivers\peripheral\smif/cy_smif.h **** cy_en_smif_status_t Cy_SMIF_CacheEnable(SMIF_Type *base, cy_en_smif_cache_en_t cacheType);
 673:Generated_Source\PSoC6\pdl\drivers\peripheral\smif/cy_smif.h **** cy_en_smif_status_t Cy_SMIF_CacheDisable(SMIF_Type *base, cy_en_smif_cache_en_t cacheType);
 674:Generated_Source\PSoC6\pdl\drivers\peripheral\smif/cy_smif.h **** cy_en_smif_status_t Cy_SMIF_CachePrefetchingEnable(SMIF_Type *base, cy_en_smif_cache_en_t cacheType
 675:Generated_Source\PSoC6\pdl\drivers\peripheral\smif/cy_smif.h **** cy_en_smif_status_t Cy_SMIF_CachePrefetchingDisable(SMIF_Type *base, cy_en_smif_cache_en_t cacheTyp
 676:Generated_Source\PSoC6\pdl\drivers\peripheral\smif/cy_smif.h **** cy_en_smif_status_t Cy_SMIF_CacheInvalidate(SMIF_Type *base, cy_en_smif_cache_en_t cacheType);
 677:Generated_Source\PSoC6\pdl\drivers\peripheral\smif/cy_smif.h **** 
 678:Generated_Source\PSoC6\pdl\drivers\peripheral\smif/cy_smif.h **** /** \addtogroup group_smif_functions_syspm_callback
 679:Generated_Source\PSoC6\pdl\drivers\peripheral\smif/cy_smif.h **** * The driver supports SysPm callback for Deep Sleep and Hibernate transition.
 680:Generated_Source\PSoC6\pdl\drivers\peripheral\smif/cy_smif.h **** * \{
 681:Generated_Source\PSoC6\pdl\drivers\peripheral\smif/cy_smif.h **** */
 682:Generated_Source\PSoC6\pdl\drivers\peripheral\smif/cy_smif.h **** cy_en_syspm_status_t Cy_SMIF_DeepSleepCallback(cy_stc_syspm_callback_params_t *callbackParams);
 683:Generated_Source\PSoC6\pdl\drivers\peripheral\smif/cy_smif.h **** cy_en_syspm_status_t Cy_SMIF_HibernateCallback(cy_stc_syspm_callback_params_t *callbackParams);
 684:Generated_Source\PSoC6\pdl\drivers\peripheral\smif/cy_smif.h **** /** \} */
 685:Generated_Source\PSoC6\pdl\drivers\peripheral\smif/cy_smif.h **** 
 686:Generated_Source\PSoC6\pdl\drivers\peripheral\smif/cy_smif.h **** 
 687:Generated_Source\PSoC6\pdl\drivers\peripheral\smif/cy_smif.h **** /***************************************
 688:Generated_Source\PSoC6\pdl\drivers\peripheral\smif/cy_smif.h **** *  Internal SMIF function declarations
 689:Generated_Source\PSoC6\pdl\drivers\peripheral\smif/cy_smif.h **** ****************************************/
 690:Generated_Source\PSoC6\pdl\drivers\peripheral\smif/cy_smif.h **** /** \cond INTERNAL */
 691:Generated_Source\PSoC6\pdl\drivers\peripheral\smif/cy_smif.h **** __STATIC_INLINE void Cy_SMIF_PushTxFifo(SMIF_Type *baseaddr, cy_stc_smif_context_t *context);      
 692:Generated_Source\PSoC6\pdl\drivers\peripheral\smif/cy_smif.h **** __STATIC_INLINE void Cy_SMIF_PopRxFifo(SMIF_Type *baseaddr, cy_stc_smif_context_t *context);       
 693:Generated_Source\PSoC6\pdl\drivers\peripheral\smif/cy_smif.h **** __STATIC_INLINE uint32_t Cy_SMIF_PackBytesArray(uint8_t const buff[], bool fourBytes);
 694:Generated_Source\PSoC6\pdl\drivers\peripheral\smif/cy_smif.h **** __STATIC_INLINE void Cy_SMIF_UnPackByteArray(uint32_t inValue, uint8_t outBuff[], bool fourBytes);
 695:Generated_Source\PSoC6\pdl\drivers\peripheral\smif/cy_smif.h **** __STATIC_INLINE cy_en_smif_status_t Cy_SMIF_TimeoutRun(uint32_t *timeoutUnits);
 696:Generated_Source\PSoC6\pdl\drivers\peripheral\smif/cy_smif.h **** __STATIC_INLINE SMIF_DEVICE_Type volatile * Cy_SMIF_GetDeviceBySlot(SMIF_Type *base,
 697:Generated_Source\PSoC6\pdl\drivers\peripheral\smif/cy_smif.h ****                                 cy_en_smif_slave_select_t slaveSelect);
 698:Generated_Source\PSoC6\pdl\drivers\peripheral\smif/cy_smif.h **** /** \endcond*/
 699:Generated_Source\PSoC6\pdl\drivers\peripheral\smif/cy_smif.h **** 
 700:Generated_Source\PSoC6\pdl\drivers\peripheral\smif/cy_smif.h **** /** \} group_smif_low_level_functions */
 701:Generated_Source\PSoC6\pdl\drivers\peripheral\smif/cy_smif.h **** 
 702:Generated_Source\PSoC6\pdl\drivers\peripheral\smif/cy_smif.h **** 
 703:Generated_Source\PSoC6\pdl\drivers\peripheral\smif/cy_smif.h **** /**
 704:Generated_Source\PSoC6\pdl\drivers\peripheral\smif/cy_smif.h **** * \addtogroup group_smif_low_level_functions
 705:Generated_Source\PSoC6\pdl\drivers\peripheral\smif/cy_smif.h **** * \{
 706:Generated_Source\PSoC6\pdl\drivers\peripheral\smif/cy_smif.h **** */
 707:Generated_Source\PSoC6\pdl\drivers\peripheral\smif/cy_smif.h **** 
 708:Generated_Source\PSoC6\pdl\drivers\peripheral\smif/cy_smif.h **** /*******************************************************************************
 709:Generated_Source\PSoC6\pdl\drivers\peripheral\smif/cy_smif.h **** * Function Name: Cy_SMIF_Disable
 710:Generated_Source\PSoC6\pdl\drivers\peripheral\smif/cy_smif.h **** ****************************************************************************//**
 711:Generated_Source\PSoC6\pdl\drivers\peripheral\smif/cy_smif.h **** *
 712:Generated_Source\PSoC6\pdl\drivers\peripheral\smif/cy_smif.h **** * Disables the operation of the SMIF block. The SMIF block can be disabled only
 713:Generated_Source\PSoC6\pdl\drivers\peripheral\smif/cy_smif.h **** * when it is not in the active state. Use the Cy_SMIF_BusyCheck() API to check
 714:Generated_Source\PSoC6\pdl\drivers\peripheral\smif/cy_smif.h **** * it before calling this API.
 715:Generated_Source\PSoC6\pdl\drivers\peripheral\smif/cy_smif.h **** *
 716:Generated_Source\PSoC6\pdl\drivers\peripheral\smif/cy_smif.h **** * \param base
 717:Generated_Source\PSoC6\pdl\drivers\peripheral\smif/cy_smif.h **** * Holds the base address of the SMIF block registers.
 718:Generated_Source\PSoC6\pdl\drivers\peripheral\smif/cy_smif.h **** *
 719:Generated_Source\PSoC6\pdl\drivers\peripheral\smif/cy_smif.h **** *******************************************************************************/
 720:Generated_Source\PSoC6\pdl\drivers\peripheral\smif/cy_smif.h **** __STATIC_INLINE void Cy_SMIF_Disable(SMIF_Type *base)
 721:Generated_Source\PSoC6\pdl\drivers\peripheral\smif/cy_smif.h **** {
 722:Generated_Source\PSoC6\pdl\drivers\peripheral\smif/cy_smif.h ****     base->CTL &= ~SMIF_CTL_ENABLED_Msk;
 723:Generated_Source\PSoC6\pdl\drivers\peripheral\smif/cy_smif.h **** 
 724:Generated_Source\PSoC6\pdl\drivers\peripheral\smif/cy_smif.h ****     /* The void Read of the CTL register to handle buffering */
 725:Generated_Source\PSoC6\pdl\drivers\peripheral\smif/cy_smif.h ****     (void) base->CTL;
 726:Generated_Source\PSoC6\pdl\drivers\peripheral\smif/cy_smif.h **** }
 727:Generated_Source\PSoC6\pdl\drivers\peripheral\smif/cy_smif.h **** 
 728:Generated_Source\PSoC6\pdl\drivers\peripheral\smif/cy_smif.h **** 
ARM GAS  C:\Users\ikomb\AppData\Local\Temp\cc5YtlHT.s 			page 59


 729:Generated_Source\PSoC6\pdl\drivers\peripheral\smif/cy_smif.h **** /*******************************************************************************
 730:Generated_Source\PSoC6\pdl\drivers\peripheral\smif/cy_smif.h **** * Function Name: Cy_SMIF_SetInterruptMask
 731:Generated_Source\PSoC6\pdl\drivers\peripheral\smif/cy_smif.h **** ****************************************************************************//**
 732:Generated_Source\PSoC6\pdl\drivers\peripheral\smif/cy_smif.h **** *
 733:Generated_Source\PSoC6\pdl\drivers\peripheral\smif/cy_smif.h **** * This function is used to set an interrupt mask for the SMIF Interrupt.
 734:Generated_Source\PSoC6\pdl\drivers\peripheral\smif/cy_smif.h **** *
 735:Generated_Source\PSoC6\pdl\drivers\peripheral\smif/cy_smif.h **** * \param base
 736:Generated_Source\PSoC6\pdl\drivers\peripheral\smif/cy_smif.h **** * Holds the base address of the SMIF block registers.
 737:Generated_Source\PSoC6\pdl\drivers\peripheral\smif/cy_smif.h **** *
 738:Generated_Source\PSoC6\pdl\drivers\peripheral\smif/cy_smif.h **** * \param interrupt
 739:Generated_Source\PSoC6\pdl\drivers\peripheral\smif/cy_smif.h **** * This is the mask for different source options that can be masked. See
 740:Generated_Source\PSoC6\pdl\drivers\peripheral\smif/cy_smif.h **** * \ref group_smif_macros_isr "Interrupt Macros" for possible values.
 741:Generated_Source\PSoC6\pdl\drivers\peripheral\smif/cy_smif.h **** *
 742:Generated_Source\PSoC6\pdl\drivers\peripheral\smif/cy_smif.h **** *******************************************************************************/
 743:Generated_Source\PSoC6\pdl\drivers\peripheral\smif/cy_smif.h **** __STATIC_INLINE void  Cy_SMIF_SetInterruptMask(SMIF_Type *base, uint32_t interrupt)
 744:Generated_Source\PSoC6\pdl\drivers\peripheral\smif/cy_smif.h **** {
 745:Generated_Source\PSoC6\pdl\drivers\peripheral\smif/cy_smif.h ****     base->INTR_MASK = interrupt;
 746:Generated_Source\PSoC6\pdl\drivers\peripheral\smif/cy_smif.h **** }
 747:Generated_Source\PSoC6\pdl\drivers\peripheral\smif/cy_smif.h **** 
 748:Generated_Source\PSoC6\pdl\drivers\peripheral\smif/cy_smif.h **** 
 749:Generated_Source\PSoC6\pdl\drivers\peripheral\smif/cy_smif.h **** /*******************************************************************************
 750:Generated_Source\PSoC6\pdl\drivers\peripheral\smif/cy_smif.h **** * Function Name: Cy_SMIF_GetInterruptMask
 751:Generated_Source\PSoC6\pdl\drivers\peripheral\smif/cy_smif.h **** ****************************************************************************//**
 752:Generated_Source\PSoC6\pdl\drivers\peripheral\smif/cy_smif.h **** *
 753:Generated_Source\PSoC6\pdl\drivers\peripheral\smif/cy_smif.h **** * This function is used to read an interrupt mask for the SMIF Interrupt.
 754:Generated_Source\PSoC6\pdl\drivers\peripheral\smif/cy_smif.h **** *
 755:Generated_Source\PSoC6\pdl\drivers\peripheral\smif/cy_smif.h **** * \param base
 756:Generated_Source\PSoC6\pdl\drivers\peripheral\smif/cy_smif.h **** * Holds the base address of the SMIF block registers.
 757:Generated_Source\PSoC6\pdl\drivers\peripheral\smif/cy_smif.h **** *
 758:Generated_Source\PSoC6\pdl\drivers\peripheral\smif/cy_smif.h **** * \return Returns the mask set for the SMIF interrupt.
 759:Generated_Source\PSoC6\pdl\drivers\peripheral\smif/cy_smif.h **** *
 760:Generated_Source\PSoC6\pdl\drivers\peripheral\smif/cy_smif.h **** *******************************************************************************/
 761:Generated_Source\PSoC6\pdl\drivers\peripheral\smif/cy_smif.h **** __STATIC_INLINE uint32_t  Cy_SMIF_GetInterruptMask(SMIF_Type const *base)
 762:Generated_Source\PSoC6\pdl\drivers\peripheral\smif/cy_smif.h **** {
 763:Generated_Source\PSoC6\pdl\drivers\peripheral\smif/cy_smif.h ****   return (base->INTR_MASK);
 764:Generated_Source\PSoC6\pdl\drivers\peripheral\smif/cy_smif.h **** }
 765:Generated_Source\PSoC6\pdl\drivers\peripheral\smif/cy_smif.h **** 
 766:Generated_Source\PSoC6\pdl\drivers\peripheral\smif/cy_smif.h **** 
 767:Generated_Source\PSoC6\pdl\drivers\peripheral\smif/cy_smif.h **** /*******************************************************************************
 768:Generated_Source\PSoC6\pdl\drivers\peripheral\smif/cy_smif.h **** * Function Name: Cy_SMIF_GetInterruptStatusMasked
 769:Generated_Source\PSoC6\pdl\drivers\peripheral\smif/cy_smif.h **** ****************************************************************************//**
 770:Generated_Source\PSoC6\pdl\drivers\peripheral\smif/cy_smif.h **** *
 771:Generated_Source\PSoC6\pdl\drivers\peripheral\smif/cy_smif.h **** * This function is used to read an active masked interrupt. This function can
 772:Generated_Source\PSoC6\pdl\drivers\peripheral\smif/cy_smif.h **** * be used in the interrupt service-routine to find which source triggered the
 773:Generated_Source\PSoC6\pdl\drivers\peripheral\smif/cy_smif.h **** * interrupt.
 774:Generated_Source\PSoC6\pdl\drivers\peripheral\smif/cy_smif.h **** *
 775:Generated_Source\PSoC6\pdl\drivers\peripheral\smif/cy_smif.h **** * \param base
 776:Generated_Source\PSoC6\pdl\drivers\peripheral\smif/cy_smif.h **** * Holds the base address of the SMIF block registers.
 777:Generated_Source\PSoC6\pdl\drivers\peripheral\smif/cy_smif.h **** *
 778:Generated_Source\PSoC6\pdl\drivers\peripheral\smif/cy_smif.h **** * \return Returns a word with bits set at positions corresponding to the
 779:Generated_Source\PSoC6\pdl\drivers\peripheral\smif/cy_smif.h **** * interrupts triggered in the system.
 780:Generated_Source\PSoC6\pdl\drivers\peripheral\smif/cy_smif.h **** *
 781:Generated_Source\PSoC6\pdl\drivers\peripheral\smif/cy_smif.h **** *******************************************************************************/
 782:Generated_Source\PSoC6\pdl\drivers\peripheral\smif/cy_smif.h **** __STATIC_INLINE uint32_t  Cy_SMIF_GetInterruptStatusMasked(SMIF_Type const *base)
 783:Generated_Source\PSoC6\pdl\drivers\peripheral\smif/cy_smif.h **** {
 784:Generated_Source\PSoC6\pdl\drivers\peripheral\smif/cy_smif.h ****   return (base->INTR_MASKED);
 785:Generated_Source\PSoC6\pdl\drivers\peripheral\smif/cy_smif.h **** }
ARM GAS  C:\Users\ikomb\AppData\Local\Temp\cc5YtlHT.s 			page 60


 786:Generated_Source\PSoC6\pdl\drivers\peripheral\smif/cy_smif.h **** 
 787:Generated_Source\PSoC6\pdl\drivers\peripheral\smif/cy_smif.h **** 
 788:Generated_Source\PSoC6\pdl\drivers\peripheral\smif/cy_smif.h **** /*******************************************************************************
 789:Generated_Source\PSoC6\pdl\drivers\peripheral\smif/cy_smif.h **** * Function Name: Cy_SMIF_GetInterruptStatus
 790:Generated_Source\PSoC6\pdl\drivers\peripheral\smif/cy_smif.h **** ****************************************************************************//**
 791:Generated_Source\PSoC6\pdl\drivers\peripheral\smif/cy_smif.h **** *
 792:Generated_Source\PSoC6\pdl\drivers\peripheral\smif/cy_smif.h **** * This function is used to read an active interrupt. This status is the unmasked
 793:Generated_Source\PSoC6\pdl\drivers\peripheral\smif/cy_smif.h **** * result, so will also show interrupts that will not generate active interrupts.
 794:Generated_Source\PSoC6\pdl\drivers\peripheral\smif/cy_smif.h **** *
 795:Generated_Source\PSoC6\pdl\drivers\peripheral\smif/cy_smif.h **** * \param base
 796:Generated_Source\PSoC6\pdl\drivers\peripheral\smif/cy_smif.h **** * Holds the base address of the SMIF block registers.
 797:Generated_Source\PSoC6\pdl\drivers\peripheral\smif/cy_smif.h **** *
 798:Generated_Source\PSoC6\pdl\drivers\peripheral\smif/cy_smif.h **** * \return Returns a word with bits set at positions corresponding to the
 799:Generated_Source\PSoC6\pdl\drivers\peripheral\smif/cy_smif.h **** * interrupts triggered in the system.
 800:Generated_Source\PSoC6\pdl\drivers\peripheral\smif/cy_smif.h **** *
 801:Generated_Source\PSoC6\pdl\drivers\peripheral\smif/cy_smif.h **** *******************************************************************************/
 802:Generated_Source\PSoC6\pdl\drivers\peripheral\smif/cy_smif.h **** __STATIC_INLINE uint32_t  Cy_SMIF_GetInterruptStatus(SMIF_Type const *base)
 803:Generated_Source\PSoC6\pdl\drivers\peripheral\smif/cy_smif.h **** {
 804:Generated_Source\PSoC6\pdl\drivers\peripheral\smif/cy_smif.h ****   return (base->INTR);
 805:Generated_Source\PSoC6\pdl\drivers\peripheral\smif/cy_smif.h **** }
 806:Generated_Source\PSoC6\pdl\drivers\peripheral\smif/cy_smif.h **** 
 807:Generated_Source\PSoC6\pdl\drivers\peripheral\smif/cy_smif.h **** 
 808:Generated_Source\PSoC6\pdl\drivers\peripheral\smif/cy_smif.h **** /*******************************************************************************
 809:Generated_Source\PSoC6\pdl\drivers\peripheral\smif/cy_smif.h **** * Function Name: Cy_SMIF_SetInterrupt
 810:Generated_Source\PSoC6\pdl\drivers\peripheral\smif/cy_smif.h **** ****************************************************************************//**
 811:Generated_Source\PSoC6\pdl\drivers\peripheral\smif/cy_smif.h **** *
 812:Generated_Source\PSoC6\pdl\drivers\peripheral\smif/cy_smif.h **** * This function is used to set an interrupt source. This function can be used
 813:Generated_Source\PSoC6\pdl\drivers\peripheral\smif/cy_smif.h **** * to activate interrupts through the software.
 814:Generated_Source\PSoC6\pdl\drivers\peripheral\smif/cy_smif.h **** *
 815:Generated_Source\PSoC6\pdl\drivers\peripheral\smif/cy_smif.h **** * \note Interrupt sources set using this interrupt will generate interrupts only
 816:Generated_Source\PSoC6\pdl\drivers\peripheral\smif/cy_smif.h **** * if they are not masked.
 817:Generated_Source\PSoC6\pdl\drivers\peripheral\smif/cy_smif.h **** *
 818:Generated_Source\PSoC6\pdl\drivers\peripheral\smif/cy_smif.h **** * \param base
 819:Generated_Source\PSoC6\pdl\drivers\peripheral\smif/cy_smif.h **** * Holds the base address of the SMIF block registers.
 820:Generated_Source\PSoC6\pdl\drivers\peripheral\smif/cy_smif.h **** *
 821:Generated_Source\PSoC6\pdl\drivers\peripheral\smif/cy_smif.h **** * \param interrupt
 822:Generated_Source\PSoC6\pdl\drivers\peripheral\smif/cy_smif.h **** * An encoded integer with a bit set corresponding to the interrupt to be
 823:Generated_Source\PSoC6\pdl\drivers\peripheral\smif/cy_smif.h **** * triggered. See \ref group_smif_macros_isr "Interrupt Macros" for possible
 824:Generated_Source\PSoC6\pdl\drivers\peripheral\smif/cy_smif.h **** * values.
 825:Generated_Source\PSoC6\pdl\drivers\peripheral\smif/cy_smif.h **** *
 826:Generated_Source\PSoC6\pdl\drivers\peripheral\smif/cy_smif.h **** *******************************************************************************/
 827:Generated_Source\PSoC6\pdl\drivers\peripheral\smif/cy_smif.h **** __STATIC_INLINE void  Cy_SMIF_SetInterrupt(SMIF_Type *base, uint32_t interrupt)
 828:Generated_Source\PSoC6\pdl\drivers\peripheral\smif/cy_smif.h **** {
 829:Generated_Source\PSoC6\pdl\drivers\peripheral\smif/cy_smif.h ****     base->INTR_SET = interrupt;
 830:Generated_Source\PSoC6\pdl\drivers\peripheral\smif/cy_smif.h **** }
 831:Generated_Source\PSoC6\pdl\drivers\peripheral\smif/cy_smif.h **** 
 832:Generated_Source\PSoC6\pdl\drivers\peripheral\smif/cy_smif.h **** 
 833:Generated_Source\PSoC6\pdl\drivers\peripheral\smif/cy_smif.h **** /*******************************************************************************
 834:Generated_Source\PSoC6\pdl\drivers\peripheral\smif/cy_smif.h **** * Function Name: Cy_SMIF_ClearInterrupt
 835:Generated_Source\PSoC6\pdl\drivers\peripheral\smif/cy_smif.h **** ****************************************************************************//**
 836:Generated_Source\PSoC6\pdl\drivers\peripheral\smif/cy_smif.h **** *
 837:Generated_Source\PSoC6\pdl\drivers\peripheral\smif/cy_smif.h **** * This function is used to clear an interrupt source. This function can be used
 838:Generated_Source\PSoC6\pdl\drivers\peripheral\smif/cy_smif.h **** * in the user code to clear all pending interrupts.
 839:Generated_Source\PSoC6\pdl\drivers\peripheral\smif/cy_smif.h **** *
 840:Generated_Source\PSoC6\pdl\drivers\peripheral\smif/cy_smif.h **** * \param base
 841:Generated_Source\PSoC6\pdl\drivers\peripheral\smif/cy_smif.h **** * Holds the base address of the SMIF block registers.
 842:Generated_Source\PSoC6\pdl\drivers\peripheral\smif/cy_smif.h **** *
ARM GAS  C:\Users\ikomb\AppData\Local\Temp\cc5YtlHT.s 			page 61


 843:Generated_Source\PSoC6\pdl\drivers\peripheral\smif/cy_smif.h **** * \param interrupt
 844:Generated_Source\PSoC6\pdl\drivers\peripheral\smif/cy_smif.h **** * An encoded integer with a bit set corresponding to the interrupt that must
 845:Generated_Source\PSoC6\pdl\drivers\peripheral\smif/cy_smif.h **** * be cleared. See \ref group_smif_macros_isr "Interrupt Macros" for possible
 846:Generated_Source\PSoC6\pdl\drivers\peripheral\smif/cy_smif.h **** * values.
 847:Generated_Source\PSoC6\pdl\drivers\peripheral\smif/cy_smif.h **** *
 848:Generated_Source\PSoC6\pdl\drivers\peripheral\smif/cy_smif.h **** *******************************************************************************/
 849:Generated_Source\PSoC6\pdl\drivers\peripheral\smif/cy_smif.h **** __STATIC_INLINE void  Cy_SMIF_ClearInterrupt(SMIF_Type *base, uint32_t interrupt)
 850:Generated_Source\PSoC6\pdl\drivers\peripheral\smif/cy_smif.h **** {
 851:Generated_Source\PSoC6\pdl\drivers\peripheral\smif/cy_smif.h ****     base->INTR = interrupt;
 852:Generated_Source\PSoC6\pdl\drivers\peripheral\smif/cy_smif.h ****     /* Ensure that the initial Write has been flushed out to the hardware. */
 853:Generated_Source\PSoC6\pdl\drivers\peripheral\smif/cy_smif.h ****     interrupt = base->INTR;
 854:Generated_Source\PSoC6\pdl\drivers\peripheral\smif/cy_smif.h **** }
 855:Generated_Source\PSoC6\pdl\drivers\peripheral\smif/cy_smif.h **** 
 856:Generated_Source\PSoC6\pdl\drivers\peripheral\smif/cy_smif.h **** 
 857:Generated_Source\PSoC6\pdl\drivers\peripheral\smif/cy_smif.h **** /*******************************************************************************
 858:Generated_Source\PSoC6\pdl\drivers\peripheral\smif/cy_smif.h **** * Function Name: Cy_SMIF_SetTxFifoTriggerLevel()
 859:Generated_Source\PSoC6\pdl\drivers\peripheral\smif/cy_smif.h **** ****************************************************************************//**
 860:Generated_Source\PSoC6\pdl\drivers\peripheral\smif/cy_smif.h **** *
 861:Generated_Source\PSoC6\pdl\drivers\peripheral\smif/cy_smif.h **** * This function is used to set a trigger level for the TX FIFO. This value must
 862:Generated_Source\PSoC6\pdl\drivers\peripheral\smif/cy_smif.h **** * be an integer between 0 and 7. For the normal mode only.
 863:Generated_Source\PSoC6\pdl\drivers\peripheral\smif/cy_smif.h **** * The triggering is active when TX_DATA_FIFO_STATUS <= level.
 864:Generated_Source\PSoC6\pdl\drivers\peripheral\smif/cy_smif.h **** *
 865:Generated_Source\PSoC6\pdl\drivers\peripheral\smif/cy_smif.h **** * \param base
 866:Generated_Source\PSoC6\pdl\drivers\peripheral\smif/cy_smif.h **** * Holds the base address of the SMIF block registers.
 867:Generated_Source\PSoC6\pdl\drivers\peripheral\smif/cy_smif.h **** *
 868:Generated_Source\PSoC6\pdl\drivers\peripheral\smif/cy_smif.h **** * \param level
 869:Generated_Source\PSoC6\pdl\drivers\peripheral\smif/cy_smif.h **** * The trigger level to set (0-8).
 870:Generated_Source\PSoC6\pdl\drivers\peripheral\smif/cy_smif.h **** *
 871:Generated_Source\PSoC6\pdl\drivers\peripheral\smif/cy_smif.h **** *******************************************************************************/
 872:Generated_Source\PSoC6\pdl\drivers\peripheral\smif/cy_smif.h **** __STATIC_INLINE void  Cy_SMIF_SetTxFifoTriggerLevel(SMIF_Type *base, uint32_t level)
 873:Generated_Source\PSoC6\pdl\drivers\peripheral\smif/cy_smif.h **** {
 874:Generated_Source\PSoC6\pdl\drivers\peripheral\smif/cy_smif.h ****     CY_ASSERT_L2(level <= CY_SMIF_MAX_TX_TR_LEVEL);
 875:Generated_Source\PSoC6\pdl\drivers\peripheral\smif/cy_smif.h ****     base->TX_DATA_FIFO_CTL = level;
 876:Generated_Source\PSoC6\pdl\drivers\peripheral\smif/cy_smif.h **** }
 877:Generated_Source\PSoC6\pdl\drivers\peripheral\smif/cy_smif.h **** 
 878:Generated_Source\PSoC6\pdl\drivers\peripheral\smif/cy_smif.h **** 
 879:Generated_Source\PSoC6\pdl\drivers\peripheral\smif/cy_smif.h **** /*******************************************************************************
 880:Generated_Source\PSoC6\pdl\drivers\peripheral\smif/cy_smif.h **** * Function Name: Cy_SMIF_SetRxFifoTriggerLevel()
 881:Generated_Source\PSoC6\pdl\drivers\peripheral\smif/cy_smif.h **** ****************************************************************************//**
 882:Generated_Source\PSoC6\pdl\drivers\peripheral\smif/cy_smif.h **** *
 883:Generated_Source\PSoC6\pdl\drivers\peripheral\smif/cy_smif.h **** * This function is used to set a trigger level for the RX FIFO. This value must
 884:Generated_Source\PSoC6\pdl\drivers\peripheral\smif/cy_smif.h **** * be an integer between 0 and 7. For the normal mode only.
 885:Generated_Source\PSoC6\pdl\drivers\peripheral\smif/cy_smif.h **** * The triggering is active when RX_DATA_FIFOSTATUS > level.
 886:Generated_Source\PSoC6\pdl\drivers\peripheral\smif/cy_smif.h **** *
 887:Generated_Source\PSoC6\pdl\drivers\peripheral\smif/cy_smif.h **** * \param base
 888:Generated_Source\PSoC6\pdl\drivers\peripheral\smif/cy_smif.h **** * Holds the base address of the SMIF block registers.
 889:Generated_Source\PSoC6\pdl\drivers\peripheral\smif/cy_smif.h **** *
 890:Generated_Source\PSoC6\pdl\drivers\peripheral\smif/cy_smif.h **** * \param level
 891:Generated_Source\PSoC6\pdl\drivers\peripheral\smif/cy_smif.h **** * The trigger level to set(0-8).
 892:Generated_Source\PSoC6\pdl\drivers\peripheral\smif/cy_smif.h **** *
 893:Generated_Source\PSoC6\pdl\drivers\peripheral\smif/cy_smif.h **** *******************************************************************************/
 894:Generated_Source\PSoC6\pdl\drivers\peripheral\smif/cy_smif.h **** __STATIC_INLINE void  Cy_SMIF_SetRxFifoTriggerLevel(SMIF_Type *base, uint32_t level)
 895:Generated_Source\PSoC6\pdl\drivers\peripheral\smif/cy_smif.h **** {
 896:Generated_Source\PSoC6\pdl\drivers\peripheral\smif/cy_smif.h ****     CY_ASSERT_L2(level <= CY_SMIF_MAX_RX_TR_LEVEL);
 897:Generated_Source\PSoC6\pdl\drivers\peripheral\smif/cy_smif.h ****     base->RX_DATA_FIFO_CTL = level;
 898:Generated_Source\PSoC6\pdl\drivers\peripheral\smif/cy_smif.h **** }
 899:Generated_Source\PSoC6\pdl\drivers\peripheral\smif/cy_smif.h **** 
ARM GAS  C:\Users\ikomb\AppData\Local\Temp\cc5YtlHT.s 			page 62


 900:Generated_Source\PSoC6\pdl\drivers\peripheral\smif/cy_smif.h **** 
 901:Generated_Source\PSoC6\pdl\drivers\peripheral\smif/cy_smif.h **** /*******************************************************************************
 902:Generated_Source\PSoC6\pdl\drivers\peripheral\smif/cy_smif.h **** * Function Name: Cy_SMIF_GetCmdFifoStatus()
 903:Generated_Source\PSoC6\pdl\drivers\peripheral\smif/cy_smif.h **** ****************************************************************************//**
 904:Generated_Source\PSoC6\pdl\drivers\peripheral\smif/cy_smif.h **** *
 905:Generated_Source\PSoC6\pdl\drivers\peripheral\smif/cy_smif.h **** * This function is used to read the status of the CMD FIFO.
 906:Generated_Source\PSoC6\pdl\drivers\peripheral\smif/cy_smif.h **** *
 907:Generated_Source\PSoC6\pdl\drivers\peripheral\smif/cy_smif.h **** * \param base
 908:Generated_Source\PSoC6\pdl\drivers\peripheral\smif/cy_smif.h **** * Holds the base address of the SMIF block registers.
 909:Generated_Source\PSoC6\pdl\drivers\peripheral\smif/cy_smif.h **** *
 910:Generated_Source\PSoC6\pdl\drivers\peripheral\smif/cy_smif.h **** * \return Returns the number of the entries in the CMD FIFO.
 911:Generated_Source\PSoC6\pdl\drivers\peripheral\smif/cy_smif.h **** *
 912:Generated_Source\PSoC6\pdl\drivers\peripheral\smif/cy_smif.h **** *******************************************************************************/
 913:Generated_Source\PSoC6\pdl\drivers\peripheral\smif/cy_smif.h **** __STATIC_INLINE uint32_t  Cy_SMIF_GetCmdFifoStatus(SMIF_Type const *base)
 914:Generated_Source\PSoC6\pdl\drivers\peripheral\smif/cy_smif.h **** {
 915:Generated_Source\PSoC6\pdl\drivers\peripheral\smif/cy_smif.h ****   return (_FLD2VAL(SMIF_TX_CMD_FIFO_STATUS_USED3, base->TX_CMD_FIFO_STATUS));
 916:Generated_Source\PSoC6\pdl\drivers\peripheral\smif/cy_smif.h **** }
 917:Generated_Source\PSoC6\pdl\drivers\peripheral\smif/cy_smif.h **** 
 918:Generated_Source\PSoC6\pdl\drivers\peripheral\smif/cy_smif.h **** 
 919:Generated_Source\PSoC6\pdl\drivers\peripheral\smif/cy_smif.h **** /*******************************************************************************
 920:Generated_Source\PSoC6\pdl\drivers\peripheral\smif/cy_smif.h **** * Function Name: Cy_SMIF_GetTxFifoStatus()
 921:Generated_Source\PSoC6\pdl\drivers\peripheral\smif/cy_smif.h **** ****************************************************************************//**
 922:Generated_Source\PSoC6\pdl\drivers\peripheral\smif/cy_smif.h **** *
 923:Generated_Source\PSoC6\pdl\drivers\peripheral\smif/cy_smif.h **** * This function is used to read the status of the TX FIFO.
 924:Generated_Source\PSoC6\pdl\drivers\peripheral\smif/cy_smif.h **** *
 925:Generated_Source\PSoC6\pdl\drivers\peripheral\smif/cy_smif.h **** * \param base
 926:Generated_Source\PSoC6\pdl\drivers\peripheral\smif/cy_smif.h **** * Holds the base address of the SMIF block registers.
 927:Generated_Source\PSoC6\pdl\drivers\peripheral\smif/cy_smif.h **** *
 928:Generated_Source\PSoC6\pdl\drivers\peripheral\smif/cy_smif.h **** * \return Returns the number of the entries in the TX FIFO.
 929:Generated_Source\PSoC6\pdl\drivers\peripheral\smif/cy_smif.h **** *
 930:Generated_Source\PSoC6\pdl\drivers\peripheral\smif/cy_smif.h **** *******************************************************************************/
 931:Generated_Source\PSoC6\pdl\drivers\peripheral\smif/cy_smif.h **** __STATIC_INLINE uint32_t  Cy_SMIF_GetTxFifoStatus(SMIF_Type const *base)
 932:Generated_Source\PSoC6\pdl\drivers\peripheral\smif/cy_smif.h **** {
 933:Generated_Source\PSoC6\pdl\drivers\peripheral\smif/cy_smif.h ****   return (_FLD2VAL(SMIF_TX_DATA_FIFO_STATUS_USED4, base->TX_DATA_FIFO_STATUS));
 934:Generated_Source\PSoC6\pdl\drivers\peripheral\smif/cy_smif.h **** }
 935:Generated_Source\PSoC6\pdl\drivers\peripheral\smif/cy_smif.h **** 
 936:Generated_Source\PSoC6\pdl\drivers\peripheral\smif/cy_smif.h **** 
 937:Generated_Source\PSoC6\pdl\drivers\peripheral\smif/cy_smif.h **** /*******************************************************************************
 938:Generated_Source\PSoC6\pdl\drivers\peripheral\smif/cy_smif.h **** * Function Name: Cy_SMIF_GetRxFifoStatus()
 939:Generated_Source\PSoC6\pdl\drivers\peripheral\smif/cy_smif.h **** ****************************************************************************//**
 940:Generated_Source\PSoC6\pdl\drivers\peripheral\smif/cy_smif.h **** *
 941:Generated_Source\PSoC6\pdl\drivers\peripheral\smif/cy_smif.h **** * This function is used to read the status of the RX FIFO.
 942:Generated_Source\PSoC6\pdl\drivers\peripheral\smif/cy_smif.h **** *
 943:Generated_Source\PSoC6\pdl\drivers\peripheral\smif/cy_smif.h **** * \param base
 944:Generated_Source\PSoC6\pdl\drivers\peripheral\smif/cy_smif.h **** * Holds the base address of the SMIF block registers.
 945:Generated_Source\PSoC6\pdl\drivers\peripheral\smif/cy_smif.h **** *
 946:Generated_Source\PSoC6\pdl\drivers\peripheral\smif/cy_smif.h **** * \return Returns the number of the entries in the RX FIFO.
 947:Generated_Source\PSoC6\pdl\drivers\peripheral\smif/cy_smif.h **** *
 948:Generated_Source\PSoC6\pdl\drivers\peripheral\smif/cy_smif.h **** *******************************************************************************/
 949:Generated_Source\PSoC6\pdl\drivers\peripheral\smif/cy_smif.h **** __STATIC_INLINE uint32_t  Cy_SMIF_GetRxFifoStatus(SMIF_Type const *base)
 950:Generated_Source\PSoC6\pdl\drivers\peripheral\smif/cy_smif.h **** {
 951:Generated_Source\PSoC6\pdl\drivers\peripheral\smif/cy_smif.h ****   return (_FLD2VAL(SMIF_RX_DATA_FIFO_STATUS_USED4, base->RX_DATA_FIFO_STATUS));
 952:Generated_Source\PSoC6\pdl\drivers\peripheral\smif/cy_smif.h **** }
 953:Generated_Source\PSoC6\pdl\drivers\peripheral\smif/cy_smif.h **** 
 954:Generated_Source\PSoC6\pdl\drivers\peripheral\smif/cy_smif.h **** 
 955:Generated_Source\PSoC6\pdl\drivers\peripheral\smif/cy_smif.h **** /*******************************************************************************
 956:Generated_Source\PSoC6\pdl\drivers\peripheral\smif/cy_smif.h **** * Function Name: Cy_SMIF_BusyCheck
ARM GAS  C:\Users\ikomb\AppData\Local\Temp\cc5YtlHT.s 			page 63


 957:Generated_Source\PSoC6\pdl\drivers\peripheral\smif/cy_smif.h **** ****************************************************************************//**
 958:Generated_Source\PSoC6\pdl\drivers\peripheral\smif/cy_smif.h **** *
 959:Generated_Source\PSoC6\pdl\drivers\peripheral\smif/cy_smif.h **** * This function provides the status of the IP block (False - not busy,
 960:Generated_Source\PSoC6\pdl\drivers\peripheral\smif/cy_smif.h **** * True - busy).
 961:Generated_Source\PSoC6\pdl\drivers\peripheral\smif/cy_smif.h **** *
 962:Generated_Source\PSoC6\pdl\drivers\peripheral\smif/cy_smif.h **** * \param base
 963:Generated_Source\PSoC6\pdl\drivers\peripheral\smif/cy_smif.h **** * Holds the base address of the SMIF block registers.
 964:Generated_Source\PSoC6\pdl\drivers\peripheral\smif/cy_smif.h **** *
 965:Generated_Source\PSoC6\pdl\drivers\peripheral\smif/cy_smif.h **** * \return Returns an IP block status.
 966:Generated_Source\PSoC6\pdl\drivers\peripheral\smif/cy_smif.h **** *
 967:Generated_Source\PSoC6\pdl\drivers\peripheral\smif/cy_smif.h **** *******************************************************************************/
 968:Generated_Source\PSoC6\pdl\drivers\peripheral\smif/cy_smif.h **** __STATIC_INLINE bool Cy_SMIF_BusyCheck(SMIF_Type const *base)
 969:Generated_Source\PSoC6\pdl\drivers\peripheral\smif/cy_smif.h **** {
 970:Generated_Source\PSoC6\pdl\drivers\peripheral\smif/cy_smif.h ****   return (1ul == _FLD2VAL(SMIF_STATUS_BUSY, base->STATUS));
 971:Generated_Source\PSoC6\pdl\drivers\peripheral\smif/cy_smif.h **** }
 972:Generated_Source\PSoC6\pdl\drivers\peripheral\smif/cy_smif.h **** 
 973:Generated_Source\PSoC6\pdl\drivers\peripheral\smif/cy_smif.h **** 
 974:Generated_Source\PSoC6\pdl\drivers\peripheral\smif/cy_smif.h **** /*******************************************************************************
 975:Generated_Source\PSoC6\pdl\drivers\peripheral\smif/cy_smif.h **** * Function Name: Cy_SMIF_Interrupt
 976:Generated_Source\PSoC6\pdl\drivers\peripheral\smif/cy_smif.h **** ****************************************************************************//**
 977:Generated_Source\PSoC6\pdl\drivers\peripheral\smif/cy_smif.h **** *
 978:Generated_Source\PSoC6\pdl\drivers\peripheral\smif/cy_smif.h **** * The Interrupt Service Routine for the SMIF. The interrupt code will be
 979:Generated_Source\PSoC6\pdl\drivers\peripheral\smif/cy_smif.h **** * responsible for the FIFO operations on FIFO interrupts during ongoing transfers.
 980:Generated_Source\PSoC6\pdl\drivers\peripheral\smif/cy_smif.h **** * The user must place a call to this interrupt function in the interrupt
 981:Generated_Source\PSoC6\pdl\drivers\peripheral\smif/cy_smif.h **** * routine corresponding to the interrupt attached to the SMIF. If the
 982:Generated_Source\PSoC6\pdl\drivers\peripheral\smif/cy_smif.h **** * user does not do this, will break: the functionality of all the API functions in
 983:Generated_Source\PSoC6\pdl\drivers\peripheral\smif/cy_smif.h **** * the SMIF driver that use SMIF interrupts to affect transfers.
 984:Generated_Source\PSoC6\pdl\drivers\peripheral\smif/cy_smif.h **** *
 985:Generated_Source\PSoC6\pdl\drivers\peripheral\smif/cy_smif.h **** * \param base
 986:Generated_Source\PSoC6\pdl\drivers\peripheral\smif/cy_smif.h **** * Holds the base address of the SMIF block registers.
 987:Generated_Source\PSoC6\pdl\drivers\peripheral\smif/cy_smif.h **** *
 988:Generated_Source\PSoC6\pdl\drivers\peripheral\smif/cy_smif.h **** * \param context
 989:Generated_Source\PSoC6\pdl\drivers\peripheral\smif/cy_smif.h **** * Passes a configuration structure that contains the transfer parameters of the
 990:Generated_Source\PSoC6\pdl\drivers\peripheral\smif/cy_smif.h **** * SMIF block.
 991:Generated_Source\PSoC6\pdl\drivers\peripheral\smif/cy_smif.h **** *
 992:Generated_Source\PSoC6\pdl\drivers\peripheral\smif/cy_smif.h **** * \globalvars
 993:Generated_Source\PSoC6\pdl\drivers\peripheral\smif/cy_smif.h **** *  - context->txBufferAddress - The pointer to the data to be transferred.
 994:Generated_Source\PSoC6\pdl\drivers\peripheral\smif/cy_smif.h **** *
 995:Generated_Source\PSoC6\pdl\drivers\peripheral\smif/cy_smif.h **** *  - context->txBufferSize - The size of txBuffer.
 996:Generated_Source\PSoC6\pdl\drivers\peripheral\smif/cy_smif.h **** *
 997:Generated_Source\PSoC6\pdl\drivers\peripheral\smif/cy_smif.h **** *  - context->txBufferCounter - The number of data entries left to be transferred.
 998:Generated_Source\PSoC6\pdl\drivers\peripheral\smif/cy_smif.h **** *
 999:Generated_Source\PSoC6\pdl\drivers\peripheral\smif/cy_smif.h **** * All the Global variables described above are used when the Software Buffer is
1000:Generated_Source\PSoC6\pdl\drivers\peripheral\smif/cy_smif.h **** * used.
1001:Generated_Source\PSoC6\pdl\drivers\peripheral\smif/cy_smif.h **** *
1002:Generated_Source\PSoC6\pdl\drivers\peripheral\smif/cy_smif.h **** *******************************************************************************/
1003:Generated_Source\PSoC6\pdl\drivers\peripheral\smif/cy_smif.h **** __STATIC_INLINE void Cy_SMIF_Interrupt(SMIF_Type *base, cy_stc_smif_context_t *context)
1004:Generated_Source\PSoC6\pdl\drivers\peripheral\smif/cy_smif.h **** {
1005:Generated_Source\PSoC6\pdl\drivers\peripheral\smif/cy_smif.h ****     uint32_t interruptStatus = Cy_SMIF_GetInterruptStatusMasked(base);
1006:Generated_Source\PSoC6\pdl\drivers\peripheral\smif/cy_smif.h **** 
1007:Generated_Source\PSoC6\pdl\drivers\peripheral\smif/cy_smif.h ****     /* Check which interrupt occurred */
1008:Generated_Source\PSoC6\pdl\drivers\peripheral\smif/cy_smif.h ****     if (0U != (interruptStatus & SMIF_INTR_TR_TX_REQ_Msk))
1009:Generated_Source\PSoC6\pdl\drivers\peripheral\smif/cy_smif.h ****     {
1010:Generated_Source\PSoC6\pdl\drivers\peripheral\smif/cy_smif.h ****         /* Send data */
1011:Generated_Source\PSoC6\pdl\drivers\peripheral\smif/cy_smif.h ****         Cy_SMIF_PushTxFifo(base, context);
1012:Generated_Source\PSoC6\pdl\drivers\peripheral\smif/cy_smif.h **** 
1013:Generated_Source\PSoC6\pdl\drivers\peripheral\smif/cy_smif.h ****         Cy_SMIF_ClearInterrupt(base, SMIF_INTR_TR_TX_REQ_Msk);
ARM GAS  C:\Users\ikomb\AppData\Local\Temp\cc5YtlHT.s 			page 64


1014:Generated_Source\PSoC6\pdl\drivers\peripheral\smif/cy_smif.h ****     }
1015:Generated_Source\PSoC6\pdl\drivers\peripheral\smif/cy_smif.h ****     else if (0U != (interruptStatus & SMIF_INTR_TR_RX_REQ_Msk))
1016:Generated_Source\PSoC6\pdl\drivers\peripheral\smif/cy_smif.h ****     {
1017:Generated_Source\PSoC6\pdl\drivers\peripheral\smif/cy_smif.h ****         /* Receive data */
1018:Generated_Source\PSoC6\pdl\drivers\peripheral\smif/cy_smif.h ****         Cy_SMIF_PopRxFifo(base, context);
1019:Generated_Source\PSoC6\pdl\drivers\peripheral\smif/cy_smif.h **** 
1020:Generated_Source\PSoC6\pdl\drivers\peripheral\smif/cy_smif.h ****         Cy_SMIF_ClearInterrupt(base, SMIF_INTR_TR_RX_REQ_Msk);
1021:Generated_Source\PSoC6\pdl\drivers\peripheral\smif/cy_smif.h ****     }
1022:Generated_Source\PSoC6\pdl\drivers\peripheral\smif/cy_smif.h ****     else if (0U != (interruptStatus & SMIF_INTR_XIP_ALIGNMENT_ERROR_Msk))
1023:Generated_Source\PSoC6\pdl\drivers\peripheral\smif/cy_smif.h ****     {
1024:Generated_Source\PSoC6\pdl\drivers\peripheral\smif/cy_smif.h ****         /* An XIP alignment error */
1025:Generated_Source\PSoC6\pdl\drivers\peripheral\smif/cy_smif.h ****         context->transferStatus = (uint32_t) CY_SMIF_XIP_ERROR;
1026:Generated_Source\PSoC6\pdl\drivers\peripheral\smif/cy_smif.h **** 
1027:Generated_Source\PSoC6\pdl\drivers\peripheral\smif/cy_smif.h ****         Cy_SMIF_ClearInterrupt(base, SMIF_INTR_XIP_ALIGNMENT_ERROR_Msk);
1028:Generated_Source\PSoC6\pdl\drivers\peripheral\smif/cy_smif.h ****     }
1029:Generated_Source\PSoC6\pdl\drivers\peripheral\smif/cy_smif.h **** 
1030:Generated_Source\PSoC6\pdl\drivers\peripheral\smif/cy_smif.h ****     else if (0U != (interruptStatus & SMIF_INTR_TX_CMD_FIFO_OVERFLOW_Msk))
1031:Generated_Source\PSoC6\pdl\drivers\peripheral\smif/cy_smif.h ****     {
1032:Generated_Source\PSoC6\pdl\drivers\peripheral\smif/cy_smif.h ****         /* TX CMD FIFO overflow */
1033:Generated_Source\PSoC6\pdl\drivers\peripheral\smif/cy_smif.h ****         context->transferStatus = (uint32_t) CY_SMIF_CMD_ERROR;
1034:Generated_Source\PSoC6\pdl\drivers\peripheral\smif/cy_smif.h **** 
1035:Generated_Source\PSoC6\pdl\drivers\peripheral\smif/cy_smif.h ****         Cy_SMIF_ClearInterrupt(base, SMIF_INTR_TX_CMD_FIFO_OVERFLOW_Msk);
1036:Generated_Source\PSoC6\pdl\drivers\peripheral\smif/cy_smif.h ****     }
1037:Generated_Source\PSoC6\pdl\drivers\peripheral\smif/cy_smif.h **** 
1038:Generated_Source\PSoC6\pdl\drivers\peripheral\smif/cy_smif.h ****     else if (0U != (interruptStatus & SMIF_INTR_TX_DATA_FIFO_OVERFLOW_Msk))
1039:Generated_Source\PSoC6\pdl\drivers\peripheral\smif/cy_smif.h ****     {
1040:Generated_Source\PSoC6\pdl\drivers\peripheral\smif/cy_smif.h ****         /* A TX DATA FIFO overflow */
1041:Generated_Source\PSoC6\pdl\drivers\peripheral\smif/cy_smif.h ****         context->transferStatus = (uint32_t) CY_SMIF_TX_ERROR;
1042:Generated_Source\PSoC6\pdl\drivers\peripheral\smif/cy_smif.h **** 
1043:Generated_Source\PSoC6\pdl\drivers\peripheral\smif/cy_smif.h ****         Cy_SMIF_ClearInterrupt(base, SMIF_INTR_TX_DATA_FIFO_OVERFLOW_Msk);
1044:Generated_Source\PSoC6\pdl\drivers\peripheral\smif/cy_smif.h ****     }
1045:Generated_Source\PSoC6\pdl\drivers\peripheral\smif/cy_smif.h **** 
1046:Generated_Source\PSoC6\pdl\drivers\peripheral\smif/cy_smif.h ****     else if (0U != (interruptStatus & SMIF_INTR_RX_DATA_FIFO_UNDERFLOW_Msk))
1047:Generated_Source\PSoC6\pdl\drivers\peripheral\smif/cy_smif.h ****     {
1048:Generated_Source\PSoC6\pdl\drivers\peripheral\smif/cy_smif.h ****         /* RX DATA FIFO underflow */
1049:Generated_Source\PSoC6\pdl\drivers\peripheral\smif/cy_smif.h ****         context->transferStatus = (uint32_t) CY_SMIF_RX_ERROR;
1050:Generated_Source\PSoC6\pdl\drivers\peripheral\smif/cy_smif.h **** 
1051:Generated_Source\PSoC6\pdl\drivers\peripheral\smif/cy_smif.h ****         Cy_SMIF_ClearInterrupt(base, SMIF_INTR_RX_DATA_FIFO_UNDERFLOW_Msk);
1052:Generated_Source\PSoC6\pdl\drivers\peripheral\smif/cy_smif.h ****     }
1053:Generated_Source\PSoC6\pdl\drivers\peripheral\smif/cy_smif.h ****     else
1054:Generated_Source\PSoC6\pdl\drivers\peripheral\smif/cy_smif.h ****     {
1055:Generated_Source\PSoC6\pdl\drivers\peripheral\smif/cy_smif.h ****         /* Processing of errors */
1056:Generated_Source\PSoC6\pdl\drivers\peripheral\smif/cy_smif.h ****     }
1057:Generated_Source\PSoC6\pdl\drivers\peripheral\smif/cy_smif.h **** }
1058:Generated_Source\PSoC6\pdl\drivers\peripheral\smif/cy_smif.h **** 
1059:Generated_Source\PSoC6\pdl\drivers\peripheral\smif/cy_smif.h **** 
1060:Generated_Source\PSoC6\pdl\drivers\peripheral\smif/cy_smif.h **** /***************************************
1061:Generated_Source\PSoC6\pdl\drivers\peripheral\smif/cy_smif.h **** *  Internal SMIF in-line functions
1062:Generated_Source\PSoC6\pdl\drivers\peripheral\smif/cy_smif.h **** ****************************************/
1063:Generated_Source\PSoC6\pdl\drivers\peripheral\smif/cy_smif.h **** 
1064:Generated_Source\PSoC6\pdl\drivers\peripheral\smif/cy_smif.h **** /** \cond INTERNAL */
1065:Generated_Source\PSoC6\pdl\drivers\peripheral\smif/cy_smif.h **** 
1066:Generated_Source\PSoC6\pdl\drivers\peripheral\smif/cy_smif.h **** /*******************************************************************************
1067:Generated_Source\PSoC6\pdl\drivers\peripheral\smif/cy_smif.h **** * Function Name: Cy_SMIF_PushTxFifo
1068:Generated_Source\PSoC6\pdl\drivers\peripheral\smif/cy_smif.h **** ***************************************************************************//***
1069:Generated_Source\PSoC6\pdl\drivers\peripheral\smif/cy_smif.h **** *
1070:Generated_Source\PSoC6\pdl\drivers\peripheral\smif/cy_smif.h **** * \internal
ARM GAS  C:\Users\ikomb\AppData\Local\Temp\cc5YtlHT.s 			page 65


1071:Generated_Source\PSoC6\pdl\drivers\peripheral\smif/cy_smif.h **** *
1072:Generated_Source\PSoC6\pdl\drivers\peripheral\smif/cy_smif.h **** * \param baseaddr
1073:Generated_Source\PSoC6\pdl\drivers\peripheral\smif/cy_smif.h **** * Holds the base address of the SMIF block registers.
1074:Generated_Source\PSoC6\pdl\drivers\peripheral\smif/cy_smif.h **** *
1075:Generated_Source\PSoC6\pdl\drivers\peripheral\smif/cy_smif.h **** * \param context
1076:Generated_Source\PSoC6\pdl\drivers\peripheral\smif/cy_smif.h **** * Passes a configuration structure that contains the transfer parameters of the
1077:Generated_Source\PSoC6\pdl\drivers\peripheral\smif/cy_smif.h **** * SMIF block.
1078:Generated_Source\PSoC6\pdl\drivers\peripheral\smif/cy_smif.h **** *
1079:Generated_Source\PSoC6\pdl\drivers\peripheral\smif/cy_smif.h **** * This function writes data in the TX FIFO SMIF buffer by 4, 2, or 1 bytes based
1080:Generated_Source\PSoC6\pdl\drivers\peripheral\smif/cy_smif.h **** * on the residual number of bytes and the available space in the TX FIFO.
1081:Generated_Source\PSoC6\pdl\drivers\peripheral\smif/cy_smif.h **** *
1082:Generated_Source\PSoC6\pdl\drivers\peripheral\smif/cy_smif.h **** *******************************************************************************/
1083:Generated_Source\PSoC6\pdl\drivers\peripheral\smif/cy_smif.h **** __STATIC_INLINE void Cy_SMIF_PushTxFifo(SMIF_Type *baseaddr, cy_stc_smif_context_t *context)
1084:Generated_Source\PSoC6\pdl\drivers\peripheral\smif/cy_smif.h **** {
1085:Generated_Source\PSoC6\pdl\drivers\peripheral\smif/cy_smif.h ****     /* The variable that shows which is smaller: the free FIFO size or amount of bytes to be sent *
1086:Generated_Source\PSoC6\pdl\drivers\peripheral\smif/cy_smif.h ****     uint32_t writeBytes;
1087:Generated_Source\PSoC6\pdl\drivers\peripheral\smif/cy_smif.h ****     uint32_t freeFifoBytes;
1088:Generated_Source\PSoC6\pdl\drivers\peripheral\smif/cy_smif.h ****     uint32_t buffCounter = context->txBufferCounter;
1089:Generated_Source\PSoC6\pdl\drivers\peripheral\smif/cy_smif.h ****     uint8_t *buff = (uint8_t*) context->txBufferAddress;
1090:Generated_Source\PSoC6\pdl\drivers\peripheral\smif/cy_smif.h **** 
1091:Generated_Source\PSoC6\pdl\drivers\peripheral\smif/cy_smif.h ****     freeFifoBytes = CY_SMIF_TX_DATA_FIFO_STATUS_RANGE - Cy_SMIF_GetTxFifoStatus(baseaddr);
1092:Generated_Source\PSoC6\pdl\drivers\peripheral\smif/cy_smif.h ****     writeBytes = (freeFifoBytes > buffCounter)? buffCounter: freeFifoBytes;
1093:Generated_Source\PSoC6\pdl\drivers\peripheral\smif/cy_smif.h **** 
1094:Generated_Source\PSoC6\pdl\drivers\peripheral\smif/cy_smif.h ****     /* Check that after a FIFO Write, no data/FIFO space remains */
1095:Generated_Source\PSoC6\pdl\drivers\peripheral\smif/cy_smif.h ****     while (0U != writeBytes)
1096:Generated_Source\PSoC6\pdl\drivers\peripheral\smif/cy_smif.h ****     {
1097:Generated_Source\PSoC6\pdl\drivers\peripheral\smif/cy_smif.h ****         /* The first main use case for long transfers */
1098:Generated_Source\PSoC6\pdl\drivers\peripheral\smif/cy_smif.h ****         if (writeBytes == CY_SMIF_EIGHT_BYTES)
1099:Generated_Source\PSoC6\pdl\drivers\peripheral\smif/cy_smif.h ****         {
1100:Generated_Source\PSoC6\pdl\drivers\peripheral\smif/cy_smif.h ****             baseaddr->TX_DATA_FIFO_WR4 = Cy_SMIF_PackBytesArray(&buff[0U], true);
1101:Generated_Source\PSoC6\pdl\drivers\peripheral\smif/cy_smif.h ****             baseaddr->TX_DATA_FIFO_WR4 = Cy_SMIF_PackBytesArray(&buff[4U], true);
1102:Generated_Source\PSoC6\pdl\drivers\peripheral\smif/cy_smif.h ****         }
1103:Generated_Source\PSoC6\pdl\drivers\peripheral\smif/cy_smif.h ****         /* The second main use case for short transfers */
1104:Generated_Source\PSoC6\pdl\drivers\peripheral\smif/cy_smif.h ****         else if(writeBytes == CY_SMIF_ONE_BYTE)
1105:Generated_Source\PSoC6\pdl\drivers\peripheral\smif/cy_smif.h ****         {
1106:Generated_Source\PSoC6\pdl\drivers\peripheral\smif/cy_smif.h ****             baseaddr->TX_DATA_FIFO_WR1 = buff[0U];
1107:Generated_Source\PSoC6\pdl\drivers\peripheral\smif/cy_smif.h ****         }
1108:Generated_Source\PSoC6\pdl\drivers\peripheral\smif/cy_smif.h ****         else if(writeBytes == CY_SMIF_TWO_BYTES)
1109:Generated_Source\PSoC6\pdl\drivers\peripheral\smif/cy_smif.h ****         {
1110:Generated_Source\PSoC6\pdl\drivers\peripheral\smif/cy_smif.h ****             baseaddr->TX_DATA_FIFO_WR2 = Cy_SMIF_PackBytesArray(&buff[0U], false);
1111:Generated_Source\PSoC6\pdl\drivers\peripheral\smif/cy_smif.h ****         }
1112:Generated_Source\PSoC6\pdl\drivers\peripheral\smif/cy_smif.h ****         else if(writeBytes == CY_SMIF_THREE_BYTES)
1113:Generated_Source\PSoC6\pdl\drivers\peripheral\smif/cy_smif.h ****         {
1114:Generated_Source\PSoC6\pdl\drivers\peripheral\smif/cy_smif.h ****             baseaddr->TX_DATA_FIFO_WR2 = Cy_SMIF_PackBytesArray(&buff[0U], false);
1115:Generated_Source\PSoC6\pdl\drivers\peripheral\smif/cy_smif.h ****             baseaddr->TX_DATA_FIFO_WR1 = buff[2U];
1116:Generated_Source\PSoC6\pdl\drivers\peripheral\smif/cy_smif.h ****         }
1117:Generated_Source\PSoC6\pdl\drivers\peripheral\smif/cy_smif.h ****         else if(writeBytes == CY_SMIF_FOUR_BYTES)
1118:Generated_Source\PSoC6\pdl\drivers\peripheral\smif/cy_smif.h ****         {
1119:Generated_Source\PSoC6\pdl\drivers\peripheral\smif/cy_smif.h ****             baseaddr->TX_DATA_FIFO_WR4 = Cy_SMIF_PackBytesArray(&buff[0U], true);
1120:Generated_Source\PSoC6\pdl\drivers\peripheral\smif/cy_smif.h ****         }
1121:Generated_Source\PSoC6\pdl\drivers\peripheral\smif/cy_smif.h ****         else if(writeBytes == CY_SMIF_FIVE_BYTES)
1122:Generated_Source\PSoC6\pdl\drivers\peripheral\smif/cy_smif.h ****         {
1123:Generated_Source\PSoC6\pdl\drivers\peripheral\smif/cy_smif.h ****             baseaddr->TX_DATA_FIFO_WR4 = Cy_SMIF_PackBytesArray(&buff[0U], true);
1124:Generated_Source\PSoC6\pdl\drivers\peripheral\smif/cy_smif.h ****             baseaddr->TX_DATA_FIFO_WR1 = buff[4U];
1125:Generated_Source\PSoC6\pdl\drivers\peripheral\smif/cy_smif.h ****         }
1126:Generated_Source\PSoC6\pdl\drivers\peripheral\smif/cy_smif.h ****         else if(writeBytes == CY_SMIF_SIX_BYTES)
1127:Generated_Source\PSoC6\pdl\drivers\peripheral\smif/cy_smif.h ****         {
ARM GAS  C:\Users\ikomb\AppData\Local\Temp\cc5YtlHT.s 			page 66


1128:Generated_Source\PSoC6\pdl\drivers\peripheral\smif/cy_smif.h ****             baseaddr->TX_DATA_FIFO_WR4 = Cy_SMIF_PackBytesArray(&buff[0U], true);
1129:Generated_Source\PSoC6\pdl\drivers\peripheral\smif/cy_smif.h ****             baseaddr->TX_DATA_FIFO_WR2 = Cy_SMIF_PackBytesArray(&buff[4U], false);
1130:Generated_Source\PSoC6\pdl\drivers\peripheral\smif/cy_smif.h ****         }
1131:Generated_Source\PSoC6\pdl\drivers\peripheral\smif/cy_smif.h ****         else if(writeBytes == CY_SMIF_SEVEN_BYTES)
1132:Generated_Source\PSoC6\pdl\drivers\peripheral\smif/cy_smif.h ****         {
1133:Generated_Source\PSoC6\pdl\drivers\peripheral\smif/cy_smif.h ****             baseaddr->TX_DATA_FIFO_WR4 = Cy_SMIF_PackBytesArray(&buff[0U], true);
1134:Generated_Source\PSoC6\pdl\drivers\peripheral\smif/cy_smif.h ****             baseaddr->TX_DATA_FIFO_WR2 = Cy_SMIF_PackBytesArray(&buff[4U], false);
1135:Generated_Source\PSoC6\pdl\drivers\peripheral\smif/cy_smif.h ****             baseaddr->TX_DATA_FIFO_WR1 = buff[6U];
1136:Generated_Source\PSoC6\pdl\drivers\peripheral\smif/cy_smif.h ****         }
1137:Generated_Source\PSoC6\pdl\drivers\peripheral\smif/cy_smif.h ****         else /* The  future IP block with FIFO > 8*/
1138:Generated_Source\PSoC6\pdl\drivers\peripheral\smif/cy_smif.h ****         {
1139:Generated_Source\PSoC6\pdl\drivers\peripheral\smif/cy_smif.h ****             baseaddr->TX_DATA_FIFO_WR4 = Cy_SMIF_PackBytesArray(&buff[0U], true);
1140:Generated_Source\PSoC6\pdl\drivers\peripheral\smif/cy_smif.h ****             baseaddr->TX_DATA_FIFO_WR4 = Cy_SMIF_PackBytesArray(&buff[4U], true);
1141:Generated_Source\PSoC6\pdl\drivers\peripheral\smif/cy_smif.h ****             writeBytes = CY_SMIF_EIGHT_BYTES;
1142:Generated_Source\PSoC6\pdl\drivers\peripheral\smif/cy_smif.h ****         }
1143:Generated_Source\PSoC6\pdl\drivers\peripheral\smif/cy_smif.h ****         buff = &buff[writeBytes];
1144:Generated_Source\PSoC6\pdl\drivers\peripheral\smif/cy_smif.h ****         buffCounter -= writeBytes;
1145:Generated_Source\PSoC6\pdl\drivers\peripheral\smif/cy_smif.h ****         /* Check if we already got new data in TX_FIFO*/
1146:Generated_Source\PSoC6\pdl\drivers\peripheral\smif/cy_smif.h ****         freeFifoBytes = CY_SMIF_TX_DATA_FIFO_STATUS_RANGE - Cy_SMIF_GetTxFifoStatus(baseaddr);
1147:Generated_Source\PSoC6\pdl\drivers\peripheral\smif/cy_smif.h ****         writeBytes = (freeFifoBytes > buffCounter)? buffCounter: freeFifoBytes;
1148:Generated_Source\PSoC6\pdl\drivers\peripheral\smif/cy_smif.h ****     }
1149:Generated_Source\PSoC6\pdl\drivers\peripheral\smif/cy_smif.h **** 
1150:Generated_Source\PSoC6\pdl\drivers\peripheral\smif/cy_smif.h ****     /* Save changes in the context */
1151:Generated_Source\PSoC6\pdl\drivers\peripheral\smif/cy_smif.h ****     context->rxBufferAddress = buff;
1152:Generated_Source\PSoC6\pdl\drivers\peripheral\smif/cy_smif.h ****     context->rxBufferCounter = buffCounter;
1153:Generated_Source\PSoC6\pdl\drivers\peripheral\smif/cy_smif.h **** 
1154:Generated_Source\PSoC6\pdl\drivers\peripheral\smif/cy_smif.h ****     /* Check if all bytes are sent */
1155:Generated_Source\PSoC6\pdl\drivers\peripheral\smif/cy_smif.h ****     if (0u == buffCounter)
1156:Generated_Source\PSoC6\pdl\drivers\peripheral\smif/cy_smif.h ****     {
1157:Generated_Source\PSoC6\pdl\drivers\peripheral\smif/cy_smif.h ****         /* Disable the TR_TX_REQ interrupt */
1158:Generated_Source\PSoC6\pdl\drivers\peripheral\smif/cy_smif.h ****         Cy_SMIF_SetInterruptMask(baseaddr,
1159:Generated_Source\PSoC6\pdl\drivers\peripheral\smif/cy_smif.h ****             Cy_SMIF_GetInterruptMask(baseaddr) & ~SMIF_INTR_TR_TX_REQ_Msk);
1160:Generated_Source\PSoC6\pdl\drivers\peripheral\smif/cy_smif.h **** 
1161:Generated_Source\PSoC6\pdl\drivers\peripheral\smif/cy_smif.h ****         context->transferStatus = (uint32_t) CY_SMIF_SEND_CMPLT;
1162:Generated_Source\PSoC6\pdl\drivers\peripheral\smif/cy_smif.h ****         if (NULL != context->txCmpltCb)
1163:Generated_Source\PSoC6\pdl\drivers\peripheral\smif/cy_smif.h ****         {
1164:Generated_Source\PSoC6\pdl\drivers\peripheral\smif/cy_smif.h ****             context->txCmpltCb((uint32_t) CY_SMIF_SEND_CMPLT);
1165:Generated_Source\PSoC6\pdl\drivers\peripheral\smif/cy_smif.h ****         }
1166:Generated_Source\PSoC6\pdl\drivers\peripheral\smif/cy_smif.h ****     }
1167:Generated_Source\PSoC6\pdl\drivers\peripheral\smif/cy_smif.h **** }
1168:Generated_Source\PSoC6\pdl\drivers\peripheral\smif/cy_smif.h **** 
1169:Generated_Source\PSoC6\pdl\drivers\peripheral\smif/cy_smif.h **** 
1170:Generated_Source\PSoC6\pdl\drivers\peripheral\smif/cy_smif.h **** /*******************************************************************************
1171:Generated_Source\PSoC6\pdl\drivers\peripheral\smif/cy_smif.h **** * Function Name: Cy_SMIF_PopRxFifo
1172:Generated_Source\PSoC6\pdl\drivers\peripheral\smif/cy_smif.h **** ***************************************************************************//***
1173:Generated_Source\PSoC6\pdl\drivers\peripheral\smif/cy_smif.h **** *
1174:Generated_Source\PSoC6\pdl\drivers\peripheral\smif/cy_smif.h **** * \internal
1175:Generated_Source\PSoC6\pdl\drivers\peripheral\smif/cy_smif.h **** *
1176:Generated_Source\PSoC6\pdl\drivers\peripheral\smif/cy_smif.h **** * \param baseaddr
1177:Generated_Source\PSoC6\pdl\drivers\peripheral\smif/cy_smif.h **** * Holds the base address of the SMIF block registers.
1178:Generated_Source\PSoC6\pdl\drivers\peripheral\smif/cy_smif.h **** *
1179:Generated_Source\PSoC6\pdl\drivers\peripheral\smif/cy_smif.h **** * \param context
1180:Generated_Source\PSoC6\pdl\drivers\peripheral\smif/cy_smif.h **** * Passes a configuration structure that contains the transfer parameters of the
1181:Generated_Source\PSoC6\pdl\drivers\peripheral\smif/cy_smif.h **** * SMIF block.
1182:Generated_Source\PSoC6\pdl\drivers\peripheral\smif/cy_smif.h **** *
1183:Generated_Source\PSoC6\pdl\drivers\peripheral\smif/cy_smif.h **** * This function reads data from the RX FIFO SMIF buffer by 4, 2, or 1 bytes
1184:Generated_Source\PSoC6\pdl\drivers\peripheral\smif/cy_smif.h **** * based on the data availability in the RX FIFO and amount of bytes to be
ARM GAS  C:\Users\ikomb\AppData\Local\Temp\cc5YtlHT.s 			page 67


1185:Generated_Source\PSoC6\pdl\drivers\peripheral\smif/cy_smif.h **** * received.
1186:Generated_Source\PSoC6\pdl\drivers\peripheral\smif/cy_smif.h **** *
1187:Generated_Source\PSoC6\pdl\drivers\peripheral\smif/cy_smif.h **** *******************************************************************************/
1188:Generated_Source\PSoC6\pdl\drivers\peripheral\smif/cy_smif.h **** __STATIC_INLINE void Cy_SMIF_PopRxFifo(SMIF_Type *baseaddr, cy_stc_smif_context_t *context)
1189:Generated_Source\PSoC6\pdl\drivers\peripheral\smif/cy_smif.h **** {
1190:Generated_Source\PSoC6\pdl\drivers\peripheral\smif/cy_smif.h ****     /* The variable that shows which is smaller: the free FIFO size or amount of bytes to be receiv
1191:Generated_Source\PSoC6\pdl\drivers\peripheral\smif/cy_smif.h ****     uint32_t readBytes;
1192:Generated_Source\PSoC6\pdl\drivers\peripheral\smif/cy_smif.h ****     uint32_t loadedFifoBytes;
1193:Generated_Source\PSoC6\pdl\drivers\peripheral\smif/cy_smif.h ****     uint32_t buffCounter = context->rxBufferCounter;
1194:Generated_Source\PSoC6\pdl\drivers\peripheral\smif/cy_smif.h ****     uint8_t *buff = (uint8_t*) context->rxBufferAddress;
1195:Generated_Source\PSoC6\pdl\drivers\peripheral\smif/cy_smif.h **** 
1196:Generated_Source\PSoC6\pdl\drivers\peripheral\smif/cy_smif.h ****     loadedFifoBytes = Cy_SMIF_GetRxFifoStatus(baseaddr);
1197:Generated_Source\PSoC6\pdl\drivers\peripheral\smif/cy_smif.h ****     readBytes = (loadedFifoBytes > buffCounter)? buffCounter: loadedFifoBytes;
1198:Generated_Source\PSoC6\pdl\drivers\peripheral\smif/cy_smif.h **** 
1199:Generated_Source\PSoC6\pdl\drivers\peripheral\smif/cy_smif.h ****     /* Check that after a FIFO Read, no new data is available */
1200:Generated_Source\PSoC6\pdl\drivers\peripheral\smif/cy_smif.h ****     while (0U != readBytes)
1201:Generated_Source\PSoC6\pdl\drivers\peripheral\smif/cy_smif.h ****     {
1202:Generated_Source\PSoC6\pdl\drivers\peripheral\smif/cy_smif.h ****         if (readBytes == CY_SMIF_EIGHT_BYTES)
1203:Generated_Source\PSoC6\pdl\drivers\peripheral\smif/cy_smif.h ****         {
1204:Generated_Source\PSoC6\pdl\drivers\peripheral\smif/cy_smif.h ****             Cy_SMIF_UnPackByteArray(baseaddr->RX_DATA_FIFO_RD4, &buff[0U], true);
1205:Generated_Source\PSoC6\pdl\drivers\peripheral\smif/cy_smif.h ****             Cy_SMIF_UnPackByteArray(baseaddr->RX_DATA_FIFO_RD4, &buff[4U], true);
1206:Generated_Source\PSoC6\pdl\drivers\peripheral\smif/cy_smif.h ****         }
1207:Generated_Source\PSoC6\pdl\drivers\peripheral\smif/cy_smif.h ****         else if(readBytes == CY_SMIF_ONE_BYTE)
1208:Generated_Source\PSoC6\pdl\drivers\peripheral\smif/cy_smif.h ****         {
1209:Generated_Source\PSoC6\pdl\drivers\peripheral\smif/cy_smif.h ****             buff[0U] = (uint8_t)baseaddr->RX_DATA_FIFO_RD1;
1210:Generated_Source\PSoC6\pdl\drivers\peripheral\smif/cy_smif.h ****         }
1211:Generated_Source\PSoC6\pdl\drivers\peripheral\smif/cy_smif.h ****         else if(readBytes == CY_SMIF_TWO_BYTES)
1212:Generated_Source\PSoC6\pdl\drivers\peripheral\smif/cy_smif.h ****         {
1213:Generated_Source\PSoC6\pdl\drivers\peripheral\smif/cy_smif.h ****             Cy_SMIF_UnPackByteArray(baseaddr->RX_DATA_FIFO_RD2, &buff[0U], false);
1214:Generated_Source\PSoC6\pdl\drivers\peripheral\smif/cy_smif.h ****         }
1215:Generated_Source\PSoC6\pdl\drivers\peripheral\smif/cy_smif.h ****         else if(readBytes == CY_SMIF_THREE_BYTES)
1216:Generated_Source\PSoC6\pdl\drivers\peripheral\smif/cy_smif.h ****         {
1217:Generated_Source\PSoC6\pdl\drivers\peripheral\smif/cy_smif.h ****             Cy_SMIF_UnPackByteArray(baseaddr->RX_DATA_FIFO_RD2, &buff[0U], false);
1218:Generated_Source\PSoC6\pdl\drivers\peripheral\smif/cy_smif.h ****             buff[2U] = (uint8_t)baseaddr->RX_DATA_FIFO_RD1;
1219:Generated_Source\PSoC6\pdl\drivers\peripheral\smif/cy_smif.h ****         }
1220:Generated_Source\PSoC6\pdl\drivers\peripheral\smif/cy_smif.h ****         else if(readBytes == CY_SMIF_FOUR_BYTES)
1221:Generated_Source\PSoC6\pdl\drivers\peripheral\smif/cy_smif.h ****         {
1222:Generated_Source\PSoC6\pdl\drivers\peripheral\smif/cy_smif.h ****             Cy_SMIF_UnPackByteArray(baseaddr->RX_DATA_FIFO_RD4, &buff[0U], true);
1223:Generated_Source\PSoC6\pdl\drivers\peripheral\smif/cy_smif.h ****         }
1224:Generated_Source\PSoC6\pdl\drivers\peripheral\smif/cy_smif.h ****         else if(readBytes == CY_SMIF_FIVE_BYTES)
1225:Generated_Source\PSoC6\pdl\drivers\peripheral\smif/cy_smif.h ****         {
1226:Generated_Source\PSoC6\pdl\drivers\peripheral\smif/cy_smif.h ****             Cy_SMIF_UnPackByteArray(baseaddr->RX_DATA_FIFO_RD4, &buff[0U], true);
1227:Generated_Source\PSoC6\pdl\drivers\peripheral\smif/cy_smif.h ****             buff[4U] = (uint8_t)baseaddr->RX_DATA_FIFO_RD1;
1228:Generated_Source\PSoC6\pdl\drivers\peripheral\smif/cy_smif.h ****         }
1229:Generated_Source\PSoC6\pdl\drivers\peripheral\smif/cy_smif.h ****         else if(readBytes == CY_SMIF_SIX_BYTES)
1230:Generated_Source\PSoC6\pdl\drivers\peripheral\smif/cy_smif.h ****         {
1231:Generated_Source\PSoC6\pdl\drivers\peripheral\smif/cy_smif.h ****             Cy_SMIF_UnPackByteArray(baseaddr->RX_DATA_FIFO_RD4, &buff[0U], true);
1232:Generated_Source\PSoC6\pdl\drivers\peripheral\smif/cy_smif.h ****             Cy_SMIF_UnPackByteArray(baseaddr->RX_DATA_FIFO_RD2, &buff[4U], false);
1233:Generated_Source\PSoC6\pdl\drivers\peripheral\smif/cy_smif.h ****         }
1234:Generated_Source\PSoC6\pdl\drivers\peripheral\smif/cy_smif.h ****         else if(readBytes == CY_SMIF_SEVEN_BYTES)
1235:Generated_Source\PSoC6\pdl\drivers\peripheral\smif/cy_smif.h ****         {
1236:Generated_Source\PSoC6\pdl\drivers\peripheral\smif/cy_smif.h ****             Cy_SMIF_UnPackByteArray(baseaddr->RX_DATA_FIFO_RD4, &buff[0U], true);
1237:Generated_Source\PSoC6\pdl\drivers\peripheral\smif/cy_smif.h ****             Cy_SMIF_UnPackByteArray(baseaddr->RX_DATA_FIFO_RD2, &buff[4U], false);
1238:Generated_Source\PSoC6\pdl\drivers\peripheral\smif/cy_smif.h ****             buff[6U] = (uint8_t)baseaddr->RX_DATA_FIFO_RD1;
1239:Generated_Source\PSoC6\pdl\drivers\peripheral\smif/cy_smif.h ****         }
1240:Generated_Source\PSoC6\pdl\drivers\peripheral\smif/cy_smif.h ****         else /* The IP block FIFO > 8*/
1241:Generated_Source\PSoC6\pdl\drivers\peripheral\smif/cy_smif.h ****         {
ARM GAS  C:\Users\ikomb\AppData\Local\Temp\cc5YtlHT.s 			page 68


1242:Generated_Source\PSoC6\pdl\drivers\peripheral\smif/cy_smif.h ****             Cy_SMIF_UnPackByteArray(baseaddr->RX_DATA_FIFO_RD4, &buff[0U], true);
1243:Generated_Source\PSoC6\pdl\drivers\peripheral\smif/cy_smif.h ****             Cy_SMIF_UnPackByteArray(baseaddr->RX_DATA_FIFO_RD4, &buff[4U], true);
1244:Generated_Source\PSoC6\pdl\drivers\peripheral\smif/cy_smif.h ****             readBytes = CY_SMIF_EIGHT_BYTES;
1245:Generated_Source\PSoC6\pdl\drivers\peripheral\smif/cy_smif.h ****         }
1246:Generated_Source\PSoC6\pdl\drivers\peripheral\smif/cy_smif.h **** 
1247:Generated_Source\PSoC6\pdl\drivers\peripheral\smif/cy_smif.h ****         buff = &buff[readBytes];
1248:Generated_Source\PSoC6\pdl\drivers\peripheral\smif/cy_smif.h ****         buffCounter -= readBytes;
1249:Generated_Source\PSoC6\pdl\drivers\peripheral\smif/cy_smif.h ****         /* Check if we already got new data in RX_FIFO*/
1250:Generated_Source\PSoC6\pdl\drivers\peripheral\smif/cy_smif.h ****         loadedFifoBytes = Cy_SMIF_GetRxFifoStatus(baseaddr);
1251:Generated_Source\PSoC6\pdl\drivers\peripheral\smif/cy_smif.h ****         readBytes = (loadedFifoBytes > buffCounter)? buffCounter: loadedFifoBytes;
1252:Generated_Source\PSoC6\pdl\drivers\peripheral\smif/cy_smif.h ****     }
1253:Generated_Source\PSoC6\pdl\drivers\peripheral\smif/cy_smif.h **** 
1254:Generated_Source\PSoC6\pdl\drivers\peripheral\smif/cy_smif.h ****     /* Save changes in the context */
1255:Generated_Source\PSoC6\pdl\drivers\peripheral\smif/cy_smif.h ****     context->rxBufferAddress = buff;
1256:Generated_Source\PSoC6\pdl\drivers\peripheral\smif/cy_smif.h ****     context->rxBufferCounter = buffCounter;
1257:Generated_Source\PSoC6\pdl\drivers\peripheral\smif/cy_smif.h **** 
1258:Generated_Source\PSoC6\pdl\drivers\peripheral\smif/cy_smif.h ****     /* Check if all bytes are received */
1259:Generated_Source\PSoC6\pdl\drivers\peripheral\smif/cy_smif.h ****     if (0UL == buffCounter)
1260:Generated_Source\PSoC6\pdl\drivers\peripheral\smif/cy_smif.h ****     {
1261:Generated_Source\PSoC6\pdl\drivers\peripheral\smif/cy_smif.h ****         /* Disable the TR_RX_REQ interrupt */
1262:Generated_Source\PSoC6\pdl\drivers\peripheral\smif/cy_smif.h ****         Cy_SMIF_SetInterruptMask(baseaddr,
1263:Generated_Source\PSoC6\pdl\drivers\peripheral\smif/cy_smif.h ****             Cy_SMIF_GetInterruptMask(baseaddr) & ~SMIF_INTR_TR_RX_REQ_Msk);
1264:Generated_Source\PSoC6\pdl\drivers\peripheral\smif/cy_smif.h ****         context->transferStatus = (uint32_t) CY_SMIF_REC_CMPLT;
1265:Generated_Source\PSoC6\pdl\drivers\peripheral\smif/cy_smif.h ****         if (NULL != context->rxCmpltCb)
1266:Generated_Source\PSoC6\pdl\drivers\peripheral\smif/cy_smif.h ****         {
1267:Generated_Source\PSoC6\pdl\drivers\peripheral\smif/cy_smif.h ****             context->rxCmpltCb((uint32_t) CY_SMIF_REC_CMPLT);
1268:Generated_Source\PSoC6\pdl\drivers\peripheral\smif/cy_smif.h ****         }
1269:Generated_Source\PSoC6\pdl\drivers\peripheral\smif/cy_smif.h ****     }
1270:Generated_Source\PSoC6\pdl\drivers\peripheral\smif/cy_smif.h **** 
1271:Generated_Source\PSoC6\pdl\drivers\peripheral\smif/cy_smif.h ****     context->rxBufferCounter = buffCounter;
1272:Generated_Source\PSoC6\pdl\drivers\peripheral\smif/cy_smif.h **** }
1273:Generated_Source\PSoC6\pdl\drivers\peripheral\smif/cy_smif.h **** 
1274:Generated_Source\PSoC6\pdl\drivers\peripheral\smif/cy_smif.h **** 
1275:Generated_Source\PSoC6\pdl\drivers\peripheral\smif/cy_smif.h **** /*******************************************************************************
1276:Generated_Source\PSoC6\pdl\drivers\peripheral\smif/cy_smif.h **** * Function Name: Cy_SMIF_PackBytesArray
1277:Generated_Source\PSoC6\pdl\drivers\peripheral\smif/cy_smif.h **** ***************************************************************************//***
1278:Generated_Source\PSoC6\pdl\drivers\peripheral\smif/cy_smif.h **** *
1279:Generated_Source\PSoC6\pdl\drivers\peripheral\smif/cy_smif.h **** * \internal
1280:Generated_Source\PSoC6\pdl\drivers\peripheral\smif/cy_smif.h **** *
1281:Generated_Source\PSoC6\pdl\drivers\peripheral\smif/cy_smif.h **** * This function packs 0-numBytes of the buff byte array into a 4-byte value.
1282:Generated_Source\PSoC6\pdl\drivers\peripheral\smif/cy_smif.h **** *
1283:Generated_Source\PSoC6\pdl\drivers\peripheral\smif/cy_smif.h **** * \param buff
1284:Generated_Source\PSoC6\pdl\drivers\peripheral\smif/cy_smif.h **** * The byte array to pack.
1285:Generated_Source\PSoC6\pdl\drivers\peripheral\smif/cy_smif.h **** *
1286:Generated_Source\PSoC6\pdl\drivers\peripheral\smif/cy_smif.h **** * \param fourBytes
1287:Generated_Source\PSoC6\pdl\drivers\peripheral\smif/cy_smif.h **** *  - The True pack is for a 32-bit value.
1288:Generated_Source\PSoC6\pdl\drivers\peripheral\smif/cy_smif.h **** *  - The False pack is for a 16-bit value.
1289:Generated_Source\PSoC6\pdl\drivers\peripheral\smif/cy_smif.h **** *
1290:Generated_Source\PSoC6\pdl\drivers\peripheral\smif/cy_smif.h **** * \return
1291:Generated_Source\PSoC6\pdl\drivers\peripheral\smif/cy_smif.h **** *  The 4-byte value packed from the byte array.
1292:Generated_Source\PSoC6\pdl\drivers\peripheral\smif/cy_smif.h **** *
1293:Generated_Source\PSoC6\pdl\drivers\peripheral\smif/cy_smif.h **** *******************************************************************************/
1294:Generated_Source\PSoC6\pdl\drivers\peripheral\smif/cy_smif.h **** __STATIC_INLINE uint32_t Cy_SMIF_PackBytesArray(uint8_t const buff[], bool fourBytes)
1295:Generated_Source\PSoC6\pdl\drivers\peripheral\smif/cy_smif.h **** {
1296:Generated_Source\PSoC6\pdl\drivers\peripheral\smif/cy_smif.h ****     uint32_t result = 0UL;
1297:Generated_Source\PSoC6\pdl\drivers\peripheral\smif/cy_smif.h **** 
1298:Generated_Source\PSoC6\pdl\drivers\peripheral\smif/cy_smif.h ****     result = ((uint32_t)buff[1UL] << 8UL) | (uint32_t)buff[0UL];
ARM GAS  C:\Users\ikomb\AppData\Local\Temp\cc5YtlHT.s 			page 69


1299:Generated_Source\PSoC6\pdl\drivers\peripheral\smif/cy_smif.h **** 
1300:Generated_Source\PSoC6\pdl\drivers\peripheral\smif/cy_smif.h ****     if(fourBytes)
1301:Generated_Source\PSoC6\pdl\drivers\peripheral\smif/cy_smif.h ****     {
1302:Generated_Source\PSoC6\pdl\drivers\peripheral\smif/cy_smif.h ****         result |= ((uint32_t)buff[3UL] << 24UL) | ((uint32_t)buff[2UL] << 16UL);
1303:Generated_Source\PSoC6\pdl\drivers\peripheral\smif/cy_smif.h ****     }
1304:Generated_Source\PSoC6\pdl\drivers\peripheral\smif/cy_smif.h **** 
1305:Generated_Source\PSoC6\pdl\drivers\peripheral\smif/cy_smif.h ****     return result;
1306:Generated_Source\PSoC6\pdl\drivers\peripheral\smif/cy_smif.h **** }
1307:Generated_Source\PSoC6\pdl\drivers\peripheral\smif/cy_smif.h **** 
1308:Generated_Source\PSoC6\pdl\drivers\peripheral\smif/cy_smif.h **** 
1309:Generated_Source\PSoC6\pdl\drivers\peripheral\smif/cy_smif.h **** /*******************************************************************************
1310:Generated_Source\PSoC6\pdl\drivers\peripheral\smif/cy_smif.h **** * Function Name: Cy_SMIF_UnPackByteArray
1311:Generated_Source\PSoC6\pdl\drivers\peripheral\smif/cy_smif.h **** ***************************************************************************//***
1312:Generated_Source\PSoC6\pdl\drivers\peripheral\smif/cy_smif.h **** *
1313:Generated_Source\PSoC6\pdl\drivers\peripheral\smif/cy_smif.h **** * \internal
1314:Generated_Source\PSoC6\pdl\drivers\peripheral\smif/cy_smif.h **** *
1315:Generated_Source\PSoC6\pdl\drivers\peripheral\smif/cy_smif.h **** * This function unpacks 0-numBytes from a 4-byte value into the byte array outBuff.
1316:Generated_Source\PSoC6\pdl\drivers\peripheral\smif/cy_smif.h **** *
1317:Generated_Source\PSoC6\pdl\drivers\peripheral\smif/cy_smif.h **** * \param smifReg
1318:Generated_Source\PSoC6\pdl\drivers\peripheral\smif/cy_smif.h **** *  The 4-byte value to unpack.
1319:Generated_Source\PSoC6\pdl\drivers\peripheral\smif/cy_smif.h **** *
1320:Generated_Source\PSoC6\pdl\drivers\peripheral\smif/cy_smif.h **** * \param outBuff
1321:Generated_Source\PSoC6\pdl\drivers\peripheral\smif/cy_smif.h **** * The byte array to fill.
1322:Generated_Source\PSoC6\pdl\drivers\peripheral\smif/cy_smif.h **** *
1323:Generated_Source\PSoC6\pdl\drivers\peripheral\smif/cy_smif.h **** * \param fourBytes
1324:Generated_Source\PSoC6\pdl\drivers\peripheral\smif/cy_smif.h **** *  - The True unpack is for a 32-bit value.
1325:Generated_Source\PSoC6\pdl\drivers\peripheral\smif/cy_smif.h **** *  - The False unpack is for a 16-bit value.
1326:Generated_Source\PSoC6\pdl\drivers\peripheral\smif/cy_smif.h **** *
1327:Generated_Source\PSoC6\pdl\drivers\peripheral\smif/cy_smif.h **** *******************************************************************************/
1328:Generated_Source\PSoC6\pdl\drivers\peripheral\smif/cy_smif.h **** __STATIC_INLINE void Cy_SMIF_UnPackByteArray(uint32_t inValue, uint8_t outBuff[], bool fourBytes)
1329:Generated_Source\PSoC6\pdl\drivers\peripheral\smif/cy_smif.h **** {
1330:Generated_Source\PSoC6\pdl\drivers\peripheral\smif/cy_smif.h ****     outBuff[0UL] = (uint8_t)(inValue & 0xFFUL);
1331:Generated_Source\PSoC6\pdl\drivers\peripheral\smif/cy_smif.h ****     outBuff[1UL] = (uint8_t)((inValue >> 8UL ) & 0xFFUL);
1332:Generated_Source\PSoC6\pdl\drivers\peripheral\smif/cy_smif.h **** 
1333:Generated_Source\PSoC6\pdl\drivers\peripheral\smif/cy_smif.h ****     if(fourBytes)
1334:Generated_Source\PSoC6\pdl\drivers\peripheral\smif/cy_smif.h ****     {
1335:Generated_Source\PSoC6\pdl\drivers\peripheral\smif/cy_smif.h ****         outBuff[2UL] = (uint8_t)((inValue >> 16UL) & 0xFFUL);
1336:Generated_Source\PSoC6\pdl\drivers\peripheral\smif/cy_smif.h ****         outBuff[3UL] = (uint8_t)((inValue >> 24UL) & 0xFFUL);
1337:Generated_Source\PSoC6\pdl\drivers\peripheral\smif/cy_smif.h ****     }
1338:Generated_Source\PSoC6\pdl\drivers\peripheral\smif/cy_smif.h **** }
1339:Generated_Source\PSoC6\pdl\drivers\peripheral\smif/cy_smif.h **** 
1340:Generated_Source\PSoC6\pdl\drivers\peripheral\smif/cy_smif.h **** 
1341:Generated_Source\PSoC6\pdl\drivers\peripheral\smif/cy_smif.h **** /*******************************************************************************
1342:Generated_Source\PSoC6\pdl\drivers\peripheral\smif/cy_smif.h **** * Function Name: Cy_SMIF_TimeoutRun
1343:Generated_Source\PSoC6\pdl\drivers\peripheral\smif/cy_smif.h **** ****************************************************************************//**
1344:Generated_Source\PSoC6\pdl\drivers\peripheral\smif/cy_smif.h **** *
1345:Generated_Source\PSoC6\pdl\drivers\peripheral\smif/cy_smif.h **** * \internal
1346:Generated_Source\PSoC6\pdl\drivers\peripheral\smif/cy_smif.h **** *
1347:Generated_Source\PSoC6\pdl\drivers\peripheral\smif/cy_smif.h **** * This function checks if the timeout is expired. Use the Cy_SysLib_DelayUs() function for
1348:Generated_Source\PSoC6\pdl\drivers\peripheral\smif/cy_smif.h **** * implementation.
1349:Generated_Source\PSoC6\pdl\drivers\peripheral\smif/cy_smif.h **** *
1350:Generated_Source\PSoC6\pdl\drivers\peripheral\smif/cy_smif.h **** * \param timeoutUnits
1351:Generated_Source\PSoC6\pdl\drivers\peripheral\smif/cy_smif.h **** *  The pointer to the timeout. The timeout measured in microseconds is multiplied by
1352:Generated_Source\PSoC6\pdl\drivers\peripheral\smif/cy_smif.h **** *  CY_SMIF_WAIT_1_UNIT.
1353:Generated_Source\PSoC6\pdl\drivers\peripheral\smif/cy_smif.h **** *
1354:Generated_Source\PSoC6\pdl\drivers\peripheral\smif/cy_smif.h **** * \return
1355:Generated_Source\PSoC6\pdl\drivers\peripheral\smif/cy_smif.h **** * A timeout status:
ARM GAS  C:\Users\ikomb\AppData\Local\Temp\cc5YtlHT.s 			page 70


1356:Generated_Source\PSoC6\pdl\drivers\peripheral\smif/cy_smif.h **** *     - \ref CY_SMIF_SUCCESS - The timeout has not expired or input timeoutUnits is 0.
1357:Generated_Source\PSoC6\pdl\drivers\peripheral\smif/cy_smif.h **** *     - \ref CY_SMIF_EXCEED_TIMEOUT - The timeout has expired.
1358:Generated_Source\PSoC6\pdl\drivers\peripheral\smif/cy_smif.h **** *
1359:Generated_Source\PSoC6\pdl\drivers\peripheral\smif/cy_smif.h **** *******************************************************************************/
1360:Generated_Source\PSoC6\pdl\drivers\peripheral\smif/cy_smif.h **** __STATIC_INLINE cy_en_smif_status_t Cy_SMIF_TimeoutRun(uint32_t *timeoutUnits)
1361:Generated_Source\PSoC6\pdl\drivers\peripheral\smif/cy_smif.h **** {
1362:Generated_Source\PSoC6\pdl\drivers\peripheral\smif/cy_smif.h ****     cy_en_smif_status_t status = CY_SMIF_SUCCESS;
1363:Generated_Source\PSoC6\pdl\drivers\peripheral\smif/cy_smif.h ****     if (*timeoutUnits > 0u)
 1538              		.loc 2 1363 0
 1539 0090 002F     		cmp	r7, #0
 1540 0092 07D0     		beq	.L123
1364:Generated_Source\PSoC6\pdl\drivers\peripheral\smif/cy_smif.h ****     {
1365:Generated_Source\PSoC6\pdl\drivers\peripheral\smif/cy_smif.h ****         Cy_SysLib_DelayUs(CY_SMIF_WAIT_1_UNIT);
 1541              		.loc 2 1365 0
 1542 0094 0120     		movs	r0, #1
 1543 0096 FFF7FEFF 		bl	Cy_SysLib_DelayUs
 1544              	.LVL187:
1366:Generated_Source\PSoC6\pdl\drivers\peripheral\smif/cy_smif.h ****         --(*timeoutUnits);
 1545              		.loc 2 1366 0
 1546 009a 013F     		subs	r7, r7, #1
 1547              	.LVL188:
1367:Generated_Source\PSoC6\pdl\drivers\peripheral\smif/cy_smif.h ****         status = (0u == (*timeoutUnits))? CY_SMIF_EXCEED_TIMEOUT: CY_SMIF_SUCCESS;
 1548              		.loc 2 1367 0
 1549 009c 002F     		cmp	r7, #0
 1550 009e 03D1     		bne	.L124
 1551 00a0 A94B     		ldr	r3, .L135+12
 1552 00a2 02E0     		b	.L84
 1553              	.LVL189:
 1554              	.L123:
1362:Generated_Source\PSoC6\pdl\drivers\peripheral\smif/cy_smif.h ****     if (*timeoutUnits > 0u)
 1555              		.loc 2 1362 0
 1556 00a4 2300     		movs	r3, r4
 1557              	.LVL190:
 1558 00a6 00E0     		b	.L84
 1559              	.L124:
 1560              		.loc 2 1367 0
 1561 00a8 2300     		movs	r3, r4
 1562              	.LVL191:
 1563              	.L84:
 1564              	.LBE17:
 1565              	.LBE16:
 1566              		.loc 1 974 0
 1567 00aa B269     		ldr	r2, [r6, #24]
 1568 00ac 032A     		cmp	r2, #3
 1569 00ae 04D0     		beq	.L125
 1570              		.loc 1 974 0 is_stmt 0 discriminator 1
 1571 00b0 A54A     		ldr	r2, .L135+12
 1572 00b2 9342     		cmp	r3, r2
 1573 00b4 ECD1     		bne	.L86
 1574 00b6 1C00     		movs	r4, r3
 1575 00b8 00E0     		b	.L83
 1576              	.L125:
 1577 00ba 1C00     		movs	r4, r3
 1578              	.LVL192:
 1579              	.L83:
 1580              	.LBE15:
 975:Generated_Source\PSoC6\pdl\drivers\peripheral\smif/cy_smif_memslot.c ****                 (CY_SMIF_EXCEED_TIMEOUT != result))
ARM GAS  C:\Users\ikomb\AppData\Local\Temp\cc5YtlHT.s 			page 71


 976:Generated_Source\PSoC6\pdl\drivers\peripheral\smif/cy_smif_memslot.c ****         {
 977:Generated_Source\PSoC6\pdl\drivers\peripheral\smif/cy_smif_memslot.c ****             /* Wait until the Read of the SFDP operation is completed. */
 978:Generated_Source\PSoC6\pdl\drivers\peripheral\smif/cy_smif_memslot.c ****             result = Cy_SMIF_TimeoutRun(&cmdTimeout);
 979:Generated_Source\PSoC6\pdl\drivers\peripheral\smif/cy_smif_memslot.c ****         }
 980:Generated_Source\PSoC6\pdl\drivers\peripheral\smif/cy_smif_memslot.c ****     }
 981:Generated_Source\PSoC6\pdl\drivers\peripheral\smif/cy_smif_memslot.c **** 
 982:Generated_Source\PSoC6\pdl\drivers\peripheral\smif/cy_smif_memslot.c ****     if (CY_SMIF_SUCCESS == result)
 1581              		.loc 1 982 0 is_stmt 1
 1582 00bc 002C     		cmp	r4, #0
 1583 00be 00D0     		beq	.LCB1625
 1584 00c0 C3E1     		b	.L87	@long jump
 1585              	.LCB1625:
 983:Generated_Source\PSoC6\pdl\drivers\peripheral\smif/cy_smif_memslot.c ****     {
 984:Generated_Source\PSoC6\pdl\drivers\peripheral\smif/cy_smif_memslot.c ****         if((sfdpBuffer[CY_SMIF_SFDP_SING_BYTE_00] == (uint8_t)'S') &&
 1586              		.loc 1 984 0
 1587 00c2 0CAB     		add	r3, sp, #48
 1588 00c4 1B78     		ldrb	r3, [r3]
 1589 00c6 532B     		cmp	r3, #83
 1590 00c8 00D0     		beq	.LCB1630
 1591 00ca B3E1     		b	.L126	@long jump
 1592              	.LCB1630:
 985:Generated_Source\PSoC6\pdl\drivers\peripheral\smif/cy_smif_memslot.c ****          (sfdpBuffer[CY_SMIF_SFDP_SING_BYTE_01] == (uint8_t)'F') &&
 1593              		.loc 1 985 0 discriminator 1
 1594 00cc 0CAB     		add	r3, sp, #48
 1595 00ce 5B78     		ldrb	r3, [r3, #1]
 984:Generated_Source\PSoC6\pdl\drivers\peripheral\smif/cy_smif_memslot.c ****          (sfdpBuffer[CY_SMIF_SFDP_SING_BYTE_01] == (uint8_t)'F') &&
 1596              		.loc 1 984 0 discriminator 1
 1597 00d0 462B     		cmp	r3, #70
 1598 00d2 00D0     		beq	.LCB1634
 1599 00d4 B0E1     		b	.L127	@long jump
 1600              	.LCB1634:
 986:Generated_Source\PSoC6\pdl\drivers\peripheral\smif/cy_smif_memslot.c ****          (sfdpBuffer[CY_SMIF_SFDP_SING_BYTE_02] == (uint8_t)'D') &&
 1601              		.loc 1 986 0
 1602 00d6 0CAB     		add	r3, sp, #48
 1603 00d8 9B78     		ldrb	r3, [r3, #2]
 985:Generated_Source\PSoC6\pdl\drivers\peripheral\smif/cy_smif_memslot.c ****          (sfdpBuffer[CY_SMIF_SFDP_SING_BYTE_01] == (uint8_t)'F') &&
 1604              		.loc 1 985 0
 1605 00da 442B     		cmp	r3, #68
 1606 00dc 00D0     		beq	.LCB1638
 1607 00de ADE1     		b	.L128	@long jump
 1608              	.LCB1638:
 987:Generated_Source\PSoC6\pdl\drivers\peripheral\smif/cy_smif_memslot.c ****          (sfdpBuffer[CY_SMIF_SFDP_SING_BYTE_03] == (uint8_t)'P') &&
 1609              		.loc 1 987 0
 1610 00e0 0CAB     		add	r3, sp, #48
 1611 00e2 DB78     		ldrb	r3, [r3, #3]
 986:Generated_Source\PSoC6\pdl\drivers\peripheral\smif/cy_smif_memslot.c ****          (sfdpBuffer[CY_SMIF_SFDP_SING_BYTE_02] == (uint8_t)'D') &&
 1612              		.loc 1 986 0
 1613 00e4 502B     		cmp	r3, #80
 1614 00e6 00D0     		beq	.LCB1642
 1615 00e8 AAE1     		b	.L129	@long jump
 1616              	.LCB1642:
 988:Generated_Source\PSoC6\pdl\drivers\peripheral\smif/cy_smif_memslot.c ****          (sfdpBuffer[CY_SMIF_SFDP_MINOR_REV] >= CY_SMIF_SFDP_JEDEC_REV_B) &&
 1617              		.loc 1 988 0
 1618 00ea 0CAB     		add	r3, sp, #48
 1619 00ec 1B79     		ldrb	r3, [r3, #4]
 987:Generated_Source\PSoC6\pdl\drivers\peripheral\smif/cy_smif_memslot.c ****          (sfdpBuffer[CY_SMIF_SFDP_SING_BYTE_03] == (uint8_t)'P') &&
 1620              		.loc 1 987 0
ARM GAS  C:\Users\ikomb\AppData\Local\Temp\cc5YtlHT.s 			page 72


 1621 00ee 052B     		cmp	r3, #5
 1622 00f0 00D8     		bhi	.LCB1646
 1623 00f2 A7E1     		b	.L130	@long jump
 1624              	.LCB1646:
 989:Generated_Source\PSoC6\pdl\drivers\peripheral\smif/cy_smif_memslot.c ****          (sfdpBuffer[CY_SMIF_SFDP_MAJOR_REV] == CY_SMIF_SFDP_MAJOR_REV_1))
 1625              		.loc 1 989 0
 1626 00f4 0CAB     		add	r3, sp, #48
 1627 00f6 5B79     		ldrb	r3, [r3, #5]
 988:Generated_Source\PSoC6\pdl\drivers\peripheral\smif/cy_smif_memslot.c ****          (sfdpBuffer[CY_SMIF_SFDP_MINOR_REV] >= CY_SMIF_SFDP_JEDEC_REV_B) &&
 1628              		.loc 1 988 0
 1629 00f8 012B     		cmp	r3, #1
 1630 00fa 00D0     		beq	.LCB1650
 1631 00fc A4E1     		b	.L131	@long jump
 1632              	.LCB1650:
 1633              	.LBB18:
 990:Generated_Source\PSoC6\pdl\drivers\peripheral\smif/cy_smif_memslot.c ****         {
 991:Generated_Source\PSoC6\pdl\drivers\peripheral\smif/cy_smif_memslot.c ****             /* The address of the JEDEC basic flash parameter table */
 992:Generated_Source\PSoC6\pdl\drivers\peripheral\smif/cy_smif_memslot.c ****             uint8_t offset = sfdpBuffer[CY_SMIF_SFDP_PARAM_TABLE_PTR];
 1634              		.loc 1 992 0
 1635 00fe 0CA9     		add	r1, sp, #48
 1636 0100 0A7B     		ldrb	r2, [r1, #12]
 1637              	.LVL193:
 993:Generated_Source\PSoC6\pdl\drivers\peripheral\smif/cy_smif_memslot.c ****             cy_stc_smif_mem_cmd_t *cmdRead = device->readCmd;
 1638              		.loc 1 993 0
 1639 0102 AB68     		ldr	r3, [r5, #8]
 1640              	.LVL194:
 994:Generated_Source\PSoC6\pdl\drivers\peripheral\smif/cy_smif_memslot.c **** 
 995:Generated_Source\PSoC6\pdl\drivers\peripheral\smif/cy_smif_memslot.c ****             /* The number of address bytes used by the memory slave device */
 996:Generated_Source\PSoC6\pdl\drivers\peripheral\smif/cy_smif_memslot.c ****             uint32_t sfdpDataIndex = CY_SMIF_SFDP_BFPT_BYTE_02 + (uint32_t)offset;
 1641              		.loc 1 996 0
 1642 0104 901C     		adds	r0, r2, #2
 1643 0106 8046     		mov	r8, r0
 1644              	.LVL195:
 997:Generated_Source\PSoC6\pdl\drivers\peripheral\smif/cy_smif_memslot.c ****             uint32_t sfdpAddrCode = _FLD2VAL(CY_SMIF_SFDP_ADDRESS_BYTES,
 1645              		.loc 1 997 0
 1646 0108 095C     		ldrb	r1, [r1, r0]
 1647 010a 4808     		lsrs	r0, r1, #1
 1648              	.LVL196:
 1649 010c 0321     		movs	r1, #3
 1650 010e 0140     		ands	r1, r0
 1651              	.LVL197:
 998:Generated_Source\PSoC6\pdl\drivers\peripheral\smif/cy_smif_memslot.c ****                                                 (uint32_t)sfdpBuffer
 999:Generated_Source\PSoC6\pdl\drivers\peripheral\smif/cy_smif_memslot.c ****                                                 [sfdpDataIndex]);
1000:Generated_Source\PSoC6\pdl\drivers\peripheral\smif/cy_smif_memslot.c ****             switch(sfdpAddrCode)
 1652              		.loc 1 1000 0
 1653 0110 0129     		cmp	r1, #1
 1654 0112 07D0     		beq	.L89
 1655 0114 0029     		cmp	r1, #0
 1656 0116 02D0     		beq	.L90
 1657 0118 0229     		cmp	r1, #2
 1658 011a 06D0     		beq	.L91
 1659 011c 07E0     		b	.L88
 1660              	.L90:
1001:Generated_Source\PSoC6\pdl\drivers\peripheral\smif/cy_smif_memslot.c ****             {
1002:Generated_Source\PSoC6\pdl\drivers\peripheral\smif/cy_smif_memslot.c ****                 case CY_SMIF_SFDP_THREE_BYTES_ADDR_CODE:
1003:Generated_Source\PSoC6\pdl\drivers\peripheral\smif/cy_smif_memslot.c ****                     device->numOfAddrBytes = CY_SMIF_THREE_BYTES_ADDR;
 1661              		.loc 1 1003 0
ARM GAS  C:\Users\ikomb\AppData\Local\Temp\cc5YtlHT.s 			page 73


 1662 011e 0321     		movs	r1, #3
 1663              	.LVL198:
 1664 0120 2960     		str	r1, [r5]
1004:Generated_Source\PSoC6\pdl\drivers\peripheral\smif/cy_smif_memslot.c ****                     break;
 1665              		.loc 1 1004 0
 1666 0122 04E0     		b	.L88
 1667              	.LVL199:
 1668              	.L89:
1005:Generated_Source\PSoC6\pdl\drivers\peripheral\smif/cy_smif_memslot.c ****                 case CY_SMIF_SFDP_THREE_OR_FOUR_BYTES_ADDR_CODE:
1006:Generated_Source\PSoC6\pdl\drivers\peripheral\smif/cy_smif_memslot.c ****                     device->numOfAddrBytes = CY_SMIF_THREE_BYTES_ADDR;
 1669              		.loc 1 1006 0
 1670 0124 0321     		movs	r1, #3
 1671              	.LVL200:
 1672 0126 2960     		str	r1, [r5]
1007:Generated_Source\PSoC6\pdl\drivers\peripheral\smif/cy_smif_memslot.c ****                     break;
 1673              		.loc 1 1007 0
 1674 0128 01E0     		b	.L88
 1675              	.LVL201:
 1676              	.L91:
1008:Generated_Source\PSoC6\pdl\drivers\peripheral\smif/cy_smif_memslot.c ****                 case CY_SMIF_SFDP_FOUR_BYTES_ADDR_CODE:
1009:Generated_Source\PSoC6\pdl\drivers\peripheral\smif/cy_smif_memslot.c ****                     device->numOfAddrBytes = CY_SMIF_FOUR_BYTES_ADDR;
 1677              		.loc 1 1009 0
 1678 012a 0421     		movs	r1, #4
 1679              	.LVL202:
 1680 012c 2960     		str	r1, [r5]
 1681              	.L88:
1010:Generated_Source\PSoC6\pdl\drivers\peripheral\smif/cy_smif_memslot.c ****                     break;
1011:Generated_Source\PSoC6\pdl\drivers\peripheral\smif/cy_smif_memslot.c ****                 default:
1012:Generated_Source\PSoC6\pdl\drivers\peripheral\smif/cy_smif_memslot.c ****                     break;
1013:Generated_Source\PSoC6\pdl\drivers\peripheral\smif/cy_smif_memslot.c ****             }
1014:Generated_Source\PSoC6\pdl\drivers\peripheral\smif/cy_smif_memslot.c **** 
1015:Generated_Source\PSoC6\pdl\drivers\peripheral\smif/cy_smif_memslot.c ****             /* Erase Time Type 1*/
1016:Generated_Source\PSoC6\pdl\drivers\peripheral\smif/cy_smif_memslot.c ****             uint32_t readEraseTime   = ((uint32_t*)sfdpBuffer)[(offset/CY_SMIF_BYTES_IN_WORD) +
 1682              		.loc 1 1016 0
 1683 012e 9708     		lsrs	r7, r2, #2
 1684 0130 3900     		movs	r1, r7
 1685 0132 0931     		adds	r1, r1, #9
 1686 0134 8900     		lsls	r1, r1, #2
 1687 0136 0CA8     		add	r0, sp, #48
 1688              	.LVL203:
 1689 0138 4158     		ldr	r1, [r0, r1]
 1690 013a 8946     		mov	r9, r1
 1691              	.LVL204:
1017:Generated_Source\PSoC6\pdl\drivers\peripheral\smif/cy_smif_memslot.c ****                                                                CY_SMIF_JEDEC_BFPT_10TH_DWORD];
1018:Generated_Source\PSoC6\pdl\drivers\peripheral\smif/cy_smif_memslot.c ****             uint32_t eraseUnits = _FLD2VAL(CY_SMIF_SFDP_ERASE_T1_UNITS, readEraseTime);
 1692              		.loc 1 1018 0
 1693 013c 480A     		lsrs	r0, r1, #9
 1694 013e 0321     		movs	r1, #3
 1695              	.LVL205:
 1696 0140 0140     		ands	r1, r0
 1697              	.LVL206:
1019:Generated_Source\PSoC6\pdl\drivers\peripheral\smif/cy_smif_memslot.c ****             uint32_t eraseCount  = _FLD2VAL(CY_SMIF_SFDP_ERASE_T1_COUNT, readEraseTime);
 1698              		.loc 1 1019 0
 1699 0142 4846     		mov	r0, r9
 1700 0144 0009     		lsrs	r0, r0, #4
 1701 0146 8446     		mov	ip, r0
 1702 0148 1F20     		movs	r0, #31
ARM GAS  C:\Users\ikomb\AppData\Local\Temp\cc5YtlHT.s 			page 74


 1703 014a 6646     		mov	r6, ip
 1704 014c 3040     		ands	r0, r6
 1705 014e 8246     		mov	r10, r0
 1706              	.LVL207:
1020:Generated_Source\PSoC6\pdl\drivers\peripheral\smif/cy_smif_memslot.c ****             uint32_t eraseMul = _FLD2VAL(CY_SMIF_SFDP_ERASE_MUL_COUNT, readEraseTime);
 1707              		.loc 1 1020 0
 1708 0150 0F26     		movs	r6, #15
 1709 0152 B446     		mov	ip, r6
 1710 0154 4E46     		mov	r6, r9
 1711 0156 6046     		mov	r0, ip
 1712              	.LVL208:
 1713 0158 0640     		ands	r6, r0
 1714 015a B446     		mov	ip, r6
 1715              	.LVL209:
1021:Generated_Source\PSoC6\pdl\drivers\peripheral\smif/cy_smif_memslot.c ****             uint32_t eraseMs = 0U;
1022:Generated_Source\PSoC6\pdl\drivers\peripheral\smif/cy_smif_memslot.c **** 
1023:Generated_Source\PSoC6\pdl\drivers\peripheral\smif/cy_smif_memslot.c ****             switch (eraseUnits)
 1716              		.loc 1 1023 0
 1717 015c 0129     		cmp	r1, #1
 1718 015e 07D0     		beq	.L93
 1719 0160 0029     		cmp	r1, #0
 1720 0162 0CD0     		beq	.L132
 1721 0164 0229     		cmp	r1, #2
 1722 0166 05D0     		beq	.L95
 1723 0168 0329     		cmp	r1, #3
 1724 016a 05D0     		beq	.L96
1021:Generated_Source\PSoC6\pdl\drivers\peripheral\smif/cy_smif_memslot.c ****             uint32_t eraseMs = 0U;
 1725              		.loc 1 1021 0
 1726 016c 0021     		movs	r1, #0
 1727              	.LVL210:
 1728 016e 07E0     		b	.L94
 1729              	.LVL211:
 1730              	.L93:
1024:Generated_Source\PSoC6\pdl\drivers\peripheral\smif/cy_smif_memslot.c ****             {
1025:Generated_Source\PSoC6\pdl\drivers\peripheral\smif/cy_smif_memslot.c ****                 case CY_SMIF_SFDP_UNIT_0:
1026:Generated_Source\PSoC6\pdl\drivers\peripheral\smif/cy_smif_memslot.c ****                     eraseMs = CY_SMIF_SFDP_ERASE_TIME_1MS;
1027:Generated_Source\PSoC6\pdl\drivers\peripheral\smif/cy_smif_memslot.c ****                     break;
1028:Generated_Source\PSoC6\pdl\drivers\peripheral\smif/cy_smif_memslot.c ****                 case CY_SMIF_SFDP_UNIT_1:
1029:Generated_Source\PSoC6\pdl\drivers\peripheral\smif/cy_smif_memslot.c ****                     eraseMs = CY_SMIF_SFDP_ERASE_TIME_16MS;
 1731              		.loc 1 1029 0
 1732 0170 1021     		movs	r1, #16
 1733              	.LVL212:
1030:Generated_Source\PSoC6\pdl\drivers\peripheral\smif/cy_smif_memslot.c ****                     break;
 1734              		.loc 1 1030 0
 1735 0172 05E0     		b	.L94
 1736              	.LVL213:
 1737              	.L95:
1031:Generated_Source\PSoC6\pdl\drivers\peripheral\smif/cy_smif_memslot.c ****                 case CY_SMIF_SFDP_UNIT_2:
1032:Generated_Source\PSoC6\pdl\drivers\peripheral\smif/cy_smif_memslot.c ****                     eraseMs = CY_SMIF_SFDP_ERASE_TIME_128MS;
 1738              		.loc 1 1032 0
 1739 0174 8021     		movs	r1, #128
 1740              	.LVL214:
1033:Generated_Source\PSoC6\pdl\drivers\peripheral\smif/cy_smif_memslot.c ****                     break;
 1741              		.loc 1 1033 0
 1742 0176 03E0     		b	.L94
 1743              	.LVL215:
 1744              	.L96:
ARM GAS  C:\Users\ikomb\AppData\Local\Temp\cc5YtlHT.s 			page 75


1034:Generated_Source\PSoC6\pdl\drivers\peripheral\smif/cy_smif_memslot.c ****                 case CY_SMIF_SFDP_UNIT_3:
1035:Generated_Source\PSoC6\pdl\drivers\peripheral\smif/cy_smif_memslot.c ****                     eraseMs = CY_SMIF_SFDP_ERASE_TIME_1S;
 1745              		.loc 1 1035 0
 1746 0178 FA21     		movs	r1, #250
 1747              	.LVL216:
 1748 017a 8900     		lsls	r1, r1, #2
1036:Generated_Source\PSoC6\pdl\drivers\peripheral\smif/cy_smif_memslot.c ****                     break;
 1749              		.loc 1 1036 0
 1750 017c 00E0     		b	.L94
 1751              	.LVL217:
 1752              	.L132:
1026:Generated_Source\PSoC6\pdl\drivers\peripheral\smif/cy_smif_memslot.c ****                     break;
 1753              		.loc 1 1026 0
 1754 017e 0121     		movs	r1, #1
 1755              	.LVL218:
 1756              	.L94:
1037:Generated_Source\PSoC6\pdl\drivers\peripheral\smif/cy_smif_memslot.c ****                 default:
1038:Generated_Source\PSoC6\pdl\drivers\peripheral\smif/cy_smif_memslot.c ****                     /* An unsupported SFDP value */
1039:Generated_Source\PSoC6\pdl\drivers\peripheral\smif/cy_smif_memslot.c ****                     break;
1040:Generated_Source\PSoC6\pdl\drivers\peripheral\smif/cy_smif_memslot.c ****             }
1041:Generated_Source\PSoC6\pdl\drivers\peripheral\smif/cy_smif_memslot.c ****             /* Convert typical time to max time */
1042:Generated_Source\PSoC6\pdl\drivers\peripheral\smif/cy_smif_memslot.c ****             device->eraseTime = ((eraseCount + 1U) * eraseMs) * (2U * (eraseMul + 1U));
 1757              		.loc 1 1042 0
 1758 0180 5046     		mov	r0, r10
 1759 0182 0130     		adds	r0, r0, #1
 1760 0184 4843     		muls	r0, r1
 1761 0186 0121     		movs	r1, #1
 1762              	.LVL219:
 1763 0188 8946     		mov	r9, r1
 1764              	.LVL220:
 1765 018a CC44     		add	ip, ip, r9
 1766 018c 6146     		mov	r1, ip
 1767 018e 4843     		muls	r0, r1
 1768 0190 4000     		lsls	r0, r0, #1
 1769 0192 2864     		str	r0, [r5, #64]
 1770              	.LVL221:
1043:Generated_Source\PSoC6\pdl\drivers\peripheral\smif/cy_smif_memslot.c **** 
1044:Generated_Source\PSoC6\pdl\drivers\peripheral\smif/cy_smif_memslot.c **** 
1045:Generated_Source\PSoC6\pdl\drivers\peripheral\smif/cy_smif_memslot.c ****             /* Chip Erase Time*/
1046:Generated_Source\PSoC6\pdl\drivers\peripheral\smif/cy_smif_memslot.c ****             uint32_t chipEraseProgTime   = ((uint32_t*)sfdpBuffer)[(offset/CY_SMIF_BYTES_IN_WORD) +
 1771              		.loc 1 1046 0
 1772 0194 0A37     		adds	r7, r7, #10
 1773 0196 BF00     		lsls	r7, r7, #2
 1774 0198 0CA9     		add	r1, sp, #48
 1775 019a CF59     		ldr	r7, [r1, r7]
 1776              	.LVL222:
1047:Generated_Source\PSoC6\pdl\drivers\peripheral\smif/cy_smif_memslot.c ****                                                                    CY_SMIF_JEDEC_BFPT_11TH_DWORD];
1048:Generated_Source\PSoC6\pdl\drivers\peripheral\smif/cy_smif_memslot.c ****             uint32_t chipEraseUnits = _FLD2VAL(CY_SMIF_SFDP_CHIP_ERASE_UNITS, chipEraseProgTime);
 1777              		.loc 1 1048 0
 1778 019c 780F     		lsrs	r0, r7, #29
 1779 019e 0321     		movs	r1, #3
 1780 01a0 0140     		ands	r1, r0
 1781              	.LVL223:
1049:Generated_Source\PSoC6\pdl\drivers\peripheral\smif/cy_smif_memslot.c ****             uint32_t chipEraseCount = _FLD2VAL(CY_SMIF_SFDP_CHIP_ERASE_COUNT, chipEraseProgTime);
 1782              		.loc 1 1049 0
 1783 01a2 380E     		lsrs	r0, r7, #24
 1784 01a4 8146     		mov	r9, r0
ARM GAS  C:\Users\ikomb\AppData\Local\Temp\cc5YtlHT.s 			page 76


 1785 01a6 1F20     		movs	r0, #31
 1786 01a8 4E46     		mov	r6, r9
 1787              	.LVL224:
 1788 01aa 3040     		ands	r0, r6
 1789              	.LVL225:
1050:Generated_Source\PSoC6\pdl\drivers\peripheral\smif/cy_smif_memslot.c ****             uint32_t chipEraseMs = 0U;
1051:Generated_Source\PSoC6\pdl\drivers\peripheral\smif/cy_smif_memslot.c **** 
1052:Generated_Source\PSoC6\pdl\drivers\peripheral\smif/cy_smif_memslot.c ****             switch (chipEraseUnits)
 1790              		.loc 1 1052 0
 1791 01ac 0129     		cmp	r1, #1
 1792 01ae 07D0     		beq	.L98
 1793 01b0 0029     		cmp	r1, #0
 1794 01b2 0ED0     		beq	.L133
 1795 01b4 0229     		cmp	r1, #2
 1796 01b6 06D0     		beq	.L100
 1797 01b8 0329     		cmp	r1, #3
 1798 01ba 07D0     		beq	.L101
1050:Generated_Source\PSoC6\pdl\drivers\peripheral\smif/cy_smif_memslot.c ****             uint32_t chipEraseMs = 0U;
 1799              		.loc 1 1050 0
 1800 01bc 0021     		movs	r1, #0
 1801              	.LVL226:
 1802 01be 09E0     		b	.L99
 1803              	.LVL227:
 1804              	.L98:
1053:Generated_Source\PSoC6\pdl\drivers\peripheral\smif/cy_smif_memslot.c ****             {
1054:Generated_Source\PSoC6\pdl\drivers\peripheral\smif/cy_smif_memslot.c ****                 case CY_SMIF_SFDP_UNIT_0:
1055:Generated_Source\PSoC6\pdl\drivers\peripheral\smif/cy_smif_memslot.c ****                     chipEraseMs = CY_SMIF_SFDP_CHIP_ERASE_TIME_16MS;
1056:Generated_Source\PSoC6\pdl\drivers\peripheral\smif/cy_smif_memslot.c ****                     break;
1057:Generated_Source\PSoC6\pdl\drivers\peripheral\smif/cy_smif_memslot.c ****                 case CY_SMIF_SFDP_UNIT_1:
1058:Generated_Source\PSoC6\pdl\drivers\peripheral\smif/cy_smif_memslot.c ****                     chipEraseMs = CY_SMIF_SFDP_CHIP_ERASE_TIME_256MS;
 1805              		.loc 1 1058 0
 1806 01c0 8021     		movs	r1, #128
 1807              	.LVL228:
 1808 01c2 4900     		lsls	r1, r1, #1
1059:Generated_Source\PSoC6\pdl\drivers\peripheral\smif/cy_smif_memslot.c ****                     break;
 1809              		.loc 1 1059 0
 1810 01c4 06E0     		b	.L99
 1811              	.LVL229:
 1812              	.L100:
1060:Generated_Source\PSoC6\pdl\drivers\peripheral\smif/cy_smif_memslot.c ****                 case CY_SMIF_SFDP_UNIT_2:
1061:Generated_Source\PSoC6\pdl\drivers\peripheral\smif/cy_smif_memslot.c ****                     chipEraseMs = CY_SMIF_SFDP_CHIP_ERASE_TIME_4S;
 1813              		.loc 1 1061 0
 1814 01c6 FA21     		movs	r1, #250
 1815              	.LVL230:
 1816 01c8 0901     		lsls	r1, r1, #4
1062:Generated_Source\PSoC6\pdl\drivers\peripheral\smif/cy_smif_memslot.c ****                     break;
 1817              		.loc 1 1062 0
 1818 01ca 03E0     		b	.L99
 1819              	.LVL231:
 1820              	.L101:
1063:Generated_Source\PSoC6\pdl\drivers\peripheral\smif/cy_smif_memslot.c ****                 case CY_SMIF_SFDP_UNIT_3:
1064:Generated_Source\PSoC6\pdl\drivers\peripheral\smif/cy_smif_memslot.c ****                     chipEraseMs = CY_SMIF_SFDP_CHIP_ERASE_TIME_64S;
 1821              		.loc 1 1064 0
 1822 01cc FA21     		movs	r1, #250
 1823              	.LVL232:
 1824 01ce 0902     		lsls	r1, r1, #8
1065:Generated_Source\PSoC6\pdl\drivers\peripheral\smif/cy_smif_memslot.c ****                     break;
ARM GAS  C:\Users\ikomb\AppData\Local\Temp\cc5YtlHT.s 			page 77


 1825              		.loc 1 1065 0
 1826 01d0 00E0     		b	.L99
 1827              	.LVL233:
 1828              	.L133:
1055:Generated_Source\PSoC6\pdl\drivers\peripheral\smif/cy_smif_memslot.c ****                     break;
 1829              		.loc 1 1055 0
 1830 01d2 1021     		movs	r1, #16
 1831              	.LVL234:
 1832              	.L99:
1066:Generated_Source\PSoC6\pdl\drivers\peripheral\smif/cy_smif_memslot.c ****                 default:
1067:Generated_Source\PSoC6\pdl\drivers\peripheral\smif/cy_smif_memslot.c ****                     /* An unsupported SFDP value*/
1068:Generated_Source\PSoC6\pdl\drivers\peripheral\smif/cy_smif_memslot.c ****                     break;
1069:Generated_Source\PSoC6\pdl\drivers\peripheral\smif/cy_smif_memslot.c ****             }
1070:Generated_Source\PSoC6\pdl\drivers\peripheral\smif/cy_smif_memslot.c ****             /* Convert typical time to max time */
1071:Generated_Source\PSoC6\pdl\drivers\peripheral\smif/cy_smif_memslot.c ****             device->chipEraseTime = ((chipEraseCount + 1U)*chipEraseMs) * (2U *(eraseMul + 1U));
 1833              		.loc 1 1071 0
 1834 01d4 0130     		adds	r0, r0, #1
 1835              	.LVL235:
 1836 01d6 4143     		muls	r1, r0
 1837              	.LVL236:
 1838 01d8 6046     		mov	r0, ip
 1839              	.LVL237:
 1840 01da 4143     		muls	r1, r0
 1841 01dc 4900     		lsls	r1, r1, #1
 1842 01de 6964     		str	r1, [r5, #68]
 1843              	.LVL238:
1072:Generated_Source\PSoC6\pdl\drivers\peripheral\smif/cy_smif_memslot.c **** 
1073:Generated_Source\PSoC6\pdl\drivers\peripheral\smif/cy_smif_memslot.c ****             /* Page Program Time*/
1074:Generated_Source\PSoC6\pdl\drivers\peripheral\smif/cy_smif_memslot.c ****             uint32_t programTimeUnits = _FLD2VAL(CY_SMIF_SFDP_PAGE_PROG_UNITS, chipEraseProgTime);
1075:Generated_Source\PSoC6\pdl\drivers\peripheral\smif/cy_smif_memslot.c ****             uint32_t programTimeCount  = _FLD2VAL(CY_SMIF_SFDP_PAGE_PROG_COUNT, chipEraseProgTime);
 1844              		.loc 1 1075 0
 1845 01e0 380A     		lsrs	r0, r7, #8
 1846 01e2 1F21     		movs	r1, #31
 1847              	.LVL239:
 1848 01e4 0840     		ands	r0, r1
 1849              	.LVL240:
1076:Generated_Source\PSoC6\pdl\drivers\peripheral\smif/cy_smif_memslot.c ****             uint32_t progMul = _FLD2VAL(CY_SMIF_SFDP_PROG_MUL_COUNT, chipEraseProgTime);
 1850              		.loc 1 1076 0
 1851 01e6 1039     		subs	r1, r1, #16
 1852              	.LVL241:
 1853 01e8 3940     		ands	r1, r7
 1854              	.LVL242:
1077:Generated_Source\PSoC6\pdl\drivers\peripheral\smif/cy_smif_memslot.c ****             uint32_t progUs;
1078:Generated_Source\PSoC6\pdl\drivers\peripheral\smif/cy_smif_memslot.c **** 
1079:Generated_Source\PSoC6\pdl\drivers\peripheral\smif/cy_smif_memslot.c ****             if (CY_SMIF_SFDP_UNIT_0 == programTimeUnits)
 1855              		.loc 1 1079 0
 1856 01ea BE04     		lsls	r6, r7, #18
 1857 01ec 01D4     		bmi	.L134
 1858              	.LVL243:
1080:Generated_Source\PSoC6\pdl\drivers\peripheral\smif/cy_smif_memslot.c ****             {
1081:Generated_Source\PSoC6\pdl\drivers\peripheral\smif/cy_smif_memslot.c ****                 progUs = CY_SMIF_SFDP_PROG_TIME_8US;
 1859              		.loc 1 1081 0
 1860 01ee 0827     		movs	r7, #8
 1861              	.LVL244:
 1862 01f0 00E0     		b	.L102
 1863              	.LVL245:
 1864              	.L134:
ARM GAS  C:\Users\ikomb\AppData\Local\Temp\cc5YtlHT.s 			page 78


1082:Generated_Source\PSoC6\pdl\drivers\peripheral\smif/cy_smif_memslot.c ****             }
1083:Generated_Source\PSoC6\pdl\drivers\peripheral\smif/cy_smif_memslot.c ****             else
1084:Generated_Source\PSoC6\pdl\drivers\peripheral\smif/cy_smif_memslot.c ****             {
1085:Generated_Source\PSoC6\pdl\drivers\peripheral\smif/cy_smif_memslot.c ****                 progUs = CY_SMIF_SFDP_PROG_TIME_64US;
 1865              		.loc 1 1085 0
 1866 01f2 4027     		movs	r7, #64
 1867              	.LVL246:
 1868              	.L102:
1086:Generated_Source\PSoC6\pdl\drivers\peripheral\smif/cy_smif_memslot.c ****             }
1087:Generated_Source\PSoC6\pdl\drivers\peripheral\smif/cy_smif_memslot.c ****             /* Convert typical time to max time */
1088:Generated_Source\PSoC6\pdl\drivers\peripheral\smif/cy_smif_memslot.c ****             device->programTime = ((programTimeCount + 1U) * progUs) * (2U * (progMul + 1U));
 1869              		.loc 1 1088 0
 1870 01f4 0130     		adds	r0, r0, #1
 1871              	.LVL247:
 1872 01f6 7843     		muls	r0, r7
 1873              	.LVL248:
 1874 01f8 0131     		adds	r1, r1, #1
 1875              	.LVL249:
 1876 01fa 4143     		muls	r1, r0
 1877              	.LVL250:
 1878 01fc 4900     		lsls	r1, r1, #1
 1879 01fe A964     		str	r1, [r5, #72]
1089:Generated_Source\PSoC6\pdl\drivers\peripheral\smif/cy_smif_memslot.c **** 
1090:Generated_Source\PSoC6\pdl\drivers\peripheral\smif/cy_smif_memslot.c **** 
1091:Generated_Source\PSoC6\pdl\drivers\peripheral\smif/cy_smif_memslot.c ****             /* The size of the external memory */
1092:Generated_Source\PSoC6\pdl\drivers\peripheral\smif/cy_smif_memslot.c ****             uint32_t locSize = Cy_SMIF_PackBytesArray(&sfdpBuffer[CY_SMIF_SFDP_BFPT_BYTE_04 +
 1880              		.loc 1 1092 0
 1881 0200 171D     		adds	r7, r2, #4
 1882              	.LVL251:
 1883 0202 0CA9     		add	r1, sp, #48
 1884 0204 C819     		adds	r0, r1, r7
 1885              	.LVL252:
 1886              	.LBB19:
 1887              	.LBB20:
1298:Generated_Source\PSoC6\pdl\drivers\peripheral\smif/cy_smif.h **** 
 1888              		.loc 2 1298 0
 1889 0206 4178     		ldrb	r1, [r0, #1]
 1890 0208 0902     		lsls	r1, r1, #8
 1891 020a 8C46     		mov	ip, r1
 1892              	.LVL253:
 1893 020c 0CA9     		add	r1, sp, #48
 1894 020e C95D     		ldrb	r1, [r1, r7]
 1895 0210 6746     		mov	r7, ip
 1896 0212 0F43     		orrs	r7, r1
 1897              	.LVL254:
1302:Generated_Source\PSoC6\pdl\drivers\peripheral\smif/cy_smif.h ****     }
 1898              		.loc 2 1302 0
 1899 0214 C178     		ldrb	r1, [r0, #3]
 1900 0216 0906     		lsls	r1, r1, #24
 1901 0218 8078     		ldrb	r0, [r0, #2]
 1902              	.LVL255:
 1903 021a 0004     		lsls	r0, r0, #16
 1904 021c 0143     		orrs	r1, r0
 1905 021e 3943     		orrs	r1, r7
 1906              	.LVL256:
 1907              	.LBE20:
 1908              	.LBE19:
ARM GAS  C:\Users\ikomb\AppData\Local\Temp\cc5YtlHT.s 			page 79


1093:Generated_Source\PSoC6\pdl\drivers\peripheral\smif/cy_smif_memslot.c ****                                                                     offset], true);
1094:Generated_Source\PSoC6\pdl\drivers\peripheral\smif/cy_smif_memslot.c **** 
1095:Generated_Source\PSoC6\pdl\drivers\peripheral\smif/cy_smif_memslot.c ****             if (0UL == (locSize & CY_SMIF_SFDP_SIZE_ABOVE_4GB_Msk))
 1909              		.loc 1 1095 0
 1910 0220 03D4     		bmi	.L103
1096:Generated_Source\PSoC6\pdl\drivers\peripheral\smif/cy_smif_memslot.c ****             {
1097:Generated_Source\PSoC6\pdl\drivers\peripheral\smif/cy_smif_memslot.c ****                 device->memSize = (locSize + 1UL)/CY_SMIF_BITS_IN_BYTE;
 1911              		.loc 1 1097 0
 1912 0222 0131     		adds	r1, r1, #1
 1913 0224 C908     		lsrs	r1, r1, #3
 1914 0226 6960     		str	r1, [r5, #4]
 1915 0228 04E0     		b	.L104
 1916              	.L103:
1098:Generated_Source\PSoC6\pdl\drivers\peripheral\smif/cy_smif_memslot.c ****             }
1099:Generated_Source\PSoC6\pdl\drivers\peripheral\smif/cy_smif_memslot.c ****             else
1100:Generated_Source\PSoC6\pdl\drivers\peripheral\smif/cy_smif_memslot.c ****             {
1101:Generated_Source\PSoC6\pdl\drivers\peripheral\smif/cy_smif_memslot.c ****                 device->memSize = (locSize - CY_SMIF_BITS_IN_BYTE_ABOVE_4GB) |
 1917              		.loc 1 1101 0
 1918 022a 0339     		subs	r1, r1, #3
 1919 022c 8020     		movs	r0, #128
 1920 022e 0006     		lsls	r0, r0, #24
 1921 0230 0143     		orrs	r1, r0
 1922 0232 6960     		str	r1, [r5, #4]
 1923              	.L104:
1102:Generated_Source\PSoC6\pdl\drivers\peripheral\smif/cy_smif_memslot.c ****                         CY_SMIF_SFDP_SIZE_ABOVE_4GB_Msk;
1103:Generated_Source\PSoC6\pdl\drivers\peripheral\smif/cy_smif_memslot.c ****             }
1104:Generated_Source\PSoC6\pdl\drivers\peripheral\smif/cy_smif_memslot.c ****             
1105:Generated_Source\PSoC6\pdl\drivers\peripheral\smif/cy_smif_memslot.c ****             /* The page size */
1106:Generated_Source\PSoC6\pdl\drivers\peripheral\smif/cy_smif_memslot.c ****             device->programSize = 0x01UL << _FLD2VAL(CY_SMIF_SFDP_PAGE_SIZE,
 1924              		.loc 1 1106 0
 1925 0234 1100     		movs	r1, r2
 1926 0236 2831     		adds	r1, r1, #40
 1927 0238 0CA8     		add	r0, sp, #48
 1928 023a 475C     		ldrb	r7, [r0, r1]
 1929 023c 3F09     		lsrs	r7, r7, #4
 1930 023e 0121     		movs	r1, #1
 1931 0240 0E00     		movs	r6, r1
 1932 0242 BE40     		lsls	r6, r6, r7
 1933 0244 6E62     		str	r6, [r5, #36]
1107:Generated_Source\PSoC6\pdl\drivers\peripheral\smif/cy_smif_memslot.c ****                 (uint32_t) sfdpBuffer[CY_SMIF_SFDP_BFPT_BYTE_28 + offset]);         
1108:Generated_Source\PSoC6\pdl\drivers\peripheral\smif/cy_smif_memslot.c ****             
1109:Generated_Source\PSoC6\pdl\drivers\peripheral\smif/cy_smif_memslot.c ****             /* The size of the Erase sector */
1110:Generated_Source\PSoC6\pdl\drivers\peripheral\smif/cy_smif_memslot.c ****             device->eraseSize = (0x01UL << (uint32_t)sfdpBuffer[CY_SMIF_SFDP_BFPT_BYTE_1C + offset]
 1934              		.loc 1 1110 0
 1935 0246 1700     		movs	r7, r2
 1936 0248 1C37     		adds	r7, r7, #28
 1937 024a C75D     		ldrb	r7, [r0, r7]
 1938 024c B940     		lsls	r1, r1, r7
 1939 024e A961     		str	r1, [r5, #24]
1111:Generated_Source\PSoC6\pdl\drivers\peripheral\smif/cy_smif_memslot.c **** 
1112:Generated_Source\PSoC6\pdl\drivers\peripheral\smif/cy_smif_memslot.c ****             /* This specifies the Read command. The preference order Quad>Dual>SPI */
1113:Generated_Source\PSoC6\pdl\drivers\peripheral\smif/cy_smif_memslot.c ****             if ((_FLD2VAL(CY_SMIF_SFDP_FAST_READ_1_4_4,
 1940              		.loc 1 1113 0
 1941 0250 4146     		mov	r1, r8
 1942 0252 415C     		ldrb	r1, [r0, r1]
 1943 0254 8806     		lsls	r0, r1, #26
 1944 0256 1FD5     		bpl	.L105
ARM GAS  C:\Users\ikomb\AppData\Local\Temp\cc5YtlHT.s 			page 80


1114:Generated_Source\PSoC6\pdl\drivers\peripheral\smif/cy_smif_memslot.c ****                                     ((uint32_t) sfdpBuffer[sfdpDataIndex])) == 1UL) &&
 1945              		.loc 1 1114 0
 1946 0258 0998     		ldr	r0, [sp, #36]
 1947 025a 0128     		cmp	r0, #1
 1948 025c 1CD0     		beq	.L105
1115:Generated_Source\PSoC6\pdl\drivers\peripheral\smif/cy_smif_memslot.c ****                                                 (CY_SMIF_DATA_SEL1 != dataSelect) &&
 1949              		.loc 1 1115 0
 1950 025e 0328     		cmp	r0, #3
 1951 0260 1AD0     		beq	.L105
1116:Generated_Source\PSoC6\pdl\drivers\peripheral\smif/cy_smif_memslot.c ****                                                 (CY_SMIF_DATA_SEL3 != dataSelect))
1117:Generated_Source\PSoC6\pdl\drivers\peripheral\smif/cy_smif_memslot.c ****             {
1118:Generated_Source\PSoC6\pdl\drivers\peripheral\smif/cy_smif_memslot.c ****                 /* The 8-bit command. 4 x I/O Read command */
1119:Generated_Source\PSoC6\pdl\drivers\peripheral\smif/cy_smif_memslot.c ****                 cmdRead->command = sfdpBuffer[CY_SMIF_SFDP_BFPT_BYTE_09 + offset];
 1952              		.loc 1 1119 0
 1953 0262 0CAE     		add	r6, sp, #48
 1954 0264 1100     		movs	r1, r2
 1955 0266 0931     		adds	r1, r1, #9
 1956 0268 715C     		ldrb	r1, [r6, r1]
 1957 026a 1960     		str	r1, [r3]
1120:Generated_Source\PSoC6\pdl\drivers\peripheral\smif/cy_smif_memslot.c **** 
1121:Generated_Source\PSoC6\pdl\drivers\peripheral\smif/cy_smif_memslot.c ****                 /* The width of the command transfer */
1122:Generated_Source\PSoC6\pdl\drivers\peripheral\smif/cy_smif_memslot.c ****                 cmdRead->cmdWidth = CY_SMIF_WIDTH_SINGLE;
 1958              		.loc 1 1122 0
 1959 026c 0021     		movs	r1, #0
 1960 026e 1971     		strb	r1, [r3, #4]
1123:Generated_Source\PSoC6\pdl\drivers\peripheral\smif/cy_smif_memslot.c **** 
1124:Generated_Source\PSoC6\pdl\drivers\peripheral\smif/cy_smif_memslot.c ****                 /* The width of the address transfer */
1125:Generated_Source\PSoC6\pdl\drivers\peripheral\smif/cy_smif_memslot.c ****                 cmdRead->addrWidth = CY_SMIF_WIDTH_QUAD;
 1961              		.loc 1 1125 0
 1962 0270 0231     		adds	r1, r1, #2
 1963 0272 5971     		strb	r1, [r3, #5]
1126:Generated_Source\PSoC6\pdl\drivers\peripheral\smif/cy_smif_memslot.c **** 
1127:Generated_Source\PSoC6\pdl\drivers\peripheral\smif/cy_smif_memslot.c ****                 /* The 8-bit mode byte. This value is 0xFFFFFFFF when there is no mode present */
1128:Generated_Source\PSoC6\pdl\drivers\peripheral\smif/cy_smif_memslot.c ****                 if ((_FLD2VAL(CY_SMIF_SFDP_1_4_4_MODE_CYCLES,
 1964              		.loc 1 1128 0
 1965 0274 1000     		movs	r0, r2
 1966 0276 0830     		adds	r0, r0, #8
 1967 0278 315C     		ldrb	r1, [r6, r0]
 1968 027a 4909     		lsrs	r1, r1, #5
 1969 027c 02D1     		bne	.L106
1129:Generated_Source\PSoC6\pdl\drivers\peripheral\smif/cy_smif_memslot.c ****                     (uint32_t) sfdpBuffer[CY_SMIF_SFDP_BFPT_BYTE_08 + offset])) == 0U)
1130:Generated_Source\PSoC6\pdl\drivers\peripheral\smif/cy_smif_memslot.c ****                 {
1131:Generated_Source\PSoC6\pdl\drivers\peripheral\smif/cy_smif_memslot.c ****                     cmdRead->mode = CY_SMIF_NO_COMMAND_OR_MODE;
 1970              		.loc 1 1131 0
 1971 027e 0139     		subs	r1, r1, #1
 1972 0280 9960     		str	r1, [r3, #8]
 1973 0282 01E0     		b	.L107
 1974              	.L106:
1132:Generated_Source\PSoC6\pdl\drivers\peripheral\smif/cy_smif_memslot.c ****                 }
1133:Generated_Source\PSoC6\pdl\drivers\peripheral\smif/cy_smif_memslot.c ****                 else
1134:Generated_Source\PSoC6\pdl\drivers\peripheral\smif/cy_smif_memslot.c ****                 {
1135:Generated_Source\PSoC6\pdl\drivers\peripheral\smif/cy_smif_memslot.c ****                     cmdRead->mode = CY_SMIF_READ_MODE_BYTE;
 1975              		.loc 1 1135 0
 1976 0284 5A21     		movs	r1, #90
 1977 0286 9960     		str	r1, [r3, #8]
 1978              	.L107:
1136:Generated_Source\PSoC6\pdl\drivers\peripheral\smif/cy_smif_memslot.c ****                 }
ARM GAS  C:\Users\ikomb\AppData\Local\Temp\cc5YtlHT.s 			page 81


1137:Generated_Source\PSoC6\pdl\drivers\peripheral\smif/cy_smif_memslot.c **** 
1138:Generated_Source\PSoC6\pdl\drivers\peripheral\smif/cy_smif_memslot.c ****                 /* The number of the dummy cycles. A zero value suggests no dummy cycles */
1139:Generated_Source\PSoC6\pdl\drivers\peripheral\smif/cy_smif_memslot.c ****                 cmdRead->dummyCycles = _FLD2VAL(CY_SMIF_SFDP_1_4_4_DUMMY_CYCLES, (uint32_t) sfdpBuf
 1979              		.loc 1 1139 0
 1980 0288 0CA9     		add	r1, sp, #48
 1981 028a 085C     		ldrb	r0, [r1, r0]
 1982 028c 1F21     		movs	r1, #31
 1983              	.LVL257:
 1984 028e 0140     		ands	r1, r0
 1985              	.LVL258:
 1986 0290 1961     		str	r1, [r3, #16]
1140:Generated_Source\PSoC6\pdl\drivers\peripheral\smif/cy_smif_memslot.c ****                                         [CY_SMIF_SFDP_BFPT_BYTE_08 + offset]);
1141:Generated_Source\PSoC6\pdl\drivers\peripheral\smif/cy_smif_memslot.c **** 
1142:Generated_Source\PSoC6\pdl\drivers\peripheral\smif/cy_smif_memslot.c ****                 /* The width of the data transfer*/
1143:Generated_Source\PSoC6\pdl\drivers\peripheral\smif/cy_smif_memslot.c ****                 cmdRead->dataWidth = CY_SMIF_WIDTH_QUAD;
 1987              		.loc 1 1143 0
 1988 0292 0221     		movs	r1, #2
 1989 0294 1975     		strb	r1, [r3, #20]
 1990 0296 6DE0     		b	.L108
 1991              	.L105:
1144:Generated_Source\PSoC6\pdl\drivers\peripheral\smif/cy_smif_memslot.c ****             }
1145:Generated_Source\PSoC6\pdl\drivers\peripheral\smif/cy_smif_memslot.c ****             else
1146:Generated_Source\PSoC6\pdl\drivers\peripheral\smif/cy_smif_memslot.c ****             {
1147:Generated_Source\PSoC6\pdl\drivers\peripheral\smif/cy_smif_memslot.c ****                 if ((_FLD2VAL(CY_SMIF_SFDP_FAST_READ_1_1_4,
 1992              		.loc 1 1147 0
 1993 0298 4806     		lsls	r0, r1, #25
 1994 029a 1FD5     		bpl	.L109
1148:Generated_Source\PSoC6\pdl\drivers\peripheral\smif/cy_smif_memslot.c ****                                     ((uint32_t)sfdpBuffer[sfdpDataIndex])) == 1UL)  &&
 1995              		.loc 1 1148 0
 1996 029c 0998     		ldr	r0, [sp, #36]
 1997 029e 0128     		cmp	r0, #1
 1998 02a0 1CD0     		beq	.L109
1149:Generated_Source\PSoC6\pdl\drivers\peripheral\smif/cy_smif_memslot.c ****                                                 (CY_SMIF_DATA_SEL1 != dataSelect) &&
 1999              		.loc 1 1149 0
 2000 02a2 0328     		cmp	r0, #3
 2001 02a4 1AD0     		beq	.L109
1150:Generated_Source\PSoC6\pdl\drivers\peripheral\smif/cy_smif_memslot.c ****                                                 (CY_SMIF_DATA_SEL3 != dataSelect))
1151:Generated_Source\PSoC6\pdl\drivers\peripheral\smif/cy_smif_memslot.c ****                 {
1152:Generated_Source\PSoC6\pdl\drivers\peripheral\smif/cy_smif_memslot.c ****                     /* The 8-bit command. 4 x I/O Read command */
1153:Generated_Source\PSoC6\pdl\drivers\peripheral\smif/cy_smif_memslot.c ****                     cmdRead->command  =
1154:Generated_Source\PSoC6\pdl\drivers\peripheral\smif/cy_smif_memslot.c ****                             sfdpBuffer[CY_SMIF_SFDP_BFPT_BYTE_0B + offset];
 2002              		.loc 1 1154 0
 2003 02a6 0CAE     		add	r6, sp, #48
 2004 02a8 1100     		movs	r1, r2
 2005 02aa 0B31     		adds	r1, r1, #11
 2006 02ac 715C     		ldrb	r1, [r6, r1]
1153:Generated_Source\PSoC6\pdl\drivers\peripheral\smif/cy_smif_memslot.c ****                             sfdpBuffer[CY_SMIF_SFDP_BFPT_BYTE_0B + offset];
 2007              		.loc 1 1153 0
 2008 02ae 1960     		str	r1, [r3]
1155:Generated_Source\PSoC6\pdl\drivers\peripheral\smif/cy_smif_memslot.c **** 
1156:Generated_Source\PSoC6\pdl\drivers\peripheral\smif/cy_smif_memslot.c ****                     /* The width of the command transfer */
1157:Generated_Source\PSoC6\pdl\drivers\peripheral\smif/cy_smif_memslot.c ****                     cmdRead->cmdWidth = CY_SMIF_WIDTH_SINGLE;
 2009              		.loc 1 1157 0
 2010 02b0 0021     		movs	r1, #0
 2011 02b2 1971     		strb	r1, [r3, #4]
1158:Generated_Source\PSoC6\pdl\drivers\peripheral\smif/cy_smif_memslot.c **** 
1159:Generated_Source\PSoC6\pdl\drivers\peripheral\smif/cy_smif_memslot.c ****                     /* The width of the address transfer */
ARM GAS  C:\Users\ikomb\AppData\Local\Temp\cc5YtlHT.s 			page 82


1160:Generated_Source\PSoC6\pdl\drivers\peripheral\smif/cy_smif_memslot.c ****                     cmdRead->addrWidth = CY_SMIF_WIDTH_QUAD;
 2012              		.loc 1 1160 0
 2013 02b4 0231     		adds	r1, r1, #2
 2014 02b6 5971     		strb	r1, [r3, #5]
1161:Generated_Source\PSoC6\pdl\drivers\peripheral\smif/cy_smif_memslot.c **** 
1162:Generated_Source\PSoC6\pdl\drivers\peripheral\smif/cy_smif_memslot.c ****                     /* The 8-bit mode byte. This value is 0xFFFFFFFF when there is no mode present 
1163:Generated_Source\PSoC6\pdl\drivers\peripheral\smif/cy_smif_memslot.c ****                     if ((_FLD2VAL(CY_SMIF_SFDP_1_1_4_MODE_CYCLES, (uint32_t) sfdpBuffer
 2015              		.loc 1 1163 0
 2016 02b8 1000     		movs	r0, r2
 2017 02ba 0A30     		adds	r0, r0, #10
 2018 02bc 315C     		ldrb	r1, [r6, r0]
 2019 02be 4909     		lsrs	r1, r1, #5
 2020 02c0 02D1     		bne	.L110
1164:Generated_Source\PSoC6\pdl\drivers\peripheral\smif/cy_smif_memslot.c ****                                     [CY_SMIF_SFDP_BFPT_BYTE_0A + offset])) == 0U)
1165:Generated_Source\PSoC6\pdl\drivers\peripheral\smif/cy_smif_memslot.c ****                     {
1166:Generated_Source\PSoC6\pdl\drivers\peripheral\smif/cy_smif_memslot.c ****                         cmdRead->mode = CY_SMIF_NO_COMMAND_OR_MODE;
 2021              		.loc 1 1166 0
 2022 02c2 0139     		subs	r1, r1, #1
 2023 02c4 9960     		str	r1, [r3, #8]
 2024 02c6 01E0     		b	.L111
 2025              	.L110:
1167:Generated_Source\PSoC6\pdl\drivers\peripheral\smif/cy_smif_memslot.c ****                     }
1168:Generated_Source\PSoC6\pdl\drivers\peripheral\smif/cy_smif_memslot.c ****                     else
1169:Generated_Source\PSoC6\pdl\drivers\peripheral\smif/cy_smif_memslot.c ****                     {
1170:Generated_Source\PSoC6\pdl\drivers\peripheral\smif/cy_smif_memslot.c ****                         cmdRead->mode = CY_SMIF_READ_MODE_BYTE;
 2026              		.loc 1 1170 0
 2027 02c8 5A21     		movs	r1, #90
 2028 02ca 9960     		str	r1, [r3, #8]
 2029              	.L111:
1171:Generated_Source\PSoC6\pdl\drivers\peripheral\smif/cy_smif_memslot.c ****                     }
1172:Generated_Source\PSoC6\pdl\drivers\peripheral\smif/cy_smif_memslot.c **** 
1173:Generated_Source\PSoC6\pdl\drivers\peripheral\smif/cy_smif_memslot.c ****                     /* The number of the dummy cycles. A zero value suggests no dummy cycles */
1174:Generated_Source\PSoC6\pdl\drivers\peripheral\smif/cy_smif_memslot.c ****                     cmdRead->dummyCycles = _FLD2VAL(CY_SMIF_SFDP_1_1_4_DUMMY_CYCLES,
 2030              		.loc 1 1174 0
 2031 02cc 0CA9     		add	r1, sp, #48
 2032 02ce 085C     		ldrb	r0, [r1, r0]
 2033 02d0 1F21     		movs	r1, #31
 2034              	.LVL259:
 2035 02d2 0140     		ands	r1, r0
 2036              	.LVL260:
 2037 02d4 1961     		str	r1, [r3, #16]
1175:Generated_Source\PSoC6\pdl\drivers\peripheral\smif/cy_smif_memslot.c ****                         (uint32_t)sfdpBuffer[CY_SMIF_SFDP_BFPT_BYTE_0A + offset]);
1176:Generated_Source\PSoC6\pdl\drivers\peripheral\smif/cy_smif_memslot.c **** 
1177:Generated_Source\PSoC6\pdl\drivers\peripheral\smif/cy_smif_memslot.c ****                     /* The width of the data transfer*/
1178:Generated_Source\PSoC6\pdl\drivers\peripheral\smif/cy_smif_memslot.c ****                     cmdRead->dataWidth = CY_SMIF_WIDTH_QUAD;
 2038              		.loc 1 1178 0
 2039 02d6 0221     		movs	r1, #2
 2040 02d8 1975     		strb	r1, [r3, #20]
 2041 02da 4BE0     		b	.L108
 2042              	.L109:
1179:Generated_Source\PSoC6\pdl\drivers\peripheral\smif/cy_smif_memslot.c ****                 }
1180:Generated_Source\PSoC6\pdl\drivers\peripheral\smif/cy_smif_memslot.c ****                 else
1181:Generated_Source\PSoC6\pdl\drivers\peripheral\smif/cy_smif_memslot.c ****                 {
1182:Generated_Source\PSoC6\pdl\drivers\peripheral\smif/cy_smif_memslot.c ****                     if ((_FLD2VAL(CY_SMIF_SFDP_FAST_READ_1_2_2,
 2043              		.loc 1 1182 0
 2044 02dc C806     		lsls	r0, r1, #27
 2045 02de 1AD5     		bpl	.L112
ARM GAS  C:\Users\ikomb\AppData\Local\Temp\cc5YtlHT.s 			page 83


1183:Generated_Source\PSoC6\pdl\drivers\peripheral\smif/cy_smif_memslot.c ****                                         (uint32_t)sfdpBuffer[sfdpDataIndex])) == 1UL)
1184:Generated_Source\PSoC6\pdl\drivers\peripheral\smif/cy_smif_memslot.c ****                     {
1185:Generated_Source\PSoC6\pdl\drivers\peripheral\smif/cy_smif_memslot.c ****                         /* The 8-bit command. 2 x I/O Read command */
1186:Generated_Source\PSoC6\pdl\drivers\peripheral\smif/cy_smif_memslot.c ****                         cmdRead->command  = sfdpBuffer[CY_SMIF_SFDP_BFPT_BYTE_0F + offset];
 2046              		.loc 1 1186 0
 2047 02e0 0CAE     		add	r6, sp, #48
 2048 02e2 1100     		movs	r1, r2
 2049 02e4 0F31     		adds	r1, r1, #15
 2050 02e6 715C     		ldrb	r1, [r6, r1]
 2051 02e8 1960     		str	r1, [r3]
1187:Generated_Source\PSoC6\pdl\drivers\peripheral\smif/cy_smif_memslot.c **** 
1188:Generated_Source\PSoC6\pdl\drivers\peripheral\smif/cy_smif_memslot.c ****                         /* The width of the command transfer */
1189:Generated_Source\PSoC6\pdl\drivers\peripheral\smif/cy_smif_memslot.c ****                         cmdRead->cmdWidth = CY_SMIF_WIDTH_SINGLE;
 2052              		.loc 1 1189 0
 2053 02ea 0021     		movs	r1, #0
 2054 02ec 1971     		strb	r1, [r3, #4]
1190:Generated_Source\PSoC6\pdl\drivers\peripheral\smif/cy_smif_memslot.c **** 
1191:Generated_Source\PSoC6\pdl\drivers\peripheral\smif/cy_smif_memslot.c ****                         /* The width of the address transfer */
1192:Generated_Source\PSoC6\pdl\drivers\peripheral\smif/cy_smif_memslot.c ****                         cmdRead->addrWidth = CY_SMIF_WIDTH_DUAL;
 2055              		.loc 1 1192 0
 2056 02ee 0131     		adds	r1, r1, #1
 2057 02f0 5971     		strb	r1, [r3, #5]
1193:Generated_Source\PSoC6\pdl\drivers\peripheral\smif/cy_smif_memslot.c **** 
1194:Generated_Source\PSoC6\pdl\drivers\peripheral\smif/cy_smif_memslot.c ****                         /* The 8-bit mode byte. This value is 0xFFFFFFFF when there is no mode pres
1195:Generated_Source\PSoC6\pdl\drivers\peripheral\smif/cy_smif_memslot.c ****                         if ((_FLD2VAL(CY_SMIF_SFDP_1_2_2_MODE_CYCLES, (uint32_t)
 2058              		.loc 1 1195 0
 2059 02f2 1000     		movs	r0, r2
 2060 02f4 0E30     		adds	r0, r0, #14
 2061 02f6 315C     		ldrb	r1, [r6, r0]
 2062 02f8 4909     		lsrs	r1, r1, #5
 2063 02fa 02D1     		bne	.L113
1196:Generated_Source\PSoC6\pdl\drivers\peripheral\smif/cy_smif_memslot.c ****                             sfdpBuffer[CY_SMIF_SFDP_BFPT_BYTE_0E + offset])) == 0U)
1197:Generated_Source\PSoC6\pdl\drivers\peripheral\smif/cy_smif_memslot.c ****                         {
1198:Generated_Source\PSoC6\pdl\drivers\peripheral\smif/cy_smif_memslot.c ****                             cmdRead->mode = CY_SMIF_NO_COMMAND_OR_MODE;
 2064              		.loc 1 1198 0
 2065 02fc 0139     		subs	r1, r1, #1
 2066 02fe 9960     		str	r1, [r3, #8]
 2067 0300 01E0     		b	.L114
 2068              	.L113:
1199:Generated_Source\PSoC6\pdl\drivers\peripheral\smif/cy_smif_memslot.c ****                         }
1200:Generated_Source\PSoC6\pdl\drivers\peripheral\smif/cy_smif_memslot.c ****                         else
1201:Generated_Source\PSoC6\pdl\drivers\peripheral\smif/cy_smif_memslot.c ****                         {
1202:Generated_Source\PSoC6\pdl\drivers\peripheral\smif/cy_smif_memslot.c ****                             cmdRead->mode = CY_SMIF_READ_MODE_BYTE;
 2069              		.loc 1 1202 0
 2070 0302 5A21     		movs	r1, #90
 2071 0304 9960     		str	r1, [r3, #8]
 2072              	.L114:
1203:Generated_Source\PSoC6\pdl\drivers\peripheral\smif/cy_smif_memslot.c ****                         }
1204:Generated_Source\PSoC6\pdl\drivers\peripheral\smif/cy_smif_memslot.c **** 
1205:Generated_Source\PSoC6\pdl\drivers\peripheral\smif/cy_smif_memslot.c ****                         /* The number of the dummy cycles. A zero value suggests no dummy cycles */
1206:Generated_Source\PSoC6\pdl\drivers\peripheral\smif/cy_smif_memslot.c ****                         cmdRead->dummyCycles = _FLD2VAL(CY_SMIF_SFDP_1_2_2_DUMMY_CYCLES,
 2073              		.loc 1 1206 0
 2074 0306 0CA9     		add	r1, sp, #48
 2075 0308 085C     		ldrb	r0, [r1, r0]
 2076 030a 1F21     		movs	r1, #31
 2077              	.LVL261:
 2078 030c 0140     		ands	r1, r0
ARM GAS  C:\Users\ikomb\AppData\Local\Temp\cc5YtlHT.s 			page 84


 2079              	.LVL262:
 2080 030e 1961     		str	r1, [r3, #16]
1207:Generated_Source\PSoC6\pdl\drivers\peripheral\smif/cy_smif_memslot.c ****                                                 (uint32_t) sfdpBuffer [CY_SMIF_SFDP_BFPT_BYTE_0E + 
1208:Generated_Source\PSoC6\pdl\drivers\peripheral\smif/cy_smif_memslot.c **** 
1209:Generated_Source\PSoC6\pdl\drivers\peripheral\smif/cy_smif_memslot.c ****                         /* The width of the data transfer*/
1210:Generated_Source\PSoC6\pdl\drivers\peripheral\smif/cy_smif_memslot.c ****                         cmdRead->dataWidth = CY_SMIF_WIDTH_DUAL;
 2081              		.loc 1 1210 0
 2082 0310 0121     		movs	r1, #1
 2083 0312 1975     		strb	r1, [r3, #20]
 2084 0314 2EE0     		b	.L108
 2085              	.L112:
1211:Generated_Source\PSoC6\pdl\drivers\peripheral\smif/cy_smif_memslot.c ****                     }
1212:Generated_Source\PSoC6\pdl\drivers\peripheral\smif/cy_smif_memslot.c ****                     else
1213:Generated_Source\PSoC6\pdl\drivers\peripheral\smif/cy_smif_memslot.c ****                     {
1214:Generated_Source\PSoC6\pdl\drivers\peripheral\smif/cy_smif_memslot.c ****                         if ((_FLD2VAL(CY_SMIF_SFDP_FAST_READ_1_1_2,
 2086              		.loc 1 1214 0
 2087 0316 C907     		lsls	r1, r1, #31
 2088 0318 22D5     		bpl	.L115
1215:Generated_Source\PSoC6\pdl\drivers\peripheral\smif/cy_smif_memslot.c ****                                             (uint32_t)sfdpBuffer[sfdpDataIndex])) == 1UL)
1216:Generated_Source\PSoC6\pdl\drivers\peripheral\smif/cy_smif_memslot.c ****                         {
1217:Generated_Source\PSoC6\pdl\drivers\peripheral\smif/cy_smif_memslot.c ****                             /* The 8-bit command. 2 x I/O Read command */
1218:Generated_Source\PSoC6\pdl\drivers\peripheral\smif/cy_smif_memslot.c ****                             cmdRead->command  = sfdpBuffer[CY_SMIF_SFDP_BFPT_BYTE_0D + offset];
 2089              		.loc 1 1218 0
 2090 031a 0CAE     		add	r6, sp, #48
 2091 031c 1100     		movs	r1, r2
 2092 031e 0D31     		adds	r1, r1, #13
 2093 0320 715C     		ldrb	r1, [r6, r1]
 2094 0322 1960     		str	r1, [r3]
1219:Generated_Source\PSoC6\pdl\drivers\peripheral\smif/cy_smif_memslot.c **** 
1220:Generated_Source\PSoC6\pdl\drivers\peripheral\smif/cy_smif_memslot.c ****                             /* The width of the command transfer */
1221:Generated_Source\PSoC6\pdl\drivers\peripheral\smif/cy_smif_memslot.c ****                             cmdRead->cmdWidth = CY_SMIF_WIDTH_SINGLE;
 2095              		.loc 1 1221 0
 2096 0324 0021     		movs	r1, #0
 2097 0326 1971     		strb	r1, [r3, #4]
1222:Generated_Source\PSoC6\pdl\drivers\peripheral\smif/cy_smif_memslot.c **** 
1223:Generated_Source\PSoC6\pdl\drivers\peripheral\smif/cy_smif_memslot.c ****                             /* The width of the address transfer */
1224:Generated_Source\PSoC6\pdl\drivers\peripheral\smif/cy_smif_memslot.c ****                             cmdRead->addrWidth = CY_SMIF_WIDTH_SINGLE;
 2098              		.loc 1 1224 0
 2099 0328 5971     		strb	r1, [r3, #5]
1225:Generated_Source\PSoC6\pdl\drivers\peripheral\smif/cy_smif_memslot.c **** 
1226:Generated_Source\PSoC6\pdl\drivers\peripheral\smif/cy_smif_memslot.c ****                             /* The 8-bit mode byte. This value is 0xFFFFFFFF when there is no mode 
1227:Generated_Source\PSoC6\pdl\drivers\peripheral\smif/cy_smif_memslot.c ****                             if ((_FLD2VAL(CY_SMIF_SFDP_1_1_2_MODE_CYCLES, (uint32_t)
 2100              		.loc 1 1227 0
 2101 032a 1000     		movs	r0, r2
 2102 032c 0C30     		adds	r0, r0, #12
 2103 032e 315C     		ldrb	r1, [r6, r0]
 2104 0330 4909     		lsrs	r1, r1, #5
 2105 0332 0BD1     		bne	.L116
1228:Generated_Source\PSoC6\pdl\drivers\peripheral\smif/cy_smif_memslot.c ****                                 sfdpBuffer[CY_SMIF_SFDP_BFPT_BYTE_0C + offset])) == 0U)
1229:Generated_Source\PSoC6\pdl\drivers\peripheral\smif/cy_smif_memslot.c ****                             {
1230:Generated_Source\PSoC6\pdl\drivers\peripheral\smif/cy_smif_memslot.c ****                                 cmdRead->mode = CY_SMIF_NO_COMMAND_OR_MODE;
 2106              		.loc 1 1230 0
 2107 0334 0139     		subs	r1, r1, #1
 2108 0336 9960     		str	r1, [r3, #8]
 2109 0338 0AE0     		b	.L117
 2110              	.L136:
 2111 033a C046     		.align	2
ARM GAS  C:\Users\ikomb\AppData\Local\Temp\cc5YtlHT.s 			page 85


 2112              	.L135:
 2113 033c B1030000 		.word	945
 2114 0340 00000000 		.word	.LC0
 2115 0344 B2030000 		.word	946
 2116 0348 0200B200 		.word	11665410
 2117              	.L116:
1231:Generated_Source\PSoC6\pdl\drivers\peripheral\smif/cy_smif_memslot.c ****                             }
1232:Generated_Source\PSoC6\pdl\drivers\peripheral\smif/cy_smif_memslot.c ****                             else
1233:Generated_Source\PSoC6\pdl\drivers\peripheral\smif/cy_smif_memslot.c ****                             {
1234:Generated_Source\PSoC6\pdl\drivers\peripheral\smif/cy_smif_memslot.c ****                                 cmdRead->mode = CY_SMIF_READ_MODE_BYTE;
 2118              		.loc 1 1234 0
 2119 034c 5A21     		movs	r1, #90
 2120 034e 9960     		str	r1, [r3, #8]
 2121              	.L117:
1235:Generated_Source\PSoC6\pdl\drivers\peripheral\smif/cy_smif_memslot.c ****                             }
1236:Generated_Source\PSoC6\pdl\drivers\peripheral\smif/cy_smif_memslot.c **** 
1237:Generated_Source\PSoC6\pdl\drivers\peripheral\smif/cy_smif_memslot.c ****                             /* The number of the dummy cycles. A zero value suggests no dummy cycle
1238:Generated_Source\PSoC6\pdl\drivers\peripheral\smif/cy_smif_memslot.c ****                             cmdRead->dummyCycles = _FLD2VAL(CY_SMIF_SFDP_1_1_2_DUMMY_CYCLES,
 2122              		.loc 1 1238 0
 2123 0350 0CA9     		add	r1, sp, #48
 2124 0352 085C     		ldrb	r0, [r1, r0]
 2125 0354 1F21     		movs	r1, #31
 2126              	.LVL263:
 2127 0356 0140     		ands	r1, r0
 2128              	.LVL264:
 2129 0358 1961     		str	r1, [r3, #16]
1239:Generated_Source\PSoC6\pdl\drivers\peripheral\smif/cy_smif_memslot.c ****                                     (uint32_t)sfdpBuffer[CY_SMIF_SFDP_BFPT_BYTE_0C + offset]);
1240:Generated_Source\PSoC6\pdl\drivers\peripheral\smif/cy_smif_memslot.c **** 
1241:Generated_Source\PSoC6\pdl\drivers\peripheral\smif/cy_smif_memslot.c ****                             /* The width of the data transfer*/
1242:Generated_Source\PSoC6\pdl\drivers\peripheral\smif/cy_smif_memslot.c ****                             cmdRead->dataWidth = CY_SMIF_WIDTH_DUAL;
 2130              		.loc 1 1242 0
 2131 035a 0121     		movs	r1, #1
 2132 035c 1975     		strb	r1, [r3, #20]
 2133 035e 09E0     		b	.L108
 2134              	.L115:
1243:Generated_Source\PSoC6\pdl\drivers\peripheral\smif/cy_smif_memslot.c ****                         }
1244:Generated_Source\PSoC6\pdl\drivers\peripheral\smif/cy_smif_memslot.c ****                         else
1245:Generated_Source\PSoC6\pdl\drivers\peripheral\smif/cy_smif_memslot.c ****                         {
1246:Generated_Source\PSoC6\pdl\drivers\peripheral\smif/cy_smif_memslot.c ****                             /* The 8-bit command. 1 x I/O Read command */
1247:Generated_Source\PSoC6\pdl\drivers\peripheral\smif/cy_smif_memslot.c ****                             cmdRead->command  = CY_SMIF_SINGLE_READ_CMD;
 2135              		.loc 1 1247 0
 2136 0360 0321     		movs	r1, #3
 2137 0362 1960     		str	r1, [r3]
1248:Generated_Source\PSoC6\pdl\drivers\peripheral\smif/cy_smif_memslot.c **** 
1249:Generated_Source\PSoC6\pdl\drivers\peripheral\smif/cy_smif_memslot.c ****                             /* The width of the command transfer */
1250:Generated_Source\PSoC6\pdl\drivers\peripheral\smif/cy_smif_memslot.c ****                             cmdRead->cmdWidth = CY_SMIF_WIDTH_SINGLE;
 2138              		.loc 1 1250 0
 2139 0364 0021     		movs	r1, #0
 2140 0366 1971     		strb	r1, [r3, #4]
1251:Generated_Source\PSoC6\pdl\drivers\peripheral\smif/cy_smif_memslot.c **** 
1252:Generated_Source\PSoC6\pdl\drivers\peripheral\smif/cy_smif_memslot.c ****                             /* The width of the address transfer */
1253:Generated_Source\PSoC6\pdl\drivers\peripheral\smif/cy_smif_memslot.c ****                             cmdRead->addrWidth = CY_SMIF_WIDTH_SINGLE;
 2141              		.loc 1 1253 0
 2142 0368 5971     		strb	r1, [r3, #5]
1254:Generated_Source\PSoC6\pdl\drivers\peripheral\smif/cy_smif_memslot.c **** 
1255:Generated_Source\PSoC6\pdl\drivers\peripheral\smif/cy_smif_memslot.c ****                             /* The 8 bit-mode byte. This value is 0xFFFFFFFF when there is no mode 
1256:Generated_Source\PSoC6\pdl\drivers\peripheral\smif/cy_smif_memslot.c ****                             cmdRead->mode = CY_SMIF_NO_COMMAND_OR_MODE;
ARM GAS  C:\Users\ikomb\AppData\Local\Temp\cc5YtlHT.s 			page 86


 2143              		.loc 1 1256 0
 2144 036a 0120     		movs	r0, #1
 2145 036c 4042     		rsbs	r0, r0, #0
 2146 036e 9860     		str	r0, [r3, #8]
1257:Generated_Source\PSoC6\pdl\drivers\peripheral\smif/cy_smif_memslot.c **** 
1258:Generated_Source\PSoC6\pdl\drivers\peripheral\smif/cy_smif_memslot.c ****                             /* The number of the dummy cycles. A zero value suggests no dummy cycle
1259:Generated_Source\PSoC6\pdl\drivers\peripheral\smif/cy_smif_memslot.c ****                             cmdRead->dummyCycles = 0U;
 2147              		.loc 1 1259 0
 2148 0370 1961     		str	r1, [r3, #16]
1260:Generated_Source\PSoC6\pdl\drivers\peripheral\smif/cy_smif_memslot.c **** 
1261:Generated_Source\PSoC6\pdl\drivers\peripheral\smif/cy_smif_memslot.c ****                             /* The width of the data transfer*/
1262:Generated_Source\PSoC6\pdl\drivers\peripheral\smif/cy_smif_memslot.c ****                             cmdRead->dataWidth = CY_SMIF_WIDTH_SINGLE;
 2149              		.loc 1 1262 0
 2150 0372 1975     		strb	r1, [r3, #20]
 2151              	.L108:
1263:Generated_Source\PSoC6\pdl\drivers\peripheral\smif/cy_smif_memslot.c ****                         }
1264:Generated_Source\PSoC6\pdl\drivers\peripheral\smif/cy_smif_memslot.c ****                     }
1265:Generated_Source\PSoC6\pdl\drivers\peripheral\smif/cy_smif_memslot.c ****                 }
1266:Generated_Source\PSoC6\pdl\drivers\peripheral\smif/cy_smif_memslot.c ****             }
1267:Generated_Source\PSoC6\pdl\drivers\peripheral\smif/cy_smif_memslot.c **** 
1268:Generated_Source\PSoC6\pdl\drivers\peripheral\smif/cy_smif_memslot.c ****             /* The Write Enable command */
1269:Generated_Source\PSoC6\pdl\drivers\peripheral\smif/cy_smif_memslot.c ****             /* The 8-bit command. Write Enable */
1270:Generated_Source\PSoC6\pdl\drivers\peripheral\smif/cy_smif_memslot.c ****             device->writeEnCmd->command = CY_SMIF_WR_ENABLE_CMD;
 2152              		.loc 1 1270 0
 2153 0374 EB68     		ldr	r3, [r5, #12]
 2154              	.LVL265:
 2155 0376 0621     		movs	r1, #6
 2156 0378 1960     		str	r1, [r3]
1271:Generated_Source\PSoC6\pdl\drivers\peripheral\smif/cy_smif_memslot.c ****             /* The width of the command transfer */
1272:Generated_Source\PSoC6\pdl\drivers\peripheral\smif/cy_smif_memslot.c ****             device->writeEnCmd->cmdWidth = CY_SMIF_WIDTH_SINGLE;
 2157              		.loc 1 1272 0
 2158 037a 0023     		movs	r3, #0
 2159 037c E968     		ldr	r1, [r5, #12]
 2160 037e 0B71     		strb	r3, [r1, #4]
1273:Generated_Source\PSoC6\pdl\drivers\peripheral\smif/cy_smif_memslot.c **** 
1274:Generated_Source\PSoC6\pdl\drivers\peripheral\smif/cy_smif_memslot.c ****             /* The Write Disable command */
1275:Generated_Source\PSoC6\pdl\drivers\peripheral\smif/cy_smif_memslot.c ****             /* The 8-bit command. Write Disable */
1276:Generated_Source\PSoC6\pdl\drivers\peripheral\smif/cy_smif_memslot.c ****             device->writeDisCmd->command = CY_SMIF_WR_DISABLE_CMD;
 2161              		.loc 1 1276 0
 2162 0380 2969     		ldr	r1, [r5, #16]
 2163 0382 0420     		movs	r0, #4
 2164 0384 0860     		str	r0, [r1]
1277:Generated_Source\PSoC6\pdl\drivers\peripheral\smif/cy_smif_memslot.c ****             /* The width of the command transfer */
1278:Generated_Source\PSoC6\pdl\drivers\peripheral\smif/cy_smif_memslot.c ****             device->writeDisCmd->cmdWidth = CY_SMIF_WIDTH_SINGLE;
 2165              		.loc 1 1278 0
 2166 0386 2969     		ldr	r1, [r5, #16]
 2167 0388 0B71     		strb	r3, [r1, #4]
1279:Generated_Source\PSoC6\pdl\drivers\peripheral\smif/cy_smif_memslot.c ****             
1280:Generated_Source\PSoC6\pdl\drivers\peripheral\smif/cy_smif_memslot.c ****             /* The chip Erase command */
1281:Generated_Source\PSoC6\pdl\drivers\peripheral\smif/cy_smif_memslot.c ****             /* The 8-bit command. Chip Erase */
1282:Generated_Source\PSoC6\pdl\drivers\peripheral\smif/cy_smif_memslot.c ****             device->chipEraseCmd->command  = CY_SMIF_CHIP_ERASE_CMD;
 2168              		.loc 1 1282 0
 2169 038a E969     		ldr	r1, [r5, #28]
 2170 038c 5C30     		adds	r0, r0, #92
 2171 038e 0860     		str	r0, [r1]
1283:Generated_Source\PSoC6\pdl\drivers\peripheral\smif/cy_smif_memslot.c ****             /* The width of the command transfer */
1284:Generated_Source\PSoC6\pdl\drivers\peripheral\smif/cy_smif_memslot.c ****             device->chipEraseCmd->cmdWidth = CY_SMIF_WIDTH_SINGLE;
ARM GAS  C:\Users\ikomb\AppData\Local\Temp\cc5YtlHT.s 			page 87


 2172              		.loc 1 1284 0
 2173 0390 E969     		ldr	r1, [r5, #28]
 2174 0392 0B71     		strb	r3, [r1, #4]
1285:Generated_Source\PSoC6\pdl\drivers\peripheral\smif/cy_smif_memslot.c **** 
1286:Generated_Source\PSoC6\pdl\drivers\peripheral\smif/cy_smif_memslot.c ****             /* The sector Erase command */
1287:Generated_Source\PSoC6\pdl\drivers\peripheral\smif/cy_smif_memslot.c ****             /* The 8-bit command. The sector Erase */
1288:Generated_Source\PSoC6\pdl\drivers\peripheral\smif/cy_smif_memslot.c ****             device->eraseCmd->command  =
 2175              		.loc 1 1288 0
 2176 0394 6E69     		ldr	r6, [r5, #20]
1289:Generated_Source\PSoC6\pdl\drivers\peripheral\smif/cy_smif_memslot.c ****                         sfdpBuffer[CY_SMIF_SFDP_BFPT_BYTE_1D + offset];
 2177              		.loc 1 1289 0
 2178 0396 1000     		movs	r0, r2
 2179 0398 1D30     		adds	r0, r0, #29
 2180 039a 0CA9     		add	r1, sp, #48
 2181 039c 085C     		ldrb	r0, [r1, r0]
1288:Generated_Source\PSoC6\pdl\drivers\peripheral\smif/cy_smif_memslot.c ****                         sfdpBuffer[CY_SMIF_SFDP_BFPT_BYTE_1D + offset];
 2182              		.loc 1 1288 0
 2183 039e 3060     		str	r0, [r6]
1290:Generated_Source\PSoC6\pdl\drivers\peripheral\smif/cy_smif_memslot.c ****             /* The width of the command transfer */
1291:Generated_Source\PSoC6\pdl\drivers\peripheral\smif/cy_smif_memslot.c ****             device->eraseCmd->cmdWidth = CY_SMIF_WIDTH_SINGLE;
 2184              		.loc 1 1291 0
 2185 03a0 6869     		ldr	r0, [r5, #20]
 2186 03a2 0371     		strb	r3, [r0, #4]
1292:Generated_Source\PSoC6\pdl\drivers\peripheral\smif/cy_smif_memslot.c ****             /* The width of the address transfer */
1293:Generated_Source\PSoC6\pdl\drivers\peripheral\smif/cy_smif_memslot.c ****             device->eraseCmd->addrWidth = CY_SMIF_WIDTH_SINGLE;
 2187              		.loc 1 1293 0
 2188 03a4 6869     		ldr	r0, [r5, #20]
 2189 03a6 4371     		strb	r3, [r0, #5]
1294:Generated_Source\PSoC6\pdl\drivers\peripheral\smif/cy_smif_memslot.c **** 
1295:Generated_Source\PSoC6\pdl\drivers\peripheral\smif/cy_smif_memslot.c ****             /* This specifies the program command */
1296:Generated_Source\PSoC6\pdl\drivers\peripheral\smif/cy_smif_memslot.c ****             /* The 8-bit command. 1 x I/O Program command */
1297:Generated_Source\PSoC6\pdl\drivers\peripheral\smif/cy_smif_memslot.c ****             device->programCmd->command = CY_SMIF_SINGLE_PROGRAM_CMD;
 2190              		.loc 1 1297 0
 2191 03a8 2E6A     		ldr	r6, [r5, #32]
 2192 03aa 0220     		movs	r0, #2
 2193 03ac 3060     		str	r0, [r6]
1298:Generated_Source\PSoC6\pdl\drivers\peripheral\smif/cy_smif_memslot.c ****             /* The width of the command transfer */
1299:Generated_Source\PSoC6\pdl\drivers\peripheral\smif/cy_smif_memslot.c ****             device->programCmd->cmdWidth = CY_SMIF_WIDTH_SINGLE;
 2194              		.loc 1 1299 0
 2195 03ae 286A     		ldr	r0, [r5, #32]
 2196 03b0 0371     		strb	r3, [r0, #4]
1300:Generated_Source\PSoC6\pdl\drivers\peripheral\smif/cy_smif_memslot.c ****             /* The width of the address transfer */
1301:Generated_Source\PSoC6\pdl\drivers\peripheral\smif/cy_smif_memslot.c ****             device->programCmd->addrWidth = CY_SMIF_WIDTH_SINGLE;
 2197              		.loc 1 1301 0
 2198 03b2 286A     		ldr	r0, [r5, #32]
 2199 03b4 4371     		strb	r3, [r0, #5]
1302:Generated_Source\PSoC6\pdl\drivers\peripheral\smif/cy_smif_memslot.c ****             /* The 8-bit mode byte. This value is 0xFFFFFFFF when there is no mode present */
1303:Generated_Source\PSoC6\pdl\drivers\peripheral\smif/cy_smif_memslot.c ****             device->programCmd->mode = CY_SMIF_NO_COMMAND_OR_MODE;
 2200              		.loc 1 1303 0
 2201 03b6 2E6A     		ldr	r6, [r5, #32]
 2202 03b8 0120     		movs	r0, #1
 2203 03ba 4042     		rsbs	r0, r0, #0
 2204 03bc B060     		str	r0, [r6, #8]
1304:Generated_Source\PSoC6\pdl\drivers\peripheral\smif/cy_smif_memslot.c ****             /* The number of the dummy cycles. A zero value suggests no dummy cycles */
1305:Generated_Source\PSoC6\pdl\drivers\peripheral\smif/cy_smif_memslot.c ****             device->programCmd->dummyCycles = 0U;
 2205              		.loc 1 1305 0
 2206 03be 286A     		ldr	r0, [r5, #32]
ARM GAS  C:\Users\ikomb\AppData\Local\Temp\cc5YtlHT.s 			page 88


 2207 03c0 0361     		str	r3, [r0, #16]
1306:Generated_Source\PSoC6\pdl\drivers\peripheral\smif/cy_smif_memslot.c ****             /* The width of the data transfer*/
1307:Generated_Source\PSoC6\pdl\drivers\peripheral\smif/cy_smif_memslot.c ****             device->programCmd->dataWidth = CY_SMIF_WIDTH_SINGLE;
 2208              		.loc 1 1307 0
 2209 03c2 286A     		ldr	r0, [r5, #32]
 2210 03c4 0375     		strb	r3, [r0, #20]
1308:Generated_Source\PSoC6\pdl\drivers\peripheral\smif/cy_smif_memslot.c **** 
1309:Generated_Source\PSoC6\pdl\drivers\peripheral\smif/cy_smif_memslot.c ****             /* The busy mask for the status registers */
1310:Generated_Source\PSoC6\pdl\drivers\peripheral\smif/cy_smif_memslot.c ****             device->stsRegBusyMask = CY_SMIF_STS_REG_BUSY_MASK;
 2211              		.loc 1 1310 0
 2212 03c6 0120     		movs	r0, #1
 2213 03c8 A863     		str	r0, [r5, #56]
1311:Generated_Source\PSoC6\pdl\drivers\peripheral\smif/cy_smif_memslot.c ****                         
1312:Generated_Source\PSoC6\pdl\drivers\peripheral\smif/cy_smif_memslot.c ****             /* The command to read the WIP-containing status register */
1313:Generated_Source\PSoC6\pdl\drivers\peripheral\smif/cy_smif_memslot.c ****             /* The 8-bit command. WIP RDSR */
1314:Generated_Source\PSoC6\pdl\drivers\peripheral\smif/cy_smif_memslot.c ****             device->readStsRegWipCmd->command  = CY_SMIF_RD_STS_REG1_CMD;
 2214              		.loc 1 1314 0
 2215 03ca AE6A     		ldr	r6, [r5, #40]
 2216 03cc 0430     		adds	r0, r0, #4
 2217 03ce 3060     		str	r0, [r6]
1315:Generated_Source\PSoC6\pdl\drivers\peripheral\smif/cy_smif_memslot.c ****             /* The width of the command transfer */
1316:Generated_Source\PSoC6\pdl\drivers\peripheral\smif/cy_smif_memslot.c ****             device->readStsRegWipCmd->cmdWidth = CY_SMIF_WIDTH_SINGLE;
 2218              		.loc 1 1316 0
 2219 03d0 A86A     		ldr	r0, [r5, #40]
 2220 03d2 0371     		strb	r3, [r0, #4]
1317:Generated_Source\PSoC6\pdl\drivers\peripheral\smif/cy_smif_memslot.c **** 
1318:Generated_Source\PSoC6\pdl\drivers\peripheral\smif/cy_smif_memslot.c ****             /* The command to write into the QE-containing status register */
1319:Generated_Source\PSoC6\pdl\drivers\peripheral\smif/cy_smif_memslot.c ****             /* The width of the command transfer */
1320:Generated_Source\PSoC6\pdl\drivers\peripheral\smif/cy_smif_memslot.c ****             device->writeStsRegQeCmd->cmdWidth = CY_SMIF_WIDTH_SINGLE;
 2221              		.loc 1 1320 0
 2222 03d4 286B     		ldr	r0, [r5, #48]
 2223 03d6 0371     		strb	r3, [r0, #4]
1321:Generated_Source\PSoC6\pdl\drivers\peripheral\smif/cy_smif_memslot.c **** 
1322:Generated_Source\PSoC6\pdl\drivers\peripheral\smif/cy_smif_memslot.c ****             /* The QE mask for the status registers */
1323:Generated_Source\PSoC6\pdl\drivers\peripheral\smif/cy_smif_memslot.c ****             switch (_FLD2VAL(CY_SMIF_SFDP_QE_REQUIREMENTS, (uint32_t)sfdpBuffer
 2224              		.loc 1 1323 0
 2225 03d8 3A32     		adds	r2, r2, #58
 2226              	.LVL266:
 2227 03da 8B5C     		ldrb	r3, [r1, r2]
 2228 03dc 1A09     		lsrs	r2, r3, #4
 2229              	.LVL267:
 2230 03de 0723     		movs	r3, #7
 2231 03e0 1340     		ands	r3, r2
 2232 03e2 052B     		cmp	r3, #5
 2233 03e4 31D8     		bhi	.L87
 2234 03e6 9B00     		lsls	r3, r3, #2
 2235 03e8 1B4A     		ldr	r2, .L137
 2236 03ea D358     		ldr	r3, [r2, r3]
 2237 03ec 9F46     		mov	pc, r3
 2238              		.section	.rodata
 2239              		.align	2
 2240              	.L119:
 2241 0000 EE030000 		.word	.L118
 2242 0004 FE030000 		.word	.L120
 2243 0008 10040000 		.word	.L121
 2244 000c 22040000 		.word	.L122
 2245 0010 FE030000 		.word	.L120
ARM GAS  C:\Users\ikomb\AppData\Local\Temp\cc5YtlHT.s 			page 89


 2246 0014 FE030000 		.word	.L120
 2247              		.section	.text.Cy_SMIF_Memslot_SfdpDetect
 2248              	.L118:
1324:Generated_Source\PSoC6\pdl\drivers\peripheral\smif/cy_smif_memslot.c ****                 [CY_SMIF_SFDP_BFPT_BYTE_3A + offset]))
1325:Generated_Source\PSoC6\pdl\drivers\peripheral\smif/cy_smif_memslot.c ****             {
1326:Generated_Source\PSoC6\pdl\drivers\peripheral\smif/cy_smif_memslot.c ****                 case CY_SMIF_SFDP_QER_0:
1327:Generated_Source\PSoC6\pdl\drivers\peripheral\smif/cy_smif_memslot.c ****                     device->stsRegQuadEnableMask = CY_SMIF_NO_COMMAND_OR_MODE;
 2249              		.loc 1 1327 0
 2250 03ee 0123     		movs	r3, #1
 2251 03f0 5B42     		rsbs	r3, r3, #0
 2252 03f2 EB63     		str	r3, [r5, #60]
1328:Generated_Source\PSoC6\pdl\drivers\peripheral\smif/cy_smif_memslot.c ****                     device->writeStsRegQeCmd->command  = CY_SMIF_NO_COMMAND_OR_MODE;
 2253              		.loc 1 1328 0
 2254 03f4 2A6B     		ldr	r2, [r5, #48]
 2255 03f6 1360     		str	r3, [r2]
1329:Generated_Source\PSoC6\pdl\drivers\peripheral\smif/cy_smif_memslot.c ****                     device->readStsRegQeCmd->command  = CY_SMIF_NO_COMMAND_OR_MODE;
 2256              		.loc 1 1329 0
 2257 03f8 EA6A     		ldr	r2, [r5, #44]
 2258 03fa 1360     		str	r3, [r2]
1330:Generated_Source\PSoC6\pdl\drivers\peripheral\smif/cy_smif_memslot.c ****                     break;
 2259              		.loc 1 1330 0
 2260 03fc 25E0     		b	.L87
 2261              	.L120:
1331:Generated_Source\PSoC6\pdl\drivers\peripheral\smif/cy_smif_memslot.c ****                 case CY_SMIF_SFDP_QER_1:
1332:Generated_Source\PSoC6\pdl\drivers\peripheral\smif/cy_smif_memslot.c ****                 case CY_SMIF_SFDP_QER_4:
1333:Generated_Source\PSoC6\pdl\drivers\peripheral\smif/cy_smif_memslot.c ****                 case CY_SMIF_SFDP_QER_5:
1334:Generated_Source\PSoC6\pdl\drivers\peripheral\smif/cy_smif_memslot.c ****                     device->stsRegQuadEnableMask = CY_SMIF_SFDP_QE_BIT_1_OF_SR_2;
 2262              		.loc 1 1334 0
 2263 03fe 0223     		movs	r3, #2
 2264 0400 EB63     		str	r3, [r5, #60]
1335:Generated_Source\PSoC6\pdl\drivers\peripheral\smif/cy_smif_memslot.c **** 
1336:Generated_Source\PSoC6\pdl\drivers\peripheral\smif/cy_smif_memslot.c ****                     /* The command to write into the QE-containing status register */
1337:Generated_Source\PSoC6\pdl\drivers\peripheral\smif/cy_smif_memslot.c ****                     /* The 8-bit command. QE WRSR */
1338:Generated_Source\PSoC6\pdl\drivers\peripheral\smif/cy_smif_memslot.c ****                     device->writeStsRegQeCmd->command  = CY_SMIF_WR_STS_REG1_CMD;
 2265              		.loc 1 1338 0
 2266 0402 2B6B     		ldr	r3, [r5, #48]
 2267 0404 0122     		movs	r2, #1
 2268 0406 1A60     		str	r2, [r3]
1339:Generated_Source\PSoC6\pdl\drivers\peripheral\smif/cy_smif_memslot.c ****                     device->readStsRegQeCmd->command  = CY_SMIF_RD_STS_REG2_T1_CMD;
 2269              		.loc 1 1339 0
 2270 0408 EB6A     		ldr	r3, [r5, #44]
 2271 040a 3432     		adds	r2, r2, #52
 2272 040c 1A60     		str	r2, [r3]
1340:Generated_Source\PSoC6\pdl\drivers\peripheral\smif/cy_smif_memslot.c ****                     break;
 2273              		.loc 1 1340 0
 2274 040e 1CE0     		b	.L87
 2275              	.L121:
1341:Generated_Source\PSoC6\pdl\drivers\peripheral\smif/cy_smif_memslot.c ****                 case CY_SMIF_SFDP_QER_2:
1342:Generated_Source\PSoC6\pdl\drivers\peripheral\smif/cy_smif_memslot.c ****                     device->stsRegQuadEnableMask = CY_SMIF_SFDP_QE_BIT_6_OF_SR_1;
 2276              		.loc 1 1342 0
 2277 0410 4023     		movs	r3, #64
 2278 0412 EB63     		str	r3, [r5, #60]
1343:Generated_Source\PSoC6\pdl\drivers\peripheral\smif/cy_smif_memslot.c **** 
1344:Generated_Source\PSoC6\pdl\drivers\peripheral\smif/cy_smif_memslot.c ****                     /* The command to write into the QE-containing status register */
1345:Generated_Source\PSoC6\pdl\drivers\peripheral\smif/cy_smif_memslot.c ****                     /* The 8-bit command. QE WRSR */
1346:Generated_Source\PSoC6\pdl\drivers\peripheral\smif/cy_smif_memslot.c ****                     device->writeStsRegQeCmd->command  = CY_SMIF_WR_STS_REG1_CMD;
 2279              		.loc 1 1346 0
ARM GAS  C:\Users\ikomb\AppData\Local\Temp\cc5YtlHT.s 			page 90


 2280 0414 2B6B     		ldr	r3, [r5, #48]
 2281 0416 0122     		movs	r2, #1
 2282 0418 1A60     		str	r2, [r3]
1347:Generated_Source\PSoC6\pdl\drivers\peripheral\smif/cy_smif_memslot.c ****                     device->readStsRegQeCmd->command  = CY_SMIF_RD_STS_REG1_CMD;
 2283              		.loc 1 1347 0
 2284 041a EB6A     		ldr	r3, [r5, #44]
 2285 041c 0432     		adds	r2, r2, #4
 2286 041e 1A60     		str	r2, [r3]
1348:Generated_Source\PSoC6\pdl\drivers\peripheral\smif/cy_smif_memslot.c ****                     break;
 2287              		.loc 1 1348 0
 2288 0420 13E0     		b	.L87
 2289              	.L122:
1349:Generated_Source\PSoC6\pdl\drivers\peripheral\smif/cy_smif_memslot.c ****                 case CY_SMIF_SFDP_QER_3:
1350:Generated_Source\PSoC6\pdl\drivers\peripheral\smif/cy_smif_memslot.c ****                     device->stsRegQuadEnableMask = CY_SMIF_SFDP_QE_BIT_7_OF_SR_2;
 2290              		.loc 1 1350 0
 2291 0422 8023     		movs	r3, #128
 2292 0424 EB63     		str	r3, [r5, #60]
1351:Generated_Source\PSoC6\pdl\drivers\peripheral\smif/cy_smif_memslot.c **** 
1352:Generated_Source\PSoC6\pdl\drivers\peripheral\smif/cy_smif_memslot.c ****                     /* The command to write into the QE-containing status register */
1353:Generated_Source\PSoC6\pdl\drivers\peripheral\smif/cy_smif_memslot.c ****                     /* The 8-bit command. QE WRSR */
1354:Generated_Source\PSoC6\pdl\drivers\peripheral\smif/cy_smif_memslot.c ****                     device->writeStsRegQeCmd->command  = CY_SMIF_WR_STS_REG2_CMD;
 2293              		.loc 1 1354 0
 2294 0426 2B6B     		ldr	r3, [r5, #48]
 2295 0428 3E22     		movs	r2, #62
 2296 042a 1A60     		str	r2, [r3]
1355:Generated_Source\PSoC6\pdl\drivers\peripheral\smif/cy_smif_memslot.c ****                     device->readStsRegQeCmd->command  = CY_SMIF_RD_STS_REG2_T2_CMD;
 2297              		.loc 1 1355 0
 2298 042c EB6A     		ldr	r3, [r5, #44]
 2299 042e 0132     		adds	r2, r2, #1
 2300 0430 1A60     		str	r2, [r3]
1356:Generated_Source\PSoC6\pdl\drivers\peripheral\smif/cy_smif_memslot.c ****                     break;
 2301              		.loc 1 1356 0
 2302 0432 0AE0     		b	.L87
 2303              	.LVL268:
 2304              	.L126:
 2305              	.LBE18:
1357:Generated_Source\PSoC6\pdl\drivers\peripheral\smif/cy_smif_memslot.c ****                 default:
1358:Generated_Source\PSoC6\pdl\drivers\peripheral\smif/cy_smif_memslot.c ****                     break;
1359:Generated_Source\PSoC6\pdl\drivers\peripheral\smif/cy_smif_memslot.c ****             }
1360:Generated_Source\PSoC6\pdl\drivers\peripheral\smif/cy_smif_memslot.c ****         }
1361:Generated_Source\PSoC6\pdl\drivers\peripheral\smif/cy_smif_memslot.c ****         else
1362:Generated_Source\PSoC6\pdl\drivers\peripheral\smif/cy_smif_memslot.c ****         {
1363:Generated_Source\PSoC6\pdl\drivers\peripheral\smif/cy_smif_memslot.c ****             result = CY_SMIF_NO_SFDP_SUPPORT;
 2306              		.loc 1 1363 0
 2307 0434 094C     		ldr	r4, .L137+4
 2308              	.LVL269:
 2309 0436 08E0     		b	.L87
 2310              	.LVL270:
 2311              	.L127:
 2312 0438 084C     		ldr	r4, .L137+4
 2313              	.LVL271:
 2314 043a 06E0     		b	.L87
 2315              	.LVL272:
 2316              	.L128:
 2317 043c 074C     		ldr	r4, .L137+4
 2318              	.LVL273:
 2319 043e 04E0     		b	.L87
ARM GAS  C:\Users\ikomb\AppData\Local\Temp\cc5YtlHT.s 			page 91


 2320              	.LVL274:
 2321              	.L129:
 2322 0440 064C     		ldr	r4, .L137+4
 2323              	.LVL275:
 2324 0442 02E0     		b	.L87
 2325              	.LVL276:
 2326              	.L130:
 2327 0444 054C     		ldr	r4, .L137+4
 2328              	.LVL277:
 2329 0446 00E0     		b	.L87
 2330              	.LVL278:
 2331              	.L131:
 2332 0448 044C     		ldr	r4, .L137+4
 2333              	.LVL279:
 2334              	.L87:
1364:Generated_Source\PSoC6\pdl\drivers\peripheral\smif/cy_smif_memslot.c ****         }
1365:Generated_Source\PSoC6\pdl\drivers\peripheral\smif/cy_smif_memslot.c ****     }
1366:Generated_Source\PSoC6\pdl\drivers\peripheral\smif/cy_smif_memslot.c **** 
1367:Generated_Source\PSoC6\pdl\drivers\peripheral\smif/cy_smif_memslot.c ****     return(result);
1368:Generated_Source\PSoC6\pdl\drivers\peripheral\smif/cy_smif_memslot.c **** }
 2335              		.loc 1 1368 0
 2336 044a 2000     		movs	r0, r4
 2337 044c 4CB0     		add	sp, sp, #304
 2338              		@ sp needed
 2339              	.LVL280:
 2340              	.LVL281:
 2341 044e 1CBC     		pop	{r2, r3, r4}
 2342 0450 9046     		mov	r8, r2
 2343 0452 9946     		mov	r9, r3
 2344 0454 A246     		mov	r10, r4
 2345 0456 F0BD     		pop	{r4, r5, r6, r7, pc}
 2346              	.L138:
 2347              		.align	2
 2348              	.L137:
 2349 0458 00000000 		.word	.L119
 2350 045c 0500B200 		.word	11665413
 2351              		.cfi_endproc
 2352              	.LFE102:
 2353              		.size	Cy_SMIF_Memslot_SfdpDetect, .-Cy_SMIF_Memslot_SfdpDetect
 2354              		.global	__aeabi_uidivmod
 2355              		.section	.text.Cy_SMIF_Memslot_Init,"ax",%progbits
 2356              		.align	2
 2357              		.global	Cy_SMIF_Memslot_Init
 2358              		.code	16
 2359              		.thumb_func
 2360              		.type	Cy_SMIF_Memslot_Init, %function
 2361              	Cy_SMIF_Memslot_Init:
 2362              	.LFB89:
  70:Generated_Source\PSoC6\pdl\drivers\peripheral\smif/cy_smif_memslot.c ****     SMIF_DEVICE_Type volatile * device;
 2363              		.loc 1 70 0
 2364              		.cfi_startproc
 2365              		@ args = 0, pretend = 0, frame = 0
 2366              		@ frame_needed = 0, uses_anonymous_args = 0
 2367              	.LVL282:
 2368 0000 F0B5     		push	{r4, r5, r6, r7, lr}
 2369              		.cfi_def_cfa_offset 20
 2370              		.cfi_offset 4, -20
ARM GAS  C:\Users\ikomb\AppData\Local\Temp\cc5YtlHT.s 			page 92


 2371              		.cfi_offset 5, -16
 2372              		.cfi_offset 6, -12
 2373              		.cfi_offset 7, -8
 2374              		.cfi_offset 14, -4
 2375 0002 5F46     		mov	r7, fp
 2376 0004 5646     		mov	r6, r10
 2377 0006 4D46     		mov	r5, r9
 2378 0008 4446     		mov	r4, r8
 2379 000a F0B4     		push	{r4, r5, r6, r7}
 2380              		.cfi_def_cfa_offset 36
 2381              		.cfi_offset 8, -36
 2382              		.cfi_offset 9, -32
 2383              		.cfi_offset 10, -28
 2384              		.cfi_offset 11, -24
 2385 000c 83B0     		sub	sp, sp, #12
 2386              		.cfi_def_cfa_offset 48
 2387 000e 071E     		subs	r7, r0, #0
 2388 0010 9346     		mov	fp, r2
 2389              	.LVL283:
  77:Generated_Source\PSoC6\pdl\drivers\peripheral\smif/cy_smif_memslot.c ****         && (NULL != context) && (0U != blockConfig->memCount))
 2390              		.loc 1 77 0
 2391 0012 00D1     		bne	.LCB2472
 2392 0014 B0E0     		b	.L160	@long jump
 2393              	.LCB2472:
  77:Generated_Source\PSoC6\pdl\drivers\peripheral\smif/cy_smif_memslot.c ****         && (NULL != context) && (0U != blockConfig->memCount))
 2394              		.loc 1 77 0 is_stmt 0 discriminator 1
 2395 0016 0029     		cmp	r1, #0
 2396 0018 00D1     		bne	.LCB2474
 2397 001a B1E0     		b	.L161	@long jump
 2398              	.LCB2474:
  77:Generated_Source\PSoC6\pdl\drivers\peripheral\smif/cy_smif_memslot.c ****         && (NULL != context) && (0U != blockConfig->memCount))
 2399              		.loc 1 77 0 discriminator 2
 2400 001c 4B68     		ldr	r3, [r1, #4]
 2401 001e 9846     		mov	r8, r3
 2402 0020 002B     		cmp	r3, #0
 2403 0022 00D1     		bne	.LCB2478
 2404 0024 B0E0     		b	.L162	@long jump
 2405              	.LCB2478:
  78:Generated_Source\PSoC6\pdl\drivers\peripheral\smif/cy_smif_memslot.c ****     {
 2406              		.loc 1 78 0 is_stmt 1
 2407 0026 002A     		cmp	r2, #0
 2408 0028 00D1     		bne	.LCB2480
 2409 002a B1E0     		b	.L163	@long jump
 2410              	.LCB2480:
  78:Generated_Source\PSoC6\pdl\drivers\peripheral\smif/cy_smif_memslot.c ****     {
 2411              		.loc 1 78 0 is_stmt 0 discriminator 1
 2412 002c 0B68     		ldr	r3, [r1]
 2413 002e 9946     		mov	r9, r3
 2414 0030 002B     		cmp	r3, #0
 2415 0032 00D0     		beq	.LCB2484
 2416 0034 98E0     		b	.L164	@long jump
 2417              	.LCB2484:
  74:Generated_Source\PSoC6\pdl\drivers\peripheral\smif/cy_smif_memslot.c ****     uint32_t idx;
 2418              		.loc 1 74 0 is_stmt 1
 2419 0036 9A46     		mov	r10, r3
  73:Generated_Source\PSoC6\pdl\drivers\peripheral\smif/cy_smif_memslot.c ****     uint32_t sfdpRes =(uint32_t)CY_SMIF_SUCCESS;
 2420              		.loc 1 73 0
ARM GAS  C:\Users\ikomb\AppData\Local\Temp\cc5YtlHT.s 			page 93


 2421 0038 5E48     		ldr	r0, .L168
 2422              	.LVL284:
 2423 003a AEE0     		b	.L140
 2424              	.LVL285:
 2425              	.L158:
 2426              	.LBB21:
  86:Generated_Source\PSoC6\pdl\drivers\peripheral\smif/cy_smif_memslot.c ****             if (NULL != memCfg)
 2427              		.loc 1 86 0
 2428 003c B300     		lsls	r3, r6, #2
 2429 003e 4246     		mov	r2, r8
 2430 0040 D458     		ldr	r4, [r2, r3]
 2431              	.LVL286:
  87:Generated_Source\PSoC6\pdl\drivers\peripheral\smif/cy_smif_memslot.c ****             {
 2432              		.loc 1 87 0
 2433 0042 002C     		cmp	r4, #0
 2434 0044 00D1     		bne	.LCB2503
 2435 0046 8DE0     		b	.L142	@long jump
 2436              	.LCB2503:
  90:Generated_Source\PSoC6\pdl\drivers\peripheral\smif/cy_smif_memslot.c ****                 CY_ASSERT_L3(CY_SMIF_DATA_SEL_VALID(memCfg->dataSelect));
 2437              		.loc 1 90 0
 2438 0048 2278     		ldrb	r2, [r4]
 2439 004a 531E     		subs	r3, r2, #1
 2440 004c DBB2     		uxtb	r3, r3
 2441 004e 012B     		cmp	r3, #1
 2442 0050 07D9     		bls	.L143
  90:Generated_Source\PSoC6\pdl\drivers\peripheral\smif/cy_smif_memslot.c ****                 CY_ASSERT_L3(CY_SMIF_DATA_SEL_VALID(memCfg->dataSelect));
 2443              		.loc 1 90 0 is_stmt 0 discriminator 1
 2444 0052 042A     		cmp	r2, #4
 2445 0054 05D0     		beq	.L143
  90:Generated_Source\PSoC6\pdl\drivers\peripheral\smif/cy_smif_memslot.c ****                 CY_ASSERT_L3(CY_SMIF_DATA_SEL_VALID(memCfg->dataSelect));
 2446              		.loc 1 90 0 discriminator 2
 2447 0056 082A     		cmp	r2, #8
 2448 0058 03D0     		beq	.L143
  90:Generated_Source\PSoC6\pdl\drivers\peripheral\smif/cy_smif_memslot.c ****                 CY_ASSERT_L3(CY_SMIF_DATA_SEL_VALID(memCfg->dataSelect));
 2449              		.loc 1 90 0 discriminator 3
 2450 005a 5A21     		movs	r1, #90
 2451 005c 5648     		ldr	r0, .L168+4
 2452 005e FFF7FEFF 		bl	Cy_SysLib_AssertFailed
 2453              	.LVL287:
 2454              	.L143:
  91:Generated_Source\PSoC6\pdl\drivers\peripheral\smif/cy_smif_memslot.c ****                 CY_ASSERT_L1(NULL != memCfg->deviceCfg);
 2455              		.loc 1 91 0 is_stmt 1
 2456 0062 237A     		ldrb	r3, [r4, #8]
 2457 0064 032B     		cmp	r3, #3
 2458 0066 03D9     		bls	.L144
  91:Generated_Source\PSoC6\pdl\drivers\peripheral\smif/cy_smif_memslot.c ****                 CY_ASSERT_L1(NULL != memCfg->deviceCfg);
 2459              		.loc 1 91 0 is_stmt 0 discriminator 1
 2460 0068 5B21     		movs	r1, #91
 2461 006a 5348     		ldr	r0, .L168+4
 2462 006c FFF7FEFF 		bl	Cy_SysLib_AssertFailed
 2463              	.LVL288:
 2464              	.L144:
  92:Generated_Source\PSoC6\pdl\drivers\peripheral\smif/cy_smif_memslot.c ****                 CY_ASSERT_L2(CY_SMIF_MEM_ADDR_SIZE_VALID(memCfg->deviceCfg->numOfAddrBytes));
 2465              		.loc 1 92 0 is_stmt 1
 2466 0070 A369     		ldr	r3, [r4, #24]
 2467 0072 002B     		cmp	r3, #0
 2468 0074 03D1     		bne	.L145
ARM GAS  C:\Users\ikomb\AppData\Local\Temp\cc5YtlHT.s 			page 94


  92:Generated_Source\PSoC6\pdl\drivers\peripheral\smif/cy_smif_memslot.c ****                 CY_ASSERT_L2(CY_SMIF_MEM_ADDR_SIZE_VALID(memCfg->deviceCfg->numOfAddrBytes));
 2469              		.loc 1 92 0 is_stmt 0 discriminator 1
 2470 0076 5C21     		movs	r1, #92
 2471 0078 4F48     		ldr	r0, .L168+4
 2472 007a FFF7FEFF 		bl	Cy_SysLib_AssertFailed
 2473              	.LVL289:
 2474              	.L145:
  93:Generated_Source\PSoC6\pdl\drivers\peripheral\smif/cy_smif_memslot.c ****                 
 2475              		.loc 1 93 0 is_stmt 1
 2476 007e A369     		ldr	r3, [r4, #24]
 2477 0080 1B68     		ldr	r3, [r3]
 2478 0082 013B     		subs	r3, r3, #1
 2479 0084 032B     		cmp	r3, #3
 2480 0086 03D9     		bls	.L146
  93:Generated_Source\PSoC6\pdl\drivers\peripheral\smif/cy_smif_memslot.c ****                 
 2481              		.loc 1 93 0 is_stmt 0 discriminator 1
 2482 0088 5D21     		movs	r1, #93
 2483 008a 4B48     		ldr	r0, .L168+4
 2484 008c FFF7FEFF 		bl	Cy_SysLib_AssertFailed
 2485              	.LVL290:
 2486              	.L146:
  95:Generated_Source\PSoC6\pdl\drivers\peripheral\smif/cy_smif_memslot.c ****                 if (NULL != device)
 2487              		.loc 1 95 0 is_stmt 1
 2488 0090 2378     		ldrb	r3, [r4]
 2489              	.LVL291:
 2490              	.LBB22:
 2491              	.LBB23:
1368:Generated_Source\PSoC6\pdl\drivers\peripheral\smif/cy_smif.h ****     }
1369:Generated_Source\PSoC6\pdl\drivers\peripheral\smif/cy_smif.h ****     return status;
1370:Generated_Source\PSoC6\pdl\drivers\peripheral\smif/cy_smif.h **** }
1371:Generated_Source\PSoC6\pdl\drivers\peripheral\smif/cy_smif.h **** 
1372:Generated_Source\PSoC6\pdl\drivers\peripheral\smif/cy_smif.h **** 
1373:Generated_Source\PSoC6\pdl\drivers\peripheral\smif/cy_smif.h **** /*******************************************************************************
1374:Generated_Source\PSoC6\pdl\drivers\peripheral\smif/cy_smif.h **** * Function Name: Cy_SMIF_GetDeviceBySlot
1375:Generated_Source\PSoC6\pdl\drivers\peripheral\smif/cy_smif.h **** ****************************************************************************//**
1376:Generated_Source\PSoC6\pdl\drivers\peripheral\smif/cy_smif.h **** *
1377:Generated_Source\PSoC6\pdl\drivers\peripheral\smif/cy_smif.h **** * \internal
1378:Generated_Source\PSoC6\pdl\drivers\peripheral\smif/cy_smif.h **** * This function returns the address of the SMIF device registers structure by the slave
1379:Generated_Source\PSoC6\pdl\drivers\peripheral\smif/cy_smif.h **** * slot number.
1380:Generated_Source\PSoC6\pdl\drivers\peripheral\smif/cy_smif.h **** *
1381:Generated_Source\PSoC6\pdl\drivers\peripheral\smif/cy_smif.h **** * \param base
1382:Generated_Source\PSoC6\pdl\drivers\peripheral\smif/cy_smif.h **** * Holds the base address of the SMIF block registers.
1383:Generated_Source\PSoC6\pdl\drivers\peripheral\smif/cy_smif.h **** *
1384:Generated_Source\PSoC6\pdl\drivers\peripheral\smif/cy_smif.h **** * \param slaveSlot
1385:Generated_Source\PSoC6\pdl\drivers\peripheral\smif/cy_smif.h **** * The slave device ID. This number is either CY_SMIF_SLAVE_SELECT_0 or
1386:Generated_Source\PSoC6\pdl\drivers\peripheral\smif/cy_smif.h **** * CY_SMIF_SLAVE_SELECT_1 or CY_SMIF_SLAVE_SELECT_2 or CY_SMIF_SLAVE_SELECT_3
1387:Generated_Source\PSoC6\pdl\drivers\peripheral\smif/cy_smif.h **** * (\ref cy_en_smif_slave_select_t). It defines the slave-select line to use
1388:Generated_Source\PSoC6\pdl\drivers\peripheral\smif/cy_smif.h **** * during the transmission.
1389:Generated_Source\PSoC6\pdl\drivers\peripheral\smif/cy_smif.h **** *
1390:Generated_Source\PSoC6\pdl\drivers\peripheral\smif/cy_smif.h **** *******************************************************************************/
1391:Generated_Source\PSoC6\pdl\drivers\peripheral\smif/cy_smif.h **** __STATIC_INLINE SMIF_DEVICE_Type volatile * Cy_SMIF_GetDeviceBySlot(SMIF_Type *base,
1392:Generated_Source\PSoC6\pdl\drivers\peripheral\smif/cy_smif.h ****                                             cy_en_smif_slave_select_t slaveSelect)
1393:Generated_Source\PSoC6\pdl\drivers\peripheral\smif/cy_smif.h **** {
1394:Generated_Source\PSoC6\pdl\drivers\peripheral\smif/cy_smif.h ****     SMIF_DEVICE_Type volatile *device;
1395:Generated_Source\PSoC6\pdl\drivers\peripheral\smif/cy_smif.h ****     /* Connect the slave to its data lines */
1396:Generated_Source\PSoC6\pdl\drivers\peripheral\smif/cy_smif.h ****     switch (slaveSelect)
 2492              		.loc 2 1396 0
ARM GAS  C:\Users\ikomb\AppData\Local\Temp\cc5YtlHT.s 			page 95


 2493 0092 022B     		cmp	r3, #2
 2494 0094 0CD0     		beq	.L148
 2495 0096 02D8     		bhi	.L149
 2496 0098 012B     		cmp	r3, #1
 2497 009a 05D0     		beq	.L150
 2498 009c 14E0     		b	.L165
 2499              	.L149:
 2500 009e 042B     		cmp	r3, #4
 2501 00a0 0AD0     		beq	.L151
 2502 00a2 082B     		cmp	r3, #8
 2503 00a4 0CD0     		beq	.L152
 2504 00a6 0FE0     		b	.L165
 2505              	.L150:
1397:Generated_Source\PSoC6\pdl\drivers\peripheral\smif/cy_smif.h ****     {
1398:Generated_Source\PSoC6\pdl\drivers\peripheral\smif/cy_smif.h ****         case CY_SMIF_SLAVE_SELECT_0:
1399:Generated_Source\PSoC6\pdl\drivers\peripheral\smif/cy_smif.h ****             device = &(base->DEVICE[0]);
 2506              		.loc 2 1399 0
 2507 00a8 8023     		movs	r3, #128
 2508              	.LVL292:
 2509 00aa 1B01     		lsls	r3, r3, #4
 2510 00ac FD18     		adds	r5, r7, r3
 2511              	.LVL293:
 2512 00ae 0CE0     		b	.L147
 2513              	.LVL294:
 2514              	.L148:
1400:Generated_Source\PSoC6\pdl\drivers\peripheral\smif/cy_smif.h ****             break;
1401:Generated_Source\PSoC6\pdl\drivers\peripheral\smif/cy_smif.h ****         case CY_SMIF_SLAVE_SELECT_1:
1402:Generated_Source\PSoC6\pdl\drivers\peripheral\smif/cy_smif.h ****             device = &(base->DEVICE[1]);
 2515              		.loc 2 1402 0
 2516 00b0 8823     		movs	r3, #136
 2517              	.LVL295:
 2518 00b2 1B01     		lsls	r3, r3, #4
 2519 00b4 FD18     		adds	r5, r7, r3
 2520              	.LVL296:
 2521 00b6 08E0     		b	.L147
 2522              	.LVL297:
 2523              	.L151:
1403:Generated_Source\PSoC6\pdl\drivers\peripheral\smif/cy_smif.h ****             break;
1404:Generated_Source\PSoC6\pdl\drivers\peripheral\smif/cy_smif.h ****         case CY_SMIF_SLAVE_SELECT_2:
1405:Generated_Source\PSoC6\pdl\drivers\peripheral\smif/cy_smif.h ****             device = &(base->DEVICE[2]);
 2524              		.loc 2 1405 0
 2525 00b8 9023     		movs	r3, #144
 2526              	.LVL298:
 2527 00ba 1B01     		lsls	r3, r3, #4
 2528 00bc FD18     		adds	r5, r7, r3
 2529              	.LVL299:
 2530 00be 04E0     		b	.L147
 2531              	.LVL300:
 2532              	.L152:
1406:Generated_Source\PSoC6\pdl\drivers\peripheral\smif/cy_smif.h ****             break;
1407:Generated_Source\PSoC6\pdl\drivers\peripheral\smif/cy_smif.h ****         case CY_SMIF_SLAVE_SELECT_3:
1408:Generated_Source\PSoC6\pdl\drivers\peripheral\smif/cy_smif.h ****             device = &(base->DEVICE[3]);
 2533              		.loc 2 1408 0
 2534 00c0 9823     		movs	r3, #152
 2535              	.LVL301:
 2536 00c2 1B01     		lsls	r3, r3, #4
 2537 00c4 FD18     		adds	r5, r7, r3
ARM GAS  C:\Users\ikomb\AppData\Local\Temp\cc5YtlHT.s 			page 96


 2538              	.LVL302:
 2539 00c6 00E0     		b	.L147
 2540              	.LVL303:
 2541              	.L165:
1409:Generated_Source\PSoC6\pdl\drivers\peripheral\smif/cy_smif.h ****             break;
1410:Generated_Source\PSoC6\pdl\drivers\peripheral\smif/cy_smif.h ****         default:
1411:Generated_Source\PSoC6\pdl\drivers\peripheral\smif/cy_smif.h ****             /* A user error*/
1412:Generated_Source\PSoC6\pdl\drivers\peripheral\smif/cy_smif.h ****             device = NULL;
 2542              		.loc 2 1412 0
 2543 00c8 0025     		movs	r5, #0
 2544              	.LVL304:
 2545              	.L147:
 2546              	.LBE23:
 2547              	.LBE22:
  96:Generated_Source\PSoC6\pdl\drivers\peripheral\smif/cy_smif_memslot.c ****                 {
 2548              		.loc 1 96 0
 2549 00ca 002D     		cmp	r5, #0
 2550 00cc 64D0     		beq	.L166
 2551              	.LBB24:
 100:Generated_Source\PSoC6\pdl\drivers\peripheral\smif/cy_smif_memslot.c ****                                                 SMIF_DEVICE_CTL_DATA_SEL,
 2552              		.loc 1 100 0
 2553 00ce 2968     		ldr	r1, [r5]
 2554 00d0 3A4B     		ldr	r3, .L168+8
 2555 00d2 1940     		ands	r1, r3
 2556 00d4 237A     		ldrb	r3, [r4, #8]
 2557 00d6 1B04     		lsls	r3, r3, #16
 2558 00d8 C022     		movs	r2, #192
 2559 00da 9202     		lsls	r2, r2, #10
 2560 00dc 1340     		ands	r3, r2
 2561 00de 0B43     		orrs	r3, r1
 2562 00e0 2B60     		str	r3, [r5]
 2563              	.LVL305:
 104:Generated_Source\PSoC6\pdl\drivers\peripheral\smif/cy_smif_memslot.c ****                     {
 2564              		.loc 1 104 0
 2565 00e2 6368     		ldr	r3, [r4, #4]
 2566 00e4 5B07     		lsls	r3, r3, #29
 2567 00e6 0FD5     		bpl	.L167
 106:Generated_Source\PSoC6\pdl\drivers\peripheral\smif/cy_smif_memslot.c ****                                                 memCfg->deviceCfg,
 2568              		.loc 1 106 0
 2569 00e8 A169     		ldr	r1, [r4, #24]
 2570 00ea 2278     		ldrb	r2, [r4]
 2571 00ec 237A     		ldrb	r3, [r4, #8]
 2572 00ee 5846     		mov	r0, fp
 2573 00f0 0090     		str	r0, [sp]
 2574 00f2 3800     		movs	r0, r7
 2575 00f4 FFF7FEFF 		bl	Cy_SMIF_Memslot_SfdpDetect
 2576              	.LVL306:
 111:Generated_Source\PSoC6\pdl\drivers\peripheral\smif/cy_smif_memslot.c ****                         {
 2577              		.loc 1 111 0
 2578 00f8 0028     		cmp	r0, #0
 2579 00fa 06D0     		beq	.L153
 113:Generated_Source\PSoC6\pdl\drivers\peripheral\smif/cy_smif_memslot.c ****                         }
 2580              		.loc 1 113 0
 2581 00fc 0823     		movs	r3, #8
 2582 00fe B340     		lsls	r3, r3, r6
 2583 0100 5246     		mov	r2, r10
 2584 0102 1A43     		orrs	r2, r3
ARM GAS  C:\Users\ikomb\AppData\Local\Temp\cc5YtlHT.s 			page 97


 2585 0104 9246     		mov	r10, r2
 2586              	.LVL307:
 2587 0106 00E0     		b	.L153
 2588              	.LVL308:
 2589              	.L167:
 103:Generated_Source\PSoC6\pdl\drivers\peripheral\smif/cy_smif_memslot.c ****                     if (0U != (memCfg->flags & CY_SMIF_FLAG_DETECT_SFDP))
 2590              		.loc 1 103 0
 2591 0108 0020     		movs	r0, #0
 2592              	.LVL309:
 2593              	.L153:
 116:Generated_Source\PSoC6\pdl\drivers\peripheral\smif/cy_smif_memslot.c ****                             (0U != (memCfg->flags & CY_SMIF_FLAG_MEMORY_MAPPED)))
 2594              		.loc 1 116 0
 2595 010a 0028     		cmp	r0, #0
 2596 010c 29D1     		bne	.L154
 116:Generated_Source\PSoC6\pdl\drivers\peripheral\smif/cy_smif_memslot.c ****                             (0U != (memCfg->flags & CY_SMIF_FLAG_MEMORY_MAPPED)))
 2597              		.loc 1 116 0 is_stmt 0 discriminator 1
 2598 010e 6368     		ldr	r3, [r4, #4]
 2599 0110 9B07     		lsls	r3, r3, #30
 2600 0112 26D5     		bpl	.L154
 120:Generated_Source\PSoC6\pdl\drivers\peripheral\smif/cy_smif_memslot.c ****                         CY_ASSERT_L3(CY_SMIF_MEM_MAPPED_SIZE_VALID( memCfg->memMappedSize));
 2601              		.loc 1 120 0 is_stmt 1
 2602 0114 2169     		ldr	r1, [r4, #16]
 2603 0116 E068     		ldr	r0, [r4, #12]
 2604              	.LVL310:
 2605 0118 FFF7FEFF 		bl	__aeabi_uidivmod
 2606              	.LVL311:
 2607 011c 0029     		cmp	r1, #0
 2608 011e 03D0     		beq	.L155
 120:Generated_Source\PSoC6\pdl\drivers\peripheral\smif/cy_smif_memslot.c ****                         CY_ASSERT_L3(CY_SMIF_MEM_MAPPED_SIZE_VALID( memCfg->memMappedSize));
 2609              		.loc 1 120 0 is_stmt 0 discriminator 1
 2610 0120 7821     		movs	r1, #120
 2611 0122 2548     		ldr	r0, .L168+4
 2612 0124 FFF7FEFF 		bl	Cy_SysLib_AssertFailed
 2613              	.LVL312:
 2614              	.L155:
 121:Generated_Source\PSoC6\pdl\drivers\peripheral\smif/cy_smif_memslot.c ****                         
 2615              		.loc 1 121 0 is_stmt 1
 2616 0128 2369     		ldr	r3, [r4, #16]
 2617 012a 254A     		ldr	r2, .L168+12
 2618 012c 9342     		cmp	r3, r2
 2619 012e 02D9     		bls	.L156
 121:Generated_Source\PSoC6\pdl\drivers\peripheral\smif/cy_smif_memslot.c ****                         
 2620              		.loc 1 121 0 is_stmt 0 discriminator 2
 2621 0130 5A1E     		subs	r2, r3, #1
 2622 0132 1A42     		tst	r2, r3
 2623 0134 03D0     		beq	.L157
 2624              	.L156:
 121:Generated_Source\PSoC6\pdl\drivers\peripheral\smif/cy_smif_memslot.c ****                         
 2625              		.loc 1 121 0 discriminator 3
 2626 0136 7921     		movs	r1, #121
 2627 0138 1F48     		ldr	r0, .L168+4
 2628 013a FFF7FEFF 		bl	Cy_SysLib_AssertFailed
 2629              	.LVL313:
 2630              	.L157:
 123:Generated_Source\PSoC6\pdl\drivers\peripheral\smif/cy_smif_memslot.c **** 
 2631              		.loc 1 123 0 is_stmt 1
 2632 013e 2100     		movs	r1, r4
ARM GAS  C:\Users\ikomb\AppData\Local\Temp\cc5YtlHT.s 			page 98


 2633 0140 2800     		movs	r0, r5
 2634 0142 FFF7FEFF 		bl	Cy_SMIF_Memslot_XipRegInit
 2635              	.LVL314:
 126:Generated_Source\PSoC6\pdl\drivers\peripheral\smif/cy_smif_memslot.c ****                                       (memCfg->flags & CY_SMIF_FLAG_CRYPTO_EN) |
 2636              		.loc 1 126 0
 2637 0146 0223     		movs	r3, #2
 2638 0148 FF33     		adds	r3, r3, #255
 2639 014a 6168     		ldr	r1, [r4, #4]
 2640 014c 1940     		ands	r1, r3
 128:Generated_Source\PSoC6\pdl\drivers\peripheral\smif/cy_smif_memslot.c ****                                       SMIF_DEVICE_CTL_ENABLED_Msk;
 2641              		.loc 1 128 0
 2642 014e 237A     		ldrb	r3, [r4, #8]
 2643 0150 1B04     		lsls	r3, r3, #16
 2644 0152 C022     		movs	r2, #192
 2645 0154 9202     		lsls	r2, r2, #10
 2646 0156 1340     		ands	r3, r2
 127:Generated_Source\PSoC6\pdl\drivers\peripheral\smif/cy_smif_memslot.c ****                                       _VAL2FLD(SMIF_DEVICE_CTL_DATA_SEL,  (uint32_t)memCfg->dataSel
 2647              		.loc 1 127 0
 2648 0158 0B43     		orrs	r3, r1
 128:Generated_Source\PSoC6\pdl\drivers\peripheral\smif/cy_smif_memslot.c ****                                       SMIF_DEVICE_CTL_ENABLED_Msk;
 2649              		.loc 1 128 0
 2650 015a 8022     		movs	r2, #128
 2651 015c 1206     		lsls	r2, r2, #24
 2652 015e 1343     		orrs	r3, r2
 126:Generated_Source\PSoC6\pdl\drivers\peripheral\smif/cy_smif_memslot.c ****                                       (memCfg->flags & CY_SMIF_FLAG_CRYPTO_EN) |
 2653              		.loc 1 126 0
 2654 0160 2B60     		str	r3, [r5]
 2655              	.L154:
 133:Generated_Source\PSoC6\pdl\drivers\peripheral\smif/cy_smif_memslot.c ****                 }
 2656              		.loc 1 133 0
 2657 0162 2B68     		ldr	r3, [r5]
 2658              	.L142:
 2659              	.LBE24:
  84:Generated_Source\PSoC6\pdl\drivers\peripheral\smif/cy_smif_memslot.c ****         {
 2660              		.loc 1 84 0 discriminator 2
 2661 0164 0136     		adds	r6, r6, #1
 2662              	.LVL315:
 2663 0166 02E0     		b	.L141
 2664              	.LVL316:
 2665              	.L164:
 2666              	.LBE21:
 2667 0168 0026     		movs	r6, #0
 2668 016a 0023     		movs	r3, #0
 2669 016c 9A46     		mov	r10, r3
 2670              	.LVL317:
 2671              	.L141:
 2672              	.LBB25:
  84:Generated_Source\PSoC6\pdl\drivers\peripheral\smif/cy_smif_memslot.c ****         {
 2673              		.loc 1 84 0 is_stmt 0 discriminator 1
 2674 016e 4E45     		cmp	r6, r9
 2675 0170 00D2     		bcs	.LCB2785
 2676 0172 63E7     		b	.L158	@long jump
 2677              	.LCB2785:
  83:Generated_Source\PSoC6\pdl\drivers\peripheral\smif/cy_smif_memslot.c ****         for(idx = 0UL; idx < size; idx++)
 2678              		.loc 1 83 0 is_stmt 1
 2679 0174 0020     		movs	r0, #0
 2680 0176 10E0     		b	.L140
ARM GAS  C:\Users\ikomb\AppData\Local\Temp\cc5YtlHT.s 			page 99


 2681              	.LVL318:
 2682              	.L160:
 2683              	.LBE25:
  74:Generated_Source\PSoC6\pdl\drivers\peripheral\smif/cy_smif_memslot.c ****     uint32_t idx;
 2684              		.loc 1 74 0
 2685 0178 0023     		movs	r3, #0
 2686 017a 9A46     		mov	r10, r3
  73:Generated_Source\PSoC6\pdl\drivers\peripheral\smif/cy_smif_memslot.c ****     uint32_t sfdpRes =(uint32_t)CY_SMIF_SUCCESS;
 2687              		.loc 1 73 0
 2688 017c 0D48     		ldr	r0, .L168
 2689              	.LVL319:
 2690 017e 0CE0     		b	.L140
 2691              	.LVL320:
 2692              	.L161:
  74:Generated_Source\PSoC6\pdl\drivers\peripheral\smif/cy_smif_memslot.c ****     uint32_t idx;
 2693              		.loc 1 74 0
 2694 0180 0023     		movs	r3, #0
 2695 0182 9A46     		mov	r10, r3
  73:Generated_Source\PSoC6\pdl\drivers\peripheral\smif/cy_smif_memslot.c ****     uint32_t sfdpRes =(uint32_t)CY_SMIF_SUCCESS;
 2696              		.loc 1 73 0
 2697 0184 0B48     		ldr	r0, .L168
 2698              	.LVL321:
 2699 0186 08E0     		b	.L140
 2700              	.LVL322:
 2701              	.L162:
  74:Generated_Source\PSoC6\pdl\drivers\peripheral\smif/cy_smif_memslot.c ****     uint32_t idx;
 2702              		.loc 1 74 0
 2703 0188 0023     		movs	r3, #0
 2704 018a 9A46     		mov	r10, r3
  73:Generated_Source\PSoC6\pdl\drivers\peripheral\smif/cy_smif_memslot.c ****     uint32_t sfdpRes =(uint32_t)CY_SMIF_SUCCESS;
 2705              		.loc 1 73 0
 2706 018c 0948     		ldr	r0, .L168
 2707              	.LVL323:
 2708 018e 04E0     		b	.L140
 2709              	.LVL324:
 2710              	.L163:
  74:Generated_Source\PSoC6\pdl\drivers\peripheral\smif/cy_smif_memslot.c ****     uint32_t idx;
 2711              		.loc 1 74 0
 2712 0190 0023     		movs	r3, #0
 2713 0192 9A46     		mov	r10, r3
  73:Generated_Source\PSoC6\pdl\drivers\peripheral\smif/cy_smif_memslot.c ****     uint32_t sfdpRes =(uint32_t)CY_SMIF_SUCCESS;
 2714              		.loc 1 73 0
 2715 0194 0748     		ldr	r0, .L168
 2716              	.LVL325:
 2717 0196 00E0     		b	.L140
 2718              	.LVL326:
 2719              	.L166:
 2720              	.LBB26:
 137:Generated_Source\PSoC6\pdl\drivers\peripheral\smif/cy_smif_memslot.c ****                     break;
 2721              		.loc 1 137 0
 2722 0198 0648     		ldr	r0, .L168
 2723              	.LVL327:
 2724              	.L140:
 2725              	.LBE26:
 143:Generated_Source\PSoC6\pdl\drivers\peripheral\smif/cy_smif_memslot.c ****     {
 2726              		.loc 1 143 0
 2727 019a 5346     		mov	r3, r10
ARM GAS  C:\Users\ikomb\AppData\Local\Temp\cc5YtlHT.s 			page 100


 2728 019c 002B     		cmp	r3, #0
 2729 019e 02D0     		beq	.L159
 145:Generated_Source\PSoC6\pdl\drivers\peripheral\smif/cy_smif_memslot.c ****     }
 2730              		.loc 1 145 0
 2731 01a0 B220     		movs	r0, #178
 2732              	.LVL328:
 2733 01a2 0004     		lsls	r0, r0, #16
 2734 01a4 1843     		orrs	r0, r3
 2735              	.LVL329:
 2736              	.L159:
 148:Generated_Source\PSoC6\pdl\drivers\peripheral\smif/cy_smif_memslot.c **** 
 2737              		.loc 1 148 0
 2738 01a6 03B0     		add	sp, sp, #12
 2739              		@ sp needed
 2740              	.LVL330:
 2741              	.LVL331:
 2742              	.LVL332:
 2743 01a8 3CBC     		pop	{r2, r3, r4, r5}
 2744 01aa 9046     		mov	r8, r2
 2745 01ac 9946     		mov	r9, r3
 2746 01ae A246     		mov	r10, r4
 2747 01b0 AB46     		mov	fp, r5
 2748 01b2 F0BD     		pop	{r4, r5, r6, r7, pc}
 2749              	.L169:
 2750              		.align	2
 2751              	.L168:
 2752 01b4 0400B200 		.word	11665412
 2753 01b8 00000000 		.word	.LC0
 2754 01bc FFFFFCFF 		.word	-196609
 2755 01c0 FFFF0000 		.word	65535
 2756              		.cfi_endproc
 2757              	.LFE89:
 2758              		.size	Cy_SMIF_Memslot_Init, .-Cy_SMIF_Memslot_Init
 2759              		.section	.rodata.str1.4,"aMS",%progbits,1
 2760              		.align	2
 2761              	.LC0:
 2762 0000 47656E65 		.ascii	"Generated_Source\\PSoC6\\pdl\\drivers\\peripheral\\"
 2762      72617465 
 2762      645F536F 
 2762      75726365 
 2762      5C50536F 
 2763 002e 736D6966 		.ascii	"smif\\cy_smif_memslot.c\000"
 2763      5C63795F 
 2763      736D6966 
 2763      5F6D656D 
 2763      736C6F74 
 2764              		.text
 2765              	.Letext0:
 2766              		.file 3 "c:\\program files (x86)\\cypress\\psoc creator\\4.4\\psoc creator\\import\\gnu\\arm\\5.4.
 2767              		.file 4 "c:\\program files (x86)\\cypress\\psoc creator\\4.4\\psoc creator\\import\\gnu\\arm\\5.4.
 2768              		.file 5 "Generated_Source\\PSoC6\\pdl\\devices/psoc6/ip/cyip_smif.h"
 2769              		.file 6 "Generated_Source\\PSoC6\\pdl\\drivers/peripheral/syslib/cy_syslib.h"
 2770              		.file 7 "Generated_Source\\PSoC6\\pdl\\drivers\\peripheral\\smif\\cy_smif_memslot.h"
 2771              		.section	.debug_info,"",%progbits
 2772              	.Ldebug_info0:
 2773 0000 341C0000 		.4byte	0x1c34
 2774 0004 0400     		.2byte	0x4
ARM GAS  C:\Users\ikomb\AppData\Local\Temp\cc5YtlHT.s 			page 101


 2775 0006 00000000 		.4byte	.Ldebug_abbrev0
 2776 000a 04       		.byte	0x4
 2777 000b 01       		.uleb128 0x1
 2778 000c FD030000 		.4byte	.LASF256
 2779 0010 0C       		.byte	0xc
 2780 0011 0E050000 		.4byte	.LASF257
 2781 0015 28010000 		.4byte	.LASF258
 2782 0019 20000000 		.4byte	.Ldebug_ranges0+0x20
 2783 001d 00000000 		.4byte	0
 2784 0021 00000000 		.4byte	.Ldebug_line0
 2785 0025 02       		.uleb128 0x2
 2786 0026 01       		.byte	0x1
 2787 0027 06       		.byte	0x6
 2788 0028 BA0E0000 		.4byte	.LASF0
 2789 002c 03       		.uleb128 0x3
 2790 002d 730C0000 		.4byte	.LASF5
 2791 0031 03       		.byte	0x3
 2792 0032 1D       		.byte	0x1d
 2793 0033 37000000 		.4byte	0x37
 2794 0037 02       		.uleb128 0x2
 2795 0038 01       		.byte	0x1
 2796 0039 08       		.byte	0x8
 2797 003a 9C0A0000 		.4byte	.LASF1
 2798 003e 02       		.uleb128 0x2
 2799 003f 02       		.byte	0x2
 2800 0040 05       		.byte	0x5
 2801 0041 92020000 		.4byte	.LASF2
 2802 0045 02       		.uleb128 0x2
 2803 0046 02       		.byte	0x2
 2804 0047 07       		.byte	0x7
 2805 0048 D00E0000 		.4byte	.LASF3
 2806 004c 02       		.uleb128 0x2
 2807 004d 04       		.byte	0x4
 2808 004e 05       		.byte	0x5
 2809 004f 16000000 		.4byte	.LASF4
 2810 0053 03       		.uleb128 0x3
 2811 0054 A00D0000 		.4byte	.LASF6
 2812 0058 03       		.byte	0x3
 2813 0059 41       		.byte	0x41
 2814 005a 5E000000 		.4byte	0x5e
 2815 005e 02       		.uleb128 0x2
 2816 005f 04       		.byte	0x4
 2817 0060 07       		.byte	0x7
 2818 0061 E70C0000 		.4byte	.LASF7
 2819 0065 02       		.uleb128 0x2
 2820 0066 08       		.byte	0x8
 2821 0067 05       		.byte	0x5
 2822 0068 B4080000 		.4byte	.LASF8
 2823 006c 02       		.uleb128 0x2
 2824 006d 08       		.byte	0x8
 2825 006e 07       		.byte	0x7
 2826 006f B6040000 		.4byte	.LASF9
 2827 0073 04       		.uleb128 0x4
 2828 0074 04       		.byte	0x4
 2829 0075 05       		.byte	0x5
 2830 0076 696E7400 		.ascii	"int\000"
 2831 007a 02       		.uleb128 0x2
ARM GAS  C:\Users\ikomb\AppData\Local\Temp\cc5YtlHT.s 			page 102


 2832 007b 04       		.byte	0x4
 2833 007c 07       		.byte	0x7
 2834 007d 8D0C0000 		.4byte	.LASF10
 2835 0081 03       		.uleb128 0x3
 2836 0082 48080000 		.4byte	.LASF11
 2837 0086 04       		.byte	0x4
 2838 0087 18       		.byte	0x18
 2839 0088 2C000000 		.4byte	0x2c
 2840 008c 03       		.uleb128 0x3
 2841 008d D1030000 		.4byte	.LASF12
 2842 0091 04       		.byte	0x4
 2843 0092 30       		.byte	0x30
 2844 0093 53000000 		.4byte	0x53
 2845 0097 02       		.uleb128 0x2
 2846 0098 04       		.byte	0x4
 2847 0099 07       		.byte	0x7
 2848 009a CA0C0000 		.4byte	.LASF13
 2849 009e 05       		.uleb128 0x5
 2850 009f 8C000000 		.4byte	0x8c
 2851 00a3 06       		.uleb128 0x6
 2852 00a4 9E000000 		.4byte	0x9e
 2853 00a8 05       		.uleb128 0x5
 2854 00a9 81000000 		.4byte	0x81
 2855 00ad 07       		.uleb128 0x7
 2856 00ae A3000000 		.4byte	0xa3
 2857 00b2 BD000000 		.4byte	0xbd
 2858 00b6 08       		.uleb128 0x8
 2859 00b7 97000000 		.4byte	0x97
 2860 00bb 01       		.byte	0x1
 2861 00bc 00       		.byte	0
 2862 00bd 07       		.uleb128 0x7
 2863 00be A3000000 		.4byte	0xa3
 2864 00c2 CD000000 		.4byte	0xcd
 2865 00c6 08       		.uleb128 0x8
 2866 00c7 97000000 		.4byte	0x97
 2867 00cb 06       		.byte	0x6
 2868 00cc 00       		.byte	0
 2869 00cd 07       		.uleb128 0x7
 2870 00ce A3000000 		.4byte	0xa3
 2871 00d2 DD000000 		.4byte	0xdd
 2872 00d6 08       		.uleb128 0x8
 2873 00d7 97000000 		.4byte	0x97
 2874 00db 02       		.byte	0x2
 2875 00dc 00       		.byte	0
 2876 00dd 07       		.uleb128 0x7
 2877 00de A3000000 		.4byte	0xa3
 2878 00e2 ED000000 		.4byte	0xed
 2879 00e6 08       		.uleb128 0x8
 2880 00e7 97000000 		.4byte	0x97
 2881 00eb 0E       		.byte	0xe
 2882 00ec 00       		.byte	0
 2883 00ed 07       		.uleb128 0x7
 2884 00ee A3000000 		.4byte	0xa3
 2885 00f2 FD000000 		.4byte	0xfd
 2886 00f6 08       		.uleb128 0x8
 2887 00f7 97000000 		.4byte	0x97
 2888 00fb 03       		.byte	0x3
ARM GAS  C:\Users\ikomb\AppData\Local\Temp\cc5YtlHT.s 			page 103


 2889 00fc 00       		.byte	0
 2890 00fd 07       		.uleb128 0x7
 2891 00fe A3000000 		.4byte	0xa3
 2892 0102 0D010000 		.4byte	0x10d
 2893 0106 08       		.uleb128 0x8
 2894 0107 97000000 		.4byte	0x97
 2895 010b 0B       		.byte	0xb
 2896 010c 00       		.byte	0
 2897 010d 07       		.uleb128 0x7
 2898 010e A3000000 		.4byte	0xa3
 2899 0112 1D010000 		.4byte	0x11d
 2900 0116 08       		.uleb128 0x8
 2901 0117 97000000 		.4byte	0x97
 2902 011b 1C       		.byte	0x1c
 2903 011c 00       		.byte	0
 2904 011d 07       		.uleb128 0x7
 2905 011e 81000000 		.4byte	0x81
 2906 0122 2D010000 		.4byte	0x12d
 2907 0126 08       		.uleb128 0x8
 2908 0127 97000000 		.4byte	0x97
 2909 012b 01       		.byte	0x1
 2910 012c 00       		.byte	0
 2911 012d 07       		.uleb128 0x7
 2912 012e 81000000 		.4byte	0x81
 2913 0132 3D010000 		.4byte	0x13d
 2914 0136 08       		.uleb128 0x8
 2915 0137 97000000 		.4byte	0x97
 2916 013b 02       		.byte	0x2
 2917 013c 00       		.byte	0
 2918 013d 07       		.uleb128 0x7
 2919 013e A3000000 		.4byte	0xa3
 2920 0142 4D010000 		.4byte	0x14d
 2921 0146 08       		.uleb128 0x8
 2922 0147 97000000 		.4byte	0x97
 2923 014b 0A       		.byte	0xa
 2924 014c 00       		.byte	0
 2925 014d 09       		.uleb128 0x9
 2926 014e 80       		.byte	0x80
 2927 014f 05       		.byte	0x5
 2928 0150 22       		.byte	0x22
 2929 0151 3A020000 		.4byte	0x23a
 2930 0155 0A       		.uleb128 0xa
 2931 0156 43544C00 		.ascii	"CTL\000"
 2932 015a 05       		.byte	0x5
 2933 015b 23       		.byte	0x23
 2934 015c 9E000000 		.4byte	0x9e
 2935 0160 00       		.byte	0
 2936 0161 0B       		.uleb128 0xb
 2937 0162 11030000 		.4byte	.LASF14
 2938 0166 05       		.byte	0x5
 2939 0167 24       		.byte	0x24
 2940 0168 A3000000 		.4byte	0xa3
 2941 016c 04       		.byte	0x4
 2942 016d 0B       		.uleb128 0xb
 2943 016e D0090000 		.4byte	.LASF15
 2944 0172 05       		.byte	0x5
 2945 0173 25       		.byte	0x25
ARM GAS  C:\Users\ikomb\AppData\Local\Temp\cc5YtlHT.s 			page 104


 2946 0174 9E000000 		.4byte	0x9e
 2947 0178 08       		.byte	0x8
 2948 0179 0B       		.uleb128 0xb
 2949 017a 53050000 		.4byte	.LASF16
 2950 017e 05       		.byte	0x5
 2951 017f 26       		.byte	0x26
 2952 0180 9E000000 		.4byte	0x9e
 2953 0184 0C       		.byte	0xc
 2954 0185 0B       		.uleb128 0xb
 2955 0186 DF0A0000 		.4byte	.LASF17
 2956 018a 05       		.byte	0x5
 2957 018b 27       		.byte	0x27
 2958 018c 3F020000 		.4byte	0x23f
 2959 0190 10       		.byte	0x10
 2960 0191 0B       		.uleb128 0xb
 2961 0192 36090000 		.4byte	.LASF18
 2962 0196 05       		.byte	0x5
 2963 0197 28       		.byte	0x28
 2964 0198 9E000000 		.4byte	0x9e
 2965 019c 20       		.byte	0x20
 2966 019d 0B       		.uleb128 0xb
 2967 019e E90A0000 		.4byte	.LASF19
 2968 01a2 05       		.byte	0x5
 2969 01a3 29       		.byte	0x29
 2970 01a4 49020000 		.4byte	0x249
 2971 01a8 24       		.byte	0x24
 2972 01a9 0B       		.uleb128 0xb
 2973 01aa 290F0000 		.4byte	.LASF20
 2974 01ae 05       		.byte	0x5
 2975 01af 2A       		.byte	0x2a
 2976 01b0 9E000000 		.4byte	0x9e
 2977 01b4 40       		.byte	0x40
 2978 01b5 0B       		.uleb128 0xb
 2979 01b6 05030000 		.4byte	.LASF21
 2980 01ba 05       		.byte	0x5
 2981 01bb 2B       		.byte	0x2b
 2982 01bc 9E000000 		.4byte	0x9e
 2983 01c0 44       		.byte	0x44
 2984 01c1 0B       		.uleb128 0xb
 2985 01c2 F5040000 		.4byte	.LASF22
 2986 01c6 05       		.byte	0x5
 2987 01c7 2C       		.byte	0x2c
 2988 01c8 9E000000 		.4byte	0x9e
 2989 01cc 48       		.byte	0x48
 2990 01cd 0B       		.uleb128 0xb
 2991 01ce 390B0000 		.4byte	.LASF23
 2992 01d2 05       		.byte	0x5
 2993 01d3 2D       		.byte	0x2d
 2994 01d4 9E000000 		.4byte	0x9e
 2995 01d8 4C       		.byte	0x4c
 2996 01d9 0B       		.uleb128 0xb
 2997 01da DA030000 		.4byte	.LASF24
 2998 01de 05       		.byte	0x5
 2999 01df 2E       		.byte	0x2e
 3000 01e0 9E000000 		.4byte	0x9e
 3001 01e4 50       		.byte	0x50
 3002 01e5 0B       		.uleb128 0xb
ARM GAS  C:\Users\ikomb\AppData\Local\Temp\cc5YtlHT.s 			page 105


 3003 01e6 F30A0000 		.4byte	.LASF25
 3004 01ea 05       		.byte	0x5
 3005 01eb 2F       		.byte	0x2f
 3006 01ec 53020000 		.4byte	0x253
 3007 01f0 54       		.byte	0x54
 3008 01f1 0B       		.uleb128 0xb
 3009 01f2 4D060000 		.4byte	.LASF26
 3010 01f6 05       		.byte	0x5
 3011 01f7 30       		.byte	0x30
 3012 01f8 9E000000 		.4byte	0x9e
 3013 01fc 60       		.byte	0x60
 3014 01fd 0B       		.uleb128 0xb
 3015 01fe 860A0000 		.4byte	.LASF27
 3016 0202 05       		.byte	0x5
 3017 0203 31       		.byte	0x31
 3018 0204 9E000000 		.4byte	0x9e
 3019 0208 64       		.byte	0x64
 3020 0209 0B       		.uleb128 0xb
 3021 020a C20A0000 		.4byte	.LASF28
 3022 020e 05       		.byte	0x5
 3023 020f 32       		.byte	0x32
 3024 0210 9E000000 		.4byte	0x9e
 3025 0214 68       		.byte	0x68
 3026 0215 0B       		.uleb128 0xb
 3027 0216 E30E0000 		.4byte	.LASF29
 3028 021a 05       		.byte	0x5
 3029 021b 33       		.byte	0x33
 3030 021c 9E000000 		.4byte	0x9e
 3031 0220 6C       		.byte	0x6c
 3032 0221 0B       		.uleb128 0xb
 3033 0222 460B0000 		.4byte	.LASF30
 3034 0226 05       		.byte	0x5
 3035 0227 34       		.byte	0x34
 3036 0228 9E000000 		.4byte	0x9e
 3037 022c 70       		.byte	0x70
 3038 022d 0B       		.uleb128 0xb
 3039 022e FD0A0000 		.4byte	.LASF31
 3040 0232 05       		.byte	0x5
 3041 0233 35       		.byte	0x35
 3042 0234 5D020000 		.4byte	0x25d
 3043 0238 74       		.byte	0x74
 3044 0239 00       		.byte	0
 3045 023a 05       		.uleb128 0x5
 3046 023b ED000000 		.4byte	0xed
 3047 023f 06       		.uleb128 0x6
 3048 0240 3A020000 		.4byte	0x23a
 3049 0244 05       		.uleb128 0x5
 3050 0245 BD000000 		.4byte	0xbd
 3051 0249 06       		.uleb128 0x6
 3052 024a 44020000 		.4byte	0x244
 3053 024e 05       		.uleb128 0x5
 3054 024f CD000000 		.4byte	0xcd
 3055 0253 06       		.uleb128 0x6
 3056 0254 4E020000 		.4byte	0x24e
 3057 0258 05       		.uleb128 0x5
 3058 0259 CD000000 		.4byte	0xcd
 3059 025d 06       		.uleb128 0x6
ARM GAS  C:\Users\ikomb\AppData\Local\Temp\cc5YtlHT.s 			page 106


 3060 025e 58020000 		.4byte	0x258
 3061 0262 03       		.uleb128 0x3
 3062 0263 93080000 		.4byte	.LASF32
 3063 0267 05       		.byte	0x5
 3064 0268 36       		.byte	0x36
 3065 0269 4D010000 		.4byte	0x14d
 3066 026d 0C       		.uleb128 0xc
 3067 026e 000A     		.2byte	0xa00
 3068 0270 05       		.byte	0x5
 3069 0271 3B       		.byte	0x3b
 3070 0272 1E050000 		.4byte	0x51e
 3071 0276 0A       		.uleb128 0xa
 3072 0277 43544C00 		.ascii	"CTL\000"
 3073 027b 05       		.byte	0x5
 3074 027c 3C       		.byte	0x3c
 3075 027d 9E000000 		.4byte	0x9e
 3076 0281 00       		.byte	0
 3077 0282 0B       		.uleb128 0xb
 3078 0283 3C070000 		.4byte	.LASF33
 3079 0287 05       		.byte	0x5
 3080 0288 3D       		.byte	0x3d
 3081 0289 A3000000 		.4byte	0xa3
 3082 028d 04       		.byte	0x4
 3083 028e 0B       		.uleb128 0xb
 3084 028f 11030000 		.4byte	.LASF14
 3085 0293 05       		.byte	0x5
 3086 0294 3E       		.byte	0x3e
 3087 0295 23050000 		.4byte	0x523
 3088 0299 08       		.byte	0x8
 3089 029a 0B       		.uleb128 0xb
 3090 029b 87000000 		.4byte	.LASF34
 3091 029f 05       		.byte	0x5
 3092 02a0 3F       		.byte	0x3f
 3093 02a1 A3000000 		.4byte	0xa3
 3094 02a5 44       		.byte	0x44
 3095 02a6 0B       		.uleb128 0xb
 3096 02a7 DF0A0000 		.4byte	.LASF17
 3097 02ab 05       		.byte	0x5
 3098 02ac 40       		.byte	0x40
 3099 02ad 2D050000 		.4byte	0x52d
 3100 02b1 48       		.byte	0x48
 3101 02b2 0B       		.uleb128 0xb
 3102 02b3 DF050000 		.4byte	.LASF35
 3103 02b7 05       		.byte	0x5
 3104 02b8 41       		.byte	0x41
 3105 02b9 9E000000 		.4byte	0x9e
 3106 02bd 50       		.byte	0x50
 3107 02be 0B       		.uleb128 0xb
 3108 02bf E90A0000 		.4byte	.LASF19
 3109 02c3 05       		.byte	0x5
 3110 02c4 42       		.byte	0x42
 3111 02c5 37050000 		.4byte	0x537
 3112 02c9 54       		.byte	0x54
 3113 02ca 0B       		.uleb128 0xb
 3114 02cb 06070000 		.4byte	.LASF36
 3115 02cf 05       		.byte	0x5
 3116 02d0 43       		.byte	0x43
ARM GAS  C:\Users\ikomb\AppData\Local\Temp\cc5YtlHT.s 			page 107


 3117 02d1 9E000000 		.4byte	0x9e
 3118 02d5 80       		.byte	0x80
 3119 02d6 0B       		.uleb128 0xb
 3120 02d7 CC020000 		.4byte	.LASF37
 3121 02db 05       		.byte	0x5
 3122 02dc 44       		.byte	0x44
 3123 02dd A3000000 		.4byte	0xa3
 3124 02e1 84       		.byte	0x84
 3125 02e2 0B       		.uleb128 0xb
 3126 02e3 F30A0000 		.4byte	.LASF25
 3127 02e7 05       		.byte	0x5
 3128 02e8 45       		.byte	0x45
 3129 02e9 41050000 		.4byte	0x541
 3130 02ed 88       		.byte	0x88
 3131 02ee 0B       		.uleb128 0xb
 3132 02ef EE070000 		.4byte	.LASF38
 3133 02f3 05       		.byte	0x5
 3134 02f4 46       		.byte	0x46
 3135 02f5 9E000000 		.4byte	0x9e
 3136 02f9 90       		.byte	0x90
 3137 02fa 0B       		.uleb128 0xb
 3138 02fb FF070000 		.4byte	.LASF39
 3139 02ff 05       		.byte	0x5
 3140 0300 47       		.byte	0x47
 3141 0301 9E000000 		.4byte	0x9e
 3142 0305 94       		.byte	0x94
 3143 0306 0B       		.uleb128 0xb
 3144 0307 220D0000 		.4byte	.LASF40
 3145 030b 05       		.byte	0x5
 3146 030c 48       		.byte	0x48
 3147 030d 9E000000 		.4byte	0x9e
 3148 0311 98       		.byte	0x98
 3149 0312 0B       		.uleb128 0xb
 3150 0313 FD0A0000 		.4byte	.LASF31
 3151 0317 05       		.byte	0x5
 3152 0318 49       		.byte	0x49
 3153 0319 5B050000 		.4byte	0x55b
 3154 031d 9C       		.byte	0x9c
 3155 031e 0B       		.uleb128 0xb
 3156 031f B9030000 		.4byte	.LASF41
 3157 0323 05       		.byte	0x5
 3158 0324 4A       		.byte	0x4a
 3159 0325 9E000000 		.4byte	0x9e
 3160 0329 C0       		.byte	0xc0
 3161 032a 0B       		.uleb128 0xb
 3162 032b 2A080000 		.4byte	.LASF42
 3163 032f 05       		.byte	0x5
 3164 0330 4B       		.byte	0x4b
 3165 0331 A3000000 		.4byte	0xa3
 3166 0335 C4       		.byte	0xc4
 3167 0336 0B       		.uleb128 0xb
 3168 0337 070B0000 		.4byte	.LASF43
 3169 033b 05       		.byte	0x5
 3170 033c 4C       		.byte	0x4c
 3171 033d 65050000 		.4byte	0x565
 3172 0341 C8       		.byte	0xc8
 3173 0342 0B       		.uleb128 0xb
ARM GAS  C:\Users\ikomb\AppData\Local\Temp\cc5YtlHT.s 			page 108


 3174 0343 06010000 		.4byte	.LASF44
 3175 0347 05       		.byte	0x5
 3176 0348 4D       		.byte	0x4d
 3177 0349 A3000000 		.4byte	0xa3
 3178 034d D0       		.byte	0xd0
 3179 034e 0B       		.uleb128 0xb
 3180 034f 17010000 		.4byte	.LASF45
 3181 0353 05       		.byte	0x5
 3182 0354 4E       		.byte	0x4e
 3183 0355 A3000000 		.4byte	0xa3
 3184 0359 D4       		.byte	0xd4
 3185 035a 0B       		.uleb128 0xb
 3186 035b 980B0000 		.4byte	.LASF46
 3187 035f 05       		.byte	0x5
 3188 0360 4F       		.byte	0x4f
 3189 0361 A3000000 		.4byte	0xa3
 3190 0365 D8       		.byte	0xd8
 3191 0366 0B       		.uleb128 0xb
 3192 0367 110B0000 		.4byte	.LASF47
 3193 036b 05       		.byte	0x5
 3194 036c 50       		.byte	0x50
 3195 036d A3000000 		.4byte	0xa3
 3196 0371 DC       		.byte	0xdc
 3197 0372 0B       		.uleb128 0xb
 3198 0373 5D030000 		.4byte	.LASF48
 3199 0377 05       		.byte	0x5
 3200 0378 51       		.byte	0x51
 3201 0379 A3000000 		.4byte	0xa3
 3202 037d E0       		.byte	0xe0
 3203 037e 0B       		.uleb128 0xb
 3204 037f 1B0B0000 		.4byte	.LASF49
 3205 0383 05       		.byte	0x5
 3206 0384 52       		.byte	0x52
 3207 0385 6F050000 		.4byte	0x56f
 3208 0389 E4       		.byte	0xe4
 3209 038a 0D       		.uleb128 0xd
 3210 038b B40B0000 		.4byte	.LASF50
 3211 038f 05       		.byte	0x5
 3212 0390 53       		.byte	0x53
 3213 0391 9E000000 		.4byte	0x9e
 3214 0395 0001     		.2byte	0x100
 3215 0397 0D       		.uleb128 0xd
 3216 0398 250B0000 		.4byte	.LASF51
 3217 039c 05       		.byte	0x5
 3218 039d 54       		.byte	0x54
 3219 039e A3000000 		.4byte	0xa3
 3220 03a2 0401     		.2byte	0x104
 3221 03a4 0D       		.uleb128 0xd
 3222 03a5 A3040000 		.4byte	.LASF52
 3223 03a9 05       		.byte	0x5
 3224 03aa 55       		.byte	0x55
 3225 03ab 9E000000 		.4byte	0x9e
 3226 03af 0801     		.2byte	0x108
 3227 03b1 0D       		.uleb128 0xd
 3228 03b2 2F0B0000 		.4byte	.LASF53
 3229 03b6 05       		.byte	0x5
 3230 03b7 56       		.byte	0x56
ARM GAS  C:\Users\ikomb\AppData\Local\Temp\cc5YtlHT.s 			page 109


 3231 03b8 79050000 		.4byte	0x579
 3232 03bc 0C01     		.2byte	0x10c
 3233 03be 0D       		.uleb128 0xd
 3234 03bf E6060000 		.4byte	.LASF54
 3235 03c3 05       		.byte	0x5
 3236 03c4 57       		.byte	0x57
 3237 03c5 9E000000 		.4byte	0x9e
 3238 03c9 8001     		.2byte	0x180
 3239 03cb 0D       		.uleb128 0xd
 3240 03cc D20D0000 		.4byte	.LASF55
 3241 03d0 05       		.byte	0x5
 3242 03d1 58       		.byte	0x58
 3243 03d2 A3000000 		.4byte	0xa3
 3244 03d6 8401     		.2byte	0x184
 3245 03d8 0D       		.uleb128 0xd
 3246 03d9 9F0E0000 		.4byte	.LASF56
 3247 03dd 05       		.byte	0x5
 3248 03de 59       		.byte	0x59
 3249 03df 9E000000 		.4byte	0x9e
 3250 03e3 8801     		.2byte	0x188
 3251 03e5 0D       		.uleb128 0xd
 3252 03e6 DD0D0000 		.4byte	.LASF57
 3253 03ea 05       		.byte	0x5
 3254 03eb 5A       		.byte	0x5a
 3255 03ec 83050000 		.4byte	0x583
 3256 03f0 8C01     		.2byte	0x18c
 3257 03f2 0D       		.uleb128 0xd
 3258 03f3 17070000 		.4byte	.LASF58
 3259 03f7 05       		.byte	0x5
 3260 03f8 5B       		.byte	0x5b
 3261 03f9 9E000000 		.4byte	0x9e
 3262 03fd 0002     		.2byte	0x200
 3263 03ff 0D       		.uleb128 0xd
 3264 0400 E80D0000 		.4byte	.LASF59
 3265 0404 05       		.byte	0x5
 3266 0405 5C       		.byte	0x5c
 3267 0406 8D050000 		.4byte	0x58d
 3268 040a 0402     		.2byte	0x204
 3269 040c 0D       		.uleb128 0xd
 3270 040d 5A020000 		.4byte	.LASF60
 3271 0411 05       		.byte	0x5
 3272 0412 5D       		.byte	0x5d
 3273 0413 9E000000 		.4byte	0x9e
 3274 0417 2002     		.2byte	0x220
 3275 0419 0D       		.uleb128 0xd
 3276 041a 68020000 		.4byte	.LASF61
 3277 041e 05       		.byte	0x5
 3278 041f 5E       		.byte	0x5e
 3279 0420 9E000000 		.4byte	0x9e
 3280 0424 2402     		.2byte	0x224
 3281 0426 0D       		.uleb128 0xd
 3282 0427 76020000 		.4byte	.LASF62
 3283 042b 05       		.byte	0x5
 3284 042c 5F       		.byte	0x5f
 3285 042d 9E000000 		.4byte	0x9e
 3286 0431 2802     		.2byte	0x228
 3287 0433 0D       		.uleb128 0xd
ARM GAS  C:\Users\ikomb\AppData\Local\Temp\cc5YtlHT.s 			page 110


 3288 0434 84020000 		.4byte	.LASF63
 3289 0438 05       		.byte	0x5
 3290 0439 60       		.byte	0x60
 3291 043a 9E000000 		.4byte	0x9e
 3292 043e 2C02     		.2byte	0x22c
 3293 0440 0D       		.uleb128 0xd
 3294 0441 F30D0000 		.4byte	.LASF64
 3295 0445 05       		.byte	0x5
 3296 0446 61       		.byte	0x61
 3297 0447 97050000 		.4byte	0x597
 3298 044b 3002     		.2byte	0x230
 3299 044d 0D       		.uleb128 0xd
 3300 044e B3070000 		.4byte	.LASF65
 3301 0452 05       		.byte	0x5
 3302 0453 62       		.byte	0x62
 3303 0454 9E000000 		.4byte	0x9e
 3304 0458 4002     		.2byte	0x240
 3305 045a 0D       		.uleb128 0xd
 3306 045b BF070000 		.4byte	.LASF66
 3307 045f 05       		.byte	0x5
 3308 0460 63       		.byte	0x63
 3309 0461 9E000000 		.4byte	0x9e
 3310 0465 4402     		.2byte	0x244
 3311 0467 0D       		.uleb128 0xd
 3312 0468 CB070000 		.4byte	.LASF67
 3313 046c 05       		.byte	0x5
 3314 046d 64       		.byte	0x64
 3315 046e 9E000000 		.4byte	0x9e
 3316 0472 4802     		.2byte	0x248
 3317 0474 0D       		.uleb128 0xd
 3318 0475 D7070000 		.4byte	.LASF68
 3319 0479 05       		.byte	0x5
 3320 047a 65       		.byte	0x65
 3321 047b 9E000000 		.4byte	0x9e
 3322 047f 4C02     		.2byte	0x24c
 3323 0481 0D       		.uleb128 0xd
 3324 0482 FE0D0000 		.4byte	.LASF69
 3325 0486 05       		.byte	0x5
 3326 0487 66       		.byte	0x66
 3327 0488 A1050000 		.4byte	0x5a1
 3328 048c 5002     		.2byte	0x250
 3329 048e 0D       		.uleb128 0xd
 3330 048f D80C0000 		.4byte	.LASF70
 3331 0493 05       		.byte	0x5
 3332 0494 67       		.byte	0x67
 3333 0495 9E000000 		.4byte	0x9e
 3334 0499 6002     		.2byte	0x260
 3335 049b 0D       		.uleb128 0xd
 3336 049c 79070000 		.4byte	.LASF71
 3337 04a0 05       		.byte	0x5
 3338 04a1 68       		.byte	0x68
 3339 04a2 9E000000 		.4byte	0x9e
 3340 04a6 6402     		.2byte	0x264
 3341 04a8 0D       		.uleb128 0xd
 3342 04a9 F90C0000 		.4byte	.LASF72
 3343 04ad 05       		.byte	0x5
 3344 04ae 69       		.byte	0x69
ARM GAS  C:\Users\ikomb\AppData\Local\Temp\cc5YtlHT.s 			page 111


 3345 04af 9E000000 		.4byte	0x9e
 3346 04b3 6802     		.2byte	0x268
 3347 04b5 0D       		.uleb128 0xd
 3348 04b6 080D0000 		.4byte	.LASF73
 3349 04ba 05       		.byte	0x5
 3350 04bb 6A       		.byte	0x6a
 3351 04bc 9E000000 		.4byte	0x9e
 3352 04c0 6C02     		.2byte	0x26c
 3353 04c2 0D       		.uleb128 0xd
 3354 04c3 090E0000 		.4byte	.LASF74
 3355 04c7 05       		.byte	0x5
 3356 04c8 6B       		.byte	0x6b
 3357 04c9 BC050000 		.4byte	0x5bc
 3358 04cd 7002     		.2byte	0x270
 3359 04cf 0D       		.uleb128 0xd
 3360 04d0 F2030000 		.4byte	.LASF75
 3361 04d4 05       		.byte	0x5
 3362 04d5 6C       		.byte	0x6c
 3363 04d6 9E000000 		.4byte	0x9e
 3364 04da C007     		.2byte	0x7c0
 3365 04dc 0D       		.uleb128 0xd
 3366 04dd AD020000 		.4byte	.LASF76
 3367 04e1 05       		.byte	0x5
 3368 04e2 6D       		.byte	0x6d
 3369 04e3 9E000000 		.4byte	0x9e
 3370 04e7 C407     		.2byte	0x7c4
 3371 04e9 0D       		.uleb128 0xd
 3372 04ea FC060000 		.4byte	.LASF77
 3373 04ee 05       		.byte	0x5
 3374 04ef 6E       		.byte	0x6e
 3375 04f0 9E000000 		.4byte	0x9e
 3376 04f4 C807     		.2byte	0x7c8
 3377 04f6 0D       		.uleb128 0xd
 3378 04f7 B50C0000 		.4byte	.LASF78
 3379 04fb 05       		.byte	0x5
 3380 04fc 6F       		.byte	0x6f
 3381 04fd A3000000 		.4byte	0xa3
 3382 0501 CC07     		.2byte	0x7cc
 3383 0503 0D       		.uleb128 0xd
 3384 0504 140E0000 		.4byte	.LASF79
 3385 0508 05       		.byte	0x5
 3386 0509 70       		.byte	0x70
 3387 050a C6050000 		.4byte	0x5c6
 3388 050e D007     		.2byte	0x7d0
 3389 0510 0D       		.uleb128 0xd
 3390 0511 620B0000 		.4byte	.LASF80
 3391 0515 05       		.byte	0x5
 3392 0516 71       		.byte	0x71
 3393 0517 CB050000 		.4byte	0x5cb
 3394 051b 0008     		.2byte	0x800
 3395 051d 00       		.byte	0
 3396 051e 05       		.uleb128 0x5
 3397 051f DD000000 		.4byte	0xdd
 3398 0523 06       		.uleb128 0x6
 3399 0524 1E050000 		.4byte	0x51e
 3400 0528 05       		.uleb128 0x5
 3401 0529 AD000000 		.4byte	0xad
ARM GAS  C:\Users\ikomb\AppData\Local\Temp\cc5YtlHT.s 			page 112


 3402 052d 06       		.uleb128 0x6
 3403 052e 28050000 		.4byte	0x528
 3404 0532 05       		.uleb128 0x5
 3405 0533 3D010000 		.4byte	0x13d
 3406 0537 06       		.uleb128 0x6
 3407 0538 32050000 		.4byte	0x532
 3408 053c 05       		.uleb128 0x5
 3409 053d AD000000 		.4byte	0xad
 3410 0541 06       		.uleb128 0x6
 3411 0542 3C050000 		.4byte	0x53c
 3412 0546 07       		.uleb128 0x7
 3413 0547 A3000000 		.4byte	0xa3
 3414 054b 56050000 		.4byte	0x556
 3415 054f 08       		.uleb128 0x8
 3416 0550 97000000 		.4byte	0x97
 3417 0554 08       		.byte	0x8
 3418 0555 00       		.byte	0
 3419 0556 05       		.uleb128 0x5
 3420 0557 46050000 		.4byte	0x546
 3421 055b 06       		.uleb128 0x6
 3422 055c 56050000 		.4byte	0x556
 3423 0560 05       		.uleb128 0x5
 3424 0561 AD000000 		.4byte	0xad
 3425 0565 06       		.uleb128 0x6
 3426 0566 60050000 		.4byte	0x560
 3427 056a 05       		.uleb128 0x5
 3428 056b BD000000 		.4byte	0xbd
 3429 056f 06       		.uleb128 0x6
 3430 0570 6A050000 		.4byte	0x56a
 3431 0574 05       		.uleb128 0x5
 3432 0575 0D010000 		.4byte	0x10d
 3433 0579 06       		.uleb128 0x6
 3434 057a 74050000 		.4byte	0x574
 3435 057e 05       		.uleb128 0x5
 3436 057f 0D010000 		.4byte	0x10d
 3437 0583 06       		.uleb128 0x6
 3438 0584 7E050000 		.4byte	0x57e
 3439 0588 05       		.uleb128 0x5
 3440 0589 BD000000 		.4byte	0xbd
 3441 058d 06       		.uleb128 0x6
 3442 058e 88050000 		.4byte	0x588
 3443 0592 05       		.uleb128 0x5
 3444 0593 ED000000 		.4byte	0xed
 3445 0597 06       		.uleb128 0x6
 3446 0598 92050000 		.4byte	0x592
 3447 059c 05       		.uleb128 0x5
 3448 059d ED000000 		.4byte	0xed
 3449 05a1 06       		.uleb128 0x6
 3450 05a2 9C050000 		.4byte	0x59c
 3451 05a6 07       		.uleb128 0x7
 3452 05a7 A3000000 		.4byte	0xa3
 3453 05ab B7050000 		.4byte	0x5b7
 3454 05af 0E       		.uleb128 0xe
 3455 05b0 97000000 		.4byte	0x97
 3456 05b4 5301     		.2byte	0x153
 3457 05b6 00       		.byte	0
 3458 05b7 05       		.uleb128 0x5
ARM GAS  C:\Users\ikomb\AppData\Local\Temp\cc5YtlHT.s 			page 113


 3459 05b8 A6050000 		.4byte	0x5a6
 3460 05bc 06       		.uleb128 0x6
 3461 05bd B7050000 		.4byte	0x5b7
 3462 05c1 05       		.uleb128 0x5
 3463 05c2 FD000000 		.4byte	0xfd
 3464 05c6 06       		.uleb128 0x6
 3465 05c7 C1050000 		.4byte	0x5c1
 3466 05cb 07       		.uleb128 0x7
 3467 05cc 62020000 		.4byte	0x262
 3468 05d0 DB050000 		.4byte	0x5db
 3469 05d4 08       		.uleb128 0x8
 3470 05d5 97000000 		.4byte	0x97
 3471 05d9 03       		.byte	0x3
 3472 05da 00       		.byte	0
 3473 05db 03       		.uleb128 0x3
 3474 05dc 2D0C0000 		.4byte	.LASF81
 3475 05e0 05       		.byte	0x5
 3476 05e1 72       		.byte	0x72
 3477 05e2 6D020000 		.4byte	0x26d
 3478 05e6 0F       		.uleb128 0xf
 3479 05e7 0E0C0000 		.4byte	.LASF82
 3480 05eb 06       		.byte	0x6
 3481 05ec C401     		.2byte	0x1c4
 3482 05ee F2050000 		.4byte	0x5f2
 3483 05f2 02       		.uleb128 0x2
 3484 05f3 01       		.byte	0x1
 3485 05f4 08       		.byte	0x8
 3486 05f5 43070000 		.4byte	.LASF83
 3487 05f9 02       		.uleb128 0x2
 3488 05fa 04       		.byte	0x4
 3489 05fb 04       		.byte	0x4
 3490 05fc F7030000 		.4byte	.LASF84
 3491 0600 02       		.uleb128 0x2
 3492 0601 08       		.byte	0x8
 3493 0602 04       		.byte	0x4
 3494 0603 F00E0000 		.4byte	.LASF85
 3495 0607 02       		.uleb128 0x2
 3496 0608 08       		.byte	0x8
 3497 0609 04       		.byte	0x4
 3498 060a 7A0A0000 		.4byte	.LASF86
 3499 060e 10       		.uleb128 0x10
 3500 060f 01       		.byte	0x1
 3501 0610 37000000 		.4byte	0x37
 3502 0614 02       		.byte	0x2
 3503 0615 A401     		.2byte	0x1a4
 3504 0617 34060000 		.4byte	0x634
 3505 061b 11       		.uleb128 0x11
 3506 061c 88010000 		.4byte	.LASF87
 3507 0620 00       		.byte	0
 3508 0621 11       		.uleb128 0x11
 3509 0622 E0020000 		.4byte	.LASF88
 3510 0626 01       		.byte	0x1
 3511 0627 11       		.uleb128 0x11
 3512 0628 B30D0000 		.4byte	.LASF89
 3513 062c 02       		.byte	0x2
 3514 062d 11       		.uleb128 0x11
 3515 062e 7F080000 		.4byte	.LASF90
ARM GAS  C:\Users\ikomb\AppData\Local\Temp\cc5YtlHT.s 			page 114


 3516 0632 03       		.byte	0x3
 3517 0633 00       		.byte	0
 3518 0634 0F       		.uleb128 0xf
 3519 0635 240E0000 		.4byte	.LASF91
 3520 0639 02       		.byte	0x2
 3521 063a A901     		.2byte	0x1a9
 3522 063c 0E060000 		.4byte	0x60e
 3523 0640 10       		.uleb128 0x10
 3524 0641 01       		.byte	0x1
 3525 0642 37000000 		.4byte	0x37
 3526 0646 02       		.byte	0x2
 3527 0647 B801     		.2byte	0x1b8
 3528 0649 66060000 		.4byte	0x666
 3529 064d 11       		.uleb128 0x11
 3530 064e F1010000 		.4byte	.LASF92
 3531 0652 00       		.byte	0
 3532 0653 11       		.uleb128 0x11
 3533 0654 F3020000 		.4byte	.LASF93
 3534 0658 01       		.byte	0x1
 3535 0659 11       		.uleb128 0x11
 3536 065a 0B020000 		.4byte	.LASF94
 3537 065e 02       		.byte	0x2
 3538 065f 11       		.uleb128 0x11
 3539 0660 1D020000 		.4byte	.LASF95
 3540 0664 03       		.byte	0x3
 3541 0665 00       		.byte	0
 3542 0666 0F       		.uleb128 0xf
 3543 0667 760E0000 		.4byte	.LASF96
 3544 066b 02       		.byte	0x2
 3545 066c CD01     		.2byte	0x1cd
 3546 066e 40060000 		.4byte	0x640
 3547 0672 10       		.uleb128 0x10
 3548 0673 01       		.byte	0x1
 3549 0674 37000000 		.4byte	0x37
 3550 0678 02       		.byte	0x2
 3551 0679 D801     		.2byte	0x1d8
 3552 067b B6060000 		.4byte	0x6b6
 3553 067f 11       		.uleb128 0x11
 3554 0680 A4080000 		.4byte	.LASF97
 3555 0684 00       		.byte	0
 3556 0685 11       		.uleb128 0x11
 3557 0686 9D010000 		.4byte	.LASF98
 3558 068a 01       		.byte	0x1
 3559 068b 11       		.uleb128 0x11
 3560 068c D4060000 		.4byte	.LASF99
 3561 0690 02       		.byte	0x2
 3562 0691 11       		.uleb128 0x11
 3563 0692 D3000000 		.4byte	.LASF100
 3564 0696 03       		.byte	0x3
 3565 0697 11       		.uleb128 0x11
 3566 0698 CD040000 		.4byte	.LASF101
 3567 069c 04       		.byte	0x4
 3568 069d 11       		.uleb128 0x11
 3569 069e 6C090000 		.4byte	.LASF102
 3570 06a2 05       		.byte	0x5
 3571 06a3 11       		.uleb128 0x11
 3572 06a4 5A090000 		.4byte	.LASF103
ARM GAS  C:\Users\ikomb\AppData\Local\Temp\cc5YtlHT.s 			page 115


 3573 06a8 06       		.byte	0x6
 3574 06a9 11       		.uleb128 0x11
 3575 06aa 9C020000 		.4byte	.LASF104
 3576 06ae 07       		.byte	0x7
 3577 06af 11       		.uleb128 0x11
 3578 06b0 690A0000 		.4byte	.LASF105
 3579 06b4 08       		.byte	0x8
 3580 06b5 00       		.byte	0
 3581 06b6 10       		.uleb128 0x10
 3582 06b7 04       		.byte	0x4
 3583 06b8 7A000000 		.4byte	0x7a
 3584 06bc 02       		.byte	0x2
 3585 06bd E701     		.2byte	0x1e7
 3586 06bf 1B070000 		.4byte	0x71b
 3587 06c3 11       		.uleb128 0x11
 3588 06c4 46000000 		.4byte	.LASF106
 3589 06c8 00       		.byte	0
 3590 06c9 12       		.uleb128 0x12
 3591 06ca 00000000 		.4byte	.LASF107
 3592 06ce 0100B200 		.4byte	0xb20001
 3593 06d2 12       		.uleb128 0x12
 3594 06d3 9A000000 		.4byte	.LASF108
 3595 06d7 0200B200 		.4byte	0xb20002
 3596 06db 12       		.uleb128 0x12
 3597 06dc 610C0000 		.4byte	.LASF109
 3598 06e0 0300B200 		.4byte	0xb20003
 3599 06e4 12       		.uleb128 0x12
 3600 06e5 7E090000 		.4byte	.LASF110
 3601 06e9 0400B200 		.4byte	0xb20004
 3602 06ed 12       		.uleb128 0x12
 3603 06ee C7050000 		.4byte	.LASF111
 3604 06f2 0500B200 		.4byte	0xb20005
 3605 06f6 12       		.uleb128 0x12
 3606 06f7 B8090000 		.4byte	.LASF112
 3607 06fb 0800B200 		.4byte	0xb20008
 3608 06ff 12       		.uleb128 0x12
 3609 0700 340F0000 		.4byte	.LASF113
 3610 0704 1000B200 		.4byte	0xb20010
 3611 0708 12       		.uleb128 0x12
 3612 0709 F5050000 		.4byte	.LASF114
 3613 070d 2000B200 		.4byte	0xb20020
 3614 0711 12       		.uleb128 0x12
 3615 0712 CE0B0000 		.4byte	.LASF115
 3616 0716 4000B200 		.4byte	0xb20040
 3617 071a 00       		.byte	0
 3618 071b 0F       		.uleb128 0xf
 3619 071c A6050000 		.4byte	.LASF116
 3620 0720 02       		.byte	0x2
 3621 0721 FF01     		.2byte	0x1ff
 3622 0723 B6060000 		.4byte	0x6b6
 3623 0727 10       		.uleb128 0x10
 3624 0728 01       		.byte	0x1
 3625 0729 37000000 		.4byte	0x37
 3626 072d 02       		.byte	0x2
 3627 072e 0502     		.2byte	0x205
 3628 0730 4D070000 		.4byte	0x74d
 3629 0734 11       		.uleb128 0x11
ARM GAS  C:\Users\ikomb\AppData\Local\Temp\cc5YtlHT.s 			page 116


 3630 0735 58060000 		.4byte	.LASF117
 3631 0739 01       		.byte	0x1
 3632 073a 11       		.uleb128 0x11
 3633 073b 6F060000 		.4byte	.LASF118
 3634 073f 02       		.byte	0x2
 3635 0740 11       		.uleb128 0x11
 3636 0741 86060000 		.4byte	.LASF119
 3637 0745 04       		.byte	0x4
 3638 0746 11       		.uleb128 0x11
 3639 0747 9D060000 		.4byte	.LASF120
 3640 074b 08       		.byte	0x8
 3641 074c 00       		.byte	0
 3642 074d 0F       		.uleb128 0xf
 3643 074e 7E0B0000 		.4byte	.LASF121
 3644 0752 02       		.byte	0x2
 3645 0753 0A02     		.2byte	0x20a
 3646 0755 27070000 		.4byte	0x727
 3647 0759 0F       		.uleb128 0xf
 3648 075a 1A030000 		.4byte	.LASF122
 3649 075e 02       		.byte	0x2
 3650 075f 2D02     		.2byte	0x22d
 3651 0761 65070000 		.4byte	0x765
 3652 0765 13       		.uleb128 0x13
 3653 0766 04       		.byte	0x4
 3654 0767 6B070000 		.4byte	0x76b
 3655 076b 14       		.uleb128 0x14
 3656 076c 76070000 		.4byte	0x776
 3657 0770 15       		.uleb128 0x15
 3658 0771 8C000000 		.4byte	0x8c
 3659 0775 00       		.byte	0
 3660 0776 16       		.uleb128 0x16
 3661 0777 28       		.byte	0x28
 3662 0778 02       		.byte	0x2
 3663 0779 4502     		.2byte	0x245
 3664 077b 02080000 		.4byte	0x802
 3665 077f 17       		.uleb128 0x17
 3666 0780 C3000000 		.4byte	.LASF123
 3667 0784 02       		.byte	0x2
 3668 0785 4702     		.2byte	0x247
 3669 0787 08080000 		.4byte	0x808
 3670 078b 00       		.byte	0
 3671 078c 17       		.uleb128 0x17
 3672 078d 0D060000 		.4byte	.LASF124
 3673 0791 02       		.byte	0x2
 3674 0792 4802     		.2byte	0x248
 3675 0794 8C000000 		.4byte	0x8c
 3676 0798 04       		.byte	0x4
 3677 0799 17       		.uleb128 0x17
 3678 079a 520B0000 		.4byte	.LASF125
 3679 079e 02       		.byte	0x2
 3680 079f 4C02     		.2byte	0x24c
 3681 07a1 9E000000 		.4byte	0x9e
 3682 07a5 08       		.byte	0x8
 3683 07a6 17       		.uleb128 0x17
 3684 07a7 91030000 		.4byte	.LASF126
 3685 07ab 02       		.byte	0x2
 3686 07ac 4D02     		.2byte	0x24d
ARM GAS  C:\Users\ikomb\AppData\Local\Temp\cc5YtlHT.s 			page 117


 3687 07ae 08080000 		.4byte	0x808
 3688 07b2 0C       		.byte	0xc
 3689 07b3 17       		.uleb128 0x17
 3690 07b4 90090000 		.4byte	.LASF127
 3691 07b8 02       		.byte	0x2
 3692 07b9 4E02     		.2byte	0x24e
 3693 07bb 8C000000 		.4byte	0x8c
 3694 07bf 10       		.byte	0x10
 3695 07c0 17       		.uleb128 0x17
 3696 07c1 8F0E0000 		.4byte	.LASF128
 3697 07c5 02       		.byte	0x2
 3698 07c6 5202     		.2byte	0x252
 3699 07c8 9E000000 		.4byte	0x9e
 3700 07cc 14       		.byte	0x14
 3701 07cd 17       		.uleb128 0x17
 3702 07ce AB0E0000 		.4byte	.LASF129
 3703 07d2 02       		.byte	0x2
 3704 07d3 5602     		.2byte	0x256
 3705 07d5 9E000000 		.4byte	0x9e
 3706 07d9 18       		.byte	0x18
 3707 07da 17       		.uleb128 0x17
 3708 07db 5D000000 		.4byte	.LASF130
 3709 07df 02       		.byte	0x2
 3710 07e0 5702     		.2byte	0x257
 3711 07e2 0D080000 		.4byte	0x80d
 3712 07e6 1C       		.byte	0x1c
 3713 07e7 17       		.uleb128 0x17
 3714 07e8 3E080000 		.4byte	.LASF131
 3715 07ec 02       		.byte	0x2
 3716 07ed 5802     		.2byte	0x258
 3717 07ef 0D080000 		.4byte	0x80d
 3718 07f3 20       		.byte	0x20
 3719 07f4 17       		.uleb128 0x17
 3720 07f5 AB0D0000 		.4byte	.LASF132
 3721 07f9 02       		.byte	0x2
 3722 07fa 5C02     		.2byte	0x25c
 3723 07fc 8C000000 		.4byte	0x8c
 3724 0800 24       		.byte	0x24
 3725 0801 00       		.byte	0
 3726 0802 13       		.uleb128 0x13
 3727 0803 04       		.byte	0x4
 3728 0804 A8000000 		.4byte	0xa8
 3729 0808 05       		.uleb128 0x5
 3730 0809 02080000 		.4byte	0x802
 3731 080d 05       		.uleb128 0x5
 3732 080e 59070000 		.4byte	0x759
 3733 0812 0F       		.uleb128 0xf
 3734 0813 540D0000 		.4byte	.LASF133
 3735 0817 02       		.byte	0x2
 3736 0818 5D02     		.2byte	0x25d
 3737 081a 76070000 		.4byte	0x776
 3738 081e 16       		.uleb128 0x16
 3739 081f 18       		.byte	0x18
 3740 0820 07       		.byte	0x7
 3741 0821 0601     		.2byte	0x106
 3742 0823 83080000 		.4byte	0x883
 3743 0827 17       		.uleb128 0x17
ARM GAS  C:\Users\ikomb\AppData\Local\Temp\cc5YtlHT.s 			page 118


 3744 0828 9D090000 		.4byte	.LASF134
 3745 082c 07       		.byte	0x7
 3746 082d 0801     		.2byte	0x108
 3747 082f 8C000000 		.4byte	0x8c
 3748 0833 00       		.byte	0
 3749 0834 17       		.uleb128 0x17
 3750 0835 5F070000 		.4byte	.LASF135
 3751 0839 07       		.byte	0x7
 3752 083a 0901     		.2byte	0x109
 3753 083c 34060000 		.4byte	0x634
 3754 0840 04       		.byte	0x4
 3755 0841 17       		.uleb128 0x17
 3756 0842 920A0000 		.4byte	.LASF136
 3757 0846 07       		.byte	0x7
 3758 0847 0A01     		.2byte	0x10a
 3759 0849 34060000 		.4byte	0x634
 3760 084d 05       		.byte	0x5
 3761 084e 17       		.uleb128 0x17
 3762 084f B6020000 		.4byte	.LASF137
 3763 0853 07       		.byte	0x7
 3764 0854 0B01     		.2byte	0x10b
 3765 0856 8C000000 		.4byte	0x8c
 3766 085a 08       		.byte	0x8
 3767 085b 17       		.uleb128 0x17
 3768 085c 50020000 		.4byte	.LASF138
 3769 0860 07       		.byte	0x7
 3770 0861 0C01     		.2byte	0x10c
 3771 0863 34060000 		.4byte	0x634
 3772 0867 0C       		.byte	0xc
 3773 0868 17       		.uleb128 0x17
 3774 0869 0F0A0000 		.4byte	.LASF139
 3775 086d 07       		.byte	0x7
 3776 086e 0D01     		.2byte	0x10d
 3777 0870 8C000000 		.4byte	0x8c
 3778 0874 10       		.byte	0x10
 3779 0875 17       		.uleb128 0x17
 3780 0876 F2060000 		.4byte	.LASF140
 3781 087a 07       		.byte	0x7
 3782 087b 0E01     		.2byte	0x10e
 3783 087d 34060000 		.4byte	0x634
 3784 0881 14       		.byte	0x14
 3785 0882 00       		.byte	0
 3786 0883 0F       		.uleb128 0xf
 3787 0884 3E0D0000 		.4byte	.LASF141
 3788 0888 07       		.byte	0x7
 3789 0889 0F01     		.2byte	0x10f
 3790 088b 1E080000 		.4byte	0x81e
 3791 088f 16       		.uleb128 0x16
 3792 0890 4C       		.byte	0x4c
 3793 0891 07       		.byte	0x7
 3794 0892 1901     		.2byte	0x119
 3795 0894 90090000 		.4byte	0x990
 3796 0898 17       		.uleb128 0x17
 3797 0899 8F040000 		.4byte	.LASF142
 3798 089d 07       		.byte	0x7
 3799 089e 1B01     		.2byte	0x11b
 3800 08a0 8C000000 		.4byte	0x8c
ARM GAS  C:\Users\ikomb\AppData\Local\Temp\cc5YtlHT.s 			page 119


 3801 08a4 00       		.byte	0
 3802 08a5 17       		.uleb128 0x17
 3803 08a6 03020000 		.4byte	.LASF143
 3804 08aa 07       		.byte	0x7
 3805 08ab 1D01     		.2byte	0x11d
 3806 08ad 8C000000 		.4byte	0x8c
 3807 08b1 04       		.byte	0x4
 3808 08b2 17       		.uleb128 0x17
 3809 08b3 500E0000 		.4byte	.LASF144
 3810 08b7 07       		.byte	0x7
 3811 08b8 1E01     		.2byte	0x11e
 3812 08ba 90090000 		.4byte	0x990
 3813 08be 08       		.byte	0x8
 3814 08bf 17       		.uleb128 0x17
 3815 08c0 5A0F0000 		.4byte	.LASF145
 3816 08c4 07       		.byte	0x7
 3817 08c5 1F01     		.2byte	0x11f
 3818 08c7 90090000 		.4byte	0x990
 3819 08cb 0C       		.byte	0xc
 3820 08cc 17       		.uleb128 0x17
 3821 08cd D0080000 		.4byte	.LASF146
 3822 08d1 07       		.byte	0x7
 3823 08d2 2001     		.2byte	0x120
 3824 08d4 90090000 		.4byte	0x990
 3825 08d8 10       		.byte	0x10
 3826 08d9 17       		.uleb128 0x17
 3827 08da 10080000 		.4byte	.LASF147
 3828 08de 07       		.byte	0x7
 3829 08df 2101     		.2byte	0x121
 3830 08e1 90090000 		.4byte	0x990
 3831 08e5 14       		.byte	0x14
 3832 08e6 17       		.uleb128 0x17
 3833 08e7 A5090000 		.4byte	.LASF148
 3834 08eb 07       		.byte	0x7
 3835 08ec 2201     		.2byte	0x122
 3836 08ee 8C000000 		.4byte	0x8c
 3837 08f2 18       		.byte	0x18
 3838 08f3 17       		.uleb128 0x17
 3839 08f4 BA050000 		.4byte	.LASF149
 3840 08f8 07       		.byte	0x7
 3841 08f9 2301     		.2byte	0x123
 3842 08fb 90090000 		.4byte	0x990
 3843 08ff 1C       		.byte	0x1c
 3844 0900 17       		.uleb128 0x17
 3845 0901 040A0000 		.4byte	.LASF150
 3846 0905 07       		.byte	0x7
 3847 0906 2401     		.2byte	0x124
 3848 0908 90090000 		.4byte	0x990
 3849 090c 20       		.byte	0x20
 3850 090d 17       		.uleb128 0x17
 3851 090e B8010000 		.4byte	.LASF151
 3852 0912 07       		.byte	0x7
 3853 0913 2501     		.2byte	0x125
 3854 0915 8C000000 		.4byte	0x8c
 3855 0919 24       		.byte	0x24
 3856 091a 17       		.uleb128 0x17
 3857 091b 68070000 		.4byte	.LASF152
ARM GAS  C:\Users\ikomb\AppData\Local\Temp\cc5YtlHT.s 			page 120


 3858 091f 07       		.byte	0x7
 3859 0920 2601     		.2byte	0x126
 3860 0922 90090000 		.4byte	0x990
 3861 0926 28       		.byte	0x28
 3862 0927 17       		.uleb128 0x17
 3863 0928 840F0000 		.4byte	.LASF153
 3864 092c 07       		.byte	0x7
 3865 092d 2701     		.2byte	0x127
 3866 092f 90090000 		.4byte	0x990
 3867 0933 2C       		.byte	0x2c
 3868 0934 17       		.uleb128 0x17
 3869 0935 BB020000 		.4byte	.LASF154
 3870 0939 07       		.byte	0x7
 3871 093a 2801     		.2byte	0x128
 3872 093c 90090000 		.4byte	0x990
 3873 0940 30       		.byte	0x30
 3874 0941 17       		.uleb128 0x17
 3875 0942 3C0E0000 		.4byte	.LASF155
 3876 0946 07       		.byte	0x7
 3877 0947 2901     		.2byte	0x129
 3878 0949 90090000 		.4byte	0x990
 3879 094d 34       		.byte	0x34
 3880 094e 17       		.uleb128 0x17
 3881 094f 3F090000 		.4byte	.LASF156
 3882 0953 07       		.byte	0x7
 3883 0954 2A01     		.2byte	0x12a
 3884 0956 8C000000 		.4byte	0x8c
 3885 095a 38       		.byte	0x38
 3886 095b 17       		.uleb128 0x17
 3887 095c 690B0000 		.4byte	.LASF157
 3888 0960 07       		.byte	0x7
 3889 0961 2B01     		.2byte	0x12b
 3890 0963 8C000000 		.4byte	0x8c
 3891 0967 3C       		.byte	0x3c
 3892 0968 17       		.uleb128 0x17
 3893 0969 58050000 		.4byte	.LASF158
 3894 096d 07       		.byte	0x7
 3895 096e 2C01     		.2byte	0x12c
 3896 0970 8C000000 		.4byte	0x8c
 3897 0974 40       		.byte	0x40
 3898 0975 17       		.uleb128 0x17
 3899 0976 2D030000 		.4byte	.LASF159
 3900 097a 07       		.byte	0x7
 3901 097b 2D01     		.2byte	0x12d
 3902 097d 8C000000 		.4byte	0x8c
 3903 0981 44       		.byte	0x44
 3904 0982 17       		.uleb128 0x17
 3905 0983 6A0E0000 		.4byte	.LASF160
 3906 0987 07       		.byte	0x7
 3907 0988 2E01     		.2byte	0x12e
 3908 098a 8C000000 		.4byte	0x8c
 3909 098e 48       		.byte	0x48
 3910 098f 00       		.byte	0
 3911 0990 13       		.uleb128 0x13
 3912 0991 04       		.byte	0x4
 3913 0992 83080000 		.4byte	0x883
 3914 0996 0F       		.uleb128 0xf
ARM GAS  C:\Users\ikomb\AppData\Local\Temp\cc5YtlHT.s 			page 121


 3915 0997 1F000000 		.4byte	.LASF161
 3916 099b 07       		.byte	0x7
 3917 099c 2F01     		.2byte	0x12f
 3918 099e 8F080000 		.4byte	0x88f
 3919 09a2 16       		.uleb128 0x16
 3920 09a3 1C       		.byte	0x1c
 3921 09a4 07       		.byte	0x7
 3922 09a5 3801     		.2byte	0x138
 3923 09a7 070A0000 		.4byte	0xa07
 3924 09ab 17       		.uleb128 0x17
 3925 09ac F3080000 		.4byte	.LASF162
 3926 09b0 07       		.byte	0x7
 3927 09b1 3B01     		.2byte	0x13b
 3928 09b3 4D070000 		.4byte	0x74d
 3929 09b7 00       		.byte	0
 3930 09b8 17       		.uleb128 0x17
 3931 09b9 E5000000 		.4byte	.LASF163
 3932 09bd 07       		.byte	0x7
 3933 09be 3F01     		.2byte	0x13f
 3934 09c0 8C000000 		.4byte	0x8c
 3935 09c4 04       		.byte	0x4
 3936 09c5 17       		.uleb128 0x17
 3937 09c6 650F0000 		.4byte	.LASF164
 3938 09ca 07       		.byte	0x7
 3939 09cb 4101     		.2byte	0x141
 3940 09cd 66060000 		.4byte	0x666
 3941 09d1 08       		.byte	0x8
 3942 09d2 17       		.uleb128 0x17
 3943 09d3 780F0000 		.4byte	.LASF165
 3944 09d7 07       		.byte	0x7
 3945 09d8 4801     		.2byte	0x148
 3946 09da 8C000000 		.4byte	0x8c
 3947 09de 0C       		.byte	0xc
 3948 09df 17       		.uleb128 0x17
 3949 09e0 4C0F0000 		.4byte	.LASF166
 3950 09e4 07       		.byte	0x7
 3951 09e5 4E01     		.2byte	0x14e
 3952 09e7 8C000000 		.4byte	0x8c
 3953 09eb 10       		.byte	0x10
 3954 09ec 17       		.uleb128 0x17
 3955 09ed 2F020000 		.4byte	.LASF167
 3956 09f1 07       		.byte	0x7
 3957 09f2 5101     		.2byte	0x151
 3958 09f4 8C000000 		.4byte	0x8c
 3959 09f8 14       		.byte	0x14
 3960 09f9 17       		.uleb128 0x17
 3961 09fa 580E0000 		.4byte	.LASF168
 3962 09fe 07       		.byte	0x7
 3963 09ff 5201     		.2byte	0x152
 3964 0a01 070A0000 		.4byte	0xa07
 3965 0a05 18       		.byte	0x18
 3966 0a06 00       		.byte	0
 3967 0a07 13       		.uleb128 0x13
 3968 0a08 04       		.byte	0x4
 3969 0a09 96090000 		.4byte	0x996
 3970 0a0d 0F       		.uleb128 0xf
 3971 0a0e 7C0D0000 		.4byte	.LASF169
ARM GAS  C:\Users\ikomb\AppData\Local\Temp\cc5YtlHT.s 			page 122


 3972 0a12 07       		.byte	0x7
 3973 0a13 5301     		.2byte	0x153
 3974 0a15 A2090000 		.4byte	0x9a2
 3975 0a19 16       		.uleb128 0x16
 3976 0a1a 10       		.byte	0x10
 3977 0a1b 07       		.byte	0x7
 3978 0a1c 5C01     		.2byte	0x15c
 3979 0a1e 570A0000 		.4byte	0xa57
 3980 0a22 17       		.uleb128 0x17
 3981 0a23 C10C0000 		.4byte	.LASF170
 3982 0a27 07       		.byte	0x7
 3983 0a28 5E01     		.2byte	0x15e
 3984 0a2a 8C000000 		.4byte	0x8c
 3985 0a2e 00       		.byte	0
 3986 0a2f 17       		.uleb128 0x17
 3987 0a30 F2090000 		.4byte	.LASF171
 3988 0a34 07       		.byte	0x7
 3989 0a35 5F01     		.2byte	0x15f
 3990 0a37 570A0000 		.4byte	0xa57
 3991 0a3b 04       		.byte	0x4
 3992 0a3c 17       		.uleb128 0x17
 3993 0a3d 010C0000 		.4byte	.LASF172
 3994 0a41 07       		.byte	0x7
 3995 0a42 6001     		.2byte	0x160
 3996 0a44 8C000000 		.4byte	0x8c
 3997 0a48 08       		.byte	0x8
 3998 0a49 17       		.uleb128 0x17
 3999 0a4a 01050000 		.4byte	.LASF173
 4000 0a4e 07       		.byte	0x7
 4001 0a4f 6101     		.2byte	0x161
 4002 0a51 8C000000 		.4byte	0x8c
 4003 0a55 0C       		.byte	0xc
 4004 0a56 00       		.byte	0
 4005 0a57 13       		.uleb128 0x13
 4006 0a58 04       		.byte	0x4
 4007 0a59 5D0A0000 		.4byte	0xa5d
 4008 0a5d 13       		.uleb128 0x13
 4009 0a5e 04       		.byte	0x4
 4010 0a5f 0D0A0000 		.4byte	0xa0d
 4011 0a63 0F       		.uleb128 0xf
 4012 0a64 9A0C0000 		.4byte	.LASF174
 4013 0a68 07       		.byte	0x7
 4014 0a69 6201     		.2byte	0x162
 4015 0a6b 190A0000 		.4byte	0xa19
 4016 0a6f 18       		.uleb128 0x18
 4017 0a70 3D020000 		.4byte	.LASF175
 4018 0a74 02       		.byte	0x2
 4019 0a75 5005     		.2byte	0x550
 4020 0a77 1B070000 		.4byte	0x71b
 4021 0a7b 03       		.byte	0x3
 4022 0a7c 990A0000 		.4byte	0xa99
 4023 0a80 19       		.uleb128 0x19
 4024 0a81 50080000 		.4byte	.LASF177
 4025 0a85 02       		.byte	0x2
 4026 0a86 5005     		.2byte	0x550
 4027 0a88 990A0000 		.4byte	0xa99
 4028 0a8c 1A       		.uleb128 0x1a
ARM GAS  C:\Users\ikomb\AppData\Local\Temp\cc5YtlHT.s 			page 123


 4029 0a8d 5D080000 		.4byte	.LASF180
 4030 0a91 02       		.byte	0x2
 4031 0a92 5205     		.2byte	0x552
 4032 0a94 1B070000 		.4byte	0x71b
 4033 0a98 00       		.byte	0
 4034 0a99 13       		.uleb128 0x13
 4035 0a9a 04       		.byte	0x4
 4036 0a9b 8C000000 		.4byte	0x8c
 4037 0a9f 18       		.uleb128 0x18
 4038 0aa0 07090000 		.4byte	.LASF176
 4039 0aa4 02       		.byte	0x2
 4040 0aa5 0E05     		.2byte	0x50e
 4041 0aa7 8C000000 		.4byte	0x8c
 4042 0aab 03       		.byte	0x3
 4043 0aac D50A0000 		.4byte	0xad5
 4044 0ab0 19       		.uleb128 0x19
 4045 0ab1 A1050000 		.4byte	.LASF178
 4046 0ab5 02       		.byte	0x2
 4047 0ab6 0E05     		.2byte	0x50e
 4048 0ab8 D50A0000 		.4byte	0xad5
 4049 0abc 19       		.uleb128 0x19
 4050 0abd 22070000 		.4byte	.LASF179
 4051 0ac1 02       		.byte	0x2
 4052 0ac2 0E05     		.2byte	0x50e
 4053 0ac4 E00A0000 		.4byte	0xae0
 4054 0ac8 1A       		.uleb128 0x1a
 4055 0ac9 AF040000 		.4byte	.LASF181
 4056 0acd 02       		.byte	0x2
 4057 0ace 1005     		.2byte	0x510
 4058 0ad0 8C000000 		.4byte	0x8c
 4059 0ad4 00       		.byte	0
 4060 0ad5 13       		.uleb128 0x13
 4061 0ad6 04       		.byte	0x4
 4062 0ad7 DB0A0000 		.4byte	0xadb
 4063 0adb 06       		.uleb128 0x6
 4064 0adc 81000000 		.4byte	0x81
 4065 0ae0 02       		.uleb128 0x2
 4066 0ae1 01       		.byte	0x1
 4067 0ae2 02       		.byte	0x2
 4068 0ae3 31060000 		.4byte	.LASF182
 4069 0ae7 18       		.uleb128 0x18
 4070 0ae8 1E090000 		.4byte	.LASF183
 4071 0aec 02       		.byte	0x2
 4072 0aed 6F05     		.2byte	0x56f
 4073 0aef 1D0B0000 		.4byte	0xb1d
 4074 0af3 03       		.byte	0x3
 4075 0af4 1D0B0000 		.4byte	0xb1d
 4076 0af8 19       		.uleb128 0x19
 4077 0af9 9E040000 		.4byte	.LASF184
 4078 0afd 02       		.byte	0x2
 4079 0afe 6F05     		.2byte	0x56f
 4080 0b00 280B0000 		.4byte	0xb28
 4081 0b04 19       		.uleb128 0x19
 4082 0b05 F3080000 		.4byte	.LASF162
 4083 0b09 02       		.byte	0x2
 4084 0b0a 7005     		.2byte	0x570
 4085 0b0c 4D070000 		.4byte	0x74d
ARM GAS  C:\Users\ikomb\AppData\Local\Temp\cc5YtlHT.s 			page 124


 4086 0b10 1A       		.uleb128 0x1a
 4087 0b11 CA030000 		.4byte	.LASF185
 4088 0b15 02       		.byte	0x2
 4089 0b16 7205     		.2byte	0x572
 4090 0b18 1D0B0000 		.4byte	0xb1d
 4091 0b1c 00       		.byte	0
 4092 0b1d 13       		.uleb128 0x13
 4093 0b1e 04       		.byte	0x4
 4094 0b1f 230B0000 		.4byte	0xb23
 4095 0b23 05       		.uleb128 0x5
 4096 0b24 62020000 		.4byte	0x262
 4097 0b28 13       		.uleb128 0x13
 4098 0b29 04       		.byte	0x4
 4099 0b2a DB050000 		.4byte	0x5db
 4100 0b2e 1B       		.uleb128 0x1b
 4101 0b2f 260A0000 		.4byte	.LASF259
 4102 0b33 01       		.byte	0x1
 4103 0b34 A7       		.byte	0xa7
 4104 0b35 00000000 		.4byte	.LFB90
 4105 0b39 10010000 		.4byte	.LFE90-.LFB90
 4106 0b3d 01       		.uleb128 0x1
 4107 0b3e 9C       		.byte	0x9c
 4108 0b3f 8D0B0000 		.4byte	0xb8d
 4109 0b43 1C       		.uleb128 0x1c
 4110 0b44 64657600 		.ascii	"dev\000"
 4111 0b48 01       		.byte	0x1
 4112 0b49 A7       		.byte	0xa7
 4113 0b4a 1D0B0000 		.4byte	0xb1d
 4114 0b4e 01       		.uleb128 0x1
 4115 0b4f 50       		.byte	0x50
 4116 0b50 1D       		.uleb128 0x1d
 4117 0b51 4E090000 		.4byte	.LASF186
 4118 0b55 01       		.byte	0x1
 4119 0b56 A8       		.byte	0xa8
 4120 0b57 8D0B0000 		.4byte	0xb8d
 4121 0b5b 00000000 		.4byte	.LLST0
 4122 0b5f 1E       		.uleb128 0x1e
 4123 0b60 56000000 		.4byte	.LASF187
 4124 0b64 01       		.byte	0x1
 4125 0b65 AA       		.byte	0xaa
 4126 0b66 980B0000 		.4byte	0xb98
 4127 0b6a 21000000 		.4byte	.LLST1
 4128 0b6e 1E       		.uleb128 0x1e
 4129 0b6f 880C0000 		.4byte	.LASF188
 4130 0b73 01       		.byte	0x1
 4131 0b74 AB       		.byte	0xab
 4132 0b75 A30B0000 		.4byte	0xba3
 4133 0b79 34000000 		.4byte	.LLST2
 4134 0b7d 1E       		.uleb128 0x1e
 4135 0b7e D30C0000 		.4byte	.LASF189
 4136 0b82 01       		.byte	0x1
 4137 0b83 AC       		.byte	0xac
 4138 0b84 A30B0000 		.4byte	0xba3
 4139 0b88 52000000 		.4byte	.LLST3
 4140 0b8c 00       		.byte	0
 4141 0b8d 13       		.uleb128 0x13
 4142 0b8e 04       		.byte	0x4
ARM GAS  C:\Users\ikomb\AppData\Local\Temp\cc5YtlHT.s 			page 125


 4143 0b8f 930B0000 		.4byte	0xb93
 4144 0b93 06       		.uleb128 0x6
 4145 0b94 0D0A0000 		.4byte	0xa0d
 4146 0b98 13       		.uleb128 0x13
 4147 0b99 04       		.byte	0x4
 4148 0b9a 9E0B0000 		.4byte	0xb9e
 4149 0b9e 06       		.uleb128 0x6
 4150 0b9f 96090000 		.4byte	0x996
 4151 0ba3 13       		.uleb128 0x13
 4152 0ba4 04       		.byte	0x4
 4153 0ba5 A90B0000 		.4byte	0xba9
 4154 0ba9 06       		.uleb128 0x6
 4155 0baa 83080000 		.4byte	0x883
 4156 0bae 1F       		.uleb128 0x1f
 4157 0baf 490A0000 		.4byte	.LASF260
 4158 0bb3 01       		.byte	0x1
 4159 0bb4 EC       		.byte	0xec
 4160 0bb5 00000000 		.4byte	.LFB91
 4161 0bb9 98000000 		.4byte	.LFE91-.LFB91
 4162 0bbd 01       		.uleb128 0x1
 4163 0bbe 9C       		.byte	0x9c
 4164 0bbf E00B0000 		.4byte	0xbe0
 4165 0bc3 20       		.uleb128 0x20
 4166 0bc4 9E040000 		.4byte	.LASF184
 4167 0bc8 01       		.byte	0x1
 4168 0bc9 EC       		.byte	0xec
 4169 0bca 280B0000 		.4byte	0xb28
 4170 0bce 01       		.uleb128 0x1
 4171 0bcf 50       		.byte	0x50
 4172 0bd0 1E       		.uleb128 0x1e
 4173 0bd1 E6030000 		.4byte	.LASF190
 4174 0bd5 01       		.byte	0x1
 4175 0bd6 EF       		.byte	0xef
 4176 0bd7 8C000000 		.4byte	0x8c
 4177 0bdb 65000000 		.4byte	.LLST4
 4178 0bdf 00       		.byte	0
 4179 0be0 21       		.uleb128 0x21
 4180 0be1 C4010000 		.4byte	.LASF194
 4181 0be5 01       		.byte	0x1
 4182 0be6 2001     		.2byte	0x120
 4183 0be8 1B070000 		.4byte	0x71b
 4184 0bec 00000000 		.4byte	.LFB92
 4185 0bf0 40000000 		.4byte	.LFE92-.LFB92
 4186 0bf4 01       		.uleb128 0x1
 4187 0bf5 9C       		.byte	0x9c
 4188 0bf6 870C0000 		.4byte	0xc87
 4189 0bfa 22       		.uleb128 0x22
 4190 0bfb 9E040000 		.4byte	.LASF184
 4191 0bff 01       		.byte	0x1
 4192 0c00 2001     		.2byte	0x120
 4193 0c02 280B0000 		.4byte	0xb28
 4194 0c06 84000000 		.4byte	.LLST5
 4195 0c0a 22       		.uleb128 0x22
 4196 0c0b 3C000000 		.4byte	.LASF191
 4197 0c0f 01       		.byte	0x1
 4198 0c10 2101     		.2byte	0x121
 4199 0c12 8D0B0000 		.4byte	0xb8d
ARM GAS  C:\Users\ikomb\AppData\Local\Temp\cc5YtlHT.s 			page 126


 4200 0c16 B0000000 		.4byte	.LLST6
 4201 0c1a 22       		.uleb128 0x22
 4202 0c1b FF080000 		.4byte	.LASF192
 4203 0c1f 01       		.byte	0x1
 4204 0c20 2201     		.2byte	0x122
 4205 0c22 870C0000 		.4byte	0xc87
 4206 0c26 DC000000 		.4byte	.LLST7
 4207 0c2a 23       		.uleb128 0x23
 4208 0c2b 620E0000 		.4byte	.LASF193
 4209 0c2f 01       		.byte	0x1
 4210 0c30 2501     		.2byte	0x125
 4211 0c32 90090000 		.4byte	0x990
 4212 0c36 08010000 		.4byte	.LLST8
 4213 0c3a 24       		.uleb128 0x24
 4214 0c3b 1C000000 		.4byte	.LVL18
 4215 0c3f D71B0000 		.4byte	0x1bd7
 4216 0c43 580C0000 		.4byte	0xc58
 4217 0c47 25       		.uleb128 0x25
 4218 0c48 01       		.uleb128 0x1
 4219 0c49 50       		.byte	0x50
 4220 0c4a 05       		.uleb128 0x5
 4221 0c4b 03       		.byte	0x3
 4222 0c4c 00000000 		.4byte	.LC0
 4223 0c50 25       		.uleb128 0x25
 4224 0c51 01       		.uleb128 0x1
 4225 0c52 51       		.byte	0x51
 4226 0c53 03       		.uleb128 0x3
 4227 0c54 0A       		.byte	0xa
 4228 0c55 2701     		.2byte	0x127
 4229 0c57 00       		.byte	0
 4230 0c58 26       		.uleb128 0x26
 4231 0c59 36000000 		.4byte	.LVL19
 4232 0c5d E31B0000 		.4byte	0x1be3
 4233 0c61 25       		.uleb128 0x25
 4234 0c62 01       		.uleb128 0x1
 4235 0c63 50       		.byte	0x50
 4236 0c64 02       		.uleb128 0x2
 4237 0c65 76       		.byte	0x76
 4238 0c66 00       		.sleb128 0
 4239 0c67 25       		.uleb128 0x25
 4240 0c68 01       		.uleb128 0x1
 4241 0c69 53       		.byte	0x53
 4242 0c6a 01       		.uleb128 0x1
 4243 0c6b 30       		.byte	0x30
 4244 0c6c 25       		.uleb128 0x25
 4245 0c6d 02       		.uleb128 0x2
 4246 0c6e 7D       		.byte	0x7d
 4247 0c6f 00       		.sleb128 0
 4248 0c70 01       		.uleb128 0x1
 4249 0c71 30       		.byte	0x30
 4250 0c72 25       		.uleb128 0x25
 4251 0c73 02       		.uleb128 0x2
 4252 0c74 7D       		.byte	0x7d
 4253 0c75 04       		.sleb128 4
 4254 0c76 01       		.uleb128 0x1
 4255 0c77 30       		.byte	0x30
 4256 0c78 25       		.uleb128 0x25
ARM GAS  C:\Users\ikomb\AppData\Local\Temp\cc5YtlHT.s 			page 127


 4257 0c79 02       		.uleb128 0x2
 4258 0c7a 7D       		.byte	0x7d
 4259 0c7b 0C       		.sleb128 12
 4260 0c7c 01       		.uleb128 0x1
 4261 0c7d 31       		.byte	0x31
 4262 0c7e 25       		.uleb128 0x25
 4263 0c7f 02       		.uleb128 0x2
 4264 0c80 7D       		.byte	0x7d
 4265 0c81 10       		.sleb128 16
 4266 0c82 02       		.uleb128 0x2
 4267 0c83 77       		.byte	0x77
 4268 0c84 00       		.sleb128 0
 4269 0c85 00       		.byte	0
 4270 0c86 00       		.byte	0
 4271 0c87 13       		.uleb128 0x13
 4272 0c88 04       		.byte	0x4
 4273 0c89 8D0C0000 		.4byte	0xc8d
 4274 0c8d 06       		.uleb128 0x6
 4275 0c8e 12080000 		.4byte	0x812
 4276 0c92 21       		.uleb128 0x21
 4277 0c93 B4060000 		.4byte	.LASF195
 4278 0c97 01       		.byte	0x1
 4279 0c98 4C01     		.2byte	0x14c
 4280 0c9a 1B070000 		.4byte	0x71b
 4281 0c9e 00000000 		.4byte	.LFB93
 4282 0ca2 40000000 		.4byte	.LFE93-.LFB93
 4283 0ca6 01       		.uleb128 0x1
 4284 0ca7 9C       		.byte	0x9c
 4285 0ca8 390D0000 		.4byte	0xd39
 4286 0cac 22       		.uleb128 0x22
 4287 0cad 9E040000 		.4byte	.LASF184
 4288 0cb1 01       		.byte	0x1
 4289 0cb2 4C01     		.2byte	0x14c
 4290 0cb4 280B0000 		.4byte	0xb28
 4291 0cb8 1B010000 		.4byte	.LLST9
 4292 0cbc 22       		.uleb128 0x22
 4293 0cbd 3C000000 		.4byte	.LASF191
 4294 0cc1 01       		.byte	0x1
 4295 0cc2 4D01     		.2byte	0x14d
 4296 0cc4 8D0B0000 		.4byte	0xb8d
 4297 0cc8 47010000 		.4byte	.LLST10
 4298 0ccc 22       		.uleb128 0x22
 4299 0ccd FF080000 		.4byte	.LASF192
 4300 0cd1 01       		.byte	0x1
 4301 0cd2 4E01     		.2byte	0x14e
 4302 0cd4 870C0000 		.4byte	0xc87
 4303 0cd8 73010000 		.4byte	.LLST11
 4304 0cdc 23       		.uleb128 0x23
 4305 0cdd AF090000 		.4byte	.LASF196
 4306 0ce1 01       		.byte	0x1
 4307 0ce2 5001     		.2byte	0x150
 4308 0ce4 90090000 		.4byte	0x990
 4309 0ce8 9F010000 		.4byte	.LLST12
 4310 0cec 24       		.uleb128 0x24
 4311 0ced 1C000000 		.4byte	.LVL28
 4312 0cf1 D71B0000 		.4byte	0x1bd7
 4313 0cf5 0A0D0000 		.4byte	0xd0a
ARM GAS  C:\Users\ikomb\AppData\Local\Temp\cc5YtlHT.s 			page 128


 4314 0cf9 25       		.uleb128 0x25
 4315 0cfa 01       		.uleb128 0x1
 4316 0cfb 50       		.byte	0x50
 4317 0cfc 05       		.uleb128 0x5
 4318 0cfd 03       		.byte	0x3
 4319 0cfe 00000000 		.4byte	.LC0
 4320 0d02 25       		.uleb128 0x25
 4321 0d03 01       		.uleb128 0x1
 4322 0d04 51       		.byte	0x51
 4323 0d05 03       		.uleb128 0x3
 4324 0d06 0A       		.byte	0xa
 4325 0d07 5201     		.2byte	0x152
 4326 0d09 00       		.byte	0
 4327 0d0a 26       		.uleb128 0x26
 4328 0d0b 36000000 		.4byte	.LVL29
 4329 0d0f E31B0000 		.4byte	0x1be3
 4330 0d13 25       		.uleb128 0x25
 4331 0d14 01       		.uleb128 0x1
 4332 0d15 50       		.byte	0x50
 4333 0d16 02       		.uleb128 0x2
 4334 0d17 76       		.byte	0x76
 4335 0d18 00       		.sleb128 0
 4336 0d19 25       		.uleb128 0x25
 4337 0d1a 01       		.uleb128 0x1
 4338 0d1b 53       		.byte	0x53
 4339 0d1c 01       		.uleb128 0x1
 4340 0d1d 30       		.byte	0x30
 4341 0d1e 25       		.uleb128 0x25
 4342 0d1f 02       		.uleb128 0x2
 4343 0d20 7D       		.byte	0x7d
 4344 0d21 00       		.sleb128 0
 4345 0d22 01       		.uleb128 0x1
 4346 0d23 30       		.byte	0x30
 4347 0d24 25       		.uleb128 0x25
 4348 0d25 02       		.uleb128 0x2
 4349 0d26 7D       		.byte	0x7d
 4350 0d27 04       		.sleb128 4
 4351 0d28 01       		.uleb128 0x1
 4352 0d29 30       		.byte	0x30
 4353 0d2a 25       		.uleb128 0x25
 4354 0d2b 02       		.uleb128 0x2
 4355 0d2c 7D       		.byte	0x7d
 4356 0d2d 0C       		.sleb128 12
 4357 0d2e 01       		.uleb128 0x1
 4358 0d2f 31       		.byte	0x31
 4359 0d30 25       		.uleb128 0x25
 4360 0d31 02       		.uleb128 0x2
 4361 0d32 7D       		.byte	0x7d
 4362 0d33 10       		.sleb128 16
 4363 0d34 02       		.uleb128 0x2
 4364 0d35 77       		.byte	0x77
 4365 0d36 00       		.sleb128 0
 4366 0d37 00       		.byte	0
 4367 0d38 00       		.byte	0
 4368 0d39 21       		.uleb128 0x21
 4369 0d3a EB000000 		.4byte	.LASF197
 4370 0d3e 01       		.byte	0x1
ARM GAS  C:\Users\ikomb\AppData\Local\Temp\cc5YtlHT.s 			page 129


 4371 0d3f 0F02     		.2byte	0x20f
 4372 0d41 1B070000 		.4byte	0x71b
 4373 0d45 00000000 		.4byte	.LFB96
 4374 0d49 3C000000 		.4byte	.LFE96-.LFB96
 4375 0d4d 01       		.uleb128 0x1
 4376 0d4e 9C       		.byte	0x9c
 4377 0d4f 130E0000 		.4byte	0xe13
 4378 0d53 22       		.uleb128 0x22
 4379 0d54 9E040000 		.4byte	.LASF184
 4380 0d58 01       		.byte	0x1
 4381 0d59 0F02     		.2byte	0x20f
 4382 0d5b 280B0000 		.4byte	0xb28
 4383 0d5f B2010000 		.4byte	.LLST13
 4384 0d63 22       		.uleb128 0x22
 4385 0d64 3C000000 		.4byte	.LASF191
 4386 0d68 01       		.byte	0x1
 4387 0d69 1002     		.2byte	0x210
 4388 0d6b 8D0B0000 		.4byte	0xb8d
 4389 0d6f DE010000 		.4byte	.LLST14
 4390 0d73 22       		.uleb128 0x22
 4391 0d74 5D080000 		.4byte	.LASF180
 4392 0d78 01       		.byte	0x1
 4393 0d79 1102     		.2byte	0x211
 4394 0d7b 130E0000 		.4byte	0xe13
 4395 0d7f FF010000 		.4byte	.LLST15
 4396 0d83 22       		.uleb128 0x22
 4397 0d84 9D090000 		.4byte	.LASF134
 4398 0d88 01       		.byte	0x1
 4399 0d89 1202     		.2byte	0x212
 4400 0d8b 81000000 		.4byte	0x81
 4401 0d8f 2B020000 		.4byte	.LLST16
 4402 0d93 27       		.uleb128 0x27
 4403 0d94 FF080000 		.4byte	.LASF192
 4404 0d98 01       		.byte	0x1
 4405 0d99 1302     		.2byte	0x213
 4406 0d9b 870C0000 		.4byte	0xc87
 4407 0d9f 02       		.uleb128 0x2
 4408 0da0 91       		.byte	0x91
 4409 0da1 00       		.sleb128 0
 4410 0da2 23       		.uleb128 0x23
 4411 0da3 AF040000 		.4byte	.LASF181
 4412 0da7 01       		.byte	0x1
 4413 0da8 1502     		.2byte	0x215
 4414 0daa 1B070000 		.4byte	0x71b
 4415 0dae 4C020000 		.4byte	.LLST17
 4416 0db2 24       		.uleb128 0x24
 4417 0db3 24000000 		.4byte	.LVL39
 4418 0db7 E31B0000 		.4byte	0x1be3
 4419 0dbb EA0D0000 		.4byte	0xdea
 4420 0dbf 25       		.uleb128 0x25
 4421 0dc0 01       		.uleb128 0x1
 4422 0dc1 50       		.byte	0x50
 4423 0dc2 02       		.uleb128 0x2
 4424 0dc3 74       		.byte	0x74
 4425 0dc4 00       		.sleb128 0
 4426 0dc5 25       		.uleb128 0x25
 4427 0dc6 01       		.uleb128 0x1
ARM GAS  C:\Users\ikomb\AppData\Local\Temp\cc5YtlHT.s 			page 130


 4428 0dc7 52       		.byte	0x52
 4429 0dc8 01       		.uleb128 0x1
 4430 0dc9 30       		.byte	0x30
 4431 0dca 25       		.uleb128 0x25
 4432 0dcb 01       		.uleb128 0x1
 4433 0dcc 53       		.byte	0x53
 4434 0dcd 01       		.uleb128 0x1
 4435 0dce 30       		.byte	0x30
 4436 0dcf 25       		.uleb128 0x25
 4437 0dd0 02       		.uleb128 0x2
 4438 0dd1 7D       		.byte	0x7d
 4439 0dd2 00       		.sleb128 0
 4440 0dd3 01       		.uleb128 0x1
 4441 0dd4 30       		.byte	0x30
 4442 0dd5 25       		.uleb128 0x25
 4443 0dd6 02       		.uleb128 0x2
 4444 0dd7 7D       		.byte	0x7d
 4445 0dd8 04       		.sleb128 4
 4446 0dd9 01       		.uleb128 0x1
 4447 0dda 30       		.byte	0x30
 4448 0ddb 25       		.uleb128 0x25
 4449 0ddc 02       		.uleb128 0x2
 4450 0ddd 7D       		.byte	0x7d
 4451 0dde 0C       		.sleb128 12
 4452 0ddf 01       		.uleb128 0x1
 4453 0de0 30       		.byte	0x30
 4454 0de1 25       		.uleb128 0x25
 4455 0de2 02       		.uleb128 0x2
 4456 0de3 7D       		.byte	0x7d
 4457 0de4 10       		.sleb128 16
 4458 0de5 03       		.uleb128 0x3
 4459 0de6 91       		.byte	0x91
 4460 0de7 00       		.sleb128 0
 4461 0de8 06       		.byte	0x6
 4462 0de9 00       		.byte	0
 4463 0dea 26       		.uleb128 0x26
 4464 0deb 38000000 		.4byte	.LVL41
 4465 0def EF1B0000 		.4byte	0x1bef
 4466 0df3 25       		.uleb128 0x25
 4467 0df4 01       		.uleb128 0x1
 4468 0df5 50       		.byte	0x50
 4469 0df6 02       		.uleb128 0x2
 4470 0df7 74       		.byte	0x74
 4471 0df8 00       		.sleb128 0
 4472 0df9 25       		.uleb128 0x25
 4473 0dfa 01       		.uleb128 0x1
 4474 0dfb 51       		.byte	0x51
 4475 0dfc 02       		.uleb128 0x2
 4476 0dfd 75       		.byte	0x75
 4477 0dfe 00       		.sleb128 0
 4478 0dff 25       		.uleb128 0x25
 4479 0e00 01       		.uleb128 0x1
 4480 0e01 52       		.byte	0x52
 4481 0e02 01       		.uleb128 0x1
 4482 0e03 31       		.byte	0x31
 4483 0e04 25       		.uleb128 0x25
 4484 0e05 01       		.uleb128 0x1
ARM GAS  C:\Users\ikomb\AppData\Local\Temp\cc5YtlHT.s 			page 131


 4485 0e06 53       		.byte	0x53
 4486 0e07 01       		.uleb128 0x1
 4487 0e08 30       		.byte	0x30
 4488 0e09 25       		.uleb128 0x25
 4489 0e0a 02       		.uleb128 0x2
 4490 0e0b 7D       		.byte	0x7d
 4491 0e0c 00       		.sleb128 0
 4492 0e0d 03       		.uleb128 0x3
 4493 0e0e 91       		.byte	0x91
 4494 0e0f 00       		.sleb128 0
 4495 0e10 06       		.byte	0x6
 4496 0e11 00       		.byte	0
 4497 0e12 00       		.byte	0
 4498 0e13 13       		.uleb128 0x13
 4499 0e14 04       		.byte	0x4
 4500 0e15 81000000 		.4byte	0x81
 4501 0e19 21       		.uleb128 0x21
 4502 0e1a 1A060000 		.4byte	.LASF198
 4503 0e1e 01       		.byte	0x1
 4504 0e1f 7901     		.2byte	0x179
 4505 0e21 E00A0000 		.4byte	0xae0
 4506 0e25 00000000 		.4byte	.LFB94
 4507 0e29 5C000000 		.4byte	.LFE94-.LFB94
 4508 0e2d 01       		.uleb128 0x1
 4509 0e2e 9C       		.byte	0x9c
 4510 0e2f D40E0000 		.4byte	0xed4
 4511 0e33 22       		.uleb128 0x22
 4512 0e34 9E040000 		.4byte	.LASF184
 4513 0e38 01       		.byte	0x1
 4514 0e39 7901     		.2byte	0x179
 4515 0e3b 280B0000 		.4byte	0xb28
 4516 0e3f 6A020000 		.4byte	.LLST18
 4517 0e43 22       		.uleb128 0x22
 4518 0e44 3C000000 		.4byte	.LASF191
 4519 0e48 01       		.byte	0x1
 4520 0e49 7901     		.2byte	0x179
 4521 0e4b 5D0A0000 		.4byte	0xa5d
 4522 0e4f 96020000 		.4byte	.LLST19
 4523 0e53 22       		.uleb128 0x22
 4524 0e54 FF080000 		.4byte	.LASF192
 4525 0e58 01       		.byte	0x1
 4526 0e59 7A01     		.2byte	0x17a
 4527 0e5b 870C0000 		.4byte	0xc87
 4528 0e5f C2020000 		.4byte	.LLST20
 4529 0e63 28       		.uleb128 0x28
 4530 0e64 5D080000 		.4byte	.LASF180
 4531 0e68 01       		.byte	0x1
 4532 0e69 7C01     		.2byte	0x17c
 4533 0e6b 81000000 		.4byte	0x81
 4534 0e6f 02       		.uleb128 0x2
 4535 0e70 91       		.byte	0x91
 4536 0e71 67       		.sleb128 -25
 4537 0e72 23       		.uleb128 0x23
 4538 0e73 C2080000 		.4byte	.LASF199
 4539 0e77 01       		.byte	0x1
 4540 0e78 7D01     		.2byte	0x17d
 4541 0e7a 1B070000 		.4byte	0x71b
ARM GAS  C:\Users\ikomb\AppData\Local\Temp\cc5YtlHT.s 			page 132


 4542 0e7e EE020000 		.4byte	.LLST21
 4543 0e82 23       		.uleb128 0x23
 4544 0e83 CA030000 		.4byte	.LASF185
 4545 0e87 01       		.byte	0x1
 4546 0e88 7E01     		.2byte	0x17e
 4547 0e8a 070A0000 		.4byte	0xa07
 4548 0e8e 01030000 		.4byte	.LLST22
 4549 0e92 24       		.uleb128 0x24
 4550 0e93 24000000 		.4byte	.LVL49
 4551 0e97 D71B0000 		.4byte	0x1bd7
 4552 0e9b B00E0000 		.4byte	0xeb0
 4553 0e9f 25       		.uleb128 0x25
 4554 0ea0 01       		.uleb128 0x1
 4555 0ea1 50       		.byte	0x50
 4556 0ea2 05       		.uleb128 0x5
 4557 0ea3 03       		.byte	0x3
 4558 0ea4 00000000 		.4byte	.LC0
 4559 0ea8 25       		.uleb128 0x25
 4560 0ea9 01       		.uleb128 0x1
 4561 0eaa 51       		.byte	0x51
 4562 0eab 03       		.uleb128 0x3
 4563 0eac 0A       		.byte	0xa
 4564 0ead 8001     		.2byte	0x180
 4565 0eaf 00       		.byte	0
 4566 0eb0 26       		.uleb128 0x26
 4567 0eb1 36000000 		.4byte	.LVL50
 4568 0eb5 390D0000 		.4byte	0xd39
 4569 0eb9 25       		.uleb128 0x25
 4570 0eba 01       		.uleb128 0x1
 4571 0ebb 50       		.byte	0x50
 4572 0ebc 02       		.uleb128 0x2
 4573 0ebd 76       		.byte	0x76
 4574 0ebe 00       		.sleb128 0
 4575 0ebf 25       		.uleb128 0x25
 4576 0ec0 01       		.uleb128 0x1
 4577 0ec1 51       		.byte	0x51
 4578 0ec2 02       		.uleb128 0x2
 4579 0ec3 75       		.byte	0x75
 4580 0ec4 00       		.sleb128 0
 4581 0ec5 25       		.uleb128 0x25
 4582 0ec6 01       		.uleb128 0x1
 4583 0ec7 52       		.byte	0x52
 4584 0ec8 02       		.uleb128 0x2
 4585 0ec9 91       		.byte	0x91
 4586 0eca 67       		.sleb128 -25
 4587 0ecb 25       		.uleb128 0x25
 4588 0ecc 02       		.uleb128 0x2
 4589 0ecd 7D       		.byte	0x7d
 4590 0ece 00       		.sleb128 0
 4591 0ecf 02       		.uleb128 0x2
 4592 0ed0 77       		.byte	0x77
 4593 0ed1 00       		.sleb128 0
 4594 0ed2 00       		.byte	0
 4595 0ed3 00       		.byte	0
 4596 0ed4 21       		.uleb128 0x21
 4597 0ed5 450C0000 		.4byte	.LASF200
 4598 0ed9 01       		.byte	0x1
ARM GAS  C:\Users\ikomb\AppData\Local\Temp\cc5YtlHT.s 			page 133


 4599 0eda 4602     		.2byte	0x246
 4600 0edc 1B070000 		.4byte	0x71b
 4601 0ee0 00000000 		.4byte	.LFB97
 4602 0ee4 46000000 		.4byte	.LFE97-.LFB97
 4603 0ee8 01       		.uleb128 0x1
 4604 0ee9 9C       		.byte	0x9c
 4605 0eea CE0F0000 		.4byte	0xfce
 4606 0eee 22       		.uleb128 0x22
 4607 0eef 9E040000 		.4byte	.LASF184
 4608 0ef3 01       		.byte	0x1
 4609 0ef4 4602     		.2byte	0x246
 4610 0ef6 280B0000 		.4byte	0xb28
 4611 0efa 14030000 		.4byte	.LLST23
 4612 0efe 22       		.uleb128 0x22
 4613 0eff 3C000000 		.4byte	.LASF191
 4614 0f03 01       		.byte	0x1
 4615 0f04 4702     		.2byte	0x247
 4616 0f06 8D0B0000 		.4byte	0xb8d
 4617 0f0a 40030000 		.4byte	.LLST24
 4618 0f0e 22       		.uleb128 0x22
 4619 0f0f 5D080000 		.4byte	.LASF180
 4620 0f13 01       		.byte	0x1
 4621 0f14 4802     		.2byte	0x248
 4622 0f16 CE0F0000 		.4byte	0xfce
 4623 0f1a 6C030000 		.4byte	.LLST25
 4624 0f1e 22       		.uleb128 0x22
 4625 0f1f 9D090000 		.4byte	.LASF134
 4626 0f23 01       		.byte	0x1
 4627 0f24 4902     		.2byte	0x249
 4628 0f26 81000000 		.4byte	0x81
 4629 0f2a 98030000 		.4byte	.LLST26
 4630 0f2e 27       		.uleb128 0x27
 4631 0f2f FF080000 		.4byte	.LASF192
 4632 0f33 01       		.byte	0x1
 4633 0f34 4A02     		.2byte	0x24a
 4634 0f36 870C0000 		.4byte	0xc87
 4635 0f3a 02       		.uleb128 0x2
 4636 0f3b 91       		.byte	0x91
 4637 0f3c 00       		.sleb128 0
 4638 0f3d 23       		.uleb128 0x23
 4639 0f3e AF040000 		.4byte	.LASF181
 4640 0f42 01       		.byte	0x1
 4641 0f43 4C02     		.2byte	0x24c
 4642 0f45 1B070000 		.4byte	0x71b
 4643 0f49 B9030000 		.4byte	.LLST27
 4644 0f4d 29       		.uleb128 0x29
 4645 0f4e 16000000 		.4byte	.LBB12
 4646 0f52 2C000000 		.4byte	.LBE12-.LBB12
 4647 0f56 B00F0000 		.4byte	0xfb0
 4648 0f5a 23       		.uleb128 0x23
 4649 0f5b 55090000 		.4byte	.LASF201
 4650 0f5f 01       		.byte	0x1
 4651 0f60 5402     		.2byte	0x254
 4652 0f62 8C000000 		.4byte	0x8c
 4653 0f66 D7030000 		.4byte	.LLST28
 4654 0f6a 23       		.uleb128 0x23
 4655 0f6b 9A050000 		.4byte	.LASF202
ARM GAS  C:\Users\ikomb\AppData\Local\Temp\cc5YtlHT.s 			page 134


 4656 0f6f 01       		.byte	0x1
 4657 0f70 5502     		.2byte	0x255
 4658 0f72 8C000000 		.4byte	0x8c
 4659 0f76 F6030000 		.4byte	.LLST29
 4660 0f7a 26       		.uleb128 0x26
 4661 0f7b 42000000 		.4byte	.LVL65
 4662 0f7f E31B0000 		.4byte	0x1be3
 4663 0f83 25       		.uleb128 0x25
 4664 0f84 01       		.uleb128 0x1
 4665 0f85 50       		.byte	0x50
 4666 0f86 02       		.uleb128 0x2
 4667 0f87 74       		.byte	0x74
 4668 0f88 00       		.sleb128 0
 4669 0f89 25       		.uleb128 0x25
 4670 0f8a 01       		.uleb128 0x1
 4671 0f8b 51       		.byte	0x51
 4672 0f8c 02       		.uleb128 0x2
 4673 0f8d 75       		.byte	0x75
 4674 0f8e 00       		.sleb128 0
 4675 0f8f 25       		.uleb128 0x25
 4676 0f90 01       		.uleb128 0x1
 4677 0f91 52       		.byte	0x52
 4678 0f92 01       		.uleb128 0x1
 4679 0f93 30       		.byte	0x30
 4680 0f94 25       		.uleb128 0x25
 4681 0f95 01       		.uleb128 0x1
 4682 0f96 53       		.byte	0x53
 4683 0f97 02       		.uleb128 0x2
 4684 0f98 76       		.byte	0x76
 4685 0f99 00       		.sleb128 0
 4686 0f9a 25       		.uleb128 0x25
 4687 0f9b 02       		.uleb128 0x2
 4688 0f9c 7D       		.byte	0x7d
 4689 0f9d 04       		.sleb128 4
 4690 0f9e 01       		.uleb128 0x1
 4691 0f9f 30       		.byte	0x30
 4692 0fa0 25       		.uleb128 0x25
 4693 0fa1 02       		.uleb128 0x2
 4694 0fa2 7D       		.byte	0x7d
 4695 0fa3 0C       		.sleb128 12
 4696 0fa4 01       		.uleb128 0x1
 4697 0fa5 31       		.byte	0x31
 4698 0fa6 25       		.uleb128 0x25
 4699 0fa7 02       		.uleb128 0x2
 4700 0fa8 7D       		.byte	0x7d
 4701 0fa9 10       		.sleb128 16
 4702 0faa 03       		.uleb128 0x3
 4703 0fab 91       		.byte	0x91
 4704 0fac 00       		.sleb128 0
 4705 0fad 06       		.byte	0x6
 4706 0fae 00       		.byte	0
 4707 0faf 00       		.byte	0
 4708 0fb0 26       		.uleb128 0x26
 4709 0fb1 12000000 		.4byte	.LVL58
 4710 0fb5 E00B0000 		.4byte	0xbe0
 4711 0fb9 25       		.uleb128 0x25
 4712 0fba 01       		.uleb128 0x1
ARM GAS  C:\Users\ikomb\AppData\Local\Temp\cc5YtlHT.s 			page 135


 4713 0fbb 50       		.byte	0x50
 4714 0fbc 02       		.uleb128 0x2
 4715 0fbd 74       		.byte	0x74
 4716 0fbe 00       		.sleb128 0
 4717 0fbf 25       		.uleb128 0x25
 4718 0fc0 01       		.uleb128 0x1
 4719 0fc1 51       		.byte	0x51
 4720 0fc2 02       		.uleb128 0x2
 4721 0fc3 77       		.byte	0x77
 4722 0fc4 00       		.sleb128 0
 4723 0fc5 25       		.uleb128 0x25
 4724 0fc6 01       		.uleb128 0x1
 4725 0fc7 52       		.byte	0x52
 4726 0fc8 03       		.uleb128 0x3
 4727 0fc9 91       		.byte	0x91
 4728 0fca 00       		.sleb128 0
 4729 0fcb 06       		.byte	0x6
 4730 0fcc 00       		.byte	0
 4731 0fcd 00       		.byte	0
 4732 0fce 13       		.uleb128 0x13
 4733 0fcf 04       		.byte	0x4
 4734 0fd0 D40F0000 		.4byte	0xfd4
 4735 0fd4 2A       		.uleb128 0x2a
 4736 0fd5 21       		.uleb128 0x21
 4737 0fd6 7F050000 		.4byte	.LASF203
 4738 0fda 01       		.byte	0x1
 4739 0fdb AA01     		.2byte	0x1aa
 4740 0fdd 1B070000 		.4byte	0x71b
 4741 0fe1 00000000 		.4byte	.LFB95
 4742 0fe5 1C010000 		.4byte	.LFE95-.LFB95
 4743 0fe9 01       		.uleb128 0x1
 4744 0fea 9C       		.byte	0x9c
 4745 0feb 31120000 		.4byte	0x1231
 4746 0fef 22       		.uleb128 0x22
 4747 0ff0 9E040000 		.4byte	.LASF184
 4748 0ff4 01       		.byte	0x1
 4749 0ff5 AA01     		.2byte	0x1aa
 4750 0ff7 280B0000 		.4byte	0xb28
 4751 0ffb 18040000 		.4byte	.LLST30
 4752 0fff 22       		.uleb128 0x22
 4753 1000 3C000000 		.4byte	.LASF191
 4754 1004 01       		.byte	0x1
 4755 1005 AB01     		.2byte	0x1ab
 4756 1007 5D0A0000 		.4byte	0xa5d
 4757 100b 37040000 		.4byte	.LLST31
 4758 100f 22       		.uleb128 0x22
 4759 1010 FF080000 		.4byte	.LASF192
 4760 1014 01       		.byte	0x1
 4761 1015 AC01     		.2byte	0x1ac
 4762 1017 870C0000 		.4byte	0xc87
 4763 101b 63040000 		.4byte	.LLST32
 4764 101f 23       		.uleb128 0x23
 4765 1020 AF040000 		.4byte	.LASF181
 4766 1024 01       		.byte	0x1
 4767 1025 AE01     		.2byte	0x1ae
 4768 1027 1B070000 		.4byte	0x71b
 4769 102b 8F040000 		.4byte	.LLST33
ARM GAS  C:\Users\ikomb\AppData\Local\Temp\cc5YtlHT.s 			page 136


 4770 102f 28       		.uleb128 0x28
 4771 1030 DE040000 		.4byte	.LASF204
 4772 1034 01       		.byte	0x1
 4773 1035 AF01     		.2byte	0x1af
 4774 1037 1D010000 		.4byte	0x11d
 4775 103b 02       		.uleb128 0x2
 4776 103c 91       		.byte	0x91
 4777 103d 5C       		.sleb128 -36
 4778 103e 23       		.uleb128 0x23
 4779 103f CA030000 		.4byte	.LASF185
 4780 1043 01       		.byte	0x1
 4781 1044 B001     		.2byte	0x1b0
 4782 1046 070A0000 		.4byte	0xa07
 4783 104a E4040000 		.4byte	.LLST34
 4784 104e 23       		.uleb128 0x23
 4785 104f C60E0000 		.4byte	.LASF205
 4786 1053 01       		.byte	0x1
 4787 1054 B701     		.2byte	0x1b7
 4788 1056 81000000 		.4byte	0x81
 4789 105a F7040000 		.4byte	.LLST35
 4790 105e 23       		.uleb128 0x23
 4791 105f 67000000 		.4byte	.LASF206
 4792 1063 01       		.byte	0x1
 4793 1064 B801     		.2byte	0x1b8
 4794 1066 81000000 		.4byte	0x81
 4795 106a 0A050000 		.4byte	.LLST36
 4796 106e 23       		.uleb128 0x23
 4797 106f A90B0000 		.4byte	.LASF207
 4798 1073 01       		.byte	0x1
 4799 1074 B901     		.2byte	0x1b9
 4800 1076 81000000 		.4byte	0x81
 4801 107a 1D050000 		.4byte	.LLST37
 4802 107e 29       		.uleb128 0x29
 4803 107f 6A000000 		.4byte	.LBB13
 4804 1083 9E000000 		.4byte	.LBE13-.LBB13
 4805 1087 AC110000 		.4byte	0x11ac
 4806 108b 23       		.uleb128 0x23
 4807 108c 9A050000 		.4byte	.LASF202
 4808 1090 01       		.byte	0x1
 4809 1091 C001     		.2byte	0x1c0
 4810 1093 8C000000 		.4byte	0x8c
 4811 1097 30050000 		.4byte	.LLST38
 4812 109b 24       		.uleb128 0x24
 4813 109c 8E000000 		.4byte	.LVL84
 4814 10a0 D40E0000 		.4byte	0xed4
 4815 10a4 C9100000 		.4byte	0x10c9
 4816 10a8 25       		.uleb128 0x25
 4817 10a9 01       		.uleb128 0x1
 4818 10aa 50       		.byte	0x50
 4819 10ab 03       		.uleb128 0x3
 4820 10ac 91       		.byte	0x91
 4821 10ad 54       		.sleb128 -44
 4822 10ae 06       		.byte	0x6
 4823 10af 25       		.uleb128 0x25
 4824 10b0 01       		.uleb128 0x1
 4825 10b1 51       		.byte	0x51
 4826 10b2 02       		.uleb128 0x2
ARM GAS  C:\Users\ikomb\AppData\Local\Temp\cc5YtlHT.s 			page 137


 4827 10b3 75       		.byte	0x75
 4828 10b4 00       		.sleb128 0
 4829 10b5 25       		.uleb128 0x25
 4830 10b6 01       		.uleb128 0x1
 4831 10b7 52       		.byte	0x52
 4832 10b8 02       		.uleb128 0x2
 4833 10b9 91       		.byte	0x91
 4834 10ba 5C       		.sleb128 -36
 4835 10bb 25       		.uleb128 0x25
 4836 10bc 01       		.uleb128 0x1
 4837 10bd 53       		.byte	0x53
 4838 10be 02       		.uleb128 0x2
 4839 10bf 78       		.byte	0x78
 4840 10c0 00       		.sleb128 0
 4841 10c1 25       		.uleb128 0x25
 4842 10c2 02       		.uleb128 0x2
 4843 10c3 7D       		.byte	0x7d
 4844 10c4 00       		.sleb128 0
 4845 10c5 02       		.uleb128 0x2
 4846 10c6 77       		.byte	0x77
 4847 10c7 00       		.sleb128 0
 4848 10c8 00       		.byte	0
 4849 10c9 24       		.uleb128 0x24
 4850 10ca 9E000000 		.4byte	.LVL87
 4851 10ce 390D0000 		.4byte	0xd39
 4852 10d2 F7100000 		.4byte	0x10f7
 4853 10d6 25       		.uleb128 0x25
 4854 10d7 01       		.uleb128 0x1
 4855 10d8 50       		.byte	0x50
 4856 10d9 03       		.uleb128 0x3
 4857 10da 91       		.byte	0x91
 4858 10db 54       		.sleb128 -44
 4859 10dc 06       		.byte	0x6
 4860 10dd 25       		.uleb128 0x25
 4861 10de 01       		.uleb128 0x1
 4862 10df 51       		.byte	0x51
 4863 10e0 02       		.uleb128 0x2
 4864 10e1 75       		.byte	0x75
 4865 10e2 00       		.sleb128 0
 4866 10e3 25       		.uleb128 0x25
 4867 10e4 01       		.uleb128 0x1
 4868 10e5 52       		.byte	0x52
 4869 10e6 02       		.uleb128 0x2
 4870 10e7 91       		.byte	0x91
 4871 10e8 5C       		.sleb128 -36
 4872 10e9 25       		.uleb128 0x25
 4873 10ea 01       		.uleb128 0x1
 4874 10eb 53       		.byte	0x53
 4875 10ec 02       		.uleb128 0x2
 4876 10ed 7A       		.byte	0x7a
 4877 10ee 00       		.sleb128 0
 4878 10ef 25       		.uleb128 0x25
 4879 10f0 02       		.uleb128 0x2
 4880 10f1 7D       		.byte	0x7d
 4881 10f2 00       		.sleb128 0
 4882 10f3 02       		.uleb128 0x2
 4883 10f4 77       		.byte	0x77
ARM GAS  C:\Users\ikomb\AppData\Local\Temp\cc5YtlHT.s 			page 138


 4884 10f5 00       		.sleb128 0
 4885 10f6 00       		.byte	0
 4886 10f7 24       		.uleb128 0x24
 4887 10f8 B6000000 		.4byte	.LVL89
 4888 10fc 390D0000 		.4byte	0xd39
 4889 1100 25110000 		.4byte	0x1125
 4890 1104 25       		.uleb128 0x25
 4891 1105 01       		.uleb128 0x1
 4892 1106 50       		.byte	0x50
 4893 1107 03       		.uleb128 0x3
 4894 1108 91       		.byte	0x91
 4895 1109 54       		.sleb128 -44
 4896 110a 06       		.byte	0x6
 4897 110b 25       		.uleb128 0x25
 4898 110c 01       		.uleb128 0x1
 4899 110d 51       		.byte	0x51
 4900 110e 02       		.uleb128 0x2
 4901 110f 75       		.byte	0x75
 4902 1110 00       		.sleb128 0
 4903 1111 25       		.uleb128 0x25
 4904 1112 01       		.uleb128 0x1
 4905 1113 52       		.byte	0x52
 4906 1114 02       		.uleb128 0x2
 4907 1115 91       		.byte	0x91
 4908 1116 5D       		.sleb128 -35
 4909 1117 25       		.uleb128 0x25
 4910 1118 01       		.uleb128 0x1
 4911 1119 53       		.byte	0x53
 4912 111a 02       		.uleb128 0x2
 4913 111b 76       		.byte	0x76
 4914 111c 00       		.sleb128 0
 4915 111d 25       		.uleb128 0x25
 4916 111e 02       		.uleb128 0x2
 4917 111f 7D       		.byte	0x7d
 4918 1120 00       		.sleb128 0
 4919 1121 02       		.uleb128 0x2
 4920 1122 77       		.byte	0x77
 4921 1123 00       		.sleb128 0
 4922 1124 00       		.byte	0
 4923 1125 24       		.uleb128 0x24
 4924 1126 CE000000 		.4byte	.LVL92
 4925 112a D40E0000 		.4byte	0xed4
 4926 112e 53110000 		.4byte	0x1153
 4927 1132 25       		.uleb128 0x25
 4928 1133 01       		.uleb128 0x1
 4929 1134 50       		.byte	0x50
 4930 1135 03       		.uleb128 0x3
 4931 1136 91       		.byte	0x91
 4932 1137 54       		.sleb128 -44
 4933 1138 06       		.byte	0x6
 4934 1139 25       		.uleb128 0x25
 4935 113a 01       		.uleb128 0x1
 4936 113b 51       		.byte	0x51
 4937 113c 02       		.uleb128 0x2
 4938 113d 75       		.byte	0x75
 4939 113e 00       		.sleb128 0
 4940 113f 25       		.uleb128 0x25
ARM GAS  C:\Users\ikomb\AppData\Local\Temp\cc5YtlHT.s 			page 139


 4941 1140 01       		.uleb128 0x1
 4942 1141 52       		.byte	0x52
 4943 1142 02       		.uleb128 0x2
 4944 1143 91       		.byte	0x91
 4945 1144 5C       		.sleb128 -36
 4946 1145 25       		.uleb128 0x25
 4947 1146 01       		.uleb128 0x1
 4948 1147 53       		.byte	0x53
 4949 1148 02       		.uleb128 0x2
 4950 1149 78       		.byte	0x78
 4951 114a 00       		.sleb128 0
 4952 114b 25       		.uleb128 0x25
 4953 114c 02       		.uleb128 0x2
 4954 114d 7D       		.byte	0x7d
 4955 114e 00       		.sleb128 0
 4956 114f 02       		.uleb128 0x2
 4957 1150 77       		.byte	0x77
 4958 1151 00       		.sleb128 0
 4959 1152 00       		.byte	0
 4960 1153 24       		.uleb128 0x24
 4961 1154 E4000000 		.4byte	.LVL95
 4962 1158 390D0000 		.4byte	0xd39
 4963 115c 81110000 		.4byte	0x1181
 4964 1160 25       		.uleb128 0x25
 4965 1161 01       		.uleb128 0x1
 4966 1162 50       		.byte	0x50
 4967 1163 03       		.uleb128 0x3
 4968 1164 91       		.byte	0x91
 4969 1165 54       		.sleb128 -44
 4970 1166 06       		.byte	0x6
 4971 1167 25       		.uleb128 0x25
 4972 1168 01       		.uleb128 0x1
 4973 1169 51       		.byte	0x51
 4974 116a 02       		.uleb128 0x2
 4975 116b 75       		.byte	0x75
 4976 116c 00       		.sleb128 0
 4977 116d 25       		.uleb128 0x25
 4978 116e 01       		.uleb128 0x1
 4979 116f 52       		.byte	0x52
 4980 1170 02       		.uleb128 0x2
 4981 1171 91       		.byte	0x91
 4982 1172 5D       		.sleb128 -35
 4983 1173 25       		.uleb128 0x25
 4984 1174 01       		.uleb128 0x1
 4985 1175 53       		.byte	0x53
 4986 1176 02       		.uleb128 0x2
 4987 1177 76       		.byte	0x76
 4988 1178 00       		.sleb128 0
 4989 1179 25       		.uleb128 0x25
 4990 117a 02       		.uleb128 0x2
 4991 117b 7D       		.byte	0x7d
 4992 117c 00       		.sleb128 0
 4993 117d 02       		.uleb128 0x2
 4994 117e 77       		.byte	0x77
 4995 117f 00       		.sleb128 0
 4996 1180 00       		.byte	0
 4997 1181 26       		.uleb128 0x26
ARM GAS  C:\Users\ikomb\AppData\Local\Temp\cc5YtlHT.s 			page 140


 4998 1182 04010000 		.4byte	.LVL98
 4999 1186 D40E0000 		.4byte	0xed4
 5000 118a 25       		.uleb128 0x25
 5001 118b 01       		.uleb128 0x1
 5002 118c 50       		.byte	0x50
 5003 118d 03       		.uleb128 0x3
 5004 118e 91       		.byte	0x91
 5005 118f 54       		.sleb128 -44
 5006 1190 06       		.byte	0x6
 5007 1191 25       		.uleb128 0x25
 5008 1192 01       		.uleb128 0x1
 5009 1193 51       		.byte	0x51
 5010 1194 02       		.uleb128 0x2
 5011 1195 75       		.byte	0x75
 5012 1196 00       		.sleb128 0
 5013 1197 25       		.uleb128 0x25
 5014 1198 01       		.uleb128 0x1
 5015 1199 52       		.byte	0x52
 5016 119a 02       		.uleb128 0x2
 5017 119b 91       		.byte	0x91
 5018 119c 5D       		.sleb128 -35
 5019 119d 25       		.uleb128 0x25
 5020 119e 01       		.uleb128 0x1
 5021 119f 53       		.byte	0x53
 5022 11a0 02       		.uleb128 0x2
 5023 11a1 78       		.byte	0x78
 5024 11a2 00       		.sleb128 0
 5025 11a3 25       		.uleb128 0x25
 5026 11a4 02       		.uleb128 0x2
 5027 11a5 7D       		.byte	0x7d
 5028 11a6 00       		.sleb128 0
 5029 11a7 02       		.uleb128 0x2
 5030 11a8 77       		.byte	0x77
 5031 11a9 00       		.sleb128 0
 5032 11aa 00       		.byte	0
 5033 11ab 00       		.byte	0
 5034 11ac 24       		.uleb128 0x24
 5035 11ad 28000000 		.4byte	.LVL74
 5036 11b1 D71B0000 		.4byte	0x1bd7
 5037 11b5 CA110000 		.4byte	0x11ca
 5038 11b9 25       		.uleb128 0x25
 5039 11ba 01       		.uleb128 0x1
 5040 11bb 50       		.byte	0x50
 5041 11bc 05       		.uleb128 0x5
 5042 11bd 03       		.byte	0x3
 5043 11be 00000000 		.4byte	.LC0
 5044 11c2 25       		.uleb128 0x25
 5045 11c3 01       		.uleb128 0x1
 5046 11c4 51       		.byte	0x51
 5047 11c5 03       		.uleb128 0x3
 5048 11c6 0A       		.byte	0xa
 5049 11c7 B301     		.2byte	0x1b3
 5050 11c9 00       		.byte	0
 5051 11ca 24       		.uleb128 0x24
 5052 11cb 38000000 		.4byte	.LVL75
 5053 11cf D71B0000 		.4byte	0x1bd7
 5054 11d3 E8110000 		.4byte	0x11e8
ARM GAS  C:\Users\ikomb\AppData\Local\Temp\cc5YtlHT.s 			page 141


 5055 11d7 25       		.uleb128 0x25
 5056 11d8 01       		.uleb128 0x1
 5057 11d9 50       		.byte	0x50
 5058 11da 05       		.uleb128 0x5
 5059 11db 03       		.byte	0x3
 5060 11dc 00000000 		.4byte	.LC0
 5061 11e0 25       		.uleb128 0x25
 5062 11e1 01       		.uleb128 0x1
 5063 11e2 51       		.byte	0x51
 5064 11e3 03       		.uleb128 0x3
 5065 11e4 0A       		.byte	0xa
 5066 11e5 B401     		.2byte	0x1b4
 5067 11e7 00       		.byte	0
 5068 11e8 24       		.uleb128 0x24
 5069 11e9 48000000 		.4byte	.LVL76
 5070 11ed D71B0000 		.4byte	0x1bd7
 5071 11f1 06120000 		.4byte	0x1206
 5072 11f5 25       		.uleb128 0x25
 5073 11f6 01       		.uleb128 0x1
 5074 11f7 50       		.byte	0x50
 5075 11f8 05       		.uleb128 0x5
 5076 11f9 03       		.byte	0x3
 5077 11fa 00000000 		.4byte	.LC0
 5078 11fe 25       		.uleb128 0x25
 5079 11ff 01       		.uleb128 0x1
 5080 1200 51       		.byte	0x51
 5081 1201 03       		.uleb128 0x3
 5082 1202 0A       		.byte	0xa
 5083 1203 B501     		.2byte	0x1b5
 5084 1205 00       		.byte	0
 5085 1206 26       		.uleb128 0x26
 5086 1207 66000000 		.4byte	.LVL80
 5087 120b 390D0000 		.4byte	0xd39
 5088 120f 25       		.uleb128 0x25
 5089 1210 01       		.uleb128 0x1
 5090 1211 50       		.byte	0x50
 5091 1212 03       		.uleb128 0x3
 5092 1213 91       		.byte	0x91
 5093 1214 54       		.sleb128 -44
 5094 1215 06       		.byte	0x6
 5095 1216 25       		.uleb128 0x25
 5096 1217 01       		.uleb128 0x1
 5097 1218 51       		.byte	0x51
 5098 1219 02       		.uleb128 0x2
 5099 121a 75       		.byte	0x75
 5100 121b 00       		.sleb128 0
 5101 121c 25       		.uleb128 0x25
 5102 121d 01       		.uleb128 0x1
 5103 121e 52       		.byte	0x52
 5104 121f 02       		.uleb128 0x2
 5105 1220 91       		.byte	0x91
 5106 1221 5C       		.sleb128 -36
 5107 1222 25       		.uleb128 0x25
 5108 1223 01       		.uleb128 0x1
 5109 1224 53       		.byte	0x53
 5110 1225 02       		.uleb128 0x2
 5111 1226 76       		.byte	0x76
ARM GAS  C:\Users\ikomb\AppData\Local\Temp\cc5YtlHT.s 			page 142


 5112 1227 00       		.sleb128 0
 5113 1228 25       		.uleb128 0x25
 5114 1229 02       		.uleb128 0x2
 5115 122a 7D       		.byte	0x7d
 5116 122b 00       		.sleb128 0
 5117 122c 02       		.uleb128 0x2
 5118 122d 77       		.byte	0x77
 5119 122e 00       		.sleb128 0
 5120 122f 00       		.byte	0
 5121 1230 00       		.byte	0
 5122 1231 21       		.uleb128 0x21
 5123 1232 D5090000 		.4byte	.LASF208
 5124 1236 01       		.byte	0x1
 5125 1237 7B02     		.2byte	0x27b
 5126 1239 1B070000 		.4byte	0x71b
 5127 123d 00000000 		.4byte	.LFB98
 5128 1241 40000000 		.4byte	.LFE98-.LFB98
 5129 1245 01       		.uleb128 0x1
 5130 1246 9C       		.byte	0x9c
 5131 1247 E6120000 		.4byte	0x12e6
 5132 124b 22       		.uleb128 0x22
 5133 124c 9E040000 		.4byte	.LASF184
 5134 1250 01       		.byte	0x1
 5135 1251 7B02     		.2byte	0x27b
 5136 1253 280B0000 		.4byte	0xb28
 5137 1257 64050000 		.4byte	.LLST39
 5138 125b 22       		.uleb128 0x22
 5139 125c 3C000000 		.4byte	.LASF191
 5140 1260 01       		.byte	0x1
 5141 1261 7C02     		.2byte	0x27c
 5142 1263 8D0B0000 		.4byte	0xb8d
 5143 1267 90050000 		.4byte	.LLST40
 5144 126b 22       		.uleb128 0x22
 5145 126c FF080000 		.4byte	.LASF192
 5146 1270 01       		.byte	0x1
 5147 1271 7D02     		.2byte	0x27d
 5148 1273 870C0000 		.4byte	0xc87
 5149 1277 BC050000 		.4byte	.LLST41
 5150 127b 28       		.uleb128 0x28
 5151 127c AF040000 		.4byte	.LASF181
 5152 1280 01       		.byte	0x1
 5153 1281 7F02     		.2byte	0x27f
 5154 1283 1B070000 		.4byte	0x71b
 5155 1287 01       		.uleb128 0x1
 5156 1288 50       		.byte	0x50
 5157 1289 23       		.uleb128 0x23
 5158 128a 600A0000 		.4byte	.LASF209
 5159 128e 01       		.byte	0x1
 5160 128f 8102     		.2byte	0x281
 5161 1291 90090000 		.4byte	0x990
 5162 1295 E8050000 		.4byte	.LLST42
 5163 1299 24       		.uleb128 0x24
 5164 129a 1A000000 		.4byte	.LVL110
 5165 129e D71B0000 		.4byte	0x1bd7
 5166 12a2 B7120000 		.4byte	0x12b7
 5167 12a6 25       		.uleb128 0x25
 5168 12a7 01       		.uleb128 0x1
ARM GAS  C:\Users\ikomb\AppData\Local\Temp\cc5YtlHT.s 			page 143


 5169 12a8 50       		.byte	0x50
 5170 12a9 05       		.uleb128 0x5
 5171 12aa 03       		.byte	0x3
 5172 12ab 00000000 		.4byte	.LC0
 5173 12af 25       		.uleb128 0x25
 5174 12b0 01       		.uleb128 0x1
 5175 12b1 51       		.byte	0x51
 5176 12b2 03       		.uleb128 0x3
 5177 12b3 0A       		.byte	0xa
 5178 12b4 8202     		.2byte	0x282
 5179 12b6 00       		.byte	0
 5180 12b7 26       		.uleb128 0x26
 5181 12b8 34000000 		.4byte	.LVL111
 5182 12bc E31B0000 		.4byte	0x1be3
 5183 12c0 25       		.uleb128 0x25
 5184 12c1 01       		.uleb128 0x1
 5185 12c2 50       		.byte	0x50
 5186 12c3 02       		.uleb128 0x2
 5187 12c4 76       		.byte	0x76
 5188 12c5 00       		.sleb128 0
 5189 12c6 25       		.uleb128 0x25
 5190 12c7 01       		.uleb128 0x1
 5191 12c8 53       		.byte	0x53
 5192 12c9 01       		.uleb128 0x1
 5193 12ca 30       		.byte	0x30
 5194 12cb 25       		.uleb128 0x25
 5195 12cc 02       		.uleb128 0x2
 5196 12cd 7D       		.byte	0x7d
 5197 12ce 00       		.sleb128 0
 5198 12cf 01       		.uleb128 0x1
 5199 12d0 30       		.byte	0x30
 5200 12d1 25       		.uleb128 0x25
 5201 12d2 02       		.uleb128 0x2
 5202 12d3 7D       		.byte	0x7d
 5203 12d4 04       		.sleb128 4
 5204 12d5 01       		.uleb128 0x1
 5205 12d6 30       		.byte	0x30
 5206 12d7 25       		.uleb128 0x25
 5207 12d8 02       		.uleb128 0x2
 5208 12d9 7D       		.byte	0x7d
 5209 12da 0C       		.sleb128 12
 5210 12db 01       		.uleb128 0x1
 5211 12dc 31       		.byte	0x31
 5212 12dd 25       		.uleb128 0x25
 5213 12de 02       		.uleb128 0x2
 5214 12df 7D       		.byte	0x7d
 5215 12e0 10       		.sleb128 16
 5216 12e1 02       		.uleb128 0x2
 5217 12e2 77       		.byte	0x77
 5218 12e3 00       		.sleb128 0
 5219 12e4 00       		.byte	0
 5220 12e5 00       		.byte	0
 5221 12e6 21       		.uleb128 0x21
 5222 12e7 000F0000 		.4byte	.LASF210
 5223 12eb 01       		.byte	0x1
 5224 12ec AB02     		.2byte	0x2ab
 5225 12ee 1B070000 		.4byte	0x71b
ARM GAS  C:\Users\ikomb\AppData\Local\Temp\cc5YtlHT.s 			page 144


 5226 12f2 00000000 		.4byte	.LFB99
 5227 12f6 50000000 		.4byte	.LFE99-.LFB99
 5228 12fa 01       		.uleb128 0x1
 5229 12fb 9C       		.byte	0x9c
 5230 12fc BF130000 		.4byte	0x13bf
 5231 1300 22       		.uleb128 0x22
 5232 1301 9E040000 		.4byte	.LASF184
 5233 1305 01       		.byte	0x1
 5234 1306 AB02     		.2byte	0x2ab
 5235 1308 280B0000 		.4byte	0xb28
 5236 130c FB050000 		.4byte	.LLST43
 5237 1310 22       		.uleb128 0x22
 5238 1311 3C000000 		.4byte	.LASF191
 5239 1315 01       		.byte	0x1
 5240 1316 AC02     		.2byte	0x2ac
 5241 1318 5D0A0000 		.4byte	0xa5d
 5242 131c 31060000 		.4byte	.LLST44
 5243 1320 22       		.uleb128 0x22
 5244 1321 170D0000 		.4byte	.LASF211
 5245 1325 01       		.byte	0x1
 5246 1326 AD02     		.2byte	0x2ad
 5247 1328 D50A0000 		.4byte	0xad5
 5248 132c 73060000 		.4byte	.LLST45
 5249 1330 22       		.uleb128 0x22
 5250 1331 FF080000 		.4byte	.LASF192
 5251 1335 01       		.byte	0x1
 5252 1336 AE02     		.2byte	0x2ae
 5253 1338 870C0000 		.4byte	0xc87
 5254 133c B5060000 		.4byte	.LLST46
 5255 1340 23       		.uleb128 0x23
 5256 1341 AF040000 		.4byte	.LASF181
 5257 1345 01       		.byte	0x1
 5258 1346 B002     		.2byte	0x2b0
 5259 1348 1B070000 		.4byte	0x71b
 5260 134c EB060000 		.4byte	.LLST47
 5261 1350 2B       		.uleb128 0x2b
 5262 1351 0E000000 		.4byte	.LBB14
 5263 1355 32000000 		.4byte	.LBE14-.LBB14
 5264 1359 23       		.uleb128 0x23
 5265 135a CA030000 		.4byte	.LASF185
 5266 135e 01       		.byte	0x1
 5267 135f B502     		.2byte	0x2b5
 5268 1361 070A0000 		.4byte	0xa07
 5269 1365 29070000 		.4byte	.LLST48
 5270 1369 23       		.uleb128 0x23
 5271 136a 600A0000 		.4byte	.LASF209
 5272 136e 01       		.byte	0x1
 5273 136f B602     		.2byte	0x2b6
 5274 1371 90090000 		.4byte	0x990
 5275 1375 3C070000 		.4byte	.LLST49
 5276 1379 24       		.uleb128 0x24
 5277 137a 20000000 		.4byte	.LVL122
 5278 137e D71B0000 		.4byte	0x1bd7
 5279 1382 97130000 		.4byte	0x1397
 5280 1386 25       		.uleb128 0x25
 5281 1387 01       		.uleb128 0x1
 5282 1388 50       		.byte	0x50
ARM GAS  C:\Users\ikomb\AppData\Local\Temp\cc5YtlHT.s 			page 145


 5283 1389 05       		.uleb128 0x5
 5284 138a 03       		.byte	0x3
 5285 138b 00000000 		.4byte	.LC0
 5286 138f 25       		.uleb128 0x25
 5287 1390 01       		.uleb128 0x1
 5288 1391 51       		.byte	0x51
 5289 1392 03       		.uleb128 0x3
 5290 1393 0A       		.byte	0xa
 5291 1394 B802     		.2byte	0x2b8
 5292 1396 00       		.byte	0
 5293 1397 26       		.uleb128 0x26
 5294 1398 3E000000 		.4byte	.LVL124
 5295 139c E31B0000 		.4byte	0x1be3
 5296 13a0 25       		.uleb128 0x25
 5297 13a1 01       		.uleb128 0x1
 5298 13a2 50       		.byte	0x50
 5299 13a3 03       		.uleb128 0x3
 5300 13a4 91       		.byte	0x91
 5301 13a5 60       		.sleb128 -32
 5302 13a6 06       		.byte	0x6
 5303 13a7 25       		.uleb128 0x25
 5304 13a8 01       		.uleb128 0x1
 5305 13a9 53       		.byte	0x53
 5306 13aa 02       		.uleb128 0x2
 5307 13ab 75       		.byte	0x75
 5308 13ac 00       		.sleb128 0
 5309 13ad 25       		.uleb128 0x25
 5310 13ae 02       		.uleb128 0x2
 5311 13af 7D       		.byte	0x7d
 5312 13b0 0C       		.sleb128 12
 5313 13b1 02       		.uleb128 0x2
 5314 13b2 74       		.byte	0x74
 5315 13b3 00       		.sleb128 0
 5316 13b4 25       		.uleb128 0x25
 5317 13b5 02       		.uleb128 0x2
 5318 13b6 7D       		.byte	0x7d
 5319 13b7 10       		.sleb128 16
 5320 13b8 03       		.uleb128 0x3
 5321 13b9 91       		.byte	0x91
 5322 13ba 64       		.sleb128 -28
 5323 13bb 06       		.byte	0x6
 5324 13bc 00       		.byte	0
 5325 13bd 00       		.byte	0
 5326 13be 00       		.byte	0
 5327 13bf 21       		.uleb128 0x21
 5328 13c0 E60B0000 		.4byte	.LASF212
 5329 13c4 01       		.byte	0x1
 5330 13c5 F402     		.2byte	0x2f4
 5331 13c7 1B070000 		.4byte	0x71b
 5332 13cb 00000000 		.4byte	.LFB100
 5333 13cf 94000000 		.4byte	.LFE100-.LFB100
 5334 13d3 01       		.uleb128 0x1
 5335 13d4 9C       		.byte	0x9c
 5336 13d5 1A150000 		.4byte	0x151a
 5337 13d9 22       		.uleb128 0x22
 5338 13da 9E040000 		.4byte	.LASF184
 5339 13de 01       		.byte	0x1
ARM GAS  C:\Users\ikomb\AppData\Local\Temp\cc5YtlHT.s 			page 146


 5340 13df F402     		.2byte	0x2f4
 5341 13e1 280B0000 		.4byte	0xb28
 5342 13e5 4F070000 		.4byte	.LLST50
 5343 13e9 22       		.uleb128 0x22
 5344 13ea 3C000000 		.4byte	.LASF191
 5345 13ee 01       		.byte	0x1
 5346 13ef F502     		.2byte	0x2f5
 5347 13f1 8D0B0000 		.4byte	0xb8d
 5348 13f5 6E070000 		.4byte	.LLST51
 5349 13f9 22       		.uleb128 0x22
 5350 13fa 1F0E0000 		.4byte	.LASF213
 5351 13fe 01       		.byte	0x1
 5352 13ff F602     		.2byte	0x2f6
 5353 1401 D50A0000 		.4byte	0xad5
 5354 1405 B3070000 		.4byte	.LLST52
 5355 1409 22       		.uleb128 0x22
 5356 140a 88070000 		.4byte	.LASF214
 5357 140e 01       		.byte	0x1
 5358 140f F702     		.2byte	0x2f7
 5359 1411 130E0000 		.4byte	0xe13
 5360 1415 DF070000 		.4byte	.LLST53
 5361 1419 27       		.uleb128 0x27
 5362 141a 55090000 		.4byte	.LASF201
 5363 141e 01       		.byte	0x1
 5364 141f F802     		.2byte	0x2f8
 5365 1421 8C000000 		.4byte	0x8c
 5366 1425 02       		.uleb128 0x2
 5367 1426 91       		.byte	0x91
 5368 1427 00       		.sleb128 0
 5369 1428 27       		.uleb128 0x27
 5370 1429 E3070000 		.4byte	.LASF215
 5371 142d 01       		.byte	0x1
 5372 142e F902     		.2byte	0x2f9
 5373 1430 59070000 		.4byte	0x759
 5374 1434 02       		.uleb128 0x2
 5375 1435 91       		.byte	0x91
 5376 1436 04       		.sleb128 4
 5377 1437 27       		.uleb128 0x27
 5378 1438 FF080000 		.4byte	.LASF192
 5379 143c 01       		.byte	0x1
 5380 143d FA02     		.2byte	0x2fa
 5381 143f 1A150000 		.4byte	0x151a
 5382 1443 02       		.uleb128 0x2
 5383 1444 91       		.byte	0x91
 5384 1445 08       		.sleb128 8
 5385 1446 23       		.uleb128 0x23
 5386 1447 AF040000 		.4byte	.LASF181
 5387 144b 01       		.byte	0x1
 5388 144c FC02     		.2byte	0x2fc
 5389 144e 1B070000 		.4byte	0x71b
 5390 1452 FE070000 		.4byte	.LLST54
 5391 1456 23       		.uleb128 0x23
 5392 1457 C00B0000 		.4byte	.LASF216
 5393 145b 01       		.byte	0x1
 5394 145c FD02     		.2byte	0x2fd
 5395 145e 4D070000 		.4byte	0x74d
 5396 1462 52080000 		.4byte	.LLST55
ARM GAS  C:\Users\ikomb\AppData\Local\Temp\cc5YtlHT.s 			page 147


 5397 1466 23       		.uleb128 0x23
 5398 1467 CA030000 		.4byte	.LASF185
 5399 146b 01       		.byte	0x1
 5400 146c FF02     		.2byte	0x2ff
 5401 146e 070A0000 		.4byte	0xa07
 5402 1472 65080000 		.4byte	.LLST56
 5403 1476 23       		.uleb128 0x23
 5404 1477 410A0000 		.4byte	.LASF217
 5405 147b 01       		.byte	0x1
 5406 147c 0003     		.2byte	0x300
 5407 147e 90090000 		.4byte	0x990
 5408 1482 83080000 		.4byte	.LLST57
 5409 1486 24       		.uleb128 0x24
 5410 1487 1C000000 		.4byte	.LVL135
 5411 148b D71B0000 		.4byte	0x1bd7
 5412 148f A4140000 		.4byte	0x14a4
 5413 1493 25       		.uleb128 0x25
 5414 1494 01       		.uleb128 0x1
 5415 1495 50       		.byte	0x50
 5416 1496 05       		.uleb128 0x5
 5417 1497 03       		.byte	0x3
 5418 1498 00000000 		.4byte	.LC0
 5419 149c 25       		.uleb128 0x25
 5420 149d 01       		.uleb128 0x1
 5421 149e 51       		.byte	0x51
 5422 149f 03       		.uleb128 0x3
 5423 14a0 0A       		.byte	0xa
 5424 14a1 0203     		.2byte	0x302
 5425 14a3 00       		.byte	0
 5426 14a4 24       		.uleb128 0x24
 5427 14a5 52000000 		.4byte	.LVL140
 5428 14a9 E31B0000 		.4byte	0x1be3
 5429 14ad D5140000 		.4byte	0x14d5
 5430 14b1 25       		.uleb128 0x25
 5431 14b2 01       		.uleb128 0x1
 5432 14b3 50       		.byte	0x50
 5433 14b4 03       		.uleb128 0x3
 5434 14b5 91       		.byte	0x91
 5435 14b6 60       		.sleb128 -32
 5436 14b7 06       		.byte	0x6
 5437 14b8 25       		.uleb128 0x25
 5438 14b9 01       		.uleb128 0x1
 5439 14ba 53       		.byte	0x53
 5440 14bb 02       		.uleb128 0x2
 5441 14bc 77       		.byte	0x77
 5442 14bd 00       		.sleb128 0
 5443 14be 25       		.uleb128 0x25
 5444 14bf 02       		.uleb128 0x2
 5445 14c0 7D       		.byte	0x7d
 5446 14c1 04       		.sleb128 4
 5447 14c2 02       		.uleb128 0x2
 5448 14c3 74       		.byte	0x74
 5449 14c4 00       		.sleb128 0
 5450 14c5 25       		.uleb128 0x25
 5451 14c6 02       		.uleb128 0x2
 5452 14c7 7D       		.byte	0x7d
 5453 14c8 0C       		.sleb128 12
ARM GAS  C:\Users\ikomb\AppData\Local\Temp\cc5YtlHT.s 			page 148


 5454 14c9 02       		.uleb128 0x2
 5455 14ca 76       		.byte	0x76
 5456 14cb 00       		.sleb128 0
 5457 14cc 25       		.uleb128 0x25
 5458 14cd 02       		.uleb128 0x2
 5459 14ce 7D       		.byte	0x7d
 5460 14cf 10       		.sleb128 16
 5461 14d0 03       		.uleb128 0x3
 5462 14d1 91       		.byte	0x91
 5463 14d2 08       		.sleb128 8
 5464 14d3 06       		.byte	0x6
 5465 14d4 00       		.byte	0
 5466 14d5 24       		.uleb128 0x24
 5467 14d6 62000000 		.4byte	.LVL142
 5468 14da FB1B0000 		.4byte	0x1bfb
 5469 14de EA140000 		.4byte	0x14ea
 5470 14e2 25       		.uleb128 0x25
 5471 14e3 01       		.uleb128 0x1
 5472 14e4 50       		.byte	0x50
 5473 14e5 03       		.uleb128 0x3
 5474 14e6 91       		.byte	0x91
 5475 14e7 60       		.sleb128 -32
 5476 14e8 06       		.byte	0x6
 5477 14e9 00       		.byte	0
 5478 14ea 26       		.uleb128 0x26
 5479 14eb 7A000000 		.4byte	.LVL144
 5480 14ef 071C0000 		.4byte	0x1c07
 5481 14f3 25       		.uleb128 0x25
 5482 14f4 01       		.uleb128 0x1
 5483 14f5 50       		.byte	0x50
 5484 14f6 03       		.uleb128 0x3
 5485 14f7 91       		.byte	0x91
 5486 14f8 60       		.sleb128 -32
 5487 14f9 06       		.byte	0x6
 5488 14fa 25       		.uleb128 0x25
 5489 14fb 01       		.uleb128 0x1
 5490 14fc 51       		.byte	0x51
 5491 14fd 03       		.uleb128 0x3
 5492 14fe 91       		.byte	0x91
 5493 14ff 64       		.sleb128 -28
 5494 1500 06       		.byte	0x6
 5495 1501 25       		.uleb128 0x25
 5496 1502 01       		.uleb128 0x1
 5497 1503 52       		.byte	0x52
 5498 1504 03       		.uleb128 0x3
 5499 1505 91       		.byte	0x91
 5500 1506 00       		.sleb128 0
 5501 1507 06       		.byte	0x6
 5502 1508 25       		.uleb128 0x25
 5503 1509 02       		.uleb128 0x2
 5504 150a 7D       		.byte	0x7d
 5505 150b 00       		.sleb128 0
 5506 150c 03       		.uleb128 0x3
 5507 150d 91       		.byte	0x91
 5508 150e 04       		.sleb128 4
 5509 150f 06       		.byte	0x6
 5510 1510 25       		.uleb128 0x25
ARM GAS  C:\Users\ikomb\AppData\Local\Temp\cc5YtlHT.s 			page 149


 5511 1511 02       		.uleb128 0x2
 5512 1512 7D       		.byte	0x7d
 5513 1513 04       		.sleb128 4
 5514 1514 03       		.uleb128 0x3
 5515 1515 91       		.byte	0x91
 5516 1516 08       		.sleb128 8
 5517 1517 06       		.byte	0x6
 5518 1518 00       		.byte	0
 5519 1519 00       		.byte	0
 5520 151a 13       		.uleb128 0x13
 5521 151b 04       		.byte	0x4
 5522 151c 12080000 		.4byte	0x812
 5523 1520 21       		.uleb128 0x21
 5524 1521 A1030000 		.4byte	.LASF218
 5525 1525 01       		.byte	0x1
 5526 1526 4C03     		.2byte	0x34c
 5527 1528 1B070000 		.4byte	0x71b
 5528 152c 00000000 		.4byte	.LFB101
 5529 1530 90000000 		.4byte	.LFE101-.LFB101
 5530 1534 01       		.uleb128 0x1
 5531 1535 9C       		.byte	0x9c
 5532 1536 9C160000 		.4byte	0x169c
 5533 153a 22       		.uleb128 0x22
 5534 153b 9E040000 		.4byte	.LASF184
 5535 153f 01       		.byte	0x1
 5536 1540 4C03     		.2byte	0x34c
 5537 1542 280B0000 		.4byte	0xb28
 5538 1546 96080000 		.4byte	.LLST58
 5539 154a 22       		.uleb128 0x22
 5540 154b 3C000000 		.4byte	.LASF191
 5541 154f 01       		.byte	0x1
 5542 1550 4D03     		.2byte	0x34d
 5543 1552 8D0B0000 		.4byte	0xb8d
 5544 1556 CC080000 		.4byte	.LLST59
 5545 155a 22       		.uleb128 0x22
 5546 155b 1F0E0000 		.4byte	.LASF213
 5547 155f 01       		.byte	0x1
 5548 1560 4E03     		.2byte	0x34e
 5549 1562 D50A0000 		.4byte	0xad5
 5550 1566 06090000 		.4byte	.LLST60
 5551 156a 22       		.uleb128 0x22
 5552 156b 62050000 		.4byte	.LASF219
 5553 156f 01       		.byte	0x1
 5554 1570 4F03     		.2byte	0x34f
 5555 1572 130E0000 		.4byte	0xe13
 5556 1576 48090000 		.4byte	.LLST61
 5557 157a 27       		.uleb128 0x27
 5558 157b 55090000 		.4byte	.LASF201
 5559 157f 01       		.byte	0x1
 5560 1580 5003     		.2byte	0x350
 5561 1582 8C000000 		.4byte	0x8c
 5562 1586 02       		.uleb128 0x2
 5563 1587 91       		.byte	0x91
 5564 1588 00       		.sleb128 0
 5565 1589 27       		.uleb128 0x27
 5566 158a E3070000 		.4byte	.LASF215
 5567 158e 01       		.byte	0x1
ARM GAS  C:\Users\ikomb\AppData\Local\Temp\cc5YtlHT.s 			page 150


 5568 158f 5103     		.2byte	0x351
 5569 1591 59070000 		.4byte	0x759
 5570 1595 02       		.uleb128 0x2
 5571 1596 91       		.byte	0x91
 5572 1597 04       		.sleb128 4
 5573 1598 27       		.uleb128 0x27
 5574 1599 FF080000 		.4byte	.LASF192
 5575 159d 01       		.byte	0x1
 5576 159e 5203     		.2byte	0x352
 5577 15a0 1A150000 		.4byte	0x151a
 5578 15a4 02       		.uleb128 0x2
 5579 15a5 91       		.byte	0x91
 5580 15a6 08       		.sleb128 8
 5581 15a7 23       		.uleb128 0x23
 5582 15a8 AF040000 		.4byte	.LASF181
 5583 15ac 01       		.byte	0x1
 5584 15ad 5403     		.2byte	0x354
 5585 15af 1B070000 		.4byte	0x71b
 5586 15b3 67090000 		.4byte	.LLST62
 5587 15b7 23       		.uleb128 0x23
 5588 15b8 C00B0000 		.4byte	.LASF216
 5589 15bc 01       		.byte	0x1
 5590 15bd 5503     		.2byte	0x355
 5591 15bf 4D070000 		.4byte	0x74d
 5592 15c3 C6090000 		.4byte	.LLST63
 5593 15c7 23       		.uleb128 0x23
 5594 15c8 CA030000 		.4byte	.LASF185
 5595 15cc 01       		.byte	0x1
 5596 15cd 5603     		.2byte	0x356
 5597 15cf 070A0000 		.4byte	0xa07
 5598 15d3 D9090000 		.4byte	.LLST64
 5599 15d7 23       		.uleb128 0x23
 5600 15d8 EB080000 		.4byte	.LASF220
 5601 15dc 01       		.byte	0x1
 5602 15dd 5703     		.2byte	0x357
 5603 15df 90090000 		.4byte	0x990
 5604 15e3 060A0000 		.4byte	.LLST65
 5605 15e7 24       		.uleb128 0x24
 5606 15e8 3A000000 		.4byte	.LVL159
 5607 15ec E31B0000 		.4byte	0x1be3
 5608 15f0 18160000 		.4byte	0x1618
 5609 15f4 25       		.uleb128 0x25
 5610 15f5 01       		.uleb128 0x1
 5611 15f6 50       		.byte	0x50
 5612 15f7 03       		.uleb128 0x3
 5613 15f8 91       		.byte	0x91
 5614 15f9 60       		.sleb128 -32
 5615 15fa 06       		.byte	0x6
 5616 15fb 25       		.uleb128 0x25
 5617 15fc 01       		.uleb128 0x1
 5618 15fd 53       		.byte	0x53
 5619 15fe 02       		.uleb128 0x2
 5620 15ff 77       		.byte	0x77
 5621 1600 00       		.sleb128 0
 5622 1601 25       		.uleb128 0x25
 5623 1602 02       		.uleb128 0x2
 5624 1603 7D       		.byte	0x7d
ARM GAS  C:\Users\ikomb\AppData\Local\Temp\cc5YtlHT.s 			page 151


 5625 1604 08       		.sleb128 8
 5626 1605 02       		.uleb128 0x2
 5627 1606 76       		.byte	0x76
 5628 1607 00       		.sleb128 0
 5629 1608 25       		.uleb128 0x25
 5630 1609 02       		.uleb128 0x2
 5631 160a 7D       		.byte	0x7d
 5632 160b 0C       		.sleb128 12
 5633 160c 02       		.uleb128 0x2
 5634 160d 75       		.byte	0x75
 5635 160e 00       		.sleb128 0
 5636 160f 25       		.uleb128 0x25
 5637 1610 02       		.uleb128 0x2
 5638 1611 7D       		.byte	0x7d
 5639 1612 10       		.sleb128 16
 5640 1613 03       		.uleb128 0x3
 5641 1614 91       		.byte	0x91
 5642 1615 08       		.sleb128 8
 5643 1616 06       		.byte	0x6
 5644 1617 00       		.byte	0
 5645 1618 24       		.uleb128 0x24
 5646 1619 4A000000 		.4byte	.LVL161
 5647 161d FB1B0000 		.4byte	0x1bfb
 5648 1621 2D160000 		.4byte	0x162d
 5649 1625 25       		.uleb128 0x25
 5650 1626 01       		.uleb128 0x1
 5651 1627 50       		.byte	0x50
 5652 1628 03       		.uleb128 0x3
 5653 1629 91       		.byte	0x91
 5654 162a 60       		.sleb128 -32
 5655 162b 06       		.byte	0x6
 5656 162c 00       		.byte	0
 5657 162d 24       		.uleb128 0x24
 5658 162e 6C000000 		.4byte	.LVL163
 5659 1632 E31B0000 		.4byte	0x1be3
 5660 1636 6C160000 		.4byte	0x166c
 5661 163a 25       		.uleb128 0x25
 5662 163b 01       		.uleb128 0x1
 5663 163c 50       		.byte	0x50
 5664 163d 03       		.uleb128 0x3
 5665 163e 91       		.byte	0x91
 5666 163f 60       		.sleb128 -32
 5667 1640 06       		.byte	0x6
 5668 1641 25       		.uleb128 0x25
 5669 1642 01       		.uleb128 0x1
 5670 1643 53       		.byte	0x53
 5671 1644 02       		.uleb128 0x2
 5672 1645 75       		.byte	0x75
 5673 1646 00       		.sleb128 0
 5674 1647 25       		.uleb128 0x25
 5675 1648 02       		.uleb128 0x2
 5676 1649 7D       		.byte	0x7d
 5677 164a 00       		.sleb128 0
 5678 164b 02       		.uleb128 0x2
 5679 164c 75       		.byte	0x75
 5680 164d 00       		.sleb128 0
 5681 164e 25       		.uleb128 0x25
ARM GAS  C:\Users\ikomb\AppData\Local\Temp\cc5YtlHT.s 			page 152


 5682 164f 02       		.uleb128 0x2
 5683 1650 7D       		.byte	0x7d
 5684 1651 04       		.sleb128 4
 5685 1652 02       		.uleb128 0x2
 5686 1653 75       		.byte	0x75
 5687 1654 00       		.sleb128 0
 5688 1655 25       		.uleb128 0x25
 5689 1656 02       		.uleb128 0x2
 5690 1657 7D       		.byte	0x7d
 5691 1658 08       		.sleb128 8
 5692 1659 02       		.uleb128 0x2
 5693 165a 76       		.byte	0x76
 5694 165b 00       		.sleb128 0
 5695 165c 25       		.uleb128 0x25
 5696 165d 02       		.uleb128 0x2
 5697 165e 7D       		.byte	0x7d
 5698 165f 0C       		.sleb128 12
 5699 1660 02       		.uleb128 0x2
 5700 1661 75       		.byte	0x75
 5701 1662 00       		.sleb128 0
 5702 1663 25       		.uleb128 0x25
 5703 1664 02       		.uleb128 0x2
 5704 1665 7D       		.byte	0x7d
 5705 1666 10       		.sleb128 16
 5706 1667 03       		.uleb128 0x3
 5707 1668 91       		.byte	0x91
 5708 1669 08       		.sleb128 8
 5709 166a 06       		.byte	0x6
 5710 166b 00       		.byte	0
 5711 166c 26       		.uleb128 0x26
 5712 166d 84000000 		.4byte	.LVL165
 5713 1671 131C0000 		.4byte	0x1c13
 5714 1675 25       		.uleb128 0x25
 5715 1676 01       		.uleb128 0x1
 5716 1677 50       		.byte	0x50
 5717 1678 03       		.uleb128 0x3
 5718 1679 91       		.byte	0x91
 5719 167a 60       		.sleb128 -32
 5720 167b 06       		.byte	0x6
 5721 167c 25       		.uleb128 0x25
 5722 167d 01       		.uleb128 0x1
 5723 167e 51       		.byte	0x51
 5724 167f 03       		.uleb128 0x3
 5725 1680 91       		.byte	0x91
 5726 1681 64       		.sleb128 -28
 5727 1682 06       		.byte	0x6
 5728 1683 25       		.uleb128 0x25
 5729 1684 01       		.uleb128 0x1
 5730 1685 52       		.byte	0x52
 5731 1686 03       		.uleb128 0x3
 5732 1687 91       		.byte	0x91
 5733 1688 00       		.sleb128 0
 5734 1689 06       		.byte	0x6
 5735 168a 25       		.uleb128 0x25
 5736 168b 02       		.uleb128 0x2
 5737 168c 7D       		.byte	0x7d
 5738 168d 00       		.sleb128 0
ARM GAS  C:\Users\ikomb\AppData\Local\Temp\cc5YtlHT.s 			page 153


 5739 168e 03       		.uleb128 0x3
 5740 168f 91       		.byte	0x91
 5741 1690 04       		.sleb128 4
 5742 1691 06       		.byte	0x6
 5743 1692 25       		.uleb128 0x25
 5744 1693 02       		.uleb128 0x2
 5745 1694 7D       		.byte	0x7d
 5746 1695 04       		.sleb128 4
 5747 1696 03       		.uleb128 0x3
 5748 1697 91       		.byte	0x91
 5749 1698 08       		.sleb128 8
 5750 1699 06       		.byte	0x6
 5751 169a 00       		.byte	0
 5752 169b 00       		.byte	0
 5753 169c 21       		.uleb128 0x21
 5754 169d 64080000 		.4byte	.LASF221
 5755 16a1 01       		.byte	0x1
 5756 16a2 AA03     		.2byte	0x3aa
 5757 16a4 1B070000 		.4byte	0x71b
 5758 16a8 00000000 		.4byte	.LFB102
 5759 16ac 60040000 		.4byte	.LFE102-.LFB102
 5760 16b0 01       		.uleb128 0x1
 5761 16b1 9C       		.byte	0x9c
 5762 16b2 DF190000 		.4byte	0x19df
 5763 16b6 22       		.uleb128 0x22
 5764 16b7 9E040000 		.4byte	.LASF184
 5765 16bb 01       		.byte	0x1
 5766 16bc AA03     		.2byte	0x3aa
 5767 16be 280B0000 		.4byte	0xb28
 5768 16c2 190A0000 		.4byte	.LLST66
 5769 16c6 22       		.uleb128 0x22
 5770 16c7 CA030000 		.4byte	.LASF185
 5771 16cb 01       		.byte	0x1
 5772 16cc AB03     		.2byte	0x3ab
 5773 16ce 070A0000 		.4byte	0xa07
 5774 16d2 390A0000 		.4byte	.LLST67
 5775 16d6 22       		.uleb128 0x22
 5776 16d7 F3080000 		.4byte	.LASF162
 5777 16db 01       		.byte	0x1
 5778 16dc AC03     		.2byte	0x3ac
 5779 16de 4D070000 		.4byte	0x74d
 5780 16e2 650A0000 		.4byte	.LLST68
 5781 16e6 22       		.uleb128 0x22
 5782 16e7 650F0000 		.4byte	.LASF164
 5783 16eb 01       		.byte	0x1
 5784 16ec AD03     		.2byte	0x3ad
 5785 16ee 66060000 		.4byte	0x666
 5786 16f2 860A0000 		.4byte	.LLST69
 5787 16f6 27       		.uleb128 0x27
 5788 16f7 FF080000 		.4byte	.LASF192
 5789 16fb 01       		.byte	0x1
 5790 16fc AE03     		.2byte	0x3ae
 5791 16fe 1A150000 		.4byte	0x151a
 5792 1702 02       		.uleb128 0x2
 5793 1703 91       		.byte	0x91
 5794 1704 00       		.sleb128 0
 5795 1705 28       		.uleb128 0x28
ARM GAS  C:\Users\ikomb\AppData\Local\Temp\cc5YtlHT.s 			page 154


 5796 1706 7D0C0000 		.4byte	.LASF222
 5797 170a 01       		.byte	0x1
 5798 170b B403     		.2byte	0x3b4
 5799 170d DF190000 		.4byte	0x19df
 5800 1711 03       		.uleb128 0x3
 5801 1712 91       		.byte	0x91
 5802 1713 E07D     		.sleb128 -288
 5803 1715 28       		.uleb128 0x28
 5804 1716 C60D0000 		.4byte	.LASF223
 5805 171a 01       		.byte	0x1
 5806 171b B503     		.2byte	0x3b5
 5807 171d 2D010000 		.4byte	0x12d
 5808 1721 03       		.uleb128 0x3
 5809 1722 91       		.byte	0x91
 5810 1723 DC7D     		.sleb128 -292
 5811 1725 23       		.uleb128 0x23
 5812 1726 AF040000 		.4byte	.LASF181
 5813 172a 01       		.byte	0x1
 5814 172b B603     		.2byte	0x3b6
 5815 172d 1B070000 		.4byte	0x71b
 5816 1731 A70A0000 		.4byte	.LLST70
 5817 1735 23       		.uleb128 0x23
 5818 1736 480E0000 		.4byte	.LASF224
 5819 173a 01       		.byte	0x1
 5820 173b B703     		.2byte	0x3b7
 5821 173d 90090000 		.4byte	0x990
 5822 1741 540B0000 		.4byte	.LLST71
 5823 1745 29       		.uleb128 0x29
 5824 1746 8A000000 		.4byte	.LBB15
 5825 174a 32000000 		.4byte	.LBE15-.LBB15
 5826 174e 9F170000 		.4byte	0x179f
 5827 1752 23       		.uleb128 0x23
 5828 1753 330D0000 		.4byte	.LASF225
 5829 1757 01       		.byte	0x1
 5830 1758 CD03     		.2byte	0x3cd
 5831 175a 8C000000 		.4byte	0x8c
 5832 175e 670B0000 		.4byte	.LLST72
 5833 1762 2C       		.uleb128 0x2c
 5834 1763 6F0A0000 		.4byte	0xa6f
 5835 1767 90000000 		.4byte	.LBB16
 5836 176b 1A000000 		.4byte	.LBE16-.LBB16
 5837 176f 01       		.byte	0x1
 5838 1770 D203     		.2byte	0x3d2
 5839 1772 2D       		.uleb128 0x2d
 5840 1773 800A0000 		.4byte	0xa80
 5841 1777 7A0B0000 		.4byte	.LLST73
 5842 177b 2B       		.uleb128 0x2b
 5843 177c 90000000 		.4byte	.LBB17
 5844 1780 1A000000 		.4byte	.LBE17-.LBB17
 5845 1784 2E       		.uleb128 0x2e
 5846 1785 8C0A0000 		.4byte	0xa8c
 5847 1789 920B0000 		.4byte	.LLST74
 5848 178d 26       		.uleb128 0x26
 5849 178e 9A000000 		.4byte	.LVL187
 5850 1792 1F1C0000 		.4byte	0x1c1f
 5851 1796 25       		.uleb128 0x25
 5852 1797 01       		.uleb128 0x1
ARM GAS  C:\Users\ikomb\AppData\Local\Temp\cc5YtlHT.s 			page 155


 5853 1798 50       		.byte	0x50
 5854 1799 01       		.uleb128 0x1
 5855 179a 31       		.byte	0x31
 5856 179b 00       		.byte	0
 5857 179c 00       		.byte	0
 5858 179d 00       		.byte	0
 5859 179e 00       		.byte	0
 5860 179f 29       		.uleb128 0x29
 5861 17a0 FE000000 		.4byte	.LBB18
 5862 17a4 36030000 		.4byte	.LBE18-.LBB18
 5863 17a8 01190000 		.4byte	0x1901
 5864 17ac 23       		.uleb128 0x23
 5865 17ad EE050000 		.4byte	.LASF226
 5866 17b1 01       		.byte	0x1
 5867 17b2 E003     		.2byte	0x3e0
 5868 17b4 81000000 		.4byte	0x81
 5869 17b8 A60B0000 		.4byte	.LLST75
 5870 17bc 23       		.uleb128 0x23
 5871 17bd EB080000 		.4byte	.LASF220
 5872 17c1 01       		.byte	0x1
 5873 17c2 E103     		.2byte	0x3e1
 5874 17c4 90090000 		.4byte	0x990
 5875 17c8 D30B0000 		.4byte	.LLST76
 5876 17cc 23       		.uleb128 0x23
 5877 17cd 370C0000 		.4byte	.LASF227
 5878 17d1 01       		.byte	0x1
 5879 17d2 E403     		.2byte	0x3e4
 5880 17d4 8C000000 		.4byte	0x8c
 5881 17d8 E60B0000 		.4byte	.LLST77
 5882 17dc 23       		.uleb128 0x23
 5883 17dd E8040000 		.4byte	.LASF228
 5884 17e1 01       		.byte	0x1
 5885 17e2 E503     		.2byte	0x3e5
 5886 17e4 8C000000 		.4byte	0x8c
 5887 17e8 040C0000 		.4byte	.LLST78
 5888 17ec 23       		.uleb128 0x23
 5889 17ed E3010000 		.4byte	.LASF229
 5890 17f1 01       		.byte	0x1
 5891 17f2 F803     		.2byte	0x3f8
 5892 17f4 8C000000 		.4byte	0x8c
 5893 17f8 5C0C0000 		.4byte	.LLST79
 5894 17fc 23       		.uleb128 0x23
 5895 17fd 1B0A0000 		.4byte	.LASF230
 5896 1801 01       		.byte	0x1
 5897 1802 FA03     		.2byte	0x3fa
 5898 1804 8C000000 		.4byte	0x8c
 5899 1808 8F0C0000 		.4byte	.LLST80
 5900 180c 23       		.uleb128 0x23
 5901 180d 950D0000 		.4byte	.LASF231
 5902 1811 01       		.byte	0x1
 5903 1812 FB03     		.2byte	0x3fb
 5904 1814 8C000000 		.4byte	0x8c
 5905 1818 3E0D0000 		.4byte	.LLST81
 5906 181c 23       		.uleb128 0x23
 5907 181d F70E0000 		.4byte	.LASF232
 5908 1821 01       		.byte	0x1
 5909 1822 FC03     		.2byte	0x3fc
ARM GAS  C:\Users\ikomb\AppData\Local\Temp\cc5YtlHT.s 			page 156


 5910 1824 8C000000 		.4byte	0x8c
 5911 1828 5C0D0000 		.4byte	.LLST82
 5912 182c 23       		.uleb128 0x23
 5913 182d FC090000 		.4byte	.LASF233
 5914 1831 01       		.byte	0x1
 5915 1832 FD03     		.2byte	0x3fd
 5916 1834 8C000000 		.4byte	0x8c
 5917 1838 7C0D0000 		.4byte	.LLST83
 5918 183c 23       		.uleb128 0x23
 5919 183d B1000000 		.4byte	.LASF234
 5920 1841 01       		.byte	0x1
 5921 1842 1604     		.2byte	0x416
 5922 1844 8C000000 		.4byte	0x8c
 5923 1848 CE0D0000 		.4byte	.LLST84
 5924 184c 23       		.uleb128 0x23
 5925 184d 4E030000 		.4byte	.LASF235
 5926 1851 01       		.byte	0x1
 5927 1852 1804     		.2byte	0x418
 5928 1854 8C000000 		.4byte	0x8c
 5929 1858 EC0D0000 		.4byte	.LLST85
 5930 185c 23       		.uleb128 0x23
 5931 185d DC080000 		.4byte	.LASF236
 5932 1861 01       		.byte	0x1
 5933 1862 1904     		.2byte	0x419
 5934 1864 8C000000 		.4byte	0x8c
 5935 1868 910E0000 		.4byte	.LLST86
 5936 186c 23       		.uleb128 0x23
 5937 186d 92070000 		.4byte	.LASF237
 5938 1871 01       		.byte	0x1
 5939 1872 1A04     		.2byte	0x41a
 5940 1874 8C000000 		.4byte	0x8c
 5941 1878 6A0F0000 		.4byte	.LLST87
 5942 187c 23       		.uleb128 0x23
 5943 187d 19080000 		.4byte	.LASF238
 5944 1881 01       		.byte	0x1
 5945 1882 3204     		.2byte	0x432
 5946 1884 8C000000 		.4byte	0x8c
 5947 1888 BF0F0000 		.4byte	.LLST88
 5948 188c 23       		.uleb128 0x23
 5949 188d CE0A0000 		.4byte	.LASF239
 5950 1891 01       		.byte	0x1
 5951 1892 3304     		.2byte	0x433
 5952 1894 8C000000 		.4byte	0x8c
 5953 1898 E90F0000 		.4byte	.LLST89
 5954 189c 23       		.uleb128 0x23
 5955 189d 700F0000 		.4byte	.LASF240
 5956 18a1 01       		.byte	0x1
 5957 18a2 3404     		.2byte	0x434
 5958 18a4 8C000000 		.4byte	0x8c
 5959 18a8 09100000 		.4byte	.LLST90
 5960 18ac 23       		.uleb128 0x23
 5961 18ad 3B030000 		.4byte	.LASF241
 5962 18b1 01       		.byte	0x1
 5963 18b2 3504     		.2byte	0x435
 5964 18b4 8C000000 		.4byte	0x8c
 5965 18b8 29100000 		.4byte	.LLST91
 5966 18bc 28       		.uleb128 0x28
ARM GAS  C:\Users\ikomb\AppData\Local\Temp\cc5YtlHT.s 			page 157


 5967 18bd B0010000 		.4byte	.LASF242
 5968 18c1 01       		.byte	0x1
 5969 18c2 4404     		.2byte	0x444
 5970 18c4 8C000000 		.4byte	0x8c
 5971 18c8 01       		.uleb128 0x1
 5972 18c9 51       		.byte	0x51
 5973 18ca 2C       		.uleb128 0x2c
 5974 18cb 9F0A0000 		.4byte	0xa9f
 5975 18cf 06020000 		.4byte	.LBB19
 5976 18d3 1A000000 		.4byte	.LBE19-.LBB19
 5977 18d7 01       		.byte	0x1
 5978 18d8 4404     		.2byte	0x444
 5979 18da 2D       		.uleb128 0x2d
 5980 18db BC0A0000 		.4byte	0xabc
 5981 18df 3C100000 		.4byte	.LLST92
 5982 18e3 2D       		.uleb128 0x2d
 5983 18e4 B00A0000 		.4byte	0xab0
 5984 18e8 50100000 		.4byte	.LLST93
 5985 18ec 2B       		.uleb128 0x2b
 5986 18ed 06020000 		.4byte	.LBB20
 5987 18f1 1A000000 		.4byte	.LBE20-.LBB20
 5988 18f5 2E       		.uleb128 0x2e
 5989 18f6 C80A0000 		.4byte	0xac8
 5990 18fa 77100000 		.4byte	.LLST94
 5991 18fe 00       		.byte	0
 5992 18ff 00       		.byte	0
 5993 1900 00       		.byte	0
 5994 1901 24       		.uleb128 0x24
 5995 1902 20000000 		.4byte	.LVL173
 5996 1906 D71B0000 		.4byte	0x1bd7
 5997 190a 1F190000 		.4byte	0x191f
 5998 190e 25       		.uleb128 0x25
 5999 190f 01       		.uleb128 0x1
 6000 1910 50       		.byte	0x50
 6001 1911 05       		.uleb128 0x5
 6002 1912 03       		.byte	0x3
 6003 1913 00000000 		.4byte	.LC0
 6004 1917 25       		.uleb128 0x25
 6005 1918 01       		.uleb128 0x1
 6006 1919 51       		.byte	0x51
 6007 191a 03       		.uleb128 0x3
 6008 191b 0A       		.byte	0xa
 6009 191c B103     		.2byte	0x3b1
 6010 191e 00       		.byte	0
 6011 191f 24       		.uleb128 0x24
 6012 1920 2E000000 		.4byte	.LVL174
 6013 1924 D71B0000 		.4byte	0x1bd7
 6014 1928 3D190000 		.4byte	0x193d
 6015 192c 25       		.uleb128 0x25
 6016 192d 01       		.uleb128 0x1
 6017 192e 50       		.byte	0x50
 6018 192f 05       		.uleb128 0x5
 6019 1930 03       		.byte	0x3
 6020 1931 00000000 		.4byte	.LC0
 6021 1935 25       		.uleb128 0x25
 6022 1936 01       		.uleb128 0x1
 6023 1937 51       		.byte	0x51
ARM GAS  C:\Users\ikomb\AppData\Local\Temp\cc5YtlHT.s 			page 158


 6024 1938 03       		.uleb128 0x3
 6025 1939 0A       		.byte	0xa
 6026 193a B203     		.2byte	0x3b2
 6027 193c 00       		.byte	0
 6028 193d 24       		.uleb128 0x24
 6029 193e 44000000 		.4byte	.LVL176
 6030 1942 2B1C0000 		.4byte	0x1c2b
 6031 1946 65190000 		.4byte	0x1965
 6032 194a 25       		.uleb128 0x25
 6033 194b 01       		.uleb128 0x1
 6034 194c 50       		.byte	0x50
 6035 194d 04       		.uleb128 0x4
 6036 194e 91       		.byte	0x91
 6037 194f CC7D     		.sleb128 -308
 6038 1951 06       		.byte	0x6
 6039 1952 25       		.uleb128 0x25
 6040 1953 01       		.uleb128 0x1
 6041 1954 51       		.byte	0x51
 6042 1955 05       		.uleb128 0x5
 6043 1956 91       		.byte	0x91
 6044 1957 D07D     		.sleb128 -304
 6045 1959 94       		.byte	0x94
 6046 195a 01       		.byte	0x1
 6047 195b 25       		.uleb128 0x25
 6048 195c 01       		.uleb128 0x1
 6049 195d 52       		.byte	0x52
 6050 195e 05       		.uleb128 0x5
 6051 195f 91       		.byte	0x91
 6052 1960 D47D     		.sleb128 -300
 6053 1962 94       		.byte	0x94
 6054 1963 01       		.byte	0x1
 6055 1964 00       		.byte	0
 6056 1965 24       		.uleb128 0x24
 6057 1966 60000000 		.4byte	.LVL177
 6058 196a E31B0000 		.4byte	0x1be3
 6059 196e 9C190000 		.4byte	0x199c
 6060 1972 25       		.uleb128 0x25
 6061 1973 01       		.uleb128 0x1
 6062 1974 50       		.byte	0x50
 6063 1975 04       		.uleb128 0x4
 6064 1976 91       		.byte	0x91
 6065 1977 CC7D     		.sleb128 -308
 6066 1979 06       		.byte	0x6
 6067 197a 25       		.uleb128 0x25
 6068 197b 01       		.uleb128 0x1
 6069 197c 53       		.byte	0x53
 6070 197d 03       		.uleb128 0x3
 6071 197e 91       		.byte	0x91
 6072 197f DC7D     		.sleb128 -292
 6073 1981 25       		.uleb128 0x25
 6074 1982 02       		.uleb128 0x2
 6075 1983 7D       		.byte	0x7d
 6076 1984 00       		.sleb128 0
 6077 1985 01       		.uleb128 0x1
 6078 1986 33       		.byte	0x33
 6079 1987 25       		.uleb128 0x25
 6080 1988 02       		.uleb128 0x2
ARM GAS  C:\Users\ikomb\AppData\Local\Temp\cc5YtlHT.s 			page 159


 6081 1989 7D       		.byte	0x7d
 6082 198a 08       		.sleb128 8
 6083 198b 02       		.uleb128 0x2
 6084 198c 74       		.byte	0x74
 6085 198d 00       		.sleb128 0
 6086 198e 25       		.uleb128 0x25
 6087 198f 02       		.uleb128 0x2
 6088 1990 7D       		.byte	0x7d
 6089 1991 0C       		.sleb128 12
 6090 1992 01       		.uleb128 0x1
 6091 1993 30       		.byte	0x30
 6092 1994 25       		.uleb128 0x25
 6093 1995 02       		.uleb128 0x2
 6094 1996 7D       		.byte	0x7d
 6095 1997 10       		.sleb128 16
 6096 1998 02       		.uleb128 0x2
 6097 1999 76       		.byte	0x76
 6098 199a 00       		.sleb128 0
 6099 199b 00       		.byte	0
 6100 199c 24       		.uleb128 0x24
 6101 199d 6C000000 		.4byte	.LVL180
 6102 19a1 FB1B0000 		.4byte	0x1bfb
 6103 19a5 B2190000 		.4byte	0x19b2
 6104 19a9 25       		.uleb128 0x25
 6105 19aa 01       		.uleb128 0x1
 6106 19ab 50       		.byte	0x50
 6107 19ac 04       		.uleb128 0x4
 6108 19ad 91       		.byte	0x91
 6109 19ae CC7D     		.sleb128 -308
 6110 19b0 06       		.byte	0x6
 6111 19b1 00       		.byte	0
 6112 19b2 26       		.uleb128 0x26
 6113 19b3 84000000 		.4byte	.LVL183
 6114 19b7 131C0000 		.4byte	0x1c13
 6115 19bb 25       		.uleb128 0x25
 6116 19bc 01       		.uleb128 0x1
 6117 19bd 50       		.byte	0x50
 6118 19be 04       		.uleb128 0x4
 6119 19bf 91       		.byte	0x91
 6120 19c0 CC7D     		.sleb128 -308
 6121 19c2 06       		.byte	0x6
 6122 19c3 25       		.uleb128 0x25
 6123 19c4 01       		.uleb128 0x1
 6124 19c5 51       		.byte	0x51
 6125 19c6 03       		.uleb128 0x3
 6126 19c7 91       		.byte	0x91
 6127 19c8 E07D     		.sleb128 -288
 6128 19ca 25       		.uleb128 0x25
 6129 19cb 01       		.uleb128 0x1
 6130 19cc 52       		.byte	0x52
 6131 19cd 02       		.uleb128 0x2
 6132 19ce 08       		.byte	0x8
 6133 19cf FF       		.byte	0xff
 6134 19d0 25       		.uleb128 0x25
 6135 19d1 02       		.uleb128 0x2
 6136 19d2 7D       		.byte	0x7d
 6137 19d3 00       		.sleb128 0
ARM GAS  C:\Users\ikomb\AppData\Local\Temp\cc5YtlHT.s 			page 160


 6138 19d4 01       		.uleb128 0x1
 6139 19d5 30       		.byte	0x30
 6140 19d6 25       		.uleb128 0x25
 6141 19d7 02       		.uleb128 0x2
 6142 19d8 7D       		.byte	0x7d
 6143 19d9 04       		.sleb128 4
 6144 19da 02       		.uleb128 0x2
 6145 19db 76       		.byte	0x76
 6146 19dc 00       		.sleb128 0
 6147 19dd 00       		.byte	0
 6148 19de 00       		.byte	0
 6149 19df 07       		.uleb128 0x7
 6150 19e0 81000000 		.4byte	0x81
 6151 19e4 EF190000 		.4byte	0x19ef
 6152 19e8 08       		.uleb128 0x8
 6153 19e9 97000000 		.4byte	0x97
 6154 19ed FE       		.byte	0xfe
 6155 19ee 00       		.byte	0
 6156 19ef 2F       		.uleb128 0x2f
 6157 19f0 9E070000 		.4byte	.LASF243
 6158 19f4 01       		.byte	0x1
 6159 19f5 43       		.byte	0x43
 6160 19f6 1B070000 		.4byte	0x71b
 6161 19fa 00000000 		.4byte	.LFB89
 6162 19fe C4010000 		.4byte	.LFE89-.LFB89
 6163 1a02 01       		.uleb128 0x1
 6164 1a03 9C       		.byte	0x9c
 6165 1a04 CC1B0000 		.4byte	0x1bcc
 6166 1a08 1D       		.uleb128 0x1d
 6167 1a09 9E040000 		.4byte	.LASF184
 6168 1a0d 01       		.byte	0x1
 6169 1a0e 43       		.byte	0x43
 6170 1a0f 280B0000 		.4byte	0xb28
 6171 1a13 96100000 		.4byte	.LLST95
 6172 1a17 1D       		.uleb128 0x1d
 6173 1a18 42030000 		.4byte	.LASF244
 6174 1a1c 01       		.byte	0x1
 6175 1a1d 44       		.byte	0x44
 6176 1a1e D21B0000 		.4byte	0x1bd2
 6177 1a22 30110000 		.4byte	.LLST96
 6178 1a26 1D       		.uleb128 0x1d
 6179 1a27 FF080000 		.4byte	.LASF192
 6180 1a2b 01       		.byte	0x1
 6181 1a2c 45       		.byte	0x45
 6182 1a2d 1A150000 		.4byte	0x151a
 6183 1a31 83110000 		.4byte	.LLST97
 6184 1a35 30       		.uleb128 0x30
 6185 1a36 CA030000 		.4byte	.LASF185
 6186 1a3a 01       		.byte	0x1
 6187 1a3b 47       		.byte	0x47
 6188 1a3c 1D0B0000 		.4byte	0xb1d
 6189 1a40 01       		.uleb128 0x1
 6190 1a41 55       		.byte	0x55
 6191 1a42 1E       		.uleb128 0x1e
 6192 1a43 4E090000 		.4byte	.LASF186
 6193 1a47 01       		.byte	0x1
 6194 1a48 48       		.byte	0x48
ARM GAS  C:\Users\ikomb\AppData\Local\Temp\cc5YtlHT.s 			page 161


 6195 1a49 8D0B0000 		.4byte	0xb8d
 6196 1a4d DB110000 		.4byte	.LLST98
 6197 1a51 1E       		.uleb128 0x1e
 6198 1a52 AF040000 		.4byte	.LASF181
 6199 1a56 01       		.byte	0x1
 6200 1a57 49       		.byte	0x49
 6201 1a58 8C000000 		.4byte	0x8c
 6202 1a5c F9110000 		.4byte	.LLST99
 6203 1a60 1E       		.uleb128 0x1e
 6204 1a61 2C070000 		.4byte	.LASF245
 6205 1a65 01       		.byte	0x1
 6206 1a66 4A       		.byte	0x4a
 6207 1a67 8C000000 		.4byte	0x8c
 6208 1a6b 27120000 		.4byte	.LLST100
 6209 1a6f 31       		.uleb128 0x31
 6210 1a70 69647800 		.ascii	"idx\000"
 6211 1a74 01       		.byte	0x1
 6212 1a75 4B       		.byte	0x4b
 6213 1a76 8C000000 		.4byte	0x8c
 6214 1a7a 95120000 		.4byte	.LLST101
 6215 1a7e 32       		.uleb128 0x32
 6216 1a7f 00000000 		.4byte	.Ldebug_ranges0+0
 6217 1a83 33       		.uleb128 0x33
 6218 1a84 55090000 		.4byte	.LASF201
 6219 1a88 01       		.byte	0x1
 6220 1a89 50       		.byte	0x50
 6221 1a8a 8C000000 		.4byte	0x8c
 6222 1a8e 33       		.uleb128 0x33
 6223 1a8f 1F0F0000 		.4byte	.LASF246
 6224 1a93 01       		.byte	0x1
 6225 1a94 51       		.byte	0x51
 6226 1a95 570A0000 		.4byte	0xa57
 6227 1a99 34       		.uleb128 0x34
 6228 1a9a E70A0000 		.4byte	0xae7
 6229 1a9e 92000000 		.4byte	.LBB22
 6230 1aa2 38000000 		.4byte	.LBE22-.LBB22
 6231 1aa6 01       		.byte	0x1
 6232 1aa7 5F       		.byte	0x5f
 6233 1aa8 D21A0000 		.4byte	0x1ad2
 6234 1aac 2D       		.uleb128 0x2d
 6235 1aad 040B0000 		.4byte	0xb04
 6236 1ab1 BE120000 		.4byte	.LLST102
 6237 1ab5 2D       		.uleb128 0x2d
 6238 1ab6 F80A0000 		.4byte	0xaf8
 6239 1aba 2D130000 		.4byte	.LLST103
 6240 1abe 2B       		.uleb128 0x2b
 6241 1abf 92000000 		.4byte	.LBB23
 6242 1ac3 38000000 		.4byte	.LBE23-.LBB23
 6243 1ac7 2E       		.uleb128 0x2e
 6244 1ac8 100B0000 		.4byte	0xb10
 6245 1acc 40130000 		.4byte	.LLST104
 6246 1ad0 00       		.byte	0
 6247 1ad1 00       		.byte	0
 6248 1ad2 29       		.uleb128 0x29
 6249 1ad3 CE000000 		.4byte	.LBB24
 6250 1ad7 96000000 		.4byte	.LBE24-.LBB24
 6251 1adb 5A1B0000 		.4byte	0x1b5a
ARM GAS  C:\Users\ikomb\AppData\Local\Temp\cc5YtlHT.s 			page 162


 6252 1adf 1E       		.uleb128 0x1e
 6253 1ae0 34070000 		.4byte	.LASF247
 6254 1ae4 01       		.byte	0x1
 6255 1ae5 67       		.byte	0x67
 6256 1ae6 8C000000 		.4byte	0x8c
 6257 1aea 74130000 		.4byte	.LLST105
 6258 1aee 24       		.uleb128 0x24
 6259 1aef F8000000 		.4byte	.LVL306
 6260 1af3 9C160000 		.4byte	0x169c
 6261 1af7 091B0000 		.4byte	0x1b09
 6262 1afb 25       		.uleb128 0x25
 6263 1afc 01       		.uleb128 0x1
 6264 1afd 50       		.byte	0x50
 6265 1afe 02       		.uleb128 0x2
 6266 1aff 77       		.byte	0x77
 6267 1b00 00       		.sleb128 0
 6268 1b01 25       		.uleb128 0x25
 6269 1b02 02       		.uleb128 0x2
 6270 1b03 7D       		.byte	0x7d
 6271 1b04 00       		.sleb128 0
 6272 1b05 02       		.uleb128 0x2
 6273 1b06 7B       		.byte	0x7b
 6274 1b07 00       		.sleb128 0
 6275 1b08 00       		.byte	0
 6276 1b09 24       		.uleb128 0x24
 6277 1b0a 28010000 		.4byte	.LVL312
 6278 1b0e D71B0000 		.4byte	0x1bd7
 6279 1b12 261B0000 		.4byte	0x1b26
 6280 1b16 25       		.uleb128 0x25
 6281 1b17 01       		.uleb128 0x1
 6282 1b18 50       		.byte	0x50
 6283 1b19 05       		.uleb128 0x5
 6284 1b1a 03       		.byte	0x3
 6285 1b1b 00000000 		.4byte	.LC0
 6286 1b1f 25       		.uleb128 0x25
 6287 1b20 01       		.uleb128 0x1
 6288 1b21 51       		.byte	0x51
 6289 1b22 02       		.uleb128 0x2
 6290 1b23 08       		.byte	0x8
 6291 1b24 78       		.byte	0x78
 6292 1b25 00       		.byte	0
 6293 1b26 24       		.uleb128 0x24
 6294 1b27 3E010000 		.4byte	.LVL313
 6295 1b2b D71B0000 		.4byte	0x1bd7
 6296 1b2f 431B0000 		.4byte	0x1b43
 6297 1b33 25       		.uleb128 0x25
 6298 1b34 01       		.uleb128 0x1
 6299 1b35 50       		.byte	0x50
 6300 1b36 05       		.uleb128 0x5
 6301 1b37 03       		.byte	0x3
 6302 1b38 00000000 		.4byte	.LC0
 6303 1b3c 25       		.uleb128 0x25
 6304 1b3d 01       		.uleb128 0x1
 6305 1b3e 51       		.byte	0x51
 6306 1b3f 02       		.uleb128 0x2
 6307 1b40 08       		.byte	0x8
 6308 1b41 79       		.byte	0x79
ARM GAS  C:\Users\ikomb\AppData\Local\Temp\cc5YtlHT.s 			page 163


 6309 1b42 00       		.byte	0
 6310 1b43 26       		.uleb128 0x26
 6311 1b44 46010000 		.4byte	.LVL314
 6312 1b48 2E0B0000 		.4byte	0xb2e
 6313 1b4c 25       		.uleb128 0x25
 6314 1b4d 01       		.uleb128 0x1
 6315 1b4e 50       		.byte	0x50
 6316 1b4f 02       		.uleb128 0x2
 6317 1b50 75       		.byte	0x75
 6318 1b51 00       		.sleb128 0
 6319 1b52 25       		.uleb128 0x25
 6320 1b53 01       		.uleb128 0x1
 6321 1b54 51       		.byte	0x51
 6322 1b55 02       		.uleb128 0x2
 6323 1b56 74       		.byte	0x74
 6324 1b57 00       		.sleb128 0
 6325 1b58 00       		.byte	0
 6326 1b59 00       		.byte	0
 6327 1b5a 24       		.uleb128 0x24
 6328 1b5b 62000000 		.4byte	.LVL287
 6329 1b5f D71B0000 		.4byte	0x1bd7
 6330 1b63 771B0000 		.4byte	0x1b77
 6331 1b67 25       		.uleb128 0x25
 6332 1b68 01       		.uleb128 0x1
 6333 1b69 50       		.byte	0x50
 6334 1b6a 05       		.uleb128 0x5
 6335 1b6b 03       		.byte	0x3
 6336 1b6c 00000000 		.4byte	.LC0
 6337 1b70 25       		.uleb128 0x25
 6338 1b71 01       		.uleb128 0x1
 6339 1b72 51       		.byte	0x51
 6340 1b73 02       		.uleb128 0x2
 6341 1b74 08       		.byte	0x8
 6342 1b75 5A       		.byte	0x5a
 6343 1b76 00       		.byte	0
 6344 1b77 24       		.uleb128 0x24
 6345 1b78 70000000 		.4byte	.LVL288
 6346 1b7c D71B0000 		.4byte	0x1bd7
 6347 1b80 941B0000 		.4byte	0x1b94
 6348 1b84 25       		.uleb128 0x25
 6349 1b85 01       		.uleb128 0x1
 6350 1b86 50       		.byte	0x50
 6351 1b87 05       		.uleb128 0x5
 6352 1b88 03       		.byte	0x3
 6353 1b89 00000000 		.4byte	.LC0
 6354 1b8d 25       		.uleb128 0x25
 6355 1b8e 01       		.uleb128 0x1
 6356 1b8f 51       		.byte	0x51
 6357 1b90 02       		.uleb128 0x2
 6358 1b91 08       		.byte	0x8
 6359 1b92 5B       		.byte	0x5b
 6360 1b93 00       		.byte	0
 6361 1b94 24       		.uleb128 0x24
 6362 1b95 7E000000 		.4byte	.LVL289
 6363 1b99 D71B0000 		.4byte	0x1bd7
 6364 1b9d B11B0000 		.4byte	0x1bb1
 6365 1ba1 25       		.uleb128 0x25
ARM GAS  C:\Users\ikomb\AppData\Local\Temp\cc5YtlHT.s 			page 164


 6366 1ba2 01       		.uleb128 0x1
 6367 1ba3 50       		.byte	0x50
 6368 1ba4 05       		.uleb128 0x5
 6369 1ba5 03       		.byte	0x3
 6370 1ba6 00000000 		.4byte	.LC0
 6371 1baa 25       		.uleb128 0x25
 6372 1bab 01       		.uleb128 0x1
 6373 1bac 51       		.byte	0x51
 6374 1bad 02       		.uleb128 0x2
 6375 1bae 08       		.byte	0x8
 6376 1baf 5C       		.byte	0x5c
 6377 1bb0 00       		.byte	0
 6378 1bb1 26       		.uleb128 0x26
 6379 1bb2 90000000 		.4byte	.LVL290
 6380 1bb6 D71B0000 		.4byte	0x1bd7
 6381 1bba 25       		.uleb128 0x25
 6382 1bbb 01       		.uleb128 0x1
 6383 1bbc 50       		.byte	0x50
 6384 1bbd 05       		.uleb128 0x5
 6385 1bbe 03       		.byte	0x3
 6386 1bbf 00000000 		.4byte	.LC0
 6387 1bc3 25       		.uleb128 0x25
 6388 1bc4 01       		.uleb128 0x1
 6389 1bc5 51       		.byte	0x51
 6390 1bc6 02       		.uleb128 0x2
 6391 1bc7 08       		.byte	0x8
 6392 1bc8 5D       		.byte	0x5d
 6393 1bc9 00       		.byte	0
 6394 1bca 00       		.byte	0
 6395 1bcb 00       		.byte	0
 6396 1bcc 13       		.uleb128 0x13
 6397 1bcd 04       		.byte	0x4
 6398 1bce 630A0000 		.4byte	0xa63
 6399 1bd2 06       		.uleb128 0x6
 6400 1bd3 CC1B0000 		.4byte	0x1bcc
 6401 1bd7 35       		.uleb128 0x35
 6402 1bd8 48070000 		.4byte	.LASF248
 6403 1bdc 48070000 		.4byte	.LASF248
 6404 1be0 06       		.byte	0x6
 6405 1be1 2A03     		.2byte	0x32a
 6406 1be3 35       		.uleb128 0x35
 6407 1be4 AA0A0000 		.4byte	.LASF249
 6408 1be8 AA0A0000 		.4byte	.LASF249
 6409 1bec 02       		.byte	0x2
 6410 1bed 6F02     		.2byte	0x26f
 6411 1bef 35       		.uleb128 0x35
 6412 1bf0 75030000 		.4byte	.LASF250
 6413 1bf4 75030000 		.4byte	.LASF250
 6414 1bf8 02       		.byte	0x2
 6415 1bf9 8502     		.2byte	0x285
 6416 1bfb 35       		.uleb128 0x35
 6417 1bfc 150C0000 		.4byte	.LASF251
 6418 1c00 150C0000 		.4byte	.LASF251
 6419 1c04 02       		.byte	0x2
 6420 1c05 8A02     		.2byte	0x28a
 6421 1c07 35       		.uleb128 0x35
 6422 1c08 72000000 		.4byte	.LASF252
ARM GAS  C:\Users\ikomb\AppData\Local\Temp\cc5YtlHT.s 			page 165


 6423 1c0c 72000000 		.4byte	.LASF252
 6424 1c10 02       		.byte	0x2
 6425 1c11 7602     		.2byte	0x276
 6426 1c13 35       		.uleb128 0x35
 6427 1c14 6B050000 		.4byte	.LASF253
 6428 1c18 6B050000 		.4byte	.LASF253
 6429 1c1c 02       		.byte	0x2
 6430 1c1d 8002     		.2byte	0x280
 6431 1c1f 35       		.uleb128 0x35
 6432 1c20 6A0D0000 		.4byte	.LASF254
 6433 1c24 6A0D0000 		.4byte	.LASF254
 6434 1c28 06       		.byte	0x6
 6435 1c29 2203     		.2byte	0x322
 6436 1c2b 35       		.uleb128 0x35
 6437 1c2c 37060000 		.4byte	.LASF255
 6438 1c30 37060000 		.4byte	.LASF255
 6439 1c34 02       		.byte	0x2
 6440 1c35 6B02     		.2byte	0x26b
 6441 1c37 00       		.byte	0
 6442              		.section	.debug_abbrev,"",%progbits
 6443              	.Ldebug_abbrev0:
 6444 0000 01       		.uleb128 0x1
 6445 0001 11       		.uleb128 0x11
 6446 0002 01       		.byte	0x1
 6447 0003 25       		.uleb128 0x25
 6448 0004 0E       		.uleb128 0xe
 6449 0005 13       		.uleb128 0x13
 6450 0006 0B       		.uleb128 0xb
 6451 0007 03       		.uleb128 0x3
 6452 0008 0E       		.uleb128 0xe
 6453 0009 1B       		.uleb128 0x1b
 6454 000a 0E       		.uleb128 0xe
 6455 000b 55       		.uleb128 0x55
 6456 000c 17       		.uleb128 0x17
 6457 000d 11       		.uleb128 0x11
 6458 000e 01       		.uleb128 0x1
 6459 000f 10       		.uleb128 0x10
 6460 0010 17       		.uleb128 0x17
 6461 0011 00       		.byte	0
 6462 0012 00       		.byte	0
 6463 0013 02       		.uleb128 0x2
 6464 0014 24       		.uleb128 0x24
 6465 0015 00       		.byte	0
 6466 0016 0B       		.uleb128 0xb
 6467 0017 0B       		.uleb128 0xb
 6468 0018 3E       		.uleb128 0x3e
 6469 0019 0B       		.uleb128 0xb
 6470 001a 03       		.uleb128 0x3
 6471 001b 0E       		.uleb128 0xe
 6472 001c 00       		.byte	0
 6473 001d 00       		.byte	0
 6474 001e 03       		.uleb128 0x3
 6475 001f 16       		.uleb128 0x16
 6476 0020 00       		.byte	0
 6477 0021 03       		.uleb128 0x3
 6478 0022 0E       		.uleb128 0xe
 6479 0023 3A       		.uleb128 0x3a
ARM GAS  C:\Users\ikomb\AppData\Local\Temp\cc5YtlHT.s 			page 166


 6480 0024 0B       		.uleb128 0xb
 6481 0025 3B       		.uleb128 0x3b
 6482 0026 0B       		.uleb128 0xb
 6483 0027 49       		.uleb128 0x49
 6484 0028 13       		.uleb128 0x13
 6485 0029 00       		.byte	0
 6486 002a 00       		.byte	0
 6487 002b 04       		.uleb128 0x4
 6488 002c 24       		.uleb128 0x24
 6489 002d 00       		.byte	0
 6490 002e 0B       		.uleb128 0xb
 6491 002f 0B       		.uleb128 0xb
 6492 0030 3E       		.uleb128 0x3e
 6493 0031 0B       		.uleb128 0xb
 6494 0032 03       		.uleb128 0x3
 6495 0033 08       		.uleb128 0x8
 6496 0034 00       		.byte	0
 6497 0035 00       		.byte	0
 6498 0036 05       		.uleb128 0x5
 6499 0037 35       		.uleb128 0x35
 6500 0038 00       		.byte	0
 6501 0039 49       		.uleb128 0x49
 6502 003a 13       		.uleb128 0x13
 6503 003b 00       		.byte	0
 6504 003c 00       		.byte	0
 6505 003d 06       		.uleb128 0x6
 6506 003e 26       		.uleb128 0x26
 6507 003f 00       		.byte	0
 6508 0040 49       		.uleb128 0x49
 6509 0041 13       		.uleb128 0x13
 6510 0042 00       		.byte	0
 6511 0043 00       		.byte	0
 6512 0044 07       		.uleb128 0x7
 6513 0045 01       		.uleb128 0x1
 6514 0046 01       		.byte	0x1
 6515 0047 49       		.uleb128 0x49
 6516 0048 13       		.uleb128 0x13
 6517 0049 01       		.uleb128 0x1
 6518 004a 13       		.uleb128 0x13
 6519 004b 00       		.byte	0
 6520 004c 00       		.byte	0
 6521 004d 08       		.uleb128 0x8
 6522 004e 21       		.uleb128 0x21
 6523 004f 00       		.byte	0
 6524 0050 49       		.uleb128 0x49
 6525 0051 13       		.uleb128 0x13
 6526 0052 2F       		.uleb128 0x2f
 6527 0053 0B       		.uleb128 0xb
 6528 0054 00       		.byte	0
 6529 0055 00       		.byte	0
 6530 0056 09       		.uleb128 0x9
 6531 0057 13       		.uleb128 0x13
 6532 0058 01       		.byte	0x1
 6533 0059 0B       		.uleb128 0xb
 6534 005a 0B       		.uleb128 0xb
 6535 005b 3A       		.uleb128 0x3a
 6536 005c 0B       		.uleb128 0xb
ARM GAS  C:\Users\ikomb\AppData\Local\Temp\cc5YtlHT.s 			page 167


 6537 005d 3B       		.uleb128 0x3b
 6538 005e 0B       		.uleb128 0xb
 6539 005f 01       		.uleb128 0x1
 6540 0060 13       		.uleb128 0x13
 6541 0061 00       		.byte	0
 6542 0062 00       		.byte	0
 6543 0063 0A       		.uleb128 0xa
 6544 0064 0D       		.uleb128 0xd
 6545 0065 00       		.byte	0
 6546 0066 03       		.uleb128 0x3
 6547 0067 08       		.uleb128 0x8
 6548 0068 3A       		.uleb128 0x3a
 6549 0069 0B       		.uleb128 0xb
 6550 006a 3B       		.uleb128 0x3b
 6551 006b 0B       		.uleb128 0xb
 6552 006c 49       		.uleb128 0x49
 6553 006d 13       		.uleb128 0x13
 6554 006e 38       		.uleb128 0x38
 6555 006f 0B       		.uleb128 0xb
 6556 0070 00       		.byte	0
 6557 0071 00       		.byte	0
 6558 0072 0B       		.uleb128 0xb
 6559 0073 0D       		.uleb128 0xd
 6560 0074 00       		.byte	0
 6561 0075 03       		.uleb128 0x3
 6562 0076 0E       		.uleb128 0xe
 6563 0077 3A       		.uleb128 0x3a
 6564 0078 0B       		.uleb128 0xb
 6565 0079 3B       		.uleb128 0x3b
 6566 007a 0B       		.uleb128 0xb
 6567 007b 49       		.uleb128 0x49
 6568 007c 13       		.uleb128 0x13
 6569 007d 38       		.uleb128 0x38
 6570 007e 0B       		.uleb128 0xb
 6571 007f 00       		.byte	0
 6572 0080 00       		.byte	0
 6573 0081 0C       		.uleb128 0xc
 6574 0082 13       		.uleb128 0x13
 6575 0083 01       		.byte	0x1
 6576 0084 0B       		.uleb128 0xb
 6577 0085 05       		.uleb128 0x5
 6578 0086 3A       		.uleb128 0x3a
 6579 0087 0B       		.uleb128 0xb
 6580 0088 3B       		.uleb128 0x3b
 6581 0089 0B       		.uleb128 0xb
 6582 008a 01       		.uleb128 0x1
 6583 008b 13       		.uleb128 0x13
 6584 008c 00       		.byte	0
 6585 008d 00       		.byte	0
 6586 008e 0D       		.uleb128 0xd
 6587 008f 0D       		.uleb128 0xd
 6588 0090 00       		.byte	0
 6589 0091 03       		.uleb128 0x3
 6590 0092 0E       		.uleb128 0xe
 6591 0093 3A       		.uleb128 0x3a
 6592 0094 0B       		.uleb128 0xb
 6593 0095 3B       		.uleb128 0x3b
ARM GAS  C:\Users\ikomb\AppData\Local\Temp\cc5YtlHT.s 			page 168


 6594 0096 0B       		.uleb128 0xb
 6595 0097 49       		.uleb128 0x49
 6596 0098 13       		.uleb128 0x13
 6597 0099 38       		.uleb128 0x38
 6598 009a 05       		.uleb128 0x5
 6599 009b 00       		.byte	0
 6600 009c 00       		.byte	0
 6601 009d 0E       		.uleb128 0xe
 6602 009e 21       		.uleb128 0x21
 6603 009f 00       		.byte	0
 6604 00a0 49       		.uleb128 0x49
 6605 00a1 13       		.uleb128 0x13
 6606 00a2 2F       		.uleb128 0x2f
 6607 00a3 05       		.uleb128 0x5
 6608 00a4 00       		.byte	0
 6609 00a5 00       		.byte	0
 6610 00a6 0F       		.uleb128 0xf
 6611 00a7 16       		.uleb128 0x16
 6612 00a8 00       		.byte	0
 6613 00a9 03       		.uleb128 0x3
 6614 00aa 0E       		.uleb128 0xe
 6615 00ab 3A       		.uleb128 0x3a
 6616 00ac 0B       		.uleb128 0xb
 6617 00ad 3B       		.uleb128 0x3b
 6618 00ae 05       		.uleb128 0x5
 6619 00af 49       		.uleb128 0x49
 6620 00b0 13       		.uleb128 0x13
 6621 00b1 00       		.byte	0
 6622 00b2 00       		.byte	0
 6623 00b3 10       		.uleb128 0x10
 6624 00b4 04       		.uleb128 0x4
 6625 00b5 01       		.byte	0x1
 6626 00b6 0B       		.uleb128 0xb
 6627 00b7 0B       		.uleb128 0xb
 6628 00b8 49       		.uleb128 0x49
 6629 00b9 13       		.uleb128 0x13
 6630 00ba 3A       		.uleb128 0x3a
 6631 00bb 0B       		.uleb128 0xb
 6632 00bc 3B       		.uleb128 0x3b
 6633 00bd 05       		.uleb128 0x5
 6634 00be 01       		.uleb128 0x1
 6635 00bf 13       		.uleb128 0x13
 6636 00c0 00       		.byte	0
 6637 00c1 00       		.byte	0
 6638 00c2 11       		.uleb128 0x11
 6639 00c3 28       		.uleb128 0x28
 6640 00c4 00       		.byte	0
 6641 00c5 03       		.uleb128 0x3
 6642 00c6 0E       		.uleb128 0xe
 6643 00c7 1C       		.uleb128 0x1c
 6644 00c8 0B       		.uleb128 0xb
 6645 00c9 00       		.byte	0
 6646 00ca 00       		.byte	0
 6647 00cb 12       		.uleb128 0x12
 6648 00cc 28       		.uleb128 0x28
 6649 00cd 00       		.byte	0
 6650 00ce 03       		.uleb128 0x3
ARM GAS  C:\Users\ikomb\AppData\Local\Temp\cc5YtlHT.s 			page 169


 6651 00cf 0E       		.uleb128 0xe
 6652 00d0 1C       		.uleb128 0x1c
 6653 00d1 06       		.uleb128 0x6
 6654 00d2 00       		.byte	0
 6655 00d3 00       		.byte	0
 6656 00d4 13       		.uleb128 0x13
 6657 00d5 0F       		.uleb128 0xf
 6658 00d6 00       		.byte	0
 6659 00d7 0B       		.uleb128 0xb
 6660 00d8 0B       		.uleb128 0xb
 6661 00d9 49       		.uleb128 0x49
 6662 00da 13       		.uleb128 0x13
 6663 00db 00       		.byte	0
 6664 00dc 00       		.byte	0
 6665 00dd 14       		.uleb128 0x14
 6666 00de 15       		.uleb128 0x15
 6667 00df 01       		.byte	0x1
 6668 00e0 27       		.uleb128 0x27
 6669 00e1 19       		.uleb128 0x19
 6670 00e2 01       		.uleb128 0x1
 6671 00e3 13       		.uleb128 0x13
 6672 00e4 00       		.byte	0
 6673 00e5 00       		.byte	0
 6674 00e6 15       		.uleb128 0x15
 6675 00e7 05       		.uleb128 0x5
 6676 00e8 00       		.byte	0
 6677 00e9 49       		.uleb128 0x49
 6678 00ea 13       		.uleb128 0x13
 6679 00eb 00       		.byte	0
 6680 00ec 00       		.byte	0
 6681 00ed 16       		.uleb128 0x16
 6682 00ee 13       		.uleb128 0x13
 6683 00ef 01       		.byte	0x1
 6684 00f0 0B       		.uleb128 0xb
 6685 00f1 0B       		.uleb128 0xb
 6686 00f2 3A       		.uleb128 0x3a
 6687 00f3 0B       		.uleb128 0xb
 6688 00f4 3B       		.uleb128 0x3b
 6689 00f5 05       		.uleb128 0x5
 6690 00f6 01       		.uleb128 0x1
 6691 00f7 13       		.uleb128 0x13
 6692 00f8 00       		.byte	0
 6693 00f9 00       		.byte	0
 6694 00fa 17       		.uleb128 0x17
 6695 00fb 0D       		.uleb128 0xd
 6696 00fc 00       		.byte	0
 6697 00fd 03       		.uleb128 0x3
 6698 00fe 0E       		.uleb128 0xe
 6699 00ff 3A       		.uleb128 0x3a
 6700 0100 0B       		.uleb128 0xb
 6701 0101 3B       		.uleb128 0x3b
 6702 0102 05       		.uleb128 0x5
 6703 0103 49       		.uleb128 0x49
 6704 0104 13       		.uleb128 0x13
 6705 0105 38       		.uleb128 0x38
 6706 0106 0B       		.uleb128 0xb
 6707 0107 00       		.byte	0
ARM GAS  C:\Users\ikomb\AppData\Local\Temp\cc5YtlHT.s 			page 170


 6708 0108 00       		.byte	0
 6709 0109 18       		.uleb128 0x18
 6710 010a 2E       		.uleb128 0x2e
 6711 010b 01       		.byte	0x1
 6712 010c 03       		.uleb128 0x3
 6713 010d 0E       		.uleb128 0xe
 6714 010e 3A       		.uleb128 0x3a
 6715 010f 0B       		.uleb128 0xb
 6716 0110 3B       		.uleb128 0x3b
 6717 0111 05       		.uleb128 0x5
 6718 0112 27       		.uleb128 0x27
 6719 0113 19       		.uleb128 0x19
 6720 0114 49       		.uleb128 0x49
 6721 0115 13       		.uleb128 0x13
 6722 0116 20       		.uleb128 0x20
 6723 0117 0B       		.uleb128 0xb
 6724 0118 01       		.uleb128 0x1
 6725 0119 13       		.uleb128 0x13
 6726 011a 00       		.byte	0
 6727 011b 00       		.byte	0
 6728 011c 19       		.uleb128 0x19
 6729 011d 05       		.uleb128 0x5
 6730 011e 00       		.byte	0
 6731 011f 03       		.uleb128 0x3
 6732 0120 0E       		.uleb128 0xe
 6733 0121 3A       		.uleb128 0x3a
 6734 0122 0B       		.uleb128 0xb
 6735 0123 3B       		.uleb128 0x3b
 6736 0124 05       		.uleb128 0x5
 6737 0125 49       		.uleb128 0x49
 6738 0126 13       		.uleb128 0x13
 6739 0127 00       		.byte	0
 6740 0128 00       		.byte	0
 6741 0129 1A       		.uleb128 0x1a
 6742 012a 34       		.uleb128 0x34
 6743 012b 00       		.byte	0
 6744 012c 03       		.uleb128 0x3
 6745 012d 0E       		.uleb128 0xe
 6746 012e 3A       		.uleb128 0x3a
 6747 012f 0B       		.uleb128 0xb
 6748 0130 3B       		.uleb128 0x3b
 6749 0131 05       		.uleb128 0x5
 6750 0132 49       		.uleb128 0x49
 6751 0133 13       		.uleb128 0x13
 6752 0134 00       		.byte	0
 6753 0135 00       		.byte	0
 6754 0136 1B       		.uleb128 0x1b
 6755 0137 2E       		.uleb128 0x2e
 6756 0138 01       		.byte	0x1
 6757 0139 03       		.uleb128 0x3
 6758 013a 0E       		.uleb128 0xe
 6759 013b 3A       		.uleb128 0x3a
 6760 013c 0B       		.uleb128 0xb
 6761 013d 3B       		.uleb128 0x3b
 6762 013e 0B       		.uleb128 0xb
 6763 013f 27       		.uleb128 0x27
 6764 0140 19       		.uleb128 0x19
ARM GAS  C:\Users\ikomb\AppData\Local\Temp\cc5YtlHT.s 			page 171


 6765 0141 11       		.uleb128 0x11
 6766 0142 01       		.uleb128 0x1
 6767 0143 12       		.uleb128 0x12
 6768 0144 06       		.uleb128 0x6
 6769 0145 40       		.uleb128 0x40
 6770 0146 18       		.uleb128 0x18
 6771 0147 9742     		.uleb128 0x2117
 6772 0149 19       		.uleb128 0x19
 6773 014a 01       		.uleb128 0x1
 6774 014b 13       		.uleb128 0x13
 6775 014c 00       		.byte	0
 6776 014d 00       		.byte	0
 6777 014e 1C       		.uleb128 0x1c
 6778 014f 05       		.uleb128 0x5
 6779 0150 00       		.byte	0
 6780 0151 03       		.uleb128 0x3
 6781 0152 08       		.uleb128 0x8
 6782 0153 3A       		.uleb128 0x3a
 6783 0154 0B       		.uleb128 0xb
 6784 0155 3B       		.uleb128 0x3b
 6785 0156 0B       		.uleb128 0xb
 6786 0157 49       		.uleb128 0x49
 6787 0158 13       		.uleb128 0x13
 6788 0159 02       		.uleb128 0x2
 6789 015a 18       		.uleb128 0x18
 6790 015b 00       		.byte	0
 6791 015c 00       		.byte	0
 6792 015d 1D       		.uleb128 0x1d
 6793 015e 05       		.uleb128 0x5
 6794 015f 00       		.byte	0
 6795 0160 03       		.uleb128 0x3
 6796 0161 0E       		.uleb128 0xe
 6797 0162 3A       		.uleb128 0x3a
 6798 0163 0B       		.uleb128 0xb
 6799 0164 3B       		.uleb128 0x3b
 6800 0165 0B       		.uleb128 0xb
 6801 0166 49       		.uleb128 0x49
 6802 0167 13       		.uleb128 0x13
 6803 0168 02       		.uleb128 0x2
 6804 0169 17       		.uleb128 0x17
 6805 016a 00       		.byte	0
 6806 016b 00       		.byte	0
 6807 016c 1E       		.uleb128 0x1e
 6808 016d 34       		.uleb128 0x34
 6809 016e 00       		.byte	0
 6810 016f 03       		.uleb128 0x3
 6811 0170 0E       		.uleb128 0xe
 6812 0171 3A       		.uleb128 0x3a
 6813 0172 0B       		.uleb128 0xb
 6814 0173 3B       		.uleb128 0x3b
 6815 0174 0B       		.uleb128 0xb
 6816 0175 49       		.uleb128 0x49
 6817 0176 13       		.uleb128 0x13
 6818 0177 02       		.uleb128 0x2
 6819 0178 17       		.uleb128 0x17
 6820 0179 00       		.byte	0
 6821 017a 00       		.byte	0
ARM GAS  C:\Users\ikomb\AppData\Local\Temp\cc5YtlHT.s 			page 172


 6822 017b 1F       		.uleb128 0x1f
 6823 017c 2E       		.uleb128 0x2e
 6824 017d 01       		.byte	0x1
 6825 017e 3F       		.uleb128 0x3f
 6826 017f 19       		.uleb128 0x19
 6827 0180 03       		.uleb128 0x3
 6828 0181 0E       		.uleb128 0xe
 6829 0182 3A       		.uleb128 0x3a
 6830 0183 0B       		.uleb128 0xb
 6831 0184 3B       		.uleb128 0x3b
 6832 0185 0B       		.uleb128 0xb
 6833 0186 27       		.uleb128 0x27
 6834 0187 19       		.uleb128 0x19
 6835 0188 11       		.uleb128 0x11
 6836 0189 01       		.uleb128 0x1
 6837 018a 12       		.uleb128 0x12
 6838 018b 06       		.uleb128 0x6
 6839 018c 40       		.uleb128 0x40
 6840 018d 18       		.uleb128 0x18
 6841 018e 9742     		.uleb128 0x2117
 6842 0190 19       		.uleb128 0x19
 6843 0191 01       		.uleb128 0x1
 6844 0192 13       		.uleb128 0x13
 6845 0193 00       		.byte	0
 6846 0194 00       		.byte	0
 6847 0195 20       		.uleb128 0x20
 6848 0196 05       		.uleb128 0x5
 6849 0197 00       		.byte	0
 6850 0198 03       		.uleb128 0x3
 6851 0199 0E       		.uleb128 0xe
 6852 019a 3A       		.uleb128 0x3a
 6853 019b 0B       		.uleb128 0xb
 6854 019c 3B       		.uleb128 0x3b
 6855 019d 0B       		.uleb128 0xb
 6856 019e 49       		.uleb128 0x49
 6857 019f 13       		.uleb128 0x13
 6858 01a0 02       		.uleb128 0x2
 6859 01a1 18       		.uleb128 0x18
 6860 01a2 00       		.byte	0
 6861 01a3 00       		.byte	0
 6862 01a4 21       		.uleb128 0x21
 6863 01a5 2E       		.uleb128 0x2e
 6864 01a6 01       		.byte	0x1
 6865 01a7 3F       		.uleb128 0x3f
 6866 01a8 19       		.uleb128 0x19
 6867 01a9 03       		.uleb128 0x3
 6868 01aa 0E       		.uleb128 0xe
 6869 01ab 3A       		.uleb128 0x3a
 6870 01ac 0B       		.uleb128 0xb
 6871 01ad 3B       		.uleb128 0x3b
 6872 01ae 05       		.uleb128 0x5
 6873 01af 27       		.uleb128 0x27
 6874 01b0 19       		.uleb128 0x19
 6875 01b1 49       		.uleb128 0x49
 6876 01b2 13       		.uleb128 0x13
 6877 01b3 11       		.uleb128 0x11
 6878 01b4 01       		.uleb128 0x1
ARM GAS  C:\Users\ikomb\AppData\Local\Temp\cc5YtlHT.s 			page 173


 6879 01b5 12       		.uleb128 0x12
 6880 01b6 06       		.uleb128 0x6
 6881 01b7 40       		.uleb128 0x40
 6882 01b8 18       		.uleb128 0x18
 6883 01b9 9742     		.uleb128 0x2117
 6884 01bb 19       		.uleb128 0x19
 6885 01bc 01       		.uleb128 0x1
 6886 01bd 13       		.uleb128 0x13
 6887 01be 00       		.byte	0
 6888 01bf 00       		.byte	0
 6889 01c0 22       		.uleb128 0x22
 6890 01c1 05       		.uleb128 0x5
 6891 01c2 00       		.byte	0
 6892 01c3 03       		.uleb128 0x3
 6893 01c4 0E       		.uleb128 0xe
 6894 01c5 3A       		.uleb128 0x3a
 6895 01c6 0B       		.uleb128 0xb
 6896 01c7 3B       		.uleb128 0x3b
 6897 01c8 05       		.uleb128 0x5
 6898 01c9 49       		.uleb128 0x49
 6899 01ca 13       		.uleb128 0x13
 6900 01cb 02       		.uleb128 0x2
 6901 01cc 17       		.uleb128 0x17
 6902 01cd 00       		.byte	0
 6903 01ce 00       		.byte	0
 6904 01cf 23       		.uleb128 0x23
 6905 01d0 34       		.uleb128 0x34
 6906 01d1 00       		.byte	0
 6907 01d2 03       		.uleb128 0x3
 6908 01d3 0E       		.uleb128 0xe
 6909 01d4 3A       		.uleb128 0x3a
 6910 01d5 0B       		.uleb128 0xb
 6911 01d6 3B       		.uleb128 0x3b
 6912 01d7 05       		.uleb128 0x5
 6913 01d8 49       		.uleb128 0x49
 6914 01d9 13       		.uleb128 0x13
 6915 01da 02       		.uleb128 0x2
 6916 01db 17       		.uleb128 0x17
 6917 01dc 00       		.byte	0
 6918 01dd 00       		.byte	0
 6919 01de 24       		.uleb128 0x24
 6920 01df 898201   		.uleb128 0x4109
 6921 01e2 01       		.byte	0x1
 6922 01e3 11       		.uleb128 0x11
 6923 01e4 01       		.uleb128 0x1
 6924 01e5 31       		.uleb128 0x31
 6925 01e6 13       		.uleb128 0x13
 6926 01e7 01       		.uleb128 0x1
 6927 01e8 13       		.uleb128 0x13
 6928 01e9 00       		.byte	0
 6929 01ea 00       		.byte	0
 6930 01eb 25       		.uleb128 0x25
 6931 01ec 8A8201   		.uleb128 0x410a
 6932 01ef 00       		.byte	0
 6933 01f0 02       		.uleb128 0x2
 6934 01f1 18       		.uleb128 0x18
 6935 01f2 9142     		.uleb128 0x2111
ARM GAS  C:\Users\ikomb\AppData\Local\Temp\cc5YtlHT.s 			page 174


 6936 01f4 18       		.uleb128 0x18
 6937 01f5 00       		.byte	0
 6938 01f6 00       		.byte	0
 6939 01f7 26       		.uleb128 0x26
 6940 01f8 898201   		.uleb128 0x4109
 6941 01fb 01       		.byte	0x1
 6942 01fc 11       		.uleb128 0x11
 6943 01fd 01       		.uleb128 0x1
 6944 01fe 31       		.uleb128 0x31
 6945 01ff 13       		.uleb128 0x13
 6946 0200 00       		.byte	0
 6947 0201 00       		.byte	0
 6948 0202 27       		.uleb128 0x27
 6949 0203 05       		.uleb128 0x5
 6950 0204 00       		.byte	0
 6951 0205 03       		.uleb128 0x3
 6952 0206 0E       		.uleb128 0xe
 6953 0207 3A       		.uleb128 0x3a
 6954 0208 0B       		.uleb128 0xb
 6955 0209 3B       		.uleb128 0x3b
 6956 020a 05       		.uleb128 0x5
 6957 020b 49       		.uleb128 0x49
 6958 020c 13       		.uleb128 0x13
 6959 020d 02       		.uleb128 0x2
 6960 020e 18       		.uleb128 0x18
 6961 020f 00       		.byte	0
 6962 0210 00       		.byte	0
 6963 0211 28       		.uleb128 0x28
 6964 0212 34       		.uleb128 0x34
 6965 0213 00       		.byte	0
 6966 0214 03       		.uleb128 0x3
 6967 0215 0E       		.uleb128 0xe
 6968 0216 3A       		.uleb128 0x3a
 6969 0217 0B       		.uleb128 0xb
 6970 0218 3B       		.uleb128 0x3b
 6971 0219 05       		.uleb128 0x5
 6972 021a 49       		.uleb128 0x49
 6973 021b 13       		.uleb128 0x13
 6974 021c 02       		.uleb128 0x2
 6975 021d 18       		.uleb128 0x18
 6976 021e 00       		.byte	0
 6977 021f 00       		.byte	0
 6978 0220 29       		.uleb128 0x29
 6979 0221 0B       		.uleb128 0xb
 6980 0222 01       		.byte	0x1
 6981 0223 11       		.uleb128 0x11
 6982 0224 01       		.uleb128 0x1
 6983 0225 12       		.uleb128 0x12
 6984 0226 06       		.uleb128 0x6
 6985 0227 01       		.uleb128 0x1
 6986 0228 13       		.uleb128 0x13
 6987 0229 00       		.byte	0
 6988 022a 00       		.byte	0
 6989 022b 2A       		.uleb128 0x2a
 6990 022c 26       		.uleb128 0x26
 6991 022d 00       		.byte	0
 6992 022e 00       		.byte	0
ARM GAS  C:\Users\ikomb\AppData\Local\Temp\cc5YtlHT.s 			page 175


 6993 022f 00       		.byte	0
 6994 0230 2B       		.uleb128 0x2b
 6995 0231 0B       		.uleb128 0xb
 6996 0232 01       		.byte	0x1
 6997 0233 11       		.uleb128 0x11
 6998 0234 01       		.uleb128 0x1
 6999 0235 12       		.uleb128 0x12
 7000 0236 06       		.uleb128 0x6
 7001 0237 00       		.byte	0
 7002 0238 00       		.byte	0
 7003 0239 2C       		.uleb128 0x2c
 7004 023a 1D       		.uleb128 0x1d
 7005 023b 01       		.byte	0x1
 7006 023c 31       		.uleb128 0x31
 7007 023d 13       		.uleb128 0x13
 7008 023e 11       		.uleb128 0x11
 7009 023f 01       		.uleb128 0x1
 7010 0240 12       		.uleb128 0x12
 7011 0241 06       		.uleb128 0x6
 7012 0242 58       		.uleb128 0x58
 7013 0243 0B       		.uleb128 0xb
 7014 0244 59       		.uleb128 0x59
 7015 0245 05       		.uleb128 0x5
 7016 0246 00       		.byte	0
 7017 0247 00       		.byte	0
 7018 0248 2D       		.uleb128 0x2d
 7019 0249 05       		.uleb128 0x5
 7020 024a 00       		.byte	0
 7021 024b 31       		.uleb128 0x31
 7022 024c 13       		.uleb128 0x13
 7023 024d 02       		.uleb128 0x2
 7024 024e 17       		.uleb128 0x17
 7025 024f 00       		.byte	0
 7026 0250 00       		.byte	0
 7027 0251 2E       		.uleb128 0x2e
 7028 0252 34       		.uleb128 0x34
 7029 0253 00       		.byte	0
 7030 0254 31       		.uleb128 0x31
 7031 0255 13       		.uleb128 0x13
 7032 0256 02       		.uleb128 0x2
 7033 0257 17       		.uleb128 0x17
 7034 0258 00       		.byte	0
 7035 0259 00       		.byte	0
 7036 025a 2F       		.uleb128 0x2f
 7037 025b 2E       		.uleb128 0x2e
 7038 025c 01       		.byte	0x1
 7039 025d 3F       		.uleb128 0x3f
 7040 025e 19       		.uleb128 0x19
 7041 025f 03       		.uleb128 0x3
 7042 0260 0E       		.uleb128 0xe
 7043 0261 3A       		.uleb128 0x3a
 7044 0262 0B       		.uleb128 0xb
 7045 0263 3B       		.uleb128 0x3b
 7046 0264 0B       		.uleb128 0xb
 7047 0265 27       		.uleb128 0x27
 7048 0266 19       		.uleb128 0x19
 7049 0267 49       		.uleb128 0x49
ARM GAS  C:\Users\ikomb\AppData\Local\Temp\cc5YtlHT.s 			page 176


 7050 0268 13       		.uleb128 0x13
 7051 0269 11       		.uleb128 0x11
 7052 026a 01       		.uleb128 0x1
 7053 026b 12       		.uleb128 0x12
 7054 026c 06       		.uleb128 0x6
 7055 026d 40       		.uleb128 0x40
 7056 026e 18       		.uleb128 0x18
 7057 026f 9642     		.uleb128 0x2116
 7058 0271 19       		.uleb128 0x19
 7059 0272 01       		.uleb128 0x1
 7060 0273 13       		.uleb128 0x13
 7061 0274 00       		.byte	0
 7062 0275 00       		.byte	0
 7063 0276 30       		.uleb128 0x30
 7064 0277 34       		.uleb128 0x34
 7065 0278 00       		.byte	0
 7066 0279 03       		.uleb128 0x3
 7067 027a 0E       		.uleb128 0xe
 7068 027b 3A       		.uleb128 0x3a
 7069 027c 0B       		.uleb128 0xb
 7070 027d 3B       		.uleb128 0x3b
 7071 027e 0B       		.uleb128 0xb
 7072 027f 49       		.uleb128 0x49
 7073 0280 13       		.uleb128 0x13
 7074 0281 02       		.uleb128 0x2
 7075 0282 18       		.uleb128 0x18
 7076 0283 00       		.byte	0
 7077 0284 00       		.byte	0
 7078 0285 31       		.uleb128 0x31
 7079 0286 34       		.uleb128 0x34
 7080 0287 00       		.byte	0
 7081 0288 03       		.uleb128 0x3
 7082 0289 08       		.uleb128 0x8
 7083 028a 3A       		.uleb128 0x3a
 7084 028b 0B       		.uleb128 0xb
 7085 028c 3B       		.uleb128 0x3b
 7086 028d 0B       		.uleb128 0xb
 7087 028e 49       		.uleb128 0x49
 7088 028f 13       		.uleb128 0x13
 7089 0290 02       		.uleb128 0x2
 7090 0291 17       		.uleb128 0x17
 7091 0292 00       		.byte	0
 7092 0293 00       		.byte	0
 7093 0294 32       		.uleb128 0x32
 7094 0295 0B       		.uleb128 0xb
 7095 0296 01       		.byte	0x1
 7096 0297 55       		.uleb128 0x55
 7097 0298 17       		.uleb128 0x17
 7098 0299 00       		.byte	0
 7099 029a 00       		.byte	0
 7100 029b 33       		.uleb128 0x33
 7101 029c 34       		.uleb128 0x34
 7102 029d 00       		.byte	0
 7103 029e 03       		.uleb128 0x3
 7104 029f 0E       		.uleb128 0xe
 7105 02a0 3A       		.uleb128 0x3a
 7106 02a1 0B       		.uleb128 0xb
ARM GAS  C:\Users\ikomb\AppData\Local\Temp\cc5YtlHT.s 			page 177


 7107 02a2 3B       		.uleb128 0x3b
 7108 02a3 0B       		.uleb128 0xb
 7109 02a4 49       		.uleb128 0x49
 7110 02a5 13       		.uleb128 0x13
 7111 02a6 00       		.byte	0
 7112 02a7 00       		.byte	0
 7113 02a8 34       		.uleb128 0x34
 7114 02a9 1D       		.uleb128 0x1d
 7115 02aa 01       		.byte	0x1
 7116 02ab 31       		.uleb128 0x31
 7117 02ac 13       		.uleb128 0x13
 7118 02ad 11       		.uleb128 0x11
 7119 02ae 01       		.uleb128 0x1
 7120 02af 12       		.uleb128 0x12
 7121 02b0 06       		.uleb128 0x6
 7122 02b1 58       		.uleb128 0x58
 7123 02b2 0B       		.uleb128 0xb
 7124 02b3 59       		.uleb128 0x59
 7125 02b4 0B       		.uleb128 0xb
 7126 02b5 01       		.uleb128 0x1
 7127 02b6 13       		.uleb128 0x13
 7128 02b7 00       		.byte	0
 7129 02b8 00       		.byte	0
 7130 02b9 35       		.uleb128 0x35
 7131 02ba 2E       		.uleb128 0x2e
 7132 02bb 00       		.byte	0
 7133 02bc 3F       		.uleb128 0x3f
 7134 02bd 19       		.uleb128 0x19
 7135 02be 3C       		.uleb128 0x3c
 7136 02bf 19       		.uleb128 0x19
 7137 02c0 6E       		.uleb128 0x6e
 7138 02c1 0E       		.uleb128 0xe
 7139 02c2 03       		.uleb128 0x3
 7140 02c3 0E       		.uleb128 0xe
 7141 02c4 3A       		.uleb128 0x3a
 7142 02c5 0B       		.uleb128 0xb
 7143 02c6 3B       		.uleb128 0x3b
 7144 02c7 05       		.uleb128 0x5
 7145 02c8 00       		.byte	0
 7146 02c9 00       		.byte	0
 7147 02ca 00       		.byte	0
 7148              		.section	.debug_loc,"",%progbits
 7149              	.Ldebug_loc0:
 7150              	.LLST0:
 7151 0000 00000000 		.4byte	.LVL0
 7152 0004 22000000 		.4byte	.LVL5
 7153 0008 0100     		.2byte	0x1
 7154 000a 51       		.byte	0x51
 7155 000b 22000000 		.4byte	.LVL5
 7156 000f 10010000 		.4byte	.LFE90
 7157 0013 0400     		.2byte	0x4
 7158 0015 F3       		.byte	0xf3
 7159 0016 01       		.uleb128 0x1
 7160 0017 51       		.byte	0x51
 7161 0018 9F       		.byte	0x9f
 7162 0019 00000000 		.4byte	0
 7163 001d 00000000 		.4byte	0
ARM GAS  C:\Users\ikomb\AppData\Local\Temp\cc5YtlHT.s 			page 178


 7164              	.LLST1:
 7165 0021 04000000 		.4byte	.LVL1
 7166 0025 1E000000 		.4byte	.LVL4
 7167 0029 0100     		.2byte	0x1
 7168 002b 55       		.byte	0x55
 7169 002c 00000000 		.4byte	0
 7170 0030 00000000 		.4byte	0
 7171              	.LLST2:
 7172 0034 06000000 		.4byte	.LVL2
 7173 0038 A6000000 		.4byte	.LVL6
 7174 003c 0100     		.2byte	0x1
 7175 003e 54       		.byte	0x54
 7176 003f BC000000 		.4byte	.LVL7
 7177 0043 BE000000 		.4byte	.LVL8
 7178 0047 0100     		.2byte	0x1
 7179 0049 54       		.byte	0x54
 7180 004a 00000000 		.4byte	0
 7181 004e 00000000 		.4byte	0
 7182              	.LLST3:
 7183 0052 08000000 		.4byte	.LVL3
 7184 0056 08010000 		.4byte	.LVL9
 7185 005a 0100     		.2byte	0x1
 7186 005c 52       		.byte	0x52
 7187 005d 00000000 		.4byte	0
 7188 0061 00000000 		.4byte	0
 7189              	.LLST4:
 7190 0065 02000000 		.4byte	.LVL11
 7191 0069 06000000 		.4byte	.LVL12
 7192 006d 0200     		.2byte	0x2
 7193 006f 30       		.byte	0x30
 7194 0070 9F       		.byte	0x9f
 7195 0071 06000000 		.4byte	.LVL12
 7196 0075 98000000 		.4byte	.LFE91
 7197 0079 0100     		.2byte	0x1
 7198 007b 51       		.byte	0x51
 7199 007c 00000000 		.4byte	0
 7200 0080 00000000 		.4byte	0
 7201              	.LLST5:
 7202 0084 00000000 		.4byte	.LVL14
 7203 0088 18000000 		.4byte	.LVL17
 7204 008c 0100     		.2byte	0x1
 7205 008e 50       		.byte	0x50
 7206 008f 18000000 		.4byte	.LVL17
 7207 0093 38000000 		.4byte	.LVL22
 7208 0097 0100     		.2byte	0x1
 7209 0099 56       		.byte	0x56
 7210 009a 38000000 		.4byte	.LVL22
 7211 009e 40000000 		.4byte	.LFE92
 7212 00a2 0400     		.2byte	0x4
 7213 00a4 F3       		.byte	0xf3
 7214 00a5 01       		.uleb128 0x1
 7215 00a6 50       		.byte	0x50
 7216 00a7 9F       		.byte	0x9f
 7217 00a8 00000000 		.4byte	0
 7218 00ac 00000000 		.4byte	0
 7219              	.LLST6:
 7220 00b0 00000000 		.4byte	.LVL14
ARM GAS  C:\Users\ikomb\AppData\Local\Temp\cc5YtlHT.s 			page 179


 7221 00b4 14000000 		.4byte	.LVL16
 7222 00b8 0100     		.2byte	0x1
 7223 00ba 51       		.byte	0x51
 7224 00bb 14000000 		.4byte	.LVL16
 7225 00bf 38000000 		.4byte	.LVL21
 7226 00c3 0100     		.2byte	0x1
 7227 00c5 55       		.byte	0x55
 7228 00c6 38000000 		.4byte	.LVL21
 7229 00ca 40000000 		.4byte	.LFE92
 7230 00ce 0400     		.2byte	0x4
 7231 00d0 F3       		.byte	0xf3
 7232 00d1 01       		.uleb128 0x1
 7233 00d2 51       		.byte	0x51
 7234 00d3 9F       		.byte	0x9f
 7235 00d4 00000000 		.4byte	0
 7236 00d8 00000000 		.4byte	0
 7237              	.LLST7:
 7238 00dc 00000000 		.4byte	.LVL14
 7239 00e0 1B000000 		.4byte	.LVL18-1
 7240 00e4 0100     		.2byte	0x1
 7241 00e6 52       		.byte	0x52
 7242 00e7 1B000000 		.4byte	.LVL18-1
 7243 00eb 38000000 		.4byte	.LVL23
 7244 00ef 0100     		.2byte	0x1
 7245 00f1 57       		.byte	0x57
 7246 00f2 38000000 		.4byte	.LVL23
 7247 00f6 40000000 		.4byte	.LFE92
 7248 00fa 0400     		.2byte	0x4
 7249 00fc F3       		.byte	0xf3
 7250 00fd 01       		.uleb128 0x1
 7251 00fe 52       		.byte	0x52
 7252 00ff 9F       		.byte	0x9f
 7253 0100 00000000 		.4byte	0
 7254 0104 00000000 		.4byte	0
 7255              	.LLST8:
 7256 0108 0E000000 		.4byte	.LVL15
 7257 010c 38000000 		.4byte	.LVL20
 7258 0110 0100     		.2byte	0x1
 7259 0112 54       		.byte	0x54
 7260 0113 00000000 		.4byte	0
 7261 0117 00000000 		.4byte	0
 7262              	.LLST9:
 7263 011b 00000000 		.4byte	.LVL24
 7264 011f 18000000 		.4byte	.LVL27
 7265 0123 0100     		.2byte	0x1
 7266 0125 50       		.byte	0x50
 7267 0126 18000000 		.4byte	.LVL27
 7268 012a 38000000 		.4byte	.LVL32
 7269 012e 0100     		.2byte	0x1
 7270 0130 56       		.byte	0x56
 7271 0131 38000000 		.4byte	.LVL32
 7272 0135 40000000 		.4byte	.LFE93
 7273 0139 0400     		.2byte	0x4
 7274 013b F3       		.byte	0xf3
 7275 013c 01       		.uleb128 0x1
 7276 013d 50       		.byte	0x50
 7277 013e 9F       		.byte	0x9f
ARM GAS  C:\Users\ikomb\AppData\Local\Temp\cc5YtlHT.s 			page 180


 7278 013f 00000000 		.4byte	0
 7279 0143 00000000 		.4byte	0
 7280              	.LLST10:
 7281 0147 00000000 		.4byte	.LVL24
 7282 014b 14000000 		.4byte	.LVL26
 7283 014f 0100     		.2byte	0x1
 7284 0151 51       		.byte	0x51
 7285 0152 14000000 		.4byte	.LVL26
 7286 0156 38000000 		.4byte	.LVL31
 7287 015a 0100     		.2byte	0x1
 7288 015c 55       		.byte	0x55
 7289 015d 38000000 		.4byte	.LVL31
 7290 0161 40000000 		.4byte	.LFE93
 7291 0165 0400     		.2byte	0x4
 7292 0167 F3       		.byte	0xf3
 7293 0168 01       		.uleb128 0x1
 7294 0169 51       		.byte	0x51
 7295 016a 9F       		.byte	0x9f
 7296 016b 00000000 		.4byte	0
 7297 016f 00000000 		.4byte	0
 7298              	.LLST11:
 7299 0173 00000000 		.4byte	.LVL24
 7300 0177 1B000000 		.4byte	.LVL28-1
 7301 017b 0100     		.2byte	0x1
 7302 017d 52       		.byte	0x52
 7303 017e 1B000000 		.4byte	.LVL28-1
 7304 0182 38000000 		.4byte	.LVL33
 7305 0186 0100     		.2byte	0x1
 7306 0188 57       		.byte	0x57
 7307 0189 38000000 		.4byte	.LVL33
 7308 018d 40000000 		.4byte	.LFE93
 7309 0191 0400     		.2byte	0x4
 7310 0193 F3       		.byte	0xf3
 7311 0194 01       		.uleb128 0x1
 7312 0195 52       		.byte	0x52
 7313 0196 9F       		.byte	0x9f
 7314 0197 00000000 		.4byte	0
 7315 019b 00000000 		.4byte	0
 7316              	.LLST12:
 7317 019f 0E000000 		.4byte	.LVL25
 7318 01a3 38000000 		.4byte	.LVL30
 7319 01a7 0100     		.2byte	0x1
 7320 01a9 54       		.byte	0x54
 7321 01aa 00000000 		.4byte	0
 7322 01ae 00000000 		.4byte	0
 7323              	.LLST13:
 7324 01b2 00000000 		.4byte	.LVL34
 7325 01b6 0A000000 		.4byte	.LVL35
 7326 01ba 0100     		.2byte	0x1
 7327 01bc 50       		.byte	0x50
 7328 01bd 0A000000 		.4byte	.LVL35
 7329 01c1 3A000000 		.4byte	.LVL42
 7330 01c5 0100     		.2byte	0x1
 7331 01c7 54       		.byte	0x54
 7332 01c8 3A000000 		.4byte	.LVL42
 7333 01cc 3C000000 		.4byte	.LFE96
 7334 01d0 0400     		.2byte	0x4
ARM GAS  C:\Users\ikomb\AppData\Local\Temp\cc5YtlHT.s 			page 181


 7335 01d2 F3       		.byte	0xf3
 7336 01d3 01       		.uleb128 0x1
 7337 01d4 50       		.byte	0x50
 7338 01d5 9F       		.byte	0x9f
 7339 01d6 00000000 		.4byte	0
 7340 01da 00000000 		.4byte	0
 7341              	.LLST14:
 7342 01de 00000000 		.4byte	.LVL34
 7343 01e2 1E000000 		.4byte	.LVL38
 7344 01e6 0100     		.2byte	0x1
 7345 01e8 51       		.byte	0x51
 7346 01e9 1E000000 		.4byte	.LVL38
 7347 01ed 3C000000 		.4byte	.LFE96
 7348 01f1 0400     		.2byte	0x4
 7349 01f3 F3       		.byte	0xf3
 7350 01f4 01       		.uleb128 0x1
 7351 01f5 51       		.byte	0x51
 7352 01f6 9F       		.byte	0x9f
 7353 01f7 00000000 		.4byte	0
 7354 01fb 00000000 		.4byte	0
 7355              	.LLST15:
 7356 01ff 00000000 		.4byte	.LVL34
 7357 0203 0C000000 		.4byte	.LVL36
 7358 0207 0100     		.2byte	0x1
 7359 0209 52       		.byte	0x52
 7360 020a 0C000000 		.4byte	.LVL36
 7361 020e 3A000000 		.4byte	.LVL43
 7362 0212 0100     		.2byte	0x1
 7363 0214 55       		.byte	0x55
 7364 0215 3A000000 		.4byte	.LVL43
 7365 0219 3C000000 		.4byte	.LFE96
 7366 021d 0400     		.2byte	0x4
 7367 021f F3       		.byte	0xf3
 7368 0220 01       		.uleb128 0x1
 7369 0221 52       		.byte	0x52
 7370 0222 9F       		.byte	0x9f
 7371 0223 00000000 		.4byte	0
 7372 0227 00000000 		.4byte	0
 7373              	.LLST16:
 7374 022b 00000000 		.4byte	.LVL34
 7375 022f 0E000000 		.4byte	.LVL37
 7376 0233 0100     		.2byte	0x1
 7377 0235 53       		.byte	0x53
 7378 0236 0E000000 		.4byte	.LVL37
 7379 023a 3C000000 		.4byte	.LFE96
 7380 023e 0400     		.2byte	0x4
 7381 0240 F3       		.byte	0xf3
 7382 0241 01       		.uleb128 0x1
 7383 0242 53       		.byte	0x53
 7384 0243 9F       		.byte	0x9f
 7385 0244 00000000 		.4byte	0
 7386 0248 00000000 		.4byte	0
 7387              	.LLST17:
 7388 024c 24000000 		.4byte	.LVL39
 7389 0250 34000000 		.4byte	.LVL40
 7390 0254 0100     		.2byte	0x1
 7391 0256 50       		.byte	0x50
ARM GAS  C:\Users\ikomb\AppData\Local\Temp\cc5YtlHT.s 			page 182


 7392 0257 38000000 		.4byte	.LVL41
 7393 025b 3C000000 		.4byte	.LFE96
 7394 025f 0100     		.2byte	0x1
 7395 0261 50       		.byte	0x50
 7396 0262 00000000 		.4byte	0
 7397 0266 00000000 		.4byte	0
 7398              	.LLST18:
 7399 026a 00000000 		.4byte	.LVL44
 7400 026e 20000000 		.4byte	.LVL48
 7401 0272 0100     		.2byte	0x1
 7402 0274 50       		.byte	0x50
 7403 0275 20000000 		.4byte	.LVL48
 7404 0279 54000000 		.4byte	.LVL54
 7405 027d 0100     		.2byte	0x1
 7406 027f 56       		.byte	0x56
 7407 0280 54000000 		.4byte	.LVL54
 7408 0284 5C000000 		.4byte	.LFE94
 7409 0288 0400     		.2byte	0x4
 7410 028a F3       		.byte	0xf3
 7411 028b 01       		.uleb128 0x1
 7412 028c 50       		.byte	0x50
 7413 028d 9F       		.byte	0x9f
 7414 028e 00000000 		.4byte	0
 7415 0292 00000000 		.4byte	0
 7416              	.LLST19:
 7417 0296 00000000 		.4byte	.LVL44
 7418 029a 1C000000 		.4byte	.LVL47
 7419 029e 0100     		.2byte	0x1
 7420 02a0 51       		.byte	0x51
 7421 02a1 1C000000 		.4byte	.LVL47
 7422 02a5 54000000 		.4byte	.LVL53
 7423 02a9 0100     		.2byte	0x1
 7424 02ab 55       		.byte	0x55
 7425 02ac 54000000 		.4byte	.LVL53
 7426 02b0 5C000000 		.4byte	.LFE94
 7427 02b4 0400     		.2byte	0x4
 7428 02b6 F3       		.byte	0xf3
 7429 02b7 01       		.uleb128 0x1
 7430 02b8 51       		.byte	0x51
 7431 02b9 9F       		.byte	0x9f
 7432 02ba 00000000 		.4byte	0
 7433 02be 00000000 		.4byte	0
 7434              	.LLST20:
 7435 02c2 00000000 		.4byte	.LVL44
 7436 02c6 0C000000 		.4byte	.LVL45
 7437 02ca 0100     		.2byte	0x1
 7438 02cc 52       		.byte	0x52
 7439 02cd 0C000000 		.4byte	.LVL45
 7440 02d1 54000000 		.4byte	.LVL55
 7441 02d5 0100     		.2byte	0x1
 7442 02d7 57       		.byte	0x57
 7443 02d8 54000000 		.4byte	.LVL55
 7444 02dc 5C000000 		.4byte	.LFE94
 7445 02e0 0400     		.2byte	0x4
 7446 02e2 F3       		.byte	0xf3
 7447 02e3 01       		.uleb128 0x1
 7448 02e4 52       		.byte	0x52
ARM GAS  C:\Users\ikomb\AppData\Local\Temp\cc5YtlHT.s 			page 183


 7449 02e5 9F       		.byte	0x9f
 7450 02e6 00000000 		.4byte	0
 7451 02ea 00000000 		.4byte	0
 7452              	.LLST21:
 7453 02ee 36000000 		.4byte	.LVL50
 7454 02f2 4C000000 		.4byte	.LVL51
 7455 02f6 0100     		.2byte	0x1
 7456 02f8 50       		.byte	0x50
 7457 02f9 00000000 		.4byte	0
 7458 02fd 00000000 		.4byte	0
 7459              	.LLST22:
 7460 0301 14000000 		.4byte	.LVL46
 7461 0305 54000000 		.4byte	.LVL52
 7462 0309 0100     		.2byte	0x1
 7463 030b 54       		.byte	0x54
 7464 030c 00000000 		.4byte	0
 7465 0310 00000000 		.4byte	0
 7466              	.LLST23:
 7467 0314 00000000 		.4byte	.LVL56
 7468 0318 11000000 		.4byte	.LVL58-1
 7469 031c 0100     		.2byte	0x1
 7470 031e 50       		.byte	0x50
 7471 031f 11000000 		.4byte	.LVL58-1
 7472 0323 44000000 		.4byte	.LVL66
 7473 0327 0100     		.2byte	0x1
 7474 0329 54       		.byte	0x54
 7475 032a 44000000 		.4byte	.LVL66
 7476 032e 46000000 		.4byte	.LFE97
 7477 0332 0400     		.2byte	0x4
 7478 0334 F3       		.byte	0xf3
 7479 0335 01       		.uleb128 0x1
 7480 0336 50       		.byte	0x50
 7481 0337 9F       		.byte	0x9f
 7482 0338 00000000 		.4byte	0
 7483 033c 00000000 		.4byte	0
 7484              	.LLST24:
 7485 0340 00000000 		.4byte	.LVL56
 7486 0344 11000000 		.4byte	.LVL58-1
 7487 0348 0100     		.2byte	0x1
 7488 034a 51       		.byte	0x51
 7489 034b 11000000 		.4byte	.LVL58-1
 7490 034f 44000000 		.4byte	.LVL68
 7491 0353 0100     		.2byte	0x1
 7492 0355 57       		.byte	0x57
 7493 0356 44000000 		.4byte	.LVL68
 7494 035a 46000000 		.4byte	.LFE97
 7495 035e 0400     		.2byte	0x4
 7496 0360 F3       		.byte	0xf3
 7497 0361 01       		.uleb128 0x1
 7498 0362 51       		.byte	0x51
 7499 0363 9F       		.byte	0x9f
 7500 0364 00000000 		.4byte	0
 7501 0368 00000000 		.4byte	0
 7502              	.LLST25:
 7503 036c 00000000 		.4byte	.LVL56
 7504 0370 0E000000 		.4byte	.LVL57
 7505 0374 0100     		.2byte	0x1
ARM GAS  C:\Users\ikomb\AppData\Local\Temp\cc5YtlHT.s 			page 184


 7506 0376 52       		.byte	0x52
 7507 0377 0E000000 		.4byte	.LVL57
 7508 037b 44000000 		.4byte	.LVL67
 7509 037f 0100     		.2byte	0x1
 7510 0381 56       		.byte	0x56
 7511 0382 44000000 		.4byte	.LVL67
 7512 0386 46000000 		.4byte	.LFE97
 7513 038a 0400     		.2byte	0x4
 7514 038c F3       		.byte	0xf3
 7515 038d 01       		.uleb128 0x1
 7516 038e 52       		.byte	0x52
 7517 038f 9F       		.byte	0x9f
 7518 0390 00000000 		.4byte	0
 7519 0394 00000000 		.4byte	0
 7520              	.LLST26:
 7521 0398 00000000 		.4byte	.LVL56
 7522 039c 11000000 		.4byte	.LVL58-1
 7523 03a0 0100     		.2byte	0x1
 7524 03a2 53       		.byte	0x53
 7525 03a3 11000000 		.4byte	.LVL58-1
 7526 03a7 46000000 		.4byte	.LFE97
 7527 03ab 0400     		.2byte	0x4
 7528 03ad F3       		.byte	0xf3
 7529 03ae 01       		.uleb128 0x1
 7530 03af 53       		.byte	0x53
 7531 03b0 9F       		.byte	0x9f
 7532 03b1 00000000 		.4byte	0
 7533 03b5 00000000 		.4byte	0
 7534              	.LLST27:
 7535 03b9 12000000 		.4byte	.LVL58
 7536 03bd 3E000000 		.4byte	.LVL64
 7537 03c1 0100     		.2byte	0x1
 7538 03c3 50       		.byte	0x50
 7539 03c4 42000000 		.4byte	.LVL65
 7540 03c8 46000000 		.4byte	.LFE97
 7541 03cc 0100     		.2byte	0x1
 7542 03ce 50       		.byte	0x50
 7543 03cf 00000000 		.4byte	0
 7544 03d3 00000000 		.4byte	0
 7545              	.LLST28:
 7546 03d7 24000000 		.4byte	.LVL60
 7547 03db 3C000000 		.4byte	.LVL63
 7548 03df 0100     		.2byte	0x1
 7549 03e1 51       		.byte	0x51
 7550 03e2 3C000000 		.4byte	.LVL63
 7551 03e6 41000000 		.4byte	.LVL65-1
 7552 03ea 0200     		.2byte	0x2
 7553 03ec 7D       		.byte	0x7d
 7554 03ed 00       		.sleb128 0
 7555 03ee 00000000 		.4byte	0
 7556 03f2 00000000 		.4byte	0
 7557              	.LLST29:
 7558 03f6 1A000000 		.4byte	.LVL59
 7559 03fa 26000000 		.4byte	.LVL61
 7560 03fe 0100     		.2byte	0x1
 7561 0400 53       		.byte	0x53
 7562 0401 26000000 		.4byte	.LVL61
ARM GAS  C:\Users\ikomb\AppData\Local\Temp\cc5YtlHT.s 			page 185


 7563 0405 2A000000 		.4byte	.LVL62
 7564 0409 0500     		.2byte	0x5
 7565 040b 77       		.byte	0x77
 7566 040c 18       		.sleb128 24
 7567 040d 06       		.byte	0x6
 7568 040e 23       		.byte	0x23
 7569 040f 3C       		.uleb128 0x3c
 7570 0410 00000000 		.4byte	0
 7571 0414 00000000 		.4byte	0
 7572              	.LLST30:
 7573 0418 00000000 		.4byte	.LVL69
 7574 041c 24000000 		.4byte	.LVL73
 7575 0420 0100     		.2byte	0x1
 7576 0422 50       		.byte	0x50
 7577 0423 24000000 		.4byte	.LVL73
 7578 0427 1C010000 		.4byte	.LFE95
 7579 042b 0200     		.2byte	0x2
 7580 042d 91       		.byte	0x91
 7581 042e 54       		.sleb128 -44
 7582 042f 00000000 		.4byte	0
 7583 0433 00000000 		.4byte	0
 7584              	.LLST31:
 7585 0437 00000000 		.4byte	.LVL69
 7586 043b 20000000 		.4byte	.LVL72
 7587 043f 0100     		.2byte	0x1
 7588 0441 51       		.byte	0x51
 7589 0442 20000000 		.4byte	.LVL72
 7590 0446 0A010000 		.4byte	.LVL101
 7591 044a 0100     		.2byte	0x1
 7592 044c 55       		.byte	0x55
 7593 044d 0A010000 		.4byte	.LVL101
 7594 0451 1C010000 		.4byte	.LFE95
 7595 0455 0400     		.2byte	0x4
 7596 0457 F3       		.byte	0xf3
 7597 0458 01       		.uleb128 0x1
 7598 0459 51       		.byte	0x51
 7599 045a 9F       		.byte	0x9f
 7600 045b 00000000 		.4byte	0
 7601 045f 00000000 		.4byte	0
 7602              	.LLST32:
 7603 0463 00000000 		.4byte	.LVL69
 7604 0467 12000000 		.4byte	.LVL70
 7605 046b 0100     		.2byte	0x1
 7606 046d 52       		.byte	0x52
 7607 046e 12000000 		.4byte	.LVL70
 7608 0472 0A010000 		.4byte	.LVL103
 7609 0476 0100     		.2byte	0x1
 7610 0478 57       		.byte	0x57
 7611 0479 0A010000 		.4byte	.LVL103
 7612 047d 1C010000 		.4byte	.LFE95
 7613 0481 0400     		.2byte	0x4
 7614 0483 F3       		.byte	0xf3
 7615 0484 01       		.uleb128 0x1
 7616 0485 52       		.byte	0x52
 7617 0486 9F       		.byte	0x9f
 7618 0487 00000000 		.4byte	0
 7619 048b 00000000 		.4byte	0
ARM GAS  C:\Users\ikomb\AppData\Local\Temp\cc5YtlHT.s 			page 186


 7620              	.LLST33:
 7621 048f 66000000 		.4byte	.LVL80
 7622 0493 8A000000 		.4byte	.LVL83
 7623 0497 0100     		.2byte	0x1
 7624 0499 50       		.byte	0x50
 7625 049a 8E000000 		.4byte	.LVL84
 7626 049e 9A000000 		.4byte	.LVL86
 7627 04a2 0100     		.2byte	0x1
 7628 04a4 50       		.byte	0x50
 7629 04a5 9E000000 		.4byte	.LVL87
 7630 04a9 B2000000 		.4byte	.LVL88
 7631 04ad 0100     		.2byte	0x1
 7632 04af 50       		.byte	0x50
 7633 04b0 B6000000 		.4byte	.LVL89
 7634 04b4 CA000000 		.4byte	.LVL91
 7635 04b8 0100     		.2byte	0x1
 7636 04ba 50       		.byte	0x50
 7637 04bb CE000000 		.4byte	.LVL92
 7638 04bf E0000000 		.4byte	.LVL94
 7639 04c3 0100     		.2byte	0x1
 7640 04c5 50       		.byte	0x50
 7641 04c6 E4000000 		.4byte	.LVL95
 7642 04ca 00010000 		.4byte	.LVL97
 7643 04ce 0100     		.2byte	0x1
 7644 04d0 50       		.byte	0x50
 7645 04d1 04010000 		.4byte	.LVL98
 7646 04d5 1C010000 		.4byte	.LFE95
 7647 04d9 0100     		.2byte	0x1
 7648 04db 50       		.byte	0x50
 7649 04dc 00000000 		.4byte	0
 7650 04e0 00000000 		.4byte	0
 7651              	.LLST34:
 7652 04e4 18000000 		.4byte	.LVL71
 7653 04e8 6C000000 		.4byte	.LVL81
 7654 04ec 0100     		.2byte	0x1
 7655 04ee 54       		.byte	0x54
 7656 04ef 00000000 		.4byte	0
 7657 04f3 00000000 		.4byte	0
 7658              	.LLST35:
 7659 04f7 4C000000 		.4byte	.LVL77
 7660 04fb 0A010000 		.4byte	.LVL102
 7661 04ff 0100     		.2byte	0x1
 7662 0501 56       		.byte	0x56
 7663 0502 00000000 		.4byte	0
 7664 0506 00000000 		.4byte	0
 7665              	.LLST36:
 7666 050a 52000000 		.4byte	.LVL78
 7667 050e 0A010000 		.4byte	.LVL104
 7668 0512 0100     		.2byte	0x1
 7669 0514 58       		.byte	0x58
 7670 0515 00000000 		.4byte	0
 7671 0519 00000000 		.4byte	0
 7672              	.LLST37:
 7673 051d 58000000 		.4byte	.LVL79
 7674 0521 0A010000 		.4byte	.LVL105
 7675 0525 0100     		.2byte	0x1
 7676 0527 5A       		.byte	0x5a
ARM GAS  C:\Users\ikomb\AppData\Local\Temp\cc5YtlHT.s 			page 187


 7677 0528 00000000 		.4byte	0
 7678 052c 00000000 		.4byte	0
 7679              	.LLST38:
 7680 0530 6C000000 		.4byte	.LVL81
 7681 0534 80000000 		.4byte	.LVL82
 7682 0538 0100     		.2byte	0x1
 7683 053a 54       		.byte	0x54
 7684 053b 90000000 		.4byte	.LVL85
 7685 053f C0000000 		.4byte	.LVL90
 7686 0543 0100     		.2byte	0x1
 7687 0545 54       		.byte	0x54
 7688 0546 D0000000 		.4byte	.LVL93
 7689 054a EE000000 		.4byte	.LVL96
 7690 054e 0100     		.2byte	0x1
 7691 0550 54       		.byte	0x54
 7692 0551 06010000 		.4byte	.LVL99
 7693 0555 08010000 		.4byte	.LVL100
 7694 0559 0100     		.2byte	0x1
 7695 055b 54       		.byte	0x54
 7696 055c 00000000 		.4byte	0
 7697 0560 00000000 		.4byte	0
 7698              	.LLST39:
 7699 0564 00000000 		.4byte	.LVL106
 7700 0568 16000000 		.4byte	.LVL109
 7701 056c 0100     		.2byte	0x1
 7702 056e 50       		.byte	0x50
 7703 056f 16000000 		.4byte	.LVL109
 7704 0573 36000000 		.4byte	.LVL114
 7705 0577 0100     		.2byte	0x1
 7706 0579 56       		.byte	0x56
 7707 057a 36000000 		.4byte	.LVL114
 7708 057e 40000000 		.4byte	.LFE98
 7709 0582 0400     		.2byte	0x4
 7710 0584 F3       		.byte	0xf3
 7711 0585 01       		.uleb128 0x1
 7712 0586 50       		.byte	0x50
 7713 0587 9F       		.byte	0x9f
 7714 0588 00000000 		.4byte	0
 7715 058c 00000000 		.4byte	0
 7716              	.LLST40:
 7717 0590 00000000 		.4byte	.LVL106
 7718 0594 14000000 		.4byte	.LVL108
 7719 0598 0100     		.2byte	0x1
 7720 059a 51       		.byte	0x51
 7721 059b 14000000 		.4byte	.LVL108
 7722 059f 36000000 		.4byte	.LVL113
 7723 05a3 0100     		.2byte	0x1
 7724 05a5 55       		.byte	0x55
 7725 05a6 36000000 		.4byte	.LVL113
 7726 05aa 40000000 		.4byte	.LFE98
 7727 05ae 0400     		.2byte	0x4
 7728 05b0 F3       		.byte	0xf3
 7729 05b1 01       		.uleb128 0x1
 7730 05b2 51       		.byte	0x51
 7731 05b3 9F       		.byte	0x9f
 7732 05b4 00000000 		.4byte	0
 7733 05b8 00000000 		.4byte	0
ARM GAS  C:\Users\ikomb\AppData\Local\Temp\cc5YtlHT.s 			page 188


 7734              	.LLST41:
 7735 05bc 00000000 		.4byte	.LVL106
 7736 05c0 19000000 		.4byte	.LVL110-1
 7737 05c4 0100     		.2byte	0x1
 7738 05c6 52       		.byte	0x52
 7739 05c7 19000000 		.4byte	.LVL110-1
 7740 05cb 36000000 		.4byte	.LVL115
 7741 05cf 0100     		.2byte	0x1
 7742 05d1 57       		.byte	0x57
 7743 05d2 36000000 		.4byte	.LVL115
 7744 05d6 40000000 		.4byte	.LFE98
 7745 05da 0400     		.2byte	0x4
 7746 05dc F3       		.byte	0xf3
 7747 05dd 01       		.uleb128 0x1
 7748 05de 52       		.byte	0x52
 7749 05df 9F       		.byte	0x9f
 7750 05e0 00000000 		.4byte	0
 7751 05e4 00000000 		.4byte	0
 7752              	.LLST42:
 7753 05e8 0E000000 		.4byte	.LVL107
 7754 05ec 36000000 		.4byte	.LVL112
 7755 05f0 0100     		.2byte	0x1
 7756 05f2 54       		.byte	0x54
 7757 05f3 00000000 		.4byte	0
 7758 05f7 00000000 		.4byte	0
 7759              	.LLST43:
 7760 05fb 00000000 		.4byte	.LVL116
 7761 05ff 1C000000 		.4byte	.LVL121
 7762 0603 0100     		.2byte	0x1
 7763 0605 50       		.byte	0x50
 7764 0606 1C000000 		.4byte	.LVL121
 7765 060a 40000000 		.4byte	.LVL125
 7766 060e 0200     		.2byte	0x2
 7767 0610 91       		.byte	0x91
 7768 0611 60       		.sleb128 -32
 7769 0612 40000000 		.4byte	.LVL125
 7770 0616 42000000 		.4byte	.LVL126
 7771 061a 0100     		.2byte	0x1
 7772 061c 50       		.byte	0x50
 7773 061d 42000000 		.4byte	.LVL126
 7774 0621 50000000 		.4byte	.LFE99
 7775 0625 0200     		.2byte	0x2
 7776 0627 91       		.byte	0x91
 7777 0628 60       		.sleb128 -32
 7778 0629 00000000 		.4byte	0
 7779 062d 00000000 		.4byte	0
 7780              	.LLST44:
 7781 0631 00000000 		.4byte	.LVL116
 7782 0635 18000000 		.4byte	.LVL120
 7783 0639 0100     		.2byte	0x1
 7784 063b 51       		.byte	0x51
 7785 063c 18000000 		.4byte	.LVL120
 7786 0640 40000000 		.4byte	.LVL125
 7787 0644 0100     		.2byte	0x1
 7788 0646 56       		.byte	0x56
 7789 0647 40000000 		.4byte	.LVL125
 7790 064b 42000000 		.4byte	.LVL126
ARM GAS  C:\Users\ikomb\AppData\Local\Temp\cc5YtlHT.s 			page 189


 7791 064f 0100     		.2byte	0x1
 7792 0651 51       		.byte	0x51
 7793 0652 42000000 		.4byte	.LVL126
 7794 0656 44000000 		.4byte	.LVL128
 7795 065a 0100     		.2byte	0x1
 7796 065c 56       		.byte	0x56
 7797 065d 44000000 		.4byte	.LVL128
 7798 0661 50000000 		.4byte	.LFE99
 7799 0665 0400     		.2byte	0x4
 7800 0667 F3       		.byte	0xf3
 7801 0668 01       		.uleb128 0x1
 7802 0669 51       		.byte	0x51
 7803 066a 9F       		.byte	0x9f
 7804 066b 00000000 		.4byte	0
 7805 066f 00000000 		.4byte	0
 7806              	.LLST45:
 7807 0673 00000000 		.4byte	.LVL116
 7808 0677 1F000000 		.4byte	.LVL122-1
 7809 067b 0100     		.2byte	0x1
 7810 067d 52       		.byte	0x52
 7811 067e 1F000000 		.4byte	.LVL122-1
 7812 0682 40000000 		.4byte	.LVL125
 7813 0686 0100     		.2byte	0x1
 7814 0688 55       		.byte	0x55
 7815 0689 40000000 		.4byte	.LVL125
 7816 068d 42000000 		.4byte	.LVL126
 7817 0691 0100     		.2byte	0x1
 7818 0693 52       		.byte	0x52
 7819 0694 42000000 		.4byte	.LVL126
 7820 0698 44000000 		.4byte	.LVL127
 7821 069c 0100     		.2byte	0x1
 7822 069e 55       		.byte	0x55
 7823 069f 44000000 		.4byte	.LVL127
 7824 06a3 50000000 		.4byte	.LFE99
 7825 06a7 0400     		.2byte	0x4
 7826 06a9 F3       		.byte	0xf3
 7827 06aa 01       		.uleb128 0x1
 7828 06ab 52       		.byte	0x52
 7829 06ac 9F       		.byte	0x9f
 7830 06ad 00000000 		.4byte	0
 7831 06b1 00000000 		.4byte	0
 7832              	.LLST46:
 7833 06b5 00000000 		.4byte	.LVL116
 7834 06b9 1F000000 		.4byte	.LVL122-1
 7835 06bd 0100     		.2byte	0x1
 7836 06bf 53       		.byte	0x53
 7837 06c0 1F000000 		.4byte	.LVL122-1
 7838 06c4 40000000 		.4byte	.LVL125
 7839 06c8 0200     		.2byte	0x2
 7840 06ca 91       		.byte	0x91
 7841 06cb 64       		.sleb128 -28
 7842 06cc 40000000 		.4byte	.LVL125
 7843 06d0 42000000 		.4byte	.LVL126
 7844 06d4 0100     		.2byte	0x1
 7845 06d6 53       		.byte	0x53
 7846 06d7 42000000 		.4byte	.LVL126
 7847 06db 50000000 		.4byte	.LFE99
ARM GAS  C:\Users\ikomb\AppData\Local\Temp\cc5YtlHT.s 			page 190


 7848 06df 0200     		.2byte	0x2
 7849 06e1 91       		.byte	0x91
 7850 06e2 64       		.sleb128 -28
 7851 06e3 00000000 		.4byte	0
 7852 06e7 00000000 		.4byte	0
 7853              	.LLST47:
 7854 06eb 0C000000 		.4byte	.LVL117
 7855 06ef 3E000000 		.4byte	.LVL124
 7856 06f3 0600     		.2byte	0x6
 7857 06f5 0C       		.byte	0xc
 7858 06f6 0400B200 		.4byte	0xb20004
 7859 06fa 9F       		.byte	0x9f
 7860 06fb 3E000000 		.4byte	.LVL124
 7861 06ff 40000000 		.4byte	.LVL125
 7862 0703 0100     		.2byte	0x1
 7863 0705 50       		.byte	0x50
 7864 0706 40000000 		.4byte	.LVL125
 7865 070a 42000000 		.4byte	.LVL126
 7866 070e 0600     		.2byte	0x6
 7867 0710 0C       		.byte	0xc
 7868 0711 0400B200 		.4byte	0xb20004
 7869 0715 9F       		.byte	0x9f
 7870 0716 42000000 		.4byte	.LVL126
 7871 071a 50000000 		.4byte	.LFE99
 7872 071e 0100     		.2byte	0x1
 7873 0720 50       		.byte	0x50
 7874 0721 00000000 		.4byte	0
 7875 0725 00000000 		.4byte	0
 7876              	.LLST48:
 7877 0729 10000000 		.4byte	.LVL118
 7878 072d 40000000 		.4byte	.LVL125
 7879 0731 0100     		.2byte	0x1
 7880 0733 57       		.byte	0x57
 7881 0734 00000000 		.4byte	0
 7882 0738 00000000 		.4byte	0
 7883              	.LLST49:
 7884 073c 12000000 		.4byte	.LVL119
 7885 0740 2A000000 		.4byte	.LVL123
 7886 0744 0100     		.2byte	0x1
 7887 0746 54       		.byte	0x54
 7888 0747 00000000 		.4byte	0
 7889 074b 00000000 		.4byte	0
 7890              	.LLST50:
 7891 074f 00000000 		.4byte	.LVL129
 7892 0753 18000000 		.4byte	.LVL134
 7893 0757 0100     		.2byte	0x1
 7894 0759 50       		.byte	0x50
 7895 075a 18000000 		.4byte	.LVL134
 7896 075e 94000000 		.4byte	.LFE100
 7897 0762 0200     		.2byte	0x2
 7898 0764 91       		.byte	0x91
 7899 0765 60       		.sleb128 -32
 7900 0766 00000000 		.4byte	0
 7901 076a 00000000 		.4byte	0
 7902              	.LLST51:
 7903 076e 00000000 		.4byte	.LVL129
 7904 0772 16000000 		.4byte	.LVL133
ARM GAS  C:\Users\ikomb\AppData\Local\Temp\cc5YtlHT.s 			page 191


 7905 0776 0100     		.2byte	0x1
 7906 0778 51       		.byte	0x51
 7907 0779 16000000 		.4byte	.LVL133
 7908 077d 3E000000 		.4byte	.LVL138
 7909 0781 0100     		.2byte	0x1
 7910 0783 56       		.byte	0x56
 7911 0784 3E000000 		.4byte	.LVL138
 7912 0788 7C000000 		.4byte	.LVL145
 7913 078c 0400     		.2byte	0x4
 7914 078e F3       		.byte	0xf3
 7915 078f 01       		.uleb128 0x1
 7916 0790 51       		.byte	0x51
 7917 0791 9F       		.byte	0x9f
 7918 0792 7C000000 		.4byte	.LVL145
 7919 0796 82000000 		.4byte	.LVL146
 7920 079a 0100     		.2byte	0x1
 7921 079c 56       		.byte	0x56
 7922 079d 82000000 		.4byte	.LVL146
 7923 07a1 94000000 		.4byte	.LFE100
 7924 07a5 0400     		.2byte	0x4
 7925 07a7 F3       		.byte	0xf3
 7926 07a8 01       		.uleb128 0x1
 7927 07a9 51       		.byte	0x51
 7928 07aa 9F       		.byte	0x9f
 7929 07ab 00000000 		.4byte	0
 7930 07af 00000000 		.4byte	0
 7931              	.LLST52:
 7932 07b3 00000000 		.4byte	.LVL129
 7933 07b7 1B000000 		.4byte	.LVL135-1
 7934 07bb 0100     		.2byte	0x1
 7935 07bd 52       		.byte	0x52
 7936 07be 1B000000 		.4byte	.LVL135-1
 7937 07c2 84000000 		.4byte	.LVL148
 7938 07c6 0100     		.2byte	0x1
 7939 07c8 57       		.byte	0x57
 7940 07c9 84000000 		.4byte	.LVL148
 7941 07cd 94000000 		.4byte	.LFE100
 7942 07d1 0400     		.2byte	0x4
 7943 07d3 F3       		.byte	0xf3
 7944 07d4 01       		.uleb128 0x1
 7945 07d5 52       		.byte	0x52
 7946 07d6 9F       		.byte	0x9f
 7947 07d7 00000000 		.4byte	0
 7948 07db 00000000 		.4byte	0
 7949              	.LLST53:
 7950 07df 00000000 		.4byte	.LVL129
 7951 07e3 1B000000 		.4byte	.LVL135-1
 7952 07e7 0100     		.2byte	0x1
 7953 07e9 53       		.byte	0x53
 7954 07ea 1B000000 		.4byte	.LVL135-1
 7955 07ee 94000000 		.4byte	.LFE100
 7956 07f2 0200     		.2byte	0x2
 7957 07f4 91       		.byte	0x91
 7958 07f5 64       		.sleb128 -28
 7959 07f6 00000000 		.4byte	0
 7960 07fa 00000000 		.4byte	0
 7961              	.LLST54:
ARM GAS  C:\Users\ikomb\AppData\Local\Temp\cc5YtlHT.s 			page 192


 7962 07fe 0C000000 		.4byte	.LVL130
 7963 0802 52000000 		.4byte	.LVL140
 7964 0806 0600     		.2byte	0x6
 7965 0808 0C       		.byte	0xc
 7966 0809 0400B200 		.4byte	0xb20004
 7967 080d 9F       		.byte	0x9f
 7968 080e 52000000 		.4byte	.LVL140
 7969 0812 5E000000 		.4byte	.LVL141
 7970 0816 0100     		.2byte	0x1
 7971 0818 50       		.byte	0x50
 7972 0819 62000000 		.4byte	.LVL142
 7973 081d 76000000 		.4byte	.LVL143
 7974 0821 0100     		.2byte	0x1
 7975 0823 50       		.byte	0x50
 7976 0824 7A000000 		.4byte	.LVL144
 7977 0828 7C000000 		.4byte	.LVL145
 7978 082c 0100     		.2byte	0x1
 7979 082e 50       		.byte	0x50
 7980 082f 7C000000 		.4byte	.LVL145
 7981 0833 82000000 		.4byte	.LVL146
 7982 0837 0600     		.2byte	0x6
 7983 0839 0C       		.byte	0xc
 7984 083a 0400B200 		.4byte	0xb20004
 7985 083e 9F       		.byte	0x9f
 7986 083f 82000000 		.4byte	.LVL146
 7987 0843 94000000 		.4byte	.LFE100
 7988 0847 0100     		.2byte	0x1
 7989 0849 50       		.byte	0x50
 7990 084a 00000000 		.4byte	0
 7991 084e 00000000 		.4byte	0
 7992              	.LLST55:
 7993 0852 34000000 		.4byte	.LVL136
 7994 0856 4C000000 		.4byte	.LVL139
 7995 085a 0100     		.2byte	0x1
 7996 085c 53       		.byte	0x53
 7997 085d 00000000 		.4byte	0
 7998 0861 00000000 		.4byte	0
 7999              	.LLST56:
 8000 0865 0E000000 		.4byte	.LVL131
 8001 0869 3C000000 		.4byte	.LVL137
 8002 086d 0100     		.2byte	0x1
 8003 086f 54       		.byte	0x54
 8004 0870 7C000000 		.4byte	.LVL145
 8005 0874 82000000 		.4byte	.LVL146
 8006 0878 0100     		.2byte	0x1
 8007 087a 54       		.byte	0x54
 8008 087b 00000000 		.4byte	0
 8009 087f 00000000 		.4byte	0
 8010              	.LLST57:
 8011 0883 10000000 		.4byte	.LVL132
 8012 0887 84000000 		.4byte	.LVL147
 8013 088b 0100     		.2byte	0x1
 8014 088d 55       		.byte	0x55
 8015 088e 00000000 		.4byte	0
 8016 0892 00000000 		.4byte	0
 8017              	.LLST58:
 8018 0896 00000000 		.4byte	.LVL149
ARM GAS  C:\Users\ikomb\AppData\Local\Temp\cc5YtlHT.s 			page 193


 8019 089a 12000000 		.4byte	.LVL153
 8020 089e 0100     		.2byte	0x1
 8021 08a0 50       		.byte	0x50
 8022 08a1 12000000 		.4byte	.LVL153
 8023 08a5 86000000 		.4byte	.LVL166
 8024 08a9 0200     		.2byte	0x2
 8025 08ab 91       		.byte	0x91
 8026 08ac 60       		.sleb128 -32
 8027 08ad 86000000 		.4byte	.LVL166
 8028 08b1 88000000 		.4byte	.LVL167
 8029 08b5 0100     		.2byte	0x1
 8030 08b7 50       		.byte	0x50
 8031 08b8 88000000 		.4byte	.LVL167
 8032 08bc 90000000 		.4byte	.LFE101
 8033 08c0 0200     		.2byte	0x2
 8034 08c2 91       		.byte	0x91
 8035 08c3 60       		.sleb128 -32
 8036 08c4 00000000 		.4byte	0
 8037 08c8 00000000 		.4byte	0
 8038              	.LLST59:
 8039 08cc 00000000 		.4byte	.LVL149
 8040 08d0 1E000000 		.4byte	.LVL155
 8041 08d4 0100     		.2byte	0x1
 8042 08d6 51       		.byte	0x51
 8043 08d7 1E000000 		.4byte	.LVL155
 8044 08db 86000000 		.4byte	.LVL166
 8045 08df 0400     		.2byte	0x4
 8046 08e1 F3       		.byte	0xf3
 8047 08e2 01       		.uleb128 0x1
 8048 08e3 51       		.byte	0x51
 8049 08e4 9F       		.byte	0x9f
 8050 08e5 86000000 		.4byte	.LVL166
 8051 08e9 88000000 		.4byte	.LVL167
 8052 08ed 0100     		.2byte	0x1
 8053 08ef 51       		.byte	0x51
 8054 08f0 88000000 		.4byte	.LVL167
 8055 08f4 90000000 		.4byte	.LFE101
 8056 08f8 0400     		.2byte	0x4
 8057 08fa F3       		.byte	0xf3
 8058 08fb 01       		.uleb128 0x1
 8059 08fc 51       		.byte	0x51
 8060 08fd 9F       		.byte	0x9f
 8061 08fe 00000000 		.4byte	0
 8062 0902 00000000 		.4byte	0
 8063              	.LLST60:
 8064 0906 00000000 		.4byte	.LVL149
 8065 090a 20000000 		.4byte	.LVL156
 8066 090e 0100     		.2byte	0x1
 8067 0910 52       		.byte	0x52
 8068 0911 20000000 		.4byte	.LVL156
 8069 0915 86000000 		.4byte	.LVL166
 8070 0919 0100     		.2byte	0x1
 8071 091b 57       		.byte	0x57
 8072 091c 86000000 		.4byte	.LVL166
 8073 0920 88000000 		.4byte	.LVL167
 8074 0924 0100     		.2byte	0x1
 8075 0926 52       		.byte	0x52
ARM GAS  C:\Users\ikomb\AppData\Local\Temp\cc5YtlHT.s 			page 194


 8076 0927 88000000 		.4byte	.LVL167
 8077 092b 8A000000 		.4byte	.LVL169
 8078 092f 0100     		.2byte	0x1
 8079 0931 57       		.byte	0x57
 8080 0932 8A000000 		.4byte	.LVL169
 8081 0936 90000000 		.4byte	.LFE101
 8082 093a 0400     		.2byte	0x4
 8083 093c F3       		.byte	0xf3
 8084 093d 01       		.uleb128 0x1
 8085 093e 52       		.byte	0x52
 8086 093f 9F       		.byte	0x9f
 8087 0940 00000000 		.4byte	0
 8088 0944 00000000 		.4byte	0
 8089              	.LLST61:
 8090 0948 00000000 		.4byte	.LVL149
 8091 094c 0C000000 		.4byte	.LVL151
 8092 0950 0100     		.2byte	0x1
 8093 0952 53       		.byte	0x53
 8094 0953 0C000000 		.4byte	.LVL151
 8095 0957 90000000 		.4byte	.LFE101
 8096 095b 0200     		.2byte	0x2
 8097 095d 91       		.byte	0x91
 8098 095e 64       		.sleb128 -28
 8099 095f 00000000 		.4byte	0
 8100 0963 00000000 		.4byte	0
 8101              	.LLST62:
 8102 0967 0A000000 		.4byte	.LVL150
 8103 096b 3A000000 		.4byte	.LVL159
 8104 096f 0600     		.2byte	0x6
 8105 0971 0C       		.byte	0xc
 8106 0972 0400B200 		.4byte	0xb20004
 8107 0976 9F       		.byte	0x9f
 8108 0977 3A000000 		.4byte	.LVL159
 8109 097b 46000000 		.4byte	.LVL160
 8110 097f 0100     		.2byte	0x1
 8111 0981 50       		.byte	0x50
 8112 0982 4A000000 		.4byte	.LVL161
 8113 0986 68000000 		.4byte	.LVL162
 8114 098a 0100     		.2byte	0x1
 8115 098c 50       		.byte	0x50
 8116 098d 6C000000 		.4byte	.LVL163
 8117 0991 80000000 		.4byte	.LVL164
 8118 0995 0100     		.2byte	0x1
 8119 0997 50       		.byte	0x50
 8120 0998 84000000 		.4byte	.LVL165
 8121 099c 86000000 		.4byte	.LVL166
 8122 09a0 0100     		.2byte	0x1
 8123 09a2 50       		.byte	0x50
 8124 09a3 86000000 		.4byte	.LVL166
 8125 09a7 88000000 		.4byte	.LVL167
 8126 09ab 0600     		.2byte	0x6
 8127 09ad 0C       		.byte	0xc
 8128 09ae 0400B200 		.4byte	0xb20004
 8129 09b2 9F       		.byte	0x9f
 8130 09b3 88000000 		.4byte	.LVL167
 8131 09b7 90000000 		.4byte	.LFE101
 8132 09bb 0100     		.2byte	0x1
ARM GAS  C:\Users\ikomb\AppData\Local\Temp\cc5YtlHT.s 			page 195


 8133 09bd 50       		.byte	0x50
 8134 09be 00000000 		.4byte	0
 8135 09c2 00000000 		.4byte	0
 8136              	.LLST63:
 8137 09c6 1C000000 		.4byte	.LVL154
 8138 09ca 86000000 		.4byte	.LVL166
 8139 09ce 0100     		.2byte	0x1
 8140 09d0 56       		.byte	0x56
 8141 09d1 00000000 		.4byte	0
 8142 09d5 00000000 		.4byte	0
 8143              	.LLST64:
 8144 09d9 0C000000 		.4byte	.LVL151
 8145 09dd 22000000 		.4byte	.LVL157
 8146 09e1 0100     		.2byte	0x1
 8147 09e3 53       		.byte	0x53
 8148 09e4 22000000 		.4byte	.LVL157
 8149 09e8 28000000 		.4byte	.LVL158
 8150 09ec 0500     		.2byte	0x5
 8151 09ee F3       		.byte	0xf3
 8152 09ef 01       		.uleb128 0x1
 8153 09f0 51       		.byte	0x51
 8154 09f1 23       		.byte	0x23
 8155 09f2 18       		.uleb128 0x18
 8156 09f3 86000000 		.4byte	.LVL166
 8157 09f7 88000000 		.4byte	.LVL167
 8158 09fb 0100     		.2byte	0x1
 8159 09fd 53       		.byte	0x53
 8160 09fe 00000000 		.4byte	0
 8161 0a02 00000000 		.4byte	0
 8162              	.LLST65:
 8163 0a06 0E000000 		.4byte	.LVL152
 8164 0a0a 8A000000 		.4byte	.LVL168
 8165 0a0e 0100     		.2byte	0x1
 8166 0a10 54       		.byte	0x54
 8167 0a11 00000000 		.4byte	0
 8168 0a15 00000000 		.4byte	0
 8169              	.LLST66:
 8170 0a19 00000000 		.4byte	.LVL170
 8171 0a1d 1C000000 		.4byte	.LVL172
 8172 0a21 0100     		.2byte	0x1
 8173 0a23 50       		.byte	0x50
 8174 0a24 1C000000 		.4byte	.LVL172
 8175 0a28 60040000 		.4byte	.LFE102
 8176 0a2c 0300     		.2byte	0x3
 8177 0a2e 91       		.byte	0x91
 8178 0a2f CC7D     		.sleb128 -308
 8179 0a31 00000000 		.4byte	0
 8180 0a35 00000000 		.4byte	0
 8181              	.LLST67:
 8182 0a39 00000000 		.4byte	.LVL170
 8183 0a3d 1A000000 		.4byte	.LVL171
 8184 0a41 0100     		.2byte	0x1
 8185 0a43 51       		.byte	0x51
 8186 0a44 1A000000 		.4byte	.LVL171
 8187 0a48 4E040000 		.4byte	.LVL281
 8188 0a4c 0100     		.2byte	0x1
 8189 0a4e 55       		.byte	0x55
ARM GAS  C:\Users\ikomb\AppData\Local\Temp\cc5YtlHT.s 			page 196


 8190 0a4f 4E040000 		.4byte	.LVL281
 8191 0a53 60040000 		.4byte	.LFE102
 8192 0a57 0400     		.2byte	0x4
 8193 0a59 F3       		.byte	0xf3
 8194 0a5a 01       		.uleb128 0x1
 8195 0a5b 51       		.byte	0x51
 8196 0a5c 9F       		.byte	0x9f
 8197 0a5d 00000000 		.4byte	0
 8198 0a61 00000000 		.4byte	0
 8199              	.LLST68:
 8200 0a65 00000000 		.4byte	.LVL170
 8201 0a69 1F000000 		.4byte	.LVL173-1
 8202 0a6d 0100     		.2byte	0x1
 8203 0a6f 52       		.byte	0x52
 8204 0a70 1F000000 		.4byte	.LVL173-1
 8205 0a74 60040000 		.4byte	.LFE102
 8206 0a78 0400     		.2byte	0x4
 8207 0a7a F3       		.byte	0xf3
 8208 0a7b 01       		.uleb128 0x1
 8209 0a7c 52       		.byte	0x52
 8210 0a7d 9F       		.byte	0x9f
 8211 0a7e 00000000 		.4byte	0
 8212 0a82 00000000 		.4byte	0
 8213              	.LLST69:
 8214 0a86 00000000 		.4byte	.LVL170
 8215 0a8a 1F000000 		.4byte	.LVL173-1
 8216 0a8e 0100     		.2byte	0x1
 8217 0a90 53       		.byte	0x53
 8218 0a91 1F000000 		.4byte	.LVL173-1
 8219 0a95 60040000 		.4byte	.LFE102
 8220 0a99 0400     		.2byte	0x4
 8221 0a9b F3       		.byte	0xf3
 8222 0a9c 01       		.uleb128 0x1
 8223 0a9d 53       		.byte	0x53
 8224 0a9e 9F       		.byte	0x9f
 8225 0a9f 00000000 		.4byte	0
 8226 0aa3 00000000 		.4byte	0
 8227              	.LLST70:
 8228 0aa7 62000000 		.4byte	.LVL178
 8229 0aab 68000000 		.4byte	.LVL179
 8230 0aaf 0100     		.2byte	0x1
 8231 0ab1 50       		.byte	0x50
 8232 0ab2 68000000 		.4byte	.LVL179
 8233 0ab6 6E000000 		.4byte	.LVL181
 8234 0aba 0100     		.2byte	0x1
 8235 0abc 54       		.byte	0x54
 8236 0abd 6E000000 		.4byte	.LVL181
 8237 0ac1 80000000 		.4byte	.LVL182
 8238 0ac5 0100     		.2byte	0x1
 8239 0ac7 50       		.byte	0x50
 8240 0ac8 80000000 		.4byte	.LVL182
 8241 0acc 86000000 		.4byte	.LVL184
 8242 0ad0 0100     		.2byte	0x1
 8243 0ad2 54       		.byte	0x54
 8244 0ad3 86000000 		.4byte	.LVL184
 8245 0ad7 90000000 		.4byte	.LVL186
 8246 0adb 0100     		.2byte	0x1
ARM GAS  C:\Users\ikomb\AppData\Local\Temp\cc5YtlHT.s 			page 197


 8247 0add 50       		.byte	0x50
 8248 0ade 90000000 		.4byte	.LVL186
 8249 0ae2 99000000 		.4byte	.LVL187-1
 8250 0ae6 0100     		.2byte	0x1
 8251 0ae8 53       		.byte	0x53
 8252 0ae9 A4000000 		.4byte	.LVL189
 8253 0aed A6000000 		.4byte	.LVL190
 8254 0af1 0100     		.2byte	0x1
 8255 0af3 53       		.byte	0x53
 8256 0af4 AA000000 		.4byte	.LVL191
 8257 0af8 BC000000 		.4byte	.LVL192
 8258 0afc 0100     		.2byte	0x1
 8259 0afe 53       		.byte	0x53
 8260 0aff BC000000 		.4byte	.LVL192
 8261 0b03 36040000 		.4byte	.LVL269
 8262 0b07 0100     		.2byte	0x1
 8263 0b09 54       		.byte	0x54
 8264 0b0a 38040000 		.4byte	.LVL270
 8265 0b0e 3A040000 		.4byte	.LVL271
 8266 0b12 0100     		.2byte	0x1
 8267 0b14 54       		.byte	0x54
 8268 0b15 3C040000 		.4byte	.LVL272
 8269 0b19 3E040000 		.4byte	.LVL273
 8270 0b1d 0100     		.2byte	0x1
 8271 0b1f 54       		.byte	0x54
 8272 0b20 40040000 		.4byte	.LVL274
 8273 0b24 42040000 		.4byte	.LVL275
 8274 0b28 0100     		.2byte	0x1
 8275 0b2a 54       		.byte	0x54
 8276 0b2b 44040000 		.4byte	.LVL276
 8277 0b2f 46040000 		.4byte	.LVL277
 8278 0b33 0100     		.2byte	0x1
 8279 0b35 54       		.byte	0x54
 8280 0b36 48040000 		.4byte	.LVL278
 8281 0b3a 4E040000 		.4byte	.LVL280
 8282 0b3e 0100     		.2byte	0x1
 8283 0b40 54       		.byte	0x54
 8284 0b41 4E040000 		.4byte	.LVL280
 8285 0b45 60040000 		.4byte	.LFE102
 8286 0b49 0100     		.2byte	0x1
 8287 0b4b 50       		.byte	0x50
 8288 0b4c 00000000 		.4byte	0
 8289 0b50 00000000 		.4byte	0
 8290              	.LLST71:
 8291 0b54 3A000000 		.4byte	.LVL175
 8292 0b58 8C000000 		.4byte	.LVL185
 8293 0b5c 0100     		.2byte	0x1
 8294 0b5e 57       		.byte	0x57
 8295 0b5f 00000000 		.4byte	0
 8296 0b63 00000000 		.4byte	0
 8297              	.LLST72:
 8298 0b67 8C000000 		.4byte	.LVL185
 8299 0b6b BC000000 		.4byte	.LVL192
 8300 0b6f 0100     		.2byte	0x1
 8301 0b71 57       		.byte	0x57
 8302 0b72 00000000 		.4byte	0
 8303 0b76 00000000 		.4byte	0
ARM GAS  C:\Users\ikomb\AppData\Local\Temp\cc5YtlHT.s 			page 198


 8304              	.LLST73:
 8305 0b7a 90000000 		.4byte	.LVL186
 8306 0b7e AA000000 		.4byte	.LVL191
 8307 0b82 0600     		.2byte	0x6
 8308 0b84 F2       		.byte	0xf2
 8309 0b85 52170000 		.4byte	.Ldebug_info0+5970
 8310 0b89 00       		.sleb128 0
 8311 0b8a 00000000 		.4byte	0
 8312 0b8e 00000000 		.4byte	0
 8313              	.LLST74:
 8314 0b92 90000000 		.4byte	.LVL186
 8315 0b96 AA000000 		.4byte	.LVL191
 8316 0b9a 0200     		.2byte	0x2
 8317 0b9c 30       		.byte	0x30
 8318 0b9d 9F       		.byte	0x9f
 8319 0b9e 00000000 		.4byte	0
 8320 0ba2 00000000 		.4byte	0
 8321              	.LLST75:
 8322 0ba6 02010000 		.4byte	.LVL193
 8323 0baa DA030000 		.4byte	.LVL266
 8324 0bae 0100     		.2byte	0x1
 8325 0bb0 52       		.byte	0x52
 8326 0bb1 DA030000 		.4byte	.LVL266
 8327 0bb5 DE030000 		.4byte	.LVL267
 8328 0bb9 0300     		.2byte	0x3
 8329 0bbb 72       		.byte	0x72
 8330 0bbc 46       		.sleb128 -58
 8331 0bbd 9F       		.byte	0x9f
 8332 0bbe DE030000 		.4byte	.LVL267
 8333 0bc2 34040000 		.4byte	.LVL268
 8334 0bc6 0300     		.2byte	0x3
 8335 0bc8 78       		.byte	0x78
 8336 0bc9 7E       		.sleb128 -2
 8337 0bca 9F       		.byte	0x9f
 8338 0bcb 00000000 		.4byte	0
 8339 0bcf 00000000 		.4byte	0
 8340              	.LLST76:
 8341 0bd3 04010000 		.4byte	.LVL194
 8342 0bd7 76030000 		.4byte	.LVL265
 8343 0bdb 0100     		.2byte	0x1
 8344 0bdd 53       		.byte	0x53
 8345 0bde 00000000 		.4byte	0
 8346 0be2 00000000 		.4byte	0
 8347              	.LLST77:
 8348 0be6 08010000 		.4byte	.LVL195
 8349 0bea 0C010000 		.4byte	.LVL196
 8350 0bee 0100     		.2byte	0x1
 8351 0bf0 50       		.byte	0x50
 8352 0bf1 0C010000 		.4byte	.LVL196
 8353 0bf5 34040000 		.4byte	.LVL268
 8354 0bf9 0100     		.2byte	0x1
 8355 0bfb 58       		.byte	0x58
 8356 0bfc 00000000 		.4byte	0
 8357 0c00 00000000 		.4byte	0
 8358              	.LLST78:
 8359 0c04 10010000 		.4byte	.LVL197
 8360 0c08 20010000 		.4byte	.LVL198
ARM GAS  C:\Users\ikomb\AppData\Local\Temp\cc5YtlHT.s 			page 199


 8361 0c0c 0100     		.2byte	0x1
 8362 0c0e 51       		.byte	0x51
 8363 0c0f 20010000 		.4byte	.LVL198
 8364 0c13 24010000 		.4byte	.LVL199
 8365 0c17 0600     		.2byte	0x6
 8366 0c19 71       		.byte	0x71
 8367 0c1a 00       		.sleb128 0
 8368 0c1b 70       		.byte	0x70
 8369 0c1c 00       		.sleb128 0
 8370 0c1d 1A       		.byte	0x1a
 8371 0c1e 9F       		.byte	0x9f
 8372 0c1f 24010000 		.4byte	.LVL199
 8373 0c23 26010000 		.4byte	.LVL200
 8374 0c27 0100     		.2byte	0x1
 8375 0c29 51       		.byte	0x51
 8376 0c2a 26010000 		.4byte	.LVL200
 8377 0c2e 2A010000 		.4byte	.LVL201
 8378 0c32 0600     		.2byte	0x6
 8379 0c34 71       		.byte	0x71
 8380 0c35 00       		.sleb128 0
 8381 0c36 70       		.byte	0x70
 8382 0c37 00       		.sleb128 0
 8383 0c38 1A       		.byte	0x1a
 8384 0c39 9F       		.byte	0x9f
 8385 0c3a 2A010000 		.4byte	.LVL201
 8386 0c3e 2C010000 		.4byte	.LVL202
 8387 0c42 0100     		.2byte	0x1
 8388 0c44 51       		.byte	0x51
 8389 0c45 2C010000 		.4byte	.LVL202
 8390 0c49 38010000 		.4byte	.LVL203
 8391 0c4d 0500     		.2byte	0x5
 8392 0c4f 70       		.byte	0x70
 8393 0c50 00       		.sleb128 0
 8394 0c51 33       		.byte	0x33
 8395 0c52 1A       		.byte	0x1a
 8396 0c53 9F       		.byte	0x9f
 8397 0c54 00000000 		.4byte	0
 8398 0c58 00000000 		.4byte	0
 8399              	.LLST79:
 8400 0c5c 3C010000 		.4byte	.LVL204
 8401 0c60 40010000 		.4byte	.LVL205
 8402 0c64 0100     		.2byte	0x1
 8403 0c66 51       		.byte	0x51
 8404 0c67 40010000 		.4byte	.LVL205
 8405 0c6b 8A010000 		.4byte	.LVL220
 8406 0c6f 0100     		.2byte	0x1
 8407 0c71 59       		.byte	0x59
 8408 0c72 8A010000 		.4byte	.LVL220
 8409 0c76 94010000 		.4byte	.LVL221
 8410 0c7a 0B00     		.2byte	0xb
 8411 0c7c 77       		.byte	0x77
 8412 0c7d 09       		.sleb128 9
 8413 0c7e 32       		.byte	0x32
 8414 0c7f 24       		.byte	0x24
 8415 0c80 91       		.byte	0x91
 8416 0c81 00       		.sleb128 0
 8417 0c82 22       		.byte	0x22
ARM GAS  C:\Users\ikomb\AppData\Local\Temp\cc5YtlHT.s 			page 200


 8418 0c83 0A       		.byte	0xa
 8419 0c84 2001     		.2byte	0x120
 8420 0c86 1C       		.byte	0x1c
 8421 0c87 00000000 		.4byte	0
 8422 0c8b 00000000 		.4byte	0
 8423              	.LLST80:
 8424 0c8f 42010000 		.4byte	.LVL206
 8425 0c93 6E010000 		.4byte	.LVL210
 8426 0c97 0100     		.2byte	0x1
 8427 0c99 51       		.byte	0x51
 8428 0c9a 6E010000 		.4byte	.LVL210
 8429 0c9e 70010000 		.4byte	.LVL211
 8430 0ca2 0700     		.2byte	0x7
 8431 0ca4 79       		.byte	0x79
 8432 0ca5 00       		.sleb128 0
 8433 0ca6 39       		.byte	0x39
 8434 0ca7 25       		.byte	0x25
 8435 0ca8 33       		.byte	0x33
 8436 0ca9 1A       		.byte	0x1a
 8437 0caa 9F       		.byte	0x9f
 8438 0cab 70010000 		.4byte	.LVL211
 8439 0caf 72010000 		.4byte	.LVL212
 8440 0cb3 0100     		.2byte	0x1
 8441 0cb5 51       		.byte	0x51
 8442 0cb6 72010000 		.4byte	.LVL212
 8443 0cba 74010000 		.4byte	.LVL213
 8444 0cbe 0700     		.2byte	0x7
 8445 0cc0 79       		.byte	0x79
 8446 0cc1 00       		.sleb128 0
 8447 0cc2 39       		.byte	0x39
 8448 0cc3 25       		.byte	0x25
 8449 0cc4 33       		.byte	0x33
 8450 0cc5 1A       		.byte	0x1a
 8451 0cc6 9F       		.byte	0x9f
 8452 0cc7 74010000 		.4byte	.LVL213
 8453 0ccb 76010000 		.4byte	.LVL214
 8454 0ccf 0100     		.2byte	0x1
 8455 0cd1 51       		.byte	0x51
 8456 0cd2 76010000 		.4byte	.LVL214
 8457 0cd6 78010000 		.4byte	.LVL215
 8458 0cda 0700     		.2byte	0x7
 8459 0cdc 79       		.byte	0x79
 8460 0cdd 00       		.sleb128 0
 8461 0cde 39       		.byte	0x39
 8462 0cdf 25       		.byte	0x25
 8463 0ce0 33       		.byte	0x33
 8464 0ce1 1A       		.byte	0x1a
 8465 0ce2 9F       		.byte	0x9f
 8466 0ce3 78010000 		.4byte	.LVL215
 8467 0ce7 7A010000 		.4byte	.LVL216
 8468 0ceb 0100     		.2byte	0x1
 8469 0ced 51       		.byte	0x51
 8470 0cee 7A010000 		.4byte	.LVL216
 8471 0cf2 7E010000 		.4byte	.LVL217
 8472 0cf6 0700     		.2byte	0x7
 8473 0cf8 79       		.byte	0x79
 8474 0cf9 00       		.sleb128 0
ARM GAS  C:\Users\ikomb\AppData\Local\Temp\cc5YtlHT.s 			page 201


 8475 0cfa 39       		.byte	0x39
 8476 0cfb 25       		.byte	0x25
 8477 0cfc 33       		.byte	0x33
 8478 0cfd 1A       		.byte	0x1a
 8479 0cfe 9F       		.byte	0x9f
 8480 0cff 7E010000 		.4byte	.LVL217
 8481 0d03 80010000 		.4byte	.LVL218
 8482 0d07 0100     		.2byte	0x1
 8483 0d09 51       		.byte	0x51
 8484 0d0a 80010000 		.4byte	.LVL218
 8485 0d0e 8A010000 		.4byte	.LVL220
 8486 0d12 0700     		.2byte	0x7
 8487 0d14 79       		.byte	0x79
 8488 0d15 00       		.sleb128 0
 8489 0d16 39       		.byte	0x39
 8490 0d17 25       		.byte	0x25
 8491 0d18 33       		.byte	0x33
 8492 0d19 1A       		.byte	0x1a
 8493 0d1a 9F       		.byte	0x9f
 8494 0d1b 8A010000 		.4byte	.LVL220
 8495 0d1f 94010000 		.4byte	.LVL221
 8496 0d23 1100     		.2byte	0x11
 8497 0d25 77       		.byte	0x77
 8498 0d26 09       		.sleb128 9
 8499 0d27 32       		.byte	0x32
 8500 0d28 24       		.byte	0x24
 8501 0d29 91       		.byte	0x91
 8502 0d2a 00       		.sleb128 0
 8503 0d2b 22       		.byte	0x22
 8504 0d2c 0A       		.byte	0xa
 8505 0d2d 2001     		.2byte	0x120
 8506 0d2f 1C       		.byte	0x1c
 8507 0d30 06       		.byte	0x6
 8508 0d31 39       		.byte	0x39
 8509 0d32 25       		.byte	0x25
 8510 0d33 33       		.byte	0x33
 8511 0d34 1A       		.byte	0x1a
 8512 0d35 9F       		.byte	0x9f
 8513 0d36 00000000 		.4byte	0
 8514 0d3a 00000000 		.4byte	0
 8515              	.LLST81:
 8516 0d3e 50010000 		.4byte	.LVL207
 8517 0d42 58010000 		.4byte	.LVL208
 8518 0d46 0100     		.2byte	0x1
 8519 0d48 50       		.byte	0x50
 8520 0d49 58010000 		.4byte	.LVL208
 8521 0d4d 34040000 		.4byte	.LVL268
 8522 0d51 0100     		.2byte	0x1
 8523 0d53 5A       		.byte	0x5a
 8524 0d54 00000000 		.4byte	0
 8525 0d58 00000000 		.4byte	0
 8526              	.LLST82:
 8527 0d5c 5C010000 		.4byte	.LVL209
 8528 0d60 AA010000 		.4byte	.LVL224
 8529 0d64 0100     		.2byte	0x1
 8530 0d66 56       		.byte	0x56
 8531 0d67 AA010000 		.4byte	.LVL224
ARM GAS  C:\Users\ikomb\AppData\Local\Temp\cc5YtlHT.s 			page 202


 8532 0d6b 0C020000 		.4byte	.LVL253
 8533 0d6f 0300     		.2byte	0x3
 8534 0d71 7C       		.byte	0x7c
 8535 0d72 7F       		.sleb128 -1
 8536 0d73 9F       		.byte	0x9f
 8537 0d74 00000000 		.4byte	0
 8538 0d78 00000000 		.4byte	0
 8539              	.LLST83:
 8540 0d7c 5C010000 		.4byte	.LVL209
 8541 0d80 70010000 		.4byte	.LVL211
 8542 0d84 0200     		.2byte	0x2
 8543 0d86 30       		.byte	0x30
 8544 0d87 9F       		.byte	0x9f
 8545 0d88 70010000 		.4byte	.LVL211
 8546 0d8c 74010000 		.4byte	.LVL213
 8547 0d90 0200     		.2byte	0x2
 8548 0d92 40       		.byte	0x40
 8549 0d93 9F       		.byte	0x9f
 8550 0d94 74010000 		.4byte	.LVL213
 8551 0d98 78010000 		.4byte	.LVL215
 8552 0d9c 0300     		.2byte	0x3
 8553 0d9e 08       		.byte	0x8
 8554 0d9f 80       		.byte	0x80
 8555 0da0 9F       		.byte	0x9f
 8556 0da1 78010000 		.4byte	.LVL215
 8557 0da5 7E010000 		.4byte	.LVL217
 8558 0da9 0400     		.2byte	0x4
 8559 0dab 0A       		.byte	0xa
 8560 0dac E803     		.2byte	0x3e8
 8561 0dae 9F       		.byte	0x9f
 8562 0daf 7E010000 		.4byte	.LVL217
 8563 0db3 80010000 		.4byte	.LVL218
 8564 0db7 0200     		.2byte	0x2
 8565 0db9 30       		.byte	0x30
 8566 0dba 9F       		.byte	0x9f
 8567 0dbb 80010000 		.4byte	.LVL218
 8568 0dbf 88010000 		.4byte	.LVL219
 8569 0dc3 0100     		.2byte	0x1
 8570 0dc5 51       		.byte	0x51
 8571 0dc6 00000000 		.4byte	0
 8572 0dca 00000000 		.4byte	0
 8573              	.LLST84:
 8574 0dce 9C010000 		.4byte	.LVL222
 8575 0dd2 F0010000 		.4byte	.LVL244
 8576 0dd6 0100     		.2byte	0x1
 8577 0dd8 57       		.byte	0x57
 8578 0dd9 F2010000 		.4byte	.LVL245
 8579 0ddd F4010000 		.4byte	.LVL246
 8580 0de1 0100     		.2byte	0x1
 8581 0de3 57       		.byte	0x57
 8582 0de4 00000000 		.4byte	0
 8583 0de8 00000000 		.4byte	0
 8584              	.LLST85:
 8585 0dec A2010000 		.4byte	.LVL223
 8586 0df0 BE010000 		.4byte	.LVL226
 8587 0df4 0100     		.2byte	0x1
 8588 0df6 51       		.byte	0x51
ARM GAS  C:\Users\ikomb\AppData\Local\Temp\cc5YtlHT.s 			page 203


 8589 0df7 BE010000 		.4byte	.LVL226
 8590 0dfb C0010000 		.4byte	.LVL227
 8591 0dff 0700     		.2byte	0x7
 8592 0e01 77       		.byte	0x77
 8593 0e02 00       		.sleb128 0
 8594 0e03 4D       		.byte	0x4d
 8595 0e04 25       		.byte	0x25
 8596 0e05 33       		.byte	0x33
 8597 0e06 1A       		.byte	0x1a
 8598 0e07 9F       		.byte	0x9f
 8599 0e08 C0010000 		.4byte	.LVL227
 8600 0e0c C2010000 		.4byte	.LVL228
 8601 0e10 0100     		.2byte	0x1
 8602 0e12 51       		.byte	0x51
 8603 0e13 C2010000 		.4byte	.LVL228
 8604 0e17 C6010000 		.4byte	.LVL229
 8605 0e1b 0700     		.2byte	0x7
 8606 0e1d 77       		.byte	0x77
 8607 0e1e 00       		.sleb128 0
 8608 0e1f 4D       		.byte	0x4d
 8609 0e20 25       		.byte	0x25
 8610 0e21 33       		.byte	0x33
 8611 0e22 1A       		.byte	0x1a
 8612 0e23 9F       		.byte	0x9f
 8613 0e24 C6010000 		.4byte	.LVL229
 8614 0e28 C8010000 		.4byte	.LVL230
 8615 0e2c 0100     		.2byte	0x1
 8616 0e2e 51       		.byte	0x51
 8617 0e2f C8010000 		.4byte	.LVL230
 8618 0e33 CC010000 		.4byte	.LVL231
 8619 0e37 0700     		.2byte	0x7
 8620 0e39 77       		.byte	0x77
 8621 0e3a 00       		.sleb128 0
 8622 0e3b 4D       		.byte	0x4d
 8623 0e3c 25       		.byte	0x25
 8624 0e3d 33       		.byte	0x33
 8625 0e3e 1A       		.byte	0x1a
 8626 0e3f 9F       		.byte	0x9f
 8627 0e40 CC010000 		.4byte	.LVL231
 8628 0e44 CE010000 		.4byte	.LVL232
 8629 0e48 0100     		.2byte	0x1
 8630 0e4a 51       		.byte	0x51
 8631 0e4b CE010000 		.4byte	.LVL232
 8632 0e4f D2010000 		.4byte	.LVL233
 8633 0e53 0700     		.2byte	0x7
 8634 0e55 77       		.byte	0x77
 8635 0e56 00       		.sleb128 0
 8636 0e57 4D       		.byte	0x4d
 8637 0e58 25       		.byte	0x25
 8638 0e59 33       		.byte	0x33
 8639 0e5a 1A       		.byte	0x1a
 8640 0e5b 9F       		.byte	0x9f
 8641 0e5c D2010000 		.4byte	.LVL233
 8642 0e60 D4010000 		.4byte	.LVL234
 8643 0e64 0100     		.2byte	0x1
 8644 0e66 51       		.byte	0x51
 8645 0e67 D4010000 		.4byte	.LVL234
ARM GAS  C:\Users\ikomb\AppData\Local\Temp\cc5YtlHT.s 			page 204


 8646 0e6b F0010000 		.4byte	.LVL244
 8647 0e6f 0700     		.2byte	0x7
 8648 0e71 77       		.byte	0x77
 8649 0e72 00       		.sleb128 0
 8650 0e73 4D       		.byte	0x4d
 8651 0e74 25       		.byte	0x25
 8652 0e75 33       		.byte	0x33
 8653 0e76 1A       		.byte	0x1a
 8654 0e77 9F       		.byte	0x9f
 8655 0e78 F2010000 		.4byte	.LVL245
 8656 0e7c F4010000 		.4byte	.LVL246
 8657 0e80 0700     		.2byte	0x7
 8658 0e82 77       		.byte	0x77
 8659 0e83 00       		.sleb128 0
 8660 0e84 4D       		.byte	0x4d
 8661 0e85 25       		.byte	0x25
 8662 0e86 33       		.byte	0x33
 8663 0e87 1A       		.byte	0x1a
 8664 0e88 9F       		.byte	0x9f
 8665 0e89 00000000 		.4byte	0
 8666 0e8d 00000000 		.4byte	0
 8667              	.LLST86:
 8668 0e91 AC010000 		.4byte	.LVL225
 8669 0e95 D6010000 		.4byte	.LVL235
 8670 0e99 0100     		.2byte	0x1
 8671 0e9b 50       		.byte	0x50
 8672 0e9c D6010000 		.4byte	.LVL235
 8673 0ea0 DA010000 		.4byte	.LVL237
 8674 0ea4 0300     		.2byte	0x3
 8675 0ea6 70       		.byte	0x70
 8676 0ea7 7F       		.sleb128 -1
 8677 0ea8 9F       		.byte	0x9f
 8678 0ea9 DA010000 		.4byte	.LVL237
 8679 0ead E4010000 		.4byte	.LVL239
 8680 0eb1 0500     		.2byte	0x5
 8681 0eb3 76       		.byte	0x76
 8682 0eb4 00       		.sleb128 0
 8683 0eb5 4F       		.byte	0x4f
 8684 0eb6 1A       		.byte	0x1a
 8685 0eb7 9F       		.byte	0x9f
 8686 0eb8 E4010000 		.4byte	.LVL239
 8687 0ebc E8010000 		.4byte	.LVL241
 8688 0ec0 0600     		.2byte	0x6
 8689 0ec2 71       		.byte	0x71
 8690 0ec3 00       		.sleb128 0
 8691 0ec4 76       		.byte	0x76
 8692 0ec5 00       		.sleb128 0
 8693 0ec6 1A       		.byte	0x1a
 8694 0ec7 9F       		.byte	0x9f
 8695 0ec8 E8010000 		.4byte	.LVL241
 8696 0ecc EE010000 		.4byte	.LVL243
 8697 0ed0 0500     		.2byte	0x5
 8698 0ed2 76       		.byte	0x76
 8699 0ed3 00       		.sleb128 0
 8700 0ed4 4F       		.byte	0x4f
 8701 0ed5 1A       		.byte	0x1a
 8702 0ed6 9F       		.byte	0x9f
ARM GAS  C:\Users\ikomb\AppData\Local\Temp\cc5YtlHT.s 			page 205


 8703 0ed7 EE010000 		.4byte	.LVL243
 8704 0edb 8E020000 		.4byte	.LVL257
 8705 0edf 0500     		.2byte	0x5
 8706 0ee1 79       		.byte	0x79
 8707 0ee2 00       		.sleb128 0
 8708 0ee3 4F       		.byte	0x4f
 8709 0ee4 1A       		.byte	0x1a
 8710 0ee5 9F       		.byte	0x9f
 8711 0ee6 8E020000 		.4byte	.LVL257
 8712 0eea 90020000 		.4byte	.LVL258
 8713 0eee 0600     		.2byte	0x6
 8714 0ef0 71       		.byte	0x71
 8715 0ef1 00       		.sleb128 0
 8716 0ef2 79       		.byte	0x79
 8717 0ef3 00       		.sleb128 0
 8718 0ef4 1A       		.byte	0x1a
 8719 0ef5 9F       		.byte	0x9f
 8720 0ef6 90020000 		.4byte	.LVL258
 8721 0efa D2020000 		.4byte	.LVL259
 8722 0efe 0500     		.2byte	0x5
 8723 0f00 79       		.byte	0x79
 8724 0f01 00       		.sleb128 0
 8725 0f02 4F       		.byte	0x4f
 8726 0f03 1A       		.byte	0x1a
 8727 0f04 9F       		.byte	0x9f
 8728 0f05 D2020000 		.4byte	.LVL259
 8729 0f09 D4020000 		.4byte	.LVL260
 8730 0f0d 0600     		.2byte	0x6
 8731 0f0f 71       		.byte	0x71
 8732 0f10 00       		.sleb128 0
 8733 0f11 79       		.byte	0x79
 8734 0f12 00       		.sleb128 0
 8735 0f13 1A       		.byte	0x1a
 8736 0f14 9F       		.byte	0x9f
 8737 0f15 D4020000 		.4byte	.LVL260
 8738 0f19 0C030000 		.4byte	.LVL261
 8739 0f1d 0500     		.2byte	0x5
 8740 0f1f 79       		.byte	0x79
 8741 0f20 00       		.sleb128 0
 8742 0f21 4F       		.byte	0x4f
 8743 0f22 1A       		.byte	0x1a
 8744 0f23 9F       		.byte	0x9f
 8745 0f24 0C030000 		.4byte	.LVL261
 8746 0f28 0E030000 		.4byte	.LVL262
 8747 0f2c 0600     		.2byte	0x6
 8748 0f2e 71       		.byte	0x71
 8749 0f2f 00       		.sleb128 0
 8750 0f30 79       		.byte	0x79
 8751 0f31 00       		.sleb128 0
 8752 0f32 1A       		.byte	0x1a
 8753 0f33 9F       		.byte	0x9f
 8754 0f34 0E030000 		.4byte	.LVL262
 8755 0f38 56030000 		.4byte	.LVL263
 8756 0f3c 0500     		.2byte	0x5
 8757 0f3e 79       		.byte	0x79
 8758 0f3f 00       		.sleb128 0
 8759 0f40 4F       		.byte	0x4f
ARM GAS  C:\Users\ikomb\AppData\Local\Temp\cc5YtlHT.s 			page 206


 8760 0f41 1A       		.byte	0x1a
 8761 0f42 9F       		.byte	0x9f
 8762 0f43 56030000 		.4byte	.LVL263
 8763 0f47 58030000 		.4byte	.LVL264
 8764 0f4b 0600     		.2byte	0x6
 8765 0f4d 71       		.byte	0x71
 8766 0f4e 00       		.sleb128 0
 8767 0f4f 79       		.byte	0x79
 8768 0f50 00       		.sleb128 0
 8769 0f51 1A       		.byte	0x1a
 8770 0f52 9F       		.byte	0x9f
 8771 0f53 58030000 		.4byte	.LVL264
 8772 0f57 34040000 		.4byte	.LVL268
 8773 0f5b 0500     		.2byte	0x5
 8774 0f5d 79       		.byte	0x79
 8775 0f5e 00       		.sleb128 0
 8776 0f5f 4F       		.byte	0x4f
 8777 0f60 1A       		.byte	0x1a
 8778 0f61 9F       		.byte	0x9f
 8779 0f62 00000000 		.4byte	0
 8780 0f66 00000000 		.4byte	0
 8781              	.LLST87:
 8782 0f6a AC010000 		.4byte	.LVL225
 8783 0f6e C0010000 		.4byte	.LVL227
 8784 0f72 0200     		.2byte	0x2
 8785 0f74 30       		.byte	0x30
 8786 0f75 9F       		.byte	0x9f
 8787 0f76 C0010000 		.4byte	.LVL227
 8788 0f7a C6010000 		.4byte	.LVL229
 8789 0f7e 0400     		.2byte	0x4
 8790 0f80 0A       		.byte	0xa
 8791 0f81 0001     		.2byte	0x100
 8792 0f83 9F       		.byte	0x9f
 8793 0f84 C6010000 		.4byte	.LVL229
 8794 0f88 CC010000 		.4byte	.LVL231
 8795 0f8c 0400     		.2byte	0x4
 8796 0f8e 0A       		.byte	0xa
 8797 0f8f A00F     		.2byte	0xfa0
 8798 0f91 9F       		.byte	0x9f
 8799 0f92 CC010000 		.4byte	.LVL231
 8800 0f96 D2010000 		.4byte	.LVL233
 8801 0f9a 0400     		.2byte	0x4
 8802 0f9c 0A       		.byte	0xa
 8803 0f9d 00FA     		.2byte	0xfa00
 8804 0f9f 9F       		.byte	0x9f
 8805 0fa0 D2010000 		.4byte	.LVL233
 8806 0fa4 D4010000 		.4byte	.LVL234
 8807 0fa8 0200     		.2byte	0x2
 8808 0faa 30       		.byte	0x30
 8809 0fab 9F       		.byte	0x9f
 8810 0fac D4010000 		.4byte	.LVL234
 8811 0fb0 D8010000 		.4byte	.LVL236
 8812 0fb4 0100     		.2byte	0x1
 8813 0fb6 51       		.byte	0x51
 8814 0fb7 00000000 		.4byte	0
 8815 0fbb 00000000 		.4byte	0
 8816              	.LLST88:
ARM GAS  C:\Users\ikomb\AppData\Local\Temp\cc5YtlHT.s 			page 207


 8817 0fbf E0010000 		.4byte	.LVL238
 8818 0fc3 F0010000 		.4byte	.LVL244
 8819 0fc7 0700     		.2byte	0x7
 8820 0fc9 77       		.byte	0x77
 8821 0fca 00       		.sleb128 0
 8822 0fcb 3D       		.byte	0x3d
 8823 0fcc 25       		.byte	0x25
 8824 0fcd 31       		.byte	0x31
 8825 0fce 1A       		.byte	0x1a
 8826 0fcf 9F       		.byte	0x9f
 8827 0fd0 F2010000 		.4byte	.LVL245
 8828 0fd4 F4010000 		.4byte	.LVL246
 8829 0fd8 0700     		.2byte	0x7
 8830 0fda 77       		.byte	0x77
 8831 0fdb 00       		.sleb128 0
 8832 0fdc 3D       		.byte	0x3d
 8833 0fdd 25       		.byte	0x25
 8834 0fde 31       		.byte	0x31
 8835 0fdf 1A       		.byte	0x1a
 8836 0fe0 9F       		.byte	0x9f
 8837 0fe1 00000000 		.4byte	0
 8838 0fe5 00000000 		.4byte	0
 8839              	.LLST89:
 8840 0fe9 E6010000 		.4byte	.LVL240
 8841 0fed F6010000 		.4byte	.LVL247
 8842 0ff1 0100     		.2byte	0x1
 8843 0ff3 50       		.byte	0x50
 8844 0ff4 F6010000 		.4byte	.LVL247
 8845 0ff8 F8010000 		.4byte	.LVL248
 8846 0ffc 0300     		.2byte	0x3
 8847 0ffe 70       		.byte	0x70
 8848 0fff 7F       		.sleb128 -1
 8849 1000 9F       		.byte	0x9f
 8850 1001 00000000 		.4byte	0
 8851 1005 00000000 		.4byte	0
 8852              	.LLST90:
 8853 1009 EA010000 		.4byte	.LVL242
 8854 100d FA010000 		.4byte	.LVL249
 8855 1011 0100     		.2byte	0x1
 8856 1013 51       		.byte	0x51
 8857 1014 FA010000 		.4byte	.LVL249
 8858 1018 FC010000 		.4byte	.LVL250
 8859 101c 0300     		.2byte	0x3
 8860 101e 71       		.byte	0x71
 8861 101f 7F       		.sleb128 -1
 8862 1020 9F       		.byte	0x9f
 8863 1021 00000000 		.4byte	0
 8864 1025 00000000 		.4byte	0
 8865              	.LLST91:
 8866 1029 F4010000 		.4byte	.LVL246
 8867 102d 02020000 		.4byte	.LVL251
 8868 1031 0100     		.2byte	0x1
 8869 1033 57       		.byte	0x57
 8870 1034 00000000 		.4byte	0
 8871 1038 00000000 		.4byte	0
 8872              	.LLST92:
 8873 103c 06020000 		.4byte	.LVL252
ARM GAS  C:\Users\ikomb\AppData\Local\Temp\cc5YtlHT.s 			page 208


 8874 1040 20020000 		.4byte	.LVL256
 8875 1044 0200     		.2byte	0x2
 8876 1046 31       		.byte	0x31
 8877 1047 9F       		.byte	0x9f
 8878 1048 00000000 		.4byte	0
 8879 104c 00000000 		.4byte	0
 8880              	.LLST93:
 8881 1050 06020000 		.4byte	.LVL252
 8882 1054 1A020000 		.4byte	.LVL255
 8883 1058 0100     		.2byte	0x1
 8884 105a 50       		.byte	0x50
 8885 105b 1A020000 		.4byte	.LVL255
 8886 105f 20020000 		.4byte	.LVL256
 8887 1063 0A00     		.2byte	0xa
 8888 1065 91       		.byte	0x91
 8889 1066 00       		.sleb128 0
 8890 1067 72       		.byte	0x72
 8891 1068 00       		.sleb128 0
 8892 1069 22       		.byte	0x22
 8893 106a 0A       		.byte	0xa
 8894 106b 1C01     		.2byte	0x11c
 8895 106d 1C       		.byte	0x1c
 8896 106e 9F       		.byte	0x9f
 8897 106f 00000000 		.4byte	0
 8898 1073 00000000 		.4byte	0
 8899              	.LLST94:
 8900 1077 06020000 		.4byte	.LVL252
 8901 107b 14020000 		.4byte	.LVL254
 8902 107f 0200     		.2byte	0x2
 8903 1081 30       		.byte	0x30
 8904 1082 9F       		.byte	0x9f
 8905 1083 14020000 		.4byte	.LVL254
 8906 1087 20020000 		.4byte	.LVL256
 8907 108b 0100     		.2byte	0x1
 8908 108d 57       		.byte	0x57
 8909 108e 00000000 		.4byte	0
 8910 1092 00000000 		.4byte	0
 8911              	.LLST95:
 8912 1096 00000000 		.4byte	.LVL282
 8913 109a 3A000000 		.4byte	.LVL284
 8914 109e 0100     		.2byte	0x1
 8915 10a0 50       		.byte	0x50
 8916 10a1 3A000000 		.4byte	.LVL284
 8917 10a5 68010000 		.4byte	.LVL316
 8918 10a9 0100     		.2byte	0x1
 8919 10ab 57       		.byte	0x57
 8920 10ac 68010000 		.4byte	.LVL316
 8921 10b0 6E010000 		.4byte	.LVL317
 8922 10b4 0100     		.2byte	0x1
 8923 10b6 50       		.byte	0x50
 8924 10b7 6E010000 		.4byte	.LVL317
 8925 10bb 78010000 		.4byte	.LVL318
 8926 10bf 0100     		.2byte	0x1
 8927 10c1 57       		.byte	0x57
 8928 10c2 78010000 		.4byte	.LVL318
 8929 10c6 7E010000 		.4byte	.LVL319
 8930 10ca 0100     		.2byte	0x1
ARM GAS  C:\Users\ikomb\AppData\Local\Temp\cc5YtlHT.s 			page 209


 8931 10cc 50       		.byte	0x50
 8932 10cd 7E010000 		.4byte	.LVL319
 8933 10d1 80010000 		.4byte	.LVL320
 8934 10d5 0100     		.2byte	0x1
 8935 10d7 57       		.byte	0x57
 8936 10d8 80010000 		.4byte	.LVL320
 8937 10dc 86010000 		.4byte	.LVL321
 8938 10e0 0100     		.2byte	0x1
 8939 10e2 50       		.byte	0x50
 8940 10e3 86010000 		.4byte	.LVL321
 8941 10e7 88010000 		.4byte	.LVL322
 8942 10eb 0100     		.2byte	0x1
 8943 10ed 57       		.byte	0x57
 8944 10ee 88010000 		.4byte	.LVL322
 8945 10f2 8E010000 		.4byte	.LVL323
 8946 10f6 0100     		.2byte	0x1
 8947 10f8 50       		.byte	0x50
 8948 10f9 8E010000 		.4byte	.LVL323
 8949 10fd 90010000 		.4byte	.LVL324
 8950 1101 0100     		.2byte	0x1
 8951 1103 57       		.byte	0x57
 8952 1104 90010000 		.4byte	.LVL324
 8953 1108 96010000 		.4byte	.LVL325
 8954 110c 0100     		.2byte	0x1
 8955 110e 50       		.byte	0x50
 8956 110f 96010000 		.4byte	.LVL325
 8957 1113 A8010000 		.4byte	.LVL330
 8958 1117 0100     		.2byte	0x1
 8959 1119 57       		.byte	0x57
 8960 111a A8010000 		.4byte	.LVL330
 8961 111e C4010000 		.4byte	.LFE89
 8962 1122 0400     		.2byte	0x4
 8963 1124 F3       		.byte	0xf3
 8964 1125 01       		.uleb128 0x1
 8965 1126 50       		.byte	0x50
 8966 1127 9F       		.byte	0x9f
 8967 1128 00000000 		.4byte	0
 8968 112c 00000000 		.4byte	0
 8969              	.LLST96:
 8970 1130 00000000 		.4byte	.LVL282
 8971 1134 3C000000 		.4byte	.LVL285
 8972 1138 0100     		.2byte	0x1
 8973 113a 51       		.byte	0x51
 8974 113b 3C000000 		.4byte	.LVL285
 8975 113f 68010000 		.4byte	.LVL316
 8976 1143 0400     		.2byte	0x4
 8977 1145 F3       		.byte	0xf3
 8978 1146 01       		.uleb128 0x1
 8979 1147 51       		.byte	0x51
 8980 1148 9F       		.byte	0x9f
 8981 1149 68010000 		.4byte	.LVL316
 8982 114d 6E010000 		.4byte	.LVL317
 8983 1151 0100     		.2byte	0x1
 8984 1153 51       		.byte	0x51
 8985 1154 6E010000 		.4byte	.LVL317
 8986 1158 78010000 		.4byte	.LVL318
 8987 115c 0400     		.2byte	0x4
ARM GAS  C:\Users\ikomb\AppData\Local\Temp\cc5YtlHT.s 			page 210


 8988 115e F3       		.byte	0xf3
 8989 115f 01       		.uleb128 0x1
 8990 1160 51       		.byte	0x51
 8991 1161 9F       		.byte	0x9f
 8992 1162 78010000 		.4byte	.LVL318
 8993 1166 98010000 		.4byte	.LVL326
 8994 116a 0100     		.2byte	0x1
 8995 116c 51       		.byte	0x51
 8996 116d 98010000 		.4byte	.LVL326
 8997 1171 C4010000 		.4byte	.LFE89
 8998 1175 0400     		.2byte	0x4
 8999 1177 F3       		.byte	0xf3
 9000 1178 01       		.uleb128 0x1
 9001 1179 51       		.byte	0x51
 9002 117a 9F       		.byte	0x9f
 9003 117b 00000000 		.4byte	0
 9004 117f 00000000 		.4byte	0
 9005              	.LLST97:
 9006 1183 00000000 		.4byte	.LVL282
 9007 1187 3C000000 		.4byte	.LVL285
 9008 118b 0100     		.2byte	0x1
 9009 118d 52       		.byte	0x52
 9010 118e 3C000000 		.4byte	.LVL285
 9011 1192 68010000 		.4byte	.LVL316
 9012 1196 0100     		.2byte	0x1
 9013 1198 5B       		.byte	0x5b
 9014 1199 68010000 		.4byte	.LVL316
 9015 119d 6E010000 		.4byte	.LVL317
 9016 11a1 0100     		.2byte	0x1
 9017 11a3 52       		.byte	0x52
 9018 11a4 6E010000 		.4byte	.LVL317
 9019 11a8 78010000 		.4byte	.LVL318
 9020 11ac 0100     		.2byte	0x1
 9021 11ae 5B       		.byte	0x5b
 9022 11af 78010000 		.4byte	.LVL318
 9023 11b3 98010000 		.4byte	.LVL326
 9024 11b7 0100     		.2byte	0x1
 9025 11b9 52       		.byte	0x52
 9026 11ba 98010000 		.4byte	.LVL326
 9027 11be A8010000 		.4byte	.LVL332
 9028 11c2 0100     		.2byte	0x1
 9029 11c4 5B       		.byte	0x5b
 9030 11c5 A8010000 		.4byte	.LVL332
 9031 11c9 C4010000 		.4byte	.LFE89
 9032 11cd 0400     		.2byte	0x4
 9033 11cf F3       		.byte	0xf3
 9034 11d0 01       		.uleb128 0x1
 9035 11d1 52       		.byte	0x52
 9036 11d2 9F       		.byte	0x9f
 9037 11d3 00000000 		.4byte	0
 9038 11d7 00000000 		.4byte	0
 9039              	.LLST98:
 9040 11db 42000000 		.4byte	.LVL286
 9041 11df 68010000 		.4byte	.LVL316
 9042 11e3 0100     		.2byte	0x1
 9043 11e5 54       		.byte	0x54
 9044 11e6 98010000 		.4byte	.LVL326
ARM GAS  C:\Users\ikomb\AppData\Local\Temp\cc5YtlHT.s 			page 211


 9045 11ea 9A010000 		.4byte	.LVL327
 9046 11ee 0100     		.2byte	0x1
 9047 11f0 54       		.byte	0x54
 9048 11f1 00000000 		.4byte	0
 9049 11f5 00000000 		.4byte	0
 9050              	.LLST99:
 9051 11f9 12000000 		.4byte	.LVL283
 9052 11fd 9A010000 		.4byte	.LVL327
 9053 1201 0600     		.2byte	0x6
 9054 1203 0C       		.byte	0xc
 9055 1204 0400B200 		.4byte	0xb20004
 9056 1208 9F       		.byte	0x9f
 9057 1209 9A010000 		.4byte	.LVL327
 9058 120d A2010000 		.4byte	.LVL328
 9059 1211 0100     		.2byte	0x1
 9060 1213 50       		.byte	0x50
 9061 1214 A6010000 		.4byte	.LVL329
 9062 1218 C4010000 		.4byte	.LFE89
 9063 121c 0100     		.2byte	0x1
 9064 121e 50       		.byte	0x50
 9065 121f 00000000 		.4byte	0
 9066 1223 00000000 		.4byte	0
 9067              	.LLST100:
 9068 1227 12000000 		.4byte	.LVL283
 9069 122b 3C000000 		.4byte	.LVL285
 9070 122f 0200     		.2byte	0x2
 9071 1231 30       		.byte	0x30
 9072 1232 9F       		.byte	0x9f
 9073 1233 3C000000 		.4byte	.LVL285
 9074 1237 06010000 		.4byte	.LVL307
 9075 123b 0100     		.2byte	0x1
 9076 123d 5A       		.byte	0x5a
 9077 123e 06010000 		.4byte	.LVL307
 9078 1242 08010000 		.4byte	.LVL308
 9079 1246 0100     		.2byte	0x1
 9080 1248 52       		.byte	0x52
 9081 1249 08010000 		.4byte	.LVL308
 9082 124d 68010000 		.4byte	.LVL316
 9083 1251 0100     		.2byte	0x1
 9084 1253 5A       		.byte	0x5a
 9085 1254 68010000 		.4byte	.LVL316
 9086 1258 6E010000 		.4byte	.LVL317
 9087 125c 0200     		.2byte	0x2
 9088 125e 30       		.byte	0x30
 9089 125f 9F       		.byte	0x9f
 9090 1260 6E010000 		.4byte	.LVL317
 9091 1264 78010000 		.4byte	.LVL318
 9092 1268 0100     		.2byte	0x1
 9093 126a 5A       		.byte	0x5a
 9094 126b 78010000 		.4byte	.LVL318
 9095 126f 98010000 		.4byte	.LVL326
 9096 1273 0200     		.2byte	0x2
 9097 1275 30       		.byte	0x30
 9098 1276 9F       		.byte	0x9f
 9099 1277 98010000 		.4byte	.LVL326
 9100 127b A8010000 		.4byte	.LVL331
 9101 127f 0100     		.2byte	0x1
ARM GAS  C:\Users\ikomb\AppData\Local\Temp\cc5YtlHT.s 			page 212


 9102 1281 5A       		.byte	0x5a
 9103 1282 A8010000 		.4byte	.LVL331
 9104 1286 C4010000 		.4byte	.LFE89
 9105 128a 0100     		.2byte	0x1
 9106 128c 53       		.byte	0x53
 9107 128d 00000000 		.4byte	0
 9108 1291 00000000 		.4byte	0
 9109              	.LLST101:
 9110 1295 3C000000 		.4byte	.LVL285
 9111 1299 68010000 		.4byte	.LVL316
 9112 129d 0100     		.2byte	0x1
 9113 129f 56       		.byte	0x56
 9114 12a0 6E010000 		.4byte	.LVL317
 9115 12a4 78010000 		.4byte	.LVL318
 9116 12a8 0100     		.2byte	0x1
 9117 12aa 56       		.byte	0x56
 9118 12ab 98010000 		.4byte	.LVL326
 9119 12af 9A010000 		.4byte	.LVL327
 9120 12b3 0100     		.2byte	0x1
 9121 12b5 56       		.byte	0x56
 9122 12b6 00000000 		.4byte	0
 9123 12ba 00000000 		.4byte	0
 9124              	.LLST102:
 9125 12be 92000000 		.4byte	.LVL291
 9126 12c2 AA000000 		.4byte	.LVL292
 9127 12c6 0100     		.2byte	0x1
 9128 12c8 53       		.byte	0x53
 9129 12c9 AA000000 		.4byte	.LVL292
 9130 12cd B0000000 		.4byte	.LVL294
 9131 12d1 0200     		.2byte	0x2
 9132 12d3 74       		.byte	0x74
 9133 12d4 00       		.sleb128 0
 9134 12d5 B0000000 		.4byte	.LVL294
 9135 12d9 B2000000 		.4byte	.LVL295
 9136 12dd 0100     		.2byte	0x1
 9137 12df 53       		.byte	0x53
 9138 12e0 B2000000 		.4byte	.LVL295
 9139 12e4 B8000000 		.4byte	.LVL297
 9140 12e8 0200     		.2byte	0x2
 9141 12ea 74       		.byte	0x74
 9142 12eb 00       		.sleb128 0
 9143 12ec B8000000 		.4byte	.LVL297
 9144 12f0 BA000000 		.4byte	.LVL298
 9145 12f4 0100     		.2byte	0x1
 9146 12f6 53       		.byte	0x53
 9147 12f7 BA000000 		.4byte	.LVL298
 9148 12fb C0000000 		.4byte	.LVL300
 9149 12ff 0200     		.2byte	0x2
 9150 1301 74       		.byte	0x74
 9151 1302 00       		.sleb128 0
 9152 1303 C0000000 		.4byte	.LVL300
 9153 1307 C2000000 		.4byte	.LVL301
 9154 130b 0100     		.2byte	0x1
 9155 130d 53       		.byte	0x53
 9156 130e C2000000 		.4byte	.LVL301
 9157 1312 C8000000 		.4byte	.LVL303
 9158 1316 0200     		.2byte	0x2
ARM GAS  C:\Users\ikomb\AppData\Local\Temp\cc5YtlHT.s 			page 213


 9159 1318 74       		.byte	0x74
 9160 1319 00       		.sleb128 0
 9161 131a C8000000 		.4byte	.LVL303
 9162 131e CA000000 		.4byte	.LVL304
 9163 1322 0100     		.2byte	0x1
 9164 1324 53       		.byte	0x53
 9165 1325 00000000 		.4byte	0
 9166 1329 00000000 		.4byte	0
 9167              	.LLST103:
 9168 132d 92000000 		.4byte	.LVL291
 9169 1331 CA000000 		.4byte	.LVL304
 9170 1335 0100     		.2byte	0x1
 9171 1337 57       		.byte	0x57
 9172 1338 00000000 		.4byte	0
 9173 133c 00000000 		.4byte	0
 9174              	.LLST104:
 9175 1340 AE000000 		.4byte	.LVL293
 9176 1344 B0000000 		.4byte	.LVL294
 9177 1348 0100     		.2byte	0x1
 9178 134a 55       		.byte	0x55
 9179 134b B6000000 		.4byte	.LVL296
 9180 134f B8000000 		.4byte	.LVL297
 9181 1353 0100     		.2byte	0x1
 9182 1355 55       		.byte	0x55
 9183 1356 BE000000 		.4byte	.LVL299
 9184 135a C0000000 		.4byte	.LVL300
 9185 135e 0100     		.2byte	0x1
 9186 1360 55       		.byte	0x55
 9187 1361 C6000000 		.4byte	.LVL302
 9188 1365 C8000000 		.4byte	.LVL303
 9189 1369 0100     		.2byte	0x1
 9190 136b 55       		.byte	0x55
 9191 136c 00000000 		.4byte	0
 9192 1370 00000000 		.4byte	0
 9193              	.LLST105:
 9194 1374 E2000000 		.4byte	.LVL305
 9195 1378 F8000000 		.4byte	.LVL306
 9196 137c 0200     		.2byte	0x2
 9197 137e 30       		.byte	0x30
 9198 137f 9F       		.byte	0x9f
 9199 1380 F8000000 		.4byte	.LVL306
 9200 1384 08010000 		.4byte	.LVL308
 9201 1388 0100     		.2byte	0x1
 9202 138a 50       		.byte	0x50
 9203 138b 08010000 		.4byte	.LVL308
 9204 138f 0A010000 		.4byte	.LVL309
 9205 1393 0200     		.2byte	0x2
 9206 1395 30       		.byte	0x30
 9207 1396 9F       		.byte	0x9f
 9208 1397 0A010000 		.4byte	.LVL309
 9209 139b 18010000 		.4byte	.LVL310
 9210 139f 0100     		.2byte	0x1
 9211 13a1 50       		.byte	0x50
 9212 13a2 00000000 		.4byte	0
 9213 13a6 00000000 		.4byte	0
 9214              		.section	.debug_aranges,"",%progbits
 9215 0000 84000000 		.4byte	0x84
ARM GAS  C:\Users\ikomb\AppData\Local\Temp\cc5YtlHT.s 			page 214


 9216 0004 0200     		.2byte	0x2
 9217 0006 00000000 		.4byte	.Ldebug_info0
 9218 000a 04       		.byte	0x4
 9219 000b 00       		.byte	0
 9220 000c 0000     		.2byte	0
 9221 000e 0000     		.2byte	0
 9222 0010 00000000 		.4byte	.LFB90
 9223 0014 10010000 		.4byte	.LFE90-.LFB90
 9224 0018 00000000 		.4byte	.LFB91
 9225 001c 98000000 		.4byte	.LFE91-.LFB91
 9226 0020 00000000 		.4byte	.LFB92
 9227 0024 40000000 		.4byte	.LFE92-.LFB92
 9228 0028 00000000 		.4byte	.LFB93
 9229 002c 40000000 		.4byte	.LFE93-.LFB93
 9230 0030 00000000 		.4byte	.LFB96
 9231 0034 3C000000 		.4byte	.LFE96-.LFB96
 9232 0038 00000000 		.4byte	.LFB94
 9233 003c 5C000000 		.4byte	.LFE94-.LFB94
 9234 0040 00000000 		.4byte	.LFB97
 9235 0044 46000000 		.4byte	.LFE97-.LFB97
 9236 0048 00000000 		.4byte	.LFB95
 9237 004c 1C010000 		.4byte	.LFE95-.LFB95
 9238 0050 00000000 		.4byte	.LFB98
 9239 0054 40000000 		.4byte	.LFE98-.LFB98
 9240 0058 00000000 		.4byte	.LFB99
 9241 005c 50000000 		.4byte	.LFE99-.LFB99
 9242 0060 00000000 		.4byte	.LFB100
 9243 0064 94000000 		.4byte	.LFE100-.LFB100
 9244 0068 00000000 		.4byte	.LFB101
 9245 006c 90000000 		.4byte	.LFE101-.LFB101
 9246 0070 00000000 		.4byte	.LFB102
 9247 0074 60040000 		.4byte	.LFE102-.LFB102
 9248 0078 00000000 		.4byte	.LFB89
 9249 007c C4010000 		.4byte	.LFE89-.LFB89
 9250 0080 00000000 		.4byte	0
 9251 0084 00000000 		.4byte	0
 9252              		.section	.debug_ranges,"",%progbits
 9253              	.Ldebug_ranges0:
 9254 0000 3C000000 		.4byte	.LBB21
 9255 0004 68010000 		.4byte	.LBE21
 9256 0008 6E010000 		.4byte	.LBB25
 9257 000c 78010000 		.4byte	.LBE25
 9258 0010 98010000 		.4byte	.LBB26
 9259 0014 9A010000 		.4byte	.LBE26
 9260 0018 00000000 		.4byte	0
 9261 001c 00000000 		.4byte	0
 9262 0020 00000000 		.4byte	.LFB90
 9263 0024 10010000 		.4byte	.LFE90
 9264 0028 00000000 		.4byte	.LFB91
 9265 002c 98000000 		.4byte	.LFE91
 9266 0030 00000000 		.4byte	.LFB92
 9267 0034 40000000 		.4byte	.LFE92
 9268 0038 00000000 		.4byte	.LFB93
 9269 003c 40000000 		.4byte	.LFE93
 9270 0040 00000000 		.4byte	.LFB96
 9271 0044 3C000000 		.4byte	.LFE96
 9272 0048 00000000 		.4byte	.LFB94
ARM GAS  C:\Users\ikomb\AppData\Local\Temp\cc5YtlHT.s 			page 215


 9273 004c 5C000000 		.4byte	.LFE94
 9274 0050 00000000 		.4byte	.LFB97
 9275 0054 46000000 		.4byte	.LFE97
 9276 0058 00000000 		.4byte	.LFB95
 9277 005c 1C010000 		.4byte	.LFE95
 9278 0060 00000000 		.4byte	.LFB98
 9279 0064 40000000 		.4byte	.LFE98
 9280 0068 00000000 		.4byte	.LFB99
 9281 006c 50000000 		.4byte	.LFE99
 9282 0070 00000000 		.4byte	.LFB100
 9283 0074 94000000 		.4byte	.LFE100
 9284 0078 00000000 		.4byte	.LFB101
 9285 007c 90000000 		.4byte	.LFE101
 9286 0080 00000000 		.4byte	.LFB102
 9287 0084 60040000 		.4byte	.LFE102
 9288 0088 00000000 		.4byte	.LFB89
 9289 008c C4010000 		.4byte	.LFE89
 9290 0090 00000000 		.4byte	0
 9291 0094 00000000 		.4byte	0
 9292              		.section	.debug_line,"",%progbits
 9293              	.Ldebug_line0:
 9294 0000 3E060000 		.section	.debug_str,"MS",%progbits,1
 9294      0200F901 
 9294      00000201 
 9294      FB0E0D00 
 9294      01010101 
 9295              	.LASF107:
 9296 0000 43595F53 		.ascii	"CY_SMIF_CMD_FIFO_FULL\000"
 9296      4D49465F 
 9296      434D445F 
 9296      4649464F 
 9296      5F46554C 
 9297              	.LASF4:
 9298 0016 6C6F6E67 		.ascii	"long int\000"
 9298      20696E74 
 9298      00
 9299              	.LASF161:
 9300 001f 63795F73 		.ascii	"cy_stc_smif_mem_device_cfg_t\000"
 9300      74635F73 
 9300      6D69665F 
 9300      6D656D5F 
 9300      64657669 
 9301              	.LASF191:
 9302 003c 6D656D44 		.ascii	"memDevice\000"
 9302      65766963 
 9302      6500
 9303              	.LASF106:
 9304 0046 43595F53 		.ascii	"CY_SMIF_SUCCESS\000"
 9304      4D49465F 
 9304      53554343 
 9304      45535300 
 9305              	.LASF187:
 9306 0056 64657643 		.ascii	"devCfg\000"
 9306      666700
 9307              	.LASF130:
 9308 005d 7478436D 		.ascii	"txCmpltCb\000"
 9308      706C7443 
ARM GAS  C:\Users\ikomb\AppData\Local\Temp\cc5YtlHT.s 			page 216


 9308      6200
 9309              	.LASF206:
 9310 0067 77726974 		.ascii	"writeQeCmd\000"
 9310      65516543 
 9310      6D6400
 9311              	.LASF252:
 9312 0072 43795F53 		.ascii	"Cy_SMIF_TransmitData\000"
 9312      4D49465F 
 9312      5472616E 
 9312      736D6974 
 9312      44617461 
 9313              	.LASF34:
 9314 0087 54585F43 		.ascii	"TX_CMD_FIFO_STATUS\000"
 9314      4D445F46 
 9314      49464F5F 
 9314      53544154 
 9314      555300
 9315              	.LASF108:
 9316 009a 43595F53 		.ascii	"CY_SMIF_EXCEED_TIMEOUT\000"
 9316      4D49465F 
 9316      45584345 
 9316      45445F54 
 9316      494D454F 
 9317              	.LASF234:
 9318 00b1 63686970 		.ascii	"chipEraseProgTime\000"
 9318      45726173 
 9318      6550726F 
 9318      6754696D 
 9318      6500
 9319              	.LASF123:
 9320 00c3 74784275 		.ascii	"txBufferAddress\000"
 9320      66666572 
 9320      41646472 
 9320      65737300 
 9321              	.LASF100:
 9322 00d3 43595F53 		.ascii	"CY_SMIF_REC_CMPLT\000"
 9322      4D49465F 
 9322      5245435F 
 9322      434D504C 
 9322      5400
 9323              	.LASF163:
 9324 00e5 666C6167 		.ascii	"flags\000"
 9324      7300
 9325              	.LASF197:
 9326 00eb 43795F53 		.ascii	"Cy_SMIF_Memslot_CmdReadSts\000"
 9326      4D49465F 
 9326      4D656D73 
 9326      6C6F745F 
 9326      436D6452 
 9327              	.LASF44:
 9328 0106 52585F44 		.ascii	"RX_DATA_FIFO_RD1\000"
 9328      4154415F 
 9328      4649464F 
 9328      5F524431 
 9328      00
 9329              	.LASF45:
 9330 0117 52585F44 		.ascii	"RX_DATA_FIFO_RD2\000"
ARM GAS  C:\Users\ikomb\AppData\Local\Temp\cc5YtlHT.s 			page 217


 9330      4154415F 
 9330      4649464F 
 9330      5F524432 
 9330      00
 9331              	.LASF258:
 9332 0128 433A5C55 		.ascii	"C:\\Users\\ikomb\\Documents\\PSoC Creator\\CE222221"
 9332      73657273 
 9332      5C696B6F 
 9332      6D625C44 
 9332      6F63756D 
 9333 0156 5F566F69 		.ascii	"_Voice_Recorder01\\CE222221_Voice_Recorder01.cydsn\000"
 9333      63655F52 
 9333      65636F72 
 9333      64657230 
 9333      315C4345 
 9334              	.LASF87:
 9335 0188 43595F53 		.ascii	"CY_SMIF_WIDTH_SINGLE\000"
 9335      4D49465F 
 9335      57494454 
 9335      485F5349 
 9335      4E474C45 
 9336              	.LASF98:
 9337 019d 43595F53 		.ascii	"CY_SMIF_SEND_CMPLT\000"
 9337      4D49465F 
 9337      53454E44 
 9337      5F434D50 
 9337      4C5400
 9338              	.LASF242:
 9339 01b0 6C6F6353 		.ascii	"locSize\000"
 9339      697A6500 
 9340              	.LASF151:
 9341 01b8 70726F67 		.ascii	"programSize\000"
 9341      72616D53 
 9341      697A6500 
 9342              	.LASF194:
 9343 01c4 43795F53 		.ascii	"Cy_SMIF_Memslot_CmdWriteEnable\000"
 9343      4D49465F 
 9343      4D656D73 
 9343      6C6F745F 
 9343      436D6457 
 9344              	.LASF229:
 9345 01e3 72656164 		.ascii	"readEraseTime\000"
 9345      45726173 
 9345      6554696D 
 9345      6500
 9346              	.LASF92:
 9347 01f1 43595F53 		.ascii	"CY_SMIF_DATA_SEL0\000"
 9347      4D49465F 
 9347      44415441 
 9347      5F53454C 
 9347      3000
 9348              	.LASF143:
 9349 0203 6D656D53 		.ascii	"memSize\000"
 9349      697A6500 
 9350              	.LASF94:
 9351 020b 43595F53 		.ascii	"CY_SMIF_DATA_SEL2\000"
 9351      4D49465F 
ARM GAS  C:\Users\ikomb\AppData\Local\Temp\cc5YtlHT.s 			page 218


 9351      44415441 
 9351      5F53454C 
 9351      3200
 9352              	.LASF95:
 9353 021d 43595F53 		.ascii	"CY_SMIF_DATA_SEL3\000"
 9353      4D49465F 
 9353      44415441 
 9353      5F53454C 
 9353      3300
 9354              	.LASF167:
 9355 022f 6475616C 		.ascii	"dualQuadSlots\000"
 9355      51756164 
 9355      536C6F74 
 9355      7300
 9356              	.LASF175:
 9357 023d 43795F53 		.ascii	"Cy_SMIF_TimeoutRun\000"
 9357      4D49465F 
 9357      54696D65 
 9357      6F757452 
 9357      756E00
 9358              	.LASF138:
 9359 0250 6D6F6465 		.ascii	"modeWidth\000"
 9359      57696474 
 9359      6800
 9360              	.LASF60:
 9361 025a 43525950 		.ascii	"CRYPTO_INPUT0\000"
 9361      544F5F49 
 9361      4E505554 
 9361      3000
 9362              	.LASF61:
 9363 0268 43525950 		.ascii	"CRYPTO_INPUT1\000"
 9363      544F5F49 
 9363      4E505554 
 9363      3100
 9364              	.LASF62:
 9365 0276 43525950 		.ascii	"CRYPTO_INPUT2\000"
 9365      544F5F49 
 9365      4E505554 
 9365      3200
 9366              	.LASF63:
 9367 0284 43525950 		.ascii	"CRYPTO_INPUT3\000"
 9367      544F5F49 
 9367      4E505554 
 9367      3300
 9368              	.LASF2:
 9369 0292 73686F72 		.ascii	"short int\000"
 9369      7420696E 
 9369      7400
 9370              	.LASF104:
 9371 029c 43595F53 		.ascii	"CY_SMIF_TX_ERROR\000"
 9371      4D49465F 
 9371      54585F45 
 9371      52524F52 
 9371      00
 9372              	.LASF76:
 9373 02ad 494E5452 		.ascii	"INTR_SET\000"
 9373      5F534554 
ARM GAS  C:\Users\ikomb\AppData\Local\Temp\cc5YtlHT.s 			page 219


 9373      00
 9374              	.LASF137:
 9375 02b6 6D6F6465 		.ascii	"mode\000"
 9375      00
 9376              	.LASF154:
 9377 02bb 77726974 		.ascii	"writeStsRegQeCmd\000"
 9377      65537473 
 9377      52656751 
 9377      65436D64 
 9377      00
 9378              	.LASF37:
 9379 02cc 54585F44 		.ascii	"TX_DATA_FIFO_STATUS\000"
 9379      4154415F 
 9379      4649464F 
 9379      5F535441 
 9379      54555300 
 9380              	.LASF88:
 9381 02e0 43595F53 		.ascii	"CY_SMIF_WIDTH_DUAL\000"
 9381      4D49465F 
 9381      57494454 
 9381      485F4455 
 9381      414C00
 9382              	.LASF93:
 9383 02f3 43595F53 		.ascii	"CY_SMIF_DATA_SEL1\000"
 9383      4D49465F 
 9383      44415441 
 9383      5F53454C 
 9383      3100
 9384              	.LASF21:
 9385 0305 52445F41 		.ascii	"RD_ADDR_CTL\000"
 9385      4444525F 
 9385      43544C00 
 9386              	.LASF14:
 9387 0311 52455345 		.ascii	"RESERVED\000"
 9387      52564544 
 9387      00
 9388              	.LASF122:
 9389 031a 63795F73 		.ascii	"cy_smif_event_cb_t\000"
 9389      6D69665F 
 9389      6576656E 
 9389      745F6362 
 9389      5F7400
 9390              	.LASF159:
 9391 032d 63686970 		.ascii	"chipEraseTime\000"
 9391      45726173 
 9391      6554696D 
 9391      6500
 9392              	.LASF241:
 9393 033b 70726F67 		.ascii	"progUs\000"
 9393      557300
 9394              	.LASF244:
 9395 0342 626C6F63 		.ascii	"blockConfig\000"
 9395      6B436F6E 
 9395      66696700 
 9396              	.LASF235:
 9397 034e 63686970 		.ascii	"chipEraseUnits\000"
 9397      45726173 
ARM GAS  C:\Users\ikomb\AppData\Local\Temp\cc5YtlHT.s 			page 220


 9397      65556E69 
 9397      747300
 9398              	.LASF48:
 9399 035d 52585F44 		.ascii	"RX_DATA_FIFO_RD1_SILENT\000"
 9399      4154415F 
 9399      4649464F 
 9399      5F524431 
 9399      5F53494C 
 9400              	.LASF250:
 9401 0375 43795F53 		.ascii	"Cy_SMIF_ReceiveDataBlocking\000"
 9401      4D49465F 
 9401      52656365 
 9401      69766544 
 9401      61746142 
 9402              	.LASF126:
 9403 0391 72784275 		.ascii	"rxBufferAddress\000"
 9403      66666572 
 9403      41646472 
 9403      65737300 
 9404              	.LASF218:
 9405 03a1 43795F53 		.ascii	"Cy_SMIF_Memslot_CmdRead\000"
 9405      4D49465F 
 9405      4D656D73 
 9405      6C6F745F 
 9405      436D6452 
 9406              	.LASF41:
 9407 03b9 52585F44 		.ascii	"RX_DATA_FIFO_CTL\000"
 9407      4154415F 
 9407      4649464F 
 9407      5F43544C 
 9407      00
 9408              	.LASF185:
 9409 03ca 64657669 		.ascii	"device\000"
 9409      636500
 9410              	.LASF12:
 9411 03d1 75696E74 		.ascii	"uint32_t\000"
 9411      33325F74 
 9411      00
 9412              	.LASF24:
 9413 03da 52445F44 		.ascii	"RD_DATA_CTL\000"
 9413      4154415F 
 9413      43544C00 
 9414              	.LASF190:
 9415 03e6 64657669 		.ascii	"deviceIndex\000"
 9415      6365496E 
 9415      64657800 
 9416              	.LASF75:
 9417 03f2 494E5452 		.ascii	"INTR\000"
 9417      00
 9418              	.LASF84:
 9419 03f7 666C6F61 		.ascii	"float\000"
 9419      7400
 9420              	.LASF256:
 9421 03fd 474E5520 		.ascii	"GNU C11 5.4.1 20160609 (release) [ARM/embedded-5-br"
 9421      43313120 
 9421      352E342E 
 9421      31203230 
ARM GAS  C:\Users\ikomb\AppData\Local\Temp\cc5YtlHT.s 			page 221


 9421      31363036 
 9422 0430 616E6368 		.ascii	"anch revision 237715] -mcpu=cortex-m0plus -mthumb -"
 9422      20726576 
 9422      6973696F 
 9422      6E203233 
 9422      37373135 
 9423 0463 67202D4F 		.ascii	"g -Og -ffunction-sections -ffat-lto-objects\000"
 9423      67202D66 
 9423      66756E63 
 9423      74696F6E 
 9423      2D736563 
 9424              	.LASF142:
 9425 048f 6E756D4F 		.ascii	"numOfAddrBytes\000"
 9425      66416464 
 9425      72427974 
 9425      657300
 9426              	.LASF184:
 9427 049e 62617365 		.ascii	"base\000"
 9427      00
 9428              	.LASF52:
 9429 04a3 534C4F57 		.ascii	"SLOW_CA_CMD\000"
 9429      5F43415F 
 9429      434D4400 
 9430              	.LASF181:
 9431 04af 72657375 		.ascii	"result\000"
 9431      6C7400
 9432              	.LASF9:
 9433 04b6 6C6F6E67 		.ascii	"long long unsigned int\000"
 9433      206C6F6E 
 9433      6720756E 
 9433      7369676E 
 9433      65642069 
 9434              	.LASF101:
 9435 04cd 43595F53 		.ascii	"CY_SMIF_REC_BUSY\000"
 9435      4D49465F 
 9435      5245435F 
 9435      42555359 
 9435      00
 9436              	.LASF204:
 9437 04de 73746174 		.ascii	"statusReg\000"
 9437      75735265 
 9437      6700
 9438              	.LASF228:
 9439 04e8 73666470 		.ascii	"sfdpAddrCode\000"
 9439      41646472 
 9439      436F6465 
 9439      00
 9440              	.LASF22:
 9441 04f5 52445F4D 		.ascii	"RD_MODE_CTL\000"
 9441      4F44455F 
 9441      43544C00 
 9442              	.LASF173:
 9443 0501 6D696E6F 		.ascii	"minorVersion\000"
 9443      72566572 
 9443      73696F6E 
 9443      00
 9444              	.LASF257:
ARM GAS  C:\Users\ikomb\AppData\Local\Temp\cc5YtlHT.s 			page 222


 9445 050e 47656E65 		.ascii	"Generated_Source\\PSoC6\\pdl\\drivers\\peripheral\\"
 9445      72617465 
 9445      645F536F 
 9445      75726365 
 9445      5C50536F 
 9446 053c 736D6966 		.ascii	"smif\\cy_smif_memslot.c\000"
 9446      5C63795F 
 9446      736D6966 
 9446      5F6D656D 
 9446      736C6F74 
 9447              	.LASF16:
 9448 0553 4D41534B 		.ascii	"MASK\000"
 9448      00
 9449              	.LASF158:
 9450 0558 65726173 		.ascii	"eraseTime\000"
 9450      6554696D 
 9450      6500
 9451              	.LASF219:
 9452 0562 72656164 		.ascii	"readBuff\000"
 9452      42756666 
 9452      00
 9453              	.LASF253:
 9454 056b 43795F53 		.ascii	"Cy_SMIF_ReceiveData\000"
 9454      4D49465F 
 9454      52656365 
 9454      69766544 
 9454      61746100 
 9455              	.LASF203:
 9456 057f 43795F53 		.ascii	"Cy_SMIF_Memslot_QuadEnable\000"
 9456      4D49465F 
 9456      4D656D73 
 9456      6C6F745F 
 9456      51756164 
 9457              	.LASF202:
 9458 059a 71654D61 		.ascii	"qeMask\000"
 9458      736B00
 9459              	.LASF178:
 9460 05a1 62756666 		.ascii	"buff\000"
 9460      00
 9461              	.LASF116:
 9462 05a6 63795F65 		.ascii	"cy_en_smif_status_t\000"
 9462      6E5F736D 
 9462      69665F73 
 9462      74617475 
 9462      735F7400 
 9463              	.LASF149:
 9464 05ba 63686970 		.ascii	"chipEraseCmd\000"
 9464      45726173 
 9464      65436D64 
 9464      00
 9465              	.LASF111:
 9466 05c7 43595F53 		.ascii	"CY_SMIF_NO_SFDP_SUPPORT\000"
 9466      4D49465F 
 9466      4E4F5F53 
 9466      4644505F 
 9466      53555050 
 9467              	.LASF35:
ARM GAS  C:\Users\ikomb\AppData\Local\Temp\cc5YtlHT.s 			page 223


 9468 05df 54585F43 		.ascii	"TX_CMD_FIFO_WR\000"
 9468      4D445F46 
 9468      49464F5F 
 9468      575200
 9469              	.LASF226:
 9470 05ee 6F666673 		.ascii	"offset\000"
 9470      657400
 9471              	.LASF114:
 9472 05f5 43595F53 		.ascii	"CY_SMIF_SFDP_SS2_FAILED\000"
 9472      4D49465F 
 9472      53464450 
 9472      5F535332 
 9472      5F464149 
 9473              	.LASF124:
 9474 060d 74784275 		.ascii	"txBufferSize\000"
 9474      66666572 
 9474      53697A65 
 9474      00
 9475              	.LASF198:
 9476 061a 43795F53 		.ascii	"Cy_SMIF_Memslot_IsBusy\000"
 9476      4D49465F 
 9476      4D656D73 
 9476      6C6F745F 
 9476      49734275 
 9477              	.LASF182:
 9478 0631 5F426F6F 		.ascii	"_Bool\000"
 9478      6C00
 9479              	.LASF255:
 9480 0637 43795F53 		.ascii	"Cy_SMIF_SetDataSelect\000"
 9480      4D49465F 
 9480      53657444 
 9480      61746153 
 9480      656C6563 
 9481              	.LASF26:
 9482 064d 57525F43 		.ascii	"WR_CMD_CTL\000"
 9482      4D445F43 
 9482      544C00
 9483              	.LASF117:
 9484 0658 43595F53 		.ascii	"CY_SMIF_SLAVE_SELECT_0\000"
 9484      4D49465F 
 9484      534C4156 
 9484      455F5345 
 9484      4C454354 
 9485              	.LASF118:
 9486 066f 43595F53 		.ascii	"CY_SMIF_SLAVE_SELECT_1\000"
 9486      4D49465F 
 9486      534C4156 
 9486      455F5345 
 9486      4C454354 
 9487              	.LASF119:
 9488 0686 43595F53 		.ascii	"CY_SMIF_SLAVE_SELECT_2\000"
 9488      4D49465F 
 9488      534C4156 
 9488      455F5345 
 9488      4C454354 
 9489              	.LASF120:
 9490 069d 43595F53 		.ascii	"CY_SMIF_SLAVE_SELECT_3\000"
ARM GAS  C:\Users\ikomb\AppData\Local\Temp\cc5YtlHT.s 			page 224


 9490      4D49465F 
 9490      534C4156 
 9490      455F5345 
 9490      4C454354 
 9491              	.LASF195:
 9492 06b4 43795F53 		.ascii	"Cy_SMIF_Memslot_CmdWriteDisable\000"
 9492      4D49465F 
 9492      4D656D73 
 9492      6C6F745F 
 9492      436D6457 
 9493              	.LASF99:
 9494 06d4 43595F53 		.ascii	"CY_SMIF_SEND_BUSY\000"
 9494      4D49465F 
 9494      53454E44 
 9494      5F425553 
 9494      5900
 9495              	.LASF54:
 9496 06e6 46415354 		.ascii	"FAST_CA_CTL\000"
 9496      5F43415F 
 9496      43544C00 
 9497              	.LASF140:
 9498 06f2 64617461 		.ascii	"dataWidth\000"
 9498      57696474 
 9498      6800
 9499              	.LASF77:
 9500 06fc 494E5452 		.ascii	"INTR_MASK\000"
 9500      5F4D4153 
 9500      4B00
 9501              	.LASF36:
 9502 0706 54585F44 		.ascii	"TX_DATA_FIFO_CTL\000"
 9502      4154415F 
 9502      4649464F 
 9502      5F43544C 
 9502      00
 9503              	.LASF58:
 9504 0717 43525950 		.ascii	"CRYPTO_CMD\000"
 9504      544F5F43 
 9504      4D4400
 9505              	.LASF179:
 9506 0722 666F7572 		.ascii	"fourBytes\000"
 9506      42797465 
 9506      7300
 9507              	.LASF245:
 9508 072c 73666470 		.ascii	"sfdpRes\000"
 9508      52657300 
 9509              	.LASF247:
 9510 0734 73666470 		.ascii	"sfdpRet\000"
 9510      52657400 
 9511              	.LASF33:
 9512 073c 53544154 		.ascii	"STATUS\000"
 9512      555300
 9513              	.LASF83:
 9514 0743 63686172 		.ascii	"char\000"
 9514      00
 9515              	.LASF248:
 9516 0748 43795F53 		.ascii	"Cy_SysLib_AssertFailed\000"
 9516      79734C69 
ARM GAS  C:\Users\ikomb\AppData\Local\Temp\cc5YtlHT.s 			page 225


 9516      625F4173 
 9516      73657274 
 9516      4661696C 
 9517              	.LASF135:
 9518 075f 636D6457 		.ascii	"cmdWidth\000"
 9518      69647468 
 9518      00
 9519              	.LASF152:
 9520 0768 72656164 		.ascii	"readStsRegWipCmd\000"
 9520      53747352 
 9520      65675769 
 9520      70436D64 
 9520      00
 9521              	.LASF71:
 9522 0779 43525950 		.ascii	"CRYPTO_OUTPUT1\000"
 9522      544F5F4F 
 9522      55545055 
 9522      543100
 9523              	.LASF214:
 9524 0788 77726974 		.ascii	"writeBuff\000"
 9524      65427566 
 9524      6600
 9525              	.LASF237:
 9526 0792 63686970 		.ascii	"chipEraseMs\000"
 9526      45726173 
 9526      654D7300 
 9527              	.LASF243:
 9528 079e 43795F53 		.ascii	"Cy_SMIF_Memslot_Init\000"
 9528      4D49465F 
 9528      4D656D73 
 9528      6C6F745F 
 9528      496E6974 
 9529              	.LASF65:
 9530 07b3 43525950 		.ascii	"CRYPTO_KEY0\000"
 9530      544F5F4B 
 9530      45593000 
 9531              	.LASF66:
 9532 07bf 43525950 		.ascii	"CRYPTO_KEY1\000"
 9532      544F5F4B 
 9532      45593100 
 9533              	.LASF67:
 9534 07cb 43525950 		.ascii	"CRYPTO_KEY2\000"
 9534      544F5F4B 
 9534      45593200 
 9535              	.LASF68:
 9536 07d7 43525950 		.ascii	"CRYPTO_KEY3\000"
 9536      544F5F4B 
 9536      45593300 
 9537              	.LASF215:
 9538 07e3 636D6443 		.ascii	"cmdCmpltCb\000"
 9538      6D706C74 
 9538      436200
 9539              	.LASF38:
 9540 07ee 54585F44 		.ascii	"TX_DATA_FIFO_WR1\000"
 9540      4154415F 
 9540      4649464F 
 9540      5F575231 
ARM GAS  C:\Users\ikomb\AppData\Local\Temp\cc5YtlHT.s 			page 226


 9540      00
 9541              	.LASF39:
 9542 07ff 54585F44 		.ascii	"TX_DATA_FIFO_WR2\000"
 9542      4154415F 
 9542      4649464F 
 9542      5F575232 
 9542      00
 9543              	.LASF147:
 9544 0810 65726173 		.ascii	"eraseCmd\000"
 9544      65436D64 
 9544      00
 9545              	.LASF238:
 9546 0819 70726F67 		.ascii	"programTimeUnits\000"
 9546      72616D54 
 9546      696D6555 
 9546      6E697473 
 9546      00
 9547              	.LASF42:
 9548 082a 52585F44 		.ascii	"RX_DATA_FIFO_STATUS\000"
 9548      4154415F 
 9548      4649464F 
 9548      5F535441 
 9548      54555300 
 9549              	.LASF131:
 9550 083e 7278436D 		.ascii	"rxCmpltCb\000"
 9550      706C7443 
 9550      6200
 9551              	.LASF11:
 9552 0848 75696E74 		.ascii	"uint8_t\000"
 9552      385F7400 
 9553              	.LASF177:
 9554 0850 74696D65 		.ascii	"timeoutUnits\000"
 9554      6F757455 
 9554      6E697473 
 9554      00
 9555              	.LASF180:
 9556 085d 73746174 		.ascii	"status\000"
 9556      757300
 9557              	.LASF221:
 9558 0864 43795F53 		.ascii	"Cy_SMIF_Memslot_SfdpDetect\000"
 9558      4D49465F 
 9558      4D656D73 
 9558      6C6F745F 
 9558      53666470 
 9559              	.LASF90:
 9560 087f 43595F53 		.ascii	"CY_SMIF_WIDTH_OCTAL\000"
 9560      4D49465F 
 9560      57494454 
 9560      485F4F43 
 9560      54414C00 
 9561              	.LASF32:
 9562 0893 534D4946 		.ascii	"SMIF_DEVICE_Type\000"
 9562      5F444556 
 9562      4943455F 
 9562      54797065 
 9562      00
 9563              	.LASF97:
ARM GAS  C:\Users\ikomb\AppData\Local\Temp\cc5YtlHT.s 			page 227


 9564 08a4 43595F53 		.ascii	"CY_SMIF_STARTED\000"
 9564      4D49465F 
 9564      53544152 
 9564      54454400 
 9565              	.LASF8:
 9566 08b4 6C6F6E67 		.ascii	"long long int\000"
 9566      206C6F6E 
 9566      6720696E 
 9566      7400
 9567              	.LASF199:
 9568 08c2 72656164 		.ascii	"readStsResult\000"
 9568      53747352 
 9568      6573756C 
 9568      7400
 9569              	.LASF146:
 9570 08d0 77726974 		.ascii	"writeDisCmd\000"
 9570      65446973 
 9570      436D6400 
 9571              	.LASF236:
 9572 08dc 63686970 		.ascii	"chipEraseCount\000"
 9572      45726173 
 9572      65436F75 
 9572      6E7400
 9573              	.LASF220:
 9574 08eb 636D6452 		.ascii	"cmdRead\000"
 9574      65616400 
 9575              	.LASF162:
 9576 08f3 736C6176 		.ascii	"slaveSelect\000"
 9576      6553656C 
 9576      65637400 
 9577              	.LASF192:
 9578 08ff 636F6E74 		.ascii	"context\000"
 9578      65787400 
 9579              	.LASF176:
 9580 0907 43795F53 		.ascii	"Cy_SMIF_PackBytesArray\000"
 9580      4D49465F 
 9580      5061636B 
 9580      42797465 
 9580      73417272 
 9581              	.LASF183:
 9582 091e 43795F53 		.ascii	"Cy_SMIF_GetDeviceBySlot\000"
 9582      4D49465F 
 9582      47657444 
 9582      65766963 
 9582      65427953 
 9583              	.LASF18:
 9584 0936 41444452 		.ascii	"ADDR_CTL\000"
 9584      5F43544C 
 9584      00
 9585              	.LASF156:
 9586 093f 73747352 		.ascii	"stsRegBusyMask\000"
 9586      65674275 
 9586      73794D61 
 9586      736B00
 9587              	.LASF186:
 9588 094e 6D656D43 		.ascii	"memCfg\000"
 9588      666700
ARM GAS  C:\Users\ikomb\AppData\Local\Temp\cc5YtlHT.s 			page 228


 9589              	.LASF201:
 9590 0955 73697A65 		.ascii	"size\000"
 9590      00
 9591              	.LASF103:
 9592 095a 43595F53 		.ascii	"CY_SMIF_CMD_ERROR\000"
 9592      4D49465F 
 9592      434D445F 
 9592      4552524F 
 9592      5200
 9593              	.LASF102:
 9594 096c 43595F53 		.ascii	"CY_SMIF_XIP_ERROR\000"
 9594      4D49465F 
 9594      5849505F 
 9594      4552524F 
 9594      5200
 9595              	.LASF110:
 9596 097e 43595F53 		.ascii	"CY_SMIF_BAD_PARAM\000"
 9596      4D49465F 
 9596      4241445F 
 9596      50415241 
 9596      4D00
 9597              	.LASF127:
 9598 0990 72784275 		.ascii	"rxBufferSize\000"
 9598      66666572 
 9598      53697A65 
 9598      00
 9599              	.LASF134:
 9600 099d 636F6D6D 		.ascii	"command\000"
 9600      616E6400 
 9601              	.LASF148:
 9602 09a5 65726173 		.ascii	"eraseSize\000"
 9602      6553697A 
 9602      6500
 9603              	.LASF196:
 9604 09af 77726974 		.ascii	"writeDis\000"
 9604      65446973 
 9604      00
 9605              	.LASF112:
 9606 09b8 43595F53 		.ascii	"CY_SMIF_SFDP_SS0_FAILED\000"
 9606      4D49465F 
 9606      53464450 
 9606      5F535330 
 9606      5F464149 
 9607              	.LASF15:
 9608 09d0 41444452 		.ascii	"ADDR\000"
 9608      00
 9609              	.LASF208:
 9610 09d5 43795F53 		.ascii	"Cy_SMIF_Memslot_CmdChipErase\000"
 9610      4D49465F 
 9610      4D656D73 
 9610      6C6F745F 
 9610      436D6443 
 9611              	.LASF171:
 9612 09f2 6D656D43 		.ascii	"memConfig\000"
 9612      6F6E6669 
 9612      6700
 9613              	.LASF233:
ARM GAS  C:\Users\ikomb\AppData\Local\Temp\cc5YtlHT.s 			page 229


 9614 09fc 65726173 		.ascii	"eraseMs\000"
 9614      654D7300 
 9615              	.LASF150:
 9616 0a04 70726F67 		.ascii	"programCmd\000"
 9616      72616D43 
 9616      6D6400
 9617              	.LASF139:
 9618 0a0f 64756D6D 		.ascii	"dummyCycles\000"
 9618      79437963 
 9618      6C657300 
 9619              	.LASF230:
 9620 0a1b 65726173 		.ascii	"eraseUnits\000"
 9620      65556E69 
 9620      747300
 9621              	.LASF259:
 9622 0a26 43795F53 		.ascii	"Cy_SMIF_Memslot_XipRegInit\000"
 9622      4D49465F 
 9622      4D656D73 
 9622      6C6F745F 
 9622      58697052 
 9623              	.LASF217:
 9624 0a41 636D6450 		.ascii	"cmdProg\000"
 9624      726F6700 
 9625              	.LASF260:
 9626 0a49 43795F53 		.ascii	"Cy_SMIF_Memslot_DeInit\000"
 9626      4D49465F 
 9626      4D656D73 
 9626      6C6F745F 
 9626      4465496E 
 9627              	.LASF209:
 9628 0a60 636D6445 		.ascii	"cmdErase\000"
 9628      72617365 
 9628      00
 9629              	.LASF105:
 9630 0a69 43595F53 		.ascii	"CY_SMIF_RX_ERROR\000"
 9630      4D49465F 
 9630      52585F45 
 9630      52524F52 
 9630      00
 9631              	.LASF86:
 9632 0a7a 6C6F6E67 		.ascii	"long double\000"
 9632      20646F75 
 9632      626C6500 
 9633              	.LASF27:
 9634 0a86 57525F41 		.ascii	"WR_ADDR_CTL\000"
 9634      4444525F 
 9634      43544C00 
 9635              	.LASF136:
 9636 0a92 61646472 		.ascii	"addrWidth\000"
 9636      57696474 
 9636      6800
 9637              	.LASF1:
 9638 0a9c 756E7369 		.ascii	"unsigned char\000"
 9638      676E6564 
 9638      20636861 
 9638      7200
 9639              	.LASF249:
ARM GAS  C:\Users\ikomb\AppData\Local\Temp\cc5YtlHT.s 			page 230


 9640 0aaa 43795F53 		.ascii	"Cy_SMIF_TransmitCommand\000"
 9640      4D49465F 
 9640      5472616E 
 9640      736D6974 
 9640      436F6D6D 
 9641              	.LASF28:
 9642 0ac2 57525F4D 		.ascii	"WR_MODE_CTL\000"
 9642      4F44455F 
 9642      43544C00 
 9643              	.LASF239:
 9644 0ace 70726F67 		.ascii	"programTimeCount\000"
 9644      72616D54 
 9644      696D6543 
 9644      6F756E74 
 9644      00
 9645              	.LASF17:
 9646 0adf 52455345 		.ascii	"RESERVED1\000"
 9646      52564544 
 9646      3100
 9647              	.LASF19:
 9648 0ae9 52455345 		.ascii	"RESERVED2\000"
 9648      52564544 
 9648      3200
 9649              	.LASF25:
 9650 0af3 52455345 		.ascii	"RESERVED3\000"
 9650      52564544 
 9650      3300
 9651              	.LASF31:
 9652 0afd 52455345 		.ascii	"RESERVED4\000"
 9652      52564544 
 9652      3400
 9653              	.LASF43:
 9654 0b07 52455345 		.ascii	"RESERVED5\000"
 9654      52564544 
 9654      3500
 9655              	.LASF47:
 9656 0b11 52455345 		.ascii	"RESERVED6\000"
 9656      52564544 
 9656      3600
 9657              	.LASF49:
 9658 0b1b 52455345 		.ascii	"RESERVED7\000"
 9658      52564544 
 9658      3700
 9659              	.LASF51:
 9660 0b25 52455345 		.ascii	"RESERVED8\000"
 9660      52564544 
 9660      3800
 9661              	.LASF53:
 9662 0b2f 52455345 		.ascii	"RESERVED9\000"
 9662      52564544 
 9662      3900
 9663              	.LASF23:
 9664 0b39 52445F44 		.ascii	"RD_DUMMY_CTL\000"
 9664      554D4D59 
 9664      5F43544C 
 9664      00
 9665              	.LASF30:
ARM GAS  C:\Users\ikomb\AppData\Local\Temp\cc5YtlHT.s 			page 231


 9666 0b46 57525F44 		.ascii	"WR_DATA_CTL\000"
 9666      4154415F 
 9666      43544C00 
 9667              	.LASF125:
 9668 0b52 74784275 		.ascii	"txBufferCounter\000"
 9668      66666572 
 9668      436F756E 
 9668      74657200 
 9669              	.LASF80:
 9670 0b62 44455649 		.ascii	"DEVICE\000"
 9670      434500
 9671              	.LASF157:
 9672 0b69 73747352 		.ascii	"stsRegQuadEnableMask\000"
 9672      65675175 
 9672      6164456E 
 9672      61626C65 
 9672      4D61736B 
 9673              	.LASF121:
 9674 0b7e 63795F65 		.ascii	"cy_en_smif_slave_select_t\000"
 9674      6E5F736D 
 9674      69665F73 
 9674      6C617665 
 9674      5F73656C 
 9675              	.LASF46:
 9676 0b98 52585F44 		.ascii	"RX_DATA_FIFO_RD4\000"
 9676      4154415F 
 9676      4649464F 
 9676      5F524434 
 9676      00
 9677              	.LASF207:
 9678 0ba9 72656164 		.ascii	"readWipCmd\000"
 9678      57697043 
 9678      6D6400
 9679              	.LASF50:
 9680 0bb4 534C4F57 		.ascii	"SLOW_CA_CTL\000"
 9680      5F43415F 
 9680      43544C00 
 9681              	.LASF216:
 9682 0bc0 736C6176 		.ascii	"slaveSelected\000"
 9682      6553656C 
 9682      65637465 
 9682      6400
 9683              	.LASF115:
 9684 0bce 43595F53 		.ascii	"CY_SMIF_SFDP_SS3_FAILED\000"
 9684      4D49465F 
 9684      53464450 
 9684      5F535333 
 9684      5F464149 
 9685              	.LASF212:
 9686 0be6 43795F53 		.ascii	"Cy_SMIF_Memslot_CmdProgram\000"
 9686      4D49465F 
 9686      4D656D73 
 9686      6C6F745F 
 9686      436D6450 
 9687              	.LASF172:
 9688 0c01 6D616A6F 		.ascii	"majorVersion\000"
 9688      72566572 
ARM GAS  C:\Users\ikomb\AppData\Local\Temp\cc5YtlHT.s 			page 232


 9688      73696F6E 
 9688      00
 9689              	.LASF82:
 9690 0c0e 63686172 		.ascii	"char_t\000"
 9690      5F7400
 9691              	.LASF251:
 9692 0c15 43795F53 		.ascii	"Cy_SMIF_SendDummyCycles\000"
 9692      4D49465F 
 9692      53656E64 
 9692      44756D6D 
 9692      79437963 
 9693              	.LASF81:
 9694 0c2d 534D4946 		.ascii	"SMIF_Type\000"
 9694      5F547970 
 9694      6500
 9695              	.LASF227:
 9696 0c37 73666470 		.ascii	"sfdpDataIndex\000"
 9696      44617461 
 9696      496E6465 
 9696      7800
 9697              	.LASF200:
 9698 0c45 43795F53 		.ascii	"Cy_SMIF_Memslot_CmdWriteSts\000"
 9698      4D49465F 
 9698      4D656D73 
 9698      6C6F745F 
 9698      436D6457 
 9699              	.LASF109:
 9700 0c61 43595F53 		.ascii	"CY_SMIF_NO_QE_BIT\000"
 9700      4D49465F 
 9700      4E4F5F51 
 9700      455F4249 
 9700      5400
 9701              	.LASF5:
 9702 0c73 5F5F7569 		.ascii	"__uint8_t\000"
 9702      6E74385F 
 9702      7400
 9703              	.LASF222:
 9704 0c7d 73666470 		.ascii	"sfdpBuffer\000"
 9704      42756666 
 9704      657200
 9705              	.LASF188:
 9706 0c88 72656164 		.ascii	"read\000"
 9706      00
 9707              	.LASF10:
 9708 0c8d 756E7369 		.ascii	"unsigned int\000"
 9708      676E6564 
 9708      20696E74 
 9708      00
 9709              	.LASF174:
 9710 0c9a 63795F73 		.ascii	"cy_stc_smif_block_config_t\000"
 9710      74635F73 
 9710      6D69665F 
 9710      626C6F63 
 9710      6B5F636F 
 9711              	.LASF78:
 9712 0cb5 494E5452 		.ascii	"INTR_MASKED\000"
 9712      5F4D4153 
ARM GAS  C:\Users\ikomb\AppData\Local\Temp\cc5YtlHT.s 			page 233


 9712      4B454400 
 9713              	.LASF170:
 9714 0cc1 6D656D43 		.ascii	"memCount\000"
 9714      6F756E74 
 9714      00
 9715              	.LASF13:
 9716 0cca 73697A65 		.ascii	"sizetype\000"
 9716      74797065 
 9716      00
 9717              	.LASF189:
 9718 0cd3 70726F67 		.ascii	"prog\000"
 9718      00
 9719              	.LASF70:
 9720 0cd8 43525950 		.ascii	"CRYPTO_OUTPUT0\000"
 9720      544F5F4F 
 9720      55545055 
 9720      543000
 9721              	.LASF7:
 9722 0ce7 6C6F6E67 		.ascii	"long unsigned int\000"
 9722      20756E73 
 9722      69676E65 
 9722      6420696E 
 9722      7400
 9723              	.LASF72:
 9724 0cf9 43525950 		.ascii	"CRYPTO_OUTPUT2\000"
 9724      544F5F4F 
 9724      55545055 
 9724      543200
 9725              	.LASF73:
 9726 0d08 43525950 		.ascii	"CRYPTO_OUTPUT3\000"
 9726      544F5F4F 
 9726      55545055 
 9726      543300
 9727              	.LASF211:
 9728 0d17 73656374 		.ascii	"sectorAddr\000"
 9728      6F724164 
 9728      647200
 9729              	.LASF40:
 9730 0d22 54585F44 		.ascii	"TX_DATA_FIFO_WR4\000"
 9730      4154415F 
 9730      4649464F 
 9730      5F575234 
 9730      00
 9731              	.LASF225:
 9732 0d33 636D6454 		.ascii	"cmdTimeout\000"
 9732      696D656F 
 9732      757400
 9733              	.LASF141:
 9734 0d3e 63795F73 		.ascii	"cy_stc_smif_mem_cmd_t\000"
 9734      74635F73 
 9734      6D69665F 
 9734      6D656D5F 
 9734      636D645F 
 9735              	.LASF133:
 9736 0d54 63795F73 		.ascii	"cy_stc_smif_context_t\000"
 9736      74635F73 
 9736      6D69665F 
ARM GAS  C:\Users\ikomb\AppData\Local\Temp\cc5YtlHT.s 			page 234


 9736      636F6E74 
 9736      6578745F 
 9737              	.LASF254:
 9738 0d6a 43795F53 		.ascii	"Cy_SysLib_DelayUs\000"
 9738      79734C69 
 9738      625F4465 
 9738      6C617955 
 9738      7300
 9739              	.LASF169:
 9740 0d7c 63795F73 		.ascii	"cy_stc_smif_mem_config_t\000"
 9740      74635F73 
 9740      6D69665F 
 9740      6D656D5F 
 9740      636F6E66 
 9741              	.LASF231:
 9742 0d95 65726173 		.ascii	"eraseCount\000"
 9742      65436F75 
 9742      6E7400
 9743              	.LASF6:
 9744 0da0 5F5F7569 		.ascii	"__uint32_t\000"
 9744      6E743332 
 9744      5F7400
 9745              	.LASF132:
 9746 0dab 74696D65 		.ascii	"timeout\000"
 9746      6F757400 
 9747              	.LASF89:
 9748 0db3 43595F53 		.ascii	"CY_SMIF_WIDTH_QUAD\000"
 9748      4D49465F 
 9748      57494454 
 9748      485F5155 
 9748      414400
 9749              	.LASF223:
 9750 0dc6 73666470 		.ascii	"sfdpAddress\000"
 9750      41646472 
 9750      65737300 
 9751              	.LASF55:
 9752 0dd2 52455345 		.ascii	"RESERVED10\000"
 9752      52564544 
 9752      313000
 9753              	.LASF57:
 9754 0ddd 52455345 		.ascii	"RESERVED11\000"
 9754      52564544 
 9754      313100
 9755              	.LASF59:
 9756 0de8 52455345 		.ascii	"RESERVED12\000"
 9756      52564544 
 9756      313200
 9757              	.LASF64:
 9758 0df3 52455345 		.ascii	"RESERVED13\000"
 9758      52564544 
 9758      313300
 9759              	.LASF69:
 9760 0dfe 52455345 		.ascii	"RESERVED14\000"
 9760      52564544 
 9760      313400
 9761              	.LASF74:
 9762 0e09 52455345 		.ascii	"RESERVED15\000"
ARM GAS  C:\Users\ikomb\AppData\Local\Temp\cc5YtlHT.s 			page 235


 9762      52564544 
 9762      313500
 9763              	.LASF79:
 9764 0e14 52455345 		.ascii	"RESERVED16\000"
 9764      52564544 
 9764      313600
 9765              	.LASF213:
 9766 0e1f 61646472 		.ascii	"addr\000"
 9766      00
 9767              	.LASF91:
 9768 0e24 63795F65 		.ascii	"cy_en_smif_txfr_width_t\000"
 9768      6E5F736D 
 9768      69665F74 
 9768      7866725F 
 9768      77696474 
 9769              	.LASF155:
 9770 0e3c 72656164 		.ascii	"readSfdpCmd\000"
 9770      53666470 
 9770      436D6400 
 9771              	.LASF224:
 9772 0e48 636D6453 		.ascii	"cmdSfdp\000"
 9772      66647000 
 9773              	.LASF144:
 9774 0e50 72656164 		.ascii	"readCmd\000"
 9774      436D6400 
 9775              	.LASF168:
 9776 0e58 64657669 		.ascii	"deviceCfg\000"
 9776      63654366 
 9776      6700
 9777              	.LASF193:
 9778 0e62 77726974 		.ascii	"writeEn\000"
 9778      65456E00 
 9779              	.LASF160:
 9780 0e6a 70726F67 		.ascii	"programTime\000"
 9780      72616D54 
 9780      696D6500 
 9781              	.LASF96:
 9782 0e76 63795F65 		.ascii	"cy_en_smif_data_select_t\000"
 9782      6E5F736D 
 9782      69665F64 
 9782      6174615F 
 9782      73656C65 
 9783              	.LASF128:
 9784 0e8f 72784275 		.ascii	"rxBufferCounter\000"
 9784      66666572 
 9784      436F756E 
 9784      74657200 
 9785              	.LASF56:
 9786 0e9f 46415354 		.ascii	"FAST_CA_CMD\000"
 9786      5F43415F 
 9786      434D4400 
 9787              	.LASF129:
 9788 0eab 7472616E 		.ascii	"transferStatus\000"
 9788      73666572 
 9788      53746174 
 9788      757300
 9789              	.LASF0:
ARM GAS  C:\Users\ikomb\AppData\Local\Temp\cc5YtlHT.s 			page 236


 9790 0eba 7369676E 		.ascii	"signed char\000"
 9790      65642063 
 9790      68617200 
 9791              	.LASF205:
 9792 0ec6 72656164 		.ascii	"readQeCmd\000"
 9792      5165436D 
 9792      6400
 9793              	.LASF3:
 9794 0ed0 73686F72 		.ascii	"short unsigned int\000"
 9794      7420756E 
 9794      7369676E 
 9794      65642069 
 9794      6E7400
 9795              	.LASF29:
 9796 0ee3 57525F44 		.ascii	"WR_DUMMY_CTL\000"
 9796      554D4D59 
 9796      5F43544C 
 9796      00
 9797              	.LASF85:
 9798 0ef0 646F7562 		.ascii	"double\000"
 9798      6C6500
 9799              	.LASF232:
 9800 0ef7 65726173 		.ascii	"eraseMul\000"
 9800      654D756C 
 9800      00
 9801              	.LASF210:
 9802 0f00 43795F53 		.ascii	"Cy_SMIF_Memslot_CmdSectorErase\000"
 9802      4D49465F 
 9802      4D656D73 
 9802      6C6F745F 
 9802      436D6453 
 9803              	.LASF246:
 9804 0f1f 6578744D 		.ascii	"extMemCfg\000"
 9804      656D4366 
 9804      6700
 9805              	.LASF20:
 9806 0f29 52445F43 		.ascii	"RD_CMD_CTL\000"
 9806      4D445F43 
 9806      544C00
 9807              	.LASF113:
 9808 0f34 43595F53 		.ascii	"CY_SMIF_SFDP_SS1_FAILED\000"
 9808      4D49465F 
 9808      53464450 
 9808      5F535331 
 9808      5F464149 
 9809              	.LASF166:
 9810 0f4c 6D656D4D 		.ascii	"memMappedSize\000"
 9810      61707065 
 9810      6453697A 
 9810      6500
 9811              	.LASF145:
 9812 0f5a 77726974 		.ascii	"writeEnCmd\000"
 9812      65456E43 
 9812      6D6400
 9813              	.LASF164:
 9814 0f65 64617461 		.ascii	"dataSelect\000"
 9814      53656C65 
ARM GAS  C:\Users\ikomb\AppData\Local\Temp\cc5YtlHT.s 			page 237


 9814      637400
 9815              	.LASF240:
 9816 0f70 70726F67 		.ascii	"progMul\000"
 9816      4D756C00 
 9817              	.LASF165:
 9818 0f78 62617365 		.ascii	"baseAddress\000"
 9818      41646472 
 9818      65737300 
 9819              	.LASF153:
 9820 0f84 72656164 		.ascii	"readStsRegQeCmd\000"
 9820      53747352 
 9820      65675165 
 9820      436D6400 
 9821              		.ident	"GCC: (GNU Tools for ARM Embedded Processors) 5.4.1 20160609 (release) [ARM/embedded-5-bran
