ARM GAS  C:\Users\ikomb\AppData\Local\Temp\cc5YtlHT.s 			page 1


   1              		.syntax unified
   2              		.cpu cortex-m0plus
   3              		.fpu softvfp
   4              		.eabi_attribute 20, 1
   5              		.eabi_attribute 21, 1
   6              		.eabi_attribute 23, 3
   7              		.eabi_attribute 24, 1
   8              		.eabi_attribute 25, 1
   9              		.eabi_attribute 26, 1
  10              		.eabi_attribute 30, 1
  11              		.eabi_attribute 34, 0
  12              		.eabi_attribute 18, 4
  13              		.thumb
  14              		.syntax unified
  15              		.file	"cy_smif_memslot.c"
  16              		.text
  17              	.Ltext0:
  18              		.cfi_sections	.debug_frame
  19              		.section	.text.Cy_SMIF_Memslot_XipRegInit,"ax",%progbits
  20              		.align	2
  21              		.code	16
  22              		.thumb_func
  23              		.type	Cy_SMIF_Memslot_XipRegInit, %function
  24              	Cy_SMIF_Memslot_XipRegInit:
  25              	.LFB90:
  26              		.file 1 "Generated_Source\\PSoC6\\pdl\\drivers\\peripheral\\smif\\cy_smif_memslot.c"
   1:Generated_Source\PSoC6\pdl\drivers\peripheral\smif/cy_smif_memslot.c **** /***************************************************************************//**
   2:Generated_Source\PSoC6\pdl\drivers\peripheral\smif/cy_smif_memslot.c **** * \file cy_smif_memslot.c
   3:Generated_Source\PSoC6\pdl\drivers\peripheral\smif/cy_smif_memslot.c **** * \version 1.10.1
   4:Generated_Source\PSoC6\pdl\drivers\peripheral\smif/cy_smif_memslot.c **** *
   5:Generated_Source\PSoC6\pdl\drivers\peripheral\smif/cy_smif_memslot.c **** * \brief
   6:Generated_Source\PSoC6\pdl\drivers\peripheral\smif/cy_smif_memslot.c **** *  This file provides the source code for the memory-level APIs of the SMIF driver.
   7:Generated_Source\PSoC6\pdl\drivers\peripheral\smif/cy_smif_memslot.c **** *
   8:Generated_Source\PSoC6\pdl\drivers\peripheral\smif/cy_smif_memslot.c **** * Note:
   9:Generated_Source\PSoC6\pdl\drivers\peripheral\smif/cy_smif_memslot.c **** *
  10:Generated_Source\PSoC6\pdl\drivers\peripheral\smif/cy_smif_memslot.c **** ********************************************************************************
  11:Generated_Source\PSoC6\pdl\drivers\peripheral\smif/cy_smif_memslot.c **** * \copyright
  12:Generated_Source\PSoC6\pdl\drivers\peripheral\smif/cy_smif_memslot.c **** * Copyright 2016-2018, Cypress Semiconductor Corporation.  All rights reserved.
  13:Generated_Source\PSoC6\pdl\drivers\peripheral\smif/cy_smif_memslot.c **** * You may use this file only in accordance with the license, terms, conditions,
  14:Generated_Source\PSoC6\pdl\drivers\peripheral\smif/cy_smif_memslot.c **** * disclaimers, and limitations in the end user license agreement accompanying
  15:Generated_Source\PSoC6\pdl\drivers\peripheral\smif/cy_smif_memslot.c **** * the software package with which this file was provided.
  16:Generated_Source\PSoC6\pdl\drivers\peripheral\smif/cy_smif_memslot.c **** *******************************************************************************/
  17:Generated_Source\PSoC6\pdl\drivers\peripheral\smif/cy_smif_memslot.c **** 
  18:Generated_Source\PSoC6\pdl\drivers\peripheral\smif/cy_smif_memslot.c **** #include "cy_smif_memslot.h"
  19:Generated_Source\PSoC6\pdl\drivers\peripheral\smif/cy_smif_memslot.c **** 
  20:Generated_Source\PSoC6\pdl\drivers\peripheral\smif/cy_smif_memslot.c **** #if defined(__cplusplus)
  21:Generated_Source\PSoC6\pdl\drivers\peripheral\smif/cy_smif_memslot.c **** extern "C" {
  22:Generated_Source\PSoC6\pdl\drivers\peripheral\smif/cy_smif_memslot.c **** #endif
  23:Generated_Source\PSoC6\pdl\drivers\peripheral\smif/cy_smif_memslot.c **** 
  24:Generated_Source\PSoC6\pdl\drivers\peripheral\smif/cy_smif_memslot.c **** /***************************************
  25:Generated_Source\PSoC6\pdl\drivers\peripheral\smif/cy_smif_memslot.c **** *     Function Prototypes
  26:Generated_Source\PSoC6\pdl\drivers\peripheral\smif/cy_smif_memslot.c **** ***************************************/
  27:Generated_Source\PSoC6\pdl\drivers\peripheral\smif/cy_smif_memslot.c **** static void Cy_SMIF_Memslot_XipRegInit(SMIF_DEVICE_Type volatile *dev,
  28:Generated_Source\PSoC6\pdl\drivers\peripheral\smif/cy_smif_memslot.c ****                             cy_stc_smif_mem_config_t const * memCfg);
  29:Generated_Source\PSoC6\pdl\drivers\peripheral\smif/cy_smif_memslot.c **** 
  30:Generated_Source\PSoC6\pdl\drivers\peripheral\smif/cy_smif_memslot.c **** 
  31:Generated_Source\PSoC6\pdl\drivers\peripheral\smif/cy_smif_memslot.c **** /*******************************************************************************
ARM GAS  C:\Users\ikomb\AppData\Local\Temp\cc5YtlHT.s 			page 2


  32:Generated_Source\PSoC6\pdl\drivers\peripheral\smif/cy_smif_memslot.c **** * Function Name: Cy_SMIF_Memslot_Init
  33:Generated_Source\PSoC6\pdl\drivers\peripheral\smif/cy_smif_memslot.c **** ****************************************************************************//**
  34:Generated_Source\PSoC6\pdl\drivers\peripheral\smif/cy_smif_memslot.c **** *
  35:Generated_Source\PSoC6\pdl\drivers\peripheral\smif/cy_smif_memslot.c **** * This function initializes the slots of the memory device in the SMIF
  36:Generated_Source\PSoC6\pdl\drivers\peripheral\smif/cy_smif_memslot.c **** * configuration. After this initialization, the memory slave devices are
  37:Generated_Source\PSoC6\pdl\drivers\peripheral\smif/cy_smif_memslot.c **** * automatically mapped into the PSoC memory map. The function needs the SMIF
  38:Generated_Source\PSoC6\pdl\drivers\peripheral\smif/cy_smif_memslot.c **** * to be running in the memory mode to have the memory mapped into the PSoC
  39:Generated_Source\PSoC6\pdl\drivers\peripheral\smif/cy_smif_memslot.c **** * address space. This function is typically called in the System initialization
  40:Generated_Source\PSoC6\pdl\drivers\peripheral\smif/cy_smif_memslot.c **** * phase to initialize all the memory-mapped SMIF devices.
  41:Generated_Source\PSoC6\pdl\drivers\peripheral\smif/cy_smif_memslot.c **** * This function only configures the memory device portion of the SMIF
  42:Generated_Source\PSoC6\pdl\drivers\peripheral\smif/cy_smif_memslot.c **** * initialization and therefore assumes that the SMIF blocks initialization is
  43:Generated_Source\PSoC6\pdl\drivers\peripheral\smif/cy_smif_memslot.c **** * achieved using Cy_SMIF_Init(). The cy_stc_smif_context_t context structure
  44:Generated_Source\PSoC6\pdl\drivers\peripheral\smif/cy_smif_memslot.c **** * returned from Cy_SMIF_Init() is passed as a parameter to this function.
  45:Generated_Source\PSoC6\pdl\drivers\peripheral\smif/cy_smif_memslot.c **** * This function calls the \ref Cy_SMIF_Memslot_SfdpDetect() function for each
  46:Generated_Source\PSoC6\pdl\drivers\peripheral\smif/cy_smif_memslot.c **** * element of the \ref cy_stc_smif_mem_config_t memConfig array and fills the memory                
  47:Generated_Source\PSoC6\pdl\drivers\peripheral\smif/cy_smif_memslot.c **** * parameters if the autoDetectSfdp field is enabled in \ref cy_stc_smif_mem_config_t.
  48:Generated_Source\PSoC6\pdl\drivers\peripheral\smif/cy_smif_memslot.c **** * The filled memConfig is a part of the \ref cy_stc_smif_block_config_t * blockConfig
  49:Generated_Source\PSoC6\pdl\drivers\peripheral\smif/cy_smif_memslot.c **** * structure. The function expects that all the requirements of
  50:Generated_Source\PSoC6\pdl\drivers\peripheral\smif/cy_smif_memslot.c **** *  \ref Cy_SMIF_Memslot_SfdpDetect() is provided.
  51:Generated_Source\PSoC6\pdl\drivers\peripheral\smif/cy_smif_memslot.c **** *
  52:Generated_Source\PSoC6\pdl\drivers\peripheral\smif/cy_smif_memslot.c **** * \param base
  53:Generated_Source\PSoC6\pdl\drivers\peripheral\smif/cy_smif_memslot.c **** * The address of the slave-slot device register to initialize.
  54:Generated_Source\PSoC6\pdl\drivers\peripheral\smif/cy_smif_memslot.c **** *
  55:Generated_Source\PSoC6\pdl\drivers\peripheral\smif/cy_smif_memslot.c **** * \param context
  56:Generated_Source\PSoC6\pdl\drivers\peripheral\smif/cy_smif_memslot.c **** * The SMIF internal context structure of the block.
  57:Generated_Source\PSoC6\pdl\drivers\peripheral\smif/cy_smif_memslot.c **** *
  58:Generated_Source\PSoC6\pdl\drivers\peripheral\smif/cy_smif_memslot.c **** * \param blockConfig
  59:Generated_Source\PSoC6\pdl\drivers\peripheral\smif/cy_smif_memslot.c **** * The configuration structure array that configures the SMIF memory device to be
  60:Generated_Source\PSoC6\pdl\drivers\peripheral\smif/cy_smif_memslot.c **** * mapped into the PSoC memory map. \ref cy_stc_smif_mem_config_t
  61:Generated_Source\PSoC6\pdl\drivers\peripheral\smif/cy_smif_memslot.c **** *
  62:Generated_Source\PSoC6\pdl\drivers\peripheral\smif/cy_smif_memslot.c **** * \return The memory slot initialization status.
  63:Generated_Source\PSoC6\pdl\drivers\peripheral\smif/cy_smif_memslot.c **** *       - \ref CY_SMIF_SUCCESS
  64:Generated_Source\PSoC6\pdl\drivers\peripheral\smif/cy_smif_memslot.c **** *       - \ref CY_SMIF_BAD_PARAM
  65:Generated_Source\PSoC6\pdl\drivers\peripheral\smif/cy_smif_memslot.c **** *
  66:Generated_Source\PSoC6\pdl\drivers\peripheral\smif/cy_smif_memslot.c **** *******************************************************************************/
  67:Generated_Source\PSoC6\pdl\drivers\peripheral\smif/cy_smif_memslot.c **** cy_en_smif_status_t Cy_SMIF_Memslot_Init(SMIF_Type *base,
  68:Generated_Source\PSoC6\pdl\drivers\peripheral\smif/cy_smif_memslot.c ****                             cy_stc_smif_block_config_t * const blockConfig,
  69:Generated_Source\PSoC6\pdl\drivers\peripheral\smif/cy_smif_memslot.c ****                             cy_stc_smif_context_t *context)
  70:Generated_Source\PSoC6\pdl\drivers\peripheral\smif/cy_smif_memslot.c **** {
  71:Generated_Source\PSoC6\pdl\drivers\peripheral\smif/cy_smif_memslot.c ****     SMIF_DEVICE_Type volatile * device;
  72:Generated_Source\PSoC6\pdl\drivers\peripheral\smif/cy_smif_memslot.c ****     cy_stc_smif_mem_config_t const * memCfg;
  73:Generated_Source\PSoC6\pdl\drivers\peripheral\smif/cy_smif_memslot.c ****     uint32_t result = (uint32_t)CY_SMIF_BAD_PARAM;
  74:Generated_Source\PSoC6\pdl\drivers\peripheral\smif/cy_smif_memslot.c ****     uint32_t sfdpRes =(uint32_t)CY_SMIF_SUCCESS;
  75:Generated_Source\PSoC6\pdl\drivers\peripheral\smif/cy_smif_memslot.c ****     uint32_t idx;
  76:Generated_Source\PSoC6\pdl\drivers\peripheral\smif/cy_smif_memslot.c **** 
  77:Generated_Source\PSoC6\pdl\drivers\peripheral\smif/cy_smif_memslot.c ****     if ((NULL != base) && (NULL != blockConfig) && (NULL != blockConfig->memConfig) 
  78:Generated_Source\PSoC6\pdl\drivers\peripheral\smif/cy_smif_memslot.c ****         && (NULL != context) && (0U != blockConfig->memCount))
  79:Generated_Source\PSoC6\pdl\drivers\peripheral\smif/cy_smif_memslot.c ****     {
  80:Generated_Source\PSoC6\pdl\drivers\peripheral\smif/cy_smif_memslot.c ****         uint32_t size = blockConfig->memCount;
  81:Generated_Source\PSoC6\pdl\drivers\peripheral\smif/cy_smif_memslot.c ****         cy_stc_smif_mem_config_t** extMemCfg = blockConfig->memConfig;
  82:Generated_Source\PSoC6\pdl\drivers\peripheral\smif/cy_smif_memslot.c **** 
  83:Generated_Source\PSoC6\pdl\drivers\peripheral\smif/cy_smif_memslot.c ****         result = (uint32_t)CY_SMIF_SUCCESS;
  84:Generated_Source\PSoC6\pdl\drivers\peripheral\smif/cy_smif_memslot.c ****         for(idx = 0UL; idx < size; idx++)
  85:Generated_Source\PSoC6\pdl\drivers\peripheral\smif/cy_smif_memslot.c ****         {
  86:Generated_Source\PSoC6\pdl\drivers\peripheral\smif/cy_smif_memslot.c ****             memCfg = extMemCfg[idx];
  87:Generated_Source\PSoC6\pdl\drivers\peripheral\smif/cy_smif_memslot.c ****             if (NULL != memCfg)
  88:Generated_Source\PSoC6\pdl\drivers\peripheral\smif/cy_smif_memslot.c ****             {
ARM GAS  C:\Users\ikomb\AppData\Local\Temp\cc5YtlHT.s 			page 3


  89:Generated_Source\PSoC6\pdl\drivers\peripheral\smif/cy_smif_memslot.c ****                 /* Check smif memory slot configuration*/
  90:Generated_Source\PSoC6\pdl\drivers\peripheral\smif/cy_smif_memslot.c ****                 CY_ASSERT_L3(CY_SMIF_SLAVE_SEL_VALID(memCfg->slaveSelect));
  91:Generated_Source\PSoC6\pdl\drivers\peripheral\smif/cy_smif_memslot.c ****                 CY_ASSERT_L3(CY_SMIF_DATA_SEL_VALID(memCfg->dataSelect));
  92:Generated_Source\PSoC6\pdl\drivers\peripheral\smif/cy_smif_memslot.c ****                 CY_ASSERT_L1(NULL != memCfg->deviceCfg);
  93:Generated_Source\PSoC6\pdl\drivers\peripheral\smif/cy_smif_memslot.c ****                 CY_ASSERT_L2(CY_SMIF_MEM_ADDR_SIZE_VALID(memCfg->deviceCfg->numOfAddrBytes));
  94:Generated_Source\PSoC6\pdl\drivers\peripheral\smif/cy_smif_memslot.c ****                 
  95:Generated_Source\PSoC6\pdl\drivers\peripheral\smif/cy_smif_memslot.c ****                 device = Cy_SMIF_GetDeviceBySlot(base, memCfg->slaveSelect);
  96:Generated_Source\PSoC6\pdl\drivers\peripheral\smif/cy_smif_memslot.c ****                 if (NULL != device)
  97:Generated_Source\PSoC6\pdl\drivers\peripheral\smif/cy_smif_memslot.c ****                 {
  98:Generated_Source\PSoC6\pdl\drivers\peripheral\smif/cy_smif_memslot.c ****                     /* The slave-slot initialization of the device control register.
  99:Generated_Source\PSoC6\pdl\drivers\peripheral\smif/cy_smif_memslot.c ****                      * Cy_SMIF_Memslot_SfdpDetect() must work */
 100:Generated_Source\PSoC6\pdl\drivers\peripheral\smif/cy_smif_memslot.c ****                     device->CTL = _CLR_SET_FLD32U(device->CTL,
 101:Generated_Source\PSoC6\pdl\drivers\peripheral\smif/cy_smif_memslot.c ****                                                 SMIF_DEVICE_CTL_DATA_SEL,
 102:Generated_Source\PSoC6\pdl\drivers\peripheral\smif/cy_smif_memslot.c ****                                                 (uint32_t)memCfg->dataSelect);
 103:Generated_Source\PSoC6\pdl\drivers\peripheral\smif/cy_smif_memslot.c ****                     uint32_t sfdpRet = (uint32_t)CY_SMIF_SUCCESS;
 104:Generated_Source\PSoC6\pdl\drivers\peripheral\smif/cy_smif_memslot.c ****                     if (0U != (memCfg->flags & CY_SMIF_FLAG_DETECT_SFDP))
 105:Generated_Source\PSoC6\pdl\drivers\peripheral\smif/cy_smif_memslot.c ****                     {
 106:Generated_Source\PSoC6\pdl\drivers\peripheral\smif/cy_smif_memslot.c ****                         sfdpRet = (uint32_t)Cy_SMIF_Memslot_SfdpDetect(base,
 107:Generated_Source\PSoC6\pdl\drivers\peripheral\smif/cy_smif_memslot.c ****                                                 memCfg->deviceCfg,
 108:Generated_Source\PSoC6\pdl\drivers\peripheral\smif/cy_smif_memslot.c ****                                                 memCfg->slaveSelect,
 109:Generated_Source\PSoC6\pdl\drivers\peripheral\smif/cy_smif_memslot.c ****                                                 memCfg->dataSelect,
 110:Generated_Source\PSoC6\pdl\drivers\peripheral\smif/cy_smif_memslot.c ****                                                 context);
 111:Generated_Source\PSoC6\pdl\drivers\peripheral\smif/cy_smif_memslot.c ****                         if((uint32_t)CY_SMIF_SUCCESS != sfdpRet)
 112:Generated_Source\PSoC6\pdl\drivers\peripheral\smif/cy_smif_memslot.c ****                         {
 113:Generated_Source\PSoC6\pdl\drivers\peripheral\smif/cy_smif_memslot.c ****                             sfdpRes |=  ((uint32_t)CY_SMIF_SFDP_FAIL << idx);
 114:Generated_Source\PSoC6\pdl\drivers\peripheral\smif/cy_smif_memslot.c ****                         }
 115:Generated_Source\PSoC6\pdl\drivers\peripheral\smif/cy_smif_memslot.c ****                     }
 116:Generated_Source\PSoC6\pdl\drivers\peripheral\smif/cy_smif_memslot.c ****                     if (((uint32_t)CY_SMIF_SUCCESS == sfdpRet) &&
 117:Generated_Source\PSoC6\pdl\drivers\peripheral\smif/cy_smif_memslot.c ****                             (0U != (memCfg->flags & CY_SMIF_FLAG_MEMORY_MAPPED)))
 118:Generated_Source\PSoC6\pdl\drivers\peripheral\smif/cy_smif_memslot.c ****                     {
 119:Generated_Source\PSoC6\pdl\drivers\peripheral\smif/cy_smif_memslot.c ****                         /* Check valid parameters for XIP */
 120:Generated_Source\PSoC6\pdl\drivers\peripheral\smif/cy_smif_memslot.c ****                         CY_ASSERT_L3(CY_SMIF_MEM_ADDR_VALID( memCfg->baseAddress, memCfg->memMapped
 121:Generated_Source\PSoC6\pdl\drivers\peripheral\smif/cy_smif_memslot.c ****                         CY_ASSERT_L3(CY_SMIF_MEM_MAPPED_SIZE_VALID( memCfg->memMappedSize));
 122:Generated_Source\PSoC6\pdl\drivers\peripheral\smif/cy_smif_memslot.c ****                         
 123:Generated_Source\PSoC6\pdl\drivers\peripheral\smif/cy_smif_memslot.c ****                         Cy_SMIF_Memslot_XipRegInit(device, memCfg);
 124:Generated_Source\PSoC6\pdl\drivers\peripheral\smif/cy_smif_memslot.c **** 
 125:Generated_Source\PSoC6\pdl\drivers\peripheral\smif/cy_smif_memslot.c ****                         /* The device control register initialization */
 126:Generated_Source\PSoC6\pdl\drivers\peripheral\smif/cy_smif_memslot.c ****                         device->CTL = (memCfg->flags & CY_SMIF_FLAG_WR_EN) |
 127:Generated_Source\PSoC6\pdl\drivers\peripheral\smif/cy_smif_memslot.c ****                                       (memCfg->flags & CY_SMIF_FLAG_CRYPTO_EN) |
 128:Generated_Source\PSoC6\pdl\drivers\peripheral\smif/cy_smif_memslot.c ****                                       _VAL2FLD(SMIF_DEVICE_CTL_DATA_SEL,  (uint32_t)memCfg->dataSel
 129:Generated_Source\PSoC6\pdl\drivers\peripheral\smif/cy_smif_memslot.c ****                                       SMIF_DEVICE_CTL_ENABLED_Msk;
 130:Generated_Source\PSoC6\pdl\drivers\peripheral\smif/cy_smif_memslot.c ****                     }
 131:Generated_Source\PSoC6\pdl\drivers\peripheral\smif/cy_smif_memslot.c **** 
 132:Generated_Source\PSoC6\pdl\drivers\peripheral\smif/cy_smif_memslot.c ****                     /* Read the register to flush the buffer */
 133:Generated_Source\PSoC6\pdl\drivers\peripheral\smif/cy_smif_memslot.c ****                     (void) device->CTL;
 134:Generated_Source\PSoC6\pdl\drivers\peripheral\smif/cy_smif_memslot.c ****                 }
 135:Generated_Source\PSoC6\pdl\drivers\peripheral\smif/cy_smif_memslot.c ****                 else
 136:Generated_Source\PSoC6\pdl\drivers\peripheral\smif/cy_smif_memslot.c ****                 {
 137:Generated_Source\PSoC6\pdl\drivers\peripheral\smif/cy_smif_memslot.c ****                     result = (uint32_t)CY_SMIF_BAD_PARAM;
 138:Generated_Source\PSoC6\pdl\drivers\peripheral\smif/cy_smif_memslot.c ****                     break;
 139:Generated_Source\PSoC6\pdl\drivers\peripheral\smif/cy_smif_memslot.c ****                 }
 140:Generated_Source\PSoC6\pdl\drivers\peripheral\smif/cy_smif_memslot.c ****             }
 141:Generated_Source\PSoC6\pdl\drivers\peripheral\smif/cy_smif_memslot.c ****         }
 142:Generated_Source\PSoC6\pdl\drivers\peripheral\smif/cy_smif_memslot.c ****     }
 143:Generated_Source\PSoC6\pdl\drivers\peripheral\smif/cy_smif_memslot.c ****     if((uint32_t)CY_SMIF_SUCCESS != sfdpRes)
 144:Generated_Source\PSoC6\pdl\drivers\peripheral\smif/cy_smif_memslot.c ****     {
 145:Generated_Source\PSoC6\pdl\drivers\peripheral\smif/cy_smif_memslot.c ****         result = CY_SMIF_ID | CY_PDL_STATUS_ERROR | sfdpRes;
ARM GAS  C:\Users\ikomb\AppData\Local\Temp\cc5YtlHT.s 			page 4


 146:Generated_Source\PSoC6\pdl\drivers\peripheral\smif/cy_smif_memslot.c ****     }
 147:Generated_Source\PSoC6\pdl\drivers\peripheral\smif/cy_smif_memslot.c ****     return (cy_en_smif_status_t) result;
 148:Generated_Source\PSoC6\pdl\drivers\peripheral\smif/cy_smif_memslot.c **** }
 149:Generated_Source\PSoC6\pdl\drivers\peripheral\smif/cy_smif_memslot.c **** 
 150:Generated_Source\PSoC6\pdl\drivers\peripheral\smif/cy_smif_memslot.c **** 
 151:Generated_Source\PSoC6\pdl\drivers\peripheral\smif/cy_smif_memslot.c **** /*******************************************************************************
 152:Generated_Source\PSoC6\pdl\drivers\peripheral\smif/cy_smif_memslot.c **** * Function Name: Cy_SMIF_Memslot_XipRegInit
 153:Generated_Source\PSoC6\pdl\drivers\peripheral\smif/cy_smif_memslot.c **** ****************************************************************************//**
 154:Generated_Source\PSoC6\pdl\drivers\peripheral\smif/cy_smif_memslot.c **** *
 155:Generated_Source\PSoC6\pdl\drivers\peripheral\smif/cy_smif_memslot.c **** * \internal
 156:Generated_Source\PSoC6\pdl\drivers\peripheral\smif/cy_smif_memslot.c **** * This function initializes the memory device registers used for the XIP mode of
 157:Generated_Source\PSoC6\pdl\drivers\peripheral\smif/cy_smif_memslot.c **** * the specified device.
 158:Generated_Source\PSoC6\pdl\drivers\peripheral\smif/cy_smif_memslot.c **** *
 159:Generated_Source\PSoC6\pdl\drivers\peripheral\smif/cy_smif_memslot.c **** * \param dev
 160:Generated_Source\PSoC6\pdl\drivers\peripheral\smif/cy_smif_memslot.c **** * The SMIF memory device registers structure. \ref SMIF_DEVICE_Type
 161:Generated_Source\PSoC6\pdl\drivers\peripheral\smif/cy_smif_memslot.c **** *
 162:Generated_Source\PSoC6\pdl\drivers\peripheral\smif/cy_smif_memslot.c **** * \param memCfg
 163:Generated_Source\PSoC6\pdl\drivers\peripheral\smif/cy_smif_memslot.c **** * The memory configuration structure that configures the SMIF memory device to
 164:Generated_Source\PSoC6\pdl\drivers\peripheral\smif/cy_smif_memslot.c **** *  map into the PSoC memory map. \ref cy_stc_smif_mem_config_t
 165:Generated_Source\PSoC6\pdl\drivers\peripheral\smif/cy_smif_memslot.c **** *
 166:Generated_Source\PSoC6\pdl\drivers\peripheral\smif/cy_smif_memslot.c **** *******************************************************************************/
 167:Generated_Source\PSoC6\pdl\drivers\peripheral\smif/cy_smif_memslot.c **** static void Cy_SMIF_Memslot_XipRegInit(SMIF_DEVICE_Type volatile *dev,
 168:Generated_Source\PSoC6\pdl\drivers\peripheral\smif/cy_smif_memslot.c ****                             cy_stc_smif_mem_config_t const * memCfg)
 169:Generated_Source\PSoC6\pdl\drivers\peripheral\smif/cy_smif_memslot.c **** {
  27              		.loc 1 169 0
  28              		.cfi_startproc
  29              		@ args = 0, pretend = 0, frame = 0
  30              		@ frame_needed = 0, uses_anonymous_args = 0
  31              	.LVL0:
  32 0000 70B5     		push	{r4, r5, r6, lr}
  33              		.cfi_def_cfa_offset 16
  34              		.cfi_offset 4, -16
  35              		.cfi_offset 5, -12
  36              		.cfi_offset 6, -8
  37              		.cfi_offset 14, -4
 170:Generated_Source\PSoC6\pdl\drivers\peripheral\smif/cy_smif_memslot.c ****     cy_stc_smif_mem_device_cfg_t const * devCfg = memCfg->deviceCfg;
  38              		.loc 1 170 0
  39 0002 8D69     		ldr	r5, [r1, #24]
  40              	.LVL1:
 171:Generated_Source\PSoC6\pdl\drivers\peripheral\smif/cy_smif_memslot.c ****     cy_stc_smif_mem_cmd_t const * read = devCfg->readCmd;
  41              		.loc 1 171 0
  42 0004 AC68     		ldr	r4, [r5, #8]
  43              	.LVL2:
 172:Generated_Source\PSoC6\pdl\drivers\peripheral\smif/cy_smif_memslot.c ****     cy_stc_smif_mem_cmd_t const * prog = devCfg->programCmd;
  44              		.loc 1 172 0
  45 0006 2A6A     		ldr	r2, [r5, #32]
  46              	.LVL3:
 173:Generated_Source\PSoC6\pdl\drivers\peripheral\smif/cy_smif_memslot.c **** 
 174:Generated_Source\PSoC6\pdl\drivers\peripheral\smif/cy_smif_memslot.c ****     dev->ADDR = (SMIF_DEVICE_ADDR_ADDR_Msk & memCfg->baseAddress);
  47              		.loc 1 174 0
  48 0008 FF26     		movs	r6, #255
  49 000a CB68     		ldr	r3, [r1, #12]
  50 000c B343     		bics	r3, r6
  51 000e 8360     		str	r3, [r0, #8]
 175:Generated_Source\PSoC6\pdl\drivers\peripheral\smif/cy_smif_memslot.c ****     /* Convert the size in the mask*/
 176:Generated_Source\PSoC6\pdl\drivers\peripheral\smif/cy_smif_memslot.c ****     dev->MASK = (SMIF_DEVICE_MASK_MASK_Msk & (~(memCfg->memMappedSize) + 1UL));
  52              		.loc 1 176 0
ARM GAS  C:\Users\ikomb\AppData\Local\Temp\cc5YtlHT.s 			page 5


  53 0010 0B69     		ldr	r3, [r1, #16]
  54 0012 5B42     		rsbs	r3, r3, #0
  55 0014 B343     		bics	r3, r6
  56 0016 C360     		str	r3, [r0, #12]
 177:Generated_Source\PSoC6\pdl\drivers\peripheral\smif/cy_smif_memslot.c **** 
 178:Generated_Source\PSoC6\pdl\drivers\peripheral\smif/cy_smif_memslot.c ****     dev->ADDR_CTL = _VAL2FLD(SMIF_DEVICE_ADDR_CTL_SIZE2, (devCfg->numOfAddrBytes - 1UL)) |
  57              		.loc 1 178 0
  58 0018 2B68     		ldr	r3, [r5]
  59 001a 013B     		subs	r3, r3, #1
  60 001c 0325     		movs	r5, #3
  61              	.LVL4:
  62 001e 2B40     		ands	r3, r5
 179:Generated_Source\PSoC6\pdl\drivers\peripheral\smif/cy_smif_memslot.c ****                    ((0UL != memCfg->dualQuadSlots)? SMIF_DEVICE_ADDR_CTL_DIV2_Msk: 0UL);
  63              		.loc 1 179 0
  64 0020 4969     		ldr	r1, [r1, #20]
  65              	.LVL5:
  66 0022 0029     		cmp	r1, #0
  67 0024 01D0     		beq	.L2
  68 0026 8021     		movs	r1, #128
  69 0028 4900     		lsls	r1, r1, #1
  70              	.L2:
 178:Generated_Source\PSoC6\pdl\drivers\peripheral\smif/cy_smif_memslot.c ****                    ((0UL != memCfg->dualQuadSlots)? SMIF_DEVICE_ADDR_CTL_DIV2_Msk: 0UL);
  71              		.loc 1 178 0
  72 002a 0B43     		orrs	r3, r1
  73 002c 0362     		str	r3, [r0, #32]
 180:Generated_Source\PSoC6\pdl\drivers\peripheral\smif/cy_smif_memslot.c **** 
 181:Generated_Source\PSoC6\pdl\drivers\peripheral\smif/cy_smif_memslot.c ****     dev->RD_CMD_CTL = (CY_SMIF_NO_COMMAND_OR_MODE != read->command)?
  74              		.loc 1 181 0
  75 002e 2368     		ldr	r3, [r4]
 182:Generated_Source\PSoC6\pdl\drivers\peripheral\smif/cy_smif_memslot.c ****                         (_VAL2FLD(SMIF_DEVICE_RD_CMD_CTL_CODE,  (uint32_t)read->command)  |
 183:Generated_Source\PSoC6\pdl\drivers\peripheral\smif/cy_smif_memslot.c ****                          _VAL2FLD(SMIF_DEVICE_RD_CMD_CTL_WIDTH, (uint32_t)read->cmdWidth) |
 184:Generated_Source\PSoC6\pdl\drivers\peripheral\smif/cy_smif_memslot.c ****                          SMIF_DEVICE_RD_CMD_CTL_PRESENT_Msk)
 185:Generated_Source\PSoC6\pdl\drivers\peripheral\smif/cy_smif_memslot.c ****                         : 0U;
  76              		.loc 1 185 0
  77 0030 591C     		adds	r1, r3, #1
  78 0032 0BD0     		beq	.L9
 182:Generated_Source\PSoC6\pdl\drivers\peripheral\smif/cy_smif_memslot.c ****                         (_VAL2FLD(SMIF_DEVICE_RD_CMD_CTL_CODE,  (uint32_t)read->command)  |
  79              		.loc 1 182 0 discriminator 1
  80 0034 FF25     		movs	r5, #255
  81 0036 1D40     		ands	r5, r3
 183:Generated_Source\PSoC6\pdl\drivers\peripheral\smif/cy_smif_memslot.c ****                          SMIF_DEVICE_RD_CMD_CTL_PRESENT_Msk)
  82              		.loc 1 183 0 discriminator 1
  83 0038 2379     		ldrb	r3, [r4, #4]
  84 003a 1B04     		lsls	r3, r3, #16
  85 003c C021     		movs	r1, #192
  86 003e 8902     		lsls	r1, r1, #10
  87 0040 0B40     		ands	r3, r1
 182:Generated_Source\PSoC6\pdl\drivers\peripheral\smif/cy_smif_memslot.c ****                         (_VAL2FLD(SMIF_DEVICE_RD_CMD_CTL_CODE,  (uint32_t)read->command)  |
  88              		.loc 1 182 0 discriminator 1
  89 0042 2B43     		orrs	r3, r5
  90              		.loc 1 185 0 discriminator 1
  91 0044 8021     		movs	r1, #128
  92 0046 0906     		lsls	r1, r1, #24
  93 0048 0B43     		orrs	r3, r1
  94 004a 00E0     		b	.L3
  95              	.L9:
  96              		.loc 1 185 0 is_stmt 0
ARM GAS  C:\Users\ikomb\AppData\Local\Temp\cc5YtlHT.s 			page 6


  97 004c 0023     		movs	r3, #0
  98              	.L3:
 181:Generated_Source\PSoC6\pdl\drivers\peripheral\smif/cy_smif_memslot.c ****                         (_VAL2FLD(SMIF_DEVICE_RD_CMD_CTL_CODE,  (uint32_t)read->command)  |
  99              		.loc 1 181 0 is_stmt 1
 100 004e 0364     		str	r3, [r0, #64]
 186:Generated_Source\PSoC6\pdl\drivers\peripheral\smif/cy_smif_memslot.c **** 
 187:Generated_Source\PSoC6\pdl\drivers\peripheral\smif/cy_smif_memslot.c ****     dev->RD_ADDR_CTL = _VAL2FLD(SMIF_DEVICE_RD_ADDR_CTL_WIDTH, (uint32_t)read->addrWidth);
 101              		.loc 1 187 0
 102 0050 6379     		ldrb	r3, [r4, #5]
 103 0052 1B04     		lsls	r3, r3, #16
 104 0054 C021     		movs	r1, #192
 105 0056 8902     		lsls	r1, r1, #10
 106 0058 0B40     		ands	r3, r1
 107 005a 4364     		str	r3, [r0, #68]
 188:Generated_Source\PSoC6\pdl\drivers\peripheral\smif/cy_smif_memslot.c **** 
 189:Generated_Source\PSoC6\pdl\drivers\peripheral\smif/cy_smif_memslot.c ****     dev->RD_MODE_CTL = (CY_SMIF_NO_COMMAND_OR_MODE != read->mode)?
 108              		.loc 1 189 0
 109 005c A368     		ldr	r3, [r4, #8]
 190:Generated_Source\PSoC6\pdl\drivers\peripheral\smif/cy_smif_memslot.c ****                         (_VAL2FLD(SMIF_DEVICE_RD_CMD_CTL_CODE,  (uint32_t)read->mode)     |
 191:Generated_Source\PSoC6\pdl\drivers\peripheral\smif/cy_smif_memslot.c ****                          _VAL2FLD(SMIF_DEVICE_RD_CMD_CTL_WIDTH, (uint32_t)read->modeWidth)|
 192:Generated_Source\PSoC6\pdl\drivers\peripheral\smif/cy_smif_memslot.c ****                          SMIF_DEVICE_RD_CMD_CTL_PRESENT_Msk)
 193:Generated_Source\PSoC6\pdl\drivers\peripheral\smif/cy_smif_memslot.c ****                         : 0U;
 110              		.loc 1 193 0
 111 005e 591C     		adds	r1, r3, #1
 112 0060 0BD0     		beq	.L10
 190:Generated_Source\PSoC6\pdl\drivers\peripheral\smif/cy_smif_memslot.c ****                         (_VAL2FLD(SMIF_DEVICE_RD_CMD_CTL_CODE,  (uint32_t)read->mode)     |
 113              		.loc 1 190 0 discriminator 1
 114 0062 FF25     		movs	r5, #255
 115 0064 1D40     		ands	r5, r3
 191:Generated_Source\PSoC6\pdl\drivers\peripheral\smif/cy_smif_memslot.c ****                          SMIF_DEVICE_RD_CMD_CTL_PRESENT_Msk)
 116              		.loc 1 191 0 discriminator 1
 117 0066 237B     		ldrb	r3, [r4, #12]
 118 0068 1B04     		lsls	r3, r3, #16
 119 006a C021     		movs	r1, #192
 120 006c 8902     		lsls	r1, r1, #10
 121 006e 0B40     		ands	r3, r1
 190:Generated_Source\PSoC6\pdl\drivers\peripheral\smif/cy_smif_memslot.c ****                         (_VAL2FLD(SMIF_DEVICE_RD_CMD_CTL_CODE,  (uint32_t)read->mode)     |
 122              		.loc 1 190 0 discriminator 1
 123 0070 2B43     		orrs	r3, r5
 124              		.loc 1 193 0 discriminator 1
 125 0072 8021     		movs	r1, #128
 126 0074 0906     		lsls	r1, r1, #24
 127 0076 0B43     		orrs	r3, r1
 128 0078 00E0     		b	.L4
 129              	.L10:
 130              		.loc 1 193 0 is_stmt 0
 131 007a 0023     		movs	r3, #0
 132              	.L4:
 189:Generated_Source\PSoC6\pdl\drivers\peripheral\smif/cy_smif_memslot.c ****                         (_VAL2FLD(SMIF_DEVICE_RD_CMD_CTL_CODE,  (uint32_t)read->mode)     |
 133              		.loc 1 189 0 is_stmt 1
 134 007c 8364     		str	r3, [r0, #72]
 194:Generated_Source\PSoC6\pdl\drivers\peripheral\smif/cy_smif_memslot.c **** 
 195:Generated_Source\PSoC6\pdl\drivers\peripheral\smif/cy_smif_memslot.c ****     dev->RD_DUMMY_CTL = (0UL != read->dummyCycles)?
 135              		.loc 1 195 0
 136 007e 2369     		ldr	r3, [r4, #16]
 196:Generated_Source\PSoC6\pdl\drivers\peripheral\smif/cy_smif_memslot.c ****                         (_VAL2FLD(SMIF_DEVICE_RD_DUMMY_CTL_SIZE5, (read->dummyCycles - 1UL)) |
 197:Generated_Source\PSoC6\pdl\drivers\peripheral\smif/cy_smif_memslot.c ****                          SMIF_DEVICE_RD_DUMMY_CTL_PRESENT_Msk)
ARM GAS  C:\Users\ikomb\AppData\Local\Temp\cc5YtlHT.s 			page 7


 198:Generated_Source\PSoC6\pdl\drivers\peripheral\smif/cy_smif_memslot.c ****                         : 0U;
 137              		.loc 1 198 0
 138 0080 002B     		cmp	r3, #0
 139 0082 05D0     		beq	.L5
 196:Generated_Source\PSoC6\pdl\drivers\peripheral\smif/cy_smif_memslot.c ****                         (_VAL2FLD(SMIF_DEVICE_RD_DUMMY_CTL_SIZE5, (read->dummyCycles - 1UL)) |
 140              		.loc 1 196 0 discriminator 1
 141 0084 013B     		subs	r3, r3, #1
 142 0086 1F21     		movs	r1, #31
 143 0088 0B40     		ands	r3, r1
 144              		.loc 1 198 0 discriminator 1
 145 008a 8021     		movs	r1, #128
 146 008c 0906     		lsls	r1, r1, #24
 147 008e 0B43     		orrs	r3, r1
 148              	.L5:
 195:Generated_Source\PSoC6\pdl\drivers\peripheral\smif/cy_smif_memslot.c ****                         (_VAL2FLD(SMIF_DEVICE_RD_DUMMY_CTL_SIZE5, (read->dummyCycles - 1UL)) |
 149              		.loc 1 195 0
 150 0090 C364     		str	r3, [r0, #76]
 199:Generated_Source\PSoC6\pdl\drivers\peripheral\smif/cy_smif_memslot.c **** 
 200:Generated_Source\PSoC6\pdl\drivers\peripheral\smif/cy_smif_memslot.c ****     dev->RD_DATA_CTL = _VAL2FLD(SMIF_DEVICE_RD_DATA_CTL_WIDTH, (uint32_t)read->dataWidth);
 151              		.loc 1 200 0
 152 0092 237D     		ldrb	r3, [r4, #20]
 153 0094 1B04     		lsls	r3, r3, #16
 154 0096 C021     		movs	r1, #192
 155 0098 8902     		lsls	r1, r1, #10
 156 009a 0B40     		ands	r3, r1
 157 009c 0365     		str	r3, [r0, #80]
 201:Generated_Source\PSoC6\pdl\drivers\peripheral\smif/cy_smif_memslot.c **** 
 202:Generated_Source\PSoC6\pdl\drivers\peripheral\smif/cy_smif_memslot.c ****     dev->WR_CMD_CTL = (CY_SMIF_NO_COMMAND_OR_MODE != prog->command)?
 158              		.loc 1 202 0
 159 009e 1368     		ldr	r3, [r2]
 203:Generated_Source\PSoC6\pdl\drivers\peripheral\smif/cy_smif_memslot.c ****                         (_VAL2FLD(SMIF_DEVICE_WR_CMD_CTL_CODE,  (uint32_t)prog->command) |
 204:Generated_Source\PSoC6\pdl\drivers\peripheral\smif/cy_smif_memslot.c ****                          _VAL2FLD(SMIF_DEVICE_WR_CMD_CTL_WIDTH, (uint32_t)prog->cmdWidth)|
 205:Generated_Source\PSoC6\pdl\drivers\peripheral\smif/cy_smif_memslot.c ****                          SMIF_DEVICE_WR_CMD_CTL_PRESENT_Msk)
 206:Generated_Source\PSoC6\pdl\drivers\peripheral\smif/cy_smif_memslot.c ****                         : 0U;
 160              		.loc 1 206 0
 161 00a0 591C     		adds	r1, r3, #1
 162 00a2 0BD0     		beq	.L11
 203:Generated_Source\PSoC6\pdl\drivers\peripheral\smif/cy_smif_memslot.c ****                         (_VAL2FLD(SMIF_DEVICE_WR_CMD_CTL_CODE,  (uint32_t)prog->command) |
 163              		.loc 1 203 0 discriminator 1
 164 00a4 FF24     		movs	r4, #255
 165              	.LVL6:
 166 00a6 1C40     		ands	r4, r3
 204:Generated_Source\PSoC6\pdl\drivers\peripheral\smif/cy_smif_memslot.c ****                          SMIF_DEVICE_WR_CMD_CTL_PRESENT_Msk)
 167              		.loc 1 204 0 discriminator 1
 168 00a8 1379     		ldrb	r3, [r2, #4]
 169 00aa 1B04     		lsls	r3, r3, #16
 170 00ac C021     		movs	r1, #192
 171 00ae 8902     		lsls	r1, r1, #10
 172 00b0 0B40     		ands	r3, r1
 203:Generated_Source\PSoC6\pdl\drivers\peripheral\smif/cy_smif_memslot.c ****                         (_VAL2FLD(SMIF_DEVICE_WR_CMD_CTL_CODE,  (uint32_t)prog->command) |
 173              		.loc 1 203 0 discriminator 1
 174 00b2 2343     		orrs	r3, r4
 175              		.loc 1 206 0 discriminator 1
 176 00b4 8021     		movs	r1, #128
 177 00b6 0906     		lsls	r1, r1, #24
 178 00b8 0B43     		orrs	r3, r1
 179 00ba 00E0     		b	.L6
ARM GAS  C:\Users\ikomb\AppData\Local\Temp\cc5YtlHT.s 			page 8


 180              	.LVL7:
 181              	.L11:
 182              		.loc 1 206 0 is_stmt 0
 183 00bc 0023     		movs	r3, #0
 184              	.LVL8:
 185              	.L6:
 202:Generated_Source\PSoC6\pdl\drivers\peripheral\smif/cy_smif_memslot.c ****                         (_VAL2FLD(SMIF_DEVICE_WR_CMD_CTL_CODE,  (uint32_t)prog->command) |
 186              		.loc 1 202 0 is_stmt 1
 187 00be 0366     		str	r3, [r0, #96]
 207:Generated_Source\PSoC6\pdl\drivers\peripheral\smif/cy_smif_memslot.c **** 
 208:Generated_Source\PSoC6\pdl\drivers\peripheral\smif/cy_smif_memslot.c ****     dev->WR_ADDR_CTL = _VAL2FLD(SMIF_DEVICE_WR_ADDR_CTL_WIDTH, (uint32_t)prog->addrWidth);
 188              		.loc 1 208 0
 189 00c0 5379     		ldrb	r3, [r2, #5]
 190 00c2 1B04     		lsls	r3, r3, #16
 191 00c4 C021     		movs	r1, #192
 192 00c6 8902     		lsls	r1, r1, #10
 193 00c8 0B40     		ands	r3, r1
 194 00ca 4366     		str	r3, [r0, #100]
 209:Generated_Source\PSoC6\pdl\drivers\peripheral\smif/cy_smif_memslot.c **** 
 210:Generated_Source\PSoC6\pdl\drivers\peripheral\smif/cy_smif_memslot.c ****     dev->WR_MODE_CTL = (CY_SMIF_NO_COMMAND_OR_MODE != prog->mode)?
 195              		.loc 1 210 0
 196 00cc 9368     		ldr	r3, [r2, #8]
 211:Generated_Source\PSoC6\pdl\drivers\peripheral\smif/cy_smif_memslot.c ****                       (_VAL2FLD(SMIF_DEVICE_WR_CMD_CTL_CODE,  (uint32_t)prog->mode)     |
 212:Generated_Source\PSoC6\pdl\drivers\peripheral\smif/cy_smif_memslot.c ****                        _VAL2FLD(SMIF_DEVICE_WR_CMD_CTL_WIDTH, (uint32_t)prog->modeWidth)|
 213:Generated_Source\PSoC6\pdl\drivers\peripheral\smif/cy_smif_memslot.c ****                        SMIF_DEVICE_WR_CMD_CTL_PRESENT_Msk)
 214:Generated_Source\PSoC6\pdl\drivers\peripheral\smif/cy_smif_memslot.c ****                        : 0UL;
 197              		.loc 1 214 0
 198 00ce 591C     		adds	r1, r3, #1
 199 00d0 0BD0     		beq	.L12
 211:Generated_Source\PSoC6\pdl\drivers\peripheral\smif/cy_smif_memslot.c ****                       (_VAL2FLD(SMIF_DEVICE_WR_CMD_CTL_CODE,  (uint32_t)prog->mode)     |
 200              		.loc 1 211 0 discriminator 1
 201 00d2 FF24     		movs	r4, #255
 202 00d4 1C40     		ands	r4, r3
 212:Generated_Source\PSoC6\pdl\drivers\peripheral\smif/cy_smif_memslot.c ****                        SMIF_DEVICE_WR_CMD_CTL_PRESENT_Msk)
 203              		.loc 1 212 0 discriminator 1
 204 00d6 137B     		ldrb	r3, [r2, #12]
 205 00d8 1B04     		lsls	r3, r3, #16
 206 00da C021     		movs	r1, #192
 207 00dc 8902     		lsls	r1, r1, #10
 208 00de 0B40     		ands	r3, r1
 211:Generated_Source\PSoC6\pdl\drivers\peripheral\smif/cy_smif_memslot.c ****                       (_VAL2FLD(SMIF_DEVICE_WR_CMD_CTL_CODE,  (uint32_t)prog->mode)     |
 209              		.loc 1 211 0 discriminator 1
 210 00e0 2343     		orrs	r3, r4
 211              		.loc 1 214 0 discriminator 1
 212 00e2 8021     		movs	r1, #128
 213 00e4 0906     		lsls	r1, r1, #24
 214 00e6 0B43     		orrs	r3, r1
 215 00e8 00E0     		b	.L7
 216              	.L12:
 217              		.loc 1 214 0 is_stmt 0
 218 00ea 0023     		movs	r3, #0
 219              	.L7:
 210:Generated_Source\PSoC6\pdl\drivers\peripheral\smif/cy_smif_memslot.c ****                       (_VAL2FLD(SMIF_DEVICE_WR_CMD_CTL_CODE,  (uint32_t)prog->mode)     |
 220              		.loc 1 210 0 is_stmt 1
 221 00ec 8366     		str	r3, [r0, #104]
 215:Generated_Source\PSoC6\pdl\drivers\peripheral\smif/cy_smif_memslot.c **** 
 216:Generated_Source\PSoC6\pdl\drivers\peripheral\smif/cy_smif_memslot.c ****     dev->WR_DUMMY_CTL = (0UL != prog->dummyCycles)?
ARM GAS  C:\Users\ikomb\AppData\Local\Temp\cc5YtlHT.s 			page 9


 222              		.loc 1 216 0
 223 00ee 1369     		ldr	r3, [r2, #16]
 217:Generated_Source\PSoC6\pdl\drivers\peripheral\smif/cy_smif_memslot.c ****                         (_VAL2FLD(SMIF_DEVICE_WR_DUMMY_CTL_SIZE5, (prog->dummyCycles - 1UL)) |
 218:Generated_Source\PSoC6\pdl\drivers\peripheral\smif/cy_smif_memslot.c ****                          SMIF_DEVICE_WR_DUMMY_CTL_PRESENT_Msk)
 219:Generated_Source\PSoC6\pdl\drivers\peripheral\smif/cy_smif_memslot.c ****                         : 0U;
 224              		.loc 1 219 0
 225 00f0 002B     		cmp	r3, #0
 226 00f2 05D0     		beq	.L8
 217:Generated_Source\PSoC6\pdl\drivers\peripheral\smif/cy_smif_memslot.c ****                         (_VAL2FLD(SMIF_DEVICE_WR_DUMMY_CTL_SIZE5, (prog->dummyCycles - 1UL)) |
 227              		.loc 1 217 0 discriminator 1
 228 00f4 013B     		subs	r3, r3, #1
 229 00f6 1F21     		movs	r1, #31
 230 00f8 0B40     		ands	r3, r1
 231              		.loc 1 219 0 discriminator 1
 232 00fa 8021     		movs	r1, #128
 233 00fc 0906     		lsls	r1, r1, #24
 234 00fe 0B43     		orrs	r3, r1
 235              	.L8:
 216:Generated_Source\PSoC6\pdl\drivers\peripheral\smif/cy_smif_memslot.c ****                         (_VAL2FLD(SMIF_DEVICE_WR_DUMMY_CTL_SIZE5, (prog->dummyCycles - 1UL)) |
 236              		.loc 1 216 0
 237 0100 C366     		str	r3, [r0, #108]
 220:Generated_Source\PSoC6\pdl\drivers\peripheral\smif/cy_smif_memslot.c **** 
 221:Generated_Source\PSoC6\pdl\drivers\peripheral\smif/cy_smif_memslot.c ****     dev->WR_DATA_CTL = _VAL2FLD(SMIF_DEVICE_WR_DATA_CTL_WIDTH, (uint32_t)prog->dataWidth);
 238              		.loc 1 221 0
 239 0102 137D     		ldrb	r3, [r2, #20]
 240 0104 1B04     		lsls	r3, r3, #16
 241 0106 C022     		movs	r2, #192
 242              	.LVL9:
 243 0108 9202     		lsls	r2, r2, #10
 244 010a 1340     		ands	r3, r2
 245 010c 0367     		str	r3, [r0, #112]
 222:Generated_Source\PSoC6\pdl\drivers\peripheral\smif/cy_smif_memslot.c **** }
 246              		.loc 1 222 0
 247              		@ sp needed
 248 010e 70BD     		pop	{r4, r5, r6, pc}
 249              		.cfi_endproc
 250              	.LFE90:
 251              		.size	Cy_SMIF_Memslot_XipRegInit, .-Cy_SMIF_Memslot_XipRegInit
 252              		.section	.text.Cy_SMIF_Memslot_DeInit,"ax",%progbits
 253              		.align	2
 254              		.global	Cy_SMIF_Memslot_DeInit
 255              		.code	16
 256              		.thumb_func
 257              		.type	Cy_SMIF_Memslot_DeInit, %function
 258              	Cy_SMIF_Memslot_DeInit:
 259              	.LFB91:
 223:Generated_Source\PSoC6\pdl\drivers\peripheral\smif/cy_smif_memslot.c **** 
 224:Generated_Source\PSoC6\pdl\drivers\peripheral\smif/cy_smif_memslot.c **** 
 225:Generated_Source\PSoC6\pdl\drivers\peripheral\smif/cy_smif_memslot.c **** /*******************************************************************************
 226:Generated_Source\PSoC6\pdl\drivers\peripheral\smif/cy_smif_memslot.c **** * Function Name: Cy_SMIF_MemoryDeInit
 227:Generated_Source\PSoC6\pdl\drivers\peripheral\smif/cy_smif_memslot.c **** ****************************************************************************//**
 228:Generated_Source\PSoC6\pdl\drivers\peripheral\smif/cy_smif_memslot.c **** *
 229:Generated_Source\PSoC6\pdl\drivers\peripheral\smif/cy_smif_memslot.c **** * This function de-initializes all slave slots of the memory device to their default
 230:Generated_Source\PSoC6\pdl\drivers\peripheral\smif/cy_smif_memslot.c **** * values.
 231:Generated_Source\PSoC6\pdl\drivers\peripheral\smif/cy_smif_memslot.c **** *
 232:Generated_Source\PSoC6\pdl\drivers\peripheral\smif/cy_smif_memslot.c **** * \param base
 233:Generated_Source\PSoC6\pdl\drivers\peripheral\smif/cy_smif_memslot.c **** * Holds the base address of the SMIF block registers.
ARM GAS  C:\Users\ikomb\AppData\Local\Temp\cc5YtlHT.s 			page 10


 234:Generated_Source\PSoC6\pdl\drivers\peripheral\smif/cy_smif_memslot.c **** *
 235:Generated_Source\PSoC6\pdl\drivers\peripheral\smif/cy_smif_memslot.c **** *******************************************************************************/
 236:Generated_Source\PSoC6\pdl\drivers\peripheral\smif/cy_smif_memslot.c **** void Cy_SMIF_Memslot_DeInit(SMIF_Type *base)
 237:Generated_Source\PSoC6\pdl\drivers\peripheral\smif/cy_smif_memslot.c **** {
 260              		.loc 1 237 0
 261              		.cfi_startproc
 262              		@ args = 0, pretend = 0, frame = 0
 263              		@ frame_needed = 0, uses_anonymous_args = 0
 264              	.LVL10:
 265 0000 30B5     		push	{r4, r5, lr}
 266              		.cfi_def_cfa_offset 12
 267              		.cfi_offset 4, -12
 268              		.cfi_offset 5, -8
 269              		.cfi_offset 14, -4
 270              	.LVL11:
 238:Generated_Source\PSoC6\pdl\drivers\peripheral\smif/cy_smif_memslot.c ****     /* Configure the SMIF device slots to the default values. The default value is 0 */
 239:Generated_Source\PSoC6\pdl\drivers\peripheral\smif/cy_smif_memslot.c ****     uint32_t deviceIndex;
 240:Generated_Source\PSoC6\pdl\drivers\peripheral\smif/cy_smif_memslot.c **** 
 241:Generated_Source\PSoC6\pdl\drivers\peripheral\smif/cy_smif_memslot.c ****     for(deviceIndex = 0UL; deviceIndex < (uint32_t)SMIF_DEVICE_NR; deviceIndex++)
 271              		.loc 1 241 0
 272 0002 0021     		movs	r1, #0
 273 0004 35E0     		b	.L14
 274              	.LVL12:
 275              	.L15:
 242:Generated_Source\PSoC6\pdl\drivers\peripheral\smif/cy_smif_memslot.c ****     {
 243:Generated_Source\PSoC6\pdl\drivers\peripheral\smif/cy_smif_memslot.c ****         base->DEVICE[deviceIndex].CTL           = 0U;
 276              		.loc 1 243 0 discriminator 3
 277 0006 0C00     		movs	r4, r1
 278 0008 1034     		adds	r4, r4, #16
 279 000a E401     		lsls	r4, r4, #7
 280 000c 0022     		movs	r2, #0
 281 000e 2250     		str	r2, [r4, r0]
 244:Generated_Source\PSoC6\pdl\drivers\peripheral\smif/cy_smif_memslot.c ****         base->DEVICE[deviceIndex].ADDR          = 0U;
 282              		.loc 1 244 0 discriminator 3
 283 0010 CB01     		lsls	r3, r1, #7
 284 0012 C318     		adds	r3, r0, r3
 285 0014 184D     		ldr	r5, .L16
 286 0016 5D19     		adds	r5, r3, r5
 287 0018 2A60     		str	r2, [r5]
 245:Generated_Source\PSoC6\pdl\drivers\peripheral\smif/cy_smif_memslot.c ****         base->DEVICE[deviceIndex].MASK          = 0U;
 288              		.loc 1 245 0 discriminator 3
 289 001a 184D     		ldr	r5, .L16+4
 290 001c 5D19     		adds	r5, r3, r5
 291 001e 2A60     		str	r2, [r5]
 246:Generated_Source\PSoC6\pdl\drivers\peripheral\smif/cy_smif_memslot.c ****         base->DEVICE[deviceIndex].ADDR_CTL      = 0U;
 292              		.loc 1 246 0 discriminator 3
 293 0020 8225     		movs	r5, #130
 294 0022 2D01     		lsls	r5, r5, #4
 295 0024 5D19     		adds	r5, r3, r5
 296 0026 2A60     		str	r2, [r5]
 247:Generated_Source\PSoC6\pdl\drivers\peripheral\smif/cy_smif_memslot.c ****         base->DEVICE[deviceIndex].RD_CMD_CTL    = 0U;
 297              		.loc 1 247 0 discriminator 3
 298 0028 8425     		movs	r5, #132
 299 002a 2D01     		lsls	r5, r5, #4
 300 002c 5D19     		adds	r5, r3, r5
 301 002e 2A60     		str	r2, [r5]
 248:Generated_Source\PSoC6\pdl\drivers\peripheral\smif/cy_smif_memslot.c ****         base->DEVICE[deviceIndex].RD_ADDR_CTL   = 0U;
ARM GAS  C:\Users\ikomb\AppData\Local\Temp\cc5YtlHT.s 			page 11


 302              		.loc 1 248 0 discriminator 3
 303 0030 134D     		ldr	r5, .L16+8
 304 0032 5D19     		adds	r5, r3, r5
 305 0034 2A60     		str	r2, [r5]
 249:Generated_Source\PSoC6\pdl\drivers\peripheral\smif/cy_smif_memslot.c ****         base->DEVICE[deviceIndex].RD_MODE_CTL   = 0U;
 306              		.loc 1 249 0 discriminator 3
 307 0036 134D     		ldr	r5, .L16+12
 308 0038 5D19     		adds	r5, r3, r5
 309 003a 2A60     		str	r2, [r5]
 250:Generated_Source\PSoC6\pdl\drivers\peripheral\smif/cy_smif_memslot.c ****         base->DEVICE[deviceIndex].RD_DUMMY_CTL  = 0U;
 310              		.loc 1 250 0 discriminator 3
 311 003c 124D     		ldr	r5, .L16+16
 312 003e 5D19     		adds	r5, r3, r5
 313 0040 2A60     		str	r2, [r5]
 251:Generated_Source\PSoC6\pdl\drivers\peripheral\smif/cy_smif_memslot.c ****         base->DEVICE[deviceIndex].RD_DATA_CTL   = 0U;
 314              		.loc 1 251 0 discriminator 3
 315 0042 8525     		movs	r5, #133
 316 0044 2D01     		lsls	r5, r5, #4
 317 0046 5D19     		adds	r5, r3, r5
 318 0048 2A60     		str	r2, [r5]
 252:Generated_Source\PSoC6\pdl\drivers\peripheral\smif/cy_smif_memslot.c ****         base->DEVICE[deviceIndex].WR_CMD_CTL    = 0U;
 319              		.loc 1 252 0 discriminator 3
 320 004a 8625     		movs	r5, #134
 321 004c 2D01     		lsls	r5, r5, #4
 322 004e 5D19     		adds	r5, r3, r5
 323 0050 2A60     		str	r2, [r5]
 253:Generated_Source\PSoC6\pdl\drivers\peripheral\smif/cy_smif_memslot.c ****         base->DEVICE[deviceIndex].WR_ADDR_CTL   = 0U;
 324              		.loc 1 253 0 discriminator 3
 325 0052 0E4D     		ldr	r5, .L16+20
 326 0054 5D19     		adds	r5, r3, r5
 327 0056 2A60     		str	r2, [r5]
 254:Generated_Source\PSoC6\pdl\drivers\peripheral\smif/cy_smif_memslot.c ****         base->DEVICE[deviceIndex].WR_MODE_CTL   = 0U;
 328              		.loc 1 254 0 discriminator 3
 329 0058 0D4D     		ldr	r5, .L16+24
 330 005a 5D19     		adds	r5, r3, r5
 331 005c 2A60     		str	r2, [r5]
 255:Generated_Source\PSoC6\pdl\drivers\peripheral\smif/cy_smif_memslot.c ****         base->DEVICE[deviceIndex].WR_DUMMY_CTL  = 0U;
 332              		.loc 1 255 0 discriminator 3
 333 005e 0D4D     		ldr	r5, .L16+28
 334 0060 5D19     		adds	r5, r3, r5
 335 0062 2A60     		str	r2, [r5]
 256:Generated_Source\PSoC6\pdl\drivers\peripheral\smif/cy_smif_memslot.c ****         base->DEVICE[deviceIndex].WR_DATA_CTL   = 0U;
 336              		.loc 1 256 0 discriminator 3
 337 0064 8725     		movs	r5, #135
 338 0066 2D01     		lsls	r5, r5, #4
 339 0068 AC46     		mov	ip, r5
 340 006a 6344     		add	r3, r3, ip
 341 006c 1A60     		str	r2, [r3]
 257:Generated_Source\PSoC6\pdl\drivers\peripheral\smif/cy_smif_memslot.c **** 
 258:Generated_Source\PSoC6\pdl\drivers\peripheral\smif/cy_smif_memslot.c ****         /* Read the register to flush the buffer */
 259:Generated_Source\PSoC6\pdl\drivers\peripheral\smif/cy_smif_memslot.c ****         (void) base->DEVICE[deviceIndex].CTL;
 342              		.loc 1 259 0 discriminator 3
 343 006e 2358     		ldr	r3, [r4, r0]
 241:Generated_Source\PSoC6\pdl\drivers\peripheral\smif/cy_smif_memslot.c ****     {
 344              		.loc 1 241 0 discriminator 3
 345 0070 0131     		adds	r1, r1, #1
 346              	.LVL13:
ARM GAS  C:\Users\ikomb\AppData\Local\Temp\cc5YtlHT.s 			page 12


 347              	.L14:
 241:Generated_Source\PSoC6\pdl\drivers\peripheral\smif/cy_smif_memslot.c ****     {
 348              		.loc 1 241 0 is_stmt 0 discriminator 1
 349 0072 0329     		cmp	r1, #3
 350 0074 C7D9     		bls	.L15
 260:Generated_Source\PSoC6\pdl\drivers\peripheral\smif/cy_smif_memslot.c ****     }
 261:Generated_Source\PSoC6\pdl\drivers\peripheral\smif/cy_smif_memslot.c **** }
 351              		.loc 1 261 0 is_stmt 1
 352              		@ sp needed
 353 0076 30BD     		pop	{r4, r5, pc}
 354              	.L17:
 355              		.align	2
 356              	.L16:
 357 0078 08080000 		.word	2056
 358 007c 0C080000 		.word	2060
 359 0080 44080000 		.word	2116
 360 0084 48080000 		.word	2120
 361 0088 4C080000 		.word	2124
 362 008c 64080000 		.word	2148
 363 0090 68080000 		.word	2152
 364 0094 6C080000 		.word	2156
 365              		.cfi_endproc
 366              	.LFE91:
 367              		.size	Cy_SMIF_Memslot_DeInit, .-Cy_SMIF_Memslot_DeInit
 368              		.section	.text.Cy_SMIF_Memslot_CmdWriteEnable,"ax",%progbits
 369              		.align	2
 370              		.global	Cy_SMIF_Memslot_CmdWriteEnable
 371              		.code	16
 372              		.thumb_func
 373              		.type	Cy_SMIF_Memslot_CmdWriteEnable, %function
 374              	Cy_SMIF_Memslot_CmdWriteEnable:
 375              	.LFB92:
 262:Generated_Source\PSoC6\pdl\drivers\peripheral\smif/cy_smif_memslot.c **** 
 263:Generated_Source\PSoC6\pdl\drivers\peripheral\smif/cy_smif_memslot.c **** 
 264:Generated_Source\PSoC6\pdl\drivers\peripheral\smif/cy_smif_memslot.c **** /*******************************************************************************
 265:Generated_Source\PSoC6\pdl\drivers\peripheral\smif/cy_smif_memslot.c **** * Function Name: Cy_SMIF_Memslot_CmdWriteEnable
 266:Generated_Source\PSoC6\pdl\drivers\peripheral\smif/cy_smif_memslot.c **** ****************************************************************************//**
 267:Generated_Source\PSoC6\pdl\drivers\peripheral\smif/cy_smif_memslot.c **** *
 268:Generated_Source\PSoC6\pdl\drivers\peripheral\smif/cy_smif_memslot.c **** * This function sends the Write Enable command to the memory device.
 269:Generated_Source\PSoC6\pdl\drivers\peripheral\smif/cy_smif_memslot.c **** *
 270:Generated_Source\PSoC6\pdl\drivers\peripheral\smif/cy_smif_memslot.c **** * \note This function uses the low-level Cy_SMIF_TransmitCommand() API.
 271:Generated_Source\PSoC6\pdl\drivers\peripheral\smif/cy_smif_memslot.c **** * The Cy_SMIF_TransmitCommand() API works in a blocking mode. In the dual quad mode,
 272:Generated_Source\PSoC6\pdl\drivers\peripheral\smif/cy_smif_memslot.c **** * this API is called for each memory.
 273:Generated_Source\PSoC6\pdl\drivers\peripheral\smif/cy_smif_memslot.c **** *
 274:Generated_Source\PSoC6\pdl\drivers\peripheral\smif/cy_smif_memslot.c **** * \param base
 275:Generated_Source\PSoC6\pdl\drivers\peripheral\smif/cy_smif_memslot.c **** * Holds the base address of the SMIF block registers.
 276:Generated_Source\PSoC6\pdl\drivers\peripheral\smif/cy_smif_memslot.c **** *
 277:Generated_Source\PSoC6\pdl\drivers\peripheral\smif/cy_smif_memslot.c **** * \param context
 278:Generated_Source\PSoC6\pdl\drivers\peripheral\smif/cy_smif_memslot.c **** * The internal SMIF context data. \ref cy_stc_smif_context_t
 279:Generated_Source\PSoC6\pdl\drivers\peripheral\smif/cy_smif_memslot.c **** *
 280:Generated_Source\PSoC6\pdl\drivers\peripheral\smif/cy_smif_memslot.c **** * \param memDevice
 281:Generated_Source\PSoC6\pdl\drivers\peripheral\smif/cy_smif_memslot.c **** * The device to which the command is sent.
 282:Generated_Source\PSoC6\pdl\drivers\peripheral\smif/cy_smif_memslot.c **** *
 283:Generated_Source\PSoC6\pdl\drivers\peripheral\smif/cy_smif_memslot.c **** * \return A status of the command transmission.
 284:Generated_Source\PSoC6\pdl\drivers\peripheral\smif/cy_smif_memslot.c **** *       - \ref CY_SMIF_SUCCESS
 285:Generated_Source\PSoC6\pdl\drivers\peripheral\smif/cy_smif_memslot.c **** *       - \ref CY_SMIF_EXCEED_TIMEOUT
 286:Generated_Source\PSoC6\pdl\drivers\peripheral\smif/cy_smif_memslot.c **** *
ARM GAS  C:\Users\ikomb\AppData\Local\Temp\cc5YtlHT.s 			page 13


 287:Generated_Source\PSoC6\pdl\drivers\peripheral\smif/cy_smif_memslot.c **** *******************************************************************************/
 288:Generated_Source\PSoC6\pdl\drivers\peripheral\smif/cy_smif_memslot.c **** cy_en_smif_status_t Cy_SMIF_Memslot_CmdWriteEnable(SMIF_Type *base,
 289:Generated_Source\PSoC6\pdl\drivers\peripheral\smif/cy_smif_memslot.c ****                                         cy_stc_smif_mem_config_t const *memDevice,
 290:Generated_Source\PSoC6\pdl\drivers\peripheral\smif/cy_smif_memslot.c ****                                         cy_stc_smif_context_t const *context)
 291:Generated_Source\PSoC6\pdl\drivers\peripheral\smif/cy_smif_memslot.c **** {
 376              		.loc 1 291 0
 377              		.cfi_startproc
 378              		@ args = 0, pretend = 0, frame = 0
 379              		@ frame_needed = 0, uses_anonymous_args = 0
 380              	.LVL14:
 381 0000 F0B5     		push	{r4, r5, r6, r7, lr}
 382              		.cfi_def_cfa_offset 20
 383              		.cfi_offset 4, -20
 384              		.cfi_offset 5, -16
 385              		.cfi_offset 6, -12
 386              		.cfi_offset 7, -8
 387              		.cfi_offset 14, -4
 388 0002 87B0     		sub	sp, sp, #28
 389              		.cfi_def_cfa_offset 48
 390 0004 0600     		movs	r6, r0
 391 0006 0D00     		movs	r5, r1
 392 0008 1700     		movs	r7, r2
 292:Generated_Source\PSoC6\pdl\drivers\peripheral\smif/cy_smif_memslot.c ****     /* The memory Write Enable */
 293:Generated_Source\PSoC6\pdl\drivers\peripheral\smif/cy_smif_memslot.c ****     cy_stc_smif_mem_cmd_t* writeEn = memDevice->deviceCfg->writeEnCmd;
 393              		.loc 1 293 0
 394 000a 8B69     		ldr	r3, [r1, #24]
 395 000c DC68     		ldr	r4, [r3, #12]
 396              	.LVL15:
 294:Generated_Source\PSoC6\pdl\drivers\peripheral\smif/cy_smif_memslot.c ****     
 295:Generated_Source\PSoC6\pdl\drivers\peripheral\smif/cy_smif_memslot.c ****     CY_ASSERT_L1(NULL != writeEn);  
 397              		.loc 1 295 0
 398 000e 002C     		cmp	r4, #0
 399 0010 04D1     		bne	.L19
 400              		.loc 1 295 0 is_stmt 0 discriminator 1
 401 0012 2821     		movs	r1, #40
 402              	.LVL16:
 403 0014 FF31     		adds	r1, r1, #255
 404 0016 0948     		ldr	r0, .L20
 405              	.LVL17:
 406 0018 FFF7FEFF 		bl	Cy_SysLib_AssertFailed
 407              	.LVL18:
 408              	.L19:
 296:Generated_Source\PSoC6\pdl\drivers\peripheral\smif/cy_smif_memslot.c **** 
 297:Generated_Source\PSoC6\pdl\drivers\peripheral\smif/cy_smif_memslot.c ****     return Cy_SMIF_TransmitCommand( base, (uint8_t) writeEn->command,
 409              		.loc 1 297 0 is_stmt 1
 410 001c 2279     		ldrb	r2, [r4, #4]
 411 001e 2178     		ldrb	r1, [r4]
 412 0020 0497     		str	r7, [sp, #16]
 413 0022 0123     		movs	r3, #1
 414 0024 0393     		str	r3, [sp, #12]
 415 0026 2B78     		ldrb	r3, [r5]
 416 0028 0293     		str	r3, [sp, #8]
 417 002a 0023     		movs	r3, #0
 418 002c 0193     		str	r3, [sp, #4]
 419 002e 0093     		str	r3, [sp]
 420 0030 3000     		movs	r0, r6
 421 0032 FFF7FEFF 		bl	Cy_SMIF_TransmitCommand
ARM GAS  C:\Users\ikomb\AppData\Local\Temp\cc5YtlHT.s 			page 14


 422              	.LVL19:
 298:Generated_Source\PSoC6\pdl\drivers\peripheral\smif/cy_smif_memslot.c ****                                     writeEn->cmdWidth,
 299:Generated_Source\PSoC6\pdl\drivers\peripheral\smif/cy_smif_memslot.c ****                                     CY_SMIF_CMD_WITHOUT_PARAM,
 300:Generated_Source\PSoC6\pdl\drivers\peripheral\smif/cy_smif_memslot.c ****                                     CY_SMIF_CMD_WITHOUT_PARAM,
 301:Generated_Source\PSoC6\pdl\drivers\peripheral\smif/cy_smif_memslot.c ****                                     (cy_en_smif_txfr_width_t)CY_SMIF_CMD_WITHOUT_PARAM,
 302:Generated_Source\PSoC6\pdl\drivers\peripheral\smif/cy_smif_memslot.c ****                                     memDevice->slaveSelect,
 303:Generated_Source\PSoC6\pdl\drivers\peripheral\smif/cy_smif_memslot.c ****                                     CY_SMIF_TX_LAST_BYTE,
 304:Generated_Source\PSoC6\pdl\drivers\peripheral\smif/cy_smif_memslot.c ****                                     context);
 305:Generated_Source\PSoC6\pdl\drivers\peripheral\smif/cy_smif_memslot.c **** }
 423              		.loc 1 305 0
 424 0036 07B0     		add	sp, sp, #28
 425              		@ sp needed
 426              	.LVL20:
 427              	.LVL21:
 428              	.LVL22:
 429              	.LVL23:
 430 0038 F0BD     		pop	{r4, r5, r6, r7, pc}
 431              	.L21:
 432 003a C046     		.align	2
 433              	.L20:
 434 003c 00000000 		.word	.LC0
 435              		.cfi_endproc
 436              	.LFE92:
 437              		.size	Cy_SMIF_Memslot_CmdWriteEnable, .-Cy_SMIF_Memslot_CmdWriteEnable
 438              		.section	.text.Cy_SMIF_Memslot_CmdWriteDisable,"ax",%progbits
 439              		.align	2
 440              		.global	Cy_SMIF_Memslot_CmdWriteDisable
 441              		.code	16
 442              		.thumb_func
 443              		.type	Cy_SMIF_Memslot_CmdWriteDisable, %function
 444              	Cy_SMIF_Memslot_CmdWriteDisable:
 445              	.LFB93:
 306:Generated_Source\PSoC6\pdl\drivers\peripheral\smif/cy_smif_memslot.c **** 
 307:Generated_Source\PSoC6\pdl\drivers\peripheral\smif/cy_smif_memslot.c **** 
 308:Generated_Source\PSoC6\pdl\drivers\peripheral\smif/cy_smif_memslot.c **** /*******************************************************************************
 309:Generated_Source\PSoC6\pdl\drivers\peripheral\smif/cy_smif_memslot.c **** * Function Name: Cy_SMIF_Memslot_CmdWriteDisable
 310:Generated_Source\PSoC6\pdl\drivers\peripheral\smif/cy_smif_memslot.c **** ****************************************************************************//**
 311:Generated_Source\PSoC6\pdl\drivers\peripheral\smif/cy_smif_memslot.c **** *
 312:Generated_Source\PSoC6\pdl\drivers\peripheral\smif/cy_smif_memslot.c **** * This function sends a Write Disable command to the memory device.
 313:Generated_Source\PSoC6\pdl\drivers\peripheral\smif/cy_smif_memslot.c **** *
 314:Generated_Source\PSoC6\pdl\drivers\peripheral\smif/cy_smif_memslot.c **** * \note This function uses the low-level Cy_SMIF_TransmitCommand() API.
 315:Generated_Source\PSoC6\pdl\drivers\peripheral\smif/cy_smif_memslot.c **** * Cy_SMIF_TransmitCommand() API works in a blocking mode. In the dual quad mode
 316:Generated_Source\PSoC6\pdl\drivers\peripheral\smif/cy_smif_memslot.c **** * this API should be called for each memory.
 317:Generated_Source\PSoC6\pdl\drivers\peripheral\smif/cy_smif_memslot.c **** *
 318:Generated_Source\PSoC6\pdl\drivers\peripheral\smif/cy_smif_memslot.c **** * \param base
 319:Generated_Source\PSoC6\pdl\drivers\peripheral\smif/cy_smif_memslot.c **** * Holds the base address of the SMIF block registers.
 320:Generated_Source\PSoC6\pdl\drivers\peripheral\smif/cy_smif_memslot.c **** *
 321:Generated_Source\PSoC6\pdl\drivers\peripheral\smif/cy_smif_memslot.c **** * \param context
 322:Generated_Source\PSoC6\pdl\drivers\peripheral\smif/cy_smif_memslot.c **** * The internal SMIF context data. \ref cy_stc_smif_context_t
 323:Generated_Source\PSoC6\pdl\drivers\peripheral\smif/cy_smif_memslot.c **** *
 324:Generated_Source\PSoC6\pdl\drivers\peripheral\smif/cy_smif_memslot.c **** * \param memDevice
 325:Generated_Source\PSoC6\pdl\drivers\peripheral\smif/cy_smif_memslot.c **** * The device to which the command is sent.
 326:Generated_Source\PSoC6\pdl\drivers\peripheral\smif/cy_smif_memslot.c **** *
 327:Generated_Source\PSoC6\pdl\drivers\peripheral\smif/cy_smif_memslot.c **** * \return A status of the command transmission.
 328:Generated_Source\PSoC6\pdl\drivers\peripheral\smif/cy_smif_memslot.c **** *       - \ref CY_SMIF_SUCCESS
 329:Generated_Source\PSoC6\pdl\drivers\peripheral\smif/cy_smif_memslot.c **** *       - \ref CY_SMIF_EXCEED_TIMEOUT
 330:Generated_Source\PSoC6\pdl\drivers\peripheral\smif/cy_smif_memslot.c **** *
ARM GAS  C:\Users\ikomb\AppData\Local\Temp\cc5YtlHT.s 			page 15


 331:Generated_Source\PSoC6\pdl\drivers\peripheral\smif/cy_smif_memslot.c **** *******************************************************************************/
 332:Generated_Source\PSoC6\pdl\drivers\peripheral\smif/cy_smif_memslot.c **** cy_en_smif_status_t Cy_SMIF_Memslot_CmdWriteDisable(SMIF_Type *base,
 333:Generated_Source\PSoC6\pdl\drivers\peripheral\smif/cy_smif_memslot.c ****                                     cy_stc_smif_mem_config_t const *memDevice,
 334:Generated_Source\PSoC6\pdl\drivers\peripheral\smif/cy_smif_memslot.c ****                                     cy_stc_smif_context_t const *context)
 335:Generated_Source\PSoC6\pdl\drivers\peripheral\smif/cy_smif_memslot.c **** {
 446              		.loc 1 335 0
 447              		.cfi_startproc
 448              		@ args = 0, pretend = 0, frame = 0
 449              		@ frame_needed = 0, uses_anonymous_args = 0
 450              	.LVL24:
 451 0000 F0B5     		push	{r4, r5, r6, r7, lr}
 452              		.cfi_def_cfa_offset 20
 453              		.cfi_offset 4, -20
 454              		.cfi_offset 5, -16
 455              		.cfi_offset 6, -12
 456              		.cfi_offset 7, -8
 457              		.cfi_offset 14, -4
 458 0002 87B0     		sub	sp, sp, #28
 459              		.cfi_def_cfa_offset 48
 460 0004 0600     		movs	r6, r0
 461 0006 0D00     		movs	r5, r1
 462 0008 1700     		movs	r7, r2
 336:Generated_Source\PSoC6\pdl\drivers\peripheral\smif/cy_smif_memslot.c ****     cy_stc_smif_mem_cmd_t* writeDis = memDevice->deviceCfg->writeDisCmd;
 463              		.loc 1 336 0
 464 000a 8B69     		ldr	r3, [r1, #24]
 465 000c 1C69     		ldr	r4, [r3, #16]
 466              	.LVL25:
 337:Generated_Source\PSoC6\pdl\drivers\peripheral\smif/cy_smif_memslot.c **** 
 338:Generated_Source\PSoC6\pdl\drivers\peripheral\smif/cy_smif_memslot.c ****     CY_ASSERT_L1(NULL != writeDis);  
 467              		.loc 1 338 0
 468 000e 002C     		cmp	r4, #0
 469 0010 04D1     		bne	.L23
 470              		.loc 1 338 0 is_stmt 0 discriminator 1
 471 0012 A921     		movs	r1, #169
 472              	.LVL26:
 473 0014 4900     		lsls	r1, r1, #1
 474 0016 0948     		ldr	r0, .L24
 475              	.LVL27:
 476 0018 FFF7FEFF 		bl	Cy_SysLib_AssertFailed
 477              	.LVL28:
 478              	.L23:
 339:Generated_Source\PSoC6\pdl\drivers\peripheral\smif/cy_smif_memslot.c ****      
 340:Generated_Source\PSoC6\pdl\drivers\peripheral\smif/cy_smif_memslot.c ****     /* The memory write disable */
 341:Generated_Source\PSoC6\pdl\drivers\peripheral\smif/cy_smif_memslot.c ****     return Cy_SMIF_TransmitCommand( base, (uint8_t)writeDis->command,
 479              		.loc 1 341 0 is_stmt 1
 480 001c 2279     		ldrb	r2, [r4, #4]
 481 001e 2178     		ldrb	r1, [r4]
 482 0020 0497     		str	r7, [sp, #16]
 483 0022 0123     		movs	r3, #1
 484 0024 0393     		str	r3, [sp, #12]
 485 0026 2B78     		ldrb	r3, [r5]
 486 0028 0293     		str	r3, [sp, #8]
 487 002a 0023     		movs	r3, #0
 488 002c 0193     		str	r3, [sp, #4]
 489 002e 0093     		str	r3, [sp]
 490 0030 3000     		movs	r0, r6
 491 0032 FFF7FEFF 		bl	Cy_SMIF_TransmitCommand
ARM GAS  C:\Users\ikomb\AppData\Local\Temp\cc5YtlHT.s 			page 16


 492              	.LVL29:
 342:Generated_Source\PSoC6\pdl\drivers\peripheral\smif/cy_smif_memslot.c ****                                 writeDis->cmdWidth,
 343:Generated_Source\PSoC6\pdl\drivers\peripheral\smif/cy_smif_memslot.c ****                                 CY_SMIF_CMD_WITHOUT_PARAM,
 344:Generated_Source\PSoC6\pdl\drivers\peripheral\smif/cy_smif_memslot.c ****                                 CY_SMIF_CMD_WITHOUT_PARAM,
 345:Generated_Source\PSoC6\pdl\drivers\peripheral\smif/cy_smif_memslot.c ****                                 (cy_en_smif_txfr_width_t) CY_SMIF_CMD_WITHOUT_PARAM,
 346:Generated_Source\PSoC6\pdl\drivers\peripheral\smif/cy_smif_memslot.c ****                                 memDevice->slaveSelect,
 347:Generated_Source\PSoC6\pdl\drivers\peripheral\smif/cy_smif_memslot.c ****                                 CY_SMIF_TX_LAST_BYTE,
 348:Generated_Source\PSoC6\pdl\drivers\peripheral\smif/cy_smif_memslot.c ****                                 context);
 349:Generated_Source\PSoC6\pdl\drivers\peripheral\smif/cy_smif_memslot.c **** }
 493              		.loc 1 349 0
 494 0036 07B0     		add	sp, sp, #28
 495              		@ sp needed
 496              	.LVL30:
 497              	.LVL31:
 498              	.LVL32:
 499              	.LVL33:
 500 0038 F0BD     		pop	{r4, r5, r6, r7, pc}
 501              	.L25:
 502 003a C046     		.align	2
 503              	.L24:
 504 003c 00000000 		.word	.LC0
 505              		.cfi_endproc
 506              	.LFE93:
 507              		.size	Cy_SMIF_Memslot_CmdWriteDisable, .-Cy_SMIF_Memslot_CmdWriteDisable
 508              		.section	.text.Cy_SMIF_Memslot_CmdReadSts,"ax",%progbits
 509              		.align	2
 510              		.global	Cy_SMIF_Memslot_CmdReadSts
 511              		.code	16
 512              		.thumb_func
 513              		.type	Cy_SMIF_Memslot_CmdReadSts, %function
 514              	Cy_SMIF_Memslot_CmdReadSts:
 515              	.LFB96:
 350:Generated_Source\PSoC6\pdl\drivers\peripheral\smif/cy_smif_memslot.c **** 
 351:Generated_Source\PSoC6\pdl\drivers\peripheral\smif/cy_smif_memslot.c **** 
 352:Generated_Source\PSoC6\pdl\drivers\peripheral\smif/cy_smif_memslot.c **** /*******************************************************************************
 353:Generated_Source\PSoC6\pdl\drivers\peripheral\smif/cy_smif_memslot.c **** * Function Name: Cy_SMIF_Memslot_IsBusy
 354:Generated_Source\PSoC6\pdl\drivers\peripheral\smif/cy_smif_memslot.c **** ****************************************************************************//**
 355:Generated_Source\PSoC6\pdl\drivers\peripheral\smif/cy_smif_memslot.c **** *
 356:Generated_Source\PSoC6\pdl\drivers\peripheral\smif/cy_smif_memslot.c **** * This function checks if the status of the memory device is busy.
 357:Generated_Source\PSoC6\pdl\drivers\peripheral\smif/cy_smif_memslot.c **** * This is done by reading the status register and the corresponding bit
 358:Generated_Source\PSoC6\pdl\drivers\peripheral\smif/cy_smif_memslot.c **** * (stsRegBusyMask). This function is a blocking function until the status
 359:Generated_Source\PSoC6\pdl\drivers\peripheral\smif/cy_smif_memslot.c **** * register from the memory is read.
 360:Generated_Source\PSoC6\pdl\drivers\peripheral\smif/cy_smif_memslot.c **** *
 361:Generated_Source\PSoC6\pdl\drivers\peripheral\smif/cy_smif_memslot.c **** * \note In the dual quad mode, this API is called for each memory.
 362:Generated_Source\PSoC6\pdl\drivers\peripheral\smif/cy_smif_memslot.c **** *
 363:Generated_Source\PSoC6\pdl\drivers\peripheral\smif/cy_smif_memslot.c **** * \param base
 364:Generated_Source\PSoC6\pdl\drivers\peripheral\smif/cy_smif_memslot.c **** * Holds the base address of the SMIF block registers.
 365:Generated_Source\PSoC6\pdl\drivers\peripheral\smif/cy_smif_memslot.c **** *
 366:Generated_Source\PSoC6\pdl\drivers\peripheral\smif/cy_smif_memslot.c **** * \param context
 367:Generated_Source\PSoC6\pdl\drivers\peripheral\smif/cy_smif_memslot.c **** * The internal SMIF context data.
 368:Generated_Source\PSoC6\pdl\drivers\peripheral\smif/cy_smif_memslot.c **** *
 369:Generated_Source\PSoC6\pdl\drivers\peripheral\smif/cy_smif_memslot.c **** * \param memDevice
 370:Generated_Source\PSoC6\pdl\drivers\peripheral\smif/cy_smif_memslot.c **** *  The device to which the command is sent.
 371:Generated_Source\PSoC6\pdl\drivers\peripheral\smif/cy_smif_memslot.c **** *
 372:Generated_Source\PSoC6\pdl\drivers\peripheral\smif/cy_smif_memslot.c **** * \return A status of the memory device.
 373:Generated_Source\PSoC6\pdl\drivers\peripheral\smif/cy_smif_memslot.c **** *       - True - The device is busy or a timeout occurs.
 374:Generated_Source\PSoC6\pdl\drivers\peripheral\smif/cy_smif_memslot.c **** *       - False - The device is not busy.
ARM GAS  C:\Users\ikomb\AppData\Local\Temp\cc5YtlHT.s 			page 17


 375:Generated_Source\PSoC6\pdl\drivers\peripheral\smif/cy_smif_memslot.c **** *
 376:Generated_Source\PSoC6\pdl\drivers\peripheral\smif/cy_smif_memslot.c **** *******************************************************************************/
 377:Generated_Source\PSoC6\pdl\drivers\peripheral\smif/cy_smif_memslot.c **** bool Cy_SMIF_Memslot_IsBusy(SMIF_Type *base, cy_stc_smif_mem_config_t *memDevice,
 378:Generated_Source\PSoC6\pdl\drivers\peripheral\smif/cy_smif_memslot.c ****                             cy_stc_smif_context_t const *context)
 379:Generated_Source\PSoC6\pdl\drivers\peripheral\smif/cy_smif_memslot.c **** {
 380:Generated_Source\PSoC6\pdl\drivers\peripheral\smif/cy_smif_memslot.c ****     uint8_t  status = 1U;
 381:Generated_Source\PSoC6\pdl\drivers\peripheral\smif/cy_smif_memslot.c ****     cy_en_smif_status_t readStsResult;
 382:Generated_Source\PSoC6\pdl\drivers\peripheral\smif/cy_smif_memslot.c ****     cy_stc_smif_mem_device_cfg_t* device =  memDevice->deviceCfg;
 383:Generated_Source\PSoC6\pdl\drivers\peripheral\smif/cy_smif_memslot.c **** 
 384:Generated_Source\PSoC6\pdl\drivers\peripheral\smif/cy_smif_memslot.c ****     CY_ASSERT_L1(NULL != device->readStsRegWipCmd);  
 385:Generated_Source\PSoC6\pdl\drivers\peripheral\smif/cy_smif_memslot.c ****     
 386:Generated_Source\PSoC6\pdl\drivers\peripheral\smif/cy_smif_memslot.c ****     readStsResult = Cy_SMIF_Memslot_CmdReadSts(base, memDevice, &status,
 387:Generated_Source\PSoC6\pdl\drivers\peripheral\smif/cy_smif_memslot.c ****                          (uint8_t)device->readStsRegWipCmd->command,
 388:Generated_Source\PSoC6\pdl\drivers\peripheral\smif/cy_smif_memslot.c ****                          context);
 389:Generated_Source\PSoC6\pdl\drivers\peripheral\smif/cy_smif_memslot.c **** 
 390:Generated_Source\PSoC6\pdl\drivers\peripheral\smif/cy_smif_memslot.c ****     if (CY_SMIF_SUCCESS == readStsResult)
 391:Generated_Source\PSoC6\pdl\drivers\peripheral\smif/cy_smif_memslot.c ****     {
 392:Generated_Source\PSoC6\pdl\drivers\peripheral\smif/cy_smif_memslot.c ****         /* Masked not busy bits in returned status */
 393:Generated_Source\PSoC6\pdl\drivers\peripheral\smif/cy_smif_memslot.c ****         status &= (uint8_t)device->stsRegBusyMask;
 394:Generated_Source\PSoC6\pdl\drivers\peripheral\smif/cy_smif_memslot.c ****     }
 395:Generated_Source\PSoC6\pdl\drivers\peripheral\smif/cy_smif_memslot.c **** 
 396:Generated_Source\PSoC6\pdl\drivers\peripheral\smif/cy_smif_memslot.c ****     return (0U != status);
 397:Generated_Source\PSoC6\pdl\drivers\peripheral\smif/cy_smif_memslot.c **** }
 398:Generated_Source\PSoC6\pdl\drivers\peripheral\smif/cy_smif_memslot.c **** 
 399:Generated_Source\PSoC6\pdl\drivers\peripheral\smif/cy_smif_memslot.c **** 
 400:Generated_Source\PSoC6\pdl\drivers\peripheral\smif/cy_smif_memslot.c **** /*******************************************************************************
 401:Generated_Source\PSoC6\pdl\drivers\peripheral\smif/cy_smif_memslot.c **** * Function Name: Cy_SMIF_Memslot_QuadEnable
 402:Generated_Source\PSoC6\pdl\drivers\peripheral\smif/cy_smif_memslot.c **** ****************************************************************************//**
 403:Generated_Source\PSoC6\pdl\drivers\peripheral\smif/cy_smif_memslot.c **** *
 404:Generated_Source\PSoC6\pdl\drivers\peripheral\smif/cy_smif_memslot.c **** * This function enables the memory device for the quad mode of operation.
 405:Generated_Source\PSoC6\pdl\drivers\peripheral\smif/cy_smif_memslot.c **** * This command must be executed before sending Quad SPI commands to the
 406:Generated_Source\PSoC6\pdl\drivers\peripheral\smif/cy_smif_memslot.c **** * memory device.
 407:Generated_Source\PSoC6\pdl\drivers\peripheral\smif/cy_smif_memslot.c **** *
 408:Generated_Source\PSoC6\pdl\drivers\peripheral\smif/cy_smif_memslot.c **** * \note In the dual quad mode, this API is called for each memory.
 409:Generated_Source\PSoC6\pdl\drivers\peripheral\smif/cy_smif_memslot.c **** *
 410:Generated_Source\PSoC6\pdl\drivers\peripheral\smif/cy_smif_memslot.c **** * \param base
 411:Generated_Source\PSoC6\pdl\drivers\peripheral\smif/cy_smif_memslot.c **** * Holds the base address of the SMIF block registers.
 412:Generated_Source\PSoC6\pdl\drivers\peripheral\smif/cy_smif_memslot.c **** *
 413:Generated_Source\PSoC6\pdl\drivers\peripheral\smif/cy_smif_memslot.c **** * \param context
 414:Generated_Source\PSoC6\pdl\drivers\peripheral\smif/cy_smif_memslot.c **** * The internal SMIF context data.
 415:Generated_Source\PSoC6\pdl\drivers\peripheral\smif/cy_smif_memslot.c **** *
 416:Generated_Source\PSoC6\pdl\drivers\peripheral\smif/cy_smif_memslot.c **** * \param memDevice
 417:Generated_Source\PSoC6\pdl\drivers\peripheral\smif/cy_smif_memslot.c **** * The device to which the command is sent.
 418:Generated_Source\PSoC6\pdl\drivers\peripheral\smif/cy_smif_memslot.c **** *
 419:Generated_Source\PSoC6\pdl\drivers\peripheral\smif/cy_smif_memslot.c **** * \return A status of the command.
 420:Generated_Source\PSoC6\pdl\drivers\peripheral\smif/cy_smif_memslot.c **** *   - \ref CY_SMIF_SUCCESS
 421:Generated_Source\PSoC6\pdl\drivers\peripheral\smif/cy_smif_memslot.c **** *   - \ref CY_SMIF_NO_QE_BIT
 422:Generated_Source\PSoC6\pdl\drivers\peripheral\smif/cy_smif_memslot.c **** *   - \ref CY_SMIF_CMD_FIFO_FULL
 423:Generated_Source\PSoC6\pdl\drivers\peripheral\smif/cy_smif_memslot.c **** *   - \ref CY_SMIF_BAD_PARAM
 424:Generated_Source\PSoC6\pdl\drivers\peripheral\smif/cy_smif_memslot.c **** *
 425:Generated_Source\PSoC6\pdl\drivers\peripheral\smif/cy_smif_memslot.c **** *******************************************************************************/
 426:Generated_Source\PSoC6\pdl\drivers\peripheral\smif/cy_smif_memslot.c **** cy_en_smif_status_t Cy_SMIF_Memslot_QuadEnable(SMIF_Type *base,
 427:Generated_Source\PSoC6\pdl\drivers\peripheral\smif/cy_smif_memslot.c ****                                     cy_stc_smif_mem_config_t *memDevice,
 428:Generated_Source\PSoC6\pdl\drivers\peripheral\smif/cy_smif_memslot.c ****                                     cy_stc_smif_context_t const *context)
 429:Generated_Source\PSoC6\pdl\drivers\peripheral\smif/cy_smif_memslot.c **** {
 430:Generated_Source\PSoC6\pdl\drivers\peripheral\smif/cy_smif_memslot.c ****     cy_en_smif_status_t result;
 431:Generated_Source\PSoC6\pdl\drivers\peripheral\smif/cy_smif_memslot.c ****     uint8_t statusReg[CY_SMIF_QE_BIT_STS_REG2_T1] = {0U};  
ARM GAS  C:\Users\ikomb\AppData\Local\Temp\cc5YtlHT.s 			page 18


 432:Generated_Source\PSoC6\pdl\drivers\peripheral\smif/cy_smif_memslot.c ****     cy_stc_smif_mem_device_cfg_t* device =  memDevice->deviceCfg;
 433:Generated_Source\PSoC6\pdl\drivers\peripheral\smif/cy_smif_memslot.c ****     
 434:Generated_Source\PSoC6\pdl\drivers\peripheral\smif/cy_smif_memslot.c ****     /* Check that command exists */
 435:Generated_Source\PSoC6\pdl\drivers\peripheral\smif/cy_smif_memslot.c ****     CY_ASSERT_L1(NULL != device->readStsRegQeCmd);
 436:Generated_Source\PSoC6\pdl\drivers\peripheral\smif/cy_smif_memslot.c ****     CY_ASSERT_L1(NULL != device->writeStsRegQeCmd);
 437:Generated_Source\PSoC6\pdl\drivers\peripheral\smif/cy_smif_memslot.c ****     CY_ASSERT_L1(NULL != device->readStsRegWipCmd);
 438:Generated_Source\PSoC6\pdl\drivers\peripheral\smif/cy_smif_memslot.c ****     
 439:Generated_Source\PSoC6\pdl\drivers\peripheral\smif/cy_smif_memslot.c ****     uint8_t readQeCmd  = (uint8_t)device->readStsRegQeCmd->command;
 440:Generated_Source\PSoC6\pdl\drivers\peripheral\smif/cy_smif_memslot.c ****     uint8_t writeQeCmd = (uint8_t)device->writeStsRegQeCmd->command;
 441:Generated_Source\PSoC6\pdl\drivers\peripheral\smif/cy_smif_memslot.c ****     uint8_t readWipCmd = (uint8_t)device->readStsRegWipCmd->command;
 442:Generated_Source\PSoC6\pdl\drivers\peripheral\smif/cy_smif_memslot.c **** 
 443:Generated_Source\PSoC6\pdl\drivers\peripheral\smif/cy_smif_memslot.c ****     result = Cy_SMIF_Memslot_CmdReadSts(base, memDevice, &statusReg[0U],
 444:Generated_Source\PSoC6\pdl\drivers\peripheral\smif/cy_smif_memslot.c ****                 readQeCmd, context);
 445:Generated_Source\PSoC6\pdl\drivers\peripheral\smif/cy_smif_memslot.c **** 
 446:Generated_Source\PSoC6\pdl\drivers\peripheral\smif/cy_smif_memslot.c ****     if (CY_SMIF_SUCCESS == result)
 447:Generated_Source\PSoC6\pdl\drivers\peripheral\smif/cy_smif_memslot.c ****     {
 448:Generated_Source\PSoC6\pdl\drivers\peripheral\smif/cy_smif_memslot.c ****         uint32_t qeMask = device->stsRegQuadEnableMask;
 449:Generated_Source\PSoC6\pdl\drivers\peripheral\smif/cy_smif_memslot.c **** 
 450:Generated_Source\PSoC6\pdl\drivers\peripheral\smif/cy_smif_memslot.c ****         switch(qeMask)
 451:Generated_Source\PSoC6\pdl\drivers\peripheral\smif/cy_smif_memslot.c ****         {
 452:Generated_Source\PSoC6\pdl\drivers\peripheral\smif/cy_smif_memslot.c ****             case CY_SMIF_SFDP_QE_BIT_6_OF_SR_1:
 453:Generated_Source\PSoC6\pdl\drivers\peripheral\smif/cy_smif_memslot.c ****                 statusReg[0U] |= (uint8_t)qeMask;
 454:Generated_Source\PSoC6\pdl\drivers\peripheral\smif/cy_smif_memslot.c ****                 result = Cy_SMIF_Memslot_CmdWriteSts(base, memDevice,
 455:Generated_Source\PSoC6\pdl\drivers\peripheral\smif/cy_smif_memslot.c ****                             &statusReg[0U], writeQeCmd, context);
 456:Generated_Source\PSoC6\pdl\drivers\peripheral\smif/cy_smif_memslot.c ****                 break;
 457:Generated_Source\PSoC6\pdl\drivers\peripheral\smif/cy_smif_memslot.c ****             case CY_SMIF_SFDP_QE_BIT_1_OF_SR_2:
 458:Generated_Source\PSoC6\pdl\drivers\peripheral\smif/cy_smif_memslot.c ****                 /* Read status register 1 with the assumption that WIP is always in
 459:Generated_Source\PSoC6\pdl\drivers\peripheral\smif/cy_smif_memslot.c ****                  * status register 1 */
 460:Generated_Source\PSoC6\pdl\drivers\peripheral\smif/cy_smif_memslot.c ****                 result = Cy_SMIF_Memslot_CmdReadSts(base, memDevice,
 461:Generated_Source\PSoC6\pdl\drivers\peripheral\smif/cy_smif_memslot.c ****                             &statusReg[0U], readWipCmd, context);
 462:Generated_Source\PSoC6\pdl\drivers\peripheral\smif/cy_smif_memslot.c ****                 if (CY_SMIF_SUCCESS == result)
 463:Generated_Source\PSoC6\pdl\drivers\peripheral\smif/cy_smif_memslot.c ****                 {
 464:Generated_Source\PSoC6\pdl\drivers\peripheral\smif/cy_smif_memslot.c ****                     result = Cy_SMIF_Memslot_CmdReadSts(base, memDevice,
 465:Generated_Source\PSoC6\pdl\drivers\peripheral\smif/cy_smif_memslot.c ****                                 &statusReg[1U], readQeCmd, context);
 466:Generated_Source\PSoC6\pdl\drivers\peripheral\smif/cy_smif_memslot.c ****                     if (CY_SMIF_SUCCESS == result)
 467:Generated_Source\PSoC6\pdl\drivers\peripheral\smif/cy_smif_memslot.c ****                     {
 468:Generated_Source\PSoC6\pdl\drivers\peripheral\smif/cy_smif_memslot.c ****                         statusReg[1U] |= (uint8_t)qeMask;
 469:Generated_Source\PSoC6\pdl\drivers\peripheral\smif/cy_smif_memslot.c ****                         result = Cy_SMIF_Memslot_CmdWriteSts(base, memDevice,
 470:Generated_Source\PSoC6\pdl\drivers\peripheral\smif/cy_smif_memslot.c ****                                     statusReg, writeQeCmd, context);
 471:Generated_Source\PSoC6\pdl\drivers\peripheral\smif/cy_smif_memslot.c ****                     }
 472:Generated_Source\PSoC6\pdl\drivers\peripheral\smif/cy_smif_memslot.c ****                 }
 473:Generated_Source\PSoC6\pdl\drivers\peripheral\smif/cy_smif_memslot.c ****                 break;
 474:Generated_Source\PSoC6\pdl\drivers\peripheral\smif/cy_smif_memslot.c ****             case CY_SMIF_SFDP_QE_BIT_7_OF_SR_2:
 475:Generated_Source\PSoC6\pdl\drivers\peripheral\smif/cy_smif_memslot.c ****                 result = Cy_SMIF_Memslot_CmdReadSts(base, memDevice,
 476:Generated_Source\PSoC6\pdl\drivers\peripheral\smif/cy_smif_memslot.c ****                             &statusReg[1U], readQeCmd, context);
 477:Generated_Source\PSoC6\pdl\drivers\peripheral\smif/cy_smif_memslot.c ****                 if (CY_SMIF_SUCCESS == result)
 478:Generated_Source\PSoC6\pdl\drivers\peripheral\smif/cy_smif_memslot.c ****                 {
 479:Generated_Source\PSoC6\pdl\drivers\peripheral\smif/cy_smif_memslot.c ****                     statusReg[1U] |= (uint8_t)qeMask;
 480:Generated_Source\PSoC6\pdl\drivers\peripheral\smif/cy_smif_memslot.c ****                     result = Cy_SMIF_Memslot_CmdWriteSts(base, memDevice,
 481:Generated_Source\PSoC6\pdl\drivers\peripheral\smif/cy_smif_memslot.c ****                                 &statusReg[1U], writeQeCmd, context);
 482:Generated_Source\PSoC6\pdl\drivers\peripheral\smif/cy_smif_memslot.c ****                 }
 483:Generated_Source\PSoC6\pdl\drivers\peripheral\smif/cy_smif_memslot.c ****                 break;
 484:Generated_Source\PSoC6\pdl\drivers\peripheral\smif/cy_smif_memslot.c ****             default:
 485:Generated_Source\PSoC6\pdl\drivers\peripheral\smif/cy_smif_memslot.c ****                 result = CY_SMIF_NO_QE_BIT;
 486:Generated_Source\PSoC6\pdl\drivers\peripheral\smif/cy_smif_memslot.c ****                 break;
 487:Generated_Source\PSoC6\pdl\drivers\peripheral\smif/cy_smif_memslot.c ****         }
 488:Generated_Source\PSoC6\pdl\drivers\peripheral\smif/cy_smif_memslot.c **** 
ARM GAS  C:\Users\ikomb\AppData\Local\Temp\cc5YtlHT.s 			page 19


 489:Generated_Source\PSoC6\pdl\drivers\peripheral\smif/cy_smif_memslot.c ****     }
 490:Generated_Source\PSoC6\pdl\drivers\peripheral\smif/cy_smif_memslot.c **** 
 491:Generated_Source\PSoC6\pdl\drivers\peripheral\smif/cy_smif_memslot.c ****     return(result);
 492:Generated_Source\PSoC6\pdl\drivers\peripheral\smif/cy_smif_memslot.c **** }
 493:Generated_Source\PSoC6\pdl\drivers\peripheral\smif/cy_smif_memslot.c **** 
 494:Generated_Source\PSoC6\pdl\drivers\peripheral\smif/cy_smif_memslot.c **** 
 495:Generated_Source\PSoC6\pdl\drivers\peripheral\smif/cy_smif_memslot.c **** /*******************************************************************************
 496:Generated_Source\PSoC6\pdl\drivers\peripheral\smif/cy_smif_memslot.c **** * Function Name: Cy_SMIF_Memslot_CmdReadSts
 497:Generated_Source\PSoC6\pdl\drivers\peripheral\smif/cy_smif_memslot.c **** ****************************************************************************//**
 498:Generated_Source\PSoC6\pdl\drivers\peripheral\smif/cy_smif_memslot.c **** *
 499:Generated_Source\PSoC6\pdl\drivers\peripheral\smif/cy_smif_memslot.c **** * This function reads the status register. This function is a blocking function,
 500:Generated_Source\PSoC6\pdl\drivers\peripheral\smif/cy_smif_memslot.c **** * it will block the execution flow until the status register is read.
 501:Generated_Source\PSoC6\pdl\drivers\peripheral\smif/cy_smif_memslot.c **** *
 502:Generated_Source\PSoC6\pdl\drivers\peripheral\smif/cy_smif_memslot.c **** * \note This function uses the low-level Cy_SMIF_TransmitCommand() API.
 503:Generated_Source\PSoC6\pdl\drivers\peripheral\smif/cy_smif_memslot.c **** * the Cy_SMIF_TransmitCommand() API works in a blocking mode. In the dual quad mode,
 504:Generated_Source\PSoC6\pdl\drivers\peripheral\smif/cy_smif_memslot.c **** * this API is called for each memory.
 505:Generated_Source\PSoC6\pdl\drivers\peripheral\smif/cy_smif_memslot.c **** *
 506:Generated_Source\PSoC6\pdl\drivers\peripheral\smif/cy_smif_memslot.c **** * \param base
 507:Generated_Source\PSoC6\pdl\drivers\peripheral\smif/cy_smif_memslot.c **** * Holds the base address of the SMIF block registers.
 508:Generated_Source\PSoC6\pdl\drivers\peripheral\smif/cy_smif_memslot.c **** *
 509:Generated_Source\PSoC6\pdl\drivers\peripheral\smif/cy_smif_memslot.c **** * \param context
 510:Generated_Source\PSoC6\pdl\drivers\peripheral\smif/cy_smif_memslot.c **** * The internal SMIF context data.
 511:Generated_Source\PSoC6\pdl\drivers\peripheral\smif/cy_smif_memslot.c **** *
 512:Generated_Source\PSoC6\pdl\drivers\peripheral\smif/cy_smif_memslot.c **** * \param memDevice
 513:Generated_Source\PSoC6\pdl\drivers\peripheral\smif/cy_smif_memslot.c **** * The device to which the command is sent.
 514:Generated_Source\PSoC6\pdl\drivers\peripheral\smif/cy_smif_memslot.c **** *
 515:Generated_Source\PSoC6\pdl\drivers\peripheral\smif/cy_smif_memslot.c **** * \param status
 516:Generated_Source\PSoC6\pdl\drivers\peripheral\smif/cy_smif_memslot.c **** * The status register value returned by the external memory.
 517:Generated_Source\PSoC6\pdl\drivers\peripheral\smif/cy_smif_memslot.c **** *
 518:Generated_Source\PSoC6\pdl\drivers\peripheral\smif/cy_smif_memslot.c **** * \param command
 519:Generated_Source\PSoC6\pdl\drivers\peripheral\smif/cy_smif_memslot.c **** * The command required to read the status/configuration register.
 520:Generated_Source\PSoC6\pdl\drivers\peripheral\smif/cy_smif_memslot.c **** *
 521:Generated_Source\PSoC6\pdl\drivers\peripheral\smif/cy_smif_memslot.c **** * \return A status of the command reception.
 522:Generated_Source\PSoC6\pdl\drivers\peripheral\smif/cy_smif_memslot.c **** *       - \ref CY_SMIF_SUCCESS
 523:Generated_Source\PSoC6\pdl\drivers\peripheral\smif/cy_smif_memslot.c **** *       - \ref CY_SMIF_CMD_FIFO_FULL
 524:Generated_Source\PSoC6\pdl\drivers\peripheral\smif/cy_smif_memslot.c **** *       - \ref CY_SMIF_EXCEED_TIMEOUT
 525:Generated_Source\PSoC6\pdl\drivers\peripheral\smif/cy_smif_memslot.c **** *
 526:Generated_Source\PSoC6\pdl\drivers\peripheral\smif/cy_smif_memslot.c **** *******************************************************************************/
 527:Generated_Source\PSoC6\pdl\drivers\peripheral\smif/cy_smif_memslot.c **** cy_en_smif_status_t Cy_SMIF_Memslot_CmdReadSts(SMIF_Type *base,
 528:Generated_Source\PSoC6\pdl\drivers\peripheral\smif/cy_smif_memslot.c ****                                     cy_stc_smif_mem_config_t const *memDevice,
 529:Generated_Source\PSoC6\pdl\drivers\peripheral\smif/cy_smif_memslot.c ****                                     uint8_t *status,
 530:Generated_Source\PSoC6\pdl\drivers\peripheral\smif/cy_smif_memslot.c ****                                     uint8_t command,
 531:Generated_Source\PSoC6\pdl\drivers\peripheral\smif/cy_smif_memslot.c ****                                     cy_stc_smif_context_t const *context)
 532:Generated_Source\PSoC6\pdl\drivers\peripheral\smif/cy_smif_memslot.c **** {
 516              		.loc 1 532 0
 517              		.cfi_startproc
 518              		@ args = 4, pretend = 0, frame = 0
 519              		@ frame_needed = 0, uses_anonymous_args = 0
 520              	.LVL34:
 521 0000 30B5     		push	{r4, r5, lr}
 522              		.cfi_def_cfa_offset 12
 523              		.cfi_offset 4, -12
 524              		.cfi_offset 5, -8
 525              		.cfi_offset 14, -4
 526 0002 87B0     		sub	sp, sp, #28
 527              		.cfi_def_cfa_offset 40
 528 0004 0400     		movs	r4, r0
ARM GAS  C:\Users\ikomb\AppData\Local\Temp\cc5YtlHT.s 			page 20


 529 0006 1500     		movs	r5, r2
 530 0008 1800     		movs	r0, r3
 531              	.LVL35:
 533:Generated_Source\PSoC6\pdl\drivers\peripheral\smif/cy_smif_memslot.c ****     cy_en_smif_status_t result;
 534:Generated_Source\PSoC6\pdl\drivers\peripheral\smif/cy_smif_memslot.c **** 
 535:Generated_Source\PSoC6\pdl\drivers\peripheral\smif/cy_smif_memslot.c ****     /* Read the memory status register */
 536:Generated_Source\PSoC6\pdl\drivers\peripheral\smif/cy_smif_memslot.c ****     result = Cy_SMIF_TransmitCommand( base, command, CY_SMIF_WIDTH_SINGLE,
 532              		.loc 1 536 0
 533 000a 0A78     		ldrb	r2, [r1]
 534              	.LVL36:
 535 000c 0A9B     		ldr	r3, [sp, #40]
 536              	.LVL37:
 537 000e 0493     		str	r3, [sp, #16]
 538 0010 0023     		movs	r3, #0
 539 0012 0393     		str	r3, [sp, #12]
 540 0014 0292     		str	r2, [sp, #8]
 541 0016 0193     		str	r3, [sp, #4]
 542 0018 0093     		str	r3, [sp]
 543 001a 0022     		movs	r2, #0
 544 001c 0100     		movs	r1, r0
 545              	.LVL38:
 546 001e 2000     		movs	r0, r4
 547 0020 FFF7FEFF 		bl	Cy_SMIF_TransmitCommand
 548              	.LVL39:
 537:Generated_Source\PSoC6\pdl\drivers\peripheral\smif/cy_smif_memslot.c ****                 CY_SMIF_CMD_WITHOUT_PARAM, CY_SMIF_CMD_WITHOUT_PARAM,
 538:Generated_Source\PSoC6\pdl\drivers\peripheral\smif/cy_smif_memslot.c ****                 (cy_en_smif_txfr_width_t) CY_SMIF_CMD_WITHOUT_PARAM,
 539:Generated_Source\PSoC6\pdl\drivers\peripheral\smif/cy_smif_memslot.c ****                 memDevice->slaveSelect, CY_SMIF_TX_NOT_LAST_BYTE, context);
 540:Generated_Source\PSoC6\pdl\drivers\peripheral\smif/cy_smif_memslot.c **** 
 541:Generated_Source\PSoC6\pdl\drivers\peripheral\smif/cy_smif_memslot.c ****     if (CY_SMIF_SUCCESS == result)
 549              		.loc 1 541 0
 550 0024 0028     		cmp	r0, #0
 551 0026 07D1     		bne	.L27
 542:Generated_Source\PSoC6\pdl\drivers\peripheral\smif/cy_smif_memslot.c ****     {
 543:Generated_Source\PSoC6\pdl\drivers\peripheral\smif/cy_smif_memslot.c ****         result = Cy_SMIF_ReceiveDataBlocking( base, status,
 552              		.loc 1 543 0
 553 0028 0A9B     		ldr	r3, [sp, #40]
 554 002a 0093     		str	r3, [sp]
 555 002c 0023     		movs	r3, #0
 556 002e 0122     		movs	r2, #1
 557 0030 2900     		movs	r1, r5
 558 0032 2000     		movs	r0, r4
 559              	.LVL40:
 560 0034 FFF7FEFF 		bl	Cy_SMIF_ReceiveDataBlocking
 561              	.LVL41:
 562              	.L27:
 544:Generated_Source\PSoC6\pdl\drivers\peripheral\smif/cy_smif_memslot.c ****                     CY_SMIF_READ_ONE_BYTE, CY_SMIF_WIDTH_SINGLE, context);
 545:Generated_Source\PSoC6\pdl\drivers\peripheral\smif/cy_smif_memslot.c ****     }
 546:Generated_Source\PSoC6\pdl\drivers\peripheral\smif/cy_smif_memslot.c **** 
 547:Generated_Source\PSoC6\pdl\drivers\peripheral\smif/cy_smif_memslot.c ****     return(result);
 548:Generated_Source\PSoC6\pdl\drivers\peripheral\smif/cy_smif_memslot.c **** }
 563              		.loc 1 548 0
 564 0038 07B0     		add	sp, sp, #28
 565              		@ sp needed
 566              	.LVL42:
 567              	.LVL43:
 568 003a 30BD     		pop	{r4, r5, pc}
 569              		.cfi_endproc
ARM GAS  C:\Users\ikomb\AppData\Local\Temp\cc5YtlHT.s 			page 21


 570              	.LFE96:
 571              		.size	Cy_SMIF_Memslot_CmdReadSts, .-Cy_SMIF_Memslot_CmdReadSts
 572              		.section	.text.Cy_SMIF_Memslot_IsBusy,"ax",%progbits
 573              		.align	2
 574              		.global	Cy_SMIF_Memslot_IsBusy
 575              		.code	16
 576              		.thumb_func
 577              		.type	Cy_SMIF_Memslot_IsBusy, %function
 578              	Cy_SMIF_Memslot_IsBusy:
 579              	.LFB94:
 379:Generated_Source\PSoC6\pdl\drivers\peripheral\smif/cy_smif_memslot.c ****     uint8_t  status = 1U;
 580              		.loc 1 379 0
 581              		.cfi_startproc
 582              		@ args = 0, pretend = 0, frame = 8
 583              		@ frame_needed = 0, uses_anonymous_args = 0
 584              	.LVL44:
 585 0000 F0B5     		push	{r4, r5, r6, r7, lr}
 586              		.cfi_def_cfa_offset 20
 587              		.cfi_offset 4, -20
 588              		.cfi_offset 5, -16
 589              		.cfi_offset 6, -12
 590              		.cfi_offset 7, -8
 591              		.cfi_offset 14, -4
 592 0002 85B0     		sub	sp, sp, #20
 593              		.cfi_def_cfa_offset 40
 594 0004 0600     		movs	r6, r0
 595 0006 0D00     		movs	r5, r1
 596 0008 1700     		movs	r7, r2
 380:Generated_Source\PSoC6\pdl\drivers\peripheral\smif/cy_smif_memslot.c ****     cy_en_smif_status_t readStsResult;
 597              		.loc 1 380 0
 598 000a 0122     		movs	r2, #1
 599              	.LVL45:
 600 000c 0F23     		movs	r3, #15
 601 000e 6B44     		add	r3, r3, sp
 602 0010 1A70     		strb	r2, [r3]
 382:Generated_Source\PSoC6\pdl\drivers\peripheral\smif/cy_smif_memslot.c **** 
 603              		.loc 1 382 0
 604 0012 8C69     		ldr	r4, [r1, #24]
 605              	.LVL46:
 384:Generated_Source\PSoC6\pdl\drivers\peripheral\smif/cy_smif_memslot.c ****     
 606              		.loc 1 384 0
 607 0014 A36A     		ldr	r3, [r4, #40]
 608 0016 002B     		cmp	r3, #0
 609 0018 04D1     		bne	.L29
 384:Generated_Source\PSoC6\pdl\drivers\peripheral\smif/cy_smif_memslot.c ****     
 610              		.loc 1 384 0 is_stmt 0 discriminator 1
 611 001a C021     		movs	r1, #192
 612              	.LVL47:
 613 001c 4900     		lsls	r1, r1, #1
 614 001e 0E48     		ldr	r0, .L31
 615              	.LVL48:
 616 0020 FFF7FEFF 		bl	Cy_SysLib_AssertFailed
 617              	.LVL49:
 618              	.L29:
 386:Generated_Source\PSoC6\pdl\drivers\peripheral\smif/cy_smif_memslot.c ****                          (uint8_t)device->readStsRegWipCmd->command,
 619              		.loc 1 386 0 is_stmt 1
 620 0024 A36A     		ldr	r3, [r4, #40]
ARM GAS  C:\Users\ikomb\AppData\Local\Temp\cc5YtlHT.s 			page 22


 621 0026 1B78     		ldrb	r3, [r3]
 622 0028 0097     		str	r7, [sp]
 623 002a 0F22     		movs	r2, #15
 624 002c 6A44     		add	r2, r2, sp
 625 002e 2900     		movs	r1, r5
 626 0030 3000     		movs	r0, r6
 627 0032 FFF7FEFF 		bl	Cy_SMIF_Memslot_CmdReadSts
 628              	.LVL50:
 390:Generated_Source\PSoC6\pdl\drivers\peripheral\smif/cy_smif_memslot.c ****     {
 629              		.loc 1 390 0
 630 0036 0028     		cmp	r0, #0
 631 0038 05D1     		bne	.L30
 393:Generated_Source\PSoC6\pdl\drivers\peripheral\smif/cy_smif_memslot.c ****     }
 632              		.loc 1 393 0
 633 003a A16B     		ldr	r1, [r4, #56]
 634 003c 0F22     		movs	r2, #15
 635 003e 6A44     		add	r2, r2, sp
 636 0040 1378     		ldrb	r3, [r2]
 637 0042 0B40     		ands	r3, r1
 638 0044 1370     		strb	r3, [r2]
 639              	.L30:
 396:Generated_Source\PSoC6\pdl\drivers\peripheral\smif/cy_smif_memslot.c **** }
 640              		.loc 1 396 0
 641 0046 0F23     		movs	r3, #15
 642 0048 6B44     		add	r3, r3, sp
 643 004a 1878     		ldrb	r0, [r3]
 644              	.LVL51:
 645 004c 431E     		subs	r3, r0, #1
 646 004e 9841     		sbcs	r0, r0, r3
 647 0050 C0B2     		uxtb	r0, r0
 397:Generated_Source\PSoC6\pdl\drivers\peripheral\smif/cy_smif_memslot.c **** 
 648              		.loc 1 397 0
 649 0052 05B0     		add	sp, sp, #20
 650              		@ sp needed
 651              	.LVL52:
 652              	.LVL53:
 653              	.LVL54:
 654              	.LVL55:
 655 0054 F0BD     		pop	{r4, r5, r6, r7, pc}
 656              	.L32:
 657 0056 C046     		.align	2
 658              	.L31:
 659 0058 00000000 		.word	.LC0
 660              		.cfi_endproc
 661              	.LFE94:
 662              		.size	Cy_SMIF_Memslot_IsBusy, .-Cy_SMIF_Memslot_IsBusy
 663              		.section	.text.Cy_SMIF_Memslot_CmdWriteSts,"ax",%progbits
 664              		.align	2
 665              		.global	Cy_SMIF_Memslot_CmdWriteSts
 666              		.code	16
 667              		.thumb_func
 668              		.type	Cy_SMIF_Memslot_CmdWriteSts, %function
 669              	Cy_SMIF_Memslot_CmdWriteSts:
 670              	.LFB97:
 549:Generated_Source\PSoC6\pdl\drivers\peripheral\smif/cy_smif_memslot.c **** 
 550:Generated_Source\PSoC6\pdl\drivers\peripheral\smif/cy_smif_memslot.c **** 
 551:Generated_Source\PSoC6\pdl\drivers\peripheral\smif/cy_smif_memslot.c **** /*******************************************************************************
ARM GAS  C:\Users\ikomb\AppData\Local\Temp\cc5YtlHT.s 			page 23


 552:Generated_Source\PSoC6\pdl\drivers\peripheral\smif/cy_smif_memslot.c **** * Function Name: Cy_SMIF_Memslot_CmdWriteSts
 553:Generated_Source\PSoC6\pdl\drivers\peripheral\smif/cy_smif_memslot.c **** ****************************************************************************//**
 554:Generated_Source\PSoC6\pdl\drivers\peripheral\smif/cy_smif_memslot.c **** *
 555:Generated_Source\PSoC6\pdl\drivers\peripheral\smif/cy_smif_memslot.c **** * This function writes the status register. This is a blocking function, it will
 556:Generated_Source\PSoC6\pdl\drivers\peripheral\smif/cy_smif_memslot.c **** * block the execution flow until the command transmission is completed.
 557:Generated_Source\PSoC6\pdl\drivers\peripheral\smif/cy_smif_memslot.c **** *
 558:Generated_Source\PSoC6\pdl\drivers\peripheral\smif/cy_smif_memslot.c **** * \note This function uses the low-level Cy_SMIF_TransmitCommand() API.
 559:Generated_Source\PSoC6\pdl\drivers\peripheral\smif/cy_smif_memslot.c **** * The Cy_SMIF_TransmitCommand() API works in a blocking mode. In the dual quad mode,
 560:Generated_Source\PSoC6\pdl\drivers\peripheral\smif/cy_smif_memslot.c **** * this API is called for each memory.
 561:Generated_Source\PSoC6\pdl\drivers\peripheral\smif/cy_smif_memslot.c **** *
 562:Generated_Source\PSoC6\pdl\drivers\peripheral\smif/cy_smif_memslot.c **** * \param base
 563:Generated_Source\PSoC6\pdl\drivers\peripheral\smif/cy_smif_memslot.c **** * Holds the base address of the SMIF block registers.
 564:Generated_Source\PSoC6\pdl\drivers\peripheral\smif/cy_smif_memslot.c **** *
 565:Generated_Source\PSoC6\pdl\drivers\peripheral\smif/cy_smif_memslot.c **** * \param context
 566:Generated_Source\PSoC6\pdl\drivers\peripheral\smif/cy_smif_memslot.c **** * The internal SMIF context data. \ref cy_stc_smif_context_t
 567:Generated_Source\PSoC6\pdl\drivers\peripheral\smif/cy_smif_memslot.c **** *
 568:Generated_Source\PSoC6\pdl\drivers\peripheral\smif/cy_smif_memslot.c **** * \param memDevice
 569:Generated_Source\PSoC6\pdl\drivers\peripheral\smif/cy_smif_memslot.c **** * The device to which the command is sent.
 570:Generated_Source\PSoC6\pdl\drivers\peripheral\smif/cy_smif_memslot.c **** *
 571:Generated_Source\PSoC6\pdl\drivers\peripheral\smif/cy_smif_memslot.c **** * \param status
 572:Generated_Source\PSoC6\pdl\drivers\peripheral\smif/cy_smif_memslot.c **** * The status to write into the status register.
 573:Generated_Source\PSoC6\pdl\drivers\peripheral\smif/cy_smif_memslot.c **** *
 574:Generated_Source\PSoC6\pdl\drivers\peripheral\smif/cy_smif_memslot.c **** * \param command
 575:Generated_Source\PSoC6\pdl\drivers\peripheral\smif/cy_smif_memslot.c **** * The command to write into the status/configuration register.              
 576:Generated_Source\PSoC6\pdl\drivers\peripheral\smif/cy_smif_memslot.c **** *
 577:Generated_Source\PSoC6\pdl\drivers\peripheral\smif/cy_smif_memslot.c **** * \return A status of the command transmission.
 578:Generated_Source\PSoC6\pdl\drivers\peripheral\smif/cy_smif_memslot.c **** *       - \ref CY_SMIF_SUCCESS
 579:Generated_Source\PSoC6\pdl\drivers\peripheral\smif/cy_smif_memslot.c **** *       - \ref CY_SMIF_EXCEED_TIMEOUT
 580:Generated_Source\PSoC6\pdl\drivers\peripheral\smif/cy_smif_memslot.c **** *
 581:Generated_Source\PSoC6\pdl\drivers\peripheral\smif/cy_smif_memslot.c **** *******************************************************************************/
 582:Generated_Source\PSoC6\pdl\drivers\peripheral\smif/cy_smif_memslot.c **** cy_en_smif_status_t Cy_SMIF_Memslot_CmdWriteSts(SMIF_Type *base,
 583:Generated_Source\PSoC6\pdl\drivers\peripheral\smif/cy_smif_memslot.c ****                                     cy_stc_smif_mem_config_t const *memDevice,
 584:Generated_Source\PSoC6\pdl\drivers\peripheral\smif/cy_smif_memslot.c ****                                     void const *status,
 585:Generated_Source\PSoC6\pdl\drivers\peripheral\smif/cy_smif_memslot.c ****                                     uint8_t command,
 586:Generated_Source\PSoC6\pdl\drivers\peripheral\smif/cy_smif_memslot.c ****                                     cy_stc_smif_context_t const *context)
 587:Generated_Source\PSoC6\pdl\drivers\peripheral\smif/cy_smif_memslot.c **** {
 671              		.loc 1 587 0
 672              		.cfi_startproc
 673              		@ args = 4, pretend = 0, frame = 0
 674              		@ frame_needed = 0, uses_anonymous_args = 0
 675              	.LVL56:
 676 0000 F0B5     		push	{r4, r5, r6, r7, lr}
 677              		.cfi_def_cfa_offset 20
 678              		.cfi_offset 4, -20
 679              		.cfi_offset 5, -16
 680              		.cfi_offset 6, -12
 681              		.cfi_offset 7, -8
 682              		.cfi_offset 14, -4
 683 0002 87B0     		sub	sp, sp, #28
 684              		.cfi_def_cfa_offset 48
 685 0004 0400     		movs	r4, r0
 686 0006 0F00     		movs	r7, r1
 687 0008 1600     		movs	r6, r2
 688 000a 1D00     		movs	r5, r3
 588:Generated_Source\PSoC6\pdl\drivers\peripheral\smif/cy_smif_memslot.c ****     cy_en_smif_status_t result;
 589:Generated_Source\PSoC6\pdl\drivers\peripheral\smif/cy_smif_memslot.c **** 
 590:Generated_Source\PSoC6\pdl\drivers\peripheral\smif/cy_smif_memslot.c ****     /* The Write Enable */
ARM GAS  C:\Users\ikomb\AppData\Local\Temp\cc5YtlHT.s 			page 24


 591:Generated_Source\PSoC6\pdl\drivers\peripheral\smif/cy_smif_memslot.c ****     result =  Cy_SMIF_Memslot_CmdWriteEnable(base, memDevice, context);
 689              		.loc 1 591 0
 690 000c 0C9A     		ldr	r2, [sp, #48]
 691              	.LVL57:
 692 000e FFF7FEFF 		bl	Cy_SMIF_Memslot_CmdWriteEnable
 693              	.LVL58:
 592:Generated_Source\PSoC6\pdl\drivers\peripheral\smif/cy_smif_memslot.c **** 
 593:Generated_Source\PSoC6\pdl\drivers\peripheral\smif/cy_smif_memslot.c ****     /* The Write Status */
 594:Generated_Source\PSoC6\pdl\drivers\peripheral\smif/cy_smif_memslot.c ****     if (CY_SMIF_SUCCESS == result)
 694              		.loc 1 594 0
 695 0012 0028     		cmp	r0, #0
 696 0014 15D1     		bne	.L34
 697              	.LBB12:
 595:Generated_Source\PSoC6\pdl\drivers\peripheral\smif/cy_smif_memslot.c ****     {
 596:Generated_Source\PSoC6\pdl\drivers\peripheral\smif/cy_smif_memslot.c ****         uint32_t size;
 597:Generated_Source\PSoC6\pdl\drivers\peripheral\smif/cy_smif_memslot.c ****         uint32_t qeMask = memDevice->deviceCfg->stsRegQuadEnableMask;
 698              		.loc 1 597 0
 699 0016 BB69     		ldr	r3, [r7, #24]
 700 0018 DB6B     		ldr	r3, [r3, #60]
 701              	.LVL59:
 598:Generated_Source\PSoC6\pdl\drivers\peripheral\smif/cy_smif_memslot.c **** 
 599:Generated_Source\PSoC6\pdl\drivers\peripheral\smif/cy_smif_memslot.c ****         size = ( CY_SMIF_SFDP_QE_BIT_1_OF_SR_2 == qeMask)? CY_SMIF_WRITE_TWO_BYTES:
 702              		.loc 1 599 0
 703 001a 022B     		cmp	r3, #2
 704 001c 01D1     		bne	.L36
 705 001e 0221     		movs	r1, #2
 706 0020 00E0     		b	.L35
 707              	.L36:
 708 0022 0121     		movs	r1, #1
 709              	.L35:
 710              	.LVL60:
 600:Generated_Source\PSoC6\pdl\drivers\peripheral\smif/cy_smif_memslot.c ****                                                         CY_SMIF_WRITE_ONE_BYTE;
 601:Generated_Source\PSoC6\pdl\drivers\peripheral\smif/cy_smif_memslot.c ****         result = Cy_SMIF_TransmitCommand( base, command, CY_SMIF_WIDTH_SINGLE,
 711              		.loc 1 601 0 discriminator 4
 712 0024 3B78     		ldrb	r3, [r7]
 713              	.LVL61:
 714 0026 0C9A     		ldr	r2, [sp, #48]
 715 0028 0492     		str	r2, [sp, #16]
 716              	.LVL62:
 717 002a 0122     		movs	r2, #1
 718 002c 0392     		str	r2, [sp, #12]
 719 002e 0293     		str	r3, [sp, #8]
 720 0030 0023     		movs	r3, #0
 721 0032 0193     		str	r3, [sp, #4]
 722 0034 0091     		str	r1, [sp]
 723 0036 3300     		movs	r3, r6
 724 0038 0022     		movs	r2, #0
 725 003a 2900     		movs	r1, r5
 726              	.LVL63:
 727 003c 2000     		movs	r0, r4
 728              	.LVL64:
 729 003e FFF7FEFF 		bl	Cy_SMIF_TransmitCommand
 730              	.LVL65:
 731              	.L34:
 732              	.LBE12:
 602:Generated_Source\PSoC6\pdl\drivers\peripheral\smif/cy_smif_memslot.c ****                     (uint8_t const *)status, size, CY_SMIF_WIDTH_SINGLE,
 603:Generated_Source\PSoC6\pdl\drivers\peripheral\smif/cy_smif_memslot.c ****                     memDevice->slaveSelect, CY_SMIF_TX_LAST_BYTE, context);
ARM GAS  C:\Users\ikomb\AppData\Local\Temp\cc5YtlHT.s 			page 25


 604:Generated_Source\PSoC6\pdl\drivers\peripheral\smif/cy_smif_memslot.c ****     }
 605:Generated_Source\PSoC6\pdl\drivers\peripheral\smif/cy_smif_memslot.c **** 
 606:Generated_Source\PSoC6\pdl\drivers\peripheral\smif/cy_smif_memslot.c ****     return(result);
 607:Generated_Source\PSoC6\pdl\drivers\peripheral\smif/cy_smif_memslot.c **** }
 733              		.loc 1 607 0
 734 0042 07B0     		add	sp, sp, #28
 735              		@ sp needed
 736              	.LVL66:
 737              	.LVL67:
 738              	.LVL68:
 739 0044 F0BD     		pop	{r4, r5, r6, r7, pc}
 740              		.cfi_endproc
 741              	.LFE97:
 742              		.size	Cy_SMIF_Memslot_CmdWriteSts, .-Cy_SMIF_Memslot_CmdWriteSts
 743 0046 C046     		.section	.text.Cy_SMIF_Memslot_QuadEnable,"ax",%progbits
 744              		.align	2
 745              		.global	Cy_SMIF_Memslot_QuadEnable
 746              		.code	16
 747              		.thumb_func
 748              		.type	Cy_SMIF_Memslot_QuadEnable, %function
 749              	Cy_SMIF_Memslot_QuadEnable:
 750              	.LFB95:
 429:Generated_Source\PSoC6\pdl\drivers\peripheral\smif/cy_smif_memslot.c ****     cy_en_smif_status_t result;
 751              		.loc 1 429 0
 752              		.cfi_startproc
 753              		@ args = 0, pretend = 0, frame = 16
 754              		@ frame_needed = 0, uses_anonymous_args = 0
 755              	.LVL69:
 756 0000 F0B5     		push	{r4, r5, r6, r7, lr}
 757              		.cfi_def_cfa_offset 20
 758              		.cfi_offset 4, -20
 759              		.cfi_offset 5, -16
 760              		.cfi_offset 6, -12
 761              		.cfi_offset 7, -8
 762              		.cfi_offset 14, -4
 763 0002 5746     		mov	r7, r10
 764 0004 4646     		mov	r6, r8
 765 0006 C0B4     		push	{r6, r7}
 766              		.cfi_def_cfa_offset 28
 767              		.cfi_offset 8, -28
 768              		.cfi_offset 10, -24
 769 0008 87B0     		sub	sp, sp, #28
 770              		.cfi_def_cfa_offset 56
 771 000a 0390     		str	r0, [sp, #12]
 772 000c 0D00     		movs	r5, r1
 773 000e 1700     		movs	r7, r2
 431:Generated_Source\PSoC6\pdl\drivers\peripheral\smif/cy_smif_memslot.c ****     cy_stc_smif_mem_device_cfg_t* device =  memDevice->deviceCfg;
 774              		.loc 1 431 0
 775 0010 0022     		movs	r2, #0
 776              	.LVL70:
 777 0012 05AB     		add	r3, sp, #20
 778 0014 1A80     		strh	r2, [r3]
 432:Generated_Source\PSoC6\pdl\drivers\peripheral\smif/cy_smif_memslot.c ****     
 779              		.loc 1 432 0
 780 0016 8C69     		ldr	r4, [r1, #24]
 781              	.LVL71:
 435:Generated_Source\PSoC6\pdl\drivers\peripheral\smif/cy_smif_memslot.c ****     CY_ASSERT_L1(NULL != device->writeStsRegQeCmd);
ARM GAS  C:\Users\ikomb\AppData\Local\Temp\cc5YtlHT.s 			page 26


 782              		.loc 1 435 0
 783 0018 E36A     		ldr	r3, [r4, #44]
 784 001a 002B     		cmp	r3, #0
 785 001c 04D1     		bne	.L38
 435:Generated_Source\PSoC6\pdl\drivers\peripheral\smif/cy_smif_memslot.c ****     CY_ASSERT_L1(NULL != device->writeStsRegQeCmd);
 786              		.loc 1 435 0 is_stmt 0 discriminator 1
 787 001e B421     		movs	r1, #180
 788              	.LVL72:
 789 0020 FF31     		adds	r1, r1, #255
 790 0022 3C48     		ldr	r0, .L47
 791              	.LVL73:
 792 0024 FFF7FEFF 		bl	Cy_SysLib_AssertFailed
 793              	.LVL74:
 794              	.L38:
 436:Generated_Source\PSoC6\pdl\drivers\peripheral\smif/cy_smif_memslot.c ****     CY_ASSERT_L1(NULL != device->readStsRegWipCmd);
 795              		.loc 1 436 0 is_stmt 1
 796 0028 236B     		ldr	r3, [r4, #48]
 797 002a 002B     		cmp	r3, #0
 798 002c 04D1     		bne	.L39
 436:Generated_Source\PSoC6\pdl\drivers\peripheral\smif/cy_smif_memslot.c ****     CY_ASSERT_L1(NULL != device->readStsRegWipCmd);
 799              		.loc 1 436 0 is_stmt 0 discriminator 1
 800 002e DA21     		movs	r1, #218
 801 0030 4900     		lsls	r1, r1, #1
 802 0032 3848     		ldr	r0, .L47
 803 0034 FFF7FEFF 		bl	Cy_SysLib_AssertFailed
 804              	.LVL75:
 805              	.L39:
 437:Generated_Source\PSoC6\pdl\drivers\peripheral\smif/cy_smif_memslot.c ****     
 806              		.loc 1 437 0 is_stmt 1
 807 0038 A36A     		ldr	r3, [r4, #40]
 808 003a 002B     		cmp	r3, #0
 809 003c 04D1     		bne	.L40
 437:Generated_Source\PSoC6\pdl\drivers\peripheral\smif/cy_smif_memslot.c ****     
 810              		.loc 1 437 0 is_stmt 0 discriminator 1
 811 003e B621     		movs	r1, #182
 812 0040 FF31     		adds	r1, r1, #255
 813 0042 3448     		ldr	r0, .L47
 814 0044 FFF7FEFF 		bl	Cy_SysLib_AssertFailed
 815              	.LVL76:
 816              	.L40:
 439:Generated_Source\PSoC6\pdl\drivers\peripheral\smif/cy_smif_memslot.c ****     uint8_t writeQeCmd = (uint8_t)device->writeStsRegQeCmd->command;
 817              		.loc 1 439 0 is_stmt 1
 818 0048 E36A     		ldr	r3, [r4, #44]
 819 004a 1E78     		ldrb	r6, [r3]
 820              	.LVL77:
 440:Generated_Source\PSoC6\pdl\drivers\peripheral\smif/cy_smif_memslot.c ****     uint8_t readWipCmd = (uint8_t)device->readStsRegWipCmd->command;
 821              		.loc 1 440 0
 822 004c 236B     		ldr	r3, [r4, #48]
 823 004e 1B78     		ldrb	r3, [r3]
 824 0050 9846     		mov	r8, r3
 825              	.LVL78:
 441:Generated_Source\PSoC6\pdl\drivers\peripheral\smif/cy_smif_memslot.c **** 
 826              		.loc 1 441 0
 827 0052 A36A     		ldr	r3, [r4, #40]
 828 0054 1B78     		ldrb	r3, [r3]
 829 0056 9A46     		mov	r10, r3
 830              	.LVL79:
ARM GAS  C:\Users\ikomb\AppData\Local\Temp\cc5YtlHT.s 			page 27


 443:Generated_Source\PSoC6\pdl\drivers\peripheral\smif/cy_smif_memslot.c ****                 readQeCmd, context);
 831              		.loc 1 443 0
 832 0058 0097     		str	r7, [sp]
 833 005a 3300     		movs	r3, r6
 834 005c 05AA     		add	r2, sp, #20
 835 005e 2900     		movs	r1, r5
 836 0060 0398     		ldr	r0, [sp, #12]
 837 0062 FFF7FEFF 		bl	Cy_SMIF_Memslot_CmdReadSts
 838              	.LVL80:
 446:Generated_Source\PSoC6\pdl\drivers\peripheral\smif/cy_smif_memslot.c ****     {
 839              		.loc 1 446 0
 840 0066 0028     		cmp	r0, #0
 841 0068 4ED1     		bne	.L41
 842              	.LBB13:
 448:Generated_Source\PSoC6\pdl\drivers\peripheral\smif/cy_smif_memslot.c **** 
 843              		.loc 1 448 0
 844 006a E46B     		ldr	r4, [r4, #60]
 845              	.LVL81:
 450:Generated_Source\PSoC6\pdl\drivers\peripheral\smif/cy_smif_memslot.c ****         {
 846              		.loc 1 450 0
 847 006c 402C     		cmp	r4, #64
 848 006e 04D0     		beq	.L42
 849 0070 802C     		cmp	r4, #128
 850 0072 2DD0     		beq	.L43
 851 0074 022C     		cmp	r4, #2
 852 0076 46D1     		bne	.L46
 853 0078 0AE0     		b	.L44
 854              	.L42:
 453:Generated_Source\PSoC6\pdl\drivers\peripheral\smif/cy_smif_memslot.c ****                 result = Cy_SMIF_Memslot_CmdWriteSts(base, memDevice,
 855              		.loc 1 453 0
 856 007a 05AA     		add	r2, sp, #20
 857 007c 1378     		ldrb	r3, [r2]
 858 007e 1C43     		orrs	r4, r3
 859              	.LVL82:
 860 0080 1470     		strb	r4, [r2]
 454:Generated_Source\PSoC6\pdl\drivers\peripheral\smif/cy_smif_memslot.c ****                             &statusReg[0U], writeQeCmd, context);
 861              		.loc 1 454 0
 862 0082 0097     		str	r7, [sp]
 863 0084 4346     		mov	r3, r8
 864 0086 2900     		movs	r1, r5
 865 0088 0398     		ldr	r0, [sp, #12]
 866              	.LVL83:
 867 008a FFF7FEFF 		bl	Cy_SMIF_Memslot_CmdWriteSts
 868              	.LVL84:
 456:Generated_Source\PSoC6\pdl\drivers\peripheral\smif/cy_smif_memslot.c ****             case CY_SMIF_SFDP_QE_BIT_1_OF_SR_2:
 869              		.loc 1 456 0
 870 008e 3BE0     		b	.L41
 871              	.LVL85:
 872              	.L44:
 460:Generated_Source\PSoC6\pdl\drivers\peripheral\smif/cy_smif_memslot.c ****                             &statusReg[0U], readWipCmd, context);
 873              		.loc 1 460 0
 874 0090 0097     		str	r7, [sp]
 875 0092 5346     		mov	r3, r10
 876 0094 05AA     		add	r2, sp, #20
 877 0096 2900     		movs	r1, r5
 878 0098 0398     		ldr	r0, [sp, #12]
 879              	.LVL86:
ARM GAS  C:\Users\ikomb\AppData\Local\Temp\cc5YtlHT.s 			page 28


 880 009a FFF7FEFF 		bl	Cy_SMIF_Memslot_CmdReadSts
 881              	.LVL87:
 462:Generated_Source\PSoC6\pdl\drivers\peripheral\smif/cy_smif_memslot.c ****                 {
 882              		.loc 1 462 0
 883 009e 0028     		cmp	r0, #0
 884 00a0 32D1     		bne	.L41
 464:Generated_Source\PSoC6\pdl\drivers\peripheral\smif/cy_smif_memslot.c ****                                 &statusReg[1U], readQeCmd, context);
 885              		.loc 1 464 0
 886 00a2 0097     		str	r7, [sp]
 887 00a4 3300     		movs	r3, r6
 888 00a6 0D22     		movs	r2, #13
 889 00a8 02A9     		add	r1, sp, #8
 890 00aa 8C46     		mov	ip, r1
 891 00ac 6244     		add	r2, r2, ip
 892 00ae 2900     		movs	r1, r5
 893 00b0 0398     		ldr	r0, [sp, #12]
 894              	.LVL88:
 895 00b2 FFF7FEFF 		bl	Cy_SMIF_Memslot_CmdReadSts
 896              	.LVL89:
 466:Generated_Source\PSoC6\pdl\drivers\peripheral\smif/cy_smif_memslot.c ****                     {
 897              		.loc 1 466 0
 898 00b6 0028     		cmp	r0, #0
 899 00b8 26D1     		bne	.L41
 468:Generated_Source\PSoC6\pdl\drivers\peripheral\smif/cy_smif_memslot.c ****                         result = Cy_SMIF_Memslot_CmdWriteSts(base, memDevice,
 900              		.loc 1 468 0
 901 00ba 05AA     		add	r2, sp, #20
 902 00bc 5378     		ldrb	r3, [r2, #1]
 903 00be 1C43     		orrs	r4, r3
 904              	.LVL90:
 905 00c0 5470     		strb	r4, [r2, #1]
 469:Generated_Source\PSoC6\pdl\drivers\peripheral\smif/cy_smif_memslot.c ****                                     statusReg, writeQeCmd, context);
 906              		.loc 1 469 0
 907 00c2 0097     		str	r7, [sp]
 908 00c4 4346     		mov	r3, r8
 909 00c6 2900     		movs	r1, r5
 910 00c8 0398     		ldr	r0, [sp, #12]
 911              	.LVL91:
 912 00ca FFF7FEFF 		bl	Cy_SMIF_Memslot_CmdWriteSts
 913              	.LVL92:
 914 00ce 1BE0     		b	.L41
 915              	.LVL93:
 916              	.L43:
 475:Generated_Source\PSoC6\pdl\drivers\peripheral\smif/cy_smif_memslot.c ****                             &statusReg[1U], readQeCmd, context);
 917              		.loc 1 475 0
 918 00d0 0097     		str	r7, [sp]
 919 00d2 3300     		movs	r3, r6
 920 00d4 0D22     		movs	r2, #13
 921 00d6 02A9     		add	r1, sp, #8
 922 00d8 8C46     		mov	ip, r1
 923 00da 6244     		add	r2, r2, ip
 924 00dc 2900     		movs	r1, r5
 925 00de 0398     		ldr	r0, [sp, #12]
 926              	.LVL94:
 927 00e0 FFF7FEFF 		bl	Cy_SMIF_Memslot_CmdReadSts
 928              	.LVL95:
 477:Generated_Source\PSoC6\pdl\drivers\peripheral\smif/cy_smif_memslot.c ****                 {
 929              		.loc 1 477 0
ARM GAS  C:\Users\ikomb\AppData\Local\Temp\cc5YtlHT.s 			page 29


 930 00e4 0028     		cmp	r0, #0
 931 00e6 0FD1     		bne	.L41
 479:Generated_Source\PSoC6\pdl\drivers\peripheral\smif/cy_smif_memslot.c ****                     result = Cy_SMIF_Memslot_CmdWriteSts(base, memDevice,
 932              		.loc 1 479 0
 933 00e8 05AB     		add	r3, sp, #20
 934 00ea 5A78     		ldrb	r2, [r3, #1]
 935 00ec 1443     		orrs	r4, r2
 936              	.LVL96:
 937 00ee 5C70     		strb	r4, [r3, #1]
 480:Generated_Source\PSoC6\pdl\drivers\peripheral\smif/cy_smif_memslot.c ****                                 &statusReg[1U], writeQeCmd, context);
 938              		.loc 1 480 0
 939 00f0 0097     		str	r7, [sp]
 940 00f2 4346     		mov	r3, r8
 941 00f4 0D22     		movs	r2, #13
 942 00f6 02A9     		add	r1, sp, #8
 943 00f8 8C46     		mov	ip, r1
 944 00fa 6244     		add	r2, r2, ip
 945 00fc 2900     		movs	r1, r5
 946 00fe 0398     		ldr	r0, [sp, #12]
 947              	.LVL97:
 948 0100 FFF7FEFF 		bl	Cy_SMIF_Memslot_CmdWriteSts
 949              	.LVL98:
 950 0104 00E0     		b	.L41
 951              	.LVL99:
 952              	.L46:
 485:Generated_Source\PSoC6\pdl\drivers\peripheral\smif/cy_smif_memslot.c ****                 break;
 953              		.loc 1 485 0
 954 0106 0448     		ldr	r0, .L47+4
 955              	.LVL100:
 956              	.L41:
 957              	.LBE13:
 492:Generated_Source\PSoC6\pdl\drivers\peripheral\smif/cy_smif_memslot.c **** 
 958              		.loc 1 492 0
 959 0108 07B0     		add	sp, sp, #28
 960              		@ sp needed
 961              	.LVL101:
 962              	.LVL102:
 963              	.LVL103:
 964              	.LVL104:
 965              	.LVL105:
 966 010a 0CBC     		pop	{r2, r3}
 967 010c 9046     		mov	r8, r2
 968 010e 9A46     		mov	r10, r3
 969 0110 F0BD     		pop	{r4, r5, r6, r7, pc}
 970              	.L48:
 971 0112 C046     		.align	2
 972              	.L47:
 973 0114 00000000 		.word	.LC0
 974 0118 0300B200 		.word	11665411
 975              		.cfi_endproc
 976              	.LFE95:
 977              		.size	Cy_SMIF_Memslot_QuadEnable, .-Cy_SMIF_Memslot_QuadEnable
 978              		.section	.text.Cy_SMIF_Memslot_CmdChipErase,"ax",%progbits
 979              		.align	2
 980              		.global	Cy_SMIF_Memslot_CmdChipErase
 981              		.code	16
 982              		.thumb_func
ARM GAS  C:\Users\ikomb\AppData\Local\Temp\cc5YtlHT.s 			page 30


 983              		.type	Cy_SMIF_Memslot_CmdChipErase, %function
 984              	Cy_SMIF_Memslot_CmdChipErase:
 985              	.LFB98:
 608:Generated_Source\PSoC6\pdl\drivers\peripheral\smif/cy_smif_memslot.c **** 
 609:Generated_Source\PSoC6\pdl\drivers\peripheral\smif/cy_smif_memslot.c **** 
 610:Generated_Source\PSoC6\pdl\drivers\peripheral\smif/cy_smif_memslot.c **** /*******************************************************************************
 611:Generated_Source\PSoC6\pdl\drivers\peripheral\smif/cy_smif_memslot.c **** * Function Name: Cy_SMIF_Memslot_CmdChipErase
 612:Generated_Source\PSoC6\pdl\drivers\peripheral\smif/cy_smif_memslot.c **** ****************************************************************************//**
 613:Generated_Source\PSoC6\pdl\drivers\peripheral\smif/cy_smif_memslot.c **** *
 614:Generated_Source\PSoC6\pdl\drivers\peripheral\smif/cy_smif_memslot.c **** * This function performs a chip erase of the external memory. The Write Enable
 615:Generated_Source\PSoC6\pdl\drivers\peripheral\smif/cy_smif_memslot.c **** * command is called before this API.
 616:Generated_Source\PSoC6\pdl\drivers\peripheral\smif/cy_smif_memslot.c **** *
 617:Generated_Source\PSoC6\pdl\drivers\peripheral\smif/cy_smif_memslot.c **** * \note This function uses the low-level Cy_SMIF_TransmitCommand() API.
 618:Generated_Source\PSoC6\pdl\drivers\peripheral\smif/cy_smif_memslot.c **** * Cy_SMIF_TransmitCommand() API works in a blocking mode. In the dual quad mode,
 619:Generated_Source\PSoC6\pdl\drivers\peripheral\smif/cy_smif_memslot.c **** * this API is called for each memory.
 620:Generated_Source\PSoC6\pdl\drivers\peripheral\smif/cy_smif_memslot.c **** *
 621:Generated_Source\PSoC6\pdl\drivers\peripheral\smif/cy_smif_memslot.c **** * \param base
 622:Generated_Source\PSoC6\pdl\drivers\peripheral\smif/cy_smif_memslot.c **** * Holds the base address of the SMIF block registers.
 623:Generated_Source\PSoC6\pdl\drivers\peripheral\smif/cy_smif_memslot.c **** *
 624:Generated_Source\PSoC6\pdl\drivers\peripheral\smif/cy_smif_memslot.c **** * \param context
 625:Generated_Source\PSoC6\pdl\drivers\peripheral\smif/cy_smif_memslot.c **** * The internal SMIF context data. \ref cy_stc_smif_context_t
 626:Generated_Source\PSoC6\pdl\drivers\peripheral\smif/cy_smif_memslot.c **** *
 627:Generated_Source\PSoC6\pdl\drivers\peripheral\smif/cy_smif_memslot.c **** * \param memDevice
 628:Generated_Source\PSoC6\pdl\drivers\peripheral\smif/cy_smif_memslot.c **** * The device to which the command is sent
 629:Generated_Source\PSoC6\pdl\drivers\peripheral\smif/cy_smif_memslot.c **** *
 630:Generated_Source\PSoC6\pdl\drivers\peripheral\smif/cy_smif_memslot.c **** * \return A status of the command transmission.
 631:Generated_Source\PSoC6\pdl\drivers\peripheral\smif/cy_smif_memslot.c **** *       - \ref CY_SMIF_SUCCESS
 632:Generated_Source\PSoC6\pdl\drivers\peripheral\smif/cy_smif_memslot.c **** *       - \ref CY_SMIF_EXCEED_TIMEOUT
 633:Generated_Source\PSoC6\pdl\drivers\peripheral\smif/cy_smif_memslot.c **** *
 634:Generated_Source\PSoC6\pdl\drivers\peripheral\smif/cy_smif_memslot.c **** *******************************************************************************/
 635:Generated_Source\PSoC6\pdl\drivers\peripheral\smif/cy_smif_memslot.c **** cy_en_smif_status_t Cy_SMIF_Memslot_CmdChipErase(SMIF_Type *base,
 636:Generated_Source\PSoC6\pdl\drivers\peripheral\smif/cy_smif_memslot.c ****                 cy_stc_smif_mem_config_t const *memDevice,
 637:Generated_Source\PSoC6\pdl\drivers\peripheral\smif/cy_smif_memslot.c ****                 cy_stc_smif_context_t const *context)
 638:Generated_Source\PSoC6\pdl\drivers\peripheral\smif/cy_smif_memslot.c **** {
 986              		.loc 1 638 0
 987              		.cfi_startproc
 988              		@ args = 0, pretend = 0, frame = 0
 989              		@ frame_needed = 0, uses_anonymous_args = 0
 990              	.LVL106:
 991 0000 F0B5     		push	{r4, r5, r6, r7, lr}
 992              		.cfi_def_cfa_offset 20
 993              		.cfi_offset 4, -20
 994              		.cfi_offset 5, -16
 995              		.cfi_offset 6, -12
 996              		.cfi_offset 7, -8
 997              		.cfi_offset 14, -4
 998 0002 87B0     		sub	sp, sp, #28
 999              		.cfi_def_cfa_offset 48
 1000 0004 0600     		movs	r6, r0
 1001 0006 0D00     		movs	r5, r1
 1002 0008 1700     		movs	r7, r2
 639:Generated_Source\PSoC6\pdl\drivers\peripheral\smif/cy_smif_memslot.c ****     cy_en_smif_status_t result;
 640:Generated_Source\PSoC6\pdl\drivers\peripheral\smif/cy_smif_memslot.c **** 
 641:Generated_Source\PSoC6\pdl\drivers\peripheral\smif/cy_smif_memslot.c ****     cy_stc_smif_mem_cmd_t *cmdErase = memDevice->deviceCfg->chipEraseCmd;
 1003              		.loc 1 641 0
 1004 000a 8B69     		ldr	r3, [r1, #24]
 1005 000c DC69     		ldr	r4, [r3, #28]
ARM GAS  C:\Users\ikomb\AppData\Local\Temp\cc5YtlHT.s 			page 31


 1006              	.LVL107:
 642:Generated_Source\PSoC6\pdl\drivers\peripheral\smif/cy_smif_memslot.c ****     CY_ASSERT_L1(NULL != cmdErase);
 1007              		.loc 1 642 0
 1008 000e 002C     		cmp	r4, #0
 1009 0010 03D1     		bne	.L50
 1010              		.loc 1 642 0 is_stmt 0 discriminator 1
 1011 0012 0949     		ldr	r1, .L51
 1012              	.LVL108:
 1013 0014 0948     		ldr	r0, .L51+4
 1014              	.LVL109:
 1015 0016 FFF7FEFF 		bl	Cy_SysLib_AssertFailed
 1016              	.LVL110:
 1017              	.L50:
 643:Generated_Source\PSoC6\pdl\drivers\peripheral\smif/cy_smif_memslot.c **** 
 644:Generated_Source\PSoC6\pdl\drivers\peripheral\smif/cy_smif_memslot.c ****     result = Cy_SMIF_TransmitCommand( base, (uint8_t)cmdErase->command,
 1018              		.loc 1 644 0 is_stmt 1
 1019 001a 2178     		ldrb	r1, [r4]
 1020 001c 2279     		ldrb	r2, [r4, #4]
 1021 001e 2B78     		ldrb	r3, [r5]
 1022 0020 0497     		str	r7, [sp, #16]
 1023 0022 0120     		movs	r0, #1
 1024 0024 0390     		str	r0, [sp, #12]
 1025 0026 0293     		str	r3, [sp, #8]
 1026 0028 0023     		movs	r3, #0
 1027 002a 0193     		str	r3, [sp, #4]
 1028 002c 0093     		str	r3, [sp]
 1029 002e 3000     		movs	r0, r6
 1030 0030 FFF7FEFF 		bl	Cy_SMIF_TransmitCommand
 1031              	.LVL111:
 645:Generated_Source\PSoC6\pdl\drivers\peripheral\smif/cy_smif_memslot.c ****             cmdErase->cmdWidth, CY_SMIF_CMD_WITHOUT_PARAM,
 646:Generated_Source\PSoC6\pdl\drivers\peripheral\smif/cy_smif_memslot.c ****             CY_SMIF_CMD_WITHOUT_PARAM,
 647:Generated_Source\PSoC6\pdl\drivers\peripheral\smif/cy_smif_memslot.c ****             (cy_en_smif_txfr_width_t) CY_SMIF_CMD_WITHOUT_PARAM,
 648:Generated_Source\PSoC6\pdl\drivers\peripheral\smif/cy_smif_memslot.c ****             memDevice->slaveSelect, CY_SMIF_TX_LAST_BYTE, context);
 649:Generated_Source\PSoC6\pdl\drivers\peripheral\smif/cy_smif_memslot.c **** 
 650:Generated_Source\PSoC6\pdl\drivers\peripheral\smif/cy_smif_memslot.c ****     return(result);
 651:Generated_Source\PSoC6\pdl\drivers\peripheral\smif/cy_smif_memslot.c **** }
 1032              		.loc 1 651 0
 1033 0034 07B0     		add	sp, sp, #28
 1034              		@ sp needed
 1035              	.LVL112:
 1036              	.LVL113:
 1037              	.LVL114:
 1038              	.LVL115:
 1039 0036 F0BD     		pop	{r4, r5, r6, r7, pc}
 1040              	.L52:
 1041              		.align	2
 1042              	.L51:
 1043 0038 82020000 		.word	642
 1044 003c 00000000 		.word	.LC0
 1045              		.cfi_endproc
 1046              	.LFE98:
 1047              		.size	Cy_SMIF_Memslot_CmdChipErase, .-Cy_SMIF_Memslot_CmdChipErase
 1048              		.section	.text.Cy_SMIF_Memslot_CmdSectorErase,"ax",%progbits
 1049              		.align	2
 1050              		.global	Cy_SMIF_Memslot_CmdSectorErase
 1051              		.code	16
 1052              		.thumb_func
ARM GAS  C:\Users\ikomb\AppData\Local\Temp\cc5YtlHT.s 			page 32


 1053              		.type	Cy_SMIF_Memslot_CmdSectorErase, %function
 1054              	Cy_SMIF_Memslot_CmdSectorErase:
 1055              	.LFB99:
 652:Generated_Source\PSoC6\pdl\drivers\peripheral\smif/cy_smif_memslot.c **** 
 653:Generated_Source\PSoC6\pdl\drivers\peripheral\smif/cy_smif_memslot.c **** 
 654:Generated_Source\PSoC6\pdl\drivers\peripheral\smif/cy_smif_memslot.c **** /*******************************************************************************
 655:Generated_Source\PSoC6\pdl\drivers\peripheral\smif/cy_smif_memslot.c **** * Function Name: Cy_SMIF_Memslot_CmdSectorErase
 656:Generated_Source\PSoC6\pdl\drivers\peripheral\smif/cy_smif_memslot.c **** ****************************************************************************//**
 657:Generated_Source\PSoC6\pdl\drivers\peripheral\smif/cy_smif_memslot.c **** *
 658:Generated_Source\PSoC6\pdl\drivers\peripheral\smif/cy_smif_memslot.c **** * This function performs a block Erase of the external memory. The Write Enable
 659:Generated_Source\PSoC6\pdl\drivers\peripheral\smif/cy_smif_memslot.c **** * command is called before this API.
 660:Generated_Source\PSoC6\pdl\drivers\peripheral\smif/cy_smif_memslot.c **** *
 661:Generated_Source\PSoC6\pdl\drivers\peripheral\smif/cy_smif_memslot.c **** * \note This function uses the low-level Cy_SMIF_TransmitCommand() API.
 662:Generated_Source\PSoC6\pdl\drivers\peripheral\smif/cy_smif_memslot.c **** * The Cy_SMIF_TransmitCommand() API works in a blocking mode. In the dual quad mode,
 663:Generated_Source\PSoC6\pdl\drivers\peripheral\smif/cy_smif_memslot.c **** * this API is called for each memory.
 664:Generated_Source\PSoC6\pdl\drivers\peripheral\smif/cy_smif_memslot.c **** *
 665:Generated_Source\PSoC6\pdl\drivers\peripheral\smif/cy_smif_memslot.c **** * \param base
 666:Generated_Source\PSoC6\pdl\drivers\peripheral\smif/cy_smif_memslot.c **** * Holds the base address of the SMIF block registers.
 667:Generated_Source\PSoC6\pdl\drivers\peripheral\smif/cy_smif_memslot.c **** *
 668:Generated_Source\PSoC6\pdl\drivers\peripheral\smif/cy_smif_memslot.c **** * \param context
 669:Generated_Source\PSoC6\pdl\drivers\peripheral\smif/cy_smif_memslot.c **** * The internal SMIF context data. \ref cy_stc_smif_context_t
 670:Generated_Source\PSoC6\pdl\drivers\peripheral\smif/cy_smif_memslot.c **** *
 671:Generated_Source\PSoC6\pdl\drivers\peripheral\smif/cy_smif_memslot.c **** * \param memDevice
 672:Generated_Source\PSoC6\pdl\drivers\peripheral\smif/cy_smif_memslot.c **** * The device to which the command is sent.
 673:Generated_Source\PSoC6\pdl\drivers\peripheral\smif/cy_smif_memslot.c **** *
 674:Generated_Source\PSoC6\pdl\drivers\peripheral\smif/cy_smif_memslot.c **** * \param sectorAddr
 675:Generated_Source\PSoC6\pdl\drivers\peripheral\smif/cy_smif_memslot.c **** * The sector address to erase.
 676:Generated_Source\PSoC6\pdl\drivers\peripheral\smif/cy_smif_memslot.c **** *
 677:Generated_Source\PSoC6\pdl\drivers\peripheral\smif/cy_smif_memslot.c **** * \return A status of the command transmission.
 678:Generated_Source\PSoC6\pdl\drivers\peripheral\smif/cy_smif_memslot.c **** *       - \ref CY_SMIF_SUCCESS
 679:Generated_Source\PSoC6\pdl\drivers\peripheral\smif/cy_smif_memslot.c **** *       - \ref CY_SMIF_BAD_PARAM
 680:Generated_Source\PSoC6\pdl\drivers\peripheral\smif/cy_smif_memslot.c **** *       - \ref CY_SMIF_EXCEED_TIMEOUT
 681:Generated_Source\PSoC6\pdl\drivers\peripheral\smif/cy_smif_memslot.c **** *
 682:Generated_Source\PSoC6\pdl\drivers\peripheral\smif/cy_smif_memslot.c **** *******************************************************************************/
 683:Generated_Source\PSoC6\pdl\drivers\peripheral\smif/cy_smif_memslot.c **** cy_en_smif_status_t Cy_SMIF_Memslot_CmdSectorErase(SMIF_Type *base,
 684:Generated_Source\PSoC6\pdl\drivers\peripheral\smif/cy_smif_memslot.c ****                                         cy_stc_smif_mem_config_t *memDevice,
 685:Generated_Source\PSoC6\pdl\drivers\peripheral\smif/cy_smif_memslot.c ****                                         uint8_t const *sectorAddr,
 686:Generated_Source\PSoC6\pdl\drivers\peripheral\smif/cy_smif_memslot.c ****                                         cy_stc_smif_context_t const *context)
 687:Generated_Source\PSoC6\pdl\drivers\peripheral\smif/cy_smif_memslot.c **** {
 1056              		.loc 1 687 0
 1057              		.cfi_startproc
 1058              		@ args = 0, pretend = 0, frame = 8
 1059              		@ frame_needed = 0, uses_anonymous_args = 0
 1060              	.LVL116:
 1061 0000 F0B5     		push	{r4, r5, r6, r7, lr}
 1062              		.cfi_def_cfa_offset 20
 1063              		.cfi_offset 4, -20
 1064              		.cfi_offset 5, -16
 1065              		.cfi_offset 6, -12
 1066              		.cfi_offset 7, -8
 1067              		.cfi_offset 14, -4
 1068 0002 89B0     		sub	sp, sp, #36
 1069              		.cfi_def_cfa_offset 56
 1070 0004 0690     		str	r0, [sp, #24]
 1071 0006 0E00     		movs	r6, r1
 1072 0008 151E     		subs	r5, r2, #0
 1073 000a 0793     		str	r3, [sp, #28]
ARM GAS  C:\Users\ikomb\AppData\Local\Temp\cc5YtlHT.s 			page 33


 1074              	.LVL117:
 688:Generated_Source\PSoC6\pdl\drivers\peripheral\smif/cy_smif_memslot.c ****     cy_en_smif_status_t result = CY_SMIF_BAD_PARAM;
 689:Generated_Source\PSoC6\pdl\drivers\peripheral\smif/cy_smif_memslot.c **** 
 690:Generated_Source\PSoC6\pdl\drivers\peripheral\smif/cy_smif_memslot.c ****     if (NULL != sectorAddr)
 1075              		.loc 1 690 0
 1076 000c 18D0     		beq	.L56
 1077              	.LBB14:
 691:Generated_Source\PSoC6\pdl\drivers\peripheral\smif/cy_smif_memslot.c ****     {
 692:Generated_Source\PSoC6\pdl\drivers\peripheral\smif/cy_smif_memslot.c **** 
 693:Generated_Source\PSoC6\pdl\drivers\peripheral\smif/cy_smif_memslot.c ****         cy_stc_smif_mem_device_cfg_t *device = memDevice->deviceCfg;
 1078              		.loc 1 693 0
 1079 000e 8F69     		ldr	r7, [r1, #24]
 1080              	.LVL118:
 694:Generated_Source\PSoC6\pdl\drivers\peripheral\smif/cy_smif_memslot.c ****         cy_stc_smif_mem_cmd_t *cmdErase = device->eraseCmd;
 1081              		.loc 1 694 0
 1082 0010 7C69     		ldr	r4, [r7, #20]
 1083              	.LVL119:
 695:Generated_Source\PSoC6\pdl\drivers\peripheral\smif/cy_smif_memslot.c ****         
 696:Generated_Source\PSoC6\pdl\drivers\peripheral\smif/cy_smif_memslot.c ****         CY_ASSERT_L1(NULL != cmdErase);
 1084              		.loc 1 696 0
 1085 0012 002C     		cmp	r4, #0
 1086 0014 04D1     		bne	.L55
 1087              		.loc 1 696 0 is_stmt 0 discriminator 1
 1088 0016 AE21     		movs	r1, #174
 1089              	.LVL120:
 1090 0018 8900     		lsls	r1, r1, #2
 1091 001a 0B48     		ldr	r0, .L57
 1092              	.LVL121:
 1093 001c FFF7FEFF 		bl	Cy_SysLib_AssertFailed
 1094              	.LVL122:
 1095              	.L55:
 697:Generated_Source\PSoC6\pdl\drivers\peripheral\smif/cy_smif_memslot.c **** 
 698:Generated_Source\PSoC6\pdl\drivers\peripheral\smif/cy_smif_memslot.c ****         result = Cy_SMIF_TransmitCommand( base, (uint8_t)cmdErase->command,
 1096              		.loc 1 698 0 is_stmt 1
 1097 0020 2178     		ldrb	r1, [r4]
 1098 0022 3B68     		ldr	r3, [r7]
 1099 0024 2279     		ldrb	r2, [r4, #4]
 1100 0026 3078     		ldrb	r0, [r6]
 1101 0028 079C     		ldr	r4, [sp, #28]
 1102              	.LVL123:
 1103 002a 0494     		str	r4, [sp, #16]
 1104 002c 0124     		movs	r4, #1
 1105 002e 0394     		str	r4, [sp, #12]
 1106 0030 0290     		str	r0, [sp, #8]
 1107 0032 0192     		str	r2, [sp, #4]
 1108 0034 0093     		str	r3, [sp]
 1109 0036 2B00     		movs	r3, r5
 1110 0038 0698     		ldr	r0, [sp, #24]
 1111 003a FFF7FEFF 		bl	Cy_SMIF_TransmitCommand
 1112              	.LVL124:
 1113 003e 00E0     		b	.L54
 1114              	.LVL125:
 1115              	.L56:
 1116              	.LBE14:
 688:Generated_Source\PSoC6\pdl\drivers\peripheral\smif/cy_smif_memslot.c **** 
 1117              		.loc 1 688 0
 1118 0040 0248     		ldr	r0, .L57+4
ARM GAS  C:\Users\ikomb\AppData\Local\Temp\cc5YtlHT.s 			page 34


 1119              	.LVL126:
 1120              	.L54:
 699:Generated_Source\PSoC6\pdl\drivers\peripheral\smif/cy_smif_memslot.c ****                 cmdErase->cmdWidth, sectorAddr, device->numOfAddrBytes,
 700:Generated_Source\PSoC6\pdl\drivers\peripheral\smif/cy_smif_memslot.c ****                 cmdErase->cmdWidth, memDevice->slaveSelect,
 701:Generated_Source\PSoC6\pdl\drivers\peripheral\smif/cy_smif_memslot.c ****                 CY_SMIF_TX_LAST_BYTE, context);
 702:Generated_Source\PSoC6\pdl\drivers\peripheral\smif/cy_smif_memslot.c ****     }
 703:Generated_Source\PSoC6\pdl\drivers\peripheral\smif/cy_smif_memslot.c **** 
 704:Generated_Source\PSoC6\pdl\drivers\peripheral\smif/cy_smif_memslot.c ****     return(result);
 705:Generated_Source\PSoC6\pdl\drivers\peripheral\smif/cy_smif_memslot.c **** }
 1121              		.loc 1 705 0
 1122 0042 09B0     		add	sp, sp, #36
 1123              		@ sp needed
 1124              	.LVL127:
 1125              	.LVL128:
 1126 0044 F0BD     		pop	{r4, r5, r6, r7, pc}
 1127              	.L58:
 1128 0046 C046     		.align	2
 1129              	.L57:
 1130 0048 00000000 		.word	.LC0
 1131 004c 0400B200 		.word	11665412
 1132              		.cfi_endproc
 1133              	.LFE99:
 1134              		.size	Cy_SMIF_Memslot_CmdSectorErase, .-Cy_SMIF_Memslot_CmdSectorErase
 1135              		.section	.text.Cy_SMIF_Memslot_CmdProgram,"ax",%progbits
 1136              		.align	2
 1137              		.global	Cy_SMIF_Memslot_CmdProgram
 1138              		.code	16
 1139              		.thumb_func
 1140              		.type	Cy_SMIF_Memslot_CmdProgram, %function
 1141              	Cy_SMIF_Memslot_CmdProgram:
 1142              	.LFB100:
 706:Generated_Source\PSoC6\pdl\drivers\peripheral\smif/cy_smif_memslot.c **** 
 707:Generated_Source\PSoC6\pdl\drivers\peripheral\smif/cy_smif_memslot.c **** 
 708:Generated_Source\PSoC6\pdl\drivers\peripheral\smif/cy_smif_memslot.c **** /*******************************************************************************
 709:Generated_Source\PSoC6\pdl\drivers\peripheral\smif/cy_smif_memslot.c **** * Function Name: Cy_SMIF_Memslot_CmdProgram
 710:Generated_Source\PSoC6\pdl\drivers\peripheral\smif/cy_smif_memslot.c **** ****************************************************************************//**
 711:Generated_Source\PSoC6\pdl\drivers\peripheral\smif/cy_smif_memslot.c **** *
 712:Generated_Source\PSoC6\pdl\drivers\peripheral\smif/cy_smif_memslot.c **** * This function performs the Program operation. 
 713:Generated_Source\PSoC6\pdl\drivers\peripheral\smif/cy_smif_memslot.c **** *
 714:Generated_Source\PSoC6\pdl\drivers\peripheral\smif/cy_smif_memslot.c **** * \note This function uses the  Cy_SMIF_TransmitCommand() API.
 715:Generated_Source\PSoC6\pdl\drivers\peripheral\smif/cy_smif_memslot.c **** * The Cy_SMIF_TransmitCommand() API works in the blocking mode. In the dual quad mode,
 716:Generated_Source\PSoC6\pdl\drivers\peripheral\smif/cy_smif_memslot.c **** * this API works with both types of memory simultaneously.
 717:Generated_Source\PSoC6\pdl\drivers\peripheral\smif/cy_smif_memslot.c **** *
 718:Generated_Source\PSoC6\pdl\drivers\peripheral\smif/cy_smif_memslot.c **** * \param base
 719:Generated_Source\PSoC6\pdl\drivers\peripheral\smif/cy_smif_memslot.c **** * Holds the base address of the SMIF block registers.
 720:Generated_Source\PSoC6\pdl\drivers\peripheral\smif/cy_smif_memslot.c **** *
 721:Generated_Source\PSoC6\pdl\drivers\peripheral\smif/cy_smif_memslot.c **** * \param context
 722:Generated_Source\PSoC6\pdl\drivers\peripheral\smif/cy_smif_memslot.c **** * The internal SMIF context data.
 723:Generated_Source\PSoC6\pdl\drivers\peripheral\smif/cy_smif_memslot.c **** *
 724:Generated_Source\PSoC6\pdl\drivers\peripheral\smif/cy_smif_memslot.c **** * \param memDevice
 725:Generated_Source\PSoC6\pdl\drivers\peripheral\smif/cy_smif_memslot.c **** * The device to which the command is sent.
 726:Generated_Source\PSoC6\pdl\drivers\peripheral\smif/cy_smif_memslot.c **** *
 727:Generated_Source\PSoC6\pdl\drivers\peripheral\smif/cy_smif_memslot.c **** * \param addr
 728:Generated_Source\PSoC6\pdl\drivers\peripheral\smif/cy_smif_memslot.c **** * The address to program.
 729:Generated_Source\PSoC6\pdl\drivers\peripheral\smif/cy_smif_memslot.c **** *
 730:Generated_Source\PSoC6\pdl\drivers\peripheral\smif/cy_smif_memslot.c **** * \param writeBuff
 731:Generated_Source\PSoC6\pdl\drivers\peripheral\smif/cy_smif_memslot.c **** * The pointer to the data to program. If this pointer is a NULL, then the
ARM GAS  C:\Users\ikomb\AppData\Local\Temp\cc5YtlHT.s 			page 35


 732:Generated_Source\PSoC6\pdl\drivers\peripheral\smif/cy_smif_memslot.c **** * function does not enable the interrupt. This use case is  typically used when
 733:Generated_Source\PSoC6\pdl\drivers\peripheral\smif/cy_smif_memslot.c **** * the FIFO is handled outside the interrupt and is managed in either a 
 734:Generated_Source\PSoC6\pdl\drivers\peripheral\smif/cy_smif_memslot.c **** * polling-based code or a DMA. The user would handle the FIFO management 
 735:Generated_Source\PSoC6\pdl\drivers\peripheral\smif/cy_smif_memslot.c **** * in a DMA or a polling-based code. 
 736:Generated_Source\PSoC6\pdl\drivers\peripheral\smif/cy_smif_memslot.c **** * If the user provides a NULL pointer in this function and does not handle 
 737:Generated_Source\PSoC6\pdl\drivers\peripheral\smif/cy_smif_memslot.c **** * the FIFO transaction, this could either stall or timeout the operation 
 738:Generated_Source\PSoC6\pdl\drivers\peripheral\smif/cy_smif_memslot.c **** * \ref Cy_SMIF_TransmitData().
 739:Generated_Source\PSoC6\pdl\drivers\peripheral\smif/cy_smif_memslot.c **** *
 740:Generated_Source\PSoC6\pdl\drivers\peripheral\smif/cy_smif_memslot.c **** *
 741:Generated_Source\PSoC6\pdl\drivers\peripheral\smif/cy_smif_memslot.c **** * \param size
 742:Generated_Source\PSoC6\pdl\drivers\peripheral\smif/cy_smif_memslot.c **** * The size of data to program. The user must ensure that the data size
 743:Generated_Source\PSoC6\pdl\drivers\peripheral\smif/cy_smif_memslot.c **** * does not exceed the page size.
 744:Generated_Source\PSoC6\pdl\drivers\peripheral\smif/cy_smif_memslot.c **** *
 745:Generated_Source\PSoC6\pdl\drivers\peripheral\smif/cy_smif_memslot.c **** * \param cmdCmpltCb
 746:Generated_Source\PSoC6\pdl\drivers\peripheral\smif/cy_smif_memslot.c **** * The callback function to call after the transfer completion. NULL interpreted
 747:Generated_Source\PSoC6\pdl\drivers\peripheral\smif/cy_smif_memslot.c **** * as no callback.
 748:Generated_Source\PSoC6\pdl\drivers\peripheral\smif/cy_smif_memslot.c **** *
 749:Generated_Source\PSoC6\pdl\drivers\peripheral\smif/cy_smif_memslot.c **** * \return A status of a transmission.
 750:Generated_Source\PSoC6\pdl\drivers\peripheral\smif/cy_smif_memslot.c **** *       - \ref CY_SMIF_SUCCESS
 751:Generated_Source\PSoC6\pdl\drivers\peripheral\smif/cy_smif_memslot.c **** *       - \ref CY_SMIF_CMD_FIFO_FULL
 752:Generated_Source\PSoC6\pdl\drivers\peripheral\smif/cy_smif_memslot.c **** *       - \ref CY_SMIF_BAD_PARAM
 753:Generated_Source\PSoC6\pdl\drivers\peripheral\smif/cy_smif_memslot.c **** *       - \ref CY_SMIF_EXCEED_TIMEOUT
 754:Generated_Source\PSoC6\pdl\drivers\peripheral\smif/cy_smif_memslot.c **** *
 755:Generated_Source\PSoC6\pdl\drivers\peripheral\smif/cy_smif_memslot.c **** *******************************************************************************/
 756:Generated_Source\PSoC6\pdl\drivers\peripheral\smif/cy_smif_memslot.c **** cy_en_smif_status_t Cy_SMIF_Memslot_CmdProgram(SMIF_Type *base,
 757:Generated_Source\PSoC6\pdl\drivers\peripheral\smif/cy_smif_memslot.c ****                                     cy_stc_smif_mem_config_t const *memDevice,
 758:Generated_Source\PSoC6\pdl\drivers\peripheral\smif/cy_smif_memslot.c ****                                     uint8_t const *addr,
 759:Generated_Source\PSoC6\pdl\drivers\peripheral\smif/cy_smif_memslot.c ****                                     uint8_t* writeBuff,
 760:Generated_Source\PSoC6\pdl\drivers\peripheral\smif/cy_smif_memslot.c ****                                     uint32_t size,
 761:Generated_Source\PSoC6\pdl\drivers\peripheral\smif/cy_smif_memslot.c ****                                     cy_smif_event_cb_t cmdCmpltCb,
 762:Generated_Source\PSoC6\pdl\drivers\peripheral\smif/cy_smif_memslot.c ****                                     cy_stc_smif_context_t *context)
 763:Generated_Source\PSoC6\pdl\drivers\peripheral\smif/cy_smif_memslot.c **** {
 1143              		.loc 1 763 0
 1144              		.cfi_startproc
 1145              		@ args = 12, pretend = 0, frame = 8
 1146              		@ frame_needed = 0, uses_anonymous_args = 0
 1147              	.LVL129:
 1148 0000 F0B5     		push	{r4, r5, r6, r7, lr}
 1149              		.cfi_def_cfa_offset 20
 1150              		.cfi_offset 4, -20
 1151              		.cfi_offset 5, -16
 1152              		.cfi_offset 6, -12
 1153              		.cfi_offset 7, -8
 1154              		.cfi_offset 14, -4
 1155 0002 89B0     		sub	sp, sp, #36
 1156              		.cfi_def_cfa_offset 56
 1157 0004 0690     		str	r0, [sp, #24]
 1158 0006 0E00     		movs	r6, r1
 1159 0008 1700     		movs	r7, r2
 1160 000a 0793     		str	r3, [sp, #28]
 1161              	.LVL130:
 764:Generated_Source\PSoC6\pdl\drivers\peripheral\smif/cy_smif_memslot.c ****     cy_en_smif_status_t result = CY_SMIF_BAD_PARAM;
 765:Generated_Source\PSoC6\pdl\drivers\peripheral\smif/cy_smif_memslot.c ****     cy_en_smif_slave_select_t slaveSelected;
 766:Generated_Source\PSoC6\pdl\drivers\peripheral\smif/cy_smif_memslot.c **** 
 767:Generated_Source\PSoC6\pdl\drivers\peripheral\smif/cy_smif_memslot.c ****     cy_stc_smif_mem_device_cfg_t *device = memDevice->deviceCfg;
 1162              		.loc 1 767 0
 1163 000c 8C69     		ldr	r4, [r1, #24]
ARM GAS  C:\Users\ikomb\AppData\Local\Temp\cc5YtlHT.s 			page 36


 1164              	.LVL131:
 768:Generated_Source\PSoC6\pdl\drivers\peripheral\smif/cy_smif_memslot.c ****     cy_stc_smif_mem_cmd_t *cmdProg = device->programCmd;
 1165              		.loc 1 768 0
 1166 000e 256A     		ldr	r5, [r4, #32]
 1167              	.LVL132:
 769:Generated_Source\PSoC6\pdl\drivers\peripheral\smif/cy_smif_memslot.c ****     
 770:Generated_Source\PSoC6\pdl\drivers\peripheral\smif/cy_smif_memslot.c ****     CY_ASSERT_L1(NULL != cmdProg);
 1168              		.loc 1 770 0
 1169 0010 002D     		cmp	r5, #0
 1170 0012 03D1     		bne	.L60
 1171              		.loc 1 770 0 is_stmt 0 discriminator 1
 1172 0014 1C49     		ldr	r1, .L67
 1173              	.LVL133:
 1174 0016 1D48     		ldr	r0, .L67+4
 1175              	.LVL134:
 1176 0018 FFF7FEFF 		bl	Cy_SysLib_AssertFailed
 1177              	.LVL135:
 1178              	.L60:
 771:Generated_Source\PSoC6\pdl\drivers\peripheral\smif/cy_smif_memslot.c **** 
 772:Generated_Source\PSoC6\pdl\drivers\peripheral\smif/cy_smif_memslot.c ****     if ((NULL != addr) && (size <= device->programSize))
 1179              		.loc 1 772 0 is_stmt 1
 1180 001c 002F     		cmp	r7, #0
 1181 001e 2DD0     		beq	.L65
 1182              		.loc 1 772 0 is_stmt 0 discriminator 1
 1183 0020 636A     		ldr	r3, [r4, #36]
 1184 0022 0E9A     		ldr	r2, [sp, #56]
 1185 0024 9342     		cmp	r3, r2
 1186 0026 2BD3     		bcc	.L66
 773:Generated_Source\PSoC6\pdl\drivers\peripheral\smif/cy_smif_memslot.c ****     {
 774:Generated_Source\PSoC6\pdl\drivers\peripheral\smif/cy_smif_memslot.c ****         slaveSelected = (0U == memDevice->dualQuadSlots)?  memDevice->slaveSelect :
 1187              		.loc 1 774 0 is_stmt 1
 1188 0028 7369     		ldr	r3, [r6, #20]
 1189 002a 002B     		cmp	r3, #0
 1190 002c 01D1     		bne	.L62
 1191              		.loc 1 774 0 is_stmt 0 discriminator 1
 1192 002e 3378     		ldrb	r3, [r6]
 1193 0030 00E0     		b	.L63
 1194              	.L62:
 1195              		.loc 1 774 0 discriminator 2
 1196 0032 DBB2     		uxtb	r3, r3
 1197              	.L63:
 1198              	.LVL136:
 775:Generated_Source\PSoC6\pdl\drivers\peripheral\smif/cy_smif_memslot.c ****                                                         (cy_en_smif_slave_select_t)memDevice->dualQ
 776:Generated_Source\PSoC6\pdl\drivers\peripheral\smif/cy_smif_memslot.c ****         /* The page program command */
 777:Generated_Source\PSoC6\pdl\drivers\peripheral\smif/cy_smif_memslot.c ****         result = Cy_SMIF_TransmitCommand( base, (uint8_t)cmdProg->command,
 1199              		.loc 1 777 0 is_stmt 1 discriminator 4
 1200 0034 2978     		ldrb	r1, [r5]
 1201 0036 2A79     		ldrb	r2, [r5, #4]
 1202 0038 2068     		ldr	r0, [r4]
 1203 003a 6C79     		ldrb	r4, [r5, #5]
 1204              	.LVL137:
 1205 003c 109E     		ldr	r6, [sp, #64]
 1206              	.LVL138:
 1207 003e 0496     		str	r6, [sp, #16]
 1208 0040 0026     		movs	r6, #0
 1209 0042 0396     		str	r6, [sp, #12]
 1210 0044 0293     		str	r3, [sp, #8]
ARM GAS  C:\Users\ikomb\AppData\Local\Temp\cc5YtlHT.s 			page 37


 1211 0046 0194     		str	r4, [sp, #4]
 1212 0048 0090     		str	r0, [sp]
 1213 004a 3B00     		movs	r3, r7
 1214              	.LVL139:
 1215 004c 0698     		ldr	r0, [sp, #24]
 1216 004e FFF7FEFF 		bl	Cy_SMIF_TransmitCommand
 1217              	.LVL140:
 778:Generated_Source\PSoC6\pdl\drivers\peripheral\smif/cy_smif_memslot.c ****                 cmdProg->cmdWidth, addr, device->numOfAddrBytes,
 779:Generated_Source\PSoC6\pdl\drivers\peripheral\smif/cy_smif_memslot.c ****                 cmdProg->addrWidth, slaveSelected, CY_SMIF_TX_NOT_LAST_BYTE,
 780:Generated_Source\PSoC6\pdl\drivers\peripheral\smif/cy_smif_memslot.c ****                 context);
 781:Generated_Source\PSoC6\pdl\drivers\peripheral\smif/cy_smif_memslot.c **** 
 782:Generated_Source\PSoC6\pdl\drivers\peripheral\smif/cy_smif_memslot.c ****         if((CY_SMIF_SUCCESS == result) && (cmdProg->dummyCycles > 0U))
 1218              		.loc 1 782 0 discriminator 4
 1219 0052 0028     		cmp	r0, #0
 1220 0054 05D1     		bne	.L64
 1221              		.loc 1 782 0 is_stmt 0 discriminator 1
 1222 0056 2969     		ldr	r1, [r5, #16]
 1223 0058 0029     		cmp	r1, #0
 1224 005a 02D0     		beq	.L64
 783:Generated_Source\PSoC6\pdl\drivers\peripheral\smif/cy_smif_memslot.c ****         {
 784:Generated_Source\PSoC6\pdl\drivers\peripheral\smif/cy_smif_memslot.c ****             result = Cy_SMIF_SendDummyCycles(base, cmdProg->dummyCycles);
 1225              		.loc 1 784 0 is_stmt 1
 1226 005c 0698     		ldr	r0, [sp, #24]
 1227              	.LVL141:
 1228 005e FFF7FEFF 		bl	Cy_SMIF_SendDummyCycles
 1229              	.LVL142:
 1230              	.L64:
 785:Generated_Source\PSoC6\pdl\drivers\peripheral\smif/cy_smif_memslot.c ****         }
 786:Generated_Source\PSoC6\pdl\drivers\peripheral\smif/cy_smif_memslot.c **** 
 787:Generated_Source\PSoC6\pdl\drivers\peripheral\smif/cy_smif_memslot.c ****         if(CY_SMIF_SUCCESS == result)
 1231              		.loc 1 787 0
 1232 0062 0028     		cmp	r0, #0
 1233 0064 0DD1     		bne	.L61
 788:Generated_Source\PSoC6\pdl\drivers\peripheral\smif/cy_smif_memslot.c ****         {
 789:Generated_Source\PSoC6\pdl\drivers\peripheral\smif/cy_smif_memslot.c ****             result = Cy_SMIF_TransmitData( base, writeBuff, size,
 1234              		.loc 1 789 0
 1235 0066 2B7D     		ldrb	r3, [r5, #20]
 1236 0068 109A     		ldr	r2, [sp, #64]
 1237 006a 0192     		str	r2, [sp, #4]
 1238 006c 0F9A     		ldr	r2, [sp, #60]
 1239 006e 0092     		str	r2, [sp]
 1240 0070 0E9A     		ldr	r2, [sp, #56]
 1241 0072 0799     		ldr	r1, [sp, #28]
 1242 0074 0698     		ldr	r0, [sp, #24]
 1243              	.LVL143:
 1244 0076 FFF7FEFF 		bl	Cy_SMIF_TransmitData
 1245              	.LVL144:
 1246 007a 02E0     		b	.L61
 1247              	.LVL145:
 1248              	.L65:
 764:Generated_Source\PSoC6\pdl\drivers\peripheral\smif/cy_smif_memslot.c ****     cy_en_smif_slave_select_t slaveSelected;
 1249              		.loc 1 764 0
 1250 007c 0448     		ldr	r0, .L67+8
 1251 007e 00E0     		b	.L61
 1252              	.L66:
 1253 0080 0348     		ldr	r0, .L67+8
 1254              	.LVL146:
ARM GAS  C:\Users\ikomb\AppData\Local\Temp\cc5YtlHT.s 			page 38


 1255              	.L61:
 790:Generated_Source\PSoC6\pdl\drivers\peripheral\smif/cy_smif_memslot.c ****                     cmdProg->dataWidth, cmdCmpltCb, context);
 791:Generated_Source\PSoC6\pdl\drivers\peripheral\smif/cy_smif_memslot.c ****         }
 792:Generated_Source\PSoC6\pdl\drivers\peripheral\smif/cy_smif_memslot.c ****     }
 793:Generated_Source\PSoC6\pdl\drivers\peripheral\smif/cy_smif_memslot.c **** 
 794:Generated_Source\PSoC6\pdl\drivers\peripheral\smif/cy_smif_memslot.c ****     return(result);
 795:Generated_Source\PSoC6\pdl\drivers\peripheral\smif/cy_smif_memslot.c **** }
 1256              		.loc 1 795 0
 1257 0082 09B0     		add	sp, sp, #36
 1258              		@ sp needed
 1259              	.LVL147:
 1260              	.LVL148:
 1261 0084 F0BD     		pop	{r4, r5, r6, r7, pc}
 1262              	.L68:
 1263 0086 C046     		.align	2
 1264              	.L67:
 1265 0088 02030000 		.word	770
 1266 008c 00000000 		.word	.LC0
 1267 0090 0400B200 		.word	11665412
 1268              		.cfi_endproc
 1269              	.LFE100:
 1270              		.size	Cy_SMIF_Memslot_CmdProgram, .-Cy_SMIF_Memslot_CmdProgram
 1271              		.section	.text.Cy_SMIF_Memslot_CmdRead,"ax",%progbits
 1272              		.align	2
 1273              		.global	Cy_SMIF_Memslot_CmdRead
 1274              		.code	16
 1275              		.thumb_func
 1276              		.type	Cy_SMIF_Memslot_CmdRead, %function
 1277              	Cy_SMIF_Memslot_CmdRead:
 1278              	.LFB101:
 796:Generated_Source\PSoC6\pdl\drivers\peripheral\smif/cy_smif_memslot.c **** 
 797:Generated_Source\PSoC6\pdl\drivers\peripheral\smif/cy_smif_memslot.c **** 
 798:Generated_Source\PSoC6\pdl\drivers\peripheral\smif/cy_smif_memslot.c **** /*******************************************************************************
 799:Generated_Source\PSoC6\pdl\drivers\peripheral\smif/cy_smif_memslot.c **** * Function Name: Cy_SMIF_Memslot_CmdRead
 800:Generated_Source\PSoC6\pdl\drivers\peripheral\smif/cy_smif_memslot.c **** ****************************************************************************//**
 801:Generated_Source\PSoC6\pdl\drivers\peripheral\smif/cy_smif_memslot.c **** *
 802:Generated_Source\PSoC6\pdl\drivers\peripheral\smif/cy_smif_memslot.c **** * This function performs the Read operation.
 803:Generated_Source\PSoC6\pdl\drivers\peripheral\smif/cy_smif_memslot.c **** *
 804:Generated_Source\PSoC6\pdl\drivers\peripheral\smif/cy_smif_memslot.c **** * \note This function uses the Cy_SMIF_TransmitCommand() API.
 805:Generated_Source\PSoC6\pdl\drivers\peripheral\smif/cy_smif_memslot.c **** * The Cy_SMIF_TransmitCommand() API works in the blocking mode. In the dual quad mode,
 806:Generated_Source\PSoC6\pdl\drivers\peripheral\smif/cy_smif_memslot.c **** * this API works with both types of memory simultaneously.
 807:Generated_Source\PSoC6\pdl\drivers\peripheral\smif/cy_smif_memslot.c **** *
 808:Generated_Source\PSoC6\pdl\drivers\peripheral\smif/cy_smif_memslot.c **** * \param base
 809:Generated_Source\PSoC6\pdl\drivers\peripheral\smif/cy_smif_memslot.c **** * Holds the base address of the SMIF block registers.
 810:Generated_Source\PSoC6\pdl\drivers\peripheral\smif/cy_smif_memslot.c **** *
 811:Generated_Source\PSoC6\pdl\drivers\peripheral\smif/cy_smif_memslot.c **** * \param context
 812:Generated_Source\PSoC6\pdl\drivers\peripheral\smif/cy_smif_memslot.c **** * The internal SMIF context data.
 813:Generated_Source\PSoC6\pdl\drivers\peripheral\smif/cy_smif_memslot.c **** *
 814:Generated_Source\PSoC6\pdl\drivers\peripheral\smif/cy_smif_memslot.c **** * \param memDevice
 815:Generated_Source\PSoC6\pdl\drivers\peripheral\smif/cy_smif_memslot.c **** * The device to which the command is sent.
 816:Generated_Source\PSoC6\pdl\drivers\peripheral\smif/cy_smif_memslot.c **** *
 817:Generated_Source\PSoC6\pdl\drivers\peripheral\smif/cy_smif_memslot.c **** * \param addr
 818:Generated_Source\PSoC6\pdl\drivers\peripheral\smif/cy_smif_memslot.c **** * The address to read.
 819:Generated_Source\PSoC6\pdl\drivers\peripheral\smif/cy_smif_memslot.c **** *
 820:Generated_Source\PSoC6\pdl\drivers\peripheral\smif/cy_smif_memslot.c **** * \param readBuff
 821:Generated_Source\PSoC6\pdl\drivers\peripheral\smif/cy_smif_memslot.c **** * The pointer to the variable where the read data is stored. If this pointer is 
 822:Generated_Source\PSoC6\pdl\drivers\peripheral\smif/cy_smif_memslot.c **** * a NULL, then the function does not enable the interrupt. This use case is 
ARM GAS  C:\Users\ikomb\AppData\Local\Temp\cc5YtlHT.s 			page 39


 823:Generated_Source\PSoC6\pdl\drivers\peripheral\smif/cy_smif_memslot.c **** * typically used when the FIFO is handled outside the interrupt and is managed
 824:Generated_Source\PSoC6\pdl\drivers\peripheral\smif/cy_smif_memslot.c **** * in either a  polling-based code or a DMA. The user would handle the FIFO
 825:Generated_Source\PSoC6\pdl\drivers\peripheral\smif/cy_smif_memslot.c **** * management in a DMA or a polling-based code. 
 826:Generated_Source\PSoC6\pdl\drivers\peripheral\smif/cy_smif_memslot.c **** * If the user provides a NULL pointer in this function and does not handle 
 827:Generated_Source\PSoC6\pdl\drivers\peripheral\smif/cy_smif_memslot.c **** * the FIFO transaction, this could either stall or timeout the operation 
 828:Generated_Source\PSoC6\pdl\drivers\peripheral\smif/cy_smif_memslot.c **** * \ref Cy_SMIF_TransmitData().
 829:Generated_Source\PSoC6\pdl\drivers\peripheral\smif/cy_smif_memslot.c **** *
 830:Generated_Source\PSoC6\pdl\drivers\peripheral\smif/cy_smif_memslot.c **** * \param size
 831:Generated_Source\PSoC6\pdl\drivers\peripheral\smif/cy_smif_memslot.c **** * The size of data to read.
 832:Generated_Source\PSoC6\pdl\drivers\peripheral\smif/cy_smif_memslot.c **** *
 833:Generated_Source\PSoC6\pdl\drivers\peripheral\smif/cy_smif_memslot.c **** * \param cmdCmpltCb
 834:Generated_Source\PSoC6\pdl\drivers\peripheral\smif/cy_smif_memslot.c **** * The callback function to call after the transfer completion. NULL interpreted
 835:Generated_Source\PSoC6\pdl\drivers\peripheral\smif/cy_smif_memslot.c **** * as no callback.
 836:Generated_Source\PSoC6\pdl\drivers\peripheral\smif/cy_smif_memslot.c **** *
 837:Generated_Source\PSoC6\pdl\drivers\peripheral\smif/cy_smif_memslot.c **** * \return A status of the transmission.
 838:Generated_Source\PSoC6\pdl\drivers\peripheral\smif/cy_smif_memslot.c **** *       - \ref CY_SMIF_SUCCESS
 839:Generated_Source\PSoC6\pdl\drivers\peripheral\smif/cy_smif_memslot.c **** *       - \ref CY_SMIF_CMD_FIFO_FULL
 840:Generated_Source\PSoC6\pdl\drivers\peripheral\smif/cy_smif_memslot.c **** *       - \ref CY_SMIF_BAD_PARAM
 841:Generated_Source\PSoC6\pdl\drivers\peripheral\smif/cy_smif_memslot.c **** *       - \ref CY_SMIF_EXCEED_TIMEOUT
 842:Generated_Source\PSoC6\pdl\drivers\peripheral\smif/cy_smif_memslot.c **** *
 843:Generated_Source\PSoC6\pdl\drivers\peripheral\smif/cy_smif_memslot.c **** *******************************************************************************/
 844:Generated_Source\PSoC6\pdl\drivers\peripheral\smif/cy_smif_memslot.c **** cy_en_smif_status_t Cy_SMIF_Memslot_CmdRead(SMIF_Type *base,
 845:Generated_Source\PSoC6\pdl\drivers\peripheral\smif/cy_smif_memslot.c ****                                 cy_stc_smif_mem_config_t const *memDevice,
 846:Generated_Source\PSoC6\pdl\drivers\peripheral\smif/cy_smif_memslot.c ****                                 uint8_t const *addr,
 847:Generated_Source\PSoC6\pdl\drivers\peripheral\smif/cy_smif_memslot.c ****                                 uint8_t* readBuff,
 848:Generated_Source\PSoC6\pdl\drivers\peripheral\smif/cy_smif_memslot.c ****                                 uint32_t size,
 849:Generated_Source\PSoC6\pdl\drivers\peripheral\smif/cy_smif_memslot.c ****                                 cy_smif_event_cb_t cmdCmpltCb,
 850:Generated_Source\PSoC6\pdl\drivers\peripheral\smif/cy_smif_memslot.c ****                                 cy_stc_smif_context_t *context)
 851:Generated_Source\PSoC6\pdl\drivers\peripheral\smif/cy_smif_memslot.c **** {
 1279              		.loc 1 851 0
 1280              		.cfi_startproc
 1281              		@ args = 12, pretend = 0, frame = 8
 1282              		@ frame_needed = 0, uses_anonymous_args = 0
 1283              	.LVL149:
 1284 0000 F0B5     		push	{r4, r5, r6, r7, lr}
 1285              		.cfi_def_cfa_offset 20
 1286              		.cfi_offset 4, -20
 1287              		.cfi_offset 5, -16
 1288              		.cfi_offset 6, -12
 1289              		.cfi_offset 7, -8
 1290              		.cfi_offset 14, -4
 1291 0002 89B0     		sub	sp, sp, #36
 1292              		.cfi_def_cfa_offset 56
 1293 0004 0690     		str	r0, [sp, #24]
 1294 0006 171E     		subs	r7, r2, #0
 1295 0008 0793     		str	r3, [sp, #28]
 1296              	.LVL150:
 852:Generated_Source\PSoC6\pdl\drivers\peripheral\smif/cy_smif_memslot.c ****     cy_en_smif_status_t result = CY_SMIF_BAD_PARAM;
 853:Generated_Source\PSoC6\pdl\drivers\peripheral\smif/cy_smif_memslot.c ****     cy_en_smif_slave_select_t slaveSelected;
 854:Generated_Source\PSoC6\pdl\drivers\peripheral\smif/cy_smif_memslot.c ****     cy_stc_smif_mem_device_cfg_t *device = memDevice->deviceCfg;
 1297              		.loc 1 854 0
 1298 000a 8B69     		ldr	r3, [r1, #24]
 1299              	.LVL151:
 855:Generated_Source\PSoC6\pdl\drivers\peripheral\smif/cy_smif_memslot.c ****     cy_stc_smif_mem_cmd_t *cmdRead = device->readCmd;
 1300              		.loc 1 855 0
 1301 000c 9C68     		ldr	r4, [r3, #8]
 1302              	.LVL152:
ARM GAS  C:\Users\ikomb\AppData\Local\Temp\cc5YtlHT.s 			page 40


 856:Generated_Source\PSoC6\pdl\drivers\peripheral\smif/cy_smif_memslot.c **** 
 857:Generated_Source\PSoC6\pdl\drivers\peripheral\smif/cy_smif_memslot.c ****     if (NULL != addr)
 1303              		.loc 1 857 0
 1304 000e 3AD0     		beq	.L75
 858:Generated_Source\PSoC6\pdl\drivers\peripheral\smif/cy_smif_memslot.c ****     {
 859:Generated_Source\PSoC6\pdl\drivers\peripheral\smif/cy_smif_memslot.c ****         slaveSelected = (0U == memDevice->dualQuadSlots)?  memDevice->slaveSelect :
 1305              		.loc 1 859 0
 1306 0010 4869     		ldr	r0, [r1, #20]
 1307              	.LVL153:
 1308 0012 0028     		cmp	r0, #0
 1309 0014 01D1     		bne	.L71
 1310              		.loc 1 859 0 is_stmt 0 discriminator 1
 1311 0016 0E78     		ldrb	r6, [r1]
 1312 0018 00E0     		b	.L72
 1313              	.L71:
 1314              		.loc 1 859 0 discriminator 2
 1315 001a C6B2     		uxtb	r6, r0
 1316              	.L72:
 1317              	.LVL154:
 860:Generated_Source\PSoC6\pdl\drivers\peripheral\smif/cy_smif_memslot.c ****                                (cy_en_smif_slave_select_t)memDevice->dualQuadSlots;
 861:Generated_Source\PSoC6\pdl\drivers\peripheral\smif/cy_smif_memslot.c **** 
 862:Generated_Source\PSoC6\pdl\drivers\peripheral\smif/cy_smif_memslot.c ****         result = Cy_SMIF_TransmitCommand( base, (uint8_t)cmdRead->command,
 1318              		.loc 1 862 0 is_stmt 1 discriminator 4
 1319 001c 2178     		ldrb	r1, [r4]
 1320              	.LVL155:
 1321 001e 2279     		ldrb	r2, [r4, #4]
 1322              	.LVL156:
 1323 0020 1B68     		ldr	r3, [r3]
 1324              	.LVL157:
 1325 0022 6079     		ldrb	r0, [r4, #5]
 1326 0024 109D     		ldr	r5, [sp, #64]
 1327 0026 0495     		str	r5, [sp, #16]
 1328              	.LVL158:
 1329 0028 0025     		movs	r5, #0
 1330 002a 0395     		str	r5, [sp, #12]
 1331 002c 0296     		str	r6, [sp, #8]
 1332 002e 0190     		str	r0, [sp, #4]
 1333 0030 0093     		str	r3, [sp]
 1334 0032 3B00     		movs	r3, r7
 1335 0034 0698     		ldr	r0, [sp, #24]
 1336 0036 FFF7FEFF 		bl	Cy_SMIF_TransmitCommand
 1337              	.LVL159:
 863:Generated_Source\PSoC6\pdl\drivers\peripheral\smif/cy_smif_memslot.c ****                     cmdRead->cmdWidth, addr, device->numOfAddrBytes,
 864:Generated_Source\PSoC6\pdl\drivers\peripheral\smif/cy_smif_memslot.c ****                     cmdRead->addrWidth, slaveSelected, CY_SMIF_TX_NOT_LAST_BYTE,
 865:Generated_Source\PSoC6\pdl\drivers\peripheral\smif/cy_smif_memslot.c ****                     context);
 866:Generated_Source\PSoC6\pdl\drivers\peripheral\smif/cy_smif_memslot.c **** 
 867:Generated_Source\PSoC6\pdl\drivers\peripheral\smif/cy_smif_memslot.c ****         if((CY_SMIF_SUCCESS == result) && (0U < cmdRead->dummyCycles))
 1338              		.loc 1 867 0 discriminator 4
 1339 003a 0028     		cmp	r0, #0
 1340 003c 05D1     		bne	.L73
 1341              		.loc 1 867 0 is_stmt 0 discriminator 1
 1342 003e 2169     		ldr	r1, [r4, #16]
 1343 0040 0029     		cmp	r1, #0
 1344 0042 02D0     		beq	.L73
 868:Generated_Source\PSoC6\pdl\drivers\peripheral\smif/cy_smif_memslot.c ****         {
 869:Generated_Source\PSoC6\pdl\drivers\peripheral\smif/cy_smif_memslot.c ****             result = Cy_SMIF_SendDummyCycles(base, cmdRead->dummyCycles);
 1345              		.loc 1 869 0 is_stmt 1
ARM GAS  C:\Users\ikomb\AppData\Local\Temp\cc5YtlHT.s 			page 41


 1346 0044 0698     		ldr	r0, [sp, #24]
 1347              	.LVL160:
 1348 0046 FFF7FEFF 		bl	Cy_SMIF_SendDummyCycles
 1349              	.LVL161:
 1350              	.L73:
 870:Generated_Source\PSoC6\pdl\drivers\peripheral\smif/cy_smif_memslot.c ****         }
 871:Generated_Source\PSoC6\pdl\drivers\peripheral\smif/cy_smif_memslot.c **** 
 872:Generated_Source\PSoC6\pdl\drivers\peripheral\smif/cy_smif_memslot.c ****         if((CY_SMIF_SUCCESS == result) && (CY_SMIF_NO_COMMAND_OR_MODE != cmdRead->mode))
 1351              		.loc 1 872 0
 1352 004a 0028     		cmp	r0, #0
 1353 004c 0ED1     		bne	.L74
 1354              		.loc 1 872 0 is_stmt 0 discriminator 1
 1355 004e A168     		ldr	r1, [r4, #8]
 1356 0050 4B1C     		adds	r3, r1, #1
 1357 0052 0BD0     		beq	.L74
 873:Generated_Source\PSoC6\pdl\drivers\peripheral\smif/cy_smif_memslot.c ****         {
 874:Generated_Source\PSoC6\pdl\drivers\peripheral\smif/cy_smif_memslot.c ****             result = Cy_SMIF_TransmitCommand(base, (uint8_t)cmdRead->mode,
 1358              		.loc 1 874 0 is_stmt 1
 1359 0054 C9B2     		uxtb	r1, r1
 1360 0056 227D     		ldrb	r2, [r4, #20]
 1361 0058 109B     		ldr	r3, [sp, #64]
 1362 005a 0493     		str	r3, [sp, #16]
 1363 005c 0023     		movs	r3, #0
 1364 005e 0393     		str	r3, [sp, #12]
 1365 0060 0296     		str	r6, [sp, #8]
 1366 0062 0193     		str	r3, [sp, #4]
 1367 0064 0093     		str	r3, [sp]
 1368 0066 0698     		ldr	r0, [sp, #24]
 1369              	.LVL162:
 1370 0068 FFF7FEFF 		bl	Cy_SMIF_TransmitCommand
 1371              	.LVL163:
 1372              	.L74:
 875:Generated_Source\PSoC6\pdl\drivers\peripheral\smif/cy_smif_memslot.c ****                         cmdRead->dataWidth, CY_SMIF_CMD_WITHOUT_PARAM,
 876:Generated_Source\PSoC6\pdl\drivers\peripheral\smif/cy_smif_memslot.c ****                         CY_SMIF_CMD_WITHOUT_PARAM,
 877:Generated_Source\PSoC6\pdl\drivers\peripheral\smif/cy_smif_memslot.c ****                         (cy_en_smif_txfr_width_t) CY_SMIF_CMD_WITHOUT_PARAM,
 878:Generated_Source\PSoC6\pdl\drivers\peripheral\smif/cy_smif_memslot.c ****                         (cy_en_smif_slave_select_t)slaveSelected,
 879:Generated_Source\PSoC6\pdl\drivers\peripheral\smif/cy_smif_memslot.c ****                         CY_SMIF_TX_NOT_LAST_BYTE, context);
 880:Generated_Source\PSoC6\pdl\drivers\peripheral\smif/cy_smif_memslot.c ****         }
 881:Generated_Source\PSoC6\pdl\drivers\peripheral\smif/cy_smif_memslot.c **** 
 882:Generated_Source\PSoC6\pdl\drivers\peripheral\smif/cy_smif_memslot.c ****         if(CY_SMIF_SUCCESS == result)
 1373              		.loc 1 882 0
 1374 006c 0028     		cmp	r0, #0
 1375 006e 0BD1     		bne	.L70
 883:Generated_Source\PSoC6\pdl\drivers\peripheral\smif/cy_smif_memslot.c ****         {
 884:Generated_Source\PSoC6\pdl\drivers\peripheral\smif/cy_smif_memslot.c ****             result = Cy_SMIF_ReceiveData(base, readBuff, size,
 1376              		.loc 1 884 0
 1377 0070 237D     		ldrb	r3, [r4, #20]
 1378 0072 109A     		ldr	r2, [sp, #64]
 1379 0074 0192     		str	r2, [sp, #4]
 1380 0076 0F9A     		ldr	r2, [sp, #60]
 1381 0078 0092     		str	r2, [sp]
 1382 007a 0E9A     		ldr	r2, [sp, #56]
 1383 007c 0799     		ldr	r1, [sp, #28]
 1384 007e 0698     		ldr	r0, [sp, #24]
 1385              	.LVL164:
 1386 0080 FFF7FEFF 		bl	Cy_SMIF_ReceiveData
 1387              	.LVL165:
ARM GAS  C:\Users\ikomb\AppData\Local\Temp\cc5YtlHT.s 			page 42


 1388 0084 00E0     		b	.L70
 1389              	.LVL166:
 1390              	.L75:
 852:Generated_Source\PSoC6\pdl\drivers\peripheral\smif/cy_smif_memslot.c ****     cy_en_smif_slave_select_t slaveSelected;
 1391              		.loc 1 852 0
 1392 0086 0148     		ldr	r0, .L76
 1393              	.LVL167:
 1394              	.L70:
 885:Generated_Source\PSoC6\pdl\drivers\peripheral\smif/cy_smif_memslot.c ****                         cmdRead->dataWidth, cmdCmpltCb, context);
 886:Generated_Source\PSoC6\pdl\drivers\peripheral\smif/cy_smif_memslot.c ****         }
 887:Generated_Source\PSoC6\pdl\drivers\peripheral\smif/cy_smif_memslot.c ****     }
 888:Generated_Source\PSoC6\pdl\drivers\peripheral\smif/cy_smif_memslot.c **** 
 889:Generated_Source\PSoC6\pdl\drivers\peripheral\smif/cy_smif_memslot.c ****     return(result);
 890:Generated_Source\PSoC6\pdl\drivers\peripheral\smif/cy_smif_memslot.c **** }
 1395              		.loc 1 890 0
 1396 0088 09B0     		add	sp, sp, #36
 1397              		@ sp needed
 1398              	.LVL168:
 1399              	.LVL169:
 1400 008a F0BD     		pop	{r4, r5, r6, r7, pc}
 1401              	.L77:
 1402              		.align	2
 1403              	.L76:
 1404 008c 0400B200 		.word	11665412
 1405              		.cfi_endproc
 1406              	.LFE101:
 1407              		.size	Cy_SMIF_Memslot_CmdRead, .-Cy_SMIF_Memslot_CmdRead
 1408              		.section	.text.Cy_SMIF_Memslot_SfdpDetect,"ax",%progbits
 1409              		.align	2
 1410              		.global	Cy_SMIF_Memslot_SfdpDetect
 1411              		.code	16
 1412              		.thumb_func
 1413              		.type	Cy_SMIF_Memslot_SfdpDetect, %function
 1414              	Cy_SMIF_Memslot_SfdpDetect:
 1415              	.LFB102:
 891:Generated_Source\PSoC6\pdl\drivers\peripheral\smif/cy_smif_memslot.c **** 
 892:Generated_Source\PSoC6\pdl\drivers\peripheral\smif/cy_smif_memslot.c **** 
 893:Generated_Source\PSoC6\pdl\drivers\peripheral\smif/cy_smif_memslot.c **** /*******************************************************************************
 894:Generated_Source\PSoC6\pdl\drivers\peripheral\smif/cy_smif_memslot.c **** * Function Name: Cy_SMIF_Memslot_SfdpDetect
 895:Generated_Source\PSoC6\pdl\drivers\peripheral\smif/cy_smif_memslot.c **** ****************************************************************************//**
 896:Generated_Source\PSoC6\pdl\drivers\peripheral\smif/cy_smif_memslot.c **** *
 897:Generated_Source\PSoC6\pdl\drivers\peripheral\smif/cy_smif_memslot.c **** * This function detects the device signature for SFDP devices.
 898:Generated_Source\PSoC6\pdl\drivers\peripheral\smif/cy_smif_memslot.c **** * Refer to the SFDP spec (JESD216B) for details.
 899:Generated_Source\PSoC6\pdl\drivers\peripheral\smif/cy_smif_memslot.c **** * The function asks the device using an SPI and then populates the relevant
 900:Generated_Source\PSoC6\pdl\drivers\peripheral\smif/cy_smif_memslot.c **** * parameters for \ref cy_stc_smif_mem_device_cfg_t.
 901:Generated_Source\PSoC6\pdl\drivers\peripheral\smif/cy_smif_memslot.c **** *
 902:Generated_Source\PSoC6\pdl\drivers\peripheral\smif/cy_smif_memslot.c **** * \note This function is a blocking function and blocks until the structure data
 903:Generated_Source\PSoC6\pdl\drivers\peripheral\smif/cy_smif_memslot.c **** * is read and returned. This function uses \ref Cy_SMIF_TransmitCommand()
 904:Generated_Source\PSoC6\pdl\drivers\peripheral\smif/cy_smif_memslot.c **** * If there is no support for SFDP in the memory device, the API returns an
 905:Generated_Source\PSoC6\pdl\drivers\peripheral\smif/cy_smif_memslot.c **** * error condition. The function requires:
 906:Generated_Source\PSoC6\pdl\drivers\peripheral\smif/cy_smif_memslot.c **** *   - SMIF initialized and enabled to work in the normal mode;
 907:Generated_Source\PSoC6\pdl\drivers\peripheral\smif/cy_smif_memslot.c **** *   - readSfdpCmd field of \ref cy_stc_smif_mem_device_cfg_t is enabled.
 908:Generated_Source\PSoC6\pdl\drivers\peripheral\smif/cy_smif_memslot.c **** *
 909:Generated_Source\PSoC6\pdl\drivers\peripheral\smif/cy_smif_memslot.c **** * \note The SFDP detect takes into account the types of the SPI supported by the
 910:Generated_Source\PSoC6\pdl\drivers\peripheral\smif/cy_smif_memslot.c **** * memory device and also the dataSelect option selected to choose which SPI mode
 911:Generated_Source\PSoC6\pdl\drivers\peripheral\smif/cy_smif_memslot.c **** * (SPI, DSPI, QSPI) to load into the structures. The algorithm prefers
 912:Generated_Source\PSoC6\pdl\drivers\peripheral\smif/cy_smif_memslot.c **** * QSPI>DSPI>SPI, provided there is support for it in the memory device and the
ARM GAS  C:\Users\ikomb\AppData\Local\Temp\cc5YtlHT.s 			page 43


 913:Generated_Source\PSoC6\pdl\drivers\peripheral\smif/cy_smif_memslot.c **** * dataSelect selected by the user.
 914:Generated_Source\PSoC6\pdl\drivers\peripheral\smif/cy_smif_memslot.c **** *
 915:Generated_Source\PSoC6\pdl\drivers\peripheral\smif/cy_smif_memslot.c **** * \param base
 916:Generated_Source\PSoC6\pdl\drivers\peripheral\smif/cy_smif_memslot.c **** * Holds the base address of the SMIF block registers.
 917:Generated_Source\PSoC6\pdl\drivers\peripheral\smif/cy_smif_memslot.c **** *
 918:Generated_Source\PSoC6\pdl\drivers\peripheral\smif/cy_smif_memslot.c **** * \param context
 919:Generated_Source\PSoC6\pdl\drivers\peripheral\smif/cy_smif_memslot.c **** * The internal SMIF context data.
 920:Generated_Source\PSoC6\pdl\drivers\peripheral\smif/cy_smif_memslot.c **** *
 921:Generated_Source\PSoC6\pdl\drivers\peripheral\smif/cy_smif_memslot.c **** * \param device
 922:Generated_Source\PSoC6\pdl\drivers\peripheral\smif/cy_smif_memslot.c **** * The device structure instance declared by the user. This is where the detected
 923:Generated_Source\PSoC6\pdl\drivers\peripheral\smif/cy_smif_memslot.c **** * parameters are stored and returned.
 924:Generated_Source\PSoC6\pdl\drivers\peripheral\smif/cy_smif_memslot.c **** *
 925:Generated_Source\PSoC6\pdl\drivers\peripheral\smif/cy_smif_memslot.c **** * \param slaveSelect
 926:Generated_Source\PSoC6\pdl\drivers\peripheral\smif/cy_smif_memslot.c **** * The slave select line for the device.
 927:Generated_Source\PSoC6\pdl\drivers\peripheral\smif/cy_smif_memslot.c **** *
 928:Generated_Source\PSoC6\pdl\drivers\peripheral\smif/cy_smif_memslot.c **** * \param dataSelect
 929:Generated_Source\PSoC6\pdl\drivers\peripheral\smif/cy_smif_memslot.c **** * The data line selection options for a slave device.
 930:Generated_Source\PSoC6\pdl\drivers\peripheral\smif/cy_smif_memslot.c **** *
 931:Generated_Source\PSoC6\pdl\drivers\peripheral\smif/cy_smif_memslot.c **** * \return A status of the transmission.
 932:Generated_Source\PSoC6\pdl\drivers\peripheral\smif/cy_smif_memslot.c **** *       - \ref CY_SMIF_SUCCESS
 933:Generated_Source\PSoC6\pdl\drivers\peripheral\smif/cy_smif_memslot.c **** *       - \ref CY_SMIF_CMD_FIFO_FULL
 934:Generated_Source\PSoC6\pdl\drivers\peripheral\smif/cy_smif_memslot.c **** *       - \ref CY_SMIF_NO_SFDP_SUPPORT
 935:Generated_Source\PSoC6\pdl\drivers\peripheral\smif/cy_smif_memslot.c **** *       - \ref CY_SMIF_EXCEED_TIMEOUT
 936:Generated_Source\PSoC6\pdl\drivers\peripheral\smif/cy_smif_memslot.c **** *
 937:Generated_Source\PSoC6\pdl\drivers\peripheral\smif/cy_smif_memslot.c **** *******************************************************************************/
 938:Generated_Source\PSoC6\pdl\drivers\peripheral\smif/cy_smif_memslot.c **** cy_en_smif_status_t Cy_SMIF_Memslot_SfdpDetect(SMIF_Type *base,
 939:Generated_Source\PSoC6\pdl\drivers\peripheral\smif/cy_smif_memslot.c ****                                     cy_stc_smif_mem_device_cfg_t *device,
 940:Generated_Source\PSoC6\pdl\drivers\peripheral\smif/cy_smif_memslot.c ****                                     cy_en_smif_slave_select_t slaveSelect,
 941:Generated_Source\PSoC6\pdl\drivers\peripheral\smif/cy_smif_memslot.c ****                                     cy_en_smif_data_select_t dataSelect,
 942:Generated_Source\PSoC6\pdl\drivers\peripheral\smif/cy_smif_memslot.c ****                                     cy_stc_smif_context_t *context)
 943:Generated_Source\PSoC6\pdl\drivers\peripheral\smif/cy_smif_memslot.c **** {
 1416              		.loc 1 943 0
 1417              		.cfi_startproc
 1418              		@ args = 4, pretend = 0, frame = 280
 1419              		@ frame_needed = 0, uses_anonymous_args = 0
 1420              	.LVL170:
 1421 0000 F0B5     		push	{r4, r5, r6, r7, lr}
 1422              		.cfi_def_cfa_offset 20
 1423              		.cfi_offset 4, -20
 1424              		.cfi_offset 5, -16
 1425              		.cfi_offset 6, -12
 1426              		.cfi_offset 7, -8
 1427              		.cfi_offset 14, -4
 1428 0002 5746     		mov	r7, r10
 1429 0004 4E46     		mov	r6, r9
 1430 0006 4546     		mov	r5, r8
 1431 0008 E0B4     		push	{r5, r6, r7}
 1432              		.cfi_def_cfa_offset 32
 1433              		.cfi_offset 8, -32
 1434              		.cfi_offset 9, -28
 1435              		.cfi_offset 10, -24
 1436 000a CCB0     		sub	sp, sp, #304
 1437              		.cfi_def_cfa_offset 336
 1438 000c 0790     		str	r0, [sp, #28]
 1439 000e 0D1E     		subs	r5, r1, #0
 1440 0010 0892     		str	r2, [sp, #32]
 1441 0012 0993     		str	r3, [sp, #36]
ARM GAS  C:\Users\ikomb\AppData\Local\Temp\cc5YtlHT.s 			page 44


 1442 0014 549E     		ldr	r6, [sp, #336]
 944:Generated_Source\PSoC6\pdl\drivers\peripheral\smif/cy_smif_memslot.c ****     /* Check input parameters */
 945:Generated_Source\PSoC6\pdl\drivers\peripheral\smif/cy_smif_memslot.c ****     CY_ASSERT_L1(NULL != device);
 1443              		.loc 1 945 0
 1444 0016 03D1     		bne	.L79
 1445              		.loc 1 945 0 is_stmt 0 discriminator 1
 1446 0018 C849     		ldr	r1, .L135
 1447              	.LVL171:
 1448 001a C948     		ldr	r0, .L135+4
 1449              	.LVL172:
 1450 001c FFF7FEFF 		bl	Cy_SysLib_AssertFailed
 1451              	.LVL173:
 1452              	.L79:
 946:Generated_Source\PSoC6\pdl\drivers\peripheral\smif/cy_smif_memslot.c ****     CY_ASSERT_L1(NULL != device->readSfdpCmd);
 1453              		.loc 1 946 0 is_stmt 1
 1454 0020 6B6B     		ldr	r3, [r5, #52]
 1455 0022 002B     		cmp	r3, #0
 1456 0024 03D1     		bne	.L80
 1457              		.loc 1 946 0 is_stmt 0 discriminator 1
 1458 0026 C749     		ldr	r1, .L135+8
 1459 0028 C548     		ldr	r0, .L135+4
 1460 002a FFF7FEFF 		bl	Cy_SysLib_AssertFailed
 1461              	.LVL174:
 1462              	.L80:
 947:Generated_Source\PSoC6\pdl\drivers\peripheral\smif/cy_smif_memslot.c ****     
 948:Generated_Source\PSoC6\pdl\drivers\peripheral\smif/cy_smif_memslot.c ****     uint8_t sfdpBuffer[CY_SMIF_SFDP_LENGTH];
 949:Generated_Source\PSoC6\pdl\drivers\peripheral\smif/cy_smif_memslot.c ****     uint8_t sfdpAddress[CY_SMIF_SFDP_ADDRESS_LENGTH] = {0x00U, 0x00U, 0x00U};
 1463              		.loc 1 949 0 is_stmt 1
 1464 002e 0BAB     		add	r3, sp, #44
 1465 0030 0024     		movs	r4, #0
 1466 0032 1C70     		strb	r4, [r3]
 1467 0034 5C70     		strb	r4, [r3, #1]
 1468 0036 9C70     		strb	r4, [r3, #2]
 950:Generated_Source\PSoC6\pdl\drivers\peripheral\smif/cy_smif_memslot.c ****     cy_en_smif_status_t result;
 951:Generated_Source\PSoC6\pdl\drivers\peripheral\smif/cy_smif_memslot.c ****     cy_stc_smif_mem_cmd_t *cmdSfdp = device->readSfdpCmd;
 1469              		.loc 1 951 0
 1470 0038 6F6B     		ldr	r7, [r5, #52]
 1471              	.LVL175:
 952:Generated_Source\PSoC6\pdl\drivers\peripheral\smif/cy_smif_memslot.c **** 
 953:Generated_Source\PSoC6\pdl\drivers\peripheral\smif/cy_smif_memslot.c ****     /* Slave slot initialization */
 954:Generated_Source\PSoC6\pdl\drivers\peripheral\smif/cy_smif_memslot.c ****     Cy_SMIF_SetDataSelect(base, slaveSelect, dataSelect);
 1472              		.loc 1 954 0
 1473 003a 099A     		ldr	r2, [sp, #36]
 1474 003c 0899     		ldr	r1, [sp, #32]
 1475 003e 0798     		ldr	r0, [sp, #28]
 1476 0040 FFF7FEFF 		bl	Cy_SMIF_SetDataSelect
 1477              	.LVL176:
 955:Generated_Source\PSoC6\pdl\drivers\peripheral\smif/cy_smif_memslot.c **** 
 956:Generated_Source\PSoC6\pdl\drivers\peripheral\smif/cy_smif_memslot.c ****     result = Cy_SMIF_TransmitCommand( base, (uint8_t)cmdSfdp->command,
 1478              		.loc 1 956 0
 1479 0044 3978     		ldrb	r1, [r7]
 1480 0046 3A79     		ldrb	r2, [r7, #4]
 1481 0048 7B79     		ldrb	r3, [r7, #5]
 1482 004a 0496     		str	r6, [sp, #16]
 1483 004c 0394     		str	r4, [sp, #12]
 1484 004e 089C     		ldr	r4, [sp, #32]
 1485 0050 0294     		str	r4, [sp, #8]
ARM GAS  C:\Users\ikomb\AppData\Local\Temp\cc5YtlHT.s 			page 45


 1486 0052 0193     		str	r3, [sp, #4]
 1487 0054 0323     		movs	r3, #3
 1488 0056 0093     		str	r3, [sp]
 1489 0058 0BAB     		add	r3, sp, #44
 1490 005a 0798     		ldr	r0, [sp, #28]
 1491 005c FFF7FEFF 		bl	Cy_SMIF_TransmitCommand
 1492              	.LVL177:
 1493 0060 041E     		subs	r4, r0, #0
 1494              	.LVL178:
 957:Generated_Source\PSoC6\pdl\drivers\peripheral\smif/cy_smif_memslot.c ****                 cmdSfdp->cmdWidth, sfdpAddress, CY_SMIF_SFDP_ADDRESS_LENGTH,
 958:Generated_Source\PSoC6\pdl\drivers\peripheral\smif/cy_smif_memslot.c ****                 cmdSfdp->addrWidth, slaveSelect, CY_SMIF_TX_NOT_LAST_BYTE,
 959:Generated_Source\PSoC6\pdl\drivers\peripheral\smif/cy_smif_memslot.c ****                 context);
 960:Generated_Source\PSoC6\pdl\drivers\peripheral\smif/cy_smif_memslot.c ****     if(CY_SMIF_SUCCESS == result)
 1495              		.loc 1 960 0
 1496 0062 04D1     		bne	.L81
 961:Generated_Source\PSoC6\pdl\drivers\peripheral\smif/cy_smif_memslot.c ****     {
 962:Generated_Source\PSoC6\pdl\drivers\peripheral\smif/cy_smif_memslot.c ****         result = Cy_SMIF_SendDummyCycles(base, cmdSfdp->dummyCycles);
 1497              		.loc 1 962 0
 1498 0064 3969     		ldr	r1, [r7, #16]
 1499 0066 0798     		ldr	r0, [sp, #28]
 1500              	.LVL179:
 1501 0068 FFF7FEFF 		bl	Cy_SMIF_SendDummyCycles
 1502              	.LVL180:
 1503 006c 0400     		movs	r4, r0
 1504              	.LVL181:
 1505              	.L81:
 963:Generated_Source\PSoC6\pdl\drivers\peripheral\smif/cy_smif_memslot.c ****     }
 964:Generated_Source\PSoC6\pdl\drivers\peripheral\smif/cy_smif_memslot.c **** 
 965:Generated_Source\PSoC6\pdl\drivers\peripheral\smif/cy_smif_memslot.c ****     if(CY_SMIF_SUCCESS == result)
 1506              		.loc 1 965 0
 1507 006e 002C     		cmp	r4, #0
 1508 0070 09D1     		bne	.L82
 966:Generated_Source\PSoC6\pdl\drivers\peripheral\smif/cy_smif_memslot.c ****     {
 967:Generated_Source\PSoC6\pdl\drivers\peripheral\smif/cy_smif_memslot.c ****         result = Cy_SMIF_ReceiveData( base, sfdpBuffer, CY_SMIF_SFDP_LENGTH,
 1509              		.loc 1 967 0
 1510 0072 3B7D     		ldrb	r3, [r7, #20]
 1511 0074 0196     		str	r6, [sp, #4]
 1512 0076 0022     		movs	r2, #0
 1513 0078 0092     		str	r2, [sp]
 1514 007a FF32     		adds	r2, r2, #255
 1515 007c 0CA9     		add	r1, sp, #48
 1516 007e 0798     		ldr	r0, [sp, #28]
 1517              	.LVL182:
 1518 0080 FFF7FEFF 		bl	Cy_SMIF_ReceiveData
 1519              	.LVL183:
 1520 0084 0400     		movs	r4, r0
 1521              	.LVL184:
 1522              	.L82:
 968:Generated_Source\PSoC6\pdl\drivers\peripheral\smif/cy_smif_memslot.c ****                     cmdSfdp->dataWidth, NULL, context);
 969:Generated_Source\PSoC6\pdl\drivers\peripheral\smif/cy_smif_memslot.c ****     }
 970:Generated_Source\PSoC6\pdl\drivers\peripheral\smif/cy_smif_memslot.c **** 
 971:Generated_Source\PSoC6\pdl\drivers\peripheral\smif/cy_smif_memslot.c ****     if (CY_SMIF_SUCCESS == result)
 1523              		.loc 1 971 0
 1524 0086 002C     		cmp	r4, #0
 1525 0088 18D1     		bne	.L83
 1526              	.LBB15:
 972:Generated_Source\PSoC6\pdl\drivers\peripheral\smif/cy_smif_memslot.c ****     {
ARM GAS  C:\Users\ikomb\AppData\Local\Temp\cc5YtlHT.s 			page 46


 973:Generated_Source\PSoC6\pdl\drivers\peripheral\smif/cy_smif_memslot.c ****         uint32_t cmdTimeout = context->timeout;
 1527              		.loc 1 973 0
 1528 008a 776A     		ldr	r7, [r6, #36]
 1529              	.LVL185:
 974:Generated_Source\PSoC6\pdl\drivers\peripheral\smif/cy_smif_memslot.c ****         while (((uint32_t) CY_SMIF_REC_CMPLT != context->transferStatus) &&
 1530              		.loc 1 974 0
 1531 008c 2300     		movs	r3, r4
 1532 008e 0CE0     		b	.L84
 1533              	.LVL186:
 1534              	.L86:
 1535              	.LBB16:
 1536              	.LBB17:
 1537              		.file 2 "Generated_Source\\PSoC6\\pdl\\drivers\\peripheral\\smif\\cy_smif.h"
   1:Generated_Source\PSoC6\pdl\drivers\peripheral\smif/cy_smif.h **** /***************************************************************************//**
   2:Generated_Source\PSoC6\pdl\drivers\peripheral\smif/cy_smif.h **** * \file cy_smif.h
   3:Generated_Source\PSoC6\pdl\drivers\peripheral\smif/cy_smif.h **** * \version 1.10.1
   4:Generated_Source\PSoC6\pdl\drivers\peripheral\smif/cy_smif.h **** *
   5:Generated_Source\PSoC6\pdl\drivers\peripheral\smif/cy_smif.h **** * Provides an API declaration of the Cypress SMIF driver.
   6:Generated_Source\PSoC6\pdl\drivers\peripheral\smif/cy_smif.h **** *
   7:Generated_Source\PSoC6\pdl\drivers\peripheral\smif/cy_smif.h **** ********************************************************************************
   8:Generated_Source\PSoC6\pdl\drivers\peripheral\smif/cy_smif.h **** * \copyright
   9:Generated_Source\PSoC6\pdl\drivers\peripheral\smif/cy_smif.h **** * Copyright 2016-2018, Cypress Semiconductor Corporation.  All rights reserved.
  10:Generated_Source\PSoC6\pdl\drivers\peripheral\smif/cy_smif.h **** * You may use this file only in accordance with the license, terms, conditions,
  11:Generated_Source\PSoC6\pdl\drivers\peripheral\smif/cy_smif.h **** * disclaimers, and limitations in the end user license agreement accompanying
  12:Generated_Source\PSoC6\pdl\drivers\peripheral\smif/cy_smif.h **** * the software package with which this file was provided.
  13:Generated_Source\PSoC6\pdl\drivers\peripheral\smif/cy_smif.h **** *******************************************************************************/
  14:Generated_Source\PSoC6\pdl\drivers\peripheral\smif/cy_smif.h **** 
  15:Generated_Source\PSoC6\pdl\drivers\peripheral\smif/cy_smif.h **** /**
  16:Generated_Source\PSoC6\pdl\drivers\peripheral\smif/cy_smif.h **** * \defgroup group_smif Serial Memory Interface (SMIF)
  17:Generated_Source\PSoC6\pdl\drivers\peripheral\smif/cy_smif.h **** * \{
  18:Generated_Source\PSoC6\pdl\drivers\peripheral\smif/cy_smif.h **** * The SPI-based communication interface for external memory devices.
  19:Generated_Source\PSoC6\pdl\drivers\peripheral\smif/cy_smif.h **** *
  20:Generated_Source\PSoC6\pdl\drivers\peripheral\smif/cy_smif.h **** * SMIF: Serial Memory Interface: This IP block implements an SPI-based
  21:Generated_Source\PSoC6\pdl\drivers\peripheral\smif/cy_smif.h **** * communication interface for interfacing external memory devices to PSoC. The SMIF
  22:Generated_Source\PSoC6\pdl\drivers\peripheral\smif/cy_smif.h **** * supports Octal-SPI, Dual Quad-SPI, Quad-SPI, DSPI, and SPI.
  23:Generated_Source\PSoC6\pdl\drivers\peripheral\smif/cy_smif.h **** *
  24:Generated_Source\PSoC6\pdl\drivers\peripheral\smif/cy_smif.h **** * Features
  25:Generated_Source\PSoC6\pdl\drivers\peripheral\smif/cy_smif.h **** *   - Standard SPI Master interface
  26:Generated_Source\PSoC6\pdl\drivers\peripheral\smif/cy_smif.h **** *   - Supports Single/Dual/Quad/Octal SPI Memories
  27:Generated_Source\PSoC6\pdl\drivers\peripheral\smif/cy_smif.h **** *   - Supports Dual-Quad SPI mode
  28:Generated_Source\PSoC6\pdl\drivers\peripheral\smif/cy_smif.h **** *   - Design-time configurable support for multiple (up to 4) external serial
  29:Generated_Source\PSoC6\pdl\drivers\peripheral\smif/cy_smif.h **** *   memory devices
  30:Generated_Source\PSoC6\pdl\drivers\peripheral\smif/cy_smif.h **** *   - eXecute-In-Place (XIP) operation mode for both read and write accesses
  31:Generated_Source\PSoC6\pdl\drivers\peripheral\smif/cy_smif.h **** *   with 4KB XIP read cache and on-the-fly encryption and decryption
  32:Generated_Source\PSoC6\pdl\drivers\peripheral\smif/cy_smif.h **** *   - Supports external serial memory initialization via Serial Flash
  33:Generated_Source\PSoC6\pdl\drivers\peripheral\smif/cy_smif.h **** *   Discoverable Parameters (SFDP) standard
  34:Generated_Source\PSoC6\pdl\drivers\peripheral\smif/cy_smif.h **** *   - Support for SPI clock frequencies up to 80 MHz
  35:Generated_Source\PSoC6\pdl\drivers\peripheral\smif/cy_smif.h **** *
  36:Generated_Source\PSoC6\pdl\drivers\peripheral\smif/cy_smif.h **** *
  37:Generated_Source\PSoC6\pdl\drivers\peripheral\smif/cy_smif.h **** * The primary usage model for the SMIF is that of an external memory interface.
  38:Generated_Source\PSoC6\pdl\drivers\peripheral\smif/cy_smif.h **** * The SMIF is capable of interfacing with different types of memory, up to four
  39:Generated_Source\PSoC6\pdl\drivers\peripheral\smif/cy_smif.h **** * types.
  40:Generated_Source\PSoC6\pdl\drivers\peripheral\smif/cy_smif.h **** *
  41:Generated_Source\PSoC6\pdl\drivers\peripheral\smif/cy_smif.h **** * \b SMIF driver is divided in next layers
  42:Generated_Source\PSoC6\pdl\drivers\peripheral\smif/cy_smif.h **** *   - cy_smif.h API
  43:Generated_Source\PSoC6\pdl\drivers\peripheral\smif/cy_smif.h **** *   - cy_smif_memslot.h API
  44:Generated_Source\PSoC6\pdl\drivers\peripheral\smif/cy_smif.h **** *   - SMIF configuration structures
ARM GAS  C:\Users\ikomb\AppData\Local\Temp\cc5YtlHT.s 			page 47


  45:Generated_Source\PSoC6\pdl\drivers\peripheral\smif/cy_smif.h **** *
  46:Generated_Source\PSoC6\pdl\drivers\peripheral\smif/cy_smif.h **** * The SMIF API is divided into the low-level functions and memory-slot functions. Use
  47:Generated_Source\PSoC6\pdl\drivers\peripheral\smif/cy_smif.h **** * the low level API for the SMIF block initialization and for implementing a generic 
  48:Generated_Source\PSoC6\pdl\drivers\peripheral\smif/cy_smif.h **** * SPI communication interface using the SMIF block.
  49:Generated_Source\PSoC6\pdl\drivers\peripheral\smif/cy_smif.h **** *
  50:Generated_Source\PSoC6\pdl\drivers\peripheral\smif/cy_smif.h **** * The memory slot API has functions to implement the basic memory operations such as 
  51:Generated_Source\PSoC6\pdl\drivers\peripheral\smif/cy_smif.h **** * program, read, erase etc. These functions are implemented using the memory 
  52:Generated_Source\PSoC6\pdl\drivers\peripheral\smif/cy_smif.h **** * parameters in the memory device configuration data structure. The memory-slot
  53:Generated_Source\PSoC6\pdl\drivers\peripheral\smif/cy_smif.h **** * initialization API initializes all the memory slots based on the settings in the
  54:Generated_Source\PSoC6\pdl\drivers\peripheral\smif/cy_smif.h **** * array.
  55:Generated_Source\PSoC6\pdl\drivers\peripheral\smif/cy_smif.h **** *
  56:Generated_Source\PSoC6\pdl\drivers\peripheral\smif/cy_smif.h **** * \image html smif_1_0_p01_layers.png
  57:Generated_Source\PSoC6\pdl\drivers\peripheral\smif/cy_smif.h **** *
  58:Generated_Source\PSoC6\pdl\drivers\peripheral\smif/cy_smif.h **** * SMIF Configuration Tool is a stand-alone application, which is a part of PDL
  59:Generated_Source\PSoC6\pdl\drivers\peripheral\smif/cy_smif.h **** * and could be found in \<PDL_DIR\>/tools/\<OS_DIR\>/SMIFConfigurationTool
  60:Generated_Source\PSoC6\pdl\drivers\peripheral\smif/cy_smif.h **** * (e.g. for PDL 3.0.0 and Windows OS PDL/3.0.0/tools/win/SMIFConfigurationTool). Tool
  61:Generated_Source\PSoC6\pdl\drivers\peripheral\smif/cy_smif.h **** * generates *.c and *.h file with configuration structures. These configuration
  62:Generated_Source\PSoC6\pdl\drivers\peripheral\smif/cy_smif.h **** * structures are input parameters for cy_smif_memslot API level
  63:Generated_Source\PSoC6\pdl\drivers\peripheral\smif/cy_smif.h **** *
  64:Generated_Source\PSoC6\pdl\drivers\peripheral\smif/cy_smif.h **** * \warning The driver is not responsible for external memory persistence. You cannot edit
  65:Generated_Source\PSoC6\pdl\drivers\peripheral\smif/cy_smif.h **** * a buffer during the Read/Write operations. If there is a memory error, the SMIF ip block 
  66:Generated_Source\PSoC6\pdl\drivers\peripheral\smif/cy_smif.h **** * can require a reset. To determine if this has happened, check the SMIF 
  67:Generated_Source\PSoC6\pdl\drivers\peripheral\smif/cy_smif.h **** * busy status using Cy_SMIF_BusyCheck() and implement a timeout. Reset the SMIF 
  68:Generated_Source\PSoC6\pdl\drivers\peripheral\smif/cy_smif.h **** * block by toggling CTL.ENABLED. Then reconfigure the SMIF block.
  69:Generated_Source\PSoC6\pdl\drivers\peripheral\smif/cy_smif.h **** *
  70:Generated_Source\PSoC6\pdl\drivers\peripheral\smif/cy_smif.h **** * For the Write operation, check that the SMIF driver has completed 
  71:Generated_Source\PSoC6\pdl\drivers\peripheral\smif/cy_smif.h **** * transferring by calling Cy_SMIF_BusyCheck(). Also, check that the memory is 
  72:Generated_Source\PSoC6\pdl\drivers\peripheral\smif/cy_smif.h **** * available with Cy_SMIF_Memslot_IsBusy() before proceeding. 
  73:Generated_Source\PSoC6\pdl\drivers\peripheral\smif/cy_smif.h **** *
  74:Generated_Source\PSoC6\pdl\drivers\peripheral\smif/cy_smif.h **** * Simple example of external flash memory programming using low level SMIF API.
  75:Generated_Source\PSoC6\pdl\drivers\peripheral\smif/cy_smif.h **** * All steps mentioned in example below are incorporated in
  76:Generated_Source\PSoC6\pdl\drivers\peripheral\smif/cy_smif.h **** * \ref Cy_SMIF_Memslot_CmdWriteEnable(), \ref Cy_SMIF_Memslot_CmdProgram(), and
  77:Generated_Source\PSoC6\pdl\drivers\peripheral\smif/cy_smif.h **** * \ref Cy_SMIF_Memslot_IsBusy() of the
  78:Generated_Source\PSoC6\pdl\drivers\peripheral\smif/cy_smif.h **** * \ref group_smif_mem_slot_functions "memory slot level API".
  79:Generated_Source\PSoC6\pdl\drivers\peripheral\smif/cy_smif.h **** * \warning Example is simplified, without checks of error conditions.
  80:Generated_Source\PSoC6\pdl\drivers\peripheral\smif/cy_smif.h **** * \note Flash memories need erase operation before programming. Refer to
  81:Generated_Source\PSoC6\pdl\drivers\peripheral\smif/cy_smif.h **** * external memory datasheet for specific memory commands.
  82:Generated_Source\PSoC6\pdl\drivers\peripheral\smif/cy_smif.h **** *
  83:Generated_Source\PSoC6\pdl\drivers\peripheral\smif/cy_smif.h **** * \snippet smif/smif_sut_01.cydsn/main_cm4.c SMIF_API: Write example
  84:Generated_Source\PSoC6\pdl\drivers\peripheral\smif/cy_smif.h **** *
  85:Generated_Source\PSoC6\pdl\drivers\peripheral\smif/cy_smif.h **** * For the Read operation, before accessing the read buffer, check that it is ready
  86:Generated_Source\PSoC6\pdl\drivers\peripheral\smif/cy_smif.h **** * by calling Cy_SMIF_GetTxFifoStatus().
  87:Generated_Source\PSoC6\pdl\drivers\peripheral\smif/cy_smif.h **** *
  88:Generated_Source\PSoC6\pdl\drivers\peripheral\smif/cy_smif.h **** * Simple example of external flash memory read using low level SMIF API. All
  89:Generated_Source\PSoC6\pdl\drivers\peripheral\smif/cy_smif.h **** * steps mentioned in example below are incorporated in
  90:Generated_Source\PSoC6\pdl\drivers\peripheral\smif/cy_smif.h **** * \ref Cy_SMIF_Memslot_CmdRead() of the
  91:Generated_Source\PSoC6\pdl\drivers\peripheral\smif/cy_smif.h **** * \ref group_smif_mem_slot_functions "memory slot level API".
  92:Generated_Source\PSoC6\pdl\drivers\peripheral\smif/cy_smif.h **** * \warning Example is simplified, without checks of error conditions.
  93:Generated_Source\PSoC6\pdl\drivers\peripheral\smif/cy_smif.h **** * \note Refer to external memory datasheet for specific memory commands.
  94:Generated_Source\PSoC6\pdl\drivers\peripheral\smif/cy_smif.h **** *
  95:Generated_Source\PSoC6\pdl\drivers\peripheral\smif/cy_smif.h **** * \snippet smif/smif_sut_01.cydsn/main_cm4.c SMIF_API: Read example
  96:Generated_Source\PSoC6\pdl\drivers\peripheral\smif/cy_smif.h **** *
  97:Generated_Source\PSoC6\pdl\drivers\peripheral\smif/cy_smif.h **** * The user should invalidate the cache by calling Cy_SMIF_CacheInvalidate() when 
  98:Generated_Source\PSoC6\pdl\drivers\peripheral\smif/cy_smif.h **** * switching from the MMIO mode to XIP mode.
  99:Generated_Source\PSoC6\pdl\drivers\peripheral\smif/cy_smif.h **** *
 100:Generated_Source\PSoC6\pdl\drivers\peripheral\smif/cy_smif.h **** * \section group_smif_configuration Configuration Considerations
 101:Generated_Source\PSoC6\pdl\drivers\peripheral\smif/cy_smif.h **** *
ARM GAS  C:\Users\ikomb\AppData\Local\Temp\cc5YtlHT.s 			page 48


 102:Generated_Source\PSoC6\pdl\drivers\peripheral\smif/cy_smif.h **** * PDL API has common parameters: base, context, config described in
 103:Generated_Source\PSoC6\pdl\drivers\peripheral\smif/cy_smif.h **** * \ref page_getting_started_pdl_design "PDL Design" section.
 104:Generated_Source\PSoC6\pdl\drivers\peripheral\smif/cy_smif.h **** *
 105:Generated_Source\PSoC6\pdl\drivers\peripheral\smif/cy_smif.h **** * See the documentation for Cy_SMIF_Init() and Cy_SMIF_Memslot_Init() for details
 106:Generated_Source\PSoC6\pdl\drivers\peripheral\smif/cy_smif.h **** * on the required configuration structures and other initialization topics. 
 107:Generated_Source\PSoC6\pdl\drivers\peripheral\smif/cy_smif.h **** *
 108:Generated_Source\PSoC6\pdl\drivers\peripheral\smif/cy_smif.h **** * The normal (MMIO) mode is used for implementing a generic SPI/DSPI/QSPI/Dual
 109:Generated_Source\PSoC6\pdl\drivers\peripheral\smif/cy_smif.h **** * Quad-SPI/Octal-SPI communication interface using the SMIF block. This
 110:Generated_Source\PSoC6\pdl\drivers\peripheral\smif/cy_smif.h **** * interface can be used to implement special commands like Program/Erase of
 111:Generated_Source\PSoC6\pdl\drivers\peripheral\smif/cy_smif.h **** * flash, memory device configuration, sleep mode entry for memory devices or
 112:Generated_Source\PSoC6\pdl\drivers\peripheral\smif/cy_smif.h **** * other special commands specific to the memory device. The transfer width
 113:Generated_Source\PSoC6\pdl\drivers\peripheral\smif/cy_smif.h **** * (SPI/DSP/Quad-SPI/Octal-SPI) of a transmission is a parameter set for each
 114:Generated_Source\PSoC6\pdl\drivers\peripheral\smif/cy_smif.h **** * transmit/receive operation. So these can be changed at run time.
 115:Generated_Source\PSoC6\pdl\drivers\peripheral\smif/cy_smif.h **** *
 116:Generated_Source\PSoC6\pdl\drivers\peripheral\smif/cy_smif.h **** * In a typical memory interface with flash memory, the SMIF is used in the
 117:Generated_Source\PSoC6\pdl\drivers\peripheral\smif/cy_smif.h **** * memory mode when reading from the memory and it switches to the normal mode when
 118:Generated_Source\PSoC6\pdl\drivers\peripheral\smif/cy_smif.h **** * writing to flash memory.
 119:Generated_Source\PSoC6\pdl\drivers\peripheral\smif/cy_smif.h **** * A typical memory device has multiple types of commands.
 120:Generated_Source\PSoC6\pdl\drivers\peripheral\smif/cy_smif.h **** *
 121:Generated_Source\PSoC6\pdl\drivers\peripheral\smif/cy_smif.h **** * The SMIF interface can be used to transmit different types of commands. Each
 122:Generated_Source\PSoC6\pdl\drivers\peripheral\smif/cy_smif.h **** * command has different phases: command, dummy cycles, and transmit and receive
 123:Generated_Source\PSoC6\pdl\drivers\peripheral\smif/cy_smif.h **** * data which require separate APIs.
 124:Generated_Source\PSoC6\pdl\drivers\peripheral\smif/cy_smif.h **** *
 125:Generated_Source\PSoC6\pdl\drivers\peripheral\smif/cy_smif.h **** * \subsection group_smif_init SMIF Initialization
 126:Generated_Source\PSoC6\pdl\drivers\peripheral\smif/cy_smif.h **** * Create interrupt function and allocate memory for SMIF context
 127:Generated_Source\PSoC6\pdl\drivers\peripheral\smif/cy_smif.h **** * structure
 128:Generated_Source\PSoC6\pdl\drivers\peripheral\smif/cy_smif.h **** * \snippet smif/smif_sut_01.cydsn/main_cm4.c SMIF_INIT: context and interrupt
 129:Generated_Source\PSoC6\pdl\drivers\peripheral\smif/cy_smif.h **** * SMIF driver initialization for low level API usage (cysmif.h)
 130:Generated_Source\PSoC6\pdl\drivers\peripheral\smif/cy_smif.h **** * \snippet smif/smif_sut_01.cydsn/main_cm4.c SMIF_INIT: low level
 131:Generated_Source\PSoC6\pdl\drivers\peripheral\smif/cy_smif.h **** * Additional steps to initialize SMIF driver for memory slot level API usage
 132:Generated_Source\PSoC6\pdl\drivers\peripheral\smif/cy_smif.h **** * (cy_smif_memslot.h).
 133:Generated_Source\PSoC6\pdl\drivers\peripheral\smif/cy_smif.h **** * \snippet smif/smif_sut_01.cydsn/main_cm4.c SMIF_INIT: memslot level
 134:Generated_Source\PSoC6\pdl\drivers\peripheral\smif/cy_smif.h **** * \note Example does not include initialization of all needed configuration
 135:Generated_Source\PSoC6\pdl\drivers\peripheral\smif/cy_smif.h **** * structures (\ref cy_stc_smif_mem_device_cfg_t, \ref cy_stc_smif_mem_cmd_t).
 136:Generated_Source\PSoC6\pdl\drivers\peripheral\smif/cy_smif.h **** * SMIF Configuration tool generates all configuration structures needed for
 137:Generated_Source\PSoC6\pdl\drivers\peripheral\smif/cy_smif.h **** * memslot level API usage.
 138:Generated_Source\PSoC6\pdl\drivers\peripheral\smif/cy_smif.h **** *
 139:Generated_Source\PSoC6\pdl\drivers\peripheral\smif/cy_smif.h **** * \subsection group_smif_xip_init SMIF XIP Initialization
 140:Generated_Source\PSoC6\pdl\drivers\peripheral\smif/cy_smif.h **** * The eXecute In Place (XIP) is a mode of operation where read or write commands 
 141:Generated_Source\PSoC6\pdl\drivers\peripheral\smif/cy_smif.h **** * to the memory device are directed through the SMIF without any use of API 
 142:Generated_Source\PSoC6\pdl\drivers\peripheral\smif/cy_smif.h **** * function calls. In this mode the SMIF block maps the AHB bus-accesses to 
 143:Generated_Source\PSoC6\pdl\drivers\peripheral\smif/cy_smif.h **** * external memory device addresses to make it behave similar to internal memory. 
 144:Generated_Source\PSoC6\pdl\drivers\peripheral\smif/cy_smif.h **** * This allows the CPU to execute code directly from external memory. This mode 
 145:Generated_Source\PSoC6\pdl\drivers\peripheral\smif/cy_smif.h **** * is not limited to code and is suitable also for data read and write accesses. 
 146:Generated_Source\PSoC6\pdl\drivers\peripheral\smif/cy_smif.h **** * \snippet smif/smif_sut_01.cydsn/main_cm4.c SMIF_INIT: XIP
 147:Generated_Source\PSoC6\pdl\drivers\peripheral\smif/cy_smif.h **** * \note Example of input parameters initialization is in \ref group_smif_init 
 148:Generated_Source\PSoC6\pdl\drivers\peripheral\smif/cy_smif.h **** * section.
 149:Generated_Source\PSoC6\pdl\drivers\peripheral\smif/cy_smif.h **** * \warning Functions that called from external memory should be declared with 
 150:Generated_Source\PSoC6\pdl\drivers\peripheral\smif/cy_smif.h **** * long call attribute.     
 151:Generated_Source\PSoC6\pdl\drivers\peripheral\smif/cy_smif.h **** *
 152:Generated_Source\PSoC6\pdl\drivers\peripheral\smif/cy_smif.h **** * \section group_smif_more_information More Information
 153:Generated_Source\PSoC6\pdl\drivers\peripheral\smif/cy_smif.h **** *
 154:Generated_Source\PSoC6\pdl\drivers\peripheral\smif/cy_smif.h **** * More information regarding the Serial Memory Interface can be found in the component 
 155:Generated_Source\PSoC6\pdl\drivers\peripheral\smif/cy_smif.h **** * datasheet and the Technical Reference Manual (TRM).
 156:Generated_Source\PSoC6\pdl\drivers\peripheral\smif/cy_smif.h **** * More information regarding the SMIF Configuration Tool are in SMIF
 157:Generated_Source\PSoC6\pdl\drivers\peripheral\smif/cy_smif.h **** * Configuration Tool User Guide located in \<PDL_DIR\>/tools/\<OS_DIR\>/SMIFConfigurationTool/
 158:Generated_Source\PSoC6\pdl\drivers\peripheral\smif/cy_smif.h **** * folder
ARM GAS  C:\Users\ikomb\AppData\Local\Temp\cc5YtlHT.s 			page 49


 159:Generated_Source\PSoC6\pdl\drivers\peripheral\smif/cy_smif.h **** *
 160:Generated_Source\PSoC6\pdl\drivers\peripheral\smif/cy_smif.h **** * \section group_smif_MISRA MISRA-C Compliance]
 161:Generated_Source\PSoC6\pdl\drivers\peripheral\smif/cy_smif.h **** * <table class="doxtable">
 162:Generated_Source\PSoC6\pdl\drivers\peripheral\smif/cy_smif.h **** *   <tr>
 163:Generated_Source\PSoC6\pdl\drivers\peripheral\smif/cy_smif.h **** *     <th>MISRA rule</th>
 164:Generated_Source\PSoC6\pdl\drivers\peripheral\smif/cy_smif.h **** *     <th>Rule Class (Required/Advisory)</th>
 165:Generated_Source\PSoC6\pdl\drivers\peripheral\smif/cy_smif.h **** *     <th>Rule Description</th>
 166:Generated_Source\PSoC6\pdl\drivers\peripheral\smif/cy_smif.h **** *     <th>Description of Deviation(s)</th>
 167:Generated_Source\PSoC6\pdl\drivers\peripheral\smif/cy_smif.h **** *   </tr>
 168:Generated_Source\PSoC6\pdl\drivers\peripheral\smif/cy_smif.h **** *   <tr>
 169:Generated_Source\PSoC6\pdl\drivers\peripheral\smif/cy_smif.h **** *     <td>11.4</td>
 170:Generated_Source\PSoC6\pdl\drivers\peripheral\smif/cy_smif.h **** *     <td>A</td>
 171:Generated_Source\PSoC6\pdl\drivers\peripheral\smif/cy_smif.h **** *     <td>The cast is be performed between a pointer to the object type and a different pointer to 
 172:Generated_Source\PSoC6\pdl\drivers\peripheral\smif/cy_smif.h **** *     <td>The cast from the pointer to void to the pointer to an unsigned integer does not have any
 173:Generated_Source\PSoC6\pdl\drivers\peripheral\smif/cy_smif.h **** *         it is a consequence of the definition of a structure based on hardware registers.</td>
 174:Generated_Source\PSoC6\pdl\drivers\peripheral\smif/cy_smif.h **** *   </tr>
 175:Generated_Source\PSoC6\pdl\drivers\peripheral\smif/cy_smif.h **** *   <tr>
 176:Generated_Source\PSoC6\pdl\drivers\peripheral\smif/cy_smif.h **** *     <td>11.5</td>
 177:Generated_Source\PSoC6\pdl\drivers\peripheral\smif/cy_smif.h **** *     <td>R</td>
 178:Generated_Source\PSoC6\pdl\drivers\peripheral\smif/cy_smif.h **** *     <td>Not performed, the cast that removes any const or volatile qualification from the type ad
 179:Generated_Source\PSoC6\pdl\drivers\peripheral\smif/cy_smif.h **** *     <td>The removal of the volatile qualification inside the function has no side effects.</td>
 180:Generated_Source\PSoC6\pdl\drivers\peripheral\smif/cy_smif.h **** *   </tr>
 181:Generated_Source\PSoC6\pdl\drivers\peripheral\smif/cy_smif.h **** *   <tr>
 182:Generated_Source\PSoC6\pdl\drivers\peripheral\smif/cy_smif.h **** *     <td>14.2</td>
 183:Generated_Source\PSoC6\pdl\drivers\peripheral\smif/cy_smif.h **** *     <td>R</td>
 184:Generated_Source\PSoC6\pdl\drivers\peripheral\smif/cy_smif.h **** *     <td>All non-null statements will either:
 185:Generated_Source\PSoC6\pdl\drivers\peripheral\smif/cy_smif.h **** *       a) have at least one-side effect however executed, or
 186:Generated_Source\PSoC6\pdl\drivers\peripheral\smif/cy_smif.h **** *       b) cause control flow to change</td>
 187:Generated_Source\PSoC6\pdl\drivers\peripheral\smif/cy_smif.h **** *     <td>The readback of the register is required by the hardware.</td>
 188:Generated_Source\PSoC6\pdl\drivers\peripheral\smif/cy_smif.h **** *   </tr>
 189:Generated_Source\PSoC6\pdl\drivers\peripheral\smif/cy_smif.h **** * </table>
 190:Generated_Source\PSoC6\pdl\drivers\peripheral\smif/cy_smif.h **** *
 191:Generated_Source\PSoC6\pdl\drivers\peripheral\smif/cy_smif.h **** * \section group_smif_changelog Changelog
 192:Generated_Source\PSoC6\pdl\drivers\peripheral\smif/cy_smif.h **** * <table class="doxtable">
 193:Generated_Source\PSoC6\pdl\drivers\peripheral\smif/cy_smif.h **** *   <tr><th>Version</th><th>Changes</th><th>Reason for Change</th></tr>
 194:Generated_Source\PSoC6\pdl\drivers\peripheral\smif/cy_smif.h **** *   <tr>
 195:Generated_Source\PSoC6\pdl\drivers\peripheral\smif/cy_smif.h **** *     <td>1.10.1</td>
 196:Generated_Source\PSoC6\pdl\drivers\peripheral\smif/cy_smif.h **** *     <td>Added Low Power Callback section</td>
 197:Generated_Source\PSoC6\pdl\drivers\peripheral\smif/cy_smif.h **** *     <td>Documentation update and clarification</td>
 198:Generated_Source\PSoC6\pdl\drivers\peripheral\smif/cy_smif.h **** *   </tr>
 199:Generated_Source\PSoC6\pdl\drivers\peripheral\smif/cy_smif.h **** *   <tr>
 200:Generated_Source\PSoC6\pdl\drivers\peripheral\smif/cy_smif.h **** *     <td>1.10</td>
 201:Generated_Source\PSoC6\pdl\drivers\peripheral\smif/cy_smif.h **** *     <td>Fix write to external memory from CM0+ core. Add checks of API input parameters. 
 202:Generated_Source\PSoC6\pdl\drivers\peripheral\smif/cy_smif.h **** *         Minor documentation updates</td>
 203:Generated_Source\PSoC6\pdl\drivers\peripheral\smif/cy_smif.h **** *     <td></td>
 204:Generated_Source\PSoC6\pdl\drivers\peripheral\smif/cy_smif.h **** *   </tr>
 205:Generated_Source\PSoC6\pdl\drivers\peripheral\smif/cy_smif.h **** *   <tr>
 206:Generated_Source\PSoC6\pdl\drivers\peripheral\smif/cy_smif.h **** *     <td>1.0</td>
 207:Generated_Source\PSoC6\pdl\drivers\peripheral\smif/cy_smif.h **** *     <td>Initial version</td>
 208:Generated_Source\PSoC6\pdl\drivers\peripheral\smif/cy_smif.h **** *     <td></td>
 209:Generated_Source\PSoC6\pdl\drivers\peripheral\smif/cy_smif.h **** *   </tr>
 210:Generated_Source\PSoC6\pdl\drivers\peripheral\smif/cy_smif.h **** * </table>
 211:Generated_Source\PSoC6\pdl\drivers\peripheral\smif/cy_smif.h **** *
 212:Generated_Source\PSoC6\pdl\drivers\peripheral\smif/cy_smif.h **** * \defgroup group_smif_macros Macros
 213:Generated_Source\PSoC6\pdl\drivers\peripheral\smif/cy_smif.h **** * \{
 214:Generated_Source\PSoC6\pdl\drivers\peripheral\smif/cy_smif.h **** * \defgroup group_smif_macros_status Status Macros
 215:Generated_Source\PSoC6\pdl\drivers\peripheral\smif/cy_smif.h **** * \defgroup group_smif_macros_cmd Command Macros
ARM GAS  C:\Users\ikomb\AppData\Local\Temp\cc5YtlHT.s 			page 50


 216:Generated_Source\PSoC6\pdl\drivers\peripheral\smif/cy_smif.h **** * \defgroup group_smif_macros_flags External Memory Flags
 217:Generated_Source\PSoC6\pdl\drivers\peripheral\smif/cy_smif.h **** * \defgroup group_smif_macros_sfdp SFDP Macros
 218:Generated_Source\PSoC6\pdl\drivers\peripheral\smif/cy_smif.h **** * \defgroup group_smif_macros_isr Interrupt Macros
 219:Generated_Source\PSoC6\pdl\drivers\peripheral\smif/cy_smif.h **** * \}
 220:Generated_Source\PSoC6\pdl\drivers\peripheral\smif/cy_smif.h **** * \defgroup group_smif_functions Functions
 221:Generated_Source\PSoC6\pdl\drivers\peripheral\smif/cy_smif.h **** * \{
 222:Generated_Source\PSoC6\pdl\drivers\peripheral\smif/cy_smif.h **** * \defgroup group_smif_low_level_functions Low Level Functions
 223:Generated_Source\PSoC6\pdl\drivers\peripheral\smif/cy_smif.h **** * \{
 224:Generated_Source\PSoC6\pdl\drivers\peripheral\smif/cy_smif.h **** * Basic flow for read/write commands using \ref Cy_SMIF_TransmitCommand
 225:Generated_Source\PSoC6\pdl\drivers\peripheral\smif/cy_smif.h **** * \ref Cy_SMIF_TransmitData \ref Cy_SMIF_ReceiveData
 226:Generated_Source\PSoC6\pdl\drivers\peripheral\smif/cy_smif.h **** * \ref Cy_SMIF_SendDummyCycles
 227:Generated_Source\PSoC6\pdl\drivers\peripheral\smif/cy_smif.h **** *
 228:Generated_Source\PSoC6\pdl\drivers\peripheral\smif/cy_smif.h **** *  \image html smif_1_0_p03_rw_cmd.png
 229:Generated_Source\PSoC6\pdl\drivers\peripheral\smif/cy_smif.h **** *
 230:Generated_Source\PSoC6\pdl\drivers\peripheral\smif/cy_smif.h **** * \}
 231:Generated_Source\PSoC6\pdl\drivers\peripheral\smif/cy_smif.h **** * \defgroup group_smif_mem_slot_functions Memory Slot Functions
 232:Generated_Source\PSoC6\pdl\drivers\peripheral\smif/cy_smif.h **** * \defgroup group_smif_functions_syspm_callback  Low Power Callback
 233:Generated_Source\PSoC6\pdl\drivers\peripheral\smif/cy_smif.h **** * \}
 234:Generated_Source\PSoC6\pdl\drivers\peripheral\smif/cy_smif.h **** * \defgroup group_smif_data_structures Data Structures
 235:Generated_Source\PSoC6\pdl\drivers\peripheral\smif/cy_smif.h **** * \{
 236:Generated_Source\PSoC6\pdl\drivers\peripheral\smif/cy_smif.h **** * \defgroup group_smif_data_structures_memslot SMIF Memory Description Structures
 237:Generated_Source\PSoC6\pdl\drivers\peripheral\smif/cy_smif.h **** * General hierarchy of memory structures are:
 238:Generated_Source\PSoC6\pdl\drivers\peripheral\smif/cy_smif.h **** * \image html smif_1_0_p02_memslot_stc.png
 239:Generated_Source\PSoC6\pdl\drivers\peripheral\smif/cy_smif.h **** * Top structure is \ref cy_stc_smif_block_config_t, which could have links up to
 240:Generated_Source\PSoC6\pdl\drivers\peripheral\smif/cy_smif.h **** * 4 \ref cy_stc_smif_mem_config_t which describes each connected to the SMIF
 241:Generated_Source\PSoC6\pdl\drivers\peripheral\smif/cy_smif.h **** * external memory.
 242:Generated_Source\PSoC6\pdl\drivers\peripheral\smif/cy_smif.h **** * \}
 243:Generated_Source\PSoC6\pdl\drivers\peripheral\smif/cy_smif.h **** * \defgroup group_smif_enums Enumerated Types
 244:Generated_Source\PSoC6\pdl\drivers\peripheral\smif/cy_smif.h **** */
 245:Generated_Source\PSoC6\pdl\drivers\peripheral\smif/cy_smif.h **** 
 246:Generated_Source\PSoC6\pdl\drivers\peripheral\smif/cy_smif.h **** #if !defined(CY_SMIF_H)
 247:Generated_Source\PSoC6\pdl\drivers\peripheral\smif/cy_smif.h **** #define CY_SMIF_H
 248:Generated_Source\PSoC6\pdl\drivers\peripheral\smif/cy_smif.h **** 
 249:Generated_Source\PSoC6\pdl\drivers\peripheral\smif/cy_smif.h **** #include <stdint.h>
 250:Generated_Source\PSoC6\pdl\drivers\peripheral\smif/cy_smif.h **** #include <stdbool.h>
 251:Generated_Source\PSoC6\pdl\drivers\peripheral\smif/cy_smif.h **** #include <stddef.h>
 252:Generated_Source\PSoC6\pdl\drivers\peripheral\smif/cy_smif.h **** #include "syslib/cy_syslib.h"
 253:Generated_Source\PSoC6\pdl\drivers\peripheral\smif/cy_smif.h **** #include "syspm/cy_syspm.h"
 254:Generated_Source\PSoC6\pdl\drivers\peripheral\smif/cy_smif.h **** #include "cy_device_headers.h"
 255:Generated_Source\PSoC6\pdl\drivers\peripheral\smif/cy_smif.h **** 
 256:Generated_Source\PSoC6\pdl\drivers\peripheral\smif/cy_smif.h **** #ifndef CY_IP_MXSMIF
 257:Generated_Source\PSoC6\pdl\drivers\peripheral\smif/cy_smif.h ****     #error "The SMIF driver is not supported on this device"
 258:Generated_Source\PSoC6\pdl\drivers\peripheral\smif/cy_smif.h **** #endif
 259:Generated_Source\PSoC6\pdl\drivers\peripheral\smif/cy_smif.h **** 
 260:Generated_Source\PSoC6\pdl\drivers\peripheral\smif/cy_smif.h **** #if defined(__cplusplus)
 261:Generated_Source\PSoC6\pdl\drivers\peripheral\smif/cy_smif.h **** extern "C" {
 262:Generated_Source\PSoC6\pdl\drivers\peripheral\smif/cy_smif.h **** #endif
 263:Generated_Source\PSoC6\pdl\drivers\peripheral\smif/cy_smif.h **** 
 264:Generated_Source\PSoC6\pdl\drivers\peripheral\smif/cy_smif.h **** /***************************************
 265:Generated_Source\PSoC6\pdl\drivers\peripheral\smif/cy_smif.h **** *            Constants
 266:Generated_Source\PSoC6\pdl\drivers\peripheral\smif/cy_smif.h **** ****************************************/
 267:Generated_Source\PSoC6\pdl\drivers\peripheral\smif/cy_smif.h **** 
 268:Generated_Source\PSoC6\pdl\drivers\peripheral\smif/cy_smif.h **** /**
 269:Generated_Source\PSoC6\pdl\drivers\peripheral\smif/cy_smif.h **** * \addtogroup group_smif_macros
 270:Generated_Source\PSoC6\pdl\drivers\peripheral\smif/cy_smif.h **** * \{
 271:Generated_Source\PSoC6\pdl\drivers\peripheral\smif/cy_smif.h **** */
 272:Generated_Source\PSoC6\pdl\drivers\peripheral\smif/cy_smif.h **** 
ARM GAS  C:\Users\ikomb\AppData\Local\Temp\cc5YtlHT.s 			page 51


 273:Generated_Source\PSoC6\pdl\drivers\peripheral\smif/cy_smif.h **** /** The driver major version */
 274:Generated_Source\PSoC6\pdl\drivers\peripheral\smif/cy_smif.h **** #define CY_SMIF_DRV_VERSION_MAJOR       1
 275:Generated_Source\PSoC6\pdl\drivers\peripheral\smif/cy_smif.h **** 
 276:Generated_Source\PSoC6\pdl\drivers\peripheral\smif/cy_smif.h **** /** The driver minor version */
 277:Generated_Source\PSoC6\pdl\drivers\peripheral\smif/cy_smif.h **** #define CY_SMIF_DRV_VERSION_MINOR       10
 278:Generated_Source\PSoC6\pdl\drivers\peripheral\smif/cy_smif.h **** 
 279:Generated_Source\PSoC6\pdl\drivers\peripheral\smif/cy_smif.h **** /** One microsecond timeout for Cy_SMIF_TimeoutRun() */
 280:Generated_Source\PSoC6\pdl\drivers\peripheral\smif/cy_smif.h **** #define CY_SMIF_WAIT_1_UNIT        (1U)
 281:Generated_Source\PSoC6\pdl\drivers\peripheral\smif/cy_smif.h **** 
 282:Generated_Source\PSoC6\pdl\drivers\peripheral\smif/cy_smif.h **** /** The SMIF driver ID, reported as part of an unsuccessful API return status
 283:Generated_Source\PSoC6\pdl\drivers\peripheral\smif/cy_smif.h ****  * \ref cy_en_smif_status_t */
 284:Generated_Source\PSoC6\pdl\drivers\peripheral\smif/cy_smif.h **** #define CY_SMIF_ID CY_PDL_DRV_ID(0x2CU)
 285:Generated_Source\PSoC6\pdl\drivers\peripheral\smif/cy_smif.h **** 
 286:Generated_Source\PSoC6\pdl\drivers\peripheral\smif/cy_smif.h **** 
 287:Generated_Source\PSoC6\pdl\drivers\peripheral\smif/cy_smif.h **** /**
 288:Generated_Source\PSoC6\pdl\drivers\peripheral\smif/cy_smif.h **** * \addtogroup group_smif_macros_isr
 289:Generated_Source\PSoC6\pdl\drivers\peripheral\smif/cy_smif.h **** * \{
 290:Generated_Source\PSoC6\pdl\drivers\peripheral\smif/cy_smif.h **** */
 291:Generated_Source\PSoC6\pdl\drivers\peripheral\smif/cy_smif.h **** 
 292:Generated_Source\PSoC6\pdl\drivers\peripheral\smif/cy_smif.h **** /** Enable XIP_ALIGNMENT_ERROR interrupt see TRM for details */
 293:Generated_Source\PSoC6\pdl\drivers\peripheral\smif/cy_smif.h **** #define CY_SMIF_ALIGNMENT_ERROR                 (SMIF_INTR_XIP_ALIGNMENT_ERROR_Msk)
 294:Generated_Source\PSoC6\pdl\drivers\peripheral\smif/cy_smif.h **** /** Enable RX_DATA_FIFO_UNDERFLOW interrupt see TRM for details */
 295:Generated_Source\PSoC6\pdl\drivers\peripheral\smif/cy_smif.h **** #define CY_SMIF_RX_DATA_FIFO_UNDERFLOW          (SMIF_INTR_RX_DATA_FIFO_UNDERFLOW_Msk)
 296:Generated_Source\PSoC6\pdl\drivers\peripheral\smif/cy_smif.h **** /** Enable TX_DATA_FIFO_OVERFLOW interrupt see TRM for details */
 297:Generated_Source\PSoC6\pdl\drivers\peripheral\smif/cy_smif.h **** #define CY_SMIF_TX_DATA_FIFO_OVERFLOW           (SMIF_INTR_TX_DATA_FIFO_OVERFLOW_Msk)
 298:Generated_Source\PSoC6\pdl\drivers\peripheral\smif/cy_smif.h **** /** Enable TX_CMD_FIFO_OVERFLOW interrupt see TRM for details */
 299:Generated_Source\PSoC6\pdl\drivers\peripheral\smif/cy_smif.h **** #define CY_SMIF_TX_COMMAND_FIFO_OVERFLOW         (SMIF_INTR_TX_CMD_FIFO_OVERFLOW_Msk)
 300:Generated_Source\PSoC6\pdl\drivers\peripheral\smif/cy_smif.h **** /** Enable TR_TX_REQ interrupt see TRM for details */
 301:Generated_Source\PSoC6\pdl\drivers\peripheral\smif/cy_smif.h **** #define CY_SMIF_TX_DATA_FIFO_LEVEL_TRIGGER      (SMIF_INTR_TR_TX_REQ_Msk)
 302:Generated_Source\PSoC6\pdl\drivers\peripheral\smif/cy_smif.h **** /** Enable TR_RX_REQ interrupt see TRM for details */
 303:Generated_Source\PSoC6\pdl\drivers\peripheral\smif/cy_smif.h **** #define CY_SMIF_RX_DATA_FIFO_LEVEL_TRIGGER      (SMIF_INTR_TR_RX_REQ_Msk)
 304:Generated_Source\PSoC6\pdl\drivers\peripheral\smif/cy_smif.h **** 
 305:Generated_Source\PSoC6\pdl\drivers\peripheral\smif/cy_smif.h **** /** \} group_smif_macros_isr */
 306:Generated_Source\PSoC6\pdl\drivers\peripheral\smif/cy_smif.h **** 
 307:Generated_Source\PSoC6\pdl\drivers\peripheral\smif/cy_smif.h **** /** \cond INTERNAL */
 308:Generated_Source\PSoC6\pdl\drivers\peripheral\smif/cy_smif.h **** 
 309:Generated_Source\PSoC6\pdl\drivers\peripheral\smif/cy_smif.h **** #define CY_SMIF_CMD_FIFO_TX_MODE           (0UL)
 310:Generated_Source\PSoC6\pdl\drivers\peripheral\smif/cy_smif.h **** #define CY_SMIF_CMD_FIFO_TX_COUNT_MODE     (1UL)
 311:Generated_Source\PSoC6\pdl\drivers\peripheral\smif/cy_smif.h **** #define CY_SMIF_CMD_FIFO_RX_COUNT_MODE     (2UL)
 312:Generated_Source\PSoC6\pdl\drivers\peripheral\smif/cy_smif.h **** #define CY_SMIF_CMD_FIFO_DUMMY_COUNT_MODE  (3UL)
 313:Generated_Source\PSoC6\pdl\drivers\peripheral\smif/cy_smif.h **** 
 314:Generated_Source\PSoC6\pdl\drivers\peripheral\smif/cy_smif.h **** #define CY_SMIF_TX_CMD_FIFO_STATUS_RANGE   (4U)
 315:Generated_Source\PSoC6\pdl\drivers\peripheral\smif/cy_smif.h **** #define CY_SMIF_TX_DATA_FIFO_STATUS_RANGE  (8U)
 316:Generated_Source\PSoC6\pdl\drivers\peripheral\smif/cy_smif.h **** #define CY_SMIF_RX_DATA_FIFO_STATUS_RANGE  (8U)
 317:Generated_Source\PSoC6\pdl\drivers\peripheral\smif/cy_smif.h **** 
 318:Generated_Source\PSoC6\pdl\drivers\peripheral\smif/cy_smif.h **** #define CY_SMIF_ONE_BYTE                   (1U)
 319:Generated_Source\PSoC6\pdl\drivers\peripheral\smif/cy_smif.h **** #define CY_SMIF_TWO_BYTES                  (2U)
 320:Generated_Source\PSoC6\pdl\drivers\peripheral\smif/cy_smif.h **** #define CY_SMIF_THREE_BYTES                (3U)
 321:Generated_Source\PSoC6\pdl\drivers\peripheral\smif/cy_smif.h **** #define CY_SMIF_FOUR_BYTES                 (4U)
 322:Generated_Source\PSoC6\pdl\drivers\peripheral\smif/cy_smif.h **** #define CY_SMIF_FIVE_BYTES                 (5U)
 323:Generated_Source\PSoC6\pdl\drivers\peripheral\smif/cy_smif.h **** #define CY_SMIF_SIX_BYTES                  (6U)
 324:Generated_Source\PSoC6\pdl\drivers\peripheral\smif/cy_smif.h **** #define CY_SMIF_SEVEN_BYTES                (7U)
 325:Generated_Source\PSoC6\pdl\drivers\peripheral\smif/cy_smif.h **** #define CY_SMIF_EIGHT_BYTES                (8U)
 326:Generated_Source\PSoC6\pdl\drivers\peripheral\smif/cy_smif.h **** 
 327:Generated_Source\PSoC6\pdl\drivers\peripheral\smif/cy_smif.h **** #define CY_SMIF_CRYPTO_FIRST_WORD          (0U)
 328:Generated_Source\PSoC6\pdl\drivers\peripheral\smif/cy_smif.h **** #define CY_SMIF_CRYPTO_SECOND_WORD         (4U)
 329:Generated_Source\PSoC6\pdl\drivers\peripheral\smif/cy_smif.h **** #define CY_SMIF_CRYPTO_THIRD_WORD          (8U)
ARM GAS  C:\Users\ikomb\AppData\Local\Temp\cc5YtlHT.s 			page 52


 330:Generated_Source\PSoC6\pdl\drivers\peripheral\smif/cy_smif.h **** #define CY_SMIF_CRYPTO_FOURTH_WORD         (12U)
 331:Generated_Source\PSoC6\pdl\drivers\peripheral\smif/cy_smif.h **** 
 332:Generated_Source\PSoC6\pdl\drivers\peripheral\smif/cy_smif.h **** #define CY_SMIF_CRYPTO_START               (1UL)
 333:Generated_Source\PSoC6\pdl\drivers\peripheral\smif/cy_smif.h **** #define CY_SMIF_CRYPTO_COMPLETED           (0UL)
 334:Generated_Source\PSoC6\pdl\drivers\peripheral\smif/cy_smif.h **** #define CY_SMIF_CRYPTO_ADDR_MASK           (0xFFFFFFF0UL)
 335:Generated_Source\PSoC6\pdl\drivers\peripheral\smif/cy_smif.h **** #define CY_SMIF_AES128_BYTES               (16U)
 336:Generated_Source\PSoC6\pdl\drivers\peripheral\smif/cy_smif.h **** 
 337:Generated_Source\PSoC6\pdl\drivers\peripheral\smif/cy_smif.h **** #define CY_SMIF_CTL_REG_DEFAULT  (0x00000300U) /* 3 - [13:12] CLOCK_IF_RX_SEL  */
 338:Generated_Source\PSoC6\pdl\drivers\peripheral\smif/cy_smif.h **** 
 339:Generated_Source\PSoC6\pdl\drivers\peripheral\smif/cy_smif.h **** #define CY_SMIF_SFDP_FAIL           (0x08U)
 340:Generated_Source\PSoC6\pdl\drivers\peripheral\smif/cy_smif.h **** #define CY_SMIF_SFDP_FAIL_SS0_POS   (0x00U)
 341:Generated_Source\PSoC6\pdl\drivers\peripheral\smif/cy_smif.h **** #define CY_SMIF_SFDP_FAIL_SS1_POS   (0x01U)
 342:Generated_Source\PSoC6\pdl\drivers\peripheral\smif/cy_smif.h **** #define CY_SMIF_SFDP_FAIL_SS2_POS   (0x02U)
 343:Generated_Source\PSoC6\pdl\drivers\peripheral\smif/cy_smif.h **** #define CY_SMIF_SFDP_FAIL_SS3_POS   (0x03U)
 344:Generated_Source\PSoC6\pdl\drivers\peripheral\smif/cy_smif.h **** 
 345:Generated_Source\PSoC6\pdl\drivers\peripheral\smif/cy_smif.h **** #define CY_SMIF_MAX_DESELECT_DELAY      (7U)
 346:Generated_Source\PSoC6\pdl\drivers\peripheral\smif/cy_smif.h **** #define CY_SMIF_MAX_TX_TR_LEVEL         (8U)
 347:Generated_Source\PSoC6\pdl\drivers\peripheral\smif/cy_smif.h **** #define CY_SMIF_MAX_RX_TR_LEVEL         (8U)
 348:Generated_Source\PSoC6\pdl\drivers\peripheral\smif/cy_smif.h **** 
 349:Generated_Source\PSoC6\pdl\drivers\peripheral\smif/cy_smif.h **** #define CY_SMIF_MODE_VALID(mode)    ((CY_SMIF_NORMAL == (cy_en_smif_mode_t)(mode)) || \
 350:Generated_Source\PSoC6\pdl\drivers\peripheral\smif/cy_smif.h ****                                      (CY_SMIF_MEMORY == (cy_en_smif_mode_t)(mode)))
 351:Generated_Source\PSoC6\pdl\drivers\peripheral\smif/cy_smif.h **** #define CY_SMIF_BLOCK_EVENT_VALID(event)    ((CY_SMIF_BUS_ERROR == (cy_en_smif_error_event_t)(event
 352:Generated_Source\PSoC6\pdl\drivers\peripheral\smif/cy_smif.h ****                                              (CY_SMIF_WAIT_STATES == (cy_en_smif_error_event_t)(eve
 353:Generated_Source\PSoC6\pdl\drivers\peripheral\smif/cy_smif.h **** #define CY_SMIF_CLOCK_SEL_VALID(clkSel)     ((CY_SMIF_SEL_INTERNAL_CLK == (cy_en_smif_clk_select_t)
 354:Generated_Source\PSoC6\pdl\drivers\peripheral\smif/cy_smif.h ****                                              (CY_SMIF_SEL_INV_INTERNAL_CLK == (cy_en_smif_clk_selec
 355:Generated_Source\PSoC6\pdl\drivers\peripheral\smif/cy_smif.h ****                                              (CY_SMIF_SEL_FEEDBACK_CLK == (cy_en_smif_clk_select_t)
 356:Generated_Source\PSoC6\pdl\drivers\peripheral\smif/cy_smif.h ****                                              (CY_SMIF_SEL_INV_FEEDBACK_CLK == (cy_en_smif_clk_selec
 357:Generated_Source\PSoC6\pdl\drivers\peripheral\smif/cy_smif.h ****                                              
 358:Generated_Source\PSoC6\pdl\drivers\peripheral\smif/cy_smif.h **** #define CY_SMIF_DESELECT_DELAY_VALID(delay)     ((delay) <= CY_SMIF_MAX_DESELECT_DELAY)
 359:Generated_Source\PSoC6\pdl\drivers\peripheral\smif/cy_smif.h **** #define CY_SMIF_SLAVE_SEL_VALID(ss)     ((CY_SMIF_SLAVE_SELECT_0 == (ss)) || \
 360:Generated_Source\PSoC6\pdl\drivers\peripheral\smif/cy_smif.h ****                                          (CY_SMIF_SLAVE_SELECT_1 == (ss)) || \
 361:Generated_Source\PSoC6\pdl\drivers\peripheral\smif/cy_smif.h ****                                          (CY_SMIF_SLAVE_SELECT_2 == (ss)) || \
 362:Generated_Source\PSoC6\pdl\drivers\peripheral\smif/cy_smif.h ****                                          (CY_SMIF_SLAVE_SELECT_3 == (ss)))
 363:Generated_Source\PSoC6\pdl\drivers\peripheral\smif/cy_smif.h **** #define CY_SMIF_DATA_SEL_VALID(ss)     ((CY_SMIF_DATA_SEL0 == (ss)) || \
 364:Generated_Source\PSoC6\pdl\drivers\peripheral\smif/cy_smif.h ****                                          (CY_SMIF_DATA_SEL1 == (ss)) || \
 365:Generated_Source\PSoC6\pdl\drivers\peripheral\smif/cy_smif.h ****                                          (CY_SMIF_DATA_SEL2 == (ss)) || \
 366:Generated_Source\PSoC6\pdl\drivers\peripheral\smif/cy_smif.h ****                                          (CY_SMIF_DATA_SEL3 == (ss)))
 367:Generated_Source\PSoC6\pdl\drivers\peripheral\smif/cy_smif.h **** #define CY_SMIF_TXFR_WIDTH_VALID(width)     ((CY_SMIF_WIDTH_SINGLE == (width)) || \
 368:Generated_Source\PSoC6\pdl\drivers\peripheral\smif/cy_smif.h ****                                             (CY_SMIF_WIDTH_DUAL == (width)) || \
 369:Generated_Source\PSoC6\pdl\drivers\peripheral\smif/cy_smif.h ****                                             (CY_SMIF_WIDTH_QUAD == (width)) || \
 370:Generated_Source\PSoC6\pdl\drivers\peripheral\smif/cy_smif.h ****                                             (CY_SMIF_WIDTH_OCTAL == (width)))
 371:Generated_Source\PSoC6\pdl\drivers\peripheral\smif/cy_smif.h **** #define CY_SMIF_CMD_PARAM_VALID(param, paramSize)     (((paramSize) > 0U)? (NULL != (param)) : (tru
 372:Generated_Source\PSoC6\pdl\drivers\peripheral\smif/cy_smif.h **** 
 373:Generated_Source\PSoC6\pdl\drivers\peripheral\smif/cy_smif.h **** /***************************************
 374:Generated_Source\PSoC6\pdl\drivers\peripheral\smif/cy_smif.h **** *        Command FIFO Register
 375:Generated_Source\PSoC6\pdl\drivers\peripheral\smif/cy_smif.h **** ***************************************/
 376:Generated_Source\PSoC6\pdl\drivers\peripheral\smif/cy_smif.h **** 
 377:Generated_Source\PSoC6\pdl\drivers\peripheral\smif/cy_smif.h **** /* SMIF->TX_CMD_FIFO_WR  */
 378:Generated_Source\PSoC6\pdl\drivers\peripheral\smif/cy_smif.h **** #define CY_SMIF_TX_CMD_FIFO_WR_MODE_POS         (18U)   /* [19:18]  Command data mode */
 379:Generated_Source\PSoC6\pdl\drivers\peripheral\smif/cy_smif.h **** #define CY_SMIF_TX_CMD_FIFO_WR_WIDTH_POS        (16U)   /* [17:16]  Transfer width    */
 380:Generated_Source\PSoC6\pdl\drivers\peripheral\smif/cy_smif.h **** #define CY_SMIF_TX_CMD_FIFO_WR_LAST_BYTE_POS    (15U)   /* [15]     Last byte      */
 381:Generated_Source\PSoC6\pdl\drivers\peripheral\smif/cy_smif.h **** #define CY_SMIF_TX_CMD_FIFO_WR_SS_POS           (8U)    /* [11:8]   Slave select      */
 382:Generated_Source\PSoC6\pdl\drivers\peripheral\smif/cy_smif.h **** #define CY_SMIF_TX_CMD_FIFO_WR_TXDATA_POS       (0U)    /* [0]      Transmitted byte  */
 383:Generated_Source\PSoC6\pdl\drivers\peripheral\smif/cy_smif.h **** #define CY_SMIF_TX_CMD_FIFO_WR_DUMMY_POS        (0U)    /* [0]      Dummy count       */
 384:Generated_Source\PSoC6\pdl\drivers\peripheral\smif/cy_smif.h **** #define CY_SMIF_TX_CMD_FIFO_WR_TX_COUNT_POS     (0U)    /* [0]      TX count          */
 385:Generated_Source\PSoC6\pdl\drivers\peripheral\smif/cy_smif.h **** #define CY_SMIF_TX_CMD_FIFO_WR_RX_COUNT_POS     (0U)    /* [0]      RX count          */
 386:Generated_Source\PSoC6\pdl\drivers\peripheral\smif/cy_smif.h **** 
ARM GAS  C:\Users\ikomb\AppData\Local\Temp\cc5YtlHT.s 			page 53


 387:Generated_Source\PSoC6\pdl\drivers\peripheral\smif/cy_smif.h **** /* SMIF->TX_CMD_FIFO_WR Commands Fields */
 388:Generated_Source\PSoC6\pdl\drivers\peripheral\smif/cy_smif.h **** #define CY_SMIF_CMD_FIFO_WR_MODE_Pos            (18UL)           /* [19:18]         Command data mo
 389:Generated_Source\PSoC6\pdl\drivers\peripheral\smif/cy_smif.h **** #define CY_SMIF_CMD_FIFO_WR_MODE_Msk            (0x000C0000UL)   /* DATA[19:18]       Command data 
 390:Generated_Source\PSoC6\pdl\drivers\peripheral\smif/cy_smif.h **** 
 391:Generated_Source\PSoC6\pdl\drivers\peripheral\smif/cy_smif.h **** #define CY_SMIF_CMD_FIFO_WR_WIDTH_Pos           (16UL)           /* [17:16]         Transfer width 
 392:Generated_Source\PSoC6\pdl\drivers\peripheral\smif/cy_smif.h **** #define CY_SMIF_CMD_FIFO_WR_WIDTH_Msk           (0x00030000UL)   /* DATA[17:16]     Transfer width 
 393:Generated_Source\PSoC6\pdl\drivers\peripheral\smif/cy_smif.h **** 
 394:Generated_Source\PSoC6\pdl\drivers\peripheral\smif/cy_smif.h **** #define CY_SMIF_CMD_FIFO_WR_LAST_BYTE_Pos       (15UL)           /* [15]            Last byte      
 395:Generated_Source\PSoC6\pdl\drivers\peripheral\smif/cy_smif.h **** #define CY_SMIF_CMD_FIFO_WR_LAST_BYTE_Msk       (0x00008000UL)   /* DATA[15]        Last byte      
 396:Generated_Source\PSoC6\pdl\drivers\peripheral\smif/cy_smif.h **** 
 397:Generated_Source\PSoC6\pdl\drivers\peripheral\smif/cy_smif.h **** #define CY_SMIF_CMD_FIFO_WR_SS_Pos              (8UL)            /* [11:8]          Slave select   
 398:Generated_Source\PSoC6\pdl\drivers\peripheral\smif/cy_smif.h **** #define CY_SMIF_CMD_FIFO_WR_SS_Msk              (0x00000F00UL)   /* DATA[11:8]      Slave select   
 399:Generated_Source\PSoC6\pdl\drivers\peripheral\smif/cy_smif.h ****    
 400:Generated_Source\PSoC6\pdl\drivers\peripheral\smif/cy_smif.h **** #define CY_SMIF_CMD_FIFO_WR_TXDATA_Pos          (0UL)            /* [0]             Transmitted byt
 401:Generated_Source\PSoC6\pdl\drivers\peripheral\smif/cy_smif.h **** #define CY_SMIF_CMD_FIFO_WR_TXDATA_Msk          (0x000000FFUL)   /* DATA[7:0]         Transmitted b
 402:Generated_Source\PSoC6\pdl\drivers\peripheral\smif/cy_smif.h **** #define CY_SMIF_CMD_FIFO_WR_DUMMY_Pos           (0UL)            /* [0]             Dummy count    
 403:Generated_Source\PSoC6\pdl\drivers\peripheral\smif/cy_smif.h **** #define CY_SMIF_CMD_FIFO_WR_DUMMY_Msk           (0x0000FFFFUL)   /* DATA[15:0]      Dummy count    
 404:Generated_Source\PSoC6\pdl\drivers\peripheral\smif/cy_smif.h **** #define CY_SMIF_CMD_FIFO_WR_TX_COUNT_Msk        (0x0000FFFFUL)   /* DATA[15:0]      TX count       
 405:Generated_Source\PSoC6\pdl\drivers\peripheral\smif/cy_smif.h **** #define CY_SMIF_CMD_FIFO_WR_TX_COUNT_Pos        (0UL)            /* [0]             TX count       
 406:Generated_Source\PSoC6\pdl\drivers\peripheral\smif/cy_smif.h **** #define CY_SMIF_CMD_FIFO_WR_RX_COUNT_Msk        (0x0003FFFFUL)   /* DATA[17:0]      RX count       
 407:Generated_Source\PSoC6\pdl\drivers\peripheral\smif/cy_smif.h **** #define CY_SMIF_CMD_FIFO_WR_RX_COUNT_Pos        (0UL)            /* [0]             RX count       
 408:Generated_Source\PSoC6\pdl\drivers\peripheral\smif/cy_smif.h **** 
 409:Generated_Source\PSoC6\pdl\drivers\peripheral\smif/cy_smif.h **** /** \endcond*/
 410:Generated_Source\PSoC6\pdl\drivers\peripheral\smif/cy_smif.h **** /** \} group_smif_macros */
 411:Generated_Source\PSoC6\pdl\drivers\peripheral\smif/cy_smif.h **** 
 412:Generated_Source\PSoC6\pdl\drivers\peripheral\smif/cy_smif.h **** 
 413:Generated_Source\PSoC6\pdl\drivers\peripheral\smif/cy_smif.h **** /**
 414:Generated_Source\PSoC6\pdl\drivers\peripheral\smif/cy_smif.h **** * \addtogroup group_smif_enums
 415:Generated_Source\PSoC6\pdl\drivers\peripheral\smif/cy_smif.h **** * \{
 416:Generated_Source\PSoC6\pdl\drivers\peripheral\smif/cy_smif.h **** */
 417:Generated_Source\PSoC6\pdl\drivers\peripheral\smif/cy_smif.h **** 
 418:Generated_Source\PSoC6\pdl\drivers\peripheral\smif/cy_smif.h **** /** The Transfer width options for the command, data, the address and the mode. */
 419:Generated_Source\PSoC6\pdl\drivers\peripheral\smif/cy_smif.h **** typedef enum
 420:Generated_Source\PSoC6\pdl\drivers\peripheral\smif/cy_smif.h **** {
 421:Generated_Source\PSoC6\pdl\drivers\peripheral\smif/cy_smif.h ****     CY_SMIF_WIDTH_SINGLE   = 0U,    /**< Normal SPI mode. */
 422:Generated_Source\PSoC6\pdl\drivers\peripheral\smif/cy_smif.h ****     CY_SMIF_WIDTH_DUAL     = 1U,    /**< Dual SPI mode. */
 423:Generated_Source\PSoC6\pdl\drivers\peripheral\smif/cy_smif.h ****     CY_SMIF_WIDTH_QUAD     = 2U,    /**< Quad SPI mode. */
 424:Generated_Source\PSoC6\pdl\drivers\peripheral\smif/cy_smif.h ****     CY_SMIF_WIDTH_OCTAL    = 3U     /**< Octal SPI mode. */
 425:Generated_Source\PSoC6\pdl\drivers\peripheral\smif/cy_smif.h **** } cy_en_smif_txfr_width_t;
 426:Generated_Source\PSoC6\pdl\drivers\peripheral\smif/cy_smif.h **** 
 427:Generated_Source\PSoC6\pdl\drivers\peripheral\smif/cy_smif.h **** /** The SMIF error-event selection. */
 428:Generated_Source\PSoC6\pdl\drivers\peripheral\smif/cy_smif.h **** typedef enum
 429:Generated_Source\PSoC6\pdl\drivers\peripheral\smif/cy_smif.h **** {
 430:Generated_Source\PSoC6\pdl\drivers\peripheral\smif/cy_smif.h ****     /**< Generates a bus error. */
 431:Generated_Source\PSoC6\pdl\drivers\peripheral\smif/cy_smif.h ****     CY_SMIF_BUS_ERROR           = 0UL,
 432:Generated_Source\PSoC6\pdl\drivers\peripheral\smif/cy_smif.h ****     /** Stalls the bus with the wait states. This option will increase the 
 433:Generated_Source\PSoC6\pdl\drivers\peripheral\smif/cy_smif.h ****      * interrupt latency. 
 434:Generated_Source\PSoC6\pdl\drivers\peripheral\smif/cy_smif.h ****      */
 435:Generated_Source\PSoC6\pdl\drivers\peripheral\smif/cy_smif.h ****     CY_SMIF_WAIT_STATES         = 1UL
 436:Generated_Source\PSoC6\pdl\drivers\peripheral\smif/cy_smif.h **** } cy_en_smif_error_event_t;
 437:Generated_Source\PSoC6\pdl\drivers\peripheral\smif/cy_smif.h **** 
 438:Generated_Source\PSoC6\pdl\drivers\peripheral\smif/cy_smif.h **** /** The data line-selection options for a slave device. */
 439:Generated_Source\PSoC6\pdl\drivers\peripheral\smif/cy_smif.h **** typedef enum
 440:Generated_Source\PSoC6\pdl\drivers\peripheral\smif/cy_smif.h **** {
 441:Generated_Source\PSoC6\pdl\drivers\peripheral\smif/cy_smif.h ****     /**
 442:Generated_Source\PSoC6\pdl\drivers\peripheral\smif/cy_smif.h ****     * smif.spi_data[0] = DATA0, smif.spi_data[1] = DATA1, ..., smif.spi_data[7] = DATA7.
 443:Generated_Source\PSoC6\pdl\drivers\peripheral\smif/cy_smif.h ****     * This value is allowed for the SPI, DSPI, quad-SPI, dual quad-SPI, and octal-SPI modes.
ARM GAS  C:\Users\ikomb\AppData\Local\Temp\cc5YtlHT.s 			page 54


 444:Generated_Source\PSoC6\pdl\drivers\peripheral\smif/cy_smif.h ****     */
 445:Generated_Source\PSoC6\pdl\drivers\peripheral\smif/cy_smif.h ****     CY_SMIF_DATA_SEL0      = 0,
 446:Generated_Source\PSoC6\pdl\drivers\peripheral\smif/cy_smif.h ****     /**
 447:Generated_Source\PSoC6\pdl\drivers\peripheral\smif/cy_smif.h ****     * smif.spi_data[2] = DATA0, smif.spi_data[3] = DATA1.
 448:Generated_Source\PSoC6\pdl\drivers\peripheral\smif/cy_smif.h ****     * This value is only allowed for the SPI and DSPI modes.
 449:Generated_Source\PSoC6\pdl\drivers\peripheral\smif/cy_smif.h ****     */
 450:Generated_Source\PSoC6\pdl\drivers\peripheral\smif/cy_smif.h ****     CY_SMIF_DATA_SEL1      = 1,
 451:Generated_Source\PSoC6\pdl\drivers\peripheral\smif/cy_smif.h ****     /**
 452:Generated_Source\PSoC6\pdl\drivers\peripheral\smif/cy_smif.h ****     * smif.spi_data[4] = DATA0, smif.spi_data[5] = DATA1, ..., smif.spi_data[7] = DATA3.
 453:Generated_Source\PSoC6\pdl\drivers\peripheral\smif/cy_smif.h ****     * This value is only allowed for the SPI, DSPI, quad-SPI and dual quad-SPI modes.
 454:Generated_Source\PSoC6\pdl\drivers\peripheral\smif/cy_smif.h ****     */
 455:Generated_Source\PSoC6\pdl\drivers\peripheral\smif/cy_smif.h ****     CY_SMIF_DATA_SEL2      = 2,
 456:Generated_Source\PSoC6\pdl\drivers\peripheral\smif/cy_smif.h ****     /**
 457:Generated_Source\PSoC6\pdl\drivers\peripheral\smif/cy_smif.h ****     * smif.spi_data[6] = DATA0, smif.spi_data[7] = DATA1.
 458:Generated_Source\PSoC6\pdl\drivers\peripheral\smif/cy_smif.h ****     * This value is only allowed for the SPI and DSPI modes.
 459:Generated_Source\PSoC6\pdl\drivers\peripheral\smif/cy_smif.h ****     */
 460:Generated_Source\PSoC6\pdl\drivers\peripheral\smif/cy_smif.h ****     CY_SMIF_DATA_SEL3      = 3
 461:Generated_Source\PSoC6\pdl\drivers\peripheral\smif/cy_smif.h **** } cy_en_smif_data_select_t;
 462:Generated_Source\PSoC6\pdl\drivers\peripheral\smif/cy_smif.h **** 
 463:Generated_Source\PSoC6\pdl\drivers\peripheral\smif/cy_smif.h **** /** The SMIF modes to work with an external memory. */
 464:Generated_Source\PSoC6\pdl\drivers\peripheral\smif/cy_smif.h **** typedef enum
 465:Generated_Source\PSoC6\pdl\drivers\peripheral\smif/cy_smif.h **** {
 466:Generated_Source\PSoC6\pdl\drivers\peripheral\smif/cy_smif.h ****     CY_SMIF_NORMAL,         /**< Command mode (MMIO mode). */
 467:Generated_Source\PSoC6\pdl\drivers\peripheral\smif/cy_smif.h ****     CY_SMIF_MEMORY          /**< XIP (eXecute In Place) mode. */
 468:Generated_Source\PSoC6\pdl\drivers\peripheral\smif/cy_smif.h **** } cy_en_smif_mode_t;
 469:Generated_Source\PSoC6\pdl\drivers\peripheral\smif/cy_smif.h **** 
 470:Generated_Source\PSoC6\pdl\drivers\peripheral\smif/cy_smif.h **** /** The SMIF transfer status return values. */
 471:Generated_Source\PSoC6\pdl\drivers\peripheral\smif/cy_smif.h **** typedef enum
 472:Generated_Source\PSoC6\pdl\drivers\peripheral\smif/cy_smif.h **** {
 473:Generated_Source\PSoC6\pdl\drivers\peripheral\smif/cy_smif.h ****     CY_SMIF_STARTED,       /**< The SMIF started. */
 474:Generated_Source\PSoC6\pdl\drivers\peripheral\smif/cy_smif.h ****     CY_SMIF_SEND_CMPLT,    /**< The data transmission is complete. */
 475:Generated_Source\PSoC6\pdl\drivers\peripheral\smif/cy_smif.h ****     CY_SMIF_SEND_BUSY,     /**< The data transmission is in progress. */
 476:Generated_Source\PSoC6\pdl\drivers\peripheral\smif/cy_smif.h ****     CY_SMIF_REC_CMPLT,     /**< The data reception is completed. */
 477:Generated_Source\PSoC6\pdl\drivers\peripheral\smif/cy_smif.h ****     CY_SMIF_REC_BUSY,      /**< The data reception is in progress. */
 478:Generated_Source\PSoC6\pdl\drivers\peripheral\smif/cy_smif.h ****     CY_SMIF_XIP_ERROR,     /**< An XIP alignment error. */
 479:Generated_Source\PSoC6\pdl\drivers\peripheral\smif/cy_smif.h ****     CY_SMIF_CMD_ERROR,     /**< A TX CMD FIFO overflow. */
 480:Generated_Source\PSoC6\pdl\drivers\peripheral\smif/cy_smif.h ****     CY_SMIF_TX_ERROR,      /**< A TX DATA FIFO overflow. */
 481:Generated_Source\PSoC6\pdl\drivers\peripheral\smif/cy_smif.h ****     CY_SMIF_RX_ERROR       /**< An RX DATA FIFO underflow. */
 482:Generated_Source\PSoC6\pdl\drivers\peripheral\smif/cy_smif.h **** 
 483:Generated_Source\PSoC6\pdl\drivers\peripheral\smif/cy_smif.h **** } cy_en_smif_txfr_status_t;
 484:Generated_Source\PSoC6\pdl\drivers\peripheral\smif/cy_smif.h **** 
 485:Generated_Source\PSoC6\pdl\drivers\peripheral\smif/cy_smif.h **** /** The SMIF API return values. */
 486:Generated_Source\PSoC6\pdl\drivers\peripheral\smif/cy_smif.h **** typedef enum
 487:Generated_Source\PSoC6\pdl\drivers\peripheral\smif/cy_smif.h **** {
 488:Generated_Source\PSoC6\pdl\drivers\peripheral\smif/cy_smif.h ****     CY_SMIF_SUCCESS = 0x00U,           /**< Successful SMIF operation. */
 489:Generated_Source\PSoC6\pdl\drivers\peripheral\smif/cy_smif.h ****     CY_SMIF_CMD_FIFO_FULL   = CY_SMIF_ID |CY_PDL_STATUS_ERROR | 0x01U,     /**< The command is canc
 490:Generated_Source\PSoC6\pdl\drivers\peripheral\smif/cy_smif.h ****     CY_SMIF_EXCEED_TIMEOUT  = CY_SMIF_ID |CY_PDL_STATUS_ERROR | 0x02U,    /**< The SMIF operation t
 491:Generated_Source\PSoC6\pdl\drivers\peripheral\smif/cy_smif.h ****     /**
 492:Generated_Source\PSoC6\pdl\drivers\peripheral\smif/cy_smif.h ****     * The device does not have a QE bit. The device detects
 493:Generated_Source\PSoC6\pdl\drivers\peripheral\smif/cy_smif.h ****     * 1-1-4 and 1-4-4 Reads based on the instruction.
 494:Generated_Source\PSoC6\pdl\drivers\peripheral\smif/cy_smif.h ****     */
 495:Generated_Source\PSoC6\pdl\drivers\peripheral\smif/cy_smif.h ****     CY_SMIF_NO_QE_BIT       = CY_SMIF_ID |CY_PDL_STATUS_ERROR | 0x03U,
 496:Generated_Source\PSoC6\pdl\drivers\peripheral\smif/cy_smif.h ****     CY_SMIF_BAD_PARAM       = CY_SMIF_ID |CY_PDL_STATUS_ERROR | 0x04U,   /**< The SMIF API received
 497:Generated_Source\PSoC6\pdl\drivers\peripheral\smif/cy_smif.h ****     CY_SMIF_NO_SFDP_SUPPORT = CY_SMIF_ID |CY_PDL_STATUS_ERROR | 0x05U,   /**< The external memory d
 498:Generated_Source\PSoC6\pdl\drivers\peripheral\smif/cy_smif.h ****     /** Failed to initialize the slave select 0 external memory by auto detection (SFDP). */
 499:Generated_Source\PSoC6\pdl\drivers\peripheral\smif/cy_smif.h ****     CY_SMIF_SFDP_SS0_FAILED = CY_SMIF_ID |CY_PDL_STATUS_ERROR |
 500:Generated_Source\PSoC6\pdl\drivers\peripheral\smif/cy_smif.h ****                             ((uint32_t)CY_SMIF_SFDP_FAIL << CY_SMIF_SFDP_FAIL_SS0_POS),
ARM GAS  C:\Users\ikomb\AppData\Local\Temp\cc5YtlHT.s 			page 55


 501:Generated_Source\PSoC6\pdl\drivers\peripheral\smif/cy_smif.h ****     /** Failed to initialize the slave select 1 external memory by auto detection (SFDP). */
 502:Generated_Source\PSoC6\pdl\drivers\peripheral\smif/cy_smif.h ****     CY_SMIF_SFDP_SS1_FAILED = CY_SMIF_ID | CY_PDL_STATUS_ERROR |
 503:Generated_Source\PSoC6\pdl\drivers\peripheral\smif/cy_smif.h ****                             ((uint32_t)CY_SMIF_SFDP_FAIL << CY_SMIF_SFDP_FAIL_SS1_POS),
 504:Generated_Source\PSoC6\pdl\drivers\peripheral\smif/cy_smif.h ****     /** Failed to initialize the slave select 2 external memory by auto detection (SFDP). */
 505:Generated_Source\PSoC6\pdl\drivers\peripheral\smif/cy_smif.h ****     CY_SMIF_SFDP_SS2_FAILED = CY_SMIF_ID |CY_PDL_STATUS_ERROR |
 506:Generated_Source\PSoC6\pdl\drivers\peripheral\smif/cy_smif.h ****                             ((uint32_t)CY_SMIF_SFDP_FAIL << CY_SMIF_SFDP_FAIL_SS2_POS),
 507:Generated_Source\PSoC6\pdl\drivers\peripheral\smif/cy_smif.h ****     /** Failed to initialize the slave select 3 external memory by auto detection (SFDP). */
 508:Generated_Source\PSoC6\pdl\drivers\peripheral\smif/cy_smif.h ****     CY_SMIF_SFDP_SS3_FAILED = CY_SMIF_ID |CY_PDL_STATUS_ERROR |
 509:Generated_Source\PSoC6\pdl\drivers\peripheral\smif/cy_smif.h ****                             ((uint32_t)CY_SMIF_SFDP_FAIL << CY_SMIF_SFDP_FAIL_SS3_POS)
 510:Generated_Source\PSoC6\pdl\drivers\peripheral\smif/cy_smif.h **** 
 511:Generated_Source\PSoC6\pdl\drivers\peripheral\smif/cy_smif.h **** } cy_en_smif_status_t;
 512:Generated_Source\PSoC6\pdl\drivers\peripheral\smif/cy_smif.h **** 
 513:Generated_Source\PSoC6\pdl\drivers\peripheral\smif/cy_smif.h **** /** The SMIF slave select definitions for the driver API. Each slave select is
 514:Generated_Source\PSoC6\pdl\drivers\peripheral\smif/cy_smif.h ****  * represented by an enumeration that has the bit corresponding to the slave 
 515:Generated_Source\PSoC6\pdl\drivers\peripheral\smif/cy_smif.h ****  * select number set. */
 516:Generated_Source\PSoC6\pdl\drivers\peripheral\smif/cy_smif.h **** typedef enum
 517:Generated_Source\PSoC6\pdl\drivers\peripheral\smif/cy_smif.h **** {
 518:Generated_Source\PSoC6\pdl\drivers\peripheral\smif/cy_smif.h ****    CY_SMIF_SLAVE_SELECT_0 = 1U,  /**< The SMIF slave select 0  */
 519:Generated_Source\PSoC6\pdl\drivers\peripheral\smif/cy_smif.h ****    CY_SMIF_SLAVE_SELECT_1 = 2U,  /**< The SMIF slave select 1  */
 520:Generated_Source\PSoC6\pdl\drivers\peripheral\smif/cy_smif.h ****    CY_SMIF_SLAVE_SELECT_2 = 4U,  /**< The SMIF slave select 2  */
 521:Generated_Source\PSoC6\pdl\drivers\peripheral\smif/cy_smif.h ****    CY_SMIF_SLAVE_SELECT_3 = 8U   /**< The SMIF slave select 3  */
 522:Generated_Source\PSoC6\pdl\drivers\peripheral\smif/cy_smif.h **** } cy_en_smif_slave_select_t;
 523:Generated_Source\PSoC6\pdl\drivers\peripheral\smif/cy_smif.h **** 
 524:Generated_Source\PSoC6\pdl\drivers\peripheral\smif/cy_smif.h **** /** Specifies the clock source for the receiver clock. */
 525:Generated_Source\PSoC6\pdl\drivers\peripheral\smif/cy_smif.h **** typedef enum
 526:Generated_Source\PSoC6\pdl\drivers\peripheral\smif/cy_smif.h **** {
 527:Generated_Source\PSoC6\pdl\drivers\peripheral\smif/cy_smif.h ****    CY_SMIF_SEL_INTERNAL_CLK     = 0U,  /**< The SMIF internal clock */
 528:Generated_Source\PSoC6\pdl\drivers\peripheral\smif/cy_smif.h ****    CY_SMIF_SEL_INV_INTERNAL_CLK = 1U,  /**< The SMIF internal inverted clock */
 529:Generated_Source\PSoC6\pdl\drivers\peripheral\smif/cy_smif.h ****    CY_SMIF_SEL_FEEDBACK_CLK     = 2U,  /**< The SMIF feedback clock */
 530:Generated_Source\PSoC6\pdl\drivers\peripheral\smif/cy_smif.h ****    CY_SMIF_SEL_INV_FEEDBACK_CLK = 3U   /**< The SMIF feedback inverted clock */
 531:Generated_Source\PSoC6\pdl\drivers\peripheral\smif/cy_smif.h **** } cy_en_smif_clk_select_t;
 532:Generated_Source\PSoC6\pdl\drivers\peripheral\smif/cy_smif.h **** 
 533:Generated_Source\PSoC6\pdl\drivers\peripheral\smif/cy_smif.h **** /** Specifies enabled type of SMIF cache. */
 534:Generated_Source\PSoC6\pdl\drivers\peripheral\smif/cy_smif.h **** typedef enum
 535:Generated_Source\PSoC6\pdl\drivers\peripheral\smif/cy_smif.h **** {
 536:Generated_Source\PSoC6\pdl\drivers\peripheral\smif/cy_smif.h ****     CY_SMIF_CACHE_SLOW      = 1U,   /**< The SMIF slow cache (in the clk_slow domain) see TRM for d
 537:Generated_Source\PSoC6\pdl\drivers\peripheral\smif/cy_smif.h ****     CY_SMIF_CACHE_FAST      = 2U,   /**< The SMIF fast cache  (in the clk_fast domain) see TRM for 
 538:Generated_Source\PSoC6\pdl\drivers\peripheral\smif/cy_smif.h ****     CY_SMIF_CACHE_BOTH      = 3U    /**< The SMIF both caches */
 539:Generated_Source\PSoC6\pdl\drivers\peripheral\smif/cy_smif.h **** } cy_en_smif_cache_en_t;
 540:Generated_Source\PSoC6\pdl\drivers\peripheral\smif/cy_smif.h **** 
 541:Generated_Source\PSoC6\pdl\drivers\peripheral\smif/cy_smif.h **** /** \} group_smif_enums */
 542:Generated_Source\PSoC6\pdl\drivers\peripheral\smif/cy_smif.h **** 
 543:Generated_Source\PSoC6\pdl\drivers\peripheral\smif/cy_smif.h **** 
 544:Generated_Source\PSoC6\pdl\drivers\peripheral\smif/cy_smif.h **** /**
 545:Generated_Source\PSoC6\pdl\drivers\peripheral\smif/cy_smif.h **** * \addtogroup group_smif_data_structures
 546:Generated_Source\PSoC6\pdl\drivers\peripheral\smif/cy_smif.h **** * \{
 547:Generated_Source\PSoC6\pdl\drivers\peripheral\smif/cy_smif.h **** */
 548:Generated_Source\PSoC6\pdl\drivers\peripheral\smif/cy_smif.h **** 
 549:Generated_Source\PSoC6\pdl\drivers\peripheral\smif/cy_smif.h **** /***************************************************************************//**
 550:Generated_Source\PSoC6\pdl\drivers\peripheral\smif/cy_smif.h **** *
 551:Generated_Source\PSoC6\pdl\drivers\peripheral\smif/cy_smif.h **** * The SMIF user callback function type called at the end of a transfer.
 552:Generated_Source\PSoC6\pdl\drivers\peripheral\smif/cy_smif.h **** *
 553:Generated_Source\PSoC6\pdl\drivers\peripheral\smif/cy_smif.h **** * \param event
 554:Generated_Source\PSoC6\pdl\drivers\peripheral\smif/cy_smif.h **** * The event which caused a callback call.
 555:Generated_Source\PSoC6\pdl\drivers\peripheral\smif/cy_smif.h **** *
 556:Generated_Source\PSoC6\pdl\drivers\peripheral\smif/cy_smif.h **** *******************************************************************************/
 557:Generated_Source\PSoC6\pdl\drivers\peripheral\smif/cy_smif.h **** typedef void (*cy_smif_event_cb_t)(uint32_t event);
ARM GAS  C:\Users\ikomb\AppData\Local\Temp\cc5YtlHT.s 			page 56


 558:Generated_Source\PSoC6\pdl\drivers\peripheral\smif/cy_smif.h **** 
 559:Generated_Source\PSoC6\pdl\drivers\peripheral\smif/cy_smif.h **** 
 560:Generated_Source\PSoC6\pdl\drivers\peripheral\smif/cy_smif.h **** /** The SMIF configuration structure. */
 561:Generated_Source\PSoC6\pdl\drivers\peripheral\smif/cy_smif.h **** typedef struct
 562:Generated_Source\PSoC6\pdl\drivers\peripheral\smif/cy_smif.h **** {
 563:Generated_Source\PSoC6\pdl\drivers\peripheral\smif/cy_smif.h ****     uint32_t mode;              /**<  Specifies the mode of operation \ref cy_en_smif_mode_t. */
 564:Generated_Source\PSoC6\pdl\drivers\peripheral\smif/cy_smif.h ****     uint32_t deselectDelay;     /**<  Specifies the minimum duration of SPI de-selection between SP
