ARM GAS  C:\Users\ikomb\AppData\Local\Temp\ccmVwQIe.s 			page 1


   1              		.syntax unified
   2              		.cpu cortex-m4
   3              		.eabi_attribute 27, 1
   4              		.fpu fpv4-sp-d16
   5              		.eabi_attribute 20, 1
   6              		.eabi_attribute 21, 1
   7              		.eabi_attribute 23, 3
   8              		.eabi_attribute 24, 1
   9              		.eabi_attribute 25, 1
  10              		.eabi_attribute 26, 1
  11              		.eabi_attribute 30, 1
  12              		.eabi_attribute 34, 1
  13              		.eabi_attribute 18, 4
  14              		.thumb
  15              		.syntax unified
  16              		.file	"SmartIO.c"
  17              		.text
  18              	.Ltext0:
  19              		.cfi_sections	.debug_frame
  20              		.section	.text.SmartIO_Init,"ax",%progbits
  21              		.align	2
  22              		.global	SmartIO_Init
  23              		.thumb
  24              		.thumb_func
  25              		.type	SmartIO_Init, %function
  26              	SmartIO_Init:
  27              	.LFB128:
  28              		.file 1 "Generated_Source\\PSoC6\\SmartIO.c"
   1:Generated_Source\PSoC6/SmartIO.c **** /*******************************************************************************
   2:Generated_Source\PSoC6/SmartIO.c **** * \file SmartIO.c
   3:Generated_Source\PSoC6/SmartIO.c **** * \version 1.0
   4:Generated_Source\PSoC6/SmartIO.c **** *
   5:Generated_Source\PSoC6/SmartIO.c **** * \brief
   6:Generated_Source\PSoC6/SmartIO.c **** *  This file provides the  API for the SmartIO Component.
   7:Generated_Source\PSoC6/SmartIO.c **** *
   8:Generated_Source\PSoC6/SmartIO.c **** *******************************************************************************
   9:Generated_Source\PSoC6/SmartIO.c **** * Copyright 2016, Cypress Semiconductor Corporation. All rights reserved.
  10:Generated_Source\PSoC6/SmartIO.c **** * You may use this file only in accordance with the license, terms, conditions,
  11:Generated_Source\PSoC6/SmartIO.c **** * disclaimers, and limitations in the end user license agreement accompanying
  12:Generated_Source\PSoC6/SmartIO.c **** * the software package with which this file was provided.
  13:Generated_Source\PSoC6/SmartIO.c **** *******************************************************************************/
  14:Generated_Source\PSoC6/SmartIO.c **** 
  15:Generated_Source\PSoC6/SmartIO.c **** #include "SmartIO.h"
  16:Generated_Source\PSoC6/SmartIO.c **** 
  17:Generated_Source\PSoC6/SmartIO.c **** /* Initialization global variable */
  18:Generated_Source\PSoC6/SmartIO.c **** uint8_t SmartIO_initVar = 0u;
  19:Generated_Source\PSoC6/SmartIO.c **** 
  20:Generated_Source\PSoC6/SmartIO.c **** /* Clock configuration */
  21:Generated_Source\PSoC6/SmartIO.c **** static uint32_t SmartIO_clkConfig = 0u;
  22:Generated_Source\PSoC6/SmartIO.c **** 
  23:Generated_Source\PSoC6/SmartIO.c **** 
  24:Generated_Source\PSoC6/SmartIO.c **** /*******************************************************************************
  25:Generated_Source\PSoC6/SmartIO.c **** * Function Name: SmartIO_Init
  26:Generated_Source\PSoC6/SmartIO.c **** ****************************************************************************//**
  27:Generated_Source\PSoC6/SmartIO.c **** *
  28:Generated_Source\PSoC6/SmartIO.c **** * \brief Initializes the component as specified in the Configuration Dialog.
  29:Generated_Source\PSoC6/SmartIO.c **** *
ARM GAS  C:\Users\ikomb\AppData\Local\Temp\ccmVwQIe.s 			page 2


  30:Generated_Source\PSoC6/SmartIO.c **** * This function can also be used to reinitialize the component to the settings 
  31:Generated_Source\PSoC6/SmartIO.c **** * as specified in the Configuration dialog.
  32:Generated_Source\PSoC6/SmartIO.c **** *
  33:Generated_Source\PSoC6/SmartIO.c **** * \funcusage
  34:Generated_Source\PSoC6/SmartIO.c **** *  \snippet SmartIO_SUT.c usage_SmartIO_Init
  35:Generated_Source\PSoC6/SmartIO.c **** *******************************************************************************/
  36:Generated_Source\PSoC6/SmartIO.c **** void SmartIO_Init(void)
  37:Generated_Source\PSoC6/SmartIO.c **** {
  29              		.loc 1 37 0
  30              		.cfi_startproc
  31              		@ args = 0, pretend = 0, frame = 0
  32              		@ frame_needed = 0, uses_anonymous_args = 0
  33              		@ link register save eliminated.
  34              	.LBB52:
  35              	.LBB53:
  36              		.file 2 "Generated_Source\\PSoC6\\SmartIO.h"
   1:Generated_Source\PSoC6/SmartIO.h **** /*******************************************************************************
   2:Generated_Source\PSoC6/SmartIO.h **** * \file SmartIO.h
   3:Generated_Source\PSoC6/SmartIO.h **** * \version 1.0
   4:Generated_Source\PSoC6/SmartIO.h **** *
   5:Generated_Source\PSoC6/SmartIO.h **** * \brief
   6:Generated_Source\PSoC6/SmartIO.h **** *  This file provides constants and parameter values for the SmartIO Component.
   7:Generated_Source\PSoC6/SmartIO.h **** *
   8:Generated_Source\PSoC6/SmartIO.h **** ********************************************************************************
   9:Generated_Source\PSoC6/SmartIO.h **** * Copyright 2016, Cypress Semiconductor Corporation. All rights reserved.
  10:Generated_Source\PSoC6/SmartIO.h **** * You may use this file only in accordance with the license, terms, conditions,
  11:Generated_Source\PSoC6/SmartIO.h **** * disclaimers, and limitations in the end user license agreement accompanying
  12:Generated_Source\PSoC6/SmartIO.h **** * the software package with which this file was provided.
  13:Generated_Source\PSoC6/SmartIO.h **** *******************************************************************************/
  14:Generated_Source\PSoC6/SmartIO.h **** 
  15:Generated_Source\PSoC6/SmartIO.h **** #if !defined(CY_SMARTIO_SmartIO_H)
  16:Generated_Source\PSoC6/SmartIO.h **** #define CY_SMARTIO_SmartIO_H
  17:Generated_Source\PSoC6/SmartIO.h **** 
  18:Generated_Source\PSoC6/SmartIO.h **** #include "syslib/cy_syslib.h"
  19:Generated_Source\PSoC6/SmartIO.h **** #include "cyfitter.h"
  20:Generated_Source\PSoC6/SmartIO.h **** 
  21:Generated_Source\PSoC6/SmartIO.h **** /***************************************
  22:Generated_Source\PSoC6/SmartIO.h **** *       Constants
  23:Generated_Source\PSoC6/SmartIO.h **** ***************************************/
  24:Generated_Source\PSoC6/SmartIO.h **** 
  25:Generated_Source\PSoC6/SmartIO.h **** /* Port location*/
  26:Generated_Source\PSoC6/SmartIO.h **** #define SmartIO_PORT           SmartIO_cy_mxs40_smartio__HW
  27:Generated_Source\PSoC6/SmartIO.h **** 
  28:Generated_Source\PSoC6/SmartIO.h **** /* General constants */
  29:Generated_Source\PSoC6/SmartIO.h **** #define SmartIO_DUTRIG_MAX     (10UL)
  30:Generated_Source\PSoC6/SmartIO.h **** #define SmartIO_REGVAL_MAX     (0xffUL)
  31:Generated_Source\PSoC6/SmartIO.h **** #define SmartIO_OPC_MAX        (11UL)
  32:Generated_Source\PSoC6/SmartIO.h **** #define SmartIO_DUSIZE_MAX     (8UL)
  33:Generated_Source\PSoC6/SmartIO.h ****  
  34:Generated_Source\PSoC6/SmartIO.h **** 
  35:Generated_Source\PSoC6/SmartIO.h **** /***************************************
  36:Generated_Source\PSoC6/SmartIO.h **** *       Global Variables
  37:Generated_Source\PSoC6/SmartIO.h **** ***************************************/
  38:Generated_Source\PSoC6/SmartIO.h **** /**
  39:Generated_Source\PSoC6/SmartIO.h **** * \addtogroup group_globals
  40:Generated_Source\PSoC6/SmartIO.h **** * @{
  41:Generated_Source\PSoC6/SmartIO.h **** */
ARM GAS  C:\Users\ikomb\AppData\Local\Temp\ccmVwQIe.s 			page 3


  42:Generated_Source\PSoC6/SmartIO.h **** extern uint8_t SmartIO_initVar; /**< Initialization state variable */
  43:Generated_Source\PSoC6/SmartIO.h **** /** @} globals */
  44:Generated_Source\PSoC6/SmartIO.h **** 
  45:Generated_Source\PSoC6/SmartIO.h **** 
  46:Generated_Source\PSoC6/SmartIO.h **** /***************************************
  47:Generated_Source\PSoC6/SmartIO.h **** *        Function Prototypes
  48:Generated_Source\PSoC6/SmartIO.h **** ***************************************/
  49:Generated_Source\PSoC6/SmartIO.h **** /**
  50:Generated_Source\PSoC6/SmartIO.h **** * \addtogroup group_functions
  51:Generated_Source\PSoC6/SmartIO.h **** * @{
  52:Generated_Source\PSoC6/SmartIO.h **** */
  53:Generated_Source\PSoC6/SmartIO.h **** void SmartIO_Init(void);
  54:Generated_Source\PSoC6/SmartIO.h **** void SmartIO_Start(void);
  55:Generated_Source\PSoC6/SmartIO.h **** void SmartIO_Stop(void);
  56:Generated_Source\PSoC6/SmartIO.h **** __STATIC_INLINE void SmartIO_Enable(void);
  57:Generated_Source\PSoC6/SmartIO.h **** __STATIC_INLINE void SmartIO_Disable(void);
  58:Generated_Source\PSoC6/SmartIO.h **** __STATIC_INLINE uint8_t SmartIO_GetBypass(void);
  59:Generated_Source\PSoC6/SmartIO.h **** void SmartIO_SetBypass(uint32_t portChannel);
  60:Generated_Source\PSoC6/SmartIO.h **** void SmartIO_ClockSelect(uint32_t clockSrc);
  61:Generated_Source\PSoC6/SmartIO.h **** void SmartIO_HoldOverride(uint32_t ovCtrl);
  62:Generated_Source\PSoC6/SmartIO.h **** void SmartIO_IoSyncMode(uint32_t portTerm);
  63:Generated_Source\PSoC6/SmartIO.h **** void SmartIO_ChipSyncMode(uint32_t portTerm);
  64:Generated_Source\PSoC6/SmartIO.h **** cy_status SmartIO_LUT_SelectInputs(uint32_t lutNum, uint32_t inputNum, uint32_t inputSrc);
  65:Generated_Source\PSoC6/SmartIO.h **** void SmartIO_LUT_ConfigureMode(uint32_t lutNum, uint32_t mapping, uint32_t mode);
  66:Generated_Source\PSoC6/SmartIO.h **** cy_status SmartIO_DU_SelectTriggers(uint32_t tr0Sel, uint32_t tr1Sel, uint32_t tr2Sel);
  67:Generated_Source\PSoC6/SmartIO.h **** cy_status SmartIO_DU_SelectData(uint32_t dataNum, uint32_t dataSel);
  68:Generated_Source\PSoC6/SmartIO.h **** cy_status SmartIO_DU_RegValue(uint32_t dataValue);
  69:Generated_Source\PSoC6/SmartIO.h **** cy_status SmartIO_DU_OpCode(uint32_t opCode, uint32_t dataSize);
  70:Generated_Source\PSoC6/SmartIO.h **** /** @} functions */
  71:Generated_Source\PSoC6/SmartIO.h **** 
  72:Generated_Source\PSoC6/SmartIO.h **** 
  73:Generated_Source\PSoC6/SmartIO.h **** /***************************************
  74:Generated_Source\PSoC6/SmartIO.h **** *        API Constants
  75:Generated_Source\PSoC6/SmartIO.h **** ***************************************/
  76:Generated_Source\PSoC6/SmartIO.h **** /**
  77:Generated_Source\PSoC6/SmartIO.h **** * \addtogroup group_constants
  78:Generated_Source\PSoC6/SmartIO.h **** * @{
  79:Generated_Source\PSoC6/SmartIO.h **** */
  80:Generated_Source\PSoC6/SmartIO.h **** /** \addtogroup channelConst Port channel selection constants
  81:Generated_Source\PSoC6/SmartIO.h ****  * \brief Constants to be passed as "portChannel" parameter in SmartIO_SetBypass() function.
  82:Generated_Source\PSoC6/SmartIO.h ****  *  @{
  83:Generated_Source\PSoC6/SmartIO.h ****  */
  84:Generated_Source\PSoC6/SmartIO.h **** #define SmartIO_CHANNEL_NONE    0x00UL /**< \brief Do not bypass any channels  */
  85:Generated_Source\PSoC6/SmartIO.h **** #define SmartIO_CHANNEL0        0x01UL /**< \brief Channel 0 (data0 <-> gpio0) */
  86:Generated_Source\PSoC6/SmartIO.h **** #define SmartIO_CHANNEL1        0x02UL /**< \brief Channel 1 (data1 <-> gpio1) */
  87:Generated_Source\PSoC6/SmartIO.h **** #define SmartIO_CHANNEL2        0x04UL /**< \brief Channel 2 (data2 <-> gpio2) */
  88:Generated_Source\PSoC6/SmartIO.h **** #define SmartIO_CHANNEL3        0x08UL /**< \brief Channel 3 (data3 <-> gpio3) */
  89:Generated_Source\PSoC6/SmartIO.h **** #define SmartIO_CHANNEL4        0x10UL /**< \brief Channel 4 (data4 <-> gpio4) */
  90:Generated_Source\PSoC6/SmartIO.h **** #define SmartIO_CHANNEL5        0x20UL /**< \brief Channel 5 (data5 <-> gpio5) */
  91:Generated_Source\PSoC6/SmartIO.h **** #define SmartIO_CHANNEL6        0x40UL /**< \brief Channel 6 (data6 <-> gpio6) */
  92:Generated_Source\PSoC6/SmartIO.h **** #define SmartIO_CHANNEL7        0x80UL /**< \brief Channel 7 (data7 <-> gpio7) */
  93:Generated_Source\PSoC6/SmartIO.h **** #define SmartIO_CHANNEL_ALL     0xffUL /**< \brief Bypass all channels         */
  94:Generated_Source\PSoC6/SmartIO.h **** /** @} channelConst */
  95:Generated_Source\PSoC6/SmartIO.h **** 
  96:Generated_Source\PSoC6/SmartIO.h **** /** \addtogroup clockConst Component clock selection constants
  97:Generated_Source\PSoC6/SmartIO.h ****  * \brief Constants to be passed as "clockSrc" parameter in SmartIO_ClockSelect() function.
  98:Generated_Source\PSoC6/SmartIO.h ****  *  @{
ARM GAS  C:\Users\ikomb\AppData\Local\Temp\ccmVwQIe.s 			page 4


  99:Generated_Source\PSoC6/SmartIO.h ****  */
 100:Generated_Source\PSoC6/SmartIO.h **** #define SmartIO_CLK_GPIO0       0UL  /**< \brief Clock sourced from signal on gpio0 */
 101:Generated_Source\PSoC6/SmartIO.h **** #define SmartIO_CLK_GPIO1       1UL  /**< \brief Clock sourced from signal on gpio1 */
 102:Generated_Source\PSoC6/SmartIO.h **** #define SmartIO_CLK_GPIO2       2UL  /**< \brief Clock sourced from signal on gpio2 */
 103:Generated_Source\PSoC6/SmartIO.h **** #define SmartIO_CLK_GPIO3       3UL  /**< \brief Clock sourced from signal on gpio3 */
 104:Generated_Source\PSoC6/SmartIO.h **** #define SmartIO_CLK_GPIO4       4UL  /**< \brief Clock sourced from signal on gpio4 */
 105:Generated_Source\PSoC6/SmartIO.h **** #define SmartIO_CLK_GPIO5       5UL  /**< \brief Clock sourced from signal on gpio5 */
 106:Generated_Source\PSoC6/SmartIO.h **** #define SmartIO_CLK_GPIO6       6UL  /**< \brief Clock sourced from signal on gpio6 */
 107:Generated_Source\PSoC6/SmartIO.h **** #define SmartIO_CLK_GPIO7       7UL  /**< \brief Clock sourced from signal on gpio7 */
 108:Generated_Source\PSoC6/SmartIO.h **** #define SmartIO_CLK_DATA0       8UL  /**< \brief Clock sourced from signal on data0 */
 109:Generated_Source\PSoC6/SmartIO.h **** #define SmartIO_CLK_DATA1       9UL  /**< \brief Clock sourced from signal on data1 */
 110:Generated_Source\PSoC6/SmartIO.h **** #define SmartIO_CLK_DATA2       10UL /**< \brief Clock sourced from signal on data2 */
 111:Generated_Source\PSoC6/SmartIO.h **** #define SmartIO_CLK_DATA3       11UL /**< \brief Clock sourced from signal on data3 */
 112:Generated_Source\PSoC6/SmartIO.h **** #define SmartIO_CLK_DATA4       12UL /**< \brief Clock sourced from signal on data4 */
 113:Generated_Source\PSoC6/SmartIO.h **** #define SmartIO_CLK_DATA5       13UL /**< \brief Clock sourced from signal on data5 */
 114:Generated_Source\PSoC6/SmartIO.h **** #define SmartIO_CLK_DATA6       14UL /**< \brief Clock sourced from signal on data6 */
 115:Generated_Source\PSoC6/SmartIO.h **** #define SmartIO_CLK_DATA7       15UL /**< \brief Clock sourced from signal on data7 */
 116:Generated_Source\PSoC6/SmartIO.h **** #define SmartIO_DIV_CLK_ACT     16UL /**< \brief Clock sourced from a divided clock (Active) */
 117:Generated_Source\PSoC6/SmartIO.h **** #define SmartIO_DIV_CLK_DS      17UL /**< \brief Clock sourced from a divided clock (Deep-Sleep) */
 118:Generated_Source\PSoC6/SmartIO.h **** #define SmartIO_DIV_CLK_HIB     18UL /**< \brief Clock sourced from a divided clock (Hibernate) */
 119:Generated_Source\PSoC6/SmartIO.h **** #define SmartIO_LFCLK           19UL /**< \brief Clock sourced from LFCLK */
 120:Generated_Source\PSoC6/SmartIO.h **** #define SmartIO_CLK_GATED       20UL /**< \brief Disables the clock connection. Used when turning o
 121:Generated_Source\PSoC6/SmartIO.h **** #define SmartIO_ASYNC           31UL /**< \brief Asynchronous operation */
 122:Generated_Source\PSoC6/SmartIO.h **** /** @} clockConst */
 123:Generated_Source\PSoC6/SmartIO.h **** 
 124:Generated_Source\PSoC6/SmartIO.h **** /** \addtogroup hldOvrConst Component hold override selection constants
 125:Generated_Source\PSoC6/SmartIO.h ****  * \brief Constants to be passed as "ovCtrl" parameter in SmartIO_HoldOverride() function.
 126:Generated_Source\PSoC6/SmartIO.h ****  *  @{
 127:Generated_Source\PSoC6/SmartIO.h ****  */
 128:Generated_Source\PSoC6/SmartIO.h **** #define SmartIO_OVCTRL_DISABLE  0UL /**< \brief Controlled by HSIOM  */
 129:Generated_Source\PSoC6/SmartIO.h **** #define SmartIO_OVCTRL_ENABLE   1UL /**< \brief Controlled by SmartIO */
 130:Generated_Source\PSoC6/SmartIO.h **** /** @} hldOvrConst */
 131:Generated_Source\PSoC6/SmartIO.h **** 
 132:Generated_Source\PSoC6/SmartIO.h **** /** \addtogroup termConst Terminal selection constants
 133:Generated_Source\PSoC6/SmartIO.h ****  * \brief Constants to be passed as "portTerm" parameter in SmartIO_IoSyncMode() and 
 134:Generated_Source\PSoC6/SmartIO.h ****  *  SmartIO_ChipSyncMode() functions.
 135:Generated_Source\PSoC6/SmartIO.h ****  *  @{
 136:Generated_Source\PSoC6/SmartIO.h ****  */
 137:Generated_Source\PSoC6/SmartIO.h **** #define SmartIO_TERM_NONE       0x00UL /**< \brief No synchronization for all data/gpio     */
 138:Generated_Source\PSoC6/SmartIO.h **** #define SmartIO_TERM0           0x01UL /**< \brief Enable synchronization for data0/gpio0   */
 139:Generated_Source\PSoC6/SmartIO.h **** #define SmartIO_TERM1           0x02UL /**< \brief Enable synchronization for data1/gpio1   */
 140:Generated_Source\PSoC6/SmartIO.h **** #define SmartIO_TERM2           0x04UL /**< \brief Enable synchronization for data2/gpio2   */
 141:Generated_Source\PSoC6/SmartIO.h **** #define SmartIO_TERM3           0x08UL /**< \brief Enable synchronization for data3/gpio3   */
 142:Generated_Source\PSoC6/SmartIO.h **** #define SmartIO_TERM4           0x10UL /**< \brief Enable synchronization for data4/gpio4   */
 143:Generated_Source\PSoC6/SmartIO.h **** #define SmartIO_TERM5           0x20UL /**< \brief Enable synchronization for data5/gpio5   */
 144:Generated_Source\PSoC6/SmartIO.h **** #define SmartIO_TERM6           0x40UL /**< \brief Enable synchronization for data6/gpio6   */
 145:Generated_Source\PSoC6/SmartIO.h **** #define SmartIO_TERM7           0x80UL /**< \brief Enable synchronization for data7/gpio7   */
 146:Generated_Source\PSoC6/SmartIO.h **** #define SmartIO_TERM_ALL        0xffUL /**< \brief Enable sycnhronization for all data/gpio */
 147:Generated_Source\PSoC6/SmartIO.h **** /** @} termConst */
 148:Generated_Source\PSoC6/SmartIO.h **** 
 149:Generated_Source\PSoC6/SmartIO.h **** /** \addtogroup lutNumConst Look-up table number constants
 150:Generated_Source\PSoC6/SmartIO.h ****  * \brief Constants to be passed as "lutNum" parameter in SmartIO_LUT_SelectInputs() and SmartIO_LU
 151:Generated_Source\PSoC6/SmartIO.h ****  *  @{
 152:Generated_Source\PSoC6/SmartIO.h ****  */
 153:Generated_Source\PSoC6/SmartIO.h **** #define SmartIO_LUT0            0UL /**< \brief LUT number 0  */
 154:Generated_Source\PSoC6/SmartIO.h **** #define SmartIO_LUT1            1UL /**< \brief LUT number 1  */
 155:Generated_Source\PSoC6/SmartIO.h **** #define SmartIO_LUT2            2UL /**< \brief LUT number 2  */
ARM GAS  C:\Users\ikomb\AppData\Local\Temp\ccmVwQIe.s 			page 5


 156:Generated_Source\PSoC6/SmartIO.h **** #define SmartIO_LUT3            3UL /**< \brief LUT number 3  */
 157:Generated_Source\PSoC6/SmartIO.h **** #define SmartIO_LUT4            4UL /**< \brief LUT number 4  */
 158:Generated_Source\PSoC6/SmartIO.h **** #define SmartIO_LUT5            5UL /**< \brief LUT number 5  */
 159:Generated_Source\PSoC6/SmartIO.h **** #define SmartIO_LUT6            6UL /**< \brief LUT number 6  */
 160:Generated_Source\PSoC6/SmartIO.h **** #define SmartIO_LUT7            7UL /**< \brief LUT number 7  */
 161:Generated_Source\PSoC6/SmartIO.h **** /** @} lutNumConst */
 162:Generated_Source\PSoC6/SmartIO.h **** 
 163:Generated_Source\PSoC6/SmartIO.h **** /** \addtogroup inputNumConst LUT input number constants
 164:Generated_Source\PSoC6/SmartIO.h ****  * \brief Constants to be passed as "inputNum" parameter in SmartIO_LUT_SelectInputs() function.
 165:Generated_Source\PSoC6/SmartIO.h ****  *  @{
 166:Generated_Source\PSoC6/SmartIO.h ****  */
 167:Generated_Source\PSoC6/SmartIO.h **** #define SmartIO_LUT_INPUT0      0x01UL /**< \brief LUT input terminal 0    */
 168:Generated_Source\PSoC6/SmartIO.h **** #define SmartIO_LUT_INPUT1      0x02UL /**< \brief LUT input terminal 1    */
 169:Generated_Source\PSoC6/SmartIO.h **** #define SmartIO_LUT_INPUT2      0x04UL /**< \brief LUT input terminal 2    */
 170:Generated_Source\PSoC6/SmartIO.h **** #define SmartIO_LUT_INPUT_ALL   0x07UL /**< \brief All LUT input terminals */
 171:Generated_Source\PSoC6/SmartIO.h **** /** @} inputNumConst */
 172:Generated_Source\PSoC6/SmartIO.h **** 
 173:Generated_Source\PSoC6/SmartIO.h **** /** \addtogroup inputSrcConst LUT input source constants
 174:Generated_Source\PSoC6/SmartIO.h ****  * \brief Constants to be passed as "inputSrc" parameter in SmartIO_LUT_SelectInputs() function.
 175:Generated_Source\PSoC6/SmartIO.h ****  *  @{
 176:Generated_Source\PSoC6/SmartIO.h ****  */
 177:Generated_Source\PSoC6/SmartIO.h **** #define SmartIO_SRC_LUT0        0UL  /**< \brief Source is LUT0 output    */
 178:Generated_Source\PSoC6/SmartIO.h **** #define SmartIO_SRC_LUT1        1UL  /**< \brief Source is LUT1 output    */
 179:Generated_Source\PSoC6/SmartIO.h **** #define SmartIO_SRC_LUT2        2UL  /**< \brief Source is LUT2 output    */
 180:Generated_Source\PSoC6/SmartIO.h **** #define SmartIO_SRC_LUT3        3UL  /**< \brief Source is LUT3 output    */
 181:Generated_Source\PSoC6/SmartIO.h **** #define SmartIO_SRC_LUT4        4UL  /**< \brief Source is LUT4 output    */
 182:Generated_Source\PSoC6/SmartIO.h **** #define SmartIO_SRC_LUT5        5UL  /**< \brief Source is LUT5 output    */
 183:Generated_Source\PSoC6/SmartIO.h **** #define SmartIO_SRC_LUT6        6UL  /**< \brief Source is LUT6 output    */
 184:Generated_Source\PSoC6/SmartIO.h **** #define SmartIO_SRC_LUT7        7UL  /**< \brief Source is LUT7 output    */
 185:Generated_Source\PSoC6/SmartIO.h **** #define SmartIO_SRC_DATA_04     8UL  /**< \brief Source is data0/data4    */
 186:Generated_Source\PSoC6/SmartIO.h **** #define SmartIO_SRC_DATA_15     9UL  /**< \brief Source is data1/data5    */
 187:Generated_Source\PSoC6/SmartIO.h **** #define SmartIO_SRC_DATA_26     10UL /**< \brief Source is data2/data6    */
 188:Generated_Source\PSoC6/SmartIO.h **** #define SmartIO_SRC_DATA_37     11UL /**< \brief Source is data3/data7    */
 189:Generated_Source\PSoC6/SmartIO.h **** #define SmartIO_SRC_GPIO_04     12UL /**< \brief Source is gpio0/gpio4    */
 190:Generated_Source\PSoC6/SmartIO.h **** #define SmartIO_SRC_GPIO_15     13UL /**< \brief Source is gpio1/gpio5    */
 191:Generated_Source\PSoC6/SmartIO.h **** #define SmartIO_SRC_GPIO_26     14UL /**< \brief Source is gpio2/gpio6    */
 192:Generated_Source\PSoC6/SmartIO.h **** #define SmartIO_SRC_GPIO_37     15UL /**< \brief Source is gpio3/gpio7    */
 193:Generated_Source\PSoC6/SmartIO.h **** #define SmartIO_SRC_DU          16UL /**< \brief Source is Data Unit output */
 194:Generated_Source\PSoC6/SmartIO.h **** /** @} inputSrcConst */
 195:Generated_Source\PSoC6/SmartIO.h **** 
 196:Generated_Source\PSoC6/SmartIO.h **** /** \addtogroup modeConst LUT mode constants
 197:Generated_Source\PSoC6/SmartIO.h ****  * \brief Constants to be passed as "mode" parameter in SmartIO_LUT_ConfigureMode() function.
 198:Generated_Source\PSoC6/SmartIO.h ****  *  @{
 199:Generated_Source\PSoC6/SmartIO.h ****  */
 200:Generated_Source\PSoC6/SmartIO.h **** #define SmartIO_MODE_COMB       0UL /**< \brief Combinatorial mode      */
 201:Generated_Source\PSoC6/SmartIO.h **** #define SmartIO_MODE_REGIN      1UL /**< \brief Registered input mode   */
 202:Generated_Source\PSoC6/SmartIO.h **** #define SmartIO_MODE_REGOUT     2UL /**< \brief Registered output mode  */
 203:Generated_Source\PSoC6/SmartIO.h **** #define SmartIO_MODE_SRFF       3UL /**< \brief S/R Flip-Flop mode      */
 204:Generated_Source\PSoC6/SmartIO.h **** /** @} modeConst */
 205:Generated_Source\PSoC6/SmartIO.h **** 
 206:Generated_Source\PSoC6/SmartIO.h **** /** \addtogroup duTrConst Data Unit trigger input constants
 207:Generated_Source\PSoC6/SmartIO.h ****  * \brief Constants to be passed as "tr0Sel", "tr1Sel", and "tr2Sel" parameters in SmartIO_DU_Selec
 208:Generated_Source\PSoC6/SmartIO.h ****  *  @{
 209:Generated_Source\PSoC6/SmartIO.h ****  */
 210:Generated_Source\PSoC6/SmartIO.h **** #define SmartIO_TR_CONST_ZERO   0UL /**< \brief Constant 0        */
 211:Generated_Source\PSoC6/SmartIO.h **** #define SmartIO_TR_CONST_ONE    1UL /**< \brief Constant 1        */
 212:Generated_Source\PSoC6/SmartIO.h **** #define SmartIO_TR_DU_OUT       2UL /**< \brief Data unit output  */
ARM GAS  C:\Users\ikomb\AppData\Local\Temp\ccmVwQIe.s 			page 6


 213:Generated_Source\PSoC6/SmartIO.h **** #define SmartIO_TR_LUT0         3UL /**< \brief LUT 0 output      */
 214:Generated_Source\PSoC6/SmartIO.h **** #define SmartIO_TR_LUT1         4UL /**< \brief LUT 1 output      */
 215:Generated_Source\PSoC6/SmartIO.h **** #define SmartIO_TR_LUT2         5UL /**< \brief LUT 2 output      */
 216:Generated_Source\PSoC6/SmartIO.h **** #define SmartIO_TR_LUT3         6UL /**< \brief LUT 3 output      */
 217:Generated_Source\PSoC6/SmartIO.h **** #define SmartIO_TR_LUT4         7UL /**< \brief LUT 4 output      */
 218:Generated_Source\PSoC6/SmartIO.h **** #define SmartIO_TR_LUT5         8UL /**< \brief LUT 5 output      */
 219:Generated_Source\PSoC6/SmartIO.h **** #define SmartIO_TR_LUT6         9UL /**< \brief LUT 6 output      */
 220:Generated_Source\PSoC6/SmartIO.h **** #define SmartIO_TR_LUT7         10UL /**< \brief LUT 7 output     */
 221:Generated_Source\PSoC6/SmartIO.h **** /** @} duTrConst */
 222:Generated_Source\PSoC6/SmartIO.h **** 
 223:Generated_Source\PSoC6/SmartIO.h **** /** \addtogroup duDataConst Data Unit data register constants
 224:Generated_Source\PSoC6/SmartIO.h ****  * \brief Constants to be passed as "dataNum" parameter in SmartIO_DU_SelectData() function.
 225:Generated_Source\PSoC6/SmartIO.h ****  *  @{
 226:Generated_Source\PSoC6/SmartIO.h ****  */
 227:Generated_Source\PSoC6/SmartIO.h **** #define SmartIO_DATA0             1UL /**< \brief DU DATA0 register                  */
 228:Generated_Source\PSoC6/SmartIO.h **** #define SmartIO_DATA1             2UL /**< \brief DU DATA1 register                  */
 229:Generated_Source\PSoC6/SmartIO.h **** #define SmartIO_DATA_BOTH         3UL /**< \brief Both DU DATA0 and DATA1 registers  */
 230:Generated_Source\PSoC6/SmartIO.h **** /** @} duDataConst */
 231:Generated_Source\PSoC6/SmartIO.h **** 
 232:Generated_Source\PSoC6/SmartIO.h **** /** \addtogroup duDataSrcConst Data Unit data register source selection constants
 233:Generated_Source\PSoC6/SmartIO.h ****  * \brief Constants to be passed as "dataSel" parameter in SmartIO_DU_SelectData() function.
 234:Generated_Source\PSoC6/SmartIO.h ****  *  @{
 235:Generated_Source\PSoC6/SmartIO.h ****  */
 236:Generated_Source\PSoC6/SmartIO.h **** #define SmartIO_DATA_CONST_ZERO   0UL /**< \brief Constant 0          */
 237:Generated_Source\PSoC6/SmartIO.h **** #define SmartIO_DATA_TERM_DATA    1UL /**< \brief Terminal data[7:0]  */
 238:Generated_Source\PSoC6/SmartIO.h **** #define SmartIO_DATA_TERM_GPIO    2UL /**< \brief Terminal gpio[7:0]  */
 239:Generated_Source\PSoC6/SmartIO.h **** #define SmartIO_DATA_DU_REG       3UL /**< \brief Data Unit register  */
 240:Generated_Source\PSoC6/SmartIO.h **** /** @} duDataSrcConst */
 241:Generated_Source\PSoC6/SmartIO.h **** 
 242:Generated_Source\PSoC6/SmartIO.h **** /** \addtogroup duOpcConst Data Unit opcode constants
 243:Generated_Source\PSoC6/SmartIO.h ****  * \brief Constants to be passed as "opCode" parameter in SmartIO_DU_OpCode() function.
 244:Generated_Source\PSoC6/SmartIO.h ****  *  @{
 245:Generated_Source\PSoC6/SmartIO.h ****  */
 246:Generated_Source\PSoC6/SmartIO.h **** #define SmartIO_OPC_INCR           1UL /**< \brief Count Up                */
 247:Generated_Source\PSoC6/SmartIO.h **** #define SmartIO_OPC_DECR           2UL /**< \brief Count Down              */
 248:Generated_Source\PSoC6/SmartIO.h **** #define SmartIO_OPC_INCR_WRAP      3UL /**< \brief Count Up and wrap       */
 249:Generated_Source\PSoC6/SmartIO.h **** #define SmartIO_OPC_DECR_WRAP      4UL /**< \brief Count Down and wrap     */
 250:Generated_Source\PSoC6/SmartIO.h **** #define SmartIO_OPC_INCR_DECR      5UL /**< \brief Count Up/Down           */
 251:Generated_Source\PSoC6/SmartIO.h **** #define SmartIO_OPC_INCR_DECR_WRAP 6UL /**< \brief Count Up/Down and wrap  */
 252:Generated_Source\PSoC6/SmartIO.h **** #define SmartIO_OPC_ROR            7UL /**< \brief Rotate right            */
 253:Generated_Source\PSoC6/SmartIO.h **** #define SmartIO_OPC_SHR            8UL /**< \brief Shift right             */
 254:Generated_Source\PSoC6/SmartIO.h **** #define SmartIO_OPC_AND_OR         9UL /**< \brief DU Data0 AND DU Data1   */
 255:Generated_Source\PSoC6/SmartIO.h **** #define SmartIO_OPC_SHR_MAJ3       10UL /**< \brief Majority 3              */
 256:Generated_Source\PSoC6/SmartIO.h **** #define SmartIO_OPC_SHR_EQL        11UL /**< \brief Equal DU Data1         */
 257:Generated_Source\PSoC6/SmartIO.h **** /** @} duOpcConst */
 258:Generated_Source\PSoC6/SmartIO.h **** 
 259:Generated_Source\PSoC6/SmartIO.h **** /** @} group_constants */
 260:Generated_Source\PSoC6/SmartIO.h **** 
 261:Generated_Source\PSoC6/SmartIO.h **** 
 262:Generated_Source\PSoC6/SmartIO.h **** /***************************************
 263:Generated_Source\PSoC6/SmartIO.h **** *    Initial Parameter Constants
 264:Generated_Source\PSoC6/SmartIO.h **** ***************************************/
 265:Generated_Source\PSoC6/SmartIO.h ****     
 266:Generated_Source\PSoC6/SmartIO.h **** /* Global control */
 267:Generated_Source\PSoC6/SmartIO.h **** #define SmartIO_BYPASS0         1UL
 268:Generated_Source\PSoC6/SmartIO.h **** #define SmartIO_BYPASS1         1UL
 269:Generated_Source\PSoC6/SmartIO.h **** #define SmartIO_BYPASS2         1UL
ARM GAS  C:\Users\ikomb\AppData\Local\Temp\ccmVwQIe.s 			page 7


 270:Generated_Source\PSoC6/SmartIO.h **** #define SmartIO_BYPASS3         1UL
 271:Generated_Source\PSoC6/SmartIO.h **** #define SmartIO_BYPASS4         0UL
 272:Generated_Source\PSoC6/SmartIO.h **** #define SmartIO_BYPASS5         1UL
 273:Generated_Source\PSoC6/SmartIO.h **** #define SmartIO_BYPASS6         0UL
 274:Generated_Source\PSoC6/SmartIO.h **** #define SmartIO_BYPASS7         1UL
 275:Generated_Source\PSoC6/SmartIO.h **** #define SmartIO_CLOCK_SELECT    16UL
 276:Generated_Source\PSoC6/SmartIO.h **** #define SmartIO_HLD_OVR         0UL
 277:Generated_Source\PSoC6/SmartIO.h **** 
 278:Generated_Source\PSoC6/SmartIO.h **** /* IO Synchronization control */
 279:Generated_Source\PSoC6/SmartIO.h **** #define SmartIO_IO_SYNC0        0UL
 280:Generated_Source\PSoC6/SmartIO.h **** #define SmartIO_IO_SYNC1        0UL
 281:Generated_Source\PSoC6/SmartIO.h **** #define SmartIO_IO_SYNC2        0UL
 282:Generated_Source\PSoC6/SmartIO.h **** #define SmartIO_IO_SYNC3        0UL
 283:Generated_Source\PSoC6/SmartIO.h **** #define SmartIO_IO_SYNC4        0UL
 284:Generated_Source\PSoC6/SmartIO.h **** #define SmartIO_IO_SYNC5        0UL
 285:Generated_Source\PSoC6/SmartIO.h **** #define SmartIO_IO_SYNC6        0UL
 286:Generated_Source\PSoC6/SmartIO.h **** #define SmartIO_IO_SYNC7        0UL
 287:Generated_Source\PSoC6/SmartIO.h **** 
 288:Generated_Source\PSoC6/SmartIO.h **** /* Chip Data Synchronization control */
 289:Generated_Source\PSoC6/SmartIO.h **** #define SmartIO_DATA_SYNC0      0UL
 290:Generated_Source\PSoC6/SmartIO.h **** #define SmartIO_DATA_SYNC1      0UL
 291:Generated_Source\PSoC6/SmartIO.h **** #define SmartIO_DATA_SYNC2      0UL
 292:Generated_Source\PSoC6/SmartIO.h **** #define SmartIO_DATA_SYNC3      0UL
 293:Generated_Source\PSoC6/SmartIO.h **** #define SmartIO_DATA_SYNC4      0UL
 294:Generated_Source\PSoC6/SmartIO.h **** #define SmartIO_DATA_SYNC5      0UL
 295:Generated_Source\PSoC6/SmartIO.h **** #define SmartIO_DATA_SYNC6      0UL
 296:Generated_Source\PSoC6/SmartIO.h **** #define SmartIO_DATA_SYNC7      0UL
 297:Generated_Source\PSoC6/SmartIO.h **** 
 298:Generated_Source\PSoC6/SmartIO.h **** /* LUT input selection */
 299:Generated_Source\PSoC6/SmartIO.h **** #define SmartIO_LUT0_TR0        17UL
 300:Generated_Source\PSoC6/SmartIO.h **** #define SmartIO_LUT0_TR1        17UL
 301:Generated_Source\PSoC6/SmartIO.h **** #define SmartIO_LUT0_TR2        17UL
 302:Generated_Source\PSoC6/SmartIO.h **** #define SmartIO_LUT1_TR0        17UL
 303:Generated_Source\PSoC6/SmartIO.h **** #define SmartIO_LUT1_TR1        17UL
 304:Generated_Source\PSoC6/SmartIO.h **** #define SmartIO_LUT1_TR2        17UL
 305:Generated_Source\PSoC6/SmartIO.h **** #define SmartIO_LUT2_TR0        2UL
 306:Generated_Source\PSoC6/SmartIO.h **** #define SmartIO_LUT2_TR1        2UL
 307:Generated_Source\PSoC6/SmartIO.h **** #define SmartIO_LUT2_TR2        2UL
 308:Generated_Source\PSoC6/SmartIO.h **** #define SmartIO_LUT3_TR0        2UL
 309:Generated_Source\PSoC6/SmartIO.h **** #define SmartIO_LUT3_TR1        3UL
 310:Generated_Source\PSoC6/SmartIO.h **** #define SmartIO_LUT3_TR2        3UL
 311:Generated_Source\PSoC6/SmartIO.h **** #define SmartIO_LUT4_TR0        8UL
 312:Generated_Source\PSoC6/SmartIO.h **** #define SmartIO_LUT4_TR1        3UL
 313:Generated_Source\PSoC6/SmartIO.h **** #define SmartIO_LUT4_TR2        3UL
 314:Generated_Source\PSoC6/SmartIO.h **** #define SmartIO_LUT5_TR0        17UL
 315:Generated_Source\PSoC6/SmartIO.h **** #define SmartIO_LUT5_TR1        17UL
 316:Generated_Source\PSoC6/SmartIO.h **** #define SmartIO_LUT5_TR2        17UL
 317:Generated_Source\PSoC6/SmartIO.h **** #define SmartIO_LUT6_TR0        4UL
 318:Generated_Source\PSoC6/SmartIO.h **** #define SmartIO_LUT6_TR1        4UL
 319:Generated_Source\PSoC6/SmartIO.h **** #define SmartIO_LUT6_TR2        4UL
 320:Generated_Source\PSoC6/SmartIO.h **** #define SmartIO_LUT7_TR0        17UL
 321:Generated_Source\PSoC6/SmartIO.h **** #define SmartIO_LUT7_TR1        17UL
 322:Generated_Source\PSoC6/SmartIO.h **** #define SmartIO_LUT7_TR2        17UL
 323:Generated_Source\PSoC6/SmartIO.h **** 
 324:Generated_Source\PSoC6/SmartIO.h **** /* LUT truth table */
 325:Generated_Source\PSoC6/SmartIO.h **** #define SmartIO_LUT0_MAP        0UL
 326:Generated_Source\PSoC6/SmartIO.h **** #define SmartIO_LUT1_MAP        0UL
ARM GAS  C:\Users\ikomb\AppData\Local\Temp\ccmVwQIe.s 			page 8


 327:Generated_Source\PSoC6/SmartIO.h **** #define SmartIO_LUT2_MAP        1UL
 328:Generated_Source\PSoC6/SmartIO.h **** #define SmartIO_LUT3_MAP        129UL
 329:Generated_Source\PSoC6/SmartIO.h **** #define SmartIO_LUT4_MAP        66UL
 330:Generated_Source\PSoC6/SmartIO.h **** #define SmartIO_LUT5_MAP        0UL
 331:Generated_Source\PSoC6/SmartIO.h **** #define SmartIO_LUT6_MAP        1UL
 332:Generated_Source\PSoC6/SmartIO.h **** #define SmartIO_LUT7_MAP        0UL
 333:Generated_Source\PSoC6/SmartIO.h **** 
 334:Generated_Source\PSoC6/SmartIO.h **** /* LUT mode */
 335:Generated_Source\PSoC6/SmartIO.h **** #define SmartIO_LUT0_MODE       0UL
 336:Generated_Source\PSoC6/SmartIO.h **** #define SmartIO_LUT1_MODE       0UL
 337:Generated_Source\PSoC6/SmartIO.h **** #define SmartIO_LUT2_MODE       2UL
 338:Generated_Source\PSoC6/SmartIO.h **** #define SmartIO_LUT3_MODE       2UL
 339:Generated_Source\PSoC6/SmartIO.h **** #define SmartIO_LUT4_MODE       0UL
 340:Generated_Source\PSoC6/SmartIO.h **** #define SmartIO_LUT5_MODE       0UL
 341:Generated_Source\PSoC6/SmartIO.h **** #define SmartIO_LUT6_MODE       0UL
 342:Generated_Source\PSoC6/SmartIO.h **** #define SmartIO_LUT7_MODE       0UL
 343:Generated_Source\PSoC6/SmartIO.h **** 
 344:Generated_Source\PSoC6/SmartIO.h **** /* DU input selection */
 345:Generated_Source\PSoC6/SmartIO.h **** #define SmartIO_DU_TR0          0UL
 346:Generated_Source\PSoC6/SmartIO.h **** #define SmartIO_DU_TR1          0UL
 347:Generated_Source\PSoC6/SmartIO.h **** #define SmartIO_DU_TR2          0UL
 348:Generated_Source\PSoC6/SmartIO.h **** 
 349:Generated_Source\PSoC6/SmartIO.h **** /* DU configuration */
 350:Generated_Source\PSoC6/SmartIO.h **** #define SmartIO_DU_DATA0        0UL
 351:Generated_Source\PSoC6/SmartIO.h **** #define SmartIO_DU_DATA1        0UL
 352:Generated_Source\PSoC6/SmartIO.h **** #define SmartIO_DU_REG          0UL
 353:Generated_Source\PSoC6/SmartIO.h **** #define SmartIO_DU_SIZE         7UL
 354:Generated_Source\PSoC6/SmartIO.h **** #define SmartIO_DU_OPCODE       1UL
 355:Generated_Source\PSoC6/SmartIO.h **** 
 356:Generated_Source\PSoC6/SmartIO.h **** 
 357:Generated_Source\PSoC6/SmartIO.h **** /***************************************
 358:Generated_Source\PSoC6/SmartIO.h **** *        Register Constants
 359:Generated_Source\PSoC6/SmartIO.h **** ***************************************/
 360:Generated_Source\PSoC6/SmartIO.h **** 
 361:Generated_Source\PSoC6/SmartIO.h **** /* Channel number */
 362:Generated_Source\PSoC6/SmartIO.h **** #define SmartIO_CH0                       (0U)
 363:Generated_Source\PSoC6/SmartIO.h **** #define SmartIO_CH1                       (1U)
 364:Generated_Source\PSoC6/SmartIO.h **** #define SmartIO_CH2                       (2U)
 365:Generated_Source\PSoC6/SmartIO.h **** #define SmartIO_CH3                       (3U)
 366:Generated_Source\PSoC6/SmartIO.h **** #define SmartIO_CH4                       (4U)
 367:Generated_Source\PSoC6/SmartIO.h **** #define SmartIO_CH5                       (5U)
 368:Generated_Source\PSoC6/SmartIO.h **** #define SmartIO_CH6                       (6U)
 369:Generated_Source\PSoC6/SmartIO.h **** #define SmartIO_CH7                       (7U)
 370:Generated_Source\PSoC6/SmartIO.h **** 
 371:Generated_Source\PSoC6/SmartIO.h **** /* SmartIO Fabric Enable/Disable */
 372:Generated_Source\PSoC6/SmartIO.h **** #define SmartIO_FABRIC_ENABLE             ((uint32_t)((uint32_t)0x01U << SMARTIO_PRT_CTL_ENABLED_Po
 373:Generated_Source\PSoC6/SmartIO.h **** #define SmartIO_FABRIC_DISABLE            ((uint32_t)(~(uint32_t)((uint32_t)0x01U << SMARTIO_PRT_CT
 374:Generated_Source\PSoC6/SmartIO.h **** 
 375:Generated_Source\PSoC6/SmartIO.h **** /* Bypass Mask */
 376:Generated_Source\PSoC6/SmartIO.h **** #define SmartIO_BYPASS_CLEAR              ((uint32_t)(~(uint32_t)(SMARTIO_PRT_CTL_BYPASS_Msk)))
 377:Generated_Source\PSoC6/SmartIO.h **** 
 378:Generated_Source\PSoC6/SmartIO.h **** /* Clock Source Const 0, clear, mask */
 379:Generated_Source\PSoC6/SmartIO.h **** #define SmartIO_CLOCK_CONST_ZERO          ((uint32_t)((uint32_t)SmartIO_CLK_GATED << SMARTIO_PRT_CT
 380:Generated_Source\PSoC6/SmartIO.h **** #define SmartIO_CLOCK_CLEAR               ((uint32_t)(~(uint32_t)(SMARTIO_PRT_CTL_CLOCK_SRC_Msk)))
 381:Generated_Source\PSoC6/SmartIO.h **** 
 382:Generated_Source\PSoC6/SmartIO.h **** /* Hold override HSIOM/SmartIO */
 383:Generated_Source\PSoC6/SmartIO.h **** #define SmartIO_HLD_OVR_SMARTIO           ((uint32_t)((uint32_t)0x01U << SMARTIO_PRT_CTL_HLD_OVR_Po
ARM GAS  C:\Users\ikomb\AppData\Local\Temp\ccmVwQIe.s 			page 9


 384:Generated_Source\PSoC6/SmartIO.h **** #define SmartIO_HLD_OVR_HSIOM             ((uint32_t)(~(uint32_t)((uint32_t)0x01U << SMARTIO_PRT_CT
 385:Generated_Source\PSoC6/SmartIO.h **** 
 386:Generated_Source\PSoC6/SmartIO.h **** /* Pipeline Enable/Disable */
 387:Generated_Source\PSoC6/SmartIO.h **** #define SmartIO_PIPELINE_ENABLE           ((uint32_t)((uint32_t)0x01U << SMARTIO_PRT_CTL_PIPELINE_E
 388:Generated_Source\PSoC6/SmartIO.h **** #define SmartIO_PIPELINE_DISABLE          ((uint32_t)(~(uint32_t)((uint32_t)0x01U << SMARTIO_PRT_CT
 389:Generated_Source\PSoC6/SmartIO.h **** 
 390:Generated_Source\PSoC6/SmartIO.h **** /* Sync control clear */
 391:Generated_Source\PSoC6/SmartIO.h **** #define SmartIO_IO_SYNC_CLEAR             ((uint32_t)(~(uint32_t)(SMARTIO_PRT_SYNC_CTL_IO_SYNC_EN_M
 392:Generated_Source\PSoC6/SmartIO.h **** #define SmartIO_DATA_SYNC_CLEAR           ((uint32_t)(~(uint32_t)(SMARTIO_PRT_SYNC_CTL_CHIP_SYNC_EN
 393:Generated_Source\PSoC6/SmartIO.h **** 
 394:Generated_Source\PSoC6/SmartIO.h **** /* LUT inputs clear */
 395:Generated_Source\PSoC6/SmartIO.h **** #define SmartIO_LUT_TR0_CLEAR             ((uint32_t)(~(uint32_t)(SMARTIO_PRT_LUT_SEL_LUT_TR0_SEL_M
 396:Generated_Source\PSoC6/SmartIO.h **** #define SmartIO_LUT_TR1_CLEAR             ((uint32_t)(~(uint32_t)(SMARTIO_PRT_LUT_SEL_LUT_TR1_SEL_M
 397:Generated_Source\PSoC6/SmartIO.h **** #define SmartIO_LUT_TR2_CLEAR             ((uint32_t)(~(uint32_t)(SMARTIO_PRT_LUT_SEL_LUT_TR2_SEL_M
 398:Generated_Source\PSoC6/SmartIO.h **** #define SmartIO_LUT_TR_CLEAR_ALL          (SmartIO_LUT_TR0_CLEAR & SmartIO_LUT_TR1_CLEAR & SmartIO_
 399:Generated_Source\PSoC6/SmartIO.h **** 
 400:Generated_Source\PSoC6/SmartIO.h **** /* LUT config clear */
 401:Generated_Source\PSoC6/SmartIO.h **** #define SmartIO_LUT_MAP_CLEAR             ((uint32_t)(~(uint32_t)(SMARTIO_PRT_LUT_CTL_LUT_Msk)))
 402:Generated_Source\PSoC6/SmartIO.h **** #define SmartIO_LUT_OPC_CLEAR             ((uint32_t)(~(uint32_t)(SMARTIO_PRT_LUT_CTL_LUT_OPC_Msk))
 403:Generated_Source\PSoC6/SmartIO.h **** #define SmartIO_LUT_CTL_CLEAR             ((uint32_t)(SmartIO_LUT_MAP_CLEAR & SmartIO_LUT_OPC_CLEAR
 404:Generated_Source\PSoC6/SmartIO.h **** 
 405:Generated_Source\PSoC6/SmartIO.h **** /* DU inputs clear */
 406:Generated_Source\PSoC6/SmartIO.h **** #define SmartIO_DU_TR0_CLEAR              ((uint32_t)(~(uint32_t)(SMARTIO_PRT_DU_SEL_DU_TR0_SEL_Msk
 407:Generated_Source\PSoC6/SmartIO.h **** #define SmartIO_DU_TR1_CLEAR              ((uint32_t)(~(uint32_t)(SMARTIO_PRT_DU_SEL_DU_TR1_SEL_Msk
 408:Generated_Source\PSoC6/SmartIO.h **** #define SmartIO_DU_TR2_CLEAR              ((uint32_t)(~(uint32_t)(SMARTIO_PRT_DU_SEL_DU_TR2_SEL_Msk
 409:Generated_Source\PSoC6/SmartIO.h **** #define SmartIO_DU_TR_CLEAR_ALL           (SmartIO_DU_TR0_CLEAR & SmartIO_DU_TR1_CLEAR & SmartIO_DU
 410:Generated_Source\PSoC6/SmartIO.h **** 
 411:Generated_Source\PSoC6/SmartIO.h **** /* DU DATA0 and DATA1 clear */
 412:Generated_Source\PSoC6/SmartIO.h **** #define SmartIO_DU_DATA0_CLEAR            ((uint32_t)(~(uint32_t)(SMARTIO_PRT_DU_SEL_DU_DATA0_SEL_M
 413:Generated_Source\PSoC6/SmartIO.h **** #define SmartIO_DU_DATA1_CLEAR            ((uint32_t)(~(uint32_t)(SMARTIO_PRT_DU_SEL_DU_DATA1_SEL_M
 414:Generated_Source\PSoC6/SmartIO.h **** #define SmartIO_DU_DATA01_CLEAR_BOTH      (SmartIO_DU_DATA0_CLEAR & SmartIO_DU_DATA1_CLEAR)
 415:Generated_Source\PSoC6/SmartIO.h **** 
 416:Generated_Source\PSoC6/SmartIO.h **** 
 417:Generated_Source\PSoC6/SmartIO.h **** /***************************************
 418:Generated_Source\PSoC6/SmartIO.h **** *        Initial configuration
 419:Generated_Source\PSoC6/SmartIO.h **** ***************************************/
 420:Generated_Source\PSoC6/SmartIO.h **** 
 421:Generated_Source\PSoC6/SmartIO.h **** /* Bypass configuration */
 422:Generated_Source\PSoC6/SmartIO.h **** #define SmartIO_INIT_BYPASS              ((uint32_t)(((SmartIO_BYPASS0)       | \
 423:Generated_Source\PSoC6/SmartIO.h ****                                                      (SmartIO_BYPASS1 << SmartIO_CH1) | \
 424:Generated_Source\PSoC6/SmartIO.h ****                                                      (SmartIO_BYPASS2 << SmartIO_CH2) | \
 425:Generated_Source\PSoC6/SmartIO.h ****                                                      (SmartIO_BYPASS3 << SmartIO_CH3) | \
 426:Generated_Source\PSoC6/SmartIO.h ****                                                      (SmartIO_BYPASS4 << SmartIO_CH4) | \
 427:Generated_Source\PSoC6/SmartIO.h ****                                                      (SmartIO_BYPASS5 << SmartIO_CH5) | \
 428:Generated_Source\PSoC6/SmartIO.h ****                                                      (SmartIO_BYPASS6 << SmartIO_CH6) | \
 429:Generated_Source\PSoC6/SmartIO.h ****                                                      (SmartIO_BYPASS7 << SmartIO_CH7))  \
 430:Generated_Source\PSoC6/SmartIO.h ****                                                      << SMARTIO_PRT_CTL_BYPASS_Pos))
 431:Generated_Source\PSoC6/SmartIO.h **** 
 432:Generated_Source\PSoC6/SmartIO.h **** /* Clock configuration */
 433:Generated_Source\PSoC6/SmartIO.h **** #define SmartIO_INIT_CLOCK_SRC           ((uint32_t)(SmartIO_CLOCK_SELECT << SMARTIO_PRT_CTL_CLOCK_
 434:Generated_Source\PSoC6/SmartIO.h **** 
 435:Generated_Source\PSoC6/SmartIO.h **** /* Hold override configuration */
 436:Generated_Source\PSoC6/SmartIO.h **** #define SmartIO_INIT_HLD_OVR             ((uint32_t)(SmartIO_HLD_OVR << SMARTIO_PRT_CTL_HLD_OVR_Pos
 437:Generated_Source\PSoC6/SmartIO.h **** 
 438:Generated_Source\PSoC6/SmartIO.h **** /* Disable the pipeline */
 439:Generated_Source\PSoC6/SmartIO.h **** #define SmartIO_INIT_PIPELINE_EN         ((uint32_t)((uint32_t)0x00U << SMARTIO_PRT_CTL_PIPELINE_EN
 440:Generated_Source\PSoC6/SmartIO.h **** 
ARM GAS  C:\Users\ikomb\AppData\Local\Temp\ccmVwQIe.s 			page 10


 441:Generated_Source\PSoC6/SmartIO.h **** /* Initial general control configuration */
 442:Generated_Source\PSoC6/SmartIO.h **** #define SmartIO_INIT_CTL_CONFIG          ((uint32_t)(SmartIO_INIT_PIPELINE_EN | \
 443:Generated_Source\PSoC6/SmartIO.h ****                                                     SmartIO_INIT_HLD_OVR     | \
 444:Generated_Source\PSoC6/SmartIO.h ****                                                     SmartIO_INIT_CLOCK_SRC   | \
 445:Generated_Source\PSoC6/SmartIO.h ****                                                     SmartIO_INIT_BYPASS))
 446:Generated_Source\PSoC6/SmartIO.h **** 
 447:Generated_Source\PSoC6/SmartIO.h **** /* IO Sync configuration */
 448:Generated_Source\PSoC6/SmartIO.h **** #define SmartIO_INIT_IO_SYNC             ((uint32_t)(((SmartIO_IO_SYNC0)       | \
 449:Generated_Source\PSoC6/SmartIO.h ****                                                      (SmartIO_IO_SYNC1 << SmartIO_CH1) | \
 450:Generated_Source\PSoC6/SmartIO.h ****                                                      (SmartIO_IO_SYNC2 << SmartIO_CH2) | \
 451:Generated_Source\PSoC6/SmartIO.h ****                                                      (SmartIO_IO_SYNC3 << SmartIO_CH3) | \
 452:Generated_Source\PSoC6/SmartIO.h ****                                                      (SmartIO_IO_SYNC4 << SmartIO_CH4) | \
 453:Generated_Source\PSoC6/SmartIO.h ****                                                      (SmartIO_IO_SYNC5 << SmartIO_CH5) | \
 454:Generated_Source\PSoC6/SmartIO.h ****                                                      (SmartIO_IO_SYNC6 << SmartIO_CH6) | \
 455:Generated_Source\PSoC6/SmartIO.h ****                                                      (SmartIO_IO_SYNC7 << SmartIO_CH7))  \
 456:Generated_Source\PSoC6/SmartIO.h ****                                                      << SMARTIO_PRT_SYNC_CTL_IO_SYNC_EN_Pos))
 457:Generated_Source\PSoC6/SmartIO.h **** 
 458:Generated_Source\PSoC6/SmartIO.h **** /* Chip data Sync configuration */
 459:Generated_Source\PSoC6/SmartIO.h **** #define SmartIO_INIT_DATA_SYNC           ((uint32_t)(((SmartIO_DATA_SYNC0)       | \
 460:Generated_Source\PSoC6/SmartIO.h ****                                                      (SmartIO_DATA_SYNC1 << SmartIO_CH1) | \
 461:Generated_Source\PSoC6/SmartIO.h ****                                                      (SmartIO_DATA_SYNC2 << SmartIO_CH2) | \
 462:Generated_Source\PSoC6/SmartIO.h ****                                                      (SmartIO_DATA_SYNC3 << SmartIO_CH3) | \
 463:Generated_Source\PSoC6/SmartIO.h ****                                                      (SmartIO_DATA_SYNC4 << SmartIO_CH4) | \
 464:Generated_Source\PSoC6/SmartIO.h ****                                                      (SmartIO_DATA_SYNC5 << SmartIO_CH5) | \
 465:Generated_Source\PSoC6/SmartIO.h ****                                                      (SmartIO_DATA_SYNC6 << SmartIO_CH6) | \
 466:Generated_Source\PSoC6/SmartIO.h ****                                                      (SmartIO_DATA_SYNC7 << SmartIO_CH7))  \
 467:Generated_Source\PSoC6/SmartIO.h ****                                                      << SMARTIO_PRT_SYNC_CTL_CHIP_SYNC_EN_Pos))
 468:Generated_Source\PSoC6/SmartIO.h **** 
 469:Generated_Source\PSoC6/SmartIO.h **** /* Initial synchronization configuration */
 470:Generated_Source\PSoC6/SmartIO.h **** #define SmartIO_INIT_SYNC_CONFIG         ((uint32_t)(SmartIO_INIT_DATA_SYNC | \
 471:Generated_Source\PSoC6/SmartIO.h ****                                                      SmartIO_INIT_IO_SYNC))
 472:Generated_Source\PSoC6/SmartIO.h **** 
 473:Generated_Source\PSoC6/SmartIO.h **** /* Initial LUTs input select TR0 */
 474:Generated_Source\PSoC6/SmartIO.h **** #define SmartIO_INIT_LUT0_TR0            ((uint32_t)((SmartIO_LUT0_TR0 << SMARTIO_PRT_LUT_SEL_LUT_T
 475:Generated_Source\PSoC6/SmartIO.h **** #define SmartIO_INIT_LUT1_TR0            ((uint32_t)((SmartIO_LUT1_TR0 << SMARTIO_PRT_LUT_SEL_LUT_T
 476:Generated_Source\PSoC6/SmartIO.h **** #define SmartIO_INIT_LUT2_TR0            ((uint32_t)((SmartIO_LUT2_TR0 << SMARTIO_PRT_LUT_SEL_LUT_T
 477:Generated_Source\PSoC6/SmartIO.h **** #define SmartIO_INIT_LUT3_TR0            ((uint32_t)((SmartIO_LUT3_TR0 << SMARTIO_PRT_LUT_SEL_LUT_T
 478:Generated_Source\PSoC6/SmartIO.h **** #define SmartIO_INIT_LUT4_TR0            ((uint32_t)((SmartIO_LUT4_TR0 << SMARTIO_PRT_LUT_SEL_LUT_T
 479:Generated_Source\PSoC6/SmartIO.h **** #define SmartIO_INIT_LUT5_TR0            ((uint32_t)((SmartIO_LUT5_TR0 << SMARTIO_PRT_LUT_SEL_LUT_T
 480:Generated_Source\PSoC6/SmartIO.h **** #define SmartIO_INIT_LUT6_TR0            ((uint32_t)((SmartIO_LUT6_TR0 << SMARTIO_PRT_LUT_SEL_LUT_T
 481:Generated_Source\PSoC6/SmartIO.h **** #define SmartIO_INIT_LUT7_TR0            ((uint32_t)((SmartIO_LUT7_TR0 << SMARTIO_PRT_LUT_SEL_LUT_T
 482:Generated_Source\PSoC6/SmartIO.h **** 
 483:Generated_Source\PSoC6/SmartIO.h **** /* Initial LUTs input select TR1 */
 484:Generated_Source\PSoC6/SmartIO.h **** #define SmartIO_INIT_LUT0_TR1            ((uint32_t)((SmartIO_LUT0_TR1 << SMARTIO_PRT_LUT_SEL_LUT_T
 485:Generated_Source\PSoC6/SmartIO.h **** #define SmartIO_INIT_LUT1_TR1            ((uint32_t)((SmartIO_LUT1_TR1 << SMARTIO_PRT_LUT_SEL_LUT_T
 486:Generated_Source\PSoC6/SmartIO.h **** #define SmartIO_INIT_LUT2_TR1            ((uint32_t)((SmartIO_LUT2_TR1 << SMARTIO_PRT_LUT_SEL_LUT_T
 487:Generated_Source\PSoC6/SmartIO.h **** #define SmartIO_INIT_LUT3_TR1            ((uint32_t)((SmartIO_LUT3_TR1 << SMARTIO_PRT_LUT_SEL_LUT_T
 488:Generated_Source\PSoC6/SmartIO.h **** #define SmartIO_INIT_LUT4_TR1            ((uint32_t)((SmartIO_LUT4_TR1 << SMARTIO_PRT_LUT_SEL_LUT_T
 489:Generated_Source\PSoC6/SmartIO.h **** #define SmartIO_INIT_LUT5_TR1            ((uint32_t)((SmartIO_LUT5_TR1 << SMARTIO_PRT_LUT_SEL_LUT_T
 490:Generated_Source\PSoC6/SmartIO.h **** #define SmartIO_INIT_LUT6_TR1            ((uint32_t)((SmartIO_LUT6_TR1 << SMARTIO_PRT_LUT_SEL_LUT_T
 491:Generated_Source\PSoC6/SmartIO.h **** #define SmartIO_INIT_LUT7_TR1            ((uint32_t)((SmartIO_LUT7_TR1 << SMARTIO_PRT_LUT_SEL_LUT_T
 492:Generated_Source\PSoC6/SmartIO.h **** 
 493:Generated_Source\PSoC6/SmartIO.h **** /* Initial LUTs input select TR2 */
 494:Generated_Source\PSoC6/SmartIO.h **** #define SmartIO_INIT_LUT0_TR2            ((uint32_t)((SmartIO_LUT0_TR2 << SMARTIO_PRT_LUT_SEL_LUT_T
 495:Generated_Source\PSoC6/SmartIO.h **** #define SmartIO_INIT_LUT1_TR2            ((uint32_t)((SmartIO_LUT1_TR2 << SMARTIO_PRT_LUT_SEL_LUT_T
 496:Generated_Source\PSoC6/SmartIO.h **** #define SmartIO_INIT_LUT2_TR2            ((uint32_t)((SmartIO_LUT2_TR2 << SMARTIO_PRT_LUT_SEL_LUT_T
 497:Generated_Source\PSoC6/SmartIO.h **** #define SmartIO_INIT_LUT3_TR2            ((uint32_t)((SmartIO_LUT3_TR2 << SMARTIO_PRT_LUT_SEL_LUT_T
ARM GAS  C:\Users\ikomb\AppData\Local\Temp\ccmVwQIe.s 			page 11


 498:Generated_Source\PSoC6/SmartIO.h **** #define SmartIO_INIT_LUT4_TR2            ((uint32_t)((SmartIO_LUT4_TR2 << SMARTIO_PRT_LUT_SEL_LUT_T
 499:Generated_Source\PSoC6/SmartIO.h **** #define SmartIO_INIT_LUT5_TR2            ((uint32_t)((SmartIO_LUT5_TR2 << SMARTIO_PRT_LUT_SEL_LUT_T
 500:Generated_Source\PSoC6/SmartIO.h **** #define SmartIO_INIT_LUT6_TR2            ((uint32_t)((SmartIO_LUT6_TR2 << SMARTIO_PRT_LUT_SEL_LUT_T
 501:Generated_Source\PSoC6/SmartIO.h **** #define SmartIO_INIT_LUT7_TR2            ((uint32_t)((SmartIO_LUT7_TR2 << SMARTIO_PRT_LUT_SEL_LUT_T
 502:Generated_Source\PSoC6/SmartIO.h **** 
 503:Generated_Source\PSoC6/SmartIO.h **** /* Initial LUTs input selections */
 504:Generated_Source\PSoC6/SmartIO.h **** #define SmartIO_INIT_LUT0_SEL_CONFIG     ((uint32_t)(SmartIO_INIT_LUT0_TR0 | \
 505:Generated_Source\PSoC6/SmartIO.h ****                                                     SmartIO_INIT_LUT0_TR1 | \
 506:Generated_Source\PSoC6/SmartIO.h ****                                                     SmartIO_INIT_LUT0_TR2))
 507:Generated_Source\PSoC6/SmartIO.h **** #define SmartIO_INIT_LUT1_SEL_CONFIG     ((uint32_t)(SmartIO_INIT_LUT1_TR0 | \
 508:Generated_Source\PSoC6/SmartIO.h ****                                                     SmartIO_INIT_LUT1_TR1 | \
 509:Generated_Source\PSoC6/SmartIO.h ****                                                     SmartIO_INIT_LUT1_TR2))
 510:Generated_Source\PSoC6/SmartIO.h **** #define SmartIO_INIT_LUT2_SEL_CONFIG     ((uint32_t)(SmartIO_INIT_LUT2_TR0 | \
 511:Generated_Source\PSoC6/SmartIO.h ****                                                     SmartIO_INIT_LUT2_TR1 | \
 512:Generated_Source\PSoC6/SmartIO.h ****                                                     SmartIO_INIT_LUT2_TR2))
 513:Generated_Source\PSoC6/SmartIO.h **** #define SmartIO_INIT_LUT3_SEL_CONFIG     ((uint32_t)(SmartIO_INIT_LUT3_TR0 | \
 514:Generated_Source\PSoC6/SmartIO.h ****                                                     SmartIO_INIT_LUT3_TR1 | \
 515:Generated_Source\PSoC6/SmartIO.h ****                                                     SmartIO_INIT_LUT3_TR2))
 516:Generated_Source\PSoC6/SmartIO.h **** #define SmartIO_INIT_LUT4_SEL_CONFIG     ((uint32_t)(SmartIO_INIT_LUT4_TR0 | \
 517:Generated_Source\PSoC6/SmartIO.h ****                                                     SmartIO_INIT_LUT4_TR1 | \
 518:Generated_Source\PSoC6/SmartIO.h ****                                                     SmartIO_INIT_LUT4_TR2))
 519:Generated_Source\PSoC6/SmartIO.h **** #define SmartIO_INIT_LUT5_SEL_CONFIG     ((uint32_t)(SmartIO_INIT_LUT5_TR0 | \
 520:Generated_Source\PSoC6/SmartIO.h ****                                                     SmartIO_INIT_LUT5_TR1 | \
 521:Generated_Source\PSoC6/SmartIO.h ****                                                     SmartIO_INIT_LUT5_TR2))
 522:Generated_Source\PSoC6/SmartIO.h **** #define SmartIO_INIT_LUT6_SEL_CONFIG     ((uint32_t)(SmartIO_INIT_LUT6_TR0 | \
 523:Generated_Source\PSoC6/SmartIO.h ****                                                     SmartIO_INIT_LUT6_TR1 | \
 524:Generated_Source\PSoC6/SmartIO.h ****                                                     SmartIO_INIT_LUT6_TR2))
 525:Generated_Source\PSoC6/SmartIO.h **** #define SmartIO_INIT_LUT7_SEL_CONFIG     ((uint32_t)(SmartIO_INIT_LUT7_TR0 | \
 526:Generated_Source\PSoC6/SmartIO.h ****                                                     SmartIO_INIT_LUT7_TR1 | \
 527:Generated_Source\PSoC6/SmartIO.h ****                                                     SmartIO_INIT_LUT7_TR2))
 528:Generated_Source\PSoC6/SmartIO.h **** 
 529:Generated_Source\PSoC6/SmartIO.h **** /* Initial LUTs truth tables */
 530:Generated_Source\PSoC6/SmartIO.h **** #define SmartIO_INIT_LUT0_MAP            ((uint32_t)(SmartIO_LUT0_MAP << SMARTIO_PRT_LUT_CTL_LUT_Po
 531:Generated_Source\PSoC6/SmartIO.h **** #define SmartIO_INIT_LUT1_MAP            ((uint32_t)(SmartIO_LUT1_MAP << SMARTIO_PRT_LUT_CTL_LUT_Po
 532:Generated_Source\PSoC6/SmartIO.h **** #define SmartIO_INIT_LUT2_MAP            ((uint32_t)(SmartIO_LUT2_MAP << SMARTIO_PRT_LUT_CTL_LUT_Po
 533:Generated_Source\PSoC6/SmartIO.h **** #define SmartIO_INIT_LUT3_MAP            ((uint32_t)(SmartIO_LUT3_MAP << SMARTIO_PRT_LUT_CTL_LUT_Po
 534:Generated_Source\PSoC6/SmartIO.h **** #define SmartIO_INIT_LUT4_MAP            ((uint32_t)(SmartIO_LUT4_MAP << SMARTIO_PRT_LUT_CTL_LUT_Po
 535:Generated_Source\PSoC6/SmartIO.h **** #define SmartIO_INIT_LUT5_MAP            ((uint32_t)(SmartIO_LUT5_MAP << SMARTIO_PRT_LUT_CTL_LUT_Po
 536:Generated_Source\PSoC6/SmartIO.h **** #define SmartIO_INIT_LUT6_MAP            ((uint32_t)(SmartIO_LUT6_MAP << SMARTIO_PRT_LUT_CTL_LUT_Po
 537:Generated_Source\PSoC6/SmartIO.h **** #define SmartIO_INIT_LUT7_MAP            ((uint32_t)(SmartIO_LUT7_MAP << SMARTIO_PRT_LUT_CTL_LUT_Po
 538:Generated_Source\PSoC6/SmartIO.h **** 
 539:Generated_Source\PSoC6/SmartIO.h **** /* Initial LUTs modes */
 540:Generated_Source\PSoC6/SmartIO.h **** #define SmartIO_INIT_LUT0_MODE           ((uint32_t)(SmartIO_LUT0_MODE << SMARTIO_PRT_LUT_CTL_LUT_O
 541:Generated_Source\PSoC6/SmartIO.h **** #define SmartIO_INIT_LUT1_MODE           ((uint32_t)(SmartIO_LUT1_MODE << SMARTIO_PRT_LUT_CTL_LUT_O
 542:Generated_Source\PSoC6/SmartIO.h **** #define SmartIO_INIT_LUT2_MODE           ((uint32_t)(SmartIO_LUT2_MODE << SMARTIO_PRT_LUT_CTL_LUT_O
 543:Generated_Source\PSoC6/SmartIO.h **** #define SmartIO_INIT_LUT3_MODE           ((uint32_t)(SmartIO_LUT3_MODE << SMARTIO_PRT_LUT_CTL_LUT_O
 544:Generated_Source\PSoC6/SmartIO.h **** #define SmartIO_INIT_LUT4_MODE           ((uint32_t)(SmartIO_LUT4_MODE << SMARTIO_PRT_LUT_CTL_LUT_O
 545:Generated_Source\PSoC6/SmartIO.h **** #define SmartIO_INIT_LUT5_MODE           ((uint32_t)(SmartIO_LUT5_MODE << SMARTIO_PRT_LUT_CTL_LUT_O
 546:Generated_Source\PSoC6/SmartIO.h **** #define SmartIO_INIT_LUT6_MODE           ((uint32_t)(SmartIO_LUT6_MODE << SMARTIO_PRT_LUT_CTL_LUT_O
 547:Generated_Source\PSoC6/SmartIO.h **** #define SmartIO_INIT_LUT7_MODE           ((uint32_t)(SmartIO_LUT7_MODE << SMARTIO_PRT_LUT_CTL_LUT_O
 548:Generated_Source\PSoC6/SmartIO.h **** 
 549:Generated_Source\PSoC6/SmartIO.h **** /* Initial LUTs control configuration */
 550:Generated_Source\PSoC6/SmartIO.h **** #define SmartIO_INIT_LUT0_CTL_CONFIG     ((uint32_t)(SmartIO_INIT_LUT0_MAP  | SmartIO_INIT_LUT0_MOD
 551:Generated_Source\PSoC6/SmartIO.h **** #define SmartIO_INIT_LUT1_CTL_CONFIG     ((uint32_t)(SmartIO_INIT_LUT1_MAP  | SmartIO_INIT_LUT1_MOD
 552:Generated_Source\PSoC6/SmartIO.h **** #define SmartIO_INIT_LUT2_CTL_CONFIG     ((uint32_t)(SmartIO_INIT_LUT2_MAP  | SmartIO_INIT_LUT2_MOD
 553:Generated_Source\PSoC6/SmartIO.h **** #define SmartIO_INIT_LUT3_CTL_CONFIG     ((uint32_t)(SmartIO_INIT_LUT3_MAP  | SmartIO_INIT_LUT3_MOD
 554:Generated_Source\PSoC6/SmartIO.h **** #define SmartIO_INIT_LUT4_CTL_CONFIG     ((uint32_t)(SmartIO_INIT_LUT4_MAP  | SmartIO_INIT_LUT4_MOD
ARM GAS  C:\Users\ikomb\AppData\Local\Temp\ccmVwQIe.s 			page 12


 555:Generated_Source\PSoC6/SmartIO.h **** #define SmartIO_INIT_LUT5_CTL_CONFIG     ((uint32_t)(SmartIO_INIT_LUT5_MAP  | SmartIO_INIT_LUT5_MOD
 556:Generated_Source\PSoC6/SmartIO.h **** #define SmartIO_INIT_LUT6_CTL_CONFIG     ((uint32_t)(SmartIO_INIT_LUT6_MAP  | SmartIO_INIT_LUT6_MOD
 557:Generated_Source\PSoC6/SmartIO.h **** #define SmartIO_INIT_LUT7_CTL_CONFIG     ((uint32_t)(SmartIO_INIT_LUT7_MAP  | SmartIO_INIT_LUT7_MOD
 558:Generated_Source\PSoC6/SmartIO.h **** 
 559:Generated_Source\PSoC6/SmartIO.h **** /* Initial DU selection configuration */
 560:Generated_Source\PSoC6/SmartIO.h **** #define SmartIO_INIT_DU_TR0_SEL          ((uint32_t)(SmartIO_DU_TR0 << SMARTIO_PRT_DU_SEL_DU_TR0_SE
 561:Generated_Source\PSoC6/SmartIO.h **** #define SmartIO_INIT_DU_TR1_SEL          ((uint32_t)(SmartIO_DU_TR1 << SMARTIO_PRT_DU_SEL_DU_TR1_SE
 562:Generated_Source\PSoC6/SmartIO.h **** #define SmartIO_INIT_DU_TR2_SEL          ((uint32_t)(SmartIO_DU_TR2 << SMARTIO_PRT_DU_SEL_DU_TR2_SE
 563:Generated_Source\PSoC6/SmartIO.h **** #define SmartIO_INIT_DU_DATA0_SEL        ((uint32_t)(SmartIO_DU_DATA0 << SMARTIO_PRT_DU_SEL_DU_DATA
 564:Generated_Source\PSoC6/SmartIO.h **** #define SmartIO_INIT_DU_DATA1_SEL        ((uint32_t)(SmartIO_DU_DATA1 << SMARTIO_PRT_DU_SEL_DU_DATA
 565:Generated_Source\PSoC6/SmartIO.h **** 
 566:Generated_Source\PSoC6/SmartIO.h **** #define SmartIO_INIT_DU_SEL              ((uint32_t)(SmartIO_INIT_DU_TR0_SEL | \
 567:Generated_Source\PSoC6/SmartIO.h ****                                                     SmartIO_INIT_DU_TR1_SEL | \
 568:Generated_Source\PSoC6/SmartIO.h ****                                                     SmartIO_INIT_DU_TR2_SEL | \
 569:Generated_Source\PSoC6/SmartIO.h ****                                                     SmartIO_INIT_DU_DATA0_SEL | \
 570:Generated_Source\PSoC6/SmartIO.h ****                                                     SmartIO_INIT_DU_DATA1_SEL ))
 571:Generated_Source\PSoC6/SmartIO.h **** 
 572:Generated_Source\PSoC6/SmartIO.h **** /* Initial DU control configuration */
 573:Generated_Source\PSoC6/SmartIO.h **** #define SmartIO_INIT_DU_SIZE             ((uint32_t)(SmartIO_DU_SIZE << SMARTIO_PRT_DU_CTL_DU_SIZE_
 574:Generated_Source\PSoC6/SmartIO.h **** #define SmartIO_INIT_DU_OPC              ((uint32_t)(SmartIO_DU_OPCODE << SMARTIO_PRT_DU_CTL_DU_OPC
 575:Generated_Source\PSoC6/SmartIO.h **** 
 576:Generated_Source\PSoC6/SmartIO.h **** #define SmartIO_INIT_DU_CTL              ((uint32_t)(SmartIO_INIT_DU_SIZE | \
 577:Generated_Source\PSoC6/SmartIO.h ****                                                     SmartIO_INIT_DU_OPC ))
 578:Generated_Source\PSoC6/SmartIO.h **** 
 579:Generated_Source\PSoC6/SmartIO.h **** /* Initial DU Data register */
 580:Generated_Source\PSoC6/SmartIO.h **** #define SmartIO_INIT_DU_DATA_REG         SmartIO_DU_REG
 581:Generated_Source\PSoC6/SmartIO.h **** 
 582:Generated_Source\PSoC6/SmartIO.h **** 
 583:Generated_Source\PSoC6/SmartIO.h **** /***************************************
 584:Generated_Source\PSoC6/SmartIO.h **** *        Inline Functions
 585:Generated_Source\PSoC6/SmartIO.h **** ***************************************/
 586:Generated_Source\PSoC6/SmartIO.h **** 
 587:Generated_Source\PSoC6/SmartIO.h **** /**
 588:Generated_Source\PSoC6/SmartIO.h **** * \addtogroup group_functions
 589:Generated_Source\PSoC6/SmartIO.h **** * @{
 590:Generated_Source\PSoC6/SmartIO.h **** */
 591:Generated_Source\PSoC6/SmartIO.h **** 
 592:Generated_Source\PSoC6/SmartIO.h **** 
 593:Generated_Source\PSoC6/SmartIO.h **** /*******************************************************************************
 594:Generated_Source\PSoC6/SmartIO.h **** * Function Name: SmartIO_Enable
 595:Generated_Source\PSoC6/SmartIO.h **** ****************************************************************************//**
 596:Generated_Source\PSoC6/SmartIO.h **** *
 597:Generated_Source\PSoC6/SmartIO.h **** * \brief Enables the component. 
 598:Generated_Source\PSoC6/SmartIO.h **** *  
 599:Generated_Source\PSoC6/SmartIO.h **** * Once enabled, it takes two component clock cycles for the fabric reset to
 600:Generated_Source\PSoC6/SmartIO.h **** * deactivate and the fabric becomes operational. If the clock source is set to
 601:Generated_Source\PSoC6/SmartIO.h **** * Asynchronous mode, it takes three SYSCLK cycles before becoming functional.
 602:Generated_Source\PSoC6/SmartIO.h **** *
 603:Generated_Source\PSoC6/SmartIO.h **** * \funcusage
 604:Generated_Source\PSoC6/SmartIO.h **** *  \snippet SmartIO_SUT.c usage_SmartIO_Enable
 605:Generated_Source\PSoC6/SmartIO.h **** *******************************************************************************/
 606:Generated_Source\PSoC6/SmartIO.h **** __STATIC_INLINE void SmartIO_Enable(void)
 607:Generated_Source\PSoC6/SmartIO.h **** {
 608:Generated_Source\PSoC6/SmartIO.h ****     SmartIO_PORT->CTL |= SmartIO_FABRIC_ENABLE;
 609:Generated_Source\PSoC6/SmartIO.h **** }
 610:Generated_Source\PSoC6/SmartIO.h **** 
 611:Generated_Source\PSoC6/SmartIO.h **** 
ARM GAS  C:\Users\ikomb\AppData\Local\Temp\ccmVwQIe.s 			page 13


 612:Generated_Source\PSoC6/SmartIO.h **** /*******************************************************************************
 613:Generated_Source\PSoC6/SmartIO.h **** * Function Name: SmartIO_Disable
 614:Generated_Source\PSoC6/SmartIO.h **** ****************************************************************************//**
 615:Generated_Source\PSoC6/SmartIO.h **** *
 616:Generated_Source\PSoC6/SmartIO.h **** * \brief Disables the component. 
 617:Generated_Source\PSoC6/SmartIO.h **** *  
 618:Generated_Source\PSoC6/SmartIO.h **** * The block is disabled, which places the channels into bypass mode and the
 619:Generated_Source\PSoC6/SmartIO.h **** * sequential elements are reset based on the chosen clock selection.
 620:Generated_Source\PSoC6/SmartIO.h **** *
 621:Generated_Source\PSoC6/SmartIO.h **** * \funcusage
 622:Generated_Source\PSoC6/SmartIO.h **** *  \snippet SmartIO_SUT.c usage_SmartIO_Disable
 623:Generated_Source\PSoC6/SmartIO.h **** *******************************************************************************/
 624:Generated_Source\PSoC6/SmartIO.h **** __STATIC_INLINE void SmartIO_Disable(void)
 625:Generated_Source\PSoC6/SmartIO.h **** {
 626:Generated_Source\PSoC6/SmartIO.h ****     SmartIO_PORT->CTL &= SmartIO_FABRIC_DISABLE;
  37              		.loc 2 626 0
  38 0000 184B     		ldr	r3, .L2
  39 0002 1A68     		ldr	r2, [r3]
  40 0004 22F00042 		bic	r2, r2, #-2147483648
  41 0008 1A60     		str	r2, [r3]
  42              	.LBE53:
  43              	.LBE52:
  38:Generated_Source\PSoC6/SmartIO.c ****     /* Must disable the block before configuring */
  39:Generated_Source\PSoC6/SmartIO.c ****     SmartIO_Disable();
  40:Generated_Source\PSoC6/SmartIO.c ****     /* Save the clock configuration */
  41:Generated_Source\PSoC6/SmartIO.c ****     SmartIO_clkConfig = SmartIO_INIT_CLOCK_SRC;
  44              		.loc 1 41 0
  45 000a 4FF48051 		mov	r1, #4096
  46 000e 164A     		ldr	r2, .L2+4
  47 0010 1160     		str	r1, [r2]
  42:Generated_Source\PSoC6/SmartIO.c ****     /* General control */
  43:Generated_Source\PSoC6/SmartIO.c ****     SmartIO_PORT->CTL = SmartIO_INIT_CTL_CONFIG;
  48              		.loc 1 43 0
  49 0012 41F2AF02 		movw	r2, #4271
  50 0016 1A60     		str	r2, [r3]
  44:Generated_Source\PSoC6/SmartIO.c ****     /* Synchronization control */
  45:Generated_Source\PSoC6/SmartIO.c ****     SmartIO_PORT->SYNC_CTL = SmartIO_INIT_SYNC_CONFIG;
  51              		.loc 1 45 0
  52 0018 0022     		movs	r2, #0
  53 001a 1A61     		str	r2, [r3, #16]
  46:Generated_Source\PSoC6/SmartIO.c ****     /* LUT input selection */
  47:Generated_Source\PSoC6/SmartIO.c ****     SmartIO_PORT->LUT_SEL[SmartIO_LUT0] = SmartIO_INIT_LUT0_SEL_CONFIG;
  54              		.loc 1 47 0
  55 001c 1349     		ldr	r1, .L2+8
  56 001e 1962     		str	r1, [r3, #32]
  48:Generated_Source\PSoC6/SmartIO.c ****     SmartIO_PORT->LUT_SEL[SmartIO_LUT1] = SmartIO_INIT_LUT1_SEL_CONFIG;
  57              		.loc 1 48 0
  58 0020 5962     		str	r1, [r3, #36]
  49:Generated_Source\PSoC6/SmartIO.c ****     SmartIO_PORT->LUT_SEL[SmartIO_LUT2] = SmartIO_INIT_LUT2_SEL_CONFIG;
  59              		.loc 1 49 0
  60 0022 1348     		ldr	r0, .L2+12
  61 0024 9862     		str	r0, [r3, #40]
  50:Generated_Source\PSoC6/SmartIO.c ****     SmartIO_PORT->LUT_SEL[SmartIO_LUT3] = SmartIO_INIT_LUT3_SEL_CONFIG;
  62              		.loc 1 50 0
  63 0026 1348     		ldr	r0, .L2+16
  64 0028 D862     		str	r0, [r3, #44]
  51:Generated_Source\PSoC6/SmartIO.c ****     SmartIO_PORT->LUT_SEL[SmartIO_LUT4] = SmartIO_INIT_LUT4_SEL_CONFIG;
ARM GAS  C:\Users\ikomb\AppData\Local\Temp\ccmVwQIe.s 			page 14


  65              		.loc 1 51 0
  66 002a 0630     		adds	r0, r0, #6
  67 002c 1863     		str	r0, [r3, #48]
  52:Generated_Source\PSoC6/SmartIO.c ****     SmartIO_PORT->LUT_SEL[SmartIO_LUT5] = SmartIO_INIT_LUT5_SEL_CONFIG;
  68              		.loc 1 52 0
  69 002e 5963     		str	r1, [r3, #52]
  53:Generated_Source\PSoC6/SmartIO.c ****     SmartIO_PORT->LUT_SEL[SmartIO_LUT6] = SmartIO_INIT_LUT6_SEL_CONFIG;
  70              		.loc 1 53 0
  71 0030 1148     		ldr	r0, .L2+20
  72 0032 9863     		str	r0, [r3, #56]
  54:Generated_Source\PSoC6/SmartIO.c ****     SmartIO_PORT->LUT_SEL[SmartIO_LUT7] = SmartIO_INIT_LUT7_SEL_CONFIG;
  73              		.loc 1 54 0
  74 0034 D963     		str	r1, [r3, #60]
  55:Generated_Source\PSoC6/SmartIO.c ****     /* LUT control */
  56:Generated_Source\PSoC6/SmartIO.c ****     SmartIO_PORT->LUT_CTL[SmartIO_LUT0] = SmartIO_INIT_LUT0_CTL_CONFIG;
  75              		.loc 1 56 0
  76 0036 1A64     		str	r2, [r3, #64]
  57:Generated_Source\PSoC6/SmartIO.c ****     SmartIO_PORT->LUT_CTL[SmartIO_LUT1] = SmartIO_INIT_LUT1_CTL_CONFIG;
  77              		.loc 1 57 0
  78 0038 5A64     		str	r2, [r3, #68]
  58:Generated_Source\PSoC6/SmartIO.c ****     SmartIO_PORT->LUT_CTL[SmartIO_LUT2] = SmartIO_INIT_LUT2_CTL_CONFIG;
  79              		.loc 1 58 0
  80 003a 40F20121 		movw	r1, #513
  81 003e 9964     		str	r1, [r3, #72]
  59:Generated_Source\PSoC6/SmartIO.c ****     SmartIO_PORT->LUT_CTL[SmartIO_LUT3] = SmartIO_INIT_LUT3_CTL_CONFIG;
  82              		.loc 1 59 0
  83 0040 40F28121 		movw	r1, #641
  84 0044 D964     		str	r1, [r3, #76]
  60:Generated_Source\PSoC6/SmartIO.c ****     SmartIO_PORT->LUT_CTL[SmartIO_LUT4] = SmartIO_INIT_LUT4_CTL_CONFIG;
  85              		.loc 1 60 0
  86 0046 4221     		movs	r1, #66
  87 0048 1965     		str	r1, [r3, #80]
  61:Generated_Source\PSoC6/SmartIO.c ****     SmartIO_PORT->LUT_CTL[SmartIO_LUT5] = SmartIO_INIT_LUT5_CTL_CONFIG;
  88              		.loc 1 61 0
  89 004a 5A65     		str	r2, [r3, #84]
  62:Generated_Source\PSoC6/SmartIO.c ****     SmartIO_PORT->LUT_CTL[SmartIO_LUT6] = SmartIO_INIT_LUT6_CTL_CONFIG;
  90              		.loc 1 62 0
  91 004c 0121     		movs	r1, #1
  92 004e 9965     		str	r1, [r3, #88]
  63:Generated_Source\PSoC6/SmartIO.c ****     SmartIO_PORT->LUT_CTL[SmartIO_LUT7] = SmartIO_INIT_LUT7_CTL_CONFIG;
  93              		.loc 1 63 0
  94 0050 DA65     		str	r2, [r3, #92]
  64:Generated_Source\PSoC6/SmartIO.c ****     /* Configure the Data Unit */
  65:Generated_Source\PSoC6/SmartIO.c ****     SmartIO_PORT->DU_SEL = SmartIO_INIT_DU_SEL;
  95              		.loc 1 65 0
  96 0052 C3F8C020 		str	r2, [r3, #192]
  66:Generated_Source\PSoC6/SmartIO.c ****     SmartIO_PORT->DU_CTL = SmartIO_INIT_DU_CTL;
  97              		.loc 1 66 0
  98 0056 40F20711 		movw	r1, #263
  99 005a C3F8C410 		str	r1, [r3, #196]
  67:Generated_Source\PSoC6/SmartIO.c ****     SmartIO_PORT->DATA = SmartIO_INIT_DU_DATA_REG;
 100              		.loc 1 67 0
 101 005e C3F8F020 		str	r2, [r3, #240]
 102 0062 7047     		bx	lr
 103              	.L3:
 104              		.align	2
 105              	.L2:
ARM GAS  C:\Users\ikomb\AppData\Local\Temp\ccmVwQIe.s 			page 15


 106 0064 00093340 		.word	1077086464
 107 0068 00000000 		.word	.LANCHOR0
 108 006c 01010100 		.word	65793
 109 0070 02020200 		.word	131586
 110 0074 02030300 		.word	197378
 111 0078 04040400 		.word	263172
 112              		.cfi_endproc
 113              	.LFE128:
 114              		.size	SmartIO_Init, .-SmartIO_Init
 115              		.section	.text.SmartIO_Start,"ax",%progbits
 116              		.align	2
 117              		.global	SmartIO_Start
 118              		.thumb
 119              		.thumb_func
 120              		.type	SmartIO_Start, %function
 121              	SmartIO_Start:
 122              	.LFB129:
  68:Generated_Source\PSoC6/SmartIO.c **** }
  69:Generated_Source\PSoC6/SmartIO.c **** 
  70:Generated_Source\PSoC6/SmartIO.c **** 
  71:Generated_Source\PSoC6/SmartIO.c **** /*******************************************************************************
  72:Generated_Source\PSoC6/SmartIO.c **** * Function Name: SmartIO_Start
  73:Generated_Source\PSoC6/SmartIO.c **** ****************************************************************************//**
  74:Generated_Source\PSoC6/SmartIO.c **** *
  75:Generated_Source\PSoC6/SmartIO.c **** * \brief Invokes SmartIO_Init() and SmartIO_Enable().
  76:Generated_Source\PSoC6/SmartIO.c **** *  
  77:Generated_Source\PSoC6/SmartIO.c **** * After this function call, the component is initialized to specified values
  78:Generated_Source\PSoC6/SmartIO.c **** * in the Configuration dialog and is then enabled.
  79:Generated_Source\PSoC6/SmartIO.c **** *
  80:Generated_Source\PSoC6/SmartIO.c **** * If calling this function after calling SmartIO_Stop(), the fabric
  81:Generated_Source\PSoC6/SmartIO.c **** * will set the clock configuration as specified before calling Stop().
  82:Generated_Source\PSoC6/SmartIO.c **** *
  83:Generated_Source\PSoC6/SmartIO.c **** * \globalvars
  84:Generated_Source\PSoC6/SmartIO.c **** *  SmartIO_initVar - used to check initial configuration, modified
  85:Generated_Source\PSoC6/SmartIO.c **** *  on first function call.
  86:Generated_Source\PSoC6/SmartIO.c **** *
  87:Generated_Source\PSoC6/SmartIO.c **** * \funcusage
  88:Generated_Source\PSoC6/SmartIO.c **** *  \snippet SmartIO_SUT.c usage_SmartIO_Start
  89:Generated_Source\PSoC6/SmartIO.c **** *******************************************************************************/
  90:Generated_Source\PSoC6/SmartIO.c **** void SmartIO_Start(void)
  91:Generated_Source\PSoC6/SmartIO.c **** {
 123              		.loc 1 91 0
 124              		.cfi_startproc
 125              		@ args = 0, pretend = 0, frame = 0
 126              		@ frame_needed = 0, uses_anonymous_args = 0
 127 0000 08B5     		push	{r3, lr}
 128              		.cfi_def_cfa_offset 8
 129              		.cfi_offset 3, -8
 130              		.cfi_offset 14, -4
  92:Generated_Source\PSoC6/SmartIO.c ****     uint32_t regVal;
  93:Generated_Source\PSoC6/SmartIO.c ****     
  94:Generated_Source\PSoC6/SmartIO.c ****     if (0u == SmartIO_initVar)
 131              		.loc 1 94 0
 132 0002 0E4B     		ldr	r3, .L8
 133 0004 1B79     		ldrb	r3, [r3, #4]	@ zero_extendqisi2
 134 0006 2BB9     		cbnz	r3, .L5
  95:Generated_Source\PSoC6/SmartIO.c ****     {
ARM GAS  C:\Users\ikomb\AppData\Local\Temp\ccmVwQIe.s 			page 16


  96:Generated_Source\PSoC6/SmartIO.c ****         SmartIO_Init();
 135              		.loc 1 96 0
 136 0008 FFF7FEFF 		bl	SmartIO_Init
 137              	.LVL0:
  97:Generated_Source\PSoC6/SmartIO.c ****         SmartIO_initVar = 1u; /* Component was initialized */
 138              		.loc 1 97 0
 139 000c 0122     		movs	r2, #1
 140 000e 0B4B     		ldr	r3, .L8
 141 0010 1A71     		strb	r2, [r3, #4]
 142 0012 0DE0     		b	.L6
 143              	.L5:
  98:Generated_Source\PSoC6/SmartIO.c ****     }
  99:Generated_Source\PSoC6/SmartIO.c ****     else
 100:Generated_Source\PSoC6/SmartIO.c ****     {
 101:Generated_Source\PSoC6/SmartIO.c ****         /* Restore the component settings if Stop() was called */
 102:Generated_Source\PSoC6/SmartIO.c ****         if ((SmartIO_PORT->CTL & SMARTIO_PRT_CTL_ENABLED_Msk) == 0u)
 144              		.loc 1 102 0
 145 0014 0A4B     		ldr	r3, .L8+4
 146 0016 1B68     		ldr	r3, [r3]
 147 0018 002B     		cmp	r3, #0
 148 001a 09DB     		blt	.L6
 103:Generated_Source\PSoC6/SmartIO.c ****         {
 104:Generated_Source\PSoC6/SmartIO.c ****             /* Clear the pipeline bit and clear the clock field */            
 105:Generated_Source\PSoC6/SmartIO.c ****             regVal = SmartIO_PORT->CTL & SmartIO_PIPELINE_DISABLE & SmartIO_CLOCK_CLEAR;
 149              		.loc 1 105 0
 150 001c 0849     		ldr	r1, .L8+4
 151 001e 0B68     		ldr	r3, [r1]
 152 0020 23F00073 		bic	r3, r3, #33554432
 153 0024 23F4F853 		bic	r3, r3, #7936
 154              	.LVL1:
 106:Generated_Source\PSoC6/SmartIO.c ****             /* Restore the clock settings */
 107:Generated_Source\PSoC6/SmartIO.c ****             SmartIO_PORT->CTL = regVal | SmartIO_clkConfig;
 155              		.loc 1 107 0
 156 0028 044A     		ldr	r2, .L8
 157 002a 1268     		ldr	r2, [r2]
 158 002c 1343     		orrs	r3, r3, r2
 159              	.LVL2:
 160 002e 0B60     		str	r3, [r1]
 161              	.L6:
 162              	.LBB54:
 163              	.LBB55:
 608:Generated_Source\PSoC6/SmartIO.h **** }
 164              		.loc 2 608 0
 165 0030 034A     		ldr	r2, .L8+4
 166 0032 1368     		ldr	r3, [r2]
 167 0034 43F00043 		orr	r3, r3, #-2147483648
 168 0038 1360     		str	r3, [r2]
 169 003a 08BD     		pop	{r3, pc}
 170              	.L9:
 171              		.align	2
 172              	.L8:
 173 003c 00000000 		.word	.LANCHOR0
 174 0040 00093340 		.word	1077086464
 175              	.LBE55:
 176              	.LBE54:
 177              		.cfi_endproc
 178              	.LFE129:
ARM GAS  C:\Users\ikomb\AppData\Local\Temp\ccmVwQIe.s 			page 17


 179              		.size	SmartIO_Start, .-SmartIO_Start
 180              		.section	.text.SmartIO_Stop,"ax",%progbits
 181              		.align	2
 182              		.global	SmartIO_Stop
 183              		.thumb
 184              		.thumb_func
 185              		.type	SmartIO_Stop, %function
 186              	SmartIO_Stop:
 187              	.LFB130:
 108:Generated_Source\PSoC6/SmartIO.c ****         }
 109:Generated_Source\PSoC6/SmartIO.c ****     }
 110:Generated_Source\PSoC6/SmartIO.c ****     SmartIO_Enable();
 111:Generated_Source\PSoC6/SmartIO.c **** }
 112:Generated_Source\PSoC6/SmartIO.c **** 
 113:Generated_Source\PSoC6/SmartIO.c **** 
 114:Generated_Source\PSoC6/SmartIO.c **** /*******************************************************************************
 115:Generated_Source\PSoC6/SmartIO.c **** * Function Name: SmartIO_Stop
 116:Generated_Source\PSoC6/SmartIO.c **** ****************************************************************************//**
 117:Generated_Source\PSoC6/SmartIO.c **** *
 118:Generated_Source\PSoC6/SmartIO.c **** * \brief The routing fabric is bypassed and the block is powered down.
 119:Generated_Source\PSoC6/SmartIO.c **** *
 120:Generated_Source\PSoC6/SmartIO.c **** * This function saves the clock configuration before powering down. Calling
 121:Generated_Source\PSoC6/SmartIO.c **** * Start() will enable the block and restore the clock setting.
 122:Generated_Source\PSoC6/SmartIO.c **** * 
 123:Generated_Source\PSoC6/SmartIO.c **** * \globalvars
 124:Generated_Source\PSoC6/SmartIO.c **** *  SmartIO_clkConfig - used to save the clock configuration.
 125:Generated_Source\PSoC6/SmartIO.c **** *
 126:Generated_Source\PSoC6/SmartIO.c **** * \funcusage
 127:Generated_Source\PSoC6/SmartIO.c **** *  \snippet SmartIO_SUT.c usage_SmartIO_Stop
 128:Generated_Source\PSoC6/SmartIO.c **** *******************************************************************************/
 129:Generated_Source\PSoC6/SmartIO.c **** void SmartIO_Stop(void)
 130:Generated_Source\PSoC6/SmartIO.c **** {
 188              		.loc 1 130 0
 189              		.cfi_startproc
 190              		@ args = 0, pretend = 0, frame = 0
 191              		@ frame_needed = 0, uses_anonymous_args = 0
 192              		@ link register save eliminated.
 193              	.LBB56:
 194              	.LBB57:
 195              		.loc 2 626 0
 196 0000 094A     		ldr	r2, .L11
 197 0002 1368     		ldr	r3, [r2]
 198 0004 23F00043 		bic	r3, r3, #-2147483648
 199 0008 1360     		str	r3, [r2]
 200              	.LBE57:
 201              	.LBE56:
 131:Generated_Source\PSoC6/SmartIO.c ****     uint32_t regVal;
 132:Generated_Source\PSoC6/SmartIO.c ****     
 133:Generated_Source\PSoC6/SmartIO.c ****     /* Disable the block */
 134:Generated_Source\PSoC6/SmartIO.c ****     SmartIO_Disable();
 135:Generated_Source\PSoC6/SmartIO.c ****     /* Save the clock setting */
 136:Generated_Source\PSoC6/SmartIO.c ****     SmartIO_clkConfig = SmartIO_PORT->CTL & SMARTIO_PRT_CTL_CLOCK_SRC_Msk;
 202              		.loc 1 136 0
 203 000a 1368     		ldr	r3, [r2]
 204 000c 03F4F853 		and	r3, r3, #7936
 205 0010 0649     		ldr	r1, .L11+4
 206 0012 0B60     		str	r3, [r1]
ARM GAS  C:\Users\ikomb\AppData\Local\Temp\ccmVwQIe.s 			page 18


 137:Generated_Source\PSoC6/SmartIO.c ****     /* Clear the clock source */
 138:Generated_Source\PSoC6/SmartIO.c ****     regVal = SmartIO_PORT->CTL & SmartIO_CLOCK_CLEAR;
 207              		.loc 1 138 0
 208 0014 1368     		ldr	r3, [r2]
 209 0016 23F4F853 		bic	r3, r3, #7936
 210              	.LVL3:
 139:Generated_Source\PSoC6/SmartIO.c ****     /* Enable the pipeline and set the clock source to const zero */
 140:Generated_Source\PSoC6/SmartIO.c ****     SmartIO_PORT->CTL = regVal | SmartIO_PIPELINE_ENABLE | SmartIO_CLOCK_CONST_ZERO;
 211              		.loc 1 140 0
 212 001a 43F00073 		orr	r3, r3, #33554432
 213              	.LVL4:
 214 001e 43F4A053 		orr	r3, r3, #5120
 215 0022 1360     		str	r3, [r2]
 216 0024 7047     		bx	lr
 217              	.L12:
 218 0026 00BF     		.align	2
 219              	.L11:
 220 0028 00093340 		.word	1077086464
 221 002c 00000000 		.word	.LANCHOR0
 222              		.cfi_endproc
 223              	.LFE130:
 224              		.size	SmartIO_Stop, .-SmartIO_Stop
 225              		.section	.text.SmartIO_SetBypass,"ax",%progbits
 226              		.align	2
 227              		.global	SmartIO_SetBypass
 228              		.thumb
 229              		.thumb_func
 230              		.type	SmartIO_SetBypass, %function
 231              	SmartIO_SetBypass:
 232              	.LFB131:
 141:Generated_Source\PSoC6/SmartIO.c **** }
 142:Generated_Source\PSoC6/SmartIO.c **** 
 143:Generated_Source\PSoC6/SmartIO.c **** 
 144:Generated_Source\PSoC6/SmartIO.c **** /*******************************************************************************
 145:Generated_Source\PSoC6/SmartIO.c **** * Function Name: SmartIO_SetBypass
 146:Generated_Source\PSoC6/SmartIO.c **** ****************************************************************************//**
 147:Generated_Source\PSoC6/SmartIO.c **** *
 148:Generated_Source\PSoC6/SmartIO.c **** * \brief Bypasses channels on a bit by bit basis. 
 149:Generated_Source\PSoC6/SmartIO.c **** *
 150:Generated_Source\PSoC6/SmartIO.c **** * Bypassed channels behave as if the SmartIO component was not present for 
 151:Generated_Source\PSoC6/SmartIO.c **** * those particular channels. 
 152:Generated_Source\PSoC6/SmartIO.c **** *  
 153:Generated_Source\PSoC6/SmartIO.c **** * <b>Note</b> This function impacts all channels on the port. It will write
 154:Generated_Source\PSoC6/SmartIO.c **** * over the bypass configuration of all the channels. 
 155:Generated_Source\PSoC6/SmartIO.c **** *
 156:Generated_Source\PSoC6/SmartIO.c **** * \param portChannel
 157:Generated_Source\PSoC6/SmartIO.c **** *  The channel location to be bypassed on the port. If the bit value is 0, 
 158:Generated_Source\PSoC6/SmartIO.c **** *  the channel is not bypassed; if the bit value is 1, the channel is bypassed.
 159:Generated_Source\PSoC6/SmartIO.c **** *  Valid options are documented in \ref channelConst. These should be ORed
 160:Generated_Source\PSoC6/SmartIO.c **** *  to configure multiple bypass channels.
 161:Generated_Source\PSoC6/SmartIO.c **** * 
 162:Generated_Source\PSoC6/SmartIO.c **** * \sideeffect
 163:Generated_Source\PSoC6/SmartIO.c **** *  This function disables the block for reconfiguration. During this time,
 164:Generated_Source\PSoC6/SmartIO.c **** *  all signals on the port will be bypassed. All peripheral and gpio signals
 165:Generated_Source\PSoC6/SmartIO.c **** *  must be stopped or properly handled to account for the bypass state.
 166:Generated_Source\PSoC6/SmartIO.c **** *
 167:Generated_Source\PSoC6/SmartIO.c **** * \funcusage
ARM GAS  C:\Users\ikomb\AppData\Local\Temp\ccmVwQIe.s 			page 19


 168:Generated_Source\PSoC6/SmartIO.c **** *  \snippet SmartIO_SUT.c usage_SmartIO_SetBypass
 169:Generated_Source\PSoC6/SmartIO.c **** *******************************************************************************/
 170:Generated_Source\PSoC6/SmartIO.c **** void SmartIO_SetBypass(uint32_t portChannel)
 171:Generated_Source\PSoC6/SmartIO.c **** {   
 233              		.loc 1 171 0
 234              		.cfi_startproc
 235              		@ args = 0, pretend = 0, frame = 0
 236              		@ frame_needed = 0, uses_anonymous_args = 0
 237              		@ link register save eliminated.
 238              	.LVL5:
 239              	.LBB58:
 240              	.LBB59:
 241              		.loc 2 626 0
 242 0000 074B     		ldr	r3, .L14
 243 0002 1A68     		ldr	r2, [r3]
 244 0004 22F00042 		bic	r2, r2, #-2147483648
 245 0008 1A60     		str	r2, [r3]
 246              	.LBE59:
 247              	.LBE58:
 172:Generated_Source\PSoC6/SmartIO.c ****     uint32_t regVal;
 173:Generated_Source\PSoC6/SmartIO.c ****     
 174:Generated_Source\PSoC6/SmartIO.c ****     /* Must disable the block before configuring */
 175:Generated_Source\PSoC6/SmartIO.c ****     SmartIO_Disable();
 176:Generated_Source\PSoC6/SmartIO.c ****     /* Configure the bypass settings of the SmartIO pins */
 177:Generated_Source\PSoC6/SmartIO.c ****     regVal = SmartIO_PORT->CTL & SmartIO_BYPASS_CLEAR;
 248              		.loc 1 177 0
 249 000a 1A68     		ldr	r2, [r3]
 250 000c 22F0FF02 		bic	r2, r2, #255
 251              	.LVL6:
 178:Generated_Source\PSoC6/SmartIO.c ****     SmartIO_PORT->CTL = regVal | (((uint32_t)(portChannel << SMARTIO_PRT_CTL_BYPASS_Pos))
 179:Generated_Source\PSoC6/SmartIO.c ****                                     & SMARTIO_PRT_CTL_BYPASS_Msk);
 252              		.loc 1 179 0
 253 0010 C0B2     		uxtb	r0, r0
 254              	.LVL7:
 178:Generated_Source\PSoC6/SmartIO.c ****     SmartIO_PORT->CTL = regVal | (((uint32_t)(portChannel << SMARTIO_PRT_CTL_BYPASS_Pos))
 255              		.loc 1 178 0
 256 0012 1043     		orrs	r0, r0, r2
 257 0014 1860     		str	r0, [r3]
 258              	.LBB60:
 259              	.LBB61:
 608:Generated_Source\PSoC6/SmartIO.h **** }
 260              		.loc 2 608 0
 261 0016 1A68     		ldr	r2, [r3]
 262              	.LVL8:
 263 0018 42F00042 		orr	r2, r2, #-2147483648
 264 001c 1A60     		str	r2, [r3]
 265 001e 7047     		bx	lr
 266              	.L15:
 267              		.align	2
 268              	.L14:
 269 0020 00093340 		.word	1077086464
 270              	.LBE61:
 271              	.LBE60:
 272              		.cfi_endproc
 273              	.LFE131:
 274              		.size	SmartIO_SetBypass, .-SmartIO_SetBypass
 275              		.section	.text.SmartIO_ClockSelect,"ax",%progbits
ARM GAS  C:\Users\ikomb\AppData\Local\Temp\ccmVwQIe.s 			page 20


 276              		.align	2
 277              		.global	SmartIO_ClockSelect
 278              		.thumb
 279              		.thumb_func
 280              		.type	SmartIO_ClockSelect, %function
 281              	SmartIO_ClockSelect:
 282              	.LFB132:
 180:Generated_Source\PSoC6/SmartIO.c ****     /* Re-enable the block */
 181:Generated_Source\PSoC6/SmartIO.c ****     SmartIO_Enable();
 182:Generated_Source\PSoC6/SmartIO.c **** }
 183:Generated_Source\PSoC6/SmartIO.c **** 
 184:Generated_Source\PSoC6/SmartIO.c **** 
 185:Generated_Source\PSoC6/SmartIO.c **** /*******************************************************************************
 186:Generated_Source\PSoC6/SmartIO.c **** * Function Name: SmartIO_ClockSelect
 187:Generated_Source\PSoC6/SmartIO.c **** ****************************************************************************//**
 188:Generated_Source\PSoC6/SmartIO.c **** *
 189:Generated_Source\PSoC6/SmartIO.c **** * \brief Selects the component clock source.
 190:Generated_Source\PSoC6/SmartIO.c **** *
 191:Generated_Source\PSoC6/SmartIO.c **** * The clock selection impacts the reset behavior of the component and low power
 192:Generated_Source\PSoC6/SmartIO.c **** * operation. Refer to the Functional Description section of the component
 193:Generated_Source\PSoC6/SmartIO.c **** * datasheet for more information.
 194:Generated_Source\PSoC6/SmartIO.c **** *
 195:Generated_Source\PSoC6/SmartIO.c **** * \param clockSrc
 196:Generated_Source\PSoC6/SmartIO.c **** *  The component clock source. Valid options are documented in \ref clockConst.
 197:Generated_Source\PSoC6/SmartIO.c **** * 
 198:Generated_Source\PSoC6/SmartIO.c **** * \sideeffect
 199:Generated_Source\PSoC6/SmartIO.c **** *  This function disables the block for reconfiguration. During this time,
 200:Generated_Source\PSoC6/SmartIO.c **** *  all signals on the port will be bypassed. All peripheral and gpio signals
 201:Generated_Source\PSoC6/SmartIO.c **** *  must be stopped or properly handled to account for the bypass state.
 202:Generated_Source\PSoC6/SmartIO.c **** *
 203:Generated_Source\PSoC6/SmartIO.c **** * \funcusage
 204:Generated_Source\PSoC6/SmartIO.c **** *  \snippet SmartIO_SUT.c usage_SmartIO_ClockSelect
 205:Generated_Source\PSoC6/SmartIO.c **** *******************************************************************************/
 206:Generated_Source\PSoC6/SmartIO.c **** void SmartIO_ClockSelect(uint32_t clockSrc)
 207:Generated_Source\PSoC6/SmartIO.c **** {
 283              		.loc 1 207 0
 284              		.cfi_startproc
 285              		@ args = 0, pretend = 0, frame = 0
 286              		@ frame_needed = 0, uses_anonymous_args = 0
 287              		@ link register save eliminated.
 288              	.LVL9:
 289              	.LBB62:
 290              	.LBB63:
 291              		.loc 2 626 0
 292 0000 084B     		ldr	r3, .L17
 293 0002 1A68     		ldr	r2, [r3]
 294 0004 22F00042 		bic	r2, r2, #-2147483648
 295 0008 1A60     		str	r2, [r3]
 296              	.LBE63:
 297              	.LBE62:
 208:Generated_Source\PSoC6/SmartIO.c ****     uint32_t regVal;
 209:Generated_Source\PSoC6/SmartIO.c ****     
 210:Generated_Source\PSoC6/SmartIO.c ****     /* Must disable the block before configuring */
 211:Generated_Source\PSoC6/SmartIO.c ****     SmartIO_Disable();
 212:Generated_Source\PSoC6/SmartIO.c ****     /* Configure the clock source */
 213:Generated_Source\PSoC6/SmartIO.c ****     regVal = SmartIO_PORT->CTL & SmartIO_CLOCK_CLEAR;
 298              		.loc 1 213 0
ARM GAS  C:\Users\ikomb\AppData\Local\Temp\ccmVwQIe.s 			page 21


 299 000a 1A68     		ldr	r2, [r3]
 300 000c 22F4F852 		bic	r2, r2, #7936
 301              	.LVL10:
 214:Generated_Source\PSoC6/SmartIO.c ****     SmartIO_PORT->CTL = regVal | (((uint32_t)(clockSrc << SMARTIO_PRT_CTL_CLOCK_SRC_Pos) 
 302              		.loc 1 214 0
 303 0010 0002     		lsls	r0, r0, #8
 304              	.LVL11:
 215:Generated_Source\PSoC6/SmartIO.c ****                                     & SMARTIO_PRT_CTL_CLOCK_SRC_Msk));
 305              		.loc 1 215 0
 306 0012 00F4F850 		and	r0, r0, #7936
 214:Generated_Source\PSoC6/SmartIO.c ****     SmartIO_PORT->CTL = regVal | (((uint32_t)(clockSrc << SMARTIO_PRT_CTL_CLOCK_SRC_Pos) 
 307              		.loc 1 214 0
 308 0016 1043     		orrs	r0, r0, r2
 309 0018 1860     		str	r0, [r3]
 310              	.LBB64:
 311              	.LBB65:
 608:Generated_Source\PSoC6/SmartIO.h **** }
 312              		.loc 2 608 0
 313 001a 1A68     		ldr	r2, [r3]
 314              	.LVL12:
 315 001c 42F00042 		orr	r2, r2, #-2147483648
 316 0020 1A60     		str	r2, [r3]
 317 0022 7047     		bx	lr
 318              	.L18:
 319              		.align	2
 320              	.L17:
 321 0024 00093340 		.word	1077086464
 322              	.LBE65:
 323              	.LBE64:
 324              		.cfi_endproc
 325              	.LFE132:
 326              		.size	SmartIO_ClockSelect, .-SmartIO_ClockSelect
 327              		.section	.text.SmartIO_HoldOverride,"ax",%progbits
 328              		.align	2
 329              		.global	SmartIO_HoldOverride
 330              		.thumb
 331              		.thumb_func
 332              		.type	SmartIO_HoldOverride, %function
 333              	SmartIO_HoldOverride:
 334              	.LFB133:
 216:Generated_Source\PSoC6/SmartIO.c ****     /* Re-enable the block */
 217:Generated_Source\PSoC6/SmartIO.c ****     SmartIO_Enable();
 218:Generated_Source\PSoC6/SmartIO.c **** }
 219:Generated_Source\PSoC6/SmartIO.c **** 
 220:Generated_Source\PSoC6/SmartIO.c **** 
 221:Generated_Source\PSoC6/SmartIO.c **** /*******************************************************************************
 222:Generated_Source\PSoC6/SmartIO.c **** * Function Name: SmartIO_HoldOverride
 223:Generated_Source\PSoC6/SmartIO.c **** ****************************************************************************//**
 224:Generated_Source\PSoC6/SmartIO.c **** *
 225:Generated_Source\PSoC6/SmartIO.c **** * \brief Controls the port's chip hibernate mode override. 
 226:Generated_Source\PSoC6/SmartIO.c **** *
 227:Generated_Source\PSoC6/SmartIO.c **** * This function should be used when the block is desired to be operational
 228:Generated_Source\PSoC6/SmartIO.c **** * during chip deep-sleep or hibernate mode. The override functionality allows 
 229:Generated_Source\PSoC6/SmartIO.c **** * the port with SmartIO component to be operational during these modes. When
 230:Generated_Source\PSoC6/SmartIO.c **** * in chip active/sleep modes, the hold override functionality should be disabled.
 231:Generated_Source\PSoC6/SmartIO.c **** *
 232:Generated_Source\PSoC6/SmartIO.c **** * \param ovCtrl
ARM GAS  C:\Users\ikomb\AppData\Local\Temp\ccmVwQIe.s 			page 22


 233:Generated_Source\PSoC6/SmartIO.c **** *  Hold override control. Valid options are documented in \ref hldOvrConst.
 234:Generated_Source\PSoC6/SmartIO.c **** * 
 235:Generated_Source\PSoC6/SmartIO.c **** * \sideeffect
 236:Generated_Source\PSoC6/SmartIO.c **** *  This function disables the block for reconfiguration. During this time,
 237:Generated_Source\PSoC6/SmartIO.c **** *  all signals on the port will be bypassed. All peripheral and gpio signals
 238:Generated_Source\PSoC6/SmartIO.c **** *  must be stopped or properly handled to account for the bypass state.
 239:Generated_Source\PSoC6/SmartIO.c **** *
 240:Generated_Source\PSoC6/SmartIO.c **** * \funcusage
 241:Generated_Source\PSoC6/SmartIO.c **** *  \snippet SmartIO_SUT.c usage_SmartIO_HoldOverride
 242:Generated_Source\PSoC6/SmartIO.c **** *******************************************************************************/
 243:Generated_Source\PSoC6/SmartIO.c **** void SmartIO_HoldOverride(uint32_t ovCtrl)
 244:Generated_Source\PSoC6/SmartIO.c **** {
 335              		.loc 1 244 0
 336              		.cfi_startproc
 337              		@ args = 0, pretend = 0, frame = 0
 338              		@ frame_needed = 0, uses_anonymous_args = 0
 339              		@ link register save eliminated.
 340              	.LVL13:
 341              	.LBB66:
 342              	.LBB67:
 343              		.loc 2 626 0
 344 0000 0B4A     		ldr	r2, .L22
 345 0002 1368     		ldr	r3, [r2]
 346 0004 23F00043 		bic	r3, r3, #-2147483648
 347 0008 1360     		str	r3, [r2]
 348              	.LBE67:
 349              	.LBE66:
 245:Generated_Source\PSoC6/SmartIO.c ****     /* Must disable the block before configuring */
 246:Generated_Source\PSoC6/SmartIO.c ****     SmartIO_Disable();
 247:Generated_Source\PSoC6/SmartIO.c ****     /* Set hold override mode */
 248:Generated_Source\PSoC6/SmartIO.c ****     if (ovCtrl == SmartIO_OVCTRL_ENABLE)
 350              		.loc 1 248 0
 351 000a 0128     		cmp	r0, #1
 352 000c 04D1     		bne	.L20
 249:Generated_Source\PSoC6/SmartIO.c ****     {
 250:Generated_Source\PSoC6/SmartIO.c ****         SmartIO_PORT->CTL |= SmartIO_HLD_OVR_SMARTIO;
 353              		.loc 1 250 0
 354 000e 1368     		ldr	r3, [r2]
 355 0010 43F08073 		orr	r3, r3, #16777216
 356 0014 1360     		str	r3, [r2]
 357 0016 04E0     		b	.L21
 358              	.L20:
 251:Generated_Source\PSoC6/SmartIO.c ****     }    
 252:Generated_Source\PSoC6/SmartIO.c ****     else
 253:Generated_Source\PSoC6/SmartIO.c ****     {
 254:Generated_Source\PSoC6/SmartIO.c ****         SmartIO_PORT->CTL &= SmartIO_HLD_OVR_HSIOM;
 359              		.loc 1 254 0
 360 0018 054A     		ldr	r2, .L22
 361 001a 1368     		ldr	r3, [r2]
 362 001c 23F08073 		bic	r3, r3, #16777216
 363 0020 1360     		str	r3, [r2]
 364              	.L21:
 365              	.LBB68:
 366              	.LBB69:
 608:Generated_Source\PSoC6/SmartIO.h **** }
 367              		.loc 2 608 0
 368 0022 034A     		ldr	r2, .L22
ARM GAS  C:\Users\ikomb\AppData\Local\Temp\ccmVwQIe.s 			page 23


 369 0024 1368     		ldr	r3, [r2]
 370 0026 43F00043 		orr	r3, r3, #-2147483648
 371 002a 1360     		str	r3, [r2]
 372 002c 7047     		bx	lr
 373              	.L23:
 374 002e 00BF     		.align	2
 375              	.L22:
 376 0030 00093340 		.word	1077086464
 377              	.LBE69:
 378              	.LBE68:
 379              		.cfi_endproc
 380              	.LFE133:
 381              		.size	SmartIO_HoldOverride, .-SmartIO_HoldOverride
 382              		.section	.text.SmartIO_IoSyncMode,"ax",%progbits
 383              		.align	2
 384              		.global	SmartIO_IoSyncMode
 385              		.thumb
 386              		.thumb_func
 387              		.type	SmartIO_IoSyncMode, %function
 388              	SmartIO_IoSyncMode:
 389              	.LFB134:
 255:Generated_Source\PSoC6/SmartIO.c ****     }
 256:Generated_Source\PSoC6/SmartIO.c ****     /* Re-enable the block */
 257:Generated_Source\PSoC6/SmartIO.c ****     SmartIO_Enable();
 258:Generated_Source\PSoC6/SmartIO.c **** }
 259:Generated_Source\PSoC6/SmartIO.c **** 
 260:Generated_Source\PSoC6/SmartIO.c **** 
 261:Generated_Source\PSoC6/SmartIO.c **** /*******************************************************************************
 262:Generated_Source\PSoC6/SmartIO.c **** * Function Name: SmartIO_IoSyncMode
 263:Generated_Source\PSoC6/SmartIO.c **** ****************************************************************************//**
 264:Generated_Source\PSoC6/SmartIO.c **** *
 265:Generated_Source\PSoC6/SmartIO.c **** * \brief Controls synchronization of signals coming from I/O Pin. 
 266:Generated_Source\PSoC6/SmartIO.c **** *
 267:Generated_Source\PSoC6/SmartIO.c **** * The synchronization is performed using the component clock. Synchronization 
 268:Generated_Source\PSoC6/SmartIO.c **** * should not be used if the component is configured to operate in asynchronous
 269:Generated_Source\PSoC6/SmartIO.c **** * mode.
 270:Generated_Source\PSoC6/SmartIO.c **** *
 271:Generated_Source\PSoC6/SmartIO.c **** * <b>Note</b> This function impacts all gpio terminals on the port. It will 
 272:Generated_Source\PSoC6/SmartIO.c **** * write over the synchronization configuration of all the gpio terminals. 
 273:Generated_Source\PSoC6/SmartIO.c **** *
 274:Generated_Source\PSoC6/SmartIO.c **** * \param portTerm
 275:Generated_Source\PSoC6/SmartIO.c **** *  The terminal location on the port. If the bit value is 0, the terminal is
 276:Generated_Source\PSoC6/SmartIO.c **** *  not synchronized; if the bit value is 1, the terminal is synchronized.
 277:Generated_Source\PSoC6/SmartIO.c **** *  Valid options are documented in \ref termConst. These should be ORed to 
 278:Generated_Source\PSoC6/SmartIO.c **** *  configure multiple terminals.
 279:Generated_Source\PSoC6/SmartIO.c **** * 
 280:Generated_Source\PSoC6/SmartIO.c **** * \sideeffect
 281:Generated_Source\PSoC6/SmartIO.c **** *  This function disables the block for reconfiguration. During this time,
 282:Generated_Source\PSoC6/SmartIO.c **** *  all signals on the port will be bypassed. All peripheral and gpio signals
 283:Generated_Source\PSoC6/SmartIO.c **** *  must be stopped or properly handled to account for the bypass state.
 284:Generated_Source\PSoC6/SmartIO.c **** *
 285:Generated_Source\PSoC6/SmartIO.c **** * \funcusage
 286:Generated_Source\PSoC6/SmartIO.c **** *  \snippet SmartIO_SUT.c usage_SmartIO_IoSyncMode
 287:Generated_Source\PSoC6/SmartIO.c **** *******************************************************************************/
 288:Generated_Source\PSoC6/SmartIO.c **** void SmartIO_IoSyncMode(uint32_t portTerm)
 289:Generated_Source\PSoC6/SmartIO.c **** {
 390              		.loc 1 289 0
ARM GAS  C:\Users\ikomb\AppData\Local\Temp\ccmVwQIe.s 			page 24


 391              		.cfi_startproc
 392              		@ args = 0, pretend = 0, frame = 0
 393              		@ frame_needed = 0, uses_anonymous_args = 0
 394              		@ link register save eliminated.
 395              	.LVL14:
 396              	.LBB70:
 397              	.LBB71:
 398              		.loc 2 626 0
 399 0000 074B     		ldr	r3, .L25
 400 0002 1A68     		ldr	r2, [r3]
 401 0004 22F00042 		bic	r2, r2, #-2147483648
 402 0008 1A60     		str	r2, [r3]
 403              	.LBE71:
 404              	.LBE70:
 290:Generated_Source\PSoC6/SmartIO.c ****     uint32_t regVal;
 291:Generated_Source\PSoC6/SmartIO.c ****     
 292:Generated_Source\PSoC6/SmartIO.c ****     /* Must disable the block before configuring */
 293:Generated_Source\PSoC6/SmartIO.c ****     SmartIO_Disable();
 294:Generated_Source\PSoC6/SmartIO.c ****     /* Configure the IO synchronization */
 295:Generated_Source\PSoC6/SmartIO.c ****     regVal = SmartIO_PORT->SYNC_CTL & SmartIO_IO_SYNC_CLEAR;
 405              		.loc 1 295 0
 406 000a 1A69     		ldr	r2, [r3, #16]
 407 000c 22F0FF02 		bic	r2, r2, #255
 408              	.LVL15:
 296:Generated_Source\PSoC6/SmartIO.c ****     SmartIO_PORT->SYNC_CTL = regVal | (((uint32_t)(portTerm << SMARTIO_PRT_SYNC_CTL_IO_SYNC_EN_Pos)
 297:Generated_Source\PSoC6/SmartIO.c ****                                          & SMARTIO_PRT_SYNC_CTL_IO_SYNC_EN_Msk);
 409              		.loc 1 297 0
 410 0010 C0B2     		uxtb	r0, r0
 411              	.LVL16:
 296:Generated_Source\PSoC6/SmartIO.c ****     SmartIO_PORT->SYNC_CTL = regVal | (((uint32_t)(portTerm << SMARTIO_PRT_SYNC_CTL_IO_SYNC_EN_Pos)
 412              		.loc 1 296 0
 413 0012 1043     		orrs	r0, r0, r2
 414 0014 1861     		str	r0, [r3, #16]
 415              	.LBB72:
 416              	.LBB73:
 608:Generated_Source\PSoC6/SmartIO.h **** }
 417              		.loc 2 608 0
 418 0016 1A68     		ldr	r2, [r3]
 419              	.LVL17:
 420 0018 42F00042 		orr	r2, r2, #-2147483648
 421 001c 1A60     		str	r2, [r3]
 422 001e 7047     		bx	lr
 423              	.L26:
 424              		.align	2
 425              	.L25:
 426 0020 00093340 		.word	1077086464
 427              	.LBE73:
 428              	.LBE72:
 429              		.cfi_endproc
 430              	.LFE134:
 431              		.size	SmartIO_IoSyncMode, .-SmartIO_IoSyncMode
 432              		.section	.text.SmartIO_ChipSyncMode,"ax",%progbits
 433              		.align	2
 434              		.global	SmartIO_ChipSyncMode
 435              		.thumb
 436              		.thumb_func
 437              		.type	SmartIO_ChipSyncMode, %function
ARM GAS  C:\Users\ikomb\AppData\Local\Temp\ccmVwQIe.s 			page 25


 438              	SmartIO_ChipSyncMode:
 439              	.LFB135:
 298:Generated_Source\PSoC6/SmartIO.c ****     /* Re-enable the block */
 299:Generated_Source\PSoC6/SmartIO.c ****     SmartIO_Enable();
 300:Generated_Source\PSoC6/SmartIO.c **** }
 301:Generated_Source\PSoC6/SmartIO.c **** 
 302:Generated_Source\PSoC6/SmartIO.c **** 
 303:Generated_Source\PSoC6/SmartIO.c **** /*******************************************************************************
 304:Generated_Source\PSoC6/SmartIO.c **** * Function Name: SmartIO_ChipSyncMode
 305:Generated_Source\PSoC6/SmartIO.c **** ****************************************************************************//**
 306:Generated_Source\PSoC6/SmartIO.c **** *
 307:Generated_Source\PSoC6/SmartIO.c **** * \brief Controls synchronization of signals coming from chip to the component. 
 308:Generated_Source\PSoC6/SmartIO.c **** *
 309:Generated_Source\PSoC6/SmartIO.c **** * The synchronization is performed using the component clock. Synchronization 
 310:Generated_Source\PSoC6/SmartIO.c **** * should not be used if the component is configured to operate in asynchronous
 311:Generated_Source\PSoC6/SmartIO.c **** * mode.
 312:Generated_Source\PSoC6/SmartIO.c **** *
 313:Generated_Source\PSoC6/SmartIO.c **** * <b>Note</b> This function impacts all data terminals on the port. It will 
 314:Generated_Source\PSoC6/SmartIO.c **** * write over the synchronization configuration of all the data terminals. 
 315:Generated_Source\PSoC6/SmartIO.c **** *
 316:Generated_Source\PSoC6/SmartIO.c **** * \param portTerm
 317:Generated_Source\PSoC6/SmartIO.c **** *  The terminal location on the port. If the bit value is 0, the terminal is
 318:Generated_Source\PSoC6/SmartIO.c **** *  not synchronized; if the bit value is 1, the terminal is synchronized.
 319:Generated_Source\PSoC6/SmartIO.c **** *  Valid options are documented in \ref termConst. These should be ORed to 
 320:Generated_Source\PSoC6/SmartIO.c **** *  configure multiple terminals.
 321:Generated_Source\PSoC6/SmartIO.c **** * 
 322:Generated_Source\PSoC6/SmartIO.c **** * \sideeffect
 323:Generated_Source\PSoC6/SmartIO.c **** *  This function disables the block for reconfiguration. During this time,
 324:Generated_Source\PSoC6/SmartIO.c **** *  all signals on the port will be bypassed. All peripheral and gpio signals
 325:Generated_Source\PSoC6/SmartIO.c **** *  must be stopped or properly handled to account for the bypass state.
 326:Generated_Source\PSoC6/SmartIO.c **** *
 327:Generated_Source\PSoC6/SmartIO.c **** * \funcusage
 328:Generated_Source\PSoC6/SmartIO.c **** *  \snippet SmartIO_SUT.c usage_SmartIO_ChipSyncMode
 329:Generated_Source\PSoC6/SmartIO.c **** *******************************************************************************/
 330:Generated_Source\PSoC6/SmartIO.c **** void SmartIO_ChipSyncMode(uint32_t portTerm)
 331:Generated_Source\PSoC6/SmartIO.c **** {
 440              		.loc 1 331 0
 441              		.cfi_startproc
 442              		@ args = 0, pretend = 0, frame = 0
 443              		@ frame_needed = 0, uses_anonymous_args = 0
 444              		@ link register save eliminated.
 445              	.LVL18:
 446              	.LBB74:
 447              	.LBB75:
 448              		.loc 2 626 0
 449 0000 084B     		ldr	r3, .L28
 450 0002 1A68     		ldr	r2, [r3]
 451 0004 22F00042 		bic	r2, r2, #-2147483648
 452 0008 1A60     		str	r2, [r3]
 453              	.LBE75:
 454              	.LBE74:
 332:Generated_Source\PSoC6/SmartIO.c ****     uint32_t regVal;
 333:Generated_Source\PSoC6/SmartIO.c ****     
 334:Generated_Source\PSoC6/SmartIO.c ****     /* Must disable the block before configuring */
 335:Generated_Source\PSoC6/SmartIO.c ****     SmartIO_Disable();
 336:Generated_Source\PSoC6/SmartIO.c ****     /* Configure the Chip data synchronization */
 337:Generated_Source\PSoC6/SmartIO.c ****     regVal = SmartIO_PORT->SYNC_CTL & SmartIO_DATA_SYNC_CLEAR;
ARM GAS  C:\Users\ikomb\AppData\Local\Temp\ccmVwQIe.s 			page 26


 455              		.loc 1 337 0
 456 000a 1A69     		ldr	r2, [r3, #16]
 457 000c 22F47F42 		bic	r2, r2, #65280
 458              	.LVL19:
 338:Generated_Source\PSoC6/SmartIO.c ****     SmartIO_PORT->SYNC_CTL = regVal | (((uint32_t)(portTerm << SMARTIO_PRT_SYNC_CTL_CHIP_SYNC_EN_Po
 459              		.loc 1 338 0
 460 0010 0002     		lsls	r0, r0, #8
 461              	.LVL20:
 339:Generated_Source\PSoC6/SmartIO.c ****                                         & SMARTIO_PRT_SYNC_CTL_CHIP_SYNC_EN_Msk);
 462              		.loc 1 339 0
 463 0012 80B2     		uxth	r0, r0
 338:Generated_Source\PSoC6/SmartIO.c ****     SmartIO_PORT->SYNC_CTL = regVal | (((uint32_t)(portTerm << SMARTIO_PRT_SYNC_CTL_CHIP_SYNC_EN_Po
 464              		.loc 1 338 0
 465 0014 1043     		orrs	r0, r0, r2
 466 0016 1861     		str	r0, [r3, #16]
 467              	.LBB76:
 468              	.LBB77:
 608:Generated_Source\PSoC6/SmartIO.h **** }
 469              		.loc 2 608 0
 470 0018 1A68     		ldr	r2, [r3]
 471              	.LVL21:
 472 001a 42F00042 		orr	r2, r2, #-2147483648
 473 001e 1A60     		str	r2, [r3]
 474 0020 7047     		bx	lr
 475              	.L29:
 476 0022 00BF     		.align	2
 477              	.L28:
 478 0024 00093340 		.word	1077086464
 479              	.LBE77:
 480              	.LBE76:
 481              		.cfi_endproc
 482              	.LFE135:
 483              		.size	SmartIO_ChipSyncMode, .-SmartIO_ChipSyncMode
 484              		.section	.text.SmartIO_LUT_SelectInputs,"ax",%progbits
 485              		.align	2
 486              		.global	SmartIO_LUT_SelectInputs
 487              		.thumb
 488              		.thumb_func
 489              		.type	SmartIO_LUT_SelectInputs, %function
 490              	SmartIO_LUT_SelectInputs:
 491              	.LFB136:
 340:Generated_Source\PSoC6/SmartIO.c ****     /* Re-enable the block */
 341:Generated_Source\PSoC6/SmartIO.c ****     SmartIO_Enable();
 342:Generated_Source\PSoC6/SmartIO.c **** }
 343:Generated_Source\PSoC6/SmartIO.c **** 
 344:Generated_Source\PSoC6/SmartIO.c **** 
 345:Generated_Source\PSoC6/SmartIO.c **** /*******************************************************************************
 346:Generated_Source\PSoC6/SmartIO.c **** * Function Name: SmartIO_LUT_SelectInputs
 347:Generated_Source\PSoC6/SmartIO.c **** ****************************************************************************//**
 348:Generated_Source\PSoC6/SmartIO.c **** *
 349:Generated_Source\PSoC6/SmartIO.c **** * \brief This function is used to select individual inputs to the specified LUT. 
 350:Generated_Source\PSoC6/SmartIO.c **** * 
 351:Generated_Source\PSoC6/SmartIO.c **** * <b>Note</b> The selections are different for the upper and lower nibbles.
 352:Generated_Source\PSoC6/SmartIO.c **** * See the LUT input parameters and Functional Description section in the
 353:Generated_Source\PSoC6/SmartIO.c **** * component datasheet for more information.
 354:Generated_Source\PSoC6/SmartIO.c **** *
 355:Generated_Source\PSoC6/SmartIO.c **** * \param lutNum
ARM GAS  C:\Users\ikomb\AppData\Local\Temp\ccmVwQIe.s 			page 27


 356:Generated_Source\PSoC6/SmartIO.c **** *  LUT number. Valid options are documented in \ref lutNumConst.
 357:Generated_Source\PSoC6/SmartIO.c **** *
 358:Generated_Source\PSoC6/SmartIO.c **** * \param inputNum
 359:Generated_Source\PSoC6/SmartIO.c **** *  The input number (input0, input1, input2). Valid options are documented 
 360:Generated_Source\PSoC6/SmartIO.c **** *  in \ref inputNumConst. Note that LUT input0 does not accept LUT0 output as
 361:Generated_Source\PSoC6/SmartIO.c **** *  an input.
 362:Generated_Source\PSoC6/SmartIO.c **** *
 363:Generated_Source\PSoC6/SmartIO.c **** * \param inputSrc
 364:Generated_Source\PSoC6/SmartIO.c **** *  The source of the LUT input. Valid options are documented in
 365:Generated_Source\PSoC6/SmartIO.c **** *  \ref inputSrcConst.
 366:Generated_Source\PSoC6/SmartIO.c **** *
 367:Generated_Source\PSoC6/SmartIO.c **** * \return 
 368:Generated_Source\PSoC6/SmartIO.c **** *  Status of the LUT input selection.
 369:Generated_Source\PSoC6/SmartIO.c **** *   Status          | Description
 370:Generated_Source\PSoC6/SmartIO.c **** *   ----------------|--------------------
 371:Generated_Source\PSoC6/SmartIO.c **** *   CY_RET_SUCCESS   | Write successful
 372:Generated_Source\PSoC6/SmartIO.c **** *   CY_RET_BAD_PARAM | Invalid parameter
 373:Generated_Source\PSoC6/SmartIO.c **** * 
 374:Generated_Source\PSoC6/SmartIO.c **** * \sideeffect
 375:Generated_Source\PSoC6/SmartIO.c **** *  This function disables the block for reconfiguration. During this time,
 376:Generated_Source\PSoC6/SmartIO.c **** *  all signals on the port will be bypassed. All peripheral and gpio signals
 377:Generated_Source\PSoC6/SmartIO.c **** *  must be stopped or properly handled to account for the bypass state.
 378:Generated_Source\PSoC6/SmartIO.c **** *
 379:Generated_Source\PSoC6/SmartIO.c **** * \funcusage
 380:Generated_Source\PSoC6/SmartIO.c **** *  \snippet SmartIO_SUT.c usage_SmartIO_LUT_SelectInputs
 381:Generated_Source\PSoC6/SmartIO.c **** *******************************************************************************/
 382:Generated_Source\PSoC6/SmartIO.c **** cy_status SmartIO_LUT_SelectInputs(uint32_t lutNum, uint32_t inputNum, uint32_t inputSrc)
 383:Generated_Source\PSoC6/SmartIO.c **** {
 492              		.loc 1 383 0
 493              		.cfi_startproc
 494              		@ args = 0, pretend = 0, frame = 0
 495              		@ frame_needed = 0, uses_anonymous_args = 0
 496              		@ link register save eliminated.
 497              	.LVL22:
 498 0000 30B4     		push	{r4, r5}
 499              		.cfi_def_cfa_offset 8
 500              		.cfi_offset 4, -8
 501              		.cfi_offset 5, -4
 502              	.LVL23:
 384:Generated_Source\PSoC6/SmartIO.c ****     cy_status callStatus = CY_RET_SUCCESS;
 385:Generated_Source\PSoC6/SmartIO.c ****     uint32_t sel;
 386:Generated_Source\PSoC6/SmartIO.c **** 
 387:Generated_Source\PSoC6/SmartIO.c ****     /* Input validation */
 388:Generated_Source\PSoC6/SmartIO.c ****     if((inputSrc == SmartIO_SRC_LUT0) && ((inputNum & SmartIO_LUT_INPUT0) == SmartIO_LUT_INPUT0))
 503              		.loc 1 388 0
 504 0002 1446     		mov	r4, r2
 505 0004 22B9     		cbnz	r2, .L40
 506              		.loc 1 388 0 is_stmt 0 discriminator 1
 507 0006 11F0010F 		tst	r1, #1
 508 000a 03D1     		bne	.L41
 384:Generated_Source\PSoC6/SmartIO.c ****     cy_status callStatus = CY_RET_SUCCESS;
 509              		.loc 1 384 0 is_stmt 1
 510 000c 0025     		movs	r5, #0
 511 000e 02E0     		b	.L31
 512              	.L40:
 513 0010 0025     		movs	r5, #0
 514 0012 00E0     		b	.L31
ARM GAS  C:\Users\ikomb\AppData\Local\Temp\ccmVwQIe.s 			page 28


 515              	.L41:
 389:Generated_Source\PSoC6/SmartIO.c ****     {
 390:Generated_Source\PSoC6/SmartIO.c ****         /* LUT input0 does not support LUT0 as an input */
 391:Generated_Source\PSoC6/SmartIO.c ****         callStatus = CY_RET_BAD_PARAM;
 516              		.loc 1 391 0
 517 0014 0125     		movs	r5, #1
 518              	.L31:
 519              	.LVL24:
 392:Generated_Source\PSoC6/SmartIO.c ****     }
 393:Generated_Source\PSoC6/SmartIO.c ****     if((inputSrc == SmartIO_SRC_DU) && ((inputNum & (SmartIO_LUT_INPUT1 | SmartIO_LUT_INPUT2)) != 0
 520              		.loc 1 393 0
 521 0016 102C     		cmp	r4, #16
 522 0018 03D1     		bne	.L32
 523              		.loc 1 393 0 is_stmt 0 discriminator 1
 524 001a 11F0060F 		tst	r1, #6
 525 001e 00D0     		beq	.L32
 394:Generated_Source\PSoC6/SmartIO.c ****     {
 395:Generated_Source\PSoC6/SmartIO.c ****         /* LUT input1 and input2 do not support DU output as an input */
 396:Generated_Source\PSoC6/SmartIO.c ****         callStatus = CY_RET_BAD_PARAM;
 526              		.loc 1 396 0 is_stmt 1
 527 0020 0125     		movs	r5, #1
 528              	.LVL25:
 529              	.L32:
 397:Generated_Source\PSoC6/SmartIO.c ****     }
 398:Generated_Source\PSoC6/SmartIO.c ****     
 399:Generated_Source\PSoC6/SmartIO.c ****     /* Configure LUT selection */
 400:Generated_Source\PSoC6/SmartIO.c ****     if (callStatus != CY_RET_BAD_PARAM)
 530              		.loc 1 400 0
 531 0022 002D     		cmp	r5, #0
 532 0024 3DD1     		bne	.L33
 533              	.LBB78:
 534              	.LBB79:
 535              		.loc 2 626 0
 536 0026 204B     		ldr	r3, .L45
 537 0028 1A68     		ldr	r2, [r3]
 538              	.LVL26:
 539 002a 22F00042 		bic	r2, r2, #-2147483648
 540 002e 1A60     		str	r2, [r3]
 541              	.LBE79:
 542              	.LBE78:
 401:Generated_Source\PSoC6/SmartIO.c ****     {
 402:Generated_Source\PSoC6/SmartIO.c ****         /* Must disable the block before configuring */
 403:Generated_Source\PSoC6/SmartIO.c ****         SmartIO_Disable();
 404:Generated_Source\PSoC6/SmartIO.c ****         
 405:Generated_Source\PSoC6/SmartIO.c ****         sel = SmartIO_PORT->LUT_SEL[lutNum];
 543              		.loc 1 405 0
 544 0030 00F10802 		add	r2, r0, #8
 545 0034 53F82230 		ldr	r3, [r3, r2, lsl #2]
 546              	.LVL27:
 406:Generated_Source\PSoC6/SmartIO.c ****         switch(inputNum)
 547              		.loc 1 406 0
 548 0038 0139     		subs	r1, r1, #1
 549              	.LVL28:
 550 003a 0629     		cmp	r1, #6
 551 003c 27D8     		bhi	.L43
 552 003e DFE801F0 		tbb	[pc, r1]
 553              	.L36:
ARM GAS  C:\Users\ikomb\AppData\Local\Temp\ccmVwQIe.s 			page 29


 554 0042 04       		.byte	(.L35-.L36)/2
 555 0043 07       		.byte	(.L37-.L36)/2
 556 0044 26       		.byte	(.L43-.L36)/2
 557 0045 0E       		.byte	(.L38-.L36)/2
 558 0046 26       		.byte	(.L43-.L36)/2
 559 0047 26       		.byte	(.L43-.L36)/2
 560 0048 15       		.byte	(.L39-.L36)/2
 561 0049 00       		.p2align 1
 562              	.L35:
 407:Generated_Source\PSoC6/SmartIO.c ****         {
 408:Generated_Source\PSoC6/SmartIO.c ****             case SmartIO_LUT_INPUT0:
 409:Generated_Source\PSoC6/SmartIO.c ****                 sel = (sel & SmartIO_LUT_TR0_CLEAR) 
 563              		.loc 1 409 0
 564 004a 64F30303 		bfi	r3, r4, #0, #4
 565              	.LVL29:
 410:Generated_Source\PSoC6/SmartIO.c ****                         | ((uint32_t)(inputSrc << SMARTIO_PRT_LUT_SEL_LUT_TR0_SEL_Pos) & SMARTIO_PR
 411:Generated_Source\PSoC6/SmartIO.c ****                 break;
 566              		.loc 1 411 0
 567 004e 1FE0     		b	.L34
 568              	.L37:
 412:Generated_Source\PSoC6/SmartIO.c ****             case SmartIO_LUT_INPUT1:
 413:Generated_Source\PSoC6/SmartIO.c ****                 sel = (sel & SmartIO_LUT_TR1_CLEAR) 
 569              		.loc 1 413 0
 570 0050 23F47063 		bic	r3, r3, #3840
 571              	.LVL30:
 414:Generated_Source\PSoC6/SmartIO.c ****                         | ((uint32_t)(inputSrc << SMARTIO_PRT_LUT_SEL_LUT_TR1_SEL_Pos) & SMARTIO_PR
 572              		.loc 1 414 0
 573 0054 2402     		lsls	r4, r4, #8
 574              	.LVL31:
 575 0056 04F47064 		and	r4, r4, #3840
 413:Generated_Source\PSoC6/SmartIO.c ****                         | ((uint32_t)(inputSrc << SMARTIO_PRT_LUT_SEL_LUT_TR1_SEL_Pos) & SMARTIO_PR
 576              		.loc 1 413 0
 577 005a 2343     		orrs	r3, r3, r4
 578              	.LVL32:
 415:Generated_Source\PSoC6/SmartIO.c ****                 break;
 579              		.loc 1 415 0
 580 005c 18E0     		b	.L34
 581              	.LVL33:
 582              	.L38:
 416:Generated_Source\PSoC6/SmartIO.c ****             case SmartIO_LUT_INPUT2:
 417:Generated_Source\PSoC6/SmartIO.c ****                 sel = (sel & SmartIO_LUT_TR2_CLEAR)
 583              		.loc 1 417 0
 584 005e 23F47023 		bic	r3, r3, #983040
 585              	.LVL34:
 418:Generated_Source\PSoC6/SmartIO.c ****                         | ((uint32_t)(inputSrc << SMARTIO_PRT_LUT_SEL_LUT_TR2_SEL_Pos) & SMARTIO_PR
 586              		.loc 1 418 0
 587 0062 2404     		lsls	r4, r4, #16
 588              	.LVL35:
 589 0064 04F47024 		and	r4, r4, #983040
 417:Generated_Source\PSoC6/SmartIO.c ****                         | ((uint32_t)(inputSrc << SMARTIO_PRT_LUT_SEL_LUT_TR2_SEL_Pos) & SMARTIO_PR
 590              		.loc 1 417 0
 591 0068 2343     		orrs	r3, r3, r4
 592              	.LVL36:
 419:Generated_Source\PSoC6/SmartIO.c ****                 break;
 593              		.loc 1 419 0
 594 006a 11E0     		b	.L34
 595              	.LVL37:
ARM GAS  C:\Users\ikomb\AppData\Local\Temp\ccmVwQIe.s 			page 30


 596              	.L39:
 420:Generated_Source\PSoC6/SmartIO.c ****             case SmartIO_LUT_INPUT_ALL:
 421:Generated_Source\PSoC6/SmartIO.c ****                 sel = (sel & SmartIO_LUT_TR_CLEAR_ALL) 
 597              		.loc 1 421 0
 598 006c 23F00F13 		bic	r3, r3, #983055
 599              	.LVL38:
 600 0070 23F47063 		bic	r3, r3, #3840
 422:Generated_Source\PSoC6/SmartIO.c ****                         | ((uint32_t)(inputSrc << SMARTIO_PRT_LUT_SEL_LUT_TR0_SEL_Pos) & SMARTIO_PR
 601              		.loc 1 422 0
 602 0074 04F00F01 		and	r1, r4, #15
 603              	.LVL39:
 604 0078 0B43     		orrs	r3, r3, r1
 423:Generated_Source\PSoC6/SmartIO.c ****                         | ((uint32_t)(inputSrc << SMARTIO_PRT_LUT_SEL_LUT_TR1_SEL_Pos) & SMARTIO_PR
 605              		.loc 1 423 0
 606 007a 2202     		lsls	r2, r4, #8
 607 007c 02F47062 		and	r2, r2, #3840
 608 0080 43EA0201 		orr	r1, r3, r2
 424:Generated_Source\PSoC6/SmartIO.c ****                         | ((uint32_t)(inputSrc << SMARTIO_PRT_LUT_SEL_LUT_TR2_SEL_Pos) & SMARTIO_PR
 609              		.loc 1 424 0
 610 0084 2304     		lsls	r3, r4, #16
 611 0086 03F47023 		and	r3, r3, #983040
 421:Generated_Source\PSoC6/SmartIO.c ****                         | ((uint32_t)(inputSrc << SMARTIO_PRT_LUT_SEL_LUT_TR0_SEL_Pos) & SMARTIO_PR
 612              		.loc 1 421 0
 613 008a 0B43     		orrs	r3, r3, r1
 614              	.LVL40:
 425:Generated_Source\PSoC6/SmartIO.c ****                 break;
 615              		.loc 1 425 0
 616 008c 00E0     		b	.L34
 617              	.L43:
 426:Generated_Source\PSoC6/SmartIO.c ****             default: 
 427:Generated_Source\PSoC6/SmartIO.c ****                 callStatus = CY_RET_BAD_PARAM;
 618              		.loc 1 427 0
 619 008e 0125     		movs	r5, #1
 620              	.LVL41:
 621              	.L34:
 428:Generated_Source\PSoC6/SmartIO.c ****                 break;
 429:Generated_Source\PSoC6/SmartIO.c ****         }
 430:Generated_Source\PSoC6/SmartIO.c ****         SmartIO_PORT->LUT_SEL[lutNum] = sel;
 622              		.loc 1 430 0
 623 0090 0549     		ldr	r1, .L45
 624 0092 00F10802 		add	r2, r0, #8
 625 0096 41F82230 		str	r3, [r1, r2, lsl #2]
 626              	.LBB80:
 627              	.LBB81:
 608:Generated_Source\PSoC6/SmartIO.h **** }
 628              		.loc 2 608 0
 629 009a 0B68     		ldr	r3, [r1]
 630              	.LVL42:
 631 009c 43F00043 		orr	r3, r3, #-2147483648
 632 00a0 0B60     		str	r3, [r1]
 633              	.LVL43:
 634              	.L33:
 635              	.LBE81:
 636              	.LBE80:
 431:Generated_Source\PSoC6/SmartIO.c ****         
 432:Generated_Source\PSoC6/SmartIO.c ****         /* Re-enable the block */
 433:Generated_Source\PSoC6/SmartIO.c ****         SmartIO_Enable();
ARM GAS  C:\Users\ikomb\AppData\Local\Temp\ccmVwQIe.s 			page 31


 434:Generated_Source\PSoC6/SmartIO.c ****     }    
 435:Generated_Source\PSoC6/SmartIO.c ****     return callStatus;
 436:Generated_Source\PSoC6/SmartIO.c **** }
 637              		.loc 1 436 0
 638 00a2 2846     		mov	r0, r5
 639              	.LVL44:
 640 00a4 30BC     		pop	{r4, r5}
 641              		.cfi_restore 5
 642              		.cfi_restore 4
 643              		.cfi_def_cfa_offset 0
 644              	.LVL45:
 645 00a6 7047     		bx	lr
 646              	.L46:
 647              		.align	2
 648              	.L45:
 649 00a8 00093340 		.word	1077086464
 650              		.cfi_endproc
 651              	.LFE136:
 652              		.size	SmartIO_LUT_SelectInputs, .-SmartIO_LUT_SelectInputs
 653              		.section	.text.SmartIO_LUT_ConfigureMode,"ax",%progbits
 654              		.align	2
 655              		.global	SmartIO_LUT_ConfigureMode
 656              		.thumb
 657              		.thumb_func
 658              		.type	SmartIO_LUT_ConfigureMode, %function
 659              	SmartIO_LUT_ConfigureMode:
 660              	.LFB137:
 437:Generated_Source\PSoC6/SmartIO.c **** 
 438:Generated_Source\PSoC6/SmartIO.c **** 
 439:Generated_Source\PSoC6/SmartIO.c **** /*******************************************************************************
 440:Generated_Source\PSoC6/SmartIO.c **** * Function Name: SmartIO_LUT_ConfigureMode
 441:Generated_Source\PSoC6/SmartIO.c **** ****************************************************************************//**
 442:Generated_Source\PSoC6/SmartIO.c **** *
 443:Generated_Source\PSoC6/SmartIO.c **** * \brief This function sets the logical function of the selected LUT (based on 
 444:Generated_Source\PSoC6/SmartIO.c **** *  the 3 inputs) and specifies its operating mode. 
 445:Generated_Source\PSoC6/SmartIO.c **** *
 446:Generated_Source\PSoC6/SmartIO.c **** *  The LUT mapping (truth table) is defined as follows.
 447:Generated_Source\PSoC6/SmartIO.c **** *
 448:Generated_Source\PSoC6/SmartIO.c **** *   input2 | input1 | input0 | Mapping bit
 449:Generated_Source\PSoC6/SmartIO.c **** *   -------| ------ | ------ | -----------
 450:Generated_Source\PSoC6/SmartIO.c **** *     0    |   0    |   0    |    bit0
 451:Generated_Source\PSoC6/SmartIO.c **** *     0    |   0    |   1    |    bit1
 452:Generated_Source\PSoC6/SmartIO.c **** *     0    |   1    |   0    |    bit2
 453:Generated_Source\PSoC6/SmartIO.c **** *     0    |   1    |   1    |    bit3
 454:Generated_Source\PSoC6/SmartIO.c **** *     1    |   0    |   0    |    bit4
 455:Generated_Source\PSoC6/SmartIO.c **** *     1    |   0    |   1    |    bit5
 456:Generated_Source\PSoC6/SmartIO.c **** *     1    |   1    |   0    |    bit6
 457:Generated_Source\PSoC6/SmartIO.c **** *     1    |   1    |   1    |    bit7
 458:Generated_Source\PSoC6/SmartIO.c **** *
 459:Generated_Source\PSoC6/SmartIO.c **** * \param lutNum
 460:Generated_Source\PSoC6/SmartIO.c **** *  LUT number. Valid options are documented in \ref lutNumConst.
 461:Generated_Source\PSoC6/SmartIO.c **** *
 462:Generated_Source\PSoC6/SmartIO.c **** * \param mapping
 463:Generated_Source\PSoC6/SmartIO.c **** *  This is the LUT truth table. Bit0 corresponds to the LUT output when the 
 464:Generated_Source\PSoC6/SmartIO.c **** *  input value is (in2=0, in1=0, in0=0). Bit7 corresponds to the LUT output 
 465:Generated_Source\PSoC6/SmartIO.c **** *  when the input value is (in2=1, in1=1, in0=1).
 466:Generated_Source\PSoC6/SmartIO.c **** *
ARM GAS  C:\Users\ikomb\AppData\Local\Temp\ccmVwQIe.s 			page 32


 467:Generated_Source\PSoC6/SmartIO.c **** * \param mode
 468:Generated_Source\PSoC6/SmartIO.c **** *  The LUT mode. Valid options are documented in \ref modeConst.
 469:Generated_Source\PSoC6/SmartIO.c **** * 
 470:Generated_Source\PSoC6/SmartIO.c **** * \sideeffect
 471:Generated_Source\PSoC6/SmartIO.c **** *  This function disables the block for reconfiguration. During this time,
 472:Generated_Source\PSoC6/SmartIO.c **** *  all signals on the port will be bypassed. All peripheral and gpio signals
 473:Generated_Source\PSoC6/SmartIO.c **** *  must be stopped or properly handled to account for the bypass state.
 474:Generated_Source\PSoC6/SmartIO.c **** *
 475:Generated_Source\PSoC6/SmartIO.c **** * \funcusage
 476:Generated_Source\PSoC6/SmartIO.c **** *  \snippet SmartIO_SUT.c usage_SmartIO_LUT_ConfigureMode
 477:Generated_Source\PSoC6/SmartIO.c **** *******************************************************************************/
 478:Generated_Source\PSoC6/SmartIO.c **** void SmartIO_LUT_ConfigureMode(uint32_t lutNum, uint32_t mapping, uint32_t mode)
 479:Generated_Source\PSoC6/SmartIO.c **** {
 661              		.loc 1 479 0
 662              		.cfi_startproc
 663              		@ args = 0, pretend = 0, frame = 0
 664              		@ frame_needed = 0, uses_anonymous_args = 0
 665              		@ link register save eliminated.
 666              	.LVL46:
 667 0000 10B4     		push	{r4}
 668              		.cfi_def_cfa_offset 4
 669              		.cfi_offset 4, -4
 670              	.LBB82:
 671              	.LBB83:
 672              		.loc 2 626 0
 673 0002 0D4B     		ldr	r3, .L49
 674 0004 1C68     		ldr	r4, [r3]
 675 0006 24F00044 		bic	r4, r4, #-2147483648
 676 000a 1C60     		str	r4, [r3]
 677              	.LBE83:
 678              	.LBE82:
 480:Generated_Source\PSoC6/SmartIO.c ****     uint32_t ctl;
 481:Generated_Source\PSoC6/SmartIO.c ****     
 482:Generated_Source\PSoC6/SmartIO.c ****     /* Must disable the block before configuring */
 483:Generated_Source\PSoC6/SmartIO.c ****     SmartIO_Disable();
 484:Generated_Source\PSoC6/SmartIO.c ****     
 485:Generated_Source\PSoC6/SmartIO.c ****     ctl = SmartIO_PORT->LUT_CTL[lutNum] & SmartIO_LUT_CTL_CLEAR;
 679              		.loc 1 485 0
 680 000c 1030     		adds	r0, r0, #16
 681              	.LVL47:
 682 000e 53F82040 		ldr	r4, [r3, r0, lsl #2]
 683 0012 24F47F74 		bic	r4, r4, #1020
 684 0016 24F00304 		bic	r4, r4, #3
 685              	.LVL48:
 486:Generated_Source\PSoC6/SmartIO.c ****     SmartIO_PORT->LUT_CTL[lutNum] = ctl 
 487:Generated_Source\PSoC6/SmartIO.c ****                                             | (((uint32_t)((mapping << SMARTIO_PRT_LUT_CTL_LUT_Pos)
 686              		.loc 1 487 0
 687 001a C9B2     		uxtb	r1, r1
 688              	.LVL49:
 488:Generated_Source\PSoC6/SmartIO.c ****                                             & SMARTIO_PRT_LUT_CTL_LUT_Msk))
 489:Generated_Source\PSoC6/SmartIO.c ****                                             | ((uint32_t)(((uint32_t)mode << SMARTIO_PRT_LUT_CTL_LU
 689              		.loc 1 489 0
 690 001c 1202     		lsls	r2, r2, #8
 691              	.LVL50:
 692 001e 02F44072 		and	r2, r2, #768
 693 0022 1143     		orrs	r1, r1, r2
 487:Generated_Source\PSoC6/SmartIO.c ****                                             & SMARTIO_PRT_LUT_CTL_LUT_Msk))
ARM GAS  C:\Users\ikomb\AppData\Local\Temp\ccmVwQIe.s 			page 33


 694              		.loc 1 487 0
 695 0024 2143     		orrs	r1, r1, r4
 486:Generated_Source\PSoC6/SmartIO.c ****     SmartIO_PORT->LUT_CTL[lutNum] = ctl 
 696              		.loc 1 486 0
 697 0026 43F82010 		str	r1, [r3, r0, lsl #2]
 698              	.LBB84:
 699              	.LBB85:
 608:Generated_Source\PSoC6/SmartIO.h **** }
 700              		.loc 2 608 0
 701 002a 1A68     		ldr	r2, [r3]
 702 002c 42F00042 		orr	r2, r2, #-2147483648
 703 0030 1A60     		str	r2, [r3]
 704              	.LBE85:
 705              	.LBE84:
 490:Generated_Source\PSoC6/SmartIO.c ****                                             & SMARTIO_PRT_LUT_CTL_LUT_OPC_Msk)));
 491:Generated_Source\PSoC6/SmartIO.c ****     /* Re-enable the block */
 492:Generated_Source\PSoC6/SmartIO.c ****     SmartIO_Enable();
 493:Generated_Source\PSoC6/SmartIO.c **** }
 706              		.loc 1 493 0
 707 0032 5DF8044B 		ldr	r4, [sp], #4
 708              		.cfi_restore 4
 709              		.cfi_def_cfa_offset 0
 710              	.LVL51:
 711 0036 7047     		bx	lr
 712              	.L50:
 713              		.align	2
 714              	.L49:
 715 0038 00093340 		.word	1077086464
 716              		.cfi_endproc
 717              	.LFE137:
 718              		.size	SmartIO_LUT_ConfigureMode, .-SmartIO_LUT_ConfigureMode
 719              		.section	.text.SmartIO_DU_SelectTriggers,"ax",%progbits
 720              		.align	2
 721              		.global	SmartIO_DU_SelectTriggers
 722              		.thumb
 723              		.thumb_func
 724              		.type	SmartIO_DU_SelectTriggers, %function
 725              	SmartIO_DU_SelectTriggers:
 726              	.LFB138:
 494:Generated_Source\PSoC6/SmartIO.c **** 
 495:Generated_Source\PSoC6/SmartIO.c **** 
 496:Generated_Source\PSoC6/SmartIO.c **** /*******************************************************************************
 497:Generated_Source\PSoC6/SmartIO.c **** * Function Name: SmartIO_DU_SelectTriggers
 498:Generated_Source\PSoC6/SmartIO.c **** ****************************************************************************//**
 499:Generated_Source\PSoC6/SmartIO.c **** *
 500:Generated_Source\PSoC6/SmartIO.c **** * \brief Selects the trigger sources for the data unit.
 501:Generated_Source\PSoC6/SmartIO.c **** *
 502:Generated_Source\PSoC6/SmartIO.c **** * \param tr0Sel
 503:Generated_Source\PSoC6/SmartIO.c **** *  Trigger 0 input selection. Valid options are documented in \ref duTrConst.
 504:Generated_Source\PSoC6/SmartIO.c **** *
 505:Generated_Source\PSoC6/SmartIO.c **** * \param tr1Sel
 506:Generated_Source\PSoC6/SmartIO.c **** *  Trigger 1 input selection. Valid options are documented in \ref duTrConst.
 507:Generated_Source\PSoC6/SmartIO.c **** *
 508:Generated_Source\PSoC6/SmartIO.c **** * \param tr2Sel
 509:Generated_Source\PSoC6/SmartIO.c **** *  Trigger 2 input selection. Valid options are documented in \ref duTrConst.
 510:Generated_Source\PSoC6/SmartIO.c **** *
 511:Generated_Source\PSoC6/SmartIO.c **** * \sideeffect
ARM GAS  C:\Users\ikomb\AppData\Local\Temp\ccmVwQIe.s 			page 34


 512:Generated_Source\PSoC6/SmartIO.c **** *  This function disables the block for reconfiguration. During this time,
 513:Generated_Source\PSoC6/SmartIO.c **** *  all signals on the port will be bypassed. All peripheral and gpio signals
 514:Generated_Source\PSoC6/SmartIO.c **** *  must be stopped or properly handled to account for the bypass state.
 515:Generated_Source\PSoC6/SmartIO.c **** *
 516:Generated_Source\PSoC6/SmartIO.c **** * \funcusage
 517:Generated_Source\PSoC6/SmartIO.c **** *  \snippet SmartIO_SUT.c usage_SmartIO_DU_SelectTriggers
 518:Generated_Source\PSoC6/SmartIO.c **** *******************************************************************************/
 519:Generated_Source\PSoC6/SmartIO.c **** cy_status SmartIO_DU_SelectTriggers(uint32_t tr0Sel, uint32_t tr1Sel, uint32_t tr2Sel)
 520:Generated_Source\PSoC6/SmartIO.c **** {
 727              		.loc 1 520 0
 728              		.cfi_startproc
 729              		@ args = 0, pretend = 0, frame = 0
 730              		@ frame_needed = 0, uses_anonymous_args = 0
 731              		@ link register save eliminated.
 732              	.LVL52:
 521:Generated_Source\PSoC6/SmartIO.c ****     cy_status callStatus = CY_RET_SUCCESS;
 522:Generated_Source\PSoC6/SmartIO.c ****     uint32_t sel;
 523:Generated_Source\PSoC6/SmartIO.c ****     
 524:Generated_Source\PSoC6/SmartIO.c ****     if((tr0Sel > SmartIO_DUTRIG_MAX) || (tr1Sel > SmartIO_DUTRIG_MAX) || (tr2Sel > SmartIO_DUTRIG_M
 733              		.loc 1 524 0
 734 0000 0A28     		cmp	r0, #10
 735 0002 1CD8     		bhi	.L53
 736              		.loc 1 524 0 is_stmt 0 discriminator 1
 737 0004 0A29     		cmp	r1, #10
 738 0006 1CD8     		bhi	.L54
 739              		.loc 1 524 0 discriminator 2
 740 0008 0A2A     		cmp	r2, #10
 741 000a 1CD8     		bhi	.L55
 520:Generated_Source\PSoC6/SmartIO.c ****     cy_status callStatus = CY_RET_SUCCESS;
 742              		.loc 1 520 0 is_stmt 1
 743 000c 30B4     		push	{r4, r5}
 744              		.cfi_def_cfa_offset 8
 745              		.cfi_offset 4, -8
 746              		.cfi_offset 5, -4
 747              	.LBB86:
 748              	.LBB87:
 749              		.loc 2 626 0
 750 000e 104D     		ldr	r5, .L58
 751 0010 2B68     		ldr	r3, [r5]
 752 0012 23F00043 		bic	r3, r3, #-2147483648
 753 0016 2B60     		str	r3, [r5]
 754              	.LBE87:
 755              	.LBE86:
 525:Generated_Source\PSoC6/SmartIO.c ****     {
 526:Generated_Source\PSoC6/SmartIO.c ****         callStatus = CY_RET_BAD_PARAM;
 527:Generated_Source\PSoC6/SmartIO.c ****     }
 528:Generated_Source\PSoC6/SmartIO.c ****     else
 529:Generated_Source\PSoC6/SmartIO.c ****     {
 530:Generated_Source\PSoC6/SmartIO.c ****         /* Must disable the block before configuring */
 531:Generated_Source\PSoC6/SmartIO.c ****         SmartIO_Disable();
 532:Generated_Source\PSoC6/SmartIO.c ****         
 533:Generated_Source\PSoC6/SmartIO.c ****         sel = SmartIO_PORT->DU_SEL & SmartIO_DU_TR_CLEAR_ALL;
 756              		.loc 1 533 0
 757 0018 D5F8C040 		ldr	r4, [r5, #192]
 758 001c 24F00F13 		bic	r3, r4, #983055
 759 0020 23F47063 		bic	r3, r3, #3840
 760              	.LVL53:
ARM GAS  C:\Users\ikomb\AppData\Local\Temp\ccmVwQIe.s 			page 35


 534:Generated_Source\PSoC6/SmartIO.c ****         SmartIO_PORT->DU_SEL = sel 
 535:Generated_Source\PSoC6/SmartIO.c ****                                 | ((uint32_t)(tr0Sel << SMARTIO_PRT_DU_SEL_DU_TR0_SEL_Pos))
 761              		.loc 1 535 0
 762 0024 0343     		orrs	r3, r3, r0
 763              	.LVL54:
 536:Generated_Source\PSoC6/SmartIO.c ****                                 | ((uint32_t)(tr1Sel << SMARTIO_PRT_DU_SEL_DU_TR1_SEL_Pos))
 764              		.loc 1 536 0
 765 0026 43EA0121 		orr	r1, r3, r1, lsl #8
 766              	.LVL55:
 537:Generated_Source\PSoC6/SmartIO.c ****                                 | ((uint32_t)(tr2Sel << SMARTIO_PRT_DU_SEL_DU_TR2_SEL_Pos));
 767              		.loc 1 537 0
 768 002a 41EA0242 		orr	r2, r1, r2, lsl #16
 769              	.LVL56:
 534:Generated_Source\PSoC6/SmartIO.c ****         SmartIO_PORT->DU_SEL = sel 
 770              		.loc 1 534 0
 771 002e C5F8C020 		str	r2, [r5, #192]
 772              	.LBB88:
 773              	.LBB89:
 608:Generated_Source\PSoC6/SmartIO.h **** }
 774              		.loc 2 608 0
 775 0032 2B68     		ldr	r3, [r5]
 776 0034 43F00043 		orr	r3, r3, #-2147483648
 777 0038 2B60     		str	r3, [r5]
 778              	.LBE89:
 779              	.LBE88:
 521:Generated_Source\PSoC6/SmartIO.c ****     uint32_t sel;
 780              		.loc 1 521 0
 781 003a 0020     		movs	r0, #0
 782              	.LVL57:
 783 003c 05E0     		b	.L52
 784              	.LVL58:
 785              	.L53:
 786              		.cfi_def_cfa_offset 0
 787              		.cfi_restore 4
 788              		.cfi_restore 5
 526:Generated_Source\PSoC6/SmartIO.c ****     }
 789              		.loc 1 526 0
 790 003e 0120     		movs	r0, #1
 791              	.LVL59:
 792 0040 7047     		bx	lr
 793              	.LVL60:
 794              	.L54:
 795 0042 0120     		movs	r0, #1
 796              	.LVL61:
 797 0044 7047     		bx	lr
 798              	.LVL62:
 799              	.L55:
 800 0046 0120     		movs	r0, #1
 801              	.LVL63:
 802 0048 7047     		bx	lr
 803              	.LVL64:
 804              	.L52:
 805              		.cfi_def_cfa_offset 8
 806              		.cfi_offset 4, -8
 807              		.cfi_offset 5, -4
 538:Generated_Source\PSoC6/SmartIO.c ****         
 539:Generated_Source\PSoC6/SmartIO.c ****         /* Re-enable the block */
ARM GAS  C:\Users\ikomb\AppData\Local\Temp\ccmVwQIe.s 			page 36


 540:Generated_Source\PSoC6/SmartIO.c ****         SmartIO_Enable();
 541:Generated_Source\PSoC6/SmartIO.c ****     }
 542:Generated_Source\PSoC6/SmartIO.c ****     
 543:Generated_Source\PSoC6/SmartIO.c ****     return callStatus;
 544:Generated_Source\PSoC6/SmartIO.c **** }
 808              		.loc 1 544 0
 809 004a 30BC     		pop	{r4, r5}
 810              		.cfi_restore 5
 811              		.cfi_restore 4
 812              		.cfi_def_cfa_offset 0
 813              	.LVL65:
 814 004c 7047     		bx	lr
 815              	.L59:
 816 004e 00BF     		.align	2
 817              	.L58:
 818 0050 00093340 		.word	1077086464
 819              		.cfi_endproc
 820              	.LFE138:
 821              		.size	SmartIO_DU_SelectTriggers, .-SmartIO_DU_SelectTriggers
 822              		.section	.text.SmartIO_DU_SelectData,"ax",%progbits
 823              		.align	2
 824              		.global	SmartIO_DU_SelectData
 825              		.thumb
 826              		.thumb_func
 827              		.type	SmartIO_DU_SelectData, %function
 828              	SmartIO_DU_SelectData:
 829              	.LFB139:
 545:Generated_Source\PSoC6/SmartIO.c **** 
 546:Generated_Source\PSoC6/SmartIO.c **** 
 547:Generated_Source\PSoC6/SmartIO.c **** /*******************************************************************************
 548:Generated_Source\PSoC6/SmartIO.c **** * Function Name: SmartIO_DU_SelectData
 549:Generated_Source\PSoC6/SmartIO.c **** ****************************************************************************//**
 550:Generated_Source\PSoC6/SmartIO.c **** *
 551:Generated_Source\PSoC6/SmartIO.c **** * \brief Specifies the values for the Data0 and Data1 registers in the Data Unit.
 552:Generated_Source\PSoC6/SmartIO.c **** *
 553:Generated_Source\PSoC6/SmartIO.c **** * \param dataNum
 554:Generated_Source\PSoC6/SmartIO.c **** *  DU DATA register selection. Valid options are documented in \ref duDataConst.
 555:Generated_Source\PSoC6/SmartIO.c **** *
 556:Generated_Source\PSoC6/SmartIO.c **** * \param dataSel
 557:Generated_Source\PSoC6/SmartIO.c **** *  DU DATA register source selection. Valid options are documented in \ref duDataSrcConst.
 558:Generated_Source\PSoC6/SmartIO.c **** *
 559:Generated_Source\PSoC6/SmartIO.c **** * \sideeffect
 560:Generated_Source\PSoC6/SmartIO.c **** *  This function disables the block for reconfiguration. During this time,
 561:Generated_Source\PSoC6/SmartIO.c **** *  all signals on the port will be bypassed. All peripheral and gpio signals
 562:Generated_Source\PSoC6/SmartIO.c **** *  must be stopped or properly handled to account for the bypass state.
 563:Generated_Source\PSoC6/SmartIO.c **** *
 564:Generated_Source\PSoC6/SmartIO.c **** * \funcusage
 565:Generated_Source\PSoC6/SmartIO.c **** *  \snippet SmartIO_SUT.c usage_SmartIO_DU_SelectData
 566:Generated_Source\PSoC6/SmartIO.c **** *******************************************************************************/
 567:Generated_Source\PSoC6/SmartIO.c **** cy_status SmartIO_DU_SelectData(uint32_t dataNum, uint32_t dataSel)
 568:Generated_Source\PSoC6/SmartIO.c **** {
 830              		.loc 1 568 0
 831              		.cfi_startproc
 832              		@ args = 0, pretend = 0, frame = 0
 833              		@ frame_needed = 0, uses_anonymous_args = 0
 834              		@ link register save eliminated.
 835              	.LVL66:
ARM GAS  C:\Users\ikomb\AppData\Local\Temp\ccmVwQIe.s 			page 37


 836              	.LBB90:
 837              	.LBB91:
 838              		.loc 2 626 0
 839 0000 184B     		ldr	r3, .L67
 840 0002 1A68     		ldr	r2, [r3]
 841 0004 22F00042 		bic	r2, r2, #-2147483648
 842 0008 1A60     		str	r2, [r3]
 843              	.LBE91:
 844              	.LBE90:
 569:Generated_Source\PSoC6/SmartIO.c ****     cy_status callStatus = CY_RET_SUCCESS;
 570:Generated_Source\PSoC6/SmartIO.c ****     uint32_t sel;
 571:Generated_Source\PSoC6/SmartIO.c ****     
 572:Generated_Source\PSoC6/SmartIO.c ****     /* Must disable the block before configuring */
 573:Generated_Source\PSoC6/SmartIO.c ****     SmartIO_Disable();
 574:Generated_Source\PSoC6/SmartIO.c ****     
 575:Generated_Source\PSoC6/SmartIO.c ****     sel = SmartIO_PORT->DU_SEL;
 845              		.loc 1 575 0
 846 000a D3F8C030 		ldr	r3, [r3, #192]
 847              	.LVL67:
 576:Generated_Source\PSoC6/SmartIO.c ****     switch(dataNum)
 848              		.loc 1 576 0
 849 000e 0228     		cmp	r0, #2
 850 0010 0BD0     		beq	.L62
 851 0012 0328     		cmp	r0, #3
 852 0014 11D0     		beq	.L63
 853 0016 0128     		cmp	r0, #1
 854 0018 1BD1     		bne	.L66
 577:Generated_Source\PSoC6/SmartIO.c ****     {
 578:Generated_Source\PSoC6/SmartIO.c ****         case SmartIO_DATA0:
 579:Generated_Source\PSoC6/SmartIO.c ****             sel = (sel & SmartIO_DU_DATA0_CLEAR)
 855              		.loc 1 579 0
 856 001a 23F04073 		bic	r3, r3, #50331648
 857              	.LVL68:
 580:Generated_Source\PSoC6/SmartIO.c ****                   | (uint32_t)((dataSel << SMARTIO_PRT_DU_SEL_DU_DATA0_SEL_Pos) & SMARTIO_PRT_DU_SE
 858              		.loc 1 580 0
 859 001e 0906     		lsls	r1, r1, #24
 860              	.LVL69:
 861 0020 01F04071 		and	r1, r1, #50331648
 579:Generated_Source\PSoC6/SmartIO.c ****                   | (uint32_t)((dataSel << SMARTIO_PRT_DU_SEL_DU_DATA0_SEL_Pos) & SMARTIO_PRT_DU_SE
 862              		.loc 1 579 0
 863 0024 0B43     		orrs	r3, r3, r1
 864              	.LVL70:
 569:Generated_Source\PSoC6/SmartIO.c ****     uint32_t sel;
 865              		.loc 1 569 0
 866 0026 0020     		movs	r0, #0
 867              	.LVL71:
 581:Generated_Source\PSoC6/SmartIO.c ****         break;
 868              		.loc 1 581 0
 869 0028 14E0     		b	.L61
 870              	.LVL72:
 871              	.L62:
 582:Generated_Source\PSoC6/SmartIO.c ****         case SmartIO_DATA1:
 583:Generated_Source\PSoC6/SmartIO.c ****             sel = (sel & SmartIO_DU_DATA1_CLEAR)
 872              		.loc 1 583 0
 873 002a 23F04053 		bic	r3, r3, #805306368
 874              	.LVL73:
 584:Generated_Source\PSoC6/SmartIO.c ****                   | (uint32_t)((dataSel << SMARTIO_PRT_DU_SEL_DU_DATA1_SEL_Pos) & SMARTIO_PRT_DU_SE
ARM GAS  C:\Users\ikomb\AppData\Local\Temp\ccmVwQIe.s 			page 38


 875              		.loc 1 584 0
 876 002e 0907     		lsls	r1, r1, #28
 877              	.LVL74:
 878 0030 01F04051 		and	r1, r1, #805306368
 583:Generated_Source\PSoC6/SmartIO.c ****                   | (uint32_t)((dataSel << SMARTIO_PRT_DU_SEL_DU_DATA1_SEL_Pos) & SMARTIO_PRT_DU_SE
 879              		.loc 1 583 0
 880 0034 0B43     		orrs	r3, r3, r1
 881              	.LVL75:
 569:Generated_Source\PSoC6/SmartIO.c ****     uint32_t sel;
 882              		.loc 1 569 0
 883 0036 0020     		movs	r0, #0
 884              	.LVL76:
 585:Generated_Source\PSoC6/SmartIO.c ****         break;
 885              		.loc 1 585 0
 886 0038 0CE0     		b	.L61
 887              	.LVL77:
 888              	.L63:
 586:Generated_Source\PSoC6/SmartIO.c ****         case SmartIO_DATA_BOTH:
 587:Generated_Source\PSoC6/SmartIO.c ****             sel = (sel & SmartIO_DU_DATA01_CLEAR_BOTH)
 889              		.loc 1 587 0
 890 003a 23F04C53 		bic	r3, r3, #855638016
 891              	.LVL78:
 588:Generated_Source\PSoC6/SmartIO.c ****                    |(uint32_t)((dataSel << SMARTIO_PRT_DU_SEL_DU_DATA0_SEL_Pos) & SMARTIO_PRT_DU_SE
 892              		.loc 1 588 0
 893 003e 0A06     		lsls	r2, r1, #24
 894 0040 02F04072 		and	r2, r2, #50331648
 895 0044 1343     		orrs	r3, r3, r2
 589:Generated_Source\PSoC6/SmartIO.c ****                    |(uint32_t)((dataSel << SMARTIO_PRT_DU_SEL_DU_DATA1_SEL_Pos) & SMARTIO_PRT_DU_SE
 896              		.loc 1 589 0
 897 0046 0907     		lsls	r1, r1, #28
 898              	.LVL79:
 899 0048 01F04051 		and	r1, r1, #805306368
 587:Generated_Source\PSoC6/SmartIO.c ****                    |(uint32_t)((dataSel << SMARTIO_PRT_DU_SEL_DU_DATA0_SEL_Pos) & SMARTIO_PRT_DU_SE
 900              		.loc 1 587 0
 901 004c 0B43     		orrs	r3, r3, r1
 902              	.LVL80:
 569:Generated_Source\PSoC6/SmartIO.c ****     uint32_t sel;
 903              		.loc 1 569 0
 904 004e 0020     		movs	r0, #0
 905              	.LVL81:
 590:Generated_Source\PSoC6/SmartIO.c ****         break;
 906              		.loc 1 590 0
 907 0050 00E0     		b	.L61
 908              	.LVL82:
 909              	.L66:
 591:Generated_Source\PSoC6/SmartIO.c ****         default:
 592:Generated_Source\PSoC6/SmartIO.c ****             callStatus = CY_RET_BAD_PARAM;
 910              		.loc 1 592 0
 911 0052 0120     		movs	r0, #1
 912              	.LVL83:
 913              	.L61:
 593:Generated_Source\PSoC6/SmartIO.c ****         break;
 594:Generated_Source\PSoC6/SmartIO.c ****     }
 595:Generated_Source\PSoC6/SmartIO.c ****     SmartIO_PORT->DU_SEL = sel;
 914              		.loc 1 595 0
 915 0054 034A     		ldr	r2, .L67
 916 0056 C2F8C030 		str	r3, [r2, #192]
ARM GAS  C:\Users\ikomb\AppData\Local\Temp\ccmVwQIe.s 			page 39


 917              	.LBB92:
 918              	.LBB93:
 608:Generated_Source\PSoC6/SmartIO.h **** }
 919              		.loc 2 608 0
 920 005a 1368     		ldr	r3, [r2]
 921              	.LVL84:
 922 005c 43F00043 		orr	r3, r3, #-2147483648
 923 0060 1360     		str	r3, [r2]
 924              	.LVL85:
 925              	.LBE93:
 926              	.LBE92:
 596:Generated_Source\PSoC6/SmartIO.c ****     
 597:Generated_Source\PSoC6/SmartIO.c ****     /* Re-enable the block */
 598:Generated_Source\PSoC6/SmartIO.c ****     SmartIO_Enable();
 599:Generated_Source\PSoC6/SmartIO.c ****     
 600:Generated_Source\PSoC6/SmartIO.c ****     return callStatus;
 601:Generated_Source\PSoC6/SmartIO.c **** }
 927              		.loc 1 601 0
 928 0062 7047     		bx	lr
 929              	.L68:
 930              		.align	2
 931              	.L67:
 932 0064 00093340 		.word	1077086464
 933              		.cfi_endproc
 934              	.LFE139:
 935              		.size	SmartIO_DU_SelectData, .-SmartIO_DU_SelectData
 936              		.section	.text.SmartIO_DU_RegValue,"ax",%progbits
 937              		.align	2
 938              		.global	SmartIO_DU_RegValue
 939              		.thumb
 940              		.thumb_func
 941              		.type	SmartIO_DU_RegValue, %function
 942              	SmartIO_DU_RegValue:
 943              	.LFB140:
 602:Generated_Source\PSoC6/SmartIO.c **** 
 603:Generated_Source\PSoC6/SmartIO.c **** 
 604:Generated_Source\PSoC6/SmartIO.c **** /*******************************************************************************
 605:Generated_Source\PSoC6/SmartIO.c **** * Function Name: SmartIO_DU_RegValue
 606:Generated_Source\PSoC6/SmartIO.c **** ****************************************************************************//**
 607:Generated_Source\PSoC6/SmartIO.c **** *
 608:Generated_Source\PSoC6/SmartIO.c **** * \brief Specifies the 8-bit value in the internal DU register that may be a
 609:Generated_Source\PSoC6/SmartIO.c **** * source for Data0 and/or Data1.
 610:Generated_Source\PSoC6/SmartIO.c **** *
 611:Generated_Source\PSoC6/SmartIO.c **** * \param dataValue
 612:Generated_Source\PSoC6/SmartIO.c **** *  8-bit value to be stored in the register.
 613:Generated_Source\PSoC6/SmartIO.c **** *
 614:Generated_Source\PSoC6/SmartIO.c **** * \sideeffect
 615:Generated_Source\PSoC6/SmartIO.c **** *  This function disables the block for reconfiguration. During this time,
 616:Generated_Source\PSoC6/SmartIO.c **** *  all signals on the port will be bypassed. All peripheral and gpio signals
 617:Generated_Source\PSoC6/SmartIO.c **** *  must be stopped or properly handled to account for the bypass state.
 618:Generated_Source\PSoC6/SmartIO.c **** *
 619:Generated_Source\PSoC6/SmartIO.c **** * \funcusage
 620:Generated_Source\PSoC6/SmartIO.c **** *  \snippet SmartIO_SUT.c usage_SmartIO_DU_RegValue
 621:Generated_Source\PSoC6/SmartIO.c **** *******************************************************************************/
 622:Generated_Source\PSoC6/SmartIO.c **** cy_status SmartIO_DU_RegValue(uint32_t dataValue)
 623:Generated_Source\PSoC6/SmartIO.c **** {
 944              		.loc 1 623 0
ARM GAS  C:\Users\ikomb\AppData\Local\Temp\ccmVwQIe.s 			page 40


 945              		.cfi_startproc
 946              		@ args = 0, pretend = 0, frame = 0
 947              		@ frame_needed = 0, uses_anonymous_args = 0
 948              		@ link register save eliminated.
 949              	.LVL86:
 624:Generated_Source\PSoC6/SmartIO.c ****     cy_status callStatus = CY_RET_SUCCESS;
 625:Generated_Source\PSoC6/SmartIO.c ****     
 626:Generated_Source\PSoC6/SmartIO.c ****     if(dataValue > SmartIO_REGVAL_MAX)
 950              		.loc 1 626 0
 951 0000 FF28     		cmp	r0, #255
 952 0002 0CD8     		bhi	.L71
 953              	.LBB94:
 954              	.LBB95:
 955              		.loc 2 626 0
 956 0004 074B     		ldr	r3, .L72
 957 0006 1A68     		ldr	r2, [r3]
 958 0008 22F00042 		bic	r2, r2, #-2147483648
 959 000c 1A60     		str	r2, [r3]
 960              	.LBE95:
 961              	.LBE94:
 627:Generated_Source\PSoC6/SmartIO.c ****     {
 628:Generated_Source\PSoC6/SmartIO.c ****         callStatus = CY_RET_BAD_PARAM;
 629:Generated_Source\PSoC6/SmartIO.c ****     }
 630:Generated_Source\PSoC6/SmartIO.c ****     else
 631:Generated_Source\PSoC6/SmartIO.c ****     {
 632:Generated_Source\PSoC6/SmartIO.c ****         /* Must disable the block before configuring */
 633:Generated_Source\PSoC6/SmartIO.c ****         SmartIO_Disable();
 634:Generated_Source\PSoC6/SmartIO.c ****         SmartIO_PORT->DATA = dataValue;
 962              		.loc 1 634 0
 963 000e C3F8F000 		str	r0, [r3, #240]
 964              	.LBB96:
 965              	.LBB97:
 608:Generated_Source\PSoC6/SmartIO.h **** }
 966              		.loc 2 608 0
 967 0012 1A68     		ldr	r2, [r3]
 968 0014 42F00042 		orr	r2, r2, #-2147483648
 969 0018 1A60     		str	r2, [r3]
 970              	.LBE97:
 971              	.LBE96:
 624:Generated_Source\PSoC6/SmartIO.c ****     cy_status callStatus = CY_RET_SUCCESS;
 972              		.loc 1 624 0
 973 001a 0020     		movs	r0, #0
 974              	.LVL87:
 975 001c 7047     		bx	lr
 976              	.LVL88:
 977              	.L71:
 628:Generated_Source\PSoC6/SmartIO.c ****     }
 978              		.loc 1 628 0
 979 001e 0120     		movs	r0, #1
 980              	.LVL89:
 635:Generated_Source\PSoC6/SmartIO.c ****         /* Re-enable the block */
 636:Generated_Source\PSoC6/SmartIO.c ****         SmartIO_Enable();
 637:Generated_Source\PSoC6/SmartIO.c ****     }
 638:Generated_Source\PSoC6/SmartIO.c ****     
 639:Generated_Source\PSoC6/SmartIO.c ****     return callStatus;
 640:Generated_Source\PSoC6/SmartIO.c **** }
 981              		.loc 1 640 0
ARM GAS  C:\Users\ikomb\AppData\Local\Temp\ccmVwQIe.s 			page 41


 982 0020 7047     		bx	lr
 983              	.L73:
 984 0022 00BF     		.align	2
 985              	.L72:
 986 0024 00093340 		.word	1077086464
 987              		.cfi_endproc
 988              	.LFE140:
 989              		.size	SmartIO_DU_RegValue, .-SmartIO_DU_RegValue
 990              		.section	.text.SmartIO_DU_OpCode,"ax",%progbits
 991              		.align	2
 992              		.global	SmartIO_DU_OpCode
 993              		.thumb
 994              		.thumb_func
 995              		.type	SmartIO_DU_OpCode, %function
 996              	SmartIO_DU_OpCode:
 997              	.LFB141:
 641:Generated_Source\PSoC6/SmartIO.c **** 
 642:Generated_Source\PSoC6/SmartIO.c **** 
 643:Generated_Source\PSoC6/SmartIO.c **** /*******************************************************************************
 644:Generated_Source\PSoC6/SmartIO.c **** * Function Name: SmartIO_DU_OpCode
 645:Generated_Source\PSoC6/SmartIO.c **** ****************************************************************************//**
 646:Generated_Source\PSoC6/SmartIO.c **** *
 647:Generated_Source\PSoC6/SmartIO.c **** * \brief Selects the data unit operation and the size of the data to be 
 648:Generated_Source\PSoC6/SmartIO.c **** * operated on (1 to 8 bits).
 649:Generated_Source\PSoC6/SmartIO.c **** *
 650:Generated_Source\PSoC6/SmartIO.c **** * \param opCode
 651:Generated_Source\PSoC6/SmartIO.c **** *  Op-code for the Data Unit. Valid options are documented in \ref duOpcConst.
 652:Generated_Source\PSoC6/SmartIO.c **** *
 653:Generated_Source\PSoC6/SmartIO.c **** * \param dataSize
 654:Generated_Source\PSoC6/SmartIO.c **** *  Size/width of the data unit operands. Range: 1 to 8 bits.
 655:Generated_Source\PSoC6/SmartIO.c **** *
 656:Generated_Source\PSoC6/SmartIO.c **** * \sideeffect
 657:Generated_Source\PSoC6/SmartIO.c **** *  This function disables the block for reconfiguration. During this time,
 658:Generated_Source\PSoC6/SmartIO.c **** *  all signals on the port will be bypassed. All peripheral and gpio signals
 659:Generated_Source\PSoC6/SmartIO.c **** *  must be stopped or properly handled to account for the bypass state.
 660:Generated_Source\PSoC6/SmartIO.c **** *
 661:Generated_Source\PSoC6/SmartIO.c **** * \funcusage
 662:Generated_Source\PSoC6/SmartIO.c **** *  \snippet SmartIO_SUT.c usage_SmartIO_DU_OpCode
 663:Generated_Source\PSoC6/SmartIO.c **** *******************************************************************************/
 664:Generated_Source\PSoC6/SmartIO.c **** cy_status SmartIO_DU_OpCode(uint32_t opCode, uint32_t dataSize)
 665:Generated_Source\PSoC6/SmartIO.c **** {
 998              		.loc 1 665 0
 999              		.cfi_startproc
 1000              		@ args = 0, pretend = 0, frame = 0
 1001              		@ frame_needed = 0, uses_anonymous_args = 0
 1002              		@ link register save eliminated.
 1003              	.LVL90:
 666:Generated_Source\PSoC6/SmartIO.c ****     cy_status callStatus = CY_RET_SUCCESS;
 667:Generated_Source\PSoC6/SmartIO.c ****     
 668:Generated_Source\PSoC6/SmartIO.c ****     if((opCode == 0u) || (opCode > SmartIO_OPC_MAX) || (dataSize > SmartIO_DUSIZE_MAX))
 1004              		.loc 1 668 0
 1005 0000 431E     		subs	r3, r0, #1
 1006 0002 0A2B     		cmp	r3, #10
 1007 0004 11D8     		bhi	.L76
 1008              		.loc 1 668 0 is_stmt 0 discriminator 1
 1009 0006 0829     		cmp	r1, #8
 1010 0008 11D8     		bhi	.L77
ARM GAS  C:\Users\ikomb\AppData\Local\Temp\ccmVwQIe.s 			page 42


 1011              	.LBB98:
 1012              	.LBB99:
 1013              		.loc 2 626 0 is_stmt 1
 1014 000a 0A4B     		ldr	r3, .L78
 1015 000c 1A68     		ldr	r2, [r3]
 1016 000e 22F00042 		bic	r2, r2, #-2147483648
 1017 0012 1A60     		str	r2, [r3]
 1018              	.LBE99:
 1019              	.LBE98:
 669:Generated_Source\PSoC6/SmartIO.c ****     {
 670:Generated_Source\PSoC6/SmartIO.c ****         callStatus = CY_RET_BAD_PARAM;
 671:Generated_Source\PSoC6/SmartIO.c ****     }
 672:Generated_Source\PSoC6/SmartIO.c ****     else
 673:Generated_Source\PSoC6/SmartIO.c ****     {
 674:Generated_Source\PSoC6/SmartIO.c ****          /* Must disable the block before configuring */
 675:Generated_Source\PSoC6/SmartIO.c ****         SmartIO_Disable();
 676:Generated_Source\PSoC6/SmartIO.c ****         SmartIO_PORT->DU_CTL = (uint32_t)(((dataSize - 1u) << SMARTIO_PRT_DU_CTL_DU_SIZE_Pos))
 1020              		.loc 1 676 0
 1021 0014 0139     		subs	r1, r1, #1
 1022              	.LVL91:
 677:Generated_Source\PSoC6/SmartIO.c ****                          | (uint32_t)((opCode << SMARTIO_PRT_DU_CTL_DU_OPC_Pos));       
 1023              		.loc 1 677 0
 1024 0016 41EA0020 		orr	r0, r1, r0, lsl #8
 1025              	.LVL92:
 676:Generated_Source\PSoC6/SmartIO.c ****                          | (uint32_t)((opCode << SMARTIO_PRT_DU_CTL_DU_OPC_Pos));       
 1026              		.loc 1 676 0
 1027 001a C3F8C400 		str	r0, [r3, #196]
 1028              	.LBB100:
 1029              	.LBB101:
 608:Generated_Source\PSoC6/SmartIO.h **** }
 1030              		.loc 2 608 0
 1031 001e 1A68     		ldr	r2, [r3]
 1032 0020 42F00042 		orr	r2, r2, #-2147483648
 1033 0024 1A60     		str	r2, [r3]
 1034              	.LBE101:
 1035              	.LBE100:
 666:Generated_Source\PSoC6/SmartIO.c ****     
 1036              		.loc 1 666 0
 1037 0026 0020     		movs	r0, #0
 1038 0028 7047     		bx	lr
 1039              	.LVL93:
 1040              	.L76:
 670:Generated_Source\PSoC6/SmartIO.c ****     }
 1041              		.loc 1 670 0
 1042 002a 0120     		movs	r0, #1
 1043              	.LVL94:
 1044 002c 7047     		bx	lr
 1045              	.LVL95:
 1046              	.L77:
 1047 002e 0120     		movs	r0, #1
 1048              	.LVL96:
 678:Generated_Source\PSoC6/SmartIO.c ****         /* Re-enable the block */
 679:Generated_Source\PSoC6/SmartIO.c ****         SmartIO_Enable();
 680:Generated_Source\PSoC6/SmartIO.c ****     }
 681:Generated_Source\PSoC6/SmartIO.c ****     
 682:Generated_Source\PSoC6/SmartIO.c ****     return callStatus;
 683:Generated_Source\PSoC6/SmartIO.c **** }
ARM GAS  C:\Users\ikomb\AppData\Local\Temp\ccmVwQIe.s 			page 43


 1049              		.loc 1 683 0
 1050 0030 7047     		bx	lr
 1051              	.L79:
 1052 0032 00BF     		.align	2
 1053              	.L78:
 1054 0034 00093340 		.word	1077086464
 1055              		.cfi_endproc
 1056              	.LFE141:
 1057              		.size	SmartIO_DU_OpCode, .-SmartIO_DU_OpCode
 1058              		.global	SmartIO_initVar
 1059              		.bss
 1060              		.align	2
 1061              		.set	.LANCHOR0,. + 0
 1062              		.type	SmartIO_clkConfig, %object
 1063              		.size	SmartIO_clkConfig, 4
 1064              	SmartIO_clkConfig:
 1065 0000 00000000 		.space	4
 1066              		.type	SmartIO_initVar, %object
 1067              		.size	SmartIO_initVar, 1
 1068              	SmartIO_initVar:
 1069 0004 00       		.space	1
 1070              		.text
 1071              	.Letext0:
 1072              		.file 3 "c:\\program files (x86)\\cypress\\psoc creator\\4.4\\psoc creator\\import\\gnu\\arm\\5.4.
 1073              		.file 4 "c:\\program files (x86)\\cypress\\psoc creator\\4.4\\psoc creator\\import\\gnu\\arm\\5.4.
 1074              		.file 5 "Generated_Source\\PSoC6\\pdl\\devices/psoc6/ip/cyip_smartio.h"
 1075              		.file 6 "Generated_Source\\PSoC6\\pdl\\drivers/peripheral/syslib/cy_syslib.h"
 1076              		.file 7 "Generated_Source\\PSoC6\\pdl\\cmsis/include/core_cm4.h"