ARM GAS  C:\Users\ikomb\AppData\Local\Temp\cce6w8IH.s 			page 1


   1              		.syntax unified
   2              		.cpu cortex-m0plus
   3              		.fpu softvfp
   4              		.eabi_attribute 20, 1
   5              		.eabi_attribute 21, 1
   6              		.eabi_attribute 23, 3
   7              		.eabi_attribute 24, 1
   8              		.eabi_attribute 25, 1
   9              		.eabi_attribute 26, 1
  10              		.eabi_attribute 30, 1
  11              		.eabi_attribute 34, 0
  12              		.eabi_attribute 18, 4
  13              		.thumb
  14              		.syntax unified
  15              		.file	"SmartIO.c"
  16              		.text
  17              	.Ltext0:
  18              		.cfi_sections	.debug_frame
  19              		.section	.text.SmartIO_Init,"ax",%progbits
  20              		.align	2
  21              		.global	SmartIO_Init
  22              		.code	16
  23              		.thumb_func
  24              		.type	SmartIO_Init, %function
  25              	SmartIO_Init:
  26              	.LFB39:
  27              		.file 1 "Generated_Source\\PSoC6\\SmartIO.c"
   1:Generated_Source\PSoC6/SmartIO.c **** /*******************************************************************************
   2:Generated_Source\PSoC6/SmartIO.c **** * \file SmartIO.c
   3:Generated_Source\PSoC6/SmartIO.c **** * \version 1.0
   4:Generated_Source\PSoC6/SmartIO.c **** *
   5:Generated_Source\PSoC6/SmartIO.c **** * \brief
   6:Generated_Source\PSoC6/SmartIO.c **** *  This file provides the  API for the SmartIO Component.
   7:Generated_Source\PSoC6/SmartIO.c **** *
   8:Generated_Source\PSoC6/SmartIO.c **** *******************************************************************************
   9:Generated_Source\PSoC6/SmartIO.c **** * Copyright 2016, Cypress Semiconductor Corporation. All rights reserved.
  10:Generated_Source\PSoC6/SmartIO.c **** * You may use this file only in accordance with the license, terms, conditions,
  11:Generated_Source\PSoC6/SmartIO.c **** * disclaimers, and limitations in the end user license agreement accompanying
  12:Generated_Source\PSoC6/SmartIO.c **** * the software package with which this file was provided.
  13:Generated_Source\PSoC6/SmartIO.c **** *******************************************************************************/
  14:Generated_Source\PSoC6/SmartIO.c **** 
  15:Generated_Source\PSoC6/SmartIO.c **** #include "SmartIO.h"
  16:Generated_Source\PSoC6/SmartIO.c **** 
  17:Generated_Source\PSoC6/SmartIO.c **** /* Initialization global variable */
  18:Generated_Source\PSoC6/SmartIO.c **** uint8_t SmartIO_initVar = 0u;
  19:Generated_Source\PSoC6/SmartIO.c **** 
  20:Generated_Source\PSoC6/SmartIO.c **** /* Clock configuration */
  21:Generated_Source\PSoC6/SmartIO.c **** static uint32_t SmartIO_clkConfig = 0u;
  22:Generated_Source\PSoC6/SmartIO.c **** 
  23:Generated_Source\PSoC6/SmartIO.c **** 
  24:Generated_Source\PSoC6/SmartIO.c **** /*******************************************************************************
  25:Generated_Source\PSoC6/SmartIO.c **** * Function Name: SmartIO_Init
  26:Generated_Source\PSoC6/SmartIO.c **** ****************************************************************************//**
  27:Generated_Source\PSoC6/SmartIO.c **** *
  28:Generated_Source\PSoC6/SmartIO.c **** * \brief Initializes the component as specified in the Configuration Dialog.
  29:Generated_Source\PSoC6/SmartIO.c **** *
  30:Generated_Source\PSoC6/SmartIO.c **** * This function can also be used to reinitialize the component to the settings 
ARM GAS  C:\Users\ikomb\AppData\Local\Temp\cce6w8IH.s 			page 2


  31:Generated_Source\PSoC6/SmartIO.c **** * as specified in the Configuration dialog.
  32:Generated_Source\PSoC6/SmartIO.c **** *
  33:Generated_Source\PSoC6/SmartIO.c **** * \funcusage
  34:Generated_Source\PSoC6/SmartIO.c **** *  \snippet SmartIO_SUT.c usage_SmartIO_Init
  35:Generated_Source\PSoC6/SmartIO.c **** *******************************************************************************/
  36:Generated_Source\PSoC6/SmartIO.c **** void SmartIO_Init(void)
  37:Generated_Source\PSoC6/SmartIO.c **** {
  28              		.loc 1 37 0
  29              		.cfi_startproc
  30              		@ args = 0, pretend = 0, frame = 0
  31              		@ frame_needed = 0, uses_anonymous_args = 0
  32              		@ link register save eliminated.
  33              	.LBB52:
  34              	.LBB53:
  35              		.file 2 "Generated_Source\\PSoC6\\SmartIO.h"
   1:Generated_Source\PSoC6/SmartIO.h **** /*******************************************************************************
   2:Generated_Source\PSoC6/SmartIO.h **** * \file SmartIO.h
   3:Generated_Source\PSoC6/SmartIO.h **** * \version 1.0
   4:Generated_Source\PSoC6/SmartIO.h **** *
   5:Generated_Source\PSoC6/SmartIO.h **** * \brief
   6:Generated_Source\PSoC6/SmartIO.h **** *  This file provides constants and parameter values for the SmartIO Component.
   7:Generated_Source\PSoC6/SmartIO.h **** *
   8:Generated_Source\PSoC6/SmartIO.h **** ********************************************************************************
   9:Generated_Source\PSoC6/SmartIO.h **** * Copyright 2016, Cypress Semiconductor Corporation. All rights reserved.
  10:Generated_Source\PSoC6/SmartIO.h **** * You may use this file only in accordance with the license, terms, conditions,
  11:Generated_Source\PSoC6/SmartIO.h **** * disclaimers, and limitations in the end user license agreement accompanying
  12:Generated_Source\PSoC6/SmartIO.h **** * the software package with which this file was provided.
  13:Generated_Source\PSoC6/SmartIO.h **** *******************************************************************************/
  14:Generated_Source\PSoC6/SmartIO.h **** 
  15:Generated_Source\PSoC6/SmartIO.h **** #if !defined(CY_SMARTIO_SmartIO_H)
  16:Generated_Source\PSoC6/SmartIO.h **** #define CY_SMARTIO_SmartIO_H
  17:Generated_Source\PSoC6/SmartIO.h **** 
  18:Generated_Source\PSoC6/SmartIO.h **** #include "syslib/cy_syslib.h"
  19:Generated_Source\PSoC6/SmartIO.h **** #include "cyfitter.h"
  20:Generated_Source\PSoC6/SmartIO.h **** 
  21:Generated_Source\PSoC6/SmartIO.h **** /***************************************
  22:Generated_Source\PSoC6/SmartIO.h **** *       Constants
  23:Generated_Source\PSoC6/SmartIO.h **** ***************************************/
  24:Generated_Source\PSoC6/SmartIO.h **** 
  25:Generated_Source\PSoC6/SmartIO.h **** /* Port location*/
  26:Generated_Source\PSoC6/SmartIO.h **** #define SmartIO_PORT           SmartIO_cy_mxs40_smartio__HW
  27:Generated_Source\PSoC6/SmartIO.h **** 
  28:Generated_Source\PSoC6/SmartIO.h **** /* General constants */
  29:Generated_Source\PSoC6/SmartIO.h **** #define SmartIO_DUTRIG_MAX     (10UL)
  30:Generated_Source\PSoC6/SmartIO.h **** #define SmartIO_REGVAL_MAX     (0xffUL)
  31:Generated_Source\PSoC6/SmartIO.h **** #define SmartIO_OPC_MAX        (11UL)
  32:Generated_Source\PSoC6/SmartIO.h **** #define SmartIO_DUSIZE_MAX     (8UL)
  33:Generated_Source\PSoC6/SmartIO.h ****  
  34:Generated_Source\PSoC6/SmartIO.h **** 
  35:Generated_Source\PSoC6/SmartIO.h **** /***************************************
  36:Generated_Source\PSoC6/SmartIO.h **** *       Global Variables
  37:Generated_Source\PSoC6/SmartIO.h **** ***************************************/
  38:Generated_Source\PSoC6/SmartIO.h **** /**
  39:Generated_Source\PSoC6/SmartIO.h **** * \addtogroup group_globals
  40:Generated_Source\PSoC6/SmartIO.h **** * @{
  41:Generated_Source\PSoC6/SmartIO.h **** */
  42:Generated_Source\PSoC6/SmartIO.h **** extern uint8_t SmartIO_initVar; /**< Initialization state variable */
ARM GAS  C:\Users\ikomb\AppData\Local\Temp\cce6w8IH.s 			page 3


  43:Generated_Source\PSoC6/SmartIO.h **** /** @} globals */
  44:Generated_Source\PSoC6/SmartIO.h **** 
  45:Generated_Source\PSoC6/SmartIO.h **** 
  46:Generated_Source\PSoC6/SmartIO.h **** /***************************************
  47:Generated_Source\PSoC6/SmartIO.h **** *        Function Prototypes
  48:Generated_Source\PSoC6/SmartIO.h **** ***************************************/
  49:Generated_Source\PSoC6/SmartIO.h **** /**
  50:Generated_Source\PSoC6/SmartIO.h **** * \addtogroup group_functions
  51:Generated_Source\PSoC6/SmartIO.h **** * @{
  52:Generated_Source\PSoC6/SmartIO.h **** */
  53:Generated_Source\PSoC6/SmartIO.h **** void SmartIO_Init(void);
  54:Generated_Source\PSoC6/SmartIO.h **** void SmartIO_Start(void);
  55:Generated_Source\PSoC6/SmartIO.h **** void SmartIO_Stop(void);
  56:Generated_Source\PSoC6/SmartIO.h **** __STATIC_INLINE void SmartIO_Enable(void);
  57:Generated_Source\PSoC6/SmartIO.h **** __STATIC_INLINE void SmartIO_Disable(void);
  58:Generated_Source\PSoC6/SmartIO.h **** __STATIC_INLINE uint8_t SmartIO_GetBypass(void);
  59:Generated_Source\PSoC6/SmartIO.h **** void SmartIO_SetBypass(uint32_t portChannel);
  60:Generated_Source\PSoC6/SmartIO.h **** void SmartIO_ClockSelect(uint32_t clockSrc);
  61:Generated_Source\PSoC6/SmartIO.h **** void SmartIO_HoldOverride(uint32_t ovCtrl);
  62:Generated_Source\PSoC6/SmartIO.h **** void SmartIO_IoSyncMode(uint32_t portTerm);
  63:Generated_Source\PSoC6/SmartIO.h **** void SmartIO_ChipSyncMode(uint32_t portTerm);
  64:Generated_Source\PSoC6/SmartIO.h **** cy_status SmartIO_LUT_SelectInputs(uint32_t lutNum, uint32_t inputNum, uint32_t inputSrc);
  65:Generated_Source\PSoC6/SmartIO.h **** void SmartIO_LUT_ConfigureMode(uint32_t lutNum, uint32_t mapping, uint32_t mode);
  66:Generated_Source\PSoC6/SmartIO.h **** cy_status SmartIO_DU_SelectTriggers(uint32_t tr0Sel, uint32_t tr1Sel, uint32_t tr2Sel);
  67:Generated_Source\PSoC6/SmartIO.h **** cy_status SmartIO_DU_SelectData(uint32_t dataNum, uint32_t dataSel);
  68:Generated_Source\PSoC6/SmartIO.h **** cy_status SmartIO_DU_RegValue(uint32_t dataValue);
  69:Generated_Source\PSoC6/SmartIO.h **** cy_status SmartIO_DU_OpCode(uint32_t opCode, uint32_t dataSize);
  70:Generated_Source\PSoC6/SmartIO.h **** /** @} functions */
  71:Generated_Source\PSoC6/SmartIO.h **** 
  72:Generated_Source\PSoC6/SmartIO.h **** 
  73:Generated_Source\PSoC6/SmartIO.h **** /***************************************
  74:Generated_Source\PSoC6/SmartIO.h **** *        API Constants
  75:Generated_Source\PSoC6/SmartIO.h **** ***************************************/
  76:Generated_Source\PSoC6/SmartIO.h **** /**
  77:Generated_Source\PSoC6/SmartIO.h **** * \addtogroup group_constants
  78:Generated_Source\PSoC6/SmartIO.h **** * @{
  79:Generated_Source\PSoC6/SmartIO.h **** */
  80:Generated_Source\PSoC6/SmartIO.h **** /** \addtogroup channelConst Port channel selection constants
  81:Generated_Source\PSoC6/SmartIO.h ****  * \brief Constants to be passed as "portChannel" parameter in SmartIO_SetBypass() function.
  82:Generated_Source\PSoC6/SmartIO.h ****  *  @{
  83:Generated_Source\PSoC6/SmartIO.h ****  */
  84:Generated_Source\PSoC6/SmartIO.h **** #define SmartIO_CHANNEL_NONE    0x00UL /**< \brief Do not bypass any channels  */
  85:Generated_Source\PSoC6/SmartIO.h **** #define SmartIO_CHANNEL0        0x01UL /**< \brief Channel 0 (data0 <-> gpio0) */
  86:Generated_Source\PSoC6/SmartIO.h **** #define SmartIO_CHANNEL1        0x02UL /**< \brief Channel 1 (data1 <-> gpio1) */
  87:Generated_Source\PSoC6/SmartIO.h **** #define SmartIO_CHANNEL2        0x04UL /**< \brief Channel 2 (data2 <-> gpio2) */
  88:Generated_Source\PSoC6/SmartIO.h **** #define SmartIO_CHANNEL3        0x08UL /**< \brief Channel 3 (data3 <-> gpio3) */
  89:Generated_Source\PSoC6/SmartIO.h **** #define SmartIO_CHANNEL4        0x10UL /**< \brief Channel 4 (data4 <-> gpio4) */
  90:Generated_Source\PSoC6/SmartIO.h **** #define SmartIO_CHANNEL5        0x20UL /**< \brief Channel 5 (data5 <-> gpio5) */
  91:Generated_Source\PSoC6/SmartIO.h **** #define SmartIO_CHANNEL6        0x40UL /**< \brief Channel 6 (data6 <-> gpio6) */
  92:Generated_Source\PSoC6/SmartIO.h **** #define SmartIO_CHANNEL7        0x80UL /**< \brief Channel 7 (data7 <-> gpio7) */
  93:Generated_Source\PSoC6/SmartIO.h **** #define SmartIO_CHANNEL_ALL     0xffUL /**< \brief Bypass all channels         */
  94:Generated_Source\PSoC6/SmartIO.h **** /** @} channelConst */
  95:Generated_Source\PSoC6/SmartIO.h **** 
  96:Generated_Source\PSoC6/SmartIO.h **** /** \addtogroup clockConst Component clock selection constants
  97:Generated_Source\PSoC6/SmartIO.h ****  * \brief Constants to be passed as "clockSrc" parameter in SmartIO_ClockSelect() function.
  98:Generated_Source\PSoC6/SmartIO.h ****  *  @{
  99:Generated_Source\PSoC6/SmartIO.h ****  */
ARM GAS  C:\Users\ikomb\AppData\Local\Temp\cce6w8IH.s 			page 4


 100:Generated_Source\PSoC6/SmartIO.h **** #define SmartIO_CLK_GPIO0       0UL  /**< \brief Clock sourced from signal on gpio0 */
 101:Generated_Source\PSoC6/SmartIO.h **** #define SmartIO_CLK_GPIO1       1UL  /**< \brief Clock sourced from signal on gpio1 */
 102:Generated_Source\PSoC6/SmartIO.h **** #define SmartIO_CLK_GPIO2       2UL  /**< \brief Clock sourced from signal on gpio2 */
 103:Generated_Source\PSoC6/SmartIO.h **** #define SmartIO_CLK_GPIO3       3UL  /**< \brief Clock sourced from signal on gpio3 */
 104:Generated_Source\PSoC6/SmartIO.h **** #define SmartIO_CLK_GPIO4       4UL  /**< \brief Clock sourced from signal on gpio4 */
 105:Generated_Source\PSoC6/SmartIO.h **** #define SmartIO_CLK_GPIO5       5UL  /**< \brief Clock sourced from signal on gpio5 */
 106:Generated_Source\PSoC6/SmartIO.h **** #define SmartIO_CLK_GPIO6       6UL  /**< \brief Clock sourced from signal on gpio6 */
 107:Generated_Source\PSoC6/SmartIO.h **** #define SmartIO_CLK_GPIO7       7UL  /**< \brief Clock sourced from signal on gpio7 */
 108:Generated_Source\PSoC6/SmartIO.h **** #define SmartIO_CLK_DATA0       8UL  /**< \brief Clock sourced from signal on data0 */
 109:Generated_Source\PSoC6/SmartIO.h **** #define SmartIO_CLK_DATA1       9UL  /**< \brief Clock sourced from signal on data1 */
 110:Generated_Source\PSoC6/SmartIO.h **** #define SmartIO_CLK_DATA2       10UL /**< \brief Clock sourced from signal on data2 */
 111:Generated_Source\PSoC6/SmartIO.h **** #define SmartIO_CLK_DATA3       11UL /**< \brief Clock sourced from signal on data3 */
 112:Generated_Source\PSoC6/SmartIO.h **** #define SmartIO_CLK_DATA4       12UL /**< \brief Clock sourced from signal on data4 */
 113:Generated_Source\PSoC6/SmartIO.h **** #define SmartIO_CLK_DATA5       13UL /**< \brief Clock sourced from signal on data5 */
 114:Generated_Source\PSoC6/SmartIO.h **** #define SmartIO_CLK_DATA6       14UL /**< \brief Clock sourced from signal on data6 */
 115:Generated_Source\PSoC6/SmartIO.h **** #define SmartIO_CLK_DATA7       15UL /**< \brief Clock sourced from signal on data7 */
 116:Generated_Source\PSoC6/SmartIO.h **** #define SmartIO_DIV_CLK_ACT     16UL /**< \brief Clock sourced from a divided clock (Active) */
 117:Generated_Source\PSoC6/SmartIO.h **** #define SmartIO_DIV_CLK_DS      17UL /**< \brief Clock sourced from a divided clock (Deep-Sleep) */
 118:Generated_Source\PSoC6/SmartIO.h **** #define SmartIO_DIV_CLK_HIB     18UL /**< \brief Clock sourced from a divided clock (Hibernate) */
 119:Generated_Source\PSoC6/SmartIO.h **** #define SmartIO_LFCLK           19UL /**< \brief Clock sourced from LFCLK */
 120:Generated_Source\PSoC6/SmartIO.h **** #define SmartIO_CLK_GATED       20UL /**< \brief Disables the clock connection. Used when turning o
 121:Generated_Source\PSoC6/SmartIO.h **** #define SmartIO_ASYNC           31UL /**< \brief Asynchronous operation */
 122:Generated_Source\PSoC6/SmartIO.h **** /** @} clockConst */
 123:Generated_Source\PSoC6/SmartIO.h **** 
 124:Generated_Source\PSoC6/SmartIO.h **** /** \addtogroup hldOvrConst Component hold override selection constants
 125:Generated_Source\PSoC6/SmartIO.h ****  * \brief Constants to be passed as "ovCtrl" parameter in SmartIO_HoldOverride() function.
 126:Generated_Source\PSoC6/SmartIO.h ****  *  @{
 127:Generated_Source\PSoC6/SmartIO.h ****  */
 128:Generated_Source\PSoC6/SmartIO.h **** #define SmartIO_OVCTRL_DISABLE  0UL /**< \brief Controlled by HSIOM  */
 129:Generated_Source\PSoC6/SmartIO.h **** #define SmartIO_OVCTRL_ENABLE   1UL /**< \brief Controlled by SmartIO */
 130:Generated_Source\PSoC6/SmartIO.h **** /** @} hldOvrConst */
 131:Generated_Source\PSoC6/SmartIO.h **** 
 132:Generated_Source\PSoC6/SmartIO.h **** /** \addtogroup termConst Terminal selection constants
 133:Generated_Source\PSoC6/SmartIO.h ****  * \brief Constants to be passed as "portTerm" parameter in SmartIO_IoSyncMode() and 
 134:Generated_Source\PSoC6/SmartIO.h ****  *  SmartIO_ChipSyncMode() functions.
 135:Generated_Source\PSoC6/SmartIO.h ****  *  @{
 136:Generated_Source\PSoC6/SmartIO.h ****  */
 137:Generated_Source\PSoC6/SmartIO.h **** #define SmartIO_TERM_NONE       0x00UL /**< \brief No synchronization for all data/gpio     */
 138:Generated_Source\PSoC6/SmartIO.h **** #define SmartIO_TERM0           0x01UL /**< \brief Enable synchronization for data0/gpio0   */
 139:Generated_Source\PSoC6/SmartIO.h **** #define SmartIO_TERM1           0x02UL /**< \brief Enable synchronization for data1/gpio1   */
 140:Generated_Source\PSoC6/SmartIO.h **** #define SmartIO_TERM2           0x04UL /**< \brief Enable synchronization for data2/gpio2   */
 141:Generated_Source\PSoC6/SmartIO.h **** #define SmartIO_TERM3           0x08UL /**< \brief Enable synchronization for data3/gpio3   */
 142:Generated_Source\PSoC6/SmartIO.h **** #define SmartIO_TERM4           0x10UL /**< \brief Enable synchronization for data4/gpio4   */
 143:Generated_Source\PSoC6/SmartIO.h **** #define SmartIO_TERM5           0x20UL /**< \brief Enable synchronization for data5/gpio5   */
 144:Generated_Source\PSoC6/SmartIO.h **** #define SmartIO_TERM6           0x40UL /**< \brief Enable synchronization for data6/gpio6   */
 145:Generated_Source\PSoC6/SmartIO.h **** #define SmartIO_TERM7           0x80UL /**< \brief Enable synchronization for data7/gpio7   */
 146:Generated_Source\PSoC6/SmartIO.h **** #define SmartIO_TERM_ALL        0xffUL /**< \brief Enable sycnhronization for all data/gpio */
 147:Generated_Source\PSoC6/SmartIO.h **** /** @} termConst */
 148:Generated_Source\PSoC6/SmartIO.h **** 
 149:Generated_Source\PSoC6/SmartIO.h **** /** \addtogroup lutNumConst Look-up table number constants
 150:Generated_Source\PSoC6/SmartIO.h ****  * \brief Constants to be passed as "lutNum" parameter in SmartIO_LUT_SelectInputs() and SmartIO_LU
 151:Generated_Source\PSoC6/SmartIO.h ****  *  @{
 152:Generated_Source\PSoC6/SmartIO.h ****  */
 153:Generated_Source\PSoC6/SmartIO.h **** #define SmartIO_LUT0            0UL /**< \brief LUT number 0  */
 154:Generated_Source\PSoC6/SmartIO.h **** #define SmartIO_LUT1            1UL /**< \brief LUT number 1  */
 155:Generated_Source\PSoC6/SmartIO.h **** #define SmartIO_LUT2            2UL /**< \brief LUT number 2  */
 156:Generated_Source\PSoC6/SmartIO.h **** #define SmartIO_LUT3            3UL /**< \brief LUT number 3  */
ARM GAS  C:\Users\ikomb\AppData\Local\Temp\cce6w8IH.s 			page 5


 157:Generated_Source\PSoC6/SmartIO.h **** #define SmartIO_LUT4            4UL /**< \brief LUT number 4  */
 158:Generated_Source\PSoC6/SmartIO.h **** #define SmartIO_LUT5            5UL /**< \brief LUT number 5  */
 159:Generated_Source\PSoC6/SmartIO.h **** #define SmartIO_LUT6            6UL /**< \brief LUT number 6  */
 160:Generated_Source\PSoC6/SmartIO.h **** #define SmartIO_LUT7            7UL /**< \brief LUT number 7  */
 161:Generated_Source\PSoC6/SmartIO.h **** /** @} lutNumConst */
 162:Generated_Source\PSoC6/SmartIO.h **** 
 163:Generated_Source\PSoC6/SmartIO.h **** /** \addtogroup inputNumConst LUT input number constants
 164:Generated_Source\PSoC6/SmartIO.h ****  * \brief Constants to be passed as "inputNum" parameter in SmartIO_LUT_SelectInputs() function.
 165:Generated_Source\PSoC6/SmartIO.h ****  *  @{
 166:Generated_Source\PSoC6/SmartIO.h ****  */
 167:Generated_Source\PSoC6/SmartIO.h **** #define SmartIO_LUT_INPUT0      0x01UL /**< \brief LUT input terminal 0    */
 168:Generated_Source\PSoC6/SmartIO.h **** #define SmartIO_LUT_INPUT1      0x02UL /**< \brief LUT input terminal 1    */
 169:Generated_Source\PSoC6/SmartIO.h **** #define SmartIO_LUT_INPUT2      0x04UL /**< \brief LUT input terminal 2    */
 170:Generated_Source\PSoC6/SmartIO.h **** #define SmartIO_LUT_INPUT_ALL   0x07UL /**< \brief All LUT input terminals */
 171:Generated_Source\PSoC6/SmartIO.h **** /** @} inputNumConst */
 172:Generated_Source\PSoC6/SmartIO.h **** 
 173:Generated_Source\PSoC6/SmartIO.h **** /** \addtogroup inputSrcConst LUT input source constants
 174:Generated_Source\PSoC6/SmartIO.h ****  * \brief Constants to be passed as "inputSrc" parameter in SmartIO_LUT_SelectInputs() function.
 175:Generated_Source\PSoC6/SmartIO.h ****  *  @{
 176:Generated_Source\PSoC6/SmartIO.h ****  */
 177:Generated_Source\PSoC6/SmartIO.h **** #define SmartIO_SRC_LUT0        0UL  /**< \brief Source is LUT0 output    */
 178:Generated_Source\PSoC6/SmartIO.h **** #define SmartIO_SRC_LUT1        1UL  /**< \brief Source is LUT1 output    */
 179:Generated_Source\PSoC6/SmartIO.h **** #define SmartIO_SRC_LUT2        2UL  /**< \brief Source is LUT2 output    */
 180:Generated_Source\PSoC6/SmartIO.h **** #define SmartIO_SRC_LUT3        3UL  /**< \brief Source is LUT3 output    */
 181:Generated_Source\PSoC6/SmartIO.h **** #define SmartIO_SRC_LUT4        4UL  /**< \brief Source is LUT4 output    */
 182:Generated_Source\PSoC6/SmartIO.h **** #define SmartIO_SRC_LUT5        5UL  /**< \brief Source is LUT5 output    */
 183:Generated_Source\PSoC6/SmartIO.h **** #define SmartIO_SRC_LUT6        6UL  /**< \brief Source is LUT6 output    */
 184:Generated_Source\PSoC6/SmartIO.h **** #define SmartIO_SRC_LUT7        7UL  /**< \brief Source is LUT7 output    */
 185:Generated_Source\PSoC6/SmartIO.h **** #define SmartIO_SRC_DATA_04     8UL  /**< \brief Source is data0/data4    */
 186:Generated_Source\PSoC6/SmartIO.h **** #define SmartIO_SRC_DATA_15     9UL  /**< \brief Source is data1/data5    */
 187:Generated_Source\PSoC6/SmartIO.h **** #define SmartIO_SRC_DATA_26     10UL /**< \brief Source is data2/data6    */
 188:Generated_Source\PSoC6/SmartIO.h **** #define SmartIO_SRC_DATA_37     11UL /**< \brief Source is data3/data7    */
 189:Generated_Source\PSoC6/SmartIO.h **** #define SmartIO_SRC_GPIO_04     12UL /**< \brief Source is gpio0/gpio4    */
 190:Generated_Source\PSoC6/SmartIO.h **** #define SmartIO_SRC_GPIO_15     13UL /**< \brief Source is gpio1/gpio5    */
 191:Generated_Source\PSoC6/SmartIO.h **** #define SmartIO_SRC_GPIO_26     14UL /**< \brief Source is gpio2/gpio6    */
 192:Generated_Source\PSoC6/SmartIO.h **** #define SmartIO_SRC_GPIO_37     15UL /**< \brief Source is gpio3/gpio7    */
 193:Generated_Source\PSoC6/SmartIO.h **** #define SmartIO_SRC_DU          16UL /**< \brief Source is Data Unit output */
 194:Generated_Source\PSoC6/SmartIO.h **** /** @} inputSrcConst */
 195:Generated_Source\PSoC6/SmartIO.h **** 
 196:Generated_Source\PSoC6/SmartIO.h **** /** \addtogroup modeConst LUT mode constants
 197:Generated_Source\PSoC6/SmartIO.h ****  * \brief Constants to be passed as "mode" parameter in SmartIO_LUT_ConfigureMode() function.
 198:Generated_Source\PSoC6/SmartIO.h ****  *  @{
 199:Generated_Source\PSoC6/SmartIO.h ****  */
 200:Generated_Source\PSoC6/SmartIO.h **** #define SmartIO_MODE_COMB       0UL /**< \brief Combinatorial mode      */
 201:Generated_Source\PSoC6/SmartIO.h **** #define SmartIO_MODE_REGIN      1UL /**< \brief Registered input mode   */
 202:Generated_Source\PSoC6/SmartIO.h **** #define SmartIO_MODE_REGOUT     2UL /**< \brief Registered output mode  */
 203:Generated_Source\PSoC6/SmartIO.h **** #define SmartIO_MODE_SRFF       3UL /**< \brief S/R Flip-Flop mode      */
 204:Generated_Source\PSoC6/SmartIO.h **** /** @} modeConst */
 205:Generated_Source\PSoC6/SmartIO.h **** 
 206:Generated_Source\PSoC6/SmartIO.h **** /** \addtogroup duTrConst Data Unit trigger input constants
 207:Generated_Source\PSoC6/SmartIO.h ****  * \brief Constants to be passed as "tr0Sel", "tr1Sel", and "tr2Sel" parameters in SmartIO_DU_Selec
 208:Generated_Source\PSoC6/SmartIO.h ****  *  @{
 209:Generated_Source\PSoC6/SmartIO.h ****  */
 210:Generated_Source\PSoC6/SmartIO.h **** #define SmartIO_TR_CONST_ZERO   0UL /**< \brief Constant 0        */
 211:Generated_Source\PSoC6/SmartIO.h **** #define SmartIO_TR_CONST_ONE    1UL /**< \brief Constant 1        */
 212:Generated_Source\PSoC6/SmartIO.h **** #define SmartIO_TR_DU_OUT       2UL /**< \brief Data unit output  */
 213:Generated_Source\PSoC6/SmartIO.h **** #define SmartIO_TR_LUT0         3UL /**< \brief LUT 0 output      */
ARM GAS  C:\Users\ikomb\AppData\Local\Temp\cce6w8IH.s 			page 6


 214:Generated_Source\PSoC6/SmartIO.h **** #define SmartIO_TR_LUT1         4UL /**< \brief LUT 1 output      */
 215:Generated_Source\PSoC6/SmartIO.h **** #define SmartIO_TR_LUT2         5UL /**< \brief LUT 2 output      */
 216:Generated_Source\PSoC6/SmartIO.h **** #define SmartIO_TR_LUT3         6UL /**< \brief LUT 3 output      */
 217:Generated_Source\PSoC6/SmartIO.h **** #define SmartIO_TR_LUT4         7UL /**< \brief LUT 4 output      */
 218:Generated_Source\PSoC6/SmartIO.h **** #define SmartIO_TR_LUT5         8UL /**< \brief LUT 5 output      */
 219:Generated_Source\PSoC6/SmartIO.h **** #define SmartIO_TR_LUT6         9UL /**< \brief LUT 6 output      */
 220:Generated_Source\PSoC6/SmartIO.h **** #define SmartIO_TR_LUT7         10UL /**< \brief LUT 7 output     */
 221:Generated_Source\PSoC6/SmartIO.h **** /** @} duTrConst */
 222:Generated_Source\PSoC6/SmartIO.h **** 
 223:Generated_Source\PSoC6/SmartIO.h **** /** \addtogroup duDataConst Data Unit data register constants
 224:Generated_Source\PSoC6/SmartIO.h ****  * \brief Constants to be passed as "dataNum" parameter in SmartIO_DU_SelectData() function.
 225:Generated_Source\PSoC6/SmartIO.h ****  *  @{
 226:Generated_Source\PSoC6/SmartIO.h ****  */
 227:Generated_Source\PSoC6/SmartIO.h **** #define SmartIO_DATA0             1UL /**< \brief DU DATA0 register                  */
 228:Generated_Source\PSoC6/SmartIO.h **** #define SmartIO_DATA1             2UL /**< \brief DU DATA1 register                  */
 229:Generated_Source\PSoC6/SmartIO.h **** #define SmartIO_DATA_BOTH         3UL /**< \brief Both DU DATA0 and DATA1 registers  */
 230:Generated_Source\PSoC6/SmartIO.h **** /** @} duDataConst */
 231:Generated_Source\PSoC6/SmartIO.h **** 
 232:Generated_Source\PSoC6/SmartIO.h **** /** \addtogroup duDataSrcConst Data Unit data register source selection constants
 233:Generated_Source\PSoC6/SmartIO.h ****  * \brief Constants to be passed as "dataSel" parameter in SmartIO_DU_SelectData() function.
 234:Generated_Source\PSoC6/SmartIO.h ****  *  @{
 235:Generated_Source\PSoC6/SmartIO.h ****  */
 236:Generated_Source\PSoC6/SmartIO.h **** #define SmartIO_DATA_CONST_ZERO   0UL /**< \brief Constant 0          */
 237:Generated_Source\PSoC6/SmartIO.h **** #define SmartIO_DATA_TERM_DATA    1UL /**< \brief Terminal data[7:0]  */
 238:Generated_Source\PSoC6/SmartIO.h **** #define SmartIO_DATA_TERM_GPIO    2UL /**< \brief Terminal gpio[7:0]  */
 239:Generated_Source\PSoC6/SmartIO.h **** #define SmartIO_DATA_DU_REG       3UL /**< \brief Data Unit register  */
 240:Generated_Source\PSoC6/SmartIO.h **** /** @} duDataSrcConst */
 241:Generated_Source\PSoC6/SmartIO.h **** 
 242:Generated_Source\PSoC6/SmartIO.h **** /** \addtogroup duOpcConst Data Unit opcode constants
 243:Generated_Source\PSoC6/SmartIO.h ****  * \brief Constants to be passed as "opCode" parameter in SmartIO_DU_OpCode() function.
 244:Generated_Source\PSoC6/SmartIO.h ****  *  @{
 245:Generated_Source\PSoC6/SmartIO.h ****  */
 246:Generated_Source\PSoC6/SmartIO.h **** #define SmartIO_OPC_INCR           1UL /**< \brief Count Up                */
 247:Generated_Source\PSoC6/SmartIO.h **** #define SmartIO_OPC_DECR           2UL /**< \brief Count Down              */
 248:Generated_Source\PSoC6/SmartIO.h **** #define SmartIO_OPC_INCR_WRAP      3UL /**< \brief Count Up and wrap       */
 249:Generated_Source\PSoC6/SmartIO.h **** #define SmartIO_OPC_DECR_WRAP      4UL /**< \brief Count Down and wrap     */
 250:Generated_Source\PSoC6/SmartIO.h **** #define SmartIO_OPC_INCR_DECR      5UL /**< \brief Count Up/Down           */
 251:Generated_Source\PSoC6/SmartIO.h **** #define SmartIO_OPC_INCR_DECR_WRAP 6UL /**< \brief Count Up/Down and wrap  */
 252:Generated_Source\PSoC6/SmartIO.h **** #define SmartIO_OPC_ROR            7UL /**< \brief Rotate right            */
 253:Generated_Source\PSoC6/SmartIO.h **** #define SmartIO_OPC_SHR            8UL /**< \brief Shift right             */
 254:Generated_Source\PSoC6/SmartIO.h **** #define SmartIO_OPC_AND_OR         9UL /**< \brief DU Data0 AND DU Data1   */
 255:Generated_Source\PSoC6/SmartIO.h **** #define SmartIO_OPC_SHR_MAJ3       10UL /**< \brief Majority 3              */
 256:Generated_Source\PSoC6/SmartIO.h **** #define SmartIO_OPC_SHR_EQL        11UL /**< \brief Equal DU Data1         */
 257:Generated_Source\PSoC6/SmartIO.h **** /** @} duOpcConst */
 258:Generated_Source\PSoC6/SmartIO.h **** 
 259:Generated_Source\PSoC6/SmartIO.h **** /** @} group_constants */
 260:Generated_Source\PSoC6/SmartIO.h **** 
 261:Generated_Source\PSoC6/SmartIO.h **** 
 262:Generated_Source\PSoC6/SmartIO.h **** /***************************************
 263:Generated_Source\PSoC6/SmartIO.h **** *    Initial Parameter Constants
 264:Generated_Source\PSoC6/SmartIO.h **** ***************************************/
 265:Generated_Source\PSoC6/SmartIO.h ****     
 266:Generated_Source\PSoC6/SmartIO.h **** /* Global control */
 267:Generated_Source\PSoC6/SmartIO.h **** #define SmartIO_BYPASS0         1UL
 268:Generated_Source\PSoC6/SmartIO.h **** #define SmartIO_BYPASS1         1UL
 269:Generated_Source\PSoC6/SmartIO.h **** #define SmartIO_BYPASS2         1UL
 270:Generated_Source\PSoC6/SmartIO.h **** #define SmartIO_BYPASS3         1UL
ARM GAS  C:\Users\ikomb\AppData\Local\Temp\cce6w8IH.s 			page 7


 271:Generated_Source\PSoC6/SmartIO.h **** #define SmartIO_BYPASS4         0UL
 272:Generated_Source\PSoC6/SmartIO.h **** #define SmartIO_BYPASS5         1UL
 273:Generated_Source\PSoC6/SmartIO.h **** #define SmartIO_BYPASS6         0UL
 274:Generated_Source\PSoC6/SmartIO.h **** #define SmartIO_BYPASS7         1UL
 275:Generated_Source\PSoC6/SmartIO.h **** #define SmartIO_CLOCK_SELECT    16UL
 276:Generated_Source\PSoC6/SmartIO.h **** #define SmartIO_HLD_OVR         0UL
 277:Generated_Source\PSoC6/SmartIO.h **** 
 278:Generated_Source\PSoC6/SmartIO.h **** /* IO Synchronization control */
 279:Generated_Source\PSoC6/SmartIO.h **** #define SmartIO_IO_SYNC0        0UL
 280:Generated_Source\PSoC6/SmartIO.h **** #define SmartIO_IO_SYNC1        0UL
 281:Generated_Source\PSoC6/SmartIO.h **** #define SmartIO_IO_SYNC2        0UL
 282:Generated_Source\PSoC6/SmartIO.h **** #define SmartIO_IO_SYNC3        0UL
 283:Generated_Source\PSoC6/SmartIO.h **** #define SmartIO_IO_SYNC4        0UL
 284:Generated_Source\PSoC6/SmartIO.h **** #define SmartIO_IO_SYNC5        0UL
 285:Generated_Source\PSoC6/SmartIO.h **** #define SmartIO_IO_SYNC6        0UL
 286:Generated_Source\PSoC6/SmartIO.h **** #define SmartIO_IO_SYNC7        0UL
 287:Generated_Source\PSoC6/SmartIO.h **** 
 288:Generated_Source\PSoC6/SmartIO.h **** /* Chip Data Synchronization control */
 289:Generated_Source\PSoC6/SmartIO.h **** #define SmartIO_DATA_SYNC0      0UL
 290:Generated_Source\PSoC6/SmartIO.h **** #define SmartIO_DATA_SYNC1      0UL
 291:Generated_Source\PSoC6/SmartIO.h **** #define SmartIO_DATA_SYNC2      0UL
 292:Generated_Source\PSoC6/SmartIO.h **** #define SmartIO_DATA_SYNC3      0UL
 293:Generated_Source\PSoC6/SmartIO.h **** #define SmartIO_DATA_SYNC4      0UL
 294:Generated_Source\PSoC6/SmartIO.h **** #define SmartIO_DATA_SYNC5      0UL
 295:Generated_Source\PSoC6/SmartIO.h **** #define SmartIO_DATA_SYNC6      0UL
 296:Generated_Source\PSoC6/SmartIO.h **** #define SmartIO_DATA_SYNC7      0UL
 297:Generated_Source\PSoC6/SmartIO.h **** 
 298:Generated_Source\PSoC6/SmartIO.h **** /* LUT input selection */
 299:Generated_Source\PSoC6/SmartIO.h **** #define SmartIO_LUT0_TR0        17UL
 300:Generated_Source\PSoC6/SmartIO.h **** #define SmartIO_LUT0_TR1        17UL
 301:Generated_Source\PSoC6/SmartIO.h **** #define SmartIO_LUT0_TR2        17UL
 302:Generated_Source\PSoC6/SmartIO.h **** #define SmartIO_LUT1_TR0        17UL
 303:Generated_Source\PSoC6/SmartIO.h **** #define SmartIO_LUT1_TR1        17UL
 304:Generated_Source\PSoC6/SmartIO.h **** #define SmartIO_LUT1_TR2        17UL
 305:Generated_Source\PSoC6/SmartIO.h **** #define SmartIO_LUT2_TR0        2UL
 306:Generated_Source\PSoC6/SmartIO.h **** #define SmartIO_LUT2_TR1        2UL
 307:Generated_Source\PSoC6/SmartIO.h **** #define SmartIO_LUT2_TR2        2UL
 308:Generated_Source\PSoC6/SmartIO.h **** #define SmartIO_LUT3_TR0        2UL
 309:Generated_Source\PSoC6/SmartIO.h **** #define SmartIO_LUT3_TR1        3UL
 310:Generated_Source\PSoC6/SmartIO.h **** #define SmartIO_LUT3_TR2        3UL
 311:Generated_Source\PSoC6/SmartIO.h **** #define SmartIO_LUT4_TR0        8UL
 312:Generated_Source\PSoC6/SmartIO.h **** #define SmartIO_LUT4_TR1        3UL
 313:Generated_Source\PSoC6/SmartIO.h **** #define SmartIO_LUT4_TR2        3UL
 314:Generated_Source\PSoC6/SmartIO.h **** #define SmartIO_LUT5_TR0        17UL
 315:Generated_Source\PSoC6/SmartIO.h **** #define SmartIO_LUT5_TR1        17UL
 316:Generated_Source\PSoC6/SmartIO.h **** #define SmartIO_LUT5_TR2        17UL
 317:Generated_Source\PSoC6/SmartIO.h **** #define SmartIO_LUT6_TR0        4UL
 318:Generated_Source\PSoC6/SmartIO.h **** #define SmartIO_LUT6_TR1        4UL
 319:Generated_Source\PSoC6/SmartIO.h **** #define SmartIO_LUT6_TR2        4UL
 320:Generated_Source\PSoC6/SmartIO.h **** #define SmartIO_LUT7_TR0        17UL
 321:Generated_Source\PSoC6/SmartIO.h **** #define SmartIO_LUT7_TR1        17UL
 322:Generated_Source\PSoC6/SmartIO.h **** #define SmartIO_LUT7_TR2        17UL
 323:Generated_Source\PSoC6/SmartIO.h **** 
 324:Generated_Source\PSoC6/SmartIO.h **** /* LUT truth table */
 325:Generated_Source\PSoC6/SmartIO.h **** #define SmartIO_LUT0_MAP        0UL
 326:Generated_Source\PSoC6/SmartIO.h **** #define SmartIO_LUT1_MAP        0UL
 327:Generated_Source\PSoC6/SmartIO.h **** #define SmartIO_LUT2_MAP        1UL
ARM GAS  C:\Users\ikomb\AppData\Local\Temp\cce6w8IH.s 			page 8


 328:Generated_Source\PSoC6/SmartIO.h **** #define SmartIO_LUT3_MAP        129UL
 329:Generated_Source\PSoC6/SmartIO.h **** #define SmartIO_LUT4_MAP        66UL
 330:Generated_Source\PSoC6/SmartIO.h **** #define SmartIO_LUT5_MAP        0UL
 331:Generated_Source\PSoC6/SmartIO.h **** #define SmartIO_LUT6_MAP        1UL
 332:Generated_Source\PSoC6/SmartIO.h **** #define SmartIO_LUT7_MAP        0UL
 333:Generated_Source\PSoC6/SmartIO.h **** 
 334:Generated_Source\PSoC6/SmartIO.h **** /* LUT mode */
 335:Generated_Source\PSoC6/SmartIO.h **** #define SmartIO_LUT0_MODE       0UL
 336:Generated_Source\PSoC6/SmartIO.h **** #define SmartIO_LUT1_MODE       0UL
 337:Generated_Source\PSoC6/SmartIO.h **** #define SmartIO_LUT2_MODE       2UL
 338:Generated_Source\PSoC6/SmartIO.h **** #define SmartIO_LUT3_MODE       2UL
 339:Generated_Source\PSoC6/SmartIO.h **** #define SmartIO_LUT4_MODE       0UL
 340:Generated_Source\PSoC6/SmartIO.h **** #define SmartIO_LUT5_MODE       0UL
 341:Generated_Source\PSoC6/SmartIO.h **** #define SmartIO_LUT6_MODE       0UL
 342:Generated_Source\PSoC6/SmartIO.h **** #define SmartIO_LUT7_MODE       0UL
 343:Generated_Source\PSoC6/SmartIO.h **** 
 344:Generated_Source\PSoC6/SmartIO.h **** /* DU input selection */
 345:Generated_Source\PSoC6/SmartIO.h **** #define SmartIO_DU_TR0          0UL
 346:Generated_Source\PSoC6/SmartIO.h **** #define SmartIO_DU_TR1          0UL
 347:Generated_Source\PSoC6/SmartIO.h **** #define SmartIO_DU_TR2          0UL
 348:Generated_Source\PSoC6/SmartIO.h **** 
 349:Generated_Source\PSoC6/SmartIO.h **** /* DU configuration */
 350:Generated_Source\PSoC6/SmartIO.h **** #define SmartIO_DU_DATA0        0UL
 351:Generated_Source\PSoC6/SmartIO.h **** #define SmartIO_DU_DATA1        0UL
 352:Generated_Source\PSoC6/SmartIO.h **** #define SmartIO_DU_REG          0UL
 353:Generated_Source\PSoC6/SmartIO.h **** #define SmartIO_DU_SIZE         7UL
 354:Generated_Source\PSoC6/SmartIO.h **** #define SmartIO_DU_OPCODE       1UL
 355:Generated_Source\PSoC6/SmartIO.h **** 
 356:Generated_Source\PSoC6/SmartIO.h **** 
 357:Generated_Source\PSoC6/SmartIO.h **** /***************************************
 358:Generated_Source\PSoC6/SmartIO.h **** *        Register Constants
 359:Generated_Source\PSoC6/SmartIO.h **** ***************************************/
 360:Generated_Source\PSoC6/SmartIO.h **** 
 361:Generated_Source\PSoC6/SmartIO.h **** /* Channel number */
 362:Generated_Source\PSoC6/SmartIO.h **** #define SmartIO_CH0                       (0U)
 363:Generated_Source\PSoC6/SmartIO.h **** #define SmartIO_CH1                       (1U)
 364:Generated_Source\PSoC6/SmartIO.h **** #define SmartIO_CH2                       (2U)
 365:Generated_Source\PSoC6/SmartIO.h **** #define SmartIO_CH3                       (3U)
 366:Generated_Source\PSoC6/SmartIO.h **** #define SmartIO_CH4                       (4U)
 367:Generated_Source\PSoC6/SmartIO.h **** #define SmartIO_CH5                       (5U)
 368:Generated_Source\PSoC6/SmartIO.h **** #define SmartIO_CH6                       (6U)
 369:Generated_Source\PSoC6/SmartIO.h **** #define SmartIO_CH7                       (7U)
 370:Generated_Source\PSoC6/SmartIO.h **** 
 371:Generated_Source\PSoC6/SmartIO.h **** /* SmartIO Fabric Enable/Disable */
 372:Generated_Source\PSoC6/SmartIO.h **** #define SmartIO_FABRIC_ENABLE             ((uint32_t)((uint32_t)0x01U << SMARTIO_PRT_CTL_ENABLED_Po
 373:Generated_Source\PSoC6/SmartIO.h **** #define SmartIO_FABRIC_DISABLE            ((uint32_t)(~(uint32_t)((uint32_t)0x01U << SMARTIO_PRT_CT
 374:Generated_Source\PSoC6/SmartIO.h **** 
 375:Generated_Source\PSoC6/SmartIO.h **** /* Bypass Mask */
 376:Generated_Source\PSoC6/SmartIO.h **** #define SmartIO_BYPASS_CLEAR              ((uint32_t)(~(uint32_t)(SMARTIO_PRT_CTL_BYPASS_Msk)))
 377:Generated_Source\PSoC6/SmartIO.h **** 
 378:Generated_Source\PSoC6/SmartIO.h **** /* Clock Source Const 0, clear, mask */
 379:Generated_Source\PSoC6/SmartIO.h **** #define SmartIO_CLOCK_CONST_ZERO          ((uint32_t)((uint32_t)SmartIO_CLK_GATED << SMARTIO_PRT_CT
 380:Generated_Source\PSoC6/SmartIO.h **** #define SmartIO_CLOCK_CLEAR               ((uint32_t)(~(uint32_t)(SMARTIO_PRT_CTL_CLOCK_SRC_Msk)))
 381:Generated_Source\PSoC6/SmartIO.h **** 
 382:Generated_Source\PSoC6/SmartIO.h **** /* Hold override HSIOM/SmartIO */
 383:Generated_Source\PSoC6/SmartIO.h **** #define SmartIO_HLD_OVR_SMARTIO           ((uint32_t)((uint32_t)0x01U << SMARTIO_PRT_CTL_HLD_OVR_Po
 384:Generated_Source\PSoC6/SmartIO.h **** #define SmartIO_HLD_OVR_HSIOM             ((uint32_t)(~(uint32_t)((uint32_t)0x01U << SMARTIO_PRT_CT
ARM GAS  C:\Users\ikomb\AppData\Local\Temp\cce6w8IH.s 			page 9


 385:Generated_Source\PSoC6/SmartIO.h **** 
 386:Generated_Source\PSoC6/SmartIO.h **** /* Pipeline Enable/Disable */
 387:Generated_Source\PSoC6/SmartIO.h **** #define SmartIO_PIPELINE_ENABLE           ((uint32_t)((uint32_t)0x01U << SMARTIO_PRT_CTL_PIPELINE_E
 388:Generated_Source\PSoC6/SmartIO.h **** #define SmartIO_PIPELINE_DISABLE          ((uint32_t)(~(uint32_t)((uint32_t)0x01U << SMARTIO_PRT_CT
 389:Generated_Source\PSoC6/SmartIO.h **** 
 390:Generated_Source\PSoC6/SmartIO.h **** /* Sync control clear */
 391:Generated_Source\PSoC6/SmartIO.h **** #define SmartIO_IO_SYNC_CLEAR             ((uint32_t)(~(uint32_t)(SMARTIO_PRT_SYNC_CTL_IO_SYNC_EN_M
 392:Generated_Source\PSoC6/SmartIO.h **** #define SmartIO_DATA_SYNC_CLEAR           ((uint32_t)(~(uint32_t)(SMARTIO_PRT_SYNC_CTL_CHIP_SYNC_EN
 393:Generated_Source\PSoC6/SmartIO.h **** 
 394:Generated_Source\PSoC6/SmartIO.h **** /* LUT inputs clear */
 395:Generated_Source\PSoC6/SmartIO.h **** #define SmartIO_LUT_TR0_CLEAR             ((uint32_t)(~(uint32_t)(SMARTIO_PRT_LUT_SEL_LUT_TR0_SEL_M
 396:Generated_Source\PSoC6/SmartIO.h **** #define SmartIO_LUT_TR1_CLEAR             ((uint32_t)(~(uint32_t)(SMARTIO_PRT_LUT_SEL_LUT_TR1_SEL_M
 397:Generated_Source\PSoC6/SmartIO.h **** #define SmartIO_LUT_TR2_CLEAR             ((uint32_t)(~(uint32_t)(SMARTIO_PRT_LUT_SEL_LUT_TR2_SEL_M
 398:Generated_Source\PSoC6/SmartIO.h **** #define SmartIO_LUT_TR_CLEAR_ALL          (SmartIO_LUT_TR0_CLEAR & SmartIO_LUT_TR1_CLEAR & SmartIO_
 399:Generated_Source\PSoC6/SmartIO.h **** 
 400:Generated_Source\PSoC6/SmartIO.h **** /* LUT config clear */
 401:Generated_Source\PSoC6/SmartIO.h **** #define SmartIO_LUT_MAP_CLEAR             ((uint32_t)(~(uint32_t)(SMARTIO_PRT_LUT_CTL_LUT_Msk)))
 402:Generated_Source\PSoC6/SmartIO.h **** #define SmartIO_LUT_OPC_CLEAR             ((uint32_t)(~(uint32_t)(SMARTIO_PRT_LUT_CTL_LUT_OPC_Msk))
 403:Generated_Source\PSoC6/SmartIO.h **** #define SmartIO_LUT_CTL_CLEAR             ((uint32_t)(SmartIO_LUT_MAP_CLEAR & SmartIO_LUT_OPC_CLEAR
 404:Generated_Source\PSoC6/SmartIO.h **** 
 405:Generated_Source\PSoC6/SmartIO.h **** /* DU inputs clear */
 406:Generated_Source\PSoC6/SmartIO.h **** #define SmartIO_DU_TR0_CLEAR              ((uint32_t)(~(uint32_t)(SMARTIO_PRT_DU_SEL_DU_TR0_SEL_Msk
 407:Generated_Source\PSoC6/SmartIO.h **** #define SmartIO_DU_TR1_CLEAR              ((uint32_t)(~(uint32_t)(SMARTIO_PRT_DU_SEL_DU_TR1_SEL_Msk
 408:Generated_Source\PSoC6/SmartIO.h **** #define SmartIO_DU_TR2_CLEAR              ((uint32_t)(~(uint32_t)(SMARTIO_PRT_DU_SEL_DU_TR2_SEL_Msk
 409:Generated_Source\PSoC6/SmartIO.h **** #define SmartIO_DU_TR_CLEAR_ALL           (SmartIO_DU_TR0_CLEAR & SmartIO_DU_TR1_CLEAR & SmartIO_DU
 410:Generated_Source\PSoC6/SmartIO.h **** 
 411:Generated_Source\PSoC6/SmartIO.h **** /* DU DATA0 and DATA1 clear */
 412:Generated_Source\PSoC6/SmartIO.h **** #define SmartIO_DU_DATA0_CLEAR            ((uint32_t)(~(uint32_t)(SMARTIO_PRT_DU_SEL_DU_DATA0_SEL_M
 413:Generated_Source\PSoC6/SmartIO.h **** #define SmartIO_DU_DATA1_CLEAR            ((uint32_t)(~(uint32_t)(SMARTIO_PRT_DU_SEL_DU_DATA1_SEL_M
 414:Generated_Source\PSoC6/SmartIO.h **** #define SmartIO_DU_DATA01_CLEAR_BOTH      (SmartIO_DU_DATA0_CLEAR & SmartIO_DU_DATA1_CLEAR)
 415:Generated_Source\PSoC6/SmartIO.h **** 
 416:Generated_Source\PSoC6/SmartIO.h **** 
 417:Generated_Source\PSoC6/SmartIO.h **** /***************************************
 418:Generated_Source\PSoC6/SmartIO.h **** *        Initial configuration
 419:Generated_Source\PSoC6/SmartIO.h **** ***************************************/
 420:Generated_Source\PSoC6/SmartIO.h **** 
 421:Generated_Source\PSoC6/SmartIO.h **** /* Bypass configuration */
 422:Generated_Source\PSoC6/SmartIO.h **** #define SmartIO_INIT_BYPASS              ((uint32_t)(((SmartIO_BYPASS0)       | \
 423:Generated_Source\PSoC6/SmartIO.h ****                                                      (SmartIO_BYPASS1 << SmartIO_CH1) | \
 424:Generated_Source\PSoC6/SmartIO.h ****                                                      (SmartIO_BYPASS2 << SmartIO_CH2) | \
 425:Generated_Source\PSoC6/SmartIO.h ****                                                      (SmartIO_BYPASS3 << SmartIO_CH3) | \
 426:Generated_Source\PSoC6/SmartIO.h ****                                                      (SmartIO_BYPASS4 << SmartIO_CH4) | \
 427:Generated_Source\PSoC6/SmartIO.h ****                                                      (SmartIO_BYPASS5 << SmartIO_CH5) | \
 428:Generated_Source\PSoC6/SmartIO.h ****                                                      (SmartIO_BYPASS6 << SmartIO_CH6) | \
 429:Generated_Source\PSoC6/SmartIO.h ****                                                      (SmartIO_BYPASS7 << SmartIO_CH7))  \
 430:Generated_Source\PSoC6/SmartIO.h ****                                                      << SMARTIO_PRT_CTL_BYPASS_Pos))
 431:Generated_Source\PSoC6/SmartIO.h **** 
 432:Generated_Source\PSoC6/SmartIO.h **** /* Clock configuration */
 433:Generated_Source\PSoC6/SmartIO.h **** #define SmartIO_INIT_CLOCK_SRC           ((uint32_t)(SmartIO_CLOCK_SELECT << SMARTIO_PRT_CTL_CLOCK_
 434:Generated_Source\PSoC6/SmartIO.h **** 
 435:Generated_Source\PSoC6/SmartIO.h **** /* Hold override configuration */
 436:Generated_Source\PSoC6/SmartIO.h **** #define SmartIO_INIT_HLD_OVR             ((uint32_t)(SmartIO_HLD_OVR << SMARTIO_PRT_CTL_HLD_OVR_Pos
 437:Generated_Source\PSoC6/SmartIO.h **** 
 438:Generated_Source\PSoC6/SmartIO.h **** /* Disable the pipeline */
 439:Generated_Source\PSoC6/SmartIO.h **** #define SmartIO_INIT_PIPELINE_EN         ((uint32_t)((uint32_t)0x00U << SMARTIO_PRT_CTL_PIPELINE_EN
 440:Generated_Source\PSoC6/SmartIO.h **** 
 441:Generated_Source\PSoC6/SmartIO.h **** /* Initial general control configuration */
ARM GAS  C:\Users\ikomb\AppData\Local\Temp\cce6w8IH.s 			page 10


 442:Generated_Source\PSoC6/SmartIO.h **** #define SmartIO_INIT_CTL_CONFIG          ((uint32_t)(SmartIO_INIT_PIPELINE_EN | \
 443:Generated_Source\PSoC6/SmartIO.h ****                                                     SmartIO_INIT_HLD_OVR     | \
 444:Generated_Source\PSoC6/SmartIO.h ****                                                     SmartIO_INIT_CLOCK_SRC   | \
 445:Generated_Source\PSoC6/SmartIO.h ****                                                     SmartIO_INIT_BYPASS))
 446:Generated_Source\PSoC6/SmartIO.h **** 
 447:Generated_Source\PSoC6/SmartIO.h **** /* IO Sync configuration */
 448:Generated_Source\PSoC6/SmartIO.h **** #define SmartIO_INIT_IO_SYNC             ((uint32_t)(((SmartIO_IO_SYNC0)       | \
 449:Generated_Source\PSoC6/SmartIO.h ****                                                      (SmartIO_IO_SYNC1 << SmartIO_CH1) | \
 450:Generated_Source\PSoC6/SmartIO.h ****                                                      (SmartIO_IO_SYNC2 << SmartIO_CH2) | \
 451:Generated_Source\PSoC6/SmartIO.h ****                                                      (SmartIO_IO_SYNC3 << SmartIO_CH3) | \
 452:Generated_Source\PSoC6/SmartIO.h ****                                                      (SmartIO_IO_SYNC4 << SmartIO_CH4) | \
 453:Generated_Source\PSoC6/SmartIO.h ****                                                      (SmartIO_IO_SYNC5 << SmartIO_CH5) | \
 454:Generated_Source\PSoC6/SmartIO.h ****                                                      (SmartIO_IO_SYNC6 << SmartIO_CH6) | \
 455:Generated_Source\PSoC6/SmartIO.h ****                                                      (SmartIO_IO_SYNC7 << SmartIO_CH7))  \
 456:Generated_Source\PSoC6/SmartIO.h ****                                                      << SMARTIO_PRT_SYNC_CTL_IO_SYNC_EN_Pos))
 457:Generated_Source\PSoC6/SmartIO.h **** 
 458:Generated_Source\PSoC6/SmartIO.h **** /* Chip data Sync configuration */
 459:Generated_Source\PSoC6/SmartIO.h **** #define SmartIO_INIT_DATA_SYNC           ((uint32_t)(((SmartIO_DATA_SYNC0)       | \
 460:Generated_Source\PSoC6/SmartIO.h ****                                                      (SmartIO_DATA_SYNC1 << SmartIO_CH1) | \
 461:Generated_Source\PSoC6/SmartIO.h ****                                                      (SmartIO_DATA_SYNC2 << SmartIO_CH2) | \
 462:Generated_Source\PSoC6/SmartIO.h ****                                                      (SmartIO_DATA_SYNC3 << SmartIO_CH3) | \
 463:Generated_Source\PSoC6/SmartIO.h ****                                                      (SmartIO_DATA_SYNC4 << SmartIO_CH4) | \
 464:Generated_Source\PSoC6/SmartIO.h ****                                                      (SmartIO_DATA_SYNC5 << SmartIO_CH5) | \
 465:Generated_Source\PSoC6/SmartIO.h ****                                                      (SmartIO_DATA_SYNC6 << SmartIO_CH6) | \
 466:Generated_Source\PSoC6/SmartIO.h ****                                                      (SmartIO_DATA_SYNC7 << SmartIO_CH7))  \
 467:Generated_Source\PSoC6/SmartIO.h ****                                                      << SMARTIO_PRT_SYNC_CTL_CHIP_SYNC_EN_Pos))
 468:Generated_Source\PSoC6/SmartIO.h **** 
 469:Generated_Source\PSoC6/SmartIO.h **** /* Initial synchronization configuration */
 470:Generated_Source\PSoC6/SmartIO.h **** #define SmartIO_INIT_SYNC_CONFIG         ((uint32_t)(SmartIO_INIT_DATA_SYNC | \
 471:Generated_Source\PSoC6/SmartIO.h ****                                                      SmartIO_INIT_IO_SYNC))
 472:Generated_Source\PSoC6/SmartIO.h **** 
 473:Generated_Source\PSoC6/SmartIO.h **** /* Initial LUTs input select TR0 */
 474:Generated_Source\PSoC6/SmartIO.h **** #define SmartIO_INIT_LUT0_TR0            ((uint32_t)((SmartIO_LUT0_TR0 << SMARTIO_PRT_LUT_SEL_LUT_T
 475:Generated_Source\PSoC6/SmartIO.h **** #define SmartIO_INIT_LUT1_TR0            ((uint32_t)((SmartIO_LUT1_TR0 << SMARTIO_PRT_LUT_SEL_LUT_T
 476:Generated_Source\PSoC6/SmartIO.h **** #define SmartIO_INIT_LUT2_TR0            ((uint32_t)((SmartIO_LUT2_TR0 << SMARTIO_PRT_LUT_SEL_LUT_T
 477:Generated_Source\PSoC6/SmartIO.h **** #define SmartIO_INIT_LUT3_TR0            ((uint32_t)((SmartIO_LUT3_TR0 << SMARTIO_PRT_LUT_SEL_LUT_T
 478:Generated_Source\PSoC6/SmartIO.h **** #define SmartIO_INIT_LUT4_TR0            ((uint32_t)((SmartIO_LUT4_TR0 << SMARTIO_PRT_LUT_SEL_LUT_T
 479:Generated_Source\PSoC6/SmartIO.h **** #define SmartIO_INIT_LUT5_TR0            ((uint32_t)((SmartIO_LUT5_TR0 << SMARTIO_PRT_LUT_SEL_LUT_T
 480:Generated_Source\PSoC6/SmartIO.h **** #define SmartIO_INIT_LUT6_TR0            ((uint32_t)((SmartIO_LUT6_TR0 << SMARTIO_PRT_LUT_SEL_LUT_T
 481:Generated_Source\PSoC6/SmartIO.h **** #define SmartIO_INIT_LUT7_TR0            ((uint32_t)((SmartIO_LUT7_TR0 << SMARTIO_PRT_LUT_SEL_LUT_T
 482:Generated_Source\PSoC6/SmartIO.h **** 
 483:Generated_Source\PSoC6/SmartIO.h **** /* Initial LUTs input select TR1 */
 484:Generated_Source\PSoC6/SmartIO.h **** #define SmartIO_INIT_LUT0_TR1            ((uint32_t)((SmartIO_LUT0_TR1 << SMARTIO_PRT_LUT_SEL_LUT_T
 485:Generated_Source\PSoC6/SmartIO.h **** #define SmartIO_INIT_LUT1_TR1            ((uint32_t)((SmartIO_LUT1_TR1 << SMARTIO_PRT_LUT_SEL_LUT_T
 486:Generated_Source\PSoC6/SmartIO.h **** #define SmartIO_INIT_LUT2_TR1            ((uint32_t)((SmartIO_LUT2_TR1 << SMARTIO_PRT_LUT_SEL_LUT_T
 487:Generated_Source\PSoC6/SmartIO.h **** #define SmartIO_INIT_LUT3_TR1            ((uint32_t)((SmartIO_LUT3_TR1 << SMARTIO_PRT_LUT_SEL_LUT_T
 488:Generated_Source\PSoC6/SmartIO.h **** #define SmartIO_INIT_LUT4_TR1            ((uint32_t)((SmartIO_LUT4_TR1 << SMARTIO_PRT_LUT_SEL_LUT_T
 489:Generated_Source\PSoC6/SmartIO.h **** #define SmartIO_INIT_LUT5_TR1            ((uint32_t)((SmartIO_LUT5_TR1 << SMARTIO_PRT_LUT_SEL_LUT_T
 490:Generated_Source\PSoC6/SmartIO.h **** #define SmartIO_INIT_LUT6_TR1            ((uint32_t)((SmartIO_LUT6_TR1 << SMARTIO_PRT_LUT_SEL_LUT_T
 491:Generated_Source\PSoC6/SmartIO.h **** #define SmartIO_INIT_LUT7_TR1            ((uint32_t)((SmartIO_LUT7_TR1 << SMARTIO_PRT_LUT_SEL_LUT_T
 492:Generated_Source\PSoC6/SmartIO.h **** 
 493:Generated_Source\PSoC6/SmartIO.h **** /* Initial LUTs input select TR2 */
 494:Generated_Source\PSoC6/SmartIO.h **** #define SmartIO_INIT_LUT0_TR2            ((uint32_t)((SmartIO_LUT0_TR2 << SMARTIO_PRT_LUT_SEL_LUT_T
 495:Generated_Source\PSoC6/SmartIO.h **** #define SmartIO_INIT_LUT1_TR2            ((uint32_t)((SmartIO_LUT1_TR2 << SMARTIO_PRT_LUT_SEL_LUT_T
 496:Generated_Source\PSoC6/SmartIO.h **** #define SmartIO_INIT_LUT2_TR2            ((uint32_t)((SmartIO_LUT2_TR2 << SMARTIO_PRT_LUT_SEL_LUT_T
 497:Generated_Source\PSoC6/SmartIO.h **** #define SmartIO_INIT_LUT3_TR2            ((uint32_t)((SmartIO_LUT3_TR2 << SMARTIO_PRT_LUT_SEL_LUT_T
 498:Generated_Source\PSoC6/SmartIO.h **** #define SmartIO_INIT_LUT4_TR2            ((uint32_t)((SmartIO_LUT4_TR2 << SMARTIO_PRT_LUT_SEL_LUT_T
ARM GAS  C:\Users\ikomb\AppData\Local\Temp\cce6w8IH.s 			page 11


 499:Generated_Source\PSoC6/SmartIO.h **** #define SmartIO_INIT_LUT5_TR2            ((uint32_t)((SmartIO_LUT5_TR2 << SMARTIO_PRT_LUT_SEL_LUT_T
 500:Generated_Source\PSoC6/SmartIO.h **** #define SmartIO_INIT_LUT6_TR2            ((uint32_t)((SmartIO_LUT6_TR2 << SMARTIO_PRT_LUT_SEL_LUT_T
 501:Generated_Source\PSoC6/SmartIO.h **** #define SmartIO_INIT_LUT7_TR2            ((uint32_t)((SmartIO_LUT7_TR2 << SMARTIO_PRT_LUT_SEL_LUT_T
 502:Generated_Source\PSoC6/SmartIO.h **** 
 503:Generated_Source\PSoC6/SmartIO.h **** /* Initial LUTs input selections */
 504:Generated_Source\PSoC6/SmartIO.h **** #define SmartIO_INIT_LUT0_SEL_CONFIG     ((uint32_t)(SmartIO_INIT_LUT0_TR0 | \
 505:Generated_Source\PSoC6/SmartIO.h ****                                                     SmartIO_INIT_LUT0_TR1 | \
 506:Generated_Source\PSoC6/SmartIO.h ****                                                     SmartIO_INIT_LUT0_TR2))
 507:Generated_Source\PSoC6/SmartIO.h **** #define SmartIO_INIT_LUT1_SEL_CONFIG     ((uint32_t)(SmartIO_INIT_LUT1_TR0 | \
 508:Generated_Source\PSoC6/SmartIO.h ****                                                     SmartIO_INIT_LUT1_TR1 | \
 509:Generated_Source\PSoC6/SmartIO.h ****                                                     SmartIO_INIT_LUT1_TR2))
 510:Generated_Source\PSoC6/SmartIO.h **** #define SmartIO_INIT_LUT2_SEL_CONFIG     ((uint32_t)(SmartIO_INIT_LUT2_TR0 | \
 511:Generated_Source\PSoC6/SmartIO.h ****                                                     SmartIO_INIT_LUT2_TR1 | \
 512:Generated_Source\PSoC6/SmartIO.h ****                                                     SmartIO_INIT_LUT2_TR2))
 513:Generated_Source\PSoC6/SmartIO.h **** #define SmartIO_INIT_LUT3_SEL_CONFIG     ((uint32_t)(SmartIO_INIT_LUT3_TR0 | \
 514:Generated_Source\PSoC6/SmartIO.h ****                                                     SmartIO_INIT_LUT3_TR1 | \
 515:Generated_Source\PSoC6/SmartIO.h ****                                                     SmartIO_INIT_LUT3_TR2))
 516:Generated_Source\PSoC6/SmartIO.h **** #define SmartIO_INIT_LUT4_SEL_CONFIG     ((uint32_t)(SmartIO_INIT_LUT4_TR0 | \
 517:Generated_Source\PSoC6/SmartIO.h ****                                                     SmartIO_INIT_LUT4_TR1 | \
 518:Generated_Source\PSoC6/SmartIO.h ****                                                     SmartIO_INIT_LUT4_TR2))
 519:Generated_Source\PSoC6/SmartIO.h **** #define SmartIO_INIT_LUT5_SEL_CONFIG     ((uint32_t)(SmartIO_INIT_LUT5_TR0 | \
 520:Generated_Source\PSoC6/SmartIO.h ****                                                     SmartIO_INIT_LUT5_TR1 | \
 521:Generated_Source\PSoC6/SmartIO.h ****                                                     SmartIO_INIT_LUT5_TR2))
 522:Generated_Source\PSoC6/SmartIO.h **** #define SmartIO_INIT_LUT6_SEL_CONFIG     ((uint32_t)(SmartIO_INIT_LUT6_TR0 | \
 523:Generated_Source\PSoC6/SmartIO.h ****                                                     SmartIO_INIT_LUT6_TR1 | \
 524:Generated_Source\PSoC6/SmartIO.h ****                                                     SmartIO_INIT_LUT6_TR2))
 525:Generated_Source\PSoC6/SmartIO.h **** #define SmartIO_INIT_LUT7_SEL_CONFIG     ((uint32_t)(SmartIO_INIT_LUT7_TR0 | \
 526:Generated_Source\PSoC6/SmartIO.h ****                                                     SmartIO_INIT_LUT7_TR1 | \
 527:Generated_Source\PSoC6/SmartIO.h ****                                                     SmartIO_INIT_LUT7_TR2))
 528:Generated_Source\PSoC6/SmartIO.h **** 
 529:Generated_Source\PSoC6/SmartIO.h **** /* Initial LUTs truth tables */
 530:Generated_Source\PSoC6/SmartIO.h **** #define SmartIO_INIT_LUT0_MAP            ((uint32_t)(SmartIO_LUT0_MAP << SMARTIO_PRT_LUT_CTL_LUT_Po
 531:Generated_Source\PSoC6/SmartIO.h **** #define SmartIO_INIT_LUT1_MAP            ((uint32_t)(SmartIO_LUT1_MAP << SMARTIO_PRT_LUT_CTL_LUT_Po
 532:Generated_Source\PSoC6/SmartIO.h **** #define SmartIO_INIT_LUT2_MAP            ((uint32_t)(SmartIO_LUT2_MAP << SMARTIO_PRT_LUT_CTL_LUT_Po
 533:Generated_Source\PSoC6/SmartIO.h **** #define SmartIO_INIT_LUT3_MAP            ((uint32_t)(SmartIO_LUT3_MAP << SMARTIO_PRT_LUT_CTL_LUT_Po
 534:Generated_Source\PSoC6/SmartIO.h **** #define SmartIO_INIT_LUT4_MAP            ((uint32_t)(SmartIO_LUT4_MAP << SMARTIO_PRT_LUT_CTL_LUT_Po
 535:Generated_Source\PSoC6/SmartIO.h **** #define SmartIO_INIT_LUT5_MAP            ((uint32_t)(SmartIO_LUT5_MAP << SMARTIO_PRT_LUT_CTL_LUT_Po
 536:Generated_Source\PSoC6/SmartIO.h **** #define SmartIO_INIT_LUT6_MAP            ((uint32_t)(SmartIO_LUT6_MAP << SMARTIO_PRT_LUT_CTL_LUT_Po
 537:Generated_Source\PSoC6/SmartIO.h **** #define SmartIO_INIT_LUT7_MAP            ((uint32_t)(SmartIO_LUT7_MAP << SMARTIO_PRT_LUT_CTL_LUT_Po
 538:Generated_Source\PSoC6/SmartIO.h **** 
 539:Generated_Source\PSoC6/SmartIO.h **** /* Initial LUTs modes */
 540:Generated_Source\PSoC6/SmartIO.h **** #define SmartIO_INIT_LUT0_MODE           ((uint32_t)(SmartIO_LUT0_MODE << SMARTIO_PRT_LUT_CTL_LUT_O
 541:Generated_Source\PSoC6/SmartIO.h **** #define SmartIO_INIT_LUT1_MODE           ((uint32_t)(SmartIO_LUT1_MODE << SMARTIO_PRT_LUT_CTL_LUT_O
 542:Generated_Source\PSoC6/SmartIO.h **** #define SmartIO_INIT_LUT2_MODE           ((uint32_t)(SmartIO_LUT2_MODE << SMARTIO_PRT_LUT_CTL_LUT_O
 543:Generated_Source\PSoC6/SmartIO.h **** #define SmartIO_INIT_LUT3_MODE           ((uint32_t)(SmartIO_LUT3_MODE << SMARTIO_PRT_LUT_CTL_LUT_O
 544:Generated_Source\PSoC6/SmartIO.h **** #define SmartIO_INIT_LUT4_MODE           ((uint32_t)(SmartIO_LUT4_MODE << SMARTIO_PRT_LUT_CTL_LUT_O
 545:Generated_Source\PSoC6/SmartIO.h **** #define SmartIO_INIT_LUT5_MODE           ((uint32_t)(SmartIO_LUT5_MODE << SMARTIO_PRT_LUT_CTL_LUT_O
 546:Generated_Source\PSoC6/SmartIO.h **** #define SmartIO_INIT_LUT6_MODE           ((uint32_t)(SmartIO_LUT6_MODE << SMARTIO_PRT_LUT_CTL_LUT_O
 547:Generated_Source\PSoC6/SmartIO.h **** #define SmartIO_INIT_LUT7_MODE           ((uint32_t)(SmartIO_LUT7_MODE << SMARTIO_PRT_LUT_CTL_LUT_O
 548:Generated_Source\PSoC6/SmartIO.h **** 
 549:Generated_Source\PSoC6/SmartIO.h **** /* Initial LUTs control configuration */
 550:Generated_Source\PSoC6/SmartIO.h **** #define SmartIO_INIT_LUT0_CTL_CONFIG     ((uint32_t)(SmartIO_INIT_LUT0_MAP  | SmartIO_INIT_LUT0_MOD
 551:Generated_Source\PSoC6/SmartIO.h **** #define SmartIO_INIT_LUT1_CTL_CONFIG     ((uint32_t)(SmartIO_INIT_LUT1_MAP  | SmartIO_INIT_LUT1_MOD
 552:Generated_Source\PSoC6/SmartIO.h **** #define SmartIO_INIT_LUT2_CTL_CONFIG     ((uint32_t)(SmartIO_INIT_LUT2_MAP  | SmartIO_INIT_LUT2_MOD
 553:Generated_Source\PSoC6/SmartIO.h **** #define SmartIO_INIT_LUT3_CTL_CONFIG     ((uint32_t)(SmartIO_INIT_LUT3_MAP  | SmartIO_INIT_LUT3_MOD
 554:Generated_Source\PSoC6/SmartIO.h **** #define SmartIO_INIT_LUT4_CTL_CONFIG     ((uint32_t)(SmartIO_INIT_LUT4_MAP  | SmartIO_INIT_LUT4_MOD
 555:Generated_Source\PSoC6/SmartIO.h **** #define SmartIO_INIT_LUT5_CTL_CONFIG     ((uint32_t)(SmartIO_INIT_LUT5_MAP  | SmartIO_INIT_LUT5_MOD
ARM GAS  C:\Users\ikomb\AppData\Local\Temp\cce6w8IH.s 			page 12


 556:Generated_Source\PSoC6/SmartIO.h **** #define SmartIO_INIT_LUT6_CTL_CONFIG     ((uint32_t)(SmartIO_INIT_LUT6_MAP  | SmartIO_INIT_LUT6_MOD
 557:Generated_Source\PSoC6/SmartIO.h **** #define SmartIO_INIT_LUT7_CTL_CONFIG     ((uint32_t)(SmartIO_INIT_LUT7_MAP  | SmartIO_INIT_LUT7_MOD
 558:Generated_Source\PSoC6/SmartIO.h **** 
 559:Generated_Source\PSoC6/SmartIO.h **** /* Initial DU selection configuration */
 560:Generated_Source\PSoC6/SmartIO.h **** #define SmartIO_INIT_DU_TR0_SEL          ((uint32_t)(SmartIO_DU_TR0 << SMARTIO_PRT_DU_SEL_DU_TR0_SE
 561:Generated_Source\PSoC6/SmartIO.h **** #define SmartIO_INIT_DU_TR1_SEL          ((uint32_t)(SmartIO_DU_TR1 << SMARTIO_PRT_DU_SEL_DU_TR1_SE
 562:Generated_Source\PSoC6/SmartIO.h **** #define SmartIO_INIT_DU_TR2_SEL          ((uint32_t)(SmartIO_DU_TR2 << SMARTIO_PRT_DU_SEL_DU_TR2_SE
 563:Generated_Source\PSoC6/SmartIO.h **** #define SmartIO_INIT_DU_DATA0_SEL        ((uint32_t)(SmartIO_DU_DATA0 << SMARTIO_PRT_DU_SEL_DU_DATA
 564:Generated_Source\PSoC6/SmartIO.h **** #define SmartIO_INIT_DU_DATA1_SEL        ((uint32_t)(SmartIO_DU_DATA1 << SMARTIO_PRT_DU_SEL_DU_DATA
 565:Generated_Source\PSoC6/SmartIO.h **** 
 566:Generated_Source\PSoC6/SmartIO.h **** #define SmartIO_INIT_DU_SEL              ((uint32_t)(SmartIO_INIT_DU_TR0_SEL | \
 567:Generated_Source\PSoC6/SmartIO.h ****                                                     SmartIO_INIT_DU_TR1_SEL | \
 568:Generated_Source\PSoC6/SmartIO.h ****                                                     SmartIO_INIT_DU_TR2_SEL | \
 569:Generated_Source\PSoC6/SmartIO.h ****                                                     SmartIO_INIT_DU_DATA0_SEL | \
 570:Generated_Source\PSoC6/SmartIO.h ****                                                     SmartIO_INIT_DU_DATA1_SEL ))
 571:Generated_Source\PSoC6/SmartIO.h **** 
 572:Generated_Source\PSoC6/SmartIO.h **** /* Initial DU control configuration */
 573:Generated_Source\PSoC6/SmartIO.h **** #define SmartIO_INIT_DU_SIZE             ((uint32_t)(SmartIO_DU_SIZE << SMARTIO_PRT_DU_CTL_DU_SIZE_
 574:Generated_Source\PSoC6/SmartIO.h **** #define SmartIO_INIT_DU_OPC              ((uint32_t)(SmartIO_DU_OPCODE << SMARTIO_PRT_DU_CTL_DU_OPC
 575:Generated_Source\PSoC6/SmartIO.h **** 
 576:Generated_Source\PSoC6/SmartIO.h **** #define SmartIO_INIT_DU_CTL              ((uint32_t)(SmartIO_INIT_DU_SIZE | \
 577:Generated_Source\PSoC6/SmartIO.h ****                                                     SmartIO_INIT_DU_OPC ))
 578:Generated_Source\PSoC6/SmartIO.h **** 
 579:Generated_Source\PSoC6/SmartIO.h **** /* Initial DU Data register */
 580:Generated_Source\PSoC6/SmartIO.h **** #define SmartIO_INIT_DU_DATA_REG         SmartIO_DU_REG
 581:Generated_Source\PSoC6/SmartIO.h **** 
 582:Generated_Source\PSoC6/SmartIO.h **** 
 583:Generated_Source\PSoC6/SmartIO.h **** /***************************************
 584:Generated_Source\PSoC6/SmartIO.h **** *        Inline Functions
 585:Generated_Source\PSoC6/SmartIO.h **** ***************************************/
 586:Generated_Source\PSoC6/SmartIO.h **** 
 587:Generated_Source\PSoC6/SmartIO.h **** /**
 588:Generated_Source\PSoC6/SmartIO.h **** * \addtogroup group_functions
 589:Generated_Source\PSoC6/SmartIO.h **** * @{
 590:Generated_Source\PSoC6/SmartIO.h **** */
 591:Generated_Source\PSoC6/SmartIO.h **** 
 592:Generated_Source\PSoC6/SmartIO.h **** 
 593:Generated_Source\PSoC6/SmartIO.h **** /*******************************************************************************
 594:Generated_Source\PSoC6/SmartIO.h **** * Function Name: SmartIO_Enable
 595:Generated_Source\PSoC6/SmartIO.h **** ****************************************************************************//**
 596:Generated_Source\PSoC6/SmartIO.h **** *
 597:Generated_Source\PSoC6/SmartIO.h **** * \brief Enables the component. 
 598:Generated_Source\PSoC6/SmartIO.h **** *  
 599:Generated_Source\PSoC6/SmartIO.h **** * Once enabled, it takes two component clock cycles for the fabric reset to
 600:Generated_Source\PSoC6/SmartIO.h **** * deactivate and the fabric becomes operational. If the clock source is set to
 601:Generated_Source\PSoC6/SmartIO.h **** * Asynchronous mode, it takes three SYSCLK cycles before becoming functional.
 602:Generated_Source\PSoC6/SmartIO.h **** *
 603:Generated_Source\PSoC6/SmartIO.h **** * \funcusage
 604:Generated_Source\PSoC6/SmartIO.h **** *  \snippet SmartIO_SUT.c usage_SmartIO_Enable
 605:Generated_Source\PSoC6/SmartIO.h **** *******************************************************************************/
 606:Generated_Source\PSoC6/SmartIO.h **** __STATIC_INLINE void SmartIO_Enable(void)
 607:Generated_Source\PSoC6/SmartIO.h **** {
 608:Generated_Source\PSoC6/SmartIO.h ****     SmartIO_PORT->CTL |= SmartIO_FABRIC_ENABLE;
 609:Generated_Source\PSoC6/SmartIO.h **** }
 610:Generated_Source\PSoC6/SmartIO.h **** 
 611:Generated_Source\PSoC6/SmartIO.h **** 
 612:Generated_Source\PSoC6/SmartIO.h **** /*******************************************************************************
ARM GAS  C:\Users\ikomb\AppData\Local\Temp\cce6w8IH.s 			page 13


 613:Generated_Source\PSoC6/SmartIO.h **** * Function Name: SmartIO_Disable
 614:Generated_Source\PSoC6/SmartIO.h **** ****************************************************************************//**
 615:Generated_Source\PSoC6/SmartIO.h **** *
 616:Generated_Source\PSoC6/SmartIO.h **** * \brief Disables the component. 
 617:Generated_Source\PSoC6/SmartIO.h **** *  
 618:Generated_Source\PSoC6/SmartIO.h **** * The block is disabled, which places the channels into bypass mode and the
 619:Generated_Source\PSoC6/SmartIO.h **** * sequential elements are reset based on the chosen clock selection.
 620:Generated_Source\PSoC6/SmartIO.h **** *
 621:Generated_Source\PSoC6/SmartIO.h **** * \funcusage
 622:Generated_Source\PSoC6/SmartIO.h **** *  \snippet SmartIO_SUT.c usage_SmartIO_Disable
 623:Generated_Source\PSoC6/SmartIO.h **** *******************************************************************************/
 624:Generated_Source\PSoC6/SmartIO.h **** __STATIC_INLINE void SmartIO_Disable(void)
 625:Generated_Source\PSoC6/SmartIO.h **** {
 626:Generated_Source\PSoC6/SmartIO.h ****     SmartIO_PORT->CTL &= SmartIO_FABRIC_DISABLE;
  36              		.loc 2 626 0
  37 0000 174B     		ldr	r3, .L2
  38 0002 1A68     		ldr	r2, [r3]
  39 0004 5200     		lsls	r2, r2, #1
  40 0006 5208     		lsrs	r2, r2, #1
  41 0008 1A60     		str	r2, [r3]
  42              	.LBE53:
  43              	.LBE52:
  38:Generated_Source\PSoC6/SmartIO.c ****     /* Must disable the block before configuring */
  39:Generated_Source\PSoC6/SmartIO.c ****     SmartIO_Disable();
  40:Generated_Source\PSoC6/SmartIO.c ****     /* Save the clock configuration */
  41:Generated_Source\PSoC6/SmartIO.c ****     SmartIO_clkConfig = SmartIO_INIT_CLOCK_SRC;
  44              		.loc 1 41 0
  45 000a 8021     		movs	r1, #128
  46 000c 4901     		lsls	r1, r1, #5
  47 000e 154A     		ldr	r2, .L2+4
  48 0010 1160     		str	r1, [r2]
  42:Generated_Source\PSoC6/SmartIO.c ****     /* General control */
  43:Generated_Source\PSoC6/SmartIO.c ****     SmartIO_PORT->CTL = SmartIO_INIT_CTL_CONFIG;
  49              		.loc 1 43 0
  50 0012 154A     		ldr	r2, .L2+8
  51 0014 1A60     		str	r2, [r3]
  44:Generated_Source\PSoC6/SmartIO.c ****     /* Synchronization control */
  45:Generated_Source\PSoC6/SmartIO.c ****     SmartIO_PORT->SYNC_CTL = SmartIO_INIT_SYNC_CONFIG;
  52              		.loc 1 45 0
  53 0016 0022     		movs	r2, #0
  54 0018 1A61     		str	r2, [r3, #16]
  46:Generated_Source\PSoC6/SmartIO.c ****     /* LUT input selection */
  47:Generated_Source\PSoC6/SmartIO.c ****     SmartIO_PORT->LUT_SEL[SmartIO_LUT0] = SmartIO_INIT_LUT0_SEL_CONFIG;
  55              		.loc 1 47 0
  56 001a 1449     		ldr	r1, .L2+12
  57 001c 1962     		str	r1, [r3, #32]
  48:Generated_Source\PSoC6/SmartIO.c ****     SmartIO_PORT->LUT_SEL[SmartIO_LUT1] = SmartIO_INIT_LUT1_SEL_CONFIG;
  58              		.loc 1 48 0
  59 001e 5962     		str	r1, [r3, #36]
  49:Generated_Source\PSoC6/SmartIO.c ****     SmartIO_PORT->LUT_SEL[SmartIO_LUT2] = SmartIO_INIT_LUT2_SEL_CONFIG;
  60              		.loc 1 49 0
  61 0020 1348     		ldr	r0, .L2+16
  62 0022 9862     		str	r0, [r3, #40]
  50:Generated_Source\PSoC6/SmartIO.c ****     SmartIO_PORT->LUT_SEL[SmartIO_LUT3] = SmartIO_INIT_LUT3_SEL_CONFIG;
  63              		.loc 1 50 0
  64 0024 1348     		ldr	r0, .L2+20
  65 0026 D862     		str	r0, [r3, #44]
ARM GAS  C:\Users\ikomb\AppData\Local\Temp\cce6w8IH.s 			page 14


  51:Generated_Source\PSoC6/SmartIO.c ****     SmartIO_PORT->LUT_SEL[SmartIO_LUT4] = SmartIO_INIT_LUT4_SEL_CONFIG;
  66              		.loc 1 51 0
  67 0028 1348     		ldr	r0, .L2+24
  68 002a 1863     		str	r0, [r3, #48]
  52:Generated_Source\PSoC6/SmartIO.c ****     SmartIO_PORT->LUT_SEL[SmartIO_LUT5] = SmartIO_INIT_LUT5_SEL_CONFIG;
  69              		.loc 1 52 0
  70 002c 5963     		str	r1, [r3, #52]
  53:Generated_Source\PSoC6/SmartIO.c ****     SmartIO_PORT->LUT_SEL[SmartIO_LUT6] = SmartIO_INIT_LUT6_SEL_CONFIG;
  71              		.loc 1 53 0
  72 002e 1348     		ldr	r0, .L2+28
  73 0030 9863     		str	r0, [r3, #56]
  54:Generated_Source\PSoC6/SmartIO.c ****     SmartIO_PORT->LUT_SEL[SmartIO_LUT7] = SmartIO_INIT_LUT7_SEL_CONFIG;
  74              		.loc 1 54 0
  75 0032 D963     		str	r1, [r3, #60]
  55:Generated_Source\PSoC6/SmartIO.c ****     /* LUT control */
  56:Generated_Source\PSoC6/SmartIO.c ****     SmartIO_PORT->LUT_CTL[SmartIO_LUT0] = SmartIO_INIT_LUT0_CTL_CONFIG;
  76              		.loc 1 56 0
  77 0034 1A64     		str	r2, [r3, #64]
  57:Generated_Source\PSoC6/SmartIO.c ****     SmartIO_PORT->LUT_CTL[SmartIO_LUT1] = SmartIO_INIT_LUT1_CTL_CONFIG;
  78              		.loc 1 57 0
  79 0036 5A64     		str	r2, [r3, #68]
  58:Generated_Source\PSoC6/SmartIO.c ****     SmartIO_PORT->LUT_CTL[SmartIO_LUT2] = SmartIO_INIT_LUT2_CTL_CONFIG;
  80              		.loc 1 58 0
  81 0038 1149     		ldr	r1, .L2+32
  82 003a 9964     		str	r1, [r3, #72]
  59:Generated_Source\PSoC6/SmartIO.c ****     SmartIO_PORT->LUT_CTL[SmartIO_LUT3] = SmartIO_INIT_LUT3_CTL_CONFIG;
  83              		.loc 1 59 0
  84 003c 1149     		ldr	r1, .L2+36
  85 003e D964     		str	r1, [r3, #76]
  60:Generated_Source\PSoC6/SmartIO.c ****     SmartIO_PORT->LUT_CTL[SmartIO_LUT4] = SmartIO_INIT_LUT4_CTL_CONFIG;
  86              		.loc 1 60 0
  87 0040 4221     		movs	r1, #66
  88 0042 1965     		str	r1, [r3, #80]
  61:Generated_Source\PSoC6/SmartIO.c ****     SmartIO_PORT->LUT_CTL[SmartIO_LUT5] = SmartIO_INIT_LUT5_CTL_CONFIG;
  89              		.loc 1 61 0
  90 0044 5A65     		str	r2, [r3, #84]
  62:Generated_Source\PSoC6/SmartIO.c ****     SmartIO_PORT->LUT_CTL[SmartIO_LUT6] = SmartIO_INIT_LUT6_CTL_CONFIG;
  91              		.loc 1 62 0
  92 0046 4139     		subs	r1, r1, #65
  93 0048 9965     		str	r1, [r3, #88]
  63:Generated_Source\PSoC6/SmartIO.c ****     SmartIO_PORT->LUT_CTL[SmartIO_LUT7] = SmartIO_INIT_LUT7_CTL_CONFIG;
  94              		.loc 1 63 0
  95 004a DA65     		str	r2, [r3, #92]
  64:Generated_Source\PSoC6/SmartIO.c ****     /* Configure the Data Unit */
  65:Generated_Source\PSoC6/SmartIO.c ****     SmartIO_PORT->DU_SEL = SmartIO_INIT_DU_SEL;
  96              		.loc 1 65 0
  97 004c BF31     		adds	r1, r1, #191
  98 004e 5A50     		str	r2, [r3, r1]
  66:Generated_Source\PSoC6/SmartIO.c ****     SmartIO_PORT->DU_CTL = SmartIO_INIT_DU_CTL;
  99              		.loc 1 66 0
 100 0050 0820     		movs	r0, #8
 101 0052 FF30     		adds	r0, r0, #255
 102 0054 0431     		adds	r1, r1, #4
 103 0056 5850     		str	r0, [r3, r1]
  67:Generated_Source\PSoC6/SmartIO.c ****     SmartIO_PORT->DATA = SmartIO_INIT_DU_DATA_REG;
 104              		.loc 1 67 0
 105 0058 2C31     		adds	r1, r1, #44
ARM GAS  C:\Users\ikomb\AppData\Local\Temp\cce6w8IH.s 			page 15


 106 005a 5A50     		str	r2, [r3, r1]
  68:Generated_Source\PSoC6/SmartIO.c **** }
 107              		.loc 1 68 0
 108              		@ sp needed
 109 005c 7047     		bx	lr
 110              	.L3:
 111 005e C046     		.align	2
 112              	.L2:
 113 0060 00093340 		.word	1077086464
 114 0064 00000000 		.word	.LANCHOR0
 115 0068 AF100000 		.word	4271
 116 006c 01010100 		.word	65793
 117 0070 02020200 		.word	131586
 118 0074 02030300 		.word	197378
 119 0078 08030300 		.word	197384
 120 007c 04040400 		.word	263172
 121 0080 01020000 		.word	513
 122 0084 81020000 		.word	641
 123              		.cfi_endproc
 124              	.LFE39:
 125              		.size	SmartIO_Init, .-SmartIO_Init
 126              		.section	.text.SmartIO_Start,"ax",%progbits
 127              		.align	2
 128              		.global	SmartIO_Start
 129              		.code	16
 130              		.thumb_func
 131              		.type	SmartIO_Start, %function
 132              	SmartIO_Start:
 133              	.LFB40:
  69:Generated_Source\PSoC6/SmartIO.c **** 
  70:Generated_Source\PSoC6/SmartIO.c **** 
  71:Generated_Source\PSoC6/SmartIO.c **** /*******************************************************************************
  72:Generated_Source\PSoC6/SmartIO.c **** * Function Name: SmartIO_Start
  73:Generated_Source\PSoC6/SmartIO.c **** ****************************************************************************//**
  74:Generated_Source\PSoC6/SmartIO.c **** *
  75:Generated_Source\PSoC6/SmartIO.c **** * \brief Invokes SmartIO_Init() and SmartIO_Enable().
  76:Generated_Source\PSoC6/SmartIO.c **** *  
  77:Generated_Source\PSoC6/SmartIO.c **** * After this function call, the component is initialized to specified values
  78:Generated_Source\PSoC6/SmartIO.c **** * in the Configuration dialog and is then enabled.
  79:Generated_Source\PSoC6/SmartIO.c **** *
  80:Generated_Source\PSoC6/SmartIO.c **** * If calling this function after calling SmartIO_Stop(), the fabric
  81:Generated_Source\PSoC6/SmartIO.c **** * will set the clock configuration as specified before calling Stop().
  82:Generated_Source\PSoC6/SmartIO.c **** *
  83:Generated_Source\PSoC6/SmartIO.c **** * \globalvars
  84:Generated_Source\PSoC6/SmartIO.c **** *  SmartIO_initVar - used to check initial configuration, modified
  85:Generated_Source\PSoC6/SmartIO.c **** *  on first function call.
  86:Generated_Source\PSoC6/SmartIO.c **** *
  87:Generated_Source\PSoC6/SmartIO.c **** * \funcusage
  88:Generated_Source\PSoC6/SmartIO.c **** *  \snippet SmartIO_SUT.c usage_SmartIO_Start
  89:Generated_Source\PSoC6/SmartIO.c **** *******************************************************************************/
  90:Generated_Source\PSoC6/SmartIO.c **** void SmartIO_Start(void)
  91:Generated_Source\PSoC6/SmartIO.c **** {
 134              		.loc 1 91 0
 135              		.cfi_startproc
 136              		@ args = 0, pretend = 0, frame = 0
 137              		@ frame_needed = 0, uses_anonymous_args = 0
 138 0000 10B5     		push	{r4, lr}
ARM GAS  C:\Users\ikomb\AppData\Local\Temp\cce6w8IH.s 			page 16


 139              		.cfi_def_cfa_offset 8
 140              		.cfi_offset 4, -8
 141              		.cfi_offset 14, -4
  92:Generated_Source\PSoC6/SmartIO.c ****     uint32_t regVal;
  93:Generated_Source\PSoC6/SmartIO.c ****     
  94:Generated_Source\PSoC6/SmartIO.c ****     if (0u == SmartIO_initVar)
 142              		.loc 1 94 0
 143 0002 0E4B     		ldr	r3, .L7
 144 0004 1B79     		ldrb	r3, [r3, #4]
 145 0006 002B     		cmp	r3, #0
 146 0008 05D1     		bne	.L5
  95:Generated_Source\PSoC6/SmartIO.c ****     {
  96:Generated_Source\PSoC6/SmartIO.c ****         SmartIO_Init();
 147              		.loc 1 96 0
 148 000a FFF7FEFF 		bl	SmartIO_Init
 149              	.LVL0:
  97:Generated_Source\PSoC6/SmartIO.c ****         SmartIO_initVar = 1u; /* Component was initialized */
 150              		.loc 1 97 0
 151 000e 0122     		movs	r2, #1
 152 0010 0A4B     		ldr	r3, .L7
 153 0012 1A71     		strb	r2, [r3, #4]
 154 0014 0BE0     		b	.L6
 155              	.L5:
  98:Generated_Source\PSoC6/SmartIO.c ****     }
  99:Generated_Source\PSoC6/SmartIO.c ****     else
 100:Generated_Source\PSoC6/SmartIO.c ****     {
 101:Generated_Source\PSoC6/SmartIO.c ****         /* Restore the component settings if Stop() was called */
 102:Generated_Source\PSoC6/SmartIO.c ****         if ((SmartIO_PORT->CTL & SMARTIO_PRT_CTL_ENABLED_Msk) == 0u)
 156              		.loc 1 102 0
 157 0016 0A4B     		ldr	r3, .L7+4
 158 0018 1B68     		ldr	r3, [r3]
 159 001a 002B     		cmp	r3, #0
 160 001c 07DB     		blt	.L6
 103:Generated_Source\PSoC6/SmartIO.c ****         {
 104:Generated_Source\PSoC6/SmartIO.c ****             /* Clear the pipeline bit and clear the clock field */            
 105:Generated_Source\PSoC6/SmartIO.c ****             regVal = SmartIO_PORT->CTL & SmartIO_PIPELINE_DISABLE & SmartIO_CLOCK_CLEAR;
 161              		.loc 1 105 0
 162 001e 0849     		ldr	r1, .L7+4
 163 0020 0A68     		ldr	r2, [r1]
 164 0022 084B     		ldr	r3, .L7+8
 165 0024 1340     		ands	r3, r2
 166              	.LVL1:
 106:Generated_Source\PSoC6/SmartIO.c ****             /* Restore the clock settings */
 107:Generated_Source\PSoC6/SmartIO.c ****             SmartIO_PORT->CTL = regVal | SmartIO_clkConfig;
 167              		.loc 1 107 0
 168 0026 054A     		ldr	r2, .L7
 169 0028 1268     		ldr	r2, [r2]
 170 002a 1343     		orrs	r3, r2
 171              	.LVL2:
 172 002c 0B60     		str	r3, [r1]
 173              	.L6:
 174              	.LBB54:
 175              	.LBB55:
 608:Generated_Source\PSoC6/SmartIO.h **** }
 176              		.loc 2 608 0
 177 002e 044A     		ldr	r2, .L7+4
 178 0030 1368     		ldr	r3, [r2]
ARM GAS  C:\Users\ikomb\AppData\Local\Temp\cce6w8IH.s 			page 17


 179 0032 8021     		movs	r1, #128
 180 0034 0906     		lsls	r1, r1, #24
 181 0036 0B43     		orrs	r3, r1
 182 0038 1360     		str	r3, [r2]
 183              	.LBE55:
 184              	.LBE54:
 108:Generated_Source\PSoC6/SmartIO.c ****         }
 109:Generated_Source\PSoC6/SmartIO.c ****     }
 110:Generated_Source\PSoC6/SmartIO.c ****     SmartIO_Enable();
 111:Generated_Source\PSoC6/SmartIO.c **** }
 185              		.loc 1 111 0
 186              		@ sp needed
 187 003a 10BD     		pop	{r4, pc}
 188              	.L8:
 189              		.align	2
 190              	.L7:
 191 003c 00000000 		.word	.LANCHOR0
 192 0040 00093340 		.word	1077086464
 193 0044 FFE0FFFD 		.word	-33562369
 194              		.cfi_endproc
 195              	.LFE40:
 196              		.size	SmartIO_Start, .-SmartIO_Start
 197              		.section	.text.SmartIO_Stop,"ax",%progbits
 198              		.align	2
 199              		.global	SmartIO_Stop
 200              		.code	16
 201              		.thumb_func
 202              		.type	SmartIO_Stop, %function
 203              	SmartIO_Stop:
 204              	.LFB41:
 112:Generated_Source\PSoC6/SmartIO.c **** 
 113:Generated_Source\PSoC6/SmartIO.c **** 
 114:Generated_Source\PSoC6/SmartIO.c **** /*******************************************************************************
 115:Generated_Source\PSoC6/SmartIO.c **** * Function Name: SmartIO_Stop
 116:Generated_Source\PSoC6/SmartIO.c **** ****************************************************************************//**
 117:Generated_Source\PSoC6/SmartIO.c **** *
 118:Generated_Source\PSoC6/SmartIO.c **** * \brief The routing fabric is bypassed and the block is powered down.
 119:Generated_Source\PSoC6/SmartIO.c **** *
 120:Generated_Source\PSoC6/SmartIO.c **** * This function saves the clock configuration before powering down. Calling
 121:Generated_Source\PSoC6/SmartIO.c **** * Start() will enable the block and restore the clock setting.
 122:Generated_Source\PSoC6/SmartIO.c **** * 
 123:Generated_Source\PSoC6/SmartIO.c **** * \globalvars
 124:Generated_Source\PSoC6/SmartIO.c **** *  SmartIO_clkConfig - used to save the clock configuration.
 125:Generated_Source\PSoC6/SmartIO.c **** *
 126:Generated_Source\PSoC6/SmartIO.c **** * \funcusage
 127:Generated_Source\PSoC6/SmartIO.c **** *  \snippet SmartIO_SUT.c usage_SmartIO_Stop
 128:Generated_Source\PSoC6/SmartIO.c **** *******************************************************************************/
 129:Generated_Source\PSoC6/SmartIO.c **** void SmartIO_Stop(void)
 130:Generated_Source\PSoC6/SmartIO.c **** {
 205              		.loc 1 130 0
 206              		.cfi_startproc
 207              		@ args = 0, pretend = 0, frame = 0
 208              		@ frame_needed = 0, uses_anonymous_args = 0
 209              		@ link register save eliminated.
 210              	.LBB56:
 211              	.LBB57:
 212              		.loc 2 626 0
ARM GAS  C:\Users\ikomb\AppData\Local\Temp\cce6w8IH.s 			page 18


 213 0000 084B     		ldr	r3, .L10
 214 0002 1A68     		ldr	r2, [r3]
 215 0004 5200     		lsls	r2, r2, #1
 216 0006 5208     		lsrs	r2, r2, #1
 217 0008 1A60     		str	r2, [r3]
 218              	.LBE57:
 219              	.LBE56:
 131:Generated_Source\PSoC6/SmartIO.c ****     uint32_t regVal;
 132:Generated_Source\PSoC6/SmartIO.c ****     
 133:Generated_Source\PSoC6/SmartIO.c ****     /* Disable the block */
 134:Generated_Source\PSoC6/SmartIO.c ****     SmartIO_Disable();
 135:Generated_Source\PSoC6/SmartIO.c ****     /* Save the clock setting */
 136:Generated_Source\PSoC6/SmartIO.c ****     SmartIO_clkConfig = SmartIO_PORT->CTL & SMARTIO_PRT_CTL_CLOCK_SRC_Msk;
 220              		.loc 1 136 0
 221 000a 1968     		ldr	r1, [r3]
 222 000c F822     		movs	r2, #248
 223 000e 5201     		lsls	r2, r2, #5
 224 0010 0A40     		ands	r2, r1
 225 0012 0549     		ldr	r1, .L10+4
 226 0014 0A60     		str	r2, [r1]
 137:Generated_Source\PSoC6/SmartIO.c ****     /* Clear the clock source */
 138:Generated_Source\PSoC6/SmartIO.c ****     regVal = SmartIO_PORT->CTL & SmartIO_CLOCK_CLEAR;
 227              		.loc 1 138 0
 228 0016 1968     		ldr	r1, [r3]
 229 0018 044A     		ldr	r2, .L10+8
 230 001a 0A40     		ands	r2, r1
 231              	.LVL3:
 139:Generated_Source\PSoC6/SmartIO.c ****     /* Enable the pipeline and set the clock source to const zero */
 140:Generated_Source\PSoC6/SmartIO.c ****     SmartIO_PORT->CTL = regVal | SmartIO_PIPELINE_ENABLE | SmartIO_CLOCK_CONST_ZERO;
 232              		.loc 1 140 0
 233 001c 0449     		ldr	r1, .L10+12
 234 001e 0A43     		orrs	r2, r1
 235              	.LVL4:
 236 0020 1A60     		str	r2, [r3]
 141:Generated_Source\PSoC6/SmartIO.c **** }
 237              		.loc 1 141 0
 238              		@ sp needed
 239 0022 7047     		bx	lr
 240              	.L11:
 241              		.align	2
 242              	.L10:
 243 0024 00093340 		.word	1077086464
 244 0028 00000000 		.word	.LANCHOR0
 245 002c FFE0FFFF 		.word	-7937
 246 0030 00140002 		.word	33559552
 247              		.cfi_endproc
 248              	.LFE41:
 249              		.size	SmartIO_Stop, .-SmartIO_Stop
 250              		.section	.text.SmartIO_SetBypass,"ax",%progbits
 251              		.align	2
 252              		.global	SmartIO_SetBypass
 253              		.code	16
 254              		.thumb_func
 255              		.type	SmartIO_SetBypass, %function
 256              	SmartIO_SetBypass:
 257              	.LFB42:
 142:Generated_Source\PSoC6/SmartIO.c **** 
ARM GAS  C:\Users\ikomb\AppData\Local\Temp\cce6w8IH.s 			page 19


 143:Generated_Source\PSoC6/SmartIO.c **** 
 144:Generated_Source\PSoC6/SmartIO.c **** /*******************************************************************************
 145:Generated_Source\PSoC6/SmartIO.c **** * Function Name: SmartIO_SetBypass
 146:Generated_Source\PSoC6/SmartIO.c **** ****************************************************************************//**
 147:Generated_Source\PSoC6/SmartIO.c **** *
 148:Generated_Source\PSoC6/SmartIO.c **** * \brief Bypasses channels on a bit by bit basis. 
 149:Generated_Source\PSoC6/SmartIO.c **** *
 150:Generated_Source\PSoC6/SmartIO.c **** * Bypassed channels behave as if the SmartIO component was not present for 
 151:Generated_Source\PSoC6/SmartIO.c **** * those particular channels. 
 152:Generated_Source\PSoC6/SmartIO.c **** *  
 153:Generated_Source\PSoC6/SmartIO.c **** * <b>Note</b> This function impacts all channels on the port. It will write
 154:Generated_Source\PSoC6/SmartIO.c **** * over the bypass configuration of all the channels. 
 155:Generated_Source\PSoC6/SmartIO.c **** *
 156:Generated_Source\PSoC6/SmartIO.c **** * \param portChannel
 157:Generated_Source\PSoC6/SmartIO.c **** *  The channel location to be bypassed on the port. If the bit value is 0, 
 158:Generated_Source\PSoC6/SmartIO.c **** *  the channel is not bypassed; if the bit value is 1, the channel is bypassed.
 159:Generated_Source\PSoC6/SmartIO.c **** *  Valid options are documented in \ref channelConst. These should be ORed
 160:Generated_Source\PSoC6/SmartIO.c **** *  to configure multiple bypass channels.
 161:Generated_Source\PSoC6/SmartIO.c **** * 
 162:Generated_Source\PSoC6/SmartIO.c **** * \sideeffect
 163:Generated_Source\PSoC6/SmartIO.c **** *  This function disables the block for reconfiguration. During this time,
 164:Generated_Source\PSoC6/SmartIO.c **** *  all signals on the port will be bypassed. All peripheral and gpio signals
 165:Generated_Source\PSoC6/SmartIO.c **** *  must be stopped or properly handled to account for the bypass state.
 166:Generated_Source\PSoC6/SmartIO.c **** *
 167:Generated_Source\PSoC6/SmartIO.c **** * \funcusage
 168:Generated_Source\PSoC6/SmartIO.c **** *  \snippet SmartIO_SUT.c usage_SmartIO_SetBypass
 169:Generated_Source\PSoC6/SmartIO.c **** *******************************************************************************/
 170:Generated_Source\PSoC6/SmartIO.c **** void SmartIO_SetBypass(uint32_t portChannel)
 171:Generated_Source\PSoC6/SmartIO.c **** {   
 258              		.loc 1 171 0
 259              		.cfi_startproc
 260              		@ args = 0, pretend = 0, frame = 0
 261              		@ frame_needed = 0, uses_anonymous_args = 0
 262              		@ link register save eliminated.
 263              	.LVL5:
 264              	.LBB58:
 265              	.LBB59:
 266              		.loc 2 626 0
 267 0000 084B     		ldr	r3, .L13
 268 0002 1A68     		ldr	r2, [r3]
 269 0004 5200     		lsls	r2, r2, #1
 270 0006 5208     		lsrs	r2, r2, #1
 271 0008 1A60     		str	r2, [r3]
 272              	.LBE59:
 273              	.LBE58:
 172:Generated_Source\PSoC6/SmartIO.c ****     uint32_t regVal;
 173:Generated_Source\PSoC6/SmartIO.c ****     
 174:Generated_Source\PSoC6/SmartIO.c ****     /* Must disable the block before configuring */
 175:Generated_Source\PSoC6/SmartIO.c ****     SmartIO_Disable();
 176:Generated_Source\PSoC6/SmartIO.c ****     /* Configure the bypass settings of the SmartIO pins */
 177:Generated_Source\PSoC6/SmartIO.c ****     regVal = SmartIO_PORT->CTL & SmartIO_BYPASS_CLEAR;
 274              		.loc 1 177 0
 275 000a 1A68     		ldr	r2, [r3]
 276 000c FF21     		movs	r1, #255
 277 000e 8A43     		bics	r2, r1
 278              	.LVL6:
 178:Generated_Source\PSoC6/SmartIO.c ****     SmartIO_PORT->CTL = regVal | (((uint32_t)(portChannel << SMARTIO_PRT_CTL_BYPASS_Pos))
ARM GAS  C:\Users\ikomb\AppData\Local\Temp\cce6w8IH.s 			page 20


 179:Generated_Source\PSoC6/SmartIO.c ****                                     & SMARTIO_PRT_CTL_BYPASS_Msk);
 279              		.loc 1 179 0
 280 0010 0840     		ands	r0, r1
 281              	.LVL7:
 178:Generated_Source\PSoC6/SmartIO.c ****     SmartIO_PORT->CTL = regVal | (((uint32_t)(portChannel << SMARTIO_PRT_CTL_BYPASS_Pos))
 282              		.loc 1 178 0
 283 0012 1043     		orrs	r0, r2
 284 0014 1860     		str	r0, [r3]
 285              	.LBB60:
 286              	.LBB61:
 608:Generated_Source\PSoC6/SmartIO.h **** }
 287              		.loc 2 608 0
 288 0016 1A68     		ldr	r2, [r3]
 289              	.LVL8:
 290 0018 8021     		movs	r1, #128
 291 001a 0906     		lsls	r1, r1, #24
 292 001c 0A43     		orrs	r2, r1
 293 001e 1A60     		str	r2, [r3]
 294              	.LBE61:
 295              	.LBE60:
 180:Generated_Source\PSoC6/SmartIO.c ****     /* Re-enable the block */
 181:Generated_Source\PSoC6/SmartIO.c ****     SmartIO_Enable();
 182:Generated_Source\PSoC6/SmartIO.c **** }
 296              		.loc 1 182 0
 297              		@ sp needed
 298 0020 7047     		bx	lr
 299              	.L14:
 300 0022 C046     		.align	2
 301              	.L13:
 302 0024 00093340 		.word	1077086464
 303              		.cfi_endproc
 304              	.LFE42:
 305              		.size	SmartIO_SetBypass, .-SmartIO_SetBypass
 306              		.section	.text.SmartIO_ClockSelect,"ax",%progbits
 307              		.align	2
 308              		.global	SmartIO_ClockSelect
 309              		.code	16
 310              		.thumb_func
 311              		.type	SmartIO_ClockSelect, %function
 312              	SmartIO_ClockSelect:
 313              	.LFB43:
 183:Generated_Source\PSoC6/SmartIO.c **** 
 184:Generated_Source\PSoC6/SmartIO.c **** 
 185:Generated_Source\PSoC6/SmartIO.c **** /*******************************************************************************
 186:Generated_Source\PSoC6/SmartIO.c **** * Function Name: SmartIO_ClockSelect
 187:Generated_Source\PSoC6/SmartIO.c **** ****************************************************************************//**
 188:Generated_Source\PSoC6/SmartIO.c **** *
 189:Generated_Source\PSoC6/SmartIO.c **** * \brief Selects the component clock source.
 190:Generated_Source\PSoC6/SmartIO.c **** *
 191:Generated_Source\PSoC6/SmartIO.c **** * The clock selection impacts the reset behavior of the component and low power
 192:Generated_Source\PSoC6/SmartIO.c **** * operation. Refer to the Functional Description section of the component
 193:Generated_Source\PSoC6/SmartIO.c **** * datasheet for more information.
 194:Generated_Source\PSoC6/SmartIO.c **** *
 195:Generated_Source\PSoC6/SmartIO.c **** * \param clockSrc
 196:Generated_Source\PSoC6/SmartIO.c **** *  The component clock source. Valid options are documented in \ref clockConst.
 197:Generated_Source\PSoC6/SmartIO.c **** * 
 198:Generated_Source\PSoC6/SmartIO.c **** * \sideeffect
ARM GAS  C:\Users\ikomb\AppData\Local\Temp\cce6w8IH.s 			page 21


 199:Generated_Source\PSoC6/SmartIO.c **** *  This function disables the block for reconfiguration. During this time,
 200:Generated_Source\PSoC6/SmartIO.c **** *  all signals on the port will be bypassed. All peripheral and gpio signals
 201:Generated_Source\PSoC6/SmartIO.c **** *  must be stopped or properly handled to account for the bypass state.
 202:Generated_Source\PSoC6/SmartIO.c **** *
 203:Generated_Source\PSoC6/SmartIO.c **** * \funcusage
 204:Generated_Source\PSoC6/SmartIO.c **** *  \snippet SmartIO_SUT.c usage_SmartIO_ClockSelect
 205:Generated_Source\PSoC6/SmartIO.c **** *******************************************************************************/
 206:Generated_Source\PSoC6/SmartIO.c **** void SmartIO_ClockSelect(uint32_t clockSrc)
 207:Generated_Source\PSoC6/SmartIO.c **** {
 314              		.loc 1 207 0
 315              		.cfi_startproc
 316              		@ args = 0, pretend = 0, frame = 0
 317              		@ frame_needed = 0, uses_anonymous_args = 0
 318              		@ link register save eliminated.
 319              	.LVL9:
 320              	.LBB62:
 321              	.LBB63:
 322              		.loc 2 626 0
 323 0000 094B     		ldr	r3, .L16
 324 0002 1A68     		ldr	r2, [r3]
 325 0004 5200     		lsls	r2, r2, #1
 326 0006 5208     		lsrs	r2, r2, #1
 327 0008 1A60     		str	r2, [r3]
 328              	.LBE63:
 329              	.LBE62:
 208:Generated_Source\PSoC6/SmartIO.c ****     uint32_t regVal;
 209:Generated_Source\PSoC6/SmartIO.c ****     
 210:Generated_Source\PSoC6/SmartIO.c ****     /* Must disable the block before configuring */
 211:Generated_Source\PSoC6/SmartIO.c ****     SmartIO_Disable();
 212:Generated_Source\PSoC6/SmartIO.c ****     /* Configure the clock source */
 213:Generated_Source\PSoC6/SmartIO.c ****     regVal = SmartIO_PORT->CTL & SmartIO_CLOCK_CLEAR;
 330              		.loc 1 213 0
 331 000a 1968     		ldr	r1, [r3]
 332 000c 074A     		ldr	r2, .L16+4
 333 000e 1140     		ands	r1, r2
 334              	.LVL10:
 214:Generated_Source\PSoC6/SmartIO.c ****     SmartIO_PORT->CTL = regVal | (((uint32_t)(clockSrc << SMARTIO_PRT_CTL_CLOCK_SRC_Pos) 
 335              		.loc 1 214 0
 336 0010 0002     		lsls	r0, r0, #8
 337              	.LVL11:
 215:Generated_Source\PSoC6/SmartIO.c ****                                     & SMARTIO_PRT_CTL_CLOCK_SRC_Msk));
 338              		.loc 1 215 0
 339 0012 F822     		movs	r2, #248
 340 0014 5201     		lsls	r2, r2, #5
 341 0016 1040     		ands	r0, r2
 214:Generated_Source\PSoC6/SmartIO.c ****     SmartIO_PORT->CTL = regVal | (((uint32_t)(clockSrc << SMARTIO_PRT_CTL_CLOCK_SRC_Pos) 
 342              		.loc 1 214 0
 343 0018 0843     		orrs	r0, r1
 344 001a 1860     		str	r0, [r3]
 345              	.LBB64:
 346              	.LBB65:
 608:Generated_Source\PSoC6/SmartIO.h **** }
 347              		.loc 2 608 0
 348 001c 1A68     		ldr	r2, [r3]
 349 001e 8021     		movs	r1, #128
 350              	.LVL12:
 351 0020 0906     		lsls	r1, r1, #24
ARM GAS  C:\Users\ikomb\AppData\Local\Temp\cce6w8IH.s 			page 22


 352 0022 0A43     		orrs	r2, r1
 353 0024 1A60     		str	r2, [r3]
 354              	.LBE65:
 355              	.LBE64:
 216:Generated_Source\PSoC6/SmartIO.c ****     /* Re-enable the block */
 217:Generated_Source\PSoC6/SmartIO.c ****     SmartIO_Enable();
 218:Generated_Source\PSoC6/SmartIO.c **** }
 356              		.loc 1 218 0
 357              		@ sp needed
 358 0026 7047     		bx	lr
 359              	.L17:
 360              		.align	2
 361              	.L16:
 362 0028 00093340 		.word	1077086464
 363 002c FFE0FFFF 		.word	-7937
 364              		.cfi_endproc
 365              	.LFE43:
 366              		.size	SmartIO_ClockSelect, .-SmartIO_ClockSelect
 367              		.section	.text.SmartIO_HoldOverride,"ax",%progbits
 368              		.align	2
 369              		.global	SmartIO_HoldOverride
 370              		.code	16
 371              		.thumb_func
 372              		.type	SmartIO_HoldOverride, %function
 373              	SmartIO_HoldOverride:
 374              	.LFB44:
 219:Generated_Source\PSoC6/SmartIO.c **** 
 220:Generated_Source\PSoC6/SmartIO.c **** 
 221:Generated_Source\PSoC6/SmartIO.c **** /*******************************************************************************
 222:Generated_Source\PSoC6/SmartIO.c **** * Function Name: SmartIO_HoldOverride
 223:Generated_Source\PSoC6/SmartIO.c **** ****************************************************************************//**
 224:Generated_Source\PSoC6/SmartIO.c **** *
 225:Generated_Source\PSoC6/SmartIO.c **** * \brief Controls the port's chip hibernate mode override. 
 226:Generated_Source\PSoC6/SmartIO.c **** *
 227:Generated_Source\PSoC6/SmartIO.c **** * This function should be used when the block is desired to be operational
 228:Generated_Source\PSoC6/SmartIO.c **** * during chip deep-sleep or hibernate mode. The override functionality allows 
 229:Generated_Source\PSoC6/SmartIO.c **** * the port with SmartIO component to be operational during these modes. When
 230:Generated_Source\PSoC6/SmartIO.c **** * in chip active/sleep modes, the hold override functionality should be disabled.
 231:Generated_Source\PSoC6/SmartIO.c **** *
 232:Generated_Source\PSoC6/SmartIO.c **** * \param ovCtrl
 233:Generated_Source\PSoC6/SmartIO.c **** *  Hold override control. Valid options are documented in \ref hldOvrConst.
 234:Generated_Source\PSoC6/SmartIO.c **** * 
 235:Generated_Source\PSoC6/SmartIO.c **** * \sideeffect
 236:Generated_Source\PSoC6/SmartIO.c **** *  This function disables the block for reconfiguration. During this time,
 237:Generated_Source\PSoC6/SmartIO.c **** *  all signals on the port will be bypassed. All peripheral and gpio signals
 238:Generated_Source\PSoC6/SmartIO.c **** *  must be stopped or properly handled to account for the bypass state.
 239:Generated_Source\PSoC6/SmartIO.c **** *
 240:Generated_Source\PSoC6/SmartIO.c **** * \funcusage
 241:Generated_Source\PSoC6/SmartIO.c **** *  \snippet SmartIO_SUT.c usage_SmartIO_HoldOverride
 242:Generated_Source\PSoC6/SmartIO.c **** *******************************************************************************/
 243:Generated_Source\PSoC6/SmartIO.c **** void SmartIO_HoldOverride(uint32_t ovCtrl)
 244:Generated_Source\PSoC6/SmartIO.c **** {
 375              		.loc 1 244 0
 376              		.cfi_startproc
 377              		@ args = 0, pretend = 0, frame = 0
 378              		@ frame_needed = 0, uses_anonymous_args = 0
 379              		@ link register save eliminated.
ARM GAS  C:\Users\ikomb\AppData\Local\Temp\cce6w8IH.s 			page 23


 380              	.LVL13:
 381              	.LBB66:
 382              	.LBB67:
 383              		.loc 2 626 0
 384 0000 0C4A     		ldr	r2, .L21
 385 0002 1368     		ldr	r3, [r2]
 386 0004 5B00     		lsls	r3, r3, #1
 387 0006 5B08     		lsrs	r3, r3, #1
 388 0008 1360     		str	r3, [r2]
 389              	.LBE67:
 390              	.LBE66:
 245:Generated_Source\PSoC6/SmartIO.c ****     /* Must disable the block before configuring */
 246:Generated_Source\PSoC6/SmartIO.c ****     SmartIO_Disable();
 247:Generated_Source\PSoC6/SmartIO.c ****     /* Set hold override mode */
 248:Generated_Source\PSoC6/SmartIO.c ****     if (ovCtrl == SmartIO_OVCTRL_ENABLE)
 391              		.loc 1 248 0
 392 000a 0128     		cmp	r0, #1
 393 000c 05D1     		bne	.L19
 249:Generated_Source\PSoC6/SmartIO.c ****     {
 250:Generated_Source\PSoC6/SmartIO.c ****         SmartIO_PORT->CTL |= SmartIO_HLD_OVR_SMARTIO;
 394              		.loc 1 250 0
 395 000e 1368     		ldr	r3, [r2]
 396 0010 8021     		movs	r1, #128
 397 0012 4904     		lsls	r1, r1, #17
 398 0014 0B43     		orrs	r3, r1
 399 0016 1360     		str	r3, [r2]
 400 0018 04E0     		b	.L20
 401              	.L19:
 251:Generated_Source\PSoC6/SmartIO.c ****     }    
 252:Generated_Source\PSoC6/SmartIO.c ****     else
 253:Generated_Source\PSoC6/SmartIO.c ****     {
 254:Generated_Source\PSoC6/SmartIO.c ****         SmartIO_PORT->CTL &= SmartIO_HLD_OVR_HSIOM;
 402              		.loc 1 254 0
 403 001a 064A     		ldr	r2, .L21
 404 001c 1168     		ldr	r1, [r2]
 405 001e 064B     		ldr	r3, .L21+4
 406 0020 0B40     		ands	r3, r1
 407 0022 1360     		str	r3, [r2]
 408              	.L20:
 409              	.LBB68:
 410              	.LBB69:
 608:Generated_Source\PSoC6/SmartIO.h **** }
 411              		.loc 2 608 0
 412 0024 034A     		ldr	r2, .L21
 413 0026 1368     		ldr	r3, [r2]
 414 0028 8021     		movs	r1, #128
 415 002a 0906     		lsls	r1, r1, #24
 416 002c 0B43     		orrs	r3, r1
 417 002e 1360     		str	r3, [r2]
 418              	.LBE69:
 419              	.LBE68:
 255:Generated_Source\PSoC6/SmartIO.c ****     }
 256:Generated_Source\PSoC6/SmartIO.c ****     /* Re-enable the block */
 257:Generated_Source\PSoC6/SmartIO.c ****     SmartIO_Enable();
 258:Generated_Source\PSoC6/SmartIO.c **** }
 420              		.loc 1 258 0
 421              		@ sp needed
ARM GAS  C:\Users\ikomb\AppData\Local\Temp\cce6w8IH.s 			page 24


 422 0030 7047     		bx	lr
 423              	.L22:
 424 0032 C046     		.align	2
 425              	.L21:
 426 0034 00093340 		.word	1077086464
 427 0038 FFFFFFFE 		.word	-16777217
 428              		.cfi_endproc
 429              	.LFE44:
 430              		.size	SmartIO_HoldOverride, .-SmartIO_HoldOverride
 431              		.section	.text.SmartIO_IoSyncMode,"ax",%progbits
 432              		.align	2
 433              		.global	SmartIO_IoSyncMode
 434              		.code	16
 435              		.thumb_func
 436              		.type	SmartIO_IoSyncMode, %function
 437              	SmartIO_IoSyncMode:
 438              	.LFB45:
 259:Generated_Source\PSoC6/SmartIO.c **** 
 260:Generated_Source\PSoC6/SmartIO.c **** 
 261:Generated_Source\PSoC6/SmartIO.c **** /*******************************************************************************
 262:Generated_Source\PSoC6/SmartIO.c **** * Function Name: SmartIO_IoSyncMode
 263:Generated_Source\PSoC6/SmartIO.c **** ****************************************************************************//**
 264:Generated_Source\PSoC6/SmartIO.c **** *
 265:Generated_Source\PSoC6/SmartIO.c **** * \brief Controls synchronization of signals coming from I/O Pin. 
 266:Generated_Source\PSoC6/SmartIO.c **** *
 267:Generated_Source\PSoC6/SmartIO.c **** * The synchronization is performed using the component clock. Synchronization 
 268:Generated_Source\PSoC6/SmartIO.c **** * should not be used if the component is configured to operate in asynchronous
 269:Generated_Source\PSoC6/SmartIO.c **** * mode.
 270:Generated_Source\PSoC6/SmartIO.c **** *
 271:Generated_Source\PSoC6/SmartIO.c **** * <b>Note</b> This function impacts all gpio terminals on the port. It will 
 272:Generated_Source\PSoC6/SmartIO.c **** * write over the synchronization configuration of all the gpio terminals. 
 273:Generated_Source\PSoC6/SmartIO.c **** *
 274:Generated_Source\PSoC6/SmartIO.c **** * \param portTerm
 275:Generated_Source\PSoC6/SmartIO.c **** *  The terminal location on the port. If the bit value is 0, the terminal is
 276:Generated_Source\PSoC6/SmartIO.c **** *  not synchronized; if the bit value is 1, the terminal is synchronized.
 277:Generated_Source\PSoC6/SmartIO.c **** *  Valid options are documented in \ref termConst. These should be ORed to 
 278:Generated_Source\PSoC6/SmartIO.c **** *  configure multiple terminals.
 279:Generated_Source\PSoC6/SmartIO.c **** * 
 280:Generated_Source\PSoC6/SmartIO.c **** * \sideeffect
 281:Generated_Source\PSoC6/SmartIO.c **** *  This function disables the block for reconfiguration. During this time,
 282:Generated_Source\PSoC6/SmartIO.c **** *  all signals on the port will be bypassed. All peripheral and gpio signals
 283:Generated_Source\PSoC6/SmartIO.c **** *  must be stopped or properly handled to account for the bypass state.
 284:Generated_Source\PSoC6/SmartIO.c **** *
 285:Generated_Source\PSoC6/SmartIO.c **** * \funcusage
 286:Generated_Source\PSoC6/SmartIO.c **** *  \snippet SmartIO_SUT.c usage_SmartIO_IoSyncMode
 287:Generated_Source\PSoC6/SmartIO.c **** *******************************************************************************/
 288:Generated_Source\PSoC6/SmartIO.c **** void SmartIO_IoSyncMode(uint32_t portTerm)
 289:Generated_Source\PSoC6/SmartIO.c **** {
 439              		.loc 1 289 0
 440              		.cfi_startproc
 441              		@ args = 0, pretend = 0, frame = 0
 442              		@ frame_needed = 0, uses_anonymous_args = 0
 443              		@ link register save eliminated.
 444              	.LVL14:
 445              	.LBB70:
 446              	.LBB71:
 447              		.loc 2 626 0
ARM GAS  C:\Users\ikomb\AppData\Local\Temp\cce6w8IH.s 			page 25


 448 0000 084B     		ldr	r3, .L24
 449 0002 1A68     		ldr	r2, [r3]
 450 0004 5200     		lsls	r2, r2, #1
 451 0006 5208     		lsrs	r2, r2, #1
 452 0008 1A60     		str	r2, [r3]
 453              	.LBE71:
 454              	.LBE70:
 290:Generated_Source\PSoC6/SmartIO.c ****     uint32_t regVal;
 291:Generated_Source\PSoC6/SmartIO.c ****     
 292:Generated_Source\PSoC6/SmartIO.c ****     /* Must disable the block before configuring */
 293:Generated_Source\PSoC6/SmartIO.c ****     SmartIO_Disable();
 294:Generated_Source\PSoC6/SmartIO.c ****     /* Configure the IO synchronization */
 295:Generated_Source\PSoC6/SmartIO.c ****     regVal = SmartIO_PORT->SYNC_CTL & SmartIO_IO_SYNC_CLEAR;
 455              		.loc 1 295 0
 456 000a 1A69     		ldr	r2, [r3, #16]
 457 000c FF21     		movs	r1, #255
 458 000e 8A43     		bics	r2, r1
 459              	.LVL15:
 296:Generated_Source\PSoC6/SmartIO.c ****     SmartIO_PORT->SYNC_CTL = regVal | (((uint32_t)(portTerm << SMARTIO_PRT_SYNC_CTL_IO_SYNC_EN_Pos)
 297:Generated_Source\PSoC6/SmartIO.c ****                                          & SMARTIO_PRT_SYNC_CTL_IO_SYNC_EN_Msk);
 460              		.loc 1 297 0
 461 0010 0840     		ands	r0, r1
 462              	.LVL16:
 296:Generated_Source\PSoC6/SmartIO.c ****     SmartIO_PORT->SYNC_CTL = regVal | (((uint32_t)(portTerm << SMARTIO_PRT_SYNC_CTL_IO_SYNC_EN_Pos)
 463              		.loc 1 296 0
 464 0012 1043     		orrs	r0, r2
 465 0014 1861     		str	r0, [r3, #16]
 466              	.LBB72:
 467              	.LBB73:
 608:Generated_Source\PSoC6/SmartIO.h **** }
 468              		.loc 2 608 0
 469 0016 1A68     		ldr	r2, [r3]
 470              	.LVL17:
 471 0018 8021     		movs	r1, #128
 472 001a 0906     		lsls	r1, r1, #24
 473 001c 0A43     		orrs	r2, r1
 474 001e 1A60     		str	r2, [r3]
 475              	.LBE73:
 476              	.LBE72:
 298:Generated_Source\PSoC6/SmartIO.c ****     /* Re-enable the block */
 299:Generated_Source\PSoC6/SmartIO.c ****     SmartIO_Enable();
 300:Generated_Source\PSoC6/SmartIO.c **** }
 477              		.loc 1 300 0
 478              		@ sp needed
 479 0020 7047     		bx	lr
 480              	.L25:
 481 0022 C046     		.align	2
 482              	.L24:
 483 0024 00093340 		.word	1077086464
 484              		.cfi_endproc
 485              	.LFE45:
 486              		.size	SmartIO_IoSyncMode, .-SmartIO_IoSyncMode
 487              		.section	.text.SmartIO_ChipSyncMode,"ax",%progbits
 488              		.align	2
 489              		.global	SmartIO_ChipSyncMode
 490              		.code	16
 491              		.thumb_func
ARM GAS  C:\Users\ikomb\AppData\Local\Temp\cce6w8IH.s 			page 26


 492              		.type	SmartIO_ChipSyncMode, %function
 493              	SmartIO_ChipSyncMode:
 494              	.LFB46:
 301:Generated_Source\PSoC6/SmartIO.c **** 
 302:Generated_Source\PSoC6/SmartIO.c **** 
 303:Generated_Source\PSoC6/SmartIO.c **** /*******************************************************************************
 304:Generated_Source\PSoC6/SmartIO.c **** * Function Name: SmartIO_ChipSyncMode
 305:Generated_Source\PSoC6/SmartIO.c **** ****************************************************************************//**
 306:Generated_Source\PSoC6/SmartIO.c **** *
 307:Generated_Source\PSoC6/SmartIO.c **** * \brief Controls synchronization of signals coming from chip to the component. 
 308:Generated_Source\PSoC6/SmartIO.c **** *
 309:Generated_Source\PSoC6/SmartIO.c **** * The synchronization is performed using the component clock. Synchronization 
 310:Generated_Source\PSoC6/SmartIO.c **** * should not be used if the component is configured to operate in asynchronous
 311:Generated_Source\PSoC6/SmartIO.c **** * mode.
 312:Generated_Source\PSoC6/SmartIO.c **** *
 313:Generated_Source\PSoC6/SmartIO.c **** * <b>Note</b> This function impacts all data terminals on the port. It will 
 314:Generated_Source\PSoC6/SmartIO.c **** * write over the synchronization configuration of all the data terminals. 
 315:Generated_Source\PSoC6/SmartIO.c **** *
 316:Generated_Source\PSoC6/SmartIO.c **** * \param portTerm
 317:Generated_Source\PSoC6/SmartIO.c **** *  The terminal location on the port. If the bit value is 0, the terminal is
 318:Generated_Source\PSoC6/SmartIO.c **** *  not synchronized; if the bit value is 1, the terminal is synchronized.
 319:Generated_Source\PSoC6/SmartIO.c **** *  Valid options are documented in \ref termConst. These should be ORed to 
 320:Generated_Source\PSoC6/SmartIO.c **** *  configure multiple terminals.
 321:Generated_Source\PSoC6/SmartIO.c **** * 
 322:Generated_Source\PSoC6/SmartIO.c **** * \sideeffect
 323:Generated_Source\PSoC6/SmartIO.c **** *  This function disables the block for reconfiguration. During this time,
 324:Generated_Source\PSoC6/SmartIO.c **** *  all signals on the port will be bypassed. All peripheral and gpio signals
 325:Generated_Source\PSoC6/SmartIO.c **** *  must be stopped or properly handled to account for the bypass state.
 326:Generated_Source\PSoC6/SmartIO.c **** *
 327:Generated_Source\PSoC6/SmartIO.c **** * \funcusage
 328:Generated_Source\PSoC6/SmartIO.c **** *  \snippet SmartIO_SUT.c usage_SmartIO_ChipSyncMode
 329:Generated_Source\PSoC6/SmartIO.c **** *******************************************************************************/
 330:Generated_Source\PSoC6/SmartIO.c **** void SmartIO_ChipSyncMode(uint32_t portTerm)
 331:Generated_Source\PSoC6/SmartIO.c **** {
 495              		.loc 1 331 0
 496              		.cfi_startproc
 497              		@ args = 0, pretend = 0, frame = 0
 498              		@ frame_needed = 0, uses_anonymous_args = 0
 499              		@ link register save eliminated.
 500              	.LVL18:
 501              	.LBB74:
 502              	.LBB75:
 503              		.loc 2 626 0
 504 0000 084B     		ldr	r3, .L27
 505 0002 1A68     		ldr	r2, [r3]
 506 0004 5200     		lsls	r2, r2, #1
 507 0006 5208     		lsrs	r2, r2, #1
 508 0008 1A60     		str	r2, [r3]
 509              	.LBE75:
 510              	.LBE74:
 332:Generated_Source\PSoC6/SmartIO.c ****     uint32_t regVal;
 333:Generated_Source\PSoC6/SmartIO.c ****     
 334:Generated_Source\PSoC6/SmartIO.c ****     /* Must disable the block before configuring */
 335:Generated_Source\PSoC6/SmartIO.c ****     SmartIO_Disable();
 336:Generated_Source\PSoC6/SmartIO.c ****     /* Configure the Chip data synchronization */
 337:Generated_Source\PSoC6/SmartIO.c ****     regVal = SmartIO_PORT->SYNC_CTL & SmartIO_DATA_SYNC_CLEAR;
 511              		.loc 1 337 0
ARM GAS  C:\Users\ikomb\AppData\Local\Temp\cce6w8IH.s 			page 27


 512 000a 1969     		ldr	r1, [r3, #16]
 513 000c 064A     		ldr	r2, .L27+4
 514 000e 0A40     		ands	r2, r1
 515              	.LVL19:
 338:Generated_Source\PSoC6/SmartIO.c ****     SmartIO_PORT->SYNC_CTL = regVal | (((uint32_t)(portTerm << SMARTIO_PRT_SYNC_CTL_CHIP_SYNC_EN_Po
 339:Generated_Source\PSoC6/SmartIO.c ****                                         & SMARTIO_PRT_SYNC_CTL_CHIP_SYNC_EN_Msk);
 516              		.loc 1 339 0
 517 0010 0006     		lsls	r0, r0, #24
 518              	.LVL20:
 519 0012 000C     		lsrs	r0, r0, #16
 338:Generated_Source\PSoC6/SmartIO.c ****     SmartIO_PORT->SYNC_CTL = regVal | (((uint32_t)(portTerm << SMARTIO_PRT_SYNC_CTL_CHIP_SYNC_EN_Po
 520              		.loc 1 338 0
 521 0014 1043     		orrs	r0, r2
 522 0016 1861     		str	r0, [r3, #16]
 523              	.LBB76:
 524              	.LBB77:
 608:Generated_Source\PSoC6/SmartIO.h **** }
 525              		.loc 2 608 0
 526 0018 1A68     		ldr	r2, [r3]
 527              	.LVL21:
 528 001a 8021     		movs	r1, #128
 529              	.LVL22:
 530 001c 0906     		lsls	r1, r1, #24
 531 001e 0A43     		orrs	r2, r1
 532 0020 1A60     		str	r2, [r3]
 533              	.LBE77:
 534              	.LBE76:
 340:Generated_Source\PSoC6/SmartIO.c ****     /* Re-enable the block */
 341:Generated_Source\PSoC6/SmartIO.c ****     SmartIO_Enable();
 342:Generated_Source\PSoC6/SmartIO.c **** }
 535              		.loc 1 342 0
 536              		@ sp needed
 537 0022 7047     		bx	lr
 538              	.L28:
 539              		.align	2
 540              	.L27:
 541 0024 00093340 		.word	1077086464
 542 0028 FF00FFFF 		.word	-65281
 543              		.cfi_endproc
 544              	.LFE46:
 545              		.size	SmartIO_ChipSyncMode, .-SmartIO_ChipSyncMode
 546              		.section	.text.SmartIO_LUT_SelectInputs,"ax",%progbits
 547              		.align	2
 548              		.global	SmartIO_LUT_SelectInputs
 549              		.code	16
 550              		.thumb_func
 551              		.type	SmartIO_LUT_SelectInputs, %function
 552              	SmartIO_LUT_SelectInputs:
 553              	.LFB47:
 343:Generated_Source\PSoC6/SmartIO.c **** 
 344:Generated_Source\PSoC6/SmartIO.c **** 
 345:Generated_Source\PSoC6/SmartIO.c **** /*******************************************************************************
 346:Generated_Source\PSoC6/SmartIO.c **** * Function Name: SmartIO_LUT_SelectInputs
 347:Generated_Source\PSoC6/SmartIO.c **** ****************************************************************************//**
 348:Generated_Source\PSoC6/SmartIO.c **** *
 349:Generated_Source\PSoC6/SmartIO.c **** * \brief This function is used to select individual inputs to the specified LUT. 
 350:Generated_Source\PSoC6/SmartIO.c **** * 
ARM GAS  C:\Users\ikomb\AppData\Local\Temp\cce6w8IH.s 			page 28


 351:Generated_Source\PSoC6/SmartIO.c **** * <b>Note</b> The selections are different for the upper and lower nibbles.
 352:Generated_Source\PSoC6/SmartIO.c **** * See the LUT input parameters and Functional Description section in the
 353:Generated_Source\PSoC6/SmartIO.c **** * component datasheet for more information.
 354:Generated_Source\PSoC6/SmartIO.c **** *
 355:Generated_Source\PSoC6/SmartIO.c **** * \param lutNum
 356:Generated_Source\PSoC6/SmartIO.c **** *  LUT number. Valid options are documented in \ref lutNumConst.
 357:Generated_Source\PSoC6/SmartIO.c **** *
 358:Generated_Source\PSoC6/SmartIO.c **** * \param inputNum
 359:Generated_Source\PSoC6/SmartIO.c **** *  The input number (input0, input1, input2). Valid options are documented 
 360:Generated_Source\PSoC6/SmartIO.c **** *  in \ref inputNumConst. Note that LUT input0 does not accept LUT0 output as
 361:Generated_Source\PSoC6/SmartIO.c **** *  an input.
 362:Generated_Source\PSoC6/SmartIO.c **** *
 363:Generated_Source\PSoC6/SmartIO.c **** * \param inputSrc
 364:Generated_Source\PSoC6/SmartIO.c **** *  The source of the LUT input. Valid options are documented in
 365:Generated_Source\PSoC6/SmartIO.c **** *  \ref inputSrcConst.
 366:Generated_Source\PSoC6/SmartIO.c **** *
 367:Generated_Source\PSoC6/SmartIO.c **** * \return 
 368:Generated_Source\PSoC6/SmartIO.c **** *  Status of the LUT input selection.
 369:Generated_Source\PSoC6/SmartIO.c **** *   Status          | Description
 370:Generated_Source\PSoC6/SmartIO.c **** *   ----------------|--------------------
 371:Generated_Source\PSoC6/SmartIO.c **** *   CY_RET_SUCCESS   | Write successful
 372:Generated_Source\PSoC6/SmartIO.c **** *   CY_RET_BAD_PARAM | Invalid parameter
 373:Generated_Source\PSoC6/SmartIO.c **** * 
 374:Generated_Source\PSoC6/SmartIO.c **** * \sideeffect
 375:Generated_Source\PSoC6/SmartIO.c **** *  This function disables the block for reconfiguration. During this time,
 376:Generated_Source\PSoC6/SmartIO.c **** *  all signals on the port will be bypassed. All peripheral and gpio signals
 377:Generated_Source\PSoC6/SmartIO.c **** *  must be stopped or properly handled to account for the bypass state.
 378:Generated_Source\PSoC6/SmartIO.c **** *
 379:Generated_Source\PSoC6/SmartIO.c **** * \funcusage
 380:Generated_Source\PSoC6/SmartIO.c **** *  \snippet SmartIO_SUT.c usage_SmartIO_LUT_SelectInputs
 381:Generated_Source\PSoC6/SmartIO.c **** *******************************************************************************/
 382:Generated_Source\PSoC6/SmartIO.c **** cy_status SmartIO_LUT_SelectInputs(uint32_t lutNum, uint32_t inputNum, uint32_t inputSrc)
 383:Generated_Source\PSoC6/SmartIO.c **** {
 554              		.loc 1 383 0
 555              		.cfi_startproc
 556              		@ args = 0, pretend = 0, frame = 0
 557              		@ frame_needed = 0, uses_anonymous_args = 0
 558              	.LVL23:
 559 0000 30B5     		push	{r4, r5, lr}
 560              		.cfi_def_cfa_offset 12
 561              		.cfi_offset 4, -12
 562              		.cfi_offset 5, -8
 563              		.cfi_offset 14, -4
 564              	.LVL24:
 384:Generated_Source\PSoC6/SmartIO.c ****     cy_status callStatus = CY_RET_SUCCESS;
 385:Generated_Source\PSoC6/SmartIO.c ****     uint32_t sel;
 386:Generated_Source\PSoC6/SmartIO.c **** 
 387:Generated_Source\PSoC6/SmartIO.c ****     /* Input validation */
 388:Generated_Source\PSoC6/SmartIO.c ****     if((inputSrc == SmartIO_SRC_LUT0) && ((inputNum & SmartIO_LUT_INPUT0) == SmartIO_LUT_INPUT0))
 565              		.loc 1 388 0
 566 0002 002A     		cmp	r2, #0
 567 0004 03D1     		bne	.L39
 568              		.loc 1 388 0 is_stmt 0 discriminator 1
 569 0006 CB07     		lsls	r3, r1, #31
 570 0008 03D4     		bmi	.L40
 384:Generated_Source\PSoC6/SmartIO.c ****     cy_status callStatus = CY_RET_SUCCESS;
 571              		.loc 1 384 0 is_stmt 1
ARM GAS  C:\Users\ikomb\AppData\Local\Temp\cce6w8IH.s 			page 29


 572 000a 0025     		movs	r5, #0
 573 000c 02E0     		b	.L30
 574              	.L39:
 575 000e 0025     		movs	r5, #0
 576 0010 00E0     		b	.L30
 577              	.L40:
 389:Generated_Source\PSoC6/SmartIO.c ****     {
 390:Generated_Source\PSoC6/SmartIO.c ****         /* LUT input0 does not support LUT0 as an input */
 391:Generated_Source\PSoC6/SmartIO.c ****         callStatus = CY_RET_BAD_PARAM;
 578              		.loc 1 391 0
 579 0012 0125     		movs	r5, #1
 580              	.L30:
 581              	.LVL25:
 392:Generated_Source\PSoC6/SmartIO.c ****     }
 393:Generated_Source\PSoC6/SmartIO.c ****     if((inputSrc == SmartIO_SRC_DU) && ((inputNum & (SmartIO_LUT_INPUT1 | SmartIO_LUT_INPUT2)) != 0
 582              		.loc 1 393 0
 583 0014 102A     		cmp	r2, #16
 584 0016 03D1     		bne	.L31
 585              		.loc 1 393 0 is_stmt 0 discriminator 1
 586 0018 0623     		movs	r3, #6
 587 001a 0B42     		tst	r3, r1
 588 001c 00D0     		beq	.L31
 394:Generated_Source\PSoC6/SmartIO.c ****     {
 395:Generated_Source\PSoC6/SmartIO.c ****         /* LUT input1 and input2 do not support DU output as an input */
 396:Generated_Source\PSoC6/SmartIO.c ****         callStatus = CY_RET_BAD_PARAM;
 589              		.loc 1 396 0 is_stmt 1
 590 001e 0125     		movs	r5, #1
 591              	.LVL26:
 592              	.L31:
 397:Generated_Source\PSoC6/SmartIO.c ****     }
 398:Generated_Source\PSoC6/SmartIO.c ****     
 399:Generated_Source\PSoC6/SmartIO.c ****     /* Configure LUT selection */
 400:Generated_Source\PSoC6/SmartIO.c ****     if (callStatus != CY_RET_BAD_PARAM)
 593              		.loc 1 400 0
 594 0020 012D     		cmp	r5, #1
 595 0022 43D0     		beq	.L32
 596              	.LBB78:
 597              	.LBB79:
 598              		.loc 2 626 0
 599 0024 224C     		ldr	r4, .L43
 600 0026 2368     		ldr	r3, [r4]
 601 0028 5B00     		lsls	r3, r3, #1
 602 002a 5B08     		lsrs	r3, r3, #1
 603 002c 2360     		str	r3, [r4]
 604              	.LBE79:
 605              	.LBE78:
 401:Generated_Source\PSoC6/SmartIO.c ****     {
 402:Generated_Source\PSoC6/SmartIO.c ****         /* Must disable the block before configuring */
 403:Generated_Source\PSoC6/SmartIO.c ****         SmartIO_Disable();
 404:Generated_Source\PSoC6/SmartIO.c ****         
 405:Generated_Source\PSoC6/SmartIO.c ****         sel = SmartIO_PORT->LUT_SEL[lutNum];
 606              		.loc 1 405 0
 607 002e 0300     		movs	r3, r0
 608 0030 0833     		adds	r3, r3, #8
 609 0032 9B00     		lsls	r3, r3, #2
 610 0034 1C59     		ldr	r4, [r3, r4]
 611              	.LVL27:
ARM GAS  C:\Users\ikomb\AppData\Local\Temp\cce6w8IH.s 			page 30


 406:Generated_Source\PSoC6/SmartIO.c ****         switch(inputNum)
 612              		.loc 1 406 0
 613 0036 0229     		cmp	r1, #2
 614 0038 0DD0     		beq	.L34
 615 003a 02D8     		bhi	.L35
 616 003c 0129     		cmp	r1, #1
 617 003e 05D0     		beq	.L36
 618 0040 29E0     		b	.L42
 619              	.L35:
 620 0042 0429     		cmp	r1, #4
 621 0044 0FD0     		beq	.L37
 622 0046 0729     		cmp	r1, #7
 623 0048 15D0     		beq	.L38
 624 004a 24E0     		b	.L42
 625              	.L36:
 407:Generated_Source\PSoC6/SmartIO.c ****         {
 408:Generated_Source\PSoC6/SmartIO.c ****             case SmartIO_LUT_INPUT0:
 409:Generated_Source\PSoC6/SmartIO.c ****                 sel = (sel & SmartIO_LUT_TR0_CLEAR) 
 626              		.loc 1 409 0
 627 004c 0F23     		movs	r3, #15
 628 004e 9C43     		bics	r4, r3
 629              	.LVL28:
 410:Generated_Source\PSoC6/SmartIO.c ****                         | ((uint32_t)(inputSrc << SMARTIO_PRT_LUT_SEL_LUT_TR0_SEL_Pos) & SMARTIO_PR
 630              		.loc 1 410 0
 631 0050 1A40     		ands	r2, r3
 632              	.LVL29:
 409:Generated_Source\PSoC6/SmartIO.c ****                         | ((uint32_t)(inputSrc << SMARTIO_PRT_LUT_SEL_LUT_TR0_SEL_Pos) & SMARTIO_PR
 633              		.loc 1 409 0
 634 0052 1443     		orrs	r4, r2
 635              	.LVL30:
 411:Generated_Source\PSoC6/SmartIO.c ****                 break;
 636              		.loc 1 411 0
 637 0054 20E0     		b	.L33
 638              	.LVL31:
 639              	.L34:
 412:Generated_Source\PSoC6/SmartIO.c ****             case SmartIO_LUT_INPUT1:
 413:Generated_Source\PSoC6/SmartIO.c ****                 sel = (sel & SmartIO_LUT_TR1_CLEAR) 
 640              		.loc 1 413 0
 641 0056 174B     		ldr	r3, .L43+4
 642 0058 1C40     		ands	r4, r3
 643              	.LVL32:
 414:Generated_Source\PSoC6/SmartIO.c ****                         | ((uint32_t)(inputSrc << SMARTIO_PRT_LUT_SEL_LUT_TR1_SEL_Pos) & SMARTIO_PR
 644              		.loc 1 414 0
 645 005a 1202     		lsls	r2, r2, #8
 646              	.LVL33:
 647 005c F023     		movs	r3, #240
 648 005e 1B01     		lsls	r3, r3, #4
 649 0060 1A40     		ands	r2, r3
 413:Generated_Source\PSoC6/SmartIO.c ****                         | ((uint32_t)(inputSrc << SMARTIO_PRT_LUT_SEL_LUT_TR1_SEL_Pos) & SMARTIO_PR
 650              		.loc 1 413 0
 651 0062 1443     		orrs	r4, r2
 652              	.LVL34:
 415:Generated_Source\PSoC6/SmartIO.c ****                 break;
 653              		.loc 1 415 0
 654 0064 18E0     		b	.L33
 655              	.LVL35:
 656              	.L37:
ARM GAS  C:\Users\ikomb\AppData\Local\Temp\cce6w8IH.s 			page 31


 416:Generated_Source\PSoC6/SmartIO.c ****             case SmartIO_LUT_INPUT2:
 417:Generated_Source\PSoC6/SmartIO.c ****                 sel = (sel & SmartIO_LUT_TR2_CLEAR)
 657              		.loc 1 417 0
 658 0066 144B     		ldr	r3, .L43+8
 659 0068 1C40     		ands	r4, r3
 660              	.LVL36:
 418:Generated_Source\PSoC6/SmartIO.c ****                         | ((uint32_t)(inputSrc << SMARTIO_PRT_LUT_SEL_LUT_TR2_SEL_Pos) & SMARTIO_PR
 661              		.loc 1 418 0
 662 006a 1204     		lsls	r2, r2, #16
 663              	.LVL37:
 664 006c F023     		movs	r3, #240
 665 006e 1B03     		lsls	r3, r3, #12
 666 0070 1A40     		ands	r2, r3
 417:Generated_Source\PSoC6/SmartIO.c ****                         | ((uint32_t)(inputSrc << SMARTIO_PRT_LUT_SEL_LUT_TR2_SEL_Pos) & SMARTIO_PR
 667              		.loc 1 417 0
 668 0072 1443     		orrs	r4, r2
 669              	.LVL38:
 419:Generated_Source\PSoC6/SmartIO.c ****                 break;
 670              		.loc 1 419 0
 671 0074 10E0     		b	.L33
 672              	.LVL39:
 673              	.L38:
 420:Generated_Source\PSoC6/SmartIO.c ****             case SmartIO_LUT_INPUT_ALL:
 421:Generated_Source\PSoC6/SmartIO.c ****                 sel = (sel & SmartIO_LUT_TR_CLEAR_ALL) 
 674              		.loc 1 421 0
 675 0076 114B     		ldr	r3, .L43+12
 676 0078 1C40     		ands	r4, r3
 677              	.LVL40:
 422:Generated_Source\PSoC6/SmartIO.c ****                         | ((uint32_t)(inputSrc << SMARTIO_PRT_LUT_SEL_LUT_TR0_SEL_Pos) & SMARTIO_PR
 678              		.loc 1 422 0
 679 007a 0F23     		movs	r3, #15
 680 007c 1340     		ands	r3, r2
 681 007e 1C43     		orrs	r4, r3
 423:Generated_Source\PSoC6/SmartIO.c ****                         | ((uint32_t)(inputSrc << SMARTIO_PRT_LUT_SEL_LUT_TR1_SEL_Pos) & SMARTIO_PR
 682              		.loc 1 423 0
 683 0080 1102     		lsls	r1, r2, #8
 684              	.LVL41:
 685 0082 F023     		movs	r3, #240
 686 0084 1B01     		lsls	r3, r3, #4
 687 0086 0B40     		ands	r3, r1
 688 0088 1C43     		orrs	r4, r3
 424:Generated_Source\PSoC6/SmartIO.c ****                         | ((uint32_t)(inputSrc << SMARTIO_PRT_LUT_SEL_LUT_TR2_SEL_Pos) & SMARTIO_PR
 689              		.loc 1 424 0
 690 008a 1204     		lsls	r2, r2, #16
 691              	.LVL42:
 692 008c F023     		movs	r3, #240
 693 008e 1B03     		lsls	r3, r3, #12
 694 0090 1A40     		ands	r2, r3
 421:Generated_Source\PSoC6/SmartIO.c ****                         | ((uint32_t)(inputSrc << SMARTIO_PRT_LUT_SEL_LUT_TR0_SEL_Pos) & SMARTIO_PR
 695              		.loc 1 421 0
 696 0092 1443     		orrs	r4, r2
 697              	.LVL43:
 425:Generated_Source\PSoC6/SmartIO.c ****                 break;
 698              		.loc 1 425 0
 699 0094 00E0     		b	.L33
 700              	.LVL44:
 701              	.L42:
ARM GAS  C:\Users\ikomb\AppData\Local\Temp\cce6w8IH.s 			page 32


 426:Generated_Source\PSoC6/SmartIO.c ****             default: 
 427:Generated_Source\PSoC6/SmartIO.c ****                 callStatus = CY_RET_BAD_PARAM;
 702              		.loc 1 427 0
 703 0096 0125     		movs	r5, #1
 704              	.LVL45:
 705              	.L33:
 428:Generated_Source\PSoC6/SmartIO.c ****                 break;
 429:Generated_Source\PSoC6/SmartIO.c ****         }
 430:Generated_Source\PSoC6/SmartIO.c ****         SmartIO_PORT->LUT_SEL[lutNum] = sel;
 706              		.loc 1 430 0
 707 0098 054A     		ldr	r2, .L43
 708 009a 0300     		movs	r3, r0
 709 009c 0833     		adds	r3, r3, #8
 710 009e 9B00     		lsls	r3, r3, #2
 711 00a0 9C50     		str	r4, [r3, r2]
 712              	.LBB80:
 713              	.LBB81:
 608:Generated_Source\PSoC6/SmartIO.h **** }
 714              		.loc 2 608 0
 715 00a2 1368     		ldr	r3, [r2]
 716 00a4 8021     		movs	r1, #128
 717 00a6 0906     		lsls	r1, r1, #24
 718 00a8 0B43     		orrs	r3, r1
 719 00aa 1360     		str	r3, [r2]
 720              	.LVL46:
 721              	.L32:
 722              	.LBE81:
 723              	.LBE80:
 431:Generated_Source\PSoC6/SmartIO.c ****         
 432:Generated_Source\PSoC6/SmartIO.c ****         /* Re-enable the block */
 433:Generated_Source\PSoC6/SmartIO.c ****         SmartIO_Enable();
 434:Generated_Source\PSoC6/SmartIO.c ****     }    
 435:Generated_Source\PSoC6/SmartIO.c ****     return callStatus;
 436:Generated_Source\PSoC6/SmartIO.c **** }
 724              		.loc 1 436 0
 725 00ac 2800     		movs	r0, r5
 726              	.LVL47:
 727              		@ sp needed
 728              	.LVL48:
 729 00ae 30BD     		pop	{r4, r5, pc}
 730              	.L44:
 731              		.align	2
 732              	.L43:
 733 00b0 00093340 		.word	1077086464
 734 00b4 FFF0FFFF 		.word	-3841
 735 00b8 FFFFF0FF 		.word	-983041
 736 00bc F0F0F0FF 		.word	-986896
 737              		.cfi_endproc
 738              	.LFE47:
 739              		.size	SmartIO_LUT_SelectInputs, .-SmartIO_LUT_SelectInputs
 740              		.section	.text.SmartIO_LUT_ConfigureMode,"ax",%progbits
 741              		.align	2
 742              		.global	SmartIO_LUT_ConfigureMode
 743              		.code	16
 744              		.thumb_func
 745              		.type	SmartIO_LUT_ConfigureMode, %function
 746              	SmartIO_LUT_ConfigureMode:
ARM GAS  C:\Users\ikomb\AppData\Local\Temp\cce6w8IH.s 			page 33


 747              	.LFB48:
 437:Generated_Source\PSoC6/SmartIO.c **** 
 438:Generated_Source\PSoC6/SmartIO.c **** 
 439:Generated_Source\PSoC6/SmartIO.c **** /*******************************************************************************
 440:Generated_Source\PSoC6/SmartIO.c **** * Function Name: SmartIO_LUT_ConfigureMode
 441:Generated_Source\PSoC6/SmartIO.c **** ****************************************************************************//**
 442:Generated_Source\PSoC6/SmartIO.c **** *
 443:Generated_Source\PSoC6/SmartIO.c **** * \brief This function sets the logical function of the selected LUT (based on 
 444:Generated_Source\PSoC6/SmartIO.c **** *  the 3 inputs) and specifies its operating mode. 
 445:Generated_Source\PSoC6/SmartIO.c **** *
 446:Generated_Source\PSoC6/SmartIO.c **** *  The LUT mapping (truth table) is defined as follows.
 447:Generated_Source\PSoC6/SmartIO.c **** *
 448:Generated_Source\PSoC6/SmartIO.c **** *   input2 | input1 | input0 | Mapping bit
 449:Generated_Source\PSoC6/SmartIO.c **** *   -------| ------ | ------ | -----------
 450:Generated_Source\PSoC6/SmartIO.c **** *     0    |   0    |   0    |    bit0
 451:Generated_Source\PSoC6/SmartIO.c **** *     0    |   0    |   1    |    bit1
 452:Generated_Source\PSoC6/SmartIO.c **** *     0    |   1    |   0    |    bit2
 453:Generated_Source\PSoC6/SmartIO.c **** *     0    |   1    |   1    |    bit3
 454:Generated_Source\PSoC6/SmartIO.c **** *     1    |   0    |   0    |    bit4
 455:Generated_Source\PSoC6/SmartIO.c **** *     1    |   0    |   1    |    bit5
 456:Generated_Source\PSoC6/SmartIO.c **** *     1    |   1    |   0    |    bit6
 457:Generated_Source\PSoC6/SmartIO.c **** *     1    |   1    |   1    |    bit7
 458:Generated_Source\PSoC6/SmartIO.c **** *
 459:Generated_Source\PSoC6/SmartIO.c **** * \param lutNum
 460:Generated_Source\PSoC6/SmartIO.c **** *  LUT number. Valid options are documented in \ref lutNumConst.
 461:Generated_Source\PSoC6/SmartIO.c **** *
 462:Generated_Source\PSoC6/SmartIO.c **** * \param mapping
 463:Generated_Source\PSoC6/SmartIO.c **** *  This is the LUT truth table. Bit0 corresponds to the LUT output when the 
 464:Generated_Source\PSoC6/SmartIO.c **** *  input value is (in2=0, in1=0, in0=0). Bit7 corresponds to the LUT output 
 465:Generated_Source\PSoC6/SmartIO.c **** *  when the input value is (in2=1, in1=1, in0=1).
 466:Generated_Source\PSoC6/SmartIO.c **** *
 467:Generated_Source\PSoC6/SmartIO.c **** * \param mode
 468:Generated_Source\PSoC6/SmartIO.c **** *  The LUT mode. Valid options are documented in \ref modeConst.
 469:Generated_Source\PSoC6/SmartIO.c **** * 
 470:Generated_Source\PSoC6/SmartIO.c **** * \sideeffect
 471:Generated_Source\PSoC6/SmartIO.c **** *  This function disables the block for reconfiguration. During this time,
 472:Generated_Source\PSoC6/SmartIO.c **** *  all signals on the port will be bypassed. All peripheral and gpio signals
 473:Generated_Source\PSoC6/SmartIO.c **** *  must be stopped or properly handled to account for the bypass state.
 474:Generated_Source\PSoC6/SmartIO.c **** *
 475:Generated_Source\PSoC6/SmartIO.c **** * \funcusage
 476:Generated_Source\PSoC6/SmartIO.c **** *  \snippet SmartIO_SUT.c usage_SmartIO_LUT_ConfigureMode
 477:Generated_Source\PSoC6/SmartIO.c **** *******************************************************************************/
 478:Generated_Source\PSoC6/SmartIO.c **** void SmartIO_LUT_ConfigureMode(uint32_t lutNum, uint32_t mapping, uint32_t mode)
 479:Generated_Source\PSoC6/SmartIO.c **** {
 748              		.loc 1 479 0
 749              		.cfi_startproc
 750              		@ args = 0, pretend = 0, frame = 0
 751              		@ frame_needed = 0, uses_anonymous_args = 0
 752              	.LVL49:
 753 0000 30B5     		push	{r4, r5, lr}
 754              		.cfi_def_cfa_offset 12
 755              		.cfi_offset 4, -12
 756              		.cfi_offset 5, -8
 757              		.cfi_offset 14, -4
 758              	.LBB82:
 759              	.LBB83:
 760              		.loc 2 626 0
ARM GAS  C:\Users\ikomb\AppData\Local\Temp\cce6w8IH.s 			page 34


 761 0002 0C4C     		ldr	r4, .L46
 762 0004 2368     		ldr	r3, [r4]
 763 0006 5B00     		lsls	r3, r3, #1
 764 0008 5B08     		lsrs	r3, r3, #1
 765 000a 2360     		str	r3, [r4]
 766              	.LBE83:
 767              	.LBE82:
 480:Generated_Source\PSoC6/SmartIO.c ****     uint32_t ctl;
 481:Generated_Source\PSoC6/SmartIO.c ****     
 482:Generated_Source\PSoC6/SmartIO.c ****     /* Must disable the block before configuring */
 483:Generated_Source\PSoC6/SmartIO.c ****     SmartIO_Disable();
 484:Generated_Source\PSoC6/SmartIO.c ****     
 485:Generated_Source\PSoC6/SmartIO.c ****     ctl = SmartIO_PORT->LUT_CTL[lutNum] & SmartIO_LUT_CTL_CLEAR;
 768              		.loc 1 485 0
 769 000c 1030     		adds	r0, r0, #16
 770              	.LVL50:
 771 000e 8000     		lsls	r0, r0, #2
 772              	.LVL51:
 773 0010 0559     		ldr	r5, [r0, r4]
 774 0012 AD0A     		lsrs	r5, r5, #10
 775 0014 AD02     		lsls	r5, r5, #10
 776              	.LVL52:
 486:Generated_Source\PSoC6/SmartIO.c ****     SmartIO_PORT->LUT_CTL[lutNum] = ctl 
 487:Generated_Source\PSoC6/SmartIO.c ****                                             | (((uint32_t)((mapping << SMARTIO_PRT_LUT_CTL_LUT_Pos)
 777              		.loc 1 487 0
 778 0016 FF23     		movs	r3, #255
 779 0018 1940     		ands	r1, r3
 780              	.LVL53:
 488:Generated_Source\PSoC6/SmartIO.c ****                                             & SMARTIO_PRT_LUT_CTL_LUT_Msk))
 489:Generated_Source\PSoC6/SmartIO.c ****                                             | ((uint32_t)(((uint32_t)mode << SMARTIO_PRT_LUT_CTL_LU
 781              		.loc 1 489 0
 782 001a 1202     		lsls	r2, r2, #8
 783              	.LVL54:
 784 001c C023     		movs	r3, #192
 785 001e 9B00     		lsls	r3, r3, #2
 786 0020 1A40     		ands	r2, r3
 787 0022 1143     		orrs	r1, r2
 487:Generated_Source\PSoC6/SmartIO.c ****                                             & SMARTIO_PRT_LUT_CTL_LUT_Msk))
 788              		.loc 1 487 0
 789 0024 2943     		orrs	r1, r5
 486:Generated_Source\PSoC6/SmartIO.c ****     SmartIO_PORT->LUT_CTL[lutNum] = ctl 
 790              		.loc 1 486 0
 791 0026 0151     		str	r1, [r0, r4]
 792              	.LBB84:
 793              	.LBB85:
 608:Generated_Source\PSoC6/SmartIO.h **** }
 794              		.loc 2 608 0
 795 0028 2368     		ldr	r3, [r4]
 796 002a 8022     		movs	r2, #128
 797 002c 1206     		lsls	r2, r2, #24
 798 002e 1343     		orrs	r3, r2
 799 0030 2360     		str	r3, [r4]
 800              	.LBE85:
 801              	.LBE84:
 490:Generated_Source\PSoC6/SmartIO.c ****                                             & SMARTIO_PRT_LUT_CTL_LUT_OPC_Msk)));
 491:Generated_Source\PSoC6/SmartIO.c ****     /* Re-enable the block */
 492:Generated_Source\PSoC6/SmartIO.c ****     SmartIO_Enable();
ARM GAS  C:\Users\ikomb\AppData\Local\Temp\cce6w8IH.s 			page 35


 493:Generated_Source\PSoC6/SmartIO.c **** }
 802              		.loc 1 493 0
 803              		@ sp needed
 804              	.LVL55:
 805 0032 30BD     		pop	{r4, r5, pc}
 806              	.L47:
 807              		.align	2
 808              	.L46:
 809 0034 00093340 		.word	1077086464
 810              		.cfi_endproc
 811              	.LFE48:
 812              		.size	SmartIO_LUT_ConfigureMode, .-SmartIO_LUT_ConfigureMode
 813              		.section	.text.SmartIO_DU_SelectTriggers,"ax",%progbits
 814              		.align	2
 815              		.global	SmartIO_DU_SelectTriggers
 816              		.code	16
 817              		.thumb_func
 818              		.type	SmartIO_DU_SelectTriggers, %function
 819              	SmartIO_DU_SelectTriggers:
 820              	.LFB49:
 494:Generated_Source\PSoC6/SmartIO.c **** 
 495:Generated_Source\PSoC6/SmartIO.c **** 
 496:Generated_Source\PSoC6/SmartIO.c **** /*******************************************************************************
 497:Generated_Source\PSoC6/SmartIO.c **** * Function Name: SmartIO_DU_SelectTriggers
 498:Generated_Source\PSoC6/SmartIO.c **** ****************************************************************************//**
 499:Generated_Source\PSoC6/SmartIO.c **** *
 500:Generated_Source\PSoC6/SmartIO.c **** * \brief Selects the trigger sources for the data unit.
 501:Generated_Source\PSoC6/SmartIO.c **** *
 502:Generated_Source\PSoC6/SmartIO.c **** * \param tr0Sel
 503:Generated_Source\PSoC6/SmartIO.c **** *  Trigger 0 input selection. Valid options are documented in \ref duTrConst.
 504:Generated_Source\PSoC6/SmartIO.c **** *
 505:Generated_Source\PSoC6/SmartIO.c **** * \param tr1Sel
 506:Generated_Source\PSoC6/SmartIO.c **** *  Trigger 1 input selection. Valid options are documented in \ref duTrConst.
 507:Generated_Source\PSoC6/SmartIO.c **** *
 508:Generated_Source\PSoC6/SmartIO.c **** * \param tr2Sel
 509:Generated_Source\PSoC6/SmartIO.c **** *  Trigger 2 input selection. Valid options are documented in \ref duTrConst.
 510:Generated_Source\PSoC6/SmartIO.c **** *
 511:Generated_Source\PSoC6/SmartIO.c **** * \sideeffect
 512:Generated_Source\PSoC6/SmartIO.c **** *  This function disables the block for reconfiguration. During this time,
 513:Generated_Source\PSoC6/SmartIO.c **** *  all signals on the port will be bypassed. All peripheral and gpio signals
 514:Generated_Source\PSoC6/SmartIO.c **** *  must be stopped or properly handled to account for the bypass state.
 515:Generated_Source\PSoC6/SmartIO.c **** *
 516:Generated_Source\PSoC6/SmartIO.c **** * \funcusage
 517:Generated_Source\PSoC6/SmartIO.c **** *  \snippet SmartIO_SUT.c usage_SmartIO_DU_SelectTriggers
 518:Generated_Source\PSoC6/SmartIO.c **** *******************************************************************************/
 519:Generated_Source\PSoC6/SmartIO.c **** cy_status SmartIO_DU_SelectTriggers(uint32_t tr0Sel, uint32_t tr1Sel, uint32_t tr2Sel)
 520:Generated_Source\PSoC6/SmartIO.c **** {
 821              		.loc 1 520 0
 822              		.cfi_startproc
 823              		@ args = 0, pretend = 0, frame = 0
 824              		@ frame_needed = 0, uses_anonymous_args = 0
 825              	.LVL56:
 826 0000 70B5     		push	{r4, r5, r6, lr}
 827              		.cfi_def_cfa_offset 16
 828              		.cfi_offset 4, -16
 829              		.cfi_offset 5, -12
 830              		.cfi_offset 6, -8
ARM GAS  C:\Users\ikomb\AppData\Local\Temp\cce6w8IH.s 			page 36


 831              		.cfi_offset 14, -4
 832              	.LVL57:
 521:Generated_Source\PSoC6/SmartIO.c ****     cy_status callStatus = CY_RET_SUCCESS;
 522:Generated_Source\PSoC6/SmartIO.c ****     uint32_t sel;
 523:Generated_Source\PSoC6/SmartIO.c ****     
 524:Generated_Source\PSoC6/SmartIO.c ****     if((tr0Sel > SmartIO_DUTRIG_MAX) || (tr1Sel > SmartIO_DUTRIG_MAX) || (tr2Sel > SmartIO_DUTRIG_M
 833              		.loc 1 524 0
 834 0002 0A28     		cmp	r0, #10
 835 0004 19D8     		bhi	.L50
 836              		.loc 1 524 0 is_stmt 0 discriminator 1
 837 0006 0A29     		cmp	r1, #10
 838 0008 19D8     		bhi	.L51
 839              		.loc 1 524 0 discriminator 2
 840 000a 0A2A     		cmp	r2, #10
 841 000c 19D8     		bhi	.L52
 842              	.LBB86:
 843              	.LBB87:
 844              		.loc 2 626 0 is_stmt 1
 845 000e 0E4B     		ldr	r3, .L53
 846 0010 1C68     		ldr	r4, [r3]
 847 0012 6400     		lsls	r4, r4, #1
 848 0014 6408     		lsrs	r4, r4, #1
 849 0016 1C60     		str	r4, [r3]
 850              	.LBE87:
 851              	.LBE86:
 525:Generated_Source\PSoC6/SmartIO.c ****     {
 526:Generated_Source\PSoC6/SmartIO.c ****         callStatus = CY_RET_BAD_PARAM;
 527:Generated_Source\PSoC6/SmartIO.c ****     }
 528:Generated_Source\PSoC6/SmartIO.c ****     else
 529:Generated_Source\PSoC6/SmartIO.c ****     {
 530:Generated_Source\PSoC6/SmartIO.c ****         /* Must disable the block before configuring */
 531:Generated_Source\PSoC6/SmartIO.c ****         SmartIO_Disable();
 532:Generated_Source\PSoC6/SmartIO.c ****         
 533:Generated_Source\PSoC6/SmartIO.c ****         sel = SmartIO_PORT->DU_SEL & SmartIO_DU_TR_CLEAR_ALL;
 852              		.loc 1 533 0
 853 0018 C025     		movs	r5, #192
 854 001a 5E59     		ldr	r6, [r3, r5]
 855 001c 0B4C     		ldr	r4, .L53+4
 856 001e 3440     		ands	r4, r6
 857              	.LVL58:
 534:Generated_Source\PSoC6/SmartIO.c ****         SmartIO_PORT->DU_SEL = sel 
 535:Generated_Source\PSoC6/SmartIO.c ****                                 | ((uint32_t)(tr0Sel << SMARTIO_PRT_DU_SEL_DU_TR0_SEL_Pos))
 858              		.loc 1 535 0
 859 0020 2043     		orrs	r0, r4
 860              	.LVL59:
 536:Generated_Source\PSoC6/SmartIO.c ****                                 | ((uint32_t)(tr1Sel << SMARTIO_PRT_DU_SEL_DU_TR1_SEL_Pos))
 861              		.loc 1 536 0
 862 0022 0902     		lsls	r1, r1, #8
 863              	.LVL60:
 864 0024 0143     		orrs	r1, r0
 537:Generated_Source\PSoC6/SmartIO.c ****                                 | ((uint32_t)(tr2Sel << SMARTIO_PRT_DU_SEL_DU_TR2_SEL_Pos));
 865              		.loc 1 537 0
 866 0026 1204     		lsls	r2, r2, #16
 867              	.LVL61:
 868 0028 1143     		orrs	r1, r2
 534:Generated_Source\PSoC6/SmartIO.c ****         SmartIO_PORT->DU_SEL = sel 
 869              		.loc 1 534 0
ARM GAS  C:\Users\ikomb\AppData\Local\Temp\cce6w8IH.s 			page 37


 870 002a 5951     		str	r1, [r3, r5]
 871              	.LBB88:
 872              	.LBB89:
 608:Generated_Source\PSoC6/SmartIO.h **** }
 873              		.loc 2 608 0
 874 002c 1A68     		ldr	r2, [r3]
 875 002e 8021     		movs	r1, #128
 876 0030 0906     		lsls	r1, r1, #24
 877 0032 0A43     		orrs	r2, r1
 878 0034 1A60     		str	r2, [r3]
 879              	.LBE89:
 880              	.LBE88:
 521:Generated_Source\PSoC6/SmartIO.c ****     uint32_t sel;
 881              		.loc 1 521 0
 882 0036 0020     		movs	r0, #0
 883 0038 04E0     		b	.L49
 884              	.LVL62:
 885              	.L50:
 526:Generated_Source\PSoC6/SmartIO.c ****     }
 886              		.loc 1 526 0
 887 003a 0120     		movs	r0, #1
 888              	.LVL63:
 889 003c 02E0     		b	.L49
 890              	.LVL64:
 891              	.L51:
 892 003e 0120     		movs	r0, #1
 893              	.LVL65:
 894 0040 00E0     		b	.L49
 895              	.LVL66:
 896              	.L52:
 897 0042 0120     		movs	r0, #1
 898              	.LVL67:
 899              	.L49:
 538:Generated_Source\PSoC6/SmartIO.c ****         
 539:Generated_Source\PSoC6/SmartIO.c ****         /* Re-enable the block */
 540:Generated_Source\PSoC6/SmartIO.c ****         SmartIO_Enable();
 541:Generated_Source\PSoC6/SmartIO.c ****     }
 542:Generated_Source\PSoC6/SmartIO.c ****     
 543:Generated_Source\PSoC6/SmartIO.c ****     return callStatus;
 544:Generated_Source\PSoC6/SmartIO.c **** }
 900              		.loc 1 544 0
 901              		@ sp needed
 902 0044 70BD     		pop	{r4, r5, r6, pc}
 903              	.L54:
 904 0046 C046     		.align	2
 905              	.L53:
 906 0048 00093340 		.word	1077086464
 907 004c F0F0F0FF 		.word	-986896
 908              		.cfi_endproc
 909              	.LFE49:
 910              		.size	SmartIO_DU_SelectTriggers, .-SmartIO_DU_SelectTriggers
 911              		.section	.text.SmartIO_DU_SelectData,"ax",%progbits
 912              		.align	2
 913              		.global	SmartIO_DU_SelectData
 914              		.code	16
 915              		.thumb_func
 916              		.type	SmartIO_DU_SelectData, %function
ARM GAS  C:\Users\ikomb\AppData\Local\Temp\cce6w8IH.s 			page 38


 917              	SmartIO_DU_SelectData:
 918              	.LFB50:
 545:Generated_Source\PSoC6/SmartIO.c **** 
 546:Generated_Source\PSoC6/SmartIO.c **** 
 547:Generated_Source\PSoC6/SmartIO.c **** /*******************************************************************************
 548:Generated_Source\PSoC6/SmartIO.c **** * Function Name: SmartIO_DU_SelectData
 549:Generated_Source\PSoC6/SmartIO.c **** ****************************************************************************//**
 550:Generated_Source\PSoC6/SmartIO.c **** *
 551:Generated_Source\PSoC6/SmartIO.c **** * \brief Specifies the values for the Data0 and Data1 registers in the Data Unit.
 552:Generated_Source\PSoC6/SmartIO.c **** *
 553:Generated_Source\PSoC6/SmartIO.c **** * \param dataNum
 554:Generated_Source\PSoC6/SmartIO.c **** *  DU DATA register selection. Valid options are documented in \ref duDataConst.
 555:Generated_Source\PSoC6/SmartIO.c **** *
 556:Generated_Source\PSoC6/SmartIO.c **** * \param dataSel
 557:Generated_Source\PSoC6/SmartIO.c **** *  DU DATA register source selection. Valid options are documented in \ref duDataSrcConst.
 558:Generated_Source\PSoC6/SmartIO.c **** *
 559:Generated_Source\PSoC6/SmartIO.c **** * \sideeffect
 560:Generated_Source\PSoC6/SmartIO.c **** *  This function disables the block for reconfiguration. During this time,
 561:Generated_Source\PSoC6/SmartIO.c **** *  all signals on the port will be bypassed. All peripheral and gpio signals
 562:Generated_Source\PSoC6/SmartIO.c **** *  must be stopped or properly handled to account for the bypass state.
 563:Generated_Source\PSoC6/SmartIO.c **** *
 564:Generated_Source\PSoC6/SmartIO.c **** * \funcusage
 565:Generated_Source\PSoC6/SmartIO.c **** *  \snippet SmartIO_SUT.c usage_SmartIO_DU_SelectData
 566:Generated_Source\PSoC6/SmartIO.c **** *******************************************************************************/
 567:Generated_Source\PSoC6/SmartIO.c **** cy_status SmartIO_DU_SelectData(uint32_t dataNum, uint32_t dataSel)
 568:Generated_Source\PSoC6/SmartIO.c **** {
 919              		.loc 1 568 0
 920              		.cfi_startproc
 921              		@ args = 0, pretend = 0, frame = 0
 922              		@ frame_needed = 0, uses_anonymous_args = 0
 923              		@ link register save eliminated.
 924              	.LVL68:
 925              	.LBB90:
 926              	.LBB91:
 927              		.loc 2 626 0
 928 0000 1B4A     		ldr	r2, .L62
 929 0002 1368     		ldr	r3, [r2]
 930 0004 5B00     		lsls	r3, r3, #1
 931 0006 5B08     		lsrs	r3, r3, #1
 932 0008 1360     		str	r3, [r2]
 933              	.LBE91:
 934              	.LBE90:
 569:Generated_Source\PSoC6/SmartIO.c ****     cy_status callStatus = CY_RET_SUCCESS;
 570:Generated_Source\PSoC6/SmartIO.c ****     uint32_t sel;
 571:Generated_Source\PSoC6/SmartIO.c ****     
 572:Generated_Source\PSoC6/SmartIO.c ****     /* Must disable the block before configuring */
 573:Generated_Source\PSoC6/SmartIO.c ****     SmartIO_Disable();
 574:Generated_Source\PSoC6/SmartIO.c ****     
 575:Generated_Source\PSoC6/SmartIO.c ****     sel = SmartIO_PORT->DU_SEL;
 935              		.loc 1 575 0
 936 000a C023     		movs	r3, #192
 937 000c D358     		ldr	r3, [r2, r3]
 938              	.LVL69:
 576:Generated_Source\PSoC6/SmartIO.c ****     switch(dataNum)
 939              		.loc 1 576 0
 940 000e 0228     		cmp	r0, #2
 941 0010 0CD0     		beq	.L57
ARM GAS  C:\Users\ikomb\AppData\Local\Temp\cce6w8IH.s 			page 39


 942 0012 0328     		cmp	r0, #3
 943 0014 13D0     		beq	.L58
 944 0016 0128     		cmp	r0, #1
 945 0018 1FD1     		bne	.L61
 577:Generated_Source\PSoC6/SmartIO.c ****     {
 578:Generated_Source\PSoC6/SmartIO.c ****         case SmartIO_DATA0:
 579:Generated_Source\PSoC6/SmartIO.c ****             sel = (sel & SmartIO_DU_DATA0_CLEAR)
 946              		.loc 1 579 0
 947 001a 164A     		ldr	r2, .L62+4
 948 001c 1A40     		ands	r2, r3
 580:Generated_Source\PSoC6/SmartIO.c ****                   | (uint32_t)((dataSel << SMARTIO_PRT_DU_SEL_DU_DATA0_SEL_Pos) & SMARTIO_PRT_DU_SE
 949              		.loc 1 580 0
 950 001e 0B06     		lsls	r3, r1, #24
 951              	.LVL70:
 952 0020 C020     		movs	r0, #192
 953              	.LVL71:
 954 0022 8004     		lsls	r0, r0, #18
 955 0024 0340     		ands	r3, r0
 579:Generated_Source\PSoC6/SmartIO.c ****                   | (uint32_t)((dataSel << SMARTIO_PRT_DU_SEL_DU_DATA0_SEL_Pos) & SMARTIO_PRT_DU_SE
 956              		.loc 1 579 0
 957 0026 1343     		orrs	r3, r2
 958              	.LVL72:
 569:Generated_Source\PSoC6/SmartIO.c ****     uint32_t sel;
 959              		.loc 1 569 0
 960 0028 0020     		movs	r0, #0
 581:Generated_Source\PSoC6/SmartIO.c ****         break;
 961              		.loc 1 581 0
 962 002a 17E0     		b	.L56
 963              	.LVL73:
 964              	.L57:
 582:Generated_Source\PSoC6/SmartIO.c ****         case SmartIO_DATA1:
 583:Generated_Source\PSoC6/SmartIO.c ****             sel = (sel & SmartIO_DU_DATA1_CLEAR)
 965              		.loc 1 583 0
 966 002c 124A     		ldr	r2, .L62+8
 967 002e 1A40     		ands	r2, r3
 584:Generated_Source\PSoC6/SmartIO.c ****                   | (uint32_t)((dataSel << SMARTIO_PRT_DU_SEL_DU_DATA1_SEL_Pos) & SMARTIO_PRT_DU_SE
 968              		.loc 1 584 0
 969 0030 0B07     		lsls	r3, r1, #28
 970              	.LVL74:
 971 0032 C020     		movs	r0, #192
 972              	.LVL75:
 973 0034 8005     		lsls	r0, r0, #22
 974 0036 0340     		ands	r3, r0
 583:Generated_Source\PSoC6/SmartIO.c ****                   | (uint32_t)((dataSel << SMARTIO_PRT_DU_SEL_DU_DATA1_SEL_Pos) & SMARTIO_PRT_DU_SE
 975              		.loc 1 583 0
 976 0038 1343     		orrs	r3, r2
 977              	.LVL76:
 569:Generated_Source\PSoC6/SmartIO.c ****     uint32_t sel;
 978              		.loc 1 569 0
 979 003a 0020     		movs	r0, #0
 585:Generated_Source\PSoC6/SmartIO.c ****         break;
 980              		.loc 1 585 0
 981 003c 0EE0     		b	.L56
 982              	.LVL77:
 983              	.L58:
 586:Generated_Source\PSoC6/SmartIO.c ****         case SmartIO_DATA_BOTH:
 587:Generated_Source\PSoC6/SmartIO.c ****             sel = (sel & SmartIO_DU_DATA01_CLEAR_BOTH)
ARM GAS  C:\Users\ikomb\AppData\Local\Temp\cce6w8IH.s 			page 40


 984              		.loc 1 587 0
 985 003e 0F4A     		ldr	r2, .L62+12
 986 0040 1340     		ands	r3, r2
 987              	.LVL78:
 588:Generated_Source\PSoC6/SmartIO.c ****                    |(uint32_t)((dataSel << SMARTIO_PRT_DU_SEL_DU_DATA0_SEL_Pos) & SMARTIO_PRT_DU_SE
 988              		.loc 1 588 0
 989 0042 0806     		lsls	r0, r1, #24
 990              	.LVL79:
 991 0044 C022     		movs	r2, #192
 992 0046 9204     		lsls	r2, r2, #18
 993 0048 0240     		ands	r2, r0
 994 004a 1343     		orrs	r3, r2
 589:Generated_Source\PSoC6/SmartIO.c ****                    |(uint32_t)((dataSel << SMARTIO_PRT_DU_SEL_DU_DATA1_SEL_Pos) & SMARTIO_PRT_DU_SE
 995              		.loc 1 589 0
 996 004c 0907     		lsls	r1, r1, #28
 997              	.LVL80:
 998 004e C022     		movs	r2, #192
 999 0050 9205     		lsls	r2, r2, #22
 1000 0052 1140     		ands	r1, r2
 587:Generated_Source\PSoC6/SmartIO.c ****                    |(uint32_t)((dataSel << SMARTIO_PRT_DU_SEL_DU_DATA0_SEL_Pos) & SMARTIO_PRT_DU_SE
 1001              		.loc 1 587 0
 1002 0054 0B43     		orrs	r3, r1
 1003              	.LVL81:
 569:Generated_Source\PSoC6/SmartIO.c ****     uint32_t sel;
 1004              		.loc 1 569 0
 1005 0056 0020     		movs	r0, #0
 590:Generated_Source\PSoC6/SmartIO.c ****         break;
 1006              		.loc 1 590 0
 1007 0058 00E0     		b	.L56
 1008              	.LVL82:
 1009              	.L61:
 591:Generated_Source\PSoC6/SmartIO.c ****         default:
 592:Generated_Source\PSoC6/SmartIO.c ****             callStatus = CY_RET_BAD_PARAM;
 1010              		.loc 1 592 0
 1011 005a 0120     		movs	r0, #1
 1012              	.LVL83:
 1013              	.L56:
 593:Generated_Source\PSoC6/SmartIO.c ****         break;
 594:Generated_Source\PSoC6/SmartIO.c ****     }
 595:Generated_Source\PSoC6/SmartIO.c ****     SmartIO_PORT->DU_SEL = sel;
 1014              		.loc 1 595 0
 1015 005c 044A     		ldr	r2, .L62
 1016 005e C021     		movs	r1, #192
 1017 0060 5350     		str	r3, [r2, r1]
 1018              	.LBB92:
 1019              	.LBB93:
 608:Generated_Source\PSoC6/SmartIO.h **** }
 1020              		.loc 2 608 0
 1021 0062 1368     		ldr	r3, [r2]
 1022              	.LVL84:
 1023 0064 8021     		movs	r1, #128
 1024              	.LVL85:
 1025 0066 0906     		lsls	r1, r1, #24
 1026 0068 0B43     		orrs	r3, r1
 1027 006a 1360     		str	r3, [r2]
 1028              	.LVL86:
 1029              	.LBE93:
ARM GAS  C:\Users\ikomb\AppData\Local\Temp\cce6w8IH.s 			page 41


 1030              	.LBE92:
 596:Generated_Source\PSoC6/SmartIO.c ****     
 597:Generated_Source\PSoC6/SmartIO.c ****     /* Re-enable the block */
 598:Generated_Source\PSoC6/SmartIO.c ****     SmartIO_Enable();
 599:Generated_Source\PSoC6/SmartIO.c ****     
 600:Generated_Source\PSoC6/SmartIO.c ****     return callStatus;
 601:Generated_Source\PSoC6/SmartIO.c **** }
 1031              		.loc 1 601 0
 1032              		@ sp needed
 1033 006c 7047     		bx	lr
 1034              	.L63:
 1035 006e C046     		.align	2
 1036              	.L62:
 1037 0070 00093340 		.word	1077086464
 1038 0074 FFFFFFFC 		.word	-50331649
 1039 0078 FFFFFFCF 		.word	-805306369
 1040 007c FFFFFFCC 		.word	-855638017
 1041              		.cfi_endproc
 1042              	.LFE50:
 1043              		.size	SmartIO_DU_SelectData, .-SmartIO_DU_SelectData
 1044              		.section	.text.SmartIO_DU_RegValue,"ax",%progbits
 1045              		.align	2
 1046              		.global	SmartIO_DU_RegValue
 1047              		.code	16
 1048              		.thumb_func
 1049              		.type	SmartIO_DU_RegValue, %function
 1050              	SmartIO_DU_RegValue:
 1051              	.LFB51:
 602:Generated_Source\PSoC6/SmartIO.c **** 
 603:Generated_Source\PSoC6/SmartIO.c **** 
 604:Generated_Source\PSoC6/SmartIO.c **** /*******************************************************************************
 605:Generated_Source\PSoC6/SmartIO.c **** * Function Name: SmartIO_DU_RegValue
 606:Generated_Source\PSoC6/SmartIO.c **** ****************************************************************************//**
 607:Generated_Source\PSoC6/SmartIO.c **** *
 608:Generated_Source\PSoC6/SmartIO.c **** * \brief Specifies the 8-bit value in the internal DU register that may be a
 609:Generated_Source\PSoC6/SmartIO.c **** * source for Data0 and/or Data1.
 610:Generated_Source\PSoC6/SmartIO.c **** *
 611:Generated_Source\PSoC6/SmartIO.c **** * \param dataValue
 612:Generated_Source\PSoC6/SmartIO.c **** *  8-bit value to be stored in the register.
 613:Generated_Source\PSoC6/SmartIO.c **** *
 614:Generated_Source\PSoC6/SmartIO.c **** * \sideeffect
 615:Generated_Source\PSoC6/SmartIO.c **** *  This function disables the block for reconfiguration. During this time,
 616:Generated_Source\PSoC6/SmartIO.c **** *  all signals on the port will be bypassed. All peripheral and gpio signals
 617:Generated_Source\PSoC6/SmartIO.c **** *  must be stopped or properly handled to account for the bypass state.
 618:Generated_Source\PSoC6/SmartIO.c **** *
 619:Generated_Source\PSoC6/SmartIO.c **** * \funcusage
 620:Generated_Source\PSoC6/SmartIO.c **** *  \snippet SmartIO_SUT.c usage_SmartIO_DU_RegValue
 621:Generated_Source\PSoC6/SmartIO.c **** *******************************************************************************/
 622:Generated_Source\PSoC6/SmartIO.c **** cy_status SmartIO_DU_RegValue(uint32_t dataValue)
 623:Generated_Source\PSoC6/SmartIO.c **** {
 1052              		.loc 1 623 0
 1053              		.cfi_startproc
 1054              		@ args = 0, pretend = 0, frame = 0
 1055              		@ frame_needed = 0, uses_anonymous_args = 0
 1056              		@ link register save eliminated.
 1057              	.LVL87:
 624:Generated_Source\PSoC6/SmartIO.c ****     cy_status callStatus = CY_RET_SUCCESS;
ARM GAS  C:\Users\ikomb\AppData\Local\Temp\cce6w8IH.s 			page 42


 625:Generated_Source\PSoC6/SmartIO.c ****     
 626:Generated_Source\PSoC6/SmartIO.c ****     if(dataValue > SmartIO_REGVAL_MAX)
 1058              		.loc 1 626 0
 1059 0000 FF28     		cmp	r0, #255
 1060 0002 0DD8     		bhi	.L66
 1061              	.LBB94:
 1062              	.LBB95:
 1063              		.loc 2 626 0
 1064 0004 074B     		ldr	r3, .L67
 1065 0006 1A68     		ldr	r2, [r3]
 1066 0008 5200     		lsls	r2, r2, #1
 1067 000a 5208     		lsrs	r2, r2, #1
 1068 000c 1A60     		str	r2, [r3]
 1069              	.LBE95:
 1070              	.LBE94:
 627:Generated_Source\PSoC6/SmartIO.c ****     {
 628:Generated_Source\PSoC6/SmartIO.c ****         callStatus = CY_RET_BAD_PARAM;
 629:Generated_Source\PSoC6/SmartIO.c ****     }
 630:Generated_Source\PSoC6/SmartIO.c ****     else
 631:Generated_Source\PSoC6/SmartIO.c ****     {
 632:Generated_Source\PSoC6/SmartIO.c ****         /* Must disable the block before configuring */
 633:Generated_Source\PSoC6/SmartIO.c ****         SmartIO_Disable();
 634:Generated_Source\PSoC6/SmartIO.c ****         SmartIO_PORT->DATA = dataValue;
 1071              		.loc 1 634 0
 1072 000e F022     		movs	r2, #240
 1073 0010 9850     		str	r0, [r3, r2]
 1074              	.LBB96:
 1075              	.LBB97:
 608:Generated_Source\PSoC6/SmartIO.h **** }
 1076              		.loc 2 608 0
 1077 0012 1A68     		ldr	r2, [r3]
 1078 0014 8021     		movs	r1, #128
 1079 0016 0906     		lsls	r1, r1, #24
 1080 0018 0A43     		orrs	r2, r1
 1081 001a 1A60     		str	r2, [r3]
 1082              	.LBE97:
 1083              	.LBE96:
 624:Generated_Source\PSoC6/SmartIO.c ****     cy_status callStatus = CY_RET_SUCCESS;
 1084              		.loc 1 624 0
 1085 001c 0020     		movs	r0, #0
 1086              	.LVL88:
 1087 001e 00E0     		b	.L65
 1088              	.LVL89:
 1089              	.L66:
 628:Generated_Source\PSoC6/SmartIO.c ****     }
 1090              		.loc 1 628 0
 1091 0020 0120     		movs	r0, #1
 1092              	.LVL90:
 1093              	.L65:
 635:Generated_Source\PSoC6/SmartIO.c ****         /* Re-enable the block */
 636:Generated_Source\PSoC6/SmartIO.c ****         SmartIO_Enable();
 637:Generated_Source\PSoC6/SmartIO.c ****     }
 638:Generated_Source\PSoC6/SmartIO.c ****     
 639:Generated_Source\PSoC6/SmartIO.c ****     return callStatus;
 640:Generated_Source\PSoC6/SmartIO.c **** }
 1094              		.loc 1 640 0
 1095              		@ sp needed
ARM GAS  C:\Users\ikomb\AppData\Local\Temp\cce6w8IH.s 			page 43


 1096 0022 7047     		bx	lr
 1097              	.L68:
 1098              		.align	2
 1099              	.L67:
 1100 0024 00093340 		.word	1077086464
 1101              		.cfi_endproc
 1102              	.LFE51:
 1103              		.size	SmartIO_DU_RegValue, .-SmartIO_DU_RegValue
 1104              		.section	.text.SmartIO_DU_OpCode,"ax",%progbits
 1105              		.align	2
 1106              		.global	SmartIO_DU_OpCode
 1107              		.code	16
 1108              		.thumb_func
 1109              		.type	SmartIO_DU_OpCode, %function
 1110              	SmartIO_DU_OpCode:
 1111              	.LFB52:
 641:Generated_Source\PSoC6/SmartIO.c **** 
 642:Generated_Source\PSoC6/SmartIO.c **** 
 643:Generated_Source\PSoC6/SmartIO.c **** /*******************************************************************************
 644:Generated_Source\PSoC6/SmartIO.c **** * Function Name: SmartIO_DU_OpCode
 645:Generated_Source\PSoC6/SmartIO.c **** ****************************************************************************//**
 646:Generated_Source\PSoC6/SmartIO.c **** *
 647:Generated_Source\PSoC6/SmartIO.c **** * \brief Selects the data unit operation and the size of the data to be 
 648:Generated_Source\PSoC6/SmartIO.c **** * operated on (1 to 8 bits).
 649:Generated_Source\PSoC6/SmartIO.c **** *
 650:Generated_Source\PSoC6/SmartIO.c **** * \param opCode
 651:Generated_Source\PSoC6/SmartIO.c **** *  Op-code for the Data Unit. Valid options are documented in \ref duOpcConst.
 652:Generated_Source\PSoC6/SmartIO.c **** *
 653:Generated_Source\PSoC6/SmartIO.c **** * \param dataSize
 654:Generated_Source\PSoC6/SmartIO.c **** *  Size/width of the data unit operands. Range: 1 to 8 bits.
 655:Generated_Source\PSoC6/SmartIO.c **** *
 656:Generated_Source\PSoC6/SmartIO.c **** * \sideeffect
 657:Generated_Source\PSoC6/SmartIO.c **** *  This function disables the block for reconfiguration. During this time,
 658:Generated_Source\PSoC6/SmartIO.c **** *  all signals on the port will be bypassed. All peripheral and gpio signals
 659:Generated_Source\PSoC6/SmartIO.c **** *  must be stopped or properly handled to account for the bypass state.
 660:Generated_Source\PSoC6/SmartIO.c **** *
 661:Generated_Source\PSoC6/SmartIO.c **** * \funcusage
 662:Generated_Source\PSoC6/SmartIO.c **** *  \snippet SmartIO_SUT.c usage_SmartIO_DU_OpCode
 663:Generated_Source\PSoC6/SmartIO.c **** *******************************************************************************/
 664:Generated_Source\PSoC6/SmartIO.c **** cy_status SmartIO_DU_OpCode(uint32_t opCode, uint32_t dataSize)
 665:Generated_Source\PSoC6/SmartIO.c **** {
 1112              		.loc 1 665 0
 1113              		.cfi_startproc
 1114              		@ args = 0, pretend = 0, frame = 0
 1115              		@ frame_needed = 0, uses_anonymous_args = 0
 1116              		@ link register save eliminated.
 1117              	.LVL91:
 666:Generated_Source\PSoC6/SmartIO.c ****     cy_status callStatus = CY_RET_SUCCESS;
 667:Generated_Source\PSoC6/SmartIO.c ****     
 668:Generated_Source\PSoC6/SmartIO.c ****     if((opCode == 0u) || (opCode > SmartIO_OPC_MAX) || (dataSize > SmartIO_DUSIZE_MAX))
 1118              		.loc 1 668 0
 1119 0000 431E     		subs	r3, r0, #1
 1120 0002 0A2B     		cmp	r3, #10
 1121 0004 12D8     		bhi	.L71
 1122              		.loc 1 668 0 is_stmt 0 discriminator 1
 1123 0006 0829     		cmp	r1, #8
 1124 0008 12D8     		bhi	.L72
ARM GAS  C:\Users\ikomb\AppData\Local\Temp\cce6w8IH.s 			page 44


 1125              	.LBB98:
 1126              	.LBB99:
 1127              		.loc 2 626 0 is_stmt 1
 1128 000a 0A4B     		ldr	r3, .L73
 1129 000c 1A68     		ldr	r2, [r3]
 1130 000e 5200     		lsls	r2, r2, #1
 1131 0010 5208     		lsrs	r2, r2, #1
 1132 0012 1A60     		str	r2, [r3]
 1133              	.LBE99:
 1134              	.LBE98:
 669:Generated_Source\PSoC6/SmartIO.c ****     {
 670:Generated_Source\PSoC6/SmartIO.c ****         callStatus = CY_RET_BAD_PARAM;
 671:Generated_Source\PSoC6/SmartIO.c ****     }
 672:Generated_Source\PSoC6/SmartIO.c ****     else
 673:Generated_Source\PSoC6/SmartIO.c ****     {
 674:Generated_Source\PSoC6/SmartIO.c ****          /* Must disable the block before configuring */
 675:Generated_Source\PSoC6/SmartIO.c ****         SmartIO_Disable();
 676:Generated_Source\PSoC6/SmartIO.c ****         SmartIO_PORT->DU_CTL = (uint32_t)(((dataSize - 1u) << SMARTIO_PRT_DU_CTL_DU_SIZE_Pos))
 1135              		.loc 1 676 0
 1136 0014 0139     		subs	r1, r1, #1
 1137              	.LVL92:
 677:Generated_Source\PSoC6/SmartIO.c ****                          | (uint32_t)((opCode << SMARTIO_PRT_DU_CTL_DU_OPC_Pos));       
 1138              		.loc 1 677 0
 1139 0016 0002     		lsls	r0, r0, #8
 1140              	.LVL93:
 1141 0018 0843     		orrs	r0, r1
 676:Generated_Source\PSoC6/SmartIO.c ****                          | (uint32_t)((opCode << SMARTIO_PRT_DU_CTL_DU_OPC_Pos));       
 1142              		.loc 1 676 0
 1143 001a C422     		movs	r2, #196
 1144 001c 9850     		str	r0, [r3, r2]
 1145              	.LBB100:
 1146              	.LBB101:
 608:Generated_Source\PSoC6/SmartIO.h **** }
 1147              		.loc 2 608 0
 1148 001e 1A68     		ldr	r2, [r3]
 1149 0020 8021     		movs	r1, #128
 1150              	.LVL94:
 1151 0022 0906     		lsls	r1, r1, #24
 1152 0024 0A43     		orrs	r2, r1
 1153 0026 1A60     		str	r2, [r3]
 1154              	.LBE101:
 1155              	.LBE100:
 666:Generated_Source\PSoC6/SmartIO.c ****     
 1156              		.loc 1 666 0
 1157 0028 0020     		movs	r0, #0
 1158 002a 02E0     		b	.L70
 1159              	.LVL95:
 1160              	.L71:
 670:Generated_Source\PSoC6/SmartIO.c ****     }
 1161              		.loc 1 670 0
 1162 002c 0120     		movs	r0, #1
 1163              	.LVL96:
 1164 002e 00E0     		b	.L70
 1165              	.LVL97:
 1166              	.L72:
 1167 0030 0120     		movs	r0, #1
 1168              	.LVL98:
ARM GAS  C:\Users\ikomb\AppData\Local\Temp\cce6w8IH.s 			page 45


 1169              	.L70:
 678:Generated_Source\PSoC6/SmartIO.c ****         /* Re-enable the block */
 679:Generated_Source\PSoC6/SmartIO.c ****         SmartIO_Enable();
 680:Generated_Source\PSoC6/SmartIO.c ****     }
 681:Generated_Source\PSoC6/SmartIO.c ****     
 682:Generated_Source\PSoC6/SmartIO.c ****     return callStatus;
 683:Generated_Source\PSoC6/SmartIO.c **** }
 1170              		.loc 1 683 0
 1171              		@ sp needed
 1172 0032 7047     		bx	lr
 1173              	.L74:
 1174              		.align	2
 1175              	.L73:
 1176 0034 00093340 		.word	1077086464
 1177              		.cfi_endproc
 1178              	.LFE52:
 1179              		.size	SmartIO_DU_OpCode, .-SmartIO_DU_OpCode
 1180              		.global	SmartIO_initVar
 1181              		.bss
 1182              		.align	2
 1183              		.set	.LANCHOR0,. + 0
 1184              		.type	SmartIO_clkConfig, %object
 1185              		.size	SmartIO_clkConfig, 4
 1186              	SmartIO_clkConfig:
 1187 0000 00000000 		.space	4
 1188              		.type	SmartIO_initVar, %object
 1189              		.size	SmartIO_initVar, 1
 1190              	SmartIO_initVar:
 1191 0004 00       		.space	1
 1192              		.text
 1193              	.Letext0:
 1194              		.file 3 "c:\\program files (x86)\\cypress\\psoc creator\\4.4\\psoc creator\\import\\gnu\\arm\\5.4.
 1195              		.file 4 "c:\\program files (x86)\\cypress\\psoc creator\\4.4\\psoc creator\\import\\gnu\\arm\\5.4.
 1196              		.file 5 "Generated_Source\\PSoC6\\pdl\\devices/psoc6/ip/cyip_smartio.h"
 1197              		.file 6 "Generated_Source\\PSoC6\\pdl\\drivers/peripheral/syslib/cy_syslib.h"