ARM GAS  C:\Users\ikomb\AppData\Local\Temp\ccYmJ8Fr.s 			page 1


   1              		.syntax unified
   2              		.cpu cortex-m4
   3              		.eabi_attribute 27, 1
   4              		.fpu fpv4-sp-d16
   5              		.eabi_attribute 20, 1
   6              		.eabi_attribute 21, 1
   7              		.eabi_attribute 23, 3
   8              		.eabi_attribute 24, 1
   9              		.eabi_attribute 25, 1
  10              		.eabi_attribute 26, 1
  11              		.eabi_attribute 30, 6
  12              		.eabi_attribute 34, 1
  13              		.eabi_attribute 18, 4
  14              		.thumb
  15              		.syntax unified
  16              		.file	"CapSense_Control.c"
  17              		.text
  18              	.Ltext0:
  19              		.cfi_sections	.debug_frame
  20              		.bss
  21              	CapSense_InitVar:
  22 0000 00       		.space	1
  23              		.section	.text.CapSense_Start,"ax",%progbits
  24              		.align	2
  25              		.global	CapSense_Start
  26              		.thumb
  27              		.thumb_func
  28              		.type	CapSense_Start, %function
  29              	CapSense_Start:
  30              	.LFB256:
  31              		.file 1 "Generated_Source\\PSoC6\\CapSense_Control.c"
   1:Generated_Source\PSoC6/CapSense_Control.c **** /***************************************************************************//**
   2:Generated_Source\PSoC6/CapSense_Control.c **** * \file CapSense_Control.c
   3:Generated_Source\PSoC6/CapSense_Control.c **** * \version 2.0
   4:Generated_Source\PSoC6/CapSense_Control.c **** *
   5:Generated_Source\PSoC6/CapSense_Control.c **** * \brief
   6:Generated_Source\PSoC6/CapSense_Control.c **** *   This file provides the source code to the Control module API of the Component.
   7:Generated_Source\PSoC6/CapSense_Control.c **** *
   8:Generated_Source\PSoC6/CapSense_Control.c **** * \see CapSense v2.0 Datasheet
   9:Generated_Source\PSoC6/CapSense_Control.c **** *
  10:Generated_Source\PSoC6/CapSense_Control.c **** *//*****************************************************************************
  11:Generated_Source\PSoC6/CapSense_Control.c **** * Copyright (2016-2017), Cypress Semiconductor Corporation.
  12:Generated_Source\PSoC6/CapSense_Control.c **** ********************************************************************************
  13:Generated_Source\PSoC6/CapSense_Control.c **** * This software is owned by Cypress Semiconductor Corporation (Cypress) and is
  14:Generated_Source\PSoC6/CapSense_Control.c **** * protected by and subject to worldwide patent protection (United States and
  15:Generated_Source\PSoC6/CapSense_Control.c **** * foreign), United States copyright laws and international treaty provisions.
  16:Generated_Source\PSoC6/CapSense_Control.c **** * Cypress hereby grants to licensee a personal, non-exclusive, non-transferable
  17:Generated_Source\PSoC6/CapSense_Control.c **** * license to copy, use, modify, create derivative works of, and compile the
  18:Generated_Source\PSoC6/CapSense_Control.c **** * Cypress Source Code and derivative works for the sole purpose of creating
  19:Generated_Source\PSoC6/CapSense_Control.c **** * custom software in support of licensee product to be used only in conjunction
  20:Generated_Source\PSoC6/CapSense_Control.c **** * with a Cypress integrated circuit as specified in the applicable agreement.
  21:Generated_Source\PSoC6/CapSense_Control.c **** * Any reproduction, modification, translation, compilation, or representation of
  22:Generated_Source\PSoC6/CapSense_Control.c **** * this software except as specified above is prohibited without the express
  23:Generated_Source\PSoC6/CapSense_Control.c **** * written permission of Cypress.
  24:Generated_Source\PSoC6/CapSense_Control.c **** *
  25:Generated_Source\PSoC6/CapSense_Control.c **** * Disclaimer: CYPRESS MAKES NO WARRANTY OF ANY KIND, EXPRESS OR IMPLIED, WITH
  26:Generated_Source\PSoC6/CapSense_Control.c **** * REGARD TO THIS MATERIAL, INCLUDING, BUT NOT LIMITED TO, THE IMPLIED
ARM GAS  C:\Users\ikomb\AppData\Local\Temp\ccYmJ8Fr.s 			page 2


  27:Generated_Source\PSoC6/CapSense_Control.c **** * WARRANTIES OF MERCHANTABILITY AND FITNESS FOR A PARTICULAR PURPOSE.
  28:Generated_Source\PSoC6/CapSense_Control.c **** * Cypress reserves the right to make changes without further notice to the
  29:Generated_Source\PSoC6/CapSense_Control.c **** * materials described herein. Cypress does not assume any liability arising out
  30:Generated_Source\PSoC6/CapSense_Control.c **** * of the application or use of any product or circuit described herein. Cypress
  31:Generated_Source\PSoC6/CapSense_Control.c **** * does not authorize its products for use as critical components in life-support
  32:Generated_Source\PSoC6/CapSense_Control.c **** * systems where a malfunction or failure may reasonably be expected to result in
  33:Generated_Source\PSoC6/CapSense_Control.c **** * significant injury to the user. The inclusion of Cypress' product in a life-
  34:Generated_Source\PSoC6/CapSense_Control.c **** * support systems application implies that the manufacturer assumes all risk of
  35:Generated_Source\PSoC6/CapSense_Control.c **** * such use and in doing so indemnifies Cypress against all charges. Use may be
  36:Generated_Source\PSoC6/CapSense_Control.c **** * limited by and subject to the applicable Cypress software license agreement.
  37:Generated_Source\PSoC6/CapSense_Control.c **** *******************************************************************************/
  38:Generated_Source\PSoC6/CapSense_Control.c **** 
  39:Generated_Source\PSoC6/CapSense_Control.c **** #include <stddef.h>
  40:Generated_Source\PSoC6/CapSense_Control.c **** #include "syslib/cy_syslib.h"
  41:Generated_Source\PSoC6/CapSense_Control.c **** #include "syspm/cy_syspm.h"
  42:Generated_Source\PSoC6/CapSense_Control.c **** #include "cyfitter_sysint_cfg.h"
  43:Generated_Source\PSoC6/CapSense_Control.c **** #include "CapSense_Configuration.h"
  44:Generated_Source\PSoC6/CapSense_Control.c **** #include "CapSense_Structure.h"
  45:Generated_Source\PSoC6/CapSense_Control.c **** #include "CapSense_Control.h"
  46:Generated_Source\PSoC6/CapSense_Control.c **** #include "CapSense_Processing.h"
  47:Generated_Source\PSoC6/CapSense_Control.c **** #include "CapSense_Filter.h"
  48:Generated_Source\PSoC6/CapSense_Control.c **** #include "CapSense_Sensing.h"
  49:Generated_Source\PSoC6/CapSense_Control.c **** #include "CapSense_Tuner.h"
  50:Generated_Source\PSoC6/CapSense_Control.c **** 
  51:Generated_Source\PSoC6/CapSense_Control.c **** #if (CapSense_ENABLE == CapSense_SELF_TEST_EN)
  52:Generated_Source\PSoC6/CapSense_Control.c ****     #include "CapSense_SelfTest.h"
  53:Generated_Source\PSoC6/CapSense_Control.c **** #endif
  54:Generated_Source\PSoC6/CapSense_Control.c **** 
  55:Generated_Source\PSoC6/CapSense_Control.c **** #if (0u != CapSense_ADC_EN)
  56:Generated_Source\PSoC6/CapSense_Control.c ****     #include "CapSense_Adc.h"
  57:Generated_Source\PSoC6/CapSense_Control.c **** #endif /* (0u != CapSense_ADC_EN) */
  58:Generated_Source\PSoC6/CapSense_Control.c **** 
  59:Generated_Source\PSoC6/CapSense_Control.c **** #if ((CapSense_ENABLE == CapSense_GES_GLOBAL_EN) ||\
  60:Generated_Source\PSoC6/CapSense_Control.c ****      (CapSense_ENABLE == CapSense_BALLISTIC_MULTIPLIER_EN))
  61:Generated_Source\PSoC6/CapSense_Control.c ****     #include "CapSense_Gesture.h"
  62:Generated_Source\PSoC6/CapSense_Control.c **** #endif /* (CapSense_ENABLE == CapSense_GES_GLOBAL_EN) */
  63:Generated_Source\PSoC6/CapSense_Control.c **** 
  64:Generated_Source\PSoC6/CapSense_Control.c **** /**************************************************************************************************
  65:Generated_Source\PSoC6/CapSense_Control.c **** * Local definition
  66:Generated_Source\PSoC6/CapSense_Control.c **** ***************************************************************************************************
  67:Generated_Source\PSoC6/CapSense_Control.c **** #define CapSense_INIT_DONE   (1u)
  68:Generated_Source\PSoC6/CapSense_Control.c **** #define CapSense_INIT_NEEDED (0u)
  69:Generated_Source\PSoC6/CapSense_Control.c **** 
  70:Generated_Source\PSoC6/CapSense_Control.c **** /**************************************************************************************************
  71:Generated_Source\PSoC6/CapSense_Control.c **** * Local variables
  72:Generated_Source\PSoC6/CapSense_Control.c **** ***************************************************************************************************
  73:Generated_Source\PSoC6/CapSense_Control.c **** static uint8 CapSense_InitVar = CapSense_INIT_NEEDED;
  74:Generated_Source\PSoC6/CapSense_Control.c **** 
  75:Generated_Source\PSoC6/CapSense_Control.c **** /**************************************************************************************************
  76:Generated_Source\PSoC6/CapSense_Control.c **** * Local function
  77:Generated_Source\PSoC6/CapSense_Control.c **** ***************************************************************************************************
  78:Generated_Source\PSoC6/CapSense_Control.c **** static cy_en_syspm_status_t CapSense_SwitchPowerModeCallback(cy_stc_syspm_callback_params_t *callba
  79:Generated_Source\PSoC6/CapSense_Control.c **** 
  80:Generated_Source\PSoC6/CapSense_Control.c **** /*******************************************************************************
  81:Generated_Source\PSoC6/CapSense_Control.c **** * Function Name: CapSense_Start
  82:Generated_Source\PSoC6/CapSense_Control.c **** ****************************************************************************//**
  83:Generated_Source\PSoC6/CapSense_Control.c **** *
ARM GAS  C:\Users\ikomb\AppData\Local\Temp\ccYmJ8Fr.s 			page 3


  84:Generated_Source\PSoC6/CapSense_Control.c **** * \brief
  85:Generated_Source\PSoC6/CapSense_Control.c **** *  Initializes the Component hardware and firmware modules. This function is
  86:Generated_Source\PSoC6/CapSense_Control.c **** *  called by the application program prior to calling any other function of the
  87:Generated_Source\PSoC6/CapSense_Control.c **** *  Component.
  88:Generated_Source\PSoC6/CapSense_Control.c **** *
  89:Generated_Source\PSoC6/CapSense_Control.c **** * \details
  90:Generated_Source\PSoC6/CapSense_Control.c **** *  This function initializes the Component hardware and firmware modules and
  91:Generated_Source\PSoC6/CapSense_Control.c **** *  is called by the application program prior to calling any other API
  92:Generated_Source\PSoC6/CapSense_Control.c **** *  of the Component. When this function is called, the following tasks are
  93:Generated_Source\PSoC6/CapSense_Control.c **** *  executed as part of the initialization process:
  94:Generated_Source\PSoC6/CapSense_Control.c **** *    1. Initialize the registers of the \ref group_structures variable
  95:Generated_Source\PSoC6/CapSense_Control.c **** *       CapSense_dsRam based on the user selection in the Component
  96:Generated_Source\PSoC6/CapSense_Control.c **** *       configuration wizard.
  97:Generated_Source\PSoC6/CapSense_Control.c **** *    2. Configure the hardware to perform capacitive sensing.
  98:Generated_Source\PSoC6/CapSense_Control.c **** *    3. If SmartSense Auto-tuning is selected for the CSD Tuning mode in the
  99:Generated_Source\PSoC6/CapSense_Control.c **** *       Basic tab, the auto-tuning algorithm is executed to set the optimal
 100:Generated_Source\PSoC6/CapSense_Control.c **** *       values for the hardware parameters of the widgets/sensors.
 101:Generated_Source\PSoC6/CapSense_Control.c **** *    4. Calibrate the sensors and find the optimal values for IDACs of each
 102:Generated_Source\PSoC6/CapSense_Control.c **** *       widget / sensor, if the Enable IDAC auto-calibration is enabled in the
 103:Generated_Source\PSoC6/CapSense_Control.c **** *       CSD Setting or CSX Setting tabs.
 104:Generated_Source\PSoC6/CapSense_Control.c **** *    5. Perform scanning for all the sensors and initialize the baseline history.
 105:Generated_Source\PSoC6/CapSense_Control.c **** *    6. If the firmware filters are enabled in the Advanced General tab, the
 106:Generated_Source\PSoC6/CapSense_Control.c **** *       filter histories are also initialized.
 107:Generated_Source\PSoC6/CapSense_Control.c **** 
 108:Generated_Source\PSoC6/CapSense_Control.c **** *  Any next call of this API repeats an initialization process except for
 109:Generated_Source\PSoC6/CapSense_Control.c **** *  data structure initialization. Therefore, it is possible to change the
 110:Generated_Source\PSoC6/CapSense_Control.c **** *  Component configuration from the application program by writing registers to the
 111:Generated_Source\PSoC6/CapSense_Control.c **** *  data structure and calling this function again. This is also
 112:Generated_Source\PSoC6/CapSense_Control.c **** *  done inside the CapSense_RunTuner() function when a restart command
 113:Generated_Source\PSoC6/CapSense_Control.c **** *  is received.
 114:Generated_Source\PSoC6/CapSense_Control.c **** *
 115:Generated_Source\PSoC6/CapSense_Control.c **** *  When the Component operation is stopped by the CapSense_Stop()
 116:Generated_Source\PSoC6/CapSense_Control.c **** *  function, the CapSense_Start() function repeats an initialization
 117:Generated_Source\PSoC6/CapSense_Control.c **** *  process including data structure initialization.
 118:Generated_Source\PSoC6/CapSense_Control.c **** *
 119:Generated_Source\PSoC6/CapSense_Control.c **** * \return
 120:Generated_Source\PSoC6/CapSense_Control.c **** *  Returns the status of the initialization process. If CY_RET_SUCCESS is not
 121:Generated_Source\PSoC6/CapSense_Control.c **** *  received, some of the initialization fails and the Component may not operate
 122:Generated_Source\PSoC6/CapSense_Control.c **** *  as expected.
 123:Generated_Source\PSoC6/CapSense_Control.c **** *
 124:Generated_Source\PSoC6/CapSense_Control.c **** *******************************************************************************/
 125:Generated_Source\PSoC6/CapSense_Control.c **** cy_status CapSense_Start(void)
 126:Generated_Source\PSoC6/CapSense_Control.c **** {
  32              		.loc 1 126 0
  33              		.cfi_startproc
  34              		@ args = 0, pretend = 0, frame = 8
  35              		@ frame_needed = 1, uses_anonymous_args = 0
  36 0000 80B5     		push	{r7, lr}
  37              		.cfi_def_cfa_offset 8
  38              		.cfi_offset 7, -8
  39              		.cfi_offset 14, -4
  40 0002 82B0     		sub	sp, sp, #8
  41              		.cfi_def_cfa_offset 16
  42 0004 00AF     		add	r7, sp, #0
  43              		.cfi_def_cfa_register 7
 127:Generated_Source\PSoC6/CapSense_Control.c ****     cy_status result;
 128:Generated_Source\PSoC6/CapSense_Control.c **** 
ARM GAS  C:\Users\ikomb\AppData\Local\Temp\ccYmJ8Fr.s 			page 4


 129:Generated_Source\PSoC6/CapSense_Control.c ****     /* Initialize CapSense modules */
 130:Generated_Source\PSoC6/CapSense_Control.c ****     result = CapSense_Initialize();
  44              		.loc 1 130 0
  45 0006 FFF7FEFF 		bl	CapSense_Initialize
  46 000a 7860     		str	r0, [r7, #4]
 131:Generated_Source\PSoC6/CapSense_Control.c **** 
 132:Generated_Source\PSoC6/CapSense_Control.c ****     #if (CapSense_CSD_AUTOTUNE != CapSense_CSD_SS_DIS)
 133:Generated_Source\PSoC6/CapSense_Control.c ****         if (CY_RET_SUCCESS == result)
  47              		.loc 1 133 0
  48 000c 7B68     		ldr	r3, [r7, #4]
  49 000e 002B     		cmp	r3, #0
  50 0010 02D1     		bne	.L2
 134:Generated_Source\PSoC6/CapSense_Control.c ****         {
 135:Generated_Source\PSoC6/CapSense_Control.c ****             result = CapSense_SsAutoTune();
  51              		.loc 1 135 0
  52 0012 FFF7FEFF 		bl	CapSense_SsAutoTune
  53 0016 7860     		str	r0, [r7, #4]
  54              	.L2:
 136:Generated_Source\PSoC6/CapSense_Control.c ****         }
 137:Generated_Source\PSoC6/CapSense_Control.c ****     #endif /* #if (CapSense_CSD_AUTOTUNE != CapSense_CSD_SS_DIS) */
 138:Generated_Source\PSoC6/CapSense_Control.c **** 
 139:Generated_Source\PSoC6/CapSense_Control.c ****     #if ((0u != CapSense_CSX_IDAC_AUTOCAL_EN) || \
 140:Generated_Source\PSoC6/CapSense_Control.c ****         ((CapSense_CSD_AUTOTUNE == CapSense_CSD_SS_DIS) && (0u != CapSense_CSD_IDAC_AUTOCAL_EN)))
 141:Generated_Source\PSoC6/CapSense_Control.c ****         if (CY_RET_SUCCESS == result)
  55              		.loc 1 141 0
  56 0018 7B68     		ldr	r3, [r7, #4]
  57 001a 002B     		cmp	r3, #0
  58 001c 02D1     		bne	.L3
 142:Generated_Source\PSoC6/CapSense_Control.c ****         {
 143:Generated_Source\PSoC6/CapSense_Control.c ****             result = CapSense_CalibrateAllWidgets();
  59              		.loc 1 143 0
  60 001e FFF7FEFF 		bl	CapSense_CalibrateAllWidgets
  61 0022 7860     		str	r0, [r7, #4]
  62              	.L3:
 144:Generated_Source\PSoC6/CapSense_Control.c ****         }
 145:Generated_Source\PSoC6/CapSense_Control.c ****     #endif
 146:Generated_Source\PSoC6/CapSense_Control.c **** 
 147:Generated_Source\PSoC6/CapSense_Control.c ****     if (CY_RET_SUCCESS == result)
  63              		.loc 1 147 0
  64 0024 7B68     		ldr	r3, [r7, #4]
  65 0026 002B     		cmp	r3, #0
  66 0028 02D1     		bne	.L7
 148:Generated_Source\PSoC6/CapSense_Control.c ****     {
 149:Generated_Source\PSoC6/CapSense_Control.c ****         result = CapSense_ScanAllWidgets();
  67              		.loc 1 149 0
  68 002a FFF7FEFF 		bl	CapSense_ScanAllWidgets
  69 002e 7860     		str	r0, [r7, #4]
  70              	.L7:
 150:Generated_Source\PSoC6/CapSense_Control.c ****     }
 151:Generated_Source\PSoC6/CapSense_Control.c **** 
 152:Generated_Source\PSoC6/CapSense_Control.c ****     while(CapSense_NOT_BUSY != CapSense_IsBusy()){}
  71              		.loc 1 152 0
  72 0030 00BF     		nop
  73              	.L5:
  74              		.loc 1 152 0 is_stmt 0 discriminator 1
  75 0032 FFF7FEFF 		bl	CapSense_IsBusy
  76 0036 0346     		mov	r3, r0
ARM GAS  C:\Users\ikomb\AppData\Local\Temp\ccYmJ8Fr.s 			page 5


  77 0038 002B     		cmp	r3, #0
  78 003a FAD1     		bne	.L5
 153:Generated_Source\PSoC6/CapSense_Control.c **** 
 154:Generated_Source\PSoC6/CapSense_Control.c ****     CapSense_FtInitialize();
  79              		.loc 1 154 0 is_stmt 1
  80 003c FFF7FEFF 		bl	CapSense_FtInitialize
 155:Generated_Source\PSoC6/CapSense_Control.c ****     CapSense_InitializeAllBaselines();
  81              		.loc 1 155 0
  82 0040 FFF7FEFF 		bl	CapSense_InitializeAllBaselines
 156:Generated_Source\PSoC6/CapSense_Control.c **** 
 157:Generated_Source\PSoC6/CapSense_Control.c ****     #if(CapSense_ENABLE == CapSense_GES_GLOBAL_EN)
 158:Generated_Source\PSoC6/CapSense_Control.c ****         if (CY_RET_SUCCESS == result)
 159:Generated_Source\PSoC6/CapSense_Control.c ****         {
 160:Generated_Source\PSoC6/CapSense_Control.c ****             CapSense_InitializeGestures();
 161:Generated_Source\PSoC6/CapSense_Control.c ****         }
 162:Generated_Source\PSoC6/CapSense_Control.c ****     #endif /* (CapSense_ENABLE == CapSense_GES_GLOBAL_EN) */
 163:Generated_Source\PSoC6/CapSense_Control.c **** 
 164:Generated_Source\PSoC6/CapSense_Control.c ****     #if (0u != CapSense_BALLISTIC_MULTIPLIER_EN)
 165:Generated_Source\PSoC6/CapSense_Control.c ****         if (CY_RET_SUCCESS == result)
 166:Generated_Source\PSoC6/CapSense_Control.c ****         {
 167:Generated_Source\PSoC6/CapSense_Control.c ****             CapSense_InitializeBallisticMultiplier();
 168:Generated_Source\PSoC6/CapSense_Control.c ****         }
 169:Generated_Source\PSoC6/CapSense_Control.c ****     #endif /* (0u != CapSense_BALLISTIC_MULTIPLIER_EN) */
 170:Generated_Source\PSoC6/CapSense_Control.c **** 
 171:Generated_Source\PSoC6/CapSense_Control.c ****     #if (0u != CapSense_ADC_EN)
 172:Generated_Source\PSoC6/CapSense_Control.c ****         CapSense_AdcInitialize();
 173:Generated_Source\PSoC6/CapSense_Control.c ****     #endif /* (0u != CapSense_ADC_EN) */
 174:Generated_Source\PSoC6/CapSense_Control.c **** 
 175:Generated_Source\PSoC6/CapSense_Control.c ****     return result;
  83              		.loc 1 175 0
  84 0044 7B68     		ldr	r3, [r7, #4]
 176:Generated_Source\PSoC6/CapSense_Control.c **** }
  85              		.loc 1 176 0
  86 0046 1846     		mov	r0, r3
  87 0048 0837     		adds	r7, r7, #8
  88              		.cfi_def_cfa_offset 8
  89 004a BD46     		mov	sp, r7
  90              		.cfi_def_cfa_register 13
  91              		@ sp needed
  92 004c 80BD     		pop	{r7, pc}
  93              		.cfi_endproc
  94              	.LFE256:
  95              		.size	CapSense_Start, .-CapSense_Start
  96 004e 00BF     		.section	.text.CapSense_Initialize,"ax",%progbits
  97              		.align	2
  98              		.global	CapSense_Initialize
  99              		.thumb
 100              		.thumb_func
 101              		.type	CapSense_Initialize, %function
 102              	CapSense_Initialize:
 103              	.LFB257:
 177:Generated_Source\PSoC6/CapSense_Control.c **** 
 178:Generated_Source\PSoC6/CapSense_Control.c **** /*******************************************************************************
 179:Generated_Source\PSoC6/CapSense_Control.c **** * Function Name: CapSense_Initialize
 180:Generated_Source\PSoC6/CapSense_Control.c **** ****************************************************************************//**
 181:Generated_Source\PSoC6/CapSense_Control.c **** *
 182:Generated_Source\PSoC6/CapSense_Control.c **** * \brief
ARM GAS  C:\Users\ikomb\AppData\Local\Temp\ccYmJ8Fr.s 			page 6


 183:Generated_Source\PSoC6/CapSense_Control.c **** *  This function initializes the CapSense Component.
 184:Generated_Source\PSoC6/CapSense_Control.c **** *
 185:Generated_Source\PSoC6/CapSense_Control.c **** * \details
 186:Generated_Source\PSoC6/CapSense_Control.c **** *  This API initializes all sub-modules of the CapSense Component:
 187:Generated_Source\PSoC6/CapSense_Control.c **** *   - Data Structure - set the default Component parameters defined in the Customizer.
 188:Generated_Source\PSoC6/CapSense_Control.c **** *   - Data Processing - resets all widget statuses.
 189:Generated_Source\PSoC6/CapSense_Control.c **** *   - Tuner - resets tuning state.
 190:Generated_Source\PSoC6/CapSense_Control.c **** *   - Sensing - prepares CSD HW for operation.
 191:Generated_Source\PSoC6/CapSense_Control.c **** *
 192:Generated_Source\PSoC6/CapSense_Control.c **** *  Note that Data Structure module is initialized only once after the reset or
 193:Generated_Source\PSoC6/CapSense_Control.c **** *  CapSense_Stop() API is called. The repeated calls of Initialize API
 194:Generated_Source\PSoC6/CapSense_Control.c **** *  will not re-initialize Data Structure. This is done to preserve Component
 195:Generated_Source\PSoC6/CapSense_Control.c **** *  parameters that user may set in runtime.
 196:Generated_Source\PSoC6/CapSense_Control.c **** *
 197:Generated_Source\PSoC6/CapSense_Control.c **** * \return
 198:Generated_Source\PSoC6/CapSense_Control.c **** *  Return CY_RET_SUCCESS if the initialization was successful.
 199:Generated_Source\PSoC6/CapSense_Control.c **** *
 200:Generated_Source\PSoC6/CapSense_Control.c **** *******************************************************************************/
 201:Generated_Source\PSoC6/CapSense_Control.c **** cy_status CapSense_Initialize(void)
 202:Generated_Source\PSoC6/CapSense_Control.c **** {
 104              		.loc 1 202 0
 105              		.cfi_startproc
 106              		@ args = 0, pretend = 0, frame = 8
 107              		@ frame_needed = 1, uses_anonymous_args = 0
 108 0000 80B5     		push	{r7, lr}
 109              		.cfi_def_cfa_offset 8
 110              		.cfi_offset 7, -8
 111              		.cfi_offset 14, -4
 112 0002 82B0     		sub	sp, sp, #8
 113              		.cfi_def_cfa_offset 16
 114 0004 00AF     		add	r7, sp, #0
 115              		.cfi_def_cfa_register 7
 203:Generated_Source\PSoC6/CapSense_Control.c ****     cy_status result;
 204:Generated_Source\PSoC6/CapSense_Control.c **** 
 205:Generated_Source\PSoC6/CapSense_Control.c ****     /* The Data Structure and Tuner are initialized only once */
 206:Generated_Source\PSoC6/CapSense_Control.c ****     if (CapSense_INIT_NEEDED == CapSense_InitVar)
 116              		.loc 1 206 0
 117 0006 0A4B     		ldr	r3, .L11
 118 0008 1B78     		ldrb	r3, [r3]	@ zero_extendqisi2
 119 000a 002B     		cmp	r3, #0
 120 000c 06D1     		bne	.L9
 207:Generated_Source\PSoC6/CapSense_Control.c ****     {
 208:Generated_Source\PSoC6/CapSense_Control.c ****         CapSense_DsInitialize();
 121              		.loc 1 208 0
 122 000e FFF7FEFF 		bl	CapSense_DsInitialize
 209:Generated_Source\PSoC6/CapSense_Control.c ****         CapSense_TuInitialize();
 123              		.loc 1 209 0
 124 0012 FFF7FEFF 		bl	CapSense_TuInitialize
 210:Generated_Source\PSoC6/CapSense_Control.c ****         CapSense_InitVar = CapSense_INIT_DONE;
 125              		.loc 1 210 0
 126 0016 064B     		ldr	r3, .L11
 127 0018 0122     		movs	r2, #1
 128 001a 1A70     		strb	r2, [r3]
 129              	.L9:
 211:Generated_Source\PSoC6/CapSense_Control.c ****     }
 212:Generated_Source\PSoC6/CapSense_Control.c **** 
 213:Generated_Source\PSoC6/CapSense_Control.c ****     CapSense_DpInitialize();
ARM GAS  C:\Users\ikomb\AppData\Local\Temp\ccYmJ8Fr.s 			page 7


 130              		.loc 1 213 0
 131 001c FFF7FEFF 		bl	CapSense_DpInitialize
 214:Generated_Source\PSoC6/CapSense_Control.c **** 
 215:Generated_Source\PSoC6/CapSense_Control.c ****     result = CapSense_SsInitialize();
 132              		.loc 1 215 0
 133 0020 FFF7FEFF 		bl	CapSense_SsInitialize
 134 0024 7860     		str	r0, [r7, #4]
 216:Generated_Source\PSoC6/CapSense_Control.c **** 
 217:Generated_Source\PSoC6/CapSense_Control.c ****     return result;
 135              		.loc 1 217 0
 136 0026 7B68     		ldr	r3, [r7, #4]
 218:Generated_Source\PSoC6/CapSense_Control.c **** }
 137              		.loc 1 218 0
 138 0028 1846     		mov	r0, r3
 139 002a 0837     		adds	r7, r7, #8
 140              		.cfi_def_cfa_offset 8
 141 002c BD46     		mov	sp, r7
 142              		.cfi_def_cfa_register 13
 143              		@ sp needed
 144 002e 80BD     		pop	{r7, pc}
 145              	.L12:
 146              		.align	2
 147              	.L11:
 148 0030 00000000 		.word	CapSense_InitVar
 149              		.cfi_endproc
 150              	.LFE257:
 151              		.size	CapSense_Initialize, .-CapSense_Initialize
 152              		.section	.text.CapSense_Stop,"ax",%progbits
 153              		.align	2
 154              		.global	CapSense_Stop
 155              		.thumb
 156              		.thumb_func
 157              		.type	CapSense_Stop, %function
 158              	CapSense_Stop:
 159              	.LFB258:
 219:Generated_Source\PSoC6/CapSense_Control.c **** 
 220:Generated_Source\PSoC6/CapSense_Control.c **** /*******************************************************************************
 221:Generated_Source\PSoC6/CapSense_Control.c **** * Function Name: CapSense_Stop
 222:Generated_Source\PSoC6/CapSense_Control.c **** ****************************************************************************//**
 223:Generated_Source\PSoC6/CapSense_Control.c **** *
 224:Generated_Source\PSoC6/CapSense_Control.c **** * \brief
 225:Generated_Source\PSoC6/CapSense_Control.c **** *  Stops the Component operation.
 226:Generated_Source\PSoC6/CapSense_Control.c **** *
 227:Generated_Source\PSoC6/CapSense_Control.c **** * \details
 228:Generated_Source\PSoC6/CapSense_Control.c **** *  This function stops the Component operation, no sensor scanning can be
 229:Generated_Source\PSoC6/CapSense_Control.c **** *  executed when the Component is stopped. Once stopped, the hardware block may
 230:Generated_Source\PSoC6/CapSense_Control.c **** *  be reconfigured by the application program for any other special usage. The
 231:Generated_Source\PSoC6/CapSense_Control.c **** *  Component operation can be resumed by calling the CapSense_Resume()
 232:Generated_Source\PSoC6/CapSense_Control.c **** *  function or the Component can be reset by calling the
 233:Generated_Source\PSoC6/CapSense_Control.c **** *  CapSense_Start() function.
 234:Generated_Source\PSoC6/CapSense_Control.c **** *
 235:Generated_Source\PSoC6/CapSense_Control.c **** *  This function is called when no scanning is in progress.
 236:Generated_Source\PSoC6/CapSense_Control.c **** *  I.e. CapSense_IsBusy() returns a non-busy status.
 237:Generated_Source\PSoC6/CapSense_Control.c **** *
 238:Generated_Source\PSoC6/CapSense_Control.c **** * \return
 239:Generated_Source\PSoC6/CapSense_Control.c **** *  Returns the status of the stop process. If CY_RET_SUCCESS is not received,
 240:Generated_Source\PSoC6/CapSense_Control.c **** *  the stop process fails and retries may be required.
ARM GAS  C:\Users\ikomb\AppData\Local\Temp\ccYmJ8Fr.s 			page 8


 241:Generated_Source\PSoC6/CapSense_Control.c **** *
 242:Generated_Source\PSoC6/CapSense_Control.c **** *******************************************************************************/
 243:Generated_Source\PSoC6/CapSense_Control.c **** cy_status CapSense_Stop(void)
 244:Generated_Source\PSoC6/CapSense_Control.c **** {
 160              		.loc 1 244 0
 161              		.cfi_startproc
 162              		@ args = 0, pretend = 0, frame = 8
 163              		@ frame_needed = 1, uses_anonymous_args = 0
 164              		@ link register save eliminated.
 165 0000 80B4     		push	{r7}
 166              		.cfi_def_cfa_offset 4
 167              		.cfi_offset 7, -4
 168 0002 83B0     		sub	sp, sp, #12
 169              		.cfi_def_cfa_offset 16
 170 0004 00AF     		add	r7, sp, #0
 171              		.cfi_def_cfa_register 7
 245:Generated_Source\PSoC6/CapSense_Control.c ****     cy_status result = CY_RET_SUCCESS;
 172              		.loc 1 245 0
 173 0006 0023     		movs	r3, #0
 174 0008 7B60     		str	r3, [r7, #4]
 246:Generated_Source\PSoC6/CapSense_Control.c **** 
 247:Generated_Source\PSoC6/CapSense_Control.c ****     #if (CapSense_ENABLE == CapSense_ADC_EN)
 248:Generated_Source\PSoC6/CapSense_Control.c ****         /* Release CSD resources */
 249:Generated_Source\PSoC6/CapSense_Control.c ****         result = CapSense_SsReleaseResources();
 250:Generated_Source\PSoC6/CapSense_Control.c **** 
 251:Generated_Source\PSoC6/CapSense_Control.c ****         /* Release ADC resources */
 252:Generated_Source\PSoC6/CapSense_Control.c ****         CapSense_AdcStop();
 253:Generated_Source\PSoC6/CapSense_Control.c ****     #endif /* (CapSense_ENABLE == CapSense_ADC_EN) */
 254:Generated_Source\PSoC6/CapSense_Control.c **** 
 255:Generated_Source\PSoC6/CapSense_Control.c ****     CapSense_InitVar = CapSense_INIT_NEEDED;
 175              		.loc 1 255 0
 176 000a 054B     		ldr	r3, .L15
 177 000c 0022     		movs	r2, #0
 178 000e 1A70     		strb	r2, [r3]
 256:Generated_Source\PSoC6/CapSense_Control.c **** 
 257:Generated_Source\PSoC6/CapSense_Control.c ****     return result;
 179              		.loc 1 257 0
 180 0010 7B68     		ldr	r3, [r7, #4]
 258:Generated_Source\PSoC6/CapSense_Control.c **** }
 181              		.loc 1 258 0
 182 0012 1846     		mov	r0, r3
 183 0014 0C37     		adds	r7, r7, #12
 184              		.cfi_def_cfa_offset 4
 185 0016 BD46     		mov	sp, r7
 186              		.cfi_def_cfa_register 13
 187              		@ sp needed
 188 0018 5DF8047B 		ldr	r7, [sp], #4
 189              		.cfi_restore 7
 190              		.cfi_def_cfa_offset 0
 191 001c 7047     		bx	lr
 192              	.L16:
 193 001e 00BF     		.align	2
 194              	.L15:
 195 0020 00000000 		.word	CapSense_InitVar
 196              		.cfi_endproc
 197              	.LFE258:
 198              		.size	CapSense_Stop, .-CapSense_Stop
ARM GAS  C:\Users\ikomb\AppData\Local\Temp\ccYmJ8Fr.s 			page 9


 199              		.section	.text.CapSense_Resume,"ax",%progbits
 200              		.align	2
 201              		.global	CapSense_Resume
 202              		.thumb
 203              		.thumb_func
 204              		.type	CapSense_Resume, %function
 205              	CapSense_Resume:
 206              	.LFB259:
 259:Generated_Source\PSoC6/CapSense_Control.c **** 
 260:Generated_Source\PSoC6/CapSense_Control.c **** /*******************************************************************************
 261:Generated_Source\PSoC6/CapSense_Control.c **** * Function Name: CapSense_Resume
 262:Generated_Source\PSoC6/CapSense_Control.c **** ****************************************************************************//**
 263:Generated_Source\PSoC6/CapSense_Control.c **** *
 264:Generated_Source\PSoC6/CapSense_Control.c **** * \brief
 265:Generated_Source\PSoC6/CapSense_Control.c **** *  Resumes the Component operation if the CapSense_Stop() function was
 266:Generated_Source\PSoC6/CapSense_Control.c **** *  called previously.
 267:Generated_Source\PSoC6/CapSense_Control.c **** *
 268:Generated_Source\PSoC6/CapSense_Control.c **** * \details
 269:Generated_Source\PSoC6/CapSense_Control.c **** *  This function resumes the Component operation if the operation is stopped
 270:Generated_Source\PSoC6/CapSense_Control.c **** *  previously by the CapSense_Stop() function. The following tasks are
 271:Generated_Source\PSoC6/CapSense_Control.c **** *  executed as part of the operation resume process:
 272:Generated_Source\PSoC6/CapSense_Control.c **** *    1. Reset all the Widgets/Sensors statuses.
 273:Generated_Source\PSoC6/CapSense_Control.c **** *    2. Configure the hardware to perform capacitive sensing.
 274:Generated_Source\PSoC6/CapSense_Control.c **** *
 275:Generated_Source\PSoC6/CapSense_Control.c **** * \return
 276:Generated_Source\PSoC6/CapSense_Control.c **** *  Returns the status of the resume process. If CY_RET_SUCCESS is not received,
 277:Generated_Source\PSoC6/CapSense_Control.c **** *  the resume process fails and retries may be required.
 278:Generated_Source\PSoC6/CapSense_Control.c **** *
 279:Generated_Source\PSoC6/CapSense_Control.c **** *******************************************************************************/
 280:Generated_Source\PSoC6/CapSense_Control.c **** cy_status CapSense_Resume(void)
 281:Generated_Source\PSoC6/CapSense_Control.c **** {
 207              		.loc 1 281 0
 208              		.cfi_startproc
 209              		@ args = 0, pretend = 0, frame = 8
 210              		@ frame_needed = 1, uses_anonymous_args = 0
 211 0000 80B5     		push	{r7, lr}
 212              		.cfi_def_cfa_offset 8
 213              		.cfi_offset 7, -8
 214              		.cfi_offset 14, -4
 215 0002 82B0     		sub	sp, sp, #8
 216              		.cfi_def_cfa_offset 16
 217 0004 00AF     		add	r7, sp, #0
 218              		.cfi_def_cfa_register 7
 282:Generated_Source\PSoC6/CapSense_Control.c ****     cy_status result;
 283:Generated_Source\PSoC6/CapSense_Control.c **** 
 284:Generated_Source\PSoC6/CapSense_Control.c ****     /* The Tuner are initialized only once in order not to break communication */
 285:Generated_Source\PSoC6/CapSense_Control.c ****     if (CapSense_INIT_NEEDED == CapSense_InitVar)
 219              		.loc 1 285 0
 220 0006 094B     		ldr	r3, .L20
 221 0008 1B78     		ldrb	r3, [r3]	@ zero_extendqisi2
 222 000a 002B     		cmp	r3, #0
 223 000c 04D1     		bne	.L18
 286:Generated_Source\PSoC6/CapSense_Control.c ****     {
 287:Generated_Source\PSoC6/CapSense_Control.c ****         CapSense_TuInitialize();
 224              		.loc 1 287 0
 225 000e FFF7FEFF 		bl	CapSense_TuInitialize
 288:Generated_Source\PSoC6/CapSense_Control.c ****         CapSense_InitVar = CapSense_INIT_DONE;
ARM GAS  C:\Users\ikomb\AppData\Local\Temp\ccYmJ8Fr.s 			page 10


 226              		.loc 1 288 0
 227 0012 064B     		ldr	r3, .L20
 228 0014 0122     		movs	r2, #1
 229 0016 1A70     		strb	r2, [r3]
 230              	.L18:
 289:Generated_Source\PSoC6/CapSense_Control.c ****     }
 290:Generated_Source\PSoC6/CapSense_Control.c ****     CapSense_DpInitialize();
 231              		.loc 1 290 0
 232 0018 FFF7FEFF 		bl	CapSense_DpInitialize
 291:Generated_Source\PSoC6/CapSense_Control.c **** 
 292:Generated_Source\PSoC6/CapSense_Control.c ****     result = CapSense_SsInitialize();
 233              		.loc 1 292 0
 234 001c FFF7FEFF 		bl	CapSense_SsInitialize
 235 0020 7860     		str	r0, [r7, #4]
 293:Generated_Source\PSoC6/CapSense_Control.c **** 
 294:Generated_Source\PSoC6/CapSense_Control.c ****     return result;
 236              		.loc 1 294 0
 237 0022 7B68     		ldr	r3, [r7, #4]
 295:Generated_Source\PSoC6/CapSense_Control.c **** }
 238              		.loc 1 295 0
 239 0024 1846     		mov	r0, r3
 240 0026 0837     		adds	r7, r7, #8
 241              		.cfi_def_cfa_offset 8
 242 0028 BD46     		mov	sp, r7
 243              		.cfi_def_cfa_register 13
 244              		@ sp needed
 245 002a 80BD     		pop	{r7, pc}
 246              	.L21:
 247              		.align	2
 248              	.L20:
 249 002c 00000000 		.word	CapSense_InitVar
 250              		.cfi_endproc
 251              	.LFE259:
 252              		.size	CapSense_Resume, .-CapSense_Resume
 253              		.section	.rodata
 254              		.align	2
 255              	.LC0:
 256 0000 47656E65 		.ascii	"Generated_Source\\PSoC6\\CapSense_Control.c\000"
 256      72617465 
 256      645F536F 
 256      75726365 
 256      5C50536F 
 257              		.section	.text.CapSense_ProcessAllWidgets,"ax",%progbits
 258              		.align	2
 259              		.global	CapSense_ProcessAllWidgets
 260              		.thumb
 261              		.thumb_func
 262              		.type	CapSense_ProcessAllWidgets, %function
 263              	CapSense_ProcessAllWidgets:
 264              	.LFB260:
 296:Generated_Source\PSoC6/CapSense_Control.c **** 
 297:Generated_Source\PSoC6/CapSense_Control.c **** /*******************************************************************************
 298:Generated_Source\PSoC6/CapSense_Control.c **** * Function Name: CapSense_ProcessAllWidgets
 299:Generated_Source\PSoC6/CapSense_Control.c **** ****************************************************************************//**
 300:Generated_Source\PSoC6/CapSense_Control.c **** *
 301:Generated_Source\PSoC6/CapSense_Control.c **** * \brief
 302:Generated_Source\PSoC6/CapSense_Control.c **** *  Performs full data processing of all enabled widgets.
ARM GAS  C:\Users\ikomb\AppData\Local\Temp\ccYmJ8Fr.s 			page 11


 303:Generated_Source\PSoC6/CapSense_Control.c **** *
 304:Generated_Source\PSoC6/CapSense_Control.c **** * \details
 305:Generated_Source\PSoC6/CapSense_Control.c **** *  This function performs all data processes for all enabled widgets in the
 306:Generated_Source\PSoC6/CapSense_Control.c **** *  Component. The following tasks are executed as part of processing all the
 307:Generated_Source\PSoC6/CapSense_Control.c **** *  widgets:
 308:Generated_Source\PSoC6/CapSense_Control.c **** *    1. Apply raw count filters to the raw counts, if they are enabled in the
 309:Generated_Source\PSoC6/CapSense_Control.c **** *       customizer.
 310:Generated_Source\PSoC6/CapSense_Control.c **** *    2. Update the thresholds if the SmartSense Full Auto-Tuning is enabled in
 311:Generated_Source\PSoC6/CapSense_Control.c **** *       the customizer.
 312:Generated_Source\PSoC6/CapSense_Control.c **** *    3. Update the baselines and difference counts for all the sensors.
 313:Generated_Source\PSoC6/CapSense_Control.c **** *    4. Update the sensor and widget status (on/off), update the centroid for
 314:Generated_Source\PSoC6/CapSense_Control.c **** *       the sliders and the X/Y position for the touchpads.
 315:Generated_Source\PSoC6/CapSense_Control.c **** *
 316:Generated_Source\PSoC6/CapSense_Control.c **** *  This function is called by an application program only after all the enabled
 317:Generated_Source\PSoC6/CapSense_Control.c **** *  widgets (and sensors) in the Component is scanned. Calling this function
 318:Generated_Source\PSoC6/CapSense_Control.c **** *  multiple times without sensor scanning causes unexpected behavior.
 319:Generated_Source\PSoC6/CapSense_Control.c **** *
 320:Generated_Source\PSoC6/CapSense_Control.c **** *  The disabled widgets are not processed by this function. To disable/enable
 321:Generated_Source\PSoC6/CapSense_Control.c **** *  a widget, set the appropriate values in the
 322:Generated_Source\PSoC6/CapSense_Control.c **** *  CapSense_WDGT_ENABLE<RegisterNumber>_PARAM_ID register using the
 323:Generated_Source\PSoC6/CapSense_Control.c **** *  CapSense_SetParam() function.
 324:Generated_Source\PSoC6/CapSense_Control.c **** *
 325:Generated_Source\PSoC6/CapSense_Control.c **** *  If the Ballistic multiplier filter is enabled the Timestamp must be
 326:Generated_Source\PSoC6/CapSense_Control.c **** *  updated before calling this function using the
 327:Generated_Source\PSoC6/CapSense_Control.c **** *  CapSense_IncrementGestureTimestamp() function.
 328:Generated_Source\PSoC6/CapSense_Control.c **** *
 329:Generated_Source\PSoC6/CapSense_Control.c **** *  If the Self-test library is enabled, this function executes the baseline duplication
 330:Generated_Source\PSoC6/CapSense_Control.c **** *  test. Refer to CapSense_CheckBaselineDuplication() for details.
 331:Generated_Source\PSoC6/CapSense_Control.c **** *
 332:Generated_Source\PSoC6/CapSense_Control.c **** * \return
 333:Generated_Source\PSoC6/CapSense_Control.c **** *  Returns the status of the processing operation. If CY_RET_SUCCESS is not received,
 334:Generated_Source\PSoC6/CapSense_Control.c **** *  the processing fails and retries may be required.
 335:Generated_Source\PSoC6/CapSense_Control.c **** *
 336:Generated_Source\PSoC6/CapSense_Control.c **** *******************************************************************************/
 337:Generated_Source\PSoC6/CapSense_Control.c **** cy_status CapSense_ProcessAllWidgets(void)
 338:Generated_Source\PSoC6/CapSense_Control.c **** {
 265              		.loc 1 338 0
 266              		.cfi_startproc
 267              		@ args = 0, pretend = 0, frame = 16
 268              		@ frame_needed = 1, uses_anonymous_args = 0
 269 0000 80B5     		push	{r7, lr}
 270              		.cfi_def_cfa_offset 8
 271              		.cfi_offset 7, -8
 272              		.cfi_offset 14, -4
 273 0002 84B0     		sub	sp, sp, #16
 274              		.cfi_def_cfa_offset 24
 275 0004 00AF     		add	r7, sp, #0
 276              		.cfi_def_cfa_register 7
 339:Generated_Source\PSoC6/CapSense_Control.c ****     uint32 wdgtId;
 340:Generated_Source\PSoC6/CapSense_Control.c ****     cy_status result = CY_RET_SUCCESS;
 277              		.loc 1 340 0
 278 0006 0023     		movs	r3, #0
 279 0008 BB60     		str	r3, [r7, #8]
 341:Generated_Source\PSoC6/CapSense_Control.c ****     CapSense_FLASH_WD_STRUCT const *ptrFlashWdgt;
 342:Generated_Source\PSoC6/CapSense_Control.c **** 
 343:Generated_Source\PSoC6/CapSense_Control.c ****     ptrFlashWdgt = CapSense_dsFlash.wdgtArray;
 280              		.loc 1 343 0
ARM GAS  C:\Users\ikomb\AppData\Local\Temp\ccYmJ8Fr.s 			page 12


 281 000a 204B     		ldr	r3, .L31
 282 000c 7B60     		str	r3, [r7, #4]
 344:Generated_Source\PSoC6/CapSense_Control.c **** 
 345:Generated_Source\PSoC6/CapSense_Control.c ****     for (wdgtId = 0u; wdgtId < CapSense_TOTAL_WIDGETS; wdgtId++)
 283              		.loc 1 345 0
 284 000e 0023     		movs	r3, #0
 285 0010 FB60     		str	r3, [r7, #12]
 286 0012 33E0     		b	.L23
 287              	.L28:
 346:Generated_Source\PSoC6/CapSense_Control.c ****     {
 347:Generated_Source\PSoC6/CapSense_Control.c ****         if (0uL != CapSense_GET_WIDGET_EN_STATUS(wdgtId))
 288              		.loc 1 347 0
 289 0014 FB68     		ldr	r3, [r7, #12]
 290 0016 5B09     		lsrs	r3, r3, #5
 291 0018 1D4A     		ldr	r2, .L31+4
 292 001a 0433     		adds	r3, r3, #4
 293 001c 52F82320 		ldr	r2, [r2, r3, lsl #2]
 294 0020 FB68     		ldr	r3, [r7, #12]
 295 0022 03F01F03 		and	r3, r3, #31
 296 0026 22FA03F3 		lsr	r3, r2, r3
 297 002a 03F00103 		and	r3, r3, #1
 298 002e 002B     		cmp	r3, #0
 299 0030 1ED0     		beq	.L24
 348:Generated_Source\PSoC6/CapSense_Control.c ****         {
 349:Generated_Source\PSoC6/CapSense_Control.c ****             switch(CapSense_GET_SENSE_METHOD(ptrFlashWdgt))
 300              		.loc 1 349 0
 301 0032 7B68     		ldr	r3, [r7, #4]
 302 0034 DB7E     		ldrb	r3, [r3, #27]	@ zero_extendqisi2
 303 0036 012B     		cmp	r3, #1
 304 0038 02D0     		beq	.L26
 305 003a 022B     		cmp	r3, #2
 306 003c 09D0     		beq	.L27
 307 003e 11E0     		b	.L30
 308              	.L26:
 350:Generated_Source\PSoC6/CapSense_Control.c ****             {
 351:Generated_Source\PSoC6/CapSense_Control.c ****             #if (0u != CapSense_TOTAL_CSD_WIDGETS)
 352:Generated_Source\PSoC6/CapSense_Control.c ****                 case CapSense_SENSE_METHOD_CSD_E:
 353:Generated_Source\PSoC6/CapSense_Control.c ****                     result = CapSense_DpProcessCsdWidgetRawCounts(ptrFlashWdgt);
 309              		.loc 1 353 0
 310 0040 7868     		ldr	r0, [r7, #4]
 311 0042 FFF7FEFF 		bl	CapSense_DpProcessCsdWidgetRawCounts
 312 0046 B860     		str	r0, [r7, #8]
 354:Generated_Source\PSoC6/CapSense_Control.c ****                     CapSense_DpProcessCsdWidgetStatus(wdgtId, ptrFlashWdgt);
 313              		.loc 1 354 0
 314 0048 7968     		ldr	r1, [r7, #4]
 315 004a F868     		ldr	r0, [r7, #12]
 316 004c FFF7FEFF 		bl	CapSense_DpProcessCsdWidgetStatus
 355:Generated_Source\PSoC6/CapSense_Control.c ****                     break;
 317              		.loc 1 355 0
 318 0050 0EE0     		b	.L24
 319              	.L27:
 356:Generated_Source\PSoC6/CapSense_Control.c ****             #endif /* #if (0u != CapSense_TOTAL_CSD_WIDGETS) */
 357:Generated_Source\PSoC6/CapSense_Control.c **** 
 358:Generated_Source\PSoC6/CapSense_Control.c ****             #if (0u != CapSense_TOTAL_CSX_WIDGETS)
 359:Generated_Source\PSoC6/CapSense_Control.c ****                 case CapSense_SENSE_METHOD_CSX_E:
 360:Generated_Source\PSoC6/CapSense_Control.c ****                     result = CapSense_DpProcessCsxWidgetRawCounts(ptrFlashWdgt);
 320              		.loc 1 360 0
ARM GAS  C:\Users\ikomb\AppData\Local\Temp\ccYmJ8Fr.s 			page 13


 321 0052 7868     		ldr	r0, [r7, #4]
 322 0054 FFF7FEFF 		bl	CapSense_DpProcessCsxWidgetRawCounts
 323 0058 B860     		str	r0, [r7, #8]
 361:Generated_Source\PSoC6/CapSense_Control.c ****                     CapSense_DpProcessCsxWidgetStatus(wdgtId, ptrFlashWdgt);
 324              		.loc 1 361 0
 325 005a 7968     		ldr	r1, [r7, #4]
 326 005c F868     		ldr	r0, [r7, #12]
 327 005e FFF7FEFF 		bl	CapSense_DpProcessCsxWidgetStatus
 362:Generated_Source\PSoC6/CapSense_Control.c ****                     break;
 328              		.loc 1 362 0
 329 0062 05E0     		b	.L24
 330              	.L30:
 363:Generated_Source\PSoC6/CapSense_Control.c ****             #endif /* #if (0u != CapSense_TOTAL_CSX_WIDGETS) */
 364:Generated_Source\PSoC6/CapSense_Control.c **** 
 365:Generated_Source\PSoC6/CapSense_Control.c ****             default:
 366:Generated_Source\PSoC6/CapSense_Control.c ****                 CY_ASSERT(0 != 0);
 331              		.loc 1 366 0
 332 0064 4FF4B771 		mov	r1, #366
 333 0068 0A48     		ldr	r0, .L31+8
 334 006a FFF7FEFF 		bl	Cy_SysLib_AssertFailed
 367:Generated_Source\PSoC6/CapSense_Control.c ****                 break;
 335              		.loc 1 367 0
 336 006e 00BF     		nop
 337              	.L24:
 368:Generated_Source\PSoC6/CapSense_Control.c ****             }
 369:Generated_Source\PSoC6/CapSense_Control.c **** 
 370:Generated_Source\PSoC6/CapSense_Control.c ****             #if (CapSense_ENABLE == CapSense_TST_BSLN_DUPLICATION_EN)
 371:Generated_Source\PSoC6/CapSense_Control.c ****                 if (CY_RET_SUCCESS != result)
 372:Generated_Source\PSoC6/CapSense_Control.c ****                 {
 373:Generated_Source\PSoC6/CapSense_Control.c ****                     CapSense_UpdateTestResultBaselineDuplication(wdgtId, result);
 374:Generated_Source\PSoC6/CapSense_Control.c ****                     result = CY_RET_BAD_DATA;
 375:Generated_Source\PSoC6/CapSense_Control.c ****                 }
 376:Generated_Source\PSoC6/CapSense_Control.c ****             #endif /* (CapSense_ENABLE == CapSense_TST_BSLN_DUPLICATION_EN) */
 377:Generated_Source\PSoC6/CapSense_Control.c **** 
 378:Generated_Source\PSoC6/CapSense_Control.c ****         }
 379:Generated_Source\PSoC6/CapSense_Control.c ****         ptrFlashWdgt++;
 338              		.loc 1 379 0 discriminator 2
 339 0070 7B68     		ldr	r3, [r7, #4]
 340 0072 3033     		adds	r3, r3, #48
 341 0074 7B60     		str	r3, [r7, #4]
 345:Generated_Source\PSoC6/CapSense_Control.c ****     {
 342              		.loc 1 345 0 discriminator 2
 343 0076 FB68     		ldr	r3, [r7, #12]
 344 0078 0133     		adds	r3, r3, #1
 345 007a FB60     		str	r3, [r7, #12]
 346              	.L23:
 345:Generated_Source\PSoC6/CapSense_Control.c ****     {
 347              		.loc 1 345 0 is_stmt 0 discriminator 1
 348 007c FB68     		ldr	r3, [r7, #12]
 349 007e 022B     		cmp	r3, #2
 350 0080 C8D9     		bls	.L28
 380:Generated_Source\PSoC6/CapSense_Control.c ****     }
 381:Generated_Source\PSoC6/CapSense_Control.c ****     return result;
 351              		.loc 1 381 0 is_stmt 1
 352 0082 BB68     		ldr	r3, [r7, #8]
 382:Generated_Source\PSoC6/CapSense_Control.c **** }
 353              		.loc 1 382 0
ARM GAS  C:\Users\ikomb\AppData\Local\Temp\ccYmJ8Fr.s 			page 14


 354 0084 1846     		mov	r0, r3
 355 0086 1037     		adds	r7, r7, #16
 356              		.cfi_def_cfa_offset 8
 357 0088 BD46     		mov	sp, r7
 358              		.cfi_def_cfa_register 13
 359              		@ sp needed
 360 008a 80BD     		pop	{r7, pc}
 361              	.L32:
 362              		.align	2
 363              	.L31:
 364 008c 00000000 		.word	CapSense_dsFlash
 365 0090 00000000 		.word	CapSense_dsRam
 366 0094 00000000 		.word	.LC0
 367              		.cfi_endproc
 368              	.LFE260:
 369              		.size	CapSense_ProcessAllWidgets, .-CapSense_ProcessAllWidgets
 370              		.section	.text.CapSense_ProcessWidget,"ax",%progbits
 371              		.align	2
 372              		.global	CapSense_ProcessWidget
 373              		.thumb
 374              		.thumb_func
 375              		.type	CapSense_ProcessWidget, %function
 376              	CapSense_ProcessWidget:
 377              	.LFB261:
 383:Generated_Source\PSoC6/CapSense_Control.c **** 
 384:Generated_Source\PSoC6/CapSense_Control.c **** /*******************************************************************************
 385:Generated_Source\PSoC6/CapSense_Control.c **** * Function Name: CapSense_ProcessWidget
 386:Generated_Source\PSoC6/CapSense_Control.c **** ****************************************************************************//**
 387:Generated_Source\PSoC6/CapSense_Control.c **** *
 388:Generated_Source\PSoC6/CapSense_Control.c **** * \brief
 389:Generated_Source\PSoC6/CapSense_Control.c **** *  Performs full data processing of the specified widget if it is enabled.
 390:Generated_Source\PSoC6/CapSense_Control.c **** *
 391:Generated_Source\PSoC6/CapSense_Control.c **** * \details
 392:Generated_Source\PSoC6/CapSense_Control.c **** *  This function performs exactly the same tasks as
 393:Generated_Source\PSoC6/CapSense_Control.c **** *  CapSense_ProcessAllWidgets(), but only for a specified widget. This
 394:Generated_Source\PSoC6/CapSense_Control.c **** *  function can be used along with the CapSense_SetupWidget() and
 395:Generated_Source\PSoC6/CapSense_Control.c **** *  CapSense_Scan() functions to scan and process data for a specific
 396:Generated_Source\PSoC6/CapSense_Control.c **** *  widget. This function is called only after all the sensors in the
 397:Generated_Source\PSoC6/CapSense_Control.c **** *  widgets are scanned. A disabled widget is not processed by this function.
 398:Generated_Source\PSoC6/CapSense_Control.c **** *
 399:Generated_Source\PSoC6/CapSense_Control.c **** *  A pipeline scan method (i.e. during scanning of a widget perform processing
 400:Generated_Source\PSoC6/CapSense_Control.c **** *  of the previously scanned widget) can be implemented using this function and
 401:Generated_Source\PSoC6/CapSense_Control.c **** *  it may reduce the total execution time, increase the refresh rate and
 402:Generated_Source\PSoC6/CapSense_Control.c **** *  decrease the average power consumption.
 403:Generated_Source\PSoC6/CapSense_Control.c **** *
 404:Generated_Source\PSoC6/CapSense_Control.c **** *  If the Ballistic multiplier filter is enabled the Timestamp must be
 405:Generated_Source\PSoC6/CapSense_Control.c **** *  updated before calling this function using the
 406:Generated_Source\PSoC6/CapSense_Control.c **** *  CapSense_IncrementGestureTimestamp() function.
 407:Generated_Source\PSoC6/CapSense_Control.c **** *
 408:Generated_Source\PSoC6/CapSense_Control.c **** *  If the Self-test library is enabled, this function executes the baseline duplication
 409:Generated_Source\PSoC6/CapSense_Control.c **** *  test. Refer to CapSense_CheckBaselineDuplication() for details.
 410:Generated_Source\PSoC6/CapSense_Control.c **** *
 411:Generated_Source\PSoC6/CapSense_Control.c **** * \param widgetId
 412:Generated_Source\PSoC6/CapSense_Control.c **** *  Specifies the ID number of the widget to be processed.
 413:Generated_Source\PSoC6/CapSense_Control.c **** *  A macro for the widget ID can be found in the
 414:Generated_Source\PSoC6/CapSense_Control.c **** *  CapSense Configuration header file defined as
 415:Generated_Source\PSoC6/CapSense_Control.c **** *  CapSense_<WidgetName>_WDGT_ID
ARM GAS  C:\Users\ikomb\AppData\Local\Temp\ccYmJ8Fr.s 			page 15


 416:Generated_Source\PSoC6/CapSense_Control.c **** *
 417:Generated_Source\PSoC6/CapSense_Control.c **** * \return
 418:Generated_Source\PSoC6/CapSense_Control.c **** *  Returns the status of the widget processing:
 419:Generated_Source\PSoC6/CapSense_Control.c **** *  - CY_RET_SUCCESS - The operation is successfully completed
 420:Generated_Source\PSoC6/CapSense_Control.c **** *  - CY_RET_BAD_PARAM - The input parameter is invalid
 421:Generated_Source\PSoC6/CapSense_Control.c **** *  - CY_RET_INVALID_STATE - The specified widget is disabled
 422:Generated_Source\PSoC6/CapSense_Control.c **** *  - CY_RET_BAD_DATA - The processing is failed
 423:Generated_Source\PSoC6/CapSense_Control.c **** *
 424:Generated_Source\PSoC6/CapSense_Control.c **** *******************************************************************************/
 425:Generated_Source\PSoC6/CapSense_Control.c **** cy_status CapSense_ProcessWidget(uint32 widgetId)
 426:Generated_Source\PSoC6/CapSense_Control.c **** {
 378              		.loc 1 426 0
 379              		.cfi_startproc
 380              		@ args = 0, pretend = 0, frame = 16
 381              		@ frame_needed = 1, uses_anonymous_args = 0
 382 0000 80B5     		push	{r7, lr}
 383              		.cfi_def_cfa_offset 8
 384              		.cfi_offset 7, -8
 385              		.cfi_offset 14, -4
 386 0002 84B0     		sub	sp, sp, #16
 387              		.cfi_def_cfa_offset 24
 388 0004 00AF     		add	r7, sp, #0
 389              		.cfi_def_cfa_register 7
 390 0006 7860     		str	r0, [r7, #4]
 427:Generated_Source\PSoC6/CapSense_Control.c ****     cy_status result = CY_RET_SUCCESS;
 391              		.loc 1 427 0
 392 0008 0023     		movs	r3, #0
 393 000a FB60     		str	r3, [r7, #12]
 428:Generated_Source\PSoC6/CapSense_Control.c ****     CapSense_FLASH_WD_STRUCT const *ptrFlashWdgt;
 429:Generated_Source\PSoC6/CapSense_Control.c **** 
 430:Generated_Source\PSoC6/CapSense_Control.c ****     if (widgetId >= CapSense_TOTAL_WIDGETS)
 394              		.loc 1 430 0
 395 000c 7B68     		ldr	r3, [r7, #4]
 396 000e 022B     		cmp	r3, #2
 397 0010 01D9     		bls	.L34
 431:Generated_Source\PSoC6/CapSense_Control.c ****     {
 432:Generated_Source\PSoC6/CapSense_Control.c ****         result = CY_RET_BAD_PARAM;
 398              		.loc 1 432 0
 399 0012 0123     		movs	r3, #1
 400 0014 FB60     		str	r3, [r7, #12]
 401              	.L34:
 433:Generated_Source\PSoC6/CapSense_Control.c ****     }
 434:Generated_Source\PSoC6/CapSense_Control.c **** 
 435:Generated_Source\PSoC6/CapSense_Control.c ****     if ((CY_RET_SUCCESS == result) && (0uL == CapSense_GET_WIDGET_EN_STATUS(widgetId)))
 402              		.loc 1 435 0
 403 0016 FB68     		ldr	r3, [r7, #12]
 404 0018 002B     		cmp	r3, #0
 405 001a 10D1     		bne	.L35
 406              		.loc 1 435 0 is_stmt 0 discriminator 1
 407 001c 7B68     		ldr	r3, [r7, #4]
 408 001e 5B09     		lsrs	r3, r3, #5
 409 0020 1E4A     		ldr	r2, .L42
 410 0022 0433     		adds	r3, r3, #4
 411 0024 52F82320 		ldr	r2, [r2, r3, lsl #2]
 412 0028 7B68     		ldr	r3, [r7, #4]
 413 002a 03F01F03 		and	r3, r3, #31
 414 002e 22FA03F3 		lsr	r3, r2, r3
ARM GAS  C:\Users\ikomb\AppData\Local\Temp\ccYmJ8Fr.s 			page 16


 415 0032 03F00103 		and	r3, r3, #1
 416 0036 002B     		cmp	r3, #0
 417 0038 01D1     		bne	.L35
 436:Generated_Source\PSoC6/CapSense_Control.c ****     {
 437:Generated_Source\PSoC6/CapSense_Control.c ****         result = CY_RET_INVALID_STATE;
 418              		.loc 1 437 0 is_stmt 1
 419 003a 1123     		movs	r3, #17
 420 003c FB60     		str	r3, [r7, #12]
 421              	.L35:
 438:Generated_Source\PSoC6/CapSense_Control.c ****     }
 439:Generated_Source\PSoC6/CapSense_Control.c **** 
 440:Generated_Source\PSoC6/CapSense_Control.c ****     if (CY_RET_SUCCESS == result)
 422              		.loc 1 440 0
 423 003e FB68     		ldr	r3, [r7, #12]
 424 0040 002B     		cmp	r3, #0
 425 0042 26D1     		bne	.L36
 441:Generated_Source\PSoC6/CapSense_Control.c ****     {
 442:Generated_Source\PSoC6/CapSense_Control.c ****         ptrFlashWdgt = &CapSense_dsFlash.wdgtArray[widgetId];
 426              		.loc 1 442 0
 427 0044 7A68     		ldr	r2, [r7, #4]
 428 0046 1346     		mov	r3, r2
 429 0048 5B00     		lsls	r3, r3, #1
 430 004a 1344     		add	r3, r3, r2
 431 004c 1B01     		lsls	r3, r3, #4
 432 004e 144A     		ldr	r2, .L42+4
 433 0050 1344     		add	r3, r3, r2
 434 0052 BB60     		str	r3, [r7, #8]
 443:Generated_Source\PSoC6/CapSense_Control.c **** 
 444:Generated_Source\PSoC6/CapSense_Control.c ****         switch(CapSense_GET_SENSE_METHOD(ptrFlashWdgt))
 435              		.loc 1 444 0
 436 0054 BB68     		ldr	r3, [r7, #8]
 437 0056 DB7E     		ldrb	r3, [r3, #27]	@ zero_extendqisi2
 438 0058 012B     		cmp	r3, #1
 439 005a 02D0     		beq	.L38
 440 005c 022B     		cmp	r3, #2
 441 005e 09D0     		beq	.L39
 442 0060 11E0     		b	.L41
 443              	.L38:
 445:Generated_Source\PSoC6/CapSense_Control.c ****         {
 446:Generated_Source\PSoC6/CapSense_Control.c ****         #if (0u != CapSense_TOTAL_CSD_WIDGETS)
 447:Generated_Source\PSoC6/CapSense_Control.c ****             case CapSense_SENSE_METHOD_CSD_E:
 448:Generated_Source\PSoC6/CapSense_Control.c ****                 result = CapSense_DpProcessCsdWidgetRawCounts(ptrFlashWdgt);
 444              		.loc 1 448 0
 445 0062 B868     		ldr	r0, [r7, #8]
 446 0064 FFF7FEFF 		bl	CapSense_DpProcessCsdWidgetRawCounts
 447 0068 F860     		str	r0, [r7, #12]
 449:Generated_Source\PSoC6/CapSense_Control.c ****                 CapSense_DpProcessCsdWidgetStatus(widgetId, ptrFlashWdgt);
 448              		.loc 1 449 0
 449 006a B968     		ldr	r1, [r7, #8]
 450 006c 7868     		ldr	r0, [r7, #4]
 451 006e FFF7FEFF 		bl	CapSense_DpProcessCsdWidgetStatus
 450:Generated_Source\PSoC6/CapSense_Control.c ****                 break;
 452              		.loc 1 450 0
 453 0072 0EE0     		b	.L36
 454              	.L39:
 451:Generated_Source\PSoC6/CapSense_Control.c ****         #endif /* #if (0u != CapSense_TOTAL_CSD_WIDGETS) */
 452:Generated_Source\PSoC6/CapSense_Control.c **** 
ARM GAS  C:\Users\ikomb\AppData\Local\Temp\ccYmJ8Fr.s 			page 17


 453:Generated_Source\PSoC6/CapSense_Control.c ****         #if (0u != CapSense_TOTAL_CSX_WIDGETS)
 454:Generated_Source\PSoC6/CapSense_Control.c ****             case CapSense_SENSE_METHOD_CSX_E:
 455:Generated_Source\PSoC6/CapSense_Control.c ****                 result = CapSense_DpProcessCsxWidgetRawCounts(ptrFlashWdgt);
 455              		.loc 1 455 0
 456 0074 B868     		ldr	r0, [r7, #8]
 457 0076 FFF7FEFF 		bl	CapSense_DpProcessCsxWidgetRawCounts
 458 007a F860     		str	r0, [r7, #12]
 456:Generated_Source\PSoC6/CapSense_Control.c ****                 CapSense_DpProcessCsxWidgetStatus(widgetId, ptrFlashWdgt);
 459              		.loc 1 456 0
 460 007c B968     		ldr	r1, [r7, #8]
 461 007e 7868     		ldr	r0, [r7, #4]
 462 0080 FFF7FEFF 		bl	CapSense_DpProcessCsxWidgetStatus
 457:Generated_Source\PSoC6/CapSense_Control.c ****                 break;
 463              		.loc 1 457 0
 464 0084 05E0     		b	.L36
 465              	.L41:
 458:Generated_Source\PSoC6/CapSense_Control.c ****         #endif /* #if (0u != CapSense_TOTAL_CSX_WIDGETS) */
 459:Generated_Source\PSoC6/CapSense_Control.c **** 
 460:Generated_Source\PSoC6/CapSense_Control.c ****         default:
 461:Generated_Source\PSoC6/CapSense_Control.c ****             CY_ASSERT(0 != 0);
 466              		.loc 1 461 0
 467 0086 40F2CD11 		movw	r1, #461
 468 008a 0648     		ldr	r0, .L42+8
 469 008c FFF7FEFF 		bl	Cy_SysLib_AssertFailed
 462:Generated_Source\PSoC6/CapSense_Control.c ****             break;
 470              		.loc 1 462 0
 471 0090 00BF     		nop
 472              	.L36:
 463:Generated_Source\PSoC6/CapSense_Control.c ****         }
 464:Generated_Source\PSoC6/CapSense_Control.c **** 
 465:Generated_Source\PSoC6/CapSense_Control.c ****         #if (CapSense_ENABLE == CapSense_TST_BSLN_DUPLICATION_EN)
 466:Generated_Source\PSoC6/CapSense_Control.c ****             if (CY_RET_SUCCESS != result)
 467:Generated_Source\PSoC6/CapSense_Control.c ****             {
 468:Generated_Source\PSoC6/CapSense_Control.c ****                 CapSense_UpdateTestResultBaselineDuplication(widgetId, result);
 469:Generated_Source\PSoC6/CapSense_Control.c ****                 result = CY_RET_BAD_DATA;
 470:Generated_Source\PSoC6/CapSense_Control.c ****             }
 471:Generated_Source\PSoC6/CapSense_Control.c ****         #endif /* (CapSense_ENABLE == CapSense_TST_BSLN_DUPLICATION_EN) */
 472:Generated_Source\PSoC6/CapSense_Control.c ****     }
 473:Generated_Source\PSoC6/CapSense_Control.c ****     return result;
 473              		.loc 1 473 0
 474 0092 FB68     		ldr	r3, [r7, #12]
 474:Generated_Source\PSoC6/CapSense_Control.c **** }
 475              		.loc 1 474 0
 476 0094 1846     		mov	r0, r3
 477 0096 1037     		adds	r7, r7, #16
 478              		.cfi_def_cfa_offset 8
 479 0098 BD46     		mov	sp, r7
 480              		.cfi_def_cfa_register 13
 481              		@ sp needed
 482 009a 80BD     		pop	{r7, pc}
 483              	.L43:
 484              		.align	2
 485              	.L42:
 486 009c 00000000 		.word	CapSense_dsRam
 487 00a0 00000000 		.word	CapSense_dsFlash
 488 00a4 00000000 		.word	.LC0
 489              		.cfi_endproc
ARM GAS  C:\Users\ikomb\AppData\Local\Temp\ccYmJ8Fr.s 			page 18


 490              	.LFE261:
 491              		.size	CapSense_ProcessWidget, .-CapSense_ProcessWidget
 492              		.section	.text.CapSense_ProcessWidgetExt,"ax",%progbits
 493              		.align	2
 494              		.global	CapSense_ProcessWidgetExt
 495              		.thumb
 496              		.thumb_func
 497              		.type	CapSense_ProcessWidgetExt, %function
 498              	CapSense_ProcessWidgetExt:
 499              	.LFB262:
 475:Generated_Source\PSoC6/CapSense_Control.c **** 
 476:Generated_Source\PSoC6/CapSense_Control.c **** 
 477:Generated_Source\PSoC6/CapSense_Control.c **** /*******************************************************************************
 478:Generated_Source\PSoC6/CapSense_Control.c **** * Function Name: CapSense_ProcessWidgetExt
 479:Generated_Source\PSoC6/CapSense_Control.c **** ****************************************************************************//**
 480:Generated_Source\PSoC6/CapSense_Control.c **** *
 481:Generated_Source\PSoC6/CapSense_Control.c **** * \brief
 482:Generated_Source\PSoC6/CapSense_Control.c **** *  Performs customized data processing on the selected widget.
 483:Generated_Source\PSoC6/CapSense_Control.c **** *
 484:Generated_Source\PSoC6/CapSense_Control.c **** * \details
 485:Generated_Source\PSoC6/CapSense_Control.c **** *  This function performs data processes for the specified widget specified by
 486:Generated_Source\PSoC6/CapSense_Control.c **** *  the mode parameter. The execution order of the requested operations is from
 487:Generated_Source\PSoC6/CapSense_Control.c **** *  LSB to MSB of the mode parameter. For a different order, this API
 488:Generated_Source\PSoC6/CapSense_Control.c **** *  can be called multiple times with the required mode parameter.
 489:Generated_Source\PSoC6/CapSense_Control.c **** *
 490:Generated_Source\PSoC6/CapSense_Control.c **** *  This function can be used with any of the available scan functions. This
 491:Generated_Source\PSoC6/CapSense_Control.c **** *  function is called only after all the sensors in the specified widget are
 492:Generated_Source\PSoC6/CapSense_Control.c **** *  scanned. Calling this function multiple times with the same mode without
 493:Generated_Source\PSoC6/CapSense_Control.c **** *  sensor scanning causes unexpected behavior. This function ignores the value
 494:Generated_Source\PSoC6/CapSense_Control.c **** *  of the wdgtEnable register.
 495:Generated_Source\PSoC6/CapSense_Control.c **** *
 496:Generated_Source\PSoC6/CapSense_Control.c **** *  The CapSense_PROCESS_CALC_NOISE and
 497:Generated_Source\PSoC6/CapSense_Control.c **** *  CapSense_PROCESS_THRESHOLDS flags are supported by the CSD sensing
 498:Generated_Source\PSoC6/CapSense_Control.c **** *  method only when Auto-tuning mode is enabled.
 499:Generated_Source\PSoC6/CapSense_Control.c **** *
 500:Generated_Source\PSoC6/CapSense_Control.c **** *  The pipeline scan method (i.e. during scanning of a widget, processing
 501:Generated_Source\PSoC6/CapSense_Control.c **** *  of a previously scanned widget is performed) can be implemented using this
 502:Generated_Source\PSoC6/CapSense_Control.c **** *  function and it may reduce the total scan/process time, increase the refresh
 503:Generated_Source\PSoC6/CapSense_Control.c **** *  rate and decrease the power consumption.
 504:Generated_Source\PSoC6/CapSense_Control.c **** *
 505:Generated_Source\PSoC6/CapSense_Control.c **** *  If the Self-test library is enabled, this function executes the baseline duplication
 506:Generated_Source\PSoC6/CapSense_Control.c **** *  test. Refer to CapSense_CheckBaselineDuplication() for details.
 507:Generated_Source\PSoC6/CapSense_Control.c **** *
 508:Generated_Source\PSoC6/CapSense_Control.c **** *  If the Ballistic multiplier filter is enabled the Timestamp must be
 509:Generated_Source\PSoC6/CapSense_Control.c **** *  updated before calling this function using the
 510:Generated_Source\PSoC6/CapSense_Control.c **** *  CapSense_IncrementGestureTimestamp() function.
 511:Generated_Source\PSoC6/CapSense_Control.c **** *
 512:Generated_Source\PSoC6/CapSense_Control.c **** * \param widgetId
 513:Generated_Source\PSoC6/CapSense_Control.c **** *  Specifies the ID number of the widget to be processed.
 514:Generated_Source\PSoC6/CapSense_Control.c **** *  A macro for the widget ID can be found in the CapSense Configuration header
 515:Generated_Source\PSoC6/CapSense_Control.c **** *  file defined as CapSense_<WidgetName>_WDGT_ID.
 516:Generated_Source\PSoC6/CapSense_Control.c **** 
 517:Generated_Source\PSoC6/CapSense_Control.c **** * \param mode
 518:Generated_Source\PSoC6/CapSense_Control.c **** *  Specifies the type of widget processing to be executed for the
 519:Generated_Source\PSoC6/CapSense_Control.c **** *  specified widget:
 520:Generated_Source\PSoC6/CapSense_Control.c **** *    1. Bits [31..6] - Reserved.
 521:Generated_Source\PSoC6/CapSense_Control.c **** *    2. Bits [5..0] - CapSense_PROCESS_ALL - Execute all the tasks.
ARM GAS  C:\Users\ikomb\AppData\Local\Temp\ccYmJ8Fr.s 			page 19


 522:Generated_Source\PSoC6/CapSense_Control.c **** *    3. Bit [5] - CapSense_PROCESS_STATUS - Update the status (on/off,
 523:Generated_Source\PSoC6/CapSense_Control.c **** *       centroid position).
 524:Generated_Source\PSoC6/CapSense_Control.c **** *    4. Bit [4] - CapSense_PROCESS_THRESHOLDS - Update the thresholds
 525:Generated_Source\PSoC6/CapSense_Control.c **** *       (only in CSD auto-tuning mode).
 526:Generated_Source\PSoC6/CapSense_Control.c **** *    5. Bit [3] - CapSense_PROCESS_CALC_NOISE - Calculate the noise (only in
 527:Generated_Source\PSoC6/CapSense_Control.c **** *       CSD auto-tuning mode).
 528:Generated_Source\PSoC6/CapSense_Control.c **** *    6. Bit [2] - CapSense_PROCESS_DIFFCOUNTS - Update the difference counts.
 529:Generated_Source\PSoC6/CapSense_Control.c **** *    7. Bit [1] - CapSense_PROCESS_BASELINE - Update the baselines.
 530:Generated_Source\PSoC6/CapSense_Control.c **** *    8. Bit [0] - CapSense_PROCESS_FILTER - Run the firmware filters.
 531:Generated_Source\PSoC6/CapSense_Control.c **** *
 532:Generated_Source\PSoC6/CapSense_Control.c **** * \return
 533:Generated_Source\PSoC6/CapSense_Control.c **** *  Returns the status of the widget processing operation:
 534:Generated_Source\PSoC6/CapSense_Control.c **** *  - CY_RET_SUCCESS - The processing is successfully performed.
 535:Generated_Source\PSoC6/CapSense_Control.c **** *  - CY_RET_BAD_PARAM - The input parameter is invalid.
 536:Generated_Source\PSoC6/CapSense_Control.c **** *  - CY_RET_BAD_DATA - The processing failed.
 537:Generated_Source\PSoC6/CapSense_Control.c **** *
 538:Generated_Source\PSoC6/CapSense_Control.c **** *******************************************************************************/
 539:Generated_Source\PSoC6/CapSense_Control.c **** cy_status CapSense_ProcessWidgetExt(uint32 widgetId, uint32 mode)
 540:Generated_Source\PSoC6/CapSense_Control.c **** {
 500              		.loc 1 540 0
 501              		.cfi_startproc
 502              		@ args = 0, pretend = 0, frame = 32
 503              		@ frame_needed = 1, uses_anonymous_args = 0
 504 0000 80B5     		push	{r7, lr}
 505              		.cfi_def_cfa_offset 8
 506              		.cfi_offset 7, -8
 507              		.cfi_offset 14, -4
 508 0002 88B0     		sub	sp, sp, #32
 509              		.cfi_def_cfa_offset 40
 510 0004 00AF     		add	r7, sp, #0
 511              		.cfi_def_cfa_register 7
 512 0006 7860     		str	r0, [r7, #4]
 513 0008 3960     		str	r1, [r7]
 541:Generated_Source\PSoC6/CapSense_Control.c ****     uint32 snsCount;
 542:Generated_Source\PSoC6/CapSense_Control.c ****     cy_status result = CY_RET_BAD_PARAM;
 514              		.loc 1 542 0
 515 000a 0123     		movs	r3, #1
 516 000c BB61     		str	r3, [r7, #24]
 543:Generated_Source\PSoC6/CapSense_Control.c ****     CapSense_FLASH_WD_STRUCT const *ptrFlashWdgt;
 544:Generated_Source\PSoC6/CapSense_Control.c ****     CapSense_PTR_FILTER_VARIANT fltrHistV;
 545:Generated_Source\PSoC6/CapSense_Control.c ****     CapSense_RAM_SNS_STRUCT *ptrSnsTmp;
 546:Generated_Source\PSoC6/CapSense_Control.c **** 
 547:Generated_Source\PSoC6/CapSense_Control.c ****     #if (0u != CapSense_TOTAL_CSD_WIDGETS)
 548:Generated_Source\PSoC6/CapSense_Control.c ****         uint32 isProxWdgt;
 549:Generated_Source\PSoC6/CapSense_Control.c ****     #endif
 550:Generated_Source\PSoC6/CapSense_Control.c **** 
 551:Generated_Source\PSoC6/CapSense_Control.c ****     if (widgetId < CapSense_TOTAL_WIDGETS)
 517              		.loc 1 551 0
 518 000e 7B68     		ldr	r3, [r7, #4]
 519 0010 022B     		cmp	r3, #2
 520 0012 64D8     		bhi	.L45
 552:Generated_Source\PSoC6/CapSense_Control.c ****     {
 553:Generated_Source\PSoC6/CapSense_Control.c ****         ptrFlashWdgt = &CapSense_dsFlash.wdgtArray[widgetId];
 521              		.loc 1 553 0
 522 0014 7A68     		ldr	r2, [r7, #4]
 523 0016 1346     		mov	r3, r2
 524 0018 5B00     		lsls	r3, r3, #1
ARM GAS  C:\Users\ikomb\AppData\Local\Temp\ccYmJ8Fr.s 			page 20


 525 001a 1344     		add	r3, r3, r2
 526 001c 1B01     		lsls	r3, r3, #4
 527 001e 324A     		ldr	r2, .L61
 528 0020 1344     		add	r3, r3, r2
 529 0022 3B61     		str	r3, [r7, #16]
 554:Generated_Source\PSoC6/CapSense_Control.c ****         snsCount = CapSense_GET_SNS_CNT_BY_PTR(ptrFlashWdgt);
 530              		.loc 1 554 0
 531 0024 3B69     		ldr	r3, [r7, #16]
 532 0026 1B8B     		ldrh	r3, [r3, #24]
 533 0028 FB61     		str	r3, [r7, #28]
 555:Generated_Source\PSoC6/CapSense_Control.c ****         ptrSnsTmp = ptrFlashWdgt->ptr2SnsRam;
 534              		.loc 1 555 0
 535 002a 3B69     		ldr	r3, [r7, #16]
 536 002c 9B68     		ldr	r3, [r3, #8]
 537 002e 7B61     		str	r3, [r7, #20]
 556:Generated_Source\PSoC6/CapSense_Control.c ****         fltrHistV.ptr = ptrFlashWdgt->ptr2FltrHistory;
 538              		.loc 1 556 0
 539 0030 3B69     		ldr	r3, [r7, #16]
 540 0032 DB68     		ldr	r3, [r3, #12]
 541 0034 BB60     		str	r3, [r7, #8]
 557:Generated_Source\PSoC6/CapSense_Control.c **** 
 558:Generated_Source\PSoC6/CapSense_Control.c ****         switch(CapSense_GET_SENSE_METHOD(ptrFlashWdgt))
 542              		.loc 1 558 0
 543 0036 3B69     		ldr	r3, [r7, #16]
 544 0038 DB7E     		ldrb	r3, [r3, #27]	@ zero_extendqisi2
 545 003a 012B     		cmp	r3, #1
 546 003c 02D0     		beq	.L47
 547 003e 022B     		cmp	r3, #2
 548 0040 35D0     		beq	.L54
 549 0042 43E0     		b	.L58
 550              	.L47:
 559:Generated_Source\PSoC6/CapSense_Control.c ****         {
 560:Generated_Source\PSoC6/CapSense_Control.c ****         #if (0u != CapSense_TOTAL_CSD_WIDGETS)
 561:Generated_Source\PSoC6/CapSense_Control.c ****             case CapSense_SENSE_METHOD_CSD_E:
 562:Generated_Source\PSoC6/CapSense_Control.c ****             {
 563:Generated_Source\PSoC6/CapSense_Control.c ****                 /* Determine if widget is type of proximity.
 564:Generated_Source\PSoC6/CapSense_Control.c ****                  * The Proximity widgets use different filters and
 565:Generated_Source\PSoC6/CapSense_Control.c ****                  * therefore have different filter history object structure */
 566:Generated_Source\PSoC6/CapSense_Control.c ****                 isProxWdgt = (CapSense_GET_WIDGET_TYPE(ptrFlashWdgt) == CapSense_WD_PROXIMITY_E) ? 
 551              		.loc 1 566 0
 552 0044 3B69     		ldr	r3, [r7, #16]
 553 0046 9B7E     		ldrb	r3, [r3, #26]	@ zero_extendqisi2
 554 0048 062B     		cmp	r3, #6
 555 004a 01D1     		bne	.L49
 556              		.loc 1 566 0 is_stmt 0 discriminator 1
 557 004c 0123     		movs	r3, #1
 558 004e 00E0     		b	.L50
 559              	.L49:
 560              		.loc 1 566 0 discriminator 2
 561 0050 0023     		movs	r3, #0
 562              	.L50:
 563              		.loc 1 566 0 discriminator 4
 564 0052 FB60     		str	r3, [r7, #12]
 567:Generated_Source\PSoC6/CapSense_Control.c **** 
 568:Generated_Source\PSoC6/CapSense_Control.c ****                 /* Run the desired processing for the all CSD widget sensors */
 569:Generated_Source\PSoC6/CapSense_Control.c ****                 for (;snsCount-- > 0u;)
 565              		.loc 1 569 0 is_stmt 1 discriminator 4
ARM GAS  C:\Users\ikomb\AppData\Local\Temp\ccYmJ8Fr.s 			page 21


 566 0054 0FE0     		b	.L51
 567              	.L52:
 570:Generated_Source\PSoC6/CapSense_Control.c ****                 {
 571:Generated_Source\PSoC6/CapSense_Control.c ****                     result = CapSense_DpProcessCsdSensorRawCountsExt(ptrFlashWdgt, ptrSnsTmp, fltrH
 568              		.loc 1 571 0
 569 0056 3B68     		ldr	r3, [r7]
 570 0058 BA68     		ldr	r2, [r7, #8]
 571 005a 7969     		ldr	r1, [r7, #20]
 572 005c 3869     		ldr	r0, [r7, #16]
 573 005e FFF7FEFF 		bl	CapSense_DpProcessCsdSensorRawCountsExt
 574 0062 B861     		str	r0, [r7, #24]
 572:Generated_Source\PSoC6/CapSense_Control.c **** 
 573:Generated_Source\PSoC6/CapSense_Control.c ****                     #if (CapSense_ENABLE == CapSense_TST_BSLN_DUPLICATION_EN)
 574:Generated_Source\PSoC6/CapSense_Control.c ****                         if (CY_RET_SUCCESS != result)
 575:Generated_Source\PSoC6/CapSense_Control.c ****                         {
 576:Generated_Source\PSoC6/CapSense_Control.c ****                             result = (result | CapSense_TST_LSBYTE) & snsCount;
 577:Generated_Source\PSoC6/CapSense_Control.c ****                         }
 578:Generated_Source\PSoC6/CapSense_Control.c ****                     #endif /* (CapSense_ENABLE == CapSense_TST_BSLN_DUPLICATION_EN) */
 579:Generated_Source\PSoC6/CapSense_Control.c **** 
 580:Generated_Source\PSoC6/CapSense_Control.c ****                     /* Move to the next sensor and filter history objects */
 581:Generated_Source\PSoC6/CapSense_Control.c ****                     ptrSnsTmp++;
 575              		.loc 1 581 0
 576 0064 7B69     		ldr	r3, [r7, #20]
 577 0066 0A33     		adds	r3, r3, #10
 578 0068 7B61     		str	r3, [r7, #20]
 582:Generated_Source\PSoC6/CapSense_Control.c ****                     CapSense_INC_FLTR_OBJ_VARIANT(isProxWdgt, fltrHistV);
 579              		.loc 1 582 0
 580 006a FB68     		ldr	r3, [r7, #12]
 581 006c 002B     		cmp	r3, #0
 582 006e 02D1     		bne	.L51
 583              		.loc 1 582 0 is_stmt 0 discriminator 1
 584 0070 BB68     		ldr	r3, [r7, #8]
 585 0072 0A33     		adds	r3, r3, #10
 586 0074 BB60     		str	r3, [r7, #8]
 587              	.L51:
 569:Generated_Source\PSoC6/CapSense_Control.c ****                 {
 588              		.loc 1 569 0 is_stmt 1
 589 0076 FB69     		ldr	r3, [r7, #28]
 590 0078 5A1E     		subs	r2, r3, #1
 591 007a FA61     		str	r2, [r7, #28]
 592 007c 002B     		cmp	r3, #0
 593 007e EAD1     		bne	.L52
 583:Generated_Source\PSoC6/CapSense_Control.c ****                 }
 584:Generated_Source\PSoC6/CapSense_Control.c **** 
 585:Generated_Source\PSoC6/CapSense_Control.c ****                 if (0u != (mode & CapSense_PROCESS_STATUS))
 594              		.loc 1 585 0
 595 0080 3B68     		ldr	r3, [r7]
 596 0082 03F02003 		and	r3, r3, #32
 597 0086 002B     		cmp	r3, #0
 598 0088 26D0     		beq	.L59
 586:Generated_Source\PSoC6/CapSense_Control.c ****                 {
 587:Generated_Source\PSoC6/CapSense_Control.c ****                     CapSense_DpProcessCsdWidgetStatus(widgetId, ptrFlashWdgt);
 599              		.loc 1 587 0
 600 008a 3969     		ldr	r1, [r7, #16]
 601 008c 7868     		ldr	r0, [r7, #4]
 602 008e FFF7FEFF 		bl	CapSense_DpProcessCsdWidgetStatus
 588:Generated_Source\PSoC6/CapSense_Control.c ****                 }
ARM GAS  C:\Users\ikomb\AppData\Local\Temp\ccYmJ8Fr.s 			page 22


 589:Generated_Source\PSoC6/CapSense_Control.c ****                 break;
 603              		.loc 1 589 0
 604 0092 21E0     		b	.L59
 605              	.L55:
 590:Generated_Source\PSoC6/CapSense_Control.c ****             }
 591:Generated_Source\PSoC6/CapSense_Control.c ****         #endif /* #if (0u != CapSense_TOTAL_CSD_WIDGETS) */
 592:Generated_Source\PSoC6/CapSense_Control.c **** 
 593:Generated_Source\PSoC6/CapSense_Control.c ****         #if (0u != CapSense_TOTAL_CSX_WIDGETS)
 594:Generated_Source\PSoC6/CapSense_Control.c ****             case CapSense_SENSE_METHOD_CSX_E:
 595:Generated_Source\PSoC6/CapSense_Control.c **** 
 596:Generated_Source\PSoC6/CapSense_Control.c ****                 #if (0u != CapSense_CSX_MULTIPHASE_TX_EN)
 597:Generated_Source\PSoC6/CapSense_Control.c ****                     if ((0u != (mode & CapSense_PROCESS_DECONVOLUTION)) &&
 598:Generated_Source\PSoC6/CapSense_Control.c ****                         (0u != (ptrFlashWdgt->staticConfig & CapSense_MULTIPHASE_TX_MASK)))
 599:Generated_Source\PSoC6/CapSense_Control.c ****                     {
 600:Generated_Source\PSoC6/CapSense_Control.c ****                         CapSense_DpDeconvolution(ptrFlashWdgt);
 601:Generated_Source\PSoC6/CapSense_Control.c ****                     }
 602:Generated_Source\PSoC6/CapSense_Control.c ****                 #endif /* #if (0u != CapSense_CSX_MULTIPHASE_TX_EN) */
 603:Generated_Source\PSoC6/CapSense_Control.c **** 
 604:Generated_Source\PSoC6/CapSense_Control.c ****                 /* Run the desired processing for the all CSX widget sensors */
 605:Generated_Source\PSoC6/CapSense_Control.c ****                 for (;snsCount-- > 0u;)
 606:Generated_Source\PSoC6/CapSense_Control.c ****                 {
 607:Generated_Source\PSoC6/CapSense_Control.c ****                     result = CapSense_DpProcessCsxSensorRawCountsExt(ptrFlashWdgt, ptrSnsTmp, fltrH
 606              		.loc 1 607 0
 607 0094 3B68     		ldr	r3, [r7]
 608 0096 BA68     		ldr	r2, [r7, #8]
 609 0098 7969     		ldr	r1, [r7, #20]
 610 009a 3869     		ldr	r0, [r7, #16]
 611 009c FFF7FEFF 		bl	CapSense_DpProcessCsxSensorRawCountsExt
 612 00a0 B861     		str	r0, [r7, #24]
 608:Generated_Source\PSoC6/CapSense_Control.c **** 
 609:Generated_Source\PSoC6/CapSense_Control.c ****                     #if (CapSense_ENABLE == CapSense_TST_BSLN_DUPLICATION_EN)
 610:Generated_Source\PSoC6/CapSense_Control.c ****                         if (CY_RET_SUCCESS != result)
 611:Generated_Source\PSoC6/CapSense_Control.c ****                         {
 612:Generated_Source\PSoC6/CapSense_Control.c ****                             result = (result | CapSense_TST_LSBYTE) & snsCount;
 613:Generated_Source\PSoC6/CapSense_Control.c ****                         }
 614:Generated_Source\PSoC6/CapSense_Control.c ****                     #endif /* (CapSense_ENABLE == CapSense_TST_BSLN_DUPLICATION_EN) */
 615:Generated_Source\PSoC6/CapSense_Control.c **** 
 616:Generated_Source\PSoC6/CapSense_Control.c ****                     /* Move to the next sensor and filter history objects */
 617:Generated_Source\PSoC6/CapSense_Control.c ****                     ptrSnsTmp++;
 613              		.loc 1 617 0
 614 00a2 7B69     		ldr	r3, [r7, #20]
 615 00a4 0A33     		adds	r3, r3, #10
 616 00a6 7B61     		str	r3, [r7, #20]
 618:Generated_Source\PSoC6/CapSense_Control.c ****                     CapSense_INC_REG_FLTR_OBJ(fltrHistV);
 617              		.loc 1 618 0
 618 00a8 BB68     		ldr	r3, [r7, #8]
 619 00aa 0A33     		adds	r3, r3, #10
 620 00ac BB60     		str	r3, [r7, #8]
 621              	.L54:
 605:Generated_Source\PSoC6/CapSense_Control.c ****                 {
 622              		.loc 1 605 0
 623 00ae FB69     		ldr	r3, [r7, #28]
 624 00b0 5A1E     		subs	r2, r3, #1
 625 00b2 FA61     		str	r2, [r7, #28]
 626 00b4 002B     		cmp	r3, #0
 627 00b6 EDD1     		bne	.L55
 619:Generated_Source\PSoC6/CapSense_Control.c ****                 }
ARM GAS  C:\Users\ikomb\AppData\Local\Temp\ccYmJ8Fr.s 			page 23


 620:Generated_Source\PSoC6/CapSense_Control.c **** 
 621:Generated_Source\PSoC6/CapSense_Control.c ****                 if (0u != (mode & CapSense_PROCESS_STATUS))
 628              		.loc 1 621 0
 629 00b8 3B68     		ldr	r3, [r7]
 630 00ba 03F02003 		and	r3, r3, #32
 631 00be 002B     		cmp	r3, #0
 632 00c0 0CD0     		beq	.L60
 622:Generated_Source\PSoC6/CapSense_Control.c ****                 {
 623:Generated_Source\PSoC6/CapSense_Control.c ****                     CapSense_DpProcessCsxWidgetStatus(widgetId, ptrFlashWdgt);
 633              		.loc 1 623 0
 634 00c2 3969     		ldr	r1, [r7, #16]
 635 00c4 7868     		ldr	r0, [r7, #4]
 636 00c6 FFF7FEFF 		bl	CapSense_DpProcessCsxWidgetStatus
 624:Generated_Source\PSoC6/CapSense_Control.c ****                 }
 625:Generated_Source\PSoC6/CapSense_Control.c ****                 break;
 637              		.loc 1 625 0
 638 00ca 07E0     		b	.L60
 639              	.L58:
 626:Generated_Source\PSoC6/CapSense_Control.c ****         #endif /* #if (0u != CapSense_TOTAL_CSX_WIDGETS) */
 627:Generated_Source\PSoC6/CapSense_Control.c **** 
 628:Generated_Source\PSoC6/CapSense_Control.c ****         default:
 629:Generated_Source\PSoC6/CapSense_Control.c ****             CY_ASSERT(0 != 0);
 640              		.loc 1 629 0
 641 00cc 40F27521 		movw	r1, #629
 642 00d0 0648     		ldr	r0, .L61+4
 643 00d2 FFF7FEFF 		bl	Cy_SysLib_AssertFailed
 630:Generated_Source\PSoC6/CapSense_Control.c ****             break;
 644              		.loc 1 630 0
 645 00d6 02E0     		b	.L45
 646              	.L59:
 589:Generated_Source\PSoC6/CapSense_Control.c ****             }
 647              		.loc 1 589 0
 648 00d8 00BF     		nop
 649 00da 00E0     		b	.L45
 650              	.L60:
 625:Generated_Source\PSoC6/CapSense_Control.c ****         #endif /* #if (0u != CapSense_TOTAL_CSX_WIDGETS) */
 651              		.loc 1 625 0
 652 00dc 00BF     		nop
 653              	.L45:
 631:Generated_Source\PSoC6/CapSense_Control.c ****         }
 632:Generated_Source\PSoC6/CapSense_Control.c **** 
 633:Generated_Source\PSoC6/CapSense_Control.c ****         #if (CapSense_ENABLE == CapSense_TST_BSLN_DUPLICATION_EN)
 634:Generated_Source\PSoC6/CapSense_Control.c ****             if (CY_RET_SUCCESS != result)
 635:Generated_Source\PSoC6/CapSense_Control.c ****             {
 636:Generated_Source\PSoC6/CapSense_Control.c ****                 CapSense_UpdateTestResultBaselineDuplication(widgetId, snsCount);
 637:Generated_Source\PSoC6/CapSense_Control.c ****                 result = CY_RET_BAD_DATA;
 638:Generated_Source\PSoC6/CapSense_Control.c ****             }
 639:Generated_Source\PSoC6/CapSense_Control.c ****         #endif /* (CapSense_ENABLE == CapSense_TST_BSLN_DUPLICATION_EN) */
 640:Generated_Source\PSoC6/CapSense_Control.c **** 
 641:Generated_Source\PSoC6/CapSense_Control.c ****     }
 642:Generated_Source\PSoC6/CapSense_Control.c ****     return result;
 654              		.loc 1 642 0
 655 00de BB69     		ldr	r3, [r7, #24]
 643:Generated_Source\PSoC6/CapSense_Control.c **** }
 656              		.loc 1 643 0
 657 00e0 1846     		mov	r0, r3
 658 00e2 2037     		adds	r7, r7, #32
ARM GAS  C:\Users\ikomb\AppData\Local\Temp\ccYmJ8Fr.s 			page 24


 659              		.cfi_def_cfa_offset 8
 660 00e4 BD46     		mov	sp, r7
 661              		.cfi_def_cfa_register 13
 662              		@ sp needed
 663 00e6 80BD     		pop	{r7, pc}
 664              	.L62:
 665              		.align	2
 666              	.L61:
 667 00e8 00000000 		.word	CapSense_dsFlash
 668 00ec 00000000 		.word	.LC0
 669              		.cfi_endproc
 670              	.LFE262:
 671              		.size	CapSense_ProcessWidgetExt, .-CapSense_ProcessWidgetExt
 672              		.section	.text.CapSense_ProcessSensorExt,"ax",%progbits
 673              		.align	2
 674              		.global	CapSense_ProcessSensorExt
 675              		.thumb
 676              		.thumb_func
 677              		.type	CapSense_ProcessSensorExt, %function
 678              	CapSense_ProcessSensorExt:
 679              	.LFB263:
 644:Generated_Source\PSoC6/CapSense_Control.c **** 
 645:Generated_Source\PSoC6/CapSense_Control.c **** /*******************************************************************************
 646:Generated_Source\PSoC6/CapSense_Control.c **** * Function Name: CapSense_ProcessSensorExt
 647:Generated_Source\PSoC6/CapSense_Control.c **** ****************************************************************************//**
 648:Generated_Source\PSoC6/CapSense_Control.c **** *
 649:Generated_Source\PSoC6/CapSense_Control.c **** * \brief
 650:Generated_Source\PSoC6/CapSense_Control.c **** *  Performs customized data processing on the selected widget's sensor.
 651:Generated_Source\PSoC6/CapSense_Control.c **** *
 652:Generated_Source\PSoC6/CapSense_Control.c **** * \details
 653:Generated_Source\PSoC6/CapSense_Control.c **** *  This function performs data processes for the specified sensor specified by
 654:Generated_Source\PSoC6/CapSense_Control.c **** *  the mode parameter. The execution order of the requested operations is from
 655:Generated_Source\PSoC6/CapSense_Control.c **** *  LSB to MSB of the mode parameter. For a different order, this
 656:Generated_Source\PSoC6/CapSense_Control.c **** *  function can be called multiple times with the required mode parameter.
 657:Generated_Source\PSoC6/CapSense_Control.c **** *
 658:Generated_Source\PSoC6/CapSense_Control.c **** *  This function can be used with any of the available scan functions. This
 659:Generated_Source\PSoC6/CapSense_Control.c **** *  function is called only after a specified sensor in the widget is
 660:Generated_Source\PSoC6/CapSense_Control.c **** *  scanned. Calling this function multiple times with the same mode without
 661:Generated_Source\PSoC6/CapSense_Control.c **** *  sensor scanning causes unexpected behavior. This function ignores the value
 662:Generated_Source\PSoC6/CapSense_Control.c **** *  of the wdgtEnable register.
 663:Generated_Source\PSoC6/CapSense_Control.c **** *
 664:Generated_Source\PSoC6/CapSense_Control.c **** *  The CapSense_PROCESS_CALC_NOISE and
 665:Generated_Source\PSoC6/CapSense_Control.c **** *  CapSense_PROCESS_THRESHOLDS flags are supported by the CSD sensing
 666:Generated_Source\PSoC6/CapSense_Control.c **** *  method only when Auto-tuning mode is enabled.
 667:Generated_Source\PSoC6/CapSense_Control.c **** *
 668:Generated_Source\PSoC6/CapSense_Control.c **** *  The pipeline scan method (i.e. during scanning of a sensor, processing
 669:Generated_Source\PSoC6/CapSense_Control.c **** *  of a previously scanned sensor is performed) can be implemented using this
 670:Generated_Source\PSoC6/CapSense_Control.c **** *  function and it may reduce the total scan/process time, increase the refresh
 671:Generated_Source\PSoC6/CapSense_Control.c **** *  rate and decrease the power consumption.
 672:Generated_Source\PSoC6/CapSense_Control.c **** *
 673:Generated_Source\PSoC6/CapSense_Control.c **** *  If the Self-test library is enabled, this function executes the baseline duplication
 674:Generated_Source\PSoC6/CapSense_Control.c **** *  test. Refer to CapSense_CheckBaselineDuplication() for details.
 675:Generated_Source\PSoC6/CapSense_Control.c **** *
 676:Generated_Source\PSoC6/CapSense_Control.c **** * \param widgetId
 677:Generated_Source\PSoC6/CapSense_Control.c **** *  Specifies the ID number of the widget to process one of its sensors.
 678:Generated_Source\PSoC6/CapSense_Control.c **** *  A macro for the widget ID can be found in the
 679:Generated_Source\PSoC6/CapSense_Control.c **** *  CapSense Configuration header file defined as
ARM GAS  C:\Users\ikomb\AppData\Local\Temp\ccYmJ8Fr.s 			page 25


 680:Generated_Source\PSoC6/CapSense_Control.c **** *  CapSense_<WidgetName>_WDGT_ID.
 681:Generated_Source\PSoC6/CapSense_Control.c **** *
 682:Generated_Source\PSoC6/CapSense_Control.c **** * \param sensorId
 683:Generated_Source\PSoC6/CapSense_Control.c **** *  Specifies the ID number of the sensor within the widget to process it.
 684:Generated_Source\PSoC6/CapSense_Control.c **** *  A macro for the sensor ID within a specified widget can be found in the
 685:Generated_Source\PSoC6/CapSense_Control.c **** *  CapSense Configuration header file defined as
 686:Generated_Source\PSoC6/CapSense_Control.c **** *  CapSense_<WidgetName>_SNS<SensorNumber>_ID.
 687:Generated_Source\PSoC6/CapSense_Control.c **** *
 688:Generated_Source\PSoC6/CapSense_Control.c **** * \param mode
 689:Generated_Source\PSoC6/CapSense_Control.c **** *  Specifies the type of the sensor processing that needs to be executed for the
 690:Generated_Source\PSoC6/CapSense_Control.c **** *  specified sensor:
 691:Generated_Source\PSoC6/CapSense_Control.c **** *    1. Bits [31..5] - Reserved
 692:Generated_Source\PSoC6/CapSense_Control.c **** *    2. Bits [4..0] - CapSense_PROCESS_ALL - Executes all the tasks
 693:Generated_Source\PSoC6/CapSense_Control.c **** *    3. Bit [4] - CapSense_PROCESS_THRESHOLDS - Updates the thresholds (only
 694:Generated_Source\PSoC6/CapSense_Control.c **** *       in auto-tuning mode)
 695:Generated_Source\PSoC6/CapSense_Control.c **** *    4. Bit [3] - CapSense_PROCESS_CALC_NOISE - Calculates the noise (only
 696:Generated_Source\PSoC6/CapSense_Control.c **** *       in auto-tuning mode)
 697:Generated_Source\PSoC6/CapSense_Control.c **** *    5. Bit [2] - CapSense_PROCESS_DIFFCOUNTS - Updates the difference count
 698:Generated_Source\PSoC6/CapSense_Control.c **** *    6. Bit [1] - CapSense_PROCESS_BASELINE - Updates the baseline
 699:Generated_Source\PSoC6/CapSense_Control.c **** *    7. Bit [0] - CapSense_PROCESS_FILTER - Runs the firmware filters
 700:Generated_Source\PSoC6/CapSense_Control.c **** *
 701:Generated_Source\PSoC6/CapSense_Control.c **** * \return
 702:Generated_Source\PSoC6/CapSense_Control.c **** *  Returns the status of the sensor process operation:
 703:Generated_Source\PSoC6/CapSense_Control.c **** *  - CY_RET_SUCCESS - The processing is successfully performed.
 704:Generated_Source\PSoC6/CapSense_Control.c **** *  - CY_RET_BAD_PARAM - The input parameter is invalid.
 705:Generated_Source\PSoC6/CapSense_Control.c **** *  - CY_RET_BAD_DATA - The processing failed.
 706:Generated_Source\PSoC6/CapSense_Control.c **** *
 707:Generated_Source\PSoC6/CapSense_Control.c **** *******************************************************************************/
 708:Generated_Source\PSoC6/CapSense_Control.c **** cy_status CapSense_ProcessSensorExt(uint32 widgetId, uint32 sensorId, uint32 mode)
 709:Generated_Source\PSoC6/CapSense_Control.c **** {
 680              		.loc 1 709 0
 681              		.cfi_startproc
 682              		@ args = 0, pretend = 0, frame = 32
 683              		@ frame_needed = 1, uses_anonymous_args = 0
 684 0000 80B5     		push	{r7, lr}
 685              		.cfi_def_cfa_offset 8
 686              		.cfi_offset 7, -8
 687              		.cfi_offset 14, -4
 688 0002 88B0     		sub	sp, sp, #32
 689              		.cfi_def_cfa_offset 40
 690 0004 00AF     		add	r7, sp, #0
 691              		.cfi_def_cfa_register 7
 692 0006 F860     		str	r0, [r7, #12]
 693 0008 B960     		str	r1, [r7, #8]
 694 000a 7A60     		str	r2, [r7, #4]
 710:Generated_Source\PSoC6/CapSense_Control.c ****     cy_status result = CY_RET_BAD_PARAM;
 695              		.loc 1 710 0
 696 000c 0123     		movs	r3, #1
 697 000e FB61     		str	r3, [r7, #28]
 711:Generated_Source\PSoC6/CapSense_Control.c ****     CapSense_FLASH_WD_STRUCT const *ptrFlashWdgt;
 712:Generated_Source\PSoC6/CapSense_Control.c ****     CapSense_PTR_FILTER_VARIANT fltrHistV;
 713:Generated_Source\PSoC6/CapSense_Control.c ****     CapSense_RAM_SNS_STRUCT *ptrSnsTmp;
 714:Generated_Source\PSoC6/CapSense_Control.c **** 
 715:Generated_Source\PSoC6/CapSense_Control.c ****     if ((widgetId < CapSense_TOTAL_WIDGETS) && (sensorId < CapSense_GET_SENSOR_COUNT(widgetId)))
 698              		.loc 1 715 0
 699 0010 FB68     		ldr	r3, [r7, #12]
 700 0012 022B     		cmp	r3, #2
ARM GAS  C:\Users\ikomb\AppData\Local\Temp\ccYmJ8Fr.s 			page 26


 701 0014 56D8     		bhi	.L64
 702              		.loc 1 715 0 is_stmt 0 discriminator 1
 703 0016 2E49     		ldr	r1, .L71
 704 0018 FA68     		ldr	r2, [r7, #12]
 705 001a 1346     		mov	r3, r2
 706 001c 5B00     		lsls	r3, r3, #1
 707 001e 1344     		add	r3, r3, r2
 708 0020 1B01     		lsls	r3, r3, #4
 709 0022 0B44     		add	r3, r3, r1
 710 0024 1833     		adds	r3, r3, #24
 711 0026 1B88     		ldrh	r3, [r3]
 712 0028 1A46     		mov	r2, r3
 713 002a BB68     		ldr	r3, [r7, #8]
 714 002c 9A42     		cmp	r2, r3
 715 002e 49D9     		bls	.L64
 716:Generated_Source\PSoC6/CapSense_Control.c ****     {
 717:Generated_Source\PSoC6/CapSense_Control.c ****         result = CY_RET_SUCCESS;
 716              		.loc 1 717 0 is_stmt 1
 717 0030 0023     		movs	r3, #0
 718 0032 FB61     		str	r3, [r7, #28]
 718:Generated_Source\PSoC6/CapSense_Control.c **** 
 719:Generated_Source\PSoC6/CapSense_Control.c ****         ptrFlashWdgt = &CapSense_dsFlash.wdgtArray[widgetId];
 719              		.loc 1 719 0
 720 0034 FA68     		ldr	r2, [r7, #12]
 721 0036 1346     		mov	r3, r2
 722 0038 5B00     		lsls	r3, r3, #1
 723 003a 1344     		add	r3, r3, r2
 724 003c 1B01     		lsls	r3, r3, #4
 725 003e 244A     		ldr	r2, .L71
 726 0040 1344     		add	r3, r3, r2
 727 0042 BB61     		str	r3, [r7, #24]
 720:Generated_Source\PSoC6/CapSense_Control.c ****         fltrHistV.ptr = ptrFlashWdgt->ptr2FltrHistory;
 728              		.loc 1 720 0
 729 0044 BB69     		ldr	r3, [r7, #24]
 730 0046 DB68     		ldr	r3, [r3, #12]
 731 0048 3B61     		str	r3, [r7, #16]
 721:Generated_Source\PSoC6/CapSense_Control.c ****         ptrSnsTmp = ptrFlashWdgt->ptr2SnsRam;
 732              		.loc 1 721 0
 733 004a BB69     		ldr	r3, [r7, #24]
 734 004c 9B68     		ldr	r3, [r3, #8]
 735 004e 7B61     		str	r3, [r7, #20]
 722:Generated_Source\PSoC6/CapSense_Control.c ****         ptrSnsTmp += sensorId;
 736              		.loc 1 722 0
 737 0050 BA68     		ldr	r2, [r7, #8]
 738 0052 1346     		mov	r3, r2
 739 0054 9B00     		lsls	r3, r3, #2
 740 0056 1344     		add	r3, r3, r2
 741 0058 5B00     		lsls	r3, r3, #1
 742 005a 1A46     		mov	r2, r3
 743 005c 7B69     		ldr	r3, [r7, #20]
 744 005e 1344     		add	r3, r3, r2
 745 0060 7B61     		str	r3, [r7, #20]
 723:Generated_Source\PSoC6/CapSense_Control.c **** 
 724:Generated_Source\PSoC6/CapSense_Control.c ****         switch(CapSense_GET_SENSE_METHOD(ptrFlashWdgt))
 746              		.loc 1 724 0
 747 0062 BB69     		ldr	r3, [r7, #24]
 748 0064 DB7E     		ldrb	r3, [r3, #27]	@ zero_extendqisi2
ARM GAS  C:\Users\ikomb\AppData\Local\Temp\ccYmJ8Fr.s 			page 27


 749 0066 012B     		cmp	r3, #1
 750 0068 02D0     		beq	.L66
 751 006a 022B     		cmp	r3, #2
 752 006c 14D0     		beq	.L67
 753 006e 23E0     		b	.L70
 754              	.L66:
 725:Generated_Source\PSoC6/CapSense_Control.c ****         {
 726:Generated_Source\PSoC6/CapSense_Control.c ****         #if (0u != CapSense_TOTAL_CSD_WIDGETS)
 727:Generated_Source\PSoC6/CapSense_Control.c ****             case CapSense_SENSE_METHOD_CSD_E:
 728:Generated_Source\PSoC6/CapSense_Control.c ****                 if (CapSense_WD_PROXIMITY_E == (CapSense_WD_TYPE_ENUM)ptrFlashWdgt->wdgtType)
 755              		.loc 1 728 0
 756 0070 BB69     		ldr	r3, [r7, #24]
 757 0072 9B7E     		ldrb	r3, [r3, #26]	@ zero_extendqisi2
 758 0074 062B     		cmp	r3, #6
 759 0076 07D0     		beq	.L68
 729:Generated_Source\PSoC6/CapSense_Control.c ****                 {
 730:Generated_Source\PSoC6/CapSense_Control.c ****                     #if (0u != CapSense_PROX_RC_ALP_FILTER_EN)
 731:Generated_Source\PSoC6/CapSense_Control.c ****                         fltrHistV.ptr = &fltrHistV.ptrAlp[sensorId];
 732:Generated_Source\PSoC6/CapSense_Control.c ****                     #elif (0u != CapSense_PROX_RC_FILTER_EN)
 733:Generated_Source\PSoC6/CapSense_Control.c ****                         fltrHistV.ptr = &fltrHistV.ptrProx[sensorId];
 734:Generated_Source\PSoC6/CapSense_Control.c ****                     #endif
 735:Generated_Source\PSoC6/CapSense_Control.c ****                 }
 736:Generated_Source\PSoC6/CapSense_Control.c ****                 else
 737:Generated_Source\PSoC6/CapSense_Control.c ****                 {
 738:Generated_Source\PSoC6/CapSense_Control.c ****                     #if (0u != CapSense_REGULAR_RC_ALP_FILTER_EN)
 739:Generated_Source\PSoC6/CapSense_Control.c ****                         fltrHistV.ptr = &fltrHistV.ptrAlp[sensorId];
 740:Generated_Source\PSoC6/CapSense_Control.c ****                     #elif (0u != CapSense_REGULAR_RC_FILTER_EN)
 741:Generated_Source\PSoC6/CapSense_Control.c ****                         fltrHistV.ptr = &fltrHistV.ptrRegular[sensorId];
 760              		.loc 1 741 0
 761 0078 3969     		ldr	r1, [r7, #16]
 762 007a BA68     		ldr	r2, [r7, #8]
 763 007c 1346     		mov	r3, r2
 764 007e 9B00     		lsls	r3, r3, #2
 765 0080 1344     		add	r3, r3, r2
 766 0082 5B00     		lsls	r3, r3, #1
 767 0084 0B44     		add	r3, r3, r1
 768 0086 3B61     		str	r3, [r7, #16]
 769              	.L68:
 742:Generated_Source\PSoC6/CapSense_Control.c ****                     #endif
 743:Generated_Source\PSoC6/CapSense_Control.c ****                 }
 744:Generated_Source\PSoC6/CapSense_Control.c **** 
 745:Generated_Source\PSoC6/CapSense_Control.c ****                 result = CapSense_DpProcessCsdSensorRawCountsExt(ptrFlashWdgt, ptrSnsTmp, fltrHistV
 770              		.loc 1 745 0
 771 0088 7B68     		ldr	r3, [r7, #4]
 772 008a 3A69     		ldr	r2, [r7, #16]
 773 008c 7969     		ldr	r1, [r7, #20]
 774 008e B869     		ldr	r0, [r7, #24]
 775 0090 FFF7FEFF 		bl	CapSense_DpProcessCsdSensorRawCountsExt
 776 0094 F861     		str	r0, [r7, #28]
 746:Generated_Source\PSoC6/CapSense_Control.c ****                 break;
 777              		.loc 1 746 0
 778 0096 15E0     		b	.L64
 779              	.L67:
 747:Generated_Source\PSoC6/CapSense_Control.c ****         #endif /* #if (0u != CapSense_TOTAL_CSD_WIDGETS) */
 748:Generated_Source\PSoC6/CapSense_Control.c **** 
 749:Generated_Source\PSoC6/CapSense_Control.c ****         #if (0u != CapSense_TOTAL_CSX_WIDGETS)
 750:Generated_Source\PSoC6/CapSense_Control.c ****             case CapSense_SENSE_METHOD_CSX_E:
ARM GAS  C:\Users\ikomb\AppData\Local\Temp\ccYmJ8Fr.s 			page 28


 751:Generated_Source\PSoC6/CapSense_Control.c ****                 #if (0u != CapSense_REGULAR_RC_ALP_FILTER_EN)
 752:Generated_Source\PSoC6/CapSense_Control.c ****                     fltrHistV.ptr = &fltrHistV.ptrAlp[sensorId];
 753:Generated_Source\PSoC6/CapSense_Control.c ****                 #elif (0u != CapSense_REGULAR_RC_FILTER_EN)
 754:Generated_Source\PSoC6/CapSense_Control.c ****                     fltrHistV.ptr = &fltrHistV.ptrRegular[sensorId];
 780              		.loc 1 754 0
 781 0098 3969     		ldr	r1, [r7, #16]
 782 009a BA68     		ldr	r2, [r7, #8]
 783 009c 1346     		mov	r3, r2
 784 009e 9B00     		lsls	r3, r3, #2
 785 00a0 1344     		add	r3, r3, r2
 786 00a2 5B00     		lsls	r3, r3, #1
 787 00a4 0B44     		add	r3, r3, r1
 788 00a6 3B61     		str	r3, [r7, #16]
 755:Generated_Source\PSoC6/CapSense_Control.c ****                 #endif
 756:Generated_Source\PSoC6/CapSense_Control.c **** 
 757:Generated_Source\PSoC6/CapSense_Control.c ****                 result = CapSense_DpProcessCsxSensorRawCountsExt(ptrFlashWdgt, ptrSnsTmp, fltrHistV
 789              		.loc 1 757 0
 790 00a8 7B68     		ldr	r3, [r7, #4]
 791 00aa 3A69     		ldr	r2, [r7, #16]
 792 00ac 7969     		ldr	r1, [r7, #20]
 793 00ae B869     		ldr	r0, [r7, #24]
 794 00b0 FFF7FEFF 		bl	CapSense_DpProcessCsxSensorRawCountsExt
 795 00b4 F861     		str	r0, [r7, #28]
 758:Generated_Source\PSoC6/CapSense_Control.c ****                 break;
 796              		.loc 1 758 0
 797 00b6 05E0     		b	.L64
 798              	.L70:
 759:Generated_Source\PSoC6/CapSense_Control.c ****         #endif /* #if (0u != CapSense_TOTAL_CSX_WIDGETS) */
 760:Generated_Source\PSoC6/CapSense_Control.c **** 
 761:Generated_Source\PSoC6/CapSense_Control.c ****         default:
 762:Generated_Source\PSoC6/CapSense_Control.c ****             CY_ASSERT(0 != 0);
 799              		.loc 1 762 0
 800 00b8 40F2FA21 		movw	r1, #762
 801 00bc 0548     		ldr	r0, .L71+4
 802 00be FFF7FEFF 		bl	Cy_SysLib_AssertFailed
 763:Generated_Source\PSoC6/CapSense_Control.c ****             break;
 803              		.loc 1 763 0
 804 00c2 00BF     		nop
 805              	.L64:
 764:Generated_Source\PSoC6/CapSense_Control.c ****         }
 765:Generated_Source\PSoC6/CapSense_Control.c **** 
 766:Generated_Source\PSoC6/CapSense_Control.c ****         #if (CapSense_ENABLE == CapSense_TST_BSLN_DUPLICATION_EN)
 767:Generated_Source\PSoC6/CapSense_Control.c ****             if (CY_RET_SUCCESS != result)
 768:Generated_Source\PSoC6/CapSense_Control.c ****             {
 769:Generated_Source\PSoC6/CapSense_Control.c ****                 CapSense_UpdateTestResultBaselineDuplication(widgetId, sensorId);
 770:Generated_Source\PSoC6/CapSense_Control.c ****                 result = CY_RET_BAD_DATA;
 771:Generated_Source\PSoC6/CapSense_Control.c ****             }
 772:Generated_Source\PSoC6/CapSense_Control.c ****         #endif /* (CapSense_ENABLE == CapSense_TST_BSLN_DUPLICATION_EN) */
 773:Generated_Source\PSoC6/CapSense_Control.c **** 
 774:Generated_Source\PSoC6/CapSense_Control.c ****     }
 775:Generated_Source\PSoC6/CapSense_Control.c ****     return result;
 806              		.loc 1 775 0
 807 00c4 FB69     		ldr	r3, [r7, #28]
 776:Generated_Source\PSoC6/CapSense_Control.c **** }
 808              		.loc 1 776 0
 809 00c6 1846     		mov	r0, r3
 810 00c8 2037     		adds	r7, r7, #32
ARM GAS  C:\Users\ikomb\AppData\Local\Temp\ccYmJ8Fr.s 			page 29


 811              		.cfi_def_cfa_offset 8
 812 00ca BD46     		mov	sp, r7
 813              		.cfi_def_cfa_register 13
 814              		@ sp needed
 815 00cc 80BD     		pop	{r7, pc}
 816              	.L72:
 817 00ce 00BF     		.align	2
 818              	.L71:
 819 00d0 00000000 		.word	CapSense_dsFlash
 820 00d4 00000000 		.word	.LC0
 821              		.cfi_endproc
 822              	.LFE263:
 823              		.size	CapSense_ProcessSensorExt, .-CapSense_ProcessSensorExt
 824              		.section	.text.CapSense_Sleep,"ax",%progbits
 825              		.align	2
 826              		.global	CapSense_Sleep
 827              		.thumb
 828              		.thumb_func
 829              		.type	CapSense_Sleep, %function
 830              	CapSense_Sleep:
 831              	.LFB264:
 777:Generated_Source\PSoC6/CapSense_Control.c **** 
 778:Generated_Source\PSoC6/CapSense_Control.c **** /*******************************************************************************
 779:Generated_Source\PSoC6/CapSense_Control.c **** * Function Name: CapSense_Sleep
 780:Generated_Source\PSoC6/CapSense_Control.c **** ****************************************************************************//**
 781:Generated_Source\PSoC6/CapSense_Control.c **** *
 782:Generated_Source\PSoC6/CapSense_Control.c **** * \brief
 783:Generated_Source\PSoC6/CapSense_Control.c **** *  Prepares the Component for deep sleep.
 784:Generated_Source\PSoC6/CapSense_Control.c **** *
 785:Generated_Source\PSoC6/CapSense_Control.c **** * \details
 786:Generated_Source\PSoC6/CapSense_Control.c **** *  Currently this function is empty and exists as a place for future updates,
 787:Generated_Source\PSoC6/CapSense_Control.c **** *  this function will be used to prepare the Component to enter deep sleep.
 788:Generated_Source\PSoC6/CapSense_Control.c **** *
 789:Generated_Source\PSoC6/CapSense_Control.c **** *******************************************************************************/
 790:Generated_Source\PSoC6/CapSense_Control.c **** void CapSense_Sleep(void)
 791:Generated_Source\PSoC6/CapSense_Control.c **** {
 832              		.loc 1 791 0
 833              		.cfi_startproc
 834              		@ args = 0, pretend = 0, frame = 0
 835              		@ frame_needed = 1, uses_anonymous_args = 0
 836              		@ link register save eliminated.
 837 0000 80B4     		push	{r7}
 838              		.cfi_def_cfa_offset 4
 839              		.cfi_offset 7, -4
 840 0002 00AF     		add	r7, sp, #0
 841              		.cfi_def_cfa_register 7
 792:Generated_Source\PSoC6/CapSense_Control.c **** }
 842              		.loc 1 792 0
 843 0004 00BF     		nop
 844 0006 BD46     		mov	sp, r7
 845              		.cfi_def_cfa_register 13
 846              		@ sp needed
 847 0008 5DF8047B 		ldr	r7, [sp], #4
 848              		.cfi_restore 7
 849              		.cfi_def_cfa_offset 0
 850 000c 7047     		bx	lr
 851              		.cfi_endproc
ARM GAS  C:\Users\ikomb\AppData\Local\Temp\ccYmJ8Fr.s 			page 30


 852              	.LFE264:
 853              		.size	CapSense_Sleep, .-CapSense_Sleep
 854 000e 00BF     		.section	.text.CapSense_Wakeup,"ax",%progbits
 855              		.align	2
 856              		.global	CapSense_Wakeup
 857              		.thumb
 858              		.thumb_func
 859              		.type	CapSense_Wakeup, %function
 860              	CapSense_Wakeup:
 861              	.LFB265:
 793:Generated_Source\PSoC6/CapSense_Control.c **** 
 794:Generated_Source\PSoC6/CapSense_Control.c **** 
 795:Generated_Source\PSoC6/CapSense_Control.c **** /*******************************************************************************
 796:Generated_Source\PSoC6/CapSense_Control.c **** * Function Name: CapSense_Wakeup
 797:Generated_Source\PSoC6/CapSense_Control.c **** ****************************************************************************//**
 798:Generated_Source\PSoC6/CapSense_Control.c **** *
 799:Generated_Source\PSoC6/CapSense_Control.c **** * \brief
 800:Generated_Source\PSoC6/CapSense_Control.c **** *  Resumes the Component after sleep.
 801:Generated_Source\PSoC6/CapSense_Control.c **** *
 802:Generated_Source\PSoC6/CapSense_Control.c **** * \details
 803:Generated_Source\PSoC6/CapSense_Control.c **** *  Resumes the Component after sleep. This function shall be used to resume
 804:Generated_Source\PSoC6/CapSense_Control.c **** *  the Component after exiting deep sleep.
 805:Generated_Source\PSoC6/CapSense_Control.c **** *
 806:Generated_Source\PSoC6/CapSense_Control.c **** *******************************************************************************/
 807:Generated_Source\PSoC6/CapSense_Control.c **** void CapSense_Wakeup(void)
 808:Generated_Source\PSoC6/CapSense_Control.c **** {
 862              		.loc 1 808 0
 863              		.cfi_startproc
 864              		@ args = 0, pretend = 0, frame = 0
 865              		@ frame_needed = 1, uses_anonymous_args = 0
 866              		@ link register save eliminated.
 867 0000 80B4     		push	{r7}
 868              		.cfi_def_cfa_offset 4
 869              		.cfi_offset 7, -4
 870 0002 00AF     		add	r7, sp, #0
 871              		.cfi_def_cfa_register 7
 809:Generated_Source\PSoC6/CapSense_Control.c ****     #if(CapSense_BLOCK_ANALOG_WAKEUP_DELAY_US > 0uL)
 810:Generated_Source\PSoC6/CapSense_Control.c ****         Cy_SysLib_DelayUs(CapSense_BLOCK_ANALOG_WAKEUP_DELAY_US);
 811:Generated_Source\PSoC6/CapSense_Control.c ****     #endif /* (CapSense_BLOCK_ANALOG_WAKEUP_DELAY_US > 0uL) */
 812:Generated_Source\PSoC6/CapSense_Control.c **** }
 872              		.loc 1 812 0
 873 0004 00BF     		nop
 874 0006 BD46     		mov	sp, r7
 875              		.cfi_def_cfa_register 13
 876              		@ sp needed
 877 0008 5DF8047B 		ldr	r7, [sp], #4
 878              		.cfi_restore 7
 879              		.cfi_def_cfa_offset 0
 880 000c 7047     		bx	lr
 881              		.cfi_endproc
 882              	.LFE265:
 883              		.size	CapSense_Wakeup, .-CapSense_Wakeup
 884 000e 00BF     		.section	.text.CapSense_DeepSleepCallback,"ax",%progbits
 885              		.align	2
 886              		.global	CapSense_DeepSleepCallback
 887              		.thumb
 888              		.thumb_func
ARM GAS  C:\Users\ikomb\AppData\Local\Temp\ccYmJ8Fr.s 			page 31


 889              		.type	CapSense_DeepSleepCallback, %function
 890              	CapSense_DeepSleepCallback:
 891              	.LFB266:
 813:Generated_Source\PSoC6/CapSense_Control.c **** 
 814:Generated_Source\PSoC6/CapSense_Control.c **** 
 815:Generated_Source\PSoC6/CapSense_Control.c **** /*******************************************************************************
 816:Generated_Source\PSoC6/CapSense_Control.c **** * Function Name: CapSense_DeepSleepCallback
 817:Generated_Source\PSoC6/CapSense_Control.c **** ****************************************************************************//**
 818:Generated_Source\PSoC6/CapSense_Control.c **** *
 819:Generated_Source\PSoC6/CapSense_Control.c **** * \brief
 820:Generated_Source\PSoC6/CapSense_Control.c **** *  Handles Active to DeepSleep power mode transition for the CapSense
 821:Generated_Source\PSoC6/CapSense_Control.c **** *  Component.
 822:Generated_Source\PSoC6/CapSense_Control.c **** *
 823:Generated_Source\PSoC6/CapSense_Control.c **** * \details
 824:Generated_Source\PSoC6/CapSense_Control.c **** *  This function handles Active to DeepSleep power mode transition
 825:Generated_Source\PSoC6/CapSense_Control.c **** *  for the CapSense Component.
 826:Generated_Source\PSoC6/CapSense_Control.c **** *  Calling this function directly by application layer is not recommended.
 827:Generated_Source\PSoC6/CapSense_Control.c **** *  Instead, Cy_SysPm_DeepSleep() should be used for the Active to DeepSleep
 828:Generated_Source\PSoC6/CapSense_Control.c **** *  power mode transition of the device.
 829:Generated_Source\PSoC6/CapSense_Control.c **** *
 830:Generated_Source\PSoC6/CapSense_Control.c **** *  For proper operation of the CapSense Component during the Active to
 831:Generated_Source\PSoC6/CapSense_Control.c **** *  DeepSleep mode transition, a callback to this API should be registered
 832:Generated_Source\PSoC6/CapSense_Control.c **** *  using the Cy_SysPm_RegisterCallback() function with CY_SYSPM_DEEPSLEEP
 833:Generated_Source\PSoC6/CapSense_Control.c **** *  type. Once the callback is registered, this function is called by the
 834:Generated_Source\PSoC6/CapSense_Control.c **** *  Cy_SysPm_DeepSleep() function to prepare the Component to the device
 835:Generated_Source\PSoC6/CapSense_Control.c **** *  power mode transition.
 836:Generated_Source\PSoC6/CapSense_Control.c **** *
 837:Generated_Source\PSoC6/CapSense_Control.c **** *  When this function is called with CY_SYSPM_CHECK_READY as input, this
 838:Generated_Source\PSoC6/CapSense_Control.c **** *  function returns CY_SYSPM_SUCCESS if no scanning is in progress, otherwise
 839:Generated_Source\PSoC6/CapSense_Control.c **** *  CY_SYSPM_FAIL is returned. If CY_SYSPM_FAIL status is returned, a device
 840:Generated_Source\PSoC6/CapSense_Control.c **** *  cannot change the power mode without completing the current scan as
 841:Generated_Source\PSoC6/CapSense_Control.c **** *  a transition to DeepSleep during the scan can disrupt the Component
 842:Generated_Source\PSoC6/CapSense_Control.c **** *  operation.
 843:Generated_Source\PSoC6/CapSense_Control.c **** *
 844:Generated_Source\PSoC6/CapSense_Control.c **** * \param callbackParams
 845:Generated_Source\PSoC6/CapSense_Control.c **** *  Refer to the description of the cy_stc_syspm_callback_params_t type in the
 846:Generated_Source\PSoC6/CapSense_Control.c **** *  Peripheral Driver Library documentation.
 847:Generated_Source\PSoC6/CapSense_Control.c **** *
 848:Generated_Source\PSoC6/CapSense_Control.c **** * \return
 849:Generated_Source\PSoC6/CapSense_Control.c **** *  Returns the status of the operation requested by the mode parameter:
 850:Generated_Source\PSoC6/CapSense_Control.c **** *  - CY_SYSPM_SUCCESS  - DeepSleep power mode can be entered.
 851:Generated_Source\PSoC6/CapSense_Control.c **** *  - CY_SYSPM_FAIL     - DeepSleep power mode cannot be entered.
 852:Generated_Source\PSoC6/CapSense_Control.c **** *
 853:Generated_Source\PSoC6/CapSense_Control.c **** *******************************************************************************/
 854:Generated_Source\PSoC6/CapSense_Control.c **** cy_en_syspm_status_t CapSense_DeepSleepCallback(cy_stc_syspm_callback_params_t *callbackParams)
 855:Generated_Source\PSoC6/CapSense_Control.c **** {
 892              		.loc 1 855 0
 893              		.cfi_startproc
 894              		@ args = 0, pretend = 0, frame = 8
 895              		@ frame_needed = 1, uses_anonymous_args = 0
 896 0000 80B5     		push	{r7, lr}
 897              		.cfi_def_cfa_offset 8
 898              		.cfi_offset 7, -8
 899              		.cfi_offset 14, -4
 900 0002 82B0     		sub	sp, sp, #8
 901              		.cfi_def_cfa_offset 16
 902 0004 00AF     		add	r7, sp, #0
ARM GAS  C:\Users\ikomb\AppData\Local\Temp\ccYmJ8Fr.s 			page 32


 903              		.cfi_def_cfa_register 7
 904 0006 7860     		str	r0, [r7, #4]
 856:Generated_Source\PSoC6/CapSense_Control.c ****     return(CapSense_SwitchPowerModeCallback(callbackParams));
 905              		.loc 1 856 0
 906 0008 7868     		ldr	r0, [r7, #4]
 907 000a FFF7FEFF 		bl	CapSense_SwitchPowerModeCallback
 908 000e 0346     		mov	r3, r0
 857:Generated_Source\PSoC6/CapSense_Control.c **** }
 909              		.loc 1 857 0
 910 0010 1846     		mov	r0, r3
 911 0012 0837     		adds	r7, r7, #8
 912              		.cfi_def_cfa_offset 8
 913 0014 BD46     		mov	sp, r7
 914              		.cfi_def_cfa_register 13
 915              		@ sp needed
 916 0016 80BD     		pop	{r7, pc}
 917              		.cfi_endproc
 918              	.LFE266:
 919              		.size	CapSense_DeepSleepCallback, .-CapSense_DeepSleepCallback
 920              		.section	.text.CapSense_EnterLowPowerCallback,"ax",%progbits
 921              		.align	2
 922              		.global	CapSense_EnterLowPowerCallback
 923              		.thumb
 924              		.thumb_func
 925              		.type	CapSense_EnterLowPowerCallback, %function
 926              	CapSense_EnterLowPowerCallback:
 927              	.LFB267:
 858:Generated_Source\PSoC6/CapSense_Control.c **** 
 859:Generated_Source\PSoC6/CapSense_Control.c **** 
 860:Generated_Source\PSoC6/CapSense_Control.c **** /*******************************************************************************
 861:Generated_Source\PSoC6/CapSense_Control.c **** * Function Name: CapSense_EnterLowPowerCallback
 862:Generated_Source\PSoC6/CapSense_Control.c **** ****************************************************************************//**
 863:Generated_Source\PSoC6/CapSense_Control.c **** *
 864:Generated_Source\PSoC6/CapSense_Control.c **** * \brief
 865:Generated_Source\PSoC6/CapSense_Control.c **** *  Handles Active to Low Power Active (LPActive) power mode transition for
 866:Generated_Source\PSoC6/CapSense_Control.c **** *  the CapSense Component.
 867:Generated_Source\PSoC6/CapSense_Control.c **** *
 868:Generated_Source\PSoC6/CapSense_Control.c **** * \details
 869:Generated_Source\PSoC6/CapSense_Control.c **** *  This function handles the Active to LPActive power mode transition for
 870:Generated_Source\PSoC6/CapSense_Control.c **** *  the CapSense Component.
 871:Generated_Source\PSoC6/CapSense_Control.c **** *  Calling this function directly by application layer is not recommended.
 872:Generated_Source\PSoC6/CapSense_Control.c **** *  Instead, Cy_SysPm_EnterLpMode() should be used for the Active to LPActive
 873:Generated_Source\PSoC6/CapSense_Control.c **** *  power mode transition of the device.
 874:Generated_Source\PSoC6/CapSense_Control.c **** *
 875:Generated_Source\PSoC6/CapSense_Control.c **** *  For proper operation of the CapSense Component during the Active to
 876:Generated_Source\PSoC6/CapSense_Control.c **** *  LPActive mode transition, a callback to this function should be registered
 877:Generated_Source\PSoC6/CapSense_Control.c **** *  using the Cy_SysPm_RegisterCallback() function with CY_SYSPM_ENTER_LP_MODE
 878:Generated_Source\PSoC6/CapSense_Control.c **** *  type. Once the callback is registered, this function is called by the
 879:Generated_Source\PSoC6/CapSense_Control.c **** *  Cy_SysPm_EnterLpMode() function to prepare the Component to the device
 880:Generated_Source\PSoC6/CapSense_Control.c **** *  power mode transition.
 881:Generated_Source\PSoC6/CapSense_Control.c **** *
 882:Generated_Source\PSoC6/CapSense_Control.c **** *  When this function is called with CY_SYSPM_CHECK_READY as input, this
 883:Generated_Source\PSoC6/CapSense_Control.c **** *  function returns CY_SYSPM_SUCCESS if no scanning is in progress, otherwise
 884:Generated_Source\PSoC6/CapSense_Control.c **** *  CY_SYSPM_FAIL is returned. If CY_SYSPM_FAIL status is returned, a device
 885:Generated_Source\PSoC6/CapSense_Control.c **** *  cannot change the power mode without completing the current scan as
 886:Generated_Source\PSoC6/CapSense_Control.c **** *  a transition to LPActive during the scan can disrupt the Component
 887:Generated_Source\PSoC6/CapSense_Control.c **** *  operation.
ARM GAS  C:\Users\ikomb\AppData\Local\Temp\ccYmJ8Fr.s 			page 33


 888:Generated_Source\PSoC6/CapSense_Control.c **** *
 889:Generated_Source\PSoC6/CapSense_Control.c **** * \param callbackParams
 890:Generated_Source\PSoC6/CapSense_Control.c **** *  Refer to the description of the cy_stc_syspm_callback_params_t type in the
 891:Generated_Source\PSoC6/CapSense_Control.c **** *  Peripheral Driver Library documentation.
 892:Generated_Source\PSoC6/CapSense_Control.c **** *
 893:Generated_Source\PSoC6/CapSense_Control.c **** * \return
 894:Generated_Source\PSoC6/CapSense_Control.c **** *  Returns the status of the operation requested by the mode parameter:
 895:Generated_Source\PSoC6/CapSense_Control.c **** *  - CY_SYSPM_SUCCESS  - LPActive power mode can be entered.
 896:Generated_Source\PSoC6/CapSense_Control.c **** *  - CY_SYSPM_FAIL     - LPActive power mode cannot be entered.
 897:Generated_Source\PSoC6/CapSense_Control.c **** *
 898:Generated_Source\PSoC6/CapSense_Control.c **** *******************************************************************************/
 899:Generated_Source\PSoC6/CapSense_Control.c **** cy_en_syspm_status_t CapSense_EnterLowPowerCallback(cy_stc_syspm_callback_params_t *callbackParams)
 900:Generated_Source\PSoC6/CapSense_Control.c **** {
 928              		.loc 1 900 0
 929              		.cfi_startproc
 930              		@ args = 0, pretend = 0, frame = 8
 931              		@ frame_needed = 1, uses_anonymous_args = 0
 932 0000 80B5     		push	{r7, lr}
 933              		.cfi_def_cfa_offset 8
 934              		.cfi_offset 7, -8
 935              		.cfi_offset 14, -4
 936 0002 82B0     		sub	sp, sp, #8
 937              		.cfi_def_cfa_offset 16
 938 0004 00AF     		add	r7, sp, #0
 939              		.cfi_def_cfa_register 7
 940 0006 7860     		str	r0, [r7, #4]
 901:Generated_Source\PSoC6/CapSense_Control.c ****     return(CapSense_SwitchPowerModeCallback(callbackParams));
 941              		.loc 1 901 0
 942 0008 7868     		ldr	r0, [r7, #4]
 943 000a FFF7FEFF 		bl	CapSense_SwitchPowerModeCallback
 944 000e 0346     		mov	r3, r0
 902:Generated_Source\PSoC6/CapSense_Control.c **** }
 945              		.loc 1 902 0
 946 0010 1846     		mov	r0, r3
 947 0012 0837     		adds	r7, r7, #8
 948              		.cfi_def_cfa_offset 8
 949 0014 BD46     		mov	sp, r7
 950              		.cfi_def_cfa_register 13
 951              		@ sp needed
 952 0016 80BD     		pop	{r7, pc}
 953              		.cfi_endproc
 954              	.LFE267:
 955              		.size	CapSense_EnterLowPowerCallback, .-CapSense_EnterLowPowerCallback
 956              		.section	.text.CapSense_ExitLowPowerCallback,"ax",%progbits
 957              		.align	2
 958              		.global	CapSense_ExitLowPowerCallback
 959              		.thumb
 960              		.thumb_func
 961              		.type	CapSense_ExitLowPowerCallback, %function
 962              	CapSense_ExitLowPowerCallback:
 963              	.LFB268:
 903:Generated_Source\PSoC6/CapSense_Control.c **** 
 904:Generated_Source\PSoC6/CapSense_Control.c **** 
 905:Generated_Source\PSoC6/CapSense_Control.c **** /*******************************************************************************
 906:Generated_Source\PSoC6/CapSense_Control.c **** * Function Name: CapSense_ExitLowPowerCallback
 907:Generated_Source\PSoC6/CapSense_Control.c **** ****************************************************************************//**
 908:Generated_Source\PSoC6/CapSense_Control.c **** *
ARM GAS  C:\Users\ikomb\AppData\Local\Temp\ccYmJ8Fr.s 			page 34


 909:Generated_Source\PSoC6/CapSense_Control.c **** * \brief
 910:Generated_Source\PSoC6/CapSense_Control.c **** *  Handles Low Power Active (LPActive) to Active power mode transition for
 911:Generated_Source\PSoC6/CapSense_Control.c **** *  the CapSense Component.
 912:Generated_Source\PSoC6/CapSense_Control.c **** *
 913:Generated_Source\PSoC6/CapSense_Control.c **** * \details
 914:Generated_Source\PSoC6/CapSense_Control.c **** *  This function handles LPActive to Active power mode transition for
 915:Generated_Source\PSoC6/CapSense_Control.c **** *  the CapSense Component.
 916:Generated_Source\PSoC6/CapSense_Control.c **** *  Calling this function directly by application layer is not recommended.
 917:Generated_Source\PSoC6/CapSense_Control.c **** *  Instead, Cy_SysPm_ExitLpMode() should be used for the LPActive to Active
 918:Generated_Source\PSoC6/CapSense_Control.c **** *  power mode transition of the device.
 919:Generated_Source\PSoC6/CapSense_Control.c **** *
 920:Generated_Source\PSoC6/CapSense_Control.c **** *  For proper operation of the CapSense Component during the LPActive to
 921:Generated_Source\PSoC6/CapSense_Control.c **** *  Active mode transition, a callback to this function should be registered
 922:Generated_Source\PSoC6/CapSense_Control.c **** *  using Cy_SysPm_RegisterCallback() function with CY_SYSPM_EXIT_LP_MODE
 923:Generated_Source\PSoC6/CapSense_Control.c **** *  type. Once the callback is registered, this function is called by the
 924:Generated_Source\PSoC6/CapSense_Control.c **** *  Cy_SysPm_ExitLpMode() function to prepare the Component to the device
 925:Generated_Source\PSoC6/CapSense_Control.c **** *  power mode transition.
 926:Generated_Source\PSoC6/CapSense_Control.c **** *
 927:Generated_Source\PSoC6/CapSense_Control.c **** *  When this function is called with CY_SYSPM_CHECK_READY as input, this
 928:Generated_Source\PSoC6/CapSense_Control.c **** *  function returns CY_SYSPM_SUCCESS if no scanning is in progress, otherwise
 929:Generated_Source\PSoC6/CapSense_Control.c **** *  CY_SYSPM_FAIL is returned. If CY_SYSPM_FAIL status is returned, a device
 930:Generated_Source\PSoC6/CapSense_Control.c **** *  cannot change the power mode without completing the current scan as
 931:Generated_Source\PSoC6/CapSense_Control.c **** *  a transition to Active during the scan can disrupt the Component
 932:Generated_Source\PSoC6/CapSense_Control.c **** *  operation.
 933:Generated_Source\PSoC6/CapSense_Control.c **** 
 934:Generated_Source\PSoC6/CapSense_Control.c **** * \param callbackParams
 935:Generated_Source\PSoC6/CapSense_Control.c **** *  Refer to the description of the cy_stc_syspm_callback_params_t type in the
 936:Generated_Source\PSoC6/CapSense_Control.c **** *  Peripheral Driver Library documentation.
 937:Generated_Source\PSoC6/CapSense_Control.c **** *
 938:Generated_Source\PSoC6/CapSense_Control.c **** * \return
 939:Generated_Source\PSoC6/CapSense_Control.c **** *  Returns the status of the operation requested by the mode parameter:
 940:Generated_Source\PSoC6/CapSense_Control.c **** *  - CY_SYSPM_SUCCESS  - Active power mode can be entered.
 941:Generated_Source\PSoC6/CapSense_Control.c **** *  - CY_SYSPM_FAIL     - Active power mode cannot be entered.
 942:Generated_Source\PSoC6/CapSense_Control.c **** *
 943:Generated_Source\PSoC6/CapSense_Control.c **** *******************************************************************************/
 944:Generated_Source\PSoC6/CapSense_Control.c **** cy_en_syspm_status_t CapSense_ExitLowPowerCallback(cy_stc_syspm_callback_params_t *callbackParams)
 945:Generated_Source\PSoC6/CapSense_Control.c **** {
 964              		.loc 1 945 0
 965              		.cfi_startproc
 966              		@ args = 0, pretend = 0, frame = 8
 967              		@ frame_needed = 1, uses_anonymous_args = 0
 968 0000 80B5     		push	{r7, lr}
 969              		.cfi_def_cfa_offset 8
 970              		.cfi_offset 7, -8
 971              		.cfi_offset 14, -4
 972 0002 82B0     		sub	sp, sp, #8
 973              		.cfi_def_cfa_offset 16
 974 0004 00AF     		add	r7, sp, #0
 975              		.cfi_def_cfa_register 7
 976 0006 7860     		str	r0, [r7, #4]
 946:Generated_Source\PSoC6/CapSense_Control.c ****     return(CapSense_SwitchPowerModeCallback(callbackParams));
 977              		.loc 1 946 0
 978 0008 7868     		ldr	r0, [r7, #4]
 979 000a FFF7FEFF 		bl	CapSense_SwitchPowerModeCallback
 980 000e 0346     		mov	r3, r0
 947:Generated_Source\PSoC6/CapSense_Control.c **** }
 981              		.loc 1 947 0
ARM GAS  C:\Users\ikomb\AppData\Local\Temp\ccYmJ8Fr.s 			page 35


 982 0010 1846     		mov	r0, r3
 983 0012 0837     		adds	r7, r7, #8
 984              		.cfi_def_cfa_offset 8
 985 0014 BD46     		mov	sp, r7
 986              		.cfi_def_cfa_register 13
 987              		@ sp needed
 988 0016 80BD     		pop	{r7, pc}
 989              		.cfi_endproc
 990              	.LFE268:
 991              		.size	CapSense_ExitLowPowerCallback, .-CapSense_ExitLowPowerCallback
 992              		.section	.text.CapSense_SwitchPowerModeCallback,"ax",%progbits
 993              		.align	2
 994              		.thumb
 995              		.thumb_func
 996              		.type	CapSense_SwitchPowerModeCallback, %function
 997              	CapSense_SwitchPowerModeCallback:
 998              	.LFB269:
 948:Generated_Source\PSoC6/CapSense_Control.c **** 
 949:Generated_Source\PSoC6/CapSense_Control.c **** 
 950:Generated_Source\PSoC6/CapSense_Control.c **** /*******************************************************************************
 951:Generated_Source\PSoC6/CapSense_Control.c **** * Function Name: CapSense_SwitchPowerModeCallback
 952:Generated_Source\PSoC6/CapSense_Control.c **** ****************************************************************************//**
 953:Generated_Source\PSoC6/CapSense_Control.c **** *
 954:Generated_Source\PSoC6/CapSense_Control.c **** * \brief
 955:Generated_Source\PSoC6/CapSense_Control.c **** *  Handles the switching power mode for the CapSense Component.
 956:Generated_Source\PSoC6/CapSense_Control.c **** *
 957:Generated_Source\PSoC6/CapSense_Control.c **** * \details
 958:Generated_Source\PSoC6/CapSense_Control.c **** *  This function handles swithing of system power mode.
 959:Generated_Source\PSoC6/CapSense_Control.c **** *  When this function is called with the mode parameter set to CY_SYSPM_CHECK_READY,
 960:Generated_Source\PSoC6/CapSense_Control.c **** *  the function returns CY_SYSPM_SUCCESS if no scanning is in progress, otherwise
 961:Generated_Source\PSoC6/CapSense_Control.c **** *  CY_SYSPM_FAIL is returned that means that the device cannot switch the power mode
 962:Generated_Source\PSoC6/CapSense_Control.c **** *  without finishing the current scan that is in progress (switching power mode
 963:Generated_Source\PSoC6/CapSense_Control.c **** *  during the scan can disrupt a sensor scan result and produce an unexpected
 964:Generated_Source\PSoC6/CapSense_Control.c **** *  behavior).
 965:Generated_Source\PSoC6/CapSense_Control.c **** *
 966:Generated_Source\PSoC6/CapSense_Control.c **** * \param callbackParams
 967:Generated_Source\PSoC6/CapSense_Control.c **** *  Refer to the description of the cy_stc_syspm_callback_params_t type.
 968:Generated_Source\PSoC6/CapSense_Control.c **** *
 969:Generated_Source\PSoC6/CapSense_Control.c **** * \return
 970:Generated_Source\PSoC6/CapSense_Control.c **** *  Returns the status of the operation requeted by mode parameter:
 971:Generated_Source\PSoC6/CapSense_Control.c **** *  - CY_SYSPM_SUCCESS  - Switching power mode can be done
 972:Generated_Source\PSoC6/CapSense_Control.c **** *  - CY_SYSPM_FAIL     - Switching power mode cannot be done.
 973:Generated_Source\PSoC6/CapSense_Control.c **** *
 974:Generated_Source\PSoC6/CapSense_Control.c **** *******************************************************************************/
 975:Generated_Source\PSoC6/CapSense_Control.c **** static cy_en_syspm_status_t CapSense_SwitchPowerModeCallback(cy_stc_syspm_callback_params_t *callba
 976:Generated_Source\PSoC6/CapSense_Control.c **** {
 999              		.loc 1 976 0
 1000              		.cfi_startproc
 1001              		@ args = 0, pretend = 0, frame = 16
 1002              		@ frame_needed = 1, uses_anonymous_args = 0
 1003 0000 80B5     		push	{r7, lr}
 1004              		.cfi_def_cfa_offset 8
 1005              		.cfi_offset 7, -8
 1006              		.cfi_offset 14, -4
 1007 0002 84B0     		sub	sp, sp, #16
 1008              		.cfi_def_cfa_offset 24
 1009 0004 00AF     		add	r7, sp, #0
ARM GAS  C:\Users\ikomb\AppData\Local\Temp\ccYmJ8Fr.s 			page 36


 1010              		.cfi_def_cfa_register 7
 1011 0006 7860     		str	r0, [r7, #4]
 977:Generated_Source\PSoC6/CapSense_Control.c ****     cy_en_syspm_status_t retVal = CY_SYSPM_SUCCESS;
 1012              		.loc 1 977 0
 1013 0008 0023     		movs	r3, #0
 1014 000a FB60     		str	r3, [r7, #12]
 978:Generated_Source\PSoC6/CapSense_Control.c **** 
 979:Generated_Source\PSoC6/CapSense_Control.c ****     #if (0u != CapSense_ADC_EN)
 980:Generated_Source\PSoC6/CapSense_Control.c ****         uint8 temp;
 981:Generated_Source\PSoC6/CapSense_Control.c ****     #endif /* (0u != CapSense_ADC_EN) */
 982:Generated_Source\PSoC6/CapSense_Control.c **** 
 983:Generated_Source\PSoC6/CapSense_Control.c ****     switch(callbackParams->mode)
 1015              		.loc 1 983 0
 1016 000c 7B68     		ldr	r3, [r7, #4]
 1017 000e 1B78     		ldrb	r3, [r3]	@ zero_extendqisi2
 1018 0010 012B     		cmp	r3, #1
 1019 0012 00D0     		beq	.L83
 984:Generated_Source\PSoC6/CapSense_Control.c ****     {
 985:Generated_Source\PSoC6/CapSense_Control.c ****     case (CY_SYSPM_CHECK_READY):
 986:Generated_Source\PSoC6/CapSense_Control.c ****         if (CapSense_NOT_BUSY != CapSense_IsBusy())
 987:Generated_Source\PSoC6/CapSense_Control.c ****         {
 988:Generated_Source\PSoC6/CapSense_Control.c ****             /* Scanning in progress */
 989:Generated_Source\PSoC6/CapSense_Control.c ****             retVal = CY_SYSPM_FAIL;
 990:Generated_Source\PSoC6/CapSense_Control.c ****         }
 991:Generated_Source\PSoC6/CapSense_Control.c ****         #if (0u != CapSense_ADC_EN)
 992:Generated_Source\PSoC6/CapSense_Control.c ****             temp = CapSense_AdcIsBusy();
 993:Generated_Source\PSoC6/CapSense_Control.c ****             if ((CapSense_AdcSTATUS_IDLE != temp) &&
 994:Generated_Source\PSoC6/CapSense_Control.c ****                 (CapSense_AdcSTATUS_OVERFLOW != temp))
 995:Generated_Source\PSoC6/CapSense_Control.c ****             {
 996:Generated_Source\PSoC6/CapSense_Control.c ****                 /* Scanning in progress */
 997:Generated_Source\PSoC6/CapSense_Control.c ****                 retVal = CY_SYSPM_FAIL;
 998:Generated_Source\PSoC6/CapSense_Control.c ****             }
 999:Generated_Source\PSoC6/CapSense_Control.c ****         #endif /* (0u != CapSense_ADC_EN) */
1000:Generated_Source\PSoC6/CapSense_Control.c ****         break;
1001:Generated_Source\PSoC6/CapSense_Control.c **** 
1002:Generated_Source\PSoC6/CapSense_Control.c ****     default:
1003:Generated_Source\PSoC6/CapSense_Control.c ****         break;
 1020              		.loc 1 1003 0
 1021 0014 07E0     		b	.L85
 1022              	.L83:
 986:Generated_Source\PSoC6/CapSense_Control.c ****         {
 1023              		.loc 1 986 0
 1024 0016 FFF7FEFF 		bl	CapSense_IsBusy
 1025 001a 0346     		mov	r3, r0
 1026 001c 002B     		cmp	r3, #0
 1027 001e 01D0     		beq	.L87
 989:Generated_Source\PSoC6/CapSense_Control.c ****         }
 1028              		.loc 1 989 0
 1029 0020 034B     		ldr	r3, .L88
 1030 0022 FB60     		str	r3, [r7, #12]
 1031              	.L87:
1000:Generated_Source\PSoC6/CapSense_Control.c **** 
 1032              		.loc 1 1000 0
 1033 0024 00BF     		nop
 1034              	.L85:
1004:Generated_Source\PSoC6/CapSense_Control.c ****     }
1005:Generated_Source\PSoC6/CapSense_Control.c **** 
ARM GAS  C:\Users\ikomb\AppData\Local\Temp\ccYmJ8Fr.s 			page 37


1006:Generated_Source\PSoC6/CapSense_Control.c ****     return(retVal);
 1035              		.loc 1 1006 0
 1036 0026 FB68     		ldr	r3, [r7, #12]
1007:Generated_Source\PSoC6/CapSense_Control.c **** }
 1037              		.loc 1 1007 0
 1038 0028 1846     		mov	r0, r3
 1039 002a 1037     		adds	r7, r7, #16
 1040              		.cfi_def_cfa_offset 8
 1041 002c BD46     		mov	sp, r7
 1042              		.cfi_def_cfa_register 13
 1043              		@ sp needed
 1044 002e 80BD     		pop	{r7, pc}
 1045              	.L89:
 1046              		.align	2
 1047              	.L88:
 1048 0030 FF004200 		.word	4325631
 1049              		.cfi_endproc
 1050              	.LFE269:
 1051              		.size	CapSense_SwitchPowerModeCallback, .-CapSense_SwitchPowerModeCallback
 1052              		.text
 1053              	.Letext0:
 1054              		.file 2 "c:\\program files (x86)\\cypress\\psoc creator\\4.4\\psoc creator\\import\\gnu\\arm\\5.4.
 1055              		.file 3 "c:\\program files (x86)\\cypress\\psoc creator\\4.4\\psoc creator\\import\\gnu\\arm\\5.4.
 1056              		.file 4 "Generated_Source\\PSoC6\\pdl\\drivers/peripheral/syslib/cy_syslib.h"
 1057              		.file 5 "Generated_Source\\PSoC6\\pdl\\drivers/peripheral/syspm/cy_syspm.h"
 1058              		.file 6 "Generated_Source\\PSoC6\\CapSense_Configuration.h"
 1059              		.file 7 "Generated_Source\\PSoC6\\CapSense_SmartSense_LL.h"
 1060              		.file 8 "Generated_Source\\PSoC6\\CapSense_Structure.h"
 1061              		.file 9 "Generated_Source\\PSoC6\\pdl\\cmsis/include/core_cm4.h"