ARM GAS  C:\Users\ikomb\AppData\Local\Temp\ccNanTlX.s 			page 1


   1              		.syntax unified
   2              		.cpu cortex-m4
   3              		.eabi_attribute 27, 1
   4              		.fpu fpv4-sp-d16
   5              		.eabi_attribute 20, 1
   6              		.eabi_attribute 21, 1
   7              		.eabi_attribute 23, 3
   8              		.eabi_attribute 24, 1
   9              		.eabi_attribute 25, 1
  10              		.eabi_attribute 26, 1
  11              		.eabi_attribute 30, 6
  12              		.eabi_attribute 34, 1
  13              		.eabi_attribute 18, 4
  14              		.thumb
  15              		.syntax unified
  16              		.file	"CapSense_INT.c"
  17              		.text
  18              	.Ltext0:
  19              		.cfi_sections	.debug_frame
  20              		.section	.text.CapSense_CSDPostSingleScan,"ax",%progbits
  21              		.align	2
  22              		.global	CapSense_CSDPostSingleScan
  23              		.thumb
  24              		.thumb_func
  25              		.type	CapSense_CSDPostSingleScan, %function
  26              	CapSense_CSDPostSingleScan:
  27              	.LFB253:
  28              		.file 1 "Generated_Source\\PSoC6\\CapSense_INT.c"
   1:Generated_Source\PSoC6/CapSense_INT.c **** /***************************************************************************//**
   2:Generated_Source\PSoC6/CapSense_INT.c **** * \file CapSense_INT.c
   3:Generated_Source\PSoC6/CapSense_INT.c **** * \version 2.0
   4:Generated_Source\PSoC6/CapSense_INT.c **** *
   5:Generated_Source\PSoC6/CapSense_INT.c **** * \brief
   6:Generated_Source\PSoC6/CapSense_INT.c **** *   This file contains the source code for implementation of the CapSense
   7:Generated_Source\PSoC6/CapSense_INT.c **** *   Component Interrupt Service Routine (ISR).
   8:Generated_Source\PSoC6/CapSense_INT.c **** *
   9:Generated_Source\PSoC6/CapSense_INT.c **** * \see CapSense v2.0 Datasheet
  10:Generated_Source\PSoC6/CapSense_INT.c **** *
  11:Generated_Source\PSoC6/CapSense_INT.c **** *//*****************************************************************************
  12:Generated_Source\PSoC6/CapSense_INT.c **** * Copyright (2016-2017), Cypress Semiconductor Corporation.
  13:Generated_Source\PSoC6/CapSense_INT.c **** ********************************************************************************
  14:Generated_Source\PSoC6/CapSense_INT.c **** * This software is owned by Cypress Semiconductor Corporation (Cypress) and is
  15:Generated_Source\PSoC6/CapSense_INT.c **** * protected by and subject to worldwide patent protection (United States and
  16:Generated_Source\PSoC6/CapSense_INT.c **** * foreign), United States copyright laws and international treaty provisions.
  17:Generated_Source\PSoC6/CapSense_INT.c **** * Cypress hereby grants to licensee a personal, non-exclusive, non-transferable
  18:Generated_Source\PSoC6/CapSense_INT.c **** * license to copy, use, modify, create derivative works of, and compile the
  19:Generated_Source\PSoC6/CapSense_INT.c **** * Cypress Source Code and derivative works for the sole purpose of creating
  20:Generated_Source\PSoC6/CapSense_INT.c **** * custom software in support of licensee product to be used only in conjunction
  21:Generated_Source\PSoC6/CapSense_INT.c **** * with a Cypress integrated circuit as specified in the applicable agreement.
  22:Generated_Source\PSoC6/CapSense_INT.c **** * Any reproduction, modification, translation, compilation, or representation of
  23:Generated_Source\PSoC6/CapSense_INT.c **** * this software except as specified above is prohibited without the express
  24:Generated_Source\PSoC6/CapSense_INT.c **** * written permission of Cypress.
  25:Generated_Source\PSoC6/CapSense_INT.c **** *
  26:Generated_Source\PSoC6/CapSense_INT.c **** * Disclaimer: CYPRESS MAKES NO WARRANTY OF ANY KIND, EXPRESS OR IMPLIED, WITH
  27:Generated_Source\PSoC6/CapSense_INT.c **** * REGARD TO THIS MATERIAL, INCLUDING, BUT NOT LIMITED TO, THE IMPLIED
  28:Generated_Source\PSoC6/CapSense_INT.c **** * WARRANTIES OF MERCHANTABILITY AND FITNESS FOR A PARTICULAR PURPOSE.
  29:Generated_Source\PSoC6/CapSense_INT.c **** * Cypress reserves the right to make changes without further notice to the
ARM GAS  C:\Users\ikomb\AppData\Local\Temp\ccNanTlX.s 			page 2


  30:Generated_Source\PSoC6/CapSense_INT.c **** * materials described herein. Cypress does not assume any liability arising out
  31:Generated_Source\PSoC6/CapSense_INT.c **** * of the application or use of any product or circuit described herein. Cypress
  32:Generated_Source\PSoC6/CapSense_INT.c **** * does not authorize its products for use as critical components in life-support
  33:Generated_Source\PSoC6/CapSense_INT.c **** * systems where a malfunction or failure may reasonably be expected to result in
  34:Generated_Source\PSoC6/CapSense_INT.c **** * significant injury to the user. The inclusion of Cypress' product in a life-
  35:Generated_Source\PSoC6/CapSense_INT.c **** * support systems application implies that the manufacturer assumes all risk of
  36:Generated_Source\PSoC6/CapSense_INT.c **** * such use and in doing so indemnifies Cypress against all charges. Use may be
  37:Generated_Source\PSoC6/CapSense_INT.c **** * limited by and subject to the applicable Cypress software license agreement.
  38:Generated_Source\PSoC6/CapSense_INT.c **** *******************************************************************************/
  39:Generated_Source\PSoC6/CapSense_INT.c **** #include "syslib/cy_syslib.h"
  40:Generated_Source\PSoC6/CapSense_INT.c **** #include "cyfitter.h"
  41:Generated_Source\PSoC6/CapSense_INT.c **** #include "CapSense_Configuration.h"
  42:Generated_Source\PSoC6/CapSense_INT.c **** #include "CapSense_Structure.h"
  43:Generated_Source\PSoC6/CapSense_INT.c **** #include "CapSense_Sensing.h"
  44:Generated_Source\PSoC6/CapSense_INT.c **** #if (CapSense_ENABLE == CapSense_CSD_EN)
  45:Generated_Source\PSoC6/CapSense_INT.c ****     #include "CapSense_SensingCSD_LL.h"
  46:Generated_Source\PSoC6/CapSense_INT.c **** #endif /* (CapSense_ENABLE == CapSense_CSD_EN) */
  47:Generated_Source\PSoC6/CapSense_INT.c **** #include "cyapicallbacks.h"
  48:Generated_Source\PSoC6/CapSense_INT.c **** 
  49:Generated_Source\PSoC6/CapSense_INT.c **** /*******************************************************************************
  50:Generated_Source\PSoC6/CapSense_INT.c **** * Static Function Prototypes
  51:Generated_Source\PSoC6/CapSense_INT.c **** *******************************************************************************/
  52:Generated_Source\PSoC6/CapSense_INT.c **** /**
  53:Generated_Source\PSoC6/CapSense_INT.c **** * \cond SECTION_CYSENSE_INTERNAL
  54:Generated_Source\PSoC6/CapSense_INT.c **** * \addtogroup group_cysense_internal
  55:Generated_Source\PSoC6/CapSense_INT.c **** * \{
  56:Generated_Source\PSoC6/CapSense_INT.c **** */
  57:Generated_Source\PSoC6/CapSense_INT.c **** 
  58:Generated_Source\PSoC6/CapSense_INT.c **** #if (((CapSense_ENABLE == CapSense_CSD_EN) || (CapSense_ENABLE == CapSense_CSD_CSX_EN)) && \
  59:Generated_Source\PSoC6/CapSense_INT.c ****      (CapSense_ENABLE == CapSense_MULTI_FREQ_SCAN_EN))
  60:Generated_Source\PSoC6/CapSense_INT.c ****     static void CapSense_SsNextFrequencyScan(void);
  61:Generated_Source\PSoC6/CapSense_INT.c **** #endif /* (((CapSense_ENABLE == CapSense_CSD_EN) || (CapSense_ENABLE == CapSense_CSD_CSX_EN)) && \
  62:Generated_Source\PSoC6/CapSense_INT.c ****             (CapSense_ENABLE == CapSense_MULTI_FREQ_SCAN_EN)) */
  63:Generated_Source\PSoC6/CapSense_INT.c **** 
  64:Generated_Source\PSoC6/CapSense_INT.c **** #if ((CapSense_ENABLE == CapSense_CSD_EN) || (CapSense_ENABLE == CapSense_CSD_CSX_EN))
  65:Generated_Source\PSoC6/CapSense_INT.c ****     static void CapSense_SsCSDPostScan(void);
  66:Generated_Source\PSoC6/CapSense_INT.c ****     static void CapSense_SsCSDInitNextScan(void);
  67:Generated_Source\PSoC6/CapSense_INT.c **** #endif /* ((CapSense_ENABLE == CapSense_CSD_EN) || (CapSense_ENABLE == CapSense_CSD_CSX_EN)) */
  68:Generated_Source\PSoC6/CapSense_INT.c **** /** \}
  69:Generated_Source\PSoC6/CapSense_INT.c **** * \endcond */
  70:Generated_Source\PSoC6/CapSense_INT.c **** 
  71:Generated_Source\PSoC6/CapSense_INT.c **** 
  72:Generated_Source\PSoC6/CapSense_INT.c **** /**
  73:Generated_Source\PSoC6/CapSense_INT.c **** * \cond SECTION_CYSENSE_INTERRUPT
  74:Generated_Source\PSoC6/CapSense_INT.c **** * \addtogroup group_cysense_interrupt
  75:Generated_Source\PSoC6/CapSense_INT.c **** * \{
  76:Generated_Source\PSoC6/CapSense_INT.c **** */
  77:Generated_Source\PSoC6/CapSense_INT.c **** 
  78:Generated_Source\PSoC6/CapSense_INT.c **** 
  79:Generated_Source\PSoC6/CapSense_INT.c **** #if ((CapSense_ENABLE == CapSense_CSD_EN) || (CapSense_ENABLE == CapSense_CSD_CSX_EN))
  80:Generated_Source\PSoC6/CapSense_INT.c **** 
  81:Generated_Source\PSoC6/CapSense_INT.c **** 
  82:Generated_Source\PSoC6/CapSense_INT.c ****     /*******************************************************************************
  83:Generated_Source\PSoC6/CapSense_INT.c ****     * Function Name: CapSense_CSDPostSingleScan
  84:Generated_Source\PSoC6/CapSense_INT.c ****     ****************************************************************************//**
  85:Generated_Source\PSoC6/CapSense_INT.c ****     *
  86:Generated_Source\PSoC6/CapSense_INT.c ****     * \brief
ARM GAS  C:\Users\ikomb\AppData\Local\Temp\ccNanTlX.s 			page 3


  87:Generated_Source\PSoC6/CapSense_INT.c ****     *  This is an internal ISR function for the single-sensor scanning implementation.
  88:Generated_Source\PSoC6/CapSense_INT.c ****     *
  89:Generated_Source\PSoC6/CapSense_INT.c ****     * \details
  90:Generated_Source\PSoC6/CapSense_INT.c ****     *  This ISR handler is triggered when the user calls the
  91:Generated_Source\PSoC6/CapSense_INT.c ****     *  CapSense_CSDScanExt() function.
  92:Generated_Source\PSoC6/CapSense_INT.c ****     *
  93:Generated_Source\PSoC6/CapSense_INT.c ****     *  The following tasks are performed:
  94:Generated_Source\PSoC6/CapSense_INT.c ****     *    1. Check if the raw data is not noisy.
  95:Generated_Source\PSoC6/CapSense_INT.c ****     *    2. Read the Counter register and update the data structure with raw data.
  96:Generated_Source\PSoC6/CapSense_INT.c ****     *    3. Configure and start the scan for the next frequency if the
  97:Generated_Source\PSoC6/CapSense_INT.c ****     *      multi-frequency is enabled.
  98:Generated_Source\PSoC6/CapSense_INT.c ****     *    4. Update the Scan Counter.
  99:Generated_Source\PSoC6/CapSense_INT.c ****     *    5. Reset the BUSY flag.
 100:Generated_Source\PSoC6/CapSense_INT.c ****     *    6. Enable the CSD interrupt.
 101:Generated_Source\PSoC6/CapSense_INT.c ****     *
 102:Generated_Source\PSoC6/CapSense_INT.c ****     *  The ISR handler changes the scanning for the next frequency
 103:Generated_Source\PSoC6/CapSense_INT.c ****     *  channels when multi-frequency scanning is enabled.
 104:Generated_Source\PSoC6/CapSense_INT.c ****     *
 105:Generated_Source\PSoC6/CapSense_INT.c ****     *  This function has two Macro Callbacks that allow calling the user code
 106:Generated_Source\PSoC6/CapSense_INT.c ****     *  from macros specified in Component's generated code. Refer to the
 107:Generated_Source\PSoC6/CapSense_INT.c ****     *  \ref group_cysense_macrocallbacks section of the PSoC Creator User Guide
 108:Generated_Source\PSoC6/CapSense_INT.c ****     *  for details.
 109:Generated_Source\PSoC6/CapSense_INT.c ****     *
 110:Generated_Source\PSoC6/CapSense_INT.c ****     *******************************************************************************/
 111:Generated_Source\PSoC6/CapSense_INT.c ****     void CapSense_CSDPostSingleScan(void)
 112:Generated_Source\PSoC6/CapSense_INT.c ****     {
  29              		.loc 1 112 0
  30              		.cfi_startproc
  31              		@ args = 0, pretend = 0, frame = 0
  32              		@ frame_needed = 1, uses_anonymous_args = 0
  33 0000 80B5     		push	{r7, lr}
  34              		.cfi_def_cfa_offset 8
  35              		.cfi_offset 7, -8
  36              		.cfi_offset 14, -4
  37 0002 00AF     		add	r7, sp, #0
  38              		.cfi_def_cfa_register 7
 113:Generated_Source\PSoC6/CapSense_INT.c ****         #ifdef CapSense_ENTRY_CALLBACK
 114:Generated_Source\PSoC6/CapSense_INT.c ****             CapSense_EntryCallback();
 115:Generated_Source\PSoC6/CapSense_INT.c ****         #endif /* CapSense_ENTRY_CALLBACK */
 116:Generated_Source\PSoC6/CapSense_INT.c **** 
 117:Generated_Source\PSoC6/CapSense_INT.c ****         /* Clear pending interrupt */
 118:Generated_Source\PSoC6/CapSense_INT.c ****         CY_SET_REG32(CapSense_CSD_INTR_PTR, CapSense_CSD_INTR_ALL_MSK);
  39              		.loc 1 118 0
  40 0004 0B4B     		ldr	r3, .L2
  41 0006 4FF48372 		mov	r2, #262
  42 000a 1A60     		str	r2, [r3]
 119:Generated_Source\PSoC6/CapSense_INT.c ****         (void)CY_GET_REG32(CapSense_CSD_INTR_PTR);
  43              		.loc 1 119 0
  44 000c 094B     		ldr	r3, .L2
  45 000e 1B68     		ldr	r3, [r3]
 120:Generated_Source\PSoC6/CapSense_INT.c **** 
 121:Generated_Source\PSoC6/CapSense_INT.c ****         #if (CapSense_ENABLE == CapSense_CSD_NOISE_METRIC_EN)
 122:Generated_Source\PSoC6/CapSense_INT.c ****             if ((CapSense_CSD_NOISE_METRIC_TH < ((CY_GET_REG32(CapSense_CSD_RESULT_VAL1_PTR) &
 123:Generated_Source\PSoC6/CapSense_INT.c ****                                                         CapSense_CSD_RESULT_VAL1_BAD_CONVS_MSK) >>
 124:Generated_Source\PSoC6/CapSense_INT.c ****                                                         CapSense_CSD_RESULT_VAL1_BAD_CONVS_POS)) &&
 125:Generated_Source\PSoC6/CapSense_INT.c ****                                                         (0u < CapSense_badConversionsNum))
 126:Generated_Source\PSoC6/CapSense_INT.c ****             {
ARM GAS  C:\Users\ikomb\AppData\Local\Temp\ccNanTlX.s 			page 4


 127:Generated_Source\PSoC6/CapSense_INT.c ****                 /* Decrement bad conversions number */
 128:Generated_Source\PSoC6/CapSense_INT.c ****                 CapSense_badConversionsNum--;
 129:Generated_Source\PSoC6/CapSense_INT.c **** 
 130:Generated_Source\PSoC6/CapSense_INT.c ****                 /* Start the re-scan */
 131:Generated_Source\PSoC6/CapSense_INT.c ****                 CY_SET_REG32(CapSense_CSD_SEQ_START_PTR, CapSense_CSD_SEQ_START_AZ0_SKIP_MSK |
 132:Generated_Source\PSoC6/CapSense_INT.c ****                                                              CapSense_CSD_SEQ_START_AZ1_SKIP_MSK |
 133:Generated_Source\PSoC6/CapSense_INT.c ****                                                              CapSense_CSD_SEQ_START_START_MSK);
 134:Generated_Source\PSoC6/CapSense_INT.c ****             }
 135:Generated_Source\PSoC6/CapSense_INT.c ****             else
 136:Generated_Source\PSoC6/CapSense_INT.c ****             {
 137:Generated_Source\PSoC6/CapSense_INT.c ****         #endif /* (CapSense_ENABLE == CapSense_CSD_NOISE_METRIC_EN) */
 138:Generated_Source\PSoC6/CapSense_INT.c **** 
 139:Generated_Source\PSoC6/CapSense_INT.c ****             CapSense_SsCSDPostScan();
  46              		.loc 1 139 0
  47 0010 FFF7FEFF 		bl	CapSense_SsCSDPostScan
 140:Generated_Source\PSoC6/CapSense_INT.c **** 
 141:Generated_Source\PSoC6/CapSense_INT.c ****             #if (CapSense_ENABLE == CapSense_MULTI_FREQ_SCAN_EN)
 142:Generated_Source\PSoC6/CapSense_INT.c ****                 if (CapSense_FREQ_CHANNEL_2 > CapSense_scanFreqIndex)
 143:Generated_Source\PSoC6/CapSense_INT.c ****                 {
 144:Generated_Source\PSoC6/CapSense_INT.c ****                     /* Scan the next channel */
 145:Generated_Source\PSoC6/CapSense_INT.c ****                     CapSense_SsNextFrequencyScan();
 146:Generated_Source\PSoC6/CapSense_INT.c ****                 }
 147:Generated_Source\PSoC6/CapSense_INT.c ****                 else
 148:Generated_Source\PSoC6/CapSense_INT.c ****                 {
 149:Generated_Source\PSoC6/CapSense_INT.c ****                     /* All channels are scanned. Reset the frequency scan channel */
 150:Generated_Source\PSoC6/CapSense_INT.c ****                     CapSense_scanFreqIndex = CapSense_FREQ_CHANNEL_0;
 151:Generated_Source\PSoC6/CapSense_INT.c ****                     CapSense_SsChangeClkFreq(CapSense_FREQ_CHANNEL_0);
 152:Generated_Source\PSoC6/CapSense_INT.c **** 
 153:Generated_Source\PSoC6/CapSense_INT.c ****                     #if (CapSense_ENABLE == CapSense_BLOCK_OFF_AFTER_SCAN_EN)
 154:Generated_Source\PSoC6/CapSense_INT.c ****                         /* Disable HW IP block */
 155:Generated_Source\PSoC6/CapSense_INT.c ****                         CY_SET_REG32(CapSense_CSD_CONFIG_PTR, CapSense_configCsd);
 156:Generated_Source\PSoC6/CapSense_INT.c ****                     #endif /* (CapSense_ENABLE == CapSense_BLOCK_OFF_AFTER_SCAN_EN) */
 157:Generated_Source\PSoC6/CapSense_INT.c **** 
 158:Generated_Source\PSoC6/CapSense_INT.c ****                     /* Update Scan Counter */
 159:Generated_Source\PSoC6/CapSense_INT.c ****                     CapSense_dsRam.scanCounter++;
 160:Generated_Source\PSoC6/CapSense_INT.c **** 
 161:Generated_Source\PSoC6/CapSense_INT.c ****                     /* Sensor is totally scanned. Reset BUSY flag */
 162:Generated_Source\PSoC6/CapSense_INT.c ****                     CapSense_dsRam.status &= ~(CapSense_SW_STS_BUSY | CapSense_WDGT_SW_STS_BUSY);
 163:Generated_Source\PSoC6/CapSense_INT.c ****                 }
 164:Generated_Source\PSoC6/CapSense_INT.c ****             #else
 165:Generated_Source\PSoC6/CapSense_INT.c ****                 {
 166:Generated_Source\PSoC6/CapSense_INT.c ****                     #if (CapSense_ENABLE == CapSense_BLOCK_OFF_AFTER_SCAN_EN)
 167:Generated_Source\PSoC6/CapSense_INT.c ****                         /* Disable HW IP block */
 168:Generated_Source\PSoC6/CapSense_INT.c ****                         CY_SET_REG32(CapSense_CSD_CONFIG_PTR, CapSense_configCsd);
 169:Generated_Source\PSoC6/CapSense_INT.c ****                     #endif /* (CapSense_ENABLE == CapSense_BLOCK_OFF_AFTER_SCAN_EN) */
 170:Generated_Source\PSoC6/CapSense_INT.c **** 
 171:Generated_Source\PSoC6/CapSense_INT.c ****                     /* Update Scan Counter */
 172:Generated_Source\PSoC6/CapSense_INT.c ****                     CapSense_dsRam.scanCounter++;
  48              		.loc 1 172 0
  49 0014 084B     		ldr	r3, .L2+4
  50 0016 1B89     		ldrh	r3, [r3, #8]
  51 0018 0133     		adds	r3, r3, #1
  52 001a 9AB2     		uxth	r2, r3
  53 001c 064B     		ldr	r3, .L2+4
  54 001e 1A81     		strh	r2, [r3, #8]	@ movhi
 173:Generated_Source\PSoC6/CapSense_INT.c **** 
 174:Generated_Source\PSoC6/CapSense_INT.c ****                     /* Sensor is totally scanned. Reset BUSY flag */
ARM GAS  C:\Users\ikomb\AppData\Local\Temp\ccNanTlX.s 			page 5


 175:Generated_Source\PSoC6/CapSense_INT.c ****                     CapSense_dsRam.status &= ~(CapSense_SW_STS_BUSY | CapSense_WDGT_SW_STS_BUSY);
  55              		.loc 1 175 0
  56 0020 054B     		ldr	r3, .L2+4
  57 0022 DB68     		ldr	r3, [r3, #12]
  58 0024 23F48033 		bic	r3, r3, #65536
  59 0028 23F08003 		bic	r3, r3, #128
  60 002c 024A     		ldr	r2, .L2+4
  61 002e D360     		str	r3, [r2, #12]
 176:Generated_Source\PSoC6/CapSense_INT.c ****                 }
 177:Generated_Source\PSoC6/CapSense_INT.c ****             #endif /* (CapSense_ENABLE == CapSense_MULTI_FREQ_SCAN_EN) */
 178:Generated_Source\PSoC6/CapSense_INT.c ****     #if (CapSense_ENABLE == CapSense_CSD_NOISE_METRIC_EN)
 179:Generated_Source\PSoC6/CapSense_INT.c ****         }
 180:Generated_Source\PSoC6/CapSense_INT.c ****     #endif /* (CapSense_ENABLE == CapSense_CSD_NOISE_METRIC_EN) */
 181:Generated_Source\PSoC6/CapSense_INT.c **** 
 182:Generated_Source\PSoC6/CapSense_INT.c ****         #ifdef CapSense_EXIT_CALLBACK
 183:Generated_Source\PSoC6/CapSense_INT.c ****             CapSense_ExitCallback();
 184:Generated_Source\PSoC6/CapSense_INT.c ****         #endif /* CapSense_EXIT_CALLBACK */
 185:Generated_Source\PSoC6/CapSense_INT.c ****     }
  62              		.loc 1 185 0
  63 0030 00BF     		nop
  64 0032 80BD     		pop	{r7, pc}
  65              	.L3:
  66              		.align	2
  67              	.L2:
  68 0034 F0003640 		.word	1077281008
  69 0038 00000000 		.word	CapSense_dsRam
  70              		.cfi_endproc
  71              	.LFE253:
  72              		.size	CapSense_CSDPostSingleScan, .-CapSense_CSDPostSingleScan
  73              		.section	.text.CapSense_CSDPostMultiScan,"ax",%progbits
  74              		.align	2
  75              		.global	CapSense_CSDPostMultiScan
  76              		.thumb
  77              		.thumb_func
  78              		.type	CapSense_CSDPostMultiScan, %function
  79              	CapSense_CSDPostMultiScan:
  80              	.LFB254:
 186:Generated_Source\PSoC6/CapSense_INT.c **** 
 187:Generated_Source\PSoC6/CapSense_INT.c **** 
 188:Generated_Source\PSoC6/CapSense_INT.c ****     /*******************************************************************************
 189:Generated_Source\PSoC6/CapSense_INT.c ****     * Function Name: CapSense_CSDPostMultiScan
 190:Generated_Source\PSoC6/CapSense_INT.c ****     ****************************************************************************//**
 191:Generated_Source\PSoC6/CapSense_INT.c ****     *
 192:Generated_Source\PSoC6/CapSense_INT.c ****     * \brief
 193:Generated_Source\PSoC6/CapSense_INT.c ****     *  This is an internal ISR function for the multiple-sensor scanning
 194:Generated_Source\PSoC6/CapSense_INT.c ****     *  implementation.
 195:Generated_Source\PSoC6/CapSense_INT.c ****     *
 196:Generated_Source\PSoC6/CapSense_INT.c ****     * \details
 197:Generated_Source\PSoC6/CapSense_INT.c ****     *  This ISR handler is triggered when the user calls the
 198:Generated_Source\PSoC6/CapSense_INT.c ****     *  CapSense_Scan() or CapSense_ScanAllWidgets() APIs.
 199:Generated_Source\PSoC6/CapSense_INT.c ****     *
 200:Generated_Source\PSoC6/CapSense_INT.c ****     *  The following tasks are performed:
 201:Generated_Source\PSoC6/CapSense_INT.c ****     *    1. Disable the CSD interrupt.
 202:Generated_Source\PSoC6/CapSense_INT.c ****     *    2. Read the Counter register and update the data structure with raw data.
 203:Generated_Source\PSoC6/CapSense_INT.c ****     *    3. Connect the Vref buffer to the AMUX bus.
 204:Generated_Source\PSoC6/CapSense_INT.c ****     *    4. Disable the CSD block (after the widget has been scanned).
 205:Generated_Source\PSoC6/CapSense_INT.c ****     *    5. Update the Scan Counter.
ARM GAS  C:\Users\ikomb\AppData\Local\Temp\ccNanTlX.s 			page 6


 206:Generated_Source\PSoC6/CapSense_INT.c ****     *    6. Reset the BUSY flag.
 207:Generated_Source\PSoC6/CapSense_INT.c ****     *    7. Enable the CSD interrupt.
 208:Generated_Source\PSoC6/CapSense_INT.c ****     *
 209:Generated_Source\PSoC6/CapSense_INT.c ****     *  The ISR handler initializes scanning for the previous sensor when the
 210:Generated_Source\PSoC6/CapSense_INT.c ****     *  widget has more than one sensor.
 211:Generated_Source\PSoC6/CapSense_INT.c ****     *  The ISR handler initializes scanning for the next widget when the
 212:Generated_Source\PSoC6/CapSense_INT.c ****     *  CapSense_ScanAllWidgets() APIs are called and the project has
 213:Generated_Source\PSoC6/CapSense_INT.c ****     *  more than one widget.
 214:Generated_Source\PSoC6/CapSense_INT.c ****     *  The ISR handler changes the IMO and initializes scanning for the next
 215:Generated_Source\PSoC6/CapSense_INT.c ****     *  frequency channels when multi-frequency scanning is enabled.
 216:Generated_Source\PSoC6/CapSense_INT.c ****     *
 217:Generated_Source\PSoC6/CapSense_INT.c ****     *  This function has two Macro Callbacks that allow calling the user
 218:Generated_Source\PSoC6/CapSense_INT.c ****     *  code from macros specified in Component's generated code. Refer to the
 219:Generated_Source\PSoC6/CapSense_INT.c ****     *  \ref group_cysense_macrocallbacks section of the PSoC Creator User Guide
 220:Generated_Source\PSoC6/CapSense_INT.c ****     *  for details.
 221:Generated_Source\PSoC6/CapSense_INT.c ****     *
 222:Generated_Source\PSoC6/CapSense_INT.c ****     *******************************************************************************/
 223:Generated_Source\PSoC6/CapSense_INT.c ****     void CapSense_CSDPostMultiScan(void)
 224:Generated_Source\PSoC6/CapSense_INT.c ****     {
  81              		.loc 1 224 0
  82              		.cfi_startproc
  83              		@ args = 0, pretend = 0, frame = 8
  84              		@ frame_needed = 1, uses_anonymous_args = 0
  85 0000 80B5     		push	{r7, lr}
  86              		.cfi_def_cfa_offset 8
  87              		.cfi_offset 7, -8
  88              		.cfi_offset 14, -4
  89 0002 82B0     		sub	sp, sp, #8
  90              		.cfi_def_cfa_offset 16
  91 0004 00AF     		add	r7, sp, #0
  92              		.cfi_def_cfa_register 7
 225:Generated_Source\PSoC6/CapSense_INT.c ****         /* Declare and initialize ptr to sensor IO structure to appropriate address */
 226:Generated_Source\PSoC6/CapSense_INT.c ****         CapSense_FLASH_IO_STRUCT const *curSnsIOPtr = (CapSense_FLASH_IO_STRUCT const *)
  93              		.loc 1 226 0
  94 0006 114B     		ldr	r3, .L5
  95 0008 1B78     		ldrb	r3, [r3]
  96 000a DBB2     		uxtb	r3, r3
  97 000c 1946     		mov	r1, r3
 227:Generated_Source\PSoC6/CapSense_INT.c ****                                                           CapSense_dsFlash.wdgtArray[CapSense_widge
  98              		.loc 1 227 0
  99 000e 104A     		ldr	r2, .L5+4
 100 0010 0B46     		mov	r3, r1
 101 0012 5B00     		lsls	r3, r3, #1
 102 0014 0B44     		add	r3, r3, r1
 103 0016 1B01     		lsls	r3, r3, #4
 104 0018 1344     		add	r3, r3, r2
 105 001a 1A68     		ldr	r2, [r3]
 228:Generated_Source\PSoC6/CapSense_INT.c ****                                                           + CapSense_sensorIndex;
 106              		.loc 1 228 0
 107 001c 0D4B     		ldr	r3, .L5+8
 108 001e 1B78     		ldrb	r3, [r3]
 109 0020 DBB2     		uxtb	r3, r3
 110 0022 DB00     		lsls	r3, r3, #3
 226:Generated_Source\PSoC6/CapSense_INT.c ****                                                           CapSense_dsFlash.wdgtArray[CapSense_widge
 111              		.loc 1 226 0
 112 0024 1344     		add	r3, r3, r2
 113 0026 7B60     		str	r3, [r7, #4]
ARM GAS  C:\Users\ikomb\AppData\Local\Temp\ccNanTlX.s 			page 7


 229:Generated_Source\PSoC6/CapSense_INT.c **** 
 230:Generated_Source\PSoC6/CapSense_INT.c ****         #ifdef CapSense_ENTRY_CALLBACK
 231:Generated_Source\PSoC6/CapSense_INT.c ****             CapSense_EntryCallback();
 232:Generated_Source\PSoC6/CapSense_INT.c ****         #endif /* CapSense_ENTRY_CALLBACK */
 233:Generated_Source\PSoC6/CapSense_INT.c **** 
 234:Generated_Source\PSoC6/CapSense_INT.c ****         /* Clear pending interrupt */
 235:Generated_Source\PSoC6/CapSense_INT.c ****         CY_SET_REG32(CapSense_CSD_INTR_PTR, CapSense_CSD_INTR_ALL_MSK);
 114              		.loc 1 235 0
 115 0028 0B4B     		ldr	r3, .L5+12
 116 002a 4FF48372 		mov	r2, #262
 117 002e 1A60     		str	r2, [r3]
 236:Generated_Source\PSoC6/CapSense_INT.c ****         (void)CY_GET_REG32(CapSense_CSD_INTR_PTR);
 118              		.loc 1 236 0
 119 0030 094B     		ldr	r3, .L5+12
 120 0032 1B68     		ldr	r3, [r3]
 237:Generated_Source\PSoC6/CapSense_INT.c **** 
 238:Generated_Source\PSoC6/CapSense_INT.c ****         #if (CapSense_ENABLE == CapSense_CSD_NOISE_METRIC_EN)
 239:Generated_Source\PSoC6/CapSense_INT.c ****             if ((CapSense_CSD_NOISE_METRIC_TH < ((CY_GET_REG32(CapSense_CSD_RESULT_VAL1_PTR) &
 240:Generated_Source\PSoC6/CapSense_INT.c ****                                                       CapSense_CSD_RESULT_VAL1_BAD_CONVS_MSK) >>
 241:Generated_Source\PSoC6/CapSense_INT.c ****                                                       CapSense_CSD_RESULT_VAL1_BAD_CONVS_POS)) &&
 242:Generated_Source\PSoC6/CapSense_INT.c ****                                                       (0u < CapSense_badConversionsNum))
 243:Generated_Source\PSoC6/CapSense_INT.c ****             {
 244:Generated_Source\PSoC6/CapSense_INT.c ****                 /* Decrement bad conversions number */
 245:Generated_Source\PSoC6/CapSense_INT.c ****                 CapSense_badConversionsNum--;
 246:Generated_Source\PSoC6/CapSense_INT.c **** 
 247:Generated_Source\PSoC6/CapSense_INT.c ****                 /* Start the re-scan */
 248:Generated_Source\PSoC6/CapSense_INT.c ****                 CY_SET_REG32(CapSense_CSD_SEQ_START_PTR, CapSense_CSD_SEQ_START_AZ0_SKIP_MSK |
 249:Generated_Source\PSoC6/CapSense_INT.c ****                                                              CapSense_CSD_SEQ_START_AZ1_SKIP_MSK |
 250:Generated_Source\PSoC6/CapSense_INT.c ****                                                              CapSense_CSD_SEQ_START_START_MSK);
 251:Generated_Source\PSoC6/CapSense_INT.c ****             }
 252:Generated_Source\PSoC6/CapSense_INT.c ****             else
 253:Generated_Source\PSoC6/CapSense_INT.c ****             {
 254:Generated_Source\PSoC6/CapSense_INT.c ****         #endif /* (CapSense_ENABLE == CapSense_CSD_NOISE_METRIC_EN) */
 255:Generated_Source\PSoC6/CapSense_INT.c **** 
 256:Generated_Source\PSoC6/CapSense_INT.c ****         CapSense_SsCSDPostScan();
 121              		.loc 1 256 0
 122 0034 FFF7FEFF 		bl	CapSense_SsCSDPostScan
 257:Generated_Source\PSoC6/CapSense_INT.c **** 
 258:Generated_Source\PSoC6/CapSense_INT.c ****         /* Disable sensor when all frequency channels are scanned */
 259:Generated_Source\PSoC6/CapSense_INT.c ****         #if (CapSense_ENABLE == CapSense_MULTI_FREQ_SCAN_EN)
 260:Generated_Source\PSoC6/CapSense_INT.c ****             if (CapSense_FREQ_CHANNEL_2 == CapSense_scanFreqIndex)
 261:Generated_Source\PSoC6/CapSense_INT.c ****         #endif /* (CapSense_ENABLE == CapSense_MULTI_FREQ_SCAN_EN) */
 262:Generated_Source\PSoC6/CapSense_INT.c ****         {
 263:Generated_Source\PSoC6/CapSense_INT.c ****             /* Disable sensor */
 264:Generated_Source\PSoC6/CapSense_INT.c ****             CapSense_CSDDisconnectSns(curSnsIOPtr);
 123              		.loc 1 264 0
 124 0038 7868     		ldr	r0, [r7, #4]
 125 003a FFF7FEFF 		bl	CapSense_CSDDisconnectSns
 265:Generated_Source\PSoC6/CapSense_INT.c ****         }
 266:Generated_Source\PSoC6/CapSense_INT.c **** 
 267:Generated_Source\PSoC6/CapSense_INT.c ****         #if (CapSense_ENABLE == CapSense_MULTI_FREQ_SCAN_EN)
 268:Generated_Source\PSoC6/CapSense_INT.c ****             if (CapSense_FREQ_CHANNEL_2 > CapSense_scanFreqIndex)
 269:Generated_Source\PSoC6/CapSense_INT.c ****             {
 270:Generated_Source\PSoC6/CapSense_INT.c ****                  /* Scan the next channel */
 271:Generated_Source\PSoC6/CapSense_INT.c ****                 CapSense_SsNextFrequencyScan();
 272:Generated_Source\PSoC6/CapSense_INT.c ****             }
 273:Generated_Source\PSoC6/CapSense_INT.c ****             else
ARM GAS  C:\Users\ikomb\AppData\Local\Temp\ccNanTlX.s 			page 8


 274:Generated_Source\PSoC6/CapSense_INT.c ****             {
 275:Generated_Source\PSoC6/CapSense_INT.c ****                 /* All channels are scanned. Reset the frequency scan channel */
 276:Generated_Source\PSoC6/CapSense_INT.c ****                 CapSense_scanFreqIndex = CapSense_FREQ_CHANNEL_0;
 277:Generated_Source\PSoC6/CapSense_INT.c ****                 CapSense_SsChangeClkFreq(CapSense_FREQ_CHANNEL_0);
 278:Generated_Source\PSoC6/CapSense_INT.c **** 
 279:Generated_Source\PSoC6/CapSense_INT.c ****                  /* Scan the next sensor */
 280:Generated_Source\PSoC6/CapSense_INT.c ****                 CapSense_SsCSDInitNextScan();
 281:Generated_Source\PSoC6/CapSense_INT.c ****             }
 282:Generated_Source\PSoC6/CapSense_INT.c ****         #else
 283:Generated_Source\PSoC6/CapSense_INT.c ****             /* Scan the next sensor */
 284:Generated_Source\PSoC6/CapSense_INT.c ****             CapSense_SsCSDInitNextScan();
 126              		.loc 1 284 0
 127 003e FFF7FEFF 		bl	CapSense_SsCSDInitNextScan
 285:Generated_Source\PSoC6/CapSense_INT.c ****         #endif /* (CapSense_ENABLE == CapSense_MULTI_FREQ_SCAN_EN) */
 286:Generated_Source\PSoC6/CapSense_INT.c ****     #if (CapSense_ENABLE == CapSense_CSD_NOISE_METRIC_EN)
 287:Generated_Source\PSoC6/CapSense_INT.c ****         }
 288:Generated_Source\PSoC6/CapSense_INT.c ****     #endif /* (CapSense_ENABLE == CapSense_CSD_NOISE_METRIC_EN) */
 289:Generated_Source\PSoC6/CapSense_INT.c **** 
 290:Generated_Source\PSoC6/CapSense_INT.c ****     #ifdef CapSense_EXIT_CALLBACK
 291:Generated_Source\PSoC6/CapSense_INT.c ****         CapSense_ExitCallback();
 292:Generated_Source\PSoC6/CapSense_INT.c ****     #endif /* CapSense_EXIT_CALLBACK */
 293:Generated_Source\PSoC6/CapSense_INT.c **** }
 128              		.loc 1 293 0
 129 0042 00BF     		nop
 130 0044 0837     		adds	r7, r7, #8
 131              		.cfi_def_cfa_offset 8
 132 0046 BD46     		mov	sp, r7
 133              		.cfi_def_cfa_register 13
 134              		@ sp needed
 135 0048 80BD     		pop	{r7, pc}
 136              	.L6:
 137 004a 00BF     		.align	2
 138              	.L5:
 139 004c 00000000 		.word	CapSense_widgetIndex
 140 0050 00000000 		.word	CapSense_dsFlash
 141 0054 00000000 		.word	CapSense_sensorIndex
 142 0058 F0003640 		.word	1077281008
 143              		.cfi_endproc
 144              	.LFE254:
 145              		.size	CapSense_CSDPostMultiScan, .-CapSense_CSDPostMultiScan
 146              		.section	.text.CapSense_SsCSDPostScan,"ax",%progbits
 147              		.align	2
 148              		.thumb
 149              		.thumb_func
 150              		.type	CapSense_SsCSDPostScan, %function
 151              	CapSense_SsCSDPostScan:
 152              	.LFB255:
 294:Generated_Source\PSoC6/CapSense_INT.c **** 
 295:Generated_Source\PSoC6/CapSense_INT.c **** 
 296:Generated_Source\PSoC6/CapSense_INT.c **** #if (CapSense_ENABLE == CapSense_CSD_GANGED_SNS_EN)
 297:Generated_Source\PSoC6/CapSense_INT.c **** /*******************************************************************************
 298:Generated_Source\PSoC6/CapSense_INT.c **** * Function Name: CapSense_CSDPostMultiScanGanged
 299:Generated_Source\PSoC6/CapSense_INT.c **** ****************************************************************************//**
 300:Generated_Source\PSoC6/CapSense_INT.c **** *
 301:Generated_Source\PSoC6/CapSense_INT.c **** * \brief
 302:Generated_Source\PSoC6/CapSense_INT.c **** *  This is an internal ISR function for the multiple-sensor scanning
 303:Generated_Source\PSoC6/CapSense_INT.c **** *  implementation for ganged sensors.
ARM GAS  C:\Users\ikomb\AppData\Local\Temp\ccNanTlX.s 			page 9


 304:Generated_Source\PSoC6/CapSense_INT.c **** *
 305:Generated_Source\PSoC6/CapSense_INT.c **** * \details
 306:Generated_Source\PSoC6/CapSense_INT.c **** *  This ISR handler is triggered when the user calls the
 307:Generated_Source\PSoC6/CapSense_INT.c **** *  CapSense_Scan() API for a ganged sensor or the
 308:Generated_Source\PSoC6/CapSense_INT.c **** *  CapSense_ScanAllWidgets() API in the project with ganged sensors.
 309:Generated_Source\PSoC6/CapSense_INT.c **** *
 310:Generated_Source\PSoC6/CapSense_INT.c **** *  The following tasks are performed:
 311:Generated_Source\PSoC6/CapSense_INT.c **** *    1. Disable the CSD interrupt.
 312:Generated_Source\PSoC6/CapSense_INT.c **** *    2. Read the Counter register and update the data structure with raw data.
 313:Generated_Source\PSoC6/CapSense_INT.c **** *    3. Connect the Vref buffer to the AMUX bus.
 314:Generated_Source\PSoC6/CapSense_INT.c **** *    4. Disable the CSD block (after the widget has been scanned).
 315:Generated_Source\PSoC6/CapSense_INT.c **** *    5. Update the Scan Counter.
 316:Generated_Source\PSoC6/CapSense_INT.c **** *    6. Reset the BUSY flag.
 317:Generated_Source\PSoC6/CapSense_INT.c **** *    7. Enable the CSD interrupt.
 318:Generated_Source\PSoC6/CapSense_INT.c **** *
 319:Generated_Source\PSoC6/CapSense_INT.c **** *  The ISR handler initializes scanning for the previous sensor when the
 320:Generated_Source\PSoC6/CapSense_INT.c **** *  widget has more than one sensor.
 321:Generated_Source\PSoC6/CapSense_INT.c **** *  The ISR handler initializes scanning for the next widget when the
 322:Generated_Source\PSoC6/CapSense_INT.c **** *  CapSense_ScanAllWidgets() APIs are called and the project has
 323:Generated_Source\PSoC6/CapSense_INT.c **** *  more than one widget.
 324:Generated_Source\PSoC6/CapSense_INT.c **** *  The ISR handler changes the IMO and initializes scanning for the next
 325:Generated_Source\PSoC6/CapSense_INT.c **** *  frequency channels when multi-frequency scanning is enabled.
 326:Generated_Source\PSoC6/CapSense_INT.c **** *
 327:Generated_Source\PSoC6/CapSense_INT.c **** *  This function has two Macro Callbacks that allow calling the user
 328:Generated_Source\PSoC6/CapSense_INT.c **** *  code from macros specified in Component's generated code. Refer to the
 329:Generated_Source\PSoC6/CapSense_INT.c **** *  \ref group_cysense_macrocallbacks section of the PSoC Creator User Guide
 330:Generated_Source\PSoC6/CapSense_INT.c **** *  for details.
 331:Generated_Source\PSoC6/CapSense_INT.c **** *
 332:Generated_Source\PSoC6/CapSense_INT.c **** *******************************************************************************/
 333:Generated_Source\PSoC6/CapSense_INT.c **** void CapSense_CSDPostMultiScanGanged(void)
 334:Generated_Source\PSoC6/CapSense_INT.c **** {
 335:Generated_Source\PSoC6/CapSense_INT.c ****     #ifdef CapSense_ENTRY_CALLBACK
 336:Generated_Source\PSoC6/CapSense_INT.c ****         CapSense_EntryCallback();
 337:Generated_Source\PSoC6/CapSense_INT.c ****     #endif /* CapSense_ENTRY_CALLBACK */
 338:Generated_Source\PSoC6/CapSense_INT.c **** 
 339:Generated_Source\PSoC6/CapSense_INT.c ****         /* Clear pending interrupt */
 340:Generated_Source\PSoC6/CapSense_INT.c ****     CY_SET_REG32(CapSense_CSD_INTR_PTR, CapSense_CSD_INTR_ALL_MSK);
 341:Generated_Source\PSoC6/CapSense_INT.c ****     (void)CY_GET_REG32(CapSense_CSD_INTR_PTR);
 342:Generated_Source\PSoC6/CapSense_INT.c **** 
 343:Generated_Source\PSoC6/CapSense_INT.c ****     #if (CapSense_ENABLE == CapSense_CSD_NOISE_METRIC_EN)
 344:Generated_Source\PSoC6/CapSense_INT.c ****         if ((CapSense_CSD_NOISE_METRIC_TH < ((CY_GET_REG32(CapSense_CSD_RESULT_VAL1_PTR) &
 345:Generated_Source\PSoC6/CapSense_INT.c ****                                                   CapSense_CSD_RESULT_VAL1_BAD_CONVS_MSK) >>
 346:Generated_Source\PSoC6/CapSense_INT.c ****                                                   CapSense_CSD_RESULT_VAL1_BAD_CONVS_POS)) &&
 347:Generated_Source\PSoC6/CapSense_INT.c ****                                                   (0u < CapSense_badConversionsNum))
 348:Generated_Source\PSoC6/CapSense_INT.c ****         {
 349:Generated_Source\PSoC6/CapSense_INT.c ****             /* Decrement bad conversions number */
 350:Generated_Source\PSoC6/CapSense_INT.c ****             CapSense_badConversionsNum--;
 351:Generated_Source\PSoC6/CapSense_INT.c **** 
 352:Generated_Source\PSoC6/CapSense_INT.c ****             /* Start the re-scan */
 353:Generated_Source\PSoC6/CapSense_INT.c ****             CY_SET_REG32(CapSense_CSD_SEQ_START_PTR, CapSense_CSD_SEQ_START_AZ0_SKIP_MSK |
 354:Generated_Source\PSoC6/CapSense_INT.c ****                                                          CapSense_CSD_SEQ_START_AZ1_SKIP_MSK |
 355:Generated_Source\PSoC6/CapSense_INT.c ****                                                          CapSense_CSD_SEQ_START_START_MSK);
 356:Generated_Source\PSoC6/CapSense_INT.c ****         }
 357:Generated_Source\PSoC6/CapSense_INT.c ****         else
 358:Generated_Source\PSoC6/CapSense_INT.c ****         {
 359:Generated_Source\PSoC6/CapSense_INT.c ****     #endif /* (CapSense_ENABLE == CapSense_CSD_NOISE_METRIC_EN) */
 360:Generated_Source\PSoC6/CapSense_INT.c **** 
ARM GAS  C:\Users\ikomb\AppData\Local\Temp\ccNanTlX.s 			page 10


 361:Generated_Source\PSoC6/CapSense_INT.c ****         CapSense_SsCSDPostScan();
 362:Generated_Source\PSoC6/CapSense_INT.c **** 
 363:Generated_Source\PSoC6/CapSense_INT.c ****         #if (CapSense_ENABLE == CapSense_MULTI_FREQ_SCAN_EN)
 364:Generated_Source\PSoC6/CapSense_INT.c ****             if (CapSense_FREQ_CHANNEL_2 == CapSense_scanFreqIndex)
 365:Generated_Source\PSoC6/CapSense_INT.c ****         #endif /* (CapSense_ENABLE == CapSense_MULTI_FREQ_SCAN_EN) */
 366:Generated_Source\PSoC6/CapSense_INT.c ****         {
 367:Generated_Source\PSoC6/CapSense_INT.c ****             CapSense_SsCSDDisconnectSnsExt((uint32)CapSense_widgetIndex, (uint32)CapSense_sensorInd
 368:Generated_Source\PSoC6/CapSense_INT.c ****         }
 369:Generated_Source\PSoC6/CapSense_INT.c **** 
 370:Generated_Source\PSoC6/CapSense_INT.c ****         #if (CapSense_ENABLE == CapSense_MULTI_FREQ_SCAN_EN)
 371:Generated_Source\PSoC6/CapSense_INT.c ****             if (CapSense_FREQ_CHANNEL_2 > CapSense_scanFreqIndex)
 372:Generated_Source\PSoC6/CapSense_INT.c ****             {
 373:Generated_Source\PSoC6/CapSense_INT.c ****                  /* Scan the next channel */
 374:Generated_Source\PSoC6/CapSense_INT.c ****                 CapSense_SsNextFrequencyScan();
 375:Generated_Source\PSoC6/CapSense_INT.c ****             }
 376:Generated_Source\PSoC6/CapSense_INT.c ****             else
 377:Generated_Source\PSoC6/CapSense_INT.c ****             {
 378:Generated_Source\PSoC6/CapSense_INT.c ****                 /* All channels are scanned. Reset the frequency scan channel */
 379:Generated_Source\PSoC6/CapSense_INT.c ****                 CapSense_scanFreqIndex = CapSense_FREQ_CHANNEL_0;
 380:Generated_Source\PSoC6/CapSense_INT.c ****                 CapSense_SsChangeClkFreq(CapSense_FREQ_CHANNEL_0);
 381:Generated_Source\PSoC6/CapSense_INT.c **** 
 382:Generated_Source\PSoC6/CapSense_INT.c ****                  /* Scan the next sensor */
 383:Generated_Source\PSoC6/CapSense_INT.c ****                 CapSense_SsCSDInitNextScan();
 384:Generated_Source\PSoC6/CapSense_INT.c ****             }
 385:Generated_Source\PSoC6/CapSense_INT.c ****         #else
 386:Generated_Source\PSoC6/CapSense_INT.c ****              /* Scan the next sensor */
 387:Generated_Source\PSoC6/CapSense_INT.c ****             CapSense_SsCSDInitNextScan();
 388:Generated_Source\PSoC6/CapSense_INT.c ****         #endif /* (CapSense_ENABLE == CapSense_MULTI_FREQ_SCAN_EN) */
 389:Generated_Source\PSoC6/CapSense_INT.c ****     #if (CapSense_ENABLE == CapSense_CSD_NOISE_METRIC_EN)
 390:Generated_Source\PSoC6/CapSense_INT.c ****         }
 391:Generated_Source\PSoC6/CapSense_INT.c ****     #endif /* (CapSense_ENABLE == CapSense_CSD_NOISE_METRIC_EN) */
 392:Generated_Source\PSoC6/CapSense_INT.c **** 
 393:Generated_Source\PSoC6/CapSense_INT.c ****     #ifdef CapSense_EXIT_CALLBACK
 394:Generated_Source\PSoC6/CapSense_INT.c ****         CapSense_ExitCallback();
 395:Generated_Source\PSoC6/CapSense_INT.c ****     #endif /* CapSense_EXIT_CALLBACK */
 396:Generated_Source\PSoC6/CapSense_INT.c **** 
 397:Generated_Source\PSoC6/CapSense_INT.c ****     (void)CY_GET_REG32(CapSense_CSD_INTR_PTR);
 398:Generated_Source\PSoC6/CapSense_INT.c **** }
 399:Generated_Source\PSoC6/CapSense_INT.c **** #endif /* (CapSense_ENABLE == CapSense_CSD_GANGED_SNS_EN) */
 400:Generated_Source\PSoC6/CapSense_INT.c **** 
 401:Generated_Source\PSoC6/CapSense_INT.c **** 
 402:Generated_Source\PSoC6/CapSense_INT.c **** #endif /* ((CapSense_ENABLE == CapSense_CSD_EN) || (CapSense_ENABLE == CapSense_CSD_CSX_EN)) */
 403:Generated_Source\PSoC6/CapSense_INT.c **** 
 404:Generated_Source\PSoC6/CapSense_INT.c **** /** \}
 405:Generated_Source\PSoC6/CapSense_INT.c ****  * \endcond */
 406:Generated_Source\PSoC6/CapSense_INT.c **** 
 407:Generated_Source\PSoC6/CapSense_INT.c **** 
 408:Generated_Source\PSoC6/CapSense_INT.c **** #if ((CapSense_ENABLE == CapSense_CSD_EN) || (CapSense_ENABLE == CapSense_CSD_CSX_EN))
 409:Generated_Source\PSoC6/CapSense_INT.c **** 
 410:Generated_Source\PSoC6/CapSense_INT.c **** /*******************************************************************************
 411:Generated_Source\PSoC6/CapSense_INT.c **** * Function Name: CapSense_SsCSDPostScan
 412:Generated_Source\PSoC6/CapSense_INT.c **** ****************************************************************************//**
 413:Generated_Source\PSoC6/CapSense_INT.c **** *
 414:Generated_Source\PSoC6/CapSense_INT.c **** * \brief
 415:Generated_Source\PSoC6/CapSense_INT.c **** *   This function reads rawdata and releases required HW resources after scan.
 416:Generated_Source\PSoC6/CapSense_INT.c **** *
 417:Generated_Source\PSoC6/CapSense_INT.c **** * \details
ARM GAS  C:\Users\ikomb\AppData\Local\Temp\ccNanTlX.s 			page 11


 418:Generated_Source\PSoC6/CapSense_INT.c **** *   This function performs following tasks after scan:
 419:Generated_Source\PSoC6/CapSense_INT.c **** *   - Reads SlotResult from Raw Counter;
 420:Generated_Source\PSoC6/CapSense_INT.c **** *   - Inits bad Conversions number;
 421:Generated_Source\PSoC6/CapSense_INT.c **** *   - Disconnects Vrefhi from AMUBUF positive input;
 422:Generated_Source\PSoC6/CapSense_INT.c **** *   - Disconnects AMUBUF output from CSDBUSB with sych PHI2+HSCMP;
 423:Generated_Source\PSoC6/CapSense_INT.c **** *   - Opens HCBV and HCBG switches.
 424:Generated_Source\PSoC6/CapSense_INT.c **** *
 425:Generated_Source\PSoC6/CapSense_INT.c **** *******************************************************************************/
 426:Generated_Source\PSoC6/CapSense_INT.c **** static void CapSense_SsCSDPostScan(void)
 427:Generated_Source\PSoC6/CapSense_INT.c **** {
 153              		.loc 1 427 0
 154              		.cfi_startproc
 155              		@ args = 0, pretend = 0, frame = 16
 156              		@ frame_needed = 1, uses_anonymous_args = 0
 157              		@ link register save eliminated.
 158 0000 80B4     		push	{r7}
 159              		.cfi_def_cfa_offset 4
 160              		.cfi_offset 7, -4
 161 0002 85B0     		sub	sp, sp, #20
 162              		.cfi_def_cfa_offset 24
 163 0004 00AF     		add	r7, sp, #0
 164              		.cfi_def_cfa_register 7
 428:Generated_Source\PSoC6/CapSense_INT.c ****     uint32 tmpRawData;
 429:Generated_Source\PSoC6/CapSense_INT.c ****     uint32 tmpMaxCount;
 430:Generated_Source\PSoC6/CapSense_INT.c ****     CapSense_RAM_WD_BASE_STRUCT const *ptrWdgt = (CapSense_RAM_WD_BASE_STRUCT *)
 431:Generated_Source\PSoC6/CapSense_INT.c ****                                         CapSense_dsFlash.wdgtArray[CapSense_widgetIndex].ptr2WdgtRa
 165              		.loc 1 431 0
 166 0006 1A4B     		ldr	r3, .L11
 167 0008 1B78     		ldrb	r3, [r3]
 168 000a DBB2     		uxtb	r3, r3
 169 000c 1946     		mov	r1, r3
 430:Generated_Source\PSoC6/CapSense_INT.c ****                                         CapSense_dsFlash.wdgtArray[CapSense_widgetIndex].ptr2WdgtRa
 170              		.loc 1 430 0
 171 000e 194A     		ldr	r2, .L11+4
 172 0010 0B46     		mov	r3, r1
 173 0012 5B00     		lsls	r3, r3, #1
 174 0014 0B44     		add	r3, r3, r1
 175 0016 1B01     		lsls	r3, r3, #4
 176 0018 1344     		add	r3, r3, r2
 177 001a 0433     		adds	r3, r3, #4
 178 001c 1B68     		ldr	r3, [r3]
 179 001e FB60     		str	r3, [r7, #12]
 432:Generated_Source\PSoC6/CapSense_INT.c **** 
 433:Generated_Source\PSoC6/CapSense_INT.c ****     /* Read SlotResult from Raw Counter */
 434:Generated_Source\PSoC6/CapSense_INT.c ****     tmpRawData = CapSense_CSD_RESULT_VAL1_REG & CapSense_CSD_RESULT_VAL1_VALUE_MSK;
 180              		.loc 1 434 0
 181 0020 154B     		ldr	r3, .L11+8
 182 0022 D3F8D030 		ldr	r3, [r3, #208]
 183 0026 9BB2     		uxth	r3, r3
 184 0028 BB60     		str	r3, [r7, #8]
 435:Generated_Source\PSoC6/CapSense_INT.c **** 
 436:Generated_Source\PSoC6/CapSense_INT.c ****     tmpMaxCount = ((1uL << ptrWdgt->resolution) - 1uL);
 185              		.loc 1 436 0
 186 002a FB68     		ldr	r3, [r7, #12]
 187 002c 1B88     		ldrh	r3, [r3]
 188 002e 1A46     		mov	r2, r3
 189 0030 0123     		movs	r3, #1
ARM GAS  C:\Users\ikomb\AppData\Local\Temp\ccNanTlX.s 			page 12


 190 0032 9340     		lsls	r3, r3, r2
 191 0034 013B     		subs	r3, r3, #1
 192 0036 7B60     		str	r3, [r7, #4]
 437:Generated_Source\PSoC6/CapSense_INT.c ****     if(tmpRawData < tmpMaxCount)
 193              		.loc 1 437 0
 194 0038 BA68     		ldr	r2, [r7, #8]
 195 003a 7B68     		ldr	r3, [r7, #4]
 196 003c 9A42     		cmp	r2, r3
 197 003e 08D2     		bcs	.L8
 438:Generated_Source\PSoC6/CapSense_INT.c ****     {
 439:Generated_Source\PSoC6/CapSense_INT.c ****         CapSense_curRamSnsPtr->raw[CapSense_scanFreqIndex] = CY_LO16(tmpRawData);
 198              		.loc 1 439 0
 199 0040 0E4B     		ldr	r3, .L11+12
 200 0042 1B68     		ldr	r3, [r3]
 201 0044 0E4A     		ldr	r2, .L11+16
 202 0046 1278     		ldrb	r2, [r2]	@ zero_extendqisi2
 203 0048 B968     		ldr	r1, [r7, #8]
 204 004a 89B2     		uxth	r1, r1
 205 004c 23F81210 		strh	r1, [r3, r2, lsl #1]	@ movhi
 440:Generated_Source\PSoC6/CapSense_INT.c ****     }
 441:Generated_Source\PSoC6/CapSense_INT.c ****     else
 442:Generated_Source\PSoC6/CapSense_INT.c ****     {
 443:Generated_Source\PSoC6/CapSense_INT.c ****         CapSense_curRamSnsPtr->raw[CapSense_scanFreqIndex] = CY_LO16(tmpMaxCount);
 444:Generated_Source\PSoC6/CapSense_INT.c ****     }
 445:Generated_Source\PSoC6/CapSense_INT.c **** 
 446:Generated_Source\PSoC6/CapSense_INT.c ****     #if (CapSense_ENABLE == CapSense_CSD_NOISE_METRIC_EN)
 447:Generated_Source\PSoC6/CapSense_INT.c ****         /* Init bad Conversions number */
 448:Generated_Source\PSoC6/CapSense_INT.c ****         CapSense_badConversionsNum = CapSense_BAD_CONVERSIONS_NUM;
 449:Generated_Source\PSoC6/CapSense_INT.c ****     #endif /* (CapSense_ENABLE == CapSense_CSD_NOISE_METRIC_EN) */
 450:Generated_Source\PSoC6/CapSense_INT.c **** 
 451:Generated_Source\PSoC6/CapSense_INT.c ****     #if (CapSense_ENABLE == CapSense_CSD_SHIELD_EN)
 452:Generated_Source\PSoC6/CapSense_INT.c ****         /* Open HCBV and HCBG switches */
 453:Generated_Source\PSoC6/CapSense_INT.c ****         CY_SET_REG32(CapSense_CSD_SW_SHIELD_SEL_PTR, CapSense_CSD_SW_SHIELD_SEL_SW_HCBV_STATIC_OPEN
 454:Generated_Source\PSoC6/CapSense_INT.c ****                                                          CapSense_CSD_SW_SHIELD_SEL_SW_HCBG_STATIC_
 455:Generated_Source\PSoC6/CapSense_INT.c ****     #endif /* (CapSense_ENABLE == CapSense_CSD_SHIELD_EN) */
 456:Generated_Source\PSoC6/CapSense_INT.c **** }
 206              		.loc 1 456 0
 207 0050 07E0     		b	.L10
 208              	.L8:
 443:Generated_Source\PSoC6/CapSense_INT.c ****     }
 209              		.loc 1 443 0
 210 0052 0A4B     		ldr	r3, .L11+12
 211 0054 1B68     		ldr	r3, [r3]
 212 0056 0A4A     		ldr	r2, .L11+16
 213 0058 1278     		ldrb	r2, [r2]	@ zero_extendqisi2
 214 005a 7968     		ldr	r1, [r7, #4]
 215 005c 89B2     		uxth	r1, r1
 216 005e 23F81210 		strh	r1, [r3, r2, lsl #1]	@ movhi
 217              	.L10:
 218              		.loc 1 456 0
 219 0062 00BF     		nop
 220 0064 1437     		adds	r7, r7, #20
 221              		.cfi_def_cfa_offset 4
 222 0066 BD46     		mov	sp, r7
 223              		.cfi_def_cfa_register 13
 224              		@ sp needed
 225 0068 5DF8047B 		ldr	r7, [sp], #4
ARM GAS  C:\Users\ikomb\AppData\Local\Temp\ccNanTlX.s 			page 13


 226              		.cfi_restore 7
 227              		.cfi_def_cfa_offset 0
 228 006c 7047     		bx	lr
 229              	.L12:
 230 006e 00BF     		.align	2
 231              	.L11:
 232 0070 00000000 		.word	CapSense_widgetIndex
 233 0074 00000000 		.word	CapSense_dsFlash
 234 0078 00003640 		.word	1077280768
 235 007c 00000000 		.word	CapSense_curRamSnsPtr
 236 0080 00000000 		.word	CapSense_scanFreqIndex
 237              		.cfi_endproc
 238              	.LFE255:
 239              		.size	CapSense_SsCSDPostScan, .-CapSense_SsCSDPostScan
 240              		.section	.text.CapSense_SsCSDInitNextScan,"ax",%progbits
 241              		.align	2
 242              		.thumb
 243              		.thumb_func
 244              		.type	CapSense_SsCSDInitNextScan, %function
 245              	CapSense_SsCSDInitNextScan:
 246              	.LFB256:
 457:Generated_Source\PSoC6/CapSense_INT.c **** 
 458:Generated_Source\PSoC6/CapSense_INT.c **** 
 459:Generated_Source\PSoC6/CapSense_INT.c **** /*******************************************************************************
 460:Generated_Source\PSoC6/CapSense_INT.c **** * Function Name: CapSense_SsCSDInitNextScan
 461:Generated_Source\PSoC6/CapSense_INT.c **** ****************************************************************************//**
 462:Generated_Source\PSoC6/CapSense_INT.c **** *
 463:Generated_Source\PSoC6/CapSense_INT.c **** * \brief
 464:Generated_Source\PSoC6/CapSense_INT.c **** *   This function initializes the next sensor scan.
 465:Generated_Source\PSoC6/CapSense_INT.c **** *
 466:Generated_Source\PSoC6/CapSense_INT.c **** * \details
 467:Generated_Source\PSoC6/CapSense_INT.c **** *   The function increments the sensor index, updates sense clock for matrix
 468:Generated_Source\PSoC6/CapSense_INT.c **** *   or touchpad widgets only, sets up Compensation IDAC, enables the sensor and
 469:Generated_Source\PSoC6/CapSense_INT.c **** *   scans it. When all the sensors are scanned it continues to set up the next widget
 470:Generated_Source\PSoC6/CapSense_INT.c **** *   until all the widgets are scanned. The CSD block is disabled when all the widgets are
 471:Generated_Source\PSoC6/CapSense_INT.c **** *   scanned.
 472:Generated_Source\PSoC6/CapSense_INT.c **** *
 473:Generated_Source\PSoC6/CapSense_INT.c **** *******************************************************************************/
 474:Generated_Source\PSoC6/CapSense_INT.c **** static void CapSense_SsCSDInitNextScan(void)
 475:Generated_Source\PSoC6/CapSense_INT.c **** {
 247              		.loc 1 475 0
 248              		.cfi_startproc
 249              		@ args = 0, pretend = 0, frame = 8
 250              		@ frame_needed = 1, uses_anonymous_args = 0
 251 0000 80B5     		push	{r7, lr}
 252              		.cfi_def_cfa_offset 8
 253              		.cfi_offset 7, -8
 254              		.cfi_offset 14, -4
 255 0002 82B0     		sub	sp, sp, #8
 256              		.cfi_def_cfa_offset 16
 257 0004 00AF     		add	r7, sp, #0
 258              		.cfi_def_cfa_register 7
 476:Generated_Source\PSoC6/CapSense_INT.c ****     /* Declare and initialize ptr to widget and sensor structures to appropriate address */
 477:Generated_Source\PSoC6/CapSense_INT.c ****     #if (((CapSense_ENABLE == CapSense_CSD_IDAC_COMP_EN) || \
 478:Generated_Source\PSoC6/CapSense_INT.c ****             (CapSense_CSD_MATRIX_WIDGET_EN || CapSense_CSD_TOUCHPAD_WIDGET_EN)) || \
 479:Generated_Source\PSoC6/CapSense_INT.c ****             (((CapSense_DISABLE == CapSense_CSD_COMMON_SNS_CLK_EN) && \
 480:Generated_Source\PSoC6/CapSense_INT.c ****             (CapSense_CSD_MATRIX_WIDGET_EN || CapSense_CSD_TOUCHPAD_WIDGET_EN))))
ARM GAS  C:\Users\ikomb\AppData\Local\Temp\ccNanTlX.s 			page 14


 481:Generated_Source\PSoC6/CapSense_INT.c ****         CapSense_RAM_WD_BASE_STRUCT *ptrWdgt = (CapSense_RAM_WD_BASE_STRUCT *)
 482:Generated_Source\PSoC6/CapSense_INT.c ****             CapSense_dsFlash.wdgtArray[CapSense_widgetIndex].ptr2WdgtRam;
 259              		.loc 1 482 0
 260 0006 374B     		ldr	r3, .L18
 261 0008 1B78     		ldrb	r3, [r3]
 262 000a DBB2     		uxtb	r3, r3
 263 000c 1946     		mov	r1, r3
 481:Generated_Source\PSoC6/CapSense_INT.c ****             CapSense_dsFlash.wdgtArray[CapSense_widgetIndex].ptr2WdgtRam;
 264              		.loc 1 481 0
 265 000e 364A     		ldr	r2, .L18+4
 266 0010 0B46     		mov	r3, r1
 267 0012 5B00     		lsls	r3, r3, #1
 268 0014 0B44     		add	r3, r3, r1
 269 0016 1B01     		lsls	r3, r3, #4
 270 0018 1344     		add	r3, r3, r2
 271 001a 0433     		adds	r3, r3, #4
 272 001c 1B68     		ldr	r3, [r3]
 273 001e 7B60     		str	r3, [r7, #4]
 483:Generated_Source\PSoC6/CapSense_INT.c ****     #endif
 484:Generated_Source\PSoC6/CapSense_INT.c **** 
 485:Generated_Source\PSoC6/CapSense_INT.c ****     /* Check if all the sensors are scanned in widget */
 486:Generated_Source\PSoC6/CapSense_INT.c ****     if (((uint8)CapSense_dsFlash.wdgtArray[(CapSense_widgetIndex)].totalNumSns - 1u) > CapSense_sen
 274              		.loc 1 486 0
 275 0020 304B     		ldr	r3, .L18
 276 0022 1B78     		ldrb	r3, [r3]
 277 0024 DBB2     		uxtb	r3, r3
 278 0026 1946     		mov	r1, r3
 279 0028 2F4A     		ldr	r2, .L18+4
 280 002a 0B46     		mov	r3, r1
 281 002c 5B00     		lsls	r3, r3, #1
 282 002e 0B44     		add	r3, r3, r1
 283 0030 1B01     		lsls	r3, r3, #4
 284 0032 1344     		add	r3, r3, r2
 285 0034 1833     		adds	r3, r3, #24
 286 0036 1B88     		ldrh	r3, [r3]
 287 0038 DBB2     		uxtb	r3, r3
 288 003a 013B     		subs	r3, r3, #1
 289 003c 2B4A     		ldr	r2, .L18+8
 290 003e 1278     		ldrb	r2, [r2]
 291 0040 D2B2     		uxtb	r2, r2
 292 0042 9342     		cmp	r3, r2
 293 0044 2ED9     		bls	.L14
 487:Generated_Source\PSoC6/CapSense_INT.c ****     {
 488:Generated_Source\PSoC6/CapSense_INT.c ****         /* Increment sensor index to configure next sensor in widget */
 489:Generated_Source\PSoC6/CapSense_INT.c ****         CapSense_sensorIndex++;
 294              		.loc 1 489 0
 295 0046 294B     		ldr	r3, .L18+8
 296 0048 1B78     		ldrb	r3, [r3]
 297 004a DBB2     		uxtb	r3, r3
 298 004c 0133     		adds	r3, r3, #1
 299 004e DAB2     		uxtb	r2, r3
 300 0050 264B     		ldr	r3, .L18+8
 301 0052 1A70     		strb	r2, [r3]
 490:Generated_Source\PSoC6/CapSense_INT.c **** 
 491:Generated_Source\PSoC6/CapSense_INT.c ****         /* Update global pointer to CapSense_RAM_SNS_STRUCT to current sensor */
 492:Generated_Source\PSoC6/CapSense_INT.c ****         CapSense_curRamSnsPtr = (CapSense_RAM_SNS_STRUCT *)
 302              		.loc 1 492 0
ARM GAS  C:\Users\ikomb\AppData\Local\Temp\ccNanTlX.s 			page 15


 303 0054 234B     		ldr	r3, .L18
 304 0056 1B78     		ldrb	r3, [r3]
 305 0058 DBB2     		uxtb	r3, r3
 306 005a 1946     		mov	r1, r3
 493:Generated_Source\PSoC6/CapSense_INT.c ****                                                   CapSense_dsFlash.wdgtArray[CapSense_widgetIndex].
 307              		.loc 1 493 0
 308 005c 224A     		ldr	r2, .L18+4
 309 005e 0B46     		mov	r3, r1
 310 0060 5B00     		lsls	r3, r3, #1
 311 0062 0B44     		add	r3, r3, r1
 312 0064 1B01     		lsls	r3, r3, #4
 313 0066 1344     		add	r3, r3, r2
 314 0068 0833     		adds	r3, r3, #8
 315 006a 1A68     		ldr	r2, [r3]
 494:Generated_Source\PSoC6/CapSense_INT.c ****                                                   + CapSense_sensorIndex;
 316              		.loc 1 494 0
 317 006c 1F4B     		ldr	r3, .L18+8
 318 006e 1B78     		ldrb	r3, [r3]
 319 0070 DBB2     		uxtb	r3, r3
 320 0072 1946     		mov	r1, r3
 321 0074 0B46     		mov	r3, r1
 322 0076 9B00     		lsls	r3, r3, #2
 323 0078 0B44     		add	r3, r3, r1
 324 007a 5B00     		lsls	r3, r3, #1
 325 007c 1344     		add	r3, r3, r2
 492:Generated_Source\PSoC6/CapSense_INT.c ****                                                   CapSense_dsFlash.wdgtArray[CapSense_widgetIndex].
 326              		.loc 1 492 0
 327 007e 1C4A     		ldr	r2, .L18+12
 328 0080 1360     		str	r3, [r2]
 495:Generated_Source\PSoC6/CapSense_INT.c **** 
 496:Generated_Source\PSoC6/CapSense_INT.c ****         /* Configure clock divider to row or column */
 497:Generated_Source\PSoC6/CapSense_INT.c ****         #if ((CapSense_DISABLE == CapSense_CSD_COMMON_SNS_CLK_EN) && \
 498:Generated_Source\PSoC6/CapSense_INT.c ****              (CapSense_CSD_MATRIX_WIDGET_EN || CapSense_CSD_TOUCHPAD_WIDGET_EN))
 499:Generated_Source\PSoC6/CapSense_INT.c ****             if ((CapSense_WD_TOUCHPAD_E == (CapSense_WD_TYPE_ENUM)CapSense_dsFlash.wdgtArray[(CapSe
 500:Generated_Source\PSoC6/CapSense_INT.c ****                 (CapSense_WD_MATRIX_BUTTON_E == (CapSense_WD_TYPE_ENUM)CapSense_dsFlash.wdgtArray[(
 501:Generated_Source\PSoC6/CapSense_INT.c ****             {
 502:Generated_Source\PSoC6/CapSense_INT.c ****                 CapSense_SsCSDConfigClock();
 503:Generated_Source\PSoC6/CapSense_INT.c **** 
 504:Generated_Source\PSoC6/CapSense_INT.c ****                 /* Set up scanning resolution */
 505:Generated_Source\PSoC6/CapSense_INT.c ****                 CapSense_SsCSDCalculateScanDuration(ptrWdgt);
 506:Generated_Source\PSoC6/CapSense_INT.c ****             }
 507:Generated_Source\PSoC6/CapSense_INT.c ****         #endif /* ((CapSense_DISABLE == CapSense_CSD_COMMON_SNS_CLK_EN) && \
 508:Generated_Source\PSoC6/CapSense_INT.c ****                    (CapSense_CSD_MATRIX_WIDGET_EN || CapSense_CSD_TOUCHPAD_WIDGET_EN))) */
 509:Generated_Source\PSoC6/CapSense_INT.c **** 
 510:Generated_Source\PSoC6/CapSense_INT.c ****         /* Setup Compensation IDAC for next sensor in widget */
 511:Generated_Source\PSoC6/CapSense_INT.c ****         #if ((CapSense_ENABLE == CapSense_CSD_IDAC_COMP_EN) || \
 512:Generated_Source\PSoC6/CapSense_INT.c ****              (CapSense_CSD_MATRIX_WIDGET_EN || CapSense_CSD_TOUCHPAD_WIDGET_EN))
 513:Generated_Source\PSoC6/CapSense_INT.c ****             CapSense_SsCSDSetUpIdacs(ptrWdgt);
 329              		.loc 1 513 0
 330 0082 7868     		ldr	r0, [r7, #4]
 331 0084 FFF7FEFF 		bl	CapSense_SsCSDSetUpIdacs
 514:Generated_Source\PSoC6/CapSense_INT.c ****         #endif /* ((CapSense_ENABLE == CapSense_CSD_IDAC_COMP_EN) || \
 515:Generated_Source\PSoC6/CapSense_INT.c ****              (CapSense_CSD_MATRIX_WIDGET_EN || CapSense_CSD_TOUCHPAD_WIDGET_EN)) */
 516:Generated_Source\PSoC6/CapSense_INT.c **** 
 517:Generated_Source\PSoC6/CapSense_INT.c ****         /* Enable sensor */
 518:Generated_Source\PSoC6/CapSense_INT.c ****         CapSense_SsCSDConnectSensorExt((uint32)CapSense_widgetIndex, (uint32)CapSense_sensorIndex);
 332              		.loc 1 518 0
ARM GAS  C:\Users\ikomb\AppData\Local\Temp\ccNanTlX.s 			page 16


 333 0088 164B     		ldr	r3, .L18
 334 008a 1B78     		ldrb	r3, [r3]
 335 008c DBB2     		uxtb	r3, r3
 336 008e 1A46     		mov	r2, r3
 337 0090 164B     		ldr	r3, .L18+8
 338 0092 1B78     		ldrb	r3, [r3]
 339 0094 DBB2     		uxtb	r3, r3
 340 0096 1946     		mov	r1, r3
 341 0098 1046     		mov	r0, r2
 342 009a FFF7FEFF 		bl	CapSense_SsCSDConnectSensorExt
 519:Generated_Source\PSoC6/CapSense_INT.c **** 
 520:Generated_Source\PSoC6/CapSense_INT.c ****         /* Proceed scanning */
 521:Generated_Source\PSoC6/CapSense_INT.c ****         CapSense_SsCSDStartSample();
 343              		.loc 1 521 0
 344 009e FFF7FEFF 		bl	CapSense_SsCSDStartSample
 522:Generated_Source\PSoC6/CapSense_INT.c ****     }
 523:Generated_Source\PSoC6/CapSense_INT.c ****     /* Call scan next widget API if requested, if not, complete the scan */
 524:Generated_Source\PSoC6/CapSense_INT.c ****     else
 525:Generated_Source\PSoC6/CapSense_INT.c ****     {
 526:Generated_Source\PSoC6/CapSense_INT.c ****         CapSense_sensorIndex = 0u;
 527:Generated_Source\PSoC6/CapSense_INT.c **** 
 528:Generated_Source\PSoC6/CapSense_INT.c ****         /* Current widget is totally scanned. Reset WIDGET BUSY flag */
 529:Generated_Source\PSoC6/CapSense_INT.c ****         CapSense_dsRam.status &= ~CapSense_WDGT_SW_STS_BUSY;
 530:Generated_Source\PSoC6/CapSense_INT.c **** 
 531:Generated_Source\PSoC6/CapSense_INT.c ****         /* Check if all the widgets have been scanned */
 532:Generated_Source\PSoC6/CapSense_INT.c ****         if (CapSense_ENABLE == CapSense_requestScanAllWidget)
 533:Generated_Source\PSoC6/CapSense_INT.c ****         {
 534:Generated_Source\PSoC6/CapSense_INT.c ****             /* Configure and begin scanning next widget */
 535:Generated_Source\PSoC6/CapSense_INT.c ****             CapSense_SsPostAllWidgetsScan();
 536:Generated_Source\PSoC6/CapSense_INT.c ****         }
 537:Generated_Source\PSoC6/CapSense_INT.c ****         else
 538:Generated_Source\PSoC6/CapSense_INT.c ****         {
 539:Generated_Source\PSoC6/CapSense_INT.c ****             #if (CapSense_ENABLE == CapSense_BLOCK_OFF_AFTER_SCAN_EN)
 540:Generated_Source\PSoC6/CapSense_INT.c ****                 /* Disable the CSD block */
 541:Generated_Source\PSoC6/CapSense_INT.c ****                 CY_SET_REG32(CapSense_CSD_CONFIG_PTR, CapSense_configCsd);
 542:Generated_Source\PSoC6/CapSense_INT.c ****             #endif /* (CapSense_ENABLE == CapSense_BLOCK_OFF_AFTER_SCAN_EN) */
 543:Generated_Source\PSoC6/CapSense_INT.c **** 
 544:Generated_Source\PSoC6/CapSense_INT.c ****             /* all the widgets are totally scanned. Reset BUSY flag */
 545:Generated_Source\PSoC6/CapSense_INT.c ****             CapSense_dsRam.status &= ~CapSense_SW_STS_BUSY;
 546:Generated_Source\PSoC6/CapSense_INT.c **** 
 547:Generated_Source\PSoC6/CapSense_INT.c ****             /* Update scan Counter */
 548:Generated_Source\PSoC6/CapSense_INT.c ****             CapSense_dsRam.scanCounter++;
 549:Generated_Source\PSoC6/CapSense_INT.c ****         }
 550:Generated_Source\PSoC6/CapSense_INT.c ****     }
 551:Generated_Source\PSoC6/CapSense_INT.c **** }
 345              		.loc 1 551 0
 346 00a2 1BE0     		b	.L17
 347              	.L14:
 526:Generated_Source\PSoC6/CapSense_INT.c **** 
 348              		.loc 1 526 0
 349 00a4 114B     		ldr	r3, .L18+8
 350 00a6 0022     		movs	r2, #0
 351 00a8 1A70     		strb	r2, [r3]
 529:Generated_Source\PSoC6/CapSense_INT.c **** 
 352              		.loc 1 529 0
 353 00aa 124B     		ldr	r3, .L18+16
 354 00ac DB68     		ldr	r3, [r3, #12]
ARM GAS  C:\Users\ikomb\AppData\Local\Temp\ccNanTlX.s 			page 17


 355 00ae 23F48033 		bic	r3, r3, #65536
 356 00b2 104A     		ldr	r2, .L18+16
 357 00b4 D360     		str	r3, [r2, #12]
 532:Generated_Source\PSoC6/CapSense_INT.c ****         {
 358              		.loc 1 532 0
 359 00b6 104B     		ldr	r3, .L18+20
 360 00b8 1B78     		ldrb	r3, [r3]	@ zero_extendqisi2
 361 00ba 012B     		cmp	r3, #1
 362 00bc 02D1     		bne	.L16
 535:Generated_Source\PSoC6/CapSense_INT.c ****         }
 363              		.loc 1 535 0
 364 00be FFF7FEFF 		bl	CapSense_SsPostAllWidgetsScan
 365              		.loc 1 551 0
 366 00c2 0BE0     		b	.L17
 367              	.L16:
 545:Generated_Source\PSoC6/CapSense_INT.c **** 
 368              		.loc 1 545 0
 369 00c4 0B4B     		ldr	r3, .L18+16
 370 00c6 DB68     		ldr	r3, [r3, #12]
 371 00c8 23F08003 		bic	r3, r3, #128
 372 00cc 094A     		ldr	r2, .L18+16
 373 00ce D360     		str	r3, [r2, #12]
 548:Generated_Source\PSoC6/CapSense_INT.c ****         }
 374              		.loc 1 548 0
 375 00d0 084B     		ldr	r3, .L18+16
 376 00d2 1B89     		ldrh	r3, [r3, #8]
 377 00d4 0133     		adds	r3, r3, #1
 378 00d6 9AB2     		uxth	r2, r3
 379 00d8 064B     		ldr	r3, .L18+16
 380 00da 1A81     		strh	r2, [r3, #8]	@ movhi
 381              	.L17:
 382              		.loc 1 551 0
 383 00dc 00BF     		nop
 384 00de 0837     		adds	r7, r7, #8
 385              		.cfi_def_cfa_offset 8
 386 00e0 BD46     		mov	sp, r7
 387              		.cfi_def_cfa_register 13
 388              		@ sp needed
 389 00e2 80BD     		pop	{r7, pc}
 390              	.L19:
 391              		.align	2
 392              	.L18:
 393 00e4 00000000 		.word	CapSense_widgetIndex
 394 00e8 00000000 		.word	CapSense_dsFlash
 395 00ec 00000000 		.word	CapSense_sensorIndex
 396 00f0 00000000 		.word	CapSense_curRamSnsPtr
 397 00f4 00000000 		.word	CapSense_dsRam
 398 00f8 00000000 		.word	CapSense_requestScanAllWidget
 399              		.cfi_endproc
 400              	.LFE256:
 401              		.size	CapSense_SsCSDInitNextScan, .-CapSense_SsCSDInitNextScan
 402              		.text
 403              	.Letext0:
 404              		.file 2 "c:\\program files (x86)\\cypress\\psoc creator\\4.4\\psoc creator\\import\\gnu\\arm\\5.4.
 405              		.file 3 "c:\\program files (x86)\\cypress\\psoc creator\\4.4\\psoc creator\\import\\gnu\\arm\\5.4.
 406              		.file 4 "Generated_Source\\PSoC6\\pdl\\devices/psoc6/ip/cyip_gpio.h"
 407              		.file 5 "Generated_Source\\PSoC6\\pdl\\devices/psoc6/ip/cyip_csd.h"
ARM GAS  C:\Users\ikomb\AppData\Local\Temp\ccNanTlX.s 			page 18


 408              		.file 6 "Generated_Source\\PSoC6\\pdl\\drivers/peripheral/syslib/cy_syslib.h"
 409              		.file 7 "Generated_Source\\PSoC6\\CapSense_Configuration.h"
 410              		.file 8 "Generated_Source\\PSoC6\\CapSense_SmartSense_LL.h"
 411              		.file 9 "Generated_Source\\PSoC6\\CapSense_Structure.h"
 412              		.file 10 "Generated_Source\\PSoC6\\pdl\\cmsis/include/core_cm4.h"
 413              		.file 11 "Generated_Source\\PSoC6\\CapSense_Sensing.h"