ARM GAS  C:\Users\ikomb\AppData\Local\Temp\cclK6Blf.s 			page 1


   1              		.syntax unified
   2              		.cpu cortex-m4
   3              		.eabi_attribute 27, 1
   4              		.fpu fpv4-sp-d16
   5              		.eabi_attribute 20, 1
   6              		.eabi_attribute 21, 1
   7              		.eabi_attribute 23, 3
   8              		.eabi_attribute 24, 1
   9              		.eabi_attribute 25, 1
  10              		.eabi_attribute 26, 1
  11              		.eabi_attribute 30, 6
  12              		.eabi_attribute 34, 1
  13              		.eabi_attribute 18, 4
  14              		.thumb
  15              		.syntax unified
  16              		.file	"CapSense_Filter.c"
  17              		.text
  18              	.Ltext0:
  19              		.cfi_sections	.debug_frame
  20              		.section	.text.CapSense_FtInitialize,"ax",%progbits
  21              		.align	2
  22              		.global	CapSense_FtInitialize
  23              		.thumb
  24              		.thumb_func
  25              		.type	CapSense_FtInitialize, %function
  26              	CapSense_FtInitialize:
  27              	.LFB125:
  28              		.file 1 "Generated_Source\\PSoC6\\CapSense_Filter.c"
   1:Generated_Source\PSoC6/CapSense_Filter.c **** /***************************************************************************//**
   2:Generated_Source\PSoC6/CapSense_Filter.c **** * \file CapSense_Filter.c
   3:Generated_Source\PSoC6/CapSense_Filter.c **** * \version 2.0
   4:Generated_Source\PSoC6/CapSense_Filter.c **** *
   5:Generated_Source\PSoC6/CapSense_Filter.c **** * \brief
   6:Generated_Source\PSoC6/CapSense_Filter.c **** *   This file contains the implementation source code to implement all
   7:Generated_Source\PSoC6/CapSense_Filter.c **** *   firmware filters.
   8:Generated_Source\PSoC6/CapSense_Filter.c **** *
   9:Generated_Source\PSoC6/CapSense_Filter.c **** * \see CapSense v2.0 Datasheet
  10:Generated_Source\PSoC6/CapSense_Filter.c **** *
  11:Generated_Source\PSoC6/CapSense_Filter.c **** *//*****************************************************************************
  12:Generated_Source\PSoC6/CapSense_Filter.c **** * Copyright (2016-2017), Cypress Semiconductor Corporation.
  13:Generated_Source\PSoC6/CapSense_Filter.c **** ********************************************************************************
  14:Generated_Source\PSoC6/CapSense_Filter.c **** * This software is owned by Cypress Semiconductor Corporation (Cypress) and is
  15:Generated_Source\PSoC6/CapSense_Filter.c **** * protected by and subject to worldwide patent protection (United States and
  16:Generated_Source\PSoC6/CapSense_Filter.c **** * foreign), United States copyright laws and international treaty provisions.
  17:Generated_Source\PSoC6/CapSense_Filter.c **** * Cypress hereby grants to licensee a personal, non-exclusive, non-transferable
  18:Generated_Source\PSoC6/CapSense_Filter.c **** * license to copy, use, modify, create derivative works of, and compile the
  19:Generated_Source\PSoC6/CapSense_Filter.c **** * Cypress Source Code and derivative works for the sole purpose of creating
  20:Generated_Source\PSoC6/CapSense_Filter.c **** * custom software in support of licensee product to be used only in conjunction
  21:Generated_Source\PSoC6/CapSense_Filter.c **** * with a Cypress integrated circuit as specified in the applicable agreement.
  22:Generated_Source\PSoC6/CapSense_Filter.c **** * Any reproduction, modification, translation, compilation, or representation of
  23:Generated_Source\PSoC6/CapSense_Filter.c **** * this software except as specified above is prohibited without the express
  24:Generated_Source\PSoC6/CapSense_Filter.c **** * written permission of Cypress.
  25:Generated_Source\PSoC6/CapSense_Filter.c **** *
  26:Generated_Source\PSoC6/CapSense_Filter.c **** * Disclaimer: CYPRESS MAKES NO WARRANTY OF ANY KIND, EXPRESS OR IMPLIED, WITH
  27:Generated_Source\PSoC6/CapSense_Filter.c **** * REGARD TO THIS MATERIAL, INCLUDING, BUT NOT LIMITED TO, THE IMPLIED
  28:Generated_Source\PSoC6/CapSense_Filter.c **** * WARRANTIES OF MERCHANTABILITY AND FITNESS FOR A PARTICULAR PURPOSE.
  29:Generated_Source\PSoC6/CapSense_Filter.c **** * Cypress reserves the right to make changes without further notice to the
ARM GAS  C:\Users\ikomb\AppData\Local\Temp\cclK6Blf.s 			page 2


  30:Generated_Source\PSoC6/CapSense_Filter.c **** * materials described herein. Cypress does not assume any liability arising out
  31:Generated_Source\PSoC6/CapSense_Filter.c **** * of the application or use of any product or circuit described herein. Cypress
  32:Generated_Source\PSoC6/CapSense_Filter.c **** * does not authorize its products for use as critical components in life-support
  33:Generated_Source\PSoC6/CapSense_Filter.c **** * systems where a malfunction or failure may reasonably be expected to result in
  34:Generated_Source\PSoC6/CapSense_Filter.c **** * significant injury to the user. The inclusion of Cypress' product in a life-
  35:Generated_Source\PSoC6/CapSense_Filter.c **** * support systems application implies that the manufacturer assumes all risk of
  36:Generated_Source\PSoC6/CapSense_Filter.c **** * such use and in doing so indemnifies Cypress against all charges. Use may be
  37:Generated_Source\PSoC6/CapSense_Filter.c **** * limited by and subject to the applicable Cypress software license agreement.
  38:Generated_Source\PSoC6/CapSense_Filter.c **** *******************************************************************************/
  39:Generated_Source\PSoC6/CapSense_Filter.c **** 
  40:Generated_Source\PSoC6/CapSense_Filter.c **** #include "stddef.h"
  41:Generated_Source\PSoC6/CapSense_Filter.c **** #include "CapSense_Filter.h"
  42:Generated_Source\PSoC6/CapSense_Filter.c **** #include "CapSense_Configuration.h"
  43:Generated_Source\PSoC6/CapSense_Filter.c **** 
  44:Generated_Source\PSoC6/CapSense_Filter.c **** #if (0 != (CapSense_CSD_AUTOTUNE & CapSense_CSD_SS_TH_EN))
  45:Generated_Source\PSoC6/CapSense_Filter.c ****     #include "CapSense_SmartSense_LL.h"
  46:Generated_Source\PSoC6/CapSense_Filter.c **** #endif /* (0 != (CapSense_CSD_AUTOTUNE & CapSense_CSD_SS_TH_EN)) */
  47:Generated_Source\PSoC6/CapSense_Filter.c **** 
  48:Generated_Source\PSoC6/CapSense_Filter.c **** #if (CapSense_ENABLE == CapSense_SELF_TEST_EN)
  49:Generated_Source\PSoC6/CapSense_Filter.c ****     #include "CapSense_SelfTest.h"
  50:Generated_Source\PSoC6/CapSense_Filter.c **** #endif
  51:Generated_Source\PSoC6/CapSense_Filter.c **** 
  52:Generated_Source\PSoC6/CapSense_Filter.c **** /*******************************************************************************
  53:Generated_Source\PSoC6/CapSense_Filter.c **** * Function Name: CapSense_FtInitialize
  54:Generated_Source\PSoC6/CapSense_Filter.c **** ****************************************************************************//**
  55:Generated_Source\PSoC6/CapSense_Filter.c **** *
  56:Generated_Source\PSoC6/CapSense_Filter.c **** * \brief
  57:Generated_Source\PSoC6/CapSense_Filter.c **** *    Initializes all the firmware filter history, except the baseline filter.
  58:Generated_Source\PSoC6/CapSense_Filter.c **** *
  59:Generated_Source\PSoC6/CapSense_Filter.c **** * \details
  60:Generated_Source\PSoC6/CapSense_Filter.c **** *    Initializes all the firmware filter history, except the baseline filter.
  61:Generated_Source\PSoC6/CapSense_Filter.c **** *
  62:Generated_Source\PSoC6/CapSense_Filter.c **** *******************************************************************************/
  63:Generated_Source\PSoC6/CapSense_Filter.c **** void CapSense_FtInitialize(void)
  64:Generated_Source\PSoC6/CapSense_Filter.c **** {
  29              		.loc 1 64 0
  30              		.cfi_startproc
  31              		@ args = 0, pretend = 0, frame = 0
  32              		@ frame_needed = 1, uses_anonymous_args = 0
  33 0000 80B5     		push	{r7, lr}
  34              		.cfi_def_cfa_offset 8
  35              		.cfi_offset 7, -8
  36              		.cfi_offset 14, -4
  37 0002 00AF     		add	r7, sp, #0
  38              		.cfi_def_cfa_register 7
  65:Generated_Source\PSoC6/CapSense_Filter.c ****     #if ((CapSense_ENABLE == CapSense_RC_FILTER_EN) || \
  66:Generated_Source\PSoC6/CapSense_Filter.c ****          (0u != (CapSense_CSD_AUTOTUNE & CapSense_CSD_SS_TH_EN)))
  67:Generated_Source\PSoC6/CapSense_Filter.c ****         CapSense_InitializeAllFilters();
  39              		.loc 1 67 0
  40 0004 FFF7FEFF 		bl	CapSense_InitializeAllFilters
  68:Generated_Source\PSoC6/CapSense_Filter.c ****     #endif /* ((CapSense_ENABLE == CapSense_RC_FILTER_EN) || \
  69:Generated_Source\PSoC6/CapSense_Filter.c ****                (0u != (CapSense_CSD_AUTOTUNE & CapSense_CSD_SS_TH_EN))) */
  70:Generated_Source\PSoC6/CapSense_Filter.c **** }
  41              		.loc 1 70 0
  42 0008 00BF     		nop
  43 000a 80BD     		pop	{r7, pc}
  44              		.cfi_endproc
ARM GAS  C:\Users\ikomb\AppData\Local\Temp\cclK6Blf.s 			page 3


  45              	.LFE125:
  46              		.size	CapSense_FtInitialize, .-CapSense_FtInitialize
  47              		.section	.text.CapSense_UpdateAllBaselines,"ax",%progbits
  48              		.align	2
  49              		.global	CapSense_UpdateAllBaselines
  50              		.thumb
  51              		.thumb_func
  52              		.type	CapSense_UpdateAllBaselines, %function
  53              	CapSense_UpdateAllBaselines:
  54              	.LFB126:
  71:Generated_Source\PSoC6/CapSense_Filter.c **** 
  72:Generated_Source\PSoC6/CapSense_Filter.c **** 
  73:Generated_Source\PSoC6/CapSense_Filter.c **** /*******************************************************************************
  74:Generated_Source\PSoC6/CapSense_Filter.c **** * Function Name: CapSense_UpdateAllBaselines
  75:Generated_Source\PSoC6/CapSense_Filter.c **** ****************************************************************************//**
  76:Generated_Source\PSoC6/CapSense_Filter.c **** *
  77:Generated_Source\PSoC6/CapSense_Filter.c **** * \brief
  78:Generated_Source\PSoC6/CapSense_Filter.c **** *  Updates the baseline for all the sensors in all the widgets.
  79:Generated_Source\PSoC6/CapSense_Filter.c **** *
  80:Generated_Source\PSoC6/CapSense_Filter.c **** * \details
  81:Generated_Source\PSoC6/CapSense_Filter.c **** *  Updates the baseline for all the sensors in all the widgets. Baseline updating is a
  82:Generated_Source\PSoC6/CapSense_Filter.c **** *  part of data processing performed by the process functions. So, no need to
  83:Generated_Source\PSoC6/CapSense_Filter.c **** *  call this function except a specific process flow is implemented.
  84:Generated_Source\PSoC6/CapSense_Filter.c **** *
  85:Generated_Source\PSoC6/CapSense_Filter.c **** *  This function ignores the value of the wdgtEnable register. Multiple calling
  86:Generated_Source\PSoC6/CapSense_Filter.c **** *  of this function (or any other function with a baseline updating task)
  87:Generated_Source\PSoC6/CapSense_Filter.c **** *  without scanning leads to unexpected behavior.
  88:Generated_Source\PSoC6/CapSense_Filter.c **** *
  89:Generated_Source\PSoC6/CapSense_Filter.c **** *  If the Self-test library is enabled, this function executes the baseline duplication
  90:Generated_Source\PSoC6/CapSense_Filter.c **** *  test. Refer to CapSense_CheckBaselineDuplication() for details.
  91:Generated_Source\PSoC6/CapSense_Filter.c **** *
  92:Generated_Source\PSoC6/CapSense_Filter.c **** * \return
  93:Generated_Source\PSoC6/CapSense_Filter.c **** *  Returns the status of the update baseline operation of all the widgets:
  94:Generated_Source\PSoC6/CapSense_Filter.c **** *  - CY_RET_SUCCESS - The operation is successfully completed.
  95:Generated_Source\PSoC6/CapSense_Filter.c **** *  - CY_RET_BAD_DATA - The baseline processing failed.
  96:Generated_Source\PSoC6/CapSense_Filter.c **** *
  97:Generated_Source\PSoC6/CapSense_Filter.c **** *******************************************************************************/
  98:Generated_Source\PSoC6/CapSense_Filter.c **** cy_status CapSense_UpdateAllBaselines(void)
  99:Generated_Source\PSoC6/CapSense_Filter.c **** {
  55              		.loc 1 99 0
  56              		.cfi_startproc
  57              		@ args = 0, pretend = 0, frame = 8
  58              		@ frame_needed = 1, uses_anonymous_args = 0
  59 0000 80B5     		push	{r7, lr}
  60              		.cfi_def_cfa_offset 8
  61              		.cfi_offset 7, -8
  62              		.cfi_offset 14, -4
  63 0002 82B0     		sub	sp, sp, #8
  64              		.cfi_def_cfa_offset 16
  65 0004 00AF     		add	r7, sp, #0
  66              		.cfi_def_cfa_register 7
 100:Generated_Source\PSoC6/CapSense_Filter.c ****     uint32 widgetId;
 101:Generated_Source\PSoC6/CapSense_Filter.c ****     cy_status bslnStatus = CY_RET_SUCCESS;
  67              		.loc 1 101 0
  68 0006 0023     		movs	r3, #0
  69 0008 3B60     		str	r3, [r7]
 102:Generated_Source\PSoC6/CapSense_Filter.c **** 
ARM GAS  C:\Users\ikomb\AppData\Local\Temp\cclK6Blf.s 			page 4


 103:Generated_Source\PSoC6/CapSense_Filter.c ****     for(widgetId = CapSense_TOTAL_WIDGETS; widgetId-- > 0u;)
  70              		.loc 1 103 0
  71 000a 0323     		movs	r3, #3
  72 000c 7B60     		str	r3, [r7, #4]
  73 000e 06E0     		b	.L3
  74              	.L4:
 104:Generated_Source\PSoC6/CapSense_Filter.c ****     {
 105:Generated_Source\PSoC6/CapSense_Filter.c ****         bslnStatus |= CapSense_UpdateWidgetBaseline(widgetId);
  75              		.loc 1 105 0
  76 0010 7868     		ldr	r0, [r7, #4]
  77 0012 FFF7FEFF 		bl	CapSense_UpdateWidgetBaseline
  78 0016 0246     		mov	r2, r0
  79 0018 3B68     		ldr	r3, [r7]
  80 001a 1343     		orrs	r3, r3, r2
  81 001c 3B60     		str	r3, [r7]
  82              	.L3:
 103:Generated_Source\PSoC6/CapSense_Filter.c ****     {
  83              		.loc 1 103 0 discriminator 1
  84 001e 7B68     		ldr	r3, [r7, #4]
  85 0020 5A1E     		subs	r2, r3, #1
  86 0022 7A60     		str	r2, [r7, #4]
  87 0024 002B     		cmp	r3, #0
  88 0026 F3D1     		bne	.L4
 106:Generated_Source\PSoC6/CapSense_Filter.c ****     }
 107:Generated_Source\PSoC6/CapSense_Filter.c **** 
 108:Generated_Source\PSoC6/CapSense_Filter.c ****     return(bslnStatus);
  89              		.loc 1 108 0
  90 0028 3B68     		ldr	r3, [r7]
 109:Generated_Source\PSoC6/CapSense_Filter.c **** }
  91              		.loc 1 109 0
  92 002a 1846     		mov	r0, r3
  93 002c 0837     		adds	r7, r7, #8
  94              		.cfi_def_cfa_offset 8
  95 002e BD46     		mov	sp, r7
  96              		.cfi_def_cfa_register 13
  97              		@ sp needed
  98 0030 80BD     		pop	{r7, pc}
  99              		.cfi_endproc
 100              	.LFE126:
 101              		.size	CapSense_UpdateAllBaselines, .-CapSense_UpdateAllBaselines
 102 0032 00BF     		.section	.text.CapSense_UpdateWidgetBaseline,"ax",%progbits
 103              		.align	2
 104              		.global	CapSense_UpdateWidgetBaseline
 105              		.thumb
 106              		.thumb_func
 107              		.type	CapSense_UpdateWidgetBaseline, %function
 108              	CapSense_UpdateWidgetBaseline:
 109              	.LFB127:
 110:Generated_Source\PSoC6/CapSense_Filter.c **** 
 111:Generated_Source\PSoC6/CapSense_Filter.c **** 
 112:Generated_Source\PSoC6/CapSense_Filter.c **** /*******************************************************************************
 113:Generated_Source\PSoC6/CapSense_Filter.c **** * Function Name: CapSense_UpdateWidgetBaseline
 114:Generated_Source\PSoC6/CapSense_Filter.c **** ****************************************************************************//**
 115:Generated_Source\PSoC6/CapSense_Filter.c **** *
 116:Generated_Source\PSoC6/CapSense_Filter.c **** * \brief
 117:Generated_Source\PSoC6/CapSense_Filter.c **** *  Updates the baselines for all the sensors in a widget specified by the input parameter.
 118:Generated_Source\PSoC6/CapSense_Filter.c **** *
ARM GAS  C:\Users\ikomb\AppData\Local\Temp\cclK6Blf.s 			page 5


 119:Generated_Source\PSoC6/CapSense_Filter.c **** * \details
 120:Generated_Source\PSoC6/CapSense_Filter.c **** *  This function performs exactly the same tasks as
 121:Generated_Source\PSoC6/CapSense_Filter.c **** *  CapSense_UpdateAllBaselines() but only for a specified widget.
 122:Generated_Source\PSoC6/CapSense_Filter.c **** *
 123:Generated_Source\PSoC6/CapSense_Filter.c **** *  This function ignores the value of the wdgtEnable register. Multiple calling
 124:Generated_Source\PSoC6/CapSense_Filter.c **** *  of this function (or any other function with a baseline updating task)
 125:Generated_Source\PSoC6/CapSense_Filter.c **** *  without scanning leads to unexpected behavior.
 126:Generated_Source\PSoC6/CapSense_Filter.c **** *
 127:Generated_Source\PSoC6/CapSense_Filter.c **** *  If the Self-test library is enabled, this function executes the baseline duplication
 128:Generated_Source\PSoC6/CapSense_Filter.c **** *  test. Refer to CapSense_CheckBaselineDuplication() for details.
 129:Generated_Source\PSoC6/CapSense_Filter.c **** *
 130:Generated_Source\PSoC6/CapSense_Filter.c **** * \param widgetId
 131:Generated_Source\PSoC6/CapSense_Filter.c **** *  Specifies the ID number of the widget to update the baseline of all the sensors
 132:Generated_Source\PSoC6/CapSense_Filter.c **** *  in the widget.
 133:Generated_Source\PSoC6/CapSense_Filter.c **** *  A macro for the widget ID can be found in the
 134:Generated_Source\PSoC6/CapSense_Filter.c **** *  CapSense Configuration header file defined as
 135:Generated_Source\PSoC6/CapSense_Filter.c **** *  CapSense_<WidgetName>_WDGT_ID.
 136:Generated_Source\PSoC6/CapSense_Filter.c **** *
 137:Generated_Source\PSoC6/CapSense_Filter.c **** * \return
 138:Generated_Source\PSoC6/CapSense_Filter.c **** *  Returns the status of the specified widget update baseline operation:
 139:Generated_Source\PSoC6/CapSense_Filter.c **** *  - CY_RET_SUCCESS - The operation is successfully completed.
 140:Generated_Source\PSoC6/CapSense_Filter.c **** *  - CY_RET_BAD_DATA - The baseline processing failed.
 141:Generated_Source\PSoC6/CapSense_Filter.c **** *
 142:Generated_Source\PSoC6/CapSense_Filter.c **** *******************************************************************************/
 143:Generated_Source\PSoC6/CapSense_Filter.c **** cy_status CapSense_UpdateWidgetBaseline(uint32 widgetId)
 144:Generated_Source\PSoC6/CapSense_Filter.c **** {
 110              		.loc 1 144 0
 111              		.cfi_startproc
 112              		@ args = 0, pretend = 0, frame = 24
 113              		@ frame_needed = 1, uses_anonymous_args = 0
 114 0000 80B5     		push	{r7, lr}
 115              		.cfi_def_cfa_offset 8
 116              		.cfi_offset 7, -8
 117              		.cfi_offset 14, -4
 118 0002 86B0     		sub	sp, sp, #24
 119              		.cfi_def_cfa_offset 32
 120 0004 00AF     		add	r7, sp, #0
 121              		.cfi_def_cfa_register 7
 122 0006 7860     		str	r0, [r7, #4]
 145:Generated_Source\PSoC6/CapSense_Filter.c ****     uint32 sensorId;
 146:Generated_Source\PSoC6/CapSense_Filter.c ****     uint32 sensorsNumber;
 147:Generated_Source\PSoC6/CapSense_Filter.c **** 
 148:Generated_Source\PSoC6/CapSense_Filter.c ****     CapSense_FLASH_WD_STRUCT const *ptrWidget = &CapSense_dsFlash.wdgtArray[widgetId];
 123              		.loc 1 148 0
 124 0008 7A68     		ldr	r2, [r7, #4]
 125 000a 1346     		mov	r3, r2
 126 000c 5B00     		lsls	r3, r3, #1
 127 000e 1344     		add	r3, r3, r2
 128 0010 1B01     		lsls	r3, r3, #4
 129 0012 0E4A     		ldr	r2, .L10
 130 0014 1344     		add	r3, r3, r2
 131 0016 FB60     		str	r3, [r7, #12]
 149:Generated_Source\PSoC6/CapSense_Filter.c ****     cy_status bslnStatus = CY_RET_SUCCESS;
 132              		.loc 1 149 0
 133 0018 0023     		movs	r3, #0
 134 001a 3B61     		str	r3, [r7, #16]
 150:Generated_Source\PSoC6/CapSense_Filter.c **** 
ARM GAS  C:\Users\ikomb\AppData\Local\Temp\cclK6Blf.s 			page 6


 151:Generated_Source\PSoC6/CapSense_Filter.c ****     /* Find total amount of sensors in specified widget */
 152:Generated_Source\PSoC6/CapSense_Filter.c ****     sensorsNumber = CapSense_GET_SNS_CNT_BY_PTR(ptrWidget);
 135              		.loc 1 152 0
 136 001c FB68     		ldr	r3, [r7, #12]
 137 001e 1B8B     		ldrh	r3, [r3, #24]
 138 0020 BB60     		str	r3, [r7, #8]
 153:Generated_Source\PSoC6/CapSense_Filter.c **** 
 154:Generated_Source\PSoC6/CapSense_Filter.c ****     for(sensorId = sensorsNumber; sensorId-- > 0u;)
 139              		.loc 1 154 0
 140 0022 BB68     		ldr	r3, [r7, #8]
 141 0024 7B61     		str	r3, [r7, #20]
 142 0026 07E0     		b	.L7
 143              	.L8:
 155:Generated_Source\PSoC6/CapSense_Filter.c ****     {
 156:Generated_Source\PSoC6/CapSense_Filter.c ****         bslnStatus |= CapSense_UpdateSensorBaseline(widgetId, sensorId);
 144              		.loc 1 156 0
 145 0028 7969     		ldr	r1, [r7, #20]
 146 002a 7868     		ldr	r0, [r7, #4]
 147 002c FFF7FEFF 		bl	CapSense_UpdateSensorBaseline
 148 0030 0246     		mov	r2, r0
 149 0032 3B69     		ldr	r3, [r7, #16]
 150 0034 1343     		orrs	r3, r3, r2
 151 0036 3B61     		str	r3, [r7, #16]
 152              	.L7:
 154:Generated_Source\PSoC6/CapSense_Filter.c ****     {
 153              		.loc 1 154 0 discriminator 1
 154 0038 7B69     		ldr	r3, [r7, #20]
 155 003a 5A1E     		subs	r2, r3, #1
 156 003c 7A61     		str	r2, [r7, #20]
 157 003e 002B     		cmp	r3, #0
 158 0040 F2D1     		bne	.L8
 157:Generated_Source\PSoC6/CapSense_Filter.c ****     }
 158:Generated_Source\PSoC6/CapSense_Filter.c **** 
 159:Generated_Source\PSoC6/CapSense_Filter.c ****     return(bslnStatus);
 159              		.loc 1 159 0
 160 0042 3B69     		ldr	r3, [r7, #16]
 160:Generated_Source\PSoC6/CapSense_Filter.c **** }
 161              		.loc 1 160 0
 162 0044 1846     		mov	r0, r3
 163 0046 1837     		adds	r7, r7, #24
 164              		.cfi_def_cfa_offset 8
 165 0048 BD46     		mov	sp, r7
 166              		.cfi_def_cfa_register 13
 167              		@ sp needed
 168 004a 80BD     		pop	{r7, pc}
 169              	.L11:
 170              		.align	2
 171              	.L10:
 172 004c 00000000 		.word	CapSense_dsFlash
 173              		.cfi_endproc
 174              	.LFE127:
 175              		.size	CapSense_UpdateWidgetBaseline, .-CapSense_UpdateWidgetBaseline
 176              		.section	.text.CapSense_UpdateSensorBaseline,"ax",%progbits
 177              		.align	2
 178              		.global	CapSense_UpdateSensorBaseline
 179              		.thumb
 180              		.thumb_func
ARM GAS  C:\Users\ikomb\AppData\Local\Temp\cclK6Blf.s 			page 7


 181              		.type	CapSense_UpdateSensorBaseline, %function
 182              	CapSense_UpdateSensorBaseline:
 183              	.LFB128:
 161:Generated_Source\PSoC6/CapSense_Filter.c **** 
 162:Generated_Source\PSoC6/CapSense_Filter.c **** 
 163:Generated_Source\PSoC6/CapSense_Filter.c **** /*******************************************************************************
 164:Generated_Source\PSoC6/CapSense_Filter.c **** * Function Name: CapSense_UpdateSensorBaseline
 165:Generated_Source\PSoC6/CapSense_Filter.c **** ****************************************************************************//**
 166:Generated_Source\PSoC6/CapSense_Filter.c **** *
 167:Generated_Source\PSoC6/CapSense_Filter.c **** * \brief
 168:Generated_Source\PSoC6/CapSense_Filter.c **** *  Updates the baseline for a sensor in a widget specified by the input parameters.
 169:Generated_Source\PSoC6/CapSense_Filter.c **** *
 170:Generated_Source\PSoC6/CapSense_Filter.c **** * \details
 171:Generated_Source\PSoC6/CapSense_Filter.c **** *  This function performs exactly the same tasks as
 172:Generated_Source\PSoC6/CapSense_Filter.c **** *  CapSense_UpdateAllBaselines() and
 173:Generated_Source\PSoC6/CapSense_Filter.c **** *  CapSense_UpdateWidgetBaseline() but only for a specified sensor.
 174:Generated_Source\PSoC6/CapSense_Filter.c **** *
 175:Generated_Source\PSoC6/CapSense_Filter.c **** *  This function ignores the value of the wdgtEnable register. Multiple calling
 176:Generated_Source\PSoC6/CapSense_Filter.c **** *  of this function (or any other function with a baseline updating task)
 177:Generated_Source\PSoC6/CapSense_Filter.c **** *  without scanning leads to unexpected behavior.
 178:Generated_Source\PSoC6/CapSense_Filter.c **** *
 179:Generated_Source\PSoC6/CapSense_Filter.c **** *  If the Self-test library is enabled, this function executes the baseline duplication
 180:Generated_Source\PSoC6/CapSense_Filter.c **** *  test. Refer to CapSense_CheckBaselineDuplication() for details.
 181:Generated_Source\PSoC6/CapSense_Filter.c **** *
 182:Generated_Source\PSoC6/CapSense_Filter.c **** * \param   widgetId
 183:Generated_Source\PSoC6/CapSense_Filter.c **** *  Specifies the ID number of the widget to update the baseline of the sensor
 184:Generated_Source\PSoC6/CapSense_Filter.c **** *  specified by the sensorId argument.
 185:Generated_Source\PSoC6/CapSense_Filter.c **** *  A macro for the widget ID can be found in the CapSense Configuration header
 186:Generated_Source\PSoC6/CapSense_Filter.c **** *  file defined as CapSense_<WidgetName>_WDGT_ID.
 187:Generated_Source\PSoC6/CapSense_Filter.c **** *
 188:Generated_Source\PSoC6/CapSense_Filter.c **** * \param   sensorId
 189:Generated_Source\PSoC6/CapSense_Filter.c **** *  Specifies the ID number of the sensor within the widget to update its baseline.
 190:Generated_Source\PSoC6/CapSense_Filter.c **** *  A macro for the sensor ID within a specified widget can be found in the
 191:Generated_Source\PSoC6/CapSense_Filter.c **** *  CapSense Configuration header file defined as
 192:Generated_Source\PSoC6/CapSense_Filter.c **** *  CapSense_<WidgetName>_SNS<SensorNumber>_ID.
 193:Generated_Source\PSoC6/CapSense_Filter.c **** *
 194:Generated_Source\PSoC6/CapSense_Filter.c **** * \return
 195:Generated_Source\PSoC6/CapSense_Filter.c **** *  Returns the status of the specified sensor update baseline operation:
 196:Generated_Source\PSoC6/CapSense_Filter.c **** *  - CY_RET_SUCCESS - The operation is successfully completed.
 197:Generated_Source\PSoC6/CapSense_Filter.c **** *  - CY_RET_BAD_DATA - The baseline processing failed.
 198:Generated_Source\PSoC6/CapSense_Filter.c **** *
 199:Generated_Source\PSoC6/CapSense_Filter.c **** *******************************************************************************/
 200:Generated_Source\PSoC6/CapSense_Filter.c **** cy_status CapSense_UpdateSensorBaseline(uint32 widgetId, uint32 sensorId)
 201:Generated_Source\PSoC6/CapSense_Filter.c **** {
 184              		.loc 1 201 0
 185              		.cfi_startproc
 186              		@ args = 0, pretend = 0, frame = 24
 187              		@ frame_needed = 1, uses_anonymous_args = 0
 188 0000 80B5     		push	{r7, lr}
 189              		.cfi_def_cfa_offset 8
 190              		.cfi_offset 7, -8
 191              		.cfi_offset 14, -4
 192 0002 86B0     		sub	sp, sp, #24
 193              		.cfi_def_cfa_offset 32
 194 0004 00AF     		add	r7, sp, #0
 195              		.cfi_def_cfa_register 7
 196 0006 7860     		str	r0, [r7, #4]
ARM GAS  C:\Users\ikomb\AppData\Local\Temp\cclK6Blf.s 			page 8


 197 0008 3960     		str	r1, [r7]
 202:Generated_Source\PSoC6/CapSense_Filter.c ****     uint32 result = CY_RET_SUCCESS;
 198              		.loc 1 202 0
 199 000a 0023     		movs	r3, #0
 200 000c 7B61     		str	r3, [r7, #20]
 203:Generated_Source\PSoC6/CapSense_Filter.c **** 
 204:Generated_Source\PSoC6/CapSense_Filter.c ****     CapSense_RAM_SNS_STRUCT *ptrSensor = NULL;
 201              		.loc 1 204 0
 202 000e 0023     		movs	r3, #0
 203 0010 3B61     		str	r3, [r7, #16]
 205:Generated_Source\PSoC6/CapSense_Filter.c ****     CapSense_FLASH_WD_STRUCT const *ptrWidget = &CapSense_dsFlash.wdgtArray[widgetId];
 204              		.loc 1 205 0
 205 0012 7A68     		ldr	r2, [r7, #4]
 206 0014 1346     		mov	r3, r2
 207 0016 5B00     		lsls	r3, r3, #1
 208 0018 1344     		add	r3, r3, r2
 209 001a 1B01     		lsls	r3, r3, #4
 210 001c 0F4A     		ldr	r2, .L14
 211 001e 1344     		add	r3, r3, r2
 212 0020 FB60     		str	r3, [r7, #12]
 206:Generated_Source\PSoC6/CapSense_Filter.c ****     CapSense_RAM_WD_BASE_STRUCT *ptrWidgetRam = (CapSense_RAM_WD_BASE_STRUCT *)ptrWidget->ptr2WdgtR
 213              		.loc 1 206 0
 214 0022 FB68     		ldr	r3, [r7, #12]
 215 0024 5B68     		ldr	r3, [r3, #4]
 216 0026 BB60     		str	r3, [r7, #8]
 207:Generated_Source\PSoC6/CapSense_Filter.c **** 
 208:Generated_Source\PSoC6/CapSense_Filter.c ****     /* Find pointer to specified sensor object */
 209:Generated_Source\PSoC6/CapSense_Filter.c ****     ptrSensor = ptrWidget->ptr2SnsRam;
 217              		.loc 1 209 0
 218 0028 FB68     		ldr	r3, [r7, #12]
 219 002a 9B68     		ldr	r3, [r3, #8]
 220 002c 3B61     		str	r3, [r7, #16]
 210:Generated_Source\PSoC6/CapSense_Filter.c ****     ptrSensor = &ptrSensor[sensorId];
 221              		.loc 1 210 0
 222 002e 3A68     		ldr	r2, [r7]
 223 0030 1346     		mov	r3, r2
 224 0032 9B00     		lsls	r3, r3, #2
 225 0034 1344     		add	r3, r3, r2
 226 0036 5B00     		lsls	r3, r3, #1
 227 0038 1A46     		mov	r2, r3
 228 003a 3B69     		ldr	r3, [r7, #16]
 229 003c 1344     		add	r3, r3, r2
 230 003e 3B61     		str	r3, [r7, #16]
 211:Generated_Source\PSoC6/CapSense_Filter.c ****     result = CapSense_FtUpdateBaseline(ptrWidgetRam, ptrSensor, (uint32)ptrWidget->wdgtType);
 231              		.loc 1 211 0
 232 0040 FB68     		ldr	r3, [r7, #12]
 233 0042 9B7E     		ldrb	r3, [r3, #26]	@ zero_extendqisi2
 234 0044 1A46     		mov	r2, r3
 235 0046 3969     		ldr	r1, [r7, #16]
 236 0048 B868     		ldr	r0, [r7, #8]
 237 004a FFF7FEFF 		bl	CapSense_FtUpdateBaseline
 238 004e 7861     		str	r0, [r7, #20]
 212:Generated_Source\PSoC6/CapSense_Filter.c **** 
 213:Generated_Source\PSoC6/CapSense_Filter.c ****     #if (CapSense_ENABLE == CapSense_TST_BSLN_DUPLICATION_EN)
 214:Generated_Source\PSoC6/CapSense_Filter.c ****         if (CY_RET_SUCCESS != result)
 215:Generated_Source\PSoC6/CapSense_Filter.c ****         {
 216:Generated_Source\PSoC6/CapSense_Filter.c ****             result = CY_RET_BAD_DATA;
ARM GAS  C:\Users\ikomb\AppData\Local\Temp\cclK6Blf.s 			page 9


 217:Generated_Source\PSoC6/CapSense_Filter.c ****             CapSense_UpdateTestResultBaselineDuplication(widgetId, sensorId);
 218:Generated_Source\PSoC6/CapSense_Filter.c ****         }
 219:Generated_Source\PSoC6/CapSense_Filter.c ****     #endif /* (CapSense_ENABLE == CapSense_TST_BSLN_DUPLICATION_EN) */
 220:Generated_Source\PSoC6/CapSense_Filter.c **** 
 221:Generated_Source\PSoC6/CapSense_Filter.c ****     return result;
 239              		.loc 1 221 0
 240 0050 7B69     		ldr	r3, [r7, #20]
 222:Generated_Source\PSoC6/CapSense_Filter.c **** }
 241              		.loc 1 222 0
 242 0052 1846     		mov	r0, r3
 243 0054 1837     		adds	r7, r7, #24
 244              		.cfi_def_cfa_offset 8
 245 0056 BD46     		mov	sp, r7
 246              		.cfi_def_cfa_register 13
 247              		@ sp needed
 248 0058 80BD     		pop	{r7, pc}
 249              	.L15:
 250 005a 00BF     		.align	2
 251              	.L14:
 252 005c 00000000 		.word	CapSense_dsFlash
 253              		.cfi_endproc
 254              	.LFE128:
 255              		.size	CapSense_UpdateSensorBaseline, .-CapSense_UpdateSensorBaseline
 256              		.section	.text.CapSense_FtUpdateBaseline,"ax",%progbits
 257              		.align	2
 258              		.global	CapSense_FtUpdateBaseline
 259              		.thumb
 260              		.thumb_func
 261              		.type	CapSense_FtUpdateBaseline, %function
 262              	CapSense_FtUpdateBaseline:
 263              	.LFB129:
 223:Generated_Source\PSoC6/CapSense_Filter.c **** 
 224:Generated_Source\PSoC6/CapSense_Filter.c **** /*******************************************************************************
 225:Generated_Source\PSoC6/CapSense_Filter.c **** * Function Name: CapSense_FtUpdateBaseline
 226:Generated_Source\PSoC6/CapSense_Filter.c **** ****************************************************************************//**
 227:Generated_Source\PSoC6/CapSense_Filter.c **** *
 228:Generated_Source\PSoC6/CapSense_Filter.c **** * \brief
 229:Generated_Source\PSoC6/CapSense_Filter.c **** *  Updates the baseline for a sensor specified by an input parameter.
 230:Generated_Source\PSoC6/CapSense_Filter.c **** *
 231:Generated_Source\PSoC6/CapSense_Filter.c **** * \details
 232:Generated_Source\PSoC6/CapSense_Filter.c **** *  Check a matching of present baseline and its inverse duplication. If they
 233:Generated_Source\PSoC6/CapSense_Filter.c **** *  match then updates the baseline for a sensor specified by an input parameter.
 234:Generated_Source\PSoC6/CapSense_Filter.c **** *  If don't match the function return CapSense_TST_BSLN_DUPLICATION
 235:Generated_Source\PSoC6/CapSense_Filter.c **** *  result and don't update baseline.
 236:Generated_Source\PSoC6/CapSense_Filter.c **** *
 237:Generated_Source\PSoC6/CapSense_Filter.c **** * \param    ptrWidgetRam
 238:Generated_Source\PSoC6/CapSense_Filter.c **** *  The pointer to the widget RAM structure where all the widget parameters
 239:Generated_Source\PSoC6/CapSense_Filter.c **** *  are stored.
 240:Generated_Source\PSoC6/CapSense_Filter.c **** *
 241:Generated_Source\PSoC6/CapSense_Filter.c **** * \param    ptrSensor
 242:Generated_Source\PSoC6/CapSense_Filter.c **** *  The pointer to the sensor RAM structure where all the sensor parameters
 243:Generated_Source\PSoC6/CapSense_Filter.c **** *  are stored.
 244:Generated_Source\PSoC6/CapSense_Filter.c **** *
 245:Generated_Source\PSoC6/CapSense_Filter.c **** * \param    wdType
 246:Generated_Source\PSoC6/CapSense_Filter.c **** *  Specifies the type of a widget.
 247:Generated_Source\PSoC6/CapSense_Filter.c **** *
 248:Generated_Source\PSoC6/CapSense_Filter.c **** * \return
ARM GAS  C:\Users\ikomb\AppData\Local\Temp\cclK6Blf.s 			page 10


 249:Generated_Source\PSoC6/CapSense_Filter.c **** *  Returns a status indicating whether the baseline has been updated:
 250:Generated_Source\PSoC6/CapSense_Filter.c **** *  - CY_RET_SUCCESS if baseline updating was successful;
 251:Generated_Source\PSoC6/CapSense_Filter.c **** *  - CapSense_PROCESS_BASELINE_FAILED if present sensor's any channel
 252:Generated_Source\PSoC6/CapSense_Filter.c **** *    baseline and its inversion doesn't matched
 253:Generated_Source\PSoC6/CapSense_Filter.c **** *
 254:Generated_Source\PSoC6/CapSense_Filter.c **** *******************************************************************************/
 255:Generated_Source\PSoC6/CapSense_Filter.c **** uint32 CapSense_FtUpdateBaseline(
 256:Generated_Source\PSoC6/CapSense_Filter.c ****                                 CapSense_RAM_WD_BASE_STRUCT *ptrWidgetRam,
 257:Generated_Source\PSoC6/CapSense_Filter.c ****                                 CapSense_RAM_SNS_STRUCT *ptrSensor,
 258:Generated_Source\PSoC6/CapSense_Filter.c ****                                 uint32 wdType)
 259:Generated_Source\PSoC6/CapSense_Filter.c **** {
 264              		.loc 1 259 0
 265              		.cfi_startproc
 266              		@ args = 0, pretend = 0, frame = 40
 267              		@ frame_needed = 1, uses_anonymous_args = 0
 268 0000 80B5     		push	{r7, lr}
 269              		.cfi_def_cfa_offset 8
 270              		.cfi_offset 7, -8
 271              		.cfi_offset 14, -4
 272 0002 8AB0     		sub	sp, sp, #40
 273              		.cfi_def_cfa_offset 48
 274 0004 00AF     		add	r7, sp, #0
 275              		.cfi_def_cfa_register 7
 276 0006 F860     		str	r0, [r7, #12]
 277 0008 B960     		str	r1, [r7, #8]
 278 000a 7A60     		str	r2, [r7, #4]
 260:Generated_Source\PSoC6/CapSense_Filter.c ****     uint32 sign;
 261:Generated_Source\PSoC6/CapSense_Filter.c ****     uint32 difference;
 262:Generated_Source\PSoC6/CapSense_Filter.c ****     uint32 freqChannel;
 263:Generated_Source\PSoC6/CapSense_Filter.c ****     uint32 baselineCoeff;
 264:Generated_Source\PSoC6/CapSense_Filter.c ****     uint32 result = CY_RET_SUCCESS;
 279              		.loc 1 264 0
 280 000c 0023     		movs	r3, #0
 281 000e BB61     		str	r3, [r7, #24]
 265:Generated_Source\PSoC6/CapSense_Filter.c **** 
 266:Generated_Source\PSoC6/CapSense_Filter.c ****     #if (CapSense_TOTAL_WIDGETS)
 267:Generated_Source\PSoC6/CapSense_Filter.c ****         uint32 history;
 268:Generated_Source\PSoC6/CapSense_Filter.c ****     #endif /* (CapSense_TOTAL_WIDGETS) */
 269:Generated_Source\PSoC6/CapSense_Filter.c **** 
 270:Generated_Source\PSoC6/CapSense_Filter.c ****     /* Apply baseline to every channel in sensor */
 271:Generated_Source\PSoC6/CapSense_Filter.c ****     for(freqChannel = CapSense_NUM_SCAN_FREQS; freqChannel-- > 0u;)
 282              		.loc 1 271 0
 283 0010 0123     		movs	r3, #1
 284 0012 FB61     		str	r3, [r7, #28]
 285 0014 85E0     		b	.L17
 286              	.L23:
 272:Generated_Source\PSoC6/CapSense_Filter.c ****     {
 273:Generated_Source\PSoC6/CapSense_Filter.c ****         #if (CapSense_ENABLE == CapSense_TST_BSLN_DUPLICATION_EN)
 274:Generated_Source\PSoC6/CapSense_Filter.c ****             if (ptrSensor->bslnInv[freqChannel] != ((uint16) ~(ptrSensor->bsln[freqChannel])))
 275:Generated_Source\PSoC6/CapSense_Filter.c ****             {
 276:Generated_Source\PSoC6/CapSense_Filter.c ****                 result = CapSense_PROCESS_BASELINE_FAILED;
 277:Generated_Source\PSoC6/CapSense_Filter.c ****             }
 278:Generated_Source\PSoC6/CapSense_Filter.c ****             else
 279:Generated_Source\PSoC6/CapSense_Filter.c ****             {
 280:Generated_Source\PSoC6/CapSense_Filter.c ****         #endif /* (CapSense_ENABLE == CapSense_TST_BSLN_DUPLICATION_EN) */
 281:Generated_Source\PSoC6/CapSense_Filter.c **** 
 282:Generated_Source\PSoC6/CapSense_Filter.c ****         /* Calculate signal value and its sign */
ARM GAS  C:\Users\ikomb\AppData\Local\Temp\cclK6Blf.s 			page 11


 283:Generated_Source\PSoC6/CapSense_Filter.c ****         if(ptrSensor->raw[freqChannel] >= ptrSensor->bsln[freqChannel])
 287              		.loc 1 283 0
 288 0016 BB68     		ldr	r3, [r7, #8]
 289 0018 FA69     		ldr	r2, [r7, #28]
 290 001a 33F81220 		ldrh	r2, [r3, r2, lsl #1]
 291 001e B968     		ldr	r1, [r7, #8]
 292 0020 FB69     		ldr	r3, [r7, #28]
 293 0022 5B00     		lsls	r3, r3, #1
 294 0024 0B44     		add	r3, r3, r1
 295 0026 5B88     		ldrh	r3, [r3, #2]
 296 0028 9A42     		cmp	r2, r3
 297 002a 14D3     		bcc	.L18
 284:Generated_Source\PSoC6/CapSense_Filter.c ****         {
 285:Generated_Source\PSoC6/CapSense_Filter.c ****             difference = (uint32)ptrSensor->raw[freqChannel] - (uint32)ptrSensor->bsln[freqChannel]
 298              		.loc 1 285 0
 299 002c BB68     		ldr	r3, [r7, #8]
 300 002e FA69     		ldr	r2, [r7, #28]
 301 0030 33F81230 		ldrh	r3, [r3, r2, lsl #1]
 302 0034 1946     		mov	r1, r3
 303 0036 BA68     		ldr	r2, [r7, #8]
 304 0038 FB69     		ldr	r3, [r7, #28]
 305 003a 5B00     		lsls	r3, r3, #1
 306 003c 1344     		add	r3, r3, r2
 307 003e 5B88     		ldrh	r3, [r3, #2]
 308 0040 CB1A     		subs	r3, r1, r3
 309 0042 3B62     		str	r3, [r7, #32]
 286:Generated_Source\PSoC6/CapSense_Filter.c ****             sign = 1u;
 310              		.loc 1 286 0
 311 0044 0123     		movs	r3, #1
 312 0046 7B62     		str	r3, [r7, #36]
 287:Generated_Source\PSoC6/CapSense_Filter.c ****             ptrSensor->negBslnRstCnt[freqChannel] = 0u;
 313              		.loc 1 287 0
 314 0048 BA68     		ldr	r2, [r7, #8]
 315 004a FB69     		ldr	r3, [r7, #28]
 316 004c 1344     		add	r3, r3, r2
 317 004e 0833     		adds	r3, r3, #8
 318 0050 0022     		movs	r2, #0
 319 0052 1A70     		strb	r2, [r3]
 320 0054 0DE0     		b	.L19
 321              	.L18:
 288:Generated_Source\PSoC6/CapSense_Filter.c ****         }
 289:Generated_Source\PSoC6/CapSense_Filter.c ****         else
 290:Generated_Source\PSoC6/CapSense_Filter.c ****         {
 291:Generated_Source\PSoC6/CapSense_Filter.c ****             difference = (uint32)ptrSensor->bsln[freqChannel] - (uint32)ptrSensor->raw[freqChannel]
 322              		.loc 1 291 0
 323 0056 BA68     		ldr	r2, [r7, #8]
 324 0058 FB69     		ldr	r3, [r7, #28]
 325 005a 5B00     		lsls	r3, r3, #1
 326 005c 1344     		add	r3, r3, r2
 327 005e 5B88     		ldrh	r3, [r3, #2]
 328 0060 1946     		mov	r1, r3
 329 0062 BB68     		ldr	r3, [r7, #8]
 330 0064 FA69     		ldr	r2, [r7, #28]
 331 0066 33F81230 		ldrh	r3, [r3, r2, lsl #1]
 332 006a CB1A     		subs	r3, r1, r3
 333 006c 3B62     		str	r3, [r7, #32]
 292:Generated_Source\PSoC6/CapSense_Filter.c ****             sign = 0u;
ARM GAS  C:\Users\ikomb\AppData\Local\Temp\cclK6Blf.s 			page 12


 334              		.loc 1 292 0
 335 006e 0023     		movs	r3, #0
 336 0070 7B62     		str	r3, [r7, #36]
 337              	.L19:
 293:Generated_Source\PSoC6/CapSense_Filter.c ****         }
 294:Generated_Source\PSoC6/CapSense_Filter.c **** 
 295:Generated_Source\PSoC6/CapSense_Filter.c ****         /* Reset baseline if condition is met */
 296:Generated_Source\PSoC6/CapSense_Filter.c ****         if((sign == 0u) && (difference > (uint32) ptrWidgetRam->nNoiseTh))
 338              		.loc 1 296 0
 339 0072 7B6A     		ldr	r3, [r7, #36]
 340 0074 002B     		cmp	r3, #0
 341 0076 22D1     		bne	.L20
 342              		.loc 1 296 0 is_stmt 0 discriminator 1
 343 0078 FB68     		ldr	r3, [r7, #12]
 344 007a 5B79     		ldrb	r3, [r3, #5]	@ zero_extendqisi2
 345 007c 1A46     		mov	r2, r3
 346 007e 3B6A     		ldr	r3, [r7, #32]
 347 0080 9A42     		cmp	r2, r3
 348 0082 1CD2     		bcs	.L20
 297:Generated_Source\PSoC6/CapSense_Filter.c ****         {
 298:Generated_Source\PSoC6/CapSense_Filter.c ****             if(ptrSensor->negBslnRstCnt[freqChannel] >= ptrWidgetRam->lowBslnRst)
 349              		.loc 1 298 0 is_stmt 1
 350 0084 BA68     		ldr	r2, [r7, #8]
 351 0086 FB69     		ldr	r3, [r7, #28]
 352 0088 1344     		add	r3, r3, r2
 353 008a 0833     		adds	r3, r3, #8
 354 008c 1A78     		ldrb	r2, [r3]	@ zero_extendqisi2
 355 008e FB68     		ldr	r3, [r7, #12]
 356 0090 1B7A     		ldrb	r3, [r3, #8]	@ zero_extendqisi2
 357 0092 9A42     		cmp	r2, r3
 358 0094 05D3     		bcc	.L21
 299:Generated_Source\PSoC6/CapSense_Filter.c ****             {
 300:Generated_Source\PSoC6/CapSense_Filter.c ****                 CapSense_FtInitializeBaselineChannel(ptrSensor, wdType, freqChannel);
 359              		.loc 1 300 0
 360 0096 FA69     		ldr	r2, [r7, #28]
 361 0098 7968     		ldr	r1, [r7, #4]
 362 009a B868     		ldr	r0, [r7, #8]
 363 009c FFF7FEFF 		bl	CapSense_FtInitializeBaselineChannel
 364 00a0 3FE0     		b	.L17
 365              	.L21:
 301:Generated_Source\PSoC6/CapSense_Filter.c ****             }
 302:Generated_Source\PSoC6/CapSense_Filter.c ****             else
 303:Generated_Source\PSoC6/CapSense_Filter.c ****             {
 304:Generated_Source\PSoC6/CapSense_Filter.c ****                 ptrSensor->negBslnRstCnt[freqChannel]++;
 366              		.loc 1 304 0
 367 00a2 BA68     		ldr	r2, [r7, #8]
 368 00a4 FB69     		ldr	r3, [r7, #28]
 369 00a6 1344     		add	r3, r3, r2
 370 00a8 0833     		adds	r3, r3, #8
 371 00aa 1B78     		ldrb	r3, [r3]	@ zero_extendqisi2
 372 00ac 0133     		adds	r3, r3, #1
 373 00ae D9B2     		uxtb	r1, r3
 374 00b0 BA68     		ldr	r2, [r7, #8]
 375 00b2 FB69     		ldr	r3, [r7, #28]
 376 00b4 1344     		add	r3, r3, r2
 377 00b6 0833     		adds	r3, r3, #8
 378 00b8 0A46     		mov	r2, r1
ARM GAS  C:\Users\ikomb\AppData\Local\Temp\cclK6Blf.s 			page 13


 379 00ba 1A70     		strb	r2, [r3]
 298:Generated_Source\PSoC6/CapSense_Filter.c ****             {
 380              		.loc 1 298 0
 381 00bc 31E0     		b	.L17
 382              	.L20:
 305:Generated_Source\PSoC6/CapSense_Filter.c ****             }
 306:Generated_Source\PSoC6/CapSense_Filter.c ****         }
 307:Generated_Source\PSoC6/CapSense_Filter.c ****         else
 308:Generated_Source\PSoC6/CapSense_Filter.c ****         {
 309:Generated_Source\PSoC6/CapSense_Filter.c ****             #if (!CapSense_SENSOR_AUTO_RESET_EN)
 310:Generated_Source\PSoC6/CapSense_Filter.c ****                 /* Update baseline only if signal is in range between noiseThreshold and negativeno
 311:Generated_Source\PSoC6/CapSense_Filter.c ****                 if ((difference <= (uint32)ptrWidgetRam->noiseTh) ||
 312:Generated_Source\PSoC6/CapSense_Filter.c ****                     ((difference < (uint32) ptrWidgetRam->nNoiseTh) && (sign == 0u)))
 313:Generated_Source\PSoC6/CapSense_Filter.c ****                 {
 314:Generated_Source\PSoC6/CapSense_Filter.c ****             #endif /* (CapSense_CSD_AUTO_RESET == CapSense_CSD_AUTO_RESET_DISABLE) */
 315:Generated_Source\PSoC6/CapSense_Filter.c **** 
 316:Generated_Source\PSoC6/CapSense_Filter.c ****             #if (CapSense_BASELINE_TYPE == CapSense_IIR_BASELINE)
 317:Generated_Source\PSoC6/CapSense_Filter.c ****                 /* Calculate baseline value */
 318:Generated_Source\PSoC6/CapSense_Filter.c ****                 if ((CapSense_WD_TYPE_ENUM)wdType != CapSense_WD_PROXIMITY_E)
 383              		.loc 1 318 0
 384 00be 7B68     		ldr	r3, [r7, #4]
 385 00c0 DBB2     		uxtb	r3, r3
 386 00c2 062B     		cmp	r3, #6
 387 00c4 2DD0     		beq	.L17
 319:Generated_Source\PSoC6/CapSense_Filter.c ****                 {
 320:Generated_Source\PSoC6/CapSense_Filter.c ****                     #if (CapSense_REGULAR_SENSOR_EN)
 321:Generated_Source\PSoC6/CapSense_Filter.c ****                         #if (CapSense_REGULAR_IIR_BL_TYPE == CapSense_IIR_FILTER_PERFORMANCE)
 322:Generated_Source\PSoC6/CapSense_Filter.c ****                             history = (uint32) ptrSensor->bsln[freqChannel] << 8u;
 388              		.loc 1 322 0
 389 00c6 BA68     		ldr	r2, [r7, #8]
 390 00c8 FB69     		ldr	r3, [r7, #28]
 391 00ca 5B00     		lsls	r3, r3, #1
 392 00cc 1344     		add	r3, r3, r2
 393 00ce 5B88     		ldrh	r3, [r3, #2]
 394 00d0 1B02     		lsls	r3, r3, #8
 395 00d2 7B61     		str	r3, [r7, #20]
 323:Generated_Source\PSoC6/CapSense_Filter.c ****                             history |= ptrSensor->bslnExt[freqChannel];
 396              		.loc 1 323 0
 397 00d4 BA68     		ldr	r2, [r7, #8]
 398 00d6 FB69     		ldr	r3, [r7, #28]
 399 00d8 1344     		add	r3, r3, r2
 400 00da 0433     		adds	r3, r3, #4
 401 00dc 1B78     		ldrb	r3, [r3]	@ zero_extendqisi2
 402 00de 1A46     		mov	r2, r3
 403 00e0 7B69     		ldr	r3, [r7, #20]
 404 00e2 1343     		orrs	r3, r3, r2
 405 00e4 7B61     		str	r3, [r7, #20]
 324:Generated_Source\PSoC6/CapSense_Filter.c ****                         #else
 325:Generated_Source\PSoC6/CapSense_Filter.c ****                             history = ptrSensor->bsln[freqChannel];
 326:Generated_Source\PSoC6/CapSense_Filter.c ****                         #endif /* (CapSense_REGULAR_IIR_BL_TYPE == CapSense_IIR_FILTER_PERFORMANCE)
 327:Generated_Source\PSoC6/CapSense_Filter.c **** 
 328:Generated_Source\PSoC6/CapSense_Filter.c ****                         #if (CapSense_ENABLE == CapSense_WD_BSLN_COEFF_EN)
 329:Generated_Source\PSoC6/CapSense_Filter.c ****                             baselineCoeff = ptrWidgetRam->bslnCoeff;
 330:Generated_Source\PSoC6/CapSense_Filter.c ****                         #else /* (CapSense_ENABLE == CapSense_WD_BSLN_COEFF_EN) */
 331:Generated_Source\PSoC6/CapSense_Filter.c ****                             baselineCoeff = CapSense_REGULAR_IIR_BL_N;
 406              		.loc 1 331 0
 407 00e6 0123     		movs	r3, #1
ARM GAS  C:\Users\ikomb\AppData\Local\Temp\cclK6Blf.s 			page 14


 408 00e8 3B61     		str	r3, [r7, #16]
 332:Generated_Source\PSoC6/CapSense_Filter.c ****                         #endif /* (CapSense_ENABLE == CapSense_WD_BSLN_COEFF_EN) */
 333:Generated_Source\PSoC6/CapSense_Filter.c **** 
 334:Generated_Source\PSoC6/CapSense_Filter.c ****                         history =  CapSense_FtIIR1stOrder(
 335:Generated_Source\PSoC6/CapSense_Filter.c ****                                         (uint32)ptrSensor->raw[freqChannel],
 409              		.loc 1 335 0
 410 00ea BB68     		ldr	r3, [r7, #8]
 411 00ec FA69     		ldr	r2, [r7, #28]
 412 00ee 33F81230 		ldrh	r3, [r3, r2, lsl #1]
 334:Generated_Source\PSoC6/CapSense_Filter.c ****                                         (uint32)ptrSensor->raw[freqChannel],
 413              		.loc 1 334 0
 414 00f2 1846     		mov	r0, r3
 415 00f4 0823     		movs	r3, #8
 416 00f6 3A69     		ldr	r2, [r7, #16]
 417 00f8 7969     		ldr	r1, [r7, #20]
 418 00fa FFF7FEFF 		bl	CapSense_FtIIR1stOrder
 419 00fe 7861     		str	r0, [r7, #20]
 336:Generated_Source\PSoC6/CapSense_Filter.c ****                                         history, baselineCoeff,
 337:Generated_Source\PSoC6/CapSense_Filter.c ****                                         CapSense_REGULAR_IIR_BL_SHIFT);
 338:Generated_Source\PSoC6/CapSense_Filter.c **** 
 339:Generated_Source\PSoC6/CapSense_Filter.c ****                         #if (CapSense_REGULAR_IIR_BL_TYPE == CapSense_IIR_FILTER_PERFORMANCE)
 340:Generated_Source\PSoC6/CapSense_Filter.c ****                                     ptrSensor->bsln[freqChannel] = CY_LO16(history >> 8u);
 420              		.loc 1 340 0
 421 0100 7B69     		ldr	r3, [r7, #20]
 422 0102 1B0A     		lsrs	r3, r3, #8
 423 0104 99B2     		uxth	r1, r3
 424 0106 BA68     		ldr	r2, [r7, #8]
 425 0108 FB69     		ldr	r3, [r7, #28]
 426 010a 5B00     		lsls	r3, r3, #1
 427 010c 1344     		add	r3, r3, r2
 428 010e 0A46     		mov	r2, r1	@ movhi
 429 0110 5A80     		strh	r2, [r3, #2]	@ movhi
 341:Generated_Source\PSoC6/CapSense_Filter.c ****                                     ptrSensor->bslnExt[freqChannel] = CY_LO8(history);
 430              		.loc 1 341 0
 431 0112 7B69     		ldr	r3, [r7, #20]
 432 0114 D9B2     		uxtb	r1, r3
 433 0116 BA68     		ldr	r2, [r7, #8]
 434 0118 FB69     		ldr	r3, [r7, #28]
 435 011a 1344     		add	r3, r3, r2
 436 011c 0433     		adds	r3, r3, #4
 437 011e 0A46     		mov	r2, r1
 438 0120 1A70     		strb	r2, [r3]
 439              	.L17:
 271:Generated_Source\PSoC6/CapSense_Filter.c ****     {
 440              		.loc 1 271 0 discriminator 1
 441 0122 FB69     		ldr	r3, [r7, #28]
 442 0124 5A1E     		subs	r2, r3, #1
 443 0126 FA61     		str	r2, [r7, #28]
 444 0128 002B     		cmp	r3, #0
 445 012a 7FF474AF 		bne	.L23
 342:Generated_Source\PSoC6/CapSense_Filter.c ****                         #else
 343:Generated_Source\PSoC6/CapSense_Filter.c ****                                     ptrSensor->bsln[freqChannel] = CY_LO16(history);
 344:Generated_Source\PSoC6/CapSense_Filter.c ****                         #endif /* (CapSense_REGULAR_IIR_BL_TYPE == CapSense_IIR_FILTER_PERFORMANCE)
 345:Generated_Source\PSoC6/CapSense_Filter.c ****                     #endif /* (CapSense_REGULAR_SENSOR_EN) */
 346:Generated_Source\PSoC6/CapSense_Filter.c ****                 }
 347:Generated_Source\PSoC6/CapSense_Filter.c ****                 else
 348:Generated_Source\PSoC6/CapSense_Filter.c ****                 {
ARM GAS  C:\Users\ikomb\AppData\Local\Temp\cclK6Blf.s 			page 15


 349:Generated_Source\PSoC6/CapSense_Filter.c ****                     #if (CapSense_PROXIMITY_SENSOR_EN)
 350:Generated_Source\PSoC6/CapSense_Filter.c ****                         #if (CapSense_PROX_IIR_BL_TYPE == CapSense_IIR_FILTER_PERFORMANCE)
 351:Generated_Source\PSoC6/CapSense_Filter.c ****                             history = (uint32) ptrSensor->bsln[freqChannel] << 8u;
 352:Generated_Source\PSoC6/CapSense_Filter.c ****                             history |= ptrSensor->bslnExt[freqChannel];
 353:Generated_Source\PSoC6/CapSense_Filter.c ****                         #else
 354:Generated_Source\PSoC6/CapSense_Filter.c ****                             history = (uint32) ptrSensor->bsln[freqChannel];
 355:Generated_Source\PSoC6/CapSense_Filter.c ****                         #endif /* (CapSense_PROX_IIR_BL_TYPE == CapSense_IIR_FILTER_PERFORMANCE) */
 356:Generated_Source\PSoC6/CapSense_Filter.c **** 
 357:Generated_Source\PSoC6/CapSense_Filter.c ****                         #if (CapSense_ENABLE == CapSense_WD_BSLN_COEFF_EN)
 358:Generated_Source\PSoC6/CapSense_Filter.c ****                             baselineCoeff = ptrWidgetRam->bslnCoeff;
 359:Generated_Source\PSoC6/CapSense_Filter.c ****                         #else /* (CapSense_ENABLE == CapSense_WD_BSLN_COEFF_EN) */
 360:Generated_Source\PSoC6/CapSense_Filter.c ****                             baselineCoeff = CapSense_PROX_IIR_BL_N;
 361:Generated_Source\PSoC6/CapSense_Filter.c ****                         #endif /* (CapSense_ENABLE == CapSense_WD_BSLN_COEFF_EN) */
 362:Generated_Source\PSoC6/CapSense_Filter.c **** 
 363:Generated_Source\PSoC6/CapSense_Filter.c ****                         history = CapSense_FtIIR1stOrder(
 364:Generated_Source\PSoC6/CapSense_Filter.c ****                                         (uint32)ptrSensor->raw[freqChannel],
 365:Generated_Source\PSoC6/CapSense_Filter.c ****                                         history, baselineCoeff,
 366:Generated_Source\PSoC6/CapSense_Filter.c ****                                         CapSense_PROX_IIR_BL_SHIFT);
 367:Generated_Source\PSoC6/CapSense_Filter.c **** 
 368:Generated_Source\PSoC6/CapSense_Filter.c ****                         #if (CapSense_PROX_IIR_BL_TYPE == CapSense_IIR_FILTER_PERFORMANCE)
 369:Generated_Source\PSoC6/CapSense_Filter.c ****                                     ptrSensor->bsln[freqChannel] = CY_LO16(history >> 8u);
 370:Generated_Source\PSoC6/CapSense_Filter.c ****                                     ptrSensor->bslnExt[freqChannel] = CY_LO8(history);
 371:Generated_Source\PSoC6/CapSense_Filter.c ****                         #else
 372:Generated_Source\PSoC6/CapSense_Filter.c ****                                     ptrSensor->bsln[freqChannel] = CY_LO16(history);
 373:Generated_Source\PSoC6/CapSense_Filter.c ****                         #endif /* (CapSense_PROX_IIR_BL_TYPE == CapSense_IIR_FILTER_PERFORMANCE) */
 374:Generated_Source\PSoC6/CapSense_Filter.c ****                     #endif /* (CapSense_PROX_SENSOR_EN) */
 375:Generated_Source\PSoC6/CapSense_Filter.c ****                 }
 376:Generated_Source\PSoC6/CapSense_Filter.c ****             #else /* (CapSense_CSD_BASELINE_TYPE == CapSense_IIR_BASELINE) */
 377:Generated_Source\PSoC6/CapSense_Filter.c **** 
 378:Generated_Source\PSoC6/CapSense_Filter.c ****                 /******************************************************************
 379:Generated_Source\PSoC6/CapSense_Filter.c ****                 * This is the place where the bucket algorithm should be implemented.
 380:Generated_Source\PSoC6/CapSense_Filter.c ****                 * The bucket method will be implemented in future Component version.
 381:Generated_Source\PSoC6/CapSense_Filter.c ****                 *******************************************************************/
 382:Generated_Source\PSoC6/CapSense_Filter.c **** 
 383:Generated_Source\PSoC6/CapSense_Filter.c ****             #endif /* (CapSense_CSD_BASELINE_TYPE == CapSense_IIR_BASELINE) */
 384:Generated_Source\PSoC6/CapSense_Filter.c **** 
 385:Generated_Source\PSoC6/CapSense_Filter.c ****             #if (!CapSense_SENSOR_AUTO_RESET_EN)
 386:Generated_Source\PSoC6/CapSense_Filter.c ****                 }
 387:Generated_Source\PSoC6/CapSense_Filter.c ****             #endif /* (!CapSense_SENSOR_AUTO_RESET_EN) */
 388:Generated_Source\PSoC6/CapSense_Filter.c ****         }
 389:Generated_Source\PSoC6/CapSense_Filter.c **** 
 390:Generated_Source\PSoC6/CapSense_Filter.c ****         #if (CapSense_ENABLE == CapSense_TST_BSLN_DUPLICATION_EN)
 391:Generated_Source\PSoC6/CapSense_Filter.c ****             /* Update baseline inversion of every channel in sensor */
 392:Generated_Source\PSoC6/CapSense_Filter.c ****             ptrSensor->bslnInv[freqChannel] = ~(ptrSensor->bsln[freqChannel]);
 393:Generated_Source\PSoC6/CapSense_Filter.c ****             }
 394:Generated_Source\PSoC6/CapSense_Filter.c ****         #endif /* (CapSense_ENABLE == CapSense_TST_BSLN_DUPLICATION_EN) */
 395:Generated_Source\PSoC6/CapSense_Filter.c **** 
 396:Generated_Source\PSoC6/CapSense_Filter.c ****     }
 397:Generated_Source\PSoC6/CapSense_Filter.c ****     return result;
 446              		.loc 1 397 0
 447 012e BB69     		ldr	r3, [r7, #24]
 398:Generated_Source\PSoC6/CapSense_Filter.c **** }
 448              		.loc 1 398 0
 449 0130 1846     		mov	r0, r3
 450 0132 2837     		adds	r7, r7, #40
 451              		.cfi_def_cfa_offset 8
 452 0134 BD46     		mov	sp, r7
ARM GAS  C:\Users\ikomb\AppData\Local\Temp\cclK6Blf.s 			page 16


 453              		.cfi_def_cfa_register 13
 454              		@ sp needed
 455 0136 80BD     		pop	{r7, pc}
 456              		.cfi_endproc
 457              	.LFE129:
 458              		.size	CapSense_FtUpdateBaseline, .-CapSense_FtUpdateBaseline
 459              		.section	.text.CapSense_InitializeAllBaselines,"ax",%progbits
 460              		.align	2
 461              		.global	CapSense_InitializeAllBaselines
 462              		.thumb
 463              		.thumb_func
 464              		.type	CapSense_InitializeAllBaselines, %function
 465              	CapSense_InitializeAllBaselines:
 466              	.LFB130:
 399:Generated_Source\PSoC6/CapSense_Filter.c **** 
 400:Generated_Source\PSoC6/CapSense_Filter.c **** 
 401:Generated_Source\PSoC6/CapSense_Filter.c **** /*******************************************************************************
 402:Generated_Source\PSoC6/CapSense_Filter.c **** * Function Name: CapSense_InitializeAllBaselines
 403:Generated_Source\PSoC6/CapSense_Filter.c **** ****************************************************************************//**
 404:Generated_Source\PSoC6/CapSense_Filter.c **** *
 405:Generated_Source\PSoC6/CapSense_Filter.c **** * \brief
 406:Generated_Source\PSoC6/CapSense_Filter.c **** *  Initializes (or re-initializes) the baselines of all the sensors of all the widgets.
 407:Generated_Source\PSoC6/CapSense_Filter.c **** *
 408:Generated_Source\PSoC6/CapSense_Filter.c **** * \details
 409:Generated_Source\PSoC6/CapSense_Filter.c **** *  Initializes the baseline for all the sensors of all the widgets. Also, this function
 410:Generated_Source\PSoC6/CapSense_Filter.c **** *  can be used to re-initialize baselines. CapSense_Start() calls this
 411:Generated_Source\PSoC6/CapSense_Filter.c **** *  API as part of CapSense operation initialization.
 412:Generated_Source\PSoC6/CapSense_Filter.c **** *  
 413:Generated_Source\PSoC6/CapSense_Filter.c **** *  If any raw count filter is enabled, make sure the raw count filter history is 
 414:Generated_Source\PSoC6/CapSense_Filter.c **** *  initialized as well using one of these functions:
 415:Generated_Source\PSoC6/CapSense_Filter.c **** *  - CapSense_InitializeAllFilters().
 416:Generated_Source\PSoC6/CapSense_Filter.c **** *  - CapSense_InitializeWidgetFilter().
 417:Generated_Source\PSoC6/CapSense_Filter.c **** *
 418:Generated_Source\PSoC6/CapSense_Filter.c **** *******************************************************************************/
 419:Generated_Source\PSoC6/CapSense_Filter.c **** void CapSense_InitializeAllBaselines(void)
 420:Generated_Source\PSoC6/CapSense_Filter.c **** {
 467              		.loc 1 420 0
 468              		.cfi_startproc
 469              		@ args = 0, pretend = 0, frame = 8
 470              		@ frame_needed = 1, uses_anonymous_args = 0
 471 0000 80B5     		push	{r7, lr}
 472              		.cfi_def_cfa_offset 8
 473              		.cfi_offset 7, -8
 474              		.cfi_offset 14, -4
 475 0002 82B0     		sub	sp, sp, #8
 476              		.cfi_def_cfa_offset 16
 477 0004 00AF     		add	r7, sp, #0
 478              		.cfi_def_cfa_register 7
 421:Generated_Source\PSoC6/CapSense_Filter.c ****     uint32 widgetId;
 422:Generated_Source\PSoC6/CapSense_Filter.c **** 
 423:Generated_Source\PSoC6/CapSense_Filter.c ****     for(widgetId = CapSense_TOTAL_WIDGETS; widgetId-- > 0u;)
 479              		.loc 1 423 0
 480 0006 0323     		movs	r3, #3
 481 0008 7B60     		str	r3, [r7, #4]
 482 000a 02E0     		b	.L26
 483              	.L27:
 424:Generated_Source\PSoC6/CapSense_Filter.c ****     {
ARM GAS  C:\Users\ikomb\AppData\Local\Temp\cclK6Blf.s 			page 17


 425:Generated_Source\PSoC6/CapSense_Filter.c ****         CapSense_InitializeWidgetBaseline(widgetId);
 484              		.loc 1 425 0
 485 000c 7868     		ldr	r0, [r7, #4]
 486 000e FFF7FEFF 		bl	CapSense_InitializeWidgetBaseline
 487              	.L26:
 423:Generated_Source\PSoC6/CapSense_Filter.c ****     {
 488              		.loc 1 423 0 discriminator 1
 489 0012 7B68     		ldr	r3, [r7, #4]
 490 0014 5A1E     		subs	r2, r3, #1
 491 0016 7A60     		str	r2, [r7, #4]
 492 0018 002B     		cmp	r3, #0
 493 001a F7D1     		bne	.L27
 426:Generated_Source\PSoC6/CapSense_Filter.c ****     }
 427:Generated_Source\PSoC6/CapSense_Filter.c **** }
 494              		.loc 1 427 0
 495 001c 00BF     		nop
 496 001e 0837     		adds	r7, r7, #8
 497              		.cfi_def_cfa_offset 8
 498 0020 BD46     		mov	sp, r7
 499              		.cfi_def_cfa_register 13
 500              		@ sp needed
 501 0022 80BD     		pop	{r7, pc}
 502              		.cfi_endproc
 503              	.LFE130:
 504              		.size	CapSense_InitializeAllBaselines, .-CapSense_InitializeAllBaselines
 505              		.section	.text.CapSense_InitializeWidgetBaseline,"ax",%progbits
 506              		.align	2
 507              		.global	CapSense_InitializeWidgetBaseline
 508              		.thumb
 509              		.thumb_func
 510              		.type	CapSense_InitializeWidgetBaseline, %function
 511              	CapSense_InitializeWidgetBaseline:
 512              	.LFB131:
 428:Generated_Source\PSoC6/CapSense_Filter.c **** 
 429:Generated_Source\PSoC6/CapSense_Filter.c **** 
 430:Generated_Source\PSoC6/CapSense_Filter.c **** /*******************************************************************************
 431:Generated_Source\PSoC6/CapSense_Filter.c **** * Function Name: CapSense_InitializeWidgetBaseline
 432:Generated_Source\PSoC6/CapSense_Filter.c **** ****************************************************************************//**
 433:Generated_Source\PSoC6/CapSense_Filter.c **** *
 434:Generated_Source\PSoC6/CapSense_Filter.c **** * \brief
 435:Generated_Source\PSoC6/CapSense_Filter.c **** *  Initializes (or re-initializes) the baselines of all the sensors in a widget
 436:Generated_Source\PSoC6/CapSense_Filter.c **** *  specified by the input parameter.
 437:Generated_Source\PSoC6/CapSense_Filter.c **** *
 438:Generated_Source\PSoC6/CapSense_Filter.c **** * \details
 439:Generated_Source\PSoC6/CapSense_Filter.c **** *  Initializes (or re-initializes) the baseline for all the sensors of the
 440:Generated_Source\PSoC6/CapSense_Filter.c **** *  specified widget.
 441:Generated_Source\PSoC6/CapSense_Filter.c **** *  
 442:Generated_Source\PSoC6/CapSense_Filter.c **** *  If any raw count filter is enabled, make sure the raw count filter history is 
 443:Generated_Source\PSoC6/CapSense_Filter.c **** *  initialized as well using one of these functions:
 444:Generated_Source\PSoC6/CapSense_Filter.c **** *  - CapSense_InitializeAllFilters().
 445:Generated_Source\PSoC6/CapSense_Filter.c **** *  - CapSense_InitializeWidgetFilter().
 446:Generated_Source\PSoC6/CapSense_Filter.c **** *
 447:Generated_Source\PSoC6/CapSense_Filter.c **** * \param  widgetId
 448:Generated_Source\PSoC6/CapSense_Filter.c **** *  Specifies the ID number of a widget to initialize the baseline of all the sensors
 449:Generated_Source\PSoC6/CapSense_Filter.c **** *  in the widget.
 450:Generated_Source\PSoC6/CapSense_Filter.c **** *  A macro for the widget ID can be found in the
 451:Generated_Source\PSoC6/CapSense_Filter.c **** *  CapSense Configuration header file defined as
ARM GAS  C:\Users\ikomb\AppData\Local\Temp\cclK6Blf.s 			page 18


 452:Generated_Source\PSoC6/CapSense_Filter.c **** *  CapSense_<WidgetName>_WDGT_ID.
 453:Generated_Source\PSoC6/CapSense_Filter.c **** *
 454:Generated_Source\PSoC6/CapSense_Filter.c **** *******************************************************************************/
 455:Generated_Source\PSoC6/CapSense_Filter.c **** void CapSense_InitializeWidgetBaseline(uint32 widgetId)
 456:Generated_Source\PSoC6/CapSense_Filter.c **** {
 513              		.loc 1 456 0
 514              		.cfi_startproc
 515              		@ args = 0, pretend = 0, frame = 24
 516              		@ frame_needed = 1, uses_anonymous_args = 0
 517 0000 80B5     		push	{r7, lr}
 518              		.cfi_def_cfa_offset 8
 519              		.cfi_offset 7, -8
 520              		.cfi_offset 14, -4
 521 0002 86B0     		sub	sp, sp, #24
 522              		.cfi_def_cfa_offset 32
 523 0004 00AF     		add	r7, sp, #0
 524              		.cfi_def_cfa_register 7
 525 0006 7860     		str	r0, [r7, #4]
 457:Generated_Source\PSoC6/CapSense_Filter.c ****     uint32 sensorId;
 458:Generated_Source\PSoC6/CapSense_Filter.c ****     uint32 sensorsNumber;
 459:Generated_Source\PSoC6/CapSense_Filter.c **** 
 460:Generated_Source\PSoC6/CapSense_Filter.c ****     CapSense_FLASH_WD_STRUCT const *ptrWidget = &CapSense_dsFlash.wdgtArray[widgetId];
 526              		.loc 1 460 0
 527 0008 7A68     		ldr	r2, [r7, #4]
 528 000a 1346     		mov	r3, r2
 529 000c 5B00     		lsls	r3, r3, #1
 530 000e 1344     		add	r3, r3, r2
 531 0010 1B01     		lsls	r3, r3, #4
 532 0012 0B4A     		ldr	r2, .L31
 533 0014 1344     		add	r3, r3, r2
 534 0016 3B61     		str	r3, [r7, #16]
 461:Generated_Source\PSoC6/CapSense_Filter.c **** 
 462:Generated_Source\PSoC6/CapSense_Filter.c ****     /* Find total amount of sensors in specified widget */
 463:Generated_Source\PSoC6/CapSense_Filter.c ****     sensorsNumber = CapSense_GET_SNS_CNT_BY_PTR(ptrWidget);
 535              		.loc 1 463 0
 536 0018 3B69     		ldr	r3, [r7, #16]
 537 001a 1B8B     		ldrh	r3, [r3, #24]
 538 001c FB60     		str	r3, [r7, #12]
 464:Generated_Source\PSoC6/CapSense_Filter.c **** 
 465:Generated_Source\PSoC6/CapSense_Filter.c ****     for(sensorId = sensorsNumber; sensorId-- > 0u;)
 539              		.loc 1 465 0
 540 001e FB68     		ldr	r3, [r7, #12]
 541 0020 7B61     		str	r3, [r7, #20]
 542 0022 03E0     		b	.L29
 543              	.L30:
 466:Generated_Source\PSoC6/CapSense_Filter.c ****     {
 467:Generated_Source\PSoC6/CapSense_Filter.c ****         CapSense_InitializeSensorBaseline(widgetId, sensorId);
 544              		.loc 1 467 0
 545 0024 7969     		ldr	r1, [r7, #20]
 546 0026 7868     		ldr	r0, [r7, #4]
 547 0028 FFF7FEFF 		bl	CapSense_InitializeSensorBaseline
 548              	.L29:
 465:Generated_Source\PSoC6/CapSense_Filter.c ****     {
 549              		.loc 1 465 0 discriminator 1
 550 002c 7B69     		ldr	r3, [r7, #20]
 551 002e 5A1E     		subs	r2, r3, #1
 552 0030 7A61     		str	r2, [r7, #20]
ARM GAS  C:\Users\ikomb\AppData\Local\Temp\cclK6Blf.s 			page 19


 553 0032 002B     		cmp	r3, #0
 554 0034 F6D1     		bne	.L30
 468:Generated_Source\PSoC6/CapSense_Filter.c ****     }
 469:Generated_Source\PSoC6/CapSense_Filter.c **** }
 555              		.loc 1 469 0
 556 0036 00BF     		nop
 557 0038 1837     		adds	r7, r7, #24
 558              		.cfi_def_cfa_offset 8
 559 003a BD46     		mov	sp, r7
 560              		.cfi_def_cfa_register 13
 561              		@ sp needed
 562 003c 80BD     		pop	{r7, pc}
 563              	.L32:
 564 003e 00BF     		.align	2
 565              	.L31:
 566 0040 00000000 		.word	CapSense_dsFlash
 567              		.cfi_endproc
 568              	.LFE131:
 569              		.size	CapSense_InitializeWidgetBaseline, .-CapSense_InitializeWidgetBaseline
 570              		.section	.text.CapSense_InitializeSensorBaseline,"ax",%progbits
 571              		.align	2
 572              		.global	CapSense_InitializeSensorBaseline
 573              		.thumb
 574              		.thumb_func
 575              		.type	CapSense_InitializeSensorBaseline, %function
 576              	CapSense_InitializeSensorBaseline:
 577              	.LFB132:
 470:Generated_Source\PSoC6/CapSense_Filter.c **** 
 471:Generated_Source\PSoC6/CapSense_Filter.c **** 
 472:Generated_Source\PSoC6/CapSense_Filter.c **** /*******************************************************************************
 473:Generated_Source\PSoC6/CapSense_Filter.c **** * Function Name: CapSense_InitializeSensorBaseline
 474:Generated_Source\PSoC6/CapSense_Filter.c **** ****************************************************************************//**
 475:Generated_Source\PSoC6/CapSense_Filter.c **** *
 476:Generated_Source\PSoC6/CapSense_Filter.c **** * \brief
 477:Generated_Source\PSoC6/CapSense_Filter.c **** *  Initializes (or re-initializes) the baseline of a sensor in a widget specified
 478:Generated_Source\PSoC6/CapSense_Filter.c **** *  by the input parameters.
 479:Generated_Source\PSoC6/CapSense_Filter.c **** *
 480:Generated_Source\PSoC6/CapSense_Filter.c **** * \details
 481:Generated_Source\PSoC6/CapSense_Filter.c **** *  Initializes (or re-initializes) the baseline for a specified sensor within
 482:Generated_Source\PSoC6/CapSense_Filter.c **** *  a specified widget.
 483:Generated_Source\PSoC6/CapSense_Filter.c **** *
 484:Generated_Source\PSoC6/CapSense_Filter.c **** * \param    widgetId
 485:Generated_Source\PSoC6/CapSense_Filter.c **** *  Specifies the ID number of a widget to initialize the baseline of the sensor
 486:Generated_Source\PSoC6/CapSense_Filter.c **** *  in the widget.
 487:Generated_Source\PSoC6/CapSense_Filter.c **** *  A macro for the widget ID can be found in the
 488:Generated_Source\PSoC6/CapSense_Filter.c **** *  CapSense Configuration header file defined as
 489:Generated_Source\PSoC6/CapSense_Filter.c **** *  CapSense_<WidgetName>_WDGT_ID.
 490:Generated_Source\PSoC6/CapSense_Filter.c **** *
 491:Generated_Source\PSoC6/CapSense_Filter.c **** * \param    sensorId
 492:Generated_Source\PSoC6/CapSense_Filter.c **** *  Specifies the ID number of the sensor within the widget to initialize its
 493:Generated_Source\PSoC6/CapSense_Filter.c **** *  baseline.
 494:Generated_Source\PSoC6/CapSense_Filter.c **** *  A macro for the sensor ID within a specified widget can be found in the
 495:Generated_Source\PSoC6/CapSense_Filter.c **** *  CapSense Configuration header file defined as
 496:Generated_Source\PSoC6/CapSense_Filter.c **** *  CapSense_<WidgetName>_SNS<SensorNumber>_ID.
 497:Generated_Source\PSoC6/CapSense_Filter.c **** *
 498:Generated_Source\PSoC6/CapSense_Filter.c **** *******************************************************************************/
 499:Generated_Source\PSoC6/CapSense_Filter.c **** void CapSense_InitializeSensorBaseline(uint32 widgetId, uint32 sensorId)
ARM GAS  C:\Users\ikomb\AppData\Local\Temp\cclK6Blf.s 			page 20


 500:Generated_Source\PSoC6/CapSense_Filter.c **** {
 578              		.loc 1 500 0
 579              		.cfi_startproc
 580              		@ args = 0, pretend = 0, frame = 16
 581              		@ frame_needed = 1, uses_anonymous_args = 0
 582 0000 80B5     		push	{r7, lr}
 583              		.cfi_def_cfa_offset 8
 584              		.cfi_offset 7, -8
 585              		.cfi_offset 14, -4
 586 0002 84B0     		sub	sp, sp, #16
 587              		.cfi_def_cfa_offset 24
 588 0004 00AF     		add	r7, sp, #0
 589              		.cfi_def_cfa_register 7
 590 0006 7860     		str	r0, [r7, #4]
 591 0008 3960     		str	r1, [r7]
 501:Generated_Source\PSoC6/CapSense_Filter.c ****     CapSense_RAM_SNS_STRUCT *ptrSensor = NULL;
 592              		.loc 1 501 0
 593 000a 0023     		movs	r3, #0
 594 000c FB60     		str	r3, [r7, #12]
 502:Generated_Source\PSoC6/CapSense_Filter.c ****     CapSense_FLASH_WD_STRUCT const *ptrWidget = NULL;
 595              		.loc 1 502 0
 596 000e 0023     		movs	r3, #0
 597 0010 BB60     		str	r3, [r7, #8]
 503:Generated_Source\PSoC6/CapSense_Filter.c ****     ptrWidget = &CapSense_dsFlash.wdgtArray[widgetId];
 598              		.loc 1 503 0
 599 0012 7A68     		ldr	r2, [r7, #4]
 600 0014 1346     		mov	r3, r2
 601 0016 5B00     		lsls	r3, r3, #1
 602 0018 1344     		add	r3, r3, r2
 603 001a 1B01     		lsls	r3, r3, #4
 604 001c 0C4A     		ldr	r2, .L34
 605 001e 1344     		add	r3, r3, r2
 606 0020 BB60     		str	r3, [r7, #8]
 504:Generated_Source\PSoC6/CapSense_Filter.c **** 
 505:Generated_Source\PSoC6/CapSense_Filter.c ****     /* Find pointer to specified sensor object */
 506:Generated_Source\PSoC6/CapSense_Filter.c ****     ptrSensor = ptrWidget->ptr2SnsRam;
 607              		.loc 1 506 0
 608 0022 BB68     		ldr	r3, [r7, #8]
 609 0024 9B68     		ldr	r3, [r3, #8]
 610 0026 FB60     		str	r3, [r7, #12]
 507:Generated_Source\PSoC6/CapSense_Filter.c ****     ptrSensor = &ptrSensor[sensorId];
 611              		.loc 1 507 0
 612 0028 3A68     		ldr	r2, [r7]
 613 002a 1346     		mov	r3, r2
 614 002c 9B00     		lsls	r3, r3, #2
 615 002e 1344     		add	r3, r3, r2
 616 0030 5B00     		lsls	r3, r3, #1
 617 0032 1A46     		mov	r2, r3
 618 0034 FB68     		ldr	r3, [r7, #12]
 619 0036 1344     		add	r3, r3, r2
 620 0038 FB60     		str	r3, [r7, #12]
 508:Generated_Source\PSoC6/CapSense_Filter.c **** 
 509:Generated_Source\PSoC6/CapSense_Filter.c ****     CapSense_FtInitializeBaseline(ptrSensor, (uint32)ptrWidget->wdgtType);
 621              		.loc 1 509 0
 622 003a BB68     		ldr	r3, [r7, #8]
 623 003c 9B7E     		ldrb	r3, [r3, #26]	@ zero_extendqisi2
 624 003e 1946     		mov	r1, r3
ARM GAS  C:\Users\ikomb\AppData\Local\Temp\cclK6Blf.s 			page 21


 625 0040 F868     		ldr	r0, [r7, #12]
 626 0042 FFF7FEFF 		bl	CapSense_FtInitializeBaseline
 510:Generated_Source\PSoC6/CapSense_Filter.c **** }
 627              		.loc 1 510 0
 628 0046 00BF     		nop
 629 0048 1037     		adds	r7, r7, #16
 630              		.cfi_def_cfa_offset 8
 631 004a BD46     		mov	sp, r7
 632              		.cfi_def_cfa_register 13
 633              		@ sp needed
 634 004c 80BD     		pop	{r7, pc}
 635              	.L35:
 636 004e 00BF     		.align	2
 637              	.L34:
 638 0050 00000000 		.word	CapSense_dsFlash
 639              		.cfi_endproc
 640              	.LFE132:
 641              		.size	CapSense_InitializeSensorBaseline, .-CapSense_InitializeSensorBaseline
 642              		.section	.text.CapSense_FtInitializeBaseline,"ax",%progbits
 643              		.align	2
 644              		.global	CapSense_FtInitializeBaseline
 645              		.thumb
 646              		.thumb_func
 647              		.type	CapSense_FtInitializeBaseline, %function
 648              	CapSense_FtInitializeBaseline:
 649              	.LFB133:
 511:Generated_Source\PSoC6/CapSense_Filter.c **** 
 512:Generated_Source\PSoC6/CapSense_Filter.c **** 
 513:Generated_Source\PSoC6/CapSense_Filter.c **** /*******************************************************************************
 514:Generated_Source\PSoC6/CapSense_Filter.c **** * Function Name: CapSense_FtInitializeBaseline
 515:Generated_Source\PSoC6/CapSense_Filter.c **** ****************************************************************************//**
 516:Generated_Source\PSoC6/CapSense_Filter.c **** *
 517:Generated_Source\PSoC6/CapSense_Filter.c **** * \brief    Initializes the baseline history for a sensor indicated by an input
 518:Generated_Source\PSoC6/CapSense_Filter.c **** *           parameter.
 519:Generated_Source\PSoC6/CapSense_Filter.c **** *
 520:Generated_Source\PSoC6/CapSense_Filter.c **** * \details  Initializes the baseline history for a sensor indicated by an input
 521:Generated_Source\PSoC6/CapSense_Filter.c **** *           parameter.
 522:Generated_Source\PSoC6/CapSense_Filter.c **** *
 523:Generated_Source\PSoC6/CapSense_Filter.c **** * \param    *ptrSensor The pointer to the sensor RAM object.
 524:Generated_Source\PSoC6/CapSense_Filter.c **** * \param    wdType     Specifies the type of a widget.
 525:Generated_Source\PSoC6/CapSense_Filter.c **** *
 526:Generated_Source\PSoC6/CapSense_Filter.c **** *******************************************************************************/
 527:Generated_Source\PSoC6/CapSense_Filter.c **** void CapSense_FtInitializeBaseline(CapSense_RAM_SNS_STRUCT *ptrSensor, uint32 wdType)
 528:Generated_Source\PSoC6/CapSense_Filter.c **** {
 650              		.loc 1 528 0
 651              		.cfi_startproc
 652              		@ args = 0, pretend = 0, frame = 16
 653              		@ frame_needed = 1, uses_anonymous_args = 0
 654 0000 80B5     		push	{r7, lr}
 655              		.cfi_def_cfa_offset 8
 656              		.cfi_offset 7, -8
 657              		.cfi_offset 14, -4
 658 0002 84B0     		sub	sp, sp, #16
 659              		.cfi_def_cfa_offset 24
 660 0004 00AF     		add	r7, sp, #0
 661              		.cfi_def_cfa_register 7
 662 0006 7860     		str	r0, [r7, #4]
ARM GAS  C:\Users\ikomb\AppData\Local\Temp\cclK6Blf.s 			page 22


 663 0008 3960     		str	r1, [r7]
 529:Generated_Source\PSoC6/CapSense_Filter.c ****     uint32 freqChannel;
 530:Generated_Source\PSoC6/CapSense_Filter.c **** 
 531:Generated_Source\PSoC6/CapSense_Filter.c ****     /* Apply baseline initialization to every channel in sensor */
 532:Generated_Source\PSoC6/CapSense_Filter.c ****     for(freqChannel = CapSense_NUM_SCAN_FREQS; freqChannel-- > 0u;)
 664              		.loc 1 532 0
 665 000a 0123     		movs	r3, #1
 666 000c FB60     		str	r3, [r7, #12]
 667 000e 04E0     		b	.L37
 668              	.L38:
 533:Generated_Source\PSoC6/CapSense_Filter.c ****     {
 534:Generated_Source\PSoC6/CapSense_Filter.c ****         CapSense_FtInitializeBaselineChannel(ptrSensor, wdType, freqChannel);
 669              		.loc 1 534 0
 670 0010 FA68     		ldr	r2, [r7, #12]
 671 0012 3968     		ldr	r1, [r7]
 672 0014 7868     		ldr	r0, [r7, #4]
 673 0016 FFF7FEFF 		bl	CapSense_FtInitializeBaselineChannel
 674              	.L37:
 532:Generated_Source\PSoC6/CapSense_Filter.c ****     {
 675              		.loc 1 532 0 discriminator 1
 676 001a FB68     		ldr	r3, [r7, #12]
 677 001c 5A1E     		subs	r2, r3, #1
 678 001e FA60     		str	r2, [r7, #12]
 679 0020 002B     		cmp	r3, #0
 680 0022 F5D1     		bne	.L38
 535:Generated_Source\PSoC6/CapSense_Filter.c ****     }
 536:Generated_Source\PSoC6/CapSense_Filter.c **** }
 681              		.loc 1 536 0
 682 0024 00BF     		nop
 683 0026 1037     		adds	r7, r7, #16
 684              		.cfi_def_cfa_offset 8
 685 0028 BD46     		mov	sp, r7
 686              		.cfi_def_cfa_register 13
 687              		@ sp needed
 688 002a 80BD     		pop	{r7, pc}
 689              		.cfi_endproc
 690              	.LFE133:
 691              		.size	CapSense_FtInitializeBaseline, .-CapSense_FtInitializeBaseline
 692              		.section	.text.CapSense_FtInitializeBaselineChannel,"ax",%progbits
 693              		.align	2
 694              		.global	CapSense_FtInitializeBaselineChannel
 695              		.thumb
 696              		.thumb_func
 697              		.type	CapSense_FtInitializeBaselineChannel, %function
 698              	CapSense_FtInitializeBaselineChannel:
 699              	.LFB134:
 537:Generated_Source\PSoC6/CapSense_Filter.c **** 
 538:Generated_Source\PSoC6/CapSense_Filter.c **** 
 539:Generated_Source\PSoC6/CapSense_Filter.c **** /*******************************************************************************
 540:Generated_Source\PSoC6/CapSense_Filter.c **** * Function Name: CapSense_FtInitializeBaselineChannel
 541:Generated_Source\PSoC6/CapSense_Filter.c **** ****************************************************************************//**
 542:Generated_Source\PSoC6/CapSense_Filter.c **** *
 543:Generated_Source\PSoC6/CapSense_Filter.c **** * \brief    Initializes the baseline history for a sensor indicated by an input
 544:Generated_Source\PSoC6/CapSense_Filter.c **** *           parameter.
 545:Generated_Source\PSoC6/CapSense_Filter.c **** *
 546:Generated_Source\PSoC6/CapSense_Filter.c **** * \details  Initializes the baseline history for a sensor indicated by an input
 547:Generated_Source\PSoC6/CapSense_Filter.c **** *           parameter.
ARM GAS  C:\Users\ikomb\AppData\Local\Temp\cclK6Blf.s 			page 23


 548:Generated_Source\PSoC6/CapSense_Filter.c **** *
 549:Generated_Source\PSoC6/CapSense_Filter.c **** * \param    *ptrSensor The pointer to the sensor RAM object.
 550:Generated_Source\PSoC6/CapSense_Filter.c **** * \param    wdType     Specifies the type of a widget.
 551:Generated_Source\PSoC6/CapSense_Filter.c **** * \param    channel    Specifies the number of the channel to be initialized.
 552:Generated_Source\PSoC6/CapSense_Filter.c **** *
 553:Generated_Source\PSoC6/CapSense_Filter.c **** *******************************************************************************/
 554:Generated_Source\PSoC6/CapSense_Filter.c **** void CapSense_FtInitializeBaselineChannel(CapSense_RAM_SNS_STRUCT *ptrSensor, uint32 wdType, uint32
 555:Generated_Source\PSoC6/CapSense_Filter.c **** {
 700              		.loc 1 555 0
 701              		.cfi_startproc
 702              		@ args = 0, pretend = 0, frame = 16
 703              		@ frame_needed = 1, uses_anonymous_args = 0
 704              		@ link register save eliminated.
 705 0000 80B4     		push	{r7}
 706              		.cfi_def_cfa_offset 4
 707              		.cfi_offset 7, -4
 708 0002 85B0     		sub	sp, sp, #20
 709              		.cfi_def_cfa_offset 24
 710 0004 00AF     		add	r7, sp, #0
 711              		.cfi_def_cfa_register 7
 712 0006 F860     		str	r0, [r7, #12]
 713 0008 B960     		str	r1, [r7, #8]
 714 000a 7A60     		str	r2, [r7, #4]
 556:Generated_Source\PSoC6/CapSense_Filter.c ****     #if (CapSense_BASELINE_TYPE == CapSense_IIR_BASELINE)
 557:Generated_Source\PSoC6/CapSense_Filter.c ****         if ((CapSense_WD_TYPE_ENUM)wdType != CapSense_WD_PROXIMITY_E)
 715              		.loc 1 557 0
 716 000c BB68     		ldr	r3, [r7, #8]
 717 000e DBB2     		uxtb	r3, r3
 718 0010 062B     		cmp	r3, #6
 719 0012 05D0     		beq	.L40
 558:Generated_Source\PSoC6/CapSense_Filter.c ****         {
 559:Generated_Source\PSoC6/CapSense_Filter.c ****             #if (CapSense_REGULAR_SENSOR_EN)
 560:Generated_Source\PSoC6/CapSense_Filter.c ****                 #if (CapSense_REGULAR_IIR_BL_TYPE == CapSense_IIR_FILTER_PERFORMANCE)
 561:Generated_Source\PSoC6/CapSense_Filter.c ****                     ptrSensor->bslnExt[channel] = 0u;
 720              		.loc 1 561 0
 721 0014 FA68     		ldr	r2, [r7, #12]
 722 0016 7B68     		ldr	r3, [r7, #4]
 723 0018 1344     		add	r3, r3, r2
 724 001a 0433     		adds	r3, r3, #4
 725 001c 0022     		movs	r2, #0
 726 001e 1A70     		strb	r2, [r3]
 727              	.L40:
 562:Generated_Source\PSoC6/CapSense_Filter.c ****                 #endif /* (CapSense_REGULAR_IIR_BL_TYPE == CapSense_IIR_FILTER_PERFORMANCE) */
 563:Generated_Source\PSoC6/CapSense_Filter.c ****             #endif /* (CapSense_REGULAR_SENSOR_EN) */
 564:Generated_Source\PSoC6/CapSense_Filter.c ****         }
 565:Generated_Source\PSoC6/CapSense_Filter.c ****         else
 566:Generated_Source\PSoC6/CapSense_Filter.c ****         {
 567:Generated_Source\PSoC6/CapSense_Filter.c ****             #if (CapSense_PROXIMITY_SENSOR_EN)
 568:Generated_Source\PSoC6/CapSense_Filter.c ****                 #if (CapSense_PROX_IIR_BL_TYPE == CapSense_IIR_FILTER_PERFORMANCE)
 569:Generated_Source\PSoC6/CapSense_Filter.c ****                     ptrSensor->bslnExt[channel] = 0u;
 570:Generated_Source\PSoC6/CapSense_Filter.c ****                 #endif /* (CapSense_PROX_IIR_BL_TYPE == CapSense_IIR_FILTER_PERFORMANCE) */
 571:Generated_Source\PSoC6/CapSense_Filter.c ****             #endif /* (CapSense_PROX_SENSOR_EN) */
 572:Generated_Source\PSoC6/CapSense_Filter.c ****         }
 573:Generated_Source\PSoC6/CapSense_Filter.c ****     #else
 574:Generated_Source\PSoC6/CapSense_Filter.c ****         /* CapSense_BASELINE_TYPE == CapSense_BUCKET_BASELINE */
 575:Generated_Source\PSoC6/CapSense_Filter.c ****         ptrSensor->bslnExt[channel] = 0u;
 576:Generated_Source\PSoC6/CapSense_Filter.c ****     #endif /* (CapSense_BASELINE_TYPE == CapSense_IIR_BASELINE) */
ARM GAS  C:\Users\ikomb\AppData\Local\Temp\cclK6Blf.s 			page 24


 577:Generated_Source\PSoC6/CapSense_Filter.c **** 
 578:Generated_Source\PSoC6/CapSense_Filter.c ****     ptrSensor->bsln[channel] = ptrSensor->raw[channel];
 728              		.loc 1 578 0
 729 0020 FB68     		ldr	r3, [r7, #12]
 730 0022 7A68     		ldr	r2, [r7, #4]
 731 0024 33F81210 		ldrh	r1, [r3, r2, lsl #1]
 732 0028 FA68     		ldr	r2, [r7, #12]
 733 002a 7B68     		ldr	r3, [r7, #4]
 734 002c 5B00     		lsls	r3, r3, #1
 735 002e 1344     		add	r3, r3, r2
 736 0030 0A46     		mov	r2, r1	@ movhi
 737 0032 5A80     		strh	r2, [r3, #2]	@ movhi
 579:Generated_Source\PSoC6/CapSense_Filter.c **** 
 580:Generated_Source\PSoC6/CapSense_Filter.c ****     #if (CapSense_ENABLE == CapSense_TST_BSLN_DUPLICATION_EN)
 581:Generated_Source\PSoC6/CapSense_Filter.c ****     /* Update baseline inversion of the channel in sensor */
 582:Generated_Source\PSoC6/CapSense_Filter.c ****         ptrSensor->bslnInv[channel] = ~(ptrSensor->bsln[channel]);
 583:Generated_Source\PSoC6/CapSense_Filter.c ****     #endif /* (CapSense_ENABLE == CapSense_TST_BSLN_DUPLICATION_EN) */
 584:Generated_Source\PSoC6/CapSense_Filter.c **** 
 585:Generated_Source\PSoC6/CapSense_Filter.c ****     ptrSensor->negBslnRstCnt[channel] = 0u;
 738              		.loc 1 585 0
 739 0034 FA68     		ldr	r2, [r7, #12]
 740 0036 7B68     		ldr	r3, [r7, #4]
 741 0038 1344     		add	r3, r3, r2
 742 003a 0833     		adds	r3, r3, #8
 743 003c 0022     		movs	r2, #0
 744 003e 1A70     		strb	r2, [r3]
 586:Generated_Source\PSoC6/CapSense_Filter.c **** }
 745              		.loc 1 586 0
 746 0040 00BF     		nop
 747 0042 1437     		adds	r7, r7, #20
 748              		.cfi_def_cfa_offset 4
 749 0044 BD46     		mov	sp, r7
 750              		.cfi_def_cfa_register 13
 751              		@ sp needed
 752 0046 5DF8047B 		ldr	r7, [sp], #4
 753              		.cfi_restore 7
 754              		.cfi_def_cfa_offset 0
 755 004a 7047     		bx	lr
 756              		.cfi_endproc
 757              	.LFE134:
 758              		.size	CapSense_FtInitializeBaselineChannel, .-CapSense_FtInitializeBaselineChannel
 759              		.section	.text.CapSense_InitializeAllFilters,"ax",%progbits
 760              		.align	2
 761              		.global	CapSense_InitializeAllFilters
 762              		.thumb
 763              		.thumb_func
 764              		.type	CapSense_InitializeAllFilters, %function
 765              	CapSense_InitializeAllFilters:
 766              	.LFB135:
 587:Generated_Source\PSoC6/CapSense_Filter.c **** 
 588:Generated_Source\PSoC6/CapSense_Filter.c **** #if ((CapSense_ENABLE == CapSense_RC_FILTER_EN) || \
 589:Generated_Source\PSoC6/CapSense_Filter.c ****      (0u != (CapSense_CSD_AUTOTUNE & CapSense_CSD_SS_TH_EN)))
 590:Generated_Source\PSoC6/CapSense_Filter.c **** /*******************************************************************************
 591:Generated_Source\PSoC6/CapSense_Filter.c **** * Function Name: CapSense_InitializeAllFilters
 592:Generated_Source\PSoC6/CapSense_Filter.c **** ****************************************************************************//**
 593:Generated_Source\PSoC6/CapSense_Filter.c **** *
 594:Generated_Source\PSoC6/CapSense_Filter.c **** * \brief
ARM GAS  C:\Users\ikomb\AppData\Local\Temp\cclK6Blf.s 			page 25


 595:Generated_Source\PSoC6/CapSense_Filter.c **** *  Initializes (or re-initializes) the raw count filter history of all the 
 596:Generated_Source\PSoC6/CapSense_Filter.c **** *  sensors of all the widgets.
 597:Generated_Source\PSoC6/CapSense_Filter.c **** *
 598:Generated_Source\PSoC6/CapSense_Filter.c **** * \details
 599:Generated_Source\PSoC6/CapSense_Filter.c **** *  Initializes the raw count filter history for all the sensors of all the 
 600:Generated_Source\PSoC6/CapSense_Filter.c **** *  widgets. Also, this function can be used to re-initialize baselines. 
 601:Generated_Source\PSoC6/CapSense_Filter.c **** *  CapSense_Start() calls this API as part of CapSense 
 602:Generated_Source\PSoC6/CapSense_Filter.c **** *  operation initialization.
 603:Generated_Source\PSoC6/CapSense_Filter.c **** *
 604:Generated_Source\PSoC6/CapSense_Filter.c **** *******************************************************************************/
 605:Generated_Source\PSoC6/CapSense_Filter.c **** void CapSense_InitializeAllFilters(void)
 606:Generated_Source\PSoC6/CapSense_Filter.c **** {
 767              		.loc 1 606 0
 768              		.cfi_startproc
 769              		@ args = 0, pretend = 0, frame = 8
 770              		@ frame_needed = 1, uses_anonymous_args = 0
 771 0000 80B5     		push	{r7, lr}
 772              		.cfi_def_cfa_offset 8
 773              		.cfi_offset 7, -8
 774              		.cfi_offset 14, -4
 775 0002 82B0     		sub	sp, sp, #8
 776              		.cfi_def_cfa_offset 16
 777 0004 00AF     		add	r7, sp, #0
 778              		.cfi_def_cfa_register 7
 607:Generated_Source\PSoC6/CapSense_Filter.c ****     uint32 widgetId;
 608:Generated_Source\PSoC6/CapSense_Filter.c **** 
 609:Generated_Source\PSoC6/CapSense_Filter.c ****     for(widgetId = CapSense_TOTAL_WIDGETS; widgetId-- > 0u;)
 779              		.loc 1 609 0
 780 0006 0323     		movs	r3, #3
 781 0008 7B60     		str	r3, [r7, #4]
 782 000a 02E0     		b	.L42
 783              	.L43:
 610:Generated_Source\PSoC6/CapSense_Filter.c ****     {
 611:Generated_Source\PSoC6/CapSense_Filter.c ****         CapSense_InitializeWidgetFilter(widgetId);
 784              		.loc 1 611 0
 785 000c 7868     		ldr	r0, [r7, #4]
 786 000e FFF7FEFF 		bl	CapSense_InitializeWidgetFilter
 787              	.L42:
 609:Generated_Source\PSoC6/CapSense_Filter.c ****     {
 788              		.loc 1 609 0 discriminator 1
 789 0012 7B68     		ldr	r3, [r7, #4]
 790 0014 5A1E     		subs	r2, r3, #1
 791 0016 7A60     		str	r2, [r7, #4]
 792 0018 002B     		cmp	r3, #0
 793 001a F7D1     		bne	.L43
 612:Generated_Source\PSoC6/CapSense_Filter.c ****     }
 613:Generated_Source\PSoC6/CapSense_Filter.c **** }
 794              		.loc 1 613 0
 795 001c 00BF     		nop
 796 001e 0837     		adds	r7, r7, #8
 797              		.cfi_def_cfa_offset 8
 798 0020 BD46     		mov	sp, r7
 799              		.cfi_def_cfa_register 13
 800              		@ sp needed
 801 0022 80BD     		pop	{r7, pc}
 802              		.cfi_endproc
 803              	.LFE135:
ARM GAS  C:\Users\ikomb\AppData\Local\Temp\cclK6Blf.s 			page 26


 804              		.size	CapSense_InitializeAllFilters, .-CapSense_InitializeAllFilters
 805              		.section	.text.CapSense_InitializeWidgetFilter,"ax",%progbits
 806              		.align	2
 807              		.global	CapSense_InitializeWidgetFilter
 808              		.thumb
 809              		.thumb_func
 810              		.type	CapSense_InitializeWidgetFilter, %function
 811              	CapSense_InitializeWidgetFilter:
 812              	.LFB136:
 614:Generated_Source\PSoC6/CapSense_Filter.c **** 
 615:Generated_Source\PSoC6/CapSense_Filter.c **** /*******************************************************************************
 616:Generated_Source\PSoC6/CapSense_Filter.c **** * Function Name: CapSense_InitializeWidgetFilter
 617:Generated_Source\PSoC6/CapSense_Filter.c **** ****************************************************************************//**
 618:Generated_Source\PSoC6/CapSense_Filter.c **** *
 619:Generated_Source\PSoC6/CapSense_Filter.c **** * \brief
 620:Generated_Source\PSoC6/CapSense_Filter.c **** *  Initializes (or re-initializes) the raw count filter history of all the sensors 
 621:Generated_Source\PSoC6/CapSense_Filter.c **** *  in a widget specified by the input parameter.
 622:Generated_Source\PSoC6/CapSense_Filter.c **** *
 623:Generated_Source\PSoC6/CapSense_Filter.c **** * \details
 624:Generated_Source\PSoC6/CapSense_Filter.c **** *  Initializes (or re-initializes) the raw count filter history of all the sensors 
 625:Generated_Source\PSoC6/CapSense_Filter.c **** *  in a widget specified by the input parameter.
 626:Generated_Source\PSoC6/CapSense_Filter.c **** *
 627:Generated_Source\PSoC6/CapSense_Filter.c **** * \param  widgetId
 628:Generated_Source\PSoC6/CapSense_Filter.c **** *  Specifies the ID number of a widget to initialize the filter history of all 
 629:Generated_Source\PSoC6/CapSense_Filter.c **** *  the sensors in the widget.
 630:Generated_Source\PSoC6/CapSense_Filter.c **** *  A macro for the widget ID can be found in the
 631:Generated_Source\PSoC6/CapSense_Filter.c **** *  CapSense Configuration header file defined as
 632:Generated_Source\PSoC6/CapSense_Filter.c **** *  CapSense_<WidgetName>_WDGT_ID.
 633:Generated_Source\PSoC6/CapSense_Filter.c **** *
 634:Generated_Source\PSoC6/CapSense_Filter.c **** *******************************************************************************/
 635:Generated_Source\PSoC6/CapSense_Filter.c **** void CapSense_InitializeWidgetFilter(uint32 widgetId)
 636:Generated_Source\PSoC6/CapSense_Filter.c **** {
 813              		.loc 1 636 0
 814              		.cfi_startproc
 815              		@ args = 0, pretend = 0, frame = 40
 816              		@ frame_needed = 1, uses_anonymous_args = 0
 817 0000 80B5     		push	{r7, lr}
 818              		.cfi_def_cfa_offset 8
 819              		.cfi_offset 7, -8
 820              		.cfi_offset 14, -4
 821 0002 8AB0     		sub	sp, sp, #40
 822              		.cfi_def_cfa_offset 48
 823 0004 00AF     		add	r7, sp, #0
 824              		.cfi_def_cfa_register 7
 825 0006 7860     		str	r0, [r7, #4]
 637:Generated_Source\PSoC6/CapSense_Filter.c ****     uint32 sensorId;
 638:Generated_Source\PSoC6/CapSense_Filter.c ****     uint32 sensorsNumber;
 639:Generated_Source\PSoC6/CapSense_Filter.c **** 
 640:Generated_Source\PSoC6/CapSense_Filter.c ****     CapSense_FLASH_WD_STRUCT const *ptrWidget;
 641:Generated_Source\PSoC6/CapSense_Filter.c ****     CapSense_RAM_SNS_STRUCT *ptrSensor = NULL;
 826              		.loc 1 641 0
 827 0008 0023     		movs	r3, #0
 828 000a 3B62     		str	r3, [r7, #32]
 642:Generated_Source\PSoC6/CapSense_Filter.c ****     #if (CapSense_ENABLE == CapSense_RC_FILTER_EN)
 643:Generated_Source\PSoC6/CapSense_Filter.c ****         CapSense_PTR_FILTER_VARIANT ptrFilterHistObj;
 644:Generated_Source\PSoC6/CapSense_Filter.c ****     #endif
 645:Generated_Source\PSoC6/CapSense_Filter.c ****     
ARM GAS  C:\Users\ikomb\AppData\Local\Temp\cclK6Blf.s 			page 27


 646:Generated_Source\PSoC6/CapSense_Filter.c ****     #if (0u != (CapSense_CSD_AUTOTUNE & CapSense_CSD_SS_TH_EN))
 647:Generated_Source\PSoC6/CapSense_Filter.c ****         CapSense_RAM_WD_BASE_STRUCT *ptrWidgetRam;
 648:Generated_Source\PSoC6/CapSense_Filter.c ****         SMARTSENSE_CSD_NOISE_ENVELOPE_STRUCT *ptrNoiseEnvelope = NULL;
 829              		.loc 1 648 0
 830 000c 0023     		movs	r3, #0
 831 000e FB61     		str	r3, [r7, #28]
 649:Generated_Source\PSoC6/CapSense_Filter.c ****     #endif /* (0u != (CapSense_CSD_AUTOTUNE & CapSense_CSD_SS_TH_EN)) */
 650:Generated_Source\PSoC6/CapSense_Filter.c **** 
 651:Generated_Source\PSoC6/CapSense_Filter.c ****     ptrWidget = &CapSense_dsFlash.wdgtArray[widgetId];
 832              		.loc 1 651 0
 833 0010 7A68     		ldr	r2, [r7, #4]
 834 0012 1346     		mov	r3, r2
 835 0014 5B00     		lsls	r3, r3, #1
 836 0016 1344     		add	r3, r3, r2
 837 0018 1B01     		lsls	r3, r3, #4
 838 001a 2E4A     		ldr	r2, .L48
 839 001c 1344     		add	r3, r3, r2
 840 001e BB61     		str	r3, [r7, #24]
 652:Generated_Source\PSoC6/CapSense_Filter.c **** 
 653:Generated_Source\PSoC6/CapSense_Filter.c ****     #if (0u != (CapSense_CSD_AUTOTUNE & CapSense_CSD_SS_TH_EN))
 654:Generated_Source\PSoC6/CapSense_Filter.c ****         ptrWidgetRam = ptrWidget->ptr2WdgtRam;
 841              		.loc 1 654 0
 842 0020 BB69     		ldr	r3, [r7, #24]
 843 0022 5B68     		ldr	r3, [r3, #4]
 844 0024 7B61     		str	r3, [r7, #20]
 655:Generated_Source\PSoC6/CapSense_Filter.c ****     #endif /* (0u != (CapSense_CSD_AUTOTUNE & CapSense_CSD_SS_TH_EN)) */
 656:Generated_Source\PSoC6/CapSense_Filter.c **** 
 657:Generated_Source\PSoC6/CapSense_Filter.c ****     /* Find total amount of sensors in specified widget */
 658:Generated_Source\PSoC6/CapSense_Filter.c ****     sensorsNumber = CapSense_GET_SNS_CNT_BY_PTR(ptrWidget);
 845              		.loc 1 658 0
 846 0026 BB69     		ldr	r3, [r7, #24]
 847 0028 1B8B     		ldrh	r3, [r3, #24]
 848 002a 3B61     		str	r3, [r7, #16]
 659:Generated_Source\PSoC6/CapSense_Filter.c **** 
 660:Generated_Source\PSoC6/CapSense_Filter.c ****     for (sensorId = sensorsNumber; sensorId-- > 0u;)
 849              		.loc 1 660 0
 850 002c 3B69     		ldr	r3, [r7, #16]
 851 002e 7B62     		str	r3, [r7, #36]
 852 0030 47E0     		b	.L45
 853              	.L47:
 661:Generated_Source\PSoC6/CapSense_Filter.c ****     {
 662:Generated_Source\PSoC6/CapSense_Filter.c ****         /* Find pointer to specified sensor object */
 663:Generated_Source\PSoC6/CapSense_Filter.c ****         ptrSensor = ptrWidget->ptr2SnsRam;
 854              		.loc 1 663 0
 855 0032 BB69     		ldr	r3, [r7, #24]
 856 0034 9B68     		ldr	r3, [r3, #8]
 857 0036 3B62     		str	r3, [r7, #32]
 664:Generated_Source\PSoC6/CapSense_Filter.c ****         ptrSensor = &ptrSensor[sensorId];
 858              		.loc 1 664 0
 859 0038 7A6A     		ldr	r2, [r7, #36]
 860 003a 1346     		mov	r3, r2
 861 003c 9B00     		lsls	r3, r3, #2
 862 003e 1344     		add	r3, r3, r2
 863 0040 5B00     		lsls	r3, r3, #1
 864 0042 1A46     		mov	r2, r3
 865 0044 3B6A     		ldr	r3, [r7, #32]
 866 0046 1344     		add	r3, r3, r2
ARM GAS  C:\Users\ikomb\AppData\Local\Temp\cclK6Blf.s 			page 28


 867 0048 3B62     		str	r3, [r7, #32]
 665:Generated_Source\PSoC6/CapSense_Filter.c **** 
 666:Generated_Source\PSoC6/CapSense_Filter.c ****         #if (CapSense_ENABLE == CapSense_RC_FILTER_EN)
 667:Generated_Source\PSoC6/CapSense_Filter.c ****             /* Find pointer to to specified filter sensor object */
 668:Generated_Source\PSoC6/CapSense_Filter.c ****             ptrFilterHistObj.ptr = ptrWidget->ptr2FltrHistory;
 868              		.loc 1 668 0
 869 004a BB69     		ldr	r3, [r7, #24]
 870 004c DB68     		ldr	r3, [r3, #12]
 871 004e FB60     		str	r3, [r7, #12]
 669:Generated_Source\PSoC6/CapSense_Filter.c ****         #endif
 670:Generated_Source\PSoC6/CapSense_Filter.c **** 
 671:Generated_Source\PSoC6/CapSense_Filter.c ****         #if (0u != (CapSense_CSD_AUTOTUNE & CapSense_CSD_SS_TH_EN))
 672:Generated_Source\PSoC6/CapSense_Filter.c ****             /* Find pointer to specified noise envelope sensor object */
 673:Generated_Source\PSoC6/CapSense_Filter.c ****             ptrNoiseEnvelope = ptrWidget->ptr2NoiseEnvlp;
 872              		.loc 1 673 0
 873 0050 BB69     		ldr	r3, [r7, #24]
 874 0052 5B6A     		ldr	r3, [r3, #36]
 875 0054 FB61     		str	r3, [r7, #28]
 674:Generated_Source\PSoC6/CapSense_Filter.c ****             ptrNoiseEnvelope = &ptrNoiseEnvelope[sensorId];
 876              		.loc 1 674 0
 877 0056 7A6A     		ldr	r2, [r7, #36]
 878 0058 1346     		mov	r3, r2
 879 005a 5B00     		lsls	r3, r3, #1
 880 005c 1344     		add	r3, r3, r2
 881 005e 9B00     		lsls	r3, r3, #2
 882 0060 1A46     		mov	r2, r3
 883 0062 FB69     		ldr	r3, [r7, #28]
 884 0064 1344     		add	r3, r3, r2
 885 0066 FB61     		str	r3, [r7, #28]
 675:Generated_Source\PSoC6/CapSense_Filter.c ****         #endif /* (0u != (CapSense_CSD_AUTOTUNE & CapSense_CSD_SS_TH_EN)) */
 676:Generated_Source\PSoC6/CapSense_Filter.c **** 
 677:Generated_Source\PSoC6/CapSense_Filter.c ****         if ((CapSense_WD_TYPE_ENUM)ptrWidget->wdgtType != CapSense_WD_PROXIMITY_E)
 886              		.loc 1 677 0
 887 0068 BB69     		ldr	r3, [r7, #24]
 888 006a 9B7E     		ldrb	r3, [r3, #26]	@ zero_extendqisi2
 889 006c 062B     		cmp	r3, #6
 890 006e 07D0     		beq	.L46
 678:Generated_Source\PSoC6/CapSense_Filter.c ****         {
 679:Generated_Source\PSoC6/CapSense_Filter.c ****             #if (0u != CapSense_REGULAR_RC_ALP_FILTER_EN)
 680:Generated_Source\PSoC6/CapSense_Filter.c ****                 ptrFilterHistObj.ptrAlp = &ptrFilterHistObj.ptrAlp[sensorId];
 681:Generated_Source\PSoC6/CapSense_Filter.c ****             #elif (0u != CapSense_REGULAR_RC_FILTER_EN)
 682:Generated_Source\PSoC6/CapSense_Filter.c ****                 ptrFilterHistObj.ptrRegular = &ptrFilterHistObj.ptrRegular[sensorId];
 891              		.loc 1 682 0
 892 0070 F968     		ldr	r1, [r7, #12]
 893 0072 7A6A     		ldr	r2, [r7, #36]
 894 0074 1346     		mov	r3, r2
 895 0076 9B00     		lsls	r3, r3, #2
 896 0078 1344     		add	r3, r3, r2
 897 007a 5B00     		lsls	r3, r3, #1
 898 007c 0B44     		add	r3, r3, r1
 899 007e FB60     		str	r3, [r7, #12]
 900              	.L46:
 683:Generated_Source\PSoC6/CapSense_Filter.c ****             #endif
 684:Generated_Source\PSoC6/CapSense_Filter.c ****         }
 685:Generated_Source\PSoC6/CapSense_Filter.c ****         else
 686:Generated_Source\PSoC6/CapSense_Filter.c ****         {
 687:Generated_Source\PSoC6/CapSense_Filter.c ****             #if (0u != CapSense_PROX_RC_ALP_FILTER_EN)
ARM GAS  C:\Users\ikomb\AppData\Local\Temp\cclK6Blf.s 			page 29


 688:Generated_Source\PSoC6/CapSense_Filter.c ****                 ptrFilterHistObj.ptrAlp = &ptrFilterHistObj.ptrAlp[sensorId];
 689:Generated_Source\PSoC6/CapSense_Filter.c ****             #elif (0u != CapSense_PROX_RC_FILTER_EN)
 690:Generated_Source\PSoC6/CapSense_Filter.c ****                 ptrFilterHistObj.ptrProx = &ptrFilterHistObj.ptrProx[sensorId];
 691:Generated_Source\PSoC6/CapSense_Filter.c ****             #endif /* #if (0u != CapSense_PROX_RC_FILTER_EN) */
 692:Generated_Source\PSoC6/CapSense_Filter.c ****         }
 693:Generated_Source\PSoC6/CapSense_Filter.c **** 
 694:Generated_Source\PSoC6/CapSense_Filter.c ****         #if (CapSense_REGULAR_RC_IIR_FILTER_EN || CapSense_PROX_RC_IIR_FILTER_EN)
 695:Generated_Source\PSoC6/CapSense_Filter.c ****             CapSense_InitializeIIRInternal(ptrFilterHistObj, ptrSensor, (uint32)ptrWidget->wdgtType
 696:Generated_Source\PSoC6/CapSense_Filter.c ****         #endif /* (CapSense_REGULAR_RC_IIR_FILTER_EN || CapSense_PROX_RC_IIR_FILTER_EN) */
 697:Generated_Source\PSoC6/CapSense_Filter.c **** 
 698:Generated_Source\PSoC6/CapSense_Filter.c ****         #if (CapSense_REGULAR_RC_MEDIAN_FILTER_EN || CapSense_PROX_RC_MEDIAN_FILTER_EN)
 699:Generated_Source\PSoC6/CapSense_Filter.c ****             CapSense_InitializeMedianInternal(ptrFilterHistObj, ptrSensor, (uint32)ptrWidget->wdgtT
 901              		.loc 1 699 0
 902 0080 BB69     		ldr	r3, [r7, #24]
 903 0082 9B7E     		ldrb	r3, [r3, #26]	@ zero_extendqisi2
 904 0084 1A46     		mov	r2, r3
 905 0086 396A     		ldr	r1, [r7, #32]
 906 0088 F868     		ldr	r0, [r7, #12]
 907 008a FFF7FEFF 		bl	CapSense_InitializeMedianInternal
 700:Generated_Source\PSoC6/CapSense_Filter.c ****         #endif /* (CapSense_REGULAR_RC_MEDIAN_FILTER_EN || CapSense_PROX_RC_MEDIAN_FILTER_EN) */
 701:Generated_Source\PSoC6/CapSense_Filter.c **** 
 702:Generated_Source\PSoC6/CapSense_Filter.c ****         #if (CapSense_REGULAR_RC_AVERAGE_FILTER_EN || CapSense_PROX_RC_AVERAGE_FILTER_EN)
 703:Generated_Source\PSoC6/CapSense_Filter.c ****             CapSense_InitializeAverageInternal(ptrFilterHistObj, ptrSensor, (uint32)ptrWidget->wdgt
 908              		.loc 1 703 0
 909 008e BB69     		ldr	r3, [r7, #24]
 910 0090 9B7E     		ldrb	r3, [r3, #26]	@ zero_extendqisi2
 911 0092 1A46     		mov	r2, r3
 912 0094 396A     		ldr	r1, [r7, #32]
 913 0096 F868     		ldr	r0, [r7, #12]
 914 0098 FFF7FEFF 		bl	CapSense_InitializeAverageInternal
 704:Generated_Source\PSoC6/CapSense_Filter.c ****         #endif /* (CapSense_REGULAR_RC_AVERAGE_FILTER_EN || CapSense_PROX_RC_AVERAGE_FILTER_EN) */
 705:Generated_Source\PSoC6/CapSense_Filter.c **** 
 706:Generated_Source\PSoC6/CapSense_Filter.c ****         #if (CapSense_ALP_FILTER_EN)
 707:Generated_Source\PSoC6/CapSense_Filter.c ****             CapSense_InitializeALPInternal(ptrFilterHistObj, ptrSensor, (uint32)ptrWidget->wdgtType
 708:Generated_Source\PSoC6/CapSense_Filter.c ****         #endif
 709:Generated_Source\PSoC6/CapSense_Filter.c **** 
 710:Generated_Source\PSoC6/CapSense_Filter.c ****         #if (0u != (CapSense_CSD_AUTOTUNE & CapSense_CSD_SS_TH_EN))
 711:Generated_Source\PSoC6/CapSense_Filter.c ****             if (CapSense_SENSE_METHOD_CSD_E ==
 712:Generated_Source\PSoC6/CapSense_Filter.c ****                 CapSense_GET_SENSE_METHOD(&CapSense_dsFlash.wdgtArray[widgetId]))
 915              		.loc 1 712 0
 916 009c 0D49     		ldr	r1, .L48
 917 009e 7A68     		ldr	r2, [r7, #4]
 918 00a0 1346     		mov	r3, r2
 919 00a2 5B00     		lsls	r3, r3, #1
 920 00a4 1344     		add	r3, r3, r2
 921 00a6 1B01     		lsls	r3, r3, #4
 922 00a8 0B44     		add	r3, r3, r1
 923 00aa 1B33     		adds	r3, r3, #27
 924 00ac 1B78     		ldrb	r3, [r3]	@ zero_extendqisi2
 711:Generated_Source\PSoC6/CapSense_Filter.c ****                 CapSense_GET_SENSE_METHOD(&CapSense_dsFlash.wdgtArray[widgetId]))
 925              		.loc 1 711 0
 926 00ae 012B     		cmp	r3, #1
 927 00b0 07D1     		bne	.L45
 713:Generated_Source\PSoC6/CapSense_Filter.c ****             {
 714:Generated_Source\PSoC6/CapSense_Filter.c ****                 SmartSense_InitializeNoiseEnvelope(ptrSensor->raw[0u], ptrWidgetRam->sigPFC, ptrNoi
 928              		.loc 1 714 0
 929 00b2 3B6A     		ldr	r3, [r7, #32]
ARM GAS  C:\Users\ikomb\AppData\Local\Temp\cclK6Blf.s 			page 30


 930 00b4 1888     		ldrh	r0, [r3]
 931 00b6 7B69     		ldr	r3, [r7, #20]
 932 00b8 1B8A     		ldrh	r3, [r3, #16]
 933 00ba FA69     		ldr	r2, [r7, #28]
 934 00bc 1946     		mov	r1, r3
 935 00be FFF7FEFF 		bl	SmartSense_InitializeNoiseEnvelope
 936              	.L45:
 660:Generated_Source\PSoC6/CapSense_Filter.c ****     {
 937              		.loc 1 660 0 discriminator 1
 938 00c2 7B6A     		ldr	r3, [r7, #36]
 939 00c4 5A1E     		subs	r2, r3, #1
 940 00c6 7A62     		str	r2, [r7, #36]
 941 00c8 002B     		cmp	r3, #0
 942 00ca B2D1     		bne	.L47
 715:Generated_Source\PSoC6/CapSense_Filter.c ****             }
 716:Generated_Source\PSoC6/CapSense_Filter.c ****         #endif /* (0u != (CapSense_CSD_AUTOTUNE & CapSense_CSD_SS_TH_EN)) */
 717:Generated_Source\PSoC6/CapSense_Filter.c ****     }
 718:Generated_Source\PSoC6/CapSense_Filter.c **** }
 943              		.loc 1 718 0
 944 00cc 00BF     		nop
 945 00ce 2837     		adds	r7, r7, #40
 946              		.cfi_def_cfa_offset 8
 947 00d0 BD46     		mov	sp, r7
 948              		.cfi_def_cfa_register 13
 949              		@ sp needed
 950 00d2 80BD     		pop	{r7, pc}
 951              	.L49:
 952              		.align	2
 953              	.L48:
 954 00d4 00000000 		.word	CapSense_dsFlash
 955              		.cfi_endproc
 956              	.LFE136:
 957              		.size	CapSense_InitializeWidgetFilter, .-CapSense_InitializeWidgetFilter
 958              		.section	.text.CapSense_InitializeMedian,"ax",%progbits
 959              		.align	2
 960              		.global	CapSense_InitializeMedian
 961              		.thumb
 962              		.thumb_func
 963              		.type	CapSense_InitializeMedian, %function
 964              	CapSense_InitializeMedian:
 965              	.LFB137:
 719:Generated_Source\PSoC6/CapSense_Filter.c **** #endif /* ((CapSense_ENABLE == CapSense_RC_FILTER_EN) || \
 720:Generated_Source\PSoC6/CapSense_Filter.c ****            (0u != (CapSense_CSD_AUTOTUNE & CapSense_CSD_SS_TH_EN))) */
 721:Generated_Source\PSoC6/CapSense_Filter.c **** 
 722:Generated_Source\PSoC6/CapSense_Filter.c **** #if (CapSense_REGULAR_RC_IIR_FILTER_EN || CapSense_PROX_RC_IIR_FILTER_EN)
 723:Generated_Source\PSoC6/CapSense_Filter.c **** /*******************************************************************************
 724:Generated_Source\PSoC6/CapSense_Filter.c **** * Function Name: CapSense_InitializeIIR
 725:Generated_Source\PSoC6/CapSense_Filter.c **** ****************************************************************************//**
 726:Generated_Source\PSoC6/CapSense_Filter.c **** *
 727:Generated_Source\PSoC6/CapSense_Filter.c **** * \brief    Initialize the IIR filter history.
 728:Generated_Source\PSoC6/CapSense_Filter.c **** *
 729:Generated_Source\PSoC6/CapSense_Filter.c **** * \details  Initialize the IIR filter history.
 730:Generated_Source\PSoC6/CapSense_Filter.c **** *
 731:Generated_Source\PSoC6/CapSense_Filter.c **** * \param    widgetId Specifies the ID number of the widget.
 732:Generated_Source\PSoC6/CapSense_Filter.c **** * \param    sensorId Specifies the ID number of the sensor in the widget.
 733:Generated_Source\PSoC6/CapSense_Filter.c **** *
 734:Generated_Source\PSoC6/CapSense_Filter.c **** *******************************************************************************/
ARM GAS  C:\Users\ikomb\AppData\Local\Temp\cclK6Blf.s 			page 31


 735:Generated_Source\PSoC6/CapSense_Filter.c **** void CapSense_InitializeIIR(uint32 widgetId, uint32 sensorId)
 736:Generated_Source\PSoC6/CapSense_Filter.c **** {
 737:Generated_Source\PSoC6/CapSense_Filter.c ****     CapSense_FLASH_WD_STRUCT const *ptrWidget = &CapSense_dsFlash.wdgtArray[widgetId];
 738:Generated_Source\PSoC6/CapSense_Filter.c ****     CapSense_RAM_SNS_STRUCT *ptrSensor = NULL;
 739:Generated_Source\PSoC6/CapSense_Filter.c ****     CapSense_PTR_FILTER_VARIANT ptrFilterHistObj;
 740:Generated_Source\PSoC6/CapSense_Filter.c **** 
 741:Generated_Source\PSoC6/CapSense_Filter.c ****     /* Find pointer to specified sensor object */
 742:Generated_Source\PSoC6/CapSense_Filter.c ****     ptrSensor = ptrWidget->ptr2SnsRam;
 743:Generated_Source\PSoC6/CapSense_Filter.c ****     ptrSensor = &ptrSensor[sensorId];
 744:Generated_Source\PSoC6/CapSense_Filter.c **** 
 745:Generated_Source\PSoC6/CapSense_Filter.c ****     /* Find pointer to specified filter sensor object */
 746:Generated_Source\PSoC6/CapSense_Filter.c ****     ptrFilterHistObj.ptr = ptrWidget->ptr2FltrHistory;
 747:Generated_Source\PSoC6/CapSense_Filter.c **** 
 748:Generated_Source\PSoC6/CapSense_Filter.c ****     if ((CapSense_WD_TYPE_ENUM)ptrWidget->wdgtType != CapSense_WD_PROXIMITY_E)
 749:Generated_Source\PSoC6/CapSense_Filter.c ****     {
 750:Generated_Source\PSoC6/CapSense_Filter.c ****         #if (CapSense_REGULAR_SENSOR_EN)
 751:Generated_Source\PSoC6/CapSense_Filter.c ****             ptrFilterHistObj.ptrRegular = &ptrFilterHistObj.ptrRegular[sensorId];
 752:Generated_Source\PSoC6/CapSense_Filter.c ****         #endif /* (CapSense_REGULAR_SENSOR_EN) */
 753:Generated_Source\PSoC6/CapSense_Filter.c ****     }
 754:Generated_Source\PSoC6/CapSense_Filter.c ****     else
 755:Generated_Source\PSoC6/CapSense_Filter.c ****     {
 756:Generated_Source\PSoC6/CapSense_Filter.c ****         #if (CapSense_PROXIMITY_SENSOR_EN)
 757:Generated_Source\PSoC6/CapSense_Filter.c ****             ptrFilterHistObj.ptrProx = &ptrFilterHistObj.ptrProx[sensorId];
 758:Generated_Source\PSoC6/CapSense_Filter.c ****         #endif /* (CapSense_PROXIMITY_SENSOR_EN) */
 759:Generated_Source\PSoC6/CapSense_Filter.c ****     }
 760:Generated_Source\PSoC6/CapSense_Filter.c **** 
 761:Generated_Source\PSoC6/CapSense_Filter.c ****     CapSense_InitializeIIRInternal(ptrFilterHistObj, ptrSensor, (uint32)ptrWidget->wdgtType);
 762:Generated_Source\PSoC6/CapSense_Filter.c **** }
 763:Generated_Source\PSoC6/CapSense_Filter.c **** 
 764:Generated_Source\PSoC6/CapSense_Filter.c **** 
 765:Generated_Source\PSoC6/CapSense_Filter.c **** /*******************************************************************************
 766:Generated_Source\PSoC6/CapSense_Filter.c **** * Function Name: CapSense_RunIIR
 767:Generated_Source\PSoC6/CapSense_Filter.c **** ****************************************************************************//**
 768:Generated_Source\PSoC6/CapSense_Filter.c **** *
 769:Generated_Source\PSoC6/CapSense_Filter.c **** * \brief    Executes the IIR filter algorithm on a sensor indicated by an input
 770:Generated_Source\PSoC6/CapSense_Filter.c **** *           parameter.
 771:Generated_Source\PSoC6/CapSense_Filter.c **** *
 772:Generated_Source\PSoC6/CapSense_Filter.c **** * \details  Executes the IIR filter algorithm on a sensor indicated by an input
 773:Generated_Source\PSoC6/CapSense_Filter.c **** *           parameter.
 774:Generated_Source\PSoC6/CapSense_Filter.c **** *
 775:Generated_Source\PSoC6/CapSense_Filter.c **** * \param    widgetId Specifies the ID number of the widget.
 776:Generated_Source\PSoC6/CapSense_Filter.c **** * \param    sensorId Specifies the ID number of the sensor in the widget.
 777:Generated_Source\PSoC6/CapSense_Filter.c **** *
 778:Generated_Source\PSoC6/CapSense_Filter.c **** *******************************************************************************/
 779:Generated_Source\PSoC6/CapSense_Filter.c **** void CapSense_RunIIR(uint32 widgetId, uint32 sensorId)
 780:Generated_Source\PSoC6/CapSense_Filter.c **** {
 781:Generated_Source\PSoC6/CapSense_Filter.c ****     CapSense_FLASH_WD_STRUCT const *ptrWidget = &CapSense_dsFlash.wdgtArray[widgetId];
 782:Generated_Source\PSoC6/CapSense_Filter.c ****     CapSense_RAM_SNS_STRUCT *ptrSensor = NULL;
 783:Generated_Source\PSoC6/CapSense_Filter.c ****     CapSense_PTR_FILTER_VARIANT ptrFilterHistObj;
 784:Generated_Source\PSoC6/CapSense_Filter.c **** 
 785:Generated_Source\PSoC6/CapSense_Filter.c ****     /* Find pointer to specified sensor object */
 786:Generated_Source\PSoC6/CapSense_Filter.c ****     ptrSensor = ptrWidget->ptr2SnsRam;
 787:Generated_Source\PSoC6/CapSense_Filter.c ****     ptrSensor = &ptrSensor[sensorId];
 788:Generated_Source\PSoC6/CapSense_Filter.c **** 
 789:Generated_Source\PSoC6/CapSense_Filter.c ****     /* Find pointer to specified filter sensor object */
 790:Generated_Source\PSoC6/CapSense_Filter.c ****     ptrFilterHistObj.ptr = ptrWidget->ptr2FltrHistory;
 791:Generated_Source\PSoC6/CapSense_Filter.c **** 
ARM GAS  C:\Users\ikomb\AppData\Local\Temp\cclK6Blf.s 			page 32


 792:Generated_Source\PSoC6/CapSense_Filter.c ****     if ((CapSense_WD_TYPE_ENUM)ptrWidget->wdgtType != CapSense_WD_PROXIMITY_E)
 793:Generated_Source\PSoC6/CapSense_Filter.c ****     {
 794:Generated_Source\PSoC6/CapSense_Filter.c ****         #if (CapSense_REGULAR_SENSOR_EN)
 795:Generated_Source\PSoC6/CapSense_Filter.c ****             ptrFilterHistObj.ptrRegular = &ptrFilterHistObj.ptrRegular[sensorId];
 796:Generated_Source\PSoC6/CapSense_Filter.c ****         #endif /* (CapSense_REGULAR_SENSOR_EN) */
 797:Generated_Source\PSoC6/CapSense_Filter.c ****     }
 798:Generated_Source\PSoC6/CapSense_Filter.c ****     else
 799:Generated_Source\PSoC6/CapSense_Filter.c ****     {
 800:Generated_Source\PSoC6/CapSense_Filter.c ****         #if (CapSense_PROXIMITY_SENSOR_EN)
 801:Generated_Source\PSoC6/CapSense_Filter.c ****             ptrFilterHistObj.ptrProx = &ptrFilterHistObj.ptrProx[sensorId];
 802:Generated_Source\PSoC6/CapSense_Filter.c ****         #endif /* (CapSense_PROXIMITY_SENSOR_EN) */
 803:Generated_Source\PSoC6/CapSense_Filter.c ****     }
 804:Generated_Source\PSoC6/CapSense_Filter.c **** 
 805:Generated_Source\PSoC6/CapSense_Filter.c ****     CapSense_RunIIRInternal(ptrFilterHistObj, ptrSensor, (uint32)ptrWidget->wdgtType);
 806:Generated_Source\PSoC6/CapSense_Filter.c **** }
 807:Generated_Source\PSoC6/CapSense_Filter.c **** 
 808:Generated_Source\PSoC6/CapSense_Filter.c **** /*******************************************************************************
 809:Generated_Source\PSoC6/CapSense_Filter.c **** * Function Name: CapSense_InitializeIIRInternal
 810:Generated_Source\PSoC6/CapSense_Filter.c **** ****************************************************************************//**
 811:Generated_Source\PSoC6/CapSense_Filter.c **** *
 812:Generated_Source\PSoC6/CapSense_Filter.c **** * \brief    Initializes the IIR filter history.
 813:Generated_Source\PSoC6/CapSense_Filter.c **** *
 814:Generated_Source\PSoC6/CapSense_Filter.c **** * \details  Initializes the IIR filter history.
 815:Generated_Source\PSoC6/CapSense_Filter.c **** *
 816:Generated_Source\PSoC6/CapSense_Filter.c **** * \param    ptrFilterHistObj The pointer to the filter RAM object of the sensor.
 817:Generated_Source\PSoC6/CapSense_Filter.c **** * \param    ptrSensorObj     The pointer to the sensor RAM object of the sensor.
 818:Generated_Source\PSoC6/CapSense_Filter.c **** * \param    wdType           Specifies the type of a widget.
 819:Generated_Source\PSoC6/CapSense_Filter.c **** *
 820:Generated_Source\PSoC6/CapSense_Filter.c **** *******************************************************************************/
 821:Generated_Source\PSoC6/CapSense_Filter.c **** void CapSense_InitializeIIRInternal(CapSense_PTR_FILTER_VARIANT ptrFilterHistObj,
 822:Generated_Source\PSoC6/CapSense_Filter.c ****                                             CapSense_RAM_SNS_STRUCT *ptrSensorObj, uint32 wdType)
 823:Generated_Source\PSoC6/CapSense_Filter.c **** {
 824:Generated_Source\PSoC6/CapSense_Filter.c ****     uint32 freqChannel;
 825:Generated_Source\PSoC6/CapSense_Filter.c **** 
 826:Generated_Source\PSoC6/CapSense_Filter.c ****     for(freqChannel = CapSense_NUM_SCAN_FREQS; freqChannel-- > 0u;)
 827:Generated_Source\PSoC6/CapSense_Filter.c ****     {
 828:Generated_Source\PSoC6/CapSense_Filter.c ****         if ((CapSense_WD_TYPE_ENUM)wdType != CapSense_WD_PROXIMITY_E)
 829:Generated_Source\PSoC6/CapSense_Filter.c ****         {
 830:Generated_Source\PSoC6/CapSense_Filter.c ****             #if (CapSense_REGULAR_SENSOR_EN && CapSense_REGULAR_RC_IIR_FILTER_EN)
 831:Generated_Source\PSoC6/CapSense_Filter.c ****                 #if (CapSense_REGULAR_IIR_RC_TYPE == CapSense_IIR_FILTER_PERFORMANCE)
 832:Generated_Source\PSoC6/CapSense_Filter.c ****                     ptrFilterHistObj.ptrRegular->regularChannel[freqChannel].iirHistory = ptrSensor
 833:Generated_Source\PSoC6/CapSense_Filter.c ****                     ptrFilterHistObj.ptrRegular->regularChannel[freqChannel].iirHistoryLow = 0u;
 834:Generated_Source\PSoC6/CapSense_Filter.c ****                 #else
 835:Generated_Source\PSoC6/CapSense_Filter.c ****                     ptrFilterHistObj.ptrRegular->regularChannel[freqChannel].iirHistory = ptrSensor
 836:Generated_Source\PSoC6/CapSense_Filter.c ****                 #endif /* (CapSense_REGULAR_IIR_RC_TYPE == CapSense_IIR_FILTER_PERFORMANCE) */
 837:Generated_Source\PSoC6/CapSense_Filter.c ****             #endif /* (CapSense_REGULAR_SENSOR_EN) */
 838:Generated_Source\PSoC6/CapSense_Filter.c ****         }
 839:Generated_Source\PSoC6/CapSense_Filter.c ****         else
 840:Generated_Source\PSoC6/CapSense_Filter.c ****         {
 841:Generated_Source\PSoC6/CapSense_Filter.c ****             #if (CapSense_PROXIMITY_SENSOR_EN && CapSense_PROX_RC_IIR_FILTER_EN)
 842:Generated_Source\PSoC6/CapSense_Filter.c ****                 #if (CapSense_PROX_IIR_RC_TYPE == CapSense_IIR_FILTER_PERFORMANCE)
 843:Generated_Source\PSoC6/CapSense_Filter.c ****                     ptrFilterHistObj.ptrProx->proxChannel[freqChannel].iirHistory = ptrSensorObj->r
 844:Generated_Source\PSoC6/CapSense_Filter.c ****                     ptrFilterHistObj.ptrProx->proxChannel[freqChannel].iirHistoryLow = 0u;
 845:Generated_Source\PSoC6/CapSense_Filter.c ****                 #else
 846:Generated_Source\PSoC6/CapSense_Filter.c ****                     ptrFilterHistObj.ptrProx->proxChannel[freqChannel].iirHistory = ptrSensorObj->r
 847:Generated_Source\PSoC6/CapSense_Filter.c ****                 #endif /* (CapSense_PROX_IIR_RC_TYPE == CapSense_IIR_FILTER_PERFORMANCE) */
 848:Generated_Source\PSoC6/CapSense_Filter.c ****             #endif /* (CapSense_PROX_SENSOR_EN) */
ARM GAS  C:\Users\ikomb\AppData\Local\Temp\cclK6Blf.s 			page 33


 849:Generated_Source\PSoC6/CapSense_Filter.c ****         }
 850:Generated_Source\PSoC6/CapSense_Filter.c ****     }
 851:Generated_Source\PSoC6/CapSense_Filter.c **** }
 852:Generated_Source\PSoC6/CapSense_Filter.c **** 
 853:Generated_Source\PSoC6/CapSense_Filter.c **** 
 854:Generated_Source\PSoC6/CapSense_Filter.c **** /*******************************************************************************
 855:Generated_Source\PSoC6/CapSense_Filter.c **** * Function Name: CapSense_RunIIRInternal
 856:Generated_Source\PSoC6/CapSense_Filter.c **** ****************************************************************************//**
 857:Generated_Source\PSoC6/CapSense_Filter.c **** *
 858:Generated_Source\PSoC6/CapSense_Filter.c **** * \brief    Run the IIR filter.
 859:Generated_Source\PSoC6/CapSense_Filter.c **** *
 860:Generated_Source\PSoC6/CapSense_Filter.c **** * \details  Run the IIR filter.
 861:Generated_Source\PSoC6/CapSense_Filter.c **** *
 862:Generated_Source\PSoC6/CapSense_Filter.c **** * \param    ptrFilterHistObj The pointer to the filter RAM object of the sensor.
 863:Generated_Source\PSoC6/CapSense_Filter.c **** * \param    ptrSensorObj     The pointer to the sensor RAM object of the sensor.
 864:Generated_Source\PSoC6/CapSense_Filter.c **** * \param    wdType           Specifies the type of a widget.
 865:Generated_Source\PSoC6/CapSense_Filter.c **** *
 866:Generated_Source\PSoC6/CapSense_Filter.c **** *******************************************************************************/
 867:Generated_Source\PSoC6/CapSense_Filter.c **** void CapSense_RunIIRInternal(CapSense_PTR_FILTER_VARIANT ptrFilterHistObj,
 868:Generated_Source\PSoC6/CapSense_Filter.c ****                                      CapSense_RAM_SNS_STRUCT *ptrSensorObj, uint32 wdType)
 869:Generated_Source\PSoC6/CapSense_Filter.c **** {
 870:Generated_Source\PSoC6/CapSense_Filter.c ****     uint32 freqChannel;
 871:Generated_Source\PSoC6/CapSense_Filter.c ****     uint32 temp;
 872:Generated_Source\PSoC6/CapSense_Filter.c **** 
 873:Generated_Source\PSoC6/CapSense_Filter.c ****     for(freqChannel = CapSense_NUM_SCAN_FREQS; freqChannel-- > 0u;)
 874:Generated_Source\PSoC6/CapSense_Filter.c ****     {
 875:Generated_Source\PSoC6/CapSense_Filter.c ****         if ((CapSense_WD_TYPE_ENUM)wdType != CapSense_WD_PROXIMITY_E)
 876:Generated_Source\PSoC6/CapSense_Filter.c ****         {
 877:Generated_Source\PSoC6/CapSense_Filter.c ****             #if (CapSense_REGULAR_SENSOR_EN && CapSense_REGULAR_RC_IIR_FILTER_EN)
 878:Generated_Source\PSoC6/CapSense_Filter.c ****                 #if (CapSense_REGULAR_IIR_RC_TYPE == CapSense_IIR_FILTER_PERFORMANCE)
 879:Generated_Source\PSoC6/CapSense_Filter.c ****                     temp = ((uint32)ptrFilterHistObj.ptrRegular->regularChannel[freqChannel].iirHis
 880:Generated_Source\PSoC6/CapSense_Filter.c ****                     temp |= ptrFilterHistObj.ptrRegular->regularChannel[freqChannel].iirHistoryLow;
 881:Generated_Source\PSoC6/CapSense_Filter.c ****                     temp = CapSense_FtIIR1stOrder((uint32)ptrSensorObj->raw[freqChannel],
 882:Generated_Source\PSoC6/CapSense_Filter.c ****                                                         temp,
 883:Generated_Source\PSoC6/CapSense_Filter.c ****                                                         CapSense_REGULAR_IIR_RC_N,
 884:Generated_Source\PSoC6/CapSense_Filter.c ****                                                         CapSense_REGULAR_IIR_RC_SHIFT);
 885:Generated_Source\PSoC6/CapSense_Filter.c ****                     ptrFilterHistObj.ptrRegular->regularChannel[freqChannel].iirHistory = CY_LO16(t
 886:Generated_Source\PSoC6/CapSense_Filter.c ****                     ptrFilterHistObj.ptrRegular->regularChannel[freqChannel].iirHistoryLow = CY_LO8
 887:Generated_Source\PSoC6/CapSense_Filter.c ****                     ptrSensorObj->raw[freqChannel] = CY_LO16(temp >>CapSense_REGULAR_IIR_RC_SHIFT);
 888:Generated_Source\PSoC6/CapSense_Filter.c ****                 #else
 889:Generated_Source\PSoC6/CapSense_Filter.c ****                     temp =CapSense_FtIIR1stOrder((uint32)ptrSensorObj->raw[freqChannel],
 890:Generated_Source\PSoC6/CapSense_Filter.c ****                                                         (uint32)ptrFilterHistObj.ptrRegular->regula
 891:Generated_Source\PSoC6/CapSense_Filter.c ****                                                         CapSense_REGULAR_IIR_RC_N,
 892:Generated_Source\PSoC6/CapSense_Filter.c ****                                                         CapSense_REGULAR_IIR_RC_SHIFT);
 893:Generated_Source\PSoC6/CapSense_Filter.c ****                     ptrFilterHistObj.ptrRegular->regularChannel[freqChannel].iirHistory = CY_LO16(t
 894:Generated_Source\PSoC6/CapSense_Filter.c ****                     ptrSensorObj->raw[freqChannel] = CY_LO16(temp >>CapSense_REGULAR_IIR_RC_SHIFT);
 895:Generated_Source\PSoC6/CapSense_Filter.c ****                 #endif /* (CapSense_REGULAR_IIR_RC_TYPE == CapSense_IIR_FILTER_PERFORMANCE) */
 896:Generated_Source\PSoC6/CapSense_Filter.c ****             #endif /* (CapSense_REGULAR_SENSOR_EN) */
 897:Generated_Source\PSoC6/CapSense_Filter.c ****         }
 898:Generated_Source\PSoC6/CapSense_Filter.c ****         else
 899:Generated_Source\PSoC6/CapSense_Filter.c ****         {
 900:Generated_Source\PSoC6/CapSense_Filter.c ****             #if (CapSense_PROXIMITY_SENSOR_EN && CapSense_PROX_RC_IIR_FILTER_EN)
 901:Generated_Source\PSoC6/CapSense_Filter.c ****                 #if (CapSense_PROX_IIR_RC_TYPE == CapSense_IIR_FILTER_PERFORMANCE)
 902:Generated_Source\PSoC6/CapSense_Filter.c ****                     temp =  ptrFilterHistObj.ptrProx->proxChannel[freqChannel].iirHistory << CapSen
 903:Generated_Source\PSoC6/CapSense_Filter.c ****                     temp |= ptrFilterHistObj.ptrProx->proxChannel[freqChannel].iirHistoryLow;
 904:Generated_Source\PSoC6/CapSense_Filter.c ****                     temp =CapSense_FtIIR1stOrder((uint32)ptrSensorObj->raw[freqChannel],
 905:Generated_Source\PSoC6/CapSense_Filter.c ****                                                         temp,
ARM GAS  C:\Users\ikomb\AppData\Local\Temp\cclK6Blf.s 			page 34


 906:Generated_Source\PSoC6/CapSense_Filter.c ****                                                         CapSense_PROX_IIR_RC_N,
 907:Generated_Source\PSoC6/CapSense_Filter.c ****                                                         CapSense_PROX_IIR_RC_SHIFT);
 908:Generated_Source\PSoC6/CapSense_Filter.c ****                     ptrFilterHistObj.ptrProx->proxChannel[freqChannel].iirHistory = CY_LO16(temp >>
 909:Generated_Source\PSoC6/CapSense_Filter.c ****                     ptrFilterHistObj.ptrProx->proxChannel[freqChannel].iirHistoryLow = CY_LO8(temp)
 910:Generated_Source\PSoC6/CapSense_Filter.c ****                     ptrSensorObj->raw[freqChannel] = CY_LO16(temp >>CapSense_PROX_IIR_RC_SHIFT);
 911:Generated_Source\PSoC6/CapSense_Filter.c ****                 #else
 912:Generated_Source\PSoC6/CapSense_Filter.c ****                     temp =CapSense_FtIIR1stOrder((uint32)ptrSensorObj->raw[freqChannel],
 913:Generated_Source\PSoC6/CapSense_Filter.c ****                                                         (uint32)ptrFilterHistObj.ptrProx->proxChann
 914:Generated_Source\PSoC6/CapSense_Filter.c ****                                                         CapSense_PROX_IIR_RC_N,
 915:Generated_Source\PSoC6/CapSense_Filter.c ****                                                         CapSense_PROX_IIR_RC_SHIFT);
 916:Generated_Source\PSoC6/CapSense_Filter.c ****                     ptrFilterHistObj.ptrProx->proxChannel[freqChannel].iirHistory = CY_LO16(temp);
 917:Generated_Source\PSoC6/CapSense_Filter.c ****                     ptrSensorObj->raw[freqChannel] = CY_LO16(temp >>CapSense_PROX_IIR_RC_SHIFT);
 918:Generated_Source\PSoC6/CapSense_Filter.c ****                 #endif /* (CapSense_PROX_IIR_RC_TYPE == CapSense_IIR_FILTER_PERFORMANCE) */
 919:Generated_Source\PSoC6/CapSense_Filter.c ****             #endif /* (CapSense_PROX_SENSOR_EN) */
 920:Generated_Source\PSoC6/CapSense_Filter.c ****         }
 921:Generated_Source\PSoC6/CapSense_Filter.c ****     }
 922:Generated_Source\PSoC6/CapSense_Filter.c **** }
 923:Generated_Source\PSoC6/CapSense_Filter.c **** #endif /* #if (CapSense_REGULAR_RC_IIR_FILTER_EN || CapSense_PROX_RC_IIR_FILTER_EN) */
 924:Generated_Source\PSoC6/CapSense_Filter.c **** 
 925:Generated_Source\PSoC6/CapSense_Filter.c **** 
 926:Generated_Source\PSoC6/CapSense_Filter.c **** #if (CapSense_REGULAR_RC_MEDIAN_FILTER_EN || CapSense_PROX_RC_MEDIAN_FILTER_EN)
 927:Generated_Source\PSoC6/CapSense_Filter.c **** 
 928:Generated_Source\PSoC6/CapSense_Filter.c **** /*******************************************************************************
 929:Generated_Source\PSoC6/CapSense_Filter.c **** * Function Name: CapSense_InitializeMedian
 930:Generated_Source\PSoC6/CapSense_Filter.c **** ****************************************************************************//**
 931:Generated_Source\PSoC6/CapSense_Filter.c **** *
 932:Generated_Source\PSoC6/CapSense_Filter.c **** * \brief    Initializes the Median filter history.
 933:Generated_Source\PSoC6/CapSense_Filter.c **** *
 934:Generated_Source\PSoC6/CapSense_Filter.c **** * \details  Initializes the Median filter history.
 935:Generated_Source\PSoC6/CapSense_Filter.c **** *
 936:Generated_Source\PSoC6/CapSense_Filter.c **** * \param    widgetId Specifies the ID number of the widget.
 937:Generated_Source\PSoC6/CapSense_Filter.c **** * \param    sensorId Specifies the ID number of the sensor in the widget.
 938:Generated_Source\PSoC6/CapSense_Filter.c **** *
 939:Generated_Source\PSoC6/CapSense_Filter.c **** *******************************************************************************/
 940:Generated_Source\PSoC6/CapSense_Filter.c **** void CapSense_InitializeMedian(uint32 widgetId, uint32 sensorId)
 941:Generated_Source\PSoC6/CapSense_Filter.c **** {
 966              		.loc 1 941 0
 967              		.cfi_startproc
 968              		@ args = 0, pretend = 0, frame = 24
 969              		@ frame_needed = 1, uses_anonymous_args = 0
 970 0000 80B5     		push	{r7, lr}
 971              		.cfi_def_cfa_offset 8
 972              		.cfi_offset 7, -8
 973              		.cfi_offset 14, -4
 974 0002 86B0     		sub	sp, sp, #24
 975              		.cfi_def_cfa_offset 32
 976 0004 00AF     		add	r7, sp, #0
 977              		.cfi_def_cfa_register 7
 978 0006 7860     		str	r0, [r7, #4]
 979 0008 3960     		str	r1, [r7]
 942:Generated_Source\PSoC6/CapSense_Filter.c ****     CapSense_FLASH_WD_STRUCT const *ptrWidget = &CapSense_dsFlash.wdgtArray[widgetId];
 980              		.loc 1 942 0
 981 000a 7A68     		ldr	r2, [r7, #4]
 982 000c 1346     		mov	r3, r2
 983 000e 5B00     		lsls	r3, r3, #1
 984 0010 1344     		add	r3, r3, r2
 985 0012 1B01     		lsls	r3, r3, #4
ARM GAS  C:\Users\ikomb\AppData\Local\Temp\cclK6Blf.s 			page 35


 986 0014 154A     		ldr	r2, .L52
 987 0016 1344     		add	r3, r3, r2
 988 0018 7B61     		str	r3, [r7, #20]
 943:Generated_Source\PSoC6/CapSense_Filter.c ****     CapSense_RAM_SNS_STRUCT *ptrSensor = NULL;
 989              		.loc 1 943 0
 990 001a 0023     		movs	r3, #0
 991 001c 3B61     		str	r3, [r7, #16]
 944:Generated_Source\PSoC6/CapSense_Filter.c ****     CapSense_PTR_FILTER_VARIANT ptrFilterHistObj;
 945:Generated_Source\PSoC6/CapSense_Filter.c **** 
 946:Generated_Source\PSoC6/CapSense_Filter.c ****     /* Find pointer to specified sensor object */
 947:Generated_Source\PSoC6/CapSense_Filter.c ****     ptrSensor = ptrWidget->ptr2SnsRam;
 992              		.loc 1 947 0
 993 001e 7B69     		ldr	r3, [r7, #20]
 994 0020 9B68     		ldr	r3, [r3, #8]
 995 0022 3B61     		str	r3, [r7, #16]
 948:Generated_Source\PSoC6/CapSense_Filter.c ****     ptrSensor = &ptrSensor[sensorId];
 996              		.loc 1 948 0
 997 0024 3A68     		ldr	r2, [r7]
 998 0026 1346     		mov	r3, r2
 999 0028 9B00     		lsls	r3, r3, #2
 1000 002a 1344     		add	r3, r3, r2
 1001 002c 5B00     		lsls	r3, r3, #1
 1002 002e 1A46     		mov	r2, r3
 1003 0030 3B69     		ldr	r3, [r7, #16]
 1004 0032 1344     		add	r3, r3, r2
 1005 0034 3B61     		str	r3, [r7, #16]
 949:Generated_Source\PSoC6/CapSense_Filter.c **** 
 950:Generated_Source\PSoC6/CapSense_Filter.c ****     /* Find pointer to specified filter sensor object */
 951:Generated_Source\PSoC6/CapSense_Filter.c ****     ptrFilterHistObj.ptr = ptrWidget->ptr2FltrHistory;
 1006              		.loc 1 951 0
 1007 0036 7B69     		ldr	r3, [r7, #20]
 1008 0038 DB68     		ldr	r3, [r3, #12]
 1009 003a FB60     		str	r3, [r7, #12]
 952:Generated_Source\PSoC6/CapSense_Filter.c **** 
 953:Generated_Source\PSoC6/CapSense_Filter.c ****     if ((CapSense_WD_TYPE_ENUM)ptrWidget->wdgtType != CapSense_WD_PROXIMITY_E)
 1010              		.loc 1 953 0
 1011 003c 7B69     		ldr	r3, [r7, #20]
 1012 003e 9B7E     		ldrb	r3, [r3, #26]	@ zero_extendqisi2
 1013 0040 062B     		cmp	r3, #6
 1014 0042 07D0     		beq	.L51
 954:Generated_Source\PSoC6/CapSense_Filter.c ****     {
 955:Generated_Source\PSoC6/CapSense_Filter.c ****         #if (CapSense_REGULAR_SENSOR_EN)
 956:Generated_Source\PSoC6/CapSense_Filter.c ****             ptrFilterHistObj.ptrRegular = &ptrFilterHistObj.ptrRegular[sensorId];
 1015              		.loc 1 956 0
 1016 0044 F968     		ldr	r1, [r7, #12]
 1017 0046 3A68     		ldr	r2, [r7]
 1018 0048 1346     		mov	r3, r2
 1019 004a 9B00     		lsls	r3, r3, #2
 1020 004c 1344     		add	r3, r3, r2
 1021 004e 5B00     		lsls	r3, r3, #1
 1022 0050 0B44     		add	r3, r3, r1
 1023 0052 FB60     		str	r3, [r7, #12]
 1024              	.L51:
 957:Generated_Source\PSoC6/CapSense_Filter.c ****         #endif /* (CapSense_REGULAR_SENSOR_EN) */
 958:Generated_Source\PSoC6/CapSense_Filter.c ****     }
 959:Generated_Source\PSoC6/CapSense_Filter.c ****     else
 960:Generated_Source\PSoC6/CapSense_Filter.c ****     {
ARM GAS  C:\Users\ikomb\AppData\Local\Temp\cclK6Blf.s 			page 36


 961:Generated_Source\PSoC6/CapSense_Filter.c ****         #if (CapSense_PROXIMITY_SENSOR_EN)
 962:Generated_Source\PSoC6/CapSense_Filter.c ****             ptrFilterHistObj.ptrProx = &ptrFilterHistObj.ptrProx[sensorId];
 963:Generated_Source\PSoC6/CapSense_Filter.c ****         #endif /* (CapSense_PROXIMITY_SENSOR_EN) */
 964:Generated_Source\PSoC6/CapSense_Filter.c ****     }
 965:Generated_Source\PSoC6/CapSense_Filter.c **** 
 966:Generated_Source\PSoC6/CapSense_Filter.c ****     CapSense_InitializeMedianInternal(ptrFilterHistObj, ptrSensor, (uint32)ptrWidget->wdgtType);
 1025              		.loc 1 966 0
 1026 0054 7B69     		ldr	r3, [r7, #20]
 1027 0056 9B7E     		ldrb	r3, [r3, #26]	@ zero_extendqisi2
 1028 0058 1A46     		mov	r2, r3
 1029 005a 3969     		ldr	r1, [r7, #16]
 1030 005c F868     		ldr	r0, [r7, #12]
 1031 005e FFF7FEFF 		bl	CapSense_InitializeMedianInternal
 967:Generated_Source\PSoC6/CapSense_Filter.c **** }
 1032              		.loc 1 967 0
 1033 0062 00BF     		nop
 1034 0064 1837     		adds	r7, r7, #24
 1035              		.cfi_def_cfa_offset 8
 1036 0066 BD46     		mov	sp, r7
 1037              		.cfi_def_cfa_register 13
 1038              		@ sp needed
 1039 0068 80BD     		pop	{r7, pc}
 1040              	.L53:
 1041 006a 00BF     		.align	2
 1042              	.L52:
 1043 006c 00000000 		.word	CapSense_dsFlash
 1044              		.cfi_endproc
 1045              	.LFE137:
 1046              		.size	CapSense_InitializeMedian, .-CapSense_InitializeMedian
 1047              		.section	.text.CapSense_RunMedian,"ax",%progbits
 1048              		.align	2
 1049              		.global	CapSense_RunMedian
 1050              		.thumb
 1051              		.thumb_func
 1052              		.type	CapSense_RunMedian, %function
 1053              	CapSense_RunMedian:
 1054              	.LFB138:
 968:Generated_Source\PSoC6/CapSense_Filter.c **** 
 969:Generated_Source\PSoC6/CapSense_Filter.c **** 
 970:Generated_Source\PSoC6/CapSense_Filter.c **** /*******************************************************************************
 971:Generated_Source\PSoC6/CapSense_Filter.c **** * Function Name: CapSense_RunMedian
 972:Generated_Source\PSoC6/CapSense_Filter.c **** ****************************************************************************//**
 973:Generated_Source\PSoC6/CapSense_Filter.c **** *
 974:Generated_Source\PSoC6/CapSense_Filter.c **** * \brief    Executes the Median filter algorithm on a sensor indicated by an input
 975:Generated_Source\PSoC6/CapSense_Filter.c **** *           parameter.
 976:Generated_Source\PSoC6/CapSense_Filter.c **** *
 977:Generated_Source\PSoC6/CapSense_Filter.c **** * \details  Executes the Median filter algorithm on a sensor indicated by an input
 978:Generated_Source\PSoC6/CapSense_Filter.c **** *           parameter.
 979:Generated_Source\PSoC6/CapSense_Filter.c **** *
 980:Generated_Source\PSoC6/CapSense_Filter.c **** * \param    widgetId Specifies the ID number of the widget.
 981:Generated_Source\PSoC6/CapSense_Filter.c **** * \param    sensorId Specifies the ID number of the sensor in the widget.
 982:Generated_Source\PSoC6/CapSense_Filter.c **** *
 983:Generated_Source\PSoC6/CapSense_Filter.c **** *******************************************************************************/
 984:Generated_Source\PSoC6/CapSense_Filter.c **** void CapSense_RunMedian(uint32 widgetId, uint32 sensorId)
 985:Generated_Source\PSoC6/CapSense_Filter.c **** {
 1055              		.loc 1 985 0
 1056              		.cfi_startproc
ARM GAS  C:\Users\ikomb\AppData\Local\Temp\cclK6Blf.s 			page 37


 1057              		@ args = 0, pretend = 0, frame = 24
 1058              		@ frame_needed = 1, uses_anonymous_args = 0
 1059 0000 80B5     		push	{r7, lr}
 1060              		.cfi_def_cfa_offset 8
 1061              		.cfi_offset 7, -8
 1062              		.cfi_offset 14, -4
 1063 0002 86B0     		sub	sp, sp, #24
 1064              		.cfi_def_cfa_offset 32
 1065 0004 00AF     		add	r7, sp, #0
 1066              		.cfi_def_cfa_register 7
 1067 0006 7860     		str	r0, [r7, #4]
 1068 0008 3960     		str	r1, [r7]
 986:Generated_Source\PSoC6/CapSense_Filter.c ****     CapSense_FLASH_WD_STRUCT const *ptrWidget = &CapSense_dsFlash.wdgtArray[widgetId];
 1069              		.loc 1 986 0
 1070 000a 7A68     		ldr	r2, [r7, #4]
 1071 000c 1346     		mov	r3, r2
 1072 000e 5B00     		lsls	r3, r3, #1
 1073 0010 1344     		add	r3, r3, r2
 1074 0012 1B01     		lsls	r3, r3, #4
 1075 0014 154A     		ldr	r2, .L56
 1076 0016 1344     		add	r3, r3, r2
 1077 0018 7B61     		str	r3, [r7, #20]
 987:Generated_Source\PSoC6/CapSense_Filter.c ****     CapSense_RAM_SNS_STRUCT *ptrSensor = NULL;
 1078              		.loc 1 987 0
 1079 001a 0023     		movs	r3, #0
 1080 001c 3B61     		str	r3, [r7, #16]
 988:Generated_Source\PSoC6/CapSense_Filter.c ****     CapSense_PTR_FILTER_VARIANT ptrFilterHistObj;
 989:Generated_Source\PSoC6/CapSense_Filter.c **** 
 990:Generated_Source\PSoC6/CapSense_Filter.c ****     /* Find pointer to specified sensor object */
 991:Generated_Source\PSoC6/CapSense_Filter.c ****     ptrSensor = ptrWidget->ptr2SnsRam;
 1081              		.loc 1 991 0
 1082 001e 7B69     		ldr	r3, [r7, #20]
 1083 0020 9B68     		ldr	r3, [r3, #8]
 1084 0022 3B61     		str	r3, [r7, #16]
 992:Generated_Source\PSoC6/CapSense_Filter.c ****     ptrSensor = &ptrSensor[sensorId];
 1085              		.loc 1 992 0
 1086 0024 3A68     		ldr	r2, [r7]
 1087 0026 1346     		mov	r3, r2
 1088 0028 9B00     		lsls	r3, r3, #2
 1089 002a 1344     		add	r3, r3, r2
 1090 002c 5B00     		lsls	r3, r3, #1
 1091 002e 1A46     		mov	r2, r3
 1092 0030 3B69     		ldr	r3, [r7, #16]
 1093 0032 1344     		add	r3, r3, r2
 1094 0034 3B61     		str	r3, [r7, #16]
 993:Generated_Source\PSoC6/CapSense_Filter.c **** 
 994:Generated_Source\PSoC6/CapSense_Filter.c ****     /* Find pointer to specified filter sensor object */
 995:Generated_Source\PSoC6/CapSense_Filter.c ****     ptrFilterHistObj.ptr = ptrWidget->ptr2FltrHistory;
 1095              		.loc 1 995 0
 1096 0036 7B69     		ldr	r3, [r7, #20]
 1097 0038 DB68     		ldr	r3, [r3, #12]
 1098 003a FB60     		str	r3, [r7, #12]
 996:Generated_Source\PSoC6/CapSense_Filter.c **** 
 997:Generated_Source\PSoC6/CapSense_Filter.c ****     if ((CapSense_WD_TYPE_ENUM)ptrWidget->wdgtType != CapSense_WD_PROXIMITY_E)
 1099              		.loc 1 997 0
 1100 003c 7B69     		ldr	r3, [r7, #20]
 1101 003e 9B7E     		ldrb	r3, [r3, #26]	@ zero_extendqisi2
ARM GAS  C:\Users\ikomb\AppData\Local\Temp\cclK6Blf.s 			page 38


 1102 0040 062B     		cmp	r3, #6
 1103 0042 07D0     		beq	.L55
 998:Generated_Source\PSoC6/CapSense_Filter.c ****     {
 999:Generated_Source\PSoC6/CapSense_Filter.c ****         #if (CapSense_REGULAR_SENSOR_EN)
1000:Generated_Source\PSoC6/CapSense_Filter.c ****             ptrFilterHistObj.ptrRegular = &ptrFilterHistObj.ptrRegular[sensorId];
 1104              		.loc 1 1000 0
 1105 0044 F968     		ldr	r1, [r7, #12]
 1106 0046 3A68     		ldr	r2, [r7]
 1107 0048 1346     		mov	r3, r2
 1108 004a 9B00     		lsls	r3, r3, #2
 1109 004c 1344     		add	r3, r3, r2
 1110 004e 5B00     		lsls	r3, r3, #1
 1111 0050 0B44     		add	r3, r3, r1
 1112 0052 FB60     		str	r3, [r7, #12]
 1113              	.L55:
1001:Generated_Source\PSoC6/CapSense_Filter.c ****         #endif /* (CapSense_REGULAR_SENSOR_EN) */
1002:Generated_Source\PSoC6/CapSense_Filter.c ****     }
1003:Generated_Source\PSoC6/CapSense_Filter.c ****     else
1004:Generated_Source\PSoC6/CapSense_Filter.c ****     {
1005:Generated_Source\PSoC6/CapSense_Filter.c ****         #if (CapSense_PROXIMITY_SENSOR_EN)
1006:Generated_Source\PSoC6/CapSense_Filter.c ****             ptrFilterHistObj.ptrProx = &ptrFilterHistObj.ptrProx[sensorId];
1007:Generated_Source\PSoC6/CapSense_Filter.c ****         #endif /* (CapSense_PROXIMITY_SENSOR_EN) */
1008:Generated_Source\PSoC6/CapSense_Filter.c ****     }
1009:Generated_Source\PSoC6/CapSense_Filter.c **** 
1010:Generated_Source\PSoC6/CapSense_Filter.c ****     CapSense_RunMedianInternal(ptrFilterHistObj, ptrSensor, (uint32)ptrWidget->wdgtType);
 1114              		.loc 1 1010 0
 1115 0054 7B69     		ldr	r3, [r7, #20]
 1116 0056 9B7E     		ldrb	r3, [r3, #26]	@ zero_extendqisi2
 1117 0058 1A46     		mov	r2, r3
 1118 005a 3969     		ldr	r1, [r7, #16]
 1119 005c F868     		ldr	r0, [r7, #12]
 1120 005e FFF7FEFF 		bl	CapSense_RunMedianInternal
1011:Generated_Source\PSoC6/CapSense_Filter.c **** }
 1121              		.loc 1 1011 0
 1122 0062 00BF     		nop
 1123 0064 1837     		adds	r7, r7, #24
 1124              		.cfi_def_cfa_offset 8
 1125 0066 BD46     		mov	sp, r7
 1126              		.cfi_def_cfa_register 13
 1127              		@ sp needed
 1128 0068 80BD     		pop	{r7, pc}
 1129              	.L57:
 1130 006a 00BF     		.align	2
 1131              	.L56:
 1132 006c 00000000 		.word	CapSense_dsFlash
 1133              		.cfi_endproc
 1134              	.LFE138:
 1135              		.size	CapSense_RunMedian, .-CapSense_RunMedian
 1136              		.section	.text.CapSense_InitializeMedianInternal,"ax",%progbits
 1137              		.align	2
 1138              		.global	CapSense_InitializeMedianInternal
 1139              		.thumb
 1140              		.thumb_func
 1141              		.type	CapSense_InitializeMedianInternal, %function
 1142              	CapSense_InitializeMedianInternal:
 1143              	.LFB139:
1012:Generated_Source\PSoC6/CapSense_Filter.c **** 
ARM GAS  C:\Users\ikomb\AppData\Local\Temp\cclK6Blf.s 			page 39


1013:Generated_Source\PSoC6/CapSense_Filter.c **** 
1014:Generated_Source\PSoC6/CapSense_Filter.c **** /*******************************************************************************
1015:Generated_Source\PSoC6/CapSense_Filter.c **** * Function Name: CapSense_InitializeMedianInternal
1016:Generated_Source\PSoC6/CapSense_Filter.c **** ****************************************************************************//**
1017:Generated_Source\PSoC6/CapSense_Filter.c **** *
1018:Generated_Source\PSoC6/CapSense_Filter.c **** * \brief    Initializes the Median filter.
1019:Generated_Source\PSoC6/CapSense_Filter.c **** *
1020:Generated_Source\PSoC6/CapSense_Filter.c **** * \details  Initializes the Median filter.
1021:Generated_Source\PSoC6/CapSense_Filter.c **** *
1022:Generated_Source\PSoC6/CapSense_Filter.c **** * \param    ptrFilterHistObj The pointer to the filter RAM object of the sensor.
1023:Generated_Source\PSoC6/CapSense_Filter.c **** * \param    ptrSensorObj     The pointer to the sensor RAM object of the sensor.
1024:Generated_Source\PSoC6/CapSense_Filter.c **** * \param    wdType           Specifies the type of a widget.
1025:Generated_Source\PSoC6/CapSense_Filter.c **** *
1026:Generated_Source\PSoC6/CapSense_Filter.c **** *******************************************************************************/
1027:Generated_Source\PSoC6/CapSense_Filter.c **** void CapSense_InitializeMedianInternal(CapSense_PTR_FILTER_VARIANT ptrFilterHistObj,
1028:Generated_Source\PSoC6/CapSense_Filter.c ****                                                CapSense_RAM_SNS_STRUCT *ptrSensorObj, uint32 wdType
1029:Generated_Source\PSoC6/CapSense_Filter.c **** {
 1144              		.loc 1 1029 0
 1145              		.cfi_startproc
 1146              		@ args = 0, pretend = 0, frame = 24
 1147              		@ frame_needed = 1, uses_anonymous_args = 0
 1148              		@ link register save eliminated.
 1149 0000 80B4     		push	{r7}
 1150              		.cfi_def_cfa_offset 4
 1151              		.cfi_offset 7, -4
 1152 0002 87B0     		sub	sp, sp, #28
 1153              		.cfi_def_cfa_offset 32
 1154 0004 00AF     		add	r7, sp, #0
 1155              		.cfi_def_cfa_register 7
 1156 0006 F860     		str	r0, [r7, #12]
 1157 0008 B960     		str	r1, [r7, #8]
 1158 000a 7A60     		str	r2, [r7, #4]
1030:Generated_Source\PSoC6/CapSense_Filter.c ****     uint32 freqChannel;
1031:Generated_Source\PSoC6/CapSense_Filter.c **** 
1032:Generated_Source\PSoC6/CapSense_Filter.c ****     for(freqChannel = CapSense_NUM_SCAN_FREQS; freqChannel-- > 0u;)
 1159              		.loc 1 1032 0
 1160 000c 0123     		movs	r3, #1
 1161 000e 7B61     		str	r3, [r7, #20]
 1162 0010 1EE0     		b	.L59
 1163              	.L60:
1033:Generated_Source\PSoC6/CapSense_Filter.c ****     {
1034:Generated_Source\PSoC6/CapSense_Filter.c ****         if ((CapSense_WD_TYPE_ENUM)wdType != CapSense_WD_PROXIMITY_E)
 1164              		.loc 1 1034 0
 1165 0012 7B68     		ldr	r3, [r7, #4]
 1166 0014 DBB2     		uxtb	r3, r3
 1167 0016 062B     		cmp	r3, #6
 1168 0018 1AD0     		beq	.L59
1035:Generated_Source\PSoC6/CapSense_Filter.c ****         {
1036:Generated_Source\PSoC6/CapSense_Filter.c ****             #if (CapSense_REGULAR_SENSOR_EN && CapSense_REGULAR_RC_MEDIAN_FILTER_EN)
1037:Generated_Source\PSoC6/CapSense_Filter.c ****                 ptrFilterHistObj.ptrRegular->regularChannel[freqChannel].medHistory[0u] = ptrSensor
 1169              		.loc 1 1037 0
 1170 001a F968     		ldr	r1, [r7, #12]
 1171 001c BB68     		ldr	r3, [r7, #8]
 1172 001e 7A69     		ldr	r2, [r7, #20]
 1173 0020 33F81200 		ldrh	r0, [r3, r2, lsl #1]
 1174 0024 7A69     		ldr	r2, [r7, #20]
 1175 0026 1346     		mov	r3, r2
ARM GAS  C:\Users\ikomb\AppData\Local\Temp\cclK6Blf.s 			page 40


 1176 0028 9B00     		lsls	r3, r3, #2
 1177 002a 1344     		add	r3, r3, r2
 1178 002c 5B00     		lsls	r3, r3, #1
 1179 002e 0B44     		add	r3, r3, r1
 1180 0030 0246     		mov	r2, r0	@ movhi
 1181 0032 1A80     		strh	r2, [r3]	@ movhi
1038:Generated_Source\PSoC6/CapSense_Filter.c ****                 ptrFilterHistObj.ptrRegular->regularChannel[freqChannel].medHistory[1u] = ptrSensor
 1182              		.loc 1 1038 0
 1183 0034 F968     		ldr	r1, [r7, #12]
 1184 0036 BB68     		ldr	r3, [r7, #8]
 1185 0038 7A69     		ldr	r2, [r7, #20]
 1186 003a 33F81200 		ldrh	r0, [r3, r2, lsl #1]
 1187 003e 7A69     		ldr	r2, [r7, #20]
 1188 0040 1346     		mov	r3, r2
 1189 0042 9B00     		lsls	r3, r3, #2
 1190 0044 1344     		add	r3, r3, r2
 1191 0046 5B00     		lsls	r3, r3, #1
 1192 0048 0B44     		add	r3, r3, r1
 1193 004a 0233     		adds	r3, r3, #2
 1194 004c 0246     		mov	r2, r0	@ movhi
 1195 004e 1A80     		strh	r2, [r3]	@ movhi
 1196              	.L59:
1032:Generated_Source\PSoC6/CapSense_Filter.c ****     {
 1197              		.loc 1 1032 0 discriminator 1
 1198 0050 7B69     		ldr	r3, [r7, #20]
 1199 0052 5A1E     		subs	r2, r3, #1
 1200 0054 7A61     		str	r2, [r7, #20]
 1201 0056 002B     		cmp	r3, #0
 1202 0058 DBD1     		bne	.L60
1039:Generated_Source\PSoC6/CapSense_Filter.c ****             #endif /* (CapSense_REGULAR_SENSOR_EN) */
1040:Generated_Source\PSoC6/CapSense_Filter.c ****         }
1041:Generated_Source\PSoC6/CapSense_Filter.c ****         else
1042:Generated_Source\PSoC6/CapSense_Filter.c ****         {
1043:Generated_Source\PSoC6/CapSense_Filter.c ****             #if (CapSense_PROXIMITY_SENSOR_EN && CapSense_PROX_RC_MEDIAN_FILTER_EN)
1044:Generated_Source\PSoC6/CapSense_Filter.c ****                 ptrFilterHistObj.ptrProx->proxChannel[freqChannel].medHistory[0u] = ptrSensorObj->r
1045:Generated_Source\PSoC6/CapSense_Filter.c ****                 ptrFilterHistObj.ptrProx->proxChannel[freqChannel].medHistory[1u] = ptrSensorObj->r
1046:Generated_Source\PSoC6/CapSense_Filter.c ****             #endif /* (CapSense_PROXIMITY_SENSOR_EN) */
1047:Generated_Source\PSoC6/CapSense_Filter.c ****         }
1048:Generated_Source\PSoC6/CapSense_Filter.c ****     }
1049:Generated_Source\PSoC6/CapSense_Filter.c **** }
 1203              		.loc 1 1049 0
 1204 005a 00BF     		nop
 1205 005c 1C37     		adds	r7, r7, #28
 1206              		.cfi_def_cfa_offset 4
 1207 005e BD46     		mov	sp, r7
 1208              		.cfi_def_cfa_register 13
 1209              		@ sp needed
 1210 0060 5DF8047B 		ldr	r7, [sp], #4
 1211              		.cfi_restore 7
 1212              		.cfi_def_cfa_offset 0
 1213 0064 7047     		bx	lr
 1214              		.cfi_endproc
 1215              	.LFE139:
 1216              		.size	CapSense_InitializeMedianInternal, .-CapSense_InitializeMedianInternal
 1217 0066 00BF     		.section	.text.CapSense_RunMedianInternal,"ax",%progbits
 1218              		.align	2
 1219              		.global	CapSense_RunMedianInternal
ARM GAS  C:\Users\ikomb\AppData\Local\Temp\cclK6Blf.s 			page 41


 1220              		.thumb
 1221              		.thumb_func
 1222              		.type	CapSense_RunMedianInternal, %function
 1223              	CapSense_RunMedianInternal:
 1224              	.LFB140:
1050:Generated_Source\PSoC6/CapSense_Filter.c **** 
1051:Generated_Source\PSoC6/CapSense_Filter.c **** 
1052:Generated_Source\PSoC6/CapSense_Filter.c **** /*******************************************************************************
1053:Generated_Source\PSoC6/CapSense_Filter.c **** * Function Name: CapSense_RunMedianInternal
1054:Generated_Source\PSoC6/CapSense_Filter.c **** ****************************************************************************//**
1055:Generated_Source\PSoC6/CapSense_Filter.c **** *
1056:Generated_Source\PSoC6/CapSense_Filter.c **** * \brief    Runs the Median filter.
1057:Generated_Source\PSoC6/CapSense_Filter.c **** *
1058:Generated_Source\PSoC6/CapSense_Filter.c **** * \details  Runs the Median filter.
1059:Generated_Source\PSoC6/CapSense_Filter.c **** *
1060:Generated_Source\PSoC6/CapSense_Filter.c **** * \param    ptrFilterHistObj The pointer to the filter RAM object of the sensor.
1061:Generated_Source\PSoC6/CapSense_Filter.c **** * \param    ptrSensorObj     The pointer to the sensor RAM object of the sensor.
1062:Generated_Source\PSoC6/CapSense_Filter.c **** * \param    wdType           Specifies the type of a widget.
1063:Generated_Source\PSoC6/CapSense_Filter.c **** *
1064:Generated_Source\PSoC6/CapSense_Filter.c **** *******************************************************************************/
1065:Generated_Source\PSoC6/CapSense_Filter.c **** void CapSense_RunMedianInternal(CapSense_PTR_FILTER_VARIANT ptrFilterHistObj,
1066:Generated_Source\PSoC6/CapSense_Filter.c ****                                         CapSense_RAM_SNS_STRUCT *ptrSensorObj, uint32 wdType)
1067:Generated_Source\PSoC6/CapSense_Filter.c **** {
 1225              		.loc 1 1067 0
 1226              		.cfi_startproc
 1227              		@ args = 0, pretend = 0, frame = 24
 1228              		@ frame_needed = 1, uses_anonymous_args = 0
 1229 0000 90B5     		push	{r4, r7, lr}
 1230              		.cfi_def_cfa_offset 12
 1231              		.cfi_offset 4, -12
 1232              		.cfi_offset 7, -8
 1233              		.cfi_offset 14, -4
 1234 0002 87B0     		sub	sp, sp, #28
 1235              		.cfi_def_cfa_offset 40
 1236 0004 00AF     		add	r7, sp, #0
 1237              		.cfi_def_cfa_register 7
 1238 0006 F860     		str	r0, [r7, #12]
 1239 0008 B960     		str	r1, [r7, #8]
 1240 000a 7A60     		str	r2, [r7, #4]
1068:Generated_Source\PSoC6/CapSense_Filter.c ****     uint32 freqChannel;
1069:Generated_Source\PSoC6/CapSense_Filter.c **** 
1070:Generated_Source\PSoC6/CapSense_Filter.c ****     #if ((CapSense_REGULAR_SENSOR_EN && CapSense_REGULAR_RC_MEDIAN_FILTER_EN) || \
1071:Generated_Source\PSoC6/CapSense_Filter.c ****          (CapSense_PROXIMITY_SENSOR_EN && CapSense_PROX_RC_MEDIAN_FILTER_EN))
1072:Generated_Source\PSoC6/CapSense_Filter.c ****         uint32 temp;
1073:Generated_Source\PSoC6/CapSense_Filter.c ****     #endif
1074:Generated_Source\PSoC6/CapSense_Filter.c **** 
1075:Generated_Source\PSoC6/CapSense_Filter.c ****     for(freqChannel = CapSense_NUM_SCAN_FREQS; freqChannel-- > 0u;)
 1241              		.loc 1 1075 0
 1242 000c 0123     		movs	r3, #1
 1243 000e 7B61     		str	r3, [r7, #20]
 1244 0010 44E0     		b	.L62
 1245              	.L63:
1076:Generated_Source\PSoC6/CapSense_Filter.c ****     {
1077:Generated_Source\PSoC6/CapSense_Filter.c ****         if ((CapSense_WD_TYPE_ENUM)wdType != CapSense_WD_PROXIMITY_E)
 1246              		.loc 1 1077 0
 1247 0012 7B68     		ldr	r3, [r7, #4]
 1248 0014 DBB2     		uxtb	r3, r3
ARM GAS  C:\Users\ikomb\AppData\Local\Temp\cclK6Blf.s 			page 42


 1249 0016 062B     		cmp	r3, #6
 1250 0018 40D0     		beq	.L62
1078:Generated_Source\PSoC6/CapSense_Filter.c ****         {
1079:Generated_Source\PSoC6/CapSense_Filter.c ****             #if (CapSense_REGULAR_SENSOR_EN && CapSense_REGULAR_RC_MEDIAN_FILTER_EN)
1080:Generated_Source\PSoC6/CapSense_Filter.c ****                 temp = CapSense_FtMedian((uint32)ptrSensorObj->raw[freqChannel],\
 1251              		.loc 1 1080 0
 1252 001a BB68     		ldr	r3, [r7, #8]
 1253 001c 7A69     		ldr	r2, [r7, #20]
 1254 001e 33F81230 		ldrh	r3, [r3, r2, lsl #1]
 1255 0022 1846     		mov	r0, r3
1081:Generated_Source\PSoC6/CapSense_Filter.c ****                                                  (uint32)ptrFilterHistObj.ptrRegular->regularChanne
 1256              		.loc 1 1081 0
 1257 0024 F968     		ldr	r1, [r7, #12]
 1258 0026 7A69     		ldr	r2, [r7, #20]
 1259 0028 1346     		mov	r3, r2
 1260 002a 9B00     		lsls	r3, r3, #2
 1261 002c 1344     		add	r3, r3, r2
 1262 002e 5B00     		lsls	r3, r3, #1
 1263 0030 0B44     		add	r3, r3, r1
 1264 0032 1B88     		ldrh	r3, [r3]
1080:Generated_Source\PSoC6/CapSense_Filter.c ****                                                  (uint32)ptrFilterHistObj.ptrRegular->regularChanne
 1265              		.loc 1 1080 0
 1266 0034 1C46     		mov	r4, r3
1082:Generated_Source\PSoC6/CapSense_Filter.c ****                                                  (uint32)ptrFilterHistObj.ptrRegular->regularChanne
 1267              		.loc 1 1082 0
 1268 0036 F968     		ldr	r1, [r7, #12]
 1269 0038 7A69     		ldr	r2, [r7, #20]
 1270 003a 1346     		mov	r3, r2
 1271 003c 9B00     		lsls	r3, r3, #2
 1272 003e 1344     		add	r3, r3, r2
 1273 0040 5B00     		lsls	r3, r3, #1
 1274 0042 0B44     		add	r3, r3, r1
 1275 0044 0233     		adds	r3, r3, #2
 1276 0046 1B88     		ldrh	r3, [r3]
1080:Generated_Source\PSoC6/CapSense_Filter.c ****                                                  (uint32)ptrFilterHistObj.ptrRegular->regularChanne
 1277              		.loc 1 1080 0
 1278 0048 1A46     		mov	r2, r3
 1279 004a 2146     		mov	r1, r4
 1280 004c FFF7FEFF 		bl	CapSense_FtMedian
 1281 0050 3861     		str	r0, [r7, #16]
1083:Generated_Source\PSoC6/CapSense_Filter.c ****                 ptrFilterHistObj.ptrRegular->regularChannel[freqChannel].medHistory[1u] = \
 1282              		.loc 1 1083 0
 1283 0052 F968     		ldr	r1, [r7, #12]
1084:Generated_Source\PSoC6/CapSense_Filter.c ****                 ptrFilterHistObj.ptrRegular->regularChannel[freqChannel].medHistory[0u];
 1284              		.loc 1 1084 0
 1285 0054 F868     		ldr	r0, [r7, #12]
 1286 0056 7A69     		ldr	r2, [r7, #20]
 1287 0058 1346     		mov	r3, r2
 1288 005a 9B00     		lsls	r3, r3, #2
 1289 005c 1344     		add	r3, r3, r2
 1290 005e 5B00     		lsls	r3, r3, #1
 1291 0060 0344     		add	r3, r3, r0
 1292 0062 1888     		ldrh	r0, [r3]
1083:Generated_Source\PSoC6/CapSense_Filter.c ****                 ptrFilterHistObj.ptrRegular->regularChannel[freqChannel].medHistory[1u] = \
 1293              		.loc 1 1083 0
 1294 0064 7A69     		ldr	r2, [r7, #20]
 1295 0066 1346     		mov	r3, r2
ARM GAS  C:\Users\ikomb\AppData\Local\Temp\cclK6Blf.s 			page 43


 1296 0068 9B00     		lsls	r3, r3, #2
 1297 006a 1344     		add	r3, r3, r2
 1298 006c 5B00     		lsls	r3, r3, #1
 1299 006e 0B44     		add	r3, r3, r1
 1300 0070 0233     		adds	r3, r3, #2
 1301 0072 0246     		mov	r2, r0	@ movhi
 1302 0074 1A80     		strh	r2, [r3]	@ movhi
1085:Generated_Source\PSoC6/CapSense_Filter.c ****                 ptrFilterHistObj.ptrRegular->regularChannel[freqChannel].medHistory[0u] = ptrSensor
 1303              		.loc 1 1085 0
 1304 0076 F968     		ldr	r1, [r7, #12]
 1305 0078 BB68     		ldr	r3, [r7, #8]
 1306 007a 7A69     		ldr	r2, [r7, #20]
 1307 007c 33F81200 		ldrh	r0, [r3, r2, lsl #1]
 1308 0080 7A69     		ldr	r2, [r7, #20]
 1309 0082 1346     		mov	r3, r2
 1310 0084 9B00     		lsls	r3, r3, #2
 1311 0086 1344     		add	r3, r3, r2
 1312 0088 5B00     		lsls	r3, r3, #1
 1313 008a 0B44     		add	r3, r3, r1
 1314 008c 0246     		mov	r2, r0	@ movhi
 1315 008e 1A80     		strh	r2, [r3]	@ movhi
1086:Generated_Source\PSoC6/CapSense_Filter.c ****                 ptrSensorObj->raw[freqChannel] = CY_LO16(temp);
 1316              		.loc 1 1086 0
 1317 0090 3B69     		ldr	r3, [r7, #16]
 1318 0092 99B2     		uxth	r1, r3
 1319 0094 BB68     		ldr	r3, [r7, #8]
 1320 0096 7A69     		ldr	r2, [r7, #20]
 1321 0098 23F81210 		strh	r1, [r3, r2, lsl #1]	@ movhi
 1322              	.L62:
1075:Generated_Source\PSoC6/CapSense_Filter.c ****     {
 1323              		.loc 1 1075 0 discriminator 1
 1324 009c 7B69     		ldr	r3, [r7, #20]
 1325 009e 5A1E     		subs	r2, r3, #1
 1326 00a0 7A61     		str	r2, [r7, #20]
 1327 00a2 002B     		cmp	r3, #0
 1328 00a4 B5D1     		bne	.L63
1087:Generated_Source\PSoC6/CapSense_Filter.c ****             #endif /* (CapSense_REGULAR_SENSOR_EN) */
1088:Generated_Source\PSoC6/CapSense_Filter.c ****         }
1089:Generated_Source\PSoC6/CapSense_Filter.c ****         else
1090:Generated_Source\PSoC6/CapSense_Filter.c ****         {
1091:Generated_Source\PSoC6/CapSense_Filter.c ****             #if (CapSense_PROXIMITY_SENSOR_EN && CapSense_PROX_RC_MEDIAN_FILTER_EN)
1092:Generated_Source\PSoC6/CapSense_Filter.c ****                 temp = CapSense_FtMedian((uint32)ptrSensorObj->raw[freqChannel],\
1093:Generated_Source\PSoC6/CapSense_Filter.c ****                                                  (uint32)ptrFilterHistObj.ptrProx->proxChannel[freq
1094:Generated_Source\PSoC6/CapSense_Filter.c ****                                                  (uint32)ptrFilterHistObj.ptrProx->proxChannel[freq
1095:Generated_Source\PSoC6/CapSense_Filter.c ****                 ptrFilterHistObj.ptrProx->proxChannel[freqChannel].medHistory[1u] = \
1096:Generated_Source\PSoC6/CapSense_Filter.c ****                 ptrFilterHistObj.ptrProx->proxChannel[freqChannel].medHistory[0u];
1097:Generated_Source\PSoC6/CapSense_Filter.c ****                 ptrFilterHistObj.ptrProx->proxChannel[freqChannel].medHistory[0u] = ptrSensorObj->r
1098:Generated_Source\PSoC6/CapSense_Filter.c ****                 ptrSensorObj->raw[freqChannel] = CY_LO16(temp);
1099:Generated_Source\PSoC6/CapSense_Filter.c ****             #endif /* (CapSense_PROXIMITY_SENSOR_EN) */
1100:Generated_Source\PSoC6/CapSense_Filter.c ****         }
1101:Generated_Source\PSoC6/CapSense_Filter.c ****     }
1102:Generated_Source\PSoC6/CapSense_Filter.c **** }
 1329              		.loc 1 1102 0
 1330 00a6 00BF     		nop
 1331 00a8 1C37     		adds	r7, r7, #28
 1332              		.cfi_def_cfa_offset 12
 1333 00aa BD46     		mov	sp, r7
ARM GAS  C:\Users\ikomb\AppData\Local\Temp\cclK6Blf.s 			page 44


 1334              		.cfi_def_cfa_register 13
 1335              		@ sp needed
 1336 00ac 90BD     		pop	{r4, r7, pc}
 1337              		.cfi_endproc
 1338              	.LFE140:
 1339              		.size	CapSense_RunMedianInternal, .-CapSense_RunMedianInternal
 1340 00ae 00BF     		.section	.text.CapSense_InitializeAverage,"ax",%progbits
 1341              		.align	2
 1342              		.global	CapSense_InitializeAverage
 1343              		.thumb
 1344              		.thumb_func
 1345              		.type	CapSense_InitializeAverage, %function
 1346              	CapSense_InitializeAverage:
 1347              	.LFB141:
1103:Generated_Source\PSoC6/CapSense_Filter.c **** #endif /* (CapSense_REGULAR_RC_MEDIAN_FILTER_EN || CapSense_PROX_RC_MEDIAN_FILTER_EN) */
1104:Generated_Source\PSoC6/CapSense_Filter.c **** 
1105:Generated_Source\PSoC6/CapSense_Filter.c **** 
1106:Generated_Source\PSoC6/CapSense_Filter.c **** #if (CapSense_REGULAR_RC_AVERAGE_FILTER_EN || CapSense_PROX_RC_AVERAGE_FILTER_EN)
1107:Generated_Source\PSoC6/CapSense_Filter.c **** 
1108:Generated_Source\PSoC6/CapSense_Filter.c **** /*******************************************************************************
1109:Generated_Source\PSoC6/CapSense_Filter.c **** * Function Name: CapSense_InitializeAverage
1110:Generated_Source\PSoC6/CapSense_Filter.c **** ****************************************************************************//**
1111:Generated_Source\PSoC6/CapSense_Filter.c **** *
1112:Generated_Source\PSoC6/CapSense_Filter.c **** * \brief    Initializes the average filter history.
1113:Generated_Source\PSoC6/CapSense_Filter.c **** *
1114:Generated_Source\PSoC6/CapSense_Filter.c **** * \details  Initializes the average filter history.
1115:Generated_Source\PSoC6/CapSense_Filter.c **** *
1116:Generated_Source\PSoC6/CapSense_Filter.c **** * \param    widgetId Specifies the ID number of the widget.
1117:Generated_Source\PSoC6/CapSense_Filter.c **** * \param    sensorId Specifies the ID number of the sensor in the widget.
1118:Generated_Source\PSoC6/CapSense_Filter.c **** *
1119:Generated_Source\PSoC6/CapSense_Filter.c **** *******************************************************************************/
1120:Generated_Source\PSoC6/CapSense_Filter.c **** void CapSense_InitializeAverage(uint32 widgetId, uint32 sensorId)
1121:Generated_Source\PSoC6/CapSense_Filter.c **** {
 1348              		.loc 1 1121 0
 1349              		.cfi_startproc
 1350              		@ args = 0, pretend = 0, frame = 24
 1351              		@ frame_needed = 1, uses_anonymous_args = 0
 1352 0000 80B5     		push	{r7, lr}
 1353              		.cfi_def_cfa_offset 8
 1354              		.cfi_offset 7, -8
 1355              		.cfi_offset 14, -4
 1356 0002 86B0     		sub	sp, sp, #24
 1357              		.cfi_def_cfa_offset 32
 1358 0004 00AF     		add	r7, sp, #0
 1359              		.cfi_def_cfa_register 7
 1360 0006 7860     		str	r0, [r7, #4]
 1361 0008 3960     		str	r1, [r7]
1122:Generated_Source\PSoC6/CapSense_Filter.c ****     CapSense_FLASH_WD_STRUCT const *ptrWidget = &CapSense_dsFlash.wdgtArray[widgetId];
 1362              		.loc 1 1122 0
 1363 000a 7A68     		ldr	r2, [r7, #4]
 1364 000c 1346     		mov	r3, r2
 1365 000e 5B00     		lsls	r3, r3, #1
 1366 0010 1344     		add	r3, r3, r2
 1367 0012 1B01     		lsls	r3, r3, #4
 1368 0014 154A     		ldr	r2, .L66
 1369 0016 1344     		add	r3, r3, r2
 1370 0018 7B61     		str	r3, [r7, #20]
ARM GAS  C:\Users\ikomb\AppData\Local\Temp\cclK6Blf.s 			page 45


1123:Generated_Source\PSoC6/CapSense_Filter.c ****     CapSense_RAM_SNS_STRUCT *ptrSensor = NULL;
 1371              		.loc 1 1123 0
 1372 001a 0023     		movs	r3, #0
 1373 001c 3B61     		str	r3, [r7, #16]
1124:Generated_Source\PSoC6/CapSense_Filter.c ****     CapSense_PTR_FILTER_VARIANT ptrFilterHistObj;
1125:Generated_Source\PSoC6/CapSense_Filter.c **** 
1126:Generated_Source\PSoC6/CapSense_Filter.c ****     /* Find pointer to specified sensor object */
1127:Generated_Source\PSoC6/CapSense_Filter.c ****     ptrSensor = ptrWidget->ptr2SnsRam;
 1374              		.loc 1 1127 0
 1375 001e 7B69     		ldr	r3, [r7, #20]
 1376 0020 9B68     		ldr	r3, [r3, #8]
 1377 0022 3B61     		str	r3, [r7, #16]
1128:Generated_Source\PSoC6/CapSense_Filter.c ****     ptrSensor = &ptrSensor[sensorId];
 1378              		.loc 1 1128 0
 1379 0024 3A68     		ldr	r2, [r7]
 1380 0026 1346     		mov	r3, r2
 1381 0028 9B00     		lsls	r3, r3, #2
 1382 002a 1344     		add	r3, r3, r2
 1383 002c 5B00     		lsls	r3, r3, #1
 1384 002e 1A46     		mov	r2, r3
 1385 0030 3B69     		ldr	r3, [r7, #16]
 1386 0032 1344     		add	r3, r3, r2
 1387 0034 3B61     		str	r3, [r7, #16]
1129:Generated_Source\PSoC6/CapSense_Filter.c **** 
1130:Generated_Source\PSoC6/CapSense_Filter.c ****     /* Find pointer to specified filter sensor object */
1131:Generated_Source\PSoC6/CapSense_Filter.c ****     ptrFilterHistObj.ptr = ptrWidget->ptr2FltrHistory;
 1388              		.loc 1 1131 0
 1389 0036 7B69     		ldr	r3, [r7, #20]
 1390 0038 DB68     		ldr	r3, [r3, #12]
 1391 003a FB60     		str	r3, [r7, #12]
1132:Generated_Source\PSoC6/CapSense_Filter.c **** 
1133:Generated_Source\PSoC6/CapSense_Filter.c ****     if ((CapSense_WD_TYPE_ENUM)ptrWidget->wdgtType != CapSense_WD_PROXIMITY_E)
 1392              		.loc 1 1133 0
 1393 003c 7B69     		ldr	r3, [r7, #20]
 1394 003e 9B7E     		ldrb	r3, [r3, #26]	@ zero_extendqisi2
 1395 0040 062B     		cmp	r3, #6
 1396 0042 07D0     		beq	.L65
1134:Generated_Source\PSoC6/CapSense_Filter.c ****     {
1135:Generated_Source\PSoC6/CapSense_Filter.c ****         #if (CapSense_REGULAR_SENSOR_EN)
1136:Generated_Source\PSoC6/CapSense_Filter.c ****             ptrFilterHistObj.ptrRegular = &ptrFilterHistObj.ptrRegular[sensorId];
 1397              		.loc 1 1136 0
 1398 0044 F968     		ldr	r1, [r7, #12]
 1399 0046 3A68     		ldr	r2, [r7]
 1400 0048 1346     		mov	r3, r2
 1401 004a 9B00     		lsls	r3, r3, #2
 1402 004c 1344     		add	r3, r3, r2
 1403 004e 5B00     		lsls	r3, r3, #1
 1404 0050 0B44     		add	r3, r3, r1
 1405 0052 FB60     		str	r3, [r7, #12]
 1406              	.L65:
1137:Generated_Source\PSoC6/CapSense_Filter.c ****         #endif /* (CapSense_REGULAR_SENSOR_EN) */
1138:Generated_Source\PSoC6/CapSense_Filter.c ****     }
1139:Generated_Source\PSoC6/CapSense_Filter.c ****     else
1140:Generated_Source\PSoC6/CapSense_Filter.c ****     {
1141:Generated_Source\PSoC6/CapSense_Filter.c ****         #if (CapSense_PROXIMITY_SENSOR_EN)
1142:Generated_Source\PSoC6/CapSense_Filter.c ****             ptrFilterHistObj.ptrProx = &ptrFilterHistObj.ptrProx[sensorId];
1143:Generated_Source\PSoC6/CapSense_Filter.c ****         #endif /* (CapSense_PROXIMITY_SENSOR_EN) */
ARM GAS  C:\Users\ikomb\AppData\Local\Temp\cclK6Blf.s 			page 46


1144:Generated_Source\PSoC6/CapSense_Filter.c ****     }
1145:Generated_Source\PSoC6/CapSense_Filter.c **** 
1146:Generated_Source\PSoC6/CapSense_Filter.c ****     CapSense_InitializeAverageInternal(ptrFilterHistObj, ptrSensor, (uint32)ptrWidget->wdgtType);
 1407              		.loc 1 1146 0
 1408 0054 7B69     		ldr	r3, [r7, #20]
 1409 0056 9B7E     		ldrb	r3, [r3, #26]	@ zero_extendqisi2
 1410 0058 1A46     		mov	r2, r3
 1411 005a 3969     		ldr	r1, [r7, #16]
 1412 005c F868     		ldr	r0, [r7, #12]
 1413 005e FFF7FEFF 		bl	CapSense_InitializeAverageInternal
1147:Generated_Source\PSoC6/CapSense_Filter.c **** }
 1414              		.loc 1 1147 0
 1415 0062 00BF     		nop
 1416 0064 1837     		adds	r7, r7, #24
 1417              		.cfi_def_cfa_offset 8
 1418 0066 BD46     		mov	sp, r7
 1419              		.cfi_def_cfa_register 13
 1420              		@ sp needed
 1421 0068 80BD     		pop	{r7, pc}
 1422              	.L67:
 1423 006a 00BF     		.align	2
 1424              	.L66:
 1425 006c 00000000 		.word	CapSense_dsFlash
 1426              		.cfi_endproc
 1427              	.LFE141:
 1428              		.size	CapSense_InitializeAverage, .-CapSense_InitializeAverage
 1429              		.section	.text.CapSense_RunAverage,"ax",%progbits
 1430              		.align	2
 1431              		.global	CapSense_RunAverage
 1432              		.thumb
 1433              		.thumb_func
 1434              		.type	CapSense_RunAverage, %function
 1435              	CapSense_RunAverage:
 1436              	.LFB142:
1148:Generated_Source\PSoC6/CapSense_Filter.c **** 
1149:Generated_Source\PSoC6/CapSense_Filter.c **** 
1150:Generated_Source\PSoC6/CapSense_Filter.c **** /*******************************************************************************
1151:Generated_Source\PSoC6/CapSense_Filter.c **** * Function Name: CapSense_RunAverage
1152:Generated_Source\PSoC6/CapSense_Filter.c **** ****************************************************************************//**
1153:Generated_Source\PSoC6/CapSense_Filter.c **** *
1154:Generated_Source\PSoC6/CapSense_Filter.c **** * \brief    Executes the average filter algorithm on a sensor indicated by an input
1155:Generated_Source\PSoC6/CapSense_Filter.c **** *           parameter.
1156:Generated_Source\PSoC6/CapSense_Filter.c **** *
1157:Generated_Source\PSoC6/CapSense_Filter.c **** * \details  Executes the average filter algorithm on a sensor indicated by an input
1158:Generated_Source\PSoC6/CapSense_Filter.c **** *           parameter.
1159:Generated_Source\PSoC6/CapSense_Filter.c **** *
1160:Generated_Source\PSoC6/CapSense_Filter.c **** * \param    widgetId Specifies the ID number of the widget.
1161:Generated_Source\PSoC6/CapSense_Filter.c **** * \param    sensorId Specifies the ID number of the sensor in the widget.
1162:Generated_Source\PSoC6/CapSense_Filter.c **** *
1163:Generated_Source\PSoC6/CapSense_Filter.c **** *******************************************************************************/
1164:Generated_Source\PSoC6/CapSense_Filter.c **** void CapSense_RunAverage(uint32 widgetId, uint32 sensorId)
1165:Generated_Source\PSoC6/CapSense_Filter.c **** {
 1437              		.loc 1 1165 0
 1438              		.cfi_startproc
 1439              		@ args = 0, pretend = 0, frame = 24
 1440              		@ frame_needed = 1, uses_anonymous_args = 0
 1441 0000 80B5     		push	{r7, lr}
ARM GAS  C:\Users\ikomb\AppData\Local\Temp\cclK6Blf.s 			page 47


 1442              		.cfi_def_cfa_offset 8
 1443              		.cfi_offset 7, -8
 1444              		.cfi_offset 14, -4
 1445 0002 86B0     		sub	sp, sp, #24
 1446              		.cfi_def_cfa_offset 32
 1447 0004 00AF     		add	r7, sp, #0
 1448              		.cfi_def_cfa_register 7
 1449 0006 7860     		str	r0, [r7, #4]
 1450 0008 3960     		str	r1, [r7]
1166:Generated_Source\PSoC6/CapSense_Filter.c ****     CapSense_FLASH_WD_STRUCT const *ptrWidget = &CapSense_dsFlash.wdgtArray[widgetId];
 1451              		.loc 1 1166 0
 1452 000a 7A68     		ldr	r2, [r7, #4]
 1453 000c 1346     		mov	r3, r2
 1454 000e 5B00     		lsls	r3, r3, #1
 1455 0010 1344     		add	r3, r3, r2
 1456 0012 1B01     		lsls	r3, r3, #4
 1457 0014 154A     		ldr	r2, .L70
 1458 0016 1344     		add	r3, r3, r2
 1459 0018 7B61     		str	r3, [r7, #20]
1167:Generated_Source\PSoC6/CapSense_Filter.c ****     CapSense_RAM_SNS_STRUCT *ptrSensor = NULL;
 1460              		.loc 1 1167 0
 1461 001a 0023     		movs	r3, #0
 1462 001c 3B61     		str	r3, [r7, #16]
1168:Generated_Source\PSoC6/CapSense_Filter.c ****     CapSense_PTR_FILTER_VARIANT ptrFilterHistObj;
1169:Generated_Source\PSoC6/CapSense_Filter.c **** 
1170:Generated_Source\PSoC6/CapSense_Filter.c ****     /* Find pointer to specified sensor object */
1171:Generated_Source\PSoC6/CapSense_Filter.c ****     ptrSensor = ptrWidget->ptr2SnsRam;
 1463              		.loc 1 1171 0
 1464 001e 7B69     		ldr	r3, [r7, #20]
 1465 0020 9B68     		ldr	r3, [r3, #8]
 1466 0022 3B61     		str	r3, [r7, #16]
1172:Generated_Source\PSoC6/CapSense_Filter.c ****     ptrSensor = &ptrSensor[sensorId];
 1467              		.loc 1 1172 0
 1468 0024 3A68     		ldr	r2, [r7]
 1469 0026 1346     		mov	r3, r2
 1470 0028 9B00     		lsls	r3, r3, #2
 1471 002a 1344     		add	r3, r3, r2
 1472 002c 5B00     		lsls	r3, r3, #1
 1473 002e 1A46     		mov	r2, r3
 1474 0030 3B69     		ldr	r3, [r7, #16]
 1475 0032 1344     		add	r3, r3, r2
 1476 0034 3B61     		str	r3, [r7, #16]
1173:Generated_Source\PSoC6/CapSense_Filter.c **** 
1174:Generated_Source\PSoC6/CapSense_Filter.c ****     /* Find pointer to specified filter sensor object */
1175:Generated_Source\PSoC6/CapSense_Filter.c ****     ptrFilterHistObj.ptr = ptrWidget->ptr2FltrHistory;
 1477              		.loc 1 1175 0
 1478 0036 7B69     		ldr	r3, [r7, #20]
 1479 0038 DB68     		ldr	r3, [r3, #12]
 1480 003a FB60     		str	r3, [r7, #12]
1176:Generated_Source\PSoC6/CapSense_Filter.c **** 
1177:Generated_Source\PSoC6/CapSense_Filter.c ****     if ((CapSense_WD_TYPE_ENUM)ptrWidget->wdgtType != CapSense_WD_PROXIMITY_E)
 1481              		.loc 1 1177 0
 1482 003c 7B69     		ldr	r3, [r7, #20]
 1483 003e 9B7E     		ldrb	r3, [r3, #26]	@ zero_extendqisi2
 1484 0040 062B     		cmp	r3, #6
 1485 0042 07D0     		beq	.L69
1178:Generated_Source\PSoC6/CapSense_Filter.c ****     {
ARM GAS  C:\Users\ikomb\AppData\Local\Temp\cclK6Blf.s 			page 48


1179:Generated_Source\PSoC6/CapSense_Filter.c ****         #if (CapSense_REGULAR_SENSOR_EN)
1180:Generated_Source\PSoC6/CapSense_Filter.c ****             ptrFilterHistObj.ptrRegular = &ptrFilterHistObj.ptrRegular[sensorId];
 1486              		.loc 1 1180 0
 1487 0044 F968     		ldr	r1, [r7, #12]
 1488 0046 3A68     		ldr	r2, [r7]
 1489 0048 1346     		mov	r3, r2
 1490 004a 9B00     		lsls	r3, r3, #2
 1491 004c 1344     		add	r3, r3, r2
 1492 004e 5B00     		lsls	r3, r3, #1
 1493 0050 0B44     		add	r3, r3, r1
 1494 0052 FB60     		str	r3, [r7, #12]
 1495              	.L69:
1181:Generated_Source\PSoC6/CapSense_Filter.c ****         #endif /* (CapSense_REGULAR_SENSOR_EN) */
1182:Generated_Source\PSoC6/CapSense_Filter.c ****     }
1183:Generated_Source\PSoC6/CapSense_Filter.c ****     else
1184:Generated_Source\PSoC6/CapSense_Filter.c ****     {
1185:Generated_Source\PSoC6/CapSense_Filter.c ****         #if (CapSense_PROXIMITY_SENSOR_EN)
1186:Generated_Source\PSoC6/CapSense_Filter.c ****             ptrFilterHistObj.ptrProx = &ptrFilterHistObj.ptrProx[sensorId];
1187:Generated_Source\PSoC6/CapSense_Filter.c ****         #endif /* (CapSense_PROXIMITY_SENSOR_EN) */
1188:Generated_Source\PSoC6/CapSense_Filter.c ****     }
1189:Generated_Source\PSoC6/CapSense_Filter.c **** 
1190:Generated_Source\PSoC6/CapSense_Filter.c ****     CapSense_RunAverageInternal(ptrFilterHistObj, ptrSensor, (uint32)ptrWidget->wdgtType);
 1496              		.loc 1 1190 0
 1497 0054 7B69     		ldr	r3, [r7, #20]
 1498 0056 9B7E     		ldrb	r3, [r3, #26]	@ zero_extendqisi2
 1499 0058 1A46     		mov	r2, r3
 1500 005a 3969     		ldr	r1, [r7, #16]
 1501 005c F868     		ldr	r0, [r7, #12]
 1502 005e FFF7FEFF 		bl	CapSense_RunAverageInternal
1191:Generated_Source\PSoC6/CapSense_Filter.c **** }
 1503              		.loc 1 1191 0
 1504 0062 00BF     		nop
 1505 0064 1837     		adds	r7, r7, #24
 1506              		.cfi_def_cfa_offset 8
 1507 0066 BD46     		mov	sp, r7
 1508              		.cfi_def_cfa_register 13
 1509              		@ sp needed
 1510 0068 80BD     		pop	{r7, pc}
 1511              	.L71:
 1512 006a 00BF     		.align	2
 1513              	.L70:
 1514 006c 00000000 		.word	CapSense_dsFlash
 1515              		.cfi_endproc
 1516              	.LFE142:
 1517              		.size	CapSense_RunAverage, .-CapSense_RunAverage
 1518              		.section	.text.CapSense_InitializeAverageInternal,"ax",%progbits
 1519              		.align	2
 1520              		.global	CapSense_InitializeAverageInternal
 1521              		.thumb
 1522              		.thumb_func
 1523              		.type	CapSense_InitializeAverageInternal, %function
 1524              	CapSense_InitializeAverageInternal:
 1525              	.LFB143:
1192:Generated_Source\PSoC6/CapSense_Filter.c **** 
1193:Generated_Source\PSoC6/CapSense_Filter.c **** 
1194:Generated_Source\PSoC6/CapSense_Filter.c **** /*******************************************************************************
1195:Generated_Source\PSoC6/CapSense_Filter.c **** * Function Name: CapSense_InitializeAverageInternal
ARM GAS  C:\Users\ikomb\AppData\Local\Temp\cclK6Blf.s 			page 49


1196:Generated_Source\PSoC6/CapSense_Filter.c **** ****************************************************************************//**
1197:Generated_Source\PSoC6/CapSense_Filter.c **** *
1198:Generated_Source\PSoC6/CapSense_Filter.c **** * \brief    Initializes the average filter.
1199:Generated_Source\PSoC6/CapSense_Filter.c **** *
1200:Generated_Source\PSoC6/CapSense_Filter.c **** * \details  Initializes the average filter.
1201:Generated_Source\PSoC6/CapSense_Filter.c **** *
1202:Generated_Source\PSoC6/CapSense_Filter.c **** * \param    ptrFilterHistObj The pointer to the filter RAM object of the sensor.
1203:Generated_Source\PSoC6/CapSense_Filter.c **** * \param    ptrSensorObj     The pointer to the sensor RAM object of the sensor.
1204:Generated_Source\PSoC6/CapSense_Filter.c **** * \param    wdType           Specifies the type of a widget.
1205:Generated_Source\PSoC6/CapSense_Filter.c **** *
1206:Generated_Source\PSoC6/CapSense_Filter.c **** *******************************************************************************/
1207:Generated_Source\PSoC6/CapSense_Filter.c **** void CapSense_InitializeAverageInternal(CapSense_PTR_FILTER_VARIANT ptrFilterHistObj,\
1208:Generated_Source\PSoC6/CapSense_Filter.c ****                                                   CapSense_RAM_SNS_STRUCT *ptrSensorObj, uint32 wdT
1209:Generated_Source\PSoC6/CapSense_Filter.c **** {
 1526              		.loc 1 1209 0
 1527              		.cfi_startproc
 1528              		@ args = 0, pretend = 0, frame = 24
 1529              		@ frame_needed = 1, uses_anonymous_args = 0
 1530              		@ link register save eliminated.
 1531 0000 80B4     		push	{r7}
 1532              		.cfi_def_cfa_offset 4
 1533              		.cfi_offset 7, -4
 1534 0002 87B0     		sub	sp, sp, #28
 1535              		.cfi_def_cfa_offset 32
 1536 0004 00AF     		add	r7, sp, #0
 1537              		.cfi_def_cfa_register 7
 1538 0006 F860     		str	r0, [r7, #12]
 1539 0008 B960     		str	r1, [r7, #8]
 1540 000a 7A60     		str	r2, [r7, #4]
1210:Generated_Source\PSoC6/CapSense_Filter.c ****     uint32 freqChannel;
1211:Generated_Source\PSoC6/CapSense_Filter.c **** 
1212:Generated_Source\PSoC6/CapSense_Filter.c ****     for(freqChannel = CapSense_NUM_SCAN_FREQS; freqChannel-- > 0u;)
 1541              		.loc 1 1212 0
 1542 000c 0123     		movs	r3, #1
 1543 000e 7B61     		str	r3, [r7, #20]
 1544 0010 2DE0     		b	.L73
 1545              	.L74:
1213:Generated_Source\PSoC6/CapSense_Filter.c ****     {
1214:Generated_Source\PSoC6/CapSense_Filter.c ****         if ((CapSense_WD_TYPE_ENUM)wdType != CapSense_WD_PROXIMITY_E)
 1546              		.loc 1 1214 0
 1547 0012 7B68     		ldr	r3, [r7, #4]
 1548 0014 DBB2     		uxtb	r3, r3
 1549 0016 062B     		cmp	r3, #6
 1550 0018 29D0     		beq	.L73
1215:Generated_Source\PSoC6/CapSense_Filter.c ****         {
1216:Generated_Source\PSoC6/CapSense_Filter.c ****             #if (CapSense_REGULAR_SENSOR_EN && CapSense_REGULAR_RC_AVERAGE_FILTER_EN)
1217:Generated_Source\PSoC6/CapSense_Filter.c ****                 ptrFilterHistObj.ptrRegular->regularChannel[freqChannel].avgHistory[0] = ptrSensorO
 1551              		.loc 1 1217 0
 1552 001a F968     		ldr	r1, [r7, #12]
 1553 001c BB68     		ldr	r3, [r7, #8]
 1554 001e 7A69     		ldr	r2, [r7, #20]
 1555 0020 33F81200 		ldrh	r0, [r3, r2, lsl #1]
 1556 0024 7A69     		ldr	r2, [r7, #20]
 1557 0026 1346     		mov	r3, r2
 1558 0028 9B00     		lsls	r3, r3, #2
 1559 002a 1344     		add	r3, r3, r2
 1560 002c 5B00     		lsls	r3, r3, #1
ARM GAS  C:\Users\ikomb\AppData\Local\Temp\cclK6Blf.s 			page 50


 1561 002e 0B44     		add	r3, r3, r1
 1562 0030 0433     		adds	r3, r3, #4
 1563 0032 0246     		mov	r2, r0	@ movhi
 1564 0034 1A80     		strh	r2, [r3]	@ movhi
1218:Generated_Source\PSoC6/CapSense_Filter.c ****                 #if (CapSense_REGULAR_AVERAGE_LEN == CapSense_AVERAGE_FILTER_LEN_4)
1219:Generated_Source\PSoC6/CapSense_Filter.c ****                     ptrFilterHistObj.ptrRegular->regularChannel[freqChannel].avgHistory[1u] = ptrSe
 1565              		.loc 1 1219 0
 1566 0036 F968     		ldr	r1, [r7, #12]
 1567 0038 BB68     		ldr	r3, [r7, #8]
 1568 003a 7A69     		ldr	r2, [r7, #20]
 1569 003c 33F81200 		ldrh	r0, [r3, r2, lsl #1]
 1570 0040 7A69     		ldr	r2, [r7, #20]
 1571 0042 1346     		mov	r3, r2
 1572 0044 9B00     		lsls	r3, r3, #2
 1573 0046 1344     		add	r3, r3, r2
 1574 0048 5B00     		lsls	r3, r3, #1
 1575 004a 0B44     		add	r3, r3, r1
 1576 004c 0633     		adds	r3, r3, #6
 1577 004e 0246     		mov	r2, r0	@ movhi
 1578 0050 1A80     		strh	r2, [r3]	@ movhi
1220:Generated_Source\PSoC6/CapSense_Filter.c ****                     ptrFilterHistObj.ptrRegular->regularChannel[freqChannel].avgHistory[2u] = ptrSe
 1579              		.loc 1 1220 0
 1580 0052 F968     		ldr	r1, [r7, #12]
 1581 0054 BB68     		ldr	r3, [r7, #8]
 1582 0056 7A69     		ldr	r2, [r7, #20]
 1583 0058 33F81200 		ldrh	r0, [r3, r2, lsl #1]
 1584 005c 7A69     		ldr	r2, [r7, #20]
 1585 005e 1346     		mov	r3, r2
 1586 0060 9B00     		lsls	r3, r3, #2
 1587 0062 1344     		add	r3, r3, r2
 1588 0064 5B00     		lsls	r3, r3, #1
 1589 0066 0B44     		add	r3, r3, r1
 1590 0068 0833     		adds	r3, r3, #8
 1591 006a 0246     		mov	r2, r0	@ movhi
 1592 006c 1A80     		strh	r2, [r3]	@ movhi
 1593              	.L73:
1212:Generated_Source\PSoC6/CapSense_Filter.c ****     {
 1594              		.loc 1 1212 0 discriminator 1
 1595 006e 7B69     		ldr	r3, [r7, #20]
 1596 0070 5A1E     		subs	r2, r3, #1
 1597 0072 7A61     		str	r2, [r7, #20]
 1598 0074 002B     		cmp	r3, #0
 1599 0076 CCD1     		bne	.L74
1221:Generated_Source\PSoC6/CapSense_Filter.c ****                 #endif /* CapSense_REGULAR_AVERAGE_LEN == CapSense_AVERAGE_FILTER_LEN_4 */
1222:Generated_Source\PSoC6/CapSense_Filter.c ****             #endif /* (CapSense_REGULAR_SENSOR_EN) */
1223:Generated_Source\PSoC6/CapSense_Filter.c ****         }
1224:Generated_Source\PSoC6/CapSense_Filter.c ****         else
1225:Generated_Source\PSoC6/CapSense_Filter.c ****         {
1226:Generated_Source\PSoC6/CapSense_Filter.c ****             #if (CapSense_PROXIMITY_SENSOR_EN && CapSense_PROX_RC_AVERAGE_FILTER_EN)
1227:Generated_Source\PSoC6/CapSense_Filter.c ****                 ptrFilterHistObj.ptrProx->proxChannel[freqChannel].avgHistory[0] = ptrSensorObj->ra
1228:Generated_Source\PSoC6/CapSense_Filter.c ****                     #if (CapSense_PROX_AVERAGE_LEN == CapSense_AVERAGE_FILTER_LEN_4)
1229:Generated_Source\PSoC6/CapSense_Filter.c ****                         ptrFilterHistObj.ptrProx->proxChannel[freqChannel].avgHistory[1u] = ptrSens
1230:Generated_Source\PSoC6/CapSense_Filter.c ****                         ptrFilterHistObj.ptrProx->proxChannel[freqChannel].avgHistory[2u] = ptrSens
1231:Generated_Source\PSoC6/CapSense_Filter.c ****                     #endif /* CapSense_REGULAR_AVERAGE_LEN == CapSense_AVERAGE_FILTER_LEN_4 */
1232:Generated_Source\PSoC6/CapSense_Filter.c ****             #endif /* (CapSense_PROXIMITY_SENSOR_EN) */
1233:Generated_Source\PSoC6/CapSense_Filter.c ****         }
1234:Generated_Source\PSoC6/CapSense_Filter.c ****     }
ARM GAS  C:\Users\ikomb\AppData\Local\Temp\cclK6Blf.s 			page 51


1235:Generated_Source\PSoC6/CapSense_Filter.c **** }
 1600              		.loc 1 1235 0
 1601 0078 00BF     		nop
 1602 007a 1C37     		adds	r7, r7, #28
 1603              		.cfi_def_cfa_offset 4
 1604 007c BD46     		mov	sp, r7
 1605              		.cfi_def_cfa_register 13
 1606              		@ sp needed
 1607 007e 5DF8047B 		ldr	r7, [sp], #4
 1608              		.cfi_restore 7
 1609              		.cfi_def_cfa_offset 0
 1610 0082 7047     		bx	lr
 1611              		.cfi_endproc
 1612              	.LFE143:
 1613              		.size	CapSense_InitializeAverageInternal, .-CapSense_InitializeAverageInternal
 1614              		.section	.text.CapSense_RunAverageInternal,"ax",%progbits
 1615              		.align	2
 1616              		.global	CapSense_RunAverageInternal
 1617              		.thumb
 1618              		.thumb_func
 1619              		.type	CapSense_RunAverageInternal, %function
 1620              	CapSense_RunAverageInternal:
 1621              	.LFB144:
1236:Generated_Source\PSoC6/CapSense_Filter.c **** 
1237:Generated_Source\PSoC6/CapSense_Filter.c **** 
1238:Generated_Source\PSoC6/CapSense_Filter.c **** /*******************************************************************************
1239:Generated_Source\PSoC6/CapSense_Filter.c **** * Function Name: CapSense_RunAverageInternal
1240:Generated_Source\PSoC6/CapSense_Filter.c **** ****************************************************************************//**
1241:Generated_Source\PSoC6/CapSense_Filter.c **** *
1242:Generated_Source\PSoC6/CapSense_Filter.c **** * \brief    Runs the average filter.
1243:Generated_Source\PSoC6/CapSense_Filter.c **** *
1244:Generated_Source\PSoC6/CapSense_Filter.c **** * \details  Runs the average filter.
1245:Generated_Source\PSoC6/CapSense_Filter.c **** *
1246:Generated_Source\PSoC6/CapSense_Filter.c **** * \param    ptrFilterHistObj The pointer to the filter RAM object of the sensor.
1247:Generated_Source\PSoC6/CapSense_Filter.c **** * \param    ptrSensorObj     The pointer to the sensor RAM object of the sensor.
1248:Generated_Source\PSoC6/CapSense_Filter.c **** * \param    wdType           Specifies the type of a widget.
1249:Generated_Source\PSoC6/CapSense_Filter.c **** *
1250:Generated_Source\PSoC6/CapSense_Filter.c **** *******************************************************************************/
1251:Generated_Source\PSoC6/CapSense_Filter.c **** void CapSense_RunAverageInternal(CapSense_PTR_FILTER_VARIANT ptrFilterHistObj,\
1252:Generated_Source\PSoC6/CapSense_Filter.c ****                                            CapSense_RAM_SNS_STRUCT *ptrSensorObj, uint32 wdType)
1253:Generated_Source\PSoC6/CapSense_Filter.c **** {
 1622              		.loc 1 1253 0
 1623              		.cfi_startproc
 1624              		@ args = 0, pretend = 0, frame = 24
 1625              		@ frame_needed = 1, uses_anonymous_args = 0
 1626              		@ link register save eliminated.
 1627 0000 80B4     		push	{r7}
 1628              		.cfi_def_cfa_offset 4
 1629              		.cfi_offset 7, -4
 1630 0002 87B0     		sub	sp, sp, #28
 1631              		.cfi_def_cfa_offset 32
 1632 0004 00AF     		add	r7, sp, #0
 1633              		.cfi_def_cfa_register 7
 1634 0006 F860     		str	r0, [r7, #12]
 1635 0008 B960     		str	r1, [r7, #8]
 1636 000a 7A60     		str	r2, [r7, #4]
1254:Generated_Source\PSoC6/CapSense_Filter.c ****     uint32 freqChannel;
ARM GAS  C:\Users\ikomb\AppData\Local\Temp\cclK6Blf.s 			page 52


1255:Generated_Source\PSoC6/CapSense_Filter.c ****     uint32 temp;
1256:Generated_Source\PSoC6/CapSense_Filter.c **** 
1257:Generated_Source\PSoC6/CapSense_Filter.c ****     for(freqChannel = CapSense_NUM_SCAN_FREQS; freqChannel-- > 0u;)
 1637              		.loc 1 1257 0
 1638 000c 0123     		movs	r3, #1
 1639 000e 7B61     		str	r3, [r7, #20]
 1640 0010 62E0     		b	.L76
 1641              	.L77:
1258:Generated_Source\PSoC6/CapSense_Filter.c ****     {
1259:Generated_Source\PSoC6/CapSense_Filter.c ****         if ((CapSense_WD_TYPE_ENUM)wdType != CapSense_WD_PROXIMITY_E)
 1642              		.loc 1 1259 0
 1643 0012 7B68     		ldr	r3, [r7, #4]
 1644 0014 DBB2     		uxtb	r3, r3
 1645 0016 062B     		cmp	r3, #6
 1646 0018 5ED0     		beq	.L76
1260:Generated_Source\PSoC6/CapSense_Filter.c ****         {
1261:Generated_Source\PSoC6/CapSense_Filter.c ****             #if (CapSense_REGULAR_SENSOR_EN && CapSense_REGULAR_RC_AVERAGE_FILTER_EN)
1262:Generated_Source\PSoC6/CapSense_Filter.c ****                 #if (CapSense_REGULAR_AVERAGE_LEN == CapSense_AVERAGE_FILTER_LEN_2)
1263:Generated_Source\PSoC6/CapSense_Filter.c ****                     temp = ((uint32)ptrSensorObj->raw[freqChannel] +
1264:Generated_Source\PSoC6/CapSense_Filter.c ****                             (uint32)ptrFilterHistObj.ptrRegular->regularChannel[freqChannel].avgHis
1265:Generated_Source\PSoC6/CapSense_Filter.c ****                     ptrFilterHistObj.ptrRegular->regularChannel[freqChannel].avgHistory[0] = ptrSen
1266:Generated_Source\PSoC6/CapSense_Filter.c ****                     ptrSensorObj->raw[freqChannel] = CY_LO16(temp);
1267:Generated_Source\PSoC6/CapSense_Filter.c ****                 #else
1268:Generated_Source\PSoC6/CapSense_Filter.c ****                     temp = ((uint32)ptrSensorObj->raw[freqChannel] +
 1647              		.loc 1 1268 0
 1648 001a BB68     		ldr	r3, [r7, #8]
 1649 001c 7A69     		ldr	r2, [r7, #20]
 1650 001e 33F81230 		ldrh	r3, [r3, r2, lsl #1]
 1651 0022 1846     		mov	r0, r3
1269:Generated_Source\PSoC6/CapSense_Filter.c ****                             (uint32)ptrFilterHistObj.ptrRegular->regularChannel[freqChannel].avgHis
 1652              		.loc 1 1269 0
 1653 0024 F968     		ldr	r1, [r7, #12]
 1654 0026 7A69     		ldr	r2, [r7, #20]
 1655 0028 1346     		mov	r3, r2
 1656 002a 9B00     		lsls	r3, r3, #2
 1657 002c 1344     		add	r3, r3, r2
 1658 002e 5B00     		lsls	r3, r3, #1
 1659 0030 0B44     		add	r3, r3, r1
 1660 0032 0433     		adds	r3, r3, #4
 1661 0034 1B88     		ldrh	r3, [r3]
1268:Generated_Source\PSoC6/CapSense_Filter.c ****                             (uint32)ptrFilterHistObj.ptrRegular->regularChannel[freqChannel].avgHis
 1662              		.loc 1 1268 0
 1663 0036 C118     		adds	r1, r0, r3
1270:Generated_Source\PSoC6/CapSense_Filter.c ****                             (uint32)ptrFilterHistObj.ptrRegular->regularChannel[freqChannel].avgHis
 1664              		.loc 1 1270 0
 1665 0038 F868     		ldr	r0, [r7, #12]
 1666 003a 7A69     		ldr	r2, [r7, #20]
 1667 003c 1346     		mov	r3, r2
 1668 003e 9B00     		lsls	r3, r3, #2
 1669 0040 1344     		add	r3, r3, r2
 1670 0042 5B00     		lsls	r3, r3, #1
 1671 0044 0344     		add	r3, r3, r0
 1672 0046 0633     		adds	r3, r3, #6
 1673 0048 1B88     		ldrh	r3, [r3]
1269:Generated_Source\PSoC6/CapSense_Filter.c ****                             (uint32)ptrFilterHistObj.ptrRegular->regularChannel[freqChannel].avgHis
 1674              		.loc 1 1269 0
 1675 004a 1944     		add	r1, r1, r3
ARM GAS  C:\Users\ikomb\AppData\Local\Temp\cclK6Blf.s 			page 53


1271:Generated_Source\PSoC6/CapSense_Filter.c ****                             (uint32)ptrFilterHistObj.ptrRegular->regularChannel[freqChannel].avgHis
 1676              		.loc 1 1271 0
 1677 004c F868     		ldr	r0, [r7, #12]
 1678 004e 7A69     		ldr	r2, [r7, #20]
 1679 0050 1346     		mov	r3, r2
 1680 0052 9B00     		lsls	r3, r3, #2
 1681 0054 1344     		add	r3, r3, r2
 1682 0056 5B00     		lsls	r3, r3, #1
 1683 0058 0344     		add	r3, r3, r0
 1684 005a 0833     		adds	r3, r3, #8
 1685 005c 1B88     		ldrh	r3, [r3]
1270:Generated_Source\PSoC6/CapSense_Filter.c ****                             (uint32)ptrFilterHistObj.ptrRegular->regularChannel[freqChannel].avgHis
 1686              		.loc 1 1270 0
 1687 005e 0B44     		add	r3, r3, r1
1268:Generated_Source\PSoC6/CapSense_Filter.c ****                             (uint32)ptrFilterHistObj.ptrRegular->regularChannel[freqChannel].avgHis
 1688              		.loc 1 1268 0
 1689 0060 9B08     		lsrs	r3, r3, #2
 1690 0062 3B61     		str	r3, [r7, #16]
1272:Generated_Source\PSoC6/CapSense_Filter.c **** 
1273:Generated_Source\PSoC6/CapSense_Filter.c ****                     ptrFilterHistObj.ptrRegular->regularChannel[freqChannel].avgHistory[2u] =
 1691              		.loc 1 1273 0
 1692 0064 F968     		ldr	r1, [r7, #12]
1274:Generated_Source\PSoC6/CapSense_Filter.c ****                     ptrFilterHistObj.ptrRegular->regularChannel[freqChannel].avgHistory[1u];
 1693              		.loc 1 1274 0
 1694 0066 F868     		ldr	r0, [r7, #12]
 1695 0068 7A69     		ldr	r2, [r7, #20]
 1696 006a 1346     		mov	r3, r2
 1697 006c 9B00     		lsls	r3, r3, #2
 1698 006e 1344     		add	r3, r3, r2
 1699 0070 5B00     		lsls	r3, r3, #1
 1700 0072 0344     		add	r3, r3, r0
 1701 0074 0633     		adds	r3, r3, #6
 1702 0076 1888     		ldrh	r0, [r3]
1273:Generated_Source\PSoC6/CapSense_Filter.c ****                     ptrFilterHistObj.ptrRegular->regularChannel[freqChannel].avgHistory[1u];
 1703              		.loc 1 1273 0
 1704 0078 7A69     		ldr	r2, [r7, #20]
 1705 007a 1346     		mov	r3, r2
 1706 007c 9B00     		lsls	r3, r3, #2
 1707 007e 1344     		add	r3, r3, r2
 1708 0080 5B00     		lsls	r3, r3, #1
 1709 0082 0B44     		add	r3, r3, r1
 1710 0084 0833     		adds	r3, r3, #8
 1711 0086 0246     		mov	r2, r0	@ movhi
 1712 0088 1A80     		strh	r2, [r3]	@ movhi
1275:Generated_Source\PSoC6/CapSense_Filter.c ****                     ptrFilterHistObj.ptrRegular->regularChannel[freqChannel].avgHistory[1u] =
 1713              		.loc 1 1275 0
 1714 008a F968     		ldr	r1, [r7, #12]
1276:Generated_Source\PSoC6/CapSense_Filter.c ****                     ptrFilterHistObj.ptrRegular->regularChannel[freqChannel].avgHistory[0];
 1715              		.loc 1 1276 0
 1716 008c F868     		ldr	r0, [r7, #12]
 1717 008e 7A69     		ldr	r2, [r7, #20]
 1718 0090 1346     		mov	r3, r2
 1719 0092 9B00     		lsls	r3, r3, #2
 1720 0094 1344     		add	r3, r3, r2
 1721 0096 5B00     		lsls	r3, r3, #1
 1722 0098 0344     		add	r3, r3, r0
 1723 009a 0433     		adds	r3, r3, #4
ARM GAS  C:\Users\ikomb\AppData\Local\Temp\cclK6Blf.s 			page 54


 1724 009c 1888     		ldrh	r0, [r3]
1275:Generated_Source\PSoC6/CapSense_Filter.c ****                     ptrFilterHistObj.ptrRegular->regularChannel[freqChannel].avgHistory[1u] =
 1725              		.loc 1 1275 0
 1726 009e 7A69     		ldr	r2, [r7, #20]
 1727 00a0 1346     		mov	r3, r2
 1728 00a2 9B00     		lsls	r3, r3, #2
 1729 00a4 1344     		add	r3, r3, r2
 1730 00a6 5B00     		lsls	r3, r3, #1
 1731 00a8 0B44     		add	r3, r3, r1
 1732 00aa 0633     		adds	r3, r3, #6
 1733 00ac 0246     		mov	r2, r0	@ movhi
 1734 00ae 1A80     		strh	r2, [r3]	@ movhi
1277:Generated_Source\PSoC6/CapSense_Filter.c ****                     ptrFilterHistObj.ptrRegular->regularChannel[freqChannel].avgHistory[0] = ptrSen
 1735              		.loc 1 1277 0
 1736 00b0 F968     		ldr	r1, [r7, #12]
 1737 00b2 BB68     		ldr	r3, [r7, #8]
 1738 00b4 7A69     		ldr	r2, [r7, #20]
 1739 00b6 33F81200 		ldrh	r0, [r3, r2, lsl #1]
 1740 00ba 7A69     		ldr	r2, [r7, #20]
 1741 00bc 1346     		mov	r3, r2
 1742 00be 9B00     		lsls	r3, r3, #2
 1743 00c0 1344     		add	r3, r3, r2
 1744 00c2 5B00     		lsls	r3, r3, #1
 1745 00c4 0B44     		add	r3, r3, r1
 1746 00c6 0433     		adds	r3, r3, #4
 1747 00c8 0246     		mov	r2, r0	@ movhi
 1748 00ca 1A80     		strh	r2, [r3]	@ movhi
1278:Generated_Source\PSoC6/CapSense_Filter.c ****                     ptrSensorObj->raw[freqChannel] = CY_LO16(temp);
 1749              		.loc 1 1278 0
 1750 00cc 3B69     		ldr	r3, [r7, #16]
 1751 00ce 99B2     		uxth	r1, r3
 1752 00d0 BB68     		ldr	r3, [r7, #8]
 1753 00d2 7A69     		ldr	r2, [r7, #20]
 1754 00d4 23F81210 		strh	r1, [r3, r2, lsl #1]	@ movhi
 1755              	.L76:
1257:Generated_Source\PSoC6/CapSense_Filter.c ****     {
 1756              		.loc 1 1257 0 discriminator 1
 1757 00d8 7B69     		ldr	r3, [r7, #20]
 1758 00da 5A1E     		subs	r2, r3, #1
 1759 00dc 7A61     		str	r2, [r7, #20]
 1760 00de 002B     		cmp	r3, #0
 1761 00e0 97D1     		bne	.L77
1279:Generated_Source\PSoC6/CapSense_Filter.c ****                 #endif /* CapSense_REGULAR_AVERAGE_LEN == CapSense_AVERAGE_FILTER_LEN_4 */
1280:Generated_Source\PSoC6/CapSense_Filter.c ****             #endif /* (CapSense_REGULAR_SENSOR_EN) */
1281:Generated_Source\PSoC6/CapSense_Filter.c ****         }
1282:Generated_Source\PSoC6/CapSense_Filter.c ****         else
1283:Generated_Source\PSoC6/CapSense_Filter.c ****         {
1284:Generated_Source\PSoC6/CapSense_Filter.c ****             #if (CapSense_PROXIMITY_SENSOR_EN && CapSense_PROX_RC_AVERAGE_FILTER_EN)
1285:Generated_Source\PSoC6/CapSense_Filter.c ****                 #if (CapSense_PROX_AVERAGE_LEN == CapSense_AVERAGE_FILTER_LEN_2)
1286:Generated_Source\PSoC6/CapSense_Filter.c ****                     temp = ((uint32)ptrSensorObj->raw[freqChannel] +
1287:Generated_Source\PSoC6/CapSense_Filter.c ****                             (uint32)ptrFilterHistObj.ptrProx->proxChannel[freqChannel].avgHistory[0
1288:Generated_Source\PSoC6/CapSense_Filter.c ****                     ptrFilterHistObj.ptrProx->proxChannel[freqChannel].avgHistory[0] = ptrSensorObj
1289:Generated_Source\PSoC6/CapSense_Filter.c ****                     ptrSensorObj->raw[freqChannel] = CY_LO16(temp);
1290:Generated_Source\PSoC6/CapSense_Filter.c ****                 #else
1291:Generated_Source\PSoC6/CapSense_Filter.c ****                     temp = ((uint32)ptrSensorObj->raw[freqChannel] +
1292:Generated_Source\PSoC6/CapSense_Filter.c ****                             (uint32)ptrFilterHistObj.ptrProx->proxChannel[freqChannel].avgHistory[0
1293:Generated_Source\PSoC6/CapSense_Filter.c ****                             (uint32)ptrFilterHistObj.ptrProx->proxChannel[freqChannel].avgHistory[1
ARM GAS  C:\Users\ikomb\AppData\Local\Temp\cclK6Blf.s 			page 55


1294:Generated_Source\PSoC6/CapSense_Filter.c ****                             (uint32)ptrFilterHistObj.ptrProx->proxChannel[freqChannel].avgHistory[2
1295:Generated_Source\PSoC6/CapSense_Filter.c **** 
1296:Generated_Source\PSoC6/CapSense_Filter.c ****                     ptrFilterHistObj.ptrProx->proxChannel[freqChannel].avgHistory[2u] =
1297:Generated_Source\PSoC6/CapSense_Filter.c ****                     ptrFilterHistObj.ptrProx->proxChannel[freqChannel].avgHistory[1u];
1298:Generated_Source\PSoC6/CapSense_Filter.c ****                     ptrFilterHistObj.ptrProx->proxChannel[freqChannel].avgHistory[1u] =
1299:Generated_Source\PSoC6/CapSense_Filter.c ****                     ptrFilterHistObj.ptrProx->proxChannel[freqChannel].avgHistory[0];
1300:Generated_Source\PSoC6/CapSense_Filter.c ****                     ptrFilterHistObj.ptrProx->proxChannel[freqChannel].avgHistory[0] = ptrSensorObj
1301:Generated_Source\PSoC6/CapSense_Filter.c ****                     ptrSensorObj->raw[freqChannel] = CY_LO16(temp);
1302:Generated_Source\PSoC6/CapSense_Filter.c ****                 #endif /* CapSense_PROX_AVERAGE_LEN == CapSense_AVERAGE_FILTER_LEN_4 */
1303:Generated_Source\PSoC6/CapSense_Filter.c ****             #endif /* (CapSense_PROXIMITY_SENSOR_EN) */
1304:Generated_Source\PSoC6/CapSense_Filter.c ****         }
1305:Generated_Source\PSoC6/CapSense_Filter.c ****     }
1306:Generated_Source\PSoC6/CapSense_Filter.c **** }
 1762              		.loc 1 1306 0
 1763 00e2 00BF     		nop
 1764 00e4 1C37     		adds	r7, r7, #28
 1765              		.cfi_def_cfa_offset 4
 1766 00e6 BD46     		mov	sp, r7
 1767              		.cfi_def_cfa_register 13
 1768              		@ sp needed
 1769 00e8 5DF8047B 		ldr	r7, [sp], #4
 1770              		.cfi_restore 7
 1771              		.cfi_def_cfa_offset 0
 1772 00ec 7047     		bx	lr
 1773              		.cfi_endproc
 1774              	.LFE144:
 1775              		.size	CapSense_RunAverageInternal, .-CapSense_RunAverageInternal
 1776 00ee 00BF     		.section	.text.CapSense_FtRunEnabledFilters,"ax",%progbits
 1777              		.align	2
 1778              		.global	CapSense_FtRunEnabledFilters
 1779              		.thumb
 1780              		.thumb_func
 1781              		.type	CapSense_FtRunEnabledFilters, %function
 1782              	CapSense_FtRunEnabledFilters:
 1783              	.LFB145:
1307:Generated_Source\PSoC6/CapSense_Filter.c **** #endif /* (CapSense_REGULAR_RC_AVERAGE_FILTER_EN || CapSense_PROX_RC_AVERAGE_FILTER_EN) */
1308:Generated_Source\PSoC6/CapSense_Filter.c **** 
1309:Generated_Source\PSoC6/CapSense_Filter.c **** #if (CapSense_ENABLE == CapSense_ALP_FILTER_EN)
1310:Generated_Source\PSoC6/CapSense_Filter.c **** /*******************************************************************************
1311:Generated_Source\PSoC6/CapSense_Filter.c **** * Function Name: CapSense_InitializeALP
1312:Generated_Source\PSoC6/CapSense_Filter.c **** ****************************************************************************//**
1313:Generated_Source\PSoC6/CapSense_Filter.c **** *
1314:Generated_Source\PSoC6/CapSense_Filter.c **** * \brief    Initializes the ALP filter history.
1315:Generated_Source\PSoC6/CapSense_Filter.c **** *
1316:Generated_Source\PSoC6/CapSense_Filter.c **** * \details  Initializes the ALP filter history.
1317:Generated_Source\PSoC6/CapSense_Filter.c **** *
1318:Generated_Source\PSoC6/CapSense_Filter.c **** * \param    widgetId Specifies the ID number of the widget.
1319:Generated_Source\PSoC6/CapSense_Filter.c **** * \param    sensorId Specifies the ID number of the sensor in the widget.
1320:Generated_Source\PSoC6/CapSense_Filter.c **** *
1321:Generated_Source\PSoC6/CapSense_Filter.c **** *******************************************************************************/
1322:Generated_Source\PSoC6/CapSense_Filter.c **** void CapSense_InitializeALP(uint32 widgetId, uint32 sensorId)
1323:Generated_Source\PSoC6/CapSense_Filter.c **** {
1324:Generated_Source\PSoC6/CapSense_Filter.c ****     CapSense_FLASH_WD_STRUCT const *ptrWidget = &CapSense_dsFlash.wdgtArray[widgetId];
1325:Generated_Source\PSoC6/CapSense_Filter.c ****     CapSense_RAM_SNS_STRUCT *ptrSensor = NULL;
1326:Generated_Source\PSoC6/CapSense_Filter.c ****     CapSense_PTR_FILTER_VARIANT ptrFilterHistObj;
1327:Generated_Source\PSoC6/CapSense_Filter.c **** 
1328:Generated_Source\PSoC6/CapSense_Filter.c ****     /* Find pointer to specified sensor object */
ARM GAS  C:\Users\ikomb\AppData\Local\Temp\cclK6Blf.s 			page 56


1329:Generated_Source\PSoC6/CapSense_Filter.c ****     ptrSensor = ptrWidget->ptr2SnsRam;
1330:Generated_Source\PSoC6/CapSense_Filter.c ****     ptrSensor = &ptrSensor[sensorId];
1331:Generated_Source\PSoC6/CapSense_Filter.c **** 
1332:Generated_Source\PSoC6/CapSense_Filter.c ****     /* Find pointer to specified filter sensor object */
1333:Generated_Source\PSoC6/CapSense_Filter.c ****     ptrFilterHistObj.ptr = ptrWidget->ptr2FltrHistory;
1334:Generated_Source\PSoC6/CapSense_Filter.c ****     ptrFilterHistObj.ptrAlp = &ptrFilterHistObj.ptrAlp[sensorId];
1335:Generated_Source\PSoC6/CapSense_Filter.c ****     CapSense_InitializeALPInternal(ptrFilterHistObj, ptrSensor, (uint32)ptrWidget->wdgtType);
1336:Generated_Source\PSoC6/CapSense_Filter.c **** }
1337:Generated_Source\PSoC6/CapSense_Filter.c **** 
1338:Generated_Source\PSoC6/CapSense_Filter.c **** 
1339:Generated_Source\PSoC6/CapSense_Filter.c **** /*******************************************************************************
1340:Generated_Source\PSoC6/CapSense_Filter.c **** * Function Name: CapSense_RunALP
1341:Generated_Source\PSoC6/CapSense_Filter.c **** ****************************************************************************//**
1342:Generated_Source\PSoC6/CapSense_Filter.c **** *
1343:Generated_Source\PSoC6/CapSense_Filter.c **** * \brief    Executes the ALP filter algorithm on a sensor indicated by an input
1344:Generated_Source\PSoC6/CapSense_Filter.c **** *           parameter.
1345:Generated_Source\PSoC6/CapSense_Filter.c **** *
1346:Generated_Source\PSoC6/CapSense_Filter.c **** * \details  Executes the ALP filter algorithm on a sensor indicated by an input
1347:Generated_Source\PSoC6/CapSense_Filter.c **** *           parameter.
1348:Generated_Source\PSoC6/CapSense_Filter.c **** *
1349:Generated_Source\PSoC6/CapSense_Filter.c **** * \param    widgetId Specifies the ID number of the widget.
1350:Generated_Source\PSoC6/CapSense_Filter.c **** * \param    sensorId Specifies the ID number of the sensor in the widget.
1351:Generated_Source\PSoC6/CapSense_Filter.c **** *
1352:Generated_Source\PSoC6/CapSense_Filter.c **** *******************************************************************************/
1353:Generated_Source\PSoC6/CapSense_Filter.c **** void CapSense_RunALP(uint32 widgetId, uint32 sensorId)
1354:Generated_Source\PSoC6/CapSense_Filter.c **** {
1355:Generated_Source\PSoC6/CapSense_Filter.c ****     CapSense_FLASH_WD_STRUCT const *ptrWidget = &CapSense_dsFlash.wdgtArray[widgetId];
1356:Generated_Source\PSoC6/CapSense_Filter.c ****     CapSense_RAM_SNS_STRUCT *ptrSensor = NULL;
1357:Generated_Source\PSoC6/CapSense_Filter.c ****     CapSense_PTR_FILTER_VARIANT ptrFilterHistObj;
1358:Generated_Source\PSoC6/CapSense_Filter.c ****     ALP_FLTR_CONFIG_STRUCT alpFilterConfig;
1359:Generated_Source\PSoC6/CapSense_Filter.c ****     ALP_FLTR_CONFIG_STRUCT *ptrAlpFilterConfig = &alpFilterConfig;
1360:Generated_Source\PSoC6/CapSense_Filter.c ****     CapSense_RAM_WD_BASE_STRUCT *ptrRamWidget = ptrWidget->ptr2WdgtRam;
1361:Generated_Source\PSoC6/CapSense_Filter.c **** 
1362:Generated_Source\PSoC6/CapSense_Filter.c ****     /* Find pointer to specified sensor object */
1363:Generated_Source\PSoC6/CapSense_Filter.c ****     ptrSensor = ptrWidget->ptr2SnsRam;
1364:Generated_Source\PSoC6/CapSense_Filter.c ****     ptrSensor = &ptrSensor[sensorId];
1365:Generated_Source\PSoC6/CapSense_Filter.c **** 
1366:Generated_Source\PSoC6/CapSense_Filter.c ****     ptrAlpFilterConfig->configParam0 = ptrRamWidget->alpOnTh;
1367:Generated_Source\PSoC6/CapSense_Filter.c ****     ptrAlpFilterConfig->configParam1 = ptrRamWidget->alpOffTh;
1368:Generated_Source\PSoC6/CapSense_Filter.c ****     ptrAlpFilterConfig->configParam2 = ptrRamWidget->fingerTh;
1369:Generated_Source\PSoC6/CapSense_Filter.c ****     ptrAlpFilterConfig->configParam3 = ptrRamWidget->noiseTh;
1370:Generated_Source\PSoC6/CapSense_Filter.c ****     ptrAlpFilterConfig->configParam4 = ptrRamWidget->hysteresis;
1371:Generated_Source\PSoC6/CapSense_Filter.c **** 
1372:Generated_Source\PSoC6/CapSense_Filter.c ****     /* Find pointer to specified filter sensor object */
1373:Generated_Source\PSoC6/CapSense_Filter.c ****     ptrFilterHistObj.ptr = ptrWidget->ptr2FltrHistory;
1374:Generated_Source\PSoC6/CapSense_Filter.c ****     ptrFilterHistObj.ptrAlp = &ptrFilterHistObj.ptrAlp[sensorId];
1375:Generated_Source\PSoC6/CapSense_Filter.c **** 
1376:Generated_Source\PSoC6/CapSense_Filter.c ****     if ((CapSense_WD_TYPE_ENUM)ptrWidget->wdgtType != CapSense_WD_PROXIMITY_E)
1377:Generated_Source\PSoC6/CapSense_Filter.c ****     {
1378:Generated_Source\PSoC6/CapSense_Filter.c ****         #if (CapSense_REGULAR_SENSOR_EN)
1379:Generated_Source\PSoC6/CapSense_Filter.c ****             ptrAlpFilterConfig->configParam5 = CapSense_REGULAR_RC_ALP_FILTER_COEFF;
1380:Generated_Source\PSoC6/CapSense_Filter.c ****         #endif /* (CapSense_REGULAR_SENSOR_EN) */
1381:Generated_Source\PSoC6/CapSense_Filter.c ****     }
1382:Generated_Source\PSoC6/CapSense_Filter.c ****     else
1383:Generated_Source\PSoC6/CapSense_Filter.c ****     {
1384:Generated_Source\PSoC6/CapSense_Filter.c ****         #if (CapSense_PROXIMITY_SENSOR_EN)
1385:Generated_Source\PSoC6/CapSense_Filter.c ****             ptrAlpFilterConfig->configParam5 = CapSense_PROX_RC_ALP_FILTER_COEFF;
ARM GAS  C:\Users\ikomb\AppData\Local\Temp\cclK6Blf.s 			page 57


1386:Generated_Source\PSoC6/CapSense_Filter.c ****         #endif /* (CapSense_PROXIMITY_SENSOR_EN) */
1387:Generated_Source\PSoC6/CapSense_Filter.c ****     }
1388:Generated_Source\PSoC6/CapSense_Filter.c ****     CapSense_RunALPInternal(ptrFilterHistObj, ptrAlpFilterConfig, ptrSensor, (uint32)ptrWidget->wdg
1389:Generated_Source\PSoC6/CapSense_Filter.c **** }
1390:Generated_Source\PSoC6/CapSense_Filter.c **** 
1391:Generated_Source\PSoC6/CapSense_Filter.c **** 
1392:Generated_Source\PSoC6/CapSense_Filter.c **** /*******************************************************************************
1393:Generated_Source\PSoC6/CapSense_Filter.c **** * Function Name: CapSense_InitializeALPInternal
1394:Generated_Source\PSoC6/CapSense_Filter.c **** ****************************************************************************//**
1395:Generated_Source\PSoC6/CapSense_Filter.c **** *
1396:Generated_Source\PSoC6/CapSense_Filter.c **** * \brief    Initializes the ALP filter.
1397:Generated_Source\PSoC6/CapSense_Filter.c **** *
1398:Generated_Source\PSoC6/CapSense_Filter.c **** * \details  Initializes the ALP filter.
1399:Generated_Source\PSoC6/CapSense_Filter.c **** *
1400:Generated_Source\PSoC6/CapSense_Filter.c **** * \param    ptrFilterHistObj The pointer to the filter RAM object of the sensor.
1401:Generated_Source\PSoC6/CapSense_Filter.c **** * \param    ptrSensorObj     The pointer to the sensor RAM object of the sensor.
1402:Generated_Source\PSoC6/CapSense_Filter.c **** * \param    wdType           Specifies the type of a widget.
1403:Generated_Source\PSoC6/CapSense_Filter.c **** *
1404:Generated_Source\PSoC6/CapSense_Filter.c **** *******************************************************************************/
1405:Generated_Source\PSoC6/CapSense_Filter.c **** void CapSense_InitializeALPInternal(CapSense_PTR_FILTER_VARIANT ptrFilterHistObj,
1406:Generated_Source\PSoC6/CapSense_Filter.c ****                                             CapSense_RAM_SNS_STRUCT *ptrSensorObj,
1407:Generated_Source\PSoC6/CapSense_Filter.c ****                                             uint32 wdType)
1408:Generated_Source\PSoC6/CapSense_Filter.c **** {
1409:Generated_Source\PSoC6/CapSense_Filter.c ****     uint32 freqChannel;
1410:Generated_Source\PSoC6/CapSense_Filter.c **** 
1411:Generated_Source\PSoC6/CapSense_Filter.c ****     for(freqChannel = CapSense_NUM_SCAN_FREQS; freqChannel-- > 0u;)
1412:Generated_Source\PSoC6/CapSense_Filter.c ****     {
1413:Generated_Source\PSoC6/CapSense_Filter.c ****         if ((CapSense_WD_TYPE_ENUM)wdType != CapSense_WD_PROXIMITY_E)
1414:Generated_Source\PSoC6/CapSense_Filter.c ****         {
1415:Generated_Source\PSoC6/CapSense_Filter.c ****             #if (CapSense_REGULAR_SENSOR_EN && CapSense_REGULAR_RC_ALP_FILTER_EN)
1416:Generated_Source\PSoC6/CapSense_Filter.c ****                 ALP_Initialize(&ptrFilterHistObj.ptrAlp->channel[freqChannel], &ptrSensorObj->raw[f
1417:Generated_Source\PSoC6/CapSense_Filter.c ****             #endif
1418:Generated_Source\PSoC6/CapSense_Filter.c ****         }
1419:Generated_Source\PSoC6/CapSense_Filter.c ****         else
1420:Generated_Source\PSoC6/CapSense_Filter.c ****         {
1421:Generated_Source\PSoC6/CapSense_Filter.c ****             #if (CapSense_PROXIMITY_SENSOR_EN && CapSense_PROX_RC_ALP_FILTER_EN)
1422:Generated_Source\PSoC6/CapSense_Filter.c ****                 ALP_Initialize(&ptrFilterHistObj.ptrAlp->channel[freqChannel], &ptrSensorObj->raw[f
1423:Generated_Source\PSoC6/CapSense_Filter.c ****             #endif
1424:Generated_Source\PSoC6/CapSense_Filter.c ****         }
1425:Generated_Source\PSoC6/CapSense_Filter.c ****     }
1426:Generated_Source\PSoC6/CapSense_Filter.c **** }
1427:Generated_Source\PSoC6/CapSense_Filter.c **** 
1428:Generated_Source\PSoC6/CapSense_Filter.c **** /*******************************************************************************
1429:Generated_Source\PSoC6/CapSense_Filter.c **** * Function Name: CapSense_ConfigRunALPInternal
1430:Generated_Source\PSoC6/CapSense_Filter.c **** ****************************************************************************//**
1431:Generated_Source\PSoC6/CapSense_Filter.c **** *
1432:Generated_Source\PSoC6/CapSense_Filter.c **** * \brief    Prepares ALP configuration structure and runs the filter.
1433:Generated_Source\PSoC6/CapSense_Filter.c **** *
1434:Generated_Source\PSoC6/CapSense_Filter.c **** * \details  Prepares ALP configuration structure and runs the filter.
1435:Generated_Source\PSoC6/CapSense_Filter.c **** *
1436:Generated_Source\PSoC6/CapSense_Filter.c **** * \param    ptrFilterHistObj The pointer to the filter RAM object of the sensor.
1437:Generated_Source\PSoC6/CapSense_Filter.c **** * \param    ptrRamWdgt       The pointer to the RAM widget object.
1438:Generated_Source\PSoC6/CapSense_Filter.c **** * \param    ptrSensorObj     The pointer to the sensor RAM object of the sensor.
1439:Generated_Source\PSoC6/CapSense_Filter.c **** * \param    wdType           Specifies the type of a widget.
1440:Generated_Source\PSoC6/CapSense_Filter.c **** *
1441:Generated_Source\PSoC6/CapSense_Filter.c **** *******************************************************************************/
1442:Generated_Source\PSoC6/CapSense_Filter.c **** void CapSense_ConfigRunALPInternal(CapSense_PTR_FILTER_VARIANT ptrFilterHistObj,
ARM GAS  C:\Users\ikomb\AppData\Local\Temp\cclK6Blf.s 			page 58


1443:Generated_Source\PSoC6/CapSense_Filter.c ****                                     CapSense_RAM_WD_BASE_STRUCT *ptrRamWdgt,
1444:Generated_Source\PSoC6/CapSense_Filter.c ****                                     CapSense_RAM_SNS_STRUCT *ptrSensorObj,
1445:Generated_Source\PSoC6/CapSense_Filter.c ****                                     uint32 wdType)
1446:Generated_Source\PSoC6/CapSense_Filter.c **** {
1447:Generated_Source\PSoC6/CapSense_Filter.c ****     ALP_FLTR_CONFIG_STRUCT alpFilterConfig;
1448:Generated_Source\PSoC6/CapSense_Filter.c **** 
1449:Generated_Source\PSoC6/CapSense_Filter.c ****     alpFilterConfig.configParam0 = ptrRamWdgt->alpOnTh;
1450:Generated_Source\PSoC6/CapSense_Filter.c ****     alpFilterConfig.configParam1 = ptrRamWdgt->alpOffTh;
1451:Generated_Source\PSoC6/CapSense_Filter.c ****     alpFilterConfig.configParam2 = ptrRamWdgt->fingerTh;
1452:Generated_Source\PSoC6/CapSense_Filter.c ****     alpFilterConfig.configParam3 = ptrRamWdgt->noiseTh;
1453:Generated_Source\PSoC6/CapSense_Filter.c ****     alpFilterConfig.configParam4 = ptrRamWdgt->hysteresis;
1454:Generated_Source\PSoC6/CapSense_Filter.c **** 
1455:Generated_Source\PSoC6/CapSense_Filter.c ****     CapSense_RunALPInternal(ptrFilterHistObj, &alpFilterConfig, ptrSensorObj, wdType);
1456:Generated_Source\PSoC6/CapSense_Filter.c **** }
1457:Generated_Source\PSoC6/CapSense_Filter.c **** 
1458:Generated_Source\PSoC6/CapSense_Filter.c **** /*******************************************************************************
1459:Generated_Source\PSoC6/CapSense_Filter.c **** * Function Name: CapSense_RunALPInternal
1460:Generated_Source\PSoC6/CapSense_Filter.c **** ****************************************************************************//**
1461:Generated_Source\PSoC6/CapSense_Filter.c **** *
1462:Generated_Source\PSoC6/CapSense_Filter.c **** * \brief    Runs the ALP filter.
1463:Generated_Source\PSoC6/CapSense_Filter.c **** *
1464:Generated_Source\PSoC6/CapSense_Filter.c **** * \details  Runs the ALP filter.
1465:Generated_Source\PSoC6/CapSense_Filter.c **** *
1466:Generated_Source\PSoC6/CapSense_Filter.c **** * \param    ptrFilterHistObj The pointer to the filter RAM object of the sensor.
1467:Generated_Source\PSoC6/CapSense_Filter.c **** * \param    ptrAlpFilterConfig The pointer to the filter configuration object of the sensor.
1468:Generated_Source\PSoC6/CapSense_Filter.c **** * \param    ptrSensorObj     The pointer to the sensor RAM object of the sensor.
1469:Generated_Source\PSoC6/CapSense_Filter.c **** * \param    wdType           Specifies the type of a widget.
1470:Generated_Source\PSoC6/CapSense_Filter.c **** *
1471:Generated_Source\PSoC6/CapSense_Filter.c **** *******************************************************************************/
1472:Generated_Source\PSoC6/CapSense_Filter.c **** void CapSense_RunALPInternal(CapSense_PTR_FILTER_VARIANT ptrFilterHistObj,
1473:Generated_Source\PSoC6/CapSense_Filter.c ****                                     ALP_FLTR_CONFIG_STRUCT *ptrAlpFilterConfig,
1474:Generated_Source\PSoC6/CapSense_Filter.c ****                                     CapSense_RAM_SNS_STRUCT *ptrSensorObj,
1475:Generated_Source\PSoC6/CapSense_Filter.c ****                                     uint32 wdType)
1476:Generated_Source\PSoC6/CapSense_Filter.c **** {
1477:Generated_Source\PSoC6/CapSense_Filter.c ****     uint32 freqChannel;
1478:Generated_Source\PSoC6/CapSense_Filter.c **** 
1479:Generated_Source\PSoC6/CapSense_Filter.c ****     for(freqChannel = CapSense_NUM_SCAN_FREQS; freqChannel-- > 0u;)
1480:Generated_Source\PSoC6/CapSense_Filter.c ****     {
1481:Generated_Source\PSoC6/CapSense_Filter.c ****         if ((CapSense_WD_TYPE_ENUM)wdType != CapSense_WD_PROXIMITY_E)
1482:Generated_Source\PSoC6/CapSense_Filter.c ****         {
1483:Generated_Source\PSoC6/CapSense_Filter.c ****             #if (CapSense_REGULAR_SENSOR_EN && CapSense_REGULAR_RC_ALP_FILTER_EN)
1484:Generated_Source\PSoC6/CapSense_Filter.c ****                 ptrAlpFilterConfig->configParam5 = CapSense_REGULAR_RC_ALP_FILTER_COEFF;
1485:Generated_Source\PSoC6/CapSense_Filter.c ****                 ALP_Run(&ptrFilterHistObj.ptrAlp->channel[freqChannel], ptrAlpFilterConfig, &ptrSen
1486:Generated_Source\PSoC6/CapSense_Filter.c ****             #endif
1487:Generated_Source\PSoC6/CapSense_Filter.c ****         }
1488:Generated_Source\PSoC6/CapSense_Filter.c ****         else
1489:Generated_Source\PSoC6/CapSense_Filter.c ****         {
1490:Generated_Source\PSoC6/CapSense_Filter.c ****             #if (CapSense_PROXIMITY_SENSOR_EN && CapSense_PROX_RC_ALP_FILTER_EN)
1491:Generated_Source\PSoC6/CapSense_Filter.c ****                 ptrAlpFilterConfig->configParam5 = CapSense_PROX_RC_ALP_FILTER_COEFF;
1492:Generated_Source\PSoC6/CapSense_Filter.c ****                 ALP_Run(&ptrFilterHistObj.ptrAlp->channel[freqChannel], ptrAlpFilterConfig, &ptrSen
1493:Generated_Source\PSoC6/CapSense_Filter.c ****             #endif
1494:Generated_Source\PSoC6/CapSense_Filter.c ****         }
1495:Generated_Source\PSoC6/CapSense_Filter.c ****     }
1496:Generated_Source\PSoC6/CapSense_Filter.c **** }
1497:Generated_Source\PSoC6/CapSense_Filter.c **** #endif /* (CapSense_ENABLE == CapSense_ALP_FILTER_EN) */
1498:Generated_Source\PSoC6/CapSense_Filter.c **** 
1499:Generated_Source\PSoC6/CapSense_Filter.c **** #if (CapSense_ENABLE == CapSense_RC_FILTER_EN)
ARM GAS  C:\Users\ikomb\AppData\Local\Temp\cclK6Blf.s 			page 59


1500:Generated_Source\PSoC6/CapSense_Filter.c **** /*******************************************************************************
1501:Generated_Source\PSoC6/CapSense_Filter.c **** * Function Name: CapSense_FtRunEnabledFilters
1502:Generated_Source\PSoC6/CapSense_Filter.c **** ****************************************************************************//**
1503:Generated_Source\PSoC6/CapSense_Filter.c **** *
1504:Generated_Source\PSoC6/CapSense_Filter.c **** * \brief    Runs all enabled filters.
1505:Generated_Source\PSoC6/CapSense_Filter.c **** *
1506:Generated_Source\PSoC6/CapSense_Filter.c **** * \details  Runs all enabled filters.
1507:Generated_Source\PSoC6/CapSense_Filter.c **** *
1508:Generated_Source\PSoC6/CapSense_Filter.c **** * \param    widgetId Specifies the ID number of a widget to update the IIR filter history.*
1509:Generated_Source\PSoC6/CapSense_Filter.c **** * \param    sensorId Specifies the ID number of a sensor in the widget to update the IIR
1510:Generated_Source\PSoC6/CapSense_Filter.c **** *           filter history.
1511:Generated_Source\PSoC6/CapSense_Filter.c **** *
1512:Generated_Source\PSoC6/CapSense_Filter.c **** *******************************************************************************/
1513:Generated_Source\PSoC6/CapSense_Filter.c **** void CapSense_FtRunEnabledFilters(uint32 widgetId, uint32 sensorId)
1514:Generated_Source\PSoC6/CapSense_Filter.c **** {
 1784              		.loc 1 1514 0
 1785              		.cfi_startproc
 1786              		@ args = 0, pretend = 0, frame = 24
 1787              		@ frame_needed = 1, uses_anonymous_args = 0
 1788 0000 80B5     		push	{r7, lr}
 1789              		.cfi_def_cfa_offset 8
 1790              		.cfi_offset 7, -8
 1791              		.cfi_offset 14, -4
 1792 0002 86B0     		sub	sp, sp, #24
 1793              		.cfi_def_cfa_offset 32
 1794 0004 00AF     		add	r7, sp, #0
 1795              		.cfi_def_cfa_register 7
 1796 0006 7860     		str	r0, [r7, #4]
 1797 0008 3960     		str	r1, [r7]
1515:Generated_Source\PSoC6/CapSense_Filter.c ****     CapSense_FLASH_WD_STRUCT const *ptrWidget = &CapSense_dsFlash.wdgtArray[widgetId];
 1798              		.loc 1 1515 0
 1799 000a 7A68     		ldr	r2, [r7, #4]
 1800 000c 1346     		mov	r3, r2
 1801 000e 5B00     		lsls	r3, r3, #1
 1802 0010 1344     		add	r3, r3, r2
 1803 0012 1B01     		lsls	r3, r3, #4
 1804 0014 154A     		ldr	r2, .L80
 1805 0016 1344     		add	r3, r3, r2
 1806 0018 7B61     		str	r3, [r7, #20]
1516:Generated_Source\PSoC6/CapSense_Filter.c ****     CapSense_RAM_SNS_STRUCT *ptrSensor = NULL;
 1807              		.loc 1 1516 0
 1808 001a 0023     		movs	r3, #0
 1809 001c 3B61     		str	r3, [r7, #16]
1517:Generated_Source\PSoC6/CapSense_Filter.c ****     CapSense_PTR_FILTER_VARIANT ptrFilterHistObj;
1518:Generated_Source\PSoC6/CapSense_Filter.c **** 
1519:Generated_Source\PSoC6/CapSense_Filter.c ****     /* Find pointer to specified sensor object */
1520:Generated_Source\PSoC6/CapSense_Filter.c ****     ptrSensor = ptrWidget->ptr2SnsRam;
 1810              		.loc 1 1520 0
 1811 001e 7B69     		ldr	r3, [r7, #20]
 1812 0020 9B68     		ldr	r3, [r3, #8]
 1813 0022 3B61     		str	r3, [r7, #16]
1521:Generated_Source\PSoC6/CapSense_Filter.c ****     ptrSensor = &ptrSensor[sensorId];
 1814              		.loc 1 1521 0
 1815 0024 3A68     		ldr	r2, [r7]
 1816 0026 1346     		mov	r3, r2
 1817 0028 9B00     		lsls	r3, r3, #2
 1818 002a 1344     		add	r3, r3, r2
ARM GAS  C:\Users\ikomb\AppData\Local\Temp\cclK6Blf.s 			page 60


 1819 002c 5B00     		lsls	r3, r3, #1
 1820 002e 1A46     		mov	r2, r3
 1821 0030 3B69     		ldr	r3, [r7, #16]
 1822 0032 1344     		add	r3, r3, r2
 1823 0034 3B61     		str	r3, [r7, #16]
1522:Generated_Source\PSoC6/CapSense_Filter.c **** 
1523:Generated_Source\PSoC6/CapSense_Filter.c ****     /* Find pointer to specified filter sensor object */
1524:Generated_Source\PSoC6/CapSense_Filter.c ****     ptrFilterHistObj.ptr = ptrWidget->ptr2FltrHistory;
 1824              		.loc 1 1524 0
 1825 0036 7B69     		ldr	r3, [r7, #20]
 1826 0038 DB68     		ldr	r3, [r3, #12]
 1827 003a FB60     		str	r3, [r7, #12]
1525:Generated_Source\PSoC6/CapSense_Filter.c **** 
1526:Generated_Source\PSoC6/CapSense_Filter.c ****     if ((CapSense_WD_TYPE_ENUM)ptrWidget->wdgtType != CapSense_WD_PROXIMITY_E)
 1828              		.loc 1 1526 0
 1829 003c 7B69     		ldr	r3, [r7, #20]
 1830 003e 9B7E     		ldrb	r3, [r3, #26]	@ zero_extendqisi2
 1831 0040 062B     		cmp	r3, #6
 1832 0042 07D0     		beq	.L79
1527:Generated_Source\PSoC6/CapSense_Filter.c ****     {
1528:Generated_Source\PSoC6/CapSense_Filter.c ****         #if (0u != CapSense_REGULAR_RC_ALP_FILTER_EN)
1529:Generated_Source\PSoC6/CapSense_Filter.c ****             ptrFilterHistObj.ptr = &ptrFilterHistObj.ptrAlp[sensorId];
1530:Generated_Source\PSoC6/CapSense_Filter.c ****         #elif (0u != CapSense_REGULAR_RC_FILTER_EN)
1531:Generated_Source\PSoC6/CapSense_Filter.c ****             ptrFilterHistObj.ptr = &ptrFilterHistObj.ptrRegular[sensorId];
 1833              		.loc 1 1531 0
 1834 0044 F968     		ldr	r1, [r7, #12]
 1835 0046 3A68     		ldr	r2, [r7]
 1836 0048 1346     		mov	r3, r2
 1837 004a 9B00     		lsls	r3, r3, #2
 1838 004c 1344     		add	r3, r3, r2
 1839 004e 5B00     		lsls	r3, r3, #1
 1840 0050 0B44     		add	r3, r3, r1
 1841 0052 FB60     		str	r3, [r7, #12]
 1842              	.L79:
1532:Generated_Source\PSoC6/CapSense_Filter.c ****         #endif
1533:Generated_Source\PSoC6/CapSense_Filter.c ****     }
1534:Generated_Source\PSoC6/CapSense_Filter.c ****     else
1535:Generated_Source\PSoC6/CapSense_Filter.c ****     {
1536:Generated_Source\PSoC6/CapSense_Filter.c ****         #if (0u != CapSense_PROX_RC_ALP_FILTER_EN)
1537:Generated_Source\PSoC6/CapSense_Filter.c ****             ptrFilterHistObj.ptr = &ptrFilterHistObj.ptrAlp[sensorId];
1538:Generated_Source\PSoC6/CapSense_Filter.c ****         #elif (0u != CapSense_PROX_RC_FILTER_EN)
1539:Generated_Source\PSoC6/CapSense_Filter.c ****             ptrFilterHistObj.ptr = &ptrFilterHistObj.ptrProx[sensorId];
1540:Generated_Source\PSoC6/CapSense_Filter.c ****         #endif
1541:Generated_Source\PSoC6/CapSense_Filter.c ****     }
1542:Generated_Source\PSoC6/CapSense_Filter.c **** 
1543:Generated_Source\PSoC6/CapSense_Filter.c ****     CapSense_FtRunEnabledFiltersInternal(ptrFilterHistObj, ptrSensor, (uint32)ptrWidget->wdgtType);
 1843              		.loc 1 1543 0
 1844 0054 7B69     		ldr	r3, [r7, #20]
 1845 0056 9B7E     		ldrb	r3, [r3, #26]	@ zero_extendqisi2
 1846 0058 1A46     		mov	r2, r3
 1847 005a 3969     		ldr	r1, [r7, #16]
 1848 005c F868     		ldr	r0, [r7, #12]
 1849 005e FFF7FEFF 		bl	CapSense_FtRunEnabledFiltersInternal
1544:Generated_Source\PSoC6/CapSense_Filter.c ****     #if (CapSense_ALP_FILTER_EN)
1545:Generated_Source\PSoC6/CapSense_Filter.c ****         CapSense_ConfigRunALPInternal(ptrFilterHistObj, ptrWidget->ptr2WdgtRam, ptrSensor, (uint32)
1546:Generated_Source\PSoC6/CapSense_Filter.c ****     #endif
1547:Generated_Source\PSoC6/CapSense_Filter.c **** }
ARM GAS  C:\Users\ikomb\AppData\Local\Temp\cclK6Blf.s 			page 61


 1850              		.loc 1 1547 0
 1851 0062 00BF     		nop
 1852 0064 1837     		adds	r7, r7, #24
 1853              		.cfi_def_cfa_offset 8
 1854 0066 BD46     		mov	sp, r7
 1855              		.cfi_def_cfa_register 13
 1856              		@ sp needed
 1857 0068 80BD     		pop	{r7, pc}
 1858              	.L81:
 1859 006a 00BF     		.align	2
 1860              	.L80:
 1861 006c 00000000 		.word	CapSense_dsFlash
 1862              		.cfi_endproc
 1863              	.LFE145:
 1864              		.size	CapSense_FtRunEnabledFilters, .-CapSense_FtRunEnabledFilters
 1865              		.section	.text.CapSense_FtRunEnabledFiltersInternal,"ax",%progbits
 1866              		.align	2
 1867              		.global	CapSense_FtRunEnabledFiltersInternal
 1868              		.thumb
 1869              		.thumb_func
 1870              		.type	CapSense_FtRunEnabledFiltersInternal, %function
 1871              	CapSense_FtRunEnabledFiltersInternal:
 1872              	.LFB146:
1548:Generated_Source\PSoC6/CapSense_Filter.c **** 
1549:Generated_Source\PSoC6/CapSense_Filter.c **** 
1550:Generated_Source\PSoC6/CapSense_Filter.c **** /*******************************************************************************
1551:Generated_Source\PSoC6/CapSense_Filter.c **** * Function Name: CapSense_FtRunEnabledFiltersInternal
1552:Generated_Source\PSoC6/CapSense_Filter.c **** ****************************************************************************//**
1553:Generated_Source\PSoC6/CapSense_Filter.c **** *
1554:Generated_Source\PSoC6/CapSense_Filter.c **** * \brief    Runs all enabled filters.
1555:Generated_Source\PSoC6/CapSense_Filter.c **** *
1556:Generated_Source\PSoC6/CapSense_Filter.c **** * \details  Runs all enabled filters.
1557:Generated_Source\PSoC6/CapSense_Filter.c **** *
1558:Generated_Source\PSoC6/CapSense_Filter.c **** * \param    ptrFilterHistObj The pointer to the filter RAM object of the sensor.
1559:Generated_Source\PSoC6/CapSense_Filter.c **** * \param    ptrSensorObj     The pointer to the sensor RAM object of the sensor.
1560:Generated_Source\PSoC6/CapSense_Filter.c **** * \param    wdType           Specifies the type of a widget.
1561:Generated_Source\PSoC6/CapSense_Filter.c **** *
1562:Generated_Source\PSoC6/CapSense_Filter.c **** *******************************************************************************/
1563:Generated_Source\PSoC6/CapSense_Filter.c **** void CapSense_FtRunEnabledFiltersInternal(CapSense_PTR_FILTER_VARIANT ptrFilterHistObj,
1564:Generated_Source\PSoC6/CapSense_Filter.c ****                                                   CapSense_RAM_SNS_STRUCT *ptrSensorObj, uint32 wdT
1565:Generated_Source\PSoC6/CapSense_Filter.c **** {
 1873              		.loc 1 1565 0
 1874              		.cfi_startproc
 1875              		@ args = 0, pretend = 0, frame = 16
 1876              		@ frame_needed = 1, uses_anonymous_args = 0
 1877 0000 80B5     		push	{r7, lr}
 1878              		.cfi_def_cfa_offset 8
 1879              		.cfi_offset 7, -8
 1880              		.cfi_offset 14, -4
 1881 0002 84B0     		sub	sp, sp, #16
 1882              		.cfi_def_cfa_offset 24
 1883 0004 00AF     		add	r7, sp, #0
 1884              		.cfi_def_cfa_register 7
 1885 0006 F860     		str	r0, [r7, #12]
 1886 0008 B960     		str	r1, [r7, #8]
 1887 000a 7A60     		str	r2, [r7, #4]
1566:Generated_Source\PSoC6/CapSense_Filter.c ****     #if (CapSense_REGULAR_RC_MEDIAN_FILTER_EN || CapSense_PROX_RC_MEDIAN_FILTER_EN)
ARM GAS  C:\Users\ikomb\AppData\Local\Temp\cclK6Blf.s 			page 62


1567:Generated_Source\PSoC6/CapSense_Filter.c ****         CapSense_RunMedianInternal(ptrFilterHistObj, ptrSensorObj, wdType);
 1888              		.loc 1 1567 0
 1889 000c 7A68     		ldr	r2, [r7, #4]
 1890 000e B968     		ldr	r1, [r7, #8]
 1891 0010 F868     		ldr	r0, [r7, #12]
 1892 0012 FFF7FEFF 		bl	CapSense_RunMedianInternal
1568:Generated_Source\PSoC6/CapSense_Filter.c ****     #endif /* (CapSense_REGULAR_RC_MEDIAN_FILTER_EN || CapSense_PROX_RC_MEDIAN_FILTER_EN) */
1569:Generated_Source\PSoC6/CapSense_Filter.c **** 
1570:Generated_Source\PSoC6/CapSense_Filter.c ****     #if (CapSense_REGULAR_RC_IIR_FILTER_EN || CapSense_PROX_RC_IIR_FILTER_EN)
1571:Generated_Source\PSoC6/CapSense_Filter.c ****         CapSense_RunIIRInternal(ptrFilterHistObj, ptrSensorObj, wdType);
1572:Generated_Source\PSoC6/CapSense_Filter.c ****     #endif /* (CapSense_REGULAR_RC_IIR_FILTER_EN || CapSense_PROX_RC_IIR_FILTER_EN) */
1573:Generated_Source\PSoC6/CapSense_Filter.c **** 
1574:Generated_Source\PSoC6/CapSense_Filter.c ****     #if (CapSense_REGULAR_RC_AVERAGE_FILTER_EN || CapSense_PROX_RC_AVERAGE_FILTER_EN)
1575:Generated_Source\PSoC6/CapSense_Filter.c ****         CapSense_RunAverageInternal(ptrFilterHistObj, ptrSensorObj, wdType);
 1893              		.loc 1 1575 0
 1894 0016 7A68     		ldr	r2, [r7, #4]
 1895 0018 B968     		ldr	r1, [r7, #8]
 1896 001a F868     		ldr	r0, [r7, #12]
 1897 001c FFF7FEFF 		bl	CapSense_RunAverageInternal
1576:Generated_Source\PSoC6/CapSense_Filter.c ****     #endif /* (CapSense_REGULAR_RC_AVERAGE_FILTER_EN || CapSense_PROX_RC_AVERAGE_FILTER_EN) */
1577:Generated_Source\PSoC6/CapSense_Filter.c **** }
 1898              		.loc 1 1577 0
 1899 0020 00BF     		nop
 1900 0022 1037     		adds	r7, r7, #16
 1901              		.cfi_def_cfa_offset 8
 1902 0024 BD46     		mov	sp, r7
 1903              		.cfi_def_cfa_register 13
 1904              		@ sp needed
 1905 0026 80BD     		pop	{r7, pc}
 1906              		.cfi_endproc
 1907              	.LFE146:
 1908              		.size	CapSense_FtRunEnabledFiltersInternal, .-CapSense_FtRunEnabledFiltersInternal
 1909              		.section	.text.CapSense_RunNoiseEnvelope,"ax",%progbits
 1910              		.align	2
 1911              		.global	CapSense_RunNoiseEnvelope
 1912              		.thumb
 1913              		.thumb_func
 1914              		.type	CapSense_RunNoiseEnvelope, %function
 1915              	CapSense_RunNoiseEnvelope:
 1916              	.LFB147:
1578:Generated_Source\PSoC6/CapSense_Filter.c **** #endif /* (CapSense_ENABLE == CapSense_RC_FILTER_EN) */
1579:Generated_Source\PSoC6/CapSense_Filter.c **** 
1580:Generated_Source\PSoC6/CapSense_Filter.c **** 
1581:Generated_Source\PSoC6/CapSense_Filter.c **** #if (0u != (CapSense_CSD_AUTOTUNE & CapSense_CSD_SS_TH_EN))
1582:Generated_Source\PSoC6/CapSense_Filter.c **** /*******************************************************************************
1583:Generated_Source\PSoC6/CapSense_Filter.c **** * Function Name: CapSense_RunNoiseEnvelope
1584:Generated_Source\PSoC6/CapSense_Filter.c **** ****************************************************************************//**
1585:Generated_Source\PSoC6/CapSense_Filter.c **** *
1586:Generated_Source\PSoC6/CapSense_Filter.c **** * \brief    Executes the noise envelope  filter algorithm on a sensor indicated by
1587:Generated_Source\PSoC6/CapSense_Filter.c **** *           an input parameter to measure the pk-to-pk noise in the sensor raw count.
1588:Generated_Source\PSoC6/CapSense_Filter.c **** *
1589:Generated_Source\PSoC6/CapSense_Filter.c **** * \details  Executes the noise envelope  filter algorithm on a sensor indicated by
1590:Generated_Source\PSoC6/CapSense_Filter.c **** *           an input parameter to measure the pk-to-pk noise in the sensor raw count.
1591:Generated_Source\PSoC6/CapSense_Filter.c **** *
1592:Generated_Source\PSoC6/CapSense_Filter.c **** * \param    widgetId Specifies the ID number of the widget.
1593:Generated_Source\PSoC6/CapSense_Filter.c **** * \param    sensorId Specifies the ID number of the sensor in the widget.
1594:Generated_Source\PSoC6/CapSense_Filter.c **** *
ARM GAS  C:\Users\ikomb\AppData\Local\Temp\cclK6Blf.s 			page 63


1595:Generated_Source\PSoC6/CapSense_Filter.c **** *******************************************************************************/
1596:Generated_Source\PSoC6/CapSense_Filter.c **** void CapSense_RunNoiseEnvelope(uint32 widgetId, uint32 sensorId)
1597:Generated_Source\PSoC6/CapSense_Filter.c **** {
 1917              		.loc 1 1597 0
 1918              		.cfi_startproc
 1919              		@ args = 0, pretend = 0, frame = 24
 1920              		@ frame_needed = 1, uses_anonymous_args = 0
 1921 0000 80B5     		push	{r7, lr}
 1922              		.cfi_def_cfa_offset 8
 1923              		.cfi_offset 7, -8
 1924              		.cfi_offset 14, -4
 1925 0002 86B0     		sub	sp, sp, #24
 1926              		.cfi_def_cfa_offset 32
 1927 0004 00AF     		add	r7, sp, #0
 1928              		.cfi_def_cfa_register 7
 1929 0006 7860     		str	r0, [r7, #4]
 1930 0008 3960     		str	r1, [r7]
1598:Generated_Source\PSoC6/CapSense_Filter.c ****     CapSense_FLASH_WD_STRUCT const *ptrWidget = &CapSense_dsFlash.wdgtArray[widgetId];
 1931              		.loc 1 1598 0
 1932 000a 7A68     		ldr	r2, [r7, #4]
 1933 000c 1346     		mov	r3, r2
 1934 000e 5B00     		lsls	r3, r3, #1
 1935 0010 1344     		add	r3, r3, r2
 1936 0012 1B01     		lsls	r3, r3, #4
 1937 0014 164A     		ldr	r2, .L84
 1938 0016 1344     		add	r3, r3, r2
 1939 0018 7B61     		str	r3, [r7, #20]
1599:Generated_Source\PSoC6/CapSense_Filter.c ****     CapSense_RAM_WD_BASE_STRUCT *ptrWidgetRam = ptrWidget->ptr2WdgtRam;
 1940              		.loc 1 1599 0
 1941 001a 7B69     		ldr	r3, [r7, #20]
 1942 001c 5B68     		ldr	r3, [r3, #4]
 1943 001e 3B61     		str	r3, [r7, #16]
1600:Generated_Source\PSoC6/CapSense_Filter.c ****     CapSense_RAM_SNS_STRUCT *ptrSensor = NULL;
 1944              		.loc 1 1600 0
 1945 0020 0023     		movs	r3, #0
 1946 0022 FB60     		str	r3, [r7, #12]
1601:Generated_Source\PSoC6/CapSense_Filter.c ****     SMARTSENSE_CSD_NOISE_ENVELOPE_STRUCT *ptrNoiseEnvelope = NULL;
 1947              		.loc 1 1601 0
 1948 0024 0023     		movs	r3, #0
 1949 0026 BB60     		str	r3, [r7, #8]
1602:Generated_Source\PSoC6/CapSense_Filter.c **** 
1603:Generated_Source\PSoC6/CapSense_Filter.c ****     /* Find pointer to specified sensor object */
1604:Generated_Source\PSoC6/CapSense_Filter.c ****     ptrSensor = ptrWidget->ptr2SnsRam;
 1950              		.loc 1 1604 0
 1951 0028 7B69     		ldr	r3, [r7, #20]
 1952 002a 9B68     		ldr	r3, [r3, #8]
 1953 002c FB60     		str	r3, [r7, #12]
1605:Generated_Source\PSoC6/CapSense_Filter.c ****     ptrSensor = &ptrSensor[sensorId];
 1954              		.loc 1 1605 0
 1955 002e 3A68     		ldr	r2, [r7]
 1956 0030 1346     		mov	r3, r2
 1957 0032 9B00     		lsls	r3, r3, #2
 1958 0034 1344     		add	r3, r3, r2
 1959 0036 5B00     		lsls	r3, r3, #1
 1960 0038 1A46     		mov	r2, r3
 1961 003a FB68     		ldr	r3, [r7, #12]
 1962 003c 1344     		add	r3, r3, r2
ARM GAS  C:\Users\ikomb\AppData\Local\Temp\cclK6Blf.s 			page 64


 1963 003e FB60     		str	r3, [r7, #12]
1606:Generated_Source\PSoC6/CapSense_Filter.c **** 
1607:Generated_Source\PSoC6/CapSense_Filter.c ****     /* Find pointer to specified filter sensor object */
1608:Generated_Source\PSoC6/CapSense_Filter.c ****     ptrNoiseEnvelope = ptrWidget->ptr2NoiseEnvlp;
 1964              		.loc 1 1608 0
 1965 0040 7B69     		ldr	r3, [r7, #20]
 1966 0042 5B6A     		ldr	r3, [r3, #36]
 1967 0044 BB60     		str	r3, [r7, #8]
1609:Generated_Source\PSoC6/CapSense_Filter.c ****     ptrNoiseEnvelope = &ptrNoiseEnvelope[sensorId];
 1968              		.loc 1 1609 0
 1969 0046 3A68     		ldr	r2, [r7]
 1970 0048 1346     		mov	r3, r2
 1971 004a 5B00     		lsls	r3, r3, #1
 1972 004c 1344     		add	r3, r3, r2
 1973 004e 9B00     		lsls	r3, r3, #2
 1974 0050 1A46     		mov	r2, r3
 1975 0052 BB68     		ldr	r3, [r7, #8]
 1976 0054 1344     		add	r3, r3, r2
 1977 0056 BB60     		str	r3, [r7, #8]
1610:Generated_Source\PSoC6/CapSense_Filter.c **** 
1611:Generated_Source\PSoC6/CapSense_Filter.c ****     SmartSense_RunNoiseEnvelope(ptrSensor->raw[0u], ptrWidgetRam->sigPFC, ptrNoiseEnvelope);
 1978              		.loc 1 1611 0
 1979 0058 FB68     		ldr	r3, [r7, #12]
 1980 005a 1888     		ldrh	r0, [r3]
 1981 005c 3B69     		ldr	r3, [r7, #16]
 1982 005e 1B8A     		ldrh	r3, [r3, #16]
 1983 0060 BA68     		ldr	r2, [r7, #8]
 1984 0062 1946     		mov	r1, r3
 1985 0064 FFF7FEFF 		bl	SmartSense_RunNoiseEnvelope
1612:Generated_Source\PSoC6/CapSense_Filter.c **** }
 1986              		.loc 1 1612 0
 1987 0068 00BF     		nop
 1988 006a 1837     		adds	r7, r7, #24
 1989              		.cfi_def_cfa_offset 8
 1990 006c BD46     		mov	sp, r7
 1991              		.cfi_def_cfa_register 13
 1992              		@ sp needed
 1993 006e 80BD     		pop	{r7, pc}
 1994              	.L85:
 1995              		.align	2
 1996              	.L84:
 1997 0070 00000000 		.word	CapSense_dsFlash
 1998              		.cfi_endproc
 1999              	.LFE147:
 2000              		.size	CapSense_RunNoiseEnvelope, .-CapSense_RunNoiseEnvelope
 2001              		.section	.text.CapSense_InitializeNoiseEnvelope,"ax",%progbits
 2002              		.align	2
 2003              		.global	CapSense_InitializeNoiseEnvelope
 2004              		.thumb
 2005              		.thumb_func
 2006              		.type	CapSense_InitializeNoiseEnvelope, %function
 2007              	CapSense_InitializeNoiseEnvelope:
 2008              	.LFB148:
1613:Generated_Source\PSoC6/CapSense_Filter.c **** 
1614:Generated_Source\PSoC6/CapSense_Filter.c **** 
1615:Generated_Source\PSoC6/CapSense_Filter.c **** /*******************************************************************************
1616:Generated_Source\PSoC6/CapSense_Filter.c **** * Function Name: CapSense_InitializeNoiseEnvelope
ARM GAS  C:\Users\ikomb\AppData\Local\Temp\cclK6Blf.s 			page 65


1617:Generated_Source\PSoC6/CapSense_Filter.c **** ****************************************************************************//**
1618:Generated_Source\PSoC6/CapSense_Filter.c **** *
1619:Generated_Source\PSoC6/CapSense_Filter.c **** * \brief    Initializes the noise-envelope filter
1620:Generated_Source\PSoC6/CapSense_Filter.c **** *
1621:Generated_Source\PSoC6/CapSense_Filter.c **** * \details  Initializes the noise-envelope filter
1622:Generated_Source\PSoC6/CapSense_Filter.c **** *
1623:Generated_Source\PSoC6/CapSense_Filter.c **** * \param    widgetId Specifies the ID number of the widget.
1624:Generated_Source\PSoC6/CapSense_Filter.c **** * \param    sensorId Specifies the ID number of the sensor in the widget.
1625:Generated_Source\PSoC6/CapSense_Filter.c **** *
1626:Generated_Source\PSoC6/CapSense_Filter.c **** *******************************************************************************/
1627:Generated_Source\PSoC6/CapSense_Filter.c **** void CapSense_InitializeNoiseEnvelope(uint32 widgetId, uint32 sensorId)
1628:Generated_Source\PSoC6/CapSense_Filter.c **** {
 2009              		.loc 1 1628 0
 2010              		.cfi_startproc
 2011              		@ args = 0, pretend = 0, frame = 24
 2012              		@ frame_needed = 1, uses_anonymous_args = 0
 2013 0000 80B5     		push	{r7, lr}
 2014              		.cfi_def_cfa_offset 8
 2015              		.cfi_offset 7, -8
 2016              		.cfi_offset 14, -4
 2017 0002 86B0     		sub	sp, sp, #24
 2018              		.cfi_def_cfa_offset 32
 2019 0004 00AF     		add	r7, sp, #0
 2020              		.cfi_def_cfa_register 7
 2021 0006 7860     		str	r0, [r7, #4]
 2022 0008 3960     		str	r1, [r7]
1629:Generated_Source\PSoC6/CapSense_Filter.c ****     CapSense_FLASH_WD_STRUCT const *ptrWidget = &CapSense_dsFlash.wdgtArray[widgetId];
 2023              		.loc 1 1629 0
 2024 000a 7A68     		ldr	r2, [r7, #4]
 2025 000c 1346     		mov	r3, r2
 2026 000e 5B00     		lsls	r3, r3, #1
 2027 0010 1344     		add	r3, r3, r2
 2028 0012 1B01     		lsls	r3, r3, #4
 2029 0014 164A     		ldr	r2, .L87
 2030 0016 1344     		add	r3, r3, r2
 2031 0018 7B61     		str	r3, [r7, #20]
1630:Generated_Source\PSoC6/CapSense_Filter.c ****     CapSense_RAM_WD_BASE_STRUCT *ptrWidgetRam = ptrWidget->ptr2WdgtRam;
 2032              		.loc 1 1630 0
 2033 001a 7B69     		ldr	r3, [r7, #20]
 2034 001c 5B68     		ldr	r3, [r3, #4]
 2035 001e 3B61     		str	r3, [r7, #16]
1631:Generated_Source\PSoC6/CapSense_Filter.c ****     CapSense_RAM_SNS_STRUCT *ptrSensor = NULL;
 2036              		.loc 1 1631 0
 2037 0020 0023     		movs	r3, #0
 2038 0022 FB60     		str	r3, [r7, #12]
1632:Generated_Source\PSoC6/CapSense_Filter.c ****     SMARTSENSE_CSD_NOISE_ENVELOPE_STRUCT *ptrNoiseEnvelope = NULL;
 2039              		.loc 1 1632 0
 2040 0024 0023     		movs	r3, #0
 2041 0026 BB60     		str	r3, [r7, #8]
1633:Generated_Source\PSoC6/CapSense_Filter.c **** 
1634:Generated_Source\PSoC6/CapSense_Filter.c ****     /* Find pointer to specified sensor object */
1635:Generated_Source\PSoC6/CapSense_Filter.c ****     ptrSensor = ptrWidget->ptr2SnsRam;
 2042              		.loc 1 1635 0
 2043 0028 7B69     		ldr	r3, [r7, #20]
 2044 002a 9B68     		ldr	r3, [r3, #8]
 2045 002c FB60     		str	r3, [r7, #12]
1636:Generated_Source\PSoC6/CapSense_Filter.c ****     ptrSensor = &ptrSensor[sensorId];
ARM GAS  C:\Users\ikomb\AppData\Local\Temp\cclK6Blf.s 			page 66


 2046              		.loc 1 1636 0
 2047 002e 3A68     		ldr	r2, [r7]
 2048 0030 1346     		mov	r3, r2
 2049 0032 9B00     		lsls	r3, r3, #2
 2050 0034 1344     		add	r3, r3, r2
 2051 0036 5B00     		lsls	r3, r3, #1
 2052 0038 1A46     		mov	r2, r3
 2053 003a FB68     		ldr	r3, [r7, #12]
 2054 003c 1344     		add	r3, r3, r2
 2055 003e FB60     		str	r3, [r7, #12]
1637:Generated_Source\PSoC6/CapSense_Filter.c **** 
1638:Generated_Source\PSoC6/CapSense_Filter.c ****     /* Find pointer to specified filter sensor object */
1639:Generated_Source\PSoC6/CapSense_Filter.c ****     ptrNoiseEnvelope = ptrWidget->ptr2NoiseEnvlp;
 2056              		.loc 1 1639 0
 2057 0040 7B69     		ldr	r3, [r7, #20]
 2058 0042 5B6A     		ldr	r3, [r3, #36]
 2059 0044 BB60     		str	r3, [r7, #8]
1640:Generated_Source\PSoC6/CapSense_Filter.c ****     ptrNoiseEnvelope = &ptrNoiseEnvelope[sensorId];
 2060              		.loc 1 1640 0
 2061 0046 3A68     		ldr	r2, [r7]
 2062 0048 1346     		mov	r3, r2
 2063 004a 5B00     		lsls	r3, r3, #1
 2064 004c 1344     		add	r3, r3, r2
 2065 004e 9B00     		lsls	r3, r3, #2
 2066 0050 1A46     		mov	r2, r3
 2067 0052 BB68     		ldr	r3, [r7, #8]
 2068 0054 1344     		add	r3, r3, r2
 2069 0056 BB60     		str	r3, [r7, #8]
1641:Generated_Source\PSoC6/CapSense_Filter.c **** 
1642:Generated_Source\PSoC6/CapSense_Filter.c ****     SmartSense_InitializeNoiseEnvelope(ptrSensor->raw[0u], ptrWidgetRam->sigPFC, ptrNoiseEnvelope);
 2070              		.loc 1 1642 0
 2071 0058 FB68     		ldr	r3, [r7, #12]
 2072 005a 1888     		ldrh	r0, [r3]
 2073 005c 3B69     		ldr	r3, [r7, #16]
 2074 005e 1B8A     		ldrh	r3, [r3, #16]
 2075 0060 BA68     		ldr	r2, [r7, #8]
 2076 0062 1946     		mov	r1, r3
 2077 0064 FFF7FEFF 		bl	SmartSense_InitializeNoiseEnvelope
1643:Generated_Source\PSoC6/CapSense_Filter.c **** }
 2078              		.loc 1 1643 0
 2079 0068 00BF     		nop
 2080 006a 1837     		adds	r7, r7, #24
 2081              		.cfi_def_cfa_offset 8
 2082 006c BD46     		mov	sp, r7
 2083              		.cfi_def_cfa_register 13
 2084              		@ sp needed
 2085 006e 80BD     		pop	{r7, pc}
 2086              	.L88:
 2087              		.align	2
 2088              	.L87:
 2089 0070 00000000 		.word	CapSense_dsFlash
 2090              		.cfi_endproc
 2091              	.LFE148:
 2092              		.size	CapSense_InitializeNoiseEnvelope, .-CapSense_InitializeNoiseEnvelope
 2093              		.section	.text.CapSense_FtMedian,"ax",%progbits
 2094              		.align	2
 2095              		.global	CapSense_FtMedian
ARM GAS  C:\Users\ikomb\AppData\Local\Temp\cclK6Blf.s 			page 67


 2096              		.thumb
 2097              		.thumb_func
 2098              		.type	CapSense_FtMedian, %function
 2099              	CapSense_FtMedian:
 2100              	.LFB149:
1644:Generated_Source\PSoC6/CapSense_Filter.c **** #endif /* (0u != (CapSense_CSD_AUTOTUNE & CapSense_CSD_SS_TH_EN)) */
1645:Generated_Source\PSoC6/CapSense_Filter.c **** 
1646:Generated_Source\PSoC6/CapSense_Filter.c **** 
1647:Generated_Source\PSoC6/CapSense_Filter.c **** #if (CapSense_POS_MEDIAN_FILTER_EN || CapSense_REGULAR_RC_MEDIAN_FILTER_EN || CapSense_PROX_RC_MEDI
1648:Generated_Source\PSoC6/CapSense_Filter.c **** /*******************************************************************************
1649:Generated_Source\PSoC6/CapSense_Filter.c **** * Function Name: CapSense_FtMedian
1650:Generated_Source\PSoC6/CapSense_Filter.c **** ****************************************************************************//**
1651:Generated_Source\PSoC6/CapSense_Filter.c **** *
1652:Generated_Source\PSoC6/CapSense_Filter.c **** * \brief    Return the median value from the three passed arguments.
1653:Generated_Source\PSoC6/CapSense_Filter.c **** *
1654:Generated_Source\PSoC6/CapSense_Filter.c **** * \details  Return the median value from the three passed arguments.
1655:Generated_Source\PSoC6/CapSense_Filter.c **** *
1656:Generated_Source\PSoC6/CapSense_Filter.c **** * \param    x1 The first value to be compared.
1657:Generated_Source\PSoC6/CapSense_Filter.c **** * \param    x2 The second value to be compared.
1658:Generated_Source\PSoC6/CapSense_Filter.c **** * \param    x3 The third value to be compared.
1659:Generated_Source\PSoC6/CapSense_Filter.c **** *
1660:Generated_Source\PSoC6/CapSense_Filter.c **** * \return   Returns the median value of input arguments.
1661:Generated_Source\PSoC6/CapSense_Filter.c **** *
1662:Generated_Source\PSoC6/CapSense_Filter.c **** *******************************************************************************/
1663:Generated_Source\PSoC6/CapSense_Filter.c **** uint32 CapSense_FtMedian(uint32 x1, uint32 x2, uint32 x3)
1664:Generated_Source\PSoC6/CapSense_Filter.c **** {
 2101              		.loc 1 1664 0
 2102              		.cfi_startproc
 2103              		@ args = 0, pretend = 0, frame = 24
 2104              		@ frame_needed = 1, uses_anonymous_args = 0
 2105              		@ link register save eliminated.
 2106 0000 80B4     		push	{r7}
 2107              		.cfi_def_cfa_offset 4
 2108              		.cfi_offset 7, -4
 2109 0002 87B0     		sub	sp, sp, #28
 2110              		.cfi_def_cfa_offset 32
 2111 0004 00AF     		add	r7, sp, #0
 2112              		.cfi_def_cfa_register 7
 2113 0006 F860     		str	r0, [r7, #12]
 2114 0008 B960     		str	r1, [r7, #8]
 2115 000a 7A60     		str	r2, [r7, #4]
1665:Generated_Source\PSoC6/CapSense_Filter.c ****     uint32 tmp;
1666:Generated_Source\PSoC6/CapSense_Filter.c **** 
1667:Generated_Source\PSoC6/CapSense_Filter.c ****     if (x1 > x2)
 2116              		.loc 1 1667 0
 2117 000c FA68     		ldr	r2, [r7, #12]
 2118 000e BB68     		ldr	r3, [r7, #8]
 2119 0010 9A42     		cmp	r2, r3
 2120 0012 05D9     		bls	.L90
1668:Generated_Source\PSoC6/CapSense_Filter.c ****     {
1669:Generated_Source\PSoC6/CapSense_Filter.c ****         tmp = x2;
 2121              		.loc 1 1669 0
 2122 0014 BB68     		ldr	r3, [r7, #8]
 2123 0016 7B61     		str	r3, [r7, #20]
1670:Generated_Source\PSoC6/CapSense_Filter.c ****         x2 = x1;
 2124              		.loc 1 1670 0
 2125 0018 FB68     		ldr	r3, [r7, #12]
ARM GAS  C:\Users\ikomb\AppData\Local\Temp\cclK6Blf.s 			page 68


 2126 001a BB60     		str	r3, [r7, #8]
1671:Generated_Source\PSoC6/CapSense_Filter.c ****         x1 = tmp;
 2127              		.loc 1 1671 0
 2128 001c 7B69     		ldr	r3, [r7, #20]
 2129 001e FB60     		str	r3, [r7, #12]
 2130              	.L90:
1672:Generated_Source\PSoC6/CapSense_Filter.c ****     }
1673:Generated_Source\PSoC6/CapSense_Filter.c **** 
1674:Generated_Source\PSoC6/CapSense_Filter.c ****     if (x2 > x3)
 2131              		.loc 1 1674 0
 2132 0020 BA68     		ldr	r2, [r7, #8]
 2133 0022 7B68     		ldr	r3, [r7, #4]
 2134 0024 9A42     		cmp	r2, r3
 2135 0026 01D9     		bls	.L91
1675:Generated_Source\PSoC6/CapSense_Filter.c ****     {
1676:Generated_Source\PSoC6/CapSense_Filter.c ****         x2 = x3;
 2136              		.loc 1 1676 0
 2137 0028 7B68     		ldr	r3, [r7, #4]
 2138 002a BB60     		str	r3, [r7, #8]
 2139              	.L91:
1677:Generated_Source\PSoC6/CapSense_Filter.c ****     }
1678:Generated_Source\PSoC6/CapSense_Filter.c **** 
1679:Generated_Source\PSoC6/CapSense_Filter.c ****     return ((x1 > x2) ? x1 : x2);
