ARM GAS  C:\Users\ikomb\AppData\Local\Temp\cclK6Blf.s 			page 1


   1              		.syntax unified
   2              		.cpu cortex-m4
   3              		.eabi_attribute 27, 1
   4              		.fpu fpv4-sp-d16
   5              		.eabi_attribute 20, 1
   6              		.eabi_attribute 21, 1
   7              		.eabi_attribute 23, 3
   8              		.eabi_attribute 24, 1
   9              		.eabi_attribute 25, 1
  10              		.eabi_attribute 26, 1
  11              		.eabi_attribute 30, 6
  12              		.eabi_attribute 34, 1
  13              		.eabi_attribute 18, 4
  14              		.thumb
  15              		.syntax unified
  16              		.file	"CapSense_Filter.c"
  17              		.text
  18              	.Ltext0:
  19              		.cfi_sections	.debug_frame
  20              		.section	.text.CapSense_FtInitialize,"ax",%progbits
  21              		.align	2
  22              		.global	CapSense_FtInitialize
  23              		.thumb
  24              		.thumb_func
  25              		.type	CapSense_FtInitialize, %function
  26              	CapSense_FtInitialize:
  27              	.LFB125:
  28              		.file 1 "Generated_Source\\PSoC6\\CapSense_Filter.c"
   1:Generated_Source\PSoC6/CapSense_Filter.c **** /***************************************************************************//**
   2:Generated_Source\PSoC6/CapSense_Filter.c **** * \file CapSense_Filter.c
   3:Generated_Source\PSoC6/CapSense_Filter.c **** * \version 2.0
   4:Generated_Source\PSoC6/CapSense_Filter.c **** *
   5:Generated_Source\PSoC6/CapSense_Filter.c **** * \brief
   6:Generated_Source\PSoC6/CapSense_Filter.c **** *   This file contains the implementation source code to implement all
   7:Generated_Source\PSoC6/CapSense_Filter.c **** *   firmware filters.
   8:Generated_Source\PSoC6/CapSense_Filter.c **** *
   9:Generated_Source\PSoC6/CapSense_Filter.c **** * \see CapSense v2.0 Datasheet
  10:Generated_Source\PSoC6/CapSense_Filter.c **** *
  11:Generated_Source\PSoC6/CapSense_Filter.c **** *//*****************************************************************************
  12:Generated_Source\PSoC6/CapSense_Filter.c **** * Copyright (2016-2017), Cypress Semiconductor Corporation.
  13:Generated_Source\PSoC6/CapSense_Filter.c **** ********************************************************************************
  14:Generated_Source\PSoC6/CapSense_Filter.c **** * This software is owned by Cypress Semiconductor Corporation (Cypress) and is
  15:Generated_Source\PSoC6/CapSense_Filter.c **** * protected by and subject to worldwide patent protection (United States and
  16:Generated_Source\PSoC6/CapSense_Filter.c **** * foreign), United States copyright laws and international treaty provisions.
  17:Generated_Source\PSoC6/CapSense_Filter.c **** * Cypress hereby grants to licensee a personal, non-exclusive, non-transferable
  18:Generated_Source\PSoC6/CapSense_Filter.c **** * license to copy, use, modify, create derivative works of, and compile the
  19:Generated_Source\PSoC6/CapSense_Filter.c **** * Cypress Source Code and derivative works for the sole purpose of creating
  20:Generated_Source\PSoC6/CapSense_Filter.c **** * custom software in support of licensee product to be used only in conjunction
  21:Generated_Source\PSoC6/CapSense_Filter.c **** * with a Cypress integrated circuit as specified in the applicable agreement.
  22:Generated_Source\PSoC6/CapSense_Filter.c **** * Any reproduction, modification, translation, compilation, or representation of
  23:Generated_Source\PSoC6/CapSense_Filter.c **** * this software except as specified above is prohibited without the express
  24:Generated_Source\PSoC6/CapSense_Filter.c **** * written permission of Cypress.
  25:Generated_Source\PSoC6/CapSense_Filter.c **** *
  26:Generated_Source\PSoC6/CapSense_Filter.c **** * Disclaimer: CYPRESS MAKES NO WARRANTY OF ANY KIND, EXPRESS OR IMPLIED, WITH
  27:Generated_Source\PSoC6/CapSense_Filter.c **** * REGARD TO THIS MATERIAL, INCLUDING, BUT NOT LIMITED TO, THE IMPLIED
  28:Generated_Source\PSoC6/CapSense_Filter.c **** * WARRANTIES OF MERCHANTABILITY AND FITNESS FOR A PARTICULAR PURPOSE.
  29:Generated_Source\PSoC6/CapSense_Filter.c **** * Cypress reserves the right to make changes without further notice to the
ARM GAS  C:\Users\ikomb\AppData\Local\Temp\cclK6Blf.s 			page 2


  30:Generated_Source\PSoC6/CapSense_Filter.c **** * materials described herein. Cypress does not assume any liability arising out
  31:Generated_Source\PSoC6/CapSense_Filter.c **** * of the application or use of any product or circuit described herein. Cypress
  32:Generated_Source\PSoC6/CapSense_Filter.c **** * does not authorize its products for use as critical components in life-support
  33:Generated_Source\PSoC6/CapSense_Filter.c **** * systems where a malfunction or failure may reasonably be expected to result in
  34:Generated_Source\PSoC6/CapSense_Filter.c **** * significant injury to the user. The inclusion of Cypress' product in a life-
  35:Generated_Source\PSoC6/CapSense_Filter.c **** * support systems application implies that the manufacturer assumes all risk of
  36:Generated_Source\PSoC6/CapSense_Filter.c **** * such use and in doing so indemnifies Cypress against all charges. Use may be
  37:Generated_Source\PSoC6/CapSense_Filter.c **** * limited by and subject to the applicable Cypress software license agreement.
  38:Generated_Source\PSoC6/CapSense_Filter.c **** *******************************************************************************/
  39:Generated_Source\PSoC6/CapSense_Filter.c **** 
  40:Generated_Source\PSoC6/CapSense_Filter.c **** #include "stddef.h"
  41:Generated_Source\PSoC6/CapSense_Filter.c **** #include "CapSense_Filter.h"
  42:Generated_Source\PSoC6/CapSense_Filter.c **** #include "CapSense_Configuration.h"
  43:Generated_Source\PSoC6/CapSense_Filter.c **** 
  44:Generated_Source\PSoC6/CapSense_Filter.c **** #if (0 != (CapSense_CSD_AUTOTUNE & CapSense_CSD_SS_TH_EN))
  45:Generated_Source\PSoC6/CapSense_Filter.c ****     #include "CapSense_SmartSense_LL.h"
  46:Generated_Source\PSoC6/CapSense_Filter.c **** #endif /* (0 != (CapSense_CSD_AUTOTUNE & CapSense_CSD_SS_TH_EN)) */
  47:Generated_Source\PSoC6/CapSense_Filter.c **** 
  48:Generated_Source\PSoC6/CapSense_Filter.c **** #if (CapSense_ENABLE == CapSense_SELF_TEST_EN)
  49:Generated_Source\PSoC6/CapSense_Filter.c ****     #include "CapSense_SelfTest.h"
  50:Generated_Source\PSoC6/CapSense_Filter.c **** #endif
  51:Generated_Source\PSoC6/CapSense_Filter.c **** 
  52:Generated_Source\PSoC6/CapSense_Filter.c **** /*******************************************************************************
  53:Generated_Source\PSoC6/CapSense_Filter.c **** * Function Name: CapSense_FtInitialize
  54:Generated_Source\PSoC6/CapSense_Filter.c **** ****************************************************************************//**
  55:Generated_Source\PSoC6/CapSense_Filter.c **** *
  56:Generated_Source\PSoC6/CapSense_Filter.c **** * \brief
  57:Generated_Source\PSoC6/CapSense_Filter.c **** *    Initializes all the firmware filter history, except the baseline filter.
  58:Generated_Source\PSoC6/CapSense_Filter.c **** *
  59:Generated_Source\PSoC6/CapSense_Filter.c **** * \details
  60:Generated_Source\PSoC6/CapSense_Filter.c **** *    Initializes all the firmware filter history, except the baseline filter.
  61:Generated_Source\PSoC6/CapSense_Filter.c **** *
  62:Generated_Source\PSoC6/CapSense_Filter.c **** *******************************************************************************/
  63:Generated_Source\PSoC6/CapSense_Filter.c **** void CapSense_FtInitialize(void)
  64:Generated_Source\PSoC6/CapSense_Filter.c **** {
  29              		.loc 1 64 0
  30              		.cfi_startproc
  31              		@ args = 0, pretend = 0, frame = 0
  32              		@ frame_needed = 1, uses_anonymous_args = 0
  33 0000 80B5     		push	{r7, lr}
  34              		.cfi_def_cfa_offset 8
  35              		.cfi_offset 7, -8
  36              		.cfi_offset 14, -4
  37 0002 00AF     		add	r7, sp, #0
  38              		.cfi_def_cfa_register 7
  65:Generated_Source\PSoC6/CapSense_Filter.c ****     #if ((CapSense_ENABLE == CapSense_RC_FILTER_EN) || \
  66:Generated_Source\PSoC6/CapSense_Filter.c ****          (0u != (CapSense_CSD_AUTOTUNE & CapSense_CSD_SS_TH_EN)))
  67:Generated_Source\PSoC6/CapSense_Filter.c ****         CapSense_InitializeAllFilters();
  39              		.loc 1 67 0
  40 0004 FFF7FEFF 		bl	CapSense_InitializeAllFilters
  68:Generated_Source\PSoC6/CapSense_Filter.c ****     #endif /* ((CapSense_ENABLE == CapSense_RC_FILTER_EN) || \
  69:Generated_Source\PSoC6/CapSense_Filter.c ****                (0u != (CapSense_CSD_AUTOTUNE & CapSense_CSD_SS_TH_EN))) */
  70:Generated_Source\PSoC6/CapSense_Filter.c **** }
  41              		.loc 1 70 0
  42 0008 00BF     		nop
  43 000a 80BD     		pop	{r7, pc}
  44              		.cfi_endproc
ARM GAS  C:\Users\ikomb\AppData\Local\Temp\cclK6Blf.s 			page 3


  45              	.LFE125:
  46              		.size	CapSense_FtInitialize, .-CapSense_FtInitialize
  47              		.section	.text.CapSense_UpdateAllBaselines,"ax",%progbits
  48              		.align	2
  49              		.global	CapSense_UpdateAllBaselines
  50              		.thumb
  51              		.thumb_func
  52              		.type	CapSense_UpdateAllBaselines, %function
  53              	CapSense_UpdateAllBaselines:
  54              	.LFB126:
  71:Generated_Source\PSoC6/CapSense_Filter.c **** 
  72:Generated_Source\PSoC6/CapSense_Filter.c **** 
  73:Generated_Source\PSoC6/CapSense_Filter.c **** /*******************************************************************************
  74:Generated_Source\PSoC6/CapSense_Filter.c **** * Function Name: CapSense_UpdateAllBaselines
  75:Generated_Source\PSoC6/CapSense_Filter.c **** ****************************************************************************//**
  76:Generated_Source\PSoC6/CapSense_Filter.c **** *
  77:Generated_Source\PSoC6/CapSense_Filter.c **** * \brief
  78:Generated_Source\PSoC6/CapSense_Filter.c **** *  Updates the baseline for all the sensors in all the widgets.
  79:Generated_Source\PSoC6/CapSense_Filter.c **** *
  80:Generated_Source\PSoC6/CapSense_Filter.c **** * \details
  81:Generated_Source\PSoC6/CapSense_Filter.c **** *  Updates the baseline for all the sensors in all the widgets. Baseline updating is a
  82:Generated_Source\PSoC6/CapSense_Filter.c **** *  part of data processing performed by the process functions. So, no need to
  83:Generated_Source\PSoC6/CapSense_Filter.c **** *  call this function except a specific process flow is implemented.
  84:Generated_Source\PSoC6/CapSense_Filter.c **** *
  85:Generated_Source\PSoC6/CapSense_Filter.c **** *  This function ignores the value of the wdgtEnable register. Multiple calling
  86:Generated_Source\PSoC6/CapSense_Filter.c **** *  of this function (or any other function with a baseline updating task)
  87:Generated_Source\PSoC6/CapSense_Filter.c **** *  without scanning leads to unexpected behavior.
  88:Generated_Source\PSoC6/CapSense_Filter.c **** *
  89:Generated_Source\PSoC6/CapSense_Filter.c **** *  If the Self-test library is enabled, this function executes the baseline duplication
  90:Generated_Source\PSoC6/CapSense_Filter.c **** *  test. Refer to CapSense_CheckBaselineDuplication() for details.
  91:Generated_Source\PSoC6/CapSense_Filter.c **** *
  92:Generated_Source\PSoC6/CapSense_Filter.c **** * \return
  93:Generated_Source\PSoC6/CapSense_Filter.c **** *  Returns the status of the update baseline operation of all the widgets:
  94:Generated_Source\PSoC6/CapSense_Filter.c **** *  - CY_RET_SUCCESS - The operation is successfully completed.
  95:Generated_Source\PSoC6/CapSense_Filter.c **** *  - CY_RET_BAD_DATA - The baseline processing failed.
  96:Generated_Source\PSoC6/CapSense_Filter.c **** *
  97:Generated_Source\PSoC6/CapSense_Filter.c **** *******************************************************************************/
  98:Generated_Source\PSoC6/CapSense_Filter.c **** cy_status CapSense_UpdateAllBaselines(void)
  99:Generated_Source\PSoC6/CapSense_Filter.c **** {
  55              		.loc 1 99 0
  56              		.cfi_startproc
  57              		@ args = 0, pretend = 0, frame = 8
  58              		@ frame_needed = 1, uses_anonymous_args = 0
  59 0000 80B5     		push	{r7, lr}
  60              		.cfi_def_cfa_offset 8
  61              		.cfi_offset 7, -8
  62              		.cfi_offset 14, -4
  63 0002 82B0     		sub	sp, sp, #8
  64              		.cfi_def_cfa_offset 16
  65 0004 00AF     		add	r7, sp, #0
  66              		.cfi_def_cfa_register 7
 100:Generated_Source\PSoC6/CapSense_Filter.c ****     uint32 widgetId;
 101:Generated_Source\PSoC6/CapSense_Filter.c ****     cy_status bslnStatus = CY_RET_SUCCESS;
  67              		.loc 1 101 0
  68 0006 0023     		movs	r3, #0
  69 0008 3B60     		str	r3, [r7]
 102:Generated_Source\PSoC6/CapSense_Filter.c **** 
ARM GAS  C:\Users\ikomb\AppData\Local\Temp\cclK6Blf.s 			page 4


 103:Generated_Source\PSoC6/CapSense_Filter.c ****     for(widgetId = CapSense_TOTAL_WIDGETS; widgetId-- > 0u;)
  70              		.loc 1 103 0
  71 000a 0323     		movs	r3, #3
  72 000c 7B60     		str	r3, [r7, #4]
  73 000e 06E0     		b	.L3
  74              	.L4:
 104:Generated_Source\PSoC6/CapSense_Filter.c ****     {
 105:Generated_Source\PSoC6/CapSense_Filter.c ****         bslnStatus |= CapSense_UpdateWidgetBaseline(widgetId);
  75              		.loc 1 105 0
  76 0010 7868     		ldr	r0, [r7, #4]
  77 0012 FFF7FEFF 		bl	CapSense_UpdateWidgetBaseline
  78 0016 0246     		mov	r2, r0
  79 0018 3B68     		ldr	r3, [r7]
  80 001a 1343     		orrs	r3, r3, r2
  81 001c 3B60     		str	r3, [r7]
  82              	.L3:
 103:Generated_Source\PSoC6/CapSense_Filter.c ****     {
  83              		.loc 1 103 0 discriminator 1
  84 001e 7B68     		ldr	r3, [r7, #4]
  85 0020 5A1E     		subs	r2, r3, #1
  86 0022 7A60     		str	r2, [r7, #4]
  87 0024 002B     		cmp	r3, #0
  88 0026 F3D1     		bne	.L4
 106:Generated_Source\PSoC6/CapSense_Filter.c ****     }
 107:Generated_Source\PSoC6/CapSense_Filter.c **** 
 108:Generated_Source\PSoC6/CapSense_Filter.c ****     return(bslnStatus);
  89              		.loc 1 108 0
  90 0028 3B68     		ldr	r3, [r7]
 109:Generated_Source\PSoC6/CapSense_Filter.c **** }
  91              		.loc 1 109 0
  92 002a 1846     		mov	r0, r3
  93 002c 0837     		adds	r7, r7, #8
  94              		.cfi_def_cfa_offset 8
  95 002e BD46     		mov	sp, r7
  96              		.cfi_def_cfa_register 13
  97              		@ sp needed
  98 0030 80BD     		pop	{r7, pc}
  99              		.cfi_endproc
 100              	.LFE126:
 101              		.size	CapSense_UpdateAllBaselines, .-CapSense_UpdateAllBaselines
 102 0032 00BF     		.section	.text.CapSense_UpdateWidgetBaseline,"ax",%progbits
 103              		.align	2
 104              		.global	CapSense_UpdateWidgetBaseline
 105              		.thumb
 106              		.thumb_func
 107              		.type	CapSense_UpdateWidgetBaseline, %function
 108              	CapSense_UpdateWidgetBaseline:
 109              	.LFB127:
 110:Generated_Source\PSoC6/CapSense_Filter.c **** 
 111:Generated_Source\PSoC6/CapSense_Filter.c **** 
 112:Generated_Source\PSoC6/CapSense_Filter.c **** /*******************************************************************************
 113:Generated_Source\PSoC6/CapSense_Filter.c **** * Function Name: CapSense_UpdateWidgetBaseline
 114:Generated_Source\PSoC6/CapSense_Filter.c **** ****************************************************************************//**
 115:Generated_Source\PSoC6/CapSense_Filter.c **** *
 116:Generated_Source\PSoC6/CapSense_Filter.c **** * \brief
 117:Generated_Source\PSoC6/CapSense_Filter.c **** *  Updates the baselines for all the sensors in a widget specified by the input parameter.
 118:Generated_Source\PSoC6/CapSense_Filter.c **** *
ARM GAS  C:\Users\ikomb\AppData\Local\Temp\cclK6Blf.s 			page 5


 119:Generated_Source\PSoC6/CapSense_Filter.c **** * \details
 120:Generated_Source\PSoC6/CapSense_Filter.c **** *  This function performs exactly the same tasks as
 121:Generated_Source\PSoC6/CapSense_Filter.c **** *  CapSense_UpdateAllBaselines() but only for a specified widget.
 122:Generated_Source\PSoC6/CapSense_Filter.c **** *
 123:Generated_Source\PSoC6/CapSense_Filter.c **** *  This function ignores the value of the wdgtEnable register. Multiple calling
 124:Generated_Source\PSoC6/CapSense_Filter.c **** *  of this function (or any other function with a baseline updating task)
 125:Generated_Source\PSoC6/CapSense_Filter.c **** *  without scanning leads to unexpected behavior.
 126:Generated_Source\PSoC6/CapSense_Filter.c **** *
 127:Generated_Source\PSoC6/CapSense_Filter.c **** *  If the Self-test library is enabled, this function executes the baseline duplication
 128:Generated_Source\PSoC6/CapSense_Filter.c **** *  test. Refer to CapSense_CheckBaselineDuplication() for details.
 129:Generated_Source\PSoC6/CapSense_Filter.c **** *
 130:Generated_Source\PSoC6/CapSense_Filter.c **** * \param widgetId
 131:Generated_Source\PSoC6/CapSense_Filter.c **** *  Specifies the ID number of the widget to update the baseline of all the sensors
 132:Generated_Source\PSoC6/CapSense_Filter.c **** *  in the widget.
 133:Generated_Source\PSoC6/CapSense_Filter.c **** *  A macro for the widget ID can be found in the
 134:Generated_Source\PSoC6/CapSense_Filter.c **** *  CapSense Configuration header file defined as
 135:Generated_Source\PSoC6/CapSense_Filter.c **** *  CapSense_<WidgetName>_WDGT_ID.
 136:Generated_Source\PSoC6/CapSense_Filter.c **** *
 137:Generated_Source\PSoC6/CapSense_Filter.c **** * \return
 138:Generated_Source\PSoC6/CapSense_Filter.c **** *  Returns the status of the specified widget update baseline operation:
 139:Generated_Source\PSoC6/CapSense_Filter.c **** *  - CY_RET_SUCCESS - The operation is successfully completed.
 140:Generated_Source\PSoC6/CapSense_Filter.c **** *  - CY_RET_BAD_DATA - The baseline processing failed.
 141:Generated_Source\PSoC6/CapSense_Filter.c **** *
 142:Generated_Source\PSoC6/CapSense_Filter.c **** *******************************************************************************/
 143:Generated_Source\PSoC6/CapSense_Filter.c **** cy_status CapSense_UpdateWidgetBaseline(uint32 widgetId)
 144:Generated_Source\PSoC6/CapSense_Filter.c **** {
 110              		.loc 1 144 0
 111              		.cfi_startproc
 112              		@ args = 0, pretend = 0, frame = 24
 113              		@ frame_needed = 1, uses_anonymous_args = 0
 114 0000 80B5     		push	{r7, lr}
 115              		.cfi_def_cfa_offset 8
 116              		.cfi_offset 7, -8
 117              		.cfi_offset 14, -4
 118 0002 86B0     		sub	sp, sp, #24
 119              		.cfi_def_cfa_offset 32
 120 0004 00AF     		add	r7, sp, #0
 121              		.cfi_def_cfa_register 7
 122 0006 7860     		str	r0, [r7, #4]
 145:Generated_Source\PSoC6/CapSense_Filter.c ****     uint32 sensorId;
 146:Generated_Source\PSoC6/CapSense_Filter.c ****     uint32 sensorsNumber;
 147:Generated_Source\PSoC6/CapSense_Filter.c **** 
 148:Generated_Source\PSoC6/CapSense_Filter.c ****     CapSense_FLASH_WD_STRUCT const *ptrWidget = &CapSense_dsFlash.wdgtArray[widgetId];
 123              		.loc 1 148 0
 124 0008 7A68     		ldr	r2, [r7, #4]
 125 000a 1346     		mov	r3, r2
 126 000c 5B00     		lsls	r3, r3, #1
 127 000e 1344     		add	r3, r3, r2
 128 0010 1B01     		lsls	r3, r3, #4
 129 0012 0E4A     		ldr	r2, .L10
 130 0014 1344     		add	r3, r3, r2
 131 0016 FB60     		str	r3, [r7, #12]
 149:Generated_Source\PSoC6/CapSense_Filter.c ****     cy_status bslnStatus = CY_RET_SUCCESS;
 132              		.loc 1 149 0
 133 0018 0023     		movs	r3, #0
 134 001a 3B61     		str	r3, [r7, #16]
 150:Generated_Source\PSoC6/CapSense_Filter.c **** 
ARM GAS  C:\Users\ikomb\AppData\Local\Temp\cclK6Blf.s 			page 6


 151:Generated_Source\PSoC6/CapSense_Filter.c ****     /* Find total amount of sensors in specified widget */
 152:Generated_Source\PSoC6/CapSense_Filter.c ****     sensorsNumber = CapSense_GET_SNS_CNT_BY_PTR(ptrWidget);
 135              		.loc 1 152 0
 136 001c FB68     		ldr	r3, [r7, #12]
 137 001e 1B8B     		ldrh	r3, [r3, #24]
 138 0020 BB60     		str	r3, [r7, #8]
 153:Generated_Source\PSoC6/CapSense_Filter.c **** 
 154:Generated_Source\PSoC6/CapSense_Filter.c ****     for(sensorId = sensorsNumber; sensorId-- > 0u;)
 139              		.loc 1 154 0
 140 0022 BB68     		ldr	r3, [r7, #8]
 141 0024 7B61     		str	r3, [r7, #20]
 142 0026 07E0     		b	.L7
 143              	.L8:
 155:Generated_Source\PSoC6/CapSense_Filter.c ****     {
 156:Generated_Source\PSoC6/CapSense_Filter.c ****         bslnStatus |= CapSense_UpdateSensorBaseline(widgetId, sensorId);
 144              		.loc 1 156 0
 145 0028 7969     		ldr	r1, [r7, #20]
 146 002a 7868     		ldr	r0, [r7, #4]
 147 002c FFF7FEFF 		bl	CapSense_UpdateSensorBaseline
 148 0030 0246     		mov	r2, r0
 149 0032 3B69     		ldr	r3, [r7, #16]
 150 0034 1343     		orrs	r3, r3, r2
 151 0036 3B61     		str	r3, [r7, #16]
 152              	.L7:
 154:Generated_Source\PSoC6/CapSense_Filter.c ****     {
 153              		.loc 1 154 0 discriminator 1
 154 0038 7B69     		ldr	r3, [r7, #20]
 155 003a 5A1E     		subs	r2, r3, #1
 156 003c 7A61     		str	r2, [r7, #20]
 157 003e 002B     		cmp	r3, #0
 158 0040 F2D1     		bne	.L8
 157:Generated_Source\PSoC6/CapSense_Filter.c ****     }
 158:Generated_Source\PSoC6/CapSense_Filter.c **** 
 159:Generated_Source\PSoC6/CapSense_Filter.c ****     return(bslnStatus);
 159              		.loc 1 159 0
 160 0042 3B69     		ldr	r3, [r7, #16]
 160:Generated_Source\PSoC6/CapSense_Filter.c **** }
 161              		.loc 1 160 0
 162 0044 1846     		mov	r0, r3
 163 0046 1837     		adds	r7, r7, #24
 164              		.cfi_def_cfa_offset 8
 165 0048 BD46     		mov	sp, r7
 166              		.cfi_def_cfa_register 13
 167              		@ sp needed
 168 004a 80BD     		pop	{r7, pc}
 169              	.L11:
 170              		.align	2
 171              	.L10:
 172 004c 00000000 		.word	CapSense_dsFlash
 173              		.cfi_endproc
 174              	.LFE127:
 175              		.size	CapSense_UpdateWidgetBaseline, .-CapSense_UpdateWidgetBaseline
 176              		.section	.text.CapSense_UpdateSensorBaseline,"ax",%progbits
 177              		.align	2
 178              		.global	CapSense_UpdateSensorBaseline
 179              		.thumb
 180              		.thumb_func
ARM GAS  C:\Users\ikomb\AppData\Local\Temp\cclK6Blf.s 			page 7


 181              		.type	CapSense_UpdateSensorBaseline, %function
 182              	CapSense_UpdateSensorBaseline:
 183              	.LFB128:
 161:Generated_Source\PSoC6/CapSense_Filter.c **** 
 162:Generated_Source\PSoC6/CapSense_Filter.c **** 
 163:Generated_Source\PSoC6/CapSense_Filter.c **** /*******************************************************************************
 164:Generated_Source\PSoC6/CapSense_Filter.c **** * Function Name: CapSense_UpdateSensorBaseline
 165:Generated_Source\PSoC6/CapSense_Filter.c **** ****************************************************************************//**
 166:Generated_Source\PSoC6/CapSense_Filter.c **** *
 167:Generated_Source\PSoC6/CapSense_Filter.c **** * \brief
 168:Generated_Source\PSoC6/CapSense_Filter.c **** *  Updates the baseline for a sensor in a widget specified by the input parameters.
 169:Generated_Source\PSoC6/CapSense_Filter.c **** *
 170:Generated_Source\PSoC6/CapSense_Filter.c **** * \details
 171:Generated_Source\PSoC6/CapSense_Filter.c **** *  This function performs exactly the same tasks as
 172:Generated_Source\PSoC6/CapSense_Filter.c **** *  CapSense_UpdateAllBaselines() and
 173:Generated_Source\PSoC6/CapSense_Filter.c **** *  CapSense_UpdateWidgetBaseline() but only for a specified sensor.
 174:Generated_Source\PSoC6/CapSense_Filter.c **** *
 175:Generated_Source\PSoC6/CapSense_Filter.c **** *  This function ignores the value of the wdgtEnable register. Multiple calling
 176:Generated_Source\PSoC6/CapSense_Filter.c **** *  of this function (or any other function with a baseline updating task)
 177:Generated_Source\PSoC6/CapSense_Filter.c **** *  without scanning leads to unexpected behavior.
 178:Generated_Source\PSoC6/CapSense_Filter.c **** *
 179:Generated_Source\PSoC6/CapSense_Filter.c **** *  If the Self-test library is enabled, this function executes the baseline duplication
 180:Generated_Source\PSoC6/CapSense_Filter.c **** *  test. Refer to CapSense_CheckBaselineDuplication() for details.
 181:Generated_Source\PSoC6/CapSense_Filter.c **** *
 182:Generated_Source\PSoC6/CapSense_Filter.c **** * \param   widgetId
 183:Generated_Source\PSoC6/CapSense_Filter.c **** *  Specifies the ID number of the widget to update the baseline of the sensor
 184:Generated_Source\PSoC6/CapSense_Filter.c **** *  specified by the sensorId argument.
 185:Generated_Source\PSoC6/CapSense_Filter.c **** *  A macro for the widget ID can be found in the CapSense Configuration header
 186:Generated_Source\PSoC6/CapSense_Filter.c **** *  file defined as CapSense_<WidgetName>_WDGT_ID.
 187:Generated_Source\PSoC6/CapSense_Filter.c **** *
 188:Generated_Source\PSoC6/CapSense_Filter.c **** * \param   sensorId
 189:Generated_Source\PSoC6/CapSense_Filter.c **** *  Specifies the ID number of the sensor within the widget to update its baseline.
 190:Generated_Source\PSoC6/CapSense_Filter.c **** *  A macro for the sensor ID within a specified widget can be found in the
 191:Generated_Source\PSoC6/CapSense_Filter.c **** *  CapSense Configuration header file defined as
 192:Generated_Source\PSoC6/CapSense_Filter.c **** *  CapSense_<WidgetName>_SNS<SensorNumber>_ID.
 193:Generated_Source\PSoC6/CapSense_Filter.c **** *
 194:Generated_Source\PSoC6/CapSense_Filter.c **** * \return
 195:Generated_Source\PSoC6/CapSense_Filter.c **** *  Returns the status of the specified sensor update baseline operation:
 196:Generated_Source\PSoC6/CapSense_Filter.c **** *  - CY_RET_SUCCESS - The operation is successfully completed.
 197:Generated_Source\PSoC6/CapSense_Filter.c **** *  - CY_RET_BAD_DATA - The baseline processing failed.
 198:Generated_Source\PSoC6/CapSense_Filter.c **** *
 199:Generated_Source\PSoC6/CapSense_Filter.c **** *******************************************************************************/
 200:Generated_Source\PSoC6/CapSense_Filter.c **** cy_status CapSense_UpdateSensorBaseline(uint32 widgetId, uint32 sensorId)
 201:Generated_Source\PSoC6/CapSense_Filter.c **** {
 184              		.loc 1 201 0
 185              		.cfi_startproc
 186              		@ args = 0, pretend = 0, frame = 24
 187              		@ frame_needed = 1, uses_anonymous_args = 0
 188 0000 80B5     		push	{r7, lr}
 189              		.cfi_def_cfa_offset 8
 190              		.cfi_offset 7, -8
 191              		.cfi_offset 14, -4
 192 0002 86B0     		sub	sp, sp, #24
 193              		.cfi_def_cfa_offset 32
 194 0004 00AF     		add	r7, sp, #0
 195              		.cfi_def_cfa_register 7
 196 0006 7860     		str	r0, [r7, #4]
ARM GAS  C:\Users\ikomb\AppData\Local\Temp\cclK6Blf.s 			page 8


 197 0008 3960     		str	r1, [r7]
 202:Generated_Source\PSoC6/CapSense_Filter.c ****     uint32 result = CY_RET_SUCCESS;
 198              		.loc 1 202 0
 199 000a 0023     		movs	r3, #0
 200 000c 7B61     		str	r3, [r7, #20]
 203:Generated_Source\PSoC6/CapSense_Filter.c **** 
 204:Generated_Source\PSoC6/CapSense_Filter.c ****     CapSense_RAM_SNS_STRUCT *ptrSensor = NULL;
 201              		.loc 1 204 0
 202 000e 0023     		movs	r3, #0
 203 0010 3B61     		str	r3, [r7, #16]
 205:Generated_Source\PSoC6/CapSense_Filter.c ****     CapSense_FLASH_WD_STRUCT const *ptrWidget = &CapSense_dsFlash.wdgtArray[widgetId];
 204              		.loc 1 205 0
 205 0012 7A68     		ldr	r2, [r7, #4]
 206 0014 1346     		mov	r3, r2
 207 0016 5B00     		lsls	r3, r3, #1
 208 0018 1344     		add	r3, r3, r2
 209 001a 1B01     		lsls	r3, r3, #4
 210 001c 0F4A     		ldr	r2, .L14
 211 001e 1344     		add	r3, r3, r2
 212 0020 FB60     		str	r3, [r7, #12]
 206:Generated_Source\PSoC6/CapSense_Filter.c ****     CapSense_RAM_WD_BASE_STRUCT *ptrWidgetRam = (CapSense_RAM_WD_BASE_STRUCT *)ptrWidget->ptr2WdgtR
 213              		.loc 1 206 0
 214 0022 FB68     		ldr	r3, [r7, #12]
 215 0024 5B68     		ldr	r3, [r3, #4]
 216 0026 BB60     		str	r3, [r7, #8]
 207:Generated_Source\PSoC6/CapSense_Filter.c **** 
 208:Generated_Source\PSoC6/CapSense_Filter.c ****     /* Find pointer to specified sensor object */
 209:Generated_Source\PSoC6/CapSense_Filter.c ****     ptrSensor = ptrWidget->ptr2SnsRam;
 217              		.loc 1 209 0
 218 0028 FB68     		ldr	r3, [r7, #12]
 219 002a 9B68     		ldr	r3, [r3, #8]
 220 002c 3B61     		str	r3, [r7, #16]
 210:Generated_Source\PSoC6/CapSense_Filter.c ****     ptrSensor = &ptrSensor[sensorId];
 221              		.loc 1 210 0
 222 002e 3A68     		ldr	r2, [r7]
 223 0030 1346     		mov	r3, r2
 224 0032 9B00     		lsls	r3, r3, #2
 225 0034 1344     		add	r3, r3, r2
 226 0036 5B00     		lsls	r3, r3, #1
 227 0038 1A46     		mov	r2, r3
 228 003a 3B69     		ldr	r3, [r7, #16]
 229 003c 1344     		add	r3, r3, r2
 230 003e 3B61     		str	r3, [r7, #16]
 211:Generated_Source\PSoC6/CapSense_Filter.c ****     result = CapSense_FtUpdateBaseline(ptrWidgetRam, ptrSensor, (uint32)ptrWidget->wdgtType);
 231              		.loc 1 211 0
 232 0040 FB68     		ldr	r3, [r7, #12]
 233 0042 9B7E     		ldrb	r3, [r3, #26]	@ zero_extendqisi2
 234 0044 1A46     		mov	r2, r3
 235 0046 3969     		ldr	r1, [r7, #16]
 236 0048 B868     		ldr	r0, [r7, #8]
 237 004a FFF7FEFF 		bl	CapSense_FtUpdateBaseline
 238 004e 7861     		str	r0, [r7, #20]
 212:Generated_Source\PSoC6/CapSense_Filter.c **** 
 213:Generated_Source\PSoC6/CapSense_Filter.c ****     #if (CapSense_ENABLE == CapSense_TST_BSLN_DUPLICATION_EN)
 214:Generated_Source\PSoC6/CapSense_Filter.c ****         if (CY_RET_SUCCESS != result)
 215:Generated_Source\PSoC6/CapSense_Filter.c ****         {
 216:Generated_Source\PSoC6/CapSense_Filter.c ****             result = CY_RET_BAD_DATA;
ARM GAS  C:\Users\ikomb\AppData\Local\Temp\cclK6Blf.s 			page 9


 217:Generated_Source\PSoC6/CapSense_Filter.c ****             CapSense_UpdateTestResultBaselineDuplication(widgetId, sensorId);
 218:Generated_Source\PSoC6/CapSense_Filter.c ****         }
 219:Generated_Source\PSoC6/CapSense_Filter.c ****     #endif /* (CapSense_ENABLE == CapSense_TST_BSLN_DUPLICATION_EN) */
 220:Generated_Source\PSoC6/CapSense_Filter.c **** 
 221:Generated_Source\PSoC6/CapSense_Filter.c ****     return result;
 239              		.loc 1 221 0
 240 0050 7B69     		ldr	r3, [r7, #20]
 222:Generated_Source\PSoC6/CapSense_Filter.c **** }
 241              		.loc 1 222 0
 242 0052 1846     		mov	r0, r3
 243 0054 1837     		adds	r7, r7, #24
 244              		.cfi_def_cfa_offset 8
 245 0056 BD46     		mov	sp, r7
 246              		.cfi_def_cfa_register 13
 247              		@ sp needed
 248 0058 80BD     		pop	{r7, pc}
 249              	.L15:
 250 005a 00BF     		.align	2
 251              	.L14:
 252 005c 00000000 		.word	CapSense_dsFlash
 253              		.cfi_endproc
 254              	.LFE128:
 255              		.size	CapSense_UpdateSensorBaseline, .-CapSense_UpdateSensorBaseline
 256              		.section	.text.CapSense_FtUpdateBaseline,"ax",%progbits
 257              		.align	2
 258              		.global	CapSense_FtUpdateBaseline
 259              		.thumb
 260              		.thumb_func
 261              		.type	CapSense_FtUpdateBaseline, %function
 262              	CapSense_FtUpdateBaseline:
 263              	.LFB129:
 223:Generated_Source\PSoC6/CapSense_Filter.c **** 
 224:Generated_Source\PSoC6/CapSense_Filter.c **** /*******************************************************************************
 225:Generated_Source\PSoC6/CapSense_Filter.c **** * Function Name: CapSense_FtUpdateBaseline
 226:Generated_Source\PSoC6/CapSense_Filter.c **** ****************************************************************************//**
 227:Generated_Source\PSoC6/CapSense_Filter.c **** *
 228:Generated_Source\PSoC6/CapSense_Filter.c **** * \brief
 229:Generated_Source\PSoC6/CapSense_Filter.c **** *  Updates the baseline for a sensor specified by an input parameter.
 230:Generated_Source\PSoC6/CapSense_Filter.c **** *
 231:Generated_Source\PSoC6/CapSense_Filter.c **** * \details
 232:Generated_Source\PSoC6/CapSense_Filter.c **** *  Check a matching of present baseline and its inverse duplication. If they
 233:Generated_Source\PSoC6/CapSense_Filter.c **** *  match then updates the baseline for a sensor specified by an input parameter.
 234:Generated_Source\PSoC6/CapSense_Filter.c **** *  If don't match the function return CapSense_TST_BSLN_DUPLICATION
 235:Generated_Source\PSoC6/CapSense_Filter.c **** *  result and don't update baseline.
 236:Generated_Source\PSoC6/CapSense_Filter.c **** *
 237:Generated_Source\PSoC6/CapSense_Filter.c **** * \param    ptrWidgetRam
 238:Generated_Source\PSoC6/CapSense_Filter.c **** *  The pointer to the widget RAM structure where all the widget parameters
 239:Generated_Source\PSoC6/CapSense_Filter.c **** *  are stored.
 240:Generated_Source\PSoC6/CapSense_Filter.c **** *
 241:Generated_Source\PSoC6/CapSense_Filter.c **** * \param    ptrSensor
 242:Generated_Source\PSoC6/CapSense_Filter.c **** *  The pointer to the sensor RAM structure where all the sensor parameters
 243:Generated_Source\PSoC6/CapSense_Filter.c **** *  are stored.
 244:Generated_Source\PSoC6/CapSense_Filter.c **** *
 245:Generated_Source\PSoC6/CapSense_Filter.c **** * \param    wdType
 246:Generated_Source\PSoC6/CapSense_Filter.c **** *  Specifies the type of a widget.
 247:Generated_Source\PSoC6/CapSense_Filter.c **** *
 248:Generated_Source\PSoC6/CapSense_Filter.c **** * \return
ARM GAS  C:\Users\ikomb\AppData\Local\Temp\cclK6Blf.s 			page 10


 249:Generated_Source\PSoC6/CapSense_Filter.c **** *  Returns a status indicating whether the baseline has been updated:
 250:Generated_Source\PSoC6/CapSense_Filter.c **** *  - CY_RET_SUCCESS if baseline updating was successful;
 251:Generated_Source\PSoC6/CapSense_Filter.c **** *  - CapSense_PROCESS_BASELINE_FAILED if present sensor's any channel
 252:Generated_Source\PSoC6/CapSense_Filter.c **** *    baseline and its inversion doesn't matched
 253:Generated_Source\PSoC6/CapSense_Filter.c **** *
 254:Generated_Source\PSoC6/CapSense_Filter.c **** *******************************************************************************/
 255:Generated_Source\PSoC6/CapSense_Filter.c **** uint32 CapSense_FtUpdateBaseline(
 256:Generated_Source\PSoC6/CapSense_Filter.c ****                                 CapSense_RAM_WD_BASE_STRUCT *ptrWidgetRam,
 257:Generated_Source\PSoC6/CapSense_Filter.c ****                                 CapSense_RAM_SNS_STRUCT *ptrSensor,
 258:Generated_Source\PSoC6/CapSense_Filter.c ****                                 uint32 wdType)
 259:Generated_Source\PSoC6/CapSense_Filter.c **** {
 264              		.loc 1 259 0
 265              		.cfi_startproc
 266              		@ args = 0, pretend = 0, frame = 40
 267              		@ frame_needed = 1, uses_anonymous_args = 0
 268 0000 80B5     		push	{r7, lr}
 269              		.cfi_def_cfa_offset 8
 270              		.cfi_offset 7, -8
 271              		.cfi_offset 14, -4
 272 0002 8AB0     		sub	sp, sp, #40
 273              		.cfi_def_cfa_offset 48
 274 0004 00AF     		add	r7, sp, #0
 275              		.cfi_def_cfa_register 7
 276 0006 F860     		str	r0, [r7, #12]
 277 0008 B960     		str	r1, [r7, #8]
 278 000a 7A60     		str	r2, [r7, #4]
 260:Generated_Source\PSoC6/CapSense_Filter.c ****     uint32 sign;
 261:Generated_Source\PSoC6/CapSense_Filter.c ****     uint32 difference;
 262:Generated_Source\PSoC6/CapSense_Filter.c ****     uint32 freqChannel;
 263:Generated_Source\PSoC6/CapSense_Filter.c ****     uint32 baselineCoeff;
 264:Generated_Source\PSoC6/CapSense_Filter.c ****     uint32 result = CY_RET_SUCCESS;
 279              		.loc 1 264 0
 280 000c 0023     		movs	r3, #0
 281 000e BB61     		str	r3, [r7, #24]
 265:Generated_Source\PSoC6/CapSense_Filter.c **** 
 266:Generated_Source\PSoC6/CapSense_Filter.c ****     #if (CapSense_TOTAL_WIDGETS)
 267:Generated_Source\PSoC6/CapSense_Filter.c ****         uint32 history;
 268:Generated_Source\PSoC6/CapSense_Filter.c ****     #endif /* (CapSense_TOTAL_WIDGETS) */
 269:Generated_Source\PSoC6/CapSense_Filter.c **** 
 270:Generated_Source\PSoC6/CapSense_Filter.c ****     /* Apply baseline to every channel in sensor */
 271:Generated_Source\PSoC6/CapSense_Filter.c ****     for(freqChannel = CapSense_NUM_SCAN_FREQS; freqChannel-- > 0u;)
 282              		.loc 1 271 0
 283 0010 0123     		movs	r3, #1
 284 0012 FB61     		str	r3, [r7, #28]
 285 0014 85E0     		b	.L17
 286              	.L23:
 272:Generated_Source\PSoC6/CapSense_Filter.c ****     {
 273:Generated_Source\PSoC6/CapSense_Filter.c ****         #if (CapSense_ENABLE == CapSense_TST_BSLN_DUPLICATION_EN)
 274:Generated_Source\PSoC6/CapSense_Filter.c ****             if (ptrSensor->bslnInv[freqChannel] != ((uint16) ~(ptrSensor->bsln[freqChannel])))
 275:Generated_Source\PSoC6/CapSense_Filter.c ****             {
 276:Generated_Source\PSoC6/CapSense_Filter.c ****                 result = CapSense_PROCESS_BASELINE_FAILED;
 277:Generated_Source\PSoC6/CapSense_Filter.c ****             }
 278:Generated_Source\PSoC6/CapSense_Filter.c ****             else
 279:Generated_Source\PSoC6/CapSense_Filter.c ****             {
 280:Generated_Source\PSoC6/CapSense_Filter.c ****         #endif /* (CapSense_ENABLE == CapSense_TST_BSLN_DUPLICATION_EN) */
 281:Generated_Source\PSoC6/CapSense_Filter.c **** 
 282:Generated_Source\PSoC6/CapSense_Filter.c ****         /* Calculate signal value and its sign */
ARM GAS  C:\Users\ikomb\AppData\Local\Temp\cclK6Blf.s 			page 11


 283:Generated_Source\PSoC6/CapSense_Filter.c ****         if(ptrSensor->raw[freqChannel] >= ptrSensor->bsln[freqChannel])
 287              		.loc 1 283 0
 288 0016 BB68     		ldr	r3, [r7, #8]
 289 0018 FA69     		ldr	r2, [r7, #28]
 290 001a 33F81220 		ldrh	r2, [r3, r2, lsl #1]
 291 001e B968     		ldr	r1, [r7, #8]
 292 0020 FB69     		ldr	r3, [r7, #28]
 293 0022 5B00     		lsls	r3, r3, #1
 294 0024 0B44     		add	r3, r3, r1
 295 0026 5B88     		ldrh	r3, [r3, #2]
 296 0028 9A42     		cmp	r2, r3
 297 002a 14D3     		bcc	.L18
 284:Generated_Source\PSoC6/CapSense_Filter.c ****         {
 285:Generated_Source\PSoC6/CapSense_Filter.c ****             difference = (uint32)ptrSensor->raw[freqChannel] - (uint32)ptrSensor->bsln[freqChannel]
 298              		.loc 1 285 0
 299 002c BB68     		ldr	r3, [r7, #8]
 300 002e FA69     		ldr	r2, [r7, #28]
 301 0030 33F81230 		ldrh	r3, [r3, r2, lsl #1]
 302 0034 1946     		mov	r1, r3
 303 0036 BA68     		ldr	r2, [r7, #8]
 304 0038 FB69     		ldr	r3, [r7, #28]
 305 003a 5B00     		lsls	r3, r3, #1
 306 003c 1344     		add	r3, r3, r2
 307 003e 5B88     		ldrh	r3, [r3, #2]
 308 0040 CB1A     		subs	r3, r1, r3
 309 0042 3B62     		str	r3, [r7, #32]
 286:Generated_Source\PSoC6/CapSense_Filter.c ****             sign = 1u;
 310              		.loc 1 286 0
 311 0044 0123     		movs	r3, #1
 312 0046 7B62     		str	r3, [r7, #36]
 287:Generated_Source\PSoC6/CapSense_Filter.c ****             ptrSensor->negBslnRstCnt[freqChannel] = 0u;
 313              		.loc 1 287 0
 314 0048 BA68     		ldr	r2, [r7, #8]
 315 004a FB69     		ldr	r3, [r7, #28]
 316 004c 1344     		add	r3, r3, r2
 317 004e 0833     		adds	r3, r3, #8
 318 0050 0022     		movs	r2, #0
 319 0052 1A70     		strb	r2, [r3]
 320 0054 0DE0     		b	.L19
 321              	.L18:
 288:Generated_Source\PSoC6/CapSense_Filter.c ****         }
 289:Generated_Source\PSoC6/CapSense_Filter.c ****         else
 290:Generated_Source\PSoC6/CapSense_Filter.c ****         {
 291:Generated_Source\PSoC6/CapSense_Filter.c ****             difference = (uint32)ptrSensor->bsln[freqChannel] - (uint32)ptrSensor->raw[freqChannel]
 322              		.loc 1 291 0
 323 0056 BA68     		ldr	r2, [r7, #8]
 324 0058 FB69     		ldr	r3, [r7, #28]
 325 005a 5B00     		lsls	r3, r3, #1
 326 005c 1344     		add	r3, r3, r2
 327 005e 5B88     		ldrh	r3, [r3, #2]
 328 0060 1946     		mov	r1, r3
 329 0062 BB68     		ldr	r3, [r7, #8]
 330 0064 FA69     		ldr	r2, [r7, #28]
 331 0066 33F81230 		ldrh	r3, [r3, r2, lsl #1]
 332 006a CB1A     		subs	r3, r1, r3
 333 006c 3B62     		str	r3, [r7, #32]
 292:Generated_Source\PSoC6/CapSense_Filter.c ****             sign = 0u;
ARM GAS  C:\Users\ikomb\AppData\Local\Temp\cclK6Blf.s 			page 12


 334              		.loc 1 292 0
 335 006e 0023     		movs	r3, #0
 336 0070 7B62     		str	r3, [r7, #36]
 337              	.L19:
 293:Generated_Source\PSoC6/CapSense_Filter.c ****         }
 294:Generated_Source\PSoC6/CapSense_Filter.c **** 
 295:Generated_Source\PSoC6/CapSense_Filter.c ****         /* Reset baseline if condition is met */
 296:Generated_Source\PSoC6/CapSense_Filter.c ****         if((sign == 0u) && (difference > (uint32) ptrWidgetRam->nNoiseTh))
 338              		.loc 1 296 0
 339 0072 7B6A     		ldr	r3, [r7, #36]
 340 0074 002B     		cmp	r3, #0
 341 0076 22D1     		bne	.L20
 342              		.loc 1 296 0 is_stmt 0 discriminator 1
 343 0078 FB68     		ldr	r3, [r7, #12]
 344 007a 5B79     		ldrb	r3, [r3, #5]	@ zero_extendqisi2
 345 007c 1A46     		mov	r2, r3
 346 007e 3B6A     		ldr	r3, [r7, #32]
 347 0080 9A42     		cmp	r2, r3
 348 0082 1CD2     		bcs	.L20
 297:Generated_Source\PSoC6/CapSense_Filter.c ****         {
 298:Generated_Source\PSoC6/CapSense_Filter.c ****             if(ptrSensor->negBslnRstCnt[freqChannel] >= ptrWidgetRam->lowBslnRst)
 349              		.loc 1 298 0 is_stmt 1
 350 0084 BA68     		ldr	r2, [r7, #8]
 351 0086 FB69     		ldr	r3, [r7, #28]
 352 0088 1344     		add	r3, r3, r2
 353 008a 0833     		adds	r3, r3, #8
 354 008c 1A78     		ldrb	r2, [r3]	@ zero_extendqisi2
 355 008e FB68     		ldr	r3, [r7, #12]
 356 0090 1B7A     		ldrb	r3, [r3, #8]	@ zero_extendqisi2
 357 0092 9A42     		cmp	r2, r3
 358 0094 05D3     		bcc	.L21
 299:Generated_Source\PSoC6/CapSense_Filter.c ****             {
 300:Generated_Source\PSoC6/CapSense_Filter.c ****                 CapSense_FtInitializeBaselineChannel(ptrSensor, wdType, freqChannel);
 359              		.loc 1 300 0
 360 0096 FA69     		ldr	r2, [r7, #28]
 361 0098 7968     		ldr	r1, [r7, #4]
 362 009a B868     		ldr	r0, [r7, #8]
 363 009c FFF7FEFF 		bl	CapSense_FtInitializeBaselineChannel
 364 00a0 3FE0     		b	.L17
 365              	.L21:
 301:Generated_Source\PSoC6/CapSense_Filter.c ****             }
 302:Generated_Source\PSoC6/CapSense_Filter.c ****             else
 303:Generated_Source\PSoC6/CapSense_Filter.c ****             {
 304:Generated_Source\PSoC6/CapSense_Filter.c ****                 ptrSensor->negBslnRstCnt[freqChannel]++;
 366              		.loc 1 304 0
 367 00a2 BA68     		ldr	r2, [r7, #8]
 368 00a4 FB69     		ldr	r3, [r7, #28]
 369 00a6 1344     		add	r3, r3, r2
 370 00a8 0833     		adds	r3, r3, #8
 371 00aa 1B78     		ldrb	r3, [r3]	@ zero_extendqisi2
 372 00ac 0133     		adds	r3, r3, #1
 373 00ae D9B2     		uxtb	r1, r3
 374 00b0 BA68     		ldr	r2, [r7, #8]
 375 00b2 FB69     		ldr	r3, [r7, #28]
 376 00b4 1344     		add	r3, r3, r2
 377 00b6 0833     		adds	r3, r3, #8
 378 00b8 0A46     		mov	r2, r1
ARM GAS  C:\Users\ikomb\AppData\Local\Temp\cclK6Blf.s 			page 13


 379 00ba 1A70     		strb	r2, [r3]
 298:Generated_Source\PSoC6/CapSense_Filter.c ****             {
 380              		.loc 1 298 0
 381 00bc 31E0     		b	.L17
 382              	.L20:
 305:Generated_Source\PSoC6/CapSense_Filter.c ****             }
 306:Generated_Source\PSoC6/CapSense_Filter.c ****         }
 307:Generated_Source\PSoC6/CapSense_Filter.c ****         else
 308:Generated_Source\PSoC6/CapSense_Filter.c ****         {
 309:Generated_Source\PSoC6/CapSense_Filter.c ****             #if (!CapSense_SENSOR_AUTO_RESET_EN)
 310:Generated_Source\PSoC6/CapSense_Filter.c ****                 /* Update baseline only if signal is in range between noiseThreshold and negativeno
 311:Generated_Source\PSoC6/CapSense_Filter.c ****                 if ((difference <= (uint32)ptrWidgetRam->noiseTh) ||
 312:Generated_Source\PSoC6/CapSense_Filter.c ****                     ((difference < (uint32) ptrWidgetRam->nNoiseTh) && (sign == 0u)))
 313:Generated_Source\PSoC6/CapSense_Filter.c ****                 {
 314:Generated_Source\PSoC6/CapSense_Filter.c ****             #endif /* (CapSense_CSD_AUTO_RESET == CapSense_CSD_AUTO_RESET_DISABLE) */
 315:Generated_Source\PSoC6/CapSense_Filter.c **** 
 316:Generated_Source\PSoC6/CapSense_Filter.c ****             #if (CapSense_BASELINE_TYPE == CapSense_IIR_BASELINE)
 317:Generated_Source\PSoC6/CapSense_Filter.c ****                 /* Calculate baseline value */
 318:Generated_Source\PSoC6/CapSense_Filter.c ****                 if ((CapSense_WD_TYPE_ENUM)wdType != CapSense_WD_PROXIMITY_E)
 383              		.loc 1 318 0
 384 00be 7B68     		ldr	r3, [r7, #4]
 385 00c0 DBB2     		uxtb	r3, r3
 386 00c2 062B     		cmp	r3, #6
 387 00c4 2DD0     		beq	.L17
 319:Generated_Source\PSoC6/CapSense_Filter.c ****                 {
 320:Generated_Source\PSoC6/CapSense_Filter.c ****                     #if (CapSense_REGULAR_SENSOR_EN)
 321:Generated_Source\PSoC6/CapSense_Filter.c ****                         #if (CapSense_REGULAR_IIR_BL_TYPE == CapSense_IIR_FILTER_PERFORMANCE)
 322:Generated_Source\PSoC6/CapSense_Filter.c ****                             history = (uint32) ptrSensor->bsln[freqChannel] << 8u;
 388              		.loc 1 322 0
 389 00c6 BA68     		ldr	r2, [r7, #8]
 390 00c8 FB69     		ldr	r3, [r7, #28]
 391 00ca 5B00     		lsls	r3, r3, #1
 392 00cc 1344     		add	r3, r3, r2
 393 00ce 5B88     		ldrh	r3, [r3, #2]
 394 00d0 1B02     		lsls	r3, r3, #8
 395 00d2 7B61     		str	r3, [r7, #20]
 323:Generated_Source\PSoC6/CapSense_Filter.c ****                             history |= ptrSensor->bslnExt[freqChannel];
 396              		.loc 1 323 0
 397 00d4 BA68     		ldr	r2, [r7, #8]
 398 00d6 FB69     		ldr	r3, [r7, #28]
 399 00d8 1344     		add	r3, r3, r2
 400 00da 0433     		adds	r3, r3, #4
 401 00dc 1B78     		ldrb	r3, [r3]	@ zero_extendqisi2
 402 00de 1A46     		mov	r2, r3
 403 00e0 7B69     		ldr	r3, [r7, #20]
 404 00e2 1343     		orrs	r3, r3, r2
 405 00e4 7B61     		str	r3, [r7, #20]
 324:Generated_Source\PSoC6/CapSense_Filter.c ****                         #else
 325:Generated_Source\PSoC6/CapSense_Filter.c ****                             history = ptrSensor->bsln[freqChannel];
 326:Generated_Source\PSoC6/CapSense_Filter.c ****                         #endif /* (CapSense_REGULAR_IIR_BL_TYPE == CapSense_IIR_FILTER_PERFORMANCE)
 327:Generated_Source\PSoC6/CapSense_Filter.c **** 
 328:Generated_Source\PSoC6/CapSense_Filter.c ****                         #if (CapSense_ENABLE == CapSense_WD_BSLN_COEFF_EN)
 329:Generated_Source\PSoC6/CapSense_Filter.c ****                             baselineCoeff = ptrWidgetRam->bslnCoeff;
 330:Generated_Source\PSoC6/CapSense_Filter.c ****                         #else /* (CapSense_ENABLE == CapSense_WD_BSLN_COEFF_EN) */
 331:Generated_Source\PSoC6/CapSense_Filter.c ****                             baselineCoeff = CapSense_REGULAR_IIR_BL_N;
 406              		.loc 1 331 0
 407 00e6 0123     		movs	r3, #1
ARM GAS  C:\Users\ikomb\AppData\Local\Temp\cclK6Blf.s 			page 14


 408 00e8 3B61     		str	r3, [r7, #16]
 332:Generated_Source\PSoC6/CapSense_Filter.c ****                         #endif /* (CapSense_ENABLE == CapSense_WD_BSLN_COEFF_EN) */
 333:Generated_Source\PSoC6/CapSense_Filter.c **** 
 334:Generated_Source\PSoC6/CapSense_Filter.c ****                         history =  CapSense_FtIIR1stOrder(
 335:Generated_Source\PSoC6/CapSense_Filter.c ****                                         (uint32)ptrSensor->raw[freqChannel],
 409              		.loc 1 335 0
 410 00ea BB68     		ldr	r3, [r7, #8]
 411 00ec FA69     		ldr	r2, [r7, #28]
 412 00ee 33F81230 		ldrh	r3, [r3, r2, lsl #1]
 334:Generated_Source\PSoC6/CapSense_Filter.c ****                                         (uint32)ptrSensor->raw[freqChannel],
 413              		.loc 1 334 0
 414 00f2 1846     		mov	r0, r3
 415 00f4 0823     		movs	r3, #8
 416 00f6 3A69     		ldr	r2, [r7, #16]
 417 00f8 7969     		ldr	r1, [r7, #20]
 418 00fa FFF7FEFF 		bl	CapSense_FtIIR1stOrder
 419 00fe 7861     		str	r0, [r7, #20]
 336:Generated_Source\PSoC6/CapSense_Filter.c ****                                         history, baselineCoeff,
 337:Generated_Source\PSoC6/CapSense_Filter.c ****                                         CapSense_REGULAR_IIR_BL_SHIFT);
 338:Generated_Source\PSoC6/CapSense_Filter.c **** 
 339:Generated_Source\PSoC6/CapSense_Filter.c ****                         #if (CapSense_REGULAR_IIR_BL_TYPE == CapSense_IIR_FILTER_PERFORMANCE)
 340:Generated_Source\PSoC6/CapSense_Filter.c ****                                     ptrSensor->bsln[freqChannel] = CY_LO16(history >> 8u);
 420              		.loc 1 340 0
 421 0100 7B69     		ldr	r3, [r7, #20]
 422 0102 1B0A     		lsrs	r3, r3, #8
 423 0104 99B2     		uxth	r1, r3
 424 0106 BA68     		ldr	r2, [r7, #8]
 425 0108 FB69     		ldr	r3, [r7, #28]
 426 010a 5B00     		lsls	r3, r3, #1
 427 010c 1344     		add	r3, r3, r2
 428 010e 0A46     		mov	r2, r1	@ movhi
 429 0110 5A80     		strh	r2, [r3, #2]	@ movhi
 341:Generated_Source\PSoC6/CapSense_Filter.c ****                                     ptrSensor->bslnExt[freqChannel] = CY_LO8(history);
 430              		.loc 1 341 0
 431 0112 7B69     		ldr	r3, [r7, #20]
 432 0114 D9B2     		uxtb	r1, r3
 433 0116 BA68     		ldr	r2, [r7, #8]
 434 0118 FB69     		ldr	r3, [r7, #28]
 435 011a 1344     		add	r3, r3, r2
 436 011c 0433     		adds	r3, r3, #4
 437 011e 0A46     		mov	r2, r1
 438 0120 1A70     		strb	r2, [r3]
 439              	.L17:
 271:Generated_Source\PSoC6/CapSense_Filter.c ****     {
 440              		.loc 1 271 0 discriminator 1
 441 0122 FB69     		ldr	r3, [r7, #28]
 442 0124 5A1E     		subs	r2, r3, #1
 443 0126 FA61     		str	r2, [r7, #28]
 444 0128 002B     		cmp	r3, #0
 445 012a 7FF474AF 		bne	.L23
 342:Generated_Source\PSoC6/CapSense_Filter.c ****                         #else
 343:Generated_Source\PSoC6/CapSense_Filter.c ****                                     ptrSensor->bsln[freqChannel] = CY_LO16(history);
 344:Generated_Source\PSoC6/CapSense_Filter.c ****                         #endif /* (CapSense_REGULAR_IIR_BL_TYPE == CapSense_IIR_FILTER_PERFORMANCE)
 345:Generated_Source\PSoC6/CapSense_Filter.c ****                     #endif /* (CapSense_REGULAR_SENSOR_EN) */
 346:Generated_Source\PSoC6/CapSense_Filter.c ****                 }
 347:Generated_Source\PSoC6/CapSense_Filter.c ****                 else
 348:Generated_Source\PSoC6/CapSense_Filter.c ****                 {
ARM GAS  C:\Users\ikomb\AppData\Local\Temp\cclK6Blf.s 			page 15


 349:Generated_Source\PSoC6/CapSense_Filter.c ****                     #if (CapSense_PROXIMITY_SENSOR_EN)
 350:Generated_Source\PSoC6/CapSense_Filter.c ****                         #if (CapSense_PROX_IIR_BL_TYPE == CapSense_IIR_FILTER_PERFORMANCE)
 351:Generated_Source\PSoC6/CapSense_Filter.c ****                             history = (uint32) ptrSensor->bsln[freqChannel] << 8u;
 352:Generated_Source\PSoC6/CapSense_Filter.c ****                             history |= ptrSensor->bslnExt[freqChannel];
 353:Generated_Source\PSoC6/CapSense_Filter.c ****                         #else
 354:Generated_Source\PSoC6/CapSense_Filter.c ****                             history = (uint32) ptrSensor->bsln[freqChannel];
 355:Generated_Source\PSoC6/CapSense_Filter.c ****                         #endif /* (CapSense_PROX_IIR_BL_TYPE == CapSense_IIR_FILTER_PERFORMANCE) */
 356:Generated_Source\PSoC6/CapSense_Filter.c **** 
 357:Generated_Source\PSoC6/CapSense_Filter.c ****                         #if (CapSense_ENABLE == CapSense_WD_BSLN_COEFF_EN)
 358:Generated_Source\PSoC6/CapSense_Filter.c ****                             baselineCoeff = ptrWidgetRam->bslnCoeff;
 359:Generated_Source\PSoC6/CapSense_Filter.c ****                         #else /* (CapSense_ENABLE == CapSense_WD_BSLN_COEFF_EN) */
 360:Generated_Source\PSoC6/CapSense_Filter.c ****                             baselineCoeff = CapSense_PROX_IIR_BL_N;
 361:Generated_Source\PSoC6/CapSense_Filter.c ****                         #endif /* (CapSense_ENABLE == CapSense_WD_BSLN_COEFF_EN) */
 362:Generated_Source\PSoC6/CapSense_Filter.c **** 
 363:Generated_Source\PSoC6/CapSense_Filter.c ****                         history = CapSense_FtIIR1stOrder(
 364:Generated_Source\PSoC6/CapSense_Filter.c ****                                         (uint32)ptrSensor->raw[freqChannel],
 365:Generated_Source\PSoC6/CapSense_Filter.c ****                                         history, baselineCoeff,
 366:Generated_Source\PSoC6/CapSense_Filter.c ****                                         CapSense_PROX_IIR_BL_SHIFT);
 367:Generated_Source\PSoC6/CapSense_Filter.c **** 
 368:Generated_Source\PSoC6/CapSense_Filter.c ****                         #if (CapSense_PROX_IIR_BL_TYPE == CapSense_IIR_FILTER_PERFORMANCE)
 369:Generated_Source\PSoC6/CapSense_Filter.c ****                                     ptrSensor->bsln[freqChannel] = CY_LO16(history >> 8u);
 370:Generated_Source\PSoC6/CapSense_Filter.c ****                                     ptrSensor->bslnExt[freqChannel] = CY_LO8(history);
 371:Generated_Source\PSoC6/CapSense_Filter.c ****                         #else
 372:Generated_Source\PSoC6/CapSense_Filter.c ****                                     ptrSensor->bsln[freqChannel] = CY_LO16(history);
 373:Generated_Source\PSoC6/CapSense_Filter.c ****                         #endif /* (CapSense_PROX_IIR_BL_TYPE == CapSense_IIR_FILTER_PERFORMANCE) */
 374:Generated_Source\PSoC6/CapSense_Filter.c ****                     #endif /* (CapSense_PROX_SENSOR_EN) */
 375:Generated_Source\PSoC6/CapSense_Filter.c ****                 }
 376:Generated_Source\PSoC6/CapSense_Filter.c ****             #else /* (CapSense_CSD_BASELINE_TYPE == CapSense_IIR_BASELINE) */
 377:Generated_Source\PSoC6/CapSense_Filter.c **** 
 378:Generated_Source\PSoC6/CapSense_Filter.c ****                 /******************************************************************
 379:Generated_Source\PSoC6/CapSense_Filter.c ****                 * This is the place where the bucket algorithm should be implemented.
 380:Generated_Source\PSoC6/CapSense_Filter.c ****                 * The bucket method will be implemented in future Component version.
 381:Generated_Source\PSoC6/CapSense_Filter.c ****                 *******************************************************************/
 382:Generated_Source\PSoC6/CapSense_Filter.c **** 
 383:Generated_Source\PSoC6/CapSense_Filter.c ****             #endif /* (CapSense_CSD_BASELINE_TYPE == CapSense_IIR_BASELINE) */
 384:Generated_Source\PSoC6/CapSense_Filter.c **** 
 385:Generated_Source\PSoC6/CapSense_Filter.c ****             #if (!CapSense_SENSOR_AUTO_RESET_EN)
 386:Generated_Source\PSoC6/CapSense_Filter.c ****                 }
 387:Generated_Source\PSoC6/CapSense_Filter.c ****             #endif /* (!CapSense_SENSOR_AUTO_RESET_EN) */
 388:Generated_Source\PSoC6/CapSense_Filter.c ****         }
 389:Generated_Source\PSoC6/CapSense_Filter.c **** 
 390:Generated_Source\PSoC6/CapSense_Filter.c ****         #if (CapSense_ENABLE == CapSense_TST_BSLN_DUPLICATION_EN)
 391:Generated_Source\PSoC6/CapSense_Filter.c ****             /* Update baseline inversion of every channel in sensor */
 392:Generated_Source\PSoC6/CapSense_Filter.c ****             ptrSensor->bslnInv[freqChannel] = ~(ptrSensor->bsln[freqChannel]);
 393:Generated_Source\PSoC6/CapSense_Filter.c ****             }
 394:Generated_Source\PSoC6/CapSense_Filter.c ****         #endif /* (CapSense_ENABLE == CapSense_TST_BSLN_DUPLICATION_EN) */
 395:Generated_Source\PSoC6/CapSense_Filter.c **** 
 396:Generated_Source\PSoC6/CapSense_Filter.c ****     }
 397:Generated_Source\PSoC6/CapSense_Filter.c ****     return result;
 446              		.loc 1 397 0
 447 012e BB69     		ldr	r3, [r7, #24]
 398:Generated_Source\PSoC6/CapSense_Filter.c **** }
 448              		.loc 1 398 0
 449 0130 1846     		mov	r0, r3
 450 0132 2837     		adds	r7, r7, #40
 451              		.cfi_def_cfa_offset 8
 452 0134 BD46     		mov	sp, r7
ARM GAS  C:\Users\ikomb\AppData\Local\Temp\cclK6Blf.s 			page 16


 453              		.cfi_def_cfa_register 13
 454              		@ sp needed
 455 0136 80BD     		pop	{r7, pc}
 456              		.cfi_endproc
 457              	.LFE129:
 458              		.size	CapSense_FtUpdateBaseline, .-CapSense_FtUpdateBaseline
 459              		.section	.text.CapSense_InitializeAllBaselines,"ax",%progbits
 460              		.align	2
 461              		.global	CapSense_InitializeAllBaselines
 462              		.thumb
 463              		.thumb_func
 464              		.type	CapSense_InitializeAllBaselines, %function
 465              	CapSense_InitializeAllBaselines:
 466              	.LFB130:
 399:Generated_Source\PSoC6/CapSense_Filter.c **** 
 400:Generated_Source\PSoC6/CapSense_Filter.c **** 
 401:Generated_Source\PSoC6/CapSense_Filter.c **** /*******************************************************************************
 402:Generated_Source\PSoC6/CapSense_Filter.c **** * Function Name: CapSense_InitializeAllBaselines
 403:Generated_Source\PSoC6/CapSense_Filter.c **** ****************************************************************************//**
 404:Generated_Source\PSoC6/CapSense_Filter.c **** *
 405:Generated_Source\PSoC6/CapSense_Filter.c **** * \brief
 406:Generated_Source\PSoC6/CapSense_Filter.c **** *  Initializes (or re-initializes) the baselines of all the sensors of all the widgets.
 407:Generated_Source\PSoC6/CapSense_Filter.c **** *
 408:Generated_Source\PSoC6/CapSense_Filter.c **** * \details
 409:Generated_Source\PSoC6/CapSense_Filter.c **** *  Initializes the baseline for all the sensors of all the widgets. Also, this function
 410:Generated_Source\PSoC6/CapSense_Filter.c **** *  can be used to re-initialize baselines. CapSense_Start() calls this
 411:Generated_Source\PSoC6/CapSense_Filter.c **** *  API as part of CapSense operation initialization.
 412:Generated_Source\PSoC6/CapSense_Filter.c **** *  
 413:Generated_Source\PSoC6/CapSense_Filter.c **** *  If any raw count filter is enabled, make sure the raw count filter history is 
 414:Generated_Source\PSoC6/CapSense_Filter.c **** *  initialized as well using one of these functions:
 415:Generated_Source\PSoC6/CapSense_Filter.c **** *  - CapSense_InitializeAllFilters().
 416:Generated_Source\PSoC6/CapSense_Filter.c **** *  - CapSense_InitializeWidgetFilter().
 417:Generated_Source\PSoC6/CapSense_Filter.c **** *
 418:Generated_Source\PSoC6/CapSense_Filter.c **** *******************************************************************************/
 419:Generated_Source\PSoC6/CapSense_Filter.c **** void CapSense_InitializeAllBaselines(void)
 420:Generated_Source\PSoC6/CapSense_Filter.c **** {
 467              		.loc 1 420 0
 468              		.cfi_startproc
 469              		@ args = 0, pretend = 0, frame = 8
 470              		@ frame_needed = 1, uses_anonymous_args = 0
 471 0000 80B5     		push	{r7, lr}
 472              		.cfi_def_cfa_offset 8
 473              		.cfi_offset 7, -8
 474              		.cfi_offset 14, -4
 475 0002 82B0     		sub	sp, sp, #8
 476              		.cfi_def_cfa_offset 16
 477 0004 00AF     		add	r7, sp, #0
 478              		.cfi_def_cfa_register 7
 421:Generated_Source\PSoC6/CapSense_Filter.c ****     uint32 widgetId;
 422:Generated_Source\PSoC6/CapSense_Filter.c **** 
 423:Generated_Source\PSoC6/CapSense_Filter.c ****     for(widgetId = CapSense_TOTAL_WIDGETS; widgetId-- > 0u;)
 479              		.loc 1 423 0
 480 0006 0323     		movs	r3, #3
 481 0008 7B60     		str	r3, [r7, #4]
 482 000a 02E0     		b	.L26
 483              	.L27:
 424:Generated_Source\PSoC6/CapSense_Filter.c ****     {
ARM GAS  C:\Users\ikomb\AppData\Local\Temp\cclK6Blf.s 			page 17


 425:Generated_Source\PSoC6/CapSense_Filter.c ****         CapSense_InitializeWidgetBaseline(widgetId);
 484              		.loc 1 425 0
 485 000c 7868     		ldr	r0, [r7, #4]
 486 000e FFF7FEFF 		bl	CapSense_InitializeWidgetBaseline
 487              	.L26:
 423:Generated_Source\PSoC6/CapSense_Filter.c ****     {
 488              		.loc 1 423 0 discriminator 1
 489 0012 7B68     		ldr	r3, [r7, #4]
 490 0014 5A1E     		subs	r2, r3, #1
 491 0016 7A60     		str	r2, [r7, #4]
 492 0018 002B     		cmp	r3, #0
 493 001a F7D1     		bne	.L27
 426:Generated_Source\PSoC6/CapSense_Filter.c ****     }
 427:Generated_Source\PSoC6/CapSense_Filter.c **** }
 494              		.loc 1 427 0
 495 001c 00BF     		nop
 496 001e 0837     		adds	r7, r7, #8
 497              		.cfi_def_cfa_offset 8
 498 0020 BD46     		mov	sp, r7
 499              		.cfi_def_cfa_register 13
 500              		@ sp needed
 501 0022 80BD     		pop	{r7, pc}
 502              		.cfi_endproc
 503              	.LFE130:
 504              		.size	CapSense_InitializeAllBaselines, .-CapSense_InitializeAllBaselines
 505              		.section	.text.CapSense_InitializeWidgetBaseline,"ax",%progbits
 506              		.align	2
 507              		.global	CapSense_InitializeWidgetBaseline
 508              		.thumb
 509              		.thumb_func
 510              		.type	CapSense_InitializeWidgetBaseline, %function
 511              	CapSense_InitializeWidgetBaseline:
 512              	.LFB131:
 428:Generated_Source\PSoC6/CapSense_Filter.c **** 
 429:Generated_Source\PSoC6/CapSense_Filter.c **** 
 430:Generated_Source\PSoC6/CapSense_Filter.c **** /*******************************************************************************
 431:Generated_Source\PSoC6/CapSense_Filter.c **** * Function Name: CapSense_InitializeWidgetBaseline
 432:Generated_Source\PSoC6/CapSense_Filter.c **** ****************************************************************************//**
 433:Generated_Source\PSoC6/CapSense_Filter.c **** *
 434:Generated_Source\PSoC6/CapSense_Filter.c **** * \brief
 435:Generated_Source\PSoC6/CapSense_Filter.c **** *  Initializes (or re-initializes) the baselines of all the sensors in a widget
 436:Generated_Source\PSoC6/CapSense_Filter.c **** *  specified by the input parameter.
 437:Generated_Source\PSoC6/CapSense_Filter.c **** *
 438:Generated_Source\PSoC6/CapSense_Filter.c **** * \details
 439:Generated_Source\PSoC6/CapSense_Filter.c **** *  Initializes (or re-initializes) the baseline for all the sensors of the
 440:Generated_Source\PSoC6/CapSense_Filter.c **** *  specified widget.
 441:Generated_Source\PSoC6/CapSense_Filter.c **** *  
 442:Generated_Source\PSoC6/CapSense_Filter.c **** *  If any raw count filter is enabled, make sure the raw count filter history is 
 443:Generated_Source\PSoC6/CapSense_Filter.c **** *  initialized as well using one of these functions:
 444:Generated_Source\PSoC6/CapSense_Filter.c **** *  - CapSense_InitializeAllFilters().
 445:Generated_Source\PSoC6/CapSense_Filter.c **** *  - CapSense_InitializeWidgetFilter().
 446:Generated_Source\PSoC6/CapSense_Filter.c **** *
 447:Generated_Source\PSoC6/CapSense_Filter.c **** * \param  widgetId
 448:Generated_Source\PSoC6/CapSense_Filter.c **** *  Specifies the ID number of a widget to initialize the baseline of all the sensors
 449:Generated_Source\PSoC6/CapSense_Filter.c **** *  in the widget.
 450:Generated_Source\PSoC6/CapSense_Filter.c **** *  A macro for the widget ID can be found in the
 451:Generated_Source\PSoC6/CapSense_Filter.c **** *  CapSense Configuration header file defined as
ARM GAS  C:\Users\ikomb\AppData\Local\Temp\cclK6Blf.s 			page 18


 452:Generated_Source\PSoC6/CapSense_Filter.c **** *  CapSense_<WidgetName>_WDGT_ID.
 453:Generated_Source\PSoC6/CapSense_Filter.c **** *
 454:Generated_Source\PSoC6/CapSense_Filter.c **** *******************************************************************************/
 455:Generated_Source\PSoC6/CapSense_Filter.c **** void CapSense_InitializeWidgetBaseline(uint32 widgetId)
 456:Generated_Source\PSoC6/CapSense_Filter.c **** {
 513              		.loc 1 456 0
 514              		.cfi_startproc
 515              		@ args = 0, pretend = 0, frame = 24
 516              		@ frame_needed = 1, uses_anonymous_args = 0
 517 0000 80B5     		push	{r7, lr}
 518              		.cfi_def_cfa_offset 8
 519              		.cfi_offset 7, -8
 520              		.cfi_offset 14, -4
 521 0002 86B0     		sub	sp, sp, #24
 522              		.cfi_def_cfa_offset 32
 523 0004 00AF     		add	r7, sp, #0
 524              		.cfi_def_cfa_register 7
 525 0006 7860     		str	r0, [r7, #4]
 457:Generated_Source\PSoC6/CapSense_Filter.c ****     uint32 sensorId;
 458:Generated_Source\PSoC6/CapSense_Filter.c ****     uint32 sensorsNumber;
 459:Generated_Source\PSoC6/CapSense_Filter.c **** 
 460:Generated_Source\PSoC6/CapSense_Filter.c ****     CapSense_FLASH_WD_STRUCT const *ptrWidget = &CapSense_dsFlash.wdgtArray[widgetId];
 526              		.loc 1 460 0
 527 0008 7A68     		ldr	r2, [r7, #4]
 528 000a 1346     		mov	r3, r2
 529 000c 5B00     		lsls	r3, r3, #1
 530 000e 1344     		add	r3, r3, r2
 531 0010 1B01     		lsls	r3, r3, #4
 532 0012 0B4A     		ldr	r2, .L31
 533 0014 1344     		add	r3, r3, r2
 534 0016 3B61     		str	r3, [r7, #16]
 461:Generated_Source\PSoC6/CapSense_Filter.c **** 
 462:Generated_Source\PSoC6/CapSense_Filter.c ****     /* Find total amount of sensors in specified widget */
 463:Generated_Source\PSoC6/CapSense_Filter.c ****     sensorsNumber = CapSense_GET_SNS_CNT_BY_PTR(ptrWidget);
 535              		.loc 1 463 0
 536 0018 3B69     		ldr	r3, [r7, #16]
 537 001a 1B8B     		ldrh	r3, [r3, #24]
 538 001c FB60     		str	r3, [r7, #12]
 464:Generated_Source\PSoC6/CapSense_Filter.c **** 
 465:Generated_Source\PSoC6/CapSense_Filter.c ****     for(sensorId = sensorsNumber; sensorId-- > 0u;)
 539              		.loc 1 465 0
 540 001e FB68     		ldr	r3, [r7, #12]
 541 0020 7B61     		str	r3, [r7, #20]
 542 0022 03E0     		b	.L29
 543              	.L30:
 466:Generated_Source\PSoC6/CapSense_Filter.c ****     {
 467:Generated_Source\PSoC6/CapSense_Filter.c ****         CapSense_InitializeSensorBaseline(widgetId, sensorId);
 544              		.loc 1 467 0
 545 0024 7969     		ldr	r1, [r7, #20]
 546 0026 7868     		ldr	r0, [r7, #4]
 547 0028 FFF7FEFF 		bl	CapSense_InitializeSensorBaseline
 548              	.L29:
 465:Generated_Source\PSoC6/CapSense_Filter.c ****     {
 549              		.loc 1 465 0 discriminator 1
 550 002c 7B69     		ldr	r3, [r7, #20]
 551 002e 5A1E     		subs	r2, r3, #1
 552 0030 7A61     		str	r2, [r7, #20]
ARM GAS  C:\Users\ikomb\AppData\Local\Temp\cclK6Blf.s 			page 19


 553 0032 002B     		cmp	r3, #0
 554 0034 F6D1     		bne	.L30
 468:Generated_Source\PSoC6/CapSense_Filter.c ****     }
 469:Generated_Source\PSoC6/CapSense_Filter.c **** }
 555              		.loc 1 469 0
 556 0036 00BF     		nop
 557 0038 1837     		adds	r7, r7, #24
 558              		.cfi_def_cfa_offset 8
 559 003a BD46     		mov	sp, r7
 560              		.cfi_def_cfa_register 13
 561              		@ sp needed
 562 003c 80BD     		pop	{r7, pc}
 563              	.L32:
 564 003e 00BF     		.align	2
 565              	.L31:
 566 0040 00000000 		.word	CapSense_dsFlash
 567              		.cfi_endproc
 568              	.LFE131:
 569              		.size	CapSense_InitializeWidgetBaseline, .-CapSense_InitializeWidgetBaseline
 570              		.section	.text.CapSense_InitializeSensorBaseline,"ax",%progbits
 571              		.align	2
 572              		.global	CapSense_InitializeSensorBaseline
 573              		.thumb
 574              		.thumb_func
 575              		.type	CapSense_InitializeSensorBaseline, %function
 576              	CapSense_InitializeSensorBaseline:
 577              	.LFB132:
 470:Generated_Source\PSoC6/CapSense_Filter.c **** 
 471:Generated_Source\PSoC6/CapSense_Filter.c **** 
 472:Generated_Source\PSoC6/CapSense_Filter.c **** /*******************************************************************************
 473:Generated_Source\PSoC6/CapSense_Filter.c **** * Function Name: CapSense_InitializeSensorBaseline
 474:Generated_Source\PSoC6/CapSense_Filter.c **** ****************************************************************************//**
 475:Generated_Source\PSoC6/CapSense_Filter.c **** *
 476:Generated_Source\PSoC6/CapSense_Filter.c **** * \brief
 477:Generated_Source\PSoC6/CapSense_Filter.c **** *  Initializes (or re-initializes) the baseline of a sensor in a widget specified
 478:Generated_Source\PSoC6/CapSense_Filter.c **** *  by the input parameters.
 479:Generated_Source\PSoC6/CapSense_Filter.c **** *
 480:Generated_Source\PSoC6/CapSense_Filter.c **** * \details
 481:Generated_Source\PSoC6/CapSense_Filter.c **** *  Initializes (or re-initializes) the baseline for a specified sensor within
 482:Generated_Source\PSoC6/CapSense_Filter.c **** *  a specified widget.
 483:Generated_Source\PSoC6/CapSense_Filter.c **** *
 484:Generated_Source\PSoC6/CapSense_Filter.c **** * \param    widgetId
 485:Generated_Source\PSoC6/CapSense_Filter.c **** *  Specifies the ID number of a widget to initialize the baseline of the sensor
 486:Generated_Source\PSoC6/CapSense_Filter.c **** *  in the widget.
 487:Generated_Source\PSoC6/CapSense_Filter.c **** *  A macro for the widget ID can be found in the
 488:Generated_Source\PSoC6/CapSense_Filter.c **** *  CapSense Configuration header file defined as
 489:Generated_Source\PSoC6/CapSense_Filter.c **** *  CapSense_<WidgetName>_WDGT_ID.
 490:Generated_Source\PSoC6/CapSense_Filter.c **** *
 491:Generated_Source\PSoC6/CapSense_Filter.c **** * \param    sensorId
 492:Generated_Source\PSoC6/CapSense_Filter.c **** *  Specifies the ID number of the sensor within the widget to initialize its
 493:Generated_Source\PSoC6/CapSense_Filter.c **** *  baseline.
 494:Generated_Source\PSoC6/CapSense_Filter.c **** *  A macro for the sensor ID within a specified widget can be found in the
 495:Generated_Source\PSoC6/CapSense_Filter.c **** *  CapSense Configuration header file defined as
 496:Generated_Source\PSoC6/CapSense_Filter.c **** *  CapSense_<WidgetName>_SNS<SensorNumber>_ID.
 497:Generated_Source\PSoC6/CapSense_Filter.c **** *
 498:Generated_Source\PSoC6/CapSense_Filter.c **** *******************************************************************************/
 499:Generated_Source\PSoC6/CapSense_Filter.c **** void CapSense_InitializeSensorBaseline(uint32 widgetId, uint32 sensorId)
ARM GAS  C:\Users\ikomb\AppData\Local\Temp\cclK6Blf.s 			page 20


 500:Generated_Source\PSoC6/CapSense_Filter.c **** {
 578              		.loc 1 500 0
 579              		.cfi_startproc
 580              		@ args = 0, pretend = 0, frame = 16
 581              		@ frame_needed = 1, uses_anonymous_args = 0
 582 0000 80B5     		push	{r7, lr}
 583              		.cfi_def_cfa_offset 8
 584              		.cfi_offset 7, -8
 585              		.cfi_offset 14, -4
 586 0002 84B0     		sub	sp, sp, #16
 587              		.cfi_def_cfa_offset 24
 588 0004 00AF     		add	r7, sp, #0
 589              		.cfi_def_cfa_register 7
 590 0006 7860     		str	r0, [r7, #4]
 591 0008 3960     		str	r1, [r7]
 501:Generated_Source\PSoC6/CapSense_Filter.c ****     CapSense_RAM_SNS_STRUCT *ptrSensor = NULL;
 592              		.loc 1 501 0
 593 000a 0023     		movs	r3, #0
 594 000c FB60     		str	r3, [r7, #12]
 502:Generated_Source\PSoC6/CapSense_Filter.c ****     CapSense_FLASH_WD_STRUCT const *ptrWidget = NULL;
 595              		.loc 1 502 0
 596 000e 0023     		movs	r3, #0
 597 0010 BB60     		str	r3, [r7, #8]
 503:Generated_Source\PSoC6/CapSense_Filter.c ****     ptrWidget = &CapSense_dsFlash.wdgtArray[widgetId];
 598              		.loc 1 503 0
 599 0012 7A68     		ldr	r2, [r7, #4]
 600 0014 1346     		mov	r3, r2
 601 0016 5B00     		lsls	r3, r3, #1
 602 0018 1344     		add	r3, r3, r2
 603 001a 1B01     		lsls	r3, r3, #4
 604 001c 0C4A     		ldr	r2, .L34
 605 001e 1344     		add	r3, r3, r2
 606 0020 BB60     		str	r3, [r7, #8]
 504:Generated_Source\PSoC6/CapSense_Filter.c **** 
 505:Generated_Source\PSoC6/CapSense_Filter.c ****     /* Find pointer to specified sensor object */
 506:Generated_Source\PSoC6/CapSense_Filter.c ****     ptrSensor = ptrWidget->ptr2SnsRam;
 607              		.loc 1 506 0
 608 0022 BB68     		ldr	r3, [r7, #8]
 609 0024 9B68     		ldr	r3, [r3, #8]
 610 0026 FB60     		str	r3, [r7, #12]
 507:Generated_Source\PSoC6/CapSense_Filter.c ****     ptrSensor = &ptrSensor[sensorId];
 611              		.loc 1 507 0
 612 0028 3A68     		ldr	r2, [r7]
 613 002a 1346     		mov	r3, r2
 614 002c 9B00     		lsls	r3, r3, #2
 615 002e 1344     		add	r3, r3, r2
 616 0030 5B00     		lsls	r3, r3, #1
 617 0032 1A46     		mov	r2, r3
 618 0034 FB68     		ldr	r3, [r7, #12]
 619 0036 1344     		add	r3, r3, r2
 620 0038 FB60     		str	r3, [r7, #12]
 508:Generated_Source\PSoC6/CapSense_Filter.c **** 
 509:Generated_Source\PSoC6/CapSense_Filter.c ****     CapSense_FtInitializeBaseline(ptrSensor, (uint32)ptrWidget->wdgtType);
 621              		.loc 1 509 0
 622 003a BB68     		ldr	r3, [r7, #8]
 623 003c 9B7E     		ldrb	r3, [r3, #26]	@ zero_extendqisi2
 624 003e 1946     		mov	r1, r3
ARM GAS  C:\Users\ikomb\AppData\Local\Temp\cclK6Blf.s 			page 21


 625 0040 F868     		ldr	r0, [r7, #12]
 626 0042 FFF7FEFF 		bl	CapSense_FtInitializeBaseline
 510:Generated_Source\PSoC6/CapSense_Filter.c **** }
 627              		.loc 1 510 0
 628 0046 00BF     		nop
 629 0048 1037     		adds	r7, r7, #16
 630              		.cfi_def_cfa_offset 8
 631 004a BD46     		mov	sp, r7
 632              		.cfi_def_cfa_register 13
 633              		@ sp needed
 634 004c 80BD     		pop	{r7, pc}
 635              	.L35:
 636 004e 00BF     		.align	2
 637              	.L34:
 638 0050 00000000 		.word	CapSense_dsFlash
 639              		.cfi_endproc
 640              	.LFE132:
 641              		.size	CapSense_InitializeSensorBaseline, .-CapSense_InitializeSensorBaseline
 642              		.section	.text.CapSense_FtInitializeBaseline,"ax",%progbits
 643              		.align	2
 644              		.global	CapSense_FtInitializeBaseline
 645              		.thumb
 646              		.thumb_func
 647              		.type	CapSense_FtInitializeBaseline, %function
 648              	CapSense_FtInitializeBaseline:
 649              	.LFB133:
 511:Generated_Source\PSoC6/CapSense_Filter.c **** 
 512:Generated_Source\PSoC6/CapSense_Filter.c **** 
 513:Generated_Source\PSoC6/CapSense_Filter.c **** /*******************************************************************************
 514:Generated_Source\PSoC6/CapSense_Filter.c **** * Function Name: CapSense_FtInitializeBaseline
 515:Generated_Source\PSoC6/CapSense_Filter.c **** ****************************************************************************//**
 516:Generated_Source\PSoC6/CapSense_Filter.c **** *
 517:Generated_Source\PSoC6/CapSense_Filter.c **** * \brief    Initializes the baseline history for a sensor indicated by an input
 518:Generated_Source\PSoC6/CapSense_Filter.c **** *           parameter.
 519:Generated_Source\PSoC6/CapSense_Filter.c **** *
 520:Generated_Source\PSoC6/CapSense_Filter.c **** * \details  Initializes the baseline history for a sensor indicated by an input
 521:Generated_Source\PSoC6/CapSense_Filter.c **** *           parameter.
 522:Generated_Source\PSoC6/CapSense_Filter.c **** *
 523:Generated_Source\PSoC6/CapSense_Filter.c **** * \param    *ptrSensor The pointer to the sensor RAM object.
 524:Generated_Source\PSoC6/CapSense_Filter.c **** * \param    wdType     Specifies the type of a widget.
 525:Generated_Source\PSoC6/CapSense_Filter.c **** *
 526:Generated_Source\PSoC6/CapSense_Filter.c **** *******************************************************************************/
 527:Generated_Source\PSoC6/CapSense_Filter.c **** void CapSense_FtInitializeBaseline(CapSense_RAM_SNS_STRUCT *ptrSensor, uint32 wdType)
 528:Generated_Source\PSoC6/CapSense_Filter.c **** {
 650              		.loc 1 528 0
 651              		.cfi_startproc
 652              		@ args = 0, pretend = 0, frame = 16
 653              		@ frame_needed = 1, uses_anonymous_args = 0
 654 0000 80B5     		push	{r7, lr}
 655              		.cfi_def_cfa_offset 8
 656              		.cfi_offset 7, -8
 657              		.cfi_offset 14, -4
 658 0002 84B0     		sub	sp, sp, #16
 659              		.cfi_def_cfa_offset 24
 660 0004 00AF     		add	r7, sp, #0
 661              		.cfi_def_cfa_register 7
 662 0006 7860     		str	r0, [r7, #4]
ARM GAS  C:\Users\ikomb\AppData\Local\Temp\cclK6Blf.s 			page 22


 663 0008 3960     		str	r1, [r7]
 529:Generated_Source\PSoC6/CapSense_Filter.c ****     uint32 freqChannel;
 530:Generated_Source\PSoC6/CapSense_Filter.c **** 
 531:Generated_Source\PSoC6/CapSense_Filter.c ****     /* Apply baseline initialization to every channel in sensor */
 532:Generated_Source\PSoC6/CapSense_Filter.c ****     for(freqChannel = CapSense_NUM_SCAN_FREQS; freqChannel-- > 0u;)
 664              		.loc 1 532 0
 665 000a 0123     		movs	r3, #1
 666 000c FB60     		str	r3, [r7, #12]
 667 000e 04E0     		b	.L37
 668              	.L38:
 533:Generated_Source\PSoC6/CapSense_Filter.c ****     {
 534:Generated_Source\PSoC6/CapSense_Filter.c ****         CapSense_FtInitializeBaselineChannel(ptrSensor, wdType, freqChannel);
 669              		.loc 1 534 0
 670 0010 FA68     		ldr	r2, [r7, #12]
 671 0012 3968     		ldr	r1, [r7]
 672 0014 7868     		ldr	r0, [r7, #4]
 673 0016 FFF7FEFF 		bl	CapSense_FtInitializeBaselineChannel
 674              	.L37:
 532:Generated_Source\PSoC6/CapSense_Filter.c ****     {
 675              		.loc 1 532 0 discriminator 1
 676 001a FB68     		ldr	r3, [r7, #12]
 677 001c 5A1E     		subs	r2, r3, #1
 678 001e FA60     		str	r2, [r7, #12]
 679 0020 002B     		cmp	r3, #0
 680 0022 F5D1     		bne	.L38
 535:Generated_Source\PSoC6/CapSense_Filter.c ****     }
 536:Generated_Source\PSoC6/CapSense_Filter.c **** }
 681              		.loc 1 536 0
 682 0024 00BF     		nop
 683 0026 1037     		adds	r7, r7, #16
 684              		.cfi_def_cfa_offset 8
 685 0028 BD46     		mov	sp, r7
 686              		.cfi_def_cfa_register 13
 687              		@ sp needed
 688 002a 80BD     		pop	{r7, pc}
 689              		.cfi_endproc
 690              	.LFE133:
 691              		.size	CapSense_FtInitializeBaseline, .-CapSense_FtInitializeBaseline
 692              		.section	.text.CapSense_FtInitializeBaselineChannel,"ax",%progbits
 693              		.align	2
 694              		.global	CapSense_FtInitializeBaselineChannel
 695              		.thumb
 696              		.thumb_func
 697              		.type	CapSense_FtInitializeBaselineChannel, %function
 698              	CapSense_FtInitializeBaselineChannel:
 699              	.LFB134:
 537:Generated_Source\PSoC6/CapSense_Filter.c **** 
 538:Generated_Source\PSoC6/CapSense_Filter.c **** 
 539:Generated_Source\PSoC6/CapSense_Filter.c **** /*******************************************************************************
 540:Generated_Source\PSoC6/CapSense_Filter.c **** * Function Name: CapSense_FtInitializeBaselineChannel
 541:Generated_Source\PSoC6/CapSense_Filter.c **** ****************************************************************************//**
 542:Generated_Source\PSoC6/CapSense_Filter.c **** *
 543:Generated_Source\PSoC6/CapSense_Filter.c **** * \brief    Initializes the baseline history for a sensor indicated by an input
 544:Generated_Source\PSoC6/CapSense_Filter.c **** *           parameter.
 545:Generated_Source\PSoC6/CapSense_Filter.c **** *
 546:Generated_Source\PSoC6/CapSense_Filter.c **** * \details  Initializes the baseline history for a sensor indicated by an input
 547:Generated_Source\PSoC6/CapSense_Filter.c **** *           parameter.
ARM GAS  C:\Users\ikomb\AppData\Local\Temp\cclK6Blf.s 			page 23


 548:Generated_Source\PSoC6/CapSense_Filter.c **** *
 549:Generated_Source\PSoC6/CapSense_Filter.c **** * \param    *ptrSensor The pointer to the sensor RAM object.
 550:Generated_Source\PSoC6/CapSense_Filter.c **** * \param    wdType     Specifies the type of a widget.
 551:Generated_Source\PSoC6/CapSense_Filter.c **** * \param    channel    Specifies the number of the channel to be initialized.
 552:Generated_Source\PSoC6/CapSense_Filter.c **** *
 553:Generated_Source\PSoC6/CapSense_Filter.c **** *******************************************************************************/
 554:Generated_Source\PSoC6/CapSense_Filter.c **** void CapSense_FtInitializeBaselineChannel(CapSense_RAM_SNS_STRUCT *ptrSensor, uint32 wdType, uint32
 555:Generated_Source\PSoC6/CapSense_Filter.c **** {
 700              		.loc 1 555 0
 701              		.cfi_startproc
 702              		@ args = 0, pretend = 0, frame = 16
 703              		@ frame_needed = 1, uses_anonymous_args = 0
 704              		@ link register save eliminated.
 705 0000 80B4     		push	{r7}
 706              		.cfi_def_cfa_offset 4
 707              		.cfi_offset 7, -4
 708 0002 85B0     		sub	sp, sp, #20
 709              		.cfi_def_cfa_offset 24
 710 0004 00AF     		add	r7, sp, #0
 711              		.cfi_def_cfa_register 7
 712 0006 F860     		str	r0, [r7, #12]
 713 0008 B960     		str	r1, [r7, #8]
 714 000a 7A60     		str	r2, [r7, #4]
 556:Generated_Source\PSoC6/CapSense_Filter.c ****     #if (CapSense_BASELINE_TYPE == CapSense_IIR_BASELINE)
 557:Generated_Source\PSoC6/CapSense_Filter.c ****         if ((CapSense_WD_TYPE_ENUM)wdType != CapSense_WD_PROXIMITY_E)
 715              		.loc 1 557 0
 716 000c BB68     		ldr	r3, [r7, #8]
 717 000e DBB2     		uxtb	r3, r3
 718 0010 062B     		cmp	r3, #6
 719 0012 05D0     		beq	.L40
 558:Generated_Source\PSoC6/CapSense_Filter.c ****         {
 559:Generated_Source\PSoC6/CapSense_Filter.c ****             #if (CapSense_REGULAR_SENSOR_EN)
 560:Generated_Source\PSoC6/CapSense_Filter.c ****                 #if (CapSense_REGULAR_IIR_BL_TYPE == CapSense_IIR_FILTER_PERFORMANCE)
 561:Generated_Source\PSoC6/CapSense_Filter.c ****                     ptrSensor->bslnExt[channel] = 0u;
 720              		.loc 1 561 0
 721 0014 FA68     		ldr	r2, [r7, #12]
 722 0016 7B68     		ldr	r3, [r7, #4]
 723 0018 1344     		add	r3, r3, r2
 724 001a 0433     		adds	r3, r3, #4
 725 001c 0022     		movs	r2, #0
 726 001e 1A70     		strb	r2, [r3]
 727              	.L40:
 562:Generated_Source\PSoC6/CapSense_Filter.c ****                 #endif /* (CapSense_REGULAR_IIR_BL_TYPE == CapSense_IIR_FILTER_PERFORMANCE) */
 563:Generated_Source\PSoC6/CapSense_Filter.c ****             #endif /* (CapSense_REGULAR_SENSOR_EN) */
 564:Generated_Source\PSoC6/CapSense_Filter.c ****         }
 565:Generated_Source\PSoC6/CapSense_Filter.c ****         else
 566:Generated_Source\PSoC6/CapSense_Filter.c ****         {
 567:Generated_Source\PSoC6/CapSense_Filter.c ****             #if (CapSense_PROXIMITY_SENSOR_EN)
 568:Generated_Source\PSoC6/CapSense_Filter.c ****                 #if (CapSense_PROX_IIR_BL_TYPE == CapSense_IIR_FILTER_PERFORMANCE)
 569:Generated_Source\PSoC6/CapSense_Filter.c ****                     ptrSensor->bslnExt[channel] = 0u;
 570:Generated_Source\PSoC6/CapSense_Filter.c ****                 #endif /* (CapSense_PROX_IIR_BL_TYPE == CapSense_IIR_FILTER_PERFORMANCE) */
 571:Generated_Source\PSoC6/CapSense_Filter.c ****             #endif /* (CapSense_PROX_SENSOR_EN) */
 572:Generated_Source\PSoC6/CapSense_Filter.c ****         }
 573:Generated_Source\PSoC6/CapSense_Filter.c ****     #else
 574:Generated_Source\PSoC6/CapSense_Filter.c ****         /* CapSense_BASELINE_TYPE == CapSense_BUCKET_BASELINE */
 575:Generated_Source\PSoC6/CapSense_Filter.c ****         ptrSensor->bslnExt[channel] = 0u;
 576:Generated_Source\PSoC6/CapSense_Filter.c ****     #endif /* (CapSense_BASELINE_TYPE == CapSense_IIR_BASELINE) */
ARM GAS  C:\Users\ikomb\AppData\Local\Temp\cclK6Blf.s 			page 24


 577:Generated_Source\PSoC6/CapSense_Filter.c **** 
 578:Generated_Source\PSoC6/CapSense_Filter.c ****     ptrSensor->bsln[channel] = ptrSensor->raw[channel];
 728              		.loc 1 578 0
 729 0020 FB68     		ldr	r3, [r7, #12]
 730 0022 7A68     		ldr	r2, [r7, #4]
 731 0024 33F81210 		ldrh	r1, [r3, r2, lsl #1]
 732 0028 FA68     		ldr	r2, [r7, #12]
 733 002a 7B68     		ldr	r3, [r7, #4]
 734 002c 5B00     		lsls	r3, r3, #1
 735 002e 1344     		add	r3, r3, r2
 736 0030 0A46     		mov	r2, r1	@ movhi
 737 0032 5A80     		strh	r2, [r3, #2]	@ movhi
 579:Generated_Source\PSoC6/CapSense_Filter.c **** 
 580:Generated_Source\PSoC6/CapSense_Filter.c ****     #if (CapSense_ENABLE == CapSense_TST_BSLN_DUPLICATION_EN)
 581:Generated_Source\PSoC6/CapSense_Filter.c ****     /* Update baseline inversion of the channel in sensor */
 582:Generated_Source\PSoC6/CapSense_Filter.c ****         ptrSensor->bslnInv[channel] = ~(ptrSensor->bsln[channel]);
 583:Generated_Source\PSoC6/CapSense_Filter.c ****     #endif /* (CapSense_ENABLE == CapSense_TST_BSLN_DUPLICATION_EN) */
 584:Generated_Source\PSoC6/CapSense_Filter.c **** 
 585:Generated_Source\PSoC6/CapSense_Filter.c ****     ptrSensor->negBslnRstCnt[channel] = 0u;
 738              		.loc 1 585 0
 739 0034 FA68     		ldr	r2, [r7, #12]
 740 0036 7B68     		ldr	r3, [r7, #4]
 741 0038 1344     		add	r3, r3, r2
 742 003a 0833     		adds	r3, r3, #8
 743 003c 0022     		movs	r2, #0
 744 003e 1A70     		strb	r2, [r3]
 586:Generated_Source\PSoC6/CapSense_Filter.c **** }
 745              		.loc 1 586 0
 746 0040 00BF     		nop
 747 0042 1437     		adds	r7, r7, #20
 748              		.cfi_def_cfa_offset 4
 749 0044 BD46     		mov	sp, r7
 750              		.cfi_def_cfa_register 13
 751              		@ sp needed
 752 0046 5DF8047B 		ldr	r7, [sp], #4
 753              		.cfi_restore 7
 754              		.cfi_def_cfa_offset 0
 755 004a 7047     		bx	lr
 756              		.cfi_endproc
 757              	.LFE134:
 758              		.size	CapSense_FtInitializeBaselineChannel, .-CapSense_FtInitializeBaselineChannel
 759              		.section	.text.CapSense_InitializeAllFilters,"ax",%progbits
 760              		.align	2
 761              		.global	CapSense_InitializeAllFilters
 762              		.thumb
 763              		.thumb_func
 764              		.type	CapSense_InitializeAllFilters, %function
 765              	CapSense_InitializeAllFilters:
 766              	.LFB135:
 587:Generated_Source\PSoC6/CapSense_Filter.c **** 
 588:Generated_Source\PSoC6/CapSense_Filter.c **** #if ((CapSense_ENABLE == CapSense_RC_FILTER_EN) || \
 589:Generated_Source\PSoC6/CapSense_Filter.c ****      (0u != (CapSense_CSD_AUTOTUNE & CapSense_CSD_SS_TH_EN)))
 590:Generated_Source\PSoC6/CapSense_Filter.c **** /*******************************************************************************
 591:Generated_Source\PSoC6/CapSense_Filter.c **** * Function Name: CapSense_InitializeAllFilters
 592:Generated_Source\PSoC6/CapSense_Filter.c **** ****************************************************************************//**
 593:Generated_Source\PSoC6/CapSense_Filter.c **** *
 594:Generated_Source\PSoC6/CapSense_Filter.c **** * \brief
ARM GAS  C:\Users\ikomb\AppData\Local\Temp\cclK6Blf.s 			page 25


 595:Generated_Source\PSoC6/CapSense_Filter.c **** *  Initializes (or re-initializes) the raw count filter history of all the 
 596:Generated_Source\PSoC6/CapSense_Filter.c **** *  sensors of all the widgets.
 597:Generated_Source\PSoC6/CapSense_Filter.c **** *
 598:Generated_Source\PSoC6/CapSense_Filter.c **** * \details
 599:Generated_Source\PSoC6/CapSense_Filter.c **** *  Initializes the raw count filter history for all the sensors of all the 
 600:Generated_Source\PSoC6/CapSense_Filter.c **** *  widgets. Also, this function can be used to re-initialize baselines. 
 601:Generated_Source\PSoC6/CapSense_Filter.c **** *  CapSense_Start() calls this API as part of CapSense 
 602:Generated_Source\PSoC6/CapSense_Filter.c **** *  operation initialization.
 603:Generated_Source\PSoC6/CapSense_Filter.c **** *
 604:Generated_Source\PSoC6/CapSense_Filter.c **** *******************************************************************************/
 605:Generated_Source\PSoC6/CapSense_Filter.c **** void CapSense_InitializeAllFilters(void)
 606:Generated_Source\PSoC6/CapSense_Filter.c **** {
 767              		.loc 1 606 0
 768              		.cfi_startproc
 769              		@ args = 0, pretend = 0, frame = 8
 770              		@ frame_needed = 1, uses_anonymous_args = 0
 771 0000 80B5     		push	{r7, lr}
 772              		.cfi_def_cfa_offset 8
 773              		.cfi_offset 7, -8
 774              		.cfi_offset 14, -4
 775 0002 82B0     		sub	sp, sp, #8
 776              		.cfi_def_cfa_offset 16
 777 0004 00AF     		add	r7, sp, #0
 778              		.cfi_def_cfa_register 7
 607:Generated_Source\PSoC6/CapSense_Filter.c ****     uint32 widgetId;
 608:Generated_Source\PSoC6/CapSense_Filter.c **** 
 609:Generated_Source\PSoC6/CapSense_Filter.c ****     for(widgetId = CapSense_TOTAL_WIDGETS; widgetId-- > 0u;)
 779              		.loc 1 609 0
 780 0006 0323     		movs	r3, #3
 781 0008 7B60     		str	r3, [r7, #4]
 782 000a 02E0     		b	.L42
 783              	.L43:
 610:Generated_Source\PSoC6/CapSense_Filter.c ****     {
 611:Generated_Source\PSoC6/CapSense_Filter.c ****         CapSense_InitializeWidgetFilter(widgetId);
 784              		.loc 1 611 0
 785 000c 7868     		ldr	r0, [r7, #4]
 786 000e FFF7FEFF 		bl	CapSense_InitializeWidgetFilter
 787              	.L42:
 609:Generated_Source\PSoC6/CapSense_Filter.c ****     {
 788              		.loc 1 609 0 discriminator 1
 789 0012 7B68     		ldr	r3, [r7, #4]
 790 0014 5A1E     		subs	r2, r3, #1
 791 0016 7A60     		str	r2, [r7, #4]
 792 0018 002B     		cmp	r3, #0
 793 001a F7D1     		bne	.L43
 612:Generated_Source\PSoC6/CapSense_Filter.c ****     }
 613:Generated_Source\PSoC6/CapSense_Filter.c **** }
 794              		.loc 1 613 0
 795 001c 00BF     		nop
 796 001e 0837     		adds	r7, r7, #8
 797              		.cfi_def_cfa_offset 8
 798 0020 BD46     		mov	sp, r7
 799              		.cfi_def_cfa_register 13
 800              		@ sp needed
 801 0022 80BD     		pop	{r7, pc}
 802              		.cfi_endproc
 803              	.LFE135:
ARM GAS  C:\Users\ikomb\AppData\Local\Temp\cclK6Blf.s 			page 26


 804              		.size	CapSense_InitializeAllFilters, .-CapSense_InitializeAllFilters
 805              		.section	.text.CapSense_InitializeWidgetFilter,"ax",%progbits
 806              		.align	2
 807              		.global	CapSense_InitializeWidgetFilter
 808              		.thumb
 809              		.thumb_func
 810              		.type	CapSense_InitializeWidgetFilter, %function
 811              	CapSense_InitializeWidgetFilter:
 812              	.LFB136:
 614:Generated_Source\PSoC6/CapSense_Filter.c **** 
 615:Generated_Source\PSoC6/CapSense_Filter.c **** /*******************************************************************************
 616:Generated_Source\PSoC6/CapSense_Filter.c **** * Function Name: CapSense_InitializeWidgetFilter
 617:Generated_Source\PSoC6/CapSense_Filter.c **** ****************************************************************************//**
 618:Generated_Source\PSoC6/CapSense_Filter.c **** *
 619:Generated_Source\PSoC6/CapSense_Filter.c **** * \brief
 620:Generated_Source\PSoC6/CapSense_Filter.c **** *  Initializes (or re-initializes) the raw count filter history of all the sensors 
 621:Generated_Source\PSoC6/CapSense_Filter.c **** *  in a widget specified by the input parameter.
 622:Generated_Source\PSoC6/CapSense_Filter.c **** *
 623:Generated_Source\PSoC6/CapSense_Filter.c **** * \details
 624:Generated_Source\PSoC6/CapSense_Filter.c **** *  Initializes (or re-initializes) the raw count filter history of all the sensors 
 625:Generated_Source\PSoC6/CapSense_Filter.c **** *  in a widget specified by the input parameter.
 626:Generated_Source\PSoC6/CapSense_Filter.c **** *
 627:Generated_Source\PSoC6/CapSense_Filter.c **** * \param  widgetId
 628:Generated_Source\PSoC6/CapSense_Filter.c **** *  Specifies the ID number of a widget to initialize the filter history of all 
 629:Generated_Source\PSoC6/CapSense_Filter.c **** *  the sensors in the widget.
 630:Generated_Source\PSoC6/CapSense_Filter.c **** *  A macro for the widget ID can be found in the
 631:Generated_Source\PSoC6/CapSense_Filter.c **** *  CapSense Configuration header file defined as
 632:Generated_Source\PSoC6/CapSense_Filter.c **** *  CapSense_<WidgetName>_WDGT_ID.
 633:Generated_Source\PSoC6/CapSense_Filter.c **** *
 634:Generated_Source\PSoC6/CapSense_Filter.c **** *******************************************************************************/
 635:Generated_Source\PSoC6/CapSense_Filter.c **** void CapSense_InitializeWidgetFilter(uint32 widgetId)
 636:Generated_Source\PSoC6/CapSense_Filter.c **** {
 813              		.loc 1 636 0
 814              		.cfi_startproc
 815              		@ args = 0, pretend = 0, frame = 40
 816              		@ frame_needed = 1, uses_anonymous_args = 0
 817 0000 80B5     		push	{r7, lr}
 818              		.cfi_def_cfa_offset 8
 819              		.cfi_offset 7, -8
 820              		.cfi_offset 14, -4
 821 0002 8AB0     		sub	sp, sp, #40
 822              		.cfi_def_cfa_offset 48
 823 0004 00AF     		add	r7, sp, #0
 824              		.cfi_def_cfa_register 7
 825 0006 7860     		str	r0, [r7, #4]
 637:Generated_Source\PSoC6/CapSense_Filter.c ****     uint32 sensorId;
 638:Generated_Source\PSoC6/CapSense_Filter.c ****     uint32 sensorsNumber;
 639:Generated_Source\PSoC6/CapSense_Filter.c **** 
 640:Generated_Source\PSoC6/CapSense_Filter.c ****     CapSense_FLASH_WD_STRUCT const *ptrWidget;
 641:Generated_Source\PSoC6/CapSense_Filter.c ****     CapSense_RAM_SNS_STRUCT *ptrSensor = NULL;
 826              		.loc 1 641 0
 827 0008 0023     		movs	r3, #0
 828 000a 3B62     		str	r3, [r7, #32]
 642:Generated_Source\PSoC6/CapSense_Filter.c ****     #if (CapSense_ENABLE == CapSense_RC_FILTER_EN)
 643:Generated_Source\PSoC6/CapSense_Filter.c ****         CapSense_PTR_FILTER_VARIANT ptrFilterHistObj;
 644:Generated_Source\PSoC6/CapSense_Filter.c ****     #endif
 645:Generated_Source\PSoC6/CapSense_Filter.c ****     
ARM GAS  C:\Users\ikomb\AppData\Local\Temp\cclK6Blf.s 			page 27


 646:Generated_Source\PSoC6/CapSense_Filter.c ****     #if (0u != (CapSense_CSD_AUTOTUNE & CapSense_CSD_SS_TH_EN))
 647:Generated_Source\PSoC6/CapSense_Filter.c ****         CapSense_RAM_WD_BASE_STRUCT *ptrWidgetRam;
 648:Generated_Source\PSoC6/CapSense_Filter.c ****         SMARTSENSE_CSD_NOISE_ENVELOPE_STRUCT *ptrNoiseEnvelope = NULL;
 829              		.loc 1 648 0
 830 000c 0023     		movs	r3, #0
 831 000e FB61     		str	r3, [r7, #28]
 649:Generated_Source\PSoC6/CapSense_Filter.c ****     #endif /* (0u != (CapSense_CSD_AUTOTUNE & CapSense_CSD_SS_TH_EN)) */
 650:Generated_Source\PSoC6/CapSense_Filter.c **** 
 651:Generated_Source\PSoC6/CapSense_Filter.c ****     ptrWidget = &CapSense_dsFlash.wdgtArray[widgetId];
 832              		.loc 1 651 0
 833 0010 7A68     		ldr	r2, [r7, #4]
 834 0012 1346     		mov	r3, r2
 835 0014 5B00     		lsls	r3, r3, #1
 836 0016 1344     		add	r3, r3, r2
 837 0018 1B01     		lsls	r3, r3, #4
 838 001a 2E4A     		ldr	r2, .L48
 839 001c 1344     		add	r3, r3, r2
 840 001e BB61     		str	r3, [r7, #24]
 652:Generated_Source\PSoC6/CapSense_Filter.c **** 
 653:Generated_Source\PSoC6/CapSense_Filter.c ****     #if (0u != (CapSense_CSD_AUTOTUNE & CapSense_CSD_SS_TH_EN))
 654:Generated_Source\PSoC6/CapSense_Filter.c ****         ptrWidgetRam = ptrWidget->ptr2WdgtRam;
 841              		.loc 1 654 0
 842 0020 BB69     		ldr	r3, [r7, #24]
 843 0022 5B68     		ldr	r3, [r3, #4]
 844 0024 7B61     		str	r3, [r7, #20]
 655:Generated_Source\PSoC6/CapSense_Filter.c ****     #endif /* (0u != (CapSense_CSD_AUTOTUNE & CapSense_CSD_SS_TH_EN)) */
 656:Generated_Source\PSoC6/CapSense_Filter.c **** 
 657:Generated_Source\PSoC6/CapSense_Filter.c ****     /* Find total amount of sensors in specified widget */
 658:Generated_Source\PSoC6/CapSense_Filter.c ****     sensorsNumber = CapSense_GET_SNS_CNT_BY_PTR(ptrWidget);
 845              		.loc 1 658 0
 846 0026 BB69     		ldr	r3, [r7, #24]
 847 0028 1B8B     		ldrh	r3, [r3, #24]
 848 002a 3B61     		str	r3, [r7, #16]
 659:Generated_Source\PSoC6/CapSense_Filter.c **** 
 660:Generated_Source\PSoC6/CapSense_Filter.c ****     for (sensorId = sensorsNumber; sensorId-- > 0u;)
 849              		.loc 1 660 0
 850 002c 3B69     		ldr	r3, [r7, #16]
 851 002e 7B62     		str	r3, [r7, #36]
 852 0030 47E0     		b	.L45
 853              	.L47:
 661:Generated_Source\PSoC6/CapSense_Filter.c ****     {
 662:Generated_Source\PSoC6/CapSense_Filter.c ****         /* Find pointer to specified sensor object */
 663:Generated_Source\PSoC6/CapSense_Filter.c ****         ptrSensor = ptrWidget->ptr2SnsRam;
 854              		.loc 1 663 0
 855 0032 BB69     		ldr	r3, [r7, #24]
 856 0034 9B68     		ldr	r3, [r3, #8]
 857 0036 3B62     		str	r3, [r7, #32]
 664:Generated_Source\PSoC6/CapSense_Filter.c ****         ptrSensor = &ptrSensor[sensorId];
 858              		.loc 1 664 0
 859 0038 7A6A     		ldr	r2, [r7, #36]
 860 003a 1346     		mov	r3, r2
 861 003c 9B00     		lsls	r3, r3, #2
 862 003e 1344     		add	r3, r3, r2
 863 0040 5B00     		lsls	r3, r3, #1
 864 0042 1A46     		mov	r2, r3
 865 0044 3B6A     		ldr	r3, [r7, #32]
 866 0046 1344     		add	r3, r3, r2
ARM GAS  C:\Users\ikomb\AppData\Local\Temp\cclK6Blf.s 			page 28


 867 0048 3B62     		str	r3, [r7, #32]
 665:Generated_Source\PSoC6/CapSense_Filter.c **** 
 666:Generated_Source\PSoC6/CapSense_Filter.c ****         #if (CapSense_ENABLE == CapSense_RC_FILTER_EN)
 667:Generated_Source\PSoC6/CapSense_Filter.c ****             /* Find pointer to to specified filter sensor object */
 668:Generated_Source\PSoC6/CapSense_Filter.c ****             ptrFilterHistObj.ptr = ptrWidget->ptr2FltrHistory;
 868              		.loc 1 668 0
 869 004a BB69     		ldr	r3, [r7, #24]
 870 004c DB68     		ldr	r3, [r3, #12]
 871 004e FB60     		str	r3, [r7, #12]
 669:Generated_Source\PSoC6/CapSense_Filter.c ****         #endif
 670:Generated_Source\PSoC6/CapSense_Filter.c **** 
 671:Generated_Source\PSoC6/CapSense_Filter.c ****         #if (0u != (CapSense_CSD_AUTOTUNE & CapSense_CSD_SS_TH_EN))
 672:Generated_Source\PSoC6/CapSense_Filter.c ****             /* Find pointer to specified noise envelope sensor object */
 673:Generated_Source\PSoC6/CapSense_Filter.c ****             ptrNoiseEnvelope = ptrWidget->ptr2NoiseEnvlp;
 872              		.loc 1 673 0
 873 0050 BB69     		ldr	r3, [r7, #24]
 874 0052 5B6A     		ldr	r3, [r3, #36]
 875 0054 FB61     		str	r3, [r7, #28]
 674:Generated_Source\PSoC6/CapSense_Filter.c ****             ptrNoiseEnvelope = &ptrNoiseEnvelope[sensorId];
 876              		.loc 1 674 0
 877 0056 7A6A     		ldr	r2, [r7, #36]
 878 0058 1346     		mov	r3, r2
 879 005a 5B00     		lsls	r3, r3, #1
 880 005c 1344     		add	r3, r3, r2
 881 005e 9B00     		lsls	r3, r3, #2
 882 0060 1A46     		mov	r2, r3
 883 0062 FB69     		ldr	r3, [r7, #28]
 884 0064 1344     		add	r3, r3, r2
 885 0066 FB61     		str	r3, [r7, #28]
 675:Generated_Source\PSoC6/CapSense_Filter.c ****         #endif /* (0u != (CapSense_CSD_AUTOTUNE & CapSense_CSD_SS_TH_EN)) */
 676:Generated_Source\PSoC6/CapSense_Filter.c **** 
 677:Generated_Source\PSoC6/CapSense_Filter.c ****         if ((CapSense_WD_TYPE_ENUM)ptrWidget->wdgtType != CapSense_WD_PROXIMITY_E)
 886              		.loc 1 677 0
 887 0068 BB69     		ldr	r3, [r7, #24]
 888 006a 9B7E     		ldrb	r3, [r3, #26]	@ zero_extendqisi2
 889 006c 062B     		cmp	r3, #6
 890 006e 07D0     		beq	.L46
 678:Generated_Source\PSoC6/CapSense_Filter.c ****         {
 679:Generated_Source\PSoC6/CapSense_Filter.c ****             #if (0u != CapSense_REGULAR_RC_ALP_FILTER_EN)
 680:Generated_Source\PSoC6/CapSense_Filter.c ****                 ptrFilterHistObj.ptrAlp = &ptrFilterHistObj.ptrAlp[sensorId];
 681:Generated_Source\PSoC6/CapSense_Filter.c ****             #elif (0u != CapSense_REGULAR_RC_FILTER_EN)
 682:Generated_Source\PSoC6/CapSense_Filter.c ****                 ptrFilterHistObj.ptrRegular = &ptrFilterHistObj.ptrRegular[sensorId];
 891              		.loc 1 682 0
 892 0070 F968     		ldr	r1, [r7, #12]
 893 0072 7A6A     		ldr	r2, [r7, #36]
 894 0074 1346     		mov	r3, r2
 895 0076 9B00     		lsls	r3, r3, #2
 896 0078 1344     		add	r3, r3, r2
 897 007a 5B00     		lsls	r3, r3, #1
 898 007c 0B44     		add	r3, r3, r1
 899 007e FB60     		str	r3, [r7, #12]
 900              	.L46:
 683:Generated_Source\PSoC6/CapSense_Filter.c ****             #endif
 684:Generated_Source\PSoC6/CapSense_Filter.c ****         }
 685:Generated_Source\PSoC6/CapSense_Filter.c ****         else
 686:Generated_Source\PSoC6/CapSense_Filter.c ****         {
 687:Generated_Source\PSoC6/CapSense_Filter.c ****             #if (0u != CapSense_PROX_RC_ALP_FILTER_EN)
ARM GAS  C:\Users\ikomb\AppData\Local\Temp\cclK6Blf.s 			page 29


 688:Generated_Source\PSoC6/CapSense_Filter.c ****                 ptrFilterHistObj.ptrAlp = &ptrFilterHistObj.ptrAlp[sensorId];
 689:Generated_Source\PSoC6/CapSense_Filter.c ****             #elif (0u != CapSense_PROX_RC_FILTER_EN)
 690:Generated_Source\PSoC6/CapSense_Filter.c ****                 ptrFilterHistObj.ptrProx = &ptrFilterHistObj.ptrProx[sensorId];
 691:Generated_Source\PSoC6/CapSense_Filter.c ****             #endif /* #if (0u != CapSense_PROX_RC_FILTER_EN) */
 692:Generated_Source\PSoC6/CapSense_Filter.c ****         }
 693:Generated_Source\PSoC6/CapSense_Filter.c **** 
 694:Generated_Source\PSoC6/CapSense_Filter.c ****         #if (CapSense_REGULAR_RC_IIR_FILTER_EN || CapSense_PROX_RC_IIR_FILTER_EN)
 695:Generated_Source\PSoC6/CapSense_Filter.c ****             CapSense_InitializeIIRInternal(ptrFilterHistObj, ptrSensor, (uint32)ptrWidget->wdgtType
 696:Generated_Source\PSoC6/CapSense_Filter.c ****         #endif /* (CapSense_REGULAR_RC_IIR_FILTER_EN || CapSense_PROX_RC_IIR_FILTER_EN) */
 697:Generated_Source\PSoC6/CapSense_Filter.c **** 
 698:Generated_Source\PSoC6/CapSense_Filter.c ****         #if (CapSense_REGULAR_RC_MEDIAN_FILTER_EN || CapSense_PROX_RC_MEDIAN_FILTER_EN)
 699:Generated_Source\PSoC6/CapSense_Filter.c ****             CapSense_InitializeMedianInternal(ptrFilterHistObj, ptrSensor, (uint32)ptrWidget->wdgtT
 901              		.loc 1 699 0
 902 0080 BB69     		ldr	r3, [r7, #24]
 903 0082 9B7E     		ldrb	r3, [r3, #26]	@ zero_extendqisi2
 904 0084 1A46     		mov	r2, r3
 905 0086 396A     		ldr	r1, [r7, #32]
 906 0088 F868     		ldr	r0, [r7, #12]
 907 008a FFF7FEFF 		bl	CapSense_InitializeMedianInternal
 700:Generated_Source\PSoC6/CapSense_Filter.c ****         #endif /* (CapSense_REGULAR_RC_MEDIAN_FILTER_EN || CapSense_PROX_RC_MEDIAN_FILTER_EN) */
 701:Generated_Source\PSoC6/CapSense_Filter.c **** 
 702:Generated_Source\PSoC6/CapSense_Filter.c ****         #if (CapSense_REGULAR_RC_AVERAGE_FILTER_EN || CapSense_PROX_RC_AVERAGE_FILTER_EN)
 703:Generated_Source\PSoC6/CapSense_Filter.c ****             CapSense_InitializeAverageInternal(ptrFilterHistObj, ptrSensor, (uint32)ptrWidget->wdgt
 908              		.loc 1 703 0
 909 008e BB69     		ldr	r3, [r7, #24]
 910 0090 9B7E     		ldrb	r3, [r3, #26]	@ zero_extendqisi2
 911 0092 1A46     		mov	r2, r3
 912 0094 396A     		ldr	r1, [r7, #32]
 913 0096 F868     		ldr	r0, [r7, #12]
 914 0098 FFF7FEFF 		bl	CapSense_InitializeAverageInternal
 704:Generated_Source\PSoC6/CapSense_Filter.c ****         #endif /* (CapSense_REGULAR_RC_AVERAGE_FILTER_EN || CapSense_PROX_RC_AVERAGE_FILTER_EN) */
 705:Generated_Source\PSoC6/CapSense_Filter.c **** 
 706:Generated_Source\PSoC6/CapSense_Filter.c ****         #if (CapSense_ALP_FILTER_EN)
 707:Generated_Source\PSoC6/CapSense_Filter.c ****             CapSense_InitializeALPInternal(ptrFilterHistObj, ptrSensor, (uint32)ptrWidget->wdgtType
 708:Generated_Source\PSoC6/CapSense_Filter.c ****         #endif
 709:Generated_Source\PSoC6/CapSense_Filter.c **** 
 710:Generated_Source\PSoC6/CapSense_Filter.c ****         #if (0u != (CapSense_CSD_AUTOTUNE & CapSense_CSD_SS_TH_EN))
 711:Generated_Source\PSoC6/CapSense_Filter.c ****             if (CapSense_SENSE_METHOD_CSD_E ==
 712:Generated_Source\PSoC6/CapSense_Filter.c ****                 CapSense_GET_SENSE_METHOD(&CapSense_dsFlash.wdgtArray[widgetId]))
 915              		.loc 1 712 0
 916 009c 0D49     		ldr	r1, .L48
 917 009e 7A68     		ldr	r2, [r7, #4]
 918 00a0 1346     		mov	r3, r2
 919 00a2 5B00     		lsls	r3, r3, #1
 920 00a4 1344     		add	r3, r3, r2
 921 00a6 1B01     		lsls	r3, r3, #4
 922 00a8 0B44     		add	r3, r3, r1
 923 00aa 1B33     		adds	r3, r3, #27
 924 00ac 1B78     		ldrb	r3, [r3]	@ zero_extendqisi2
 711:Generated_Source\PSoC6/CapSense_Filter.c ****                 CapSense_GET_SENSE_METHOD(&CapSense_dsFlash.wdgtArray[widgetId]))
 925              		.loc 1 711 0
 926 00ae 012B     		cmp	r3, #1
 927 00b0 07D1     		bne	.L45
 713:Generated_Source\PSoC6/CapSense_Filter.c ****             {
 714:Generated_Source\PSoC6/CapSense_Filter.c ****                 SmartSense_InitializeNoiseEnvelope(ptrSensor->raw[0u], ptrWidgetRam->sigPFC, ptrNoi
 928              		.loc 1 714 0
 929 00b2 3B6A     		ldr	r3, [r7, #32]
ARM GAS  C:\Users\ikomb\AppData\Local\Temp\cclK6Blf.s 			page 30


 930 00b4 1888     		ldrh	r0, [r3]
 931 00b6 7B69     		ldr	r3, [r7, #20]
 932 00b8 1B8A     		ldrh	r3, [r3, #16]
 933 00ba FA69     		ldr	r2, [r7, #28]
 934 00bc 1946     		mov	r1, r3
 935 00be FFF7FEFF 		bl	SmartSense_InitializeNoiseEnvelope
 936              	.L45:
 660:Generated_Source\PSoC6/CapSense_Filter.c ****     {
 937              		.loc 1 660 0 discriminator 1
 938 00c2 7B6A     		ldr	r3, [r7, #36]
 939 00c4 5A1E     		subs	r2, r3, #1
 940 00c6 7A62     		str	r2, [r7, #36]
 941 00c8 002B     		cmp	r3, #0
 942 00ca B2D1     		bne	.L47
 715:Generated_Source\PSoC6/CapSense_Filter.c ****             }
 716:Generated_Source\PSoC6/CapSense_Filter.c ****         #endif /* (0u != (CapSense_CSD_AUTOTUNE & CapSense_CSD_SS_TH_EN)) */
 717:Generated_Source\PSoC6/CapSense_Filter.c ****     }
 718:Generated_Source\PSoC6/CapSense_Filter.c **** }
 943              		.loc 1 718 0
 944 00cc 00BF     		nop
 945 00ce 2837     		adds	r7, r7, #40
 946              		.cfi_def_cfa_offset 8
 947 00d0 BD46     		mov	sp, r7
 948              		.cfi_def_cfa_register 13
 949              		@ sp needed
 950 00d2 80BD     		pop	{r7, pc}
 951              	.L49:
 952              		.align	2
 953              	.L48:
 954 00d4 00000000 		.word	CapSense_dsFlash
 955              		.cfi_endproc
 956              	.LFE136:
 957              		.size	CapSense_InitializeWidgetFilter, .-CapSense_InitializeWidgetFilter
 958              		.section	.text.CapSense_InitializeMedian,"ax",%progbits
 959              		.align	2
 960              		.global	CapSense_InitializeMedian
 961              		.thumb
 962              		.thumb_func
 963              		.type	CapSense_InitializeMedian, %function
 964              	CapSense_InitializeMedian:
 965              	.LFB137:
 719:Generated_Source\PSoC6/CapSense_Filter.c **** #endif /* ((CapSense_ENABLE == CapSense_RC_FILTER_EN) || \
 720:Generated_Source\PSoC6/CapSense_Filter.c ****            (0u != (CapSense_CSD_AUTOTUNE & CapSense_CSD_SS_TH_EN))) */
 721:Generated_Source\PSoC6/CapSense_Filter.c **** 
 722:Generated_Source\PSoC6/CapSense_Filter.c **** #if (CapSense_REGULAR_RC_IIR_FILTER_EN || CapSense_PROX_RC_IIR_FILTER_EN)
 723:Generated_Source\PSoC6/CapSense_Filter.c **** /*******************************************************************************
 724:Generated_Source\PSoC6/CapSense_Filter.c **** * Function Name: CapSense_InitializeIIR
 725:Generated_Source\PSoC6/CapSense_Filter.c **** ****************************************************************************//**
 726:Generated_Source\PSoC6/CapSense_Filter.c **** *
 727:Generated_Source\PSoC6/CapSense_Filter.c **** * \brief    Initialize the IIR filter history.
 728:Generated_Source\PSoC6/CapSense_Filter.c **** *
 729:Generated_Source\PSoC6/CapSense_Filter.c **** * \details  Initialize the IIR filter history.
 730:Generated_Source\PSoC6/CapSense_Filter.c **** *
 731:Generated_Source\PSoC6/CapSense_Filter.c **** * \param    widgetId Specifies the ID number of the widget.
 732:Generated_Source\PSoC6/CapSense_Filter.c **** * \param    sensorId Specifies the ID number of the sensor in the widget.
 733:Generated_Source\PSoC6/CapSense_Filter.c **** *
 734:Generated_Source\PSoC6/CapSense_Filter.c **** *******************************************************************************/
ARM GAS  C:\Users\ikomb\AppData\Local\Temp\cclK6Blf.s 			page 31


 735:Generated_Source\PSoC6/CapSense_Filter.c **** void CapSense_InitializeIIR(uint32 widgetId, uint32 sensorId)
 736:Generated_Source\PSoC6/CapSense_Filter.c **** {
 737:Generated_Source\PSoC6/CapSense_Filter.c ****     CapSense_FLASH_WD_STRUCT const *ptrWidget = &CapSense_dsFlash.wdgtArray[widgetId];
 738:Generated_Source\PSoC6/CapSense_Filter.c ****     CapSense_RAM_SNS_STRUCT *ptrSensor = NULL;
 739:Generated_Source\PSoC6/CapSense_Filter.c ****     CapSense_PTR_FILTER_VARIANT ptrFilterHistObj;
 740:Generated_Source\PSoC6/CapSense_Filter.c **** 
 741:Generated_Source\PSoC6/CapSense_Filter.c ****     /* Find pointer to specified sensor object */
 742:Generated_Source\PSoC6/CapSense_Filter.c ****     ptrSensor = ptrWidget->ptr2SnsRam;
 743:Generated_Source\PSoC6/CapSense_Filter.c ****     ptrSensor = &ptrSensor[sensorId];
 744:Generated_Source\PSoC6/CapSense_Filter.c **** 
 745:Generated_Source\PSoC6/CapSense_Filter.c ****     /* Find pointer to specified filter sensor object */
 746:Generated_Source\PSoC6/CapSense_Filter.c ****     ptrFilterHistObj.ptr = ptrWidget->ptr2FltrHistory;
 747:Generated_Source\PSoC6/CapSense_Filter.c **** 
 748:Generated_Source\PSoC6/CapSense_Filter.c ****     if ((CapSense_WD_TYPE_ENUM)ptrWidget->wdgtType != CapSense_WD_PROXIMITY_E)
 749:Generated_Source\PSoC6/CapSense_Filter.c ****     {
 750:Generated_Source\PSoC6/CapSense_Filter.c ****         #if (CapSense_REGULAR_SENSOR_EN)
 751:Generated_Source\PSoC6/CapSense_Filter.c ****             ptrFilterHistObj.ptrRegular = &ptrFilterHistObj.ptrRegular[sensorId];
 752:Generated_Source\PSoC6/CapSense_Filter.c ****         #endif /* (CapSense_REGULAR_SENSOR_EN) */
 753:Generated_Source\PSoC6/CapSense_Filter.c ****     }
 754:Generated_Source\PSoC6/CapSense_Filter.c ****     else
 755:Generated_Source\PSoC6/CapSense_Filter.c ****     {
 756:Generated_Source\PSoC6/CapSense_Filter.c ****         #if (CapSense_PROXIMITY_SENSOR_EN)
 757:Generated_Source\PSoC6/CapSense_Filter.c ****             ptrFilterHistObj.ptrProx = &ptrFilterHistObj.ptrProx[sensorId];
 758:Generated_Source\PSoC6/CapSense_Filter.c ****         #endif /* (CapSense_PROXIMITY_SENSOR_EN) */
 759:Generated_Source\PSoC6/CapSense_Filter.c ****     }
 760:Generated_Source\PSoC6/CapSense_Filter.c **** 
 761:Generated_Source\PSoC6/CapSense_Filter.c ****     CapSense_InitializeIIRInternal(ptrFilterHistObj, ptrSensor, (uint32)ptrWidget->wdgtType);
 762:Generated_Source\PSoC6/CapSense_Filter.c **** }
 763:Generated_Source\PSoC6/CapSense_Filter.c **** 
 764:Generated_Source\PSoC6/CapSense_Filter.c **** 
 765:Generated_Source\PSoC6/CapSense_Filter.c **** /*******************************************************************************
 766:Generated_Source\PSoC6/CapSense_Filter.c **** * Function Name: CapSense_RunIIR
 767:Generated_Source\PSoC6/CapSense_Filter.c **** ****************************************************************************//**
 768:Generated_Source\PSoC6/CapSense_Filter.c **** *
 769:Generated_Source\PSoC6/CapSense_Filter.c **** * \brief    Executes the IIR filter algorithm on a sensor indicated by an input
 770:Generated_Source\PSoC6/CapSense_Filter.c **** *           parameter.
 771:Generated_Source\PSoC6/CapSense_Filter.c **** *
 772:Generated_Source\PSoC6/CapSense_Filter.c **** * \details  Executes the IIR filter algorithm on a sensor indicated by an input
 773:Generated_Source\PSoC6/CapSense_Filter.c **** *           parameter.
 774:Generated_Source\PSoC6/CapSense_Filter.c **** *
 775:Generated_Source\PSoC6/CapSense_Filter.c **** * \param    widgetId Specifies the ID number of the widget.
 776:Generated_Source\PSoC6/CapSense_Filter.c **** * \param    sensorId Specifies the ID number of the sensor in the widget.
 777:Generated_Source\PSoC6/CapSense_Filter.c **** *
 778:Generated_Source\PSoC6/CapSense_Filter.c **** *******************************************************************************/
 779:Generated_Source\PSoC6/CapSense_Filter.c **** void CapSense_RunIIR(uint32 widgetId, uint32 sensorId)
 780:Generated_Source\PSoC6/CapSense_Filter.c **** {
 781:Generated_Source\PSoC6/CapSense_Filter.c ****     CapSense_FLASH_WD_STRUCT const *ptrWidget = &CapSense_dsFlash.wdgtArray[widgetId];
 782:Generated_Source\PSoC6/CapSense_Filter.c ****     CapSense_RAM_SNS_STRUCT *ptrSensor = NULL;
 783:Generated_Source\PSoC6/CapSense_Filter.c ****     CapSense_PTR_FILTER_VARIANT ptrFilterHistObj;
 784:Generated_Source\PSoC6/CapSense_Filter.c **** 
 785:Generated_Source\PSoC6/CapSense_Filter.c ****     /* Find pointer to specified sensor object */
 786:Generated_Source\PSoC6/CapSense_Filter.c ****     ptrSensor = ptrWidget->ptr2SnsRam;
 787:Generated_Source\PSoC6/CapSense_Filter.c ****     ptrSensor = &ptrSensor[sensorId];
 788:Generated_Source\PSoC6/CapSense_Filter.c **** 
 789:Generated_Source\PSoC6/CapSense_Filter.c ****     /* Find pointer to specified filter sensor object */
 790:Generated_Source\PSoC6/CapSense_Filter.c ****     ptrFilterHistObj.ptr = ptrWidget->ptr2FltrHistory;
 791:Generated_Source\PSoC6/CapSense_Filter.c **** 
ARM GAS  C:\Users\ikomb\AppData\Local\Temp\cclK6Blf.s 			page 32


 792:Generated_Source\PSoC6/CapSense_Filter.c ****     if ((CapSense_WD_TYPE_ENUM)ptrWidget->wdgtType != CapSense_WD_PROXIMITY_E)
 793:Generated_Source\PSoC6/CapSense_Filter.c ****     {
 794:Generated_Source\PSoC6/CapSense_Filter.c ****         #if (CapSense_REGULAR_SENSOR_EN)
 795:Generated_Source\PSoC6/CapSense_Filter.c ****             ptrFilterHistObj.ptrRegular = &ptrFilterHistObj.ptrRegular[sensorId];
 796:Generated_Source\PSoC6/CapSense_Filter.c ****         #endif /* (CapSense_REGULAR_SENSOR_EN) */
 797:Generated_Source\PSoC6/CapSense_Filter.c ****     }
 798:Generated_Source\PSoC6/CapSense_Filter.c ****     else
 799:Generated_Source\PSoC6/CapSense_Filter.c ****     {
 800:Generated_Source\PSoC6/CapSense_Filter.c ****         #if (CapSense_PROXIMITY_SENSOR_EN)
 801:Generated_Source\PSoC6/CapSense_Filter.c ****             ptrFilterHistObj.ptrProx = &ptrFilterHistObj.ptrProx[sensorId];
 802:Generated_Source\PSoC6/CapSense_Filter.c ****         #endif /* (CapSense_PROXIMITY_SENSOR_EN) */
 803:Generated_Source\PSoC6/CapSense_Filter.c ****     }
 804:Generated_Source\PSoC6/CapSense_Filter.c **** 
 805:Generated_Source\PSoC6/CapSense_Filter.c ****     CapSense_RunIIRInternal(ptrFilterHistObj, ptrSensor, (uint32)ptrWidget->wdgtType);
 806:Generated_Source\PSoC6/CapSense_Filter.c **** }
 807:Generated_Source\PSoC6/CapSense_Filter.c **** 
 808:Generated_Source\PSoC6/CapSense_Filter.c **** /*******************************************************************************
 809:Generated_Source\PSoC6/CapSense_Filter.c **** * Function Name: CapSense_InitializeIIRInternal
 810:Generated_Source\PSoC6/CapSense_Filter.c **** ****************************************************************************//**
 811:Generated_Source\PSoC6/CapSense_Filter.c **** *
 812:Generated_Source\PSoC6/CapSense_Filter.c **** * \brief    Initializes the IIR filter history.
 813:Generated_Source\PSoC6/CapSense_Filter.c **** *
 814:Generated_Source\PSoC6/CapSense_Filter.c **** * \details  Initializes the IIR filter history.
 815:Generated_Source\PSoC6/CapSense_Filter.c **** *
 816:Generated_Source\PSoC6/CapSense_Filter.c **** * \param    ptrFilterHistObj The pointer to the filter RAM object of the sensor.
 817:Generated_Source\PSoC6/CapSense_Filter.c **** * \param    ptrSensorObj     The pointer to the sensor RAM object of the sensor.
 818:Generated_Source\PSoC6/CapSense_Filter.c **** * \param    wdType           Specifies the type of a widget.
 819:Generated_Source\PSoC6/CapSense_Filter.c **** *
 820:Generated_Source\PSoC6/CapSense_Filter.c **** *******************************************************************************/
 821:Generated_Source\PSoC6/CapSense_Filter.c **** void CapSense_InitializeIIRInternal(CapSense_PTR_FILTER_VARIANT ptrFilterHistObj,
 822:Generated_Source\PSoC6/CapSense_Filter.c ****                                             CapSense_RAM_SNS_STRUCT *ptrSensorObj, uint32 wdType)
 823:Generated_Source\PSoC6/CapSense_Filter.c **** {
 824:Generated_Source\PSoC6/CapSense_Filter.c ****     uint32 freqChannel;
 825:Generated_Source\PSoC6/CapSense_Filter.c **** 
 826:Generated_Source\PSoC6/CapSense_Filter.c ****     for(freqChannel = CapSense_NUM_SCAN_FREQS; freqChannel-- > 0u;)
 827:Generated_Source\PSoC6/CapSense_Filter.c ****     {
 828:Generated_Source\PSoC6/CapSense_Filter.c ****         if ((CapSense_WD_TYPE_ENUM)wdType != CapSense_WD_PROXIMITY_E)
 829:Generated_Source\PSoC6/CapSense_Filter.c ****         {
 830:Generated_Source\PSoC6/CapSense_Filter.c ****             #if (CapSense_REGULAR_SENSOR_EN && CapSense_REGULAR_RC_IIR_FILTER_EN)
 831:Generated_Source\PSoC6/CapSense_Filter.c ****                 #if (CapSense_REGULAR_IIR_RC_TYPE == CapSense_IIR_FILTER_PERFORMANCE)
 832:Generated_Source\PSoC6/CapSense_Filter.c ****                     ptrFilterHistObj.ptrRegular->regularChannel[freqChannel].iirHistory = ptrSensor
 833:Generated_Source\PSoC6/CapSense_Filter.c ****                     ptrFilterHistObj.ptrRegular->regularChannel[freqChannel].iirHistoryLow = 0u;
 834:Generated_Source\PSoC6/CapSense_Filter.c ****                 #else
 835:Generated_Source\PSoC6/CapSense_Filter.c ****                     ptrFilterHistObj.ptrRegular->regularChannel[freqChannel].iirHistory = ptrSensor
 836:Generated_Source\PSoC6/CapSense_Filter.c ****                 #endif /* (CapSense_REGULAR_IIR_RC_TYPE == CapSense_IIR_FILTER_PERFORMANCE) */
 837:Generated_Source\PSoC6/CapSense_Filter.c ****             #endif /* (CapSense_REGULAR_SENSOR_EN) */
 838:Generated_Source\PSoC6/CapSense_Filter.c ****         }
 839:Generated_Source\PSoC6/CapSense_Filter.c ****         else
 840:Generated_Source\PSoC6/CapSense_Filter.c ****         {
 841:Generated_Source\PSoC6/CapSense_Filter.c ****             #if (CapSense_PROXIMITY_SENSOR_EN && CapSense_PROX_RC_IIR_FILTER_EN)
 842:Generated_Source\PSoC6/CapSense_Filter.c ****                 #if (CapSense_PROX_IIR_RC_TYPE == CapSense_IIR_FILTER_PERFORMANCE)
 843:Generated_Source\PSoC6/CapSense_Filter.c ****                     ptrFilterHistObj.ptrProx->proxChannel[freqChannel].iirHistory = ptrSensorObj->r
 844:Generated_Source\PSoC6/CapSense_Filter.c ****                     ptrFilterHistObj.ptrProx->proxChannel[freqChannel].iirHistoryLow = 0u;
 845:Generated_Source\PSoC6/CapSense_Filter.c ****                 #else
 846:Generated_Source\PSoC6/CapSense_Filter.c ****                     ptrFilterHistObj.ptrProx->proxChannel[freqChannel].iirHistory = ptrSensorObj->r
 847:Generated_Source\PSoC6/CapSense_Filter.c ****                 #endif /* (CapSense_PROX_IIR_RC_TYPE == CapSense_IIR_FILTER_PERFORMANCE) */
 848:Generated_Source\PSoC6/CapSense_Filter.c ****             #endif /* (CapSense_PROX_SENSOR_EN) */
ARM GAS  C:\Users\ikomb\AppData\Local\Temp\cclK6Blf.s 			page 33


 849:Generated_Source\PSoC6/CapSense_Filter.c ****         }
 850:Generated_Source\PSoC6/CapSense_Filter.c ****     }
 851:Generated_Source\PSoC6/CapSense_Filter.c **** }
 852:Generated_Source\PSoC6/CapSense_Filter.c **** 
 853:Generated_Source\PSoC6/CapSense_Filter.c **** 
 854:Generated_Source\PSoC6/CapSense_Filter.c **** /*******************************************************************************
 855:Generated_Source\PSoC6/CapSense_Filter.c **** * Function Name: CapSense_RunIIRInternal
 856:Generated_Source\PSoC6/CapSense_Filter.c **** ****************************************************************************//**
 857:Generated_Source\PSoC6/CapSense_Filter.c **** *
 858:Generated_Source\PSoC6/CapSense_Filter.c **** * \brief    Run the IIR filter.
 859:Generated_Source\PSoC6/CapSense_Filter.c **** *
 860:Generated_Source\PSoC6/CapSense_Filter.c **** * \details  Run the IIR filter.
 861:Generated_Source\PSoC6/CapSense_Filter.c **** *
 862:Generated_Source\PSoC6/CapSense_Filter.c **** * \param    ptrFilterHistObj The pointer to the filter RAM object of the sensor.
 863:Generated_Source\PSoC6/CapSense_Filter.c **** * \param    ptrSensorObj     The pointer to the sensor RAM object of the sensor.
 864:Generated_Source\PSoC6/CapSense_Filter.c **** * \param    wdType           Specifies the type of a widget.
 865:Generated_Source\PSoC6/CapSense_Filter.c **** *
 866:Generated_Source\PSoC6/CapSense_Filter.c **** *******************************************************************************/
 867:Generated_Source\PSoC6/CapSense_Filter.c **** void CapSense_RunIIRInternal(CapSense_PTR_FILTER_VARIANT ptrFilterHistObj,
 868:Generated_Source\PSoC6/CapSense_Filter.c ****                                      CapSense_RAM_SNS_STRUCT *ptrSensorObj, uint32 wdType)
 869:Generated_Source\PSoC6/CapSense_Filter.c **** {
 870:Generated_Source\PSoC6/CapSense_Filter.c ****     uint32 freqChannel;
 871:Generated_Source\PSoC6/CapSense_Filter.c ****     uint32 temp;
 872:Generated_Source\PSoC6/CapSense_Filter.c **** 
 873:Generated_Source\PSoC6/CapSense_Filter.c ****     for(freqChannel = CapSense_NUM_SCAN_FREQS; freqChannel-- > 0u;)
 874:Generated_Source\PSoC6/CapSense_Filter.c ****     {
 875:Generated_Source\PSoC6/CapSense_Filter.c ****         if ((CapSense_WD_TYPE_ENUM)wdType != CapSense_WD_PROXIMITY_E)
 876:Generated_Source\PSoC6/CapSense_Filter.c ****         {
 877:Generated_Source\PSoC6/CapSense_Filter.c ****             #if (CapSense_REGULAR_SENSOR_EN && CapSense_REGULAR_RC_IIR_FILTER_EN)
 878:Generated_Source\PSoC6/CapSense_Filter.c ****                 #if (CapSense_REGULAR_IIR_RC_TYPE == CapSense_IIR_FILTER_PERFORMANCE)
 879:Generated_Source\PSoC6/CapSense_Filter.c ****                     temp = ((uint32)ptrFilterHistObj.ptrRegular->regularChannel[freqChannel].iirHis
 880:Generated_Source\PSoC6/CapSense_Filter.c ****                     temp |= ptrFilterHistObj.ptrRegular->regularChannel[freqChannel].iirHistoryLow;
 881:Generated_Source\PSoC6/CapSense_Filter.c ****                     temp = CapSense_FtIIR1stOrder((uint32)ptrSensorObj->raw[freqChannel],
 882:Generated_Source\PSoC6/CapSense_Filter.c ****                                                         temp,
 883:Generated_Source\PSoC6/CapSense_Filter.c ****                                                         CapSense_REGULAR_IIR_RC_N,
 884:Generated_Source\PSoC6/CapSense_Filter.c ****                                                         CapSense_REGULAR_IIR_RC_SHIFT);
 885:Generated_Source\PSoC6/CapSense_Filter.c ****                     ptrFilterHistObj.ptrRegular->regularChannel[freqChannel].iirHistory = CY_LO16(t
 886:Generated_Source\PSoC6/CapSense_Filter.c ****                     ptrFilterHistObj.ptrRegular->regularChannel[freqChannel].iirHistoryLow = CY_LO8
 887:Generated_Source\PSoC6/CapSense_Filter.c ****                     ptrSensorObj->raw[freqChannel] = CY_LO16(temp >>CapSense_REGULAR_IIR_RC_SHIFT);
 888:Generated_Source\PSoC6/CapSense_Filter.c ****                 #else
 889:Generated_Source\PSoC6/CapSense_Filter.c ****                     temp =CapSense_FtIIR1stOrder((uint32)ptrSensorObj->raw[freqChannel],
 890:Generated_Source\PSoC6/CapSense_Filter.c ****                                                         (uint32)ptrFilterHistObj.ptrRegular->regula
 891:Generated_Source\PSoC6/CapSense_Filter.c ****                                                         CapSense_REGULAR_IIR_RC_N,
 892:Generated_Source\PSoC6/CapSense_Filter.c ****                                                         CapSense_REGULAR_IIR_RC_SHIFT);
 893:Generated_Source\PSoC6/CapSense_Filter.c ****                     ptrFilterHistObj.ptrRegular->regularChannel[freqChannel].iirHistory = CY_LO16(t
 894:Generated_Source\PSoC6/CapSense_Filter.c ****                     ptrSensorObj->raw[freqChannel] = CY_LO16(temp >>CapSense_REGULAR_IIR_RC_SHIFT);
 895:Generated_Source\PSoC6/CapSense_Filter.c ****                 #endif /* (CapSense_REGULAR_IIR_RC_TYPE == CapSense_IIR_FILTER_PERFORMANCE) */
 896:Generated_Source\PSoC6/CapSense_Filter.c ****             #endif /* (CapSense_REGULAR_SENSOR_EN) */
 897:Generated_Source\PSoC6/CapSense_Filter.c ****         }
 898:Generated_Source\PSoC6/CapSense_Filter.c ****         else
 899:Generated_Source\PSoC6/CapSense_Filter.c ****         {
 900:Generated_Source\PSoC6/CapSense_Filter.c ****             #if (CapSense_PROXIMITY_SENSOR_EN && CapSense_PROX_RC_IIR_FILTER_EN)
 901:Generated_Source\PSoC6/CapSense_Filter.c ****                 #if (CapSense_PROX_IIR_RC_TYPE == CapSense_IIR_FILTER_PERFORMANCE)
 902:Generated_Source\PSoC6/CapSense_Filter.c ****                     temp =  ptrFilterHistObj.ptrProx->proxChannel[freqChannel].iirHistory << CapSen
 903:Generated_Source\PSoC6/CapSense_Filter.c ****                     temp |= ptrFilterHistObj.ptrProx->proxChannel[freqChannel].iirHistoryLow;
 904:Generated_Source\PSoC6/CapSense_Filter.c ****                     temp =CapSense_FtIIR1stOrder((uint32)ptrSensorObj->raw[freqChannel],
 905:Generated_Source\PSoC6/CapSense_Filter.c ****                                                         temp,
ARM GAS  C:\Users\ikomb\AppData\Local\Temp\cclK6Blf.s 			page 34


 906:Generated_Source\PSoC6/CapSense_Filter.c ****                                                         CapSense_PROX_IIR_RC_N,
 907:Generated_Source\PSoC6/CapSense_Filter.c ****                                                         CapSense_PROX_IIR_RC_SHIFT);
 908:Generated_Source\PSoC6/CapSense_Filter.c ****                     ptrFilterHistObj.ptrProx->proxChannel[freqChannel].iirHistory = CY_LO16(temp >>
 909:Generated_Source\PSoC6/CapSense_Filter.c ****                     ptrFilterHistObj.ptrProx->proxChannel[freqChannel].iirHistoryLow = CY_LO8(temp)
 910:Generated_Source\PSoC6/CapSense_Filter.c ****                     ptrSensorObj->raw[freqChannel] = CY_LO16(temp >>CapSense_PROX_IIR_RC_SHIFT);
 911:Generated_Source\PSoC6/CapSense_Filter.c ****                 #else
 912:Generated_Source\PSoC6/CapSense_Filter.c ****                     temp =CapSense_FtIIR1stOrder((uint32)ptrSensorObj->raw[freqChannel],
 913:Generated_Source\PSoC6/CapSense_Filter.c ****                                                         (uint32)ptrFilterHistObj.ptrProx->proxChann
 914:Generated_Source\PSoC6/CapSense_Filter.c ****                                                         CapSense_PROX_IIR_RC_N,
 915:Generated_Source\PSoC6/CapSense_Filter.c ****                                                         CapSense_PROX_IIR_RC_SHIFT);
 916:Generated_Source\PSoC6/CapSense_Filter.c ****                     ptrFilterHistObj.ptrProx->proxChannel[freqChannel].iirHistory = CY_LO16(temp);
 917:Generated_Source\PSoC6/CapSense_Filter.c ****                     ptrSensorObj->raw[freqChannel] = CY_LO16(temp >>CapSense_PROX_IIR_RC_SHIFT);
 918:Generated_Source\PSoC6/CapSense_Filter.c ****                 #endif /* (CapSense_PROX_IIR_RC_TYPE == CapSense_IIR_FILTER_PERFORMANCE) */
 919:Generated_Source\PSoC6/CapSense_Filter.c ****             #endif /* (CapSense_PROX_SENSOR_EN) */
 920:Generated_Source\PSoC6/CapSense_Filter.c ****         }
 921:Generated_Source\PSoC6/CapSense_Filter.c ****     }
 922:Generated_Source\PSoC6/CapSense_Filter.c **** }
 923:Generated_Source\PSoC6/CapSense_Filter.c **** #endif /* #if (CapSense_REGULAR_RC_IIR_FILTER_EN || CapSense_PROX_RC_IIR_FILTER_EN) */
 924:Generated_Source\PSoC6/CapSense_Filter.c **** 
 925:Generated_Source\PSoC6/CapSense_Filter.c **** 
 926:Generated_Source\PSoC6/CapSense_Filter.c **** #if (CapSense_REGULAR_RC_MEDIAN_FILTER_EN || CapSense_PROX_RC_MEDIAN_FILTER_EN)
 927:Generated_Source\PSoC6/CapSense_Filter.c **** 
 928:Generated_Source\PSoC6/CapSense_Filter.c **** /*******************************************************************************
 929:Generated_Source\PSoC6/CapSense_Filter.c **** * Function Name: CapSense_InitializeMedian
 930:Generated_Source\PSoC6/CapSense_Filter.c **** ****************************************************************************//**
 931:Generated_Source\PSoC6/CapSense_Filter.c **** *
 932:Generated_Source\PSoC6/CapSense_Filter.c **** * \brief    Initializes the Median filter history.
 933:Generated_Source\PSoC6/CapSense_Filter.c **** *
 934:Generated_Source\PSoC6/CapSense_Filter.c **** * \details  Initializes the Median filter history.
 935:Generated_Source\PSoC6/CapSense_Filter.c **** *
 936:Generated_Source\PSoC6/CapSense_Filter.c **** * \param    widgetId Specifies the ID number of the widget.
 937:Generated_Source\PSoC6/CapSense_Filter.c **** * \param    sensorId Specifies the ID number of the sensor in the widget.
 938:Generated_Source\PSoC6/CapSense_Filter.c **** *
 939:Generated_Source\PSoC6/CapSense_Filter.c **** *******************************************************************************/
 940:Generated_Source\PSoC6/CapSense_Filter.c **** void CapSense_InitializeMedian(uint32 widgetId, uint32 sensorId)
 941:Generated_Source\PSoC6/CapSense_Filter.c **** {
 966              		.loc 1 941 0
 967              		.cfi_startproc
 968              		@ args = 0, pretend = 0, frame = 24
 969              		@ frame_needed = 1, uses_anonymous_args = 0
 970 0000 80B5     		push	{r7, lr}
 971              		.cfi_def_cfa_offset 8
 972              		.cfi_offset 7, -8
 973              		.cfi_offset 14, -4
 974 0002 86B0     		sub	sp, sp, #24
 975              		.cfi_def_cfa_offset 32
 976 0004 00AF     		add	r7, sp, #0
 977              		.cfi_def_cfa_register 7
 978 0006 7860     		str	r0, [r7, #4]
 979 0008 3960     		str	r1, [r7]
 942:Generated_Source\PSoC6/CapSense_Filter.c ****     CapSense_FLASH_WD_STRUCT const *ptrWidget = &CapSense_dsFlash.wdgtArray[widgetId];
 980              		.loc 1 942 0
 981 000a 7A68     		ldr	r2, [r7, #4]
 982 000c 1346     		mov	r3, r2
 983 000e 5B00     		lsls	r3, r3, #1
 984 0010 1344     		add	r3, r3, r2
 985 0012 1B01     		lsls	r3, r3, #4
ARM GAS  C:\Users\ikomb\AppData\Local\Temp\cclK6Blf.s 			page 35


 986 0014 154A     		ldr	r2, .L52
 987 0016 1344     		add	r3, r3, r2
 988 0018 7B61     		str	r3, [r7, #20]
 943:Generated_Source\PSoC6/CapSense_Filter.c ****     CapSense_RAM_SNS_STRUCT *ptrSensor = NULL;
 989              		.loc 1 943 0
 990 001a 0023     		movs	r3, #0
 991 001c 3B61     		str	r3, [r7, #16]
 944:Generated_Source\PSoC6/CapSense_Filter.c ****     CapSense_PTR_FILTER_VARIANT ptrFilterHistObj;
 945:Generated_Source\PSoC6/CapSense_Filter.c **** 
 946:Generated_Source\PSoC6/CapSense_Filter.c ****     /* Find pointer to specified sensor object */
 947:Generated_Source\PSoC6/CapSense_Filter.c ****     ptrSensor = ptrWidget->ptr2SnsRam;
 992              		.loc 1 947 0
 993 001e 7B69     		ldr	r3, [r7, #20]
 994 0020 9B68     		ldr	r3, [r3, #8]
 995 0022 3B61     		str	r3, [r7, #16]
 948:Generated_Source\PSoC6/CapSense_Filter.c ****     ptrSensor = &ptrSensor[sensorId];
 996              		.loc 1 948 0
 997 0024 3A68     		ldr	r2, [r7]
 998 0026 1346     		mov	r3, r2
 999 0028 9B00     		lsls	r3, r3, #2
 1000 002a 1344     		add	r3, r3, r2
 1001 002c 5B00     		lsls	r3, r3, #1
 1002 002e 1A46     		mov	r2, r3
 1003 0030 3B69     		ldr	r3, [r7, #16]
 1004 0032 1344     		add	r3, r3, r2
 1005 0034 3B61     		str	r3, [r7, #16]
 949:Generated_Source\PSoC6/CapSense_Filter.c **** 
 950:Generated_Source\PSoC6/CapSense_Filter.c ****     /* Find pointer to specified filter sensor object */
 951:Generated_Source\PSoC6/CapSense_Filter.c ****     ptrFilterHistObj.ptr = ptrWidget->ptr2FltrHistory;
 1006              		.loc 1 951 0
 1007 0036 7B69     		ldr	r3, [r7, #20]
 1008 0038 DB68     		ldr	r3, [r3, #12]
 1009 003a FB60     		str	r3, [r7, #12]
 952:Generated_Source\PSoC6/CapSense_Filter.c **** 
 953:Generated_Source\PSoC6/CapSense_Filter.c ****     if ((CapSense_WD_TYPE_ENUM)ptrWidget->wdgtType != CapSense_WD_PROXIMITY_E)
 1010              		.loc 1 953 0
 1011 003c 7B69     		ldr	r3, [r7, #20]
 1012 003e 9B7E     		ldrb	r3, [r3, #26]	@ zero_extendqisi2
 1013 0040 062B     		cmp	r3, #6
 1014 0042 07D0     		beq	.L51
 954:Generated_Source\PSoC6/CapSense_Filter.c ****     {
 955:Generated_Source\PSoC6/CapSense_Filter.c ****         #if (CapSense_REGULAR_SENSOR_EN)
 956:Generated_Source\PSoC6/CapSense_Filter.c ****             ptrFilterHistObj.ptrRegular = &ptrFilterHistObj.ptrRegular[sensorId];
 1015              		.loc 1 956 0
 1016 0044 F968     		ldr	r1, [r7, #12]
 1017 0046 3A68     		ldr	r2, [r7]
 1018 0048 1346     		mov	r3, r2
 1019 004a 9B00     		lsls	r3, r3, #2
 1020 004c 1344     		add	r3, r3, r2
 1021 004e 5B00     		lsls	r3, r3, #1
 1022 0050 0B44     		add	r3, r3, r1
 1023 0052 FB60     		str	r3, [r7, #12]
 1024              	.L51:
 957:Generated_Source\PSoC6/CapSense_Filter.c ****         #endif /* (CapSense_REGULAR_SENSOR_EN) */
 958:Generated_Source\PSoC6/CapSense_Filter.c ****     }
 959:Generated_Source\PSoC6/CapSense_Filter.c ****     else
 960:Generated_Source\PSoC6/CapSense_Filter.c ****     {
ARM GAS  C:\Users\ikomb\AppData\Local\Temp\cclK6Blf.s 			page 36


 961:Generated_Source\PSoC6/CapSense_Filter.c ****         #if (CapSense_PROXIMITY_SENSOR_EN)
 962:Generated_Source\PSoC6/CapSense_Filter.c ****             ptrFilterHistObj.ptrProx = &ptrFilterHistObj.ptrProx[sensorId];
 963:Generated_Source\PSoC6/CapSense_Filter.c ****         #endif /* (CapSense_PROXIMITY_SENSOR_EN) */
 964:Generated_Source\PSoC6/CapSense_Filter.c ****     }
 965:Generated_Source\PSoC6/CapSense_Filter.c **** 
 966:Generated_Source\PSoC6/CapSense_Filter.c ****     CapSense_InitializeMedianInternal(ptrFilterHistObj, ptrSensor, (uint32)ptrWidget->wdgtType);
 1025              		.loc 1 966 0
 1026 0054 7B69     		ldr	r3, [r7, #20]
 1027 0056 9B7E     		ldrb	r3, [r3, #26]	@ zero_extendqisi2
 1028 0058 1A46     		mov	r2, r3
 1029 005a 3969     		ldr	r1, [r7, #16]
 1030 005c F868     		ldr	r0, [r7, #12]
 1031 005e FFF7FEFF 		bl	CapSense_InitializeMedianInternal
 967:Generated_Source\PSoC6/CapSense_Filter.c **** }
 1032              		.loc 1 967 0
 1033 0062 00BF     		nop
 1034 0064 1837     		adds	r7, r7, #24
 1035              		.cfi_def_cfa_offset 8
 1036 0066 BD46     		mov	sp, r7
 1037              		.cfi_def_cfa_register 13
 1038              		@ sp needed
 1039 0068 80BD     		pop	{r7, pc}
 1040              	.L53:
 1041 006a 00BF     		.align	2
 1042              	.L52:
 1043 006c 00000000 		.word	CapSense_dsFlash
 1044              		.cfi_endproc
 1045              	.LFE137:
 1046              		.size	CapSense_InitializeMedian, .-CapSense_InitializeMedian
 1047              		.section	.text.CapSense_RunMedian,"ax",%progbits
 1048              		.align	2
 1049              		.global	CapSense_RunMedian
 1050              		.thumb
 1051              		.thumb_func
 1052              		.type	CapSense_RunMedian, %function
 1053              	CapSense_RunMedian:
 1054              	.LFB138:
 968:Generated_Source\PSoC6/CapSense_Filter.c **** 
 969:Generated_Source\PSoC6/CapSense_Filter.c **** 
 970:Generated_Source\PSoC6/CapSense_Filter.c **** /*******************************************************************************
 971:Generated_Source\PSoC6/CapSense_Filter.c **** * Function Name: CapSense_RunMedian
 972:Generated_Source\PSoC6/CapSense_Filter.c **** ****************************************************************************//**
 973:Generated_Source\PSoC6/CapSense_Filter.c **** *
 974:Generated_Source\PSoC6/CapSense_Filter.c **** * \brief    Executes the Median filter algorithm on a sensor indicated by an input
 975:Generated_Source\PSoC6/CapSense_Filter.c **** *           parameter.
 976:Generated_Source\PSoC6/CapSense_Filter.c **** *
 977:Generated_Source\PSoC6/CapSense_Filter.c **** * \details  Executes the Median filter algorithm on a sensor indicated by an input
 978:Generated_Source\PSoC6/CapSense_Filter.c **** *           parameter.
 979:Generated_Source\PSoC6/CapSense_Filter.c **** *
 980:Generated_Source\PSoC6/CapSense_Filter.c **** * \param    widgetId Specifies the ID number of the widget.
 981:Generated_Source\PSoC6/CapSense_Filter.c **** * \param    sensorId Specifies the ID number of the sensor in the widget.
 982:Generated_Source\PSoC6/CapSense_Filter.c **** *
 983:Generated_Source\PSoC6/CapSense_Filter.c **** *******************************************************************************/
 984:Generated_Source\PSoC6/CapSense_Filter.c **** void CapSense_RunMedian(uint32 widgetId, uint32 sensorId)
 985:Generated_Source\PSoC6/CapSense_Filter.c **** {
 1055              		.loc 1 985 0
 1056              		.cfi_startproc
ARM GAS  C:\Users\ikomb\AppData\Local\Temp\cclK6Blf.s 			page 37


 1057              		@ args = 0, pretend = 0, frame = 24
 1058              		@ frame_needed = 1, uses_anonymous_args = 0
 1059 0000 80B5     		push	{r7, lr}
 1060              		.cfi_def_cfa_offset 8
 1061              		.cfi_offset 7, -8
 1062              		.cfi_offset 14, -4
 1063 0002 86B0     		sub	sp, sp, #24
 1064              		.cfi_def_cfa_offset 32
 1065 0004 00AF     		add	r7, sp, #0
 1066              		.cfi_def_cfa_register 7
 1067 0006 7860     		str	r0, [r7, #4]
 1068 0008 3960     		str	r1, [r7]
 986:Generated_Source\PSoC6/CapSense_Filter.c ****     CapSense_FLASH_WD_STRUCT const *ptrWidget = &CapSense_dsFlash.wdgtArray[widgetId];
 1069              		.loc 1 986 0
 1070 000a 7A68     		ldr	r2, [r7, #4]
 1071 000c 1346     		mov	r3, r2
 1072 000e 5B00     		lsls	r3, r3, #1
 1073 0010 1344     		add	r3, r3, r2
 1074 0012 1B01     		lsls	r3, r3, #4
 1075 0014 154A     		ldr	r2, .L56
 1076 0016 1344     		add	r3, r3, r2
 1077 0018 7B61     		str	r3, [r7, #20]
 987:Generated_Source\PSoC6/CapSense_Filter.c ****     CapSense_RAM_SNS_STRUCT *ptrSensor = NULL;
 1078              		.loc 1 987 0
 1079 001a 0023     		movs	r3, #0
 1080 001c 3B61     		str	r3, [r7, #16]
 988:Generated_Source\PSoC6/CapSense_Filter.c ****     CapSense_PTR_FILTER_VARIANT ptrFilterHistObj;
 989:Generated_Source\PSoC6/CapSense_Filter.c **** 
 990:Generated_Source\PSoC6/CapSense_Filter.c ****     /* Find pointer to specified sensor object */
 991:Generated_Source\PSoC6/CapSense_Filter.c ****     ptrSensor = ptrWidget->ptr2SnsRam;
 1081              		.loc 1 991 0
 1082 001e 7B69     		ldr	r3, [r7, #20]
 1083 0020 9B68     		ldr	r3, [r3, #8]
 1084 0022 3B61     		str	r3, [r7, #16]
 992:Generated_Source\PSoC6/CapSense_Filter.c ****     ptrSensor = &ptrSensor[sensorId];
 1085              		.loc 1 992 0
 1086 0024 3A68     		ldr	r2, [r7]
 1087 0026 1346     		mov	r3, r2
 1088 0028 9B00     		lsls	r3, r3, #2
 1089 002a 1344     		add	r3, r3, r2
 1090 002c 5B00     		lsls	r3, r3, #1
 1091 002e 1A46     		mov	r2, r3
 1092 0030 3B69     		ldr	r3, [r7, #16]
 1093 0032 1344     		add	r3, r3, r2
 1094 0034 3B61     		str	r3, [r7, #16]
 993:Generated_Source\PSoC6/CapSense_Filter.c **** 
 994:Generated_Source\PSoC6/CapSense_Filter.c ****     /* Find pointer to specified filter sensor object */
 995:Generated_Source\PSoC6/CapSense_Filter.c ****     ptrFilterHistObj.ptr = ptrWidget->ptr2FltrHistory;
 1095              		.loc 1 995 0
 1096 0036 7B69     		ldr	r3, [r7, #20]
 1097 0038 DB68     		ldr	r3, [r3, #12]
 1098 003a FB60     		str	r3, [r7, #12]
 996:Generated_Source\PSoC6/CapSense_Filter.c **** 
 997:Generated_Source\PSoC6/CapSense_Filter.c ****     if ((CapSense_WD_TYPE_ENUM)ptrWidget->wdgtType != CapSense_WD_PROXIMITY_E)
 1099              		.loc 1 997 0
 1100 003c 7B69     		ldr	r3, [r7, #20]
 1101 003e 9B7E     		ldrb	r3, [r3, #26]	@ zero_extendqisi2
ARM GAS  C:\Users\ikomb\AppData\Local\Temp\cclK6Blf.s 			page 38


 1102 0040 062B     		cmp	r3, #6
 1103 0042 07D0     		beq	.L55
 998:Generated_Source\PSoC6/CapSense_Filter.c ****     {
 999:Generated_Source\PSoC6/CapSense_Filter.c ****         #if (CapSense_REGULAR_SENSOR_EN)
1000:Generated_Source\PSoC6/CapSense_Filter.c ****             ptrFilterHistObj.ptrRegular = &ptrFilterHistObj.ptrRegular[sensorId];
 1104              		.loc 1 1000 0
 1105 0044 F968     		ldr	r1, [r7, #12]
 1106 0046 3A68     		ldr	r2, [r7]
 1107 0048 1346     		mov	r3, r2
 1108 004a 9B00     		lsls	r3, r3, #2
 1109 004c 1344     		add	r3, r3, r2
 1110 004e 5B00     		lsls	r3, r3, #1
 1111 0050 0B44     		add	r3, r3, r1
 1112 0052 FB60     		str	r3, [r7, #12]
 1113              	.L55:
1001:Generated_Source\PSoC6/CapSense_Filter.c ****         #endif /* (CapSense_REGULAR_SENSOR_EN) */
1002:Generated_Source\PSoC6/CapSense_Filter.c ****     }
1003:Generated_Source\PSoC6/CapSense_Filter.c ****     else
1004:Generated_Source\PSoC6/CapSense_Filter.c ****     {
1005:Generated_Source\PSoC6/CapSense_Filter.c ****         #if (CapSense_PROXIMITY_SENSOR_EN)
1006:Generated_Source\PSoC6/CapSense_Filter.c ****             ptrFilterHistObj.ptrProx = &ptrFilterHistObj.ptrProx[sensorId];
1007:Generated_Source\PSoC6/CapSense_Filter.c ****         #endif /* (CapSense_PROXIMITY_SENSOR_EN) */
1008:Generated_Source\PSoC6/CapSense_Filter.c ****     }
1009:Generated_Source\PSoC6/CapSense_Filter.c **** 
1010:Generated_Source\PSoC6/CapSense_Filter.c ****     CapSense_RunMedianInternal(ptrFilterHistObj, ptrSensor, (uint32)ptrWidget->wdgtType);
 1114              		.loc 1 1010 0
 1115 0054 7B69     		ldr	r3, [r7, #20]
 1116 0056 9B7E     		ldrb	r3, [r3, #26]	@ zero_extendqisi2
 1117 0058 1A46     		mov	r2, r3
 1118 005a 3969     		ldr	r1, [r7, #16]
 1119 005c F868     		ldr	r0, [r7, #12]
 1120 005e FFF7FEFF 		bl	CapSense_RunMedianInternal
1011:Generated_Source\PSoC6/CapSense_Filter.c **** }
 1121              		.loc 1 1011 0
 1122 0062 00BF     		nop
 1123 0064 1837     		adds	r7, r7, #24
 1124              		.cfi_def_cfa_offset 8
 1125 0066 BD46     		mov	sp, r7
 1126              		.cfi_def_cfa_register 13
 1127              		@ sp needed
 1128 0068 80BD     		pop	{r7, pc}
 1129              	.L57:
 1130 006a 00BF     		.align	2
 1131              	.L56:
 1132 006c 00000000 		.word	CapSense_dsFlash
 1133              		.cfi_endproc
 1134              	.LFE138:
 1135              		.size	CapSense_RunMedian, .-CapSense_RunMedian
 1136              		.section	.text.CapSense_InitializeMedianInternal,"ax",%progbits
 1137              		.align	2
 1138              		.global	CapSense_InitializeMedianInternal
 1139              		.thumb
 1140              		.thumb_func
 1141              		.type	CapSense_InitializeMedianInternal, %function
 1142              	CapSense_InitializeMedianInternal:
 1143              	.LFB139:
1012:Generated_Source\PSoC6/CapSense_Filter.c **** 
ARM GAS  C:\Users\ikomb\AppData\Local\Temp\cclK6Blf.s 			page 39


1013:Generated_Source\PSoC6/CapSense_Filter.c **** 
1014:Generated_Source\PSoC6/CapSense_Filter.c **** /*******************************************************************************
1015:Generated_Source\PSoC6/CapSense_Filter.c **** * Function Name: CapSense_InitializeMedianInternal
1016:Generated_Source\PSoC6/CapSense_Filter.c **** ****************************************************************************//**
1017:Generated_Source\PSoC6/CapSense_Filter.c **** *
1018:Generated_Source\PSoC6/CapSense_Filter.c **** * \brief    Initializes the Median filter.
1019:Generated_Source\PSoC6/CapSense_Filter.c **** *
1020:Generated_Source\PSoC6/CapSense_Filter.c **** * \details  Initializes the Median filter.
1021:Generated_Source\PSoC6/CapSense_Filter.c **** *
1022:Generated_Source\PSoC6/CapSense_Filter.c **** * \param    ptrFilterHistObj The pointer to the filter RAM object of the sensor.
1023:Generated_Source\PSoC6/CapSense_Filter.c **** * \param    ptrSensorObj     The pointer to the sensor RAM object of the sensor.
1024:Generated_Source\PSoC6/CapSense_Filter.c **** * \param    wdType           Specifies the type of a widget.
1025:Generated_Source\PSoC6/CapSense_Filter.c **** *
1026:Generated_Source\PSoC6/CapSense_Filter.c **** *******************************************************************************/
1027:Generated_Source\PSoC6/CapSense_Filter.c **** void CapSense_InitializeMedianInternal(CapSense_PTR_FILTER_VARIANT ptrFilterHistObj,
1028:Generated_Source\PSoC6/CapSense_Filter.c ****                                                CapSense_RAM_SNS_STRUCT *ptrSensorObj, uint32 wdType
1029:Generated_Source\PSoC6/CapSense_Filter.c **** {
 1144              		.loc 1 1029 0
 1145              		.cfi_startproc
 1146              		@ args = 0, pretend = 0, frame = 24
 1147              		@ frame_needed = 1, uses_anonymous_args = 0
 1148              		@ link register save eliminated.
 1149 0000 80B4     		push	{r7}
 1150              		.cfi_def_cfa_offset 4
 1151              		.cfi_offset 7, -4
 1152 0002 87B0     		sub	sp, sp, #28
 1153              		.cfi_def_cfa_offset 32
 1154 0004 00AF     		add	r7, sp, #0
 1155              		.cfi_def_cfa_register 7
 1156 0006 F860     		str	r0, [r7, #12]
 1157 0008 B960     		str	r1, [r7, #8]
 1158 000a 7A60     		str	r2, [r7, #4]
1030:Generated_Source\PSoC6/CapSense_Filter.c ****     uint32 freqChannel;
1031:Generated_Source\PSoC6/CapSense_Filter.c **** 
1032:Generated_Source\PSoC6/CapSense_Filter.c ****     for(freqChannel = CapSense_NUM_SCAN_FREQS; freqChannel-- > 0u;)
 1159              		.loc 1 1032 0
 1160 000c 0123     		movs	r3, #1
 1161 000e 7B61     		str	r3, [r7, #20]
 1162 0010 1EE0     		b	.L59
 1163              	.L60:
1033:Generated_Source\PSoC6/CapSense_Filter.c ****     {
1034:Generated_Source\PSoC6/CapSense_Filter.c ****         if ((CapSense_WD_TYPE_ENUM)wdType != CapSense_WD_PROXIMITY_E)
 1164              		.loc 1 1034 0
 1165 0012 7B68     		ldr	r3, [r7, #4]
 1166 0014 DBB2     		uxtb	r3, r3
 1167 0016 062B     		cmp	r3, #6
 1168 0018 1AD0     		beq	.L59
1035:Generated_Source\PSoC6/CapSense_Filter.c ****         {
1036:Generated_Source\PSoC6/CapSense_Filter.c ****             #if (CapSense_REGULAR_SENSOR_EN && CapSense_REGULAR_RC_MEDIAN_FILTER_EN)
1037:Generated_Source\PSoC6/CapSense_Filter.c ****                 ptrFilterHistObj.ptrRegular->regularChannel[freqChannel].medHistory[0u] = ptrSensor
 1169              		.loc 1 1037 0
 1170 001a F968     		ldr	r1, [r7, #12]
 1171 001c BB68     		ldr	r3, [r7, #8]
 1172 001e 7A69     		ldr	r2, [r7, #20]
 1173 0020 33F81200 		ldrh	r0, [r3, r2, lsl #1]
 1174 0024 7A69     		ldr	r2, [r7, #20]
 1175 0026 1346     		mov	r3, r2
ARM GAS  C:\Users\ikomb\AppData\Local\Temp\cclK6Blf.s 			page 40


 1176 0028 9B00     		lsls	r3, r3, #2
 1177 002a 1344     		add	r3, r3, r2
 1178 002c 5B00     		lsls	r3, r3, #1
 1179 002e 0B44     		add	r3, r3, r1
 1180 0030 0246     		mov	r2, r0	@ movhi
 1181 0032 1A80     		strh	r2, [r3]	@ movhi
1038:Generated_Source\PSoC6/CapSense_Filter.c ****                 ptrFilterHistObj.ptrRegular->regularChannel[freqChannel].medHistory[1u] = ptrSensor
 1182              		.loc 1 1038 0
 1183 0034 F968     		ldr	r1, [r7, #12]
 1184 0036 BB68     		ldr	r3, [r7, #8]
 1185 0038 7A69     		ldr	r2, [r7, #20]
 1186 003a 33F81200 		ldrh	r0, [r3, r2, lsl #1]
 1187 003e 7A69     		ldr	r2, [r7, #20]
 1188 0040 1346     		mov	r3, r2
 1189 0042 9B00     		lsls	r3, r3, #2
 1190 0044 1344     		add	r3, r3, r2
 1191 0046 5B00     		lsls	r3, r3, #1
 1192 0048 0B44     		add	r3, r3, r1
 1193 004a 0233     		adds	r3, r3, #2
 1194 004c 0246     		mov	r2, r0	@ movhi
 1195 004e 1A80     		strh	r2, [r3]	@ movhi
 1196              	.L59:
1032:Generated_Source\PSoC6/CapSense_Filter.c ****     {
 1197              		.loc 1 1032 0 discriminator 1
 1198 0050 7B69     		ldr	r3, [r7, #20]
 1199 0052 5A1E     		subs	r2, r3, #1
 1200 0054 7A61     		str	r2, [r7, #20]
 1201 0056 002B     		cmp	r3, #0
 1202 0058 DBD1     		bne	.L60
1039:Generated_Source\PSoC6/CapSense_Filter.c ****             #endif /* (CapSense_REGULAR_SENSOR_EN) */
1040:Generated_Source\PSoC6/CapSense_Filter.c ****         }
1041:Generated_Source\PSoC6/CapSense_Filter.c ****         else
1042:Generated_Source\PSoC6/CapSense_Filter.c ****         {
1043:Generated_Source\PSoC6/CapSense_Filter.c ****             #if (CapSense_PROXIMITY_SENSOR_EN && CapSense_PROX_RC_MEDIAN_FILTER_EN)
1044:Generated_Source\PSoC6/CapSense_Filter.c ****                 ptrFilterHistObj.ptrProx->proxChannel[freqChannel].medHistory[0u] = ptrSensorObj->r
1045:Generated_Source\PSoC6/CapSense_Filter.c ****                 ptrFilterHistObj.ptrProx->proxChannel[freqChannel].medHistory[1u] = ptrSensorObj->r
1046:Generated_Source\PSoC6/CapSense_Filter.c ****             #endif /* (CapSense_PROXIMITY_SENSOR_EN) */
1047:Generated_Source\PSoC6/CapSense_Filter.c ****         }
1048:Generated_Source\PSoC6/CapSense_Filter.c ****     }
1049:Generated_Source\PSoC6/CapSense_Filter.c **** }
 1203              		.loc 1 1049 0
 1204 005a 00BF     		nop
 1205 005c 1C37     		adds	r7, r7, #28
 1206              		.cfi_def_cfa_offset 4
 1207 005e BD46     		mov	sp, r7
 1208              		.cfi_def_cfa_register 13
 1209              		@ sp needed
 1210 0060 5DF8047B 		ldr	r7, [sp], #4
 1211              		.cfi_restore 7
 1212              		.cfi_def_cfa_offset 0
 1213 0064 7047     		bx	lr
 1214              		.cfi_endproc
 1215              	.LFE139:
 1216              		.size	CapSense_InitializeMedianInternal, .-CapSense_InitializeMedianInternal
 1217 0066 00BF     		.section	.text.CapSense_RunMedianInternal,"ax",%progbits
 1218              		.align	2
 1219              		.global	CapSense_RunMedianInternal
ARM GAS  C:\Users\ikomb\AppData\Local\Temp\cclK6Blf.s 			page 41


 1220              		.thumb
 1221              		.thumb_func
 1222              		.type	CapSense_RunMedianInternal, %function
 1223              	CapSense_RunMedianInternal:
 1224              	.LFB140:
1050:Generated_Source\PSoC6/CapSense_Filter.c **** 
1051:Generated_Source\PSoC6/CapSense_Filter.c **** 
1052:Generated_Source\PSoC6/CapSense_Filter.c **** /*******************************************************************************
1053:Generated_Source\PSoC6/CapSense_Filter.c **** * Function Name: CapSense_RunMedianInternal
1054:Generated_Source\PSoC6/CapSense_Filter.c **** ****************************************************************************//**
1055:Generated_Source\PSoC6/CapSense_Filter.c **** *
1056:Generated_Source\PSoC6/CapSense_Filter.c **** * \brief    Runs the Median filter.
1057:Generated_Source\PSoC6/CapSense_Filter.c **** *
1058:Generated_Source\PSoC6/CapSense_Filter.c **** * \details  Runs the Median filter.
1059:Generated_Source\PSoC6/CapSense_Filter.c **** *
1060:Generated_Source\PSoC6/CapSense_Filter.c **** * \param    ptrFilterHistObj The pointer to the filter RAM object of the sensor.
1061:Generated_Source\PSoC6/CapSense_Filter.c **** * \param    ptrSensorObj     The pointer to the sensor RAM object of the sensor.
1062:Generated_Source\PSoC6/CapSense_Filter.c **** * \param    wdType           Specifies the type of a widget.
1063:Generated_Source\PSoC6/CapSense_Filter.c **** *
1064:Generated_Source\PSoC6/CapSense_Filter.c **** *******************************************************************************/
1065:Generated_Source\PSoC6/CapSense_Filter.c **** void CapSense_RunMedianInternal(CapSense_PTR_FILTER_VARIANT ptrFilterHistObj,
1066:Generated_Source\PSoC6/CapSense_Filter.c ****                                         CapSense_RAM_SNS_STRUCT *ptrSensorObj, uint32 wdType)
1067:Generated_Source\PSoC6/CapSense_Filter.c **** {
 1225              		.loc 1 1067 0
 1226              		.cfi_startproc
 1227              		@ args = 0, pretend = 0, frame = 24
 1228              		@ frame_needed = 1, uses_anonymous_args = 0
 1229 0000 90B5     		push	{r4, r7, lr}
 1230              		.cfi_def_cfa_offset 12
 1231              		.cfi_offset 4, -12
 1232              		.cfi_offset 7, -8
 1233              		.cfi_offset 14, -4
 1234 0002 87B0     		sub	sp, sp, #28
 1235              		.cfi_def_cfa_offset 40
 1236 0004 00AF     		add	r7, sp, #0
 1237              		.cfi_def_cfa_register 7
 1238 0006 F860     		str	r0, [r7, #12]
 1239 0008 B960     		str	r1, [r7, #8]
 1240 000a 7A60     		str	r2, [r7, #4]
1068:Generated_Source\PSoC6/CapSense_Filter.c ****     uint32 freqChannel;
1069:Generated_Source\PSoC6/CapSense_Filter.c **** 
1070:Generated_Source\PSoC6/CapSense_Filter.c ****     #if ((CapSense_REGULAR_SENSOR_EN && CapSense_REGULAR_RC_MEDIAN_FILTER_EN) || \
1071:Generated_Source\PSoC6/CapSense_Filter.c ****          (CapSense_PROXIMITY_SENSOR_EN && CapSense_PROX_RC_MEDIAN_FILTER_EN))
1072:Generated_Source\PSoC6/CapSense_Filter.c ****         uint32 temp;
1073:Generated_Source\PSoC6/CapSense_Filter.c ****     #endif
1074:Generated_Source\PSoC6/CapSense_Filter.c **** 
1075:Generated_Source\PSoC6/CapSense_Filter.c ****     for(freqChannel = CapSense_NUM_SCAN_FREQS; freqChannel-- > 0u;)
 1241              		.loc 1 1075 0
 1242 000c 0123     		movs	r3, #1
 1243 000e 7B61     		str	r3, [r7, #20]
 1244 0010 44E0     		b	.L62
 1245              	.L63:
1076:Generated_Source\PSoC6/CapSense_Filter.c ****     {
1077:Generated_Source\PSoC6/CapSense_Filter.c ****         if ((CapSense_WD_TYPE_ENUM)wdType != CapSense_WD_PROXIMITY_E)
 1246              		.loc 1 1077 0
 1247 0012 7B68     		ldr	r3, [r7, #4]
 1248 0014 DBB2     		uxtb	r3, r3
ARM GAS  C:\Users\ikomb\AppData\Local\Temp\cclK6Blf.s 			page 42


 1249 0016 062B     		cmp	r3, #6
 1250 0018 40D0     		beq	.L62
1078:Generated_Source\PSoC6/CapSense_Filter.c ****         {
1079:Generated_Source\PSoC6/CapSense_Filter.c ****             #if (CapSense_REGULAR_SENSOR_EN && CapSense_REGULAR_RC_MEDIAN_FILTER_EN)
1080:Generated_Source\PSoC6/CapSense_Filter.c ****                 temp = CapSense_FtMedian((uint32)ptrSensorObj->raw[freqChannel],\
 1251              		.loc 1 1080 0
 1252 001a BB68     		ldr	r3, [r7, #8]
 1253 001c 7A69     		ldr	r2, [r7, #20]
 1254 001e 33F81230 		ldrh	r3, [r3, r2, lsl #1]
 1255 0022 1846     		mov	r0, r3
1081:Generated_Source\PSoC6/CapSense_Filter.c ****                                                  (uint32)ptrFilterHistObj.ptrRegular->regularChanne
 1256              		.loc 1 1081 0
 1257 0024 F968     		ldr	r1, [r7, #12]
 1258 0026 7A69     		ldr	r2, [r7, #20]
 1259 0028 1346     		mov	r3, r2
 1260 002a 9B00     		lsls	r3, r3, #2
 1261 002c 1344     		add	r3, r3, r2
 1262 002e 5B00     		lsls	r3, r3, #1
 1263 0030 0B44     		add	r3, r3, r1
 1264 0032 1B88     		ldrh	r3, [r3]
1080:Generated_Source\PSoC6/CapSense_Filter.c ****                                                  (uint32)ptrFilterHistObj.ptrRegular->regularChanne
 1265              		.loc 1 1080 0
 1266 0034 1C46     		mov	r4, r3
1082:Generated_Source\PSoC6/CapSense_Filter.c ****                                                  (uint32)ptrFilterHistObj.ptrRegular->regularChanne
 1267              		.loc 1 1082 0
 1268 0036 F968     		ldr	r1, [r7, #12]
 1269 0038 7A69     		ldr	r2, [r7, #20]
 1270 003a 1346     		mov	r3, r2
 1271 003c 9B00     		lsls	r3, r3, #2
 1272 003e 1344     		add	r3, r3, r2
 1273 0040 5B00     		lsls	r3, r3, #1
 1274 0042 0B44     		add	r3, r3, r1
 1275 0044 0233     		adds	r3, r3, #2
 1276 0046 1B88     		ldrh	r3, [r3]
1080:Generated_Source\PSoC6/CapSense_Filter.c ****                                                  (uint32)ptrFilterHistObj.ptrRegular->regularChanne
 1277              		.loc 1 1080 0
 1278 0048 1A46     		mov	r2, r3
 1279 004a 2146     		mov	r1, r4
 1280 004c FFF7FEFF 		bl	CapSense_FtMedian
 1281 0050 3861     		str	r0, [r7, #16]
1083:Generated_Source\PSoC6/CapSense_Filter.c ****                 ptrFilterHistObj.ptrRegular->regularChannel[freqChannel].medHistory[1u] = \
 1282              		.loc 1 1083 0
 1283 0052 F968     		ldr	r1, [r7, #12]
1084:Generated_Source\PSoC6/CapSense_Filter.c ****                 ptrFilterHistObj.ptrRegular->regularChannel[freqChannel].medHistory[0u];
 1284              		.loc 1 1084 0
 1285 0054 F868     		ldr	r0, [r7, #12]
 1286 0056 7A69     		ldr	r2, [r7, #20]
 1287 0058 1346     		mov	r3, r2
 1288 005a 9B00     		lsls	r3, r3, #2
 1289 005c 1344     		add	r3, r3, r2
 1290 005e 5B00     		lsls	r3, r3, #1
 1291 0060 0344     		add	r3, r3, r0
 1292 0062 1888     		ldrh	r0, [r3]
1083:Generated_Source\PSoC6/CapSense_Filter.c ****                 ptrFilterHistObj.ptrRegular->regularChannel[freqChannel].medHistory[1u] = \
 1293              		.loc 1 1083 0
 1294 0064 7A69     		ldr	r2, [r7, #20]
 1295 0066 1346     		mov	r3, r2
ARM GAS  C:\Users\ikomb\AppData\Local\Temp\cclK6Blf.s 			page 43


 1296 0068 9B00     		lsls	r3, r3, #2
 1297 006a 1344     		add	r3, r3, r2
 1298 006c 5B00     		lsls	r3, r3, #1
 1299 006e 0B44     		add	r3, r3, r1
 1300 0070 0233     		adds	r3, r3, #2
 1301 0072 0246     		mov	r2, r0	@ movhi
 1302 0074 1A80     		strh	r2, [r3]	@ movhi
1085:Generated_Source\PSoC6/CapSense_Filter.c ****                 ptrFilterHistObj.ptrRegular->regularChannel[freqChannel].medHistory[0u] = ptrSensor
 1303              		.loc 1 1085 0
 1304 0076 F968     		ldr	r1, [r7, #12]
 1305 0078 BB68     		ldr	r3, [r7, #8]
 1306 007a 7A69     		ldr	r2, [r7, #20]
 1307 007c 33F81200 		ldrh	r0, [r3, r2, lsl #1]
 1308 0080 7A69     		ldr	r2, [r7, #20]
 1309 0082 1346     		mov	r3, r2
 1310 0084 9B00     		lsls	r3, r3, #2
 1311 0086 1344     		add	r3, r3, r2
 1312 0088 5B00     		lsls	r3, r3, #1
 1313 008a 0B44     		add	r3, r3, r1
 1314 008c 0246     		mov	r2, r0	@ movhi
 1315 008e 1A80     		strh	r2, [r3]	@ movhi
1086:Generated_Source\PSoC6/CapSense_Filter.c ****                 ptrSensorObj->raw[freqChannel] = CY_LO16(temp);
 1316              		.loc 1 1086 0
 1317 0090 3B69     		ldr	r3, [r7, #16]
 1318 0092 99B2     		uxth	r1, r3
 1319 0094 BB68     		ldr	r3, [r7, #8]
 1320 0096 7A69     		ldr	r2, [r7, #20]
 1321 0098 23F81210 		strh	r1, [r3, r2, lsl #1]	@ movhi
 1322              	.L62:
1075:Generated_Source\PSoC6/CapSense_Filter.c ****     {
 1323              		.loc 1 1075 0 discriminator 1
 1324 009c 7B69     		ldr	r3, [r7, #20]
 1325 009e 5A1E     		subs	r2, r3, #1
 1326 00a0 7A61     		str	r2, [r7, #20]
 1327 00a2 002B     		cmp	r3, #0
 1328 00a4 B5D1     		bne	.L63
1087:Generated_Source\PSoC6/CapSense_Filter.c ****             #endif /* (CapSense_REGULAR_SENSOR_EN) */
1088:Generated_Source\PSoC6/CapSense_Filter.c ****         }
1089:Generated_Source\PSoC6/CapSense_Filter.c ****         else
1090:Generated_Source\PSoC6/CapSense_Filter.c ****         {
1091:Generated_Source\PSoC6/CapSense_Filter.c ****             #if (CapSense_PROXIMITY_SENSOR_EN && CapSense_PROX_RC_MEDIAN_FILTER_EN)
1092:Generated_Source\PSoC6/CapSense_Filter.c ****                 temp = CapSense_FtMedian((uint32)ptrSensorObj->raw[freqChannel],\
1093:Generated_Source\PSoC6/CapSense_Filter.c ****                                                  (uint32)ptrFilterHistObj.ptrProx->proxChannel[freq
1094:Generated_Source\PSoC6/CapSense_Filter.c ****                                                  (uint32)ptrFilterHistObj.ptrProx->proxChannel[freq
1095:Generated_Source\PSoC6/CapSense_Filter.c ****                 ptrFilterHistObj.ptrProx->proxChannel[freqChannel].medHistory[1u] = \
1096:Generated_Source\PSoC6/CapSense_Filter.c ****                 ptrFilterHistObj.ptrProx->proxChannel[freqChannel].medHistory[0u];
1097:Generated_Source\PSoC6/CapSense_Filter.c ****                 ptrFilterHistObj.ptrProx->proxChannel[freqChannel].medHistory[0u] = ptrSensorObj->r
1098:Generated_Source\PSoC6/CapSense_Filter.c ****                 ptrSensorObj->raw[freqChannel] = CY_LO16(temp);
1099:Generated_Source\PSoC6/CapSense_Filter.c ****             #endif /* (CapSense_PROXIMITY_SENSOR_EN) */
1100:Generated_Source\PSoC6/CapSense_Filter.c ****         }
1101:Generated_Source\PSoC6/CapSense_Filter.c ****     }
1102:Generated_Source\PSoC6/CapSense_Filter.c **** }
 1329              		.loc 1 1102 0
 1330 00a6 00BF     		nop
 1331 00a8 1C37     		adds	r7, r7, #28
 1332              		.cfi_def_cfa_offset 12
 1333 00aa BD46     		mov	sp, r7
ARM GAS  C:\Users\ikomb\AppData\Local\Temp\cclK6Blf.s 			page 44


 1334              		.cfi_def_cfa_register 13
 1335              		@ sp needed
 1336 00ac 90BD     		pop	{r4, r7, pc}
 1337              		.cfi_endproc
 1338              	.LFE140:
 1339              		.size	CapSense_RunMedianInternal, .-CapSense_RunMedianInternal
 1340 00ae 00BF     		.section	.text.CapSense_InitializeAverage,"ax",%progbits
 1341              		.align	2
 1342              		.global	CapSense_InitializeAverage
 1343              		.thumb
 1344              		.thumb_func
 1345              		.type	CapSense_InitializeAverage, %function
 1346              	CapSense_InitializeAverage:
 1347              	.LFB141:
1103:Generated_Source\PSoC6/CapSense_Filter.c **** #endif /* (CapSense_REGULAR_RC_MEDIAN_FILTER_EN || CapSense_PROX_RC_MEDIAN_FILTER_EN) */
1104:Generated_Source\PSoC6/CapSense_Filter.c **** 
1105:Generated_Source\PSoC6/CapSense_Filter.c **** 
1106:Generated_Source\PSoC6/CapSense_Filter.c **** #if (CapSense_REGULAR_RC_AVERAGE_FILTER_EN || CapSense_PROX_RC_AVERAGE_FILTER_EN)
1107:Generated_Source\PSoC6/CapSense_Filter.c **** 
1108:Generated_Source\PSoC6/CapSense_Filter.c **** /*******************************************************************************
1109:Generated_Source\PSoC6/CapSense_Filter.c **** * Function Name: CapSense_InitializeAverage
1110:Generated_Source\PSoC6/CapSense_Filter.c **** ****************************************************************************//**
1111:Generated_Source\PSoC6/CapSense_Filter.c **** *
1112:Generated_Source\PSoC6/CapSense_Filter.c **** * \brief    Initializes the average filter history.
1113:Generated_Source\PSoC6/CapSense_Filter.c **** *
1114:Generated_Source\PSoC6/CapSense_Filter.c **** * \details  Initializes the average filter history.
1115:Generated_Source\PSoC6/CapSense_Filter.c **** *
1116:Generated_Source\PSoC6/CapSense_Filter.c **** * \param    widgetId Specifies the ID number of the widget.
1117:Generated_Source\PSoC6/CapSense_Filter.c **** * \param    sensorId Specifies the ID number of the sensor in the widget.
1118:Generated_Source\PSoC6/CapSense_Filter.c **** *
1119:Generated_Source\PSoC6/CapSense_Filter.c **** *******************************************************************************/
1120:Generated_Source\PSoC6/CapSense_Filter.c **** void CapSense_InitializeAverage(uint32 widgetId, uint32 sensorId)
1121:Generated_Source\PSoC6/CapSense_Filter.c **** {
 1348              		.loc 1 1121 0
 1349              		.cfi_startproc
 1350              		@ args = 0, pretend = 0, frame = 24
 1351              		@ frame_needed = 1, uses_anonymous_args = 0
 1352 0000 80B5     		push	{r7, lr}
 1353              		.cfi_def_cfa_offset 8
 1354              		.cfi_offset 7, -8
 1355              		.cfi_offset 14, -4
 1356 0002 86B0     		sub	sp, sp, #24
 1357              		.cfi_def_cfa_offset 32
 1358 0004 00AF     		add	r7, sp, #0
 1359              		.cfi_def_cfa_register 7
 1360 0006 7860     		str	r0, [r7, #4]
 1361 0008 3960     		str	r1, [r7]
1122:Generated_Source\PSoC6/CapSense_Filter.c ****     CapSense_FLASH_WD_STRUCT const *ptrWidget = &CapSense_dsFlash.wdgtArray[widgetId];
 1362              		.loc 1 1122 0
 1363 000a 7A68     		ldr	r2, [r7, #4]
 1364 000c 1346     		mov	r3, r2
 1365 000e 5B00     		lsls	r3, r3, #1
 1366 0010 1344     		add	r3, r3, r2
 1367 0012 1B01     		lsls	r3, r3, #4
 1368 0014 154A     		ldr	r2, .L66
 1369 0016 1344     		add	r3, r3, r2
 1370 0018 7B61     		str	r3, [r7, #20]
ARM GAS  C:\Users\ikomb\AppData\Local\Temp\cclK6Blf.s 			page 45


1123:Generated_Source\PSoC6/CapSense_Filter.c ****     CapSense_RAM_SNS_STRUCT *ptrSensor = NULL;
 1371              		.loc 1 1123 0
 1372 001a 0023     		movs	r3, #0
 1373 001c 3B61     		str	r3, [r7, #16]
1124:Generated_Source\PSoC6/CapSense_Filter.c ****     CapSense_PTR_FILTER_VARIANT ptrFilterHistObj;
1125:Generated_Source\PSoC6/CapSense_Filter.c **** 
1126:Generated_Source\PSoC6/CapSense_Filter.c ****     /* Find pointer to specified sensor object */
1127:Generated_Source\PSoC6/CapSense_Filter.c ****     ptrSensor = ptrWidget->ptr2SnsRam;
 1374              		.loc 1 1127 0
 1375 001e 7B69     		ldr	r3, [r7, #20]
 1376 0020 9B68     		ldr	r3, [r3, #8]
 1377 0022 3B61     		str	r3, [r7, #16]
1128:Generated_Source\PSoC6/CapSense_Filter.c ****     ptrSensor = &ptrSensor[sensorId];
 1378              		.loc 1 1128 0
 1379 0024 3A68     		ldr	r2, [r7]
 1380 0026 1346     		mov	r3, r2
 1381 0028 9B00     		lsls	r3, r3, #2
 1382 002a 1344     		add	r3, r3, r2
 1383 002c 5B00     		lsls	r3, r3, #1
 1384 002e 1A46     		mov	r2, r3
 1385 0030 3B69     		ldr	r3, [r7, #16]
 1386 0032 1344     		add	r3, r3, r2
 1387 0034 3B61     		str	r3, [r7, #16]
1129:Generated_Source\PSoC6/CapSense_Filter.c **** 
1130:Generated_Source\PSoC6/CapSense_Filter.c ****     /* Find pointer to specified filter sensor object */
1131:Generated_Source\PSoC6/CapSense_Filter.c ****     ptrFilterHistObj.ptr = ptrWidget->ptr2FltrHistory;
 1388              		.loc 1 1131 0
 1389 0036 7B69     		ldr	r3, [r7, #20]
 1390 0038 DB68     		ldr	r3, [r3, #12]
 1391 003a FB60     		str	r3, [r7, #12]
1132:Generated_Source\PSoC6/CapSense_Filter.c **** 
1133:Generated_Source\PSoC6/CapSense_Filter.c ****     if ((CapSense_WD_TYPE_ENUM)ptrWidget->wdgtType != CapSense_WD_PROXIMITY_E)
 1392              		.loc 1 1133 0
 1393 003c 7B69     		ldr	r3, [r7, #20]
 1394 003e 9B7E     		ldrb	r3, [r3, #26]	@ zero_extendqisi2
 1395 0040 062B     		cmp	r3, #6
 1396 0042 07D0     		beq	.L65
1134:Generated_Source\PSoC6/CapSense_Filter.c ****     {
1135:Generated_Source\PSoC6/CapSense_Filter.c ****         #if (CapSense_REGULAR_SENSOR_EN)
1136:Generated_Source\PSoC6/CapSense_Filter.c ****             ptrFilterHistObj.ptrRegular = &ptrFilterHistObj.ptrRegular[sensorId];
 1397              		.loc 1 1136 0
 1398 0044 F968     		ldr	r1, [r7, #12]
 1399 0046 3A68     		ldr	r2, [r7]
 1400 0048 1346     		mov	r3, r2
 1401 004a 9B00     		lsls	r3, r3, #2
 1402 004c 1344     		add	r3, r3, r2
 1403 004e 5B00     		lsls	r3, r3, #1
 1404 0050 0B44     		add	r3, r3, r1
 1405 0052 FB60     		str	r3, [r7, #12]
 1406              	.L65:
1137:Generated_Source\PSoC6/CapSense_Filter.c ****         #endif /* (CapSense_REGULAR_SENSOR_EN) */
1138:Generated_Source\PSoC6/CapSense_Filter.c ****     }
1139:Generated_Source\PSoC6/CapSense_Filter.c ****     else
1140:Generated_Source\PSoC6/CapSense_Filter.c ****     {
1141:Generated_Source\PSoC6/CapSense_Filter.c ****         #if (CapSense_PROXIMITY_SENSOR_EN)
1142:Generated_Source\PSoC6/CapSense_Filter.c ****             ptrFilterHistObj.ptrProx = &ptrFilterHistObj.ptrProx[sensorId];
1143:Generated_Source\PSoC6/CapSense_Filter.c ****         #endif /* (CapSense_PROXIMITY_SENSOR_EN) */
ARM GAS  C:\Users\ikomb\AppData\Local\Temp\cclK6Blf.s 			page 46


1144:Generated_Source\PSoC6/CapSense_Filter.c ****     }
1145:Generated_Source\PSoC6/CapSense_Filter.c **** 
1146:Generated_Source\PSoC6/CapSense_Filter.c ****     CapSense_InitializeAverageInternal(ptrFilterHistObj, ptrSensor, (uint32)ptrWidget->wdgtType);
 1407              		.loc 1 1146 0
 1408 0054 7B69     		ldr	r3, [r7, #20]
 1409 0056 9B7E     		ldrb	r3, [r3, #26]	@ zero_extendqisi2
 1410 0058 1A46     		mov	r2, r3
 1411 005a 3969     		ldr	r1, [r7, #16]
 1412 005c F868     		ldr	r0, [r7, #12]
 1413 005e FFF7FEFF 		bl	CapSense_InitializeAverageInternal
1147:Generated_Source\PSoC6/CapSense_Filter.c **** }
 1414              		.loc 1 1147 0
 1415 0062 00BF     		nop
 1416 0064 1837     		adds	r7, r7, #24
 1417              		.cfi_def_cfa_offset 8
 1418 0066 BD46     		mov	sp, r7
 1419              		.cfi_def_cfa_register 13
 1420              		@ sp needed
 1421 0068 80BD     		pop	{r7, pc}
 1422              	.L67:
 1423 006a 00BF     		.align	2
 1424              	.L66:
 1425 006c 00000000 		.word	CapSense_dsFlash
 1426              		.cfi_endproc
 1427              	.LFE141:
 1428              		.size	CapSense_InitializeAverage, .-CapSense_InitializeAverage
 1429              		.section	.text.CapSense_RunAverage,"ax",%progbits
 1430              		.align	2
 1431              		.global	CapSense_RunAverage
 1432              		.thumb
 1433              		.thumb_func
 1434              		.type	CapSense_RunAverage, %function
 1435              	CapSense_RunAverage:
 1436              	.LFB142:
1148:Generated_Source\PSoC6/CapSense_Filter.c **** 
1149:Generated_Source\PSoC6/CapSense_Filter.c **** 
1150:Generated_Source\PSoC6/CapSense_Filter.c **** /*******************************************************************************
1151:Generated_Source\PSoC6/CapSense_Filter.c **** * Function Name: CapSense_RunAverage
1152:Generated_Source\PSoC6/CapSense_Filter.c **** ****************************************************************************//**
1153:Generated_Source\PSoC6/CapSense_Filter.c **** *
1154:Generated_Source\PSoC6/CapSense_Filter.c **** * \brief    Executes the average filter algorithm on a sensor indicated by an input
1155:Generated_Source\PSoC6/CapSense_Filter.c **** *           parameter.
1156:Generated_Source\PSoC6/CapSense_Filter.c **** *
1157:Generated_Source\PSoC6/CapSense_Filter.c **** * \details  Executes the average filter algorithm on a sensor indicated by an input
1158:Generated_Source\PSoC6/CapSense_Filter.c **** *           parameter.
1159:Generated_Source\PSoC6/CapSense_Filter.c **** *
1160:Generated_Source\PSoC6/CapSense_Filter.c **** * \param    widgetId Specifies the ID number of the widget.
1161:Generated_Source\PSoC6/CapSense_Filter.c **** * \param    sensorId Specifies the ID number of the sensor in the widget.
1162:Generated_Source\PSoC6/CapSense_Filter.c **** *
1163:Generated_Source\PSoC6/CapSense_Filter.c **** *******************************************************************************/
1164:Generated_Source\PSoC6/CapSense_Filter.c **** void CapSense_RunAverage(uint32 widgetId, uint32 sensorId)
1165:Generated_Source\PSoC6/CapSense_Filter.c **** {
 1437              		.loc 1 1165 0
 1438              		.cfi_startproc
 1439              		@ args = 0, pretend = 0, frame = 24
 1440              		@ frame_needed = 1, uses_anonymous_args = 0
 1441 0000 80B5     		push	{r7, lr}
ARM GAS  C:\Users\ikomb\AppData\Local\Temp\cclK6Blf.s 			page 47


 1442              		.cfi_def_cfa_offset 8
 1443              		.cfi_offset 7, -8
 1444              		.cfi_offset 14, -4
 1445 0002 86B0     		sub	sp, sp, #24
 1446              		.cfi_def_cfa_offset 32
 1447 0004 00AF     		add	r7, sp, #0
 1448              		.cfi_def_cfa_register 7
 1449 0006 7860     		str	r0, [r7, #4]
 1450 0008 3960     		str	r1, [r7]
1166:Generated_Source\PSoC6/CapSense_Filter.c ****     CapSense_FLASH_WD_STRUCT const *ptrWidget = &CapSense_dsFlash.wdgtArray[widgetId];
 1451              		.loc 1 1166 0
 1452 000a 7A68     		ldr	r2, [r7, #4]
 1453 000c 1346     		mov	r3, r2
 1454 000e 5B00     		lsls	r3, r3, #1
 1455 0010 1344     		add	r3, r3, r2
 1456 0012 1B01     		lsls	r3, r3, #4
 1457 0014 154A     		ldr	r2, .L70
 1458 0016 1344     		add	r3, r3, r2
 1459 0018 7B61     		str	r3, [r7, #20]
1167:Generated_Source\PSoC6/CapSense_Filter.c ****     CapSense_RAM_SNS_STRUCT *ptrSensor = NULL;
 1460              		.loc 1 1167 0
 1461 001a 0023     		movs	r3, #0
 1462 001c 3B61     		str	r3, [r7, #16]
1168:Generated_Source\PSoC6/CapSense_Filter.c ****     CapSense_PTR_FILTER_VARIANT ptrFilterHistObj;
1169:Generated_Source\PSoC6/CapSense_Filter.c **** 
1170:Generated_Source\PSoC6/CapSense_Filter.c ****     /* Find pointer to specified sensor object */
1171:Generated_Source\PSoC6/CapSense_Filter.c ****     ptrSensor = ptrWidget->ptr2SnsRam;
 1463              		.loc 1 1171 0
 1464 001e 7B69     		ldr	r3, [r7, #20]
 1465 0020 9B68     		ldr	r3, [r3, #8]
 1466 0022 3B61     		str	r3, [r7, #16]
1172:Generated_Source\PSoC6/CapSense_Filter.c ****     ptrSensor = &ptrSensor[sensorId];
 1467              		.loc 1 1172 0
 1468 0024 3A68     		ldr	r2, [r7]
 1469 0026 1346     		mov	r3, r2
 1470 0028 9B00     		lsls	r3, r3, #2
 1471 002a 1344     		add	r3, r3, r2
 1472 002c 5B00     		lsls	r3, r3, #1
 1473 002e 1A46     		mov	r2, r3
 1474 0030 3B69     		ldr	r3, [r7, #16]
 1475 0032 1344     		add	r3, r3, r2
 1476 0034 3B61     		str	r3, [r7, #16]
1173:Generated_Source\PSoC6/CapSense_Filter.c **** 
1174:Generated_Source\PSoC6/CapSense_Filter.c ****     /* Find pointer to specified filter sensor object */
1175:Generated_Source\PSoC6/CapSense_Filter.c ****     ptrFilterHistObj.ptr = ptrWidget->ptr2FltrHistory;
 1477              		.loc 1 1175 0
 1478 0036 7B69     		ldr	r3, [r7, #20]
 1479 0038 DB68     		ldr	r3, [r3, #12]
 1480 003a FB60     		str	r3, [r7, #12]
1176:Generated_Source\PSoC6/CapSense_Filter.c **** 
1177:Generated_Source\PSoC6/CapSense_Filter.c ****     if ((CapSense_WD_TYPE_ENUM)ptrWidget->wdgtType != CapSense_WD_PROXIMITY_E)
 1481              		.loc 1 1177 0
 1482 003c 7B69     		ldr	r3, [r7, #20]
 1483 003e 9B7E     		ldrb	r3, [r3, #26]	@ zero_extendqisi2
 1484 0040 062B     		cmp	r3, #6
 1485 0042 07D0     		beq	.L69
1178:Generated_Source\PSoC6/CapSense_Filter.c ****     {
ARM GAS  C:\Users\ikomb\AppData\Local\Temp\cclK6Blf.s 			page 48


1179:Generated_Source\PSoC6/CapSense_Filter.c ****         #if (CapSense_REGULAR_SENSOR_EN)
1180:Generated_Source\PSoC6/CapSense_Filter.c ****             ptrFilterHistObj.ptrRegular = &ptrFilterHistObj.ptrRegular[sensorId];
 1486              		.loc 1 1180 0
 1487 0044 F968     		ldr	r1, [r7, #12]
 1488 0046 3A68     		ldr	r2, [r7]
 1489 0048 1346     		mov	r3, r2
 1490 004a 9B00     		lsls	r3, r3, #2
 1491 004c 1344     		add	r3, r3, r2
 1492 004e 5B00     		lsls	r3, r3, #1
 1493 0050 0B44     		add	r3, r3, r1
 1494 0052 FB60     		str	r3, [r7, #12]
 1495              	.L69:
1181:Generated_Source\PSoC6/CapSense_Filter.c ****         #endif /* (CapSense_REGULAR_SENSOR_EN) */
1182:Generated_Source\PSoC6/CapSense_Filter.c ****     }
1183:Generated_Source\PSoC6/CapSense_Filter.c ****     else
1184:Generated_Source\PSoC6/CapSense_Filter.c ****     {
1185:Generated_Source\PSoC6/CapSense_Filter.c ****         #if (CapSense_PROXIMITY_SENSOR_EN)
1186:Generated_Source\PSoC6/CapSense_Filter.c ****             ptrFilterHistObj.ptrProx = &ptrFilterHistObj.ptrProx[sensorId];
1187:Generated_Source\PSoC6/CapSense_Filter.c ****         #endif /* (CapSense_PROXIMITY_SENSOR_EN) */
1188:Generated_Source\PSoC6/CapSense_Filter.c ****     }
1189:Generated_Source\PSoC6/CapSense_Filter.c **** 
1190:Generated_Source\PSoC6/CapSense_Filter.c ****     CapSense_RunAverageInternal(ptrFilterHistObj, ptrSensor, (uint32)ptrWidget->wdgtType);
 1496              		.loc 1 1190 0
 1497 0054 7B69     		ldr	r3, [r7, #20]
 1498 0056 9B7E     		ldrb	r3, [r3, #26]	@ zero_extendqisi2
 1499 0058 1A46     		mov	r2, r3
 1500 005a 3969     		ldr	r1, [r7, #16]
 1501 005c F868     		ldr	r0, [r7, #12]
 1502 005e FFF7FEFF 		bl	CapSense_RunAverageInternal
1191:Generated_Source\PSoC6/CapSense_Filter.c **** }
 1503              		.loc 1 1191 0
 1504 0062 00BF     		nop
 1505 0064 1837     		adds	r7, r7, #24
 1506              		.cfi_def_cfa_offset 8
 1507 0066 BD46     		mov	sp, r7
 1508              		.cfi_def_cfa_register 13
 1509              		@ sp needed
 1510 0068 80BD     		pop	{r7, pc}
 1511              	.L71:
 1512 006a 00BF     		.align	2
 1513              	.L70:
 1514 006c 00000000 		.word	CapSense_dsFlash
 1515              		.cfi_endproc
 1516              	.LFE142:
 1517              		.size	CapSense_RunAverage, .-CapSense_RunAverage
 1518              		.section	.text.CapSense_InitializeAverageInternal,"ax",%progbits
 1519              		.align	2
 1520              		.global	CapSense_InitializeAverageInternal
 1521              		.thumb
 1522              		.thumb_func
 1523              		.type	CapSense_InitializeAverageInternal, %function
 1524              	CapSense_InitializeAverageInternal:
 1525              	.LFB143:
1192:Generated_Source\PSoC6/CapSense_Filter.c **** 
1193:Generated_Source\PSoC6/CapSense_Filter.c **** 
1194:Generated_Source\PSoC6/CapSense_Filter.c **** /*******************************************************************************
1195:Generated_Source\PSoC6/CapSense_Filter.c **** * Function Name: CapSense_InitializeAverageInternal
ARM GAS  C:\Users\ikomb\AppData\Local\Temp\cclK6Blf.s 			page 49


1196:Generated_Source\PSoC6/CapSense_Filter.c **** ****************************************************************************//**
1197:Generated_Source\PSoC6/CapSense_Filter.c **** *
1198:Generated_Source\PSoC6/CapSense_Filter.c **** * \brief    Initializes the average filter.
1199:Generated_Source\PSoC6/CapSense_Filter.c **** *
1200:Generated_Source\PSoC6/CapSense_Filter.c **** * \details  Initializes the average filter.
1201:Generated_Source\PSoC6/CapSense_Filter.c **** *
1202:Generated_Source\PSoC6/CapSense_Filter.c **** * \param    ptrFilterHistObj The pointer to the filter RAM object of the sensor.
1203:Generated_Source\PSoC6/CapSense_Filter.c **** * \param    ptrSensorObj     The pointer to the sensor RAM object of the sensor.
1204:Generated_Source\PSoC6/CapSense_Filter.c **** * \param    wdType           Specifies the type of a widget.
1205:Generated_Source\PSoC6/CapSense_Filter.c **** *
1206:Generated_Source\PSoC6/CapSense_Filter.c **** *******************************************************************************/
1207:Generated_Source\PSoC6/CapSense_Filter.c **** void CapSense_InitializeAverageInternal(CapSense_PTR_FILTER_VARIANT ptrFilterHistObj,\
1208:Generated_Source\PSoC6/CapSense_Filter.c ****                                                   CapSense_RAM_SNS_STRUCT *ptrSensorObj, uint32 wdT
1209:Generated_Source\PSoC6/CapSense_Filter.c **** {
 1526              		.loc 1 1209 0
 1527              		.cfi_startproc
 1528              		@ args = 0, pretend = 0, frame = 24
 1529              		@ frame_needed = 1, uses_anonymous_args = 0
 1530              		@ link register save eliminated.
 1531 0000 80B4     		push	{r7}
 1532              		.cfi_def_cfa_offset 4
 1533              		.cfi_offset 7, -4
 1534 0002 87B0     		sub	sp, sp, #28
 1535              		.cfi_def_cfa_offset 32
 1536 0004 00AF     		add	r7, sp, #0
 1537              		.cfi_def_cfa_register 7
 1538 0006 F860     		str	r0, [r7, #12]
 1539 0008 B960     		str	r1, [r7, #8]
 1540 000a 7A60     		str	r2, [r7, #4]
1210:Generated_Source\PSoC6/CapSense_Filter.c ****     uint32 freqChannel;
1211:Generated_Source\PSoC6/CapSense_Filter.c **** 
1212:Generated_Source\PSoC6/CapSense_Filter.c ****     for(freqChannel = CapSense_NUM_SCAN_FREQS; freqChannel-- > 0u;)
 1541              		.loc 1 1212 0
 1542 000c 0123     		movs	r3, #1
 1543 000e 7B61     		str	r3, [r7, #20]
 1544 0010 2DE0     		b	.L73
 1545              	.L74:
1213:Generated_Source\PSoC6/CapSense_Filter.c ****     {
1214:Generated_Source\PSoC6/CapSense_Filter.c ****         if ((CapSense_WD_TYPE_ENUM)wdType != CapSense_WD_PROXIMITY_E)
 1546              		.loc 1 1214 0
 1547 0012 7B68     		ldr	r3, [r7, #4]
 1548 0014 DBB2     		uxtb	r3, r3
 1549 0016 062B     		cmp	r3, #6
 1550 0018 29D0     		beq	.L73
1215:Generated_Source\PSoC6/CapSense_Filter.c ****         {
1216:Generated_Source\PSoC6/CapSense_Filter.c ****             #if (CapSense_REGULAR_SENSOR_EN && CapSense_REGULAR_RC_AVERAGE_FILTER_EN)
1217:Generated_Source\PSoC6/CapSense_Filter.c ****                 ptrFilterHistObj.ptrRegular->regularChannel[freqChannel].avgHistory[0] = ptrSensorO
 1551              		.loc 1 1217 0
 1552 001a F968     		ldr	r1, [r7, #12]
 1553 001c BB68     		ldr	r3, [r7, #8]
 1554 001e 7A69     		ldr	r2, [r7, #20]
 1555 0020 33F81200 		ldrh	r0, [r3, r2, lsl #1]
 1556 0024 7A69     		ldr	r2, [r7, #20]
 1557 0026 1346     		mov	r3, r2
 1558 0028 9B00     		lsls	r3, r3, #2
 1559 002a 1344     		add	r3, r3, r2
 1560 002c 5B00     		lsls	r3, r3, #1
ARM GAS  C:\Users\ikomb\AppData\Local\Temp\cclK6Blf.s 			page 50


 1561 002e 0B44     		add	r3, r3, r1
 1562 0030 0433     		adds	r3, r3, #4
 1563 0032 0246     		mov	r2, r0	@ movhi
 1564 0034 1A80     		strh	r2, [r3]	@ movhi
1218:Generated_Source\PSoC6/CapSense_Filter.c ****                 #if (CapSense_REGULAR_AVERAGE_LEN == CapSense_AVERAGE_FILTER_LEN_4)
1219:Generated_Source\PSoC6/CapSense_Filter.c ****                     ptrFilterHistObj.ptrRegular->regularChannel[freqChannel].avgHistory[1u] = ptrSe
 1565              		.loc 1 1219 0
 1566 0036 F968     		ldr	r1, [r7, #12]
 1567 0038 BB68     		ldr	r3, [r7, #8]
 1568 003a 7A69     		ldr	r2, [r7, #20]
 1569 003c 33F81200 		ldrh	r0, [r3, r2, lsl #1]
 1570 0040 7A69     		ldr	r2, [r7, #20]
 1571 0042 1346     		mov	r3, r2
 1572 0044 9B00     		lsls	r3, r3, #2
 1573 0046 1344     		add	r3, r3, r2
 1574 0048 5B00     		lsls	r3, r3, #1
 1575 004a 0B44     		add	r3, r3, r1
 1576 004c 0633     		adds	r3, r3, #6
 1577 004e 0246     		mov	r2, r0	@ movhi
 1578 0050 1A80     		strh	r2, [r3]	@ movhi
1220:Generated_Source\PSoC6/CapSense_Filter.c ****                     ptrFilterHistObj.ptrRegular->regularChannel[freqChannel].avgHistory[2u] = ptrSe
 1579              		.loc 1 1220 0
 1580 0052 F968     		ldr	r1, [r7, #12]
 1581 0054 BB68     		ldr	r3, [r7, #8]
 1582 0056 7A69     		ldr	r2, [r7, #20]
 1583 0058 33F81200 		ldrh	r0, [r3, r2, lsl #1]
 1584 005c 7A69     		ldr	r2, [r7, #20]
 1585 005e 1346     		mov	r3, r2
 1586 0060 9B00     		lsls	r3, r3, #2
 1587 0062 1344     		add	r3, r3, r2
 1588 0064 5B00     		lsls	r3, r3, #1
 1589 0066 0B44     		add	r3, r3, r1
 1590 0068 0833     		adds	r3, r3, #8
 1591 006a 0246     		mov	r2, r0	@ movhi
 1592 006c 1A80     		strh	r2, [r3]	@ movhi
 1593              	.L73:
1212:Generated_Source\PSoC6/CapSense_Filter.c ****     {
 1594              		.loc 1 1212 0 discriminator 1
 1595 006e 7B69     		ldr	r3, [r7, #20]
 1596 0070 5A1E     		subs	r2, r3, #1
 1597 0072 7A61     		str	r2, [r7, #20]
 1598 0074 002B     		cmp	r3, #0
 1599 0076 CCD1     		bne	.L74
1221:Generated_Source\PSoC6/CapSense_Filter.c ****                 #endif /* CapSense_REGULAR_AVERAGE_LEN == CapSense_AVERAGE_FILTER_LEN_4 */
1222:Generated_Source\PSoC6/CapSense_Filter.c ****             #endif /* (CapSense_REGULAR_SENSOR_EN) */
1223:Generated_Source\PSoC6/CapSense_Filter.c ****         }
1224:Generated_Source\PSoC6/CapSense_Filter.c ****         else
1225:Generated_Source\PSoC6/CapSense_Filter.c ****         {
1226:Generated_Source\PSoC6/CapSense_Filter.c ****             #if (CapSense_PROXIMITY_SENSOR_EN && CapSense_PROX_RC_AVERAGE_FILTER_EN)
1227:Generated_Source\PSoC6/CapSense_Filter.c ****                 ptrFilterHistObj.ptrProx->proxChannel[freqChannel].avgHistory[0] = ptrSensorObj->ra
1228:Generated_Source\PSoC6/CapSense_Filter.c ****                     #if (CapSense_PROX_AVERAGE_LEN == CapSense_AVERAGE_FILTER_LEN_4)
1229:Generated_Source\PSoC6/CapSense_Filter.c ****                         ptrFilterHistObj.ptrProx->proxChannel[freqChannel].avgHistory[1u] = ptrSens
1230:Generated_Source\PSoC6/CapSense_Filter.c ****                         ptrFilterHistObj.ptrProx->proxChannel[freqChannel].avgHistory[2u] = ptrSens
1231:Generated_Source\PSoC6/CapSense_Filter.c ****                     #endif /* CapSense_REGULAR_AVERAGE_LEN == CapSense_AVERAGE_FILTER_LEN_4 */
1232:Generated_Source\PSoC6/CapSense_Filter.c ****             #endif /* (CapSense_PROXIMITY_SENSOR_EN) */
1233:Generated_Source\PSoC6/CapSense_Filter.c ****         }
1234:Generated_Source\PSoC6/CapSense_Filter.c ****     }
ARM GAS  C:\Users\ikomb\AppData\Local\Temp\cclK6Blf.s 			page 51


1235:Generated_Source\PSoC6/CapSense_Filter.c **** }
 1600              		.loc 1 1235 0
 1601 0078 00BF     		nop
 1602 007a 1C37     		adds	r7, r7, #28
 1603              		.cfi_def_cfa_offset 4
 1604 007c BD46     		mov	sp, r7
 1605              		.cfi_def_cfa_register 13
 1606              		@ sp needed
 1607 007e 5DF8047B 		ldr	r7, [sp], #4
 1608              		.cfi_restore 7
 1609              		.cfi_def_cfa_offset 0
 1610 0082 7047     		bx	lr
 1611              		.cfi_endproc
 1612              	.LFE143:
 1613              		.size	CapSense_InitializeAverageInternal, .-CapSense_InitializeAverageInternal
 1614              		.section	.text.CapSense_RunAverageInternal,"ax",%progbits
 1615              		.align	2
 1616              		.global	CapSense_RunAverageInternal
 1617              		.thumb
 1618              		.thumb_func
 1619              		.type	CapSense_RunAverageInternal, %function
 1620              	CapSense_RunAverageInternal:
 1621              	.LFB144:
1236:Generated_Source\PSoC6/CapSense_Filter.c **** 
1237:Generated_Source\PSoC6/CapSense_Filter.c **** 
1238:Generated_Source\PSoC6/CapSense_Filter.c **** /*******************************************************************************
1239:Generated_Source\PSoC6/CapSense_Filter.c **** * Function Name: CapSense_RunAverageInternal
1240:Generated_Source\PSoC6/CapSense_Filter.c **** ****************************************************************************//**
1241:Generated_Source\PSoC6/CapSense_Filter.c **** *
1242:Generated_Source\PSoC6/CapSense_Filter.c **** * \brief    Runs the average filter.
1243:Generated_Source\PSoC6/CapSense_Filter.c **** *
1244:Generated_Source\PSoC6/CapSense_Filter.c **** * \details  Runs the average filter.
1245:Generated_Source\PSoC6/CapSense_Filter.c **** *
1246:Generated_Source\PSoC6/CapSense_Filter.c **** * \param    ptrFilterHistObj The pointer to the filter RAM object of the sensor.
1247:Generated_Source\PSoC6/CapSense_Filter.c **** * \param    ptrSensorObj     The pointer to the sensor RAM object of the sensor.
1248:Generated_Source\PSoC6/CapSense_Filter.c **** * \param    wdType           Specifies the type of a widget.
1249:Generated_Source\PSoC6/CapSense_Filter.c **** *
1250:Generated_Source\PSoC6/CapSense_Filter.c **** *******************************************************************************/
1251:Generated_Source\PSoC6/CapSense_Filter.c **** void CapSense_RunAverageInternal(CapSense_PTR_FILTER_VARIANT ptrFilterHistObj,\
1252:Generated_Source\PSoC6/CapSense_Filter.c ****                                            CapSense_RAM_SNS_STRUCT *ptrSensorObj, uint32 wdType)
1253:Generated_Source\PSoC6/CapSense_Filter.c **** {
 1622              		.loc 1 1253 0
 1623              		.cfi_startproc
 1624              		@ args = 0, pretend = 0, frame = 24
 1625              		@ frame_needed = 1, uses_anonymous_args = 0
 1626              		@ link register save eliminated.
 1627 0000 80B4     		push	{r7}
 1628              		.cfi_def_cfa_offset 4
 1629              		.cfi_offset 7, -4
 1630 0002 87B0     		sub	sp, sp, #28
 1631              		.cfi_def_cfa_offset 32
 1632 0004 00AF     		add	r7, sp, #0
 1633              		.cfi_def_cfa_register 7
 1634 0006 F860     		str	r0, [r7, #12]
 1635 0008 B960     		str	r1, [r7, #8]
 1636 000a 7A60     		str	r2, [r7, #4]
1254:Generated_Source\PSoC6/CapSense_Filter.c ****     uint32 freqChannel;
ARM GAS  C:\Users\ikomb\AppData\Local\Temp\cclK6Blf.s 			page 52


1255:Generated_Source\PSoC6/CapSense_Filter.c ****     uint32 temp;
1256:Generated_Source\PSoC6/CapSense_Filter.c **** 
1257:Generated_Source\PSoC6/CapSense_Filter.c ****     for(freqChannel = CapSense_NUM_SCAN_FREQS; freqChannel-- > 0u;)
 1637              		.loc 1 1257 0
 1638 000c 0123     		movs	r3, #1
 1639 000e 7B61     		str	r3, [r7, #20]
 1640 0010 62E0     		b	.L76
 1641              	.L77:
1258:Generated_Source\PSoC6/CapSense_Filter.c ****     {
1259:Generated_Source\PSoC6/CapSense_Filter.c ****         if ((CapSense_WD_TYPE_ENUM)wdType != CapSense_WD_PROXIMITY_E)
 1642              		.loc 1 1259 0
 1643 0012 7B68     		ldr	r3, [r7, #4]
 1644 0014 DBB2     		uxtb	r3, r3
 1645 0016 062B     		cmp	r3, #6
 1646 0018 5ED0     		beq	.L76
1260:Generated_Source\PSoC6/CapSense_Filter.c ****         {
1261:Generated_Source\PSoC6/CapSense_Filter.c ****             #if (CapSense_REGULAR_SENSOR_EN && CapSense_REGULAR_RC_AVERAGE_FILTER_EN)
1262:Generated_Source\PSoC6/CapSense_Filter.c ****                 #if (CapSense_REGULAR_AVERAGE_LEN == CapSense_AVERAGE_FILTER_LEN_2)
1263:Generated_Source\PSoC6/CapSense_Filter.c ****                     temp = ((uint32)ptrSensorObj->raw[freqChannel] +
1264:Generated_Source\PSoC6/CapSense_Filter.c ****                             (uint32)ptrFilterHistObj.ptrRegular->regularChannel[freqChannel].avgHis
1265:Generated_Source\PSoC6/CapSense_Filter.c ****                     ptrFilterHistObj.ptrRegular->regularChannel[freqChannel].avgHistory[0] = ptrSen
1266:Generated_Source\PSoC6/CapSense_Filter.c ****                     ptrSensorObj->raw[freqChannel] = CY_LO16(temp);
1267:Generated_Source\PSoC6/CapSense_Filter.c ****                 #else
1268:Generated_Source\PSoC6/CapSense_Filter.c ****                     temp = ((uint32)ptrSensorObj->raw[freqChannel] +
 1647              		.loc 1 1268 0
 1648 001a BB68     		ldr	r3, [r7, #8]
 1649 001c 7A69     		ldr	r2, [r7, #20]
 1650 001e 33F81230 		ldrh	r3, [r3, r2, lsl #1]
 1651 0022 1846     		mov	r0, r3
1269:Generated_Source\PSoC6/CapSense_Filter.c ****                             (uint32)ptrFilterHistObj.ptrRegular->regularChannel[freqChannel].avgHis
 1652              		.loc 1 1269 0
 1653 0024 F968     		ldr	r1, [r7, #12]
 1654 0026 7A69     		ldr	r2, [r7, #20]
 1655 0028 1346     		mov	r3, r2
 1656 002a 9B00     		lsls	r3, r3, #2
 1657 002c 1344     		add	r3, r3, r2
 1658 002e 5B00     		lsls	r3, r3, #1
 1659 0030 0B44     		add	r3, r3, r1
 1660 0032 0433     		adds	r3, r3, #4
 1661 0034 1B88     		ldrh	r3, [r3]
1268:Generated_Source\PSoC6/CapSense_Filter.c ****                             (uint32)ptrFilterHistObj.ptrRegular->regularChannel[freqChannel].avgHis
 1662              		.loc 1 1268 0
 1663 0036 C118     		adds	r1, r0, r3
1270:Generated_Source\PSoC6/CapSense_Filter.c ****                             (uint32)ptrFilterHistObj.ptrRegular->regularChannel[freqChannel].avgHis
 1664              		.loc 1 1270 0
 1665 0038 F868     		ldr	r0, [r7, #12]
 1666 003a 7A69     		ldr	r2, [r7, #20]
 1667 003c 1346     		mov	r3, r2
 1668 003e 9B00     		lsls	r3, r3, #2
 1669 0040 1344     		add	r3, r3, r2
 1670 0042 5B00     		lsls	r3, r3, #1
 1671 0044 0344     		add	r3, r3, r0
 1672 0046 0633     		adds	r3, r3, #6
 1673 0048 1B88     		ldrh	r3, [r3]
1269:Generated_Source\PSoC6/CapSense_Filter.c ****                             (uint32)ptrFilterHistObj.ptrRegular->regularChannel[freqChannel].avgHis
 1674              		.loc 1 1269 0
 1675 004a 1944     		add	r1, r1, r3
ARM GAS  C:\Users\ikomb\AppData\Local\Temp\cclK6Blf.s 			page 53


1271:Generated_Source\PSoC6/CapSense_Filter.c ****                             (uint32)ptrFilterHistObj.ptrRegular->regularChannel[freqChannel].avgHis
 1676              		.loc 1 1271 0
 1677 004c F868     		ldr	r0, [r7, #12]
 1678 004e 7A69     		ldr	r2, [r7, #20]
 1679 0050 1346     		mov	r3, r2
 1680 0052 9B00     		lsls	r3, r3, #2
 1681 0054 1344     		add	r3, r3, r2
 1682 0056 5B00     		lsls	r3, r3, #1
 1683 0058 0344     		add	r3, r3, r0
 1684 005a 0833     		adds	r3, r3, #8
 1685 005c 1B88     		ldrh	r3, [r3]
1270:Generated_Source\PSoC6/CapSense_Filter.c ****                             (uint32)ptrFilterHistObj.ptrRegular->regularChannel[freqChannel].avgHis
 1686              		.loc 1 1270 0
 1687 005e 0B44     		add	r3, r3, r1
1268:Generated_Source\PSoC6/CapSense_Filter.c ****                             (uint32)ptrFilterHistObj.ptrRegular->regularChannel[freqChannel].avgHis
 1688              		.loc 1 1268 0
 1689 0060 9B08     		lsrs	r3, r3, #2
 1690 0062 3B61     		str	r3, [r7, #16]
1272:Generated_Source\PSoC6/CapSense_Filter.c **** 
1273:Generated_Source\PSoC6/CapSense_Filter.c ****                     ptrFilterHistObj.ptrRegular->regularChannel[freqChannel].avgHistory[2u] =
 1691              		.loc 1 1273 0
 1692 0064 F968     		ldr	r1, [r7, #12]
1274:Generated_Source\PSoC6/CapSense_Filter.c ****                     ptrFilterHistObj.ptrRegular->regularChannel[freqChannel].avgHistory[1u];
 1693              		.loc 1 1274 0
 1694 0066 F868     		ldr	r0, [r7, #12]
 1695 0068 7A69     		ldr	r2, [r7, #20]
 1696 006a 1346     		mov	r3, r2
 1697 006c 9B00     		lsls	r3, r3, #2
 1698 006e 1344     		add	r3, r3, r2
 1699 0070 5B00     		lsls	r3, r3, #1
 1700 0072 0344     		add	r3, r3, r0
 1701 0074 0633     		adds	r3, r3, #6
 1702 0076 1888     		ldrh	r0, [r3]
1273:Generated_Source\PSoC6/CapSense_Filter.c ****                     ptrFilterHistObj.ptrRegular->regularChannel[freqChannel].avgHistory[1u];
 1703              		.loc 1 1273 0
 1704 0078 7A69     		ldr	r2, [r7, #20]
 1705 007a 1346     		mov	r3, r2
 1706 007c 9B00     		lsls	r3, r3, #2
 1707 007e 1344     		add	r3, r3, r2
 1708 0080 5B00     		lsls	r3, r3, #1
 1709 0082 0B44     		add	r3, r3, r1
 1710 0084 0833     		adds	r3, r3, #8
 1711 0086 0246     		mov	r2, r0	@ movhi
 1712 0088 1A80     		strh	r2, [r3]	@ movhi
1275:Generated_Source\PSoC6/CapSense_Filter.c ****                     ptrFilterHistObj.ptrRegular->regularChannel[freqChannel].avgHistory[1u] =
 1713              		.loc 1 1275 0
 1714 008a F968     		ldr	r1, [r7, #12]
1276:Generated_Source\PSoC6/CapSense_Filter.c ****                     ptrFilterHistObj.ptrRegular->regularChannel[freqChannel].avgHistory[0];
 1715              		.loc 1 1276 0
 1716 008c F868     		ldr	r0, [r7, #12]
 1717 008e 7A69     		ldr	r2, [r7, #20]
 1718 0090 1346     		mov	r3, r2
 1719 0092 9B00     		lsls	r3, r3, #2
 1720 0094 1344     		add	r3, r3, r2
 1721 0096 5B00     		lsls	r3, r3, #1
 1722 0098 0344     		add	r3, r3, r0
 1723 009a 0433     		adds	r3, r3, #4
ARM GAS  C:\Users\ikomb\AppData\Local\Temp\cclK6Blf.s 			page 54


 1724 009c 1888     		ldrh	r0, [r3]
1275:Generated_Source\PSoC6/CapSense_Filter.c ****                     ptrFilterHistObj.ptrRegular->regularChannel[freqChannel].avgHistory[1u] =
 1725              		.loc 1 1275 0
 1726 009e 7A69     		ldr	r2, [r7, #20]
 1727 00a0 1346     		mov	r3, r2
 1728 00a2 9B00     		lsls	r3, r3, #2
 1729 00a4 1344     		add	r3, r3, r2
 1730 00a6 5B00     		lsls	r3, r3, #1
 1731 00a8 0B44     		add	r3, r3, r1
 1732 00aa 0633     		adds	r3, r3, #6
 1733 00ac 0246     		mov	r2, r0	@ movhi
 1734 00ae 1A80     		strh	r2, [r3]	@ movhi
1277:Generated_Source\PSoC6/CapSense_Filter.c ****                     ptrFilterHistObj.ptrRegular->regularChannel[freqChannel].avgHistory[0] = ptrSen
 1735              		.loc 1 1277 0
 1736 00b0 F968     		ldr	r1, [r7, #12]
 1737 00b2 BB68     		ldr	r3, [r7, #8]
 1738 00b4 7A69     		ldr	r2, [r7, #20]
 1739 00b6 33F81200 		ldrh	r0, [r3, r2, lsl #1]
 1740 00ba 7A69     		ldr	r2, [r7, #20]
 1741 00bc 1346     		mov	r3, r2
 1742 00be 9B00     		lsls	r3, r3, #2
 1743 00c0 1344     		add	r3, r3, r2
 1744 00c2 5B00     		lsls	r3, r3, #1
 1745 00c4 0B44     		add	r3, r3, r1
 1746 00c6 0433     		adds	r3, r3, #4
 1747 00c8 0246     		mov	r2, r0	@ movhi
 1748 00ca 1A80     		strh	r2, [r3]	@ movhi
1278:Generated_Source\PSoC6/CapSense_Filter.c ****                     ptrSensorObj->raw[freqChannel] = CY_LO16(temp);
 1749              		.loc 1 1278 0
 1750 00cc 3B69     		ldr	r3, [r7, #16]
 1751 00ce 99B2     		uxth	r1, r3
 1752 00d0 BB68     		ldr	r3, [r7, #8]
 1753 00d2 7A69     		ldr	r2, [r7, #20]
 1754 00d4 23F81210 		strh	r1, [r3, r2, lsl #1]	@ movhi
 1755              	.L76:
1257:Generated_Source\PSoC6/CapSense_Filter.c ****     {
 1756              		.loc 1 1257 0 discriminator 1
 1757 00d8 7B69     		ldr	r3, [r7, #20]
 1758 00da 5A1E     		subs	r2, r3, #1
 1759 00dc 7A61     		str	r2, [r7, #20]
 1760 00de 002B     		cmp	r3, #0
 1761 00e0 97D1     		bne	.L77
1279:Generated_Source\PSoC6/CapSense_Filter.c ****                 #endif /* CapSense_REGULAR_AVERAGE_LEN == CapSense_AVERAGE_FILTER_LEN_4 */
1280:Generated_Source\PSoC6/CapSense_Filter.c ****             #endif /* (CapSense_REGULAR_SENSOR_EN) */
1281:Generated_Source\PSoC6/CapSense_Filter.c ****         }
1282:Generated_Source\PSoC6/CapSense_Filter.c ****         else
1283:Generated_Source\PSoC6/CapSense_Filter.c ****         {
1284:Generated_Source\PSoC6/CapSense_Filter.c ****             #if (CapSense_PROXIMITY_SENSOR_EN && CapSense_PROX_RC_AVERAGE_FILTER_EN)
1285:Generated_Source\PSoC6/CapSense_Filter.c ****                 #if (CapSense_PROX_AVERAGE_LEN == CapSense_AVERAGE_FILTER_LEN_2)
1286:Generated_Source\PSoC6/CapSense_Filter.c ****                     temp = ((uint32)ptrSensorObj->raw[freqChannel] +
1287:Generated_Source\PSoC6/CapSense_Filter.c ****                             (uint32)ptrFilterHistObj.ptrProx->proxChannel[freqChannel].avgHistory[0
1288:Generated_Source\PSoC6/CapSense_Filter.c ****                     ptrFilterHistObj.ptrProx->proxChannel[freqChannel].avgHistory[0] = ptrSensorObj
1289:Generated_Source\PSoC6/CapSense_Filter.c ****                     ptrSensorObj->raw[freqChannel] = CY_LO16(temp);
1290:Generated_Source\PSoC6/CapSense_Filter.c ****                 #else
1291:Generated_Source\PSoC6/CapSense_Filter.c ****                     temp = ((uint32)ptrSensorObj->raw[freqChannel] +
1292:Generated_Source\PSoC6/CapSense_Filter.c ****                             (uint32)ptrFilterHistObj.ptrProx->proxChannel[freqChannel].avgHistory[0
1293:Generated_Source\PSoC6/CapSense_Filter.c ****                             (uint32)ptrFilterHistObj.ptrProx->proxChannel[freqChannel].avgHistory[1
ARM GAS  C:\Users\ikomb\AppData\Local\Temp\cclK6Blf.s 			page 55


1294:Generated_Source\PSoC6/CapSense_Filter.c ****                             (uint32)ptrFilterHistObj.ptrProx->proxChannel[freqChannel].avgHistory[2
1295:Generated_Source\PSoC6/CapSense_Filter.c **** 
1296:Generated_Source\PSoC6/CapSense_Filter.c ****                     ptrFilterHistObj.ptrProx->proxChannel[freqChannel].avgHistory[2u] =
1297:Generated_Source\PSoC6/CapSense_Filter.c ****                     ptrFilterHistObj.ptrProx->proxChannel[freqChannel].avgHistory[1u];
1298:Generated_Source\PSoC6/CapSense_Filter.c ****                     ptrFilterHistObj.ptrProx->proxChannel[freqChannel].avgHistory[1u] =
1299:Generated_Source\PSoC6/CapSense_Filter.c ****                     ptrFilterHistObj.ptrProx->proxChannel[freqChannel].avgHistory[0];
1300:Generated_Source\PSoC6/CapSense_Filter.c ****                     ptrFilterHistObj.ptrProx->proxChannel[freqChannel].avgHistory[0] = ptrSensorObj
1301:Generated_Source\PSoC6/CapSense_Filter.c ****                     ptrSensorObj->raw[freqChannel] = CY_LO16(temp);
1302:Generated_Source\PSoC6/CapSense_Filter.c ****                 #endif /* CapSense_PROX_AVERAGE_LEN == CapSense_AVERAGE_FILTER_LEN_4 */
1303:Generated_Source\PSoC6/CapSense_Filter.c ****             #endif /* (CapSense_PROXIMITY_SENSOR_EN) */
1304:Generated_Source\PSoC6/CapSense_Filter.c ****         }
1305:Generated_Source\PSoC6/CapSense_Filter.c ****     }
1306:Generated_Source\PSoC6/CapSense_Filter.c **** }
 1762              		.loc 1 1306 0
 1763 00e2 00BF     		nop
 1764 00e4 1C37     		adds	r7, r7, #28
 1765              		.cfi_def_cfa_offset 4
 1766 00e6 BD46     		mov	sp, r7
 1767              		.cfi_def_cfa_register 13
 1768              		@ sp needed
 1769 00e8 5DF8047B 		ldr	r7, [sp], #4
 1770              		.cfi_restore 7
 1771              		.cfi_def_cfa_offset 0
 1772 00ec 7047     		bx	lr
 1773              		.cfi_endproc
 1774              	.LFE144:
 1775              		.size	CapSense_RunAverageInternal, .-CapSense_RunAverageInternal
 1776 00ee 00BF     		.section	.text.CapSense_FtRunEnabledFilters,"ax",%progbits
 1777              		.align	2
 1778              		.global	CapSense_FtRunEnabledFilters
 1779              		.thumb
 1780              		.thumb_func
 1781              		.type	CapSense_FtRunEnabledFilters, %function
 1782              	CapSense_FtRunEnabledFilters:
 1783              	.LFB145:
1307:Generated_Source\PSoC6/CapSense_Filter.c **** #endif /* (CapSense_REGULAR_RC_AVERAGE_FILTER_EN || CapSense_PROX_RC_AVERAGE_FILTER_EN) */
1308:Generated_Source\PSoC6/CapSense_Filter.c **** 
1309:Generated_Source\PSoC6/CapSense_Filter.c **** #if (CapSense_ENABLE == CapSense_ALP_FILTER_EN)
1310:Generated_Source\PSoC6/CapSense_Filter.c **** /*******************************************************************************
1311:Generated_Source\PSoC6/CapSense_Filter.c **** * Function Name: CapSense_InitializeALP
1312:Generated_Source\PSoC6/CapSense_Filter.c **** ****************************************************************************//**
1313:Generated_Source\PSoC6/CapSense_Filter.c **** *
1314:Generated_Source\PSoC6/CapSense_Filter.c **** * \brief    Initializes the ALP filter history.
1315:Generated_Source\PSoC6/CapSense_Filter.c **** *
1316:Generated_Source\PSoC6/CapSense_Filter.c **** * \details  Initializes the ALP filter history.
1317:Generated_Source\PSoC6/CapSense_Filter.c **** *
1318:Generated_Source\PSoC6/CapSense_Filter.c **** * \param    widgetId Specifies the ID number of the widget.
1319:Generated_Source\PSoC6/CapSense_Filter.c **** * \param    sensorId Specifies the ID number of the sensor in the widget.
1320:Generated_Source\PSoC6/CapSense_Filter.c **** *
1321:Generated_Source\PSoC6/CapSense_Filter.c **** *******************************************************************************/
1322:Generated_Source\PSoC6/CapSense_Filter.c **** void CapSense_InitializeALP(uint32 widgetId, uint32 sensorId)
1323:Generated_Source\PSoC6/CapSense_Filter.c **** {
1324:Generated_Source\PSoC6/CapSense_Filter.c ****     CapSense_FLASH_WD_STRUCT const *ptrWidget = &CapSense_dsFlash.wdgtArray[widgetId];
1325:Generated_Source\PSoC6/CapSense_Filter.c ****     CapSense_RAM_SNS_STRUCT *ptrSensor = NULL;
1326:Generated_Source\PSoC6/CapSense_Filter.c ****     CapSense_PTR_FILTER_VARIANT ptrFilterHistObj;
1327:Generated_Source\PSoC6/CapSense_Filter.c **** 
1328:Generated_Source\PSoC6/CapSense_Filter.c ****     /* Find pointer to specified sensor object */
ARM GAS  C:\Users\ikomb\AppData\Local\Temp\cclK6Blf.s 			page 56


1329:Generated_Source\PSoC6/CapSense_Filter.c ****     ptrSensor = ptrWidget->ptr2SnsRam;
1330:Generated_Source\PSoC6/CapSense_Filter.c ****     ptrSensor = &ptrSensor[sensorId];
1331:Generated_Source\PSoC6/CapSense_Filter.c **** 
1332:Generated_Source\PSoC6/CapSense_Filter.c ****     /* Find pointer to specified filter sensor object */
1333:Generated_Source\PSoC6/CapSense_Filter.c ****     ptrFilterHistObj.ptr = ptrWidget->ptr2FltrHistory;
1334:Generated_Source\PSoC6/CapSense_Filter.c ****     ptrFilterHistObj.ptrAlp = &ptrFilterHistObj.ptrAlp[sensorId];
1335:Generated_Source\PSoC6/CapSense_Filter.c ****     CapSense_InitializeALPInternal(ptrFilterHistObj, ptrSensor, (uint32)ptrWidget->wdgtType);
1336:Generated_Source\PSoC6/CapSense_Filter.c **** }
1337:Generated_Source\PSoC6/CapSense_Filter.c **** 
1338:Generated_Source\PSoC6/CapSense_Filter.c **** 
1339:Generated_Source\PSoC6/CapSense_Filter.c **** /*******************************************************************************
1340:Generated_Source\PSoC6/CapSense_Filter.c **** * Function Name: CapSense_RunALP
1341:Generated_Source\PSoC6/CapSense_Filter.c **** ****************************************************************************//**
1342:Generated_Source\PSoC6/CapSense_Filter.c **** *
1343:Generated_Source\PSoC6/CapSense_Filter.c **** * \brief    Executes the ALP filter algorithm on a sensor indicated by an input
1344:Generated_Source\PSoC6/CapSense_Filter.c **** *           parameter.
1345:Generated_Source\PSoC6/CapSense_Filter.c **** *
1346:Generated_Source\PSoC6/CapSense_Filter.c **** * \details  Executes the ALP filter algorithm on a sensor indicated by an input
1347:Generated_Source\PSoC6/CapSense_Filter.c **** *           parameter.
1348:Generated_Source\PSoC6/CapSense_Filter.c **** *
1349:Generated_Source\PSoC6/CapSense_Filter.c **** * \param    widgetId Specifies the ID number of the widget.
1350:Generated_Source\PSoC6/CapSense_Filter.c **** * \param    sensorId Specifies the ID number of the sensor in the widget.
1351:Generated_Source\PSoC6/CapSense_Filter.c **** *
1352:Generated_Source\PSoC6/CapSense_Filter.c **** *******************************************************************************/
1353:Generated_Source\PSoC6/CapSense_Filter.c **** void CapSense_RunALP(uint32 widgetId, uint32 sensorId)
1354:Generated_Source\PSoC6/CapSense_Filter.c **** {
1355:Generated_Source\PSoC6/CapSense_Filter.c ****     CapSense_FLASH_WD_STRUCT const *ptrWidget = &CapSense_dsFlash.wdgtArray[widgetId];
1356:Generated_Source\PSoC6/CapSense_Filter.c ****     CapSense_RAM_SNS_STRUCT *ptrSensor = NULL;
1357:Generated_Source\PSoC6/CapSense_Filter.c ****     CapSense_PTR_FILTER_VARIANT ptrFilterHistObj;
1358:Generated_Source\PSoC6/CapSense_Filter.c ****     ALP_FLTR_CONFIG_STRUCT alpFilterConfig;
1359:Generated_Source\PSoC6/CapSense_Filter.c ****     ALP_FLTR_CONFIG_STRUCT *ptrAlpFilterConfig = &alpFilterConfig;
1360:Generated_Source\PSoC6/CapSense_Filter.c ****     CapSense_RAM_WD_BASE_STRUCT *ptrRamWidget = ptrWidget->ptr2WdgtRam;
1361:Generated_Source\PSoC6/CapSense_Filter.c **** 
1362:Generated_Source\PSoC6/CapSense_Filter.c ****     /* Find pointer to specified sensor object */
1363:Generated_Source\PSoC6/CapSense_Filter.c ****     ptrSensor = ptrWidget->ptr2SnsRam;
1364:Generated_Source\PSoC6/CapSense_Filter.c ****     ptrSensor = &ptrSensor[sensorId];
1365:Generated_Source\PSoC6/CapSense_Filter.c **** 
1366:Generated_Source\PSoC6/CapSense_Filter.c ****     ptrAlpFilterConfig->configParam0 = ptrRamWidget->alpOnTh;
1367:Generated_Source\PSoC6/CapSense_Filter.c ****     ptrAlpFilterConfig->configParam1 = ptrRamWidget->alpOffTh;
1368:Generated_Source\PSoC6/CapSense_Filter.c ****     ptrAlpFilterConfig->configParam2 = ptrRamWidget->fingerTh;
1369:Generated_Source\PSoC6/CapSense_Filter.c ****     ptrAlpFilterConfig->configParam3 = ptrRamWidget->noiseTh;
1370:Generated_Source\PSoC6/CapSense_Filter.c ****     ptrAlpFilterConfig->configParam4 = ptrRamWidget->hysteresis;
1371:Generated_Source\PSoC6/CapSense_Filter.c **** 
1372:Generated_Source\PSoC6/CapSense_Filter.c ****     /* Find pointer to specified filter sensor object */
1373:Generated_Source\PSoC6/CapSense_Filter.c ****     ptrFilterHistObj.ptr = ptrWidget->ptr2FltrHistory;
1374:Generated_Source\PSoC6/CapSense_Filter.c ****     ptrFilterHistObj.ptrAlp = &ptrFilterHistObj.ptrAlp[sensorId];
1375:Generated_Source\PSoC6/CapSense_Filter.c **** 
1376:Generated_Source\PSoC6/CapSense_Filter.c ****     if ((CapSense_WD_TYPE_ENUM)ptrWidget->wdgtType != CapSense_WD_PROXIMITY_E)
1377:Generated_Source\PSoC6/CapSense_Filter.c ****     {
1378:Generated_Source\PSoC6/CapSense_Filter.c ****         #if (CapSense_REGULAR_SENSOR_EN)
1379:Generated_Source\PSoC6/CapSense_Filter.c ****             ptrAlpFilterConfig->configParam5 = CapSense_REGULAR_RC_ALP_FILTER_COEFF;
1380:Generated_Source\PSoC6/CapSense_Filter.c ****         #endif /* (CapSense_REGULAR_SENSOR_EN) */
1381:Generated_Source\PSoC6/CapSense_Filter.c ****     }
1382:Generated_Source\PSoC6/CapSense_Filter.c ****     else
1383:Generated_Source\PSoC6/CapSense_Filter.c ****     {
1384:Generated_Source\PSoC6/CapSense_Filter.c ****         #if (CapSense_PROXIMITY_SENSOR_EN)
1385:Generated_Source\PSoC6/CapSense_Filter.c ****             ptrAlpFilterConfig->configParam5 = CapSense_PROX_RC_ALP_FILTER_COEFF;
ARM GAS  C:\Users\ikomb\AppData\Local\Temp\cclK6Blf.s 			page 57


1386:Generated_Source\PSoC6/CapSense_Filter.c ****         #endif /* (CapSense_PROXIMITY_SENSOR_EN) */
1387:Generated_Source\PSoC6/CapSense_Filter.c ****     }
1388:Generated_Source\PSoC6/CapSense_Filter.c ****     CapSense_RunALPInternal(ptrFilterHistObj, ptrAlpFilterConfig, ptrSensor, (uint32)ptrWidget->wdg
1389:Generated_Source\PSoC6/CapSense_Filter.c **** }
1390:Generated_Source\PSoC6/CapSense_Filter.c **** 
1391:Generated_Source\PSoC6/CapSense_Filter.c **** 
1392:Generated_Source\PSoC6/CapSense_Filter.c **** /*******************************************************************************
1393:Generated_Source\PSoC6/CapSense_Filter.c **** * Function Name: CapSense_InitializeALPInternal
1394:Generated_Source\PSoC6/CapSense_Filter.c **** ****************************************************************************//**
1395:Generated_Source\PSoC6/CapSense_Filter.c **** *
1396:Generated_Source\PSoC6/CapSense_Filter.c **** * \brief    Initializes the ALP filter.
1397:Generated_Source\PSoC6/CapSense_Filter.c **** *
1398:Generated_Source\PSoC6/CapSense_Filter.c **** * \details  Initializes the ALP filter.
1399:Generated_Source\PSoC6/CapSense_Filter.c **** *
1400:Generated_Source\PSoC6/CapSense_Filter.c **** * \param    ptrFilterHistObj The pointer to the filter RAM object of the sensor.
1401:Generated_Source\PSoC6/CapSense_Filter.c **** * \param    ptrSensorObj     The pointer to the sensor RAM object of the sensor.
1402:Generated_Source\PSoC6/CapSense_Filter.c **** * \param    wdType           Specifies the type of a widget.
1403:Generated_Source\PSoC6/CapSense_Filter.c **** *
1404:Generated_Source\PSoC6/CapSense_Filter.c **** *******************************************************************************/
1405:Generated_Source\PSoC6/CapSense_Filter.c **** void CapSense_InitializeALPInternal(CapSense_PTR_FILTER_VARIANT ptrFilterHistObj,
1406:Generated_Source\PSoC6/CapSense_Filter.c ****                                             CapSense_RAM_SNS_STRUCT *ptrSensorObj,
1407:Generated_Source\PSoC6/CapSense_Filter.c ****                                             uint32 wdType)
1408:Generated_Source\PSoC6/CapSense_Filter.c **** {
1409:Generated_Source\PSoC6/CapSense_Filter.c ****     uint32 freqChannel;
1410:Generated_Source\PSoC6/CapSense_Filter.c **** 
1411:Generated_Source\PSoC6/CapSense_Filter.c ****     for(freqChannel = CapSense_NUM_SCAN_FREQS; freqChannel-- > 0u;)
1412:Generated_Source\PSoC6/CapSense_Filter.c ****     {
1413:Generated_Source\PSoC6/CapSense_Filter.c ****         if ((CapSense_WD_TYPE_ENUM)wdType != CapSense_WD_PROXIMITY_E)
1414:Generated_Source\PSoC6/CapSense_Filter.c ****         {
1415:Generated_Source\PSoC6/CapSense_Filter.c ****             #if (CapSense_REGULAR_SENSOR_EN && CapSense_REGULAR_RC_ALP_FILTER_EN)
1416:Generated_Source\PSoC6/CapSense_Filter.c ****                 ALP_Initialize(&ptrFilterHistObj.ptrAlp->channel[freqChannel], &ptrSensorObj->raw[f
1417:Generated_Source\PSoC6/CapSense_Filter.c ****             #endif
1418:Generated_Source\PSoC6/CapSense_Filter.c ****         }
1419:Generated_Source\PSoC6/CapSense_Filter.c ****         else
1420:Generated_Source\PSoC6/CapSense_Filter.c ****         {
1421:Generated_Source\PSoC6/CapSense_Filter.c ****             #if (CapSense_PROXIMITY_SENSOR_EN && CapSense_PROX_RC_ALP_FILTER_EN)
1422:Generated_Source\PSoC6/CapSense_Filter.c ****                 ALP_Initialize(&ptrFilterHistObj.ptrAlp->channel[freqChannel], &ptrSensorObj->raw[f
1423:Generated_Source\PSoC6/CapSense_Filter.c ****             #endif
1424:Generated_Source\PSoC6/CapSense_Filter.c ****         }
1425:Generated_Source\PSoC6/CapSense_Filter.c ****     }
1426:Generated_Source\PSoC6/CapSense_Filter.c **** }
1427:Generated_Source\PSoC6/CapSense_Filter.c **** 
1428:Generated_Source\PSoC6/CapSense_Filter.c **** /*******************************************************************************
1429:Generated_Source\PSoC6/CapSense_Filter.c **** * Function Name: CapSense_ConfigRunALPInternal
1430:Generated_Source\PSoC6/CapSense_Filter.c **** ****************************************************************************//**
1431:Generated_Source\PSoC6/CapSense_Filter.c **** *
1432:Generated_Source\PSoC6/CapSense_Filter.c **** * \brief    Prepares ALP configuration structure and runs the filter.
1433:Generated_Source\PSoC6/CapSense_Filter.c **** *
1434:Generated_Source\PSoC6/CapSense_Filter.c **** * \details  Prepares ALP configuration structure and runs the filter.
1435:Generated_Source\PSoC6/CapSense_Filter.c **** *
1436:Generated_Source\PSoC6/CapSense_Filter.c **** * \param    ptrFilterHistObj The pointer to the filter RAM object of the sensor.
1437:Generated_Source\PSoC6/CapSense_Filter.c **** * \param    ptrRamWdgt       The pointer to the RAM widget object.
1438:Generated_Source\PSoC6/CapSense_Filter.c **** * \param    ptrSensorObj     The pointer to the sensor RAM object of the sensor.
1439:Generated_Source\PSoC6/CapSense_Filter.c **** * \param    wdType           Specifies the type of a widget.
1440:Generated_Source\PSoC6/CapSense_Filter.c **** *
1441:Generated_Source\PSoC6/CapSense_Filter.c **** *******************************************************************************/
1442:Generated_Source\PSoC6/CapSense_Filter.c **** void CapSense_ConfigRunALPInternal(CapSense_PTR_FILTER_VARIANT ptrFilterHistObj,
ARM GAS  C:\Users\ikomb\AppData\Local\Temp\cclK6Blf.s 			page 58


1443:Generated_Source\PSoC6/CapSense_Filter.c ****                                     CapSense_RAM_WD_BASE_STRUCT *ptrRamWdgt,
1444:Generated_Source\PSoC6/CapSense_Filter.c ****                                     CapSense_RAM_SNS_STRUCT *ptrSensorObj,
1445:Generated_Source\PSoC6/CapSense_Filter.c ****                                     uint32 wdType)
1446:Generated_Source\PSoC6/CapSense_Filter.c **** {
1447:Generated_Source\PSoC6/CapSense_Filter.c ****     ALP_FLTR_CONFIG_STRUCT alpFilterConfig;
1448:Generated_Source\PSoC6/CapSense_Filter.c **** 
1449:Generated_Source\PSoC6/CapSense_Filter.c ****     alpFilterConfig.configParam0 = ptrRamWdgt->alpOnTh;
1450:Generated_Source\PSoC6/CapSense_Filter.c ****     alpFilterConfig.configParam1 = ptrRamWdgt->alpOffTh;
1451:Generated_Source\PSoC6/CapSense_Filter.c ****     alpFilterConfig.configParam2 = ptrRamWdgt->fingerTh;
1452:Generated_Source\PSoC6/CapSense_Filter.c ****     alpFilterConfig.configParam3 = ptrRamWdgt->noiseTh;
1453:Generated_Source\PSoC6/CapSense_Filter.c ****     alpFilterConfig.configParam4 = ptrRamWdgt->hysteresis;
1454:Generated_Source\PSoC6/CapSense_Filter.c **** 
1455:Generated_Source\PSoC6/CapSense_Filter.c ****     CapSense_RunALPInternal(ptrFilterHistObj, &alpFilterConfig, ptrSensorObj, wdType);
1456:Generated_Source\PSoC6/CapSense_Filter.c **** }
1457:Generated_Source\PSoC6/CapSense_Filter.c **** 
1458:Generated_Source\PSoC6/CapSense_Filter.c **** /*******************************************************************************
1459:Generated_Source\PSoC6/CapSense_Filter.c **** * Function Name: CapSense_RunALPInternal
1460:Generated_Source\PSoC6/CapSense_Filter.c **** ****************************************************************************//**
1461:Generated_Source\PSoC6/CapSense_Filter.c **** *
1462:Generated_Source\PSoC6/CapSense_Filter.c **** * \brief    Runs the ALP filter.
1463:Generated_Source\PSoC6/CapSense_Filter.c **** *
1464:Generated_Source\PSoC6/CapSense_Filter.c **** * \details  Runs the ALP filter.
1465:Generated_Source\PSoC6/CapSense_Filter.c **** *
1466:Generated_Source\PSoC6/CapSense_Filter.c **** * \param    ptrFilterHistObj The pointer to the filter RAM object of the sensor.
1467:Generated_Source\PSoC6/CapSense_Filter.c **** * \param    ptrAlpFilterConfig The pointer to the filter configuration object of the sensor.
1468:Generated_Source\PSoC6/CapSense_Filter.c **** * \param    ptrSensorObj     The pointer to the sensor RAM object of the sensor.
1469:Generated_Source\PSoC6/CapSense_Filter.c **** * \param    wdType           Specifies the type of a widget.
1470:Generated_Source\PSoC6/CapSense_Filter.c **** *
1471:Generated_Source\PSoC6/CapSense_Filter.c **** *******************************************************************************/
1472:Generated_Source\PSoC6/CapSense_Filter.c **** void CapSense_RunALPInternal(CapSense_PTR_FILTER_VARIANT ptrFilterHistObj,
1473:Generated_Source\PSoC6/CapSense_Filter.c ****                                     ALP_FLTR_CONFIG_STRUCT *ptrAlpFilterConfig,
1474:Generated_Source\PSoC6/CapSense_Filter.c ****                                     CapSense_RAM_SNS_STRUCT *ptrSensorObj,
1475:Generated_Source\PSoC6/CapSense_Filter.c ****                                     uint32 wdType)
1476:Generated_Source\PSoC6/CapSense_Filter.c **** {
1477:Generated_Source\PSoC6/CapSense_Filter.c ****     uint32 freqChannel;
1478:Generated_Source\PSoC6/CapSense_Filter.c **** 
1479:Generated_Source\PSoC6/CapSense_Filter.c ****     for(freqChannel = CapSense_NUM_SCAN_FREQS; freqChannel-- > 0u;)
1480:Generated_Source\PSoC6/CapSense_Filter.c ****     {
1481:Generated_Source\PSoC6/CapSense_Filter.c ****         if ((CapSense_WD_TYPE_ENUM)wdType != CapSense_WD_PROXIMITY_E)
1482:Generated_Source\PSoC6/CapSense_Filter.c ****         {
1483:Generated_Source\PSoC6/CapSense_Filter.c ****             #if (CapSense_REGULAR_SENSOR_EN && CapSense_REGULAR_RC_ALP_FILTER_EN)
1484:Generated_Source\PSoC6/CapSense_Filter.c ****                 ptrAlpFilterConfig->configParam5 = CapSense_REGULAR_RC_ALP_FILTER_COEFF;
1485:Generated_Source\PSoC6/CapSense_Filter.c ****                 ALP_Run(&ptrFilterHistObj.ptrAlp->channel[freqChannel], ptrAlpFilterConfig, &ptrSen
1486:Generated_Source\PSoC6/CapSense_Filter.c ****             #endif
1487:Generated_Source\PSoC6/CapSense_Filter.c ****         }
1488:Generated_Source\PSoC6/CapSense_Filter.c ****         else
1489:Generated_Source\PSoC6/CapSense_Filter.c ****         {
1490:Generated_Source\PSoC6/CapSense_Filter.c ****             #if (CapSense_PROXIMITY_SENSOR_EN && CapSense_PROX_RC_ALP_FILTER_EN)
1491:Generated_Source\PSoC6/CapSense_Filter.c ****                 ptrAlpFilterConfig->configParam5 = CapSense_PROX_RC_ALP_FILTER_COEFF;
1492:Generated_Source\PSoC6/CapSense_Filter.c ****                 ALP_Run(&ptrFilterHistObj.ptrAlp->channel[freqChannel], ptrAlpFilterConfig, &ptrSen
1493:Generated_Source\PSoC6/CapSense_Filter.c ****             #endif
1494:Generated_Source\PSoC6/CapSense_Filter.c ****         }
1495:Generated_Source\PSoC6/CapSense_Filter.c ****     }
1496:Generated_Source\PSoC6/CapSense_Filter.c **** }
1497:Generated_Source\PSoC6/CapSense_Filter.c **** #endif /* (CapSense_ENABLE == CapSense_ALP_FILTER_EN) */
1498:Generated_Source\PSoC6/CapSense_Filter.c **** 
1499:Generated_Source\PSoC6/CapSense_Filter.c **** #if (CapSense_ENABLE == CapSense_RC_FILTER_EN)
ARM GAS  C:\Users\ikomb\AppData\Local\Temp\cclK6Blf.s 			page 59


1500:Generated_Source\PSoC6/CapSense_Filter.c **** /*******************************************************************************
1501:Generated_Source\PSoC6/CapSense_Filter.c **** * Function Name: CapSense_FtRunEnabledFilters
1502:Generated_Source\PSoC6/CapSense_Filter.c **** ****************************************************************************//**
1503:Generated_Source\PSoC6/CapSense_Filter.c **** *
1504:Generated_Source\PSoC6/CapSense_Filter.c **** * \brief    Runs all enabled filters.
1505:Generated_Source\PSoC6/CapSense_Filter.c **** *
1506:Generated_Source\PSoC6/CapSense_Filter.c **** * \details  Runs all enabled filters.
1507:Generated_Source\PSoC6/CapSense_Filter.c **** *
1508:Generated_Source\PSoC6/CapSense_Filter.c **** * \param    widgetId Specifies the ID number of a widget to update the IIR filter history.*
1509:Generated_Source\PSoC6/CapSense_Filter.c **** * \param    sensorId Specifies the ID number of a sensor in the widget to update the IIR
1510:Generated_Source\PSoC6/CapSense_Filter.c **** *           filter history.
1511:Generated_Source\PSoC6/CapSense_Filter.c **** *
1512:Generated_Source\PSoC6/CapSense_Filter.c **** *******************************************************************************/
1513:Generated_Source\PSoC6/CapSense_Filter.c **** void CapSense_FtRunEnabledFilters(uint32 widgetId, uint32 sensorId)
1514:Generated_Source\PSoC6/CapSense_Filter.c **** {
 1784              		.loc 1 1514 0
 1785              		.cfi_startproc
 1786              		@ args = 0, pretend = 0, frame = 24
 1787              		@ frame_needed = 1, uses_anonymous_args = 0
 1788 0000 80B5     		push	{r7, lr}
 1789              		.cfi_def_cfa_offset 8
 1790              		.cfi_offset 7, -8
 1791              		.cfi_offset 14, -4
 1792 0002 86B0     		sub	sp, sp, #24
 1793              		.cfi_def_cfa_offset 32
 1794 0004 00AF     		add	r7, sp, #0
 1795              		.cfi_def_cfa_register 7
 1796 0006 7860     		str	r0, [r7, #4]
 1797 0008 3960     		str	r1, [r7]
1515:Generated_Source\PSoC6/CapSense_Filter.c ****     CapSense_FLASH_WD_STRUCT const *ptrWidget = &CapSense_dsFlash.wdgtArray[widgetId];
 1798              		.loc 1 1515 0
 1799 000a 7A68     		ldr	r2, [r7, #4]
 1800 000c 1346     		mov	r3, r2
 1801 000e 5B00     		lsls	r3, r3, #1
 1802 0010 1344     		add	r3, r3, r2
 1803 0012 1B01     		lsls	r3, r3, #4
 1804 0014 154A     		ldr	r2, .L80
 1805 0016 1344     		add	r3, r3, r2
 1806 0018 7B61     		str	r3, [r7, #20]
1516:Generated_Source\PSoC6/CapSense_Filter.c ****     CapSense_RAM_SNS_STRUCT *ptrSensor = NULL;
 1807              		.loc 1 1516 0
 1808 001a 0023     		movs	r3, #0
 1809 001c 3B61     		str	r3, [r7, #16]
1517:Generated_Source\PSoC6/CapSense_Filter.c ****     CapSense_PTR_FILTER_VARIANT ptrFilterHistObj;
1518:Generated_Source\PSoC6/CapSense_Filter.c **** 
1519:Generated_Source\PSoC6/CapSense_Filter.c ****     /* Find pointer to specified sensor object */
1520:Generated_Source\PSoC6/CapSense_Filter.c ****     ptrSensor = ptrWidget->ptr2SnsRam;
 1810              		.loc 1 1520 0
 1811 001e 7B69     		ldr	r3, [r7, #20]
 1812 0020 9B68     		ldr	r3, [r3, #8]
 1813 0022 3B61     		str	r3, [r7, #16]
1521:Generated_Source\PSoC6/CapSense_Filter.c ****     ptrSensor = &ptrSensor[sensorId];
 1814              		.loc 1 1521 0
 1815 0024 3A68     		ldr	r2, [r7]
 1816 0026 1346     		mov	r3, r2
 1817 0028 9B00     		lsls	r3, r3, #2
 1818 002a 1344     		add	r3, r3, r2
ARM GAS  C:\Users\ikomb\AppData\Local\Temp\cclK6Blf.s 			page 60


 1819 002c 5B00     		lsls	r3, r3, #1
 1820 002e 1A46     		mov	r2, r3
 1821 0030 3B69     		ldr	r3, [r7, #16]
 1822 0032 1344     		add	r3, r3, r2
 1823 0034 3B61     		str	r3, [r7, #16]
1522:Generated_Source\PSoC6/CapSense_Filter.c **** 
1523:Generated_Source\PSoC6/CapSense_Filter.c ****     /* Find pointer to specified filter sensor object */
1524:Generated_Source\PSoC6/CapSense_Filter.c ****     ptrFilterHistObj.ptr = ptrWidget->ptr2FltrHistory;
 1824              		.loc 1 1524 0
 1825 0036 7B69     		ldr	r3, [r7, #20]
 1826 0038 DB68     		ldr	r3, [r3, #12]
 1827 003a FB60     		str	r3, [r7, #12]
1525:Generated_Source\PSoC6/CapSense_Filter.c **** 
1526:Generated_Source\PSoC6/CapSense_Filter.c ****     if ((CapSense_WD_TYPE_ENUM)ptrWidget->wdgtType != CapSense_WD_PROXIMITY_E)
 1828              		.loc 1 1526 0
 1829 003c 7B69     		ldr	r3, [r7, #20]
 1830 003e 9B7E     		ldrb	r3, [r3, #26]	@ zero_extendqisi2
 1831 0040 062B     		cmp	r3, #6
 1832 0042 07D0     		beq	.L79
1527:Generated_Source\PSoC6/CapSense_Filter.c ****     {
1528:Generated_Source\PSoC6/CapSense_Filter.c ****         #if (0u != CapSense_REGULAR_RC_ALP_FILTER_EN)
1529:Generated_Source\PSoC6/CapSense_Filter.c ****             ptrFilterHistObj.ptr = &ptrFilterHistObj.ptrAlp[sensorId];
1530:Generated_Source\PSoC6/CapSense_Filter.c ****         #elif (0u != CapSense_REGULAR_RC_FILTER_EN)
1531:Generated_Source\PSoC6/CapSense_Filter.c ****             ptrFilterHistObj.ptr = &ptrFilterHistObj.ptrRegular[sensorId];
 1833              		.loc 1 1531 0
 1834 0044 F968     		ldr	r1, [r7, #12]
 1835 0046 3A68     		ldr	r2, [r7]
 1836 0048 1346     		mov	r3, r2
 1837 004a 9B00     		lsls	r3, r3, #2
 1838 004c 1344     		add	r3, r3, r2
 1839 004e 5B00     		lsls	r3, r3, #1
 1840 0050 0B44     		add	r3, r3, r1
 1841 0052 FB60     		str	r3, [r7, #12]
 1842              	.L79:
1532:Generated_Source\PSoC6/CapSense_Filter.c ****         #endif
1533:Generated_Source\PSoC6/CapSense_Filter.c ****     }
1534:Generated_Source\PSoC6/CapSense_Filter.c ****     else
1535:Generated_Source\PSoC6/CapSense_Filter.c ****     {
1536:Generated_Source\PSoC6/CapSense_Filter.c ****         #if (0u != CapSense_PROX_RC_ALP_FILTER_EN)
1537:Generated_Source\PSoC6/CapSense_Filter.c ****             ptrFilterHistObj.ptr = &ptrFilterHistObj.ptrAlp[sensorId];
1538:Generated_Source\PSoC6/CapSense_Filter.c ****         #elif (0u != CapSense_PROX_RC_FILTER_EN)
1539:Generated_Source\PSoC6/CapSense_Filter.c ****             ptrFilterHistObj.ptr = &ptrFilterHistObj.ptrProx[sensorId];
1540:Generated_Source\PSoC6/CapSense_Filter.c ****         #endif
1541:Generated_Source\PSoC6/CapSense_Filter.c ****     }
1542:Generated_Source\PSoC6/CapSense_Filter.c **** 
1543:Generated_Source\PSoC6/CapSense_Filter.c ****     CapSense_FtRunEnabledFiltersInternal(ptrFilterHistObj, ptrSensor, (uint32)ptrWidget->wdgtType);
 1843              		.loc 1 1543 0
 1844 0054 7B69     		ldr	r3, [r7, #20]
 1845 0056 9B7E     		ldrb	r3, [r3, #26]	@ zero_extendqisi2
 1846 0058 1A46     		mov	r2, r3
 1847 005a 3969     		ldr	r1, [r7, #16]
 1848 005c F868     		ldr	r0, [r7, #12]
 1849 005e FFF7FEFF 		bl	CapSense_FtRunEnabledFiltersInternal
1544:Generated_Source\PSoC6/CapSense_Filter.c ****     #if (CapSense_ALP_FILTER_EN)
1545:Generated_Source\PSoC6/CapSense_Filter.c ****         CapSense_ConfigRunALPInternal(ptrFilterHistObj, ptrWidget->ptr2WdgtRam, ptrSensor, (uint32)
1546:Generated_Source\PSoC6/CapSense_Filter.c ****     #endif
1547:Generated_Source\PSoC6/CapSense_Filter.c **** }
ARM GAS  C:\Users\ikomb\AppData\Local\Temp\cclK6Blf.s 			page 61


 1850              		.loc 1 1547 0
 1851 0062 00BF     		nop
 1852 0064 1837     		adds	r7, r7, #24
 1853              		.cfi_def_cfa_offset 8
 1854 0066 BD46     		mov	sp, r7
 1855              		.cfi_def_cfa_register 13
 1856              		@ sp needed
 1857 0068 80BD     		pop	{r7, pc}
 1858              	.L81:
 1859 006a 00BF     		.align	2
 1860              	.L80:
 1861 006c 00000000 		.word	CapSense_dsFlash
 1862              		.cfi_endproc
 1863              	.LFE145:
 1864              		.size	CapSense_FtRunEnabledFilters, .-CapSense_FtRunEnabledFilters
 1865              		.section	.text.CapSense_FtRunEnabledFiltersInternal,"ax",%progbits
 1866              		.align	2
 1867              		.global	CapSense_FtRunEnabledFiltersInternal
 1868              		.thumb
 1869              		.thumb_func
 1870              		.type	CapSense_FtRunEnabledFiltersInternal, %function
 1871              	CapSense_FtRunEnabledFiltersInternal:
 1872              	.LFB146:
1548:Generated_Source\PSoC6/CapSense_Filter.c **** 
1549:Generated_Source\PSoC6/CapSense_Filter.c **** 
1550:Generated_Source\PSoC6/CapSense_Filter.c **** /*******************************************************************************
1551:Generated_Source\PSoC6/CapSense_Filter.c **** * Function Name: CapSense_FtRunEnabledFiltersInternal
1552:Generated_Source\PSoC6/CapSense_Filter.c **** ****************************************************************************//**
1553:Generated_Source\PSoC6/CapSense_Filter.c **** *
1554:Generated_Source\PSoC6/CapSense_Filter.c **** * \brief    Runs all enabled filters.
1555:Generated_Source\PSoC6/CapSense_Filter.c **** *
1556:Generated_Source\PSoC6/CapSense_Filter.c **** * \details  Runs all enabled filters.
1557:Generated_Source\PSoC6/CapSense_Filter.c **** *
1558:Generated_Source\PSoC6/CapSense_Filter.c **** * \param    ptrFilterHistObj The pointer to the filter RAM object of the sensor.
1559:Generated_Source\PSoC6/CapSense_Filter.c **** * \param    ptrSensorObj     The pointer to the sensor RAM object of the sensor.
1560:Generated_Source\PSoC6/CapSense_Filter.c **** * \param    wdType           Specifies the type of a widget.
1561:Generated_Source\PSoC6/CapSense_Filter.c **** *
1562:Generated_Source\PSoC6/CapSense_Filter.c **** *******************************************************************************/
1563:Generated_Source\PSoC6/CapSense_Filter.c **** void CapSense_FtRunEnabledFiltersInternal(CapSense_PTR_FILTER_VARIANT ptrFilterHistObj,
1564:Generated_Source\PSoC6/CapSense_Filter.c ****                                                   CapSense_RAM_SNS_STRUCT *ptrSensorObj, uint32 wdT
1565:Generated_Source\PSoC6/CapSense_Filter.c **** {
 1873              		.loc 1 1565 0
 1874              		.cfi_startproc
 1875              		@ args = 0, pretend = 0, frame = 16
 1876              		@ frame_needed = 1, uses_anonymous_args = 0
 1877 0000 80B5     		push	{r7, lr}
 1878              		.cfi_def_cfa_offset 8
 1879              		.cfi_offset 7, -8
 1880              		.cfi_offset 14, -4
 1881 0002 84B0     		sub	sp, sp, #16
 1882              		.cfi_def_cfa_offset 24
 1883 0004 00AF     		add	r7, sp, #0
 1884              		.cfi_def_cfa_register 7
 1885 0006 F860     		str	r0, [r7, #12]
 1886 0008 B960     		str	r1, [r7, #8]
 1887 000a 7A60     		str	r2, [r7, #4]
1566:Generated_Source\PSoC6/CapSense_Filter.c ****     #if (CapSense_REGULAR_RC_MEDIAN_FILTER_EN || CapSense_PROX_RC_MEDIAN_FILTER_EN)
ARM GAS  C:\Users\ikomb\AppData\Local\Temp\cclK6Blf.s 			page 62


1567:Generated_Source\PSoC6/CapSense_Filter.c ****         CapSense_RunMedianInternal(ptrFilterHistObj, ptrSensorObj, wdType);
 1888              		.loc 1 1567 0
 1889 000c 7A68     		ldr	r2, [r7, #4]
 1890 000e B968     		ldr	r1, [r7, #8]
 1891 0010 F868     		ldr	r0, [r7, #12]
 1892 0012 FFF7FEFF 		bl	CapSense_RunMedianInternal
1568:Generated_Source\PSoC6/CapSense_Filter.c ****     #endif /* (CapSense_REGULAR_RC_MEDIAN_FILTER_EN || CapSense_PROX_RC_MEDIAN_FILTER_EN) */
1569:Generated_Source\PSoC6/CapSense_Filter.c **** 
1570:Generated_Source\PSoC6/CapSense_Filter.c ****     #if (CapSense_REGULAR_RC_IIR_FILTER_EN || CapSense_PROX_RC_IIR_FILTER_EN)
1571:Generated_Source\PSoC6/CapSense_Filter.c ****         CapSense_RunIIRInternal(ptrFilterHistObj, ptrSensorObj, wdType);
1572:Generated_Source\PSoC6/CapSense_Filter.c ****     #endif /* (CapSense_REGULAR_RC_IIR_FILTER_EN || CapSense_PROX_RC_IIR_FILTER_EN) */
1573:Generated_Source\PSoC6/CapSense_Filter.c **** 
1574:Generated_Source\PSoC6/CapSense_Filter.c ****     #if (CapSense_REGULAR_RC_AVERAGE_FILTER_EN || CapSense_PROX_RC_AVERAGE_FILTER_EN)
1575:Generated_Source\PSoC6/CapSense_Filter.c ****         CapSense_RunAverageInternal(ptrFilterHistObj, ptrSensorObj, wdType);
 1893              		.loc 1 1575 0
 1894 0016 7A68     		ldr	r2, [r7, #4]
 1895 0018 B968     		ldr	r1, [r7, #8]
 1896 001a F868     		ldr	r0, [r7, #12]
 1897 001c FFF7FEFF 		bl	CapSense_RunAverageInternal
1576:Generated_Source\PSoC6/CapSense_Filter.c ****     #endif /* (CapSense_REGULAR_RC_AVERAGE_FILTER_EN || CapSense_PROX_RC_AVERAGE_FILTER_EN) */
1577:Generated_Source\PSoC6/CapSense_Filter.c **** }
 1898              		.loc 1 1577 0
 1899 0020 00BF     		nop
 1900 0022 1037     		adds	r7, r7, #16
 1901              		.cfi_def_cfa_offset 8
 1902 0024 BD46     		mov	sp, r7
 1903              		.cfi_def_cfa_register 13
 1904              		@ sp needed
 1905 0026 80BD     		pop	{r7, pc}
 1906              		.cfi_endproc
 1907              	.LFE146:
 1908              		.size	CapSense_FtRunEnabledFiltersInternal, .-CapSense_FtRunEnabledFiltersInternal
 1909              		.section	.text.CapSense_RunNoiseEnvelope,"ax",%progbits
 1910              		.align	2
 1911              		.global	CapSense_RunNoiseEnvelope
 1912              		.thumb
 1913              		.thumb_func
 1914              		.type	CapSense_RunNoiseEnvelope, %function
 1915              	CapSense_RunNoiseEnvelope:
 1916              	.LFB147:
1578:Generated_Source\PSoC6/CapSense_Filter.c **** #endif /* (CapSense_ENABLE == CapSense_RC_FILTER_EN) */
1579:Generated_Source\PSoC6/CapSense_Filter.c **** 
1580:Generated_Source\PSoC6/CapSense_Filter.c **** 
1581:Generated_Source\PSoC6/CapSense_Filter.c **** #if (0u != (CapSense_CSD_AUTOTUNE & CapSense_CSD_SS_TH_EN))
1582:Generated_Source\PSoC6/CapSense_Filter.c **** /*******************************************************************************
1583:Generated_Source\PSoC6/CapSense_Filter.c **** * Function Name: CapSense_RunNoiseEnvelope
1584:Generated_Source\PSoC6/CapSense_Filter.c **** ****************************************************************************//**
1585:Generated_Source\PSoC6/CapSense_Filter.c **** *
1586:Generated_Source\PSoC6/CapSense_Filter.c **** * \brief    Executes the noise envelope  filter algorithm on a sensor indicated by
1587:Generated_Source\PSoC6/CapSense_Filter.c **** *           an input parameter to measure the pk-to-pk noise in the sensor raw count.
1588:Generated_Source\PSoC6/CapSense_Filter.c **** *
1589:Generated_Source\PSoC6/CapSense_Filter.c **** * \details  Executes the noise envelope  filter algorithm on a sensor indicated by
1590:Generated_Source\PSoC6/CapSense_Filter.c **** *           an input parameter to measure the pk-to-pk noise in the sensor raw count.
1591:Generated_Source\PSoC6/CapSense_Filter.c **** *
1592:Generated_Source\PSoC6/CapSense_Filter.c **** * \param    widgetId Specifies the ID number of the widget.
1593:Generated_Source\PSoC6/CapSense_Filter.c **** * \param    sensorId Specifies the ID number of the sensor in the widget.
1594:Generated_Source\PSoC6/CapSense_Filter.c **** *
ARM GAS  C:\Users\ikomb\AppData\Local\Temp\cclK6Blf.s 			page 63


1595:Generated_Source\PSoC6/CapSense_Filter.c **** *******************************************************************************/
1596:Generated_Source\PSoC6/CapSense_Filter.c **** void CapSense_RunNoiseEnvelope(uint32 widgetId, uint32 sensorId)
1597:Generated_Source\PSoC6/CapSense_Filter.c **** {
 1917              		.loc 1 1597 0
 1918              		.cfi_startproc
 1919              		@ args = 0, pretend = 0, frame = 24
 1920              		@ frame_needed = 1, uses_anonymous_args = 0
 1921 0000 80B5     		push	{r7, lr}
 1922              		.cfi_def_cfa_offset 8
 1923              		.cfi_offset 7, -8
 1924              		.cfi_offset 14, -4
 1925 0002 86B0     		sub	sp, sp, #24
 1926              		.cfi_def_cfa_offset 32
 1927 0004 00AF     		add	r7, sp, #0
 1928              		.cfi_def_cfa_register 7
 1929 0006 7860     		str	r0, [r7, #4]
 1930 0008 3960     		str	r1, [r7]
1598:Generated_Source\PSoC6/CapSense_Filter.c ****     CapSense_FLASH_WD_STRUCT const *ptrWidget = &CapSense_dsFlash.wdgtArray[widgetId];
 1931              		.loc 1 1598 0
 1932 000a 7A68     		ldr	r2, [r7, #4]
 1933 000c 1346     		mov	r3, r2
 1934 000e 5B00     		lsls	r3, r3, #1
 1935 0010 1344     		add	r3, r3, r2
 1936 0012 1B01     		lsls	r3, r3, #4
 1937 0014 164A     		ldr	r2, .L84
 1938 0016 1344     		add	r3, r3, r2
 1939 0018 7B61     		str	r3, [r7, #20]
1599:Generated_Source\PSoC6/CapSense_Filter.c ****     CapSense_RAM_WD_BASE_STRUCT *ptrWidgetRam = ptrWidget->ptr2WdgtRam;
 1940              		.loc 1 1599 0
 1941 001a 7B69     		ldr	r3, [r7, #20]
 1942 001c 5B68     		ldr	r3, [r3, #4]
 1943 001e 3B61     		str	r3, [r7, #16]
1600:Generated_Source\PSoC6/CapSense_Filter.c ****     CapSense_RAM_SNS_STRUCT *ptrSensor = NULL;
 1944              		.loc 1 1600 0
 1945 0020 0023     		movs	r3, #0
 1946 0022 FB60     		str	r3, [r7, #12]
1601:Generated_Source\PSoC6/CapSense_Filter.c ****     SMARTSENSE_CSD_NOISE_ENVELOPE_STRUCT *ptrNoiseEnvelope = NULL;
 1947              		.loc 1 1601 0
 1948 0024 0023     		movs	r3, #0
 1949 0026 BB60     		str	r3, [r7, #8]
1602:Generated_Source\PSoC6/CapSense_Filter.c **** 
1603:Generated_Source\PSoC6/CapSense_Filter.c ****     /* Find pointer to specified sensor object */
1604:Generated_Source\PSoC6/CapSense_Filter.c ****     ptrSensor = ptrWidget->ptr2SnsRam;
 1950              		.loc 1 1604 0
 1951 0028 7B69     		ldr	r3, [r7, #20]
 1952 002a 9B68     		ldr	r3, [r3, #8]
 1953 002c FB60     		str	r3, [r7, #12]
1605:Generated_Source\PSoC6/CapSense_Filter.c ****     ptrSensor = &ptrSensor[sensorId];
 1954              		.loc 1 1605 0
 1955 002e 3A68     		ldr	r2, [r7]
 1956 0030 1346     		mov	r3, r2
 1957 0032 9B00     		lsls	r3, r3, #2
 1958 0034 1344     		add	r3, r3, r2
 1959 0036 5B00     		lsls	r3, r3, #1
 1960 0038 1A46     		mov	r2, r3
 1961 003a FB68     		ldr	r3, [r7, #12]
 1962 003c 1344     		add	r3, r3, r2
ARM GAS  C:\Users\ikomb\AppData\Local\Temp\cclK6Blf.s 			page 64


 1963 003e FB60     		str	r3, [r7, #12]
1606:Generated_Source\PSoC6/CapSense_Filter.c **** 
1607:Generated_Source\PSoC6/CapSense_Filter.c ****     /* Find pointer to specified filter sensor object */
1608:Generated_Source\PSoC6/CapSense_Filter.c ****     ptrNoiseEnvelope = ptrWidget->ptr2NoiseEnvlp;
 1964              		.loc 1 1608 0
 1965 0040 7B69     		ldr	r3, [r7, #20]
 1966 0042 5B6A     		ldr	r3, [r3, #36]
 1967 0044 BB60     		str	r3, [r7, #8]
1609:Generated_Source\PSoC6/CapSense_Filter.c ****     ptrNoiseEnvelope = &ptrNoiseEnvelope[sensorId];
 1968              		.loc 1 1609 0
 1969 0046 3A68     		ldr	r2, [r7]
 1970 0048 1346     		mov	r3, r2
 1971 004a 5B00     		lsls	r3, r3, #1
 1972 004c 1344     		add	r3, r3, r2
 1973 004e 9B00     		lsls	r3, r3, #2
 1974 0050 1A46     		mov	r2, r3
 1975 0052 BB68     		ldr	r3, [r7, #8]
 1976 0054 1344     		add	r3, r3, r2
 1977 0056 BB60     		str	r3, [r7, #8]
1610:Generated_Source\PSoC6/CapSense_Filter.c **** 
1611:Generated_Source\PSoC6/CapSense_Filter.c ****     SmartSense_RunNoiseEnvelope(ptrSensor->raw[0u], ptrWidgetRam->sigPFC, ptrNoiseEnvelope);
 1978              		.loc 1 1611 0
 1979 0058 FB68     		ldr	r3, [r7, #12]
 1980 005a 1888     		ldrh	r0, [r3]
 1981 005c 3B69     		ldr	r3, [r7, #16]
 1982 005e 1B8A     		ldrh	r3, [r3, #16]
 1983 0060 BA68     		ldr	r2, [r7, #8]
 1984 0062 1946     		mov	r1, r3
 1985 0064 FFF7FEFF 		bl	SmartSense_RunNoiseEnvelope
1612:Generated_Source\PSoC6/CapSense_Filter.c **** }
 1986              		.loc 1 1612 0
 1987 0068 00BF     		nop
 1988 006a 1837     		adds	r7, r7, #24
 1989              		.cfi_def_cfa_offset 8
 1990 006c BD46     		mov	sp, r7
 1991              		.cfi_def_cfa_register 13
 1992              		@ sp needed
 1993 006e 80BD     		pop	{r7, pc}
 1994              	.L85:
 1995              		.align	2
 1996              	.L84:
 1997 0070 00000000 		.word	CapSense_dsFlash
 1998              		.cfi_endproc
 1999              	.LFE147:
 2000              		.size	CapSense_RunNoiseEnvelope, .-CapSense_RunNoiseEnvelope
 2001              		.section	.text.CapSense_InitializeNoiseEnvelope,"ax",%progbits
 2002              		.align	2
 2003              		.global	CapSense_InitializeNoiseEnvelope
 2004              		.thumb
 2005              		.thumb_func
 2006              		.type	CapSense_InitializeNoiseEnvelope, %function
 2007              	CapSense_InitializeNoiseEnvelope:
 2008              	.LFB148:
1613:Generated_Source\PSoC6/CapSense_Filter.c **** 
1614:Generated_Source\PSoC6/CapSense_Filter.c **** 
1615:Generated_Source\PSoC6/CapSense_Filter.c **** /*******************************************************************************
1616:Generated_Source\PSoC6/CapSense_Filter.c **** * Function Name: CapSense_InitializeNoiseEnvelope
ARM GAS  C:\Users\ikomb\AppData\Local\Temp\cclK6Blf.s 			page 65


1617:Generated_Source\PSoC6/CapSense_Filter.c **** ****************************************************************************//**
1618:Generated_Source\PSoC6/CapSense_Filter.c **** *
1619:Generated_Source\PSoC6/CapSense_Filter.c **** * \brief    Initializes the noise-envelope filter
1620:Generated_Source\PSoC6/CapSense_Filter.c **** *
1621:Generated_Source\PSoC6/CapSense_Filter.c **** * \details  Initializes the noise-envelope filter
1622:Generated_Source\PSoC6/CapSense_Filter.c **** *
1623:Generated_Source\PSoC6/CapSense_Filter.c **** * \param    widgetId Specifies the ID number of the widget.
1624:Generated_Source\PSoC6/CapSense_Filter.c **** * \param    sensorId Specifies the ID number of the sensor in the widget.
1625:Generated_Source\PSoC6/CapSense_Filter.c **** *
1626:Generated_Source\PSoC6/CapSense_Filter.c **** *******************************************************************************/
1627:Generated_Source\PSoC6/CapSense_Filter.c **** void CapSense_InitializeNoiseEnvelope(uint32 widgetId, uint32 sensorId)
1628:Generated_Source\PSoC6/CapSense_Filter.c **** {
 2009              		.loc 1 1628 0
 2010              		.cfi_startproc
 2011              		@ args = 0, pretend = 0, frame = 24
 2012              		@ frame_needed = 1, uses_anonymous_args = 0
 2013 0000 80B5     		push	{r7, lr}
 2014              		.cfi_def_cfa_offset 8
 2015              		.cfi_offset 7, -8
 2016              		.cfi_offset 14, -4
 2017 0002 86B0     		sub	sp, sp, #24
 2018              		.cfi_def_cfa_offset 32
 2019 0004 00AF     		add	r7, sp, #0
 2020              		.cfi_def_cfa_register 7
 2021 0006 7860     		str	r0, [r7, #4]
 2022 0008 3960     		str	r1, [r7]
1629:Generated_Source\PSoC6/CapSense_Filter.c ****     CapSense_FLASH_WD_STRUCT const *ptrWidget = &CapSense_dsFlash.wdgtArray[widgetId];
 2023              		.loc 1 1629 0
 2024 000a 7A68     		ldr	r2, [r7, #4]
 2025 000c 1346     		mov	r3, r2
 2026 000e 5B00     		lsls	r3, r3, #1
 2027 0010 1344     		add	r3, r3, r2
 2028 0012 1B01     		lsls	r3, r3, #4
 2029 0014 164A     		ldr	r2, .L87
 2030 0016 1344     		add	r3, r3, r2
 2031 0018 7B61     		str	r3, [r7, #20]
1630:Generated_Source\PSoC6/CapSense_Filter.c ****     CapSense_RAM_WD_BASE_STRUCT *ptrWidgetRam = ptrWidget->ptr2WdgtRam;
 2032              		.loc 1 1630 0
 2033 001a 7B69     		ldr	r3, [r7, #20]
 2034 001c 5B68     		ldr	r3, [r3, #4]
 2035 001e 3B61     		str	r3, [r7, #16]
1631:Generated_Source\PSoC6/CapSense_Filter.c ****     CapSense_RAM_SNS_STRUCT *ptrSensor = NULL;
 2036              		.loc 1 1631 0
 2037 0020 0023     		movs	r3, #0
 2038 0022 FB60     		str	r3, [r7, #12]
1632:Generated_Source\PSoC6/CapSense_Filter.c ****     SMARTSENSE_CSD_NOISE_ENVELOPE_STRUCT *ptrNoiseEnvelope = NULL;
 2039              		.loc 1 1632 0
 2040 0024 0023     		movs	r3, #0
 2041 0026 BB60     		str	r3, [r7, #8]
1633:Generated_Source\PSoC6/CapSense_Filter.c **** 
1634:Generated_Source\PSoC6/CapSense_Filter.c ****     /* Find pointer to specified sensor object */
1635:Generated_Source\PSoC6/CapSense_Filter.c ****     ptrSensor = ptrWidget->ptr2SnsRam;
 2042              		.loc 1 1635 0
 2043 0028 7B69     		ldr	r3, [r7, #20]
 2044 002a 9B68     		ldr	r3, [r3, #8]
 2045 002c FB60     		str	r3, [r7, #12]
1636:Generated_Source\PSoC6/CapSense_Filter.c ****     ptrSensor = &ptrSensor[sensorId];
ARM GAS  C:\Users\ikomb\AppData\Local\Temp\cclK6Blf.s 			page 66


 2046              		.loc 1 1636 0
 2047 002e 3A68     		ldr	r2, [r7]
 2048 0030 1346     		mov	r3, r2
 2049 0032 9B00     		lsls	r3, r3, #2
 2050 0034 1344     		add	r3, r3, r2
 2051 0036 5B00     		lsls	r3, r3, #1
 2052 0038 1A46     		mov	r2, r3
 2053 003a FB68     		ldr	r3, [r7, #12]
 2054 003c 1344     		add	r3, r3, r2
 2055 003e FB60     		str	r3, [r7, #12]
1637:Generated_Source\PSoC6/CapSense_Filter.c **** 
1638:Generated_Source\PSoC6/CapSense_Filter.c ****     /* Find pointer to specified filter sensor object */
1639:Generated_Source\PSoC6/CapSense_Filter.c ****     ptrNoiseEnvelope = ptrWidget->ptr2NoiseEnvlp;
 2056              		.loc 1 1639 0
 2057 0040 7B69     		ldr	r3, [r7, #20]
 2058 0042 5B6A     		ldr	r3, [r3, #36]
 2059 0044 BB60     		str	r3, [r7, #8]
1640:Generated_Source\PSoC6/CapSense_Filter.c ****     ptrNoiseEnvelope = &ptrNoiseEnvelope[sensorId];
 2060              		.loc 1 1640 0
 2061 0046 3A68     		ldr	r2, [r7]
 2062 0048 1346     		mov	r3, r2
 2063 004a 5B00     		lsls	r3, r3, #1
 2064 004c 1344     		add	r3, r3, r2
 2065 004e 9B00     		lsls	r3, r3, #2
 2066 0050 1A46     		mov	r2, r3
 2067 0052 BB68     		ldr	r3, [r7, #8]
 2068 0054 1344     		add	r3, r3, r2
 2069 0056 BB60     		str	r3, [r7, #8]
1641:Generated_Source\PSoC6/CapSense_Filter.c **** 
1642:Generated_Source\PSoC6/CapSense_Filter.c ****     SmartSense_InitializeNoiseEnvelope(ptrSensor->raw[0u], ptrWidgetRam->sigPFC, ptrNoiseEnvelope);
 2070              		.loc 1 1642 0
 2071 0058 FB68     		ldr	r3, [r7, #12]
 2072 005a 1888     		ldrh	r0, [r3]
 2073 005c 3B69     		ldr	r3, [r7, #16]
 2074 005e 1B8A     		ldrh	r3, [r3, #16]
 2075 0060 BA68     		ldr	r2, [r7, #8]
 2076 0062 1946     		mov	r1, r3
 2077 0064 FFF7FEFF 		bl	SmartSense_InitializeNoiseEnvelope
1643:Generated_Source\PSoC6/CapSense_Filter.c **** }
 2078              		.loc 1 1643 0
 2079 0068 00BF     		nop
 2080 006a 1837     		adds	r7, r7, #24
 2081              		.cfi_def_cfa_offset 8
 2082 006c BD46     		mov	sp, r7
 2083              		.cfi_def_cfa_register 13
 2084              		@ sp needed
 2085 006e 80BD     		pop	{r7, pc}
 2086              	.L88:
 2087              		.align	2
 2088              	.L87:
 2089 0070 00000000 		.word	CapSense_dsFlash
 2090              		.cfi_endproc
 2091              	.LFE148:
 2092              		.size	CapSense_InitializeNoiseEnvelope, .-CapSense_InitializeNoiseEnvelope
 2093              		.section	.text.CapSense_FtMedian,"ax",%progbits
 2094              		.align	2
 2095              		.global	CapSense_FtMedian
ARM GAS  C:\Users\ikomb\AppData\Local\Temp\cclK6Blf.s 			page 67


 2096              		.thumb
 2097              		.thumb_func
 2098              		.type	CapSense_FtMedian, %function
 2099              	CapSense_FtMedian:
 2100              	.LFB149:
1644:Generated_Source\PSoC6/CapSense_Filter.c **** #endif /* (0u != (CapSense_CSD_AUTOTUNE & CapSense_CSD_SS_TH_EN)) */
1645:Generated_Source\PSoC6/CapSense_Filter.c **** 
1646:Generated_Source\PSoC6/CapSense_Filter.c **** 
1647:Generated_Source\PSoC6/CapSense_Filter.c **** #if (CapSense_POS_MEDIAN_FILTER_EN || CapSense_REGULAR_RC_MEDIAN_FILTER_EN || CapSense_PROX_RC_MEDI
1648:Generated_Source\PSoC6/CapSense_Filter.c **** /*******************************************************************************
1649:Generated_Source\PSoC6/CapSense_Filter.c **** * Function Name: CapSense_FtMedian
1650:Generated_Source\PSoC6/CapSense_Filter.c **** ****************************************************************************//**
1651:Generated_Source\PSoC6/CapSense_Filter.c **** *
1652:Generated_Source\PSoC6/CapSense_Filter.c **** * \brief    Return the median value from the three passed arguments.
1653:Generated_Source\PSoC6/CapSense_Filter.c **** *
1654:Generated_Source\PSoC6/CapSense_Filter.c **** * \details  Return the median value from the three passed arguments.
1655:Generated_Source\PSoC6/CapSense_Filter.c **** *
1656:Generated_Source\PSoC6/CapSense_Filter.c **** * \param    x1 The first value to be compared.
1657:Generated_Source\PSoC6/CapSense_Filter.c **** * \param    x2 The second value to be compared.
1658:Generated_Source\PSoC6/CapSense_Filter.c **** * \param    x3 The third value to be compared.
1659:Generated_Source\PSoC6/CapSense_Filter.c **** *
1660:Generated_Source\PSoC6/CapSense_Filter.c **** * \return   Returns the median value of input arguments.
1661:Generated_Source\PSoC6/CapSense_Filter.c **** *
1662:Generated_Source\PSoC6/CapSense_Filter.c **** *******************************************************************************/
1663:Generated_Source\PSoC6/CapSense_Filter.c **** uint32 CapSense_FtMedian(uint32 x1, uint32 x2, uint32 x3)
1664:Generated_Source\PSoC6/CapSense_Filter.c **** {
 2101              		.loc 1 1664 0
 2102              		.cfi_startproc
 2103              		@ args = 0, pretend = 0, frame = 24
 2104              		@ frame_needed = 1, uses_anonymous_args = 0
 2105              		@ link register save eliminated.
 2106 0000 80B4     		push	{r7}
 2107              		.cfi_def_cfa_offset 4
 2108              		.cfi_offset 7, -4
 2109 0002 87B0     		sub	sp, sp, #28
 2110              		.cfi_def_cfa_offset 32
 2111 0004 00AF     		add	r7, sp, #0
 2112              		.cfi_def_cfa_register 7
 2113 0006 F860     		str	r0, [r7, #12]
 2114 0008 B960     		str	r1, [r7, #8]
 2115 000a 7A60     		str	r2, [r7, #4]
1665:Generated_Source\PSoC6/CapSense_Filter.c ****     uint32 tmp;
1666:Generated_Source\PSoC6/CapSense_Filter.c **** 
1667:Generated_Source\PSoC6/CapSense_Filter.c ****     if (x1 > x2)
 2116              		.loc 1 1667 0
 2117 000c FA68     		ldr	r2, [r7, #12]
 2118 000e BB68     		ldr	r3, [r7, #8]
 2119 0010 9A42     		cmp	r2, r3
 2120 0012 05D9     		bls	.L90
1668:Generated_Source\PSoC6/CapSense_Filter.c ****     {
1669:Generated_Source\PSoC6/CapSense_Filter.c ****         tmp = x2;
 2121              		.loc 1 1669 0
 2122 0014 BB68     		ldr	r3, [r7, #8]
 2123 0016 7B61     		str	r3, [r7, #20]
1670:Generated_Source\PSoC6/CapSense_Filter.c ****         x2 = x1;
 2124              		.loc 1 1670 0
 2125 0018 FB68     		ldr	r3, [r7, #12]
ARM GAS  C:\Users\ikomb\AppData\Local\Temp\cclK6Blf.s 			page 68


 2126 001a BB60     		str	r3, [r7, #8]
1671:Generated_Source\PSoC6/CapSense_Filter.c ****         x1 = tmp;
 2127              		.loc 1 1671 0
 2128 001c 7B69     		ldr	r3, [r7, #20]
 2129 001e FB60     		str	r3, [r7, #12]
 2130              	.L90:
1672:Generated_Source\PSoC6/CapSense_Filter.c ****     }
1673:Generated_Source\PSoC6/CapSense_Filter.c **** 
1674:Generated_Source\PSoC6/CapSense_Filter.c ****     if (x2 > x3)
 2131              		.loc 1 1674 0
 2132 0020 BA68     		ldr	r2, [r7, #8]
 2133 0022 7B68     		ldr	r3, [r7, #4]
 2134 0024 9A42     		cmp	r2, r3
 2135 0026 01D9     		bls	.L91
1675:Generated_Source\PSoC6/CapSense_Filter.c ****     {
1676:Generated_Source\PSoC6/CapSense_Filter.c ****         x2 = x3;
 2136              		.loc 1 1676 0
 2137 0028 7B68     		ldr	r3, [r7, #4]
 2138 002a BB60     		str	r3, [r7, #8]
 2139              	.L91:
1677:Generated_Source\PSoC6/CapSense_Filter.c ****     }
1678:Generated_Source\PSoC6/CapSense_Filter.c **** 
1679:Generated_Source\PSoC6/CapSense_Filter.c ****     return ((x1 > x2) ? x1 : x2);
 2140              		.loc 1 1679 0
 2141 002c BA68     		ldr	r2, [r7, #8]
 2142 002e FB68     		ldr	r3, [r7, #12]
 2143 0030 9342     		cmp	r3, r2
 2144 0032 38BF     		it	cc
 2145 0034 1346     		movcc	r3, r2
1680:Generated_Source\PSoC6/CapSense_Filter.c **** }
 2146              		.loc 1 1680 0
 2147 0036 1846     		mov	r0, r3
 2148 0038 1C37     		adds	r7, r7, #28
 2149              		.cfi_def_cfa_offset 4
 2150 003a BD46     		mov	sp, r7
 2151              		.cfi_def_cfa_register 13
 2152              		@ sp needed
 2153 003c 5DF8047B 		ldr	r7, [sp], #4
 2154              		.cfi_restore 7
 2155              		.cfi_def_cfa_offset 0
 2156 0040 7047     		bx	lr
 2157              		.cfi_endproc
 2158              	.LFE149:
 2159              		.size	CapSense_FtMedian, .-CapSense_FtMedian
 2160 0042 00BF     		.section	.text.CapSense_FtIIR1stOrder,"ax",%progbits
 2161              		.align	2
 2162              		.global	CapSense_FtIIR1stOrder
 2163              		.thumb
 2164              		.thumb_func
 2165              		.type	CapSense_FtIIR1stOrder, %function
 2166              	CapSense_FtIIR1stOrder:
 2167              	.LFB150:
1681:Generated_Source\PSoC6/CapSense_Filter.c **** #endif /*CapSense_POS_MEDIAN_FILTER_EN || CapSense_REGULAR_RC_MEDIAN_FILTER_EN || CapSense_PROX_RC_
1682:Generated_Source\PSoC6/CapSense_Filter.c **** 
1683:Generated_Source\PSoC6/CapSense_Filter.c **** 
1684:Generated_Source\PSoC6/CapSense_Filter.c **** /*******************************************************************************
1685:Generated_Source\PSoC6/CapSense_Filter.c **** * Function Name: CapSense_FtIIR1stOrder
ARM GAS  C:\Users\ikomb\AppData\Local\Temp\cclK6Blf.s 			page 69


1686:Generated_Source\PSoC6/CapSense_Filter.c **** ****************************************************************************//**
1687:Generated_Source\PSoC6/CapSense_Filter.c **** *
1688:Generated_Source\PSoC6/CapSense_Filter.c **** * \brief    Return the filtered data by the IIR 1-st order algorithm
1689:Generated_Source\PSoC6/CapSense_Filter.c **** *
1690:Generated_Source\PSoC6/CapSense_Filter.c **** * \details  Return the filtered data by the IIR 1-st order algorithm
1691:Generated_Source\PSoC6/CapSense_Filter.c **** *
1692:Generated_Source\PSoC6/CapSense_Filter.c **** * \param    input      The data to be filtered.
1693:Generated_Source\PSoC6/CapSense_Filter.c **** * \param    prevOutput The previous filtered data.
1694:Generated_Source\PSoC6/CapSense_Filter.c **** * \param    n          The IIR filter coefficient (n/256).
1695:Generated_Source\PSoC6/CapSense_Filter.c **** * \param    shift      The parameter is used to shift input data to have free LSB
1696:Generated_Source\PSoC6/CapSense_Filter.c **** *                       bits for a fraction storage of the filter output calculation.
1697:Generated_Source\PSoC6/CapSense_Filter.c **** *
1698:Generated_Source\PSoC6/CapSense_Filter.c **** * \return   Returns the filtered data.
1699:Generated_Source\PSoC6/CapSense_Filter.c **** *
1700:Generated_Source\PSoC6/CapSense_Filter.c **** *******************************************************************************/
1701:Generated_Source\PSoC6/CapSense_Filter.c **** uint32 CapSense_FtIIR1stOrder(uint32 input, uint32 prevOutput, uint32 n, uint32 shift)
1702:Generated_Source\PSoC6/CapSense_Filter.c **** {
 2168              		.loc 1 1702 0
 2169              		.cfi_startproc
 2170              		@ args = 0, pretend = 0, frame = 24
 2171              		@ frame_needed = 1, uses_anonymous_args = 0
 2172              		@ link register save eliminated.
 2173 0000 80B4     		push	{r7}
 2174              		.cfi_def_cfa_offset 4
 2175              		.cfi_offset 7, -4
 2176 0002 87B0     		sub	sp, sp, #28
 2177              		.cfi_def_cfa_offset 32
 2178 0004 00AF     		add	r7, sp, #0
 2179              		.cfi_def_cfa_register 7
 2180 0006 F860     		str	r0, [r7, #12]
 2181 0008 B960     		str	r1, [r7, #8]
 2182 000a 7A60     		str	r2, [r7, #4]
 2183 000c 3B60     		str	r3, [r7]
1703:Generated_Source\PSoC6/CapSense_Filter.c ****     uint32 filteredOutput;
1704:Generated_Source\PSoC6/CapSense_Filter.c **** 
1705:Generated_Source\PSoC6/CapSense_Filter.c ****     /*
1706:Generated_Source\PSoC6/CapSense_Filter.c ****     * n - IIR filter coefficient (n/256)
1707:Generated_Source\PSoC6/CapSense_Filter.c ****     * shift - Used to shift input data to have free LSB bits
1708:Generated_Source\PSoC6/CapSense_Filter.c ****     * for fraction storage of filter output calculation
1709:Generated_Source\PSoC6/CapSense_Filter.c ****     */
1710:Generated_Source\PSoC6/CapSense_Filter.c ****     filteredOutput = ((n * (input << shift)) + ((CapSense_IIR_COEFFICIENT_K - n) * prevOutput)) >> 
 2184              		.loc 1 1710 0
 2185 000e FA68     		ldr	r2, [r7, #12]
 2186 0010 3B68     		ldr	r3, [r7]
 2187 0012 02FA03F3 		lsl	r3, r2, r3
 2188 0016 7A68     		ldr	r2, [r7, #4]
 2189 0018 02FB03F2 		mul	r2, r2, r3
 2190 001c 7B68     		ldr	r3, [r7, #4]
 2191 001e C3F58073 		rsb	r3, r3, #256
 2192 0022 B968     		ldr	r1, [r7, #8]
 2193 0024 01FB03F3 		mul	r3, r1, r3
 2194 0028 1344     		add	r3, r3, r2
 2195 002a 1B0A     		lsrs	r3, r3, #8
 2196 002c 7B61     		str	r3, [r7, #20]
1711:Generated_Source\PSoC6/CapSense_Filter.c **** 
1712:Generated_Source\PSoC6/CapSense_Filter.c ****     /* Shift operation of output will be done in upper level API if needed */
1713:Generated_Source\PSoC6/CapSense_Filter.c ****     return filteredOutput;
ARM GAS  C:\Users\ikomb\AppData\Local\Temp\cclK6Blf.s 			page 70


 2197              		.loc 1 1713 0
 2198 002e 7B69     		ldr	r3, [r7, #20]
1714:Generated_Source\PSoC6/CapSense_Filter.c **** }
 2199              		.loc 1 1714 0
 2200 0030 1846     		mov	r0, r3
 2201 0032 1C37     		adds	r7, r7, #28
 2202              		.cfi_def_cfa_offset 4
 2203 0034 BD46     		mov	sp, r7
 2204              		.cfi_def_cfa_register 13
 2205              		@ sp needed
 2206 0036 5DF8047B 		ldr	r7, [sp], #4
 2207              		.cfi_restore 7
 2208              		.cfi_def_cfa_offset 0
 2209 003a 7047     		bx	lr
 2210              		.cfi_endproc
 2211              	.LFE150:
 2212              		.size	CapSense_FtIIR1stOrder, .-CapSense_FtIIR1stOrder
 2213              		.text
 2214              	.Letext0:
 2215              		.file 2 "c:\\program files (x86)\\cypress\\psoc creator\\4.4\\psoc creator\\import\\gnu\\arm\\5.4.
 2216              		.file 3 "c:\\program files (x86)\\cypress\\psoc creator\\4.4\\psoc creator\\import\\gnu\\arm\\5.4.
 2217              		.file 4 "Generated_Source\\PSoC6\\pdl\\drivers/peripheral/syslib/cy_syslib.h"
 2218              		.file 5 "Generated_Source\\PSoC6\\CapSense_Configuration.h"
 2219              		.file 6 "Generated_Source\\PSoC6\\CapSense_SmartSense_LL.h"
 2220              		.file 7 "Generated_Source\\PSoC6\\CapSense_Structure.h"
 2221              		.file 8 "Generated_Source\\PSoC6\\pdl\\cmsis/include/core_cm4.h"
 2222              		.section	.debug_info,"",%progbits
 2223              	.Ldebug_info0:
 2224 0000 440E0000 		.4byte	0xe44
 2225 0004 0400     		.2byte	0x4
 2226 0006 00000000 		.4byte	.Ldebug_abbrev0
 2227 000a 04       		.byte	0x4
 2228 000b 01       		.uleb128 0x1
 2229 000c 5A090000 		.4byte	.LASF143
 2230 0010 0C       		.byte	0xc
 2231 0011 2F070000 		.4byte	.LASF144
 2232 0015 FA040000 		.4byte	.LASF145
 2233 0019 00000000 		.4byte	.Ldebug_ranges0+0
 2234 001d 00000000 		.4byte	0
 2235 0021 00000000 		.4byte	.Ldebug_line0
 2236 0025 02       		.uleb128 0x2
 2237 0026 04       		.byte	0x4
 2238 0027 05       		.byte	0x5
 2239 0028 696E7400 		.ascii	"int\000"
 2240 002c 03       		.uleb128 0x3
 2241 002d 04       		.byte	0x4
 2242 002e 07       		.byte	0x7
 2243 002f FB020000 		.4byte	.LASF0
 2244 0033 03       		.uleb128 0x3
 2245 0034 08       		.byte	0x8
 2246 0035 05       		.byte	0x5
 2247 0036 E0010000 		.4byte	.LASF1
 2248 003a 03       		.uleb128 0x3
 2249 003b 08       		.byte	0x8
 2250 003c 04       		.byte	0x4
 2251 003d 91070000 		.4byte	.LASF2
 2252 0041 03       		.uleb128 0x3
ARM GAS  C:\Users\ikomb\AppData\Local\Temp\cclK6Blf.s 			page 71


 2253 0042 01       		.byte	0x1
 2254 0043 06       		.byte	0x6
 2255 0044 EE010000 		.4byte	.LASF3
 2256 0048 04       		.uleb128 0x4
 2257 0049 75000000 		.4byte	.LASF6
 2258 004d 02       		.byte	0x2
 2259 004e 1D       		.byte	0x1d
 2260 004f 53000000 		.4byte	0x53
 2261 0053 03       		.uleb128 0x3
 2262 0054 01       		.byte	0x1
 2263 0055 08       		.byte	0x8
 2264 0056 3C080000 		.4byte	.LASF4
 2265 005a 03       		.uleb128 0x3
 2266 005b 02       		.byte	0x2
 2267 005c 05       		.byte	0x5
 2268 005d 28040000 		.4byte	.LASF5
 2269 0061 04       		.uleb128 0x4
 2270 0062 A2070000 		.4byte	.LASF7
 2271 0066 02       		.byte	0x2
 2272 0067 2B       		.byte	0x2b
 2273 0068 6C000000 		.4byte	0x6c
 2274 006c 03       		.uleb128 0x3
 2275 006d 02       		.byte	0x2
 2276 006e 07       		.byte	0x7
 2277 006f 83030000 		.4byte	.LASF8
 2278 0073 04       		.uleb128 0x4
 2279 0074 39040000 		.4byte	.LASF9
 2280 0078 02       		.byte	0x2
 2281 0079 3F       		.byte	0x3f
 2282 007a 7E000000 		.4byte	0x7e
 2283 007e 03       		.uleb128 0x3
 2284 007f 04       		.byte	0x4
 2285 0080 05       		.byte	0x5
 2286 0081 17020000 		.4byte	.LASF10
 2287 0085 04       		.uleb128 0x4
 2288 0086 8F020000 		.4byte	.LASF11
 2289 008a 02       		.byte	0x2
 2290 008b 41       		.byte	0x41
 2291 008c 90000000 		.4byte	0x90
 2292 0090 03       		.uleb128 0x3
 2293 0091 04       		.byte	0x4
 2294 0092 07       		.byte	0x7
 2295 0093 17030000 		.4byte	.LASF12
 2296 0097 03       		.uleb128 0x3
 2297 0098 08       		.byte	0x8
 2298 0099 07       		.byte	0x7
 2299 009a E8000000 		.4byte	.LASF13
 2300 009e 04       		.uleb128 0x4
 2301 009f E8080000 		.4byte	.LASF14
 2302 00a3 03       		.byte	0x3
 2303 00a4 18       		.byte	0x18
 2304 00a5 48000000 		.4byte	0x48
 2305 00a9 04       		.uleb128 0x4
 2306 00aa 37020000 		.4byte	.LASF15
 2307 00ae 03       		.byte	0x3
 2308 00af 24       		.byte	0x24
 2309 00b0 61000000 		.4byte	0x61
ARM GAS  C:\Users\ikomb\AppData\Local\Temp\cclK6Blf.s 			page 72


 2310 00b4 04       		.uleb128 0x4
 2311 00b5 57060000 		.4byte	.LASF16
 2312 00b9 03       		.byte	0x3
 2313 00ba 2C       		.byte	0x2c
 2314 00bb 73000000 		.4byte	0x73
 2315 00bf 04       		.uleb128 0x4
 2316 00c0 88070000 		.4byte	.LASF17
 2317 00c4 03       		.byte	0x3
 2318 00c5 30       		.byte	0x30
 2319 00c6 85000000 		.4byte	0x85
 2320 00ca 03       		.uleb128 0x3
 2321 00cb 04       		.byte	0x4
 2322 00cc 07       		.byte	0x7
 2323 00cd F5080000 		.4byte	.LASF18
 2324 00d1 03       		.uleb128 0x3
 2325 00d2 01       		.byte	0x1
 2326 00d3 08       		.byte	0x8
 2327 00d4 9D070000 		.4byte	.LASF19
 2328 00d8 03       		.uleb128 0x3
 2329 00d9 04       		.byte	0x4
 2330 00da 04       		.byte	0x4
 2331 00db D7050000 		.4byte	.LASF20
 2332 00df 03       		.uleb128 0x3
 2333 00e0 08       		.byte	0x8
 2334 00e1 04       		.byte	0x4
 2335 00e2 40020000 		.4byte	.LASF21
 2336 00e6 05       		.uleb128 0x5
 2337 00e7 26010000 		.4byte	.LASF22
 2338 00eb 04       		.byte	0x4
 2339 00ec 8203     		.2byte	0x382
 2340 00ee BF000000 		.4byte	0xbf
 2341 00f2 05       		.uleb128 0x5
 2342 00f3 31020000 		.4byte	.LASF23
 2343 00f7 04       		.byte	0x4
 2344 00f8 8503     		.2byte	0x385
 2345 00fa 9E000000 		.4byte	0x9e
 2346 00fe 05       		.uleb128 0x5
 2347 00ff 00000000 		.4byte	.LASF24
 2348 0103 04       		.byte	0x4
 2349 0104 8603     		.2byte	0x386
 2350 0106 A9000000 		.4byte	0xa9
 2351 010a 05       		.uleb128 0x5
 2352 010b 7D020000 		.4byte	.LASF25
 2353 010f 04       		.byte	0x4
 2354 0110 8703     		.2byte	0x387
 2355 0112 BF000000 		.4byte	0xbf
 2356 0116 04       		.uleb128 0x4
 2357 0117 7D010000 		.4byte	.LASF26
 2358 011b 05       		.byte	0x5
 2359 011c F2       		.byte	0xf2
 2360 011d FE000000 		.4byte	0xfe
 2361 0121 04       		.uleb128 0x4
 2362 0122 35010000 		.4byte	.LASF27
 2363 0126 05       		.byte	0x5
 2364 0127 F6       		.byte	0xf6
 2365 0128 F2000000 		.4byte	0xf2
 2366 012c 06       		.uleb128 0x6
ARM GAS  C:\Users\ikomb\AppData\Local\Temp\cclK6Blf.s 			page 73


 2367 012d 0C       		.byte	0xc
 2368 012e 06       		.byte	0x6
 2369 012f 6E       		.byte	0x6e
 2370 0130 89010000 		.4byte	0x189
 2371 0134 07       		.uleb128 0x7
 2372 0135 5F060000 		.4byte	.LASF28
 2373 0139 06       		.byte	0x6
 2374 013a 73       		.byte	0x73
 2375 013b FE000000 		.4byte	0xfe
 2376 013f 00       		.byte	0
 2377 0140 07       		.uleb128 0x7
 2378 0141 66060000 		.4byte	.LASF29
 2379 0145 06       		.byte	0x6
 2380 0146 77       		.byte	0x77
 2381 0147 FE000000 		.4byte	0xfe
 2382 014b 02       		.byte	0x2
 2383 014c 07       		.uleb128 0x7
 2384 014d 6D060000 		.4byte	.LASF30
 2385 0151 06       		.byte	0x6
 2386 0152 7B       		.byte	0x7b
 2387 0153 FE000000 		.4byte	0xfe
 2388 0157 04       		.byte	0x4
 2389 0158 07       		.uleb128 0x7
 2390 0159 74060000 		.4byte	.LASF31
 2391 015d 06       		.byte	0x6
 2392 015e 7F       		.byte	0x7f
 2393 015f FE000000 		.4byte	0xfe
 2394 0163 06       		.byte	0x6
 2395 0164 07       		.uleb128 0x7
 2396 0165 7B060000 		.4byte	.LASF32
 2397 0169 06       		.byte	0x6
 2398 016a 83       		.byte	0x83
 2399 016b FE000000 		.4byte	0xfe
 2400 016f 08       		.byte	0x8
 2401 0170 07       		.uleb128 0x7
 2402 0171 82060000 		.4byte	.LASF33
 2403 0175 06       		.byte	0x6
 2404 0176 87       		.byte	0x87
 2405 0177 F2000000 		.4byte	0xf2
 2406 017b 0A       		.byte	0xa
 2407 017c 07       		.uleb128 0x7
 2408 017d 89060000 		.4byte	.LASF34
 2409 0181 06       		.byte	0x6
 2410 0182 8B       		.byte	0x8b
 2411 0183 F2000000 		.4byte	0xf2
 2412 0187 0B       		.byte	0xb
 2413 0188 00       		.byte	0
 2414 0189 04       		.uleb128 0x4
 2415 018a F9050000 		.4byte	.LASF35
 2416 018e 06       		.byte	0x6
 2417 018f 8C       		.byte	0x8c
 2418 0190 2C010000 		.4byte	0x12c
 2419 0194 08       		.uleb128 0x8
 2420 0195 01       		.byte	0x1
 2421 0196 53000000 		.4byte	0x53
 2422 019a 07       		.byte	0x7
 2423 019b 61       		.byte	0x61
ARM GAS  C:\Users\ikomb\AppData\Local\Temp\cclK6Blf.s 			page 74


 2424 019c C5010000 		.4byte	0x1c5
 2425 01a0 09       		.uleb128 0x9
 2426 01a1 42060000 		.4byte	.LASF36
 2427 01a5 01       		.byte	0x1
 2428 01a6 09       		.uleb128 0x9
 2429 01a7 95010000 		.4byte	.LASF37
 2430 01ab 02       		.byte	0x2
 2431 01ac 09       		.uleb128 0x9
 2432 01ad DD050000 		.4byte	.LASF38
 2433 01b1 03       		.byte	0x3
 2434 01b2 09       		.uleb128 0x9
 2435 01b3 D5020000 		.4byte	.LASF39
 2436 01b7 04       		.byte	0x4
 2437 01b8 09       		.uleb128 0x9
 2438 01b9 18070000 		.4byte	.LASF40
 2439 01bd 05       		.byte	0x5
 2440 01be 09       		.uleb128 0x9
 2441 01bf 160A0000 		.4byte	.LASF41
 2442 01c3 06       		.byte	0x6
 2443 01c4 00       		.byte	0
 2444 01c5 04       		.uleb128 0x4
 2445 01c6 DB070000 		.4byte	.LASF42
 2446 01ca 07       		.byte	0x7
 2447 01cb 68       		.byte	0x68
 2448 01cc 94010000 		.4byte	0x194
 2449 01d0 08       		.uleb128 0x8
 2450 01d1 01       		.byte	0x1
 2451 01d2 53000000 		.4byte	0x53
 2452 01d6 07       		.byte	0x7
 2453 01d7 6F       		.byte	0x6f
 2454 01d8 F5010000 		.4byte	0x1f5
 2455 01dc 09       		.uleb128 0x9
 2456 01dd E9030000 		.4byte	.LASF43
 2457 01e1 00       		.byte	0
 2458 01e2 09       		.uleb128 0x9
 2459 01e3 87050000 		.4byte	.LASF44
 2460 01e7 01       		.byte	0x1
 2461 01e8 09       		.uleb128 0x9
 2462 01e9 89000000 		.4byte	.LASF45
 2463 01ed 02       		.byte	0x2
 2464 01ee 09       		.uleb128 0x9
 2465 01ef A2020000 		.4byte	.LASF46
 2466 01f3 03       		.byte	0x3
 2467 01f4 00       		.byte	0
 2468 01f5 04       		.uleb128 0x4
 2469 01f6 47020000 		.4byte	.LASF47
 2470 01fa 07       		.byte	0x7
 2471 01fb 74       		.byte	0x74
 2472 01fc D0010000 		.4byte	0x1d0
 2473 0200 06       		.uleb128 0x6
 2474 0201 12       		.byte	0x12
 2475 0202 07       		.byte	0x7
 2476 0203 8C       		.byte	0x8c
 2477 0204 99020000 		.4byte	0x299
 2478 0208 07       		.uleb128 0x7
 2479 0209 A3080000 		.4byte	.LASF48
 2480 020d 07       		.byte	0x7
ARM GAS  C:\Users\ikomb\AppData\Local\Temp\cclK6Blf.s 			page 75


 2481 020e 92       		.byte	0x92
 2482 020f FE000000 		.4byte	0xfe
 2483 0213 00       		.byte	0
 2484 0214 07       		.uleb128 0x7
 2485 0215 0D0A0000 		.4byte	.LASF49
 2486 0219 07       		.byte	0x7
 2487 021a 97       		.byte	0x97
 2488 021b 16010000 		.4byte	0x116
 2489 021f 02       		.byte	0x2
 2490 0220 07       		.uleb128 0x7
 2491 0221 620A0000 		.4byte	.LASF50
 2492 0225 07       		.byte	0x7
 2493 0226 9C       		.byte	0x9c
 2494 0227 F2000000 		.4byte	0xf2
 2495 022b 04       		.byte	0x4
 2496 022c 07       		.uleb128 0x7
 2497 022d 5A050000 		.4byte	.LASF51
 2498 0231 07       		.byte	0x7
 2499 0232 A1       		.byte	0xa1
 2500 0233 F2000000 		.4byte	0xf2
 2501 0237 05       		.byte	0x5
 2502 0238 07       		.uleb128 0x7
 2503 0239 84020000 		.4byte	.LASF52
 2504 023d 07       		.byte	0x7
 2505 023e A6       		.byte	0xa6
 2506 023f F2000000 		.4byte	0xf2
 2507 0243 06       		.byte	0x6
 2508 0244 07       		.uleb128 0x7
 2509 0245 D0070000 		.4byte	.LASF53
 2510 0249 07       		.byte	0x7
 2511 024a AB       		.byte	0xab
 2512 024b F2000000 		.4byte	0xf2
 2513 024f 07       		.byte	0x7
 2514 0250 07       		.uleb128 0x7
 2515 0251 5B030000 		.4byte	.LASF54
 2516 0255 07       		.byte	0x7
 2517 0256 B2       		.byte	0xb2
 2518 0257 21010000 		.4byte	0x121
 2519 025b 08       		.byte	0x8
 2520 025c 07       		.uleb128 0x7
 2521 025d 6D040000 		.4byte	.LASF55
 2522 0261 07       		.byte	0x7
 2523 0262 BA       		.byte	0xba
 2524 0263 99020000 		.4byte	0x299
 2525 0267 09       		.byte	0x9
 2526 0268 07       		.uleb128 0x7
 2527 0269 AD070000 		.4byte	.LASF56
 2528 026d 07       		.byte	0x7
 2529 026e C3       		.byte	0xc3
 2530 026f FE000000 		.4byte	0xfe
 2531 0273 0A       		.byte	0xa
 2532 0274 07       		.uleb128 0x7
 2533 0275 FE080000 		.4byte	.LASF57
 2534 0279 07       		.byte	0x7
 2535 027a C8       		.byte	0xc8
 2536 027b F2000000 		.4byte	0xf2
 2537 027f 0C       		.byte	0xc
ARM GAS  C:\Users\ikomb\AppData\Local\Temp\cclK6Blf.s 			page 76


 2538 0280 07       		.uleb128 0x7
 2539 0281 7F000000 		.4byte	.LASF58
 2540 0285 07       		.byte	0x7
 2541 0286 CF       		.byte	0xcf
 2542 0287 FE000000 		.4byte	0xfe
 2543 028b 0E       		.byte	0xe
 2544 028c 07       		.uleb128 0x7
 2545 028d 63050000 		.4byte	.LASF59
 2546 0291 07       		.byte	0x7
 2547 0292 D4       		.byte	0xd4
 2548 0293 FE000000 		.4byte	0xfe
 2549 0297 10       		.byte	0x10
 2550 0298 00       		.byte	0
 2551 0299 0A       		.uleb128 0xa
 2552 029a F2000000 		.4byte	0xf2
 2553 029e A9020000 		.4byte	0x2a9
 2554 02a2 0B       		.uleb128 0xb
 2555 02a3 CA000000 		.4byte	0xca
 2556 02a7 00       		.byte	0
 2557 02a8 00       		.byte	0
 2558 02a9 04       		.uleb128 0x4
 2559 02aa B4070000 		.4byte	.LASF60
 2560 02ae 07       		.byte	0x7
 2561 02af D5       		.byte	0xd5
 2562 02b0 00020000 		.4byte	0x200
 2563 02b4 0A       		.uleb128 0xa
 2564 02b5 FE000000 		.4byte	0xfe
 2565 02b9 C4020000 		.4byte	0x2c4
 2566 02bd 0B       		.uleb128 0xb
 2567 02be CA000000 		.4byte	0xca
 2568 02c2 00       		.byte	0
 2569 02c3 00       		.byte	0
 2570 02c4 0C       		.uleb128 0xc
 2571 02c5 0A       		.byte	0xa
 2572 02c6 07       		.byte	0x7
 2573 02c7 9201     		.2byte	0x192
 2574 02c9 1C030000 		.4byte	0x31c
 2575 02cd 0D       		.uleb128 0xd
 2576 02ce 72617700 		.ascii	"raw\000"
 2577 02d2 07       		.byte	0x7
 2578 02d3 9701     		.2byte	0x197
 2579 02d5 B4020000 		.4byte	0x2b4
 2580 02d9 00       		.byte	0
 2581 02da 0E       		.uleb128 0xe
 2582 02db F6020000 		.4byte	.LASF61
 2583 02df 07       		.byte	0x7
 2584 02e0 9C01     		.2byte	0x19c
 2585 02e2 B4020000 		.4byte	0x2b4
 2586 02e6 02       		.byte	0x2
 2587 02e7 0E       		.uleb128 0xe
 2588 02e8 9A020000 		.4byte	.LASF62
 2589 02ec 07       		.byte	0x7
 2590 02ed A201     		.2byte	0x1a2
 2591 02ef 99020000 		.4byte	0x299
 2592 02f3 04       		.byte	0x4
 2593 02f4 0E       		.uleb128 0xe
 2594 02f5 30010000 		.4byte	.LASF63
ARM GAS  C:\Users\ikomb\AppData\Local\Temp\cclK6Blf.s 			page 77


 2595 02f9 07       		.byte	0x7
 2596 02fa A701     		.2byte	0x1a7
 2597 02fc 16010000 		.4byte	0x116
 2598 0300 06       		.byte	0x6
 2599 0301 0E       		.uleb128 0xe
 2600 0302 4A080000 		.4byte	.LASF64
 2601 0306 07       		.byte	0x7
 2602 0307 AC01     		.2byte	0x1ac
 2603 0309 1C030000 		.4byte	0x31c
 2604 030d 08       		.byte	0x8
 2605 030e 0E       		.uleb128 0xe
 2606 030f 13080000 		.4byte	.LASF65
 2607 0313 07       		.byte	0x7
 2608 0314 B201     		.2byte	0x1b2
 2609 0316 99020000 		.4byte	0x299
 2610 031a 09       		.byte	0x9
 2611 031b 00       		.byte	0
 2612 031c 0A       		.uleb128 0xa
 2613 031d 21010000 		.4byte	0x121
 2614 0321 2C030000 		.4byte	0x32c
 2615 0325 0B       		.uleb128 0xb
 2616 0326 CA000000 		.4byte	0xca
 2617 032a 00       		.byte	0
 2618 032b 00       		.byte	0
 2619 032c 05       		.uleb128 0x5
 2620 032d D0000000 		.4byte	.LASF66
 2621 0331 07       		.byte	0x7
 2622 0332 B301     		.2byte	0x1b3
 2623 0334 C4020000 		.4byte	0x2c4
 2624 0338 0C       		.uleb128 0xc
 2625 0339 30       		.byte	0x30
 2626 033a 07       		.byte	0x7
 2627 033b 7B02     		.2byte	0x27b
 2628 033d 12040000 		.4byte	0x412
 2629 0341 0E       		.uleb128 0xe
 2630 0342 19010000 		.4byte	.LASF67
 2631 0346 07       		.byte	0x7
 2632 0347 8402     		.2byte	0x284
 2633 0349 12040000 		.4byte	0x412
 2634 034d 00       		.byte	0
 2635 034e 0E       		.uleb128 0xe
 2636 034f 1C040000 		.4byte	.LASF68
 2637 0353 07       		.byte	0x7
 2638 0354 8B02     		.2byte	0x28b
 2639 0356 19040000 		.4byte	0x419
 2640 035a 04       		.byte	0x4
 2641 035b 0E       		.uleb128 0xe
 2642 035c 20020000 		.4byte	.LASF69
 2643 0360 07       		.byte	0x7
 2644 0361 9102     		.2byte	0x291
 2645 0363 1B040000 		.4byte	0x41b
 2646 0367 08       		.byte	0x8
 2647 0368 0E       		.uleb128 0xe
 2648 0369 A9060000 		.4byte	.LASF70
 2649 036d 07       		.byte	0x7
 2650 036e 9602     		.2byte	0x296
 2651 0370 19040000 		.4byte	0x419
ARM GAS  C:\Users\ikomb\AppData\Local\Temp\cclK6Blf.s 			page 78


 2652 0374 0C       		.byte	0xc
 2653 0375 0E       		.uleb128 0xe
 2654 0376 78080000 		.4byte	.LASF71
 2655 037a 07       		.byte	0x7
 2656 037b 9D02     		.2byte	0x29d
 2657 037d 21040000 		.4byte	0x421
 2658 0381 10       		.byte	0x10
 2659 0382 0E       		.uleb128 0xe
 2660 0383 AE080000 		.4byte	.LASF72
 2661 0387 07       		.byte	0x7
 2662 0388 A202     		.2byte	0x2a2
 2663 038a 0A010000 		.4byte	0x10a
 2664 038e 14       		.byte	0x14
 2665 038f 0E       		.uleb128 0xe
 2666 0390 BB080000 		.4byte	.LASF73
 2667 0394 07       		.byte	0x7
 2668 0395 A902     		.2byte	0x2a9
 2669 0397 FE000000 		.4byte	0xfe
 2670 039b 18       		.byte	0x18
 2671 039c 0E       		.uleb128 0xe
 2672 039d 6A050000 		.4byte	.LASF74
 2673 03a1 07       		.byte	0x7
 2674 03a2 B402     		.2byte	0x2b4
 2675 03a4 F2000000 		.4byte	0xf2
 2676 03a8 1A       		.byte	0x1a
 2677 03a9 0E       		.uleb128 0xe
 2678 03aa 4F030000 		.4byte	.LASF75
 2679 03ae 07       		.byte	0x7
 2680 03af B902     		.2byte	0x2b9
 2681 03b1 F2000000 		.4byte	0xf2
 2682 03b5 1B       		.byte	0x1b
 2683 03b6 0E       		.uleb128 0xe
 2684 03b7 87040000 		.4byte	.LASF76
 2685 03bb 07       		.byte	0x7
 2686 03bc C102     		.2byte	0x2c1
 2687 03be F2000000 		.4byte	0xf2
 2688 03c2 1C       		.byte	0x1c
 2689 03c3 0E       		.uleb128 0xe
 2690 03c4 BF020000 		.4byte	.LASF77
 2691 03c8 07       		.byte	0x7
 2692 03c9 C802     		.2byte	0x2c8
 2693 03cb F2000000 		.4byte	0xf2
 2694 03cf 1D       		.byte	0x1d
 2695 03d0 0E       		.uleb128 0xe
 2696 03d1 62020000 		.4byte	.LASF78
 2697 03d5 07       		.byte	0x7
 2698 03d6 CE02     		.2byte	0x2ce
 2699 03d8 FE000000 		.4byte	0xfe
 2700 03dc 1E       		.byte	0x1e
 2701 03dd 0E       		.uleb128 0xe
 2702 03de 73050000 		.4byte	.LASF79
 2703 03e2 07       		.byte	0x7
 2704 03e3 D802     		.2byte	0x2d8
 2705 03e5 0A010000 		.4byte	0x10a
 2706 03e9 20       		.byte	0x20
 2707 03ea 0E       		.uleb128 0xe
 2708 03eb 08030000 		.4byte	.LASF80
ARM GAS  C:\Users\ikomb\AppData\Local\Temp\cclK6Blf.s 			page 79


 2709 03ef 07       		.byte	0x7
 2710 03f0 E002     		.2byte	0x2e0
 2711 03f2 27040000 		.4byte	0x427
 2712 03f6 24       		.byte	0x24
 2713 03f7 0E       		.uleb128 0xe
 2714 03f8 07000000 		.4byte	.LASF81
 2715 03fc 07       		.byte	0x7
 2716 03fd E502     		.2byte	0x2e5
 2717 03ff 19040000 		.4byte	0x419
 2718 0403 28       		.byte	0x28
 2719 0404 0E       		.uleb128 0xe
 2720 0405 A5000000 		.4byte	.LASF82
 2721 0409 07       		.byte	0x7
 2722 040a EA02     		.2byte	0x2ea
 2723 040c F2000000 		.4byte	0xf2
 2724 0410 2C       		.byte	0x2c
 2725 0411 00       		.byte	0
 2726 0412 0F       		.uleb128 0xf
 2727 0413 04       		.byte	0x4
 2728 0414 18040000 		.4byte	0x418
 2729 0418 10       		.uleb128 0x10
 2730 0419 11       		.uleb128 0x11
 2731 041a 04       		.byte	0x4
 2732 041b 0F       		.uleb128 0xf
 2733 041c 04       		.byte	0x4
 2734 041d 2C030000 		.4byte	0x32c
 2735 0421 0F       		.uleb128 0xf
 2736 0422 04       		.byte	0x4
 2737 0423 F2000000 		.4byte	0xf2
 2738 0427 0F       		.uleb128 0xf
 2739 0428 04       		.byte	0x4
 2740 0429 89010000 		.4byte	0x189
 2741 042d 05       		.uleb128 0x5
 2742 042e 90060000 		.4byte	.LASF83
 2743 0432 07       		.byte	0x7
 2744 0433 EB02     		.2byte	0x2eb
 2745 0435 38030000 		.4byte	0x338
 2746 0439 0C       		.uleb128 0xc
 2747 043a 90       		.byte	0x90
 2748 043b 07       		.byte	0x7
 2749 043c F102     		.2byte	0x2f1
 2750 043e 50040000 		.4byte	0x450
 2751 0442 0E       		.uleb128 0xe
 2752 0443 C7080000 		.4byte	.LASF84
 2753 0447 07       		.byte	0x7
 2754 0448 F602     		.2byte	0x2f6
 2755 044a 50040000 		.4byte	0x450
 2756 044e 00       		.byte	0
 2757 044f 00       		.byte	0
 2758 0450 0A       		.uleb128 0xa
 2759 0451 2D040000 		.4byte	0x42d
 2760 0455 60040000 		.4byte	0x460
 2761 0459 0B       		.uleb128 0xb
 2762 045a CA000000 		.4byte	0xca
 2763 045e 02       		.byte	0x2
 2764 045f 00       		.byte	0
 2765 0460 05       		.uleb128 0x5
ARM GAS  C:\Users\ikomb\AppData\Local\Temp\cclK6Blf.s 			page 80


 2766 0461 23000000 		.4byte	.LASF85
 2767 0465 07       		.byte	0x7
 2768 0466 F702     		.2byte	0x2f7
 2769 0468 39040000 		.4byte	0x439
 2770 046c 0C       		.uleb128 0xc
 2771 046d 0A       		.byte	0xa
 2772 046e 07       		.byte	0x7
 2773 046f 2C03     		.2byte	0x32c
 2774 0471 90040000 		.4byte	0x490
 2775 0475 0E       		.uleb128 0xe
 2776 0476 29030000 		.4byte	.LASF86
 2777 047a 07       		.byte	0x7
 2778 047b 3203     		.2byte	0x332
 2779 047d 90040000 		.4byte	0x490
 2780 0481 00       		.byte	0
 2781 0482 0E       		.uleb128 0xe
 2782 0483 A3050000 		.4byte	.LASF87
 2783 0487 07       		.byte	0x7
 2784 0488 3703     		.2byte	0x337
 2785 048a A0040000 		.4byte	0x4a0
 2786 048e 04       		.byte	0x4
 2787 048f 00       		.byte	0
 2788 0490 0A       		.uleb128 0xa
 2789 0491 FE000000 		.4byte	0xfe
 2790 0495 A0040000 		.4byte	0x4a0
 2791 0499 0B       		.uleb128 0xb
 2792 049a CA000000 		.4byte	0xca
 2793 049e 01       		.byte	0x1
 2794 049f 00       		.byte	0
 2795 04a0 0A       		.uleb128 0xa
 2796 04a1 FE000000 		.4byte	0xfe
 2797 04a5 B0040000 		.4byte	0x4b0
 2798 04a9 0B       		.uleb128 0xb
 2799 04aa CA000000 		.4byte	0xca
 2800 04ae 02       		.byte	0x2
 2801 04af 00       		.byte	0
 2802 04b0 05       		.uleb128 0x5
 2803 04b1 B3040000 		.4byte	.LASF88
 2804 04b5 07       		.byte	0x7
 2805 04b6 3803     		.2byte	0x338
 2806 04b8 6C040000 		.4byte	0x46c
 2807 04bc 0C       		.uleb128 0xc
 2808 04bd 0A       		.byte	0xa
 2809 04be 07       		.byte	0x7
 2810 04bf 3D03     		.2byte	0x33d
 2811 04c1 D3040000 		.4byte	0x4d3
 2812 04c5 0E       		.uleb128 0xe
 2813 04c6 33060000 		.4byte	.LASF89
 2814 04ca 07       		.byte	0x7
 2815 04cb 4203     		.2byte	0x342
 2816 04cd D3040000 		.4byte	0x4d3
 2817 04d1 00       		.byte	0
 2818 04d2 00       		.byte	0
 2819 04d3 0A       		.uleb128 0xa
 2820 04d4 B0040000 		.4byte	0x4b0
 2821 04d8 E3040000 		.4byte	0x4e3
 2822 04dc 0B       		.uleb128 0xb
ARM GAS  C:\Users\ikomb\AppData\Local\Temp\cclK6Blf.s 			page 81


 2823 04dd CA000000 		.4byte	0xca
 2824 04e1 00       		.byte	0
 2825 04e2 00       		.byte	0
 2826 04e3 05       		.uleb128 0x5
 2827 04e4 FA010000 		.4byte	.LASF90
 2828 04e8 07       		.byte	0x7
 2829 04e9 4303     		.2byte	0x343
 2830 04eb BC040000 		.4byte	0x4bc
 2831 04ef 12       		.uleb128 0x12
 2832 04f0 04       		.byte	0x4
 2833 04f1 07       		.byte	0x7
 2834 04f2 4803     		.2byte	0x348
 2835 04f4 11050000 		.4byte	0x511
 2836 04f8 13       		.uleb128 0x13
 2837 04f9 70747200 		.ascii	"ptr\000"
 2838 04fd 07       		.byte	0x7
 2839 04fe 4D03     		.2byte	0x34d
 2840 0500 19040000 		.4byte	0x419
 2841 0504 14       		.uleb128 0x14
 2842 0505 2E0A0000 		.4byte	.LASF91
 2843 0509 07       		.byte	0x7
 2844 050a 5203     		.2byte	0x352
 2845 050c 11050000 		.4byte	0x511
 2846 0510 00       		.byte	0
 2847 0511 0F       		.uleb128 0xf
 2848 0512 04       		.byte	0x4
 2849 0513 E3040000 		.4byte	0x4e3
 2850 0517 05       		.uleb128 0x5
 2851 0518 6C070000 		.4byte	.LASF92
 2852 051c 07       		.byte	0x7
 2853 051d 5303     		.2byte	0x353
 2854 051f EF040000 		.4byte	0x4ef
 2855 0523 15       		.uleb128 0x15
 2856 0524 AE050000 		.4byte	.LASF146
 2857 0528 01       		.byte	0x1
 2858 0529 3F       		.byte	0x3f
 2859 052a 00000000 		.4byte	.LFB125
 2860 052e 0C000000 		.4byte	.LFE125-.LFB125
 2861 0532 01       		.uleb128 0x1
 2862 0533 9C       		.byte	0x9c
 2863 0534 16       		.uleb128 0x16
 2864 0535 D7060000 		.4byte	.LASF95
 2865 0539 01       		.byte	0x1
 2866 053a 62       		.byte	0x62
 2867 053b E6000000 		.4byte	0xe6
 2868 053f 00000000 		.4byte	.LFB126
 2869 0543 32000000 		.4byte	.LFE126-.LFB126
 2870 0547 01       		.uleb128 0x1
 2871 0548 9C       		.byte	0x9c
 2872 0549 6A050000 		.4byte	0x56a
 2873 054d 17       		.uleb128 0x17
 2874 054e 4E040000 		.4byte	.LASF93
 2875 0552 01       		.byte	0x1
 2876 0553 64       		.byte	0x64
 2877 0554 0A010000 		.4byte	0x10a
 2878 0558 02       		.uleb128 0x2
 2879 0559 91       		.byte	0x91
ARM GAS  C:\Users\ikomb\AppData\Local\Temp\cclK6Blf.s 			page 82


 2880 055a 74       		.sleb128 -12
 2881 055b 17       		.uleb128 0x17
 2882 055c 43040000 		.4byte	.LASF94
 2883 0560 01       		.byte	0x1
 2884 0561 65       		.byte	0x65
 2885 0562 E6000000 		.4byte	0xe6
 2886 0566 02       		.uleb128 0x2
 2887 0567 91       		.byte	0x91
 2888 0568 70       		.sleb128 -16
 2889 0569 00       		.byte	0
 2890 056a 16       		.uleb128 0x16
 2891 056b 39000000 		.4byte	.LASF96
 2892 056f 01       		.byte	0x1
 2893 0570 8F       		.byte	0x8f
 2894 0571 E6000000 		.4byte	0xe6
 2895 0575 00000000 		.4byte	.LFB127
 2896 0579 50000000 		.4byte	.LFE127-.LFB127
 2897 057d 01       		.uleb128 0x1
 2898 057e 9C       		.byte	0x9c
 2899 057f CA050000 		.4byte	0x5ca
 2900 0583 18       		.uleb128 0x18
 2901 0584 4E040000 		.4byte	.LASF93
 2902 0588 01       		.byte	0x1
 2903 0589 8F       		.byte	0x8f
 2904 058a 0A010000 		.4byte	0x10a
 2905 058e 02       		.uleb128 0x2
 2906 058f 91       		.byte	0x91
 2907 0590 64       		.sleb128 -28
 2908 0591 17       		.uleb128 0x17
 2909 0592 74020000 		.4byte	.LASF97
 2910 0596 01       		.byte	0x1
 2911 0597 91       		.byte	0x91
 2912 0598 0A010000 		.4byte	0x10a
 2913 059c 02       		.uleb128 0x2
 2914 059d 91       		.byte	0x91
 2915 059e 74       		.sleb128 -12
 2916 059f 17       		.uleb128 0x17
 2917 05a0 C7020000 		.4byte	.LASF98
 2918 05a4 01       		.byte	0x1
 2919 05a5 92       		.byte	0x92
 2920 05a6 0A010000 		.4byte	0x10a
 2921 05aa 02       		.uleb128 0x2
 2922 05ab 91       		.byte	0x91
 2923 05ac 68       		.sleb128 -24
 2924 05ad 17       		.uleb128 0x17
 2925 05ae A9040000 		.4byte	.LASF99
 2926 05b2 01       		.byte	0x1
 2927 05b3 94       		.byte	0x94
 2928 05b4 CA050000 		.4byte	0x5ca
 2929 05b8 02       		.uleb128 0x2
 2930 05b9 91       		.byte	0x91
 2931 05ba 6C       		.sleb128 -20
 2932 05bb 17       		.uleb128 0x17
 2933 05bc 43040000 		.4byte	.LASF94
 2934 05c0 01       		.byte	0x1
 2935 05c1 95       		.byte	0x95
 2936 05c2 E6000000 		.4byte	0xe6
ARM GAS  C:\Users\ikomb\AppData\Local\Temp\cclK6Blf.s 			page 83


 2937 05c6 02       		.uleb128 0x2
 2938 05c7 91       		.byte	0x91
 2939 05c8 70       		.sleb128 -16
 2940 05c9 00       		.byte	0
 2941 05ca 0F       		.uleb128 0xf
 2942 05cb 04       		.byte	0x4
 2943 05cc D0050000 		.4byte	0x5d0
 2944 05d0 19       		.uleb128 0x19
 2945 05d1 2D040000 		.4byte	0x42d
 2946 05d5 16       		.uleb128 0x16
 2947 05d6 FE030000 		.4byte	.LASF100
 2948 05da 01       		.byte	0x1
 2949 05db C8       		.byte	0xc8
 2950 05dc E6000000 		.4byte	0xe6
 2951 05e0 00000000 		.4byte	.LFB128
 2952 05e4 60000000 		.4byte	.LFE128-.LFB128
 2953 05e8 01       		.uleb128 0x1
 2954 05e9 9C       		.byte	0x9c
 2955 05ea 43060000 		.4byte	0x643
 2956 05ee 18       		.uleb128 0x18
 2957 05ef 4E040000 		.4byte	.LASF93
 2958 05f3 01       		.byte	0x1
 2959 05f4 C8       		.byte	0xc8
 2960 05f5 0A010000 		.4byte	0x10a
 2961 05f9 02       		.uleb128 0x2
 2962 05fa 91       		.byte	0x91
 2963 05fb 64       		.sleb128 -28
 2964 05fc 18       		.uleb128 0x18
 2965 05fd 74020000 		.4byte	.LASF97
 2966 0601 01       		.byte	0x1
 2967 0602 C8       		.byte	0xc8
 2968 0603 0A010000 		.4byte	0x10a
 2969 0607 02       		.uleb128 0x2
 2970 0608 91       		.byte	0x91
 2971 0609 60       		.sleb128 -32
 2972 060a 17       		.uleb128 0x17
 2973 060b 390A0000 		.4byte	.LASF101
 2974 060f 01       		.byte	0x1
 2975 0610 CA       		.byte	0xca
 2976 0611 0A010000 		.4byte	0x10a
 2977 0615 02       		.uleb128 0x2
 2978 0616 91       		.byte	0x91
 2979 0617 74       		.sleb128 -12
 2980 0618 17       		.uleb128 0x17
 2981 0619 3F090000 		.4byte	.LASF102
 2982 061d 01       		.byte	0x1
 2983 061e CC       		.byte	0xcc
 2984 061f 1B040000 		.4byte	0x41b
 2985 0623 02       		.uleb128 0x2
 2986 0624 91       		.byte	0x91
 2987 0625 70       		.sleb128 -16
 2988 0626 17       		.uleb128 0x17
 2989 0627 A9040000 		.4byte	.LASF99
 2990 062b 01       		.byte	0x1
 2991 062c CD       		.byte	0xcd
 2992 062d CA050000 		.4byte	0x5ca
 2993 0631 02       		.uleb128 0x2
ARM GAS  C:\Users\ikomb\AppData\Local\Temp\cclK6Blf.s 			page 84


 2994 0632 91       		.byte	0x91
 2995 0633 6C       		.sleb128 -20
 2996 0634 17       		.uleb128 0x17
 2997 0635 16000000 		.4byte	.LASF103
 2998 0639 01       		.byte	0x1
 2999 063a CE       		.byte	0xce
 3000 063b 43060000 		.4byte	0x643
 3001 063f 02       		.uleb128 0x2
 3002 0640 91       		.byte	0x91
 3003 0641 68       		.sleb128 -24
 3004 0642 00       		.byte	0
 3005 0643 0F       		.uleb128 0xf
 3006 0644 04       		.byte	0x4
 3007 0645 A9020000 		.4byte	0x2a9
 3008 0649 16       		.uleb128 0x16
 3009 064a 96030000 		.4byte	.LASF104
 3010 064e 01       		.byte	0x1
 3011 064f FF       		.byte	0xff
 3012 0650 0A010000 		.4byte	0x10a
 3013 0654 00000000 		.4byte	.LFB129
 3014 0658 38010000 		.4byte	.LFE129-.LFB129
 3015 065c 01       		.uleb128 0x1
 3016 065d 9C       		.byte	0x9c
 3017 065e EA060000 		.4byte	0x6ea
 3018 0662 1A       		.uleb128 0x1a
 3019 0663 16000000 		.4byte	.LASF103
 3020 0667 01       		.byte	0x1
 3021 0668 0001     		.2byte	0x100
 3022 066a 43060000 		.4byte	0x643
 3023 066e 02       		.uleb128 0x2
 3024 066f 91       		.byte	0x91
 3025 0670 5C       		.sleb128 -36
 3026 0671 1A       		.uleb128 0x1a
 3027 0672 3F090000 		.4byte	.LASF102
 3028 0676 01       		.byte	0x1
 3029 0677 0101     		.2byte	0x101
 3030 0679 1B040000 		.4byte	0x41b
 3031 067d 02       		.uleb128 0x2
 3032 067e 91       		.byte	0x91
 3033 067f 58       		.sleb128 -40
 3034 0680 1A       		.uleb128 0x1a
 3035 0681 32040000 		.4byte	.LASF105
 3036 0685 01       		.byte	0x1
 3037 0686 0201     		.2byte	0x102
 3038 0688 0A010000 		.4byte	0x10a
 3039 068c 02       		.uleb128 0x2
 3040 068d 91       		.byte	0x91
 3041 068e 54       		.sleb128 -44
 3042 068f 1B       		.uleb128 0x1b
 3043 0690 F0080000 		.4byte	.LASF106
 3044 0694 01       		.byte	0x1
 3045 0695 0401     		.2byte	0x104
 3046 0697 0A010000 		.4byte	0x10a
 3047 069b 02       		.uleb128 0x2
 3048 069c 91       		.byte	0x91
 3049 069d 74       		.sleb128 -12
 3050 069e 1B       		.uleb128 0x1b
ARM GAS  C:\Users\ikomb\AppData\Local\Temp\cclK6Blf.s 			page 85


 3051 069f 62040000 		.4byte	.LASF107
 3052 06a3 01       		.byte	0x1
 3053 06a4 0501     		.2byte	0x105
 3054 06a6 0A010000 		.4byte	0x10a
 3055 06aa 02       		.uleb128 0x2
 3056 06ab 91       		.byte	0x91
 3057 06ac 70       		.sleb128 -16
 3058 06ad 1B       		.uleb128 0x1b
 3059 06ae 58070000 		.4byte	.LASF108
 3060 06b2 01       		.byte	0x1
 3061 06b3 0601     		.2byte	0x106
 3062 06b5 0A010000 		.4byte	0x10a
 3063 06b9 02       		.uleb128 0x2
 3064 06ba 91       		.byte	0x91
 3065 06bb 6C       		.sleb128 -20
 3066 06bc 1B       		.uleb128 0x1b
 3067 06bd D2010000 		.4byte	.LASF109
 3068 06c1 01       		.byte	0x1
 3069 06c2 0701     		.2byte	0x107
 3070 06c4 0A010000 		.4byte	0x10a
 3071 06c8 02       		.uleb128 0x2
 3072 06c9 91       		.byte	0x91
 3073 06ca 60       		.sleb128 -32
 3074 06cb 1B       		.uleb128 0x1b
 3075 06cc 390A0000 		.4byte	.LASF101
 3076 06d0 01       		.byte	0x1
 3077 06d1 0801     		.2byte	0x108
 3078 06d3 0A010000 		.4byte	0x10a
 3079 06d7 02       		.uleb128 0x2
 3080 06d8 91       		.byte	0x91
 3081 06d9 68       		.sleb128 -24
 3082 06da 1B       		.uleb128 0x1b
 3083 06db 1E060000 		.4byte	.LASF110
 3084 06df 01       		.byte	0x1
 3085 06e0 0B01     		.2byte	0x10b
 3086 06e2 0A010000 		.4byte	0x10a
 3087 06e6 02       		.uleb128 0x2
 3088 06e7 91       		.byte	0x91
 3089 06e8 64       		.sleb128 -28
 3090 06e9 00       		.byte	0
 3091 06ea 1C       		.uleb128 0x1c
 3092 06eb 58080000 		.4byte	.LASF111
 3093 06ef 01       		.byte	0x1
 3094 06f0 A301     		.2byte	0x1a3
 3095 06f2 00000000 		.4byte	.LFB130
 3096 06f6 24000000 		.4byte	.LFE130-.LFB130
 3097 06fa 01       		.uleb128 0x1
 3098 06fb 9C       		.byte	0x9c
 3099 06fc 10070000 		.4byte	0x710
 3100 0700 1B       		.uleb128 0x1b
 3101 0701 4E040000 		.4byte	.LASF93
 3102 0705 01       		.byte	0x1
 3103 0706 A501     		.2byte	0x1a5
 3104 0708 0A010000 		.4byte	0x10a
 3105 070c 02       		.uleb128 0x2
 3106 070d 91       		.byte	0x91
 3107 070e 74       		.sleb128 -12
ARM GAS  C:\Users\ikomb\AppData\Local\Temp\cclK6Blf.s 			page 86


 3108 070f 00       		.byte	0
 3109 0710 1C       		.uleb128 0x1c
 3110 0711 F1070000 		.4byte	.LASF112
 3111 0715 01       		.byte	0x1
 3112 0716 C701     		.2byte	0x1c7
 3113 0718 00000000 		.4byte	.LFB131
 3114 071c 44000000 		.4byte	.LFE131-.LFB131
 3115 0720 01       		.uleb128 0x1
 3116 0721 9C       		.byte	0x9c
 3117 0722 63070000 		.4byte	0x763
 3118 0726 1A       		.uleb128 0x1a
 3119 0727 4E040000 		.4byte	.LASF93
 3120 072b 01       		.byte	0x1
 3121 072c C701     		.2byte	0x1c7
 3122 072e 0A010000 		.4byte	0x10a
 3123 0732 02       		.uleb128 0x2
 3124 0733 91       		.byte	0x91
 3125 0734 64       		.sleb128 -28
 3126 0735 1B       		.uleb128 0x1b
 3127 0736 74020000 		.4byte	.LASF97
 3128 073a 01       		.byte	0x1
 3129 073b C901     		.2byte	0x1c9
 3130 073d 0A010000 		.4byte	0x10a
 3131 0741 02       		.uleb128 0x2
 3132 0742 91       		.byte	0x91
 3133 0743 74       		.sleb128 -12
 3134 0744 1B       		.uleb128 0x1b
 3135 0745 C7020000 		.4byte	.LASF98
 3136 0749 01       		.byte	0x1
 3137 074a CA01     		.2byte	0x1ca
 3138 074c 0A010000 		.4byte	0x10a
 3139 0750 02       		.uleb128 0x2
 3140 0751 91       		.byte	0x91
 3141 0752 6C       		.sleb128 -20
 3142 0753 1B       		.uleb128 0x1b
 3143 0754 A9040000 		.4byte	.LASF99
 3144 0758 01       		.byte	0x1
 3145 0759 CC01     		.2byte	0x1cc
 3146 075b CA050000 		.4byte	0x5ca
 3147 075f 02       		.uleb128 0x2
 3148 0760 91       		.byte	0x91
 3149 0761 70       		.sleb128 -16
 3150 0762 00       		.byte	0
 3151 0763 1C       		.uleb128 0x1c
 3152 0764 D8040000 		.4byte	.LASF113
 3153 0768 01       		.byte	0x1
 3154 0769 F301     		.2byte	0x1f3
 3155 076b 00000000 		.4byte	.LFB132
 3156 076f 54000000 		.4byte	.LFE132-.LFB132
 3157 0773 01       		.uleb128 0x1
 3158 0774 9C       		.byte	0x9c
 3159 0775 B6070000 		.4byte	0x7b6
 3160 0779 1A       		.uleb128 0x1a
 3161 077a 4E040000 		.4byte	.LASF93
 3162 077e 01       		.byte	0x1
 3163 077f F301     		.2byte	0x1f3
 3164 0781 0A010000 		.4byte	0x10a
ARM GAS  C:\Users\ikomb\AppData\Local\Temp\cclK6Blf.s 			page 87


 3165 0785 02       		.uleb128 0x2
 3166 0786 91       		.byte	0x91
 3167 0787 6C       		.sleb128 -20
 3168 0788 1A       		.uleb128 0x1a
 3169 0789 74020000 		.4byte	.LASF97
 3170 078d 01       		.byte	0x1
 3171 078e F301     		.2byte	0x1f3
 3172 0790 0A010000 		.4byte	0x10a
 3173 0794 02       		.uleb128 0x2
 3174 0795 91       		.byte	0x91
 3175 0796 68       		.sleb128 -24
 3176 0797 1B       		.uleb128 0x1b
 3177 0798 3F090000 		.4byte	.LASF102
 3178 079c 01       		.byte	0x1
 3179 079d F501     		.2byte	0x1f5
 3180 079f 1B040000 		.4byte	0x41b
 3181 07a3 02       		.uleb128 0x2
 3182 07a4 91       		.byte	0x91
 3183 07a5 74       		.sleb128 -12
 3184 07a6 1B       		.uleb128 0x1b
 3185 07a7 A9040000 		.4byte	.LASF99
 3186 07ab 01       		.byte	0x1
 3187 07ac F601     		.2byte	0x1f6
 3188 07ae CA050000 		.4byte	0x5ca
 3189 07b2 02       		.uleb128 0x2
 3190 07b3 91       		.byte	0x91
 3191 07b4 70       		.sleb128 -16
 3192 07b5 00       		.byte	0
 3193 07b6 1C       		.uleb128 0x1c
 3194 07b7 57000000 		.4byte	.LASF114
 3195 07bb 01       		.byte	0x1
 3196 07bc 0F02     		.2byte	0x20f
 3197 07be 00000000 		.4byte	.LFB133
 3198 07c2 2C000000 		.4byte	.LFE133-.LFB133
 3199 07c6 01       		.uleb128 0x1
 3200 07c7 9C       		.byte	0x9c
 3201 07c8 FA070000 		.4byte	0x7fa
 3202 07cc 1A       		.uleb128 0x1a
 3203 07cd 3F090000 		.4byte	.LASF102
 3204 07d1 01       		.byte	0x1
 3205 07d2 0F02     		.2byte	0x20f
 3206 07d4 1B040000 		.4byte	0x41b
 3207 07d8 02       		.uleb128 0x2
 3208 07d9 91       		.byte	0x91
 3209 07da 6C       		.sleb128 -20
 3210 07db 1A       		.uleb128 0x1a
 3211 07dc 32040000 		.4byte	.LASF105
 3212 07e0 01       		.byte	0x1
 3213 07e1 0F02     		.2byte	0x20f
 3214 07e3 0A010000 		.4byte	0x10a
 3215 07e7 02       		.uleb128 0x2
 3216 07e8 91       		.byte	0x91
 3217 07e9 68       		.sleb128 -24
 3218 07ea 1B       		.uleb128 0x1b
 3219 07eb 58070000 		.4byte	.LASF108
 3220 07ef 01       		.byte	0x1
 3221 07f0 1102     		.2byte	0x211
ARM GAS  C:\Users\ikomb\AppData\Local\Temp\cclK6Blf.s 			page 88


 3222 07f2 0A010000 		.4byte	0x10a
 3223 07f6 02       		.uleb128 0x2
 3224 07f7 91       		.byte	0x91
 3225 07f8 74       		.sleb128 -12
 3226 07f9 00       		.byte	0
 3227 07fa 1D       		.uleb128 0x1d
 3228 07fb C4030000 		.4byte	.LASF115
 3229 07ff 01       		.byte	0x1
 3230 0800 2A02     		.2byte	0x22a
 3231 0802 00000000 		.4byte	.LFB134
 3232 0806 4C000000 		.4byte	.LFE134-.LFB134
 3233 080a 01       		.uleb128 0x1
 3234 080b 9C       		.byte	0x9c
 3235 080c 3E080000 		.4byte	0x83e
 3236 0810 1A       		.uleb128 0x1a
 3237 0811 3F090000 		.4byte	.LASF102
 3238 0815 01       		.byte	0x1
 3239 0816 2A02     		.2byte	0x22a
 3240 0818 1B040000 		.4byte	0x41b
 3241 081c 02       		.uleb128 0x2
 3242 081d 91       		.byte	0x91
 3243 081e 74       		.sleb128 -12
 3244 081f 1A       		.uleb128 0x1a
 3245 0820 32040000 		.4byte	.LASF105
 3246 0824 01       		.byte	0x1
 3247 0825 2A02     		.2byte	0x22a
 3248 0827 0A010000 		.4byte	0x10a
 3249 082b 02       		.uleb128 0x2
 3250 082c 91       		.byte	0x91
 3251 082d 70       		.sleb128 -16
 3252 082e 1A       		.uleb128 0x1a
 3253 082f 64070000 		.4byte	.LASF116
 3254 0833 01       		.byte	0x1
 3255 0834 2A02     		.2byte	0x22a
 3256 0836 0A010000 		.4byte	0x10a
 3257 083a 02       		.uleb128 0x2
 3258 083b 91       		.byte	0x91
 3259 083c 6C       		.sleb128 -20
 3260 083d 00       		.byte	0
 3261 083e 1C       		.uleb128 0x1c
 3262 083f B9060000 		.4byte	.LASF117
 3263 0843 01       		.byte	0x1
 3264 0844 5D02     		.2byte	0x25d
 3265 0846 00000000 		.4byte	.LFB135
 3266 084a 24000000 		.4byte	.LFE135-.LFB135
 3267 084e 01       		.uleb128 0x1
 3268 084f 9C       		.byte	0x9c
 3269 0850 64080000 		.4byte	0x864
 3270 0854 1B       		.uleb128 0x1b
 3271 0855 4E040000 		.4byte	.LASF93
 3272 0859 01       		.byte	0x1
 3273 085a 5F02     		.2byte	0x25f
 3274 085c 0A010000 		.4byte	0x10a
 3275 0860 02       		.uleb128 0x2
 3276 0861 91       		.byte	0x91
 3277 0862 74       		.sleb128 -12
 3278 0863 00       		.byte	0
ARM GAS  C:\Users\ikomb\AppData\Local\Temp\cclK6Blf.s 			page 89


 3279 0864 1C       		.uleb128 0x1c
 3280 0865 1C080000 		.4byte	.LASF118
 3281 0869 01       		.byte	0x1
 3282 086a 7B02     		.2byte	0x27b
 3283 086c 00000000 		.4byte	.LFB136
 3284 0870 D8000000 		.4byte	.LFE136-.LFB136
 3285 0874 01       		.uleb128 0x1
 3286 0875 9C       		.byte	0x9c
 3287 0876 F3080000 		.4byte	0x8f3
 3288 087a 1A       		.uleb128 0x1a
 3289 087b 4E040000 		.4byte	.LASF93
 3290 087f 01       		.byte	0x1
 3291 0880 7B02     		.2byte	0x27b
 3292 0882 0A010000 		.4byte	0x10a
 3293 0886 02       		.uleb128 0x2
 3294 0887 91       		.byte	0x91
 3295 0888 54       		.sleb128 -44
 3296 0889 1B       		.uleb128 0x1b
 3297 088a 74020000 		.4byte	.LASF97
 3298 088e 01       		.byte	0x1
 3299 088f 7D02     		.2byte	0x27d
 3300 0891 0A010000 		.4byte	0x10a
 3301 0895 02       		.uleb128 0x2
 3302 0896 91       		.byte	0x91
 3303 0897 74       		.sleb128 -12
 3304 0898 1B       		.uleb128 0x1b
 3305 0899 C7020000 		.4byte	.LASF98
 3306 089d 01       		.byte	0x1
 3307 089e 7E02     		.2byte	0x27e
 3308 08a0 0A010000 		.4byte	0x10a
 3309 08a4 02       		.uleb128 0x2
 3310 08a5 91       		.byte	0x91
 3311 08a6 60       		.sleb128 -32
 3312 08a7 1B       		.uleb128 0x1b
 3313 08a8 A9040000 		.4byte	.LASF99
 3314 08ac 01       		.byte	0x1
 3315 08ad 8002     		.2byte	0x280
 3316 08af CA050000 		.4byte	0x5ca
 3317 08b3 02       		.uleb128 0x2
 3318 08b4 91       		.byte	0x91
 3319 08b5 68       		.sleb128 -24
 3320 08b6 1B       		.uleb128 0x1b
 3321 08b7 3F090000 		.4byte	.LASF102
 3322 08bb 01       		.byte	0x1
 3323 08bc 8102     		.2byte	0x281
 3324 08be 1B040000 		.4byte	0x41b
 3325 08c2 02       		.uleb128 0x2
 3326 08c3 91       		.byte	0x91
 3327 08c4 70       		.sleb128 -16
 3328 08c5 1B       		.uleb128 0x1b
 3329 08c6 0B090000 		.4byte	.LASF119
 3330 08ca 01       		.byte	0x1
 3331 08cb 8302     		.2byte	0x283
 3332 08cd 17050000 		.4byte	0x517
 3333 08d1 02       		.uleb128 0x2
 3334 08d2 91       		.byte	0x91
 3335 08d3 5C       		.sleb128 -36
ARM GAS  C:\Users\ikomb\AppData\Local\Temp\cclK6Blf.s 			page 90


 3336 08d4 1B       		.uleb128 0x1b
 3337 08d5 16000000 		.4byte	.LASF103
 3338 08d9 01       		.byte	0x1
 3339 08da 8702     		.2byte	0x287
 3340 08dc 43060000 		.4byte	0x643
 3341 08e0 02       		.uleb128 0x2
 3342 08e1 91       		.byte	0x91
 3343 08e2 64       		.sleb128 -28
 3344 08e3 1B       		.uleb128 0x1b
 3345 08e4 49090000 		.4byte	.LASF120
 3346 08e8 01       		.byte	0x1
 3347 08e9 8802     		.2byte	0x288
 3348 08eb 27040000 		.4byte	0x427
 3349 08ef 02       		.uleb128 0x2
 3350 08f0 91       		.byte	0x91
 3351 08f1 6C       		.sleb128 -20
 3352 08f2 00       		.byte	0
 3353 08f3 1C       		.uleb128 0x1c
 3354 08f4 FF000000 		.4byte	.LASF121
 3355 08f8 01       		.byte	0x1
 3356 08f9 AC03     		.2byte	0x3ac
 3357 08fb 00000000 		.4byte	.LFB137
 3358 08ff 70000000 		.4byte	.LFE137-.LFB137
 3359 0903 01       		.uleb128 0x1
 3360 0904 9C       		.byte	0x9c
 3361 0905 55090000 		.4byte	0x955
 3362 0909 1A       		.uleb128 0x1a
 3363 090a 4E040000 		.4byte	.LASF93
 3364 090e 01       		.byte	0x1
 3365 090f AC03     		.2byte	0x3ac
 3366 0911 0A010000 		.4byte	0x10a
 3367 0915 02       		.uleb128 0x2
 3368 0916 91       		.byte	0x91
 3369 0917 64       		.sleb128 -28
 3370 0918 1A       		.uleb128 0x1a
 3371 0919 74020000 		.4byte	.LASF97
 3372 091d 01       		.byte	0x1
 3373 091e AC03     		.2byte	0x3ac
 3374 0920 0A010000 		.4byte	0x10a
 3375 0924 02       		.uleb128 0x2
 3376 0925 91       		.byte	0x91
 3377 0926 60       		.sleb128 -32
 3378 0927 1B       		.uleb128 0x1b
 3379 0928 A9040000 		.4byte	.LASF99
 3380 092c 01       		.byte	0x1
 3381 092d AE03     		.2byte	0x3ae
 3382 092f CA050000 		.4byte	0x5ca
 3383 0933 02       		.uleb128 0x2
 3384 0934 91       		.byte	0x91
 3385 0935 74       		.sleb128 -12
 3386 0936 1B       		.uleb128 0x1b
 3387 0937 3F090000 		.4byte	.LASF102
 3388 093b 01       		.byte	0x1
 3389 093c AF03     		.2byte	0x3af
 3390 093e 1B040000 		.4byte	0x41b
 3391 0942 02       		.uleb128 0x2
 3392 0943 91       		.byte	0x91
ARM GAS  C:\Users\ikomb\AppData\Local\Temp\cclK6Blf.s 			page 91


 3393 0944 70       		.sleb128 -16
 3394 0945 1B       		.uleb128 0x1b
 3395 0946 0B090000 		.4byte	.LASF119
 3396 094a 01       		.byte	0x1
 3397 094b B003     		.2byte	0x3b0
 3398 094d 17050000 		.4byte	0x517
 3399 0951 02       		.uleb128 0x2
 3400 0952 91       		.byte	0x91
 3401 0953 6C       		.sleb128 -20
 3402 0954 00       		.byte	0
 3403 0955 1C       		.uleb128 0x1c
 3404 0956 C4050000 		.4byte	.LASF122
 3405 095a 01       		.byte	0x1
 3406 095b D803     		.2byte	0x3d8
 3407 095d 00000000 		.4byte	.LFB138
 3408 0961 70000000 		.4byte	.LFE138-.LFB138
 3409 0965 01       		.uleb128 0x1
 3410 0966 9C       		.byte	0x9c
 3411 0967 B7090000 		.4byte	0x9b7
 3412 096b 1A       		.uleb128 0x1a
 3413 096c 4E040000 		.4byte	.LASF93
 3414 0970 01       		.byte	0x1
 3415 0971 D803     		.2byte	0x3d8
 3416 0973 0A010000 		.4byte	0x10a
 3417 0977 02       		.uleb128 0x2
 3418 0978 91       		.byte	0x91
 3419 0979 64       		.sleb128 -28
 3420 097a 1A       		.uleb128 0x1a
 3421 097b 74020000 		.4byte	.LASF97
 3422 097f 01       		.byte	0x1
 3423 0980 D803     		.2byte	0x3d8
 3424 0982 0A010000 		.4byte	0x10a
 3425 0986 02       		.uleb128 0x2
 3426 0987 91       		.byte	0x91
 3427 0988 60       		.sleb128 -32
 3428 0989 1B       		.uleb128 0x1b
 3429 098a A9040000 		.4byte	.LASF99
 3430 098e 01       		.byte	0x1
 3431 098f DA03     		.2byte	0x3da
 3432 0991 CA050000 		.4byte	0x5ca
 3433 0995 02       		.uleb128 0x2
 3434 0996 91       		.byte	0x91
 3435 0997 74       		.sleb128 -12
 3436 0998 1B       		.uleb128 0x1b
 3437 0999 3F090000 		.4byte	.LASF102
 3438 099d 01       		.byte	0x1
 3439 099e DB03     		.2byte	0x3db
 3440 09a0 1B040000 		.4byte	0x41b
 3441 09a4 02       		.uleb128 0x2
 3442 09a5 91       		.byte	0x91
 3443 09a6 70       		.sleb128 -16
 3444 09a7 1B       		.uleb128 0x1b
 3445 09a8 0B090000 		.4byte	.LASF119
 3446 09ac 01       		.byte	0x1
 3447 09ad DC03     		.2byte	0x3dc
 3448 09af 17050000 		.4byte	0x517
 3449 09b3 02       		.uleb128 0x2
ARM GAS  C:\Users\ikomb\AppData\Local\Temp\cclK6Blf.s 			page 92


 3450 09b4 91       		.byte	0x91
 3451 09b5 6C       		.sleb128 -20
 3452 09b6 00       		.byte	0
 3453 09b7 1D       		.uleb128 0x1d
 3454 09b8 400A0000 		.4byte	.LASF123
 3455 09bc 01       		.byte	0x1
 3456 09bd 0304     		.2byte	0x403
 3457 09bf 00000000 		.4byte	.LFB139
 3458 09c3 66000000 		.4byte	.LFE139-.LFB139
 3459 09c7 01       		.uleb128 0x1
 3460 09c8 9C       		.byte	0x9c
 3461 09c9 0A0A0000 		.4byte	0xa0a
 3462 09cd 1A       		.uleb128 0x1a
 3463 09ce 0B090000 		.4byte	.LASF119
 3464 09d2 01       		.byte	0x1
 3465 09d3 0304     		.2byte	0x403
 3466 09d5 17050000 		.4byte	0x517
 3467 09d9 02       		.uleb128 0x2
 3468 09da 91       		.byte	0x91
 3469 09db 6C       		.sleb128 -20
 3470 09dc 1A       		.uleb128 0x1a
 3471 09dd 26060000 		.4byte	.LASF124
 3472 09e1 01       		.byte	0x1
 3473 09e2 0404     		.2byte	0x404
 3474 09e4 1B040000 		.4byte	0x41b
 3475 09e8 02       		.uleb128 0x2
 3476 09e9 91       		.byte	0x91
 3477 09ea 68       		.sleb128 -24
 3478 09eb 1A       		.uleb128 0x1a
 3479 09ec 32040000 		.4byte	.LASF105
 3480 09f0 01       		.byte	0x1
 3481 09f1 0404     		.2byte	0x404
 3482 09f3 0A010000 		.4byte	0x10a
 3483 09f7 02       		.uleb128 0x2
 3484 09f8 91       		.byte	0x91
 3485 09f9 64       		.sleb128 -28
 3486 09fa 1B       		.uleb128 0x1b
 3487 09fb 58070000 		.4byte	.LASF108
 3488 09ff 01       		.byte	0x1
 3489 0a00 0604     		.2byte	0x406
 3490 0a02 0A010000 		.4byte	0x10a
 3491 0a06 02       		.uleb128 0x2
 3492 0a07 91       		.byte	0x91
 3493 0a08 74       		.sleb128 -12
 3494 0a09 00       		.byte	0
 3495 0a0a 1C       		.uleb128 0x1c
 3496 0a0b 34030000 		.4byte	.LASF125
 3497 0a0f 01       		.byte	0x1
 3498 0a10 2904     		.2byte	0x429
 3499 0a12 00000000 		.4byte	.LFB140
 3500 0a16 AE000000 		.4byte	.LFE140-.LFB140
 3501 0a1a 01       		.uleb128 0x1
 3502 0a1b 9C       		.byte	0x9c
 3503 0a1c 6C0A0000 		.4byte	0xa6c
 3504 0a20 1A       		.uleb128 0x1a
 3505 0a21 0B090000 		.4byte	.LASF119
 3506 0a25 01       		.byte	0x1
ARM GAS  C:\Users\ikomb\AppData\Local\Temp\cclK6Blf.s 			page 93


 3507 0a26 2904     		.2byte	0x429
 3508 0a28 17050000 		.4byte	0x517
 3509 0a2c 02       		.uleb128 0x2
 3510 0a2d 91       		.byte	0x91
 3511 0a2e 64       		.sleb128 -28
 3512 0a2f 1A       		.uleb128 0x1a
 3513 0a30 26060000 		.4byte	.LASF124
 3514 0a34 01       		.byte	0x1
 3515 0a35 2A04     		.2byte	0x42a
 3516 0a37 1B040000 		.4byte	0x41b
 3517 0a3b 02       		.uleb128 0x2
 3518 0a3c 91       		.byte	0x91
 3519 0a3d 60       		.sleb128 -32
 3520 0a3e 1A       		.uleb128 0x1a
 3521 0a3f 32040000 		.4byte	.LASF105
 3522 0a43 01       		.byte	0x1
 3523 0a44 2A04     		.2byte	0x42a
 3524 0a46 0A010000 		.4byte	0x10a
 3525 0a4a 02       		.uleb128 0x2
 3526 0a4b 91       		.byte	0x91
 3527 0a4c 5C       		.sleb128 -36
 3528 0a4d 1B       		.uleb128 0x1b
 3529 0a4e 58070000 		.4byte	.LASF108
 3530 0a52 01       		.byte	0x1
 3531 0a53 2C04     		.2byte	0x42c
 3532 0a55 0A010000 		.4byte	0x10a
 3533 0a59 02       		.uleb128 0x2
 3534 0a5a 91       		.byte	0x91
 3535 0a5b 6C       		.sleb128 -20
 3536 0a5c 1B       		.uleb128 0x1b
 3537 0a5d F1020000 		.4byte	.LASF126
 3538 0a61 01       		.byte	0x1
 3539 0a62 3004     		.2byte	0x430
 3540 0a64 0A010000 		.4byte	0x10a
 3541 0a68 02       		.uleb128 0x2
 3542 0a69 91       		.byte	0x91
 3543 0a6a 68       		.sleb128 -24
 3544 0a6b 00       		.byte	0
 3545 0a6c 1C       		.uleb128 0x1c
 3546 0a6d 88080000 		.4byte	.LASF127
 3547 0a71 01       		.byte	0x1
 3548 0a72 6004     		.2byte	0x460
 3549 0a74 00000000 		.4byte	.LFB141
 3550 0a78 70000000 		.4byte	.LFE141-.LFB141
 3551 0a7c 01       		.uleb128 0x1
 3552 0a7d 9C       		.byte	0x9c
 3553 0a7e CE0A0000 		.4byte	0xace
 3554 0a82 1A       		.uleb128 0x1a
 3555 0a83 4E040000 		.4byte	.LASF93
 3556 0a87 01       		.byte	0x1
 3557 0a88 6004     		.2byte	0x460
 3558 0a8a 0A010000 		.4byte	0x10a
 3559 0a8e 02       		.uleb128 0x2
 3560 0a8f 91       		.byte	0x91
 3561 0a90 64       		.sleb128 -28
 3562 0a91 1A       		.uleb128 0x1a
 3563 0a92 74020000 		.4byte	.LASF97
ARM GAS  C:\Users\ikomb\AppData\Local\Temp\cclK6Blf.s 			page 94


 3564 0a96 01       		.byte	0x1
 3565 0a97 6004     		.2byte	0x460
 3566 0a99 0A010000 		.4byte	0x10a
 3567 0a9d 02       		.uleb128 0x2
 3568 0a9e 91       		.byte	0x91
 3569 0a9f 60       		.sleb128 -32
 3570 0aa0 1B       		.uleb128 0x1b
 3571 0aa1 A9040000 		.4byte	.LASF99
 3572 0aa5 01       		.byte	0x1
 3573 0aa6 6204     		.2byte	0x462
 3574 0aa8 CA050000 		.4byte	0x5ca
 3575 0aac 02       		.uleb128 0x2
 3576 0aad 91       		.byte	0x91
 3577 0aae 74       		.sleb128 -12
 3578 0aaf 1B       		.uleb128 0x1b
 3579 0ab0 3F090000 		.4byte	.LASF102
 3580 0ab4 01       		.byte	0x1
 3581 0ab5 6304     		.2byte	0x463
 3582 0ab7 1B040000 		.4byte	0x41b
 3583 0abb 02       		.uleb128 0x2
 3584 0abc 91       		.byte	0x91
 3585 0abd 70       		.sleb128 -16
 3586 0abe 1B       		.uleb128 0x1b
 3587 0abf 0B090000 		.4byte	.LASF119
 3588 0ac3 01       		.byte	0x1
 3589 0ac4 6404     		.2byte	0x464
 3590 0ac6 17050000 		.4byte	0x517
 3591 0aca 02       		.uleb128 0x2
 3592 0acb 91       		.byte	0x91
 3593 0acc 6C       		.sleb128 -20
 3594 0acd 00       		.byte	0
 3595 0ace 1C       		.uleb128 0x1c
 3596 0acf B0030000 		.4byte	.LASF128
 3597 0ad3 01       		.byte	0x1
 3598 0ad4 8C04     		.2byte	0x48c
 3599 0ad6 00000000 		.4byte	.LFB142
 3600 0ada 70000000 		.4byte	.LFE142-.LFB142
 3601 0ade 01       		.uleb128 0x1
 3602 0adf 9C       		.byte	0x9c
 3603 0ae0 300B0000 		.4byte	0xb30
 3604 0ae4 1A       		.uleb128 0x1a
 3605 0ae5 4E040000 		.4byte	.LASF93
 3606 0ae9 01       		.byte	0x1
 3607 0aea 8C04     		.2byte	0x48c
 3608 0aec 0A010000 		.4byte	0x10a
 3609 0af0 02       		.uleb128 0x2
 3610 0af1 91       		.byte	0x91
 3611 0af2 64       		.sleb128 -28
 3612 0af3 1A       		.uleb128 0x1a
 3613 0af4 74020000 		.4byte	.LASF97
 3614 0af8 01       		.byte	0x1
 3615 0af9 8C04     		.2byte	0x48c
 3616 0afb 0A010000 		.4byte	0x10a
 3617 0aff 02       		.uleb128 0x2
 3618 0b00 91       		.byte	0x91
 3619 0b01 60       		.sleb128 -32
 3620 0b02 1B       		.uleb128 0x1b
ARM GAS  C:\Users\ikomb\AppData\Local\Temp\cclK6Blf.s 			page 95


 3621 0b03 A9040000 		.4byte	.LASF99
 3622 0b07 01       		.byte	0x1
 3623 0b08 8E04     		.2byte	0x48e
 3624 0b0a CA050000 		.4byte	0x5ca
 3625 0b0e 02       		.uleb128 0x2
 3626 0b0f 91       		.byte	0x91
 3627 0b10 74       		.sleb128 -12
 3628 0b11 1B       		.uleb128 0x1b
 3629 0b12 3F090000 		.4byte	.LASF102
 3630 0b16 01       		.byte	0x1
 3631 0b17 8F04     		.2byte	0x48f
 3632 0b19 1B040000 		.4byte	0x41b
 3633 0b1d 02       		.uleb128 0x2
 3634 0b1e 91       		.byte	0x91
 3635 0b1f 70       		.sleb128 -16
 3636 0b20 1B       		.uleb128 0x1b
 3637 0b21 0B090000 		.4byte	.LASF119
 3638 0b25 01       		.byte	0x1
 3639 0b26 9004     		.2byte	0x490
 3640 0b28 17050000 		.4byte	0x517
 3641 0b2c 02       		.uleb128 0x2
 3642 0b2d 91       		.byte	0x91
 3643 0b2e 6C       		.sleb128 -20
 3644 0b2f 00       		.byte	0
 3645 0b30 1D       		.uleb128 0x1d
 3646 0b31 1C090000 		.4byte	.LASF129
 3647 0b35 01       		.byte	0x1
 3648 0b36 B704     		.2byte	0x4b7
 3649 0b38 00000000 		.4byte	.LFB143
 3650 0b3c 84000000 		.4byte	.LFE143-.LFB143
 3651 0b40 01       		.uleb128 0x1
 3652 0b41 9C       		.byte	0x9c
 3653 0b42 830B0000 		.4byte	0xb83
 3654 0b46 1A       		.uleb128 0x1a
 3655 0b47 0B090000 		.4byte	.LASF119
 3656 0b4b 01       		.byte	0x1
 3657 0b4c B704     		.2byte	0x4b7
 3658 0b4e 17050000 		.4byte	0x517
 3659 0b52 02       		.uleb128 0x2
 3660 0b53 91       		.byte	0x91
 3661 0b54 6C       		.sleb128 -20
 3662 0b55 1A       		.uleb128 0x1a
 3663 0b56 26060000 		.4byte	.LASF124
 3664 0b5a 01       		.byte	0x1
 3665 0b5b B804     		.2byte	0x4b8
 3666 0b5d 1B040000 		.4byte	0x41b
 3667 0b61 02       		.uleb128 0x2
 3668 0b62 91       		.byte	0x91
 3669 0b63 68       		.sleb128 -24
 3670 0b64 1A       		.uleb128 0x1a
 3671 0b65 32040000 		.4byte	.LASF105
 3672 0b69 01       		.byte	0x1
 3673 0b6a B804     		.2byte	0x4b8
 3674 0b6c 0A010000 		.4byte	0x10a
 3675 0b70 02       		.uleb128 0x2
 3676 0b71 91       		.byte	0x91
 3677 0b72 64       		.sleb128 -28
ARM GAS  C:\Users\ikomb\AppData\Local\Temp\cclK6Blf.s 			page 96


 3678 0b73 1B       		.uleb128 0x1b
 3679 0b74 58070000 		.4byte	.LASF108
 3680 0b78 01       		.byte	0x1
 3681 0b79 BA04     		.2byte	0x4ba
 3682 0b7b 0A010000 		.4byte	0x10a
 3683 0b7f 02       		.uleb128 0x2
 3684 0b80 91       		.byte	0x91
 3685 0b81 74       		.sleb128 -12
 3686 0b82 00       		.byte	0
 3687 0b83 1D       		.uleb128 0x1d
 3688 0b84 B4000000 		.4byte	.LASF130
 3689 0b88 01       		.byte	0x1
 3690 0b89 E304     		.2byte	0x4e3
 3691 0b8b 00000000 		.4byte	.LFB144
 3692 0b8f EE000000 		.4byte	.LFE144-.LFB144
 3693 0b93 01       		.uleb128 0x1
 3694 0b94 9C       		.byte	0x9c
 3695 0b95 E50B0000 		.4byte	0xbe5
 3696 0b99 1A       		.uleb128 0x1a
 3697 0b9a 0B090000 		.4byte	.LASF119
 3698 0b9e 01       		.byte	0x1
 3699 0b9f E304     		.2byte	0x4e3
 3700 0ba1 17050000 		.4byte	0x517
 3701 0ba5 02       		.uleb128 0x2
 3702 0ba6 91       		.byte	0x91
 3703 0ba7 6C       		.sleb128 -20
 3704 0ba8 1A       		.uleb128 0x1a
 3705 0ba9 26060000 		.4byte	.LASF124
 3706 0bad 01       		.byte	0x1
 3707 0bae E404     		.2byte	0x4e4
 3708 0bb0 1B040000 		.4byte	0x41b
 3709 0bb4 02       		.uleb128 0x2
 3710 0bb5 91       		.byte	0x91
 3711 0bb6 68       		.sleb128 -24
 3712 0bb7 1A       		.uleb128 0x1a
 3713 0bb8 32040000 		.4byte	.LASF105
 3714 0bbc 01       		.byte	0x1
 3715 0bbd E404     		.2byte	0x4e4
 3716 0bbf 0A010000 		.4byte	0x10a
 3717 0bc3 02       		.uleb128 0x2
 3718 0bc4 91       		.byte	0x91
 3719 0bc5 64       		.sleb128 -28
 3720 0bc6 1B       		.uleb128 0x1b
 3721 0bc7 58070000 		.4byte	.LASF108
 3722 0bcb 01       		.byte	0x1
 3723 0bcc E604     		.2byte	0x4e6
 3724 0bce 0A010000 		.4byte	0x10a
 3725 0bd2 02       		.uleb128 0x2
 3726 0bd3 91       		.byte	0x91
 3727 0bd4 74       		.sleb128 -12
 3728 0bd5 1B       		.uleb128 0x1b
 3729 0bd6 F1020000 		.4byte	.LASF126
 3730 0bda 01       		.byte	0x1
 3731 0bdb E704     		.2byte	0x4e7
 3732 0bdd 0A010000 		.4byte	0x10a
 3733 0be1 02       		.uleb128 0x2
 3734 0be2 91       		.byte	0x91
ARM GAS  C:\Users\ikomb\AppData\Local\Temp\cclK6Blf.s 			page 97


 3735 0be3 70       		.sleb128 -16
 3736 0be4 00       		.byte	0
 3737 0be5 1C       		.uleb128 0x1c
 3738 0be6 66030000 		.4byte	.LASF131
 3739 0bea 01       		.byte	0x1
 3740 0beb E905     		.2byte	0x5e9
 3741 0bed 00000000 		.4byte	.LFB145
 3742 0bf1 70000000 		.4byte	.LFE145-.LFB145
 3743 0bf5 01       		.uleb128 0x1
 3744 0bf6 9C       		.byte	0x9c
 3745 0bf7 470C0000 		.4byte	0xc47
 3746 0bfb 1A       		.uleb128 0x1a
 3747 0bfc 4E040000 		.4byte	.LASF93
 3748 0c00 01       		.byte	0x1
 3749 0c01 E905     		.2byte	0x5e9
 3750 0c03 0A010000 		.4byte	0x10a
 3751 0c07 02       		.uleb128 0x2
 3752 0c08 91       		.byte	0x91
 3753 0c09 64       		.sleb128 -28
 3754 0c0a 1A       		.uleb128 0x1a
 3755 0c0b 74020000 		.4byte	.LASF97
 3756 0c0f 01       		.byte	0x1
 3757 0c10 E905     		.2byte	0x5e9
 3758 0c12 0A010000 		.4byte	0x10a
 3759 0c16 02       		.uleb128 0x2
 3760 0c17 91       		.byte	0x91
 3761 0c18 60       		.sleb128 -32
 3762 0c19 1B       		.uleb128 0x1b
 3763 0c1a A9040000 		.4byte	.LASF99
 3764 0c1e 01       		.byte	0x1
 3765 0c1f EB05     		.2byte	0x5eb
 3766 0c21 CA050000 		.4byte	0x5ca
 3767 0c25 02       		.uleb128 0x2
 3768 0c26 91       		.byte	0x91
 3769 0c27 74       		.sleb128 -12
 3770 0c28 1B       		.uleb128 0x1b
 3771 0c29 3F090000 		.4byte	.LASF102
 3772 0c2d 01       		.byte	0x1
 3773 0c2e EC05     		.2byte	0x5ec
 3774 0c30 1B040000 		.4byte	0x41b
 3775 0c34 02       		.uleb128 0x2
 3776 0c35 91       		.byte	0x91
 3777 0c36 70       		.sleb128 -16
 3778 0c37 1B       		.uleb128 0x1b
 3779 0c38 0B090000 		.4byte	.LASF119
 3780 0c3c 01       		.byte	0x1
 3781 0c3d ED05     		.2byte	0x5ed
 3782 0c3f 17050000 		.4byte	0x517
 3783 0c43 02       		.uleb128 0x2
 3784 0c44 91       		.byte	0x91
 3785 0c45 6C       		.sleb128 -20
 3786 0c46 00       		.byte	0
 3787 0c47 1C       		.uleb128 0x1c
 3788 0c48 F3060000 		.4byte	.LASF132
 3789 0c4c 01       		.byte	0x1
 3790 0c4d 1B06     		.2byte	0x61b
 3791 0c4f 00000000 		.4byte	.LFB146
ARM GAS  C:\Users\ikomb\AppData\Local\Temp\cclK6Blf.s 			page 98


 3792 0c53 28000000 		.4byte	.LFE146-.LFB146
 3793 0c57 01       		.uleb128 0x1
 3794 0c58 9C       		.byte	0x9c
 3795 0c59 8B0C0000 		.4byte	0xc8b
 3796 0c5d 1A       		.uleb128 0x1a
 3797 0c5e 0B090000 		.4byte	.LASF119
 3798 0c62 01       		.byte	0x1
 3799 0c63 1B06     		.2byte	0x61b
 3800 0c65 17050000 		.4byte	0x517
 3801 0c69 02       		.uleb128 0x2
 3802 0c6a 91       		.byte	0x91
 3803 0c6b 74       		.sleb128 -12
 3804 0c6c 1A       		.uleb128 0x1a
 3805 0c6d 26060000 		.4byte	.LASF124
 3806 0c71 01       		.byte	0x1
 3807 0c72 1C06     		.2byte	0x61c
 3808 0c74 1B040000 		.4byte	0x41b
 3809 0c78 02       		.uleb128 0x2
 3810 0c79 91       		.byte	0x91
 3811 0c7a 70       		.sleb128 -16
 3812 0c7b 1A       		.uleb128 0x1a
 3813 0c7c 32040000 		.4byte	.LASF105
 3814 0c80 01       		.byte	0x1
 3815 0c81 1C06     		.2byte	0x61c
 3816 0c83 0A010000 		.4byte	0x10a
 3817 0c87 02       		.uleb128 0x2
 3818 0c88 91       		.byte	0x91
 3819 0c89 6C       		.sleb128 -20
 3820 0c8a 00       		.byte	0
 3821 0c8b 1C       		.uleb128 0x1c
 3822 0c8c 8F040000 		.4byte	.LASF133
 3823 0c90 01       		.byte	0x1
 3824 0c91 3C06     		.2byte	0x63c
 3825 0c93 00000000 		.4byte	.LFB147
 3826 0c97 74000000 		.4byte	.LFE147-.LFB147
 3827 0c9b 01       		.uleb128 0x1
 3828 0c9c 9C       		.byte	0x9c
 3829 0c9d FC0C0000 		.4byte	0xcfc
 3830 0ca1 1A       		.uleb128 0x1a
 3831 0ca2 4E040000 		.4byte	.LASF93
 3832 0ca6 01       		.byte	0x1
 3833 0ca7 3C06     		.2byte	0x63c
 3834 0ca9 0A010000 		.4byte	0x10a
 3835 0cad 02       		.uleb128 0x2
 3836 0cae 91       		.byte	0x91
 3837 0caf 64       		.sleb128 -28
 3838 0cb0 1A       		.uleb128 0x1a
 3839 0cb1 74020000 		.4byte	.LASF97
 3840 0cb5 01       		.byte	0x1
 3841 0cb6 3C06     		.2byte	0x63c
 3842 0cb8 0A010000 		.4byte	0x10a
 3843 0cbc 02       		.uleb128 0x2
 3844 0cbd 91       		.byte	0x91
 3845 0cbe 60       		.sleb128 -32
 3846 0cbf 1B       		.uleb128 0x1b
 3847 0cc0 A9040000 		.4byte	.LASF99
 3848 0cc4 01       		.byte	0x1
ARM GAS  C:\Users\ikomb\AppData\Local\Temp\cclK6Blf.s 			page 99


 3849 0cc5 3E06     		.2byte	0x63e
 3850 0cc7 CA050000 		.4byte	0x5ca
 3851 0ccb 02       		.uleb128 0x2
 3852 0ccc 91       		.byte	0x91
 3853 0ccd 74       		.sleb128 -12
 3854 0cce 1B       		.uleb128 0x1b
 3855 0ccf 16000000 		.4byte	.LASF103
 3856 0cd3 01       		.byte	0x1
 3857 0cd4 3F06     		.2byte	0x63f
 3858 0cd6 43060000 		.4byte	0x643
 3859 0cda 02       		.uleb128 0x2
 3860 0cdb 91       		.byte	0x91
 3861 0cdc 70       		.sleb128 -16
 3862 0cdd 1B       		.uleb128 0x1b
 3863 0cde 3F090000 		.4byte	.LASF102
 3864 0ce2 01       		.byte	0x1
 3865 0ce3 4006     		.2byte	0x640
 3866 0ce5 1B040000 		.4byte	0x41b
 3867 0ce9 02       		.uleb128 0x2
 3868 0cea 91       		.byte	0x91
 3869 0ceb 6C       		.sleb128 -20
 3870 0cec 1B       		.uleb128 0x1b
 3871 0ced 49090000 		.4byte	.LASF120
 3872 0cf1 01       		.byte	0x1
 3873 0cf2 4106     		.2byte	0x641
 3874 0cf4 27040000 		.4byte	0x427
 3875 0cf8 02       		.uleb128 0x2
 3876 0cf9 91       		.byte	0x91
 3877 0cfa 68       		.sleb128 -24
 3878 0cfb 00       		.byte	0
 3879 0cfc 1C       		.uleb128 0x1c
 3880 0cfd B1010000 		.4byte	.LASF134
 3881 0d01 01       		.byte	0x1
 3882 0d02 5B06     		.2byte	0x65b
 3883 0d04 00000000 		.4byte	.LFB148
 3884 0d08 74000000 		.4byte	.LFE148-.LFB148
 3885 0d0c 01       		.uleb128 0x1
 3886 0d0d 9C       		.byte	0x9c
 3887 0d0e 6D0D0000 		.4byte	0xd6d
 3888 0d12 1A       		.uleb128 0x1a
 3889 0d13 4E040000 		.4byte	.LASF93
 3890 0d17 01       		.byte	0x1
 3891 0d18 5B06     		.2byte	0x65b
 3892 0d1a 0A010000 		.4byte	0x10a
 3893 0d1e 02       		.uleb128 0x2
 3894 0d1f 91       		.byte	0x91
 3895 0d20 64       		.sleb128 -28
 3896 0d21 1A       		.uleb128 0x1a
 3897 0d22 74020000 		.4byte	.LASF97
 3898 0d26 01       		.byte	0x1
 3899 0d27 5B06     		.2byte	0x65b
 3900 0d29 0A010000 		.4byte	0x10a
 3901 0d2d 02       		.uleb128 0x2
 3902 0d2e 91       		.byte	0x91
 3903 0d2f 60       		.sleb128 -32
 3904 0d30 1B       		.uleb128 0x1b
 3905 0d31 A9040000 		.4byte	.LASF99
ARM GAS  C:\Users\ikomb\AppData\Local\Temp\cclK6Blf.s 			page 100


 3906 0d35 01       		.byte	0x1
 3907 0d36 5D06     		.2byte	0x65d
 3908 0d38 CA050000 		.4byte	0x5ca
 3909 0d3c 02       		.uleb128 0x2
 3910 0d3d 91       		.byte	0x91
 3911 0d3e 74       		.sleb128 -12
 3912 0d3f 1B       		.uleb128 0x1b
 3913 0d40 16000000 		.4byte	.LASF103
 3914 0d44 01       		.byte	0x1
 3915 0d45 5E06     		.2byte	0x65e
 3916 0d47 43060000 		.4byte	0x643
 3917 0d4b 02       		.uleb128 0x2
 3918 0d4c 91       		.byte	0x91
 3919 0d4d 70       		.sleb128 -16
 3920 0d4e 1B       		.uleb128 0x1b
 3921 0d4f 3F090000 		.4byte	.LASF102
 3922 0d53 01       		.byte	0x1
 3923 0d54 5F06     		.2byte	0x65f
 3924 0d56 1B040000 		.4byte	0x41b
 3925 0d5a 02       		.uleb128 0x2
 3926 0d5b 91       		.byte	0x91
 3927 0d5c 6C       		.sleb128 -20
 3928 0d5d 1B       		.uleb128 0x1b
 3929 0d5e 49090000 		.4byte	.LASF120
 3930 0d62 01       		.byte	0x1
 3931 0d63 6006     		.2byte	0x660
 3932 0d65 27040000 		.4byte	0x427
 3933 0d69 02       		.uleb128 0x2
 3934 0d6a 91       		.byte	0x91
 3935 0d6b 68       		.sleb128 -24
 3936 0d6c 00       		.byte	0
 3937 0d6d 1E       		.uleb128 0x1e
 3938 0d6e 75040000 		.4byte	.LASF135
 3939 0d72 01       		.byte	0x1
 3940 0d73 7F06     		.2byte	0x67f
 3941 0d75 0A010000 		.4byte	0x10a
 3942 0d79 00000000 		.4byte	.LFB149
 3943 0d7d 42000000 		.4byte	.LFE149-.LFB149
 3944 0d81 01       		.uleb128 0x1
 3945 0d82 9C       		.byte	0x9c
 3946 0d83 C10D0000 		.4byte	0xdc1
 3947 0d87 1F       		.uleb128 0x1f
 3948 0d88 783100   		.ascii	"x1\000"
 3949 0d8b 01       		.byte	0x1
 3950 0d8c 7F06     		.2byte	0x67f
 3951 0d8e 0A010000 		.4byte	0x10a
 3952 0d92 02       		.uleb128 0x2
 3953 0d93 91       		.byte	0x91
 3954 0d94 6C       		.sleb128 -20
 3955 0d95 1F       		.uleb128 0x1f
 3956 0d96 783200   		.ascii	"x2\000"
 3957 0d99 01       		.byte	0x1
 3958 0d9a 7F06     		.2byte	0x67f
 3959 0d9c 0A010000 		.4byte	0x10a
 3960 0da0 02       		.uleb128 0x2
 3961 0da1 91       		.byte	0x91
 3962 0da2 68       		.sleb128 -24
ARM GAS  C:\Users\ikomb\AppData\Local\Temp\cclK6Blf.s 			page 101


 3963 0da3 1F       		.uleb128 0x1f
 3964 0da4 783300   		.ascii	"x3\000"
 3965 0da7 01       		.byte	0x1
 3966 0da8 7F06     		.2byte	0x67f
 3967 0daa 0A010000 		.4byte	0x10a
 3968 0dae 02       		.uleb128 0x2
 3969 0daf 91       		.byte	0x91
 3970 0db0 64       		.sleb128 -28
 3971 0db1 20       		.uleb128 0x20
 3972 0db2 746D7000 		.ascii	"tmp\000"
 3973 0db6 01       		.byte	0x1
 3974 0db7 8106     		.2byte	0x681
 3975 0db9 0A010000 		.4byte	0x10a
 3976 0dbd 02       		.uleb128 0x2
 3977 0dbe 91       		.byte	0x91
 3978 0dbf 74       		.sleb128 -12
 3979 0dc0 00       		.byte	0
 3980 0dc1 1E       		.uleb128 0x1e
 3981 0dc2 D1080000 		.4byte	.LASF136
 3982 0dc6 01       		.byte	0x1
 3983 0dc7 A506     		.2byte	0x6a5
 3984 0dc9 0A010000 		.4byte	0x10a
 3985 0dcd 00000000 		.4byte	.LFB150
 3986 0dd1 3C000000 		.4byte	.LFE150-.LFB150
 3987 0dd5 01       		.uleb128 0x1
 3988 0dd6 9C       		.byte	0x9c
 3989 0dd7 250E0000 		.4byte	0xe25
 3990 0ddb 1A       		.uleb128 0x1a
 3991 0ddc 2B020000 		.4byte	.LASF137
 3992 0de0 01       		.byte	0x1
 3993 0de1 A506     		.2byte	0x6a5
 3994 0de3 0A010000 		.4byte	0x10a
 3995 0de7 02       		.uleb128 0x2
 3996 0de8 91       		.byte	0x91
 3997 0de9 6C       		.sleb128 -20
 3998 0dea 1A       		.uleb128 0x1a
 3999 0deb 57040000 		.4byte	.LASF138
 4000 0def 01       		.byte	0x1
 4001 0df0 A506     		.2byte	0x6a5
 4002 0df2 0A010000 		.4byte	0x10a
 4003 0df6 02       		.uleb128 0x2
 4004 0df7 91       		.byte	0x91
 4005 0df8 68       		.sleb128 -24
 4006 0df9 1F       		.uleb128 0x1f
 4007 0dfa 6E00     		.ascii	"n\000"
 4008 0dfc 01       		.byte	0x1
 4009 0dfd A506     		.2byte	0x6a5
 4010 0dff 0A010000 		.4byte	0x10a
 4011 0e03 02       		.uleb128 0x2
 4012 0e04 91       		.byte	0x91
 4013 0e05 64       		.sleb128 -28
 4014 0e06 1A       		.uleb128 0x1a
 4015 0e07 6E020000 		.4byte	.LASF139
 4016 0e0b 01       		.byte	0x1
 4017 0e0c A506     		.2byte	0x6a5
 4018 0e0e 0A010000 		.4byte	0x10a
 4019 0e12 02       		.uleb128 0x2
ARM GAS  C:\Users\ikomb\AppData\Local\Temp\cclK6Blf.s 			page 102


 4020 0e13 91       		.byte	0x91
 4021 0e14 60       		.sleb128 -32
 4022 0e15 1B       		.uleb128 0x1b
 4023 0e16 5D010000 		.4byte	.LASF140
 4024 0e1a 01       		.byte	0x1
 4025 0e1b A706     		.2byte	0x6a7
 4026 0e1d 0A010000 		.4byte	0x10a
 4027 0e21 02       		.uleb128 0x2
 4028 0e22 91       		.byte	0x91
 4029 0e23 74       		.sleb128 -12
 4030 0e24 00       		.byte	0
 4031 0e25 21       		.uleb128 0x21
 4032 0e26 50010000 		.4byte	.LASF141
 4033 0e2a 08       		.byte	0x8
 4034 0e2b EA07     		.2byte	0x7ea
 4035 0e2d 310E0000 		.4byte	0xe31
 4036 0e31 22       		.uleb128 0x22
 4037 0e32 B4000000 		.4byte	0xb4
 4038 0e36 21       		.uleb128 0x21
 4039 0e37 6C010000 		.4byte	.LASF142
 4040 0e3b 07       		.byte	0x7
 4041 0e3c 8E04     		.2byte	0x48e
 4042 0e3e 420E0000 		.4byte	0xe42
 4043 0e42 19       		.uleb128 0x19
 4044 0e43 60040000 		.4byte	0x460
 4045 0e47 00       		.byte	0
 4046              		.section	.debug_abbrev,"",%progbits
 4047              	.Ldebug_abbrev0:
 4048 0000 01       		.uleb128 0x1
 4049 0001 11       		.uleb128 0x11
 4050 0002 01       		.byte	0x1
 4051 0003 25       		.uleb128 0x25
 4052 0004 0E       		.uleb128 0xe
 4053 0005 13       		.uleb128 0x13
 4054 0006 0B       		.uleb128 0xb
 4055 0007 03       		.uleb128 0x3
 4056 0008 0E       		.uleb128 0xe
 4057 0009 1B       		.uleb128 0x1b
 4058 000a 0E       		.uleb128 0xe
 4059 000b 55       		.uleb128 0x55
 4060 000c 17       		.uleb128 0x17
 4061 000d 11       		.uleb128 0x11
 4062 000e 01       		.uleb128 0x1
 4063 000f 10       		.uleb128 0x10
 4064 0010 17       		.uleb128 0x17
 4065 0011 00       		.byte	0
 4066 0012 00       		.byte	0
 4067 0013 02       		.uleb128 0x2
 4068 0014 24       		.uleb128 0x24
 4069 0015 00       		.byte	0
 4070 0016 0B       		.uleb128 0xb
 4071 0017 0B       		.uleb128 0xb
 4072 0018 3E       		.uleb128 0x3e
 4073 0019 0B       		.uleb128 0xb
 4074 001a 03       		.uleb128 0x3
 4075 001b 08       		.uleb128 0x8
 4076 001c 00       		.byte	0
ARM GAS  C:\Users\ikomb\AppData\Local\Temp\cclK6Blf.s 			page 103


 4077 001d 00       		.byte	0
 4078 001e 03       		.uleb128 0x3
 4079 001f 24       		.uleb128 0x24
 4080 0020 00       		.byte	0
 4081 0021 0B       		.uleb128 0xb
 4082 0022 0B       		.uleb128 0xb
 4083 0023 3E       		.uleb128 0x3e
 4084 0024 0B       		.uleb128 0xb
 4085 0025 03       		.uleb128 0x3
 4086 0026 0E       		.uleb128 0xe
 4087 0027 00       		.byte	0
 4088 0028 00       		.byte	0
 4089 0029 04       		.uleb128 0x4
 4090 002a 16       		.uleb128 0x16
 4091 002b 00       		.byte	0
 4092 002c 03       		.uleb128 0x3
 4093 002d 0E       		.uleb128 0xe
 4094 002e 3A       		.uleb128 0x3a
 4095 002f 0B       		.uleb128 0xb
 4096 0030 3B       		.uleb128 0x3b
 4097 0031 0B       		.uleb128 0xb
 4098 0032 49       		.uleb128 0x49
 4099 0033 13       		.uleb128 0x13
 4100 0034 00       		.byte	0
 4101 0035 00       		.byte	0
 4102 0036 05       		.uleb128 0x5
 4103 0037 16       		.uleb128 0x16
 4104 0038 00       		.byte	0
 4105 0039 03       		.uleb128 0x3
 4106 003a 0E       		.uleb128 0xe
 4107 003b 3A       		.uleb128 0x3a
 4108 003c 0B       		.uleb128 0xb
 4109 003d 3B       		.uleb128 0x3b
 4110 003e 05       		.uleb128 0x5
 4111 003f 49       		.uleb128 0x49
 4112 0040 13       		.uleb128 0x13
 4113 0041 00       		.byte	0
 4114 0042 00       		.byte	0
 4115 0043 06       		.uleb128 0x6
 4116 0044 13       		.uleb128 0x13
 4117 0045 01       		.byte	0x1
 4118 0046 0B       		.uleb128 0xb
 4119 0047 0B       		.uleb128 0xb
 4120 0048 3A       		.uleb128 0x3a
 4121 0049 0B       		.uleb128 0xb
 4122 004a 3B       		.uleb128 0x3b
 4123 004b 0B       		.uleb128 0xb
 4124 004c 01       		.uleb128 0x1
 4125 004d 13       		.uleb128 0x13
 4126 004e 00       		.byte	0
 4127 004f 00       		.byte	0
 4128 0050 07       		.uleb128 0x7
 4129 0051 0D       		.uleb128 0xd
 4130 0052 00       		.byte	0
 4131 0053 03       		.uleb128 0x3
 4132 0054 0E       		.uleb128 0xe
 4133 0055 3A       		.uleb128 0x3a
ARM GAS  C:\Users\ikomb\AppData\Local\Temp\cclK6Blf.s 			page 104


 4134 0056 0B       		.uleb128 0xb
 4135 0057 3B       		.uleb128 0x3b
 4136 0058 0B       		.uleb128 0xb
 4137 0059 49       		.uleb128 0x49
 4138 005a 13       		.uleb128 0x13
 4139 005b 38       		.uleb128 0x38
 4140 005c 0B       		.uleb128 0xb
 4141 005d 00       		.byte	0
 4142 005e 00       		.byte	0
 4143 005f 08       		.uleb128 0x8
 4144 0060 04       		.uleb128 0x4
 4145 0061 01       		.byte	0x1
 4146 0062 0B       		.uleb128 0xb
 4147 0063 0B       		.uleb128 0xb
 4148 0064 49       		.uleb128 0x49
 4149 0065 13       		.uleb128 0x13
 4150 0066 3A       		.uleb128 0x3a
 4151 0067 0B       		.uleb128 0xb
 4152 0068 3B       		.uleb128 0x3b
 4153 0069 0B       		.uleb128 0xb
 4154 006a 01       		.uleb128 0x1
 4155 006b 13       		.uleb128 0x13
 4156 006c 00       		.byte	0
 4157 006d 00       		.byte	0
 4158 006e 09       		.uleb128 0x9
 4159 006f 28       		.uleb128 0x28
 4160 0070 00       		.byte	0
 4161 0071 03       		.uleb128 0x3
 4162 0072 0E       		.uleb128 0xe
 4163 0073 1C       		.uleb128 0x1c
 4164 0074 0B       		.uleb128 0xb
 4165 0075 00       		.byte	0
 4166 0076 00       		.byte	0
 4167 0077 0A       		.uleb128 0xa
 4168 0078 01       		.uleb128 0x1
 4169 0079 01       		.byte	0x1
 4170 007a 49       		.uleb128 0x49
 4171 007b 13       		.uleb128 0x13
 4172 007c 01       		.uleb128 0x1
 4173 007d 13       		.uleb128 0x13
 4174 007e 00       		.byte	0
 4175 007f 00       		.byte	0
 4176 0080 0B       		.uleb128 0xb
 4177 0081 21       		.uleb128 0x21
 4178 0082 00       		.byte	0
 4179 0083 49       		.uleb128 0x49
 4180 0084 13       		.uleb128 0x13
 4181 0085 2F       		.uleb128 0x2f
 4182 0086 0B       		.uleb128 0xb
 4183 0087 00       		.byte	0
 4184 0088 00       		.byte	0
 4185 0089 0C       		.uleb128 0xc
 4186 008a 13       		.uleb128 0x13
 4187 008b 01       		.byte	0x1
 4188 008c 0B       		.uleb128 0xb
 4189 008d 0B       		.uleb128 0xb
 4190 008e 3A       		.uleb128 0x3a
ARM GAS  C:\Users\ikomb\AppData\Local\Temp\cclK6Blf.s 			page 105


 4191 008f 0B       		.uleb128 0xb
 4192 0090 3B       		.uleb128 0x3b
 4193 0091 05       		.uleb128 0x5
 4194 0092 01       		.uleb128 0x1
 4195 0093 13       		.uleb128 0x13
 4196 0094 00       		.byte	0
 4197 0095 00       		.byte	0
 4198 0096 0D       		.uleb128 0xd
 4199 0097 0D       		.uleb128 0xd
 4200 0098 00       		.byte	0
 4201 0099 03       		.uleb128 0x3
 4202 009a 08       		.uleb128 0x8
 4203 009b 3A       		.uleb128 0x3a
 4204 009c 0B       		.uleb128 0xb
 4205 009d 3B       		.uleb128 0x3b
 4206 009e 05       		.uleb128 0x5
 4207 009f 49       		.uleb128 0x49
 4208 00a0 13       		.uleb128 0x13
 4209 00a1 38       		.uleb128 0x38
 4210 00a2 0B       		.uleb128 0xb
 4211 00a3 00       		.byte	0
 4212 00a4 00       		.byte	0
 4213 00a5 0E       		.uleb128 0xe
 4214 00a6 0D       		.uleb128 0xd
 4215 00a7 00       		.byte	0
 4216 00a8 03       		.uleb128 0x3
 4217 00a9 0E       		.uleb128 0xe
 4218 00aa 3A       		.uleb128 0x3a
 4219 00ab 0B       		.uleb128 0xb
 4220 00ac 3B       		.uleb128 0x3b
 4221 00ad 05       		.uleb128 0x5
 4222 00ae 49       		.uleb128 0x49
 4223 00af 13       		.uleb128 0x13
 4224 00b0 38       		.uleb128 0x38
 4225 00b1 0B       		.uleb128 0xb
 4226 00b2 00       		.byte	0
 4227 00b3 00       		.byte	0
 4228 00b4 0F       		.uleb128 0xf
 4229 00b5 0F       		.uleb128 0xf
 4230 00b6 00       		.byte	0
 4231 00b7 0B       		.uleb128 0xb
 4232 00b8 0B       		.uleb128 0xb
 4233 00b9 49       		.uleb128 0x49
 4234 00ba 13       		.uleb128 0x13
 4235 00bb 00       		.byte	0
 4236 00bc 00       		.byte	0
 4237 00bd 10       		.uleb128 0x10
 4238 00be 26       		.uleb128 0x26
 4239 00bf 00       		.byte	0
 4240 00c0 00       		.byte	0
 4241 00c1 00       		.byte	0
 4242 00c2 11       		.uleb128 0x11
 4243 00c3 0F       		.uleb128 0xf
 4244 00c4 00       		.byte	0
 4245 00c5 0B       		.uleb128 0xb
 4246 00c6 0B       		.uleb128 0xb
 4247 00c7 00       		.byte	0
ARM GAS  C:\Users\ikomb\AppData\Local\Temp\cclK6Blf.s 			page 106


 4248 00c8 00       		.byte	0
 4249 00c9 12       		.uleb128 0x12
 4250 00ca 17       		.uleb128 0x17
 4251 00cb 01       		.byte	0x1
 4252 00cc 0B       		.uleb128 0xb
 4253 00cd 0B       		.uleb128 0xb
 4254 00ce 3A       		.uleb128 0x3a
 4255 00cf 0B       		.uleb128 0xb
 4256 00d0 3B       		.uleb128 0x3b
 4257 00d1 05       		.uleb128 0x5
 4258 00d2 01       		.uleb128 0x1
 4259 00d3 13       		.uleb128 0x13
 4260 00d4 00       		.byte	0
 4261 00d5 00       		.byte	0
 4262 00d6 13       		.uleb128 0x13
 4263 00d7 0D       		.uleb128 0xd
 4264 00d8 00       		.byte	0
 4265 00d9 03       		.uleb128 0x3
 4266 00da 08       		.uleb128 0x8
 4267 00db 3A       		.uleb128 0x3a
 4268 00dc 0B       		.uleb128 0xb
 4269 00dd 3B       		.uleb128 0x3b
 4270 00de 05       		.uleb128 0x5
 4271 00df 49       		.uleb128 0x49
 4272 00e0 13       		.uleb128 0x13
 4273 00e1 00       		.byte	0
 4274 00e2 00       		.byte	0
 4275 00e3 14       		.uleb128 0x14
 4276 00e4 0D       		.uleb128 0xd
 4277 00e5 00       		.byte	0
 4278 00e6 03       		.uleb128 0x3
 4279 00e7 0E       		.uleb128 0xe
 4280 00e8 3A       		.uleb128 0x3a
 4281 00e9 0B       		.uleb128 0xb
 4282 00ea 3B       		.uleb128 0x3b
 4283 00eb 05       		.uleb128 0x5
 4284 00ec 49       		.uleb128 0x49
 4285 00ed 13       		.uleb128 0x13
 4286 00ee 00       		.byte	0
 4287 00ef 00       		.byte	0
 4288 00f0 15       		.uleb128 0x15
 4289 00f1 2E       		.uleb128 0x2e
 4290 00f2 00       		.byte	0
 4291 00f3 3F       		.uleb128 0x3f
 4292 00f4 19       		.uleb128 0x19
 4293 00f5 03       		.uleb128 0x3
 4294 00f6 0E       		.uleb128 0xe
 4295 00f7 3A       		.uleb128 0x3a
 4296 00f8 0B       		.uleb128 0xb
 4297 00f9 3B       		.uleb128 0x3b
 4298 00fa 0B       		.uleb128 0xb
 4299 00fb 27       		.uleb128 0x27
 4300 00fc 19       		.uleb128 0x19
 4301 00fd 11       		.uleb128 0x11
 4302 00fe 01       		.uleb128 0x1
 4303 00ff 12       		.uleb128 0x12
 4304 0100 06       		.uleb128 0x6
ARM GAS  C:\Users\ikomb\AppData\Local\Temp\cclK6Blf.s 			page 107


 4305 0101 40       		.uleb128 0x40
 4306 0102 18       		.uleb128 0x18
 4307 0103 9642     		.uleb128 0x2116
 4308 0105 19       		.uleb128 0x19
 4309 0106 00       		.byte	0
 4310 0107 00       		.byte	0
 4311 0108 16       		.uleb128 0x16
 4312 0109 2E       		.uleb128 0x2e
 4313 010a 01       		.byte	0x1
 4314 010b 3F       		.uleb128 0x3f
 4315 010c 19       		.uleb128 0x19
 4316 010d 03       		.uleb128 0x3
 4317 010e 0E       		.uleb128 0xe
 4318 010f 3A       		.uleb128 0x3a
 4319 0110 0B       		.uleb128 0xb
 4320 0111 3B       		.uleb128 0x3b
 4321 0112 0B       		.uleb128 0xb
 4322 0113 27       		.uleb128 0x27
 4323 0114 19       		.uleb128 0x19
 4324 0115 49       		.uleb128 0x49
 4325 0116 13       		.uleb128 0x13
 4326 0117 11       		.uleb128 0x11
 4327 0118 01       		.uleb128 0x1
 4328 0119 12       		.uleb128 0x12
 4329 011a 06       		.uleb128 0x6
 4330 011b 40       		.uleb128 0x40
 4331 011c 18       		.uleb128 0x18
 4332 011d 9642     		.uleb128 0x2116
 4333 011f 19       		.uleb128 0x19
 4334 0120 01       		.uleb128 0x1
 4335 0121 13       		.uleb128 0x13
 4336 0122 00       		.byte	0
 4337 0123 00       		.byte	0
 4338 0124 17       		.uleb128 0x17
 4339 0125 34       		.uleb128 0x34
 4340 0126 00       		.byte	0
 4341 0127 03       		.uleb128 0x3
 4342 0128 0E       		.uleb128 0xe
 4343 0129 3A       		.uleb128 0x3a
 4344 012a 0B       		.uleb128 0xb
 4345 012b 3B       		.uleb128 0x3b
 4346 012c 0B       		.uleb128 0xb
 4347 012d 49       		.uleb128 0x49
 4348 012e 13       		.uleb128 0x13
 4349 012f 02       		.uleb128 0x2
 4350 0130 18       		.uleb128 0x18
 4351 0131 00       		.byte	0
 4352 0132 00       		.byte	0
 4353 0133 18       		.uleb128 0x18
 4354 0134 05       		.uleb128 0x5
 4355 0135 00       		.byte	0
 4356 0136 03       		.uleb128 0x3
 4357 0137 0E       		.uleb128 0xe
 4358 0138 3A       		.uleb128 0x3a
 4359 0139 0B       		.uleb128 0xb
 4360 013a 3B       		.uleb128 0x3b
 4361 013b 0B       		.uleb128 0xb
ARM GAS  C:\Users\ikomb\AppData\Local\Temp\cclK6Blf.s 			page 108


 4362 013c 49       		.uleb128 0x49
 4363 013d 13       		.uleb128 0x13
 4364 013e 02       		.uleb128 0x2
 4365 013f 18       		.uleb128 0x18
 4366 0140 00       		.byte	0
 4367 0141 00       		.byte	0
 4368 0142 19       		.uleb128 0x19
 4369 0143 26       		.uleb128 0x26
 4370 0144 00       		.byte	0
 4371 0145 49       		.uleb128 0x49
 4372 0146 13       		.uleb128 0x13
 4373 0147 00       		.byte	0
 4374 0148 00       		.byte	0
 4375 0149 1A       		.uleb128 0x1a
 4376 014a 05       		.uleb128 0x5
 4377 014b 00       		.byte	0
 4378 014c 03       		.uleb128 0x3
 4379 014d 0E       		.uleb128 0xe
 4380 014e 3A       		.uleb128 0x3a
 4381 014f 0B       		.uleb128 0xb
 4382 0150 3B       		.uleb128 0x3b
 4383 0151 05       		.uleb128 0x5
 4384 0152 49       		.uleb128 0x49
 4385 0153 13       		.uleb128 0x13
 4386 0154 02       		.uleb128 0x2
 4387 0155 18       		.uleb128 0x18
 4388 0156 00       		.byte	0
 4389 0157 00       		.byte	0
 4390 0158 1B       		.uleb128 0x1b
 4391 0159 34       		.uleb128 0x34
 4392 015a 00       		.byte	0
 4393 015b 03       		.uleb128 0x3
 4394 015c 0E       		.uleb128 0xe
 4395 015d 3A       		.uleb128 0x3a
 4396 015e 0B       		.uleb128 0xb
 4397 015f 3B       		.uleb128 0x3b
 4398 0160 05       		.uleb128 0x5
 4399 0161 49       		.uleb128 0x49
 4400 0162 13       		.uleb128 0x13
 4401 0163 02       		.uleb128 0x2
 4402 0164 18       		.uleb128 0x18
 4403 0165 00       		.byte	0
 4404 0166 00       		.byte	0
 4405 0167 1C       		.uleb128 0x1c
 4406 0168 2E       		.uleb128 0x2e
 4407 0169 01       		.byte	0x1
 4408 016a 3F       		.uleb128 0x3f
 4409 016b 19       		.uleb128 0x19
 4410 016c 03       		.uleb128 0x3
 4411 016d 0E       		.uleb128 0xe
 4412 016e 3A       		.uleb128 0x3a
 4413 016f 0B       		.uleb128 0xb
 4414 0170 3B       		.uleb128 0x3b
 4415 0171 05       		.uleb128 0x5
 4416 0172 27       		.uleb128 0x27
 4417 0173 19       		.uleb128 0x19
 4418 0174 11       		.uleb128 0x11
ARM GAS  C:\Users\ikomb\AppData\Local\Temp\cclK6Blf.s 			page 109


 4419 0175 01       		.uleb128 0x1
 4420 0176 12       		.uleb128 0x12
 4421 0177 06       		.uleb128 0x6
 4422 0178 40       		.uleb128 0x40
 4423 0179 18       		.uleb128 0x18
 4424 017a 9642     		.uleb128 0x2116
 4425 017c 19       		.uleb128 0x19
 4426 017d 01       		.uleb128 0x1
 4427 017e 13       		.uleb128 0x13
 4428 017f 00       		.byte	0
 4429 0180 00       		.byte	0
 4430 0181 1D       		.uleb128 0x1d
 4431 0182 2E       		.uleb128 0x2e
 4432 0183 01       		.byte	0x1
 4433 0184 3F       		.uleb128 0x3f
 4434 0185 19       		.uleb128 0x19
 4435 0186 03       		.uleb128 0x3
 4436 0187 0E       		.uleb128 0xe
 4437 0188 3A       		.uleb128 0x3a
 4438 0189 0B       		.uleb128 0xb
 4439 018a 3B       		.uleb128 0x3b
 4440 018b 05       		.uleb128 0x5
 4441 018c 27       		.uleb128 0x27
 4442 018d 19       		.uleb128 0x19
 4443 018e 11       		.uleb128 0x11
 4444 018f 01       		.uleb128 0x1
 4445 0190 12       		.uleb128 0x12
 4446 0191 06       		.uleb128 0x6
 4447 0192 40       		.uleb128 0x40
 4448 0193 18       		.uleb128 0x18
 4449 0194 9742     		.uleb128 0x2117
 4450 0196 19       		.uleb128 0x19
 4451 0197 01       		.uleb128 0x1
 4452 0198 13       		.uleb128 0x13
 4453 0199 00       		.byte	0
 4454 019a 00       		.byte	0
 4455 019b 1E       		.uleb128 0x1e
 4456 019c 2E       		.uleb128 0x2e
 4457 019d 01       		.byte	0x1
 4458 019e 3F       		.uleb128 0x3f
 4459 019f 19       		.uleb128 0x19
 4460 01a0 03       		.uleb128 0x3
 4461 01a1 0E       		.uleb128 0xe
 4462 01a2 3A       		.uleb128 0x3a
 4463 01a3 0B       		.uleb128 0xb
 4464 01a4 3B       		.uleb128 0x3b
 4465 01a5 05       		.uleb128 0x5
 4466 01a6 27       		.uleb128 0x27
 4467 01a7 19       		.uleb128 0x19
 4468 01a8 49       		.uleb128 0x49
 4469 01a9 13       		.uleb128 0x13
 4470 01aa 11       		.uleb128 0x11
 4471 01ab 01       		.uleb128 0x1
 4472 01ac 12       		.uleb128 0x12
 4473 01ad 06       		.uleb128 0x6
 4474 01ae 40       		.uleb128 0x40
 4475 01af 18       		.uleb128 0x18
ARM GAS  C:\Users\ikomb\AppData\Local\Temp\cclK6Blf.s 			page 110


 4476 01b0 9742     		.uleb128 0x2117
 4477 01b2 19       		.uleb128 0x19
 4478 01b3 01       		.uleb128 0x1
 4479 01b4 13       		.uleb128 0x13
 4480 01b5 00       		.byte	0
 4481 01b6 00       		.byte	0
 4482 01b7 1F       		.uleb128 0x1f
 4483 01b8 05       		.uleb128 0x5
 4484 01b9 00       		.byte	0
 4485 01ba 03       		.uleb128 0x3
 4486 01bb 08       		.uleb128 0x8
 4487 01bc 3A       		.uleb128 0x3a
 4488 01bd 0B       		.uleb128 0xb
 4489 01be 3B       		.uleb128 0x3b
 4490 01bf 05       		.uleb128 0x5
 4491 01c0 49       		.uleb128 0x49
 4492 01c1 13       		.uleb128 0x13
 4493 01c2 02       		.uleb128 0x2
 4494 01c3 18       		.uleb128 0x18
 4495 01c4 00       		.byte	0
 4496 01c5 00       		.byte	0
 4497 01c6 20       		.uleb128 0x20
 4498 01c7 34       		.uleb128 0x34
 4499 01c8 00       		.byte	0
 4500 01c9 03       		.uleb128 0x3
 4501 01ca 08       		.uleb128 0x8
 4502 01cb 3A       		.uleb128 0x3a
 4503 01cc 0B       		.uleb128 0xb
 4504 01cd 3B       		.uleb128 0x3b
 4505 01ce 05       		.uleb128 0x5
 4506 01cf 49       		.uleb128 0x49
 4507 01d0 13       		.uleb128 0x13
 4508 01d1 02       		.uleb128 0x2
 4509 01d2 18       		.uleb128 0x18
 4510 01d3 00       		.byte	0
 4511 01d4 00       		.byte	0
 4512 01d5 21       		.uleb128 0x21
 4513 01d6 34       		.uleb128 0x34
 4514 01d7 00       		.byte	0
 4515 01d8 03       		.uleb128 0x3
 4516 01d9 0E       		.uleb128 0xe
 4517 01da 3A       		.uleb128 0x3a
 4518 01db 0B       		.uleb128 0xb
 4519 01dc 3B       		.uleb128 0x3b
 4520 01dd 05       		.uleb128 0x5
 4521 01de 49       		.uleb128 0x49
 4522 01df 13       		.uleb128 0x13
 4523 01e0 3F       		.uleb128 0x3f
 4524 01e1 19       		.uleb128 0x19
 4525 01e2 3C       		.uleb128 0x3c
 4526 01e3 19       		.uleb128 0x19
 4527 01e4 00       		.byte	0
 4528 01e5 00       		.byte	0
 4529 01e6 22       		.uleb128 0x22
 4530 01e7 35       		.uleb128 0x35
 4531 01e8 00       		.byte	0
 4532 01e9 49       		.uleb128 0x49
ARM GAS  C:\Users\ikomb\AppData\Local\Temp\cclK6Blf.s 			page 111


 4533 01ea 13       		.uleb128 0x13
 4534 01eb 00       		.byte	0
 4535 01ec 00       		.byte	0
 4536 01ed 00       		.byte	0
 4537              		.section	.debug_aranges,"",%progbits
 4538 0000 E4000000 		.4byte	0xe4
 4539 0004 0200     		.2byte	0x2
 4540 0006 00000000 		.4byte	.Ldebug_info0
 4541 000a 04       		.byte	0x4
 4542 000b 00       		.byte	0
 4543 000c 0000     		.2byte	0
 4544 000e 0000     		.2byte	0
 4545 0010 00000000 		.4byte	.LFB125
 4546 0014 0C000000 		.4byte	.LFE125-.LFB125
 4547 0018 00000000 		.4byte	.LFB126
 4548 001c 32000000 		.4byte	.LFE126-.LFB126
 4549 0020 00000000 		.4byte	.LFB127
 4550 0024 50000000 		.4byte	.LFE127-.LFB127
 4551 0028 00000000 		.4byte	.LFB128
 4552 002c 60000000 		.4byte	.LFE128-.LFB128
 4553 0030 00000000 		.4byte	.LFB129
 4554 0034 38010000 		.4byte	.LFE129-.LFB129
 4555 0038 00000000 		.4byte	.LFB130
 4556 003c 24000000 		.4byte	.LFE130-.LFB130
 4557 0040 00000000 		.4byte	.LFB131
 4558 0044 44000000 		.4byte	.LFE131-.LFB131
 4559 0048 00000000 		.4byte	.LFB132
 4560 004c 54000000 		.4byte	.LFE132-.LFB132
 4561 0050 00000000 		.4byte	.LFB133
 4562 0054 2C000000 		.4byte	.LFE133-.LFB133
 4563 0058 00000000 		.4byte	.LFB134
 4564 005c 4C000000 		.4byte	.LFE134-.LFB134
 4565 0060 00000000 		.4byte	.LFB135
 4566 0064 24000000 		.4byte	.LFE135-.LFB135
 4567 0068 00000000 		.4byte	.LFB136
 4568 006c D8000000 		.4byte	.LFE136-.LFB136
 4569 0070 00000000 		.4byte	.LFB137
 4570 0074 70000000 		.4byte	.LFE137-.LFB137
 4571 0078 00000000 		.4byte	.LFB138
 4572 007c 70000000 		.4byte	.LFE138-.LFB138
 4573 0080 00000000 		.4byte	.LFB139
 4574 0084 66000000 		.4byte	.LFE139-.LFB139
 4575 0088 00000000 		.4byte	.LFB140
 4576 008c AE000000 		.4byte	.LFE140-.LFB140
 4577 0090 00000000 		.4byte	.LFB141
 4578 0094 70000000 		.4byte	.LFE141-.LFB141
 4579 0098 00000000 		.4byte	.LFB142
 4580 009c 70000000 		.4byte	.LFE142-.LFB142
 4581 00a0 00000000 		.4byte	.LFB143
 4582 00a4 84000000 		.4byte	.LFE143-.LFB143
 4583 00a8 00000000 		.4byte	.LFB144
 4584 00ac EE000000 		.4byte	.LFE144-.LFB144
 4585 00b0 00000000 		.4byte	.LFB145
 4586 00b4 70000000 		.4byte	.LFE145-.LFB145
 4587 00b8 00000000 		.4byte	.LFB146
 4588 00bc 28000000 		.4byte	.LFE146-.LFB146
 4589 00c0 00000000 		.4byte	.LFB147
ARM GAS  C:\Users\ikomb\AppData\Local\Temp\cclK6Blf.s 			page 112


 4590 00c4 74000000 		.4byte	.LFE147-.LFB147
 4591 00c8 00000000 		.4byte	.LFB148
 4592 00cc 74000000 		.4byte	.LFE148-.LFB148
 4593 00d0 00000000 		.4byte	.LFB149
 4594 00d4 42000000 		.4byte	.LFE149-.LFB149
 4595 00d8 00000000 		.4byte	.LFB150
 4596 00dc 3C000000 		.4byte	.LFE150-.LFB150
 4597 00e0 00000000 		.4byte	0
 4598 00e4 00000000 		.4byte	0
 4599              		.section	.debug_ranges,"",%progbits
 4600              	.Ldebug_ranges0:
 4601 0000 00000000 		.4byte	.LFB125
 4602 0004 0C000000 		.4byte	.LFE125
 4603 0008 00000000 		.4byte	.LFB126
 4604 000c 32000000 		.4byte	.LFE126
 4605 0010 00000000 		.4byte	.LFB127
 4606 0014 50000000 		.4byte	.LFE127
 4607 0018 00000000 		.4byte	.LFB128
 4608 001c 60000000 		.4byte	.LFE128
 4609 0020 00000000 		.4byte	.LFB129
 4610 0024 38010000 		.4byte	.LFE129
 4611 0028 00000000 		.4byte	.LFB130
 4612 002c 24000000 		.4byte	.LFE130
 4613 0030 00000000 		.4byte	.LFB131
 4614 0034 44000000 		.4byte	.LFE131
 4615 0038 00000000 		.4byte	.LFB132
 4616 003c 54000000 		.4byte	.LFE132
 4617 0040 00000000 		.4byte	.LFB133
 4618 0044 2C000000 		.4byte	.LFE133
 4619 0048 00000000 		.4byte	.LFB134
 4620 004c 4C000000 		.4byte	.LFE134
 4621 0050 00000000 		.4byte	.LFB135
 4622 0054 24000000 		.4byte	.LFE135
 4623 0058 00000000 		.4byte	.LFB136
 4624 005c D8000000 		.4byte	.LFE136
 4625 0060 00000000 		.4byte	.LFB137
 4626 0064 70000000 		.4byte	.LFE137
 4627 0068 00000000 		.4byte	.LFB138
 4628 006c 70000000 		.4byte	.LFE138
 4629 0070 00000000 		.4byte	.LFB139
 4630 0074 66000000 		.4byte	.LFE139
 4631 0078 00000000 		.4byte	.LFB140
 4632 007c AE000000 		.4byte	.LFE140
 4633 0080 00000000 		.4byte	.LFB141
 4634 0084 70000000 		.4byte	.LFE141
 4635 0088 00000000 		.4byte	.LFB142
 4636 008c 70000000 		.4byte	.LFE142
 4637 0090 00000000 		.4byte	.LFB143
 4638 0094 84000000 		.4byte	.LFE143
 4639 0098 00000000 		.4byte	.LFB144
 4640 009c EE000000 		.4byte	.LFE144
 4641 00a0 00000000 		.4byte	.LFB145
 4642 00a4 70000000 		.4byte	.LFE145
 4643 00a8 00000000 		.4byte	.LFB146
 4644 00ac 28000000 		.4byte	.LFE146
 4645 00b0 00000000 		.4byte	.LFB147
 4646 00b4 74000000 		.4byte	.LFE147
ARM GAS  C:\Users\ikomb\AppData\Local\Temp\cclK6Blf.s 			page 113


 4647 00b8 00000000 		.4byte	.LFB148
 4648 00bc 74000000 		.4byte	.LFE148
 4649 00c0 00000000 		.4byte	.LFB149
 4650 00c4 42000000 		.4byte	.LFE149
 4651 00c8 00000000 		.4byte	.LFB150
 4652 00cc 3C000000 		.4byte	.LFE150
 4653 00d0 00000000 		.4byte	0
 4654 00d4 00000000 		.4byte	0
 4655              		.section	.debug_line,"",%progbits
 4656              	.Ldebug_line0:
 4657 0000 F8040000 		.section	.debug_str,"MS",%progbits,1
 4657      02000702 
 4657      00000201 
 4657      FB0E0D00 
 4657      01010101 
 4658              	.LASF24:
 4659 0000 75696E74 		.ascii	"uint16\000"
 4659      313600
 4660              	.LASF81:
 4661 0007 70747232 		.ascii	"ptr2PosHistory\000"
 4661      506F7348 
 4661      6973746F 
 4661      727900
 4662              	.LASF103:
 4663 0016 70747257 		.ascii	"ptrWidgetRam\000"
 4663      69646765 
 4663      7452616D 
 4663      00
 4664              	.LASF85:
 4665 0023 43617053 		.ascii	"CapSense_FLASH_STRUCT\000"
 4665      656E7365 
 4665      5F464C41 
 4665      53485F53 
 4665      54525543 
 4666              	.LASF96:
 4667 0039 43617053 		.ascii	"CapSense_UpdateWidgetBaseline\000"
 4667      656E7365 
 4667      5F557064 
 4667      61746557 
 4667      69646765 
 4668              	.LASF114:
 4669 0057 43617053 		.ascii	"CapSense_FtInitializeBaseline\000"
 4669      656E7365 
 4669      5F467449 
 4669      6E697469 
 4669      616C697A 
 4670              	.LASF6:
 4671 0075 5F5F7569 		.ascii	"__uint8_t\000"
 4671      6E74385F 
 4671      7400
 4672              	.LASF58:
 4673 007f 66696E67 		.ascii	"fingerCap\000"
 4673      65724361 
 4673      7000
 4674              	.LASF45:
 4675 0089 43617053 		.ascii	"CapSense_SENSE_METHOD_CSX_E\000"
 4675      656E7365 
ARM GAS  C:\Users\ikomb\AppData\Local\Temp\cclK6Blf.s 			page 114


 4675      5F53454E 
 4675      53455F4D 
 4675      4554484F 
 4676              	.LASF82:
 4677 00a5 69697246 		.ascii	"iirFilterCoeff\000"
 4677      696C7465 
 4677      72436F65 
 4677      666600
 4678              	.LASF130:
 4679 00b4 43617053 		.ascii	"CapSense_RunAverageInternal\000"
 4679      656E7365 
 4679      5F52756E 
 4679      41766572 
 4679      61676549 
 4680              	.LASF66:
 4681 00d0 43617053 		.ascii	"CapSense_RAM_SNS_STRUCT\000"
 4681      656E7365 
 4681      5F52414D 
 4681      5F534E53 
 4681      5F535452 
 4682              	.LASF13:
 4683 00e8 6C6F6E67 		.ascii	"long long unsigned int\000"
 4683      206C6F6E 
 4683      6720756E 
 4683      7369676E 
 4683      65642069 
 4684              	.LASF121:
 4685 00ff 43617053 		.ascii	"CapSense_InitializeMedian\000"
 4685      656E7365 
 4685      5F496E69 
 4685      7469616C 
 4685      697A654D 
 4686              	.LASF67:
 4687 0119 70747232 		.ascii	"ptr2SnsFlash\000"
 4687      536E7346 
 4687      6C617368 
 4687      00
 4688              	.LASF22:
 4689 0126 63795F73 		.ascii	"cy_status\000"
 4689      74617475 
 4689      7300
 4690              	.LASF63:
 4691 0130 64696666 		.ascii	"diff\000"
 4691      00
 4692              	.LASF27:
 4693 0135 43617053 		.ascii	"CapSense_LOW_BSLN_RST_TYPE\000"
 4693      656E7365 
 4693      5F4C4F57 
 4693      5F42534C 
 4693      4E5F5253 
 4694              	.LASF141:
 4695 0150 49544D5F 		.ascii	"ITM_RxBuffer\000"
 4695      52784275 
 4695      66666572 
 4695      00
 4696              	.LASF140:
 4697 015d 66696C74 		.ascii	"filteredOutput\000"
ARM GAS  C:\Users\ikomb\AppData\Local\Temp\cclK6Blf.s 			page 115


 4697      65726564 
 4697      4F757470 
 4697      757400
 4698              	.LASF142:
 4699 016c 43617053 		.ascii	"CapSense_dsFlash\000"
 4699      656E7365 
 4699      5F647346 
 4699      6C617368 
 4699      00
 4700              	.LASF26:
 4701 017d 43617053 		.ascii	"CapSense_THRESHOLD_TYPE\000"
 4701      656E7365 
 4701      5F544852 
 4701      4553484F 
 4701      4C445F54 
 4702              	.LASF37:
 4703 0195 43617053 		.ascii	"CapSense_WD_LINEAR_SLIDER_E\000"
 4703      656E7365 
 4703      5F57445F 
 4703      4C494E45 
 4703      41525F53 
 4704              	.LASF134:
 4705 01b1 43617053 		.ascii	"CapSense_InitializeNoiseEnvelope\000"
 4705      656E7365 
 4705      5F496E69 
 4705      7469616C 
 4705      697A654E 
 4706              	.LASF109:
 4707 01d2 62617365 		.ascii	"baselineCoeff\000"
 4707      6C696E65 
 4707      436F6566 
 4707      6600
 4708              	.LASF1:
 4709 01e0 6C6F6E67 		.ascii	"long long int\000"
 4709      206C6F6E 
 4709      6720696E 
 4709      7400
 4710              	.LASF3:
 4711 01ee 7369676E 		.ascii	"signed char\000"
 4711      65642063 
 4711      68617200 
 4712              	.LASF90:
 4713 01fa 43617053 		.ascii	"CapSense_REGULAR_FLTR_STRUCT\000"
 4713      656E7365 
 4713      5F524547 
 4713      554C4152 
 4713      5F464C54 
 4714              	.LASF10:
 4715 0217 6C6F6E67 		.ascii	"long int\000"
 4715      20696E74 
 4715      00
 4716              	.LASF69:
 4717 0220 70747232 		.ascii	"ptr2SnsRam\000"
 4717      536E7352 
 4717      616D00
 4718              	.LASF137:
 4719 022b 696E7075 		.ascii	"input\000"
ARM GAS  C:\Users\ikomb\AppData\Local\Temp\cclK6Blf.s 			page 116


 4719      7400
 4720              	.LASF23:
 4721 0231 75696E74 		.ascii	"uint8\000"
 4721      3800
 4722              	.LASF15:
 4723 0237 75696E74 		.ascii	"uint16_t\000"
 4723      31365F74 
 4723      00
 4724              	.LASF21:
 4725 0240 646F7562 		.ascii	"double\000"
 4725      6C6500
 4726              	.LASF47:
 4727 0247 43617053 		.ascii	"CapSense_SENSE_METHOD_ENUM\000"
 4727      656E7365 
 4727      5F53454E 
 4727      53455F4D 
 4727      4554484F 
 4728              	.LASF78:
 4729 0262 78526573 		.ascii	"xResolution\000"
 4729      6F6C7574 
 4729      696F6E00 
 4730              	.LASF139:
 4731 026e 73686966 		.ascii	"shift\000"
 4731      7400
 4732              	.LASF97:
 4733 0274 73656E73 		.ascii	"sensorId\000"
 4733      6F724964 
 4733      00
 4734              	.LASF25:
 4735 027d 75696E74 		.ascii	"uint32\000"
 4735      333200
 4736              	.LASF52:
 4737 0284 68797374 		.ascii	"hysteresis\000"
 4737      65726573 
 4737      697300
 4738              	.LASF11:
 4739 028f 5F5F7569 		.ascii	"__uint32_t\000"
 4739      6E743332 
 4739      5F7400
 4740              	.LASF62:
 4741 029a 62736C6E 		.ascii	"bslnExt\000"
 4741      45787400 
 4742              	.LASF46:
 4743 02a2 43617053 		.ascii	"CapSense_SENSE_METHOD_BIST_E\000"
 4743      656E7365 
 4743      5F53454E 
 4743      53455F4D 
 4743      4554484F 
 4744              	.LASF77:
 4745 02bf 6E756D52 		.ascii	"numRows\000"
 4745      6F777300 
 4746              	.LASF98:
 4747 02c7 73656E73 		.ascii	"sensorsNumber\000"
 4747      6F72734E 
 4747      756D6265 
 4747      7200
 4748              	.LASF39:
ARM GAS  C:\Users\ikomb\AppData\Local\Temp\cclK6Blf.s 			page 117


 4749 02d5 43617053 		.ascii	"CapSense_WD_MATRIX_BUTTON_E\000"
 4749      656E7365 
 4749      5F57445F 
 4749      4D415452 
 4749      49585F42 
 4750              	.LASF126:
 4751 02f1 74656D70 		.ascii	"temp\000"
 4751      00
 4752              	.LASF61:
 4753 02f6 62736C6E 		.ascii	"bsln\000"
 4753      00
 4754              	.LASF0:
 4755 02fb 756E7369 		.ascii	"unsigned int\000"
 4755      676E6564 
 4755      20696E74 
 4755      00
 4756              	.LASF80:
 4757 0308 70747232 		.ascii	"ptr2NoiseEnvlp\000"
 4757      4E6F6973 
 4757      65456E76 
 4757      6C7000
 4758              	.LASF12:
 4759 0317 6C6F6E67 		.ascii	"long unsigned int\000"
 4759      20756E73 
 4759      69676E65 
 4759      6420696E 
 4759      7400
 4760              	.LASF86:
 4761 0329 6D656448 		.ascii	"medHistory\000"
 4761      6973746F 
 4761      727900
 4762              	.LASF125:
 4763 0334 43617053 		.ascii	"CapSense_RunMedianInternal\000"
 4763      656E7365 
 4763      5F52756E 
 4763      4D656469 
 4763      616E496E 
 4764              	.LASF75:
 4765 034f 73656E73 		.ascii	"senseMethod\000"
 4765      654D6574 
 4765      686F6400 
 4766              	.LASF54:
 4767 035b 6C6F7742 		.ascii	"lowBslnRst\000"
 4767      736C6E52 
 4767      737400
 4768              	.LASF131:
 4769 0366 43617053 		.ascii	"CapSense_FtRunEnabledFilters\000"
 4769      656E7365 
 4769      5F467452 
 4769      756E456E 
 4769      61626C65 
 4770              	.LASF8:
 4771 0383 73686F72 		.ascii	"short unsigned int\000"
 4771      7420756E 
 4771      7369676E 
 4771      65642069 
 4771      6E7400
ARM GAS  C:\Users\ikomb\AppData\Local\Temp\cclK6Blf.s 			page 118


 4772              	.LASF104:
 4773 0396 43617053 		.ascii	"CapSense_FtUpdateBaseline\000"
 4773      656E7365 
 4773      5F467455 
 4773      70646174 
 4773      65426173 
 4774              	.LASF128:
 4775 03b0 43617053 		.ascii	"CapSense_RunAverage\000"
 4775      656E7365 
 4775      5F52756E 
 4775      41766572 
 4775      61676500 
 4776              	.LASF115:
 4777 03c4 43617053 		.ascii	"CapSense_FtInitializeBaselineChannel\000"
 4777      656E7365 
 4777      5F467449 
 4777      6E697469 
 4777      616C697A 
 4778              	.LASF43:
 4779 03e9 43617053 		.ascii	"CapSense_UNDEFINED_E\000"
 4779      656E7365 
 4779      5F554E44 
 4779      4546494E 
 4779      45445F45 
 4780              	.LASF100:
 4781 03fe 43617053 		.ascii	"CapSense_UpdateSensorBaseline\000"
 4781      656E7365 
 4781      5F557064 
 4781      61746553 
 4781      656E736F 
 4782              	.LASF68:
 4783 041c 70747232 		.ascii	"ptr2WdgtRam\000"
 4783      57646774 
 4783      52616D00 
 4784              	.LASF5:
 4785 0428 73686F72 		.ascii	"short int\000"
 4785      7420696E 
 4785      7400
 4786              	.LASF105:
 4787 0432 77645479 		.ascii	"wdType\000"
 4787      706500
 4788              	.LASF9:
 4789 0439 5F5F696E 		.ascii	"__int32_t\000"
 4789      7433325F 
 4789      7400
 4790              	.LASF94:
 4791 0443 62736C6E 		.ascii	"bslnStatus\000"
 4791      53746174 
 4791      757300
 4792              	.LASF93:
 4793 044e 77696467 		.ascii	"widgetId\000"
 4793      65744964 
 4793      00
 4794              	.LASF138:
 4795 0457 70726576 		.ascii	"prevOutput\000"
 4795      4F757470 
 4795      757400
ARM GAS  C:\Users\ikomb\AppData\Local\Temp\cclK6Blf.s 			page 119


 4796              	.LASF107:
 4797 0462 64696666 		.ascii	"difference\000"
 4797      6572656E 
 4797      636500
 4798              	.LASF55:
 4799 046d 69646163 		.ascii	"idacMod\000"
 4799      4D6F6400 
 4800              	.LASF135:
 4801 0475 43617053 		.ascii	"CapSense_FtMedian\000"
 4801      656E7365 
 4801      5F46744D 
 4801      65646961 
 4801      6E00
 4802              	.LASF76:
 4803 0487 6E756D43 		.ascii	"numCols\000"
 4803      6F6C7300 
 4804              	.LASF133:
 4805 048f 43617053 		.ascii	"CapSense_RunNoiseEnvelope\000"
 4805      656E7365 
 4805      5F52756E 
 4805      4E6F6973 
 4805      65456E76 
 4806              	.LASF99:
 4807 04a9 70747257 		.ascii	"ptrWidget\000"
 4807      69646765 
 4807      7400
 4808              	.LASF88:
 4809 04b3 43617053 		.ascii	"CapSense_REGULAR_FLTR_CHANNEL_STRUCT\000"
 4809      656E7365 
 4809      5F524547 
 4809      554C4152 
 4809      5F464C54 
 4810              	.LASF113:
 4811 04d8 43617053 		.ascii	"CapSense_InitializeSensorBaseline\000"
 4811      656E7365 
 4811      5F496E69 
 4811      7469616C 
 4811      697A6553 
 4812              	.LASF145:
 4813 04fa 433A5C55 		.ascii	"C:\\Users\\ikomb\\Documents\\PSoC Creator\\CE222221"
 4813      73657273 
 4813      5C696B6F 
 4813      6D625C44 
 4813      6F63756D 
 4814 0528 5F566F69 		.ascii	"_Voice_Recorder01\\CE222221_Voice_Recorder01.cydsn\000"
 4814      63655F52 
 4814      65636F72 
 4814      64657230 
 4814      315C4345 
 4815              	.LASF51:
 4816 055a 6E4E6F69 		.ascii	"nNoiseTh\000"
 4816      73655468 
 4816      00
 4817              	.LASF59:
 4818 0563 73696750 		.ascii	"sigPFC\000"
 4818      464300
 4819              	.LASF74:
ARM GAS  C:\Users\ikomb\AppData\Local\Temp\cclK6Blf.s 			page 120


 4820 056a 77646774 		.ascii	"wdgtType\000"
 4820      54797065 
 4820      00
 4821              	.LASF79:
 4822 0573 7843656E 		.ascii	"xCentroidMultiplier\000"
 4822      74726F69 
 4822      644D756C 
 4822      7469706C 
 4822      69657200 
 4823              	.LASF44:
 4824 0587 43617053 		.ascii	"CapSense_SENSE_METHOD_CSD_E\000"
 4824      656E7365 
 4824      5F53454E 
 4824      53455F4D 
 4824      4554484F 
 4825              	.LASF87:
 4826 05a3 61766748 		.ascii	"avgHistory\000"
 4826      6973746F 
 4826      727900
 4827              	.LASF146:
 4828 05ae 43617053 		.ascii	"CapSense_FtInitialize\000"
 4828      656E7365 
 4828      5F467449 
 4828      6E697469 
 4828      616C697A 
 4829              	.LASF122:
 4830 05c4 43617053 		.ascii	"CapSense_RunMedian\000"
 4830      656E7365 
 4830      5F52756E 
 4830      4D656469 
 4830      616E00
 4831              	.LASF20:
 4832 05d7 666C6F61 		.ascii	"float\000"
 4832      7400
 4833              	.LASF38:
 4834 05dd 43617053 		.ascii	"CapSense_WD_RADIAL_SLIDER_E\000"
 4834      656E7365 
 4834      5F57445F 
 4834      52414449 
 4834      414C5F53 
 4835              	.LASF35:
 4836 05f9 534D4152 		.ascii	"SMARTSENSE_CSD_NOISE_ENVELOPE_STRUCT\000"
 4836      5453454E 
 4836      53455F43 
 4836      53445F4E 
 4836      4F495345 
 4837              	.LASF110:
 4838 061e 68697374 		.ascii	"history\000"
 4838      6F727900 
 4839              	.LASF124:
 4840 0626 70747253 		.ascii	"ptrSensorObj\000"
 4840      656E736F 
 4840      724F626A 
 4840      00
 4841              	.LASF89:
 4842 0633 72656775 		.ascii	"regularChannel\000"
 4842      6C617243 
ARM GAS  C:\Users\ikomb\AppData\Local\Temp\cclK6Blf.s 			page 121


 4842      68616E6E 
 4842      656C00
 4843              	.LASF36:
 4844 0642 43617053 		.ascii	"CapSense_WD_BUTTON_E\000"
 4844      656E7365 
 4844      5F57445F 
 4844      42555454 
 4844      4F4E5F45 
 4845              	.LASF16:
 4846 0657 696E7433 		.ascii	"int32_t\000"
 4846      325F7400 
 4847              	.LASF28:
 4848 065f 70617261 		.ascii	"param0\000"
 4848      6D3000
 4849              	.LASF29:
 4850 0666 70617261 		.ascii	"param1\000"
 4850      6D3100
 4851              	.LASF30:
 4852 066d 70617261 		.ascii	"param2\000"
 4852      6D3200
 4853              	.LASF31:
 4854 0674 70617261 		.ascii	"param3\000"
 4854      6D3300
 4855              	.LASF32:
 4856 067b 70617261 		.ascii	"param4\000"
 4856      6D3400
 4857              	.LASF33:
 4858 0682 70617261 		.ascii	"param5\000"
 4858      6D3500
 4859              	.LASF34:
 4860 0689 70617261 		.ascii	"param6\000"
 4860      6D3600
 4861              	.LASF83:
 4862 0690 43617053 		.ascii	"CapSense_FLASH_WD_STRUCT\000"
 4862      656E7365 
 4862      5F464C41 
 4862      53485F57 
 4862      445F5354 
 4863              	.LASF70:
 4864 06a9 70747232 		.ascii	"ptr2FltrHistory\000"
 4864      466C7472 
 4864      48697374 
 4864      6F727900 
 4865              	.LASF117:
 4866 06b9 43617053 		.ascii	"CapSense_InitializeAllFilters\000"
 4866      656E7365 
 4866      5F496E69 
 4866      7469616C 
 4866      697A6541 
 4867              	.LASF95:
 4868 06d7 43617053 		.ascii	"CapSense_UpdateAllBaselines\000"
 4868      656E7365 
 4868      5F557064 
 4868      61746541 
 4868      6C6C4261 
 4869              	.LASF132:
 4870 06f3 43617053 		.ascii	"CapSense_FtRunEnabledFiltersInternal\000"
ARM GAS  C:\Users\ikomb\AppData\Local\Temp\cclK6Blf.s 			page 122


 4870      656E7365 
 4870      5F467452 
 4870      756E456E 
 4870      61626C65 
 4871              	.LASF40:
 4872 0718 43617053 		.ascii	"CapSense_WD_TOUCHPAD_E\000"
 4872      656E7365 
 4872      5F57445F 
 4872      544F5543 
 4872      48504144 
 4873              	.LASF144:
 4874 072f 47656E65 		.ascii	"Generated_Source\\PSoC6\\CapSense_Filter.c\000"
 4874      72617465 
 4874      645F536F 
 4874      75726365 
 4874      5C50536F 
 4875              	.LASF108:
 4876 0758 66726571 		.ascii	"freqChannel\000"
 4876      4368616E 
 4876      6E656C00 
 4877              	.LASF116:
 4878 0764 6368616E 		.ascii	"channel\000"
 4878      6E656C00 
 4879              	.LASF92:
 4880 076c 43617053 		.ascii	"CapSense_PTR_FILTER_VARIANT\000"
 4880      656E7365 
 4880      5F505452 
 4880      5F46494C 
 4880      5445525F 
 4881              	.LASF17:
 4882 0788 75696E74 		.ascii	"uint32_t\000"
 4882      33325F74 
 4882      00
 4883              	.LASF2:
 4884 0791 6C6F6E67 		.ascii	"long double\000"
 4884      20646F75 
 4884      626C6500 
 4885              	.LASF19:
 4886 079d 63686172 		.ascii	"char\000"
 4886      00
 4887              	.LASF7:
 4888 07a2 5F5F7569 		.ascii	"__uint16_t\000"
 4888      6E743136 
 4888      5F7400
 4889              	.LASF56:
 4890 07ad 736E7343 		.ascii	"snsClk\000"
 4890      6C6B00
 4891              	.LASF60:
 4892 07b4 43617053 		.ascii	"CapSense_RAM_WD_BASE_STRUCT\000"
 4892      656E7365 
 4892      5F52414D 
 4892      5F57445F 
 4892      42415345 
 4893              	.LASF53:
 4894 07d0 6F6E4465 		.ascii	"onDebounce\000"
 4894      626F756E 
 4894      636500
ARM GAS  C:\Users\ikomb\AppData\Local\Temp\cclK6Blf.s 			page 123


 4895              	.LASF42:
 4896 07db 43617053 		.ascii	"CapSense_WD_TYPE_ENUM\000"
 4896      656E7365 
 4896      5F57445F 
 4896      54595045 
 4896      5F454E55 
 4897              	.LASF112:
 4898 07f1 43617053 		.ascii	"CapSense_InitializeWidgetBaseline\000"
 4898      656E7365 
 4898      5F496E69 
 4898      7469616C 
 4898      697A6557 
 4899              	.LASF65:
 4900 0813 69646163 		.ascii	"idacComp\000"
 4900      436F6D70 
 4900      00
 4901              	.LASF118:
 4902 081c 43617053 		.ascii	"CapSense_InitializeWidgetFilter\000"
 4902      656E7365 
 4902      5F496E69 
 4902      7469616C 
 4902      697A6557 
 4903              	.LASF4:
 4904 083c 756E7369 		.ascii	"unsigned char\000"
 4904      676E6564 
 4904      20636861 
 4904      7200
 4905              	.LASF64:
 4906 084a 6E656742 		.ascii	"negBslnRstCnt\000"
 4906      736C6E52 
 4906      7374436E 
 4906      7400
 4907              	.LASF111:
 4908 0858 43617053 		.ascii	"CapSense_InitializeAllBaselines\000"
 4908      656E7365 
 4908      5F496E69 
 4908      7469616C 
 4908      697A6541 
 4909              	.LASF71:
 4910 0878 70747232 		.ascii	"ptr2DebounceArr\000"
 4910      4465626F 
 4910      756E6365 
 4910      41727200 
 4911              	.LASF127:
 4912 0888 43617053 		.ascii	"CapSense_InitializeAverage\000"
 4912      656E7365 
 4912      5F496E69 
 4912      7469616C 
 4912      697A6541 
 4913              	.LASF48:
 4914 08a3 7265736F 		.ascii	"resolution\000"
 4914      6C757469 
 4914      6F6E00
 4915              	.LASF72:
 4916 08ae 73746174 		.ascii	"staticConfig\000"
 4916      6963436F 
 4916      6E666967 
ARM GAS  C:\Users\ikomb\AppData\Local\Temp\cclK6Blf.s 			page 124


 4916      00
 4917              	.LASF73:
 4918 08bb 746F7461 		.ascii	"totalNumSns\000"
 4918      6C4E756D 
 4918      536E7300 
 4919              	.LASF84:
 4920 08c7 77646774 		.ascii	"wdgtArray\000"
 4920      41727261 
 4920      7900
 4921              	.LASF136:
 4922 08d1 43617053 		.ascii	"CapSense_FtIIR1stOrder\000"
 4922      656E7365 
 4922      5F467449 
 4922      49523173 
 4922      744F7264 
 4923              	.LASF14:
 4924 08e8 75696E74 		.ascii	"uint8_t\000"
 4924      385F7400 
 4925              	.LASF106:
 4926 08f0 7369676E 		.ascii	"sign\000"
 4926      00
 4927              	.LASF18:
 4928 08f5 73697A65 		.ascii	"sizetype\000"
 4928      74797065 
 4928      00
 4929              	.LASF57:
 4930 08fe 736E7343 		.ascii	"snsClkSource\000"
 4930      6C6B536F 
 4930      75726365 
 4930      00
 4931              	.LASF119:
 4932 090b 70747246 		.ascii	"ptrFilterHistObj\000"
 4932      696C7465 
 4932      72486973 
 4932      744F626A 
 4932      00
 4933              	.LASF129:
 4934 091c 43617053 		.ascii	"CapSense_InitializeAverageInternal\000"
 4934      656E7365 
 4934      5F496E69 
 4934      7469616C 
 4934      697A6541 
 4935              	.LASF102:
 4936 093f 70747253 		.ascii	"ptrSensor\000"
 4936      656E736F 
 4936      7200
 4937              	.LASF120:
 4938 0949 7074724E 		.ascii	"ptrNoiseEnvelope\000"
 4938      6F697365 
 4938      456E7665 
 4938      6C6F7065 
 4938      00
 4939              	.LASF143:
 4940 095a 474E5520 		.ascii	"GNU C11 5.4.1 20160609 (release) [ARM/embedded-5-br"
 4940      43313120 
 4940      352E342E 
 4940      31203230 
ARM GAS  C:\Users\ikomb\AppData\Local\Temp\cclK6Blf.s 			page 125


 4940      31363036 
 4941 098d 616E6368 		.ascii	"anch revision 237715] -mcpu=cortex-m4 -mfloat-abi=s"
 4941      20726576 
 4941      6973696F 
 4941      6E203233 
 4941      37373135 
 4942 09c0 6F667466 		.ascii	"oftfp -mfpu=fpv4-sp-d16 -mthumb -g -O0 -ffunction-s"
 4942      70202D6D 
 4942      6670753D 
 4942      66707634 
 4942      2D73702D 
 4943 09f3 65637469 		.ascii	"ections -ffat-lto-objects\000"
 4943      6F6E7320 
 4943      2D666661 
 4943      742D6C74 
 4943      6F2D6F62 
 4944              	.LASF49:
 4945 0a0d 66696E67 		.ascii	"fingerTh\000"
 4945      65725468 
 4945      00
 4946              	.LASF41:
 4947 0a16 43617053 		.ascii	"CapSense_WD_PROXIMITY_E\000"
 4947      656E7365 
 4947      5F57445F 
 4947      50524F58 
 4947      494D4954 
 4948              	.LASF91:
 4949 0a2e 70747252 		.ascii	"ptrRegular\000"
 4949      6567756C 
 4949      617200
 4950              	.LASF101:
 4951 0a39 72657375 		.ascii	"result\000"
 4951      6C7400
 4952              	.LASF123:
 4953 0a40 43617053 		.ascii	"CapSense_InitializeMedianInternal\000"
 4953      656E7365 
 4953      5F496E69 
 4953      7469616C 
 4953      697A654D 
 4954              	.LASF50:
 4955 0a62 6E6F6973 		.ascii	"noiseTh\000"
 4955      65546800 
 4956              		.ident	"GCC: (GNU Tools for ARM Embedded Processors) 5.4.1 20160609 (release) [ARM/embedded-5-bran
