ARM GAS  C:\Users\ikomb\AppData\Local\Temp\ccYuI7tI.s 			page 1


   1              		.syntax unified
   2              		.cpu cortex-m4
   3              		.eabi_attribute 27, 1
   4              		.fpu fpv4-sp-d16
   5              		.eabi_attribute 20, 1
   6              		.eabi_attribute 21, 1
   7              		.eabi_attribute 23, 3
   8              		.eabi_attribute 24, 1
   9              		.eabi_attribute 25, 1
  10              		.eabi_attribute 26, 1
  11              		.eabi_attribute 30, 6
  12              		.eabi_attribute 34, 1
  13              		.eabi_attribute 18, 4
  14              		.thumb
  15              		.syntax unified
  16              		.file	"CapSense_Processing.c"
  17              		.text
  18              	.Ltext0:
  19              		.cfi_sections	.debug_frame
  20              		.section	.text.CapSense_DpInitSlider,"ax",%progbits
  21              		.align	2
  22              		.thumb
  23              		.thumb_func
  24              		.type	CapSense_DpInitSlider, %function
  25              	CapSense_DpInitSlider:
  26              	.LFB125:
  27              		.file 1 "Generated_Source\\PSoC6\\CapSense_Processing.c"
   1:Generated_Source\PSoC6/CapSense_Processing.c **** /***************************************************************************//**
   2:Generated_Source\PSoC6/CapSense_Processing.c **** * \file CapSense_Processing.c
   3:Generated_Source\PSoC6/CapSense_Processing.c **** * \version 2.0
   4:Generated_Source\PSoC6/CapSense_Processing.c **** *
   5:Generated_Source\PSoC6/CapSense_Processing.c **** * \brief
   6:Generated_Source\PSoC6/CapSense_Processing.c **** *   This file provides the source code for the Data Processing module APIs
   7:Generated_Source\PSoC6/CapSense_Processing.c **** *   of the Component. The Data Processing module is responsible for the
   8:Generated_Source\PSoC6/CapSense_Processing.c **** *   low level raw counts processing provided by the sensing module, maintaining
   9:Generated_Source\PSoC6/CapSense_Processing.c **** *   baseline and difference values and performing high-level widget processing
  10:Generated_Source\PSoC6/CapSense_Processing.c **** *   like updating button status or calculating slider position.
  11:Generated_Source\PSoC6/CapSense_Processing.c **** *
  12:Generated_Source\PSoC6/CapSense_Processing.c **** * \see CapSense v2.0 Datasheet
  13:Generated_Source\PSoC6/CapSense_Processing.c **** *
  14:Generated_Source\PSoC6/CapSense_Processing.c **** *//*****************************************************************************
  15:Generated_Source\PSoC6/CapSense_Processing.c **** * Copyright (2016-2017), Cypress Semiconductor Corporation.
  16:Generated_Source\PSoC6/CapSense_Processing.c **** ********************************************************************************
  17:Generated_Source\PSoC6/CapSense_Processing.c **** * This software is owned by Cypress Semiconductor Corporation (Cypress) and is
  18:Generated_Source\PSoC6/CapSense_Processing.c **** * protected by and subject to worldwide patent protection (United States and
  19:Generated_Source\PSoC6/CapSense_Processing.c **** * foreign), United States copyright laws and international treaty provisions.
  20:Generated_Source\PSoC6/CapSense_Processing.c **** * Cypress hereby grants to licensee a personal, non-exclusive, non-transferable
  21:Generated_Source\PSoC6/CapSense_Processing.c **** * license to copy, use, modify, create derivative works of, and compile the
  22:Generated_Source\PSoC6/CapSense_Processing.c **** * Cypress Source Code and derivative works for the sole purpose of creating
  23:Generated_Source\PSoC6/CapSense_Processing.c **** * custom software in support of licensee product to be used only in conjunction
  24:Generated_Source\PSoC6/CapSense_Processing.c **** * with a Cypress integrated circuit as specified in the applicable agreement.
  25:Generated_Source\PSoC6/CapSense_Processing.c **** * Any reproduction, modification, translation, compilation, or representation of
  26:Generated_Source\PSoC6/CapSense_Processing.c **** * this software except as specified above is prohibited without the express
  27:Generated_Source\PSoC6/CapSense_Processing.c **** * written permission of Cypress.
  28:Generated_Source\PSoC6/CapSense_Processing.c **** *
  29:Generated_Source\PSoC6/CapSense_Processing.c **** * Disclaimer: CYPRESS MAKES NO WARRANTY OF ANY KIND, EXPRESS OR IMPLIED, WITH
  30:Generated_Source\PSoC6/CapSense_Processing.c **** * REGARD TO THIS MATERIAL, INCLUDING, BUT NOT LIMITED TO, THE IMPLIED
ARM GAS  C:\Users\ikomb\AppData\Local\Temp\ccYuI7tI.s 			page 2


  31:Generated_Source\PSoC6/CapSense_Processing.c **** * WARRANTIES OF MERCHANTABILITY AND FITNESS FOR A PARTICULAR PURPOSE.
  32:Generated_Source\PSoC6/CapSense_Processing.c **** * Cypress reserves the right to make changes without further notice to the
  33:Generated_Source\PSoC6/CapSense_Processing.c **** * materials described herein. Cypress does not assume any liability arising out
  34:Generated_Source\PSoC6/CapSense_Processing.c **** * of the application or use of any product or circuit described herein. Cypress
  35:Generated_Source\PSoC6/CapSense_Processing.c **** * does not authorize its products for use as critical components in life-support
  36:Generated_Source\PSoC6/CapSense_Processing.c **** * systems where a malfunction or failure may reasonably be expected to result in
  37:Generated_Source\PSoC6/CapSense_Processing.c **** * significant injury to the user. The inclusion of Cypress' product in a life-
  38:Generated_Source\PSoC6/CapSense_Processing.c **** * support systems application implies that the manufacturer assumes all risk of
  39:Generated_Source\PSoC6/CapSense_Processing.c **** * such use and in doing so indemnifies Cypress against all charges. Use may be
  40:Generated_Source\PSoC6/CapSense_Processing.c **** * limited by and subject to the applicable Cypress software license agreement.
  41:Generated_Source\PSoC6/CapSense_Processing.c **** *******************************************************************************/
  42:Generated_Source\PSoC6/CapSense_Processing.c **** 
  43:Generated_Source\PSoC6/CapSense_Processing.c **** #include "syslib/cy_syslib.h"
  44:Generated_Source\PSoC6/CapSense_Processing.c **** #include <stddef.h>
  45:Generated_Source\PSoC6/CapSense_Processing.c **** #include <string.h>
  46:Generated_Source\PSoC6/CapSense_Processing.c **** #include "CapSense_Configuration.h"
  47:Generated_Source\PSoC6/CapSense_Processing.c **** #include "CapSense_Processing.h"
  48:Generated_Source\PSoC6/CapSense_Processing.c **** #include "CapSense_Filter.h"
  49:Generated_Source\PSoC6/CapSense_Processing.c **** 
  50:Generated_Source\PSoC6/CapSense_Processing.c **** #if (0u != CapSense_CENTROID_EN)
  51:Generated_Source\PSoC6/CapSense_Processing.c ****     #include "CapSense_Centroid_LL.h"
  52:Generated_Source\PSoC6/CapSense_Processing.c **** #endif /* (0 != CapSense_CENTROID_EN) */
  53:Generated_Source\PSoC6/CapSense_Processing.c **** 
  54:Generated_Source\PSoC6/CapSense_Processing.c **** #if (0 != (CapSense_CSD_AUTOTUNE & CapSense_CSD_SS_TH_EN))
  55:Generated_Source\PSoC6/CapSense_Processing.c ****     #include "CapSense_SmartSense_LL.h"
  56:Generated_Source\PSoC6/CapSense_Processing.c **** #endif /* (0 != (CapSense_CSD_AUTOTUNE & CapSense_CSD_SS_TH_EN)) */
  57:Generated_Source\PSoC6/CapSense_Processing.c **** 
  58:Generated_Source\PSoC6/CapSense_Processing.c **** #if (CapSense_ENABLE == CapSense_SELF_TEST_EN)
  59:Generated_Source\PSoC6/CapSense_Processing.c ****     #include "CapSense_SelfTest.h"
  60:Generated_Source\PSoC6/CapSense_Processing.c **** #endif
  61:Generated_Source\PSoC6/CapSense_Processing.c **** 
  62:Generated_Source\PSoC6/CapSense_Processing.c **** #if (CapSense_ENABLE == CapSense_CENTROID_5X5_CSD_EN)
  63:Generated_Source\PSoC6/CapSense_Processing.c ****     #include "CapSense_AdvancedCentroid_LL.h"
  64:Generated_Source\PSoC6/CapSense_Processing.c **** #endif
  65:Generated_Source\PSoC6/CapSense_Processing.c **** 
  66:Generated_Source\PSoC6/CapSense_Processing.c **** #if (CapSense_ENABLE == CapSense_POS_ADAPTIVE_IIR_FILTER_EN)
  67:Generated_Source\PSoC6/CapSense_Processing.c ****     #include "CapSense_AdaptiveFilter_LL.h"
  68:Generated_Source\PSoC6/CapSense_Processing.c **** #endif
  69:Generated_Source\PSoC6/CapSense_Processing.c **** 
  70:Generated_Source\PSoC6/CapSense_Processing.c **** #if(CapSense_ENABLE == CapSense_BALLISTIC_MULTIPLIER_EN)
  71:Generated_Source\PSoC6/CapSense_Processing.c ****     #include "CapSense_Gesture.h"
  72:Generated_Source\PSoC6/CapSense_Processing.c **** #endif
  73:Generated_Source\PSoC6/CapSense_Processing.c **** 
  74:Generated_Source\PSoC6/CapSense_Processing.c **** /**************************************************************************************************
  75:Generated_Source\PSoC6/CapSense_Processing.c **** * Local definition
  76:Generated_Source\PSoC6/CapSense_Processing.c **** ***************************************************************************************************
  77:Generated_Source\PSoC6/CapSense_Processing.c **** 
  78:Generated_Source\PSoC6/CapSense_Processing.c **** /* UINT32 constant with all odd bits set. It is used by the processing function of the Proximity wi
  79:Generated_Source\PSoC6/CapSense_Processing.c **** *  determine type of the status bit: odd bits report proximity status; even bits report touch statu
  80:Generated_Source\PSoC6/CapSense_Processing.c **** */
  81:Generated_Source\PSoC6/CapSense_Processing.c **** #define UINT32_ODD_BITS_CONST       (0x55555555u)
  82:Generated_Source\PSoC6/CapSense_Processing.c **** 
  83:Generated_Source\PSoC6/CapSense_Processing.c **** /* Default value for the Off Debounce counter when the Off Debounce is disabled */
  84:Generated_Source\PSoC6/CapSense_Processing.c **** #define DEFAULT_OFF_DEBOUNCE_VALUE  (1u)
  85:Generated_Source\PSoC6/CapSense_Processing.c **** #define PERCENTAGE_100              (100u)
  86:Generated_Source\PSoC6/CapSense_Processing.c **** #define TEMP_BUFFER_MSB_SHIFT       (16)
  87:Generated_Source\PSoC6/CapSense_Processing.c **** 
ARM GAS  C:\Users\ikomb\AppData\Local\Temp\ccYuI7tI.s 			page 3


  88:Generated_Source\PSoC6/CapSense_Processing.c **** /**************************************************************************************************
  89:Generated_Source\PSoC6/CapSense_Processing.c **** * Local variables
  90:Generated_Source\PSoC6/CapSense_Processing.c **** ***************************************************************************************************
  91:Generated_Source\PSoC6/CapSense_Processing.c **** #if (0u != CapSense_CSX_MULTIPHASE_TX_EN)
  92:Generated_Source\PSoC6/CapSense_Processing.c ****     static uint16 deconvRowData[CapSense_CSX_MAX_TX_PHASE_LENGTH];
  93:Generated_Source\PSoC6/CapSense_Processing.c **** #endif
  94:Generated_Source\PSoC6/CapSense_Processing.c **** 
  95:Generated_Source\PSoC6/CapSense_Processing.c **** 
  96:Generated_Source\PSoC6/CapSense_Processing.c **** /**************************************************************************************************
  97:Generated_Source\PSoC6/CapSense_Processing.c **** * Static Function Prototypes
  98:Generated_Source\PSoC6/CapSense_Processing.c **** ***************************************************************************************************
  99:Generated_Source\PSoC6/CapSense_Processing.c **** /**
 100:Generated_Source\PSoC6/CapSense_Processing.c **** * \cond SECTION_CYSENSE_INTERNAL
 101:Generated_Source\PSoC6/CapSense_Processing.c **** * \addtogroup group_cysense_internal
 102:Generated_Source\PSoC6/CapSense_Processing.c **** * \{
 103:Generated_Source\PSoC6/CapSense_Processing.c **** */
 104:Generated_Source\PSoC6/CapSense_Processing.c **** #if (0u != CapSense_TOTAL_LINEAR_SLIDERS)
 105:Generated_Source\PSoC6/CapSense_Processing.c ****     __STATIC_INLINE void DpUpdateLinSlider(
 106:Generated_Source\PSoC6/CapSense_Processing.c ****                         const uint16 newPos[], uint32 numTouches,
 107:Generated_Source\PSoC6/CapSense_Processing.c ****                         CapSense_FLASH_WD_STRUCT const *ptrFlashWdgt,
 108:Generated_Source\PSoC6/CapSense_Processing.c ****                         CapSense_RAM_WD_SLIDER_STRUCT *ptrRamWdgt);
 109:Generated_Source\PSoC6/CapSense_Processing.c **** #endif /* #if (0u != CapSense_TOTAL_LINEAR_SLIDERS) */
 110:Generated_Source\PSoC6/CapSense_Processing.c **** 
 111:Generated_Source\PSoC6/CapSense_Processing.c **** #if (0u != CapSense_TOTAL_RADIAL_SLIDERS)
 112:Generated_Source\PSoC6/CapSense_Processing.c ****     __STATIC_INLINE void DpUpdateRadSlider(
 113:Generated_Source\PSoC6/CapSense_Processing.c ****                         const uint16 newPos[], uint32 numTouches,
 114:Generated_Source\PSoC6/CapSense_Processing.c ****                         CapSense_FLASH_WD_STRUCT const * ptrFlashWdgt,
 115:Generated_Source\PSoC6/CapSense_Processing.c ****                         CapSense_RAM_WD_SLIDER_STRUCT *ptrRamWdgt);
 116:Generated_Source\PSoC6/CapSense_Processing.c **** #endif /* #if (0u != CapSense_TOTAL_RADIAL_SLIDERS) */
 117:Generated_Source\PSoC6/CapSense_Processing.c **** 
 118:Generated_Source\PSoC6/CapSense_Processing.c **** #if (0u != CapSense_CSD_TOUCHPAD_WIDGET_EN)
 119:Generated_Source\PSoC6/CapSense_Processing.c ****     __STATIC_INLINE void CapSense_DpInitCsdTouchpad(CapSense_FLASH_WD_STRUCT const * ptrFlashWdgt);
 120:Generated_Source\PSoC6/CapSense_Processing.c **** #endif /* #if (0u != CapSense_CSD_TOUCHPAD_WIDGET_EN) */
 121:Generated_Source\PSoC6/CapSense_Processing.c **** 
 122:Generated_Source\PSoC6/CapSense_Processing.c **** #if (0u != CapSense_CSX_TOUCHPAD_WIDGET_EN)
 123:Generated_Source\PSoC6/CapSense_Processing.c ****     __STATIC_INLINE void CapSense_DpInitCsxTouchpad(CapSense_FLASH_WD_STRUCT const * ptrFlashWdgt);
 124:Generated_Source\PSoC6/CapSense_Processing.c **** #endif /* #if (0u != CapSense_CSX_TOUCHPAD_WIDGET_EN) */
 125:Generated_Source\PSoC6/CapSense_Processing.c **** 
 126:Generated_Source\PSoC6/CapSense_Processing.c **** #if (0u != CapSense_SLIDER_WIDGET_EN)
 127:Generated_Source\PSoC6/CapSense_Processing.c ****     __STATIC_INLINE void CapSense_DpInitSlider(CapSense_FLASH_WD_STRUCT const * ptrFlashWdgt);
 128:Generated_Source\PSoC6/CapSense_Processing.c **** #endif /* #if (0u != CapSense_SLIDER_WIDGET_EN) */
 129:Generated_Source\PSoC6/CapSense_Processing.c **** 
 130:Generated_Source\PSoC6/CapSense_Processing.c **** #if (0u != CapSense_CSD_MATRIX_WIDGET_EN)
 131:Generated_Source\PSoC6/CapSense_Processing.c ****     __STATIC_INLINE void CapSense_DpInitCsdMatrix(CapSense_FLASH_WD_STRUCT const * ptrFlashWdgt);
 132:Generated_Source\PSoC6/CapSense_Processing.c **** #endif /* #if (0u != CapSense_CSD_MATRIX_WIDGET_EN) */
 133:Generated_Source\PSoC6/CapSense_Processing.c **** 
 134:Generated_Source\PSoC6/CapSense_Processing.c **** /** \}
 135:Generated_Source\PSoC6/CapSense_Processing.c **** * \endcond */
 136:Generated_Source\PSoC6/CapSense_Processing.c **** 
 137:Generated_Source\PSoC6/CapSense_Processing.c **** #if (0u != CapSense_CSD_TOUCHPAD_WIDGET_EN)
 138:Generated_Source\PSoC6/CapSense_Processing.c **** /*******************************************************************************
 139:Generated_Source\PSoC6/CapSense_Processing.c **** * Function Name: CapSense_DpInitCsdTouchpad
 140:Generated_Source\PSoC6/CapSense_Processing.c **** ****************************************************************************//**
 141:Generated_Source\PSoC6/CapSense_Processing.c **** *
 142:Generated_Source\PSoC6/CapSense_Processing.c **** * \brief
 143:Generated_Source\PSoC6/CapSense_Processing.c **** *  Performs initialization of the CSD touchpad widget.
 144:Generated_Source\PSoC6/CapSense_Processing.c **** *   - Resets the position data to NONE
ARM GAS  C:\Users\ikomb\AppData\Local\Temp\ccYuI7tI.s 			page 4


 145:Generated_Source\PSoC6/CapSense_Processing.c **** *   - Initializes the position filter history if enabled.
 146:Generated_Source\PSoC6/CapSense_Processing.c **** *
 147:Generated_Source\PSoC6/CapSense_Processing.c **** * \details
 148:Generated_Source\PSoC6/CapSense_Processing.c **** *  The position data is always reset to the CapSense_TOUCHPAD_POS_NONE value.
 149:Generated_Source\PSoC6/CapSense_Processing.c **** *  The same happens to the position filter history data if enabled.
 150:Generated_Source\PSoC6/CapSense_Processing.c **** *
 151:Generated_Source\PSoC6/CapSense_Processing.c **** *******************************************************************************/
 152:Generated_Source\PSoC6/CapSense_Processing.c **** __STATIC_INLINE void CapSense_DpInitCsdTouchpad(CapSense_FLASH_WD_STRUCT const * ptrFlashWdgt)
 153:Generated_Source\PSoC6/CapSense_Processing.c **** {
 154:Generated_Source\PSoC6/CapSense_Processing.c ****     #if (CapSense_ENABLE == CapSense_CENTROID_5X5_CSD_EN)
 155:Generated_Source\PSoC6/CapSense_Processing.c ****         uint32 touchIndex;
 156:Generated_Source\PSoC6/CapSense_Processing.c ****     #endif
 157:Generated_Source\PSoC6/CapSense_Processing.c **** 
 158:Generated_Source\PSoC6/CapSense_Processing.c ****     CapSense_RAM_WD_CSD_TOUCHPAD_STRUCT *ptrWdTouchpad;
 159:Generated_Source\PSoC6/CapSense_Processing.c **** 
 160:Generated_Source\PSoC6/CapSense_Processing.c ****     #if (0u != CapSense_POSITION_FILTER_EN)
 161:Generated_Source\PSoC6/CapSense_Processing.c ****         CapSense_TOUCHPAD_POS_HISTORY_STRUCT *ptrHistory;
 162:Generated_Source\PSoC6/CapSense_Processing.c ****     #endif  /* #if (0u != CapSense_POSITION_FILTER_EN) */
 163:Generated_Source\PSoC6/CapSense_Processing.c **** 
 164:Generated_Source\PSoC6/CapSense_Processing.c ****     #if (0u != CapSense_POS_ADAPTIVE_IIR_FILTER_EN)
 165:Generated_Source\PSoC6/CapSense_Processing.c ****         ADAPTIVE_FILTER_CONTEXT_STRUCT adpContext;
 166:Generated_Source\PSoC6/CapSense_Processing.c ****     #endif /* (0u != CapSense_POS_ADAPTIVE_IIR_FILTER_EN) */
 167:Generated_Source\PSoC6/CapSense_Processing.c **** 
 168:Generated_Source\PSoC6/CapSense_Processing.c ****     ptrWdTouchpad = ptrFlashWdgt->ptr2WdgtRam;
 169:Generated_Source\PSoC6/CapSense_Processing.c **** 
 170:Generated_Source\PSoC6/CapSense_Processing.c ****     /* Reset position data */
 171:Generated_Source\PSoC6/CapSense_Processing.c ****     #if (CapSense_ENABLE == CapSense_CENTROID_5X5_CSD_EN)
 172:Generated_Source\PSoC6/CapSense_Processing.c ****         #if (CapSense_ENABLE == CapSense_CENTROID_3X3_CSD_EN)
 173:Generated_Source\PSoC6/CapSense_Processing.c ****             if (0u != (ptrFlashWdgt->staticConfig & CapSense_CENTROID_5X5_MASK))
 174:Generated_Source\PSoC6/CapSense_Processing.c ****             {
 175:Generated_Source\PSoC6/CapSense_Processing.c ****         #endif
 176:Generated_Source\PSoC6/CapSense_Processing.c **** 
 177:Generated_Source\PSoC6/CapSense_Processing.c ****         ptrWdTouchpad->position.touchNum = 0u;
 178:Generated_Source\PSoC6/CapSense_Processing.c **** 
 179:Generated_Source\PSoC6/CapSense_Processing.c ****         #if (0u != CapSense_POSITION_FILTER_EN)
 180:Generated_Source\PSoC6/CapSense_Processing.c ****             ptrHistory = ptrFlashWdgt->ptr2PosHistory;
 181:Generated_Source\PSoC6/CapSense_Processing.c ****         #endif /* (0u != CapSense_POSITION_FILTER_EN) */
 182:Generated_Source\PSoC6/CapSense_Processing.c **** 
 183:Generated_Source\PSoC6/CapSense_Processing.c ****         for (touchIndex = 0u; touchIndex < ADVANCED_CENTROID_MAX_TOUCHES; touchIndex++)
 184:Generated_Source\PSoC6/CapSense_Processing.c ****         {
 185:Generated_Source\PSoC6/CapSense_Processing.c ****             ptrWdTouchpad->position.pos[touchIndex].x = ADVANCED_CENTROID_POSITION_NONE;
 186:Generated_Source\PSoC6/CapSense_Processing.c ****             ptrWdTouchpad->position.pos[touchIndex].y = ADVANCED_CENTROID_POSITION_NONE;
 187:Generated_Source\PSoC6/CapSense_Processing.c ****             ptrWdTouchpad->position.pos[touchIndex].zX = ADVANCED_CENTROID_POSITION_NONE;
 188:Generated_Source\PSoC6/CapSense_Processing.c ****             ptrWdTouchpad->position.pos[touchIndex].zY = ADVANCED_CENTROID_POSITION_NONE;
 189:Generated_Source\PSoC6/CapSense_Processing.c **** 
 190:Generated_Source\PSoC6/CapSense_Processing.c ****             /* Clear position filter history data if available */
 191:Generated_Source\PSoC6/CapSense_Processing.c ****             #if (0u != CapSense_POSITION_FILTER_EN)
 192:Generated_Source\PSoC6/CapSense_Processing.c ****                 if (NULL != ptrHistory)
 193:Generated_Source\PSoC6/CapSense_Processing.c ****                 {
 194:Generated_Source\PSoC6/CapSense_Processing.c ****                     CapSense_InitPosFiltersDd(&ptrHistory[touchIndex], CapSense_TOUCHPAD_POS_NONE, 
 195:Generated_Source\PSoC6/CapSense_Processing.c ****                     #if (0u != CapSense_POS_ADAPTIVE_IIR_FILTER_EN)
 196:Generated_Source\PSoC6/CapSense_Processing.c ****                         AdaptiveFilter_Initialize(&ptrWdTouchpad->aiirConfig, &adpContext);
 197:Generated_Source\PSoC6/CapSense_Processing.c ****                         ptrHistory[touchIndex].xPos.posAIIRCoeff = adpContext.coefficient;
 198:Generated_Source\PSoC6/CapSense_Processing.c ****                         ptrHistory[touchIndex].yPos.posAIIRCoeff = adpContext.coefficient;
 199:Generated_Source\PSoC6/CapSense_Processing.c ****                     #endif /* (0u != CapSense_POS_ADAPTIVE_IIR_FILTER_EN) */
 200:Generated_Source\PSoC6/CapSense_Processing.c ****                 }
 201:Generated_Source\PSoC6/CapSense_Processing.c ****             #endif /* (0u != CapSense_POSITION_FILTER_EN) */
ARM GAS  C:\Users\ikomb\AppData\Local\Temp\ccYuI7tI.s 			page 5


 202:Generated_Source\PSoC6/CapSense_Processing.c ****         }
 203:Generated_Source\PSoC6/CapSense_Processing.c **** 
 204:Generated_Source\PSoC6/CapSense_Processing.c ****         #if (CapSense_ENABLE == CapSense_CENTROID_3X3_CSD_EN)
 205:Generated_Source\PSoC6/CapSense_Processing.c ****             }
 206:Generated_Source\PSoC6/CapSense_Processing.c ****         #endif
 207:Generated_Source\PSoC6/CapSense_Processing.c ****     #endif
 208:Generated_Source\PSoC6/CapSense_Processing.c **** 
 209:Generated_Source\PSoC6/CapSense_Processing.c ****     #if (CapSense_ENABLE == CapSense_CENTROID_3X3_CSD_EN)
 210:Generated_Source\PSoC6/CapSense_Processing.c ****         if (0u != (ptrFlashWdgt->staticConfig & CapSense_CENTROID_3X3_MASK))
 211:Generated_Source\PSoC6/CapSense_Processing.c ****         {
 212:Generated_Source\PSoC6/CapSense_Processing.c ****             ptrWdTouchpad->posX = CapSense_TOUCHPAD_POS_NONE;
 213:Generated_Source\PSoC6/CapSense_Processing.c ****             ptrWdTouchpad->posY = CapSense_TOUCHPAD_POS_NONE;
 214:Generated_Source\PSoC6/CapSense_Processing.c **** 
 215:Generated_Source\PSoC6/CapSense_Processing.c ****             /* Clear position filter history data if available */
 216:Generated_Source\PSoC6/CapSense_Processing.c ****             #if (0u != CapSense_POSITION_FILTER_EN)
 217:Generated_Source\PSoC6/CapSense_Processing.c ****                 ptrHistory = ptrFlashWdgt->ptr2PosHistory;
 218:Generated_Source\PSoC6/CapSense_Processing.c ****                 CapSense_InitPosFiltersDd(ptrHistory, CapSense_TOUCHPAD_POS_NONE, CapSense_TOUCHPAD
 219:Generated_Source\PSoC6/CapSense_Processing.c **** 
 220:Generated_Source\PSoC6/CapSense_Processing.c ****                 #if (0u != CapSense_POS_ADAPTIVE_IIR_FILTER_EN)
 221:Generated_Source\PSoC6/CapSense_Processing.c ****                     if (NULL != ptrHistory)
 222:Generated_Source\PSoC6/CapSense_Processing.c ****                     {
 223:Generated_Source\PSoC6/CapSense_Processing.c ****                         AdaptiveFilter_Initialize(&ptrWdTouchpad->aiirConfig, &adpContext);
 224:Generated_Source\PSoC6/CapSense_Processing.c ****                         ptrHistory->xPos.posAIIRCoeff = adpContext.coefficient;
 225:Generated_Source\PSoC6/CapSense_Processing.c ****                         ptrHistory->yPos.posAIIRCoeff = adpContext.coefficient;
 226:Generated_Source\PSoC6/CapSense_Processing.c ****                     }
 227:Generated_Source\PSoC6/CapSense_Processing.c ****                 #endif /* (0u != CapSense_POS_ADAPTIVE_IIR_FILTER_EN) */
 228:Generated_Source\PSoC6/CapSense_Processing.c ****             #endif /* (0u != CapSense_POSITION_FILTER_EN) */
 229:Generated_Source\PSoC6/CapSense_Processing.c ****         }
 230:Generated_Source\PSoC6/CapSense_Processing.c ****     #endif
 231:Generated_Source\PSoC6/CapSense_Processing.c **** }
 232:Generated_Source\PSoC6/CapSense_Processing.c **** #endif /* #if (0u != CapSense_CSD_TOUCHPAD_WIDGET_EN) */
 233:Generated_Source\PSoC6/CapSense_Processing.c **** 
 234:Generated_Source\PSoC6/CapSense_Processing.c **** #if (0u != CapSense_CSX_TOUCHPAD_WIDGET_EN)
 235:Generated_Source\PSoC6/CapSense_Processing.c **** /*******************************************************************************
 236:Generated_Source\PSoC6/CapSense_Processing.c **** * Function Name: CapSense_DpInitCsxTouchpad
 237:Generated_Source\PSoC6/CapSense_Processing.c **** ****************************************************************************//**
 238:Generated_Source\PSoC6/CapSense_Processing.c **** *
 239:Generated_Source\PSoC6/CapSense_Processing.c **** * \brief
 240:Generated_Source\PSoC6/CapSense_Processing.c **** *  Performs initialization of the CSX touchpad widget i.e. Resets the position data to NONE.
 241:Generated_Source\PSoC6/CapSense_Processing.c **** *
 242:Generated_Source\PSoC6/CapSense_Processing.c **** * \details
 243:Generated_Source\PSoC6/CapSense_Processing.c **** *  The position data is always reset to the CapSense_TOUCHPAD_POS_NONE value.
 244:Generated_Source\PSoC6/CapSense_Processing.c **** *
 245:Generated_Source\PSoC6/CapSense_Processing.c **** *******************************************************************************/
 246:Generated_Source\PSoC6/CapSense_Processing.c **** __STATIC_INLINE void CapSense_DpInitCsxTouchpad(CapSense_FLASH_WD_STRUCT const * ptrFlashWdgt)
 247:Generated_Source\PSoC6/CapSense_Processing.c **** {
 248:Generated_Source\PSoC6/CapSense_Processing.c ****     CapSense_RAM_WD_CSX_TOUCHPAD_STRUCT *ptrWdTouchpad;
 249:Generated_Source\PSoC6/CapSense_Processing.c **** 
 250:Generated_Source\PSoC6/CapSense_Processing.c ****     #if (0u != CapSense_POSITION_FILTER_EN)
 251:Generated_Source\PSoC6/CapSense_Processing.c ****         uint32 touchIndex;
 252:Generated_Source\PSoC6/CapSense_Processing.c ****         CapSense_TOUCHPAD_POS_HISTORY_STRUCT *ptrHistory;
 253:Generated_Source\PSoC6/CapSense_Processing.c ****     #endif  /* #if (0u != CapSense_POSITION_FILTER_EN) */
 254:Generated_Source\PSoC6/CapSense_Processing.c **** 
 255:Generated_Source\PSoC6/CapSense_Processing.c ****     #if (0u != CapSense_POS_ADAPTIVE_IIR_FILTER_EN)
 256:Generated_Source\PSoC6/CapSense_Processing.c ****         ADAPTIVE_FILTER_CONTEXT_STRUCT adpContext;
 257:Generated_Source\PSoC6/CapSense_Processing.c ****     #endif /* (0u != CapSense_POS_ADAPTIVE_IIR_FILTER_EN) */
 258:Generated_Source\PSoC6/CapSense_Processing.c **** 
ARM GAS  C:\Users\ikomb\AppData\Local\Temp\ccYuI7tI.s 			page 6


 259:Generated_Source\PSoC6/CapSense_Processing.c ****     ptrWdTouchpad = ptrFlashWdgt->ptr2WdgtRam;
 260:Generated_Source\PSoC6/CapSense_Processing.c **** 
 261:Generated_Source\PSoC6/CapSense_Processing.c ****     #if (0u != CapSense_POSITION_FILTER_EN)
 262:Generated_Source\PSoC6/CapSense_Processing.c ****         ptrHistory = ptrFlashWdgt->ptr2PosHistory;
 263:Generated_Source\PSoC6/CapSense_Processing.c ****     #endif /* (0u != CapSense_POSITION_FILTER_EN) */
 264:Generated_Source\PSoC6/CapSense_Processing.c **** 
 265:Generated_Source\PSoC6/CapSense_Processing.c ****     /* Reset position data for finger */
 266:Generated_Source\PSoC6/CapSense_Processing.c ****     ptrWdTouchpad->touch[0u].x = CapSense_TOUCHPAD_POS_NONE;
 267:Generated_Source\PSoC6/CapSense_Processing.c ****     ptrWdTouchpad->touch[0u].y = CapSense_TOUCHPAD_POS_NONE;
 268:Generated_Source\PSoC6/CapSense_Processing.c ****     ptrWdTouchpad->touch[0u].z = CY_LO8(CapSense_TOUCHPAD_POS_NONE);
 269:Generated_Source\PSoC6/CapSense_Processing.c **** 
 270:Generated_Source\PSoC6/CapSense_Processing.c ****     #if (CapSense_CSX_MAX_FINGERS > 1u)
 271:Generated_Source\PSoC6/CapSense_Processing.c ****         ptrWdTouchpad->touch[1u].x = CapSense_TOUCHPAD_POS_NONE;
 272:Generated_Source\PSoC6/CapSense_Processing.c ****         ptrWdTouchpad->touch[1u].y = CapSense_TOUCHPAD_POS_NONE;
 273:Generated_Source\PSoC6/CapSense_Processing.c ****         ptrWdTouchpad->touch[1u].z = CY_LO8(CapSense_TOUCHPAD_POS_NONE);
 274:Generated_Source\PSoC6/CapSense_Processing.c ****     #endif /* #if (CapSense_CSX_MAX_FINGERS > 1u) */
 275:Generated_Source\PSoC6/CapSense_Processing.c **** 
 276:Generated_Source\PSoC6/CapSense_Processing.c ****     #if (CapSense_CSX_MAX_FINGERS > 2u)
 277:Generated_Source\PSoC6/CapSense_Processing.c ****         ptrWdTouchpad->touch[2u].x = CapSense_TOUCHPAD_POS_NONE;
 278:Generated_Source\PSoC6/CapSense_Processing.c ****         ptrWdTouchpad->touch[2u].y = CapSense_TOUCHPAD_POS_NONE;
 279:Generated_Source\PSoC6/CapSense_Processing.c ****         ptrWdTouchpad->touch[2u].z = CY_LO8(CapSense_TOUCHPAD_POS_NONE);
 280:Generated_Source\PSoC6/CapSense_Processing.c ****     #endif /* #if (CapSense_CSX_MAX_FINGERS > 2u) */
 281:Generated_Source\PSoC6/CapSense_Processing.c **** 
 282:Generated_Source\PSoC6/CapSense_Processing.c ****     #if (0u != CapSense_POSITION_FILTER_EN)
 283:Generated_Source\PSoC6/CapSense_Processing.c ****         for (touchIndex = 0u; touchIndex < CapSense_CSX_MAX_FINGERS; touchIndex++)
 284:Generated_Source\PSoC6/CapSense_Processing.c ****         {
 285:Generated_Source\PSoC6/CapSense_Processing.c ****             if (NULL != ptrHistory)
 286:Generated_Source\PSoC6/CapSense_Processing.c ****             {
 287:Generated_Source\PSoC6/CapSense_Processing.c ****                 /* Clear position filter history data if available */
 288:Generated_Source\PSoC6/CapSense_Processing.c ****                 CapSense_InitPosFiltersDd(&ptrHistory[touchIndex], CapSense_TOUCHPAD_POS_NONE, CapS
 289:Generated_Source\PSoC6/CapSense_Processing.c ****                 #if (0u != CapSense_POS_ADAPTIVE_IIR_FILTER_EN)
 290:Generated_Source\PSoC6/CapSense_Processing.c ****                     AdaptiveFilter_Initialize(&ptrWdTouchpad->aiirConfig, &adpContext);
 291:Generated_Source\PSoC6/CapSense_Processing.c ****                     ptrHistory[touchIndex].xPos.posAIIRCoeff = adpContext.coefficient;
 292:Generated_Source\PSoC6/CapSense_Processing.c ****                     ptrHistory[touchIndex].yPos.posAIIRCoeff = adpContext.coefficient;
 293:Generated_Source\PSoC6/CapSense_Processing.c ****                 #endif /* (0u != CapSense_POS_ADAPTIVE_IIR_FILTER_EN) */
 294:Generated_Source\PSoC6/CapSense_Processing.c ****             }
 295:Generated_Source\PSoC6/CapSense_Processing.c ****         }
 296:Generated_Source\PSoC6/CapSense_Processing.c ****     #endif /* (0u != CapSense_POSITION_FILTER_EN) */
 297:Generated_Source\PSoC6/CapSense_Processing.c **** }
 298:Generated_Source\PSoC6/CapSense_Processing.c **** #endif /* #if (0u != CapSense_CSX_TOUCHPAD_WIDGET_EN) */
 299:Generated_Source\PSoC6/CapSense_Processing.c **** 
 300:Generated_Source\PSoC6/CapSense_Processing.c **** #if (0u != CapSense_SLIDER_WIDGET_EN)
 301:Generated_Source\PSoC6/CapSense_Processing.c **** /*******************************************************************************
 302:Generated_Source\PSoC6/CapSense_Processing.c **** * Function Name: CapSense_DpInitSlider
 303:Generated_Source\PSoC6/CapSense_Processing.c **** ****************************************************************************//**
 304:Generated_Source\PSoC6/CapSense_Processing.c **** *
 305:Generated_Source\PSoC6/CapSense_Processing.c **** * \brief
 306:Generated_Source\PSoC6/CapSense_Processing.c **** *  Performs initialization of the Radial and Linear Slider widget.
 307:Generated_Source\PSoC6/CapSense_Processing.c **** *   - Resets the position data to NONE
 308:Generated_Source\PSoC6/CapSense_Processing.c **** *   - Initializes the position filter history to NONE if enabled.
 309:Generated_Source\PSoC6/CapSense_Processing.c **** *
 310:Generated_Source\PSoC6/CapSense_Processing.c **** * \details
 311:Generated_Source\PSoC6/CapSense_Processing.c **** *  Position data is always reset to the CapSense_SLIDER_POS_NONE value.
 312:Generated_Source\PSoC6/CapSense_Processing.c **** *  The same happens to the position filter history data if enabled.
 313:Generated_Source\PSoC6/CapSense_Processing.c **** *
 314:Generated_Source\PSoC6/CapSense_Processing.c **** *******************************************************************************/
 315:Generated_Source\PSoC6/CapSense_Processing.c **** __STATIC_INLINE void CapSense_DpInitSlider(CapSense_FLASH_WD_STRUCT const * ptrFlashWdgt)
ARM GAS  C:\Users\ikomb\AppData\Local\Temp\ccYuI7tI.s 			page 7


 316:Generated_Source\PSoC6/CapSense_Processing.c **** {
  28              		.loc 1 316 0
  29              		.cfi_startproc
  30              		@ args = 0, pretend = 0, frame = 24
  31              		@ frame_needed = 1, uses_anonymous_args = 0
  32 0000 80B5     		push	{r7, lr}
  33              		.cfi_def_cfa_offset 8
  34              		.cfi_offset 7, -8
  35              		.cfi_offset 14, -4
  36 0002 86B0     		sub	sp, sp, #24
  37              		.cfi_def_cfa_offset 32
  38 0004 00AF     		add	r7, sp, #0
  39              		.cfi_def_cfa_register 7
  40 0006 7860     		str	r0, [r7, #4]
 317:Generated_Source\PSoC6/CapSense_Processing.c ****     uint32 idx;
 318:Generated_Source\PSoC6/CapSense_Processing.c ****     CapSense_RAM_WD_SLIDER_STRUCT *ptrWdSlider;
 319:Generated_Source\PSoC6/CapSense_Processing.c **** 
 320:Generated_Source\PSoC6/CapSense_Processing.c ****     #if (0u != CapSense_POSITION_FILTER_EN)
 321:Generated_Source\PSoC6/CapSense_Processing.c ****         CapSense_SLIDER_POS_HISTORY_STRUCT *ptrHistory;
 322:Generated_Source\PSoC6/CapSense_Processing.c ****     #endif /* #if (0u != CapSense_POSITION_FILTER_EN) */
 323:Generated_Source\PSoC6/CapSense_Processing.c **** 
 324:Generated_Source\PSoC6/CapSense_Processing.c ****     #if (0u != CapSense_POS_ADAPTIVE_IIR_FILTER_EN)
 325:Generated_Source\PSoC6/CapSense_Processing.c ****         ADAPTIVE_FILTER_CONTEXT_STRUCT context;
 326:Generated_Source\PSoC6/CapSense_Processing.c ****     #endif /* (0u != CapSense_POS_ADAPTIVE_IIR_FILTER_EN) */
 327:Generated_Source\PSoC6/CapSense_Processing.c **** 
 328:Generated_Source\PSoC6/CapSense_Processing.c ****     ptrWdSlider = ptrFlashWdgt->ptr2WdgtRam;
  41              		.loc 1 328 0
  42 0008 7B68     		ldr	r3, [r7, #4]
  43 000a 5B68     		ldr	r3, [r3, #4]
  44 000c 3B61     		str	r3, [r7, #16]
 329:Generated_Source\PSoC6/CapSense_Processing.c **** 
 330:Generated_Source\PSoC6/CapSense_Processing.c ****     /* Reset slider position data to NONE */
 331:Generated_Source\PSoC6/CapSense_Processing.c ****     for (idx = 0u; idx < CapSense_NUM_CENTROIDS; idx++)
  45              		.loc 1 331 0
  46 000e 0023     		movs	r3, #0
  47 0010 7B61     		str	r3, [r7, #20]
  48 0012 19E0     		b	.L2
  49              	.L4:
 332:Generated_Source\PSoC6/CapSense_Processing.c ****     {
 333:Generated_Source\PSoC6/CapSense_Processing.c ****         ptrWdSlider->position[idx] = CapSense_SLIDER_POS_NONE;
  50              		.loc 1 333 0
  51 0014 3A69     		ldr	r2, [r7, #16]
  52 0016 7B69     		ldr	r3, [r7, #20]
  53 0018 0833     		adds	r3, r3, #8
  54 001a 5B00     		lsls	r3, r3, #1
  55 001c 1344     		add	r3, r3, r2
  56 001e 4FF6FF72 		movw	r2, #65535
  57 0022 5A80     		strh	r2, [r3, #2]	@ movhi
 334:Generated_Source\PSoC6/CapSense_Processing.c **** 
 335:Generated_Source\PSoC6/CapSense_Processing.c ****         #if (0u != CapSense_POSITION_FILTER_EN)
 336:Generated_Source\PSoC6/CapSense_Processing.c ****             ptrHistory = ptrFlashWdgt->ptr2PosHistory;
  58              		.loc 1 336 0
  59 0024 7B68     		ldr	r3, [r7, #4]
  60 0026 9B6A     		ldr	r3, [r3, #40]
  61 0028 FB60     		str	r3, [r7, #12]
 337:Generated_Source\PSoC6/CapSense_Processing.c ****             if (NULL != ptrHistory)
  62              		.loc 1 337 0
ARM GAS  C:\Users\ikomb\AppData\Local\Temp\ccYuI7tI.s 			page 8


  63 002a FB68     		ldr	r3, [r7, #12]
  64 002c 002B     		cmp	r3, #0
  65 002e 08D0     		beq	.L3
 338:Generated_Source\PSoC6/CapSense_Processing.c ****             {
 339:Generated_Source\PSoC6/CapSense_Processing.c ****                 CapSense_InitPosFiltersSd(&ptrHistory[idx], CapSense_SLIDER_POS_NONE);
  66              		.loc 1 339 0
  67 0030 7B69     		ldr	r3, [r7, #20]
  68 0032 5B00     		lsls	r3, r3, #1
  69 0034 FA68     		ldr	r2, [r7, #12]
  70 0036 1344     		add	r3, r3, r2
  71 0038 4FF6FF71 		movw	r1, #65535
  72 003c 1846     		mov	r0, r3
  73 003e FFF7FEFF 		bl	CapSense_InitPosFiltersSd
  74              	.L3:
 331:Generated_Source\PSoC6/CapSense_Processing.c ****     {
  75              		.loc 1 331 0 discriminator 2
  76 0042 7B69     		ldr	r3, [r7, #20]
  77 0044 0133     		adds	r3, r3, #1
  78 0046 7B61     		str	r3, [r7, #20]
  79              	.L2:
 331:Generated_Source\PSoC6/CapSense_Processing.c ****     {
  80              		.loc 1 331 0 is_stmt 0 discriminator 1
  81 0048 7B69     		ldr	r3, [r7, #20]
  82 004a 002B     		cmp	r3, #0
  83 004c E2D0     		beq	.L4
 340:Generated_Source\PSoC6/CapSense_Processing.c ****                 #if (0u != CapSense_POS_ADAPTIVE_IIR_FILTER_EN)
 341:Generated_Source\PSoC6/CapSense_Processing.c ****                     AdaptiveFilter_Initialize(&ptrWdSlider->aiirConfig, &context);
 342:Generated_Source\PSoC6/CapSense_Processing.c ****                     ptrHistory->posAIIRCoeff = context.coefficient;
 343:Generated_Source\PSoC6/CapSense_Processing.c ****                 #endif /* (0u != CapSense_POS_ADAPTIVE_IIR_FILTER_EN) */
 344:Generated_Source\PSoC6/CapSense_Processing.c ****             }
 345:Generated_Source\PSoC6/CapSense_Processing.c **** 
 346:Generated_Source\PSoC6/CapSense_Processing.c ****         #endif /* #if (0u != CapSense_POSITION_FILTER_EN) */
 347:Generated_Source\PSoC6/CapSense_Processing.c ****     }
 348:Generated_Source\PSoC6/CapSense_Processing.c **** }
  84              		.loc 1 348 0 is_stmt 1
  85 004e 00BF     		nop
  86 0050 1837     		adds	r7, r7, #24
  87              		.cfi_def_cfa_offset 8
  88 0052 BD46     		mov	sp, r7
  89              		.cfi_def_cfa_register 13
  90              		@ sp needed
  91 0054 80BD     		pop	{r7, pc}
  92              		.cfi_endproc
  93              	.LFE125:
  94              		.size	CapSense_DpInitSlider, .-CapSense_DpInitSlider
  95 0056 00BF     		.section	.text.CapSense_DpInitialize,"ax",%progbits
  96              		.align	2
  97              		.global	CapSense_DpInitialize
  98              		.thumb
  99              		.thumb_func
 100              		.type	CapSense_DpInitialize, %function
 101              	CapSense_DpInitialize:
 102              	.LFB126:
 349:Generated_Source\PSoC6/CapSense_Processing.c **** #endif /* #if (0u != CapSense_SLIDER_WIDGET_EN) */
 350:Generated_Source\PSoC6/CapSense_Processing.c **** 
 351:Generated_Source\PSoC6/CapSense_Processing.c **** #if (0u != CapSense_CSD_MATRIX_WIDGET_EN)
 352:Generated_Source\PSoC6/CapSense_Processing.c **** /*******************************************************************************
ARM GAS  C:\Users\ikomb\AppData\Local\Temp\ccYuI7tI.s 			page 9


 353:Generated_Source\PSoC6/CapSense_Processing.c **** * Function Name: CapSense_DpInitCsdMatrix
 354:Generated_Source\PSoC6/CapSense_Processing.c **** ****************************************************************************//**
 355:Generated_Source\PSoC6/CapSense_Processing.c **** *
 356:Generated_Source\PSoC6/CapSense_Processing.c **** * \brief
 357:Generated_Source\PSoC6/CapSense_Processing.c **** *  Performs initialization of the CSD Matrix Buttons widget.
 358:Generated_Source\PSoC6/CapSense_Processing.c **** *   - Resets the active button position data to NONE.
 359:Generated_Source\PSoC6/CapSense_Processing.c **** *
 360:Generated_Source\PSoC6/CapSense_Processing.c **** * \details
 361:Generated_Source\PSoC6/CapSense_Processing.c **** *  Position data is always reset to the CapSense_MATRIX_POS_NONE value.
 362:Generated_Source\PSoC6/CapSense_Processing.c **** *
 363:Generated_Source\PSoC6/CapSense_Processing.c **** *******************************************************************************/
 364:Generated_Source\PSoC6/CapSense_Processing.c **** __STATIC_INLINE void CapSense_DpInitCsdMatrix(CapSense_FLASH_WD_STRUCT const * ptrFlashWdgt)
 365:Generated_Source\PSoC6/CapSense_Processing.c **** {
 366:Generated_Source\PSoC6/CapSense_Processing.c ****     CapSense_RAM_WD_CSD_MATRIX_STRUCT *ptrRamWdgt;
 367:Generated_Source\PSoC6/CapSense_Processing.c **** 
 368:Generated_Source\PSoC6/CapSense_Processing.c ****     ptrRamWdgt = (CapSense_RAM_WD_CSD_MATRIX_STRUCT *)ptrFlashWdgt->ptr2WdgtRam;
 369:Generated_Source\PSoC6/CapSense_Processing.c **** 
 370:Generated_Source\PSoC6/CapSense_Processing.c ****     /* Reset sensor id, row and col registers in data structure */
 371:Generated_Source\PSoC6/CapSense_Processing.c ****     ptrRamWdgt->posRow   = CapSense_MATRIX_POS_NONE;
 372:Generated_Source\PSoC6/CapSense_Processing.c ****     ptrRamWdgt->posCol   = CapSense_MATRIX_POS_NONE;
 373:Generated_Source\PSoC6/CapSense_Processing.c ****     ptrRamWdgt->posSnsId = CapSense_MATRIX_POS_NONE;
 374:Generated_Source\PSoC6/CapSense_Processing.c **** }
 375:Generated_Source\PSoC6/CapSense_Processing.c **** #endif /* #if (0u != CapSense_CSD_MATRIX_WIDGET_EN) */
 376:Generated_Source\PSoC6/CapSense_Processing.c **** 
 377:Generated_Source\PSoC6/CapSense_Processing.c **** /*******************************************************************************
 378:Generated_Source\PSoC6/CapSense_Processing.c **** * Function Name: CapSense_DpInitialize
 379:Generated_Source\PSoC6/CapSense_Processing.c **** ****************************************************************************//**
 380:Generated_Source\PSoC6/CapSense_Processing.c **** *
 381:Generated_Source\PSoC6/CapSense_Processing.c **** * \brief
 382:Generated_Source\PSoC6/CapSense_Processing.c **** *  Performs initialization of the data processing FW module:
 383:Generated_Source\PSoC6/CapSense_Processing.c **** *   - Resets the de-bounce counters of all the widgets
 384:Generated_Source\PSoC6/CapSense_Processing.c **** *   - Resets the position filter history for slider and touchpad widgets
 385:Generated_Source\PSoC6/CapSense_Processing.c **** *   - Clears widget and sensor statuses
 386:Generated_Source\PSoC6/CapSense_Processing.c **** *   - Enables all the widgets.
 387:Generated_Source\PSoC6/CapSense_Processing.c **** *
 388:Generated_Source\PSoC6/CapSense_Processing.c **** * \details
 389:Generated_Source\PSoC6/CapSense_Processing.c **** *  The Button and Matrix Button widgets have individual de-bounce counter per
 390:Generated_Source\PSoC6/CapSense_Processing.c **** *  sensor for the CSD widgets and per node for the CSX widgets.
 391:Generated_Source\PSoC6/CapSense_Processing.c **** *
 392:Generated_Source\PSoC6/CapSense_Processing.c **** *  The Slider and Touchpad widgets have a single de-bounce counter per widget.
 393:Generated_Source\PSoC6/CapSense_Processing.c **** *
 394:Generated_Source\PSoC6/CapSense_Processing.c **** *  The Proximity widget has two de-bounce counters per sensor. One for the
 395:Generated_Source\PSoC6/CapSense_Processing.c **** *  proximity event and second for the touch event.
 396:Generated_Source\PSoC6/CapSense_Processing.c **** *
 397:Generated_Source\PSoC6/CapSense_Processing.c **** *  All debounce counters during initialization are set to the value of the
 398:Generated_Source\PSoC6/CapSense_Processing.c **** *  onDebounce widget parameter.
 399:Generated_Source\PSoC6/CapSense_Processing.c **** *
 400:Generated_Source\PSoC6/CapSense_Processing.c **** *******************************************************************************/
 401:Generated_Source\PSoC6/CapSense_Processing.c **** void CapSense_DpInitialize(void)
 402:Generated_Source\PSoC6/CapSense_Processing.c **** {
 103              		.loc 1 402 0
 104              		.cfi_startproc
 105              		@ args = 0, pretend = 0, frame = 16
 106              		@ frame_needed = 1, uses_anonymous_args = 0
 107 0000 80B5     		push	{r7, lr}
 108              		.cfi_def_cfa_offset 8
 109              		.cfi_offset 7, -8
ARM GAS  C:\Users\ikomb\AppData\Local\Temp\ccYuI7tI.s 			page 10


 110              		.cfi_offset 14, -4
 111 0002 84B0     		sub	sp, sp, #16
 112              		.cfi_def_cfa_offset 24
 113 0004 00AF     		add	r7, sp, #0
 114              		.cfi_def_cfa_register 7
 403:Generated_Source\PSoC6/CapSense_Processing.c ****     uint32 wdgtId;
 404:Generated_Source\PSoC6/CapSense_Processing.c ****     CapSense_WD_TYPE_ENUM widgetType;
 405:Generated_Source\PSoC6/CapSense_Processing.c ****     CapSense_RAM_WD_BASE_STRUCT * ptrRamWdgt;
 406:Generated_Source\PSoC6/CapSense_Processing.c ****     CapSense_FLASH_WD_STRUCT const * ptrFlashWdgt;
 407:Generated_Source\PSoC6/CapSense_Processing.c **** 
 408:Generated_Source\PSoC6/CapSense_Processing.c ****     for (wdgtId = 0u; wdgtId < CapSense_WDGT_STATUS_WORDS; wdgtId++)
 115              		.loc 1 408 0
 116 0006 0023     		movs	r3, #0
 117 0008 FB60     		str	r3, [r7, #12]
 118 000a 10E0     		b	.L6
 119              	.L7:
 409:Generated_Source\PSoC6/CapSense_Processing.c ****     {
 410:Generated_Source\PSoC6/CapSense_Processing.c ****         /* Clear widget status */
 411:Generated_Source\PSoC6/CapSense_Processing.c ****         CapSense_dsRam.wdgtStatus[wdgtId] = 0u;
 120              		.loc 1 411 0 discriminator 3
 121 000c 2B4A     		ldr	r2, .L19
 122 000e FB68     		ldr	r3, [r7, #12]
 123 0010 0433     		adds	r3, r3, #4
 124 0012 9B00     		lsls	r3, r3, #2
 125 0014 1344     		add	r3, r3, r2
 126 0016 0022     		movs	r2, #0
 127 0018 5A60     		str	r2, [r3, #4]
 412:Generated_Source\PSoC6/CapSense_Processing.c **** 
 413:Generated_Source\PSoC6/CapSense_Processing.c ****         /* Enable all the widgets */
 414:Generated_Source\PSoC6/CapSense_Processing.c ****         CapSense_dsRam.wdgtEnable[wdgtId] = 0xFFFFFFFFLu;
 128              		.loc 1 414 0 discriminator 3
 129 001a 284A     		ldr	r2, .L19
 130 001c FB68     		ldr	r3, [r7, #12]
 131 001e 0433     		adds	r3, r3, #4
 132 0020 4FF0FF31 		mov	r1, #-1
 133 0024 42F82310 		str	r1, [r2, r3, lsl #2]
 408:Generated_Source\PSoC6/CapSense_Processing.c ****     {
 134              		.loc 1 408 0 discriminator 3
 135 0028 FB68     		ldr	r3, [r7, #12]
 136 002a 0133     		adds	r3, r3, #1
 137 002c FB60     		str	r3, [r7, #12]
 138              	.L6:
 408:Generated_Source\PSoC6/CapSense_Processing.c ****     {
 139              		.loc 1 408 0 is_stmt 0 discriminator 1
 140 002e FB68     		ldr	r3, [r7, #12]
 141 0030 002B     		cmp	r3, #0
 142 0032 EBD0     		beq	.L7
 415:Generated_Source\PSoC6/CapSense_Processing.c **** 
 416:Generated_Source\PSoC6/CapSense_Processing.c ****         /* Set all the widgets to working state if the Self-Test is not enabled */
 417:Generated_Source\PSoC6/CapSense_Processing.c ****         #if (0u != CapSense_SELF_TEST_EN)
 418:Generated_Source\PSoC6/CapSense_Processing.c ****             CapSense_dsRam.wdgtWorking[wdgtId] = 0xFFFFFFFFLu;
 419:Generated_Source\PSoC6/CapSense_Processing.c ****         #endif /* #if (0u == CapSense_SELF_TEST_EN) */
 420:Generated_Source\PSoC6/CapSense_Processing.c ****     }
 421:Generated_Source\PSoC6/CapSense_Processing.c **** 
 422:Generated_Source\PSoC6/CapSense_Processing.c ****     ptrFlashWdgt = CapSense_dsFlash.wdgtArray;
 143              		.loc 1 422 0 is_stmt 1
 144 0034 224B     		ldr	r3, .L19+4
ARM GAS  C:\Users\ikomb\AppData\Local\Temp\ccYuI7tI.s 			page 11


 145 0036 BB60     		str	r3, [r7, #8]
 423:Generated_Source\PSoC6/CapSense_Processing.c **** 
 424:Generated_Source\PSoC6/CapSense_Processing.c ****     for (wdgtId = CapSense_TOTAL_WIDGETS; wdgtId-- > 0u; )
 146              		.loc 1 424 0
 147 0038 0323     		movs	r3, #3
 148 003a FB60     		str	r3, [r7, #12]
 149 003c 35E0     		b	.L8
 150              	.L15:
 425:Generated_Source\PSoC6/CapSense_Processing.c ****     {
 426:Generated_Source\PSoC6/CapSense_Processing.c ****         ptrRamWdgt = (CapSense_RAM_WD_BASE_STRUCT *)ptrFlashWdgt->ptr2WdgtRam;
 151              		.loc 1 426 0
 152 003e BB68     		ldr	r3, [r7, #8]
 153 0040 5B68     		ldr	r3, [r3, #4]
 154 0042 7B60     		str	r3, [r7, #4]
 427:Generated_Source\PSoC6/CapSense_Processing.c ****         widgetType = (CapSense_WD_TYPE_ENUM)ptrFlashWdgt->wdgtType;
 155              		.loc 1 427 0
 156 0044 BB68     		ldr	r3, [r7, #8]
 157 0046 9B7E     		ldrb	r3, [r3, #26]
 158 0048 FB70     		strb	r3, [r7, #3]
 428:Generated_Source\PSoC6/CapSense_Processing.c **** 
 429:Generated_Source\PSoC6/CapSense_Processing.c ****         /* Clear all sensor statuses */
 430:Generated_Source\PSoC6/CapSense_Processing.c ****         CapSense_dsRam.snsStatus[wdgtId] = 0u;
 159              		.loc 1 430 0
 160 004a 1C4A     		ldr	r2, .L19
 161 004c FB68     		ldr	r3, [r7, #12]
 162 004e 1344     		add	r3, r3, r2
 163 0050 1833     		adds	r3, r3, #24
 164 0052 0022     		movs	r2, #0
 165 0054 1A70     		strb	r2, [r3]
 431:Generated_Source\PSoC6/CapSense_Processing.c **** 
 432:Generated_Source\PSoC6/CapSense_Processing.c ****         /* Reset de-bounce counters */
 433:Generated_Source\PSoC6/CapSense_Processing.c ****         switch (widgetType)
 166              		.loc 1 433 0
 167 0056 FB78     		ldrb	r3, [r7, #3]	@ zero_extendqisi2
 168 0058 012B     		cmp	r3, #1
 169 005a 04D0     		beq	.L10
 170 005c 012B     		cmp	r3, #1
 171 005e 1EDB     		blt	.L17
 172 0060 032B     		cmp	r3, #3
 173 0062 1CDC     		bgt	.L17
 174 0064 0EE0     		b	.L16
 175              	.L10:
 434:Generated_Source\PSoC6/CapSense_Processing.c ****         {
 435:Generated_Source\PSoC6/CapSense_Processing.c ****         #if (0u != CapSense_MATRIX_WIDGET_EN)
 436:Generated_Source\PSoC6/CapSense_Processing.c ****             case CapSense_WD_MATRIX_BUTTON_E:
 437:Generated_Source\PSoC6/CapSense_Processing.c ****                 #if (0u != CapSense_CSD_MATRIX_WIDGET_EN)
 438:Generated_Source\PSoC6/CapSense_Processing.c ****                     if (CapSense_SENSE_METHOD_CSD_E == CapSense_GET_SENSE_METHOD(ptrFlashWdgt))
 439:Generated_Source\PSoC6/CapSense_Processing.c ****                     {
 440:Generated_Source\PSoC6/CapSense_Processing.c ****                         CapSense_DpInitCsdMatrix(ptrFlashWdgt);
 441:Generated_Source\PSoC6/CapSense_Processing.c ****                     }
 442:Generated_Source\PSoC6/CapSense_Processing.c ****                 #endif /* #if (0u != CapSense_CSD_MATRIX_WIDGET_EN) */
 443:Generated_Source\PSoC6/CapSense_Processing.c **** 
 444:Generated_Source\PSoC6/CapSense_Processing.c ****                 if (NULL != ptrFlashWdgt->ptr2DebounceArr)
 445:Generated_Source\PSoC6/CapSense_Processing.c ****                 {
 446:Generated_Source\PSoC6/CapSense_Processing.c ****                     /* Initialize array of debounce counters */
 447:Generated_Source\PSoC6/CapSense_Processing.c ****                     (void)memset(ptrFlashWdgt->ptr2DebounceArr,
 448:Generated_Source\PSoC6/CapSense_Processing.c ****                                  (int32)ptrRamWdgt->onDebounce,
ARM GAS  C:\Users\ikomb\AppData\Local\Temp\ccYuI7tI.s 			page 12


 449:Generated_Source\PSoC6/CapSense_Processing.c ****                                  (size_t)ptrFlashWdgt->totalNumSns);
 450:Generated_Source\PSoC6/CapSense_Processing.c ****                 }
 451:Generated_Source\PSoC6/CapSense_Processing.c ****                 break;
 452:Generated_Source\PSoC6/CapSense_Processing.c ****         #endif /* #if (0u != CapSense_MATRIX_WIDGET_EN) */
 453:Generated_Source\PSoC6/CapSense_Processing.c **** 
 454:Generated_Source\PSoC6/CapSense_Processing.c ****         #if (0u != CapSense_BUTTON_WIDGET_EN)
 455:Generated_Source\PSoC6/CapSense_Processing.c ****             case CapSense_WD_BUTTON_E:
 456:Generated_Source\PSoC6/CapSense_Processing.c ****                 if (NULL != ptrFlashWdgt->ptr2DebounceArr)
 176              		.loc 1 456 0
 177 0066 BB68     		ldr	r3, [r7, #8]
 178 0068 1B69     		ldr	r3, [r3, #16]
 179 006a 002B     		cmp	r3, #0
 180 006c 19D0     		beq	.L18
 457:Generated_Source\PSoC6/CapSense_Processing.c ****                 {
 458:Generated_Source\PSoC6/CapSense_Processing.c ****                     /* Initialize array of debounce counters */
 459:Generated_Source\PSoC6/CapSense_Processing.c ****                     (void)memset(ptrFlashWdgt->ptr2DebounceArr,
 181              		.loc 1 459 0
 182 006e BB68     		ldr	r3, [r7, #8]
 183 0070 1869     		ldr	r0, [r3, #16]
 460:Generated_Source\PSoC6/CapSense_Processing.c ****                                  (int32)ptrRamWdgt->onDebounce,
 184              		.loc 1 460 0
 185 0072 7B68     		ldr	r3, [r7, #4]
 186 0074 DB79     		ldrb	r3, [r3, #7]	@ zero_extendqisi2
 459:Generated_Source\PSoC6/CapSense_Processing.c ****                                  (int32)ptrRamWdgt->onDebounce,
 187              		.loc 1 459 0
 188 0076 1946     		mov	r1, r3
 461:Generated_Source\PSoC6/CapSense_Processing.c ****                                  (size_t)ptrFlashWdgt->totalNumSns);
 189              		.loc 1 461 0
 190 0078 BB68     		ldr	r3, [r7, #8]
 191 007a 1B8B     		ldrh	r3, [r3, #24]
 459:Generated_Source\PSoC6/CapSense_Processing.c ****                                  (int32)ptrRamWdgt->onDebounce,
 192              		.loc 1 459 0
 193 007c 1A46     		mov	r2, r3
 194 007e FFF7FEFF 		bl	memset
 462:Generated_Source\PSoC6/CapSense_Processing.c ****                 }
 463:Generated_Source\PSoC6/CapSense_Processing.c ****                 break;
 195              		.loc 1 463 0
 196 0082 0EE0     		b	.L18
 197              	.L16:
 464:Generated_Source\PSoC6/CapSense_Processing.c ****         #endif /* #if (0u != CapSense_BUTTON_WIDGET_EN) */
 465:Generated_Source\PSoC6/CapSense_Processing.c **** 
 466:Generated_Source\PSoC6/CapSense_Processing.c ****         #if (0u != CapSense_SLIDER_WIDGET_EN)
 467:Generated_Source\PSoC6/CapSense_Processing.c ****             case CapSense_WD_LINEAR_SLIDER_E:
 468:Generated_Source\PSoC6/CapSense_Processing.c ****             case CapSense_WD_RADIAL_SLIDER_E:
 469:Generated_Source\PSoC6/CapSense_Processing.c ****                 if (NULL != ptrFlashWdgt->ptr2DebounceArr)
 198              		.loc 1 469 0
 199 0084 BB68     		ldr	r3, [r7, #8]
 200 0086 1B69     		ldr	r3, [r3, #16]
 201 0088 002B     		cmp	r3, #0
 202 008a 04D0     		beq	.L14
 470:Generated_Source\PSoC6/CapSense_Processing.c ****                 {
 471:Generated_Source\PSoC6/CapSense_Processing.c ****                     /* Initialize single debounce counter of slider */
 472:Generated_Source\PSoC6/CapSense_Processing.c ****                     *(uint8 *)(ptrFlashWdgt->ptr2DebounceArr) = ptrRamWdgt->onDebounce;
 203              		.loc 1 472 0
 204 008c BB68     		ldr	r3, [r7, #8]
 205 008e 1B69     		ldr	r3, [r3, #16]
 206 0090 7A68     		ldr	r2, [r7, #4]
ARM GAS  C:\Users\ikomb\AppData\Local\Temp\ccYuI7tI.s 			page 13


 207 0092 D279     		ldrb	r2, [r2, #7]	@ zero_extendqisi2
 208 0094 1A70     		strb	r2, [r3]
 209              	.L14:
 473:Generated_Source\PSoC6/CapSense_Processing.c ****                 }
 474:Generated_Source\PSoC6/CapSense_Processing.c **** 
 475:Generated_Source\PSoC6/CapSense_Processing.c ****                 CapSense_DpInitSlider(ptrFlashWdgt);
 210              		.loc 1 475 0
 211 0096 B868     		ldr	r0, [r7, #8]
 212 0098 FFF7FEFF 		bl	CapSense_DpInitSlider
 476:Generated_Source\PSoC6/CapSense_Processing.c **** 
 477:Generated_Source\PSoC6/CapSense_Processing.c ****                 break;
 213              		.loc 1 477 0
 214 009c 02E0     		b	.L13
 215              	.L17:
 478:Generated_Source\PSoC6/CapSense_Processing.c ****         #endif /* #if (0u != CapSense_SLIDER_WIDGET_EN) */
 479:Generated_Source\PSoC6/CapSense_Processing.c **** 
 480:Generated_Source\PSoC6/CapSense_Processing.c ****         #if (0u != CapSense_TOUCHPAD_WIDGET_EN)
 481:Generated_Source\PSoC6/CapSense_Processing.c ****             case CapSense_WD_TOUCHPAD_E:
 482:Generated_Source\PSoC6/CapSense_Processing.c ****                 if (NULL != ptrFlashWdgt->ptr2DebounceArr)
 483:Generated_Source\PSoC6/CapSense_Processing.c ****                 {
 484:Generated_Source\PSoC6/CapSense_Processing.c ****                     /* Initialize single debounce counter of touchpad */
 485:Generated_Source\PSoC6/CapSense_Processing.c ****                     *(uint8 *)(ptrFlashWdgt->ptr2DebounceArr) = ptrRamWdgt->onDebounce;
 486:Generated_Source\PSoC6/CapSense_Processing.c ****                 }
 487:Generated_Source\PSoC6/CapSense_Processing.c **** 
 488:Generated_Source\PSoC6/CapSense_Processing.c ****                 #if (0u != CapSense_CSD_TOUCHPAD_WIDGET_EN)
 489:Generated_Source\PSoC6/CapSense_Processing.c ****                     if (CapSense_SENSE_METHOD_CSD_E == CapSense_GET_SENSE_METHOD(ptrFlashWdgt))
 490:Generated_Source\PSoC6/CapSense_Processing.c ****                     {
 491:Generated_Source\PSoC6/CapSense_Processing.c ****                         CapSense_DpInitCsdTouchpad(ptrFlashWdgt);
 492:Generated_Source\PSoC6/CapSense_Processing.c ****                     }
 493:Generated_Source\PSoC6/CapSense_Processing.c ****                 #endif /* #if (0u != CapSense_CSD_TOUCHPAD_WIDGET_EN) */
 494:Generated_Source\PSoC6/CapSense_Processing.c **** 
 495:Generated_Source\PSoC6/CapSense_Processing.c ****                 #if (0u != CapSense_CSX_TOUCHPAD_WIDGET_EN)
 496:Generated_Source\PSoC6/CapSense_Processing.c ****                     if (CapSense_SENSE_METHOD_CSX_E == CapSense_GET_SENSE_METHOD(ptrFlashWdgt))
 497:Generated_Source\PSoC6/CapSense_Processing.c ****                     {
 498:Generated_Source\PSoC6/CapSense_Processing.c ****                         CapSense_DpInitCsxTouchpad(ptrFlashWdgt);
 499:Generated_Source\PSoC6/CapSense_Processing.c ****                     }
 500:Generated_Source\PSoC6/CapSense_Processing.c ****                 #endif /* #if (0u != CapSense_CSX_TOUCHPAD_WIDGET_EN) */
 501:Generated_Source\PSoC6/CapSense_Processing.c **** 
 502:Generated_Source\PSoC6/CapSense_Processing.c ****                 break;
 503:Generated_Source\PSoC6/CapSense_Processing.c ****         #endif /* #if (0u != CapSense_TOUCHPAD_WIDGET_EN) */
 504:Generated_Source\PSoC6/CapSense_Processing.c **** 
 505:Generated_Source\PSoC6/CapSense_Processing.c ****         #if (0u != CapSense_PROXIMITY_WIDGET_EN)
 506:Generated_Source\PSoC6/CapSense_Processing.c ****             case CapSense_WD_PROXIMITY_E:
 507:Generated_Source\PSoC6/CapSense_Processing.c ****                 if (NULL != ptrFlashWdgt->ptr2DebounceArr)
 508:Generated_Source\PSoC6/CapSense_Processing.c ****                 {
 509:Generated_Source\PSoC6/CapSense_Processing.c ****                     /* Proximity widgets have 2 de-bounce counters per sensor.
 510:Generated_Source\PSoC6/CapSense_Processing.c ****                      * Therefore the number of sensors is multiplied by 2.
 511:Generated_Source\PSoC6/CapSense_Processing.c ****                      */
 512:Generated_Source\PSoC6/CapSense_Processing.c ****                    (void)memset(ptrFlashWdgt->ptr2DebounceArr,
 513:Generated_Source\PSoC6/CapSense_Processing.c ****                                 (int32)ptrRamWdgt->onDebounce,
 514:Generated_Source\PSoC6/CapSense_Processing.c ****                                 (size_t)ptrFlashWdgt->totalNumSns * 2u);
 515:Generated_Source\PSoC6/CapSense_Processing.c ****                 }
 516:Generated_Source\PSoC6/CapSense_Processing.c ****                 break;
 517:Generated_Source\PSoC6/CapSense_Processing.c ****         #endif /* #if (0u != CapSense_PROXIMITY_WIDGET_EN) */
 518:Generated_Source\PSoC6/CapSense_Processing.c **** 
 519:Generated_Source\PSoC6/CapSense_Processing.c ****             default:
 520:Generated_Source\PSoC6/CapSense_Processing.c ****                 break;
ARM GAS  C:\Users\ikomb\AppData\Local\Temp\ccYuI7tI.s 			page 14


 216              		.loc 1 520 0
 217 009e 00BF     		nop
 218 00a0 00E0     		b	.L13
 219              	.L18:
 463:Generated_Source\PSoC6/CapSense_Processing.c ****         #endif /* #if (0u != CapSense_BUTTON_WIDGET_EN) */
 220              		.loc 1 463 0
 221 00a2 00BF     		nop
 222              	.L13:
 521:Generated_Source\PSoC6/CapSense_Processing.c ****         }
 522:Generated_Source\PSoC6/CapSense_Processing.c **** 
 523:Generated_Source\PSoC6/CapSense_Processing.c ****         /* Move to next widget */
 524:Generated_Source\PSoC6/CapSense_Processing.c ****         ptrFlashWdgt++;
 223              		.loc 1 524 0
 224 00a4 BB68     		ldr	r3, [r7, #8]
 225 00a6 3033     		adds	r3, r3, #48
 226 00a8 BB60     		str	r3, [r7, #8]
 227              	.L8:
 424:Generated_Source\PSoC6/CapSense_Processing.c ****     {
 228              		.loc 1 424 0 discriminator 1
 229 00aa FB68     		ldr	r3, [r7, #12]
 230 00ac 5A1E     		subs	r2, r3, #1
 231 00ae FA60     		str	r2, [r7, #12]
 232 00b0 002B     		cmp	r3, #0
 233 00b2 C4D1     		bne	.L15
 525:Generated_Source\PSoC6/CapSense_Processing.c ****     }
 526:Generated_Source\PSoC6/CapSense_Processing.c **** }
 234              		.loc 1 526 0
 235 00b4 00BF     		nop
 236 00b6 1037     		adds	r7, r7, #16
 237              		.cfi_def_cfa_offset 8
 238 00b8 BD46     		mov	sp, r7
 239              		.cfi_def_cfa_register 13
 240              		@ sp needed
 241 00ba 80BD     		pop	{r7, pc}
 242              	.L20:
 243              		.align	2
 244              	.L19:
 245 00bc 00000000 		.word	CapSense_dsRam
 246 00c0 00000000 		.word	CapSense_dsFlash
 247              		.cfi_endproc
 248              	.LFE126:
 249              		.size	CapSense_DpInitialize, .-CapSense_DpInitialize
 250              		.section	.text.CapSense_DpProcessCsxWidgetRawCounts,"ax",%progbits
 251              		.align	2
 252              		.global	CapSense_DpProcessCsxWidgetRawCounts
 253              		.thumb
 254              		.thumb_func
 255              		.type	CapSense_DpProcessCsxWidgetRawCounts, %function
 256              	CapSense_DpProcessCsxWidgetRawCounts:
 257              	.LFB127:
 527:Generated_Source\PSoC6/CapSense_Processing.c **** 
 528:Generated_Source\PSoC6/CapSense_Processing.c **** #if (0u != CapSense_TOTAL_CSX_WIDGETS)
 529:Generated_Source\PSoC6/CapSense_Processing.c **** /*******************************************************************************
 530:Generated_Source\PSoC6/CapSense_Processing.c **** * Function Name: CapSense_DpProcessCsxWidgetRawCounts
 531:Generated_Source\PSoC6/CapSense_Processing.c **** ****************************************************************************//**
 532:Generated_Source\PSoC6/CapSense_Processing.c **** *
 533:Generated_Source\PSoC6/CapSense_Processing.c **** * \brief
ARM GAS  C:\Users\ikomb\AppData\Local\Temp\ccYuI7tI.s 			page 15


 534:Generated_Source\PSoC6/CapSense_Processing.c **** *  Performs default processing of the CSX raw counts.
 535:Generated_Source\PSoC6/CapSense_Processing.c **** *
 536:Generated_Source\PSoC6/CapSense_Processing.c **** * \details
 537:Generated_Source\PSoC6/CapSense_Processing.c **** *  Performs default processing of the CSX raw counts:
 538:Generated_Source\PSoC6/CapSense_Processing.c **** *   - Run Filters
 539:Generated_Source\PSoC6/CapSense_Processing.c **** *   - Update Baselines
 540:Generated_Source\PSoC6/CapSense_Processing.c **** *   - Update Differences
 541:Generated_Source\PSoC6/CapSense_Processing.c **** *   - Update Status.
 542:Generated_Source\PSoC6/CapSense_Processing.c **** *  The same process is applied to all the sensors of the specified widget.
 543:Generated_Source\PSoC6/CapSense_Processing.c **** *
 544:Generated_Source\PSoC6/CapSense_Processing.c **** * \param ptrFlashWdgt The pointer to the Flash widget structure.
 545:Generated_Source\PSoC6/CapSense_Processing.c **** *
 546:Generated_Source\PSoC6/CapSense_Processing.c **** * \return
 547:Generated_Source\PSoC6/CapSense_Processing.c **** *  Returns the status of the specified widget processing operation:
 548:Generated_Source\PSoC6/CapSense_Processing.c **** *  - CY_RET_SUCCESS if operation was successfully completed;
 549:Generated_Source\PSoC6/CapSense_Processing.c **** *  - CapSense_PROCESS_BASELINE_FAILED if baseline processing of any
 550:Generated_Source\PSoC6/CapSense_Processing.c **** *    sensor of the specified widget failed. The result is concatenated with the index
 551:Generated_Source\PSoC6/CapSense_Processing.c **** *    of failed sensor.
 552:Generated_Source\PSoC6/CapSense_Processing.c **** *
 553:Generated_Source\PSoC6/CapSense_Processing.c **** *******************************************************************************/
 554:Generated_Source\PSoC6/CapSense_Processing.c **** uint32 CapSense_DpProcessCsxWidgetRawCounts(CapSense_FLASH_WD_STRUCT const *ptrFlashWdgt)
 555:Generated_Source\PSoC6/CapSense_Processing.c **** {
 258              		.loc 1 555 0
 259              		.cfi_startproc
 260              		@ args = 0, pretend = 0, frame = 32
 261              		@ frame_needed = 1, uses_anonymous_args = 0
 262 0000 80B5     		push	{r7, lr}
 263              		.cfi_def_cfa_offset 8
 264              		.cfi_offset 7, -8
 265              		.cfi_offset 14, -4
 266 0002 88B0     		sub	sp, sp, #32
 267              		.cfi_def_cfa_offset 40
 268 0004 00AF     		add	r7, sp, #0
 269              		.cfi_def_cfa_register 7
 270 0006 7860     		str	r0, [r7, #4]
 556:Generated_Source\PSoC6/CapSense_Processing.c ****     uint32 result = CY_RET_SUCCESS;
 271              		.loc 1 556 0
 272 0008 0023     		movs	r3, #0
 273 000a FB61     		str	r3, [r7, #28]
 557:Generated_Source\PSoC6/CapSense_Processing.c ****     uint32 widgetType;
 558:Generated_Source\PSoC6/CapSense_Processing.c ****     uint32 snsCount;
 559:Generated_Source\PSoC6/CapSense_Processing.c ****     CapSense_RAM_SNS_STRUCT *ptrSnsTmp;
 560:Generated_Source\PSoC6/CapSense_Processing.c ****     CapSense_RAM_WD_BASE_STRUCT *ptrRamWdgt;
 561:Generated_Source\PSoC6/CapSense_Processing.c **** 
 562:Generated_Source\PSoC6/CapSense_Processing.c ****     #if (CapSense_ENABLE == CapSense_RC_FILTER_EN)
 563:Generated_Source\PSoC6/CapSense_Processing.c ****         CapSense_PTR_FILTER_VARIANT fltrHistV;
 564:Generated_Source\PSoC6/CapSense_Processing.c **** 
 565:Generated_Source\PSoC6/CapSense_Processing.c ****         fltrHistV.ptr = ptrFlashWdgt->ptr2FltrHistory;
 274              		.loc 1 565 0
 275 000c 7B68     		ldr	r3, [r7, #4]
 276 000e DB68     		ldr	r3, [r3, #12]
 277 0010 BB60     		str	r3, [r7, #8]
 566:Generated_Source\PSoC6/CapSense_Processing.c ****     #endif /* #if (CapSense_ENABLE == CapSense_RC_FILTER_EN) */
 567:Generated_Source\PSoC6/CapSense_Processing.c **** 
 568:Generated_Source\PSoC6/CapSense_Processing.c ****     ptrSnsTmp = ptrFlashWdgt->ptr2SnsRam;
 278              		.loc 1 568 0
 279 0012 7B68     		ldr	r3, [r7, #4]
ARM GAS  C:\Users\ikomb\AppData\Local\Temp\ccYuI7tI.s 			page 16


 280 0014 9B68     		ldr	r3, [r3, #8]
 281 0016 7B61     		str	r3, [r7, #20]
 569:Generated_Source\PSoC6/CapSense_Processing.c ****     snsCount = ptrFlashWdgt->totalNumSns;
 282              		.loc 1 569 0
 283 0018 7B68     		ldr	r3, [r7, #4]
 284 001a 1B8B     		ldrh	r3, [r3, #24]
 285 001c BB61     		str	r3, [r7, #24]
 570:Generated_Source\PSoC6/CapSense_Processing.c ****     ptrRamWdgt = (CapSense_RAM_WD_BASE_STRUCT *)ptrFlashWdgt->ptr2WdgtRam;
 286              		.loc 1 570 0
 287 001e 7B68     		ldr	r3, [r7, #4]
 288 0020 5B68     		ldr	r3, [r3, #4]
 289 0022 3B61     		str	r3, [r7, #16]
 571:Generated_Source\PSoC6/CapSense_Processing.c ****     widgetType = ptrFlashWdgt->wdgtType;
 290              		.loc 1 571 0
 291 0024 7B68     		ldr	r3, [r7, #4]
 292 0026 9B7E     		ldrb	r3, [r3, #26]	@ zero_extendqisi2
 293 0028 FB60     		str	r3, [r7, #12]
 572:Generated_Source\PSoC6/CapSense_Processing.c **** 
 573:Generated_Source\PSoC6/CapSense_Processing.c ****     /* Run deconvolution algorithm for the widgets with multiphase TX support */
 574:Generated_Source\PSoC6/CapSense_Processing.c ****     #if (0u != CapSense_CSX_MULTIPHASE_TX_EN)
 575:Generated_Source\PSoC6/CapSense_Processing.c ****         if (0u != (ptrFlashWdgt->staticConfig & CapSense_MULTIPHASE_TX_MASK))
 576:Generated_Source\PSoC6/CapSense_Processing.c ****         {
 577:Generated_Source\PSoC6/CapSense_Processing.c ****             CapSense_DpDeconvolution(ptrFlashWdgt);
 578:Generated_Source\PSoC6/CapSense_Processing.c ****         }
 579:Generated_Source\PSoC6/CapSense_Processing.c ****     #endif  /* #if (0u != CapSense_CSX_MULTIPHASE_TX_EN) */
 580:Generated_Source\PSoC6/CapSense_Processing.c **** 
 581:Generated_Source\PSoC6/CapSense_Processing.c ****     for (;snsCount-- > 0u;)
 294              		.loc 1 581 0
 295 002a 14E0     		b	.L22
 296              	.L23:
 582:Generated_Source\PSoC6/CapSense_Processing.c ****     {
 583:Generated_Source\PSoC6/CapSense_Processing.c ****         #if (CapSense_ENABLE == CapSense_RC_FILTER_EN)
 584:Generated_Source\PSoC6/CapSense_Processing.c ****             CapSense_FtRunEnabledFiltersInternal(fltrHistV, ptrSnsTmp, widgetType);
 297              		.loc 1 584 0
 298 002c FA68     		ldr	r2, [r7, #12]
 299 002e 7969     		ldr	r1, [r7, #20]
 300 0030 B868     		ldr	r0, [r7, #8]
 301 0032 FFF7FEFF 		bl	CapSense_FtRunEnabledFiltersInternal
 585:Generated_Source\PSoC6/CapSense_Processing.c ****             #if (CapSense_ALP_FILTER_EN)
 586:Generated_Source\PSoC6/CapSense_Processing.c ****                 CapSense_ConfigRunALPInternal(fltrHistV, ptrRamWdgt, ptrSnsTmp, widgetType);
 587:Generated_Source\PSoC6/CapSense_Processing.c ****             #endif
 588:Generated_Source\PSoC6/CapSense_Processing.c ****         #endif /* #if (CapSense_ENABLE == CapSense_RC_FILTER_EN) */
 589:Generated_Source\PSoC6/CapSense_Processing.c **** 
 590:Generated_Source\PSoC6/CapSense_Processing.c ****         result = CapSense_FtUpdateBaseline(ptrRamWdgt, ptrSnsTmp, widgetType);
 302              		.loc 1 590 0
 303 0036 FA68     		ldr	r2, [r7, #12]
 304 0038 7969     		ldr	r1, [r7, #20]
 305 003a 3869     		ldr	r0, [r7, #16]
 306 003c FFF7FEFF 		bl	CapSense_FtUpdateBaseline
 307 0040 F861     		str	r0, [r7, #28]
 591:Generated_Source\PSoC6/CapSense_Processing.c **** 
 592:Generated_Source\PSoC6/CapSense_Processing.c ****         #if (CapSense_ENABLE == CapSense_TST_BSLN_DUPLICATION_EN)
 593:Generated_Source\PSoC6/CapSense_Processing.c ****             if (CY_RET_SUCCESS != result)
 594:Generated_Source\PSoC6/CapSense_Processing.c ****             {
 595:Generated_Source\PSoC6/CapSense_Processing.c ****                 result = snsCount | CapSense_PROCESS_BASELINE_FAILED;
 596:Generated_Source\PSoC6/CapSense_Processing.c ****             }
 597:Generated_Source\PSoC6/CapSense_Processing.c ****         #endif /* (CapSense_ENABLE == CapSense_TST_BSLN_DUPLICATION_EN) */
ARM GAS  C:\Users\ikomb\AppData\Local\Temp\ccYuI7tI.s 			page 17


 598:Generated_Source\PSoC6/CapSense_Processing.c **** 
 599:Generated_Source\PSoC6/CapSense_Processing.c ****         CapSense_DpUpdateDifferences(ptrRamWdgt, ptrSnsTmp);
 308              		.loc 1 599 0
 309 0042 7969     		ldr	r1, [r7, #20]
 310 0044 3869     		ldr	r0, [r7, #16]
 311 0046 FFF7FEFF 		bl	CapSense_DpUpdateDifferences
 600:Generated_Source\PSoC6/CapSense_Processing.c **** 
 601:Generated_Source\PSoC6/CapSense_Processing.c ****         /* Move pointers to the next sensor and filter history objects */
 602:Generated_Source\PSoC6/CapSense_Processing.c ****         ptrSnsTmp++;
 312              		.loc 1 602 0
 313 004a 7B69     		ldr	r3, [r7, #20]
 314 004c 0A33     		adds	r3, r3, #10
 315 004e 7B61     		str	r3, [r7, #20]
 603:Generated_Source\PSoC6/CapSense_Processing.c ****         
 604:Generated_Source\PSoC6/CapSense_Processing.c ****         #if (CapSense_ENABLE == CapSense_RC_FILTER_EN)
 605:Generated_Source\PSoC6/CapSense_Processing.c ****             CapSense_INC_REG_FLTR_OBJ(fltrHistV);
 316              		.loc 1 605 0
 317 0050 BB68     		ldr	r3, [r7, #8]
 318 0052 0A33     		adds	r3, r3, #10
 319 0054 BB60     		str	r3, [r7, #8]
 320              	.L22:
 581:Generated_Source\PSoC6/CapSense_Processing.c ****     {
 321              		.loc 1 581 0
 322 0056 BB69     		ldr	r3, [r7, #24]
 323 0058 5A1E     		subs	r2, r3, #1
 324 005a BA61     		str	r2, [r7, #24]
 325 005c 002B     		cmp	r3, #0
 326 005e E5D1     		bne	.L23
 606:Generated_Source\PSoC6/CapSense_Processing.c ****         #endif /* #if (CapSense_ENABLE == CapSense_RC_FILTER_EN) */
 607:Generated_Source\PSoC6/CapSense_Processing.c ****     }
 608:Generated_Source\PSoC6/CapSense_Processing.c ****     return result;
 327              		.loc 1 608 0
 328 0060 FB69     		ldr	r3, [r7, #28]
 609:Generated_Source\PSoC6/CapSense_Processing.c **** }
 329              		.loc 1 609 0
 330 0062 1846     		mov	r0, r3
 331 0064 2037     		adds	r7, r7, #32
 332              		.cfi_def_cfa_offset 8
 333 0066 BD46     		mov	sp, r7
 334              		.cfi_def_cfa_register 13
 335              		@ sp needed
 336 0068 80BD     		pop	{r7, pc}
 337              		.cfi_endproc
 338              	.LFE127:
 339              		.size	CapSense_DpProcessCsxWidgetRawCounts, .-CapSense_DpProcessCsxWidgetRawCounts
 340 006a 00BF     		.section	.text.CapSense_DpProcessCsxSensorRawCountsExt,"ax",%progbits
 341              		.align	2
 342              		.global	CapSense_DpProcessCsxSensorRawCountsExt
 343              		.thumb
 344              		.thumb_func
 345              		.type	CapSense_DpProcessCsxSensorRawCountsExt, %function
 346              	CapSense_DpProcessCsxSensorRawCountsExt:
 347              	.LFB128:
 610:Generated_Source\PSoC6/CapSense_Processing.c **** 
 611:Generated_Source\PSoC6/CapSense_Processing.c **** /*******************************************************************************
 612:Generated_Source\PSoC6/CapSense_Processing.c **** * Function Name: CapSense_DpProcessCsxSensorRawCountsExt
 613:Generated_Source\PSoC6/CapSense_Processing.c **** ****************************************************************************//**
ARM GAS  C:\Users\ikomb\AppData\Local\Temp\ccYuI7tI.s 			page 18


 614:Generated_Source\PSoC6/CapSense_Processing.c **** *
 615:Generated_Source\PSoC6/CapSense_Processing.c **** * \brief
 616:Generated_Source\PSoC6/CapSense_Processing.c **** *   Performs customized processing of the CSX sensor raw counts.
 617:Generated_Source\PSoC6/CapSense_Processing.c **** *
 618:Generated_Source\PSoC6/CapSense_Processing.c **** * \details
 619:Generated_Source\PSoC6/CapSense_Processing.c **** *   Performs customized processing of the CSX sensor raw counts.
 620:Generated_Source\PSoC6/CapSense_Processing.c **** *
 621:Generated_Source\PSoC6/CapSense_Processing.c **** *   If all bits are set at once the default processing order will take place.
 622:Generated_Source\PSoC6/CapSense_Processing.c **** *   For the custom order this API can be called multiple times and execute one task at a time.
 623:Generated_Source\PSoC6/CapSense_Processing.c **** *
 624:Generated_Source\PSoC6/CapSense_Processing.c **** * \param ptrFlashWdgt The pointer to the Flash Widget Object.
 625:Generated_Source\PSoC6/CapSense_Processing.c **** * \param curSnsPtr    The pointer to the specific RAM Sensor Object.
 626:Generated_Source\PSoC6/CapSense_Processing.c **** * \param fltrHistV    The pointer to the Filter History Object in RAM associated with specific sens
 627:Generated_Source\PSoC6/CapSense_Processing.c **** * \param mode         The bit-mask with the data processing tasks to be executed.
 628:Generated_Source\PSoC6/CapSense_Processing.c **** *   The mode parameters can take the following values:
 629:Generated_Source\PSoC6/CapSense_Processing.c **** *    - CapSense_PROCESS_FILTER     (0x01) Run Firmware Filter
 630:Generated_Source\PSoC6/CapSense_Processing.c **** *    - CapSense_PROCESS_BASELINE   (0x02) Update Baselines
 631:Generated_Source\PSoC6/CapSense_Processing.c **** *    - CapSense_PROCESS_DIFFCOUNTS (0x04) Update Difference Counts
 632:Generated_Source\PSoC6/CapSense_Processing.c **** *    - CapSense_PROCESS_ALL               Execute all tasks
 633:Generated_Source\PSoC6/CapSense_Processing.c **** *
 634:Generated_Source\PSoC6/CapSense_Processing.c **** * \return
 635:Generated_Source\PSoC6/CapSense_Processing.c **** *  Returns the status of the specified sensor processing operation:
 636:Generated_Source\PSoC6/CapSense_Processing.c **** *  - CY_RET_SUCCESS if operation was successfully completed;
 637:Generated_Source\PSoC6/CapSense_Processing.c **** *  - CapSense_PROCESS_BASELINE_FAILED if baseline processing of any
 638:Generated_Source\PSoC6/CapSense_Processing.c **** *    sensor of the specified widget failed. The result is concatenated with the index
 639:Generated_Source\PSoC6/CapSense_Processing.c **** *    of failed sensor.
 640:Generated_Source\PSoC6/CapSense_Processing.c **** *
 641:Generated_Source\PSoC6/CapSense_Processing.c **** *******************************************************************************/
 642:Generated_Source\PSoC6/CapSense_Processing.c **** uint32 CapSense_DpProcessCsxSensorRawCountsExt(
 643:Generated_Source\PSoC6/CapSense_Processing.c ****                 CapSense_FLASH_WD_STRUCT const *ptrFlashWdgt,
 644:Generated_Source\PSoC6/CapSense_Processing.c ****                 CapSense_RAM_SNS_STRUCT *curSnsPtr,
 645:Generated_Source\PSoC6/CapSense_Processing.c ****                 CapSense_PTR_FILTER_VARIANT fltrHistV,
 646:Generated_Source\PSoC6/CapSense_Processing.c ****                 uint32 mode)
 647:Generated_Source\PSoC6/CapSense_Processing.c **** {
 348              		.loc 1 647 0
 349              		.cfi_startproc
 350              		@ args = 0, pretend = 0, frame = 32
 351              		@ frame_needed = 1, uses_anonymous_args = 0
 352 0000 80B5     		push	{r7, lr}
 353              		.cfi_def_cfa_offset 8
 354              		.cfi_offset 7, -8
 355              		.cfi_offset 14, -4
 356 0002 88B0     		sub	sp, sp, #32
 357              		.cfi_def_cfa_offset 40
 358 0004 00AF     		add	r7, sp, #0
 359              		.cfi_def_cfa_register 7
 360 0006 F860     		str	r0, [r7, #12]
 361 0008 B960     		str	r1, [r7, #8]
 362 000a 7A60     		str	r2, [r7, #4]
 363 000c 3B60     		str	r3, [r7]
 648:Generated_Source\PSoC6/CapSense_Processing.c ****     uint32  result = CY_RET_SUCCESS;
 364              		.loc 1 648 0
 365 000e 0023     		movs	r3, #0
 366 0010 FB61     		str	r3, [r7, #28]
 649:Generated_Source\PSoC6/CapSense_Processing.c ****     uint32  widgetType;
 650:Generated_Source\PSoC6/CapSense_Processing.c ****     CapSense_RAM_WD_BASE_STRUCT *ptrRamWdgt;
 651:Generated_Source\PSoC6/CapSense_Processing.c **** 
ARM GAS  C:\Users\ikomb\AppData\Local\Temp\ccYuI7tI.s 			page 19


 652:Generated_Source\PSoC6/CapSense_Processing.c ****     widgetType = ptrFlashWdgt->wdgtType;
 367              		.loc 1 652 0
 368 0012 FB68     		ldr	r3, [r7, #12]
 369 0014 9B7E     		ldrb	r3, [r3, #26]	@ zero_extendqisi2
 370 0016 BB61     		str	r3, [r7, #24]
 653:Generated_Source\PSoC6/CapSense_Processing.c ****     ptrRamWdgt = (CapSense_RAM_WD_BASE_STRUCT *)ptrFlashWdgt->ptr2WdgtRam;
 371              		.loc 1 653 0
 372 0018 FB68     		ldr	r3, [r7, #12]
 373 001a 5B68     		ldr	r3, [r3, #4]
 374 001c 7B61     		str	r3, [r7, #20]
 654:Generated_Source\PSoC6/CapSense_Processing.c **** 
 655:Generated_Source\PSoC6/CapSense_Processing.c ****     #if (CapSense_ENABLE == CapSense_RC_FILTER_EN)
 656:Generated_Source\PSoC6/CapSense_Processing.c ****         if (0u != (mode & CapSense_PROCESS_FILTER))
 375              		.loc 1 656 0
 376 001e 3B68     		ldr	r3, [r7]
 377 0020 03F00103 		and	r3, r3, #1
 378 0024 002B     		cmp	r3, #0
 379 0026 04D0     		beq	.L26
 657:Generated_Source\PSoC6/CapSense_Processing.c ****         {
 658:Generated_Source\PSoC6/CapSense_Processing.c ****             CapSense_FtRunEnabledFiltersInternal(fltrHistV, curSnsPtr, widgetType);
 380              		.loc 1 658 0
 381 0028 BA69     		ldr	r2, [r7, #24]
 382 002a B968     		ldr	r1, [r7, #8]
 383 002c 7868     		ldr	r0, [r7, #4]
 384 002e FFF7FEFF 		bl	CapSense_FtRunEnabledFiltersInternal
 385              	.L26:
 659:Generated_Source\PSoC6/CapSense_Processing.c ****             #if (CapSense_ALP_FILTER_EN)
 660:Generated_Source\PSoC6/CapSense_Processing.c ****                 CapSense_ConfigRunALPInternal(fltrHistV, ptrRamWdgt, curSnsPtr, widgetType);
 661:Generated_Source\PSoC6/CapSense_Processing.c ****             #endif
 662:Generated_Source\PSoC6/CapSense_Processing.c ****         }
 663:Generated_Source\PSoC6/CapSense_Processing.c ****     #else
 664:Generated_Source\PSoC6/CapSense_Processing.c ****         (void)fltrHistV; /* This parameter is unused in such configurations */
 665:Generated_Source\PSoC6/CapSense_Processing.c ****     #endif /* #if (CapSense_ENABLE == CapSense_RC_FILTER_EN) */
 666:Generated_Source\PSoC6/CapSense_Processing.c **** 
 667:Generated_Source\PSoC6/CapSense_Processing.c ****     if (0u != (mode & CapSense_PROCESS_BASELINE))
 386              		.loc 1 667 0
 387 0032 3B68     		ldr	r3, [r7]
 388 0034 03F00203 		and	r3, r3, #2
 389 0038 002B     		cmp	r3, #0
 390 003a 05D0     		beq	.L27
 668:Generated_Source\PSoC6/CapSense_Processing.c ****     {
 669:Generated_Source\PSoC6/CapSense_Processing.c ****         result = CapSense_FtUpdateBaseline(ptrRamWdgt, curSnsPtr, widgetType);
 391              		.loc 1 669 0
 392 003c BA69     		ldr	r2, [r7, #24]
 393 003e B968     		ldr	r1, [r7, #8]
 394 0040 7869     		ldr	r0, [r7, #20]
 395 0042 FFF7FEFF 		bl	CapSense_FtUpdateBaseline
 396 0046 F861     		str	r0, [r7, #28]
 397              	.L27:
 670:Generated_Source\PSoC6/CapSense_Processing.c ****     }
 671:Generated_Source\PSoC6/CapSense_Processing.c **** 
 672:Generated_Source\PSoC6/CapSense_Processing.c ****     if (0u != (mode & CapSense_PROCESS_DIFFCOUNTS))
 398              		.loc 1 672 0
 399 0048 3B68     		ldr	r3, [r7]
 400 004a 03F00403 		and	r3, r3, #4
 401 004e 002B     		cmp	r3, #0
 402 0050 03D0     		beq	.L28
ARM GAS  C:\Users\ikomb\AppData\Local\Temp\ccYuI7tI.s 			page 20


 673:Generated_Source\PSoC6/CapSense_Processing.c ****     {
 674:Generated_Source\PSoC6/CapSense_Processing.c ****         CapSense_DpUpdateDifferences(ptrRamWdgt, curSnsPtr);
 403              		.loc 1 674 0
 404 0052 B968     		ldr	r1, [r7, #8]
 405 0054 7869     		ldr	r0, [r7, #20]
 406 0056 FFF7FEFF 		bl	CapSense_DpUpdateDifferences
 407              	.L28:
 675:Generated_Source\PSoC6/CapSense_Processing.c ****     }
 676:Generated_Source\PSoC6/CapSense_Processing.c ****     return result;
 408              		.loc 1 676 0
 409 005a FB69     		ldr	r3, [r7, #28]
 677:Generated_Source\PSoC6/CapSense_Processing.c **** }
 410              		.loc 1 677 0
 411 005c 1846     		mov	r0, r3
 412 005e 2037     		adds	r7, r7, #32
 413              		.cfi_def_cfa_offset 8
 414 0060 BD46     		mov	sp, r7
 415              		.cfi_def_cfa_register 13
 416              		@ sp needed
 417 0062 80BD     		pop	{r7, pc}
 418              		.cfi_endproc
 419              	.LFE128:
 420              		.size	CapSense_DpProcessCsxSensorRawCountsExt, .-CapSense_DpProcessCsxSensorRawCountsExt
 421              		.section	.rodata
 422              		.align	2
 423              	.LC0:
 424 0000 47656E65 		.ascii	"Generated_Source\\PSoC6\\CapSense_Processing.c\000"
 424      72617465 
 424      645F536F 
 424      75726365 
 424      5C50536F 
 425              		.section	.text.CapSense_DpProcessCsxWidgetStatus,"ax",%progbits
 426              		.align	2
 427              		.global	CapSense_DpProcessCsxWidgetStatus
 428              		.thumb
 429              		.thumb_func
 430              		.type	CapSense_DpProcessCsxWidgetStatus, %function
 431              	CapSense_DpProcessCsxWidgetStatus:
 432              	.LFB129:
 678:Generated_Source\PSoC6/CapSense_Processing.c **** 
 679:Generated_Source\PSoC6/CapSense_Processing.c **** 
 680:Generated_Source\PSoC6/CapSense_Processing.c **** /*******************************************************************************
 681:Generated_Source\PSoC6/CapSense_Processing.c **** * Function Name: CapSense_DpProcessCsxWidgetStatus
 682:Generated_Source\PSoC6/CapSense_Processing.c **** ****************************************************************************//**
 683:Generated_Source\PSoC6/CapSense_Processing.c **** *
 684:Generated_Source\PSoC6/CapSense_Processing.c **** * \brief
 685:Generated_Source\PSoC6/CapSense_Processing.c **** *   Updates the status of the CSX widget in the Data Structure.
 686:Generated_Source\PSoC6/CapSense_Processing.c **** *
 687:Generated_Source\PSoC6/CapSense_Processing.c **** * \details
 688:Generated_Source\PSoC6/CapSense_Processing.c **** *  This API determines the type of widget and runs the appropriate function
 689:Generated_Source\PSoC6/CapSense_Processing.c **** *  that implements the status update algorithm for this type of widget.
 690:Generated_Source\PSoC6/CapSense_Processing.c **** *
 691:Generated_Source\PSoC6/CapSense_Processing.c **** *  When the widget-specific processing completes this API updates the snsStatus
 692:Generated_Source\PSoC6/CapSense_Processing.c **** *  and wdgtStatus registers in the data structure. The wdgtStatus register
 693:Generated_Source\PSoC6/CapSense_Processing.c **** *  is a bitmask were each bit corresponds to the specific widget identified by
 694:Generated_Source\PSoC6/CapSense_Processing.c **** *  the widget index. When the bit is set the widget is active (touched);
 695:Generated_Source\PSoC6/CapSense_Processing.c **** *
ARM GAS  C:\Users\ikomb\AppData\Local\Temp\ccYuI7tI.s 			page 21


 696:Generated_Source\PSoC6/CapSense_Processing.c **** *  Depending on the type of widget the snsStatus register may contain either
 697:Generated_Source\PSoC6/CapSense_Processing.c **** *  status of each widget node (active/non-active) or in case of the CSX Touchpad
 698:Generated_Source\PSoC6/CapSense_Processing.c **** *  is contains the number of touches. In both cases 0 means that widget is not
 699:Generated_Source\PSoC6/CapSense_Processing.c **** *  active.
 700:Generated_Source\PSoC6/CapSense_Processing.c **** *
 701:Generated_Source\PSoC6/CapSense_Processing.c **** * \param widgetId     The widget ID number.
 702:Generated_Source\PSoC6/CapSense_Processing.c **** * \param ptrFlashWdgt The pointer to the Flash Widget Object.
 703:Generated_Source\PSoC6/CapSense_Processing.c **** *
 704:Generated_Source\PSoC6/CapSense_Processing.c **** *******************************************************************************/
 705:Generated_Source\PSoC6/CapSense_Processing.c **** void CapSense_DpProcessCsxWidgetStatus(uint32 widgetId, CapSense_FLASH_WD_STRUCT const *ptrFlashWdg
 706:Generated_Source\PSoC6/CapSense_Processing.c **** {
 433              		.loc 1 706 0
 434              		.cfi_startproc
 435              		@ args = 0, pretend = 0, frame = 24
 436              		@ frame_needed = 1, uses_anonymous_args = 0
 437 0000 80B5     		push	{r7, lr}
 438              		.cfi_def_cfa_offset 8
 439              		.cfi_offset 7, -8
 440              		.cfi_offset 14, -4
 441 0002 86B0     		sub	sp, sp, #24
 442              		.cfi_def_cfa_offset 32
 443 0004 00AF     		add	r7, sp, #0
 444              		.cfi_def_cfa_register 7
 445 0006 7860     		str	r0, [r7, #4]
 446 0008 3960     		str	r1, [r7]
 707:Generated_Source\PSoC6/CapSense_Processing.c ****     uint32 sensorStatus;
 708:Generated_Source\PSoC6/CapSense_Processing.c ****     uint32 wdStatusIndex;
 709:Generated_Source\PSoC6/CapSense_Processing.c ****     uint32 wdStatusMask;
 710:Generated_Source\PSoC6/CapSense_Processing.c ****     CapSense_WD_TYPE_ENUM widgetType;
 711:Generated_Source\PSoC6/CapSense_Processing.c **** 
 712:Generated_Source\PSoC6/CapSense_Processing.c ****     widgetType = (CapSense_WD_TYPE_ENUM)ptrFlashWdgt->wdgtType;
 447              		.loc 1 712 0
 448 000a 3B68     		ldr	r3, [r7]
 449 000c 9B7E     		ldrb	r3, [r3, #26]
 450 000e FB74     		strb	r3, [r7, #19]
 713:Generated_Source\PSoC6/CapSense_Processing.c ****     sensorStatus = CapSense_dsRam.snsStatus[widgetId];
 451              		.loc 1 713 0
 452 0010 254A     		ldr	r2, .L38
 453 0012 7B68     		ldr	r3, [r7, #4]
 454 0014 1344     		add	r3, r3, r2
 455 0016 1833     		adds	r3, r3, #24
 456 0018 1B78     		ldrb	r3, [r3]	@ zero_extendqisi2
 457 001a 7B61     		str	r3, [r7, #20]
 714:Generated_Source\PSoC6/CapSense_Processing.c **** 
 715:Generated_Source\PSoC6/CapSense_Processing.c ****     switch (widgetType)
 458              		.loc 1 715 0
 459 001c FB7C     		ldrb	r3, [r7, #19]	@ zero_extendqisi2
 460 001e 012B     		cmp	r3, #1
 461 0020 05D1     		bne	.L36
 716:Generated_Source\PSoC6/CapSense_Processing.c ****     {
 717:Generated_Source\PSoC6/CapSense_Processing.c ****     #if (0u != CapSense_BUTTON_WIDGET_EN)
 718:Generated_Source\PSoC6/CapSense_Processing.c ****         case CapSense_WD_BUTTON_E:
 719:Generated_Source\PSoC6/CapSense_Processing.c ****             sensorStatus = CapSense_DpProcessButton(sensorStatus, ptrFlashWdgt);
 462              		.loc 1 719 0
 463 0022 3968     		ldr	r1, [r7]
 464 0024 7869     		ldr	r0, [r7, #20]
 465 0026 FFF7FEFF 		bl	CapSense_DpProcessButton
ARM GAS  C:\Users\ikomb\AppData\Local\Temp\ccYuI7tI.s 			page 22


 466 002a 7861     		str	r0, [r7, #20]
 720:Generated_Source\PSoC6/CapSense_Processing.c ****             break;
 467              		.loc 1 720 0
 468 002c 05E0     		b	.L33
 469              	.L36:
 721:Generated_Source\PSoC6/CapSense_Processing.c ****     #endif /* #if (0u != CapSense_BUTTON_WIDGET_EN) */
 722:Generated_Source\PSoC6/CapSense_Processing.c **** 
 723:Generated_Source\PSoC6/CapSense_Processing.c ****     #if (0u != CapSense_CSX_MATRIX_WIDGET_EN)
 724:Generated_Source\PSoC6/CapSense_Processing.c ****         case CapSense_WD_MATRIX_BUTTON_E:
 725:Generated_Source\PSoC6/CapSense_Processing.c ****             sensorStatus = CapSense_DpProcessButton(sensorStatus, ptrFlashWdgt);
 726:Generated_Source\PSoC6/CapSense_Processing.c ****             break;
 727:Generated_Source\PSoC6/CapSense_Processing.c ****     #endif /* #if (0u != CapSense_CSX_MATRIX_WIDGET_EN) */
 728:Generated_Source\PSoC6/CapSense_Processing.c **** 
 729:Generated_Source\PSoC6/CapSense_Processing.c ****     #if (0u != CapSense_CSX_TOUCHPAD_WIDGET_EN)
 730:Generated_Source\PSoC6/CapSense_Processing.c ****         case CapSense_WD_TOUCHPAD_E:
 731:Generated_Source\PSoC6/CapSense_Processing.c ****             sensorStatus = CapSense_DpProcessCsxTouchpad(sensorStatus, ptrFlashWdgt);
 732:Generated_Source\PSoC6/CapSense_Processing.c ****             break;
 733:Generated_Source\PSoC6/CapSense_Processing.c ****     #endif /* #if (0u != CapSense_CSX_TOUCHPAD_WIDGET_EN) */
 734:Generated_Source\PSoC6/CapSense_Processing.c **** 
 735:Generated_Source\PSoC6/CapSense_Processing.c ****     default:
 736:Generated_Source\PSoC6/CapSense_Processing.c ****         CY_ASSERT(0 != 0);
 470              		.loc 1 736 0
 471 002e 4FF43871 		mov	r1, #736
 472 0032 1E48     		ldr	r0, .L38+4
 473 0034 FFF7FEFF 		bl	Cy_SysLib_AssertFailed
 737:Generated_Source\PSoC6/CapSense_Processing.c ****         break;
 474              		.loc 1 737 0
 475 0038 00BF     		nop
 476              	.L33:
 738:Generated_Source\PSoC6/CapSense_Processing.c ****     }
 739:Generated_Source\PSoC6/CapSense_Processing.c **** 
 740:Generated_Source\PSoC6/CapSense_Processing.c ****     /* Update sensor status in the data structure */
 741:Generated_Source\PSoC6/CapSense_Processing.c ****     CapSense_dsRam.snsStatus[widgetId] = (CapSense_SNS_STS_TYPE)sensorStatus;
 477              		.loc 1 741 0
 478 003a 7B69     		ldr	r3, [r7, #20]
 479 003c D9B2     		uxtb	r1, r3
 480 003e 1A4A     		ldr	r2, .L38
 481 0040 7B68     		ldr	r3, [r7, #4]
 482 0042 1344     		add	r3, r3, r2
 483 0044 1833     		adds	r3, r3, #24
 484 0046 0A46     		mov	r2, r1
 485 0048 1A70     		strb	r2, [r3]
 742:Generated_Source\PSoC6/CapSense_Processing.c **** 
 743:Generated_Source\PSoC6/CapSense_Processing.c ****     /* The next two lines calculate index and bitmask of the widget status bit in the wdgtStatus ar
 744:Generated_Source\PSoC6/CapSense_Processing.c ****     wdStatusIndex = CapSense_GET_WDGT_STATUS_INDEX(widgetId);
 486              		.loc 1 744 0
 487 004a 7B68     		ldr	r3, [r7, #4]
 488 004c 5B09     		lsrs	r3, r3, #5
 489 004e FB60     		str	r3, [r7, #12]
 745:Generated_Source\PSoC6/CapSense_Processing.c ****     wdStatusMask = CapSense_GET_WDGT_STATUS_MASK(widgetId);
 490              		.loc 1 745 0
 491 0050 7B68     		ldr	r3, [r7, #4]
 492 0052 03F01F03 		and	r3, r3, #31
 493 0056 0122     		movs	r2, #1
 494 0058 02FA03F3 		lsl	r3, r2, r3
 495 005c BB60     		str	r3, [r7, #8]
 746:Generated_Source\PSoC6/CapSense_Processing.c **** 
ARM GAS  C:\Users\ikomb\AppData\Local\Temp\ccYuI7tI.s 			page 23


 747:Generated_Source\PSoC6/CapSense_Processing.c ****     /* Check if there are active sensors and update widget status accordingly */
 748:Generated_Source\PSoC6/CapSense_Processing.c ****     if (0u == sensorStatus)
 496              		.loc 1 748 0
 497 005e 7B69     		ldr	r3, [r7, #20]
 498 0060 002B     		cmp	r3, #0
 499 0062 0FD1     		bne	.L34
 749:Generated_Source\PSoC6/CapSense_Processing.c ****     {
 750:Generated_Source\PSoC6/CapSense_Processing.c ****         CapSense_dsRam.wdgtStatus[wdStatusIndex] &= ~wdStatusMask;
 500              		.loc 1 750 0
 501 0064 104A     		ldr	r2, .L38
 502 0066 FB68     		ldr	r3, [r7, #12]
 503 0068 0433     		adds	r3, r3, #4
 504 006a 9B00     		lsls	r3, r3, #2
 505 006c 1344     		add	r3, r3, r2
 506 006e 5A68     		ldr	r2, [r3, #4]
 507 0070 BB68     		ldr	r3, [r7, #8]
 508 0072 DB43     		mvns	r3, r3
 509 0074 1A40     		ands	r2, r2, r3
 510 0076 0C49     		ldr	r1, .L38
 511 0078 FB68     		ldr	r3, [r7, #12]
 512 007a 0433     		adds	r3, r3, #4
 513 007c 9B00     		lsls	r3, r3, #2
 514 007e 0B44     		add	r3, r3, r1
 515 0080 5A60     		str	r2, [r3, #4]
 751:Generated_Source\PSoC6/CapSense_Processing.c ****     }
 752:Generated_Source\PSoC6/CapSense_Processing.c ****     else
 753:Generated_Source\PSoC6/CapSense_Processing.c ****     {
 754:Generated_Source\PSoC6/CapSense_Processing.c ****         CapSense_dsRam.wdgtStatus[wdStatusIndex] |= wdStatusMask;
 755:Generated_Source\PSoC6/CapSense_Processing.c ****     }
 756:Generated_Source\PSoC6/CapSense_Processing.c **** }
 516              		.loc 1 756 0
 517 0082 0DE0     		b	.L37
 518              	.L34:
 754:Generated_Source\PSoC6/CapSense_Processing.c ****     }
 519              		.loc 1 754 0
 520 0084 084A     		ldr	r2, .L38
 521 0086 FB68     		ldr	r3, [r7, #12]
 522 0088 0433     		adds	r3, r3, #4
 523 008a 9B00     		lsls	r3, r3, #2
 524 008c 1344     		add	r3, r3, r2
 525 008e 5A68     		ldr	r2, [r3, #4]
 526 0090 BB68     		ldr	r3, [r7, #8]
 527 0092 1A43     		orrs	r2, r2, r3
 528 0094 0449     		ldr	r1, .L38
 529 0096 FB68     		ldr	r3, [r7, #12]
 530 0098 0433     		adds	r3, r3, #4
 531 009a 9B00     		lsls	r3, r3, #2
 532 009c 0B44     		add	r3, r3, r1
 533 009e 5A60     		str	r2, [r3, #4]
 534              	.L37:
 535              		.loc 1 756 0
 536 00a0 00BF     		nop
 537 00a2 1837     		adds	r7, r7, #24
 538              		.cfi_def_cfa_offset 8
 539 00a4 BD46     		mov	sp, r7
 540              		.cfi_def_cfa_register 13
 541              		@ sp needed
ARM GAS  C:\Users\ikomb\AppData\Local\Temp\ccYuI7tI.s 			page 24


 542 00a6 80BD     		pop	{r7, pc}
 543              	.L39:
 544              		.align	2
 545              	.L38:
 546 00a8 00000000 		.word	CapSense_dsRam
 547 00ac 00000000 		.word	.LC0
 548              		.cfi_endproc
 549              	.LFE129:
 550              		.size	CapSense_DpProcessCsxWidgetStatus, .-CapSense_DpProcessCsxWidgetStatus
 551              		.section	.text.CapSense_DpProcessCsdWidgetRawCounts,"ax",%progbits
 552              		.align	2
 553              		.global	CapSense_DpProcessCsdWidgetRawCounts
 554              		.thumb
 555              		.thumb_func
 556              		.type	CapSense_DpProcessCsdWidgetRawCounts, %function
 557              	CapSense_DpProcessCsdWidgetRawCounts:
 558              	.LFB130:
 757:Generated_Source\PSoC6/CapSense_Processing.c **** #endif /* #if CapSense_TOTAL_CSX_WIDGETS */
 758:Generated_Source\PSoC6/CapSense_Processing.c **** 
 759:Generated_Source\PSoC6/CapSense_Processing.c **** #if (0u != CapSense_TOTAL_CSD_WIDGETS)
 760:Generated_Source\PSoC6/CapSense_Processing.c **** /*******************************************************************************
 761:Generated_Source\PSoC6/CapSense_Processing.c **** * Function Name: CapSense_DpProcessCsdWidgetRawCounts
 762:Generated_Source\PSoC6/CapSense_Processing.c **** ****************************************************************************//**
 763:Generated_Source\PSoC6/CapSense_Processing.c **** *
 764:Generated_Source\PSoC6/CapSense_Processing.c **** * \brief
 765:Generated_Source\PSoC6/CapSense_Processing.c **** *   Performs default processing for the CSD widget raw counts.
 766:Generated_Source\PSoC6/CapSense_Processing.c **** *
 767:Generated_Source\PSoC6/CapSense_Processing.c **** * \details
 768:Generated_Source\PSoC6/CapSense_Processing.c **** *   Performs default processing for the CSD widget raw counts:
 769:Generated_Source\PSoC6/CapSense_Processing.c **** *    - Run Filters
 770:Generated_Source\PSoC6/CapSense_Processing.c **** *    - Update Thresholds (FW Auto-tuning)
 771:Generated_Source\PSoC6/CapSense_Processing.c **** *    - Update Baselines
 772:Generated_Source\PSoC6/CapSense_Processing.c **** *    - Update Differences.
 773:Generated_Source\PSoC6/CapSense_Processing.c **** *   The process is applied to all widget's sensors.
 774:Generated_Source\PSoC6/CapSense_Processing.c **** *
 775:Generated_Source\PSoC6/CapSense_Processing.c **** * \param ptrFlashWdgt The pointer to the Flash Widget Object.
 776:Generated_Source\PSoC6/CapSense_Processing.c **** *
 777:Generated_Source\PSoC6/CapSense_Processing.c **** * \return
 778:Generated_Source\PSoC6/CapSense_Processing.c **** *  Returns the status of the specified widget processing operation:
 779:Generated_Source\PSoC6/CapSense_Processing.c **** *  - CY_RET_SUCCESS if operation was successfully completed;
 780:Generated_Source\PSoC6/CapSense_Processing.c **** *  - CapSense_PROCESS_BASELINE_FAILED if baseline processing of any
 781:Generated_Source\PSoC6/CapSense_Processing.c **** *    sensor of the specified widget failed. The result is concatenated with the index
 782:Generated_Source\PSoC6/CapSense_Processing.c **** *    of failed sensor.
 783:Generated_Source\PSoC6/CapSense_Processing.c **** *
 784:Generated_Source\PSoC6/CapSense_Processing.c **** *******************************************************************************/
 785:Generated_Source\PSoC6/CapSense_Processing.c **** uint32 CapSense_DpProcessCsdWidgetRawCounts(CapSense_FLASH_WD_STRUCT const *ptrFlashWdgt)
 786:Generated_Source\PSoC6/CapSense_Processing.c **** {
 559              		.loc 1 786 0
 560              		.cfi_startproc
 561              		@ args = 0, pretend = 0, frame = 40
 562              		@ frame_needed = 1, uses_anonymous_args = 0
 563 0000 80B5     		push	{r7, lr}
 564              		.cfi_def_cfa_offset 8
 565              		.cfi_offset 7, -8
 566              		.cfi_offset 14, -4
 567 0002 8AB0     		sub	sp, sp, #40
 568              		.cfi_def_cfa_offset 48
ARM GAS  C:\Users\ikomb\AppData\Local\Temp\ccYuI7tI.s 			page 25


 569 0004 00AF     		add	r7, sp, #0
 570              		.cfi_def_cfa_register 7
 571 0006 7860     		str	r0, [r7, #4]
 787:Generated_Source\PSoC6/CapSense_Processing.c ****     uint32  result = CY_RET_SUCCESS;
 572              		.loc 1 787 0
 573 0008 0023     		movs	r3, #0
 574 000a 7B62     		str	r3, [r7, #36]
 788:Generated_Source\PSoC6/CapSense_Processing.c **** 
 789:Generated_Source\PSoC6/CapSense_Processing.c ****     #if (CapSense_ENABLE == CapSense_TST_BSLN_DUPLICATION_EN)
 790:Generated_Source\PSoC6/CapSense_Processing.c ****         uint32 bslnTstResult = CY_RET_SUCCESS;
 791:Generated_Source\PSoC6/CapSense_Processing.c ****     #endif /* (CapSense_ENABLE == CapSense_TST_BSLN_DUPLICATION_EN) */
 792:Generated_Source\PSoC6/CapSense_Processing.c **** 
 793:Generated_Source\PSoC6/CapSense_Processing.c ****     uint32  widgetType;
 794:Generated_Source\PSoC6/CapSense_Processing.c ****     uint32  snsId;
 795:Generated_Source\PSoC6/CapSense_Processing.c ****     CapSense_RAM_SNS_STRUCT *ptrSnsTmp;
 796:Generated_Source\PSoC6/CapSense_Processing.c ****     CapSense_RAM_WD_BASE_STRUCT *ptrRamWdgt;
 797:Generated_Source\PSoC6/CapSense_Processing.c **** 
 798:Generated_Source\PSoC6/CapSense_Processing.c ****     #if (0u != (CapSense_CSD_AUTOTUNE & CapSense_CSD_SS_TH_EN))
 799:Generated_Source\PSoC6/CapSense_Processing.c ****         /* The noise envelope data is available only when Full CSD Auto-Tuning is enabled */
 800:Generated_Source\PSoC6/CapSense_Processing.c ****         SMARTSENSE_CSD_NOISE_ENVELOPE_STRUCT *ptrNoiseEnvelope;
 801:Generated_Source\PSoC6/CapSense_Processing.c ****         #if (CapSense_ENABLE == CapSense_PROXIMITY_WIDGET_EN)
 802:Generated_Source\PSoC6/CapSense_Processing.c ****             uint32  proximityThreshold;
 803:Generated_Source\PSoC6/CapSense_Processing.c ****         #endif /* (0 != CapSense_PROXIMITY_WIDGET_EN) */
 804:Generated_Source\PSoC6/CapSense_Processing.c ****     #endif /* #if (0u != (CapSense_CSD_AUTOTUNE & CapSense_CSD_SS_TH_EN)) */
 805:Generated_Source\PSoC6/CapSense_Processing.c **** 
 806:Generated_Source\PSoC6/CapSense_Processing.c ****     #if (CapSense_ENABLE == CapSense_RC_FILTER_EN)
 807:Generated_Source\PSoC6/CapSense_Processing.c ****         CapSense_PTR_FILTER_VARIANT fltrHistV;
 808:Generated_Source\PSoC6/CapSense_Processing.c **** 
 809:Generated_Source\PSoC6/CapSense_Processing.c ****         /* Determine if widget type is proximity */
 810:Generated_Source\PSoC6/CapSense_Processing.c ****         uint32 isProxWdgt = (CapSense_GET_WIDGET_TYPE(ptrFlashWdgt) == CapSense_WD_PROXIMITY_E) ? 1
 575              		.loc 1 810 0
 576 000c 7B68     		ldr	r3, [r7, #4]
 577 000e 9B7E     		ldrb	r3, [r3, #26]	@ zero_extendqisi2
 578 0010 062B     		cmp	r3, #6
 579 0012 01D1     		bne	.L41
 580              		.loc 1 810 0 is_stmt 0 discriminator 1
 581 0014 0123     		movs	r3, #1
 582 0016 00E0     		b	.L42
 583              	.L41:
 584              		.loc 1 810 0 discriminator 2
 585 0018 0023     		movs	r3, #0
 586              	.L42:
 587              		.loc 1 810 0 discriminator 4
 588 001a 7B61     		str	r3, [r7, #20]
 811:Generated_Source\PSoC6/CapSense_Processing.c **** 
 812:Generated_Source\PSoC6/CapSense_Processing.c ****         /* Get pointer to the filter history object */
 813:Generated_Source\PSoC6/CapSense_Processing.c ****         fltrHistV.ptr = ptrFlashWdgt->ptr2FltrHistory;
 589              		.loc 1 813 0 is_stmt 1 discriminator 4
 590 001c 7B68     		ldr	r3, [r7, #4]
 591 001e DB68     		ldr	r3, [r3, #12]
 592 0020 BB60     		str	r3, [r7, #8]
 814:Generated_Source\PSoC6/CapSense_Processing.c ****     #endif /* #if (CapSense_ENABLE == CapSense_RC_FILTER_EN) */
 815:Generated_Source\PSoC6/CapSense_Processing.c **** 
 816:Generated_Source\PSoC6/CapSense_Processing.c ****     ptrSnsTmp = ptrFlashWdgt->ptr2SnsRam;
 593              		.loc 1 816 0 discriminator 4
 594 0022 7B68     		ldr	r3, [r7, #4]
 595 0024 9B68     		ldr	r3, [r3, #8]
ARM GAS  C:\Users\ikomb\AppData\Local\Temp\ccYuI7tI.s 			page 26


 596 0026 FB61     		str	r3, [r7, #28]
 817:Generated_Source\PSoC6/CapSense_Processing.c ****     ptrRamWdgt = (CapSense_RAM_WD_BASE_STRUCT *)ptrFlashWdgt->ptr2WdgtRam;
 597              		.loc 1 817 0 discriminator 4
 598 0028 7B68     		ldr	r3, [r7, #4]
 599 002a 5B68     		ldr	r3, [r3, #4]
 600 002c 3B61     		str	r3, [r7, #16]
 818:Generated_Source\PSoC6/CapSense_Processing.c ****     widgetType = ptrFlashWdgt->wdgtType;
 601              		.loc 1 818 0 discriminator 4
 602 002e 7B68     		ldr	r3, [r7, #4]
 603 0030 9B7E     		ldrb	r3, [r3, #26]	@ zero_extendqisi2
 604 0032 FB60     		str	r3, [r7, #12]
 819:Generated_Source\PSoC6/CapSense_Processing.c **** 
 820:Generated_Source\PSoC6/CapSense_Processing.c ****     #if (0u != (CapSense_CSD_AUTOTUNE & CapSense_CSD_SS_TH_EN))
 821:Generated_Source\PSoC6/CapSense_Processing.c ****         ptrNoiseEnvelope = ptrFlashWdgt->ptr2NoiseEnvlp;
 605              		.loc 1 821 0 discriminator 4
 606 0034 7B68     		ldr	r3, [r7, #4]
 607 0036 5B6A     		ldr	r3, [r3, #36]
 608 0038 BB61     		str	r3, [r7, #24]
 822:Generated_Source\PSoC6/CapSense_Processing.c ****     #endif /* #if (0u != (CapSense_CSD_AUTOTUNE & CapSense_CSD_SS_TH_EN)) */
 823:Generated_Source\PSoC6/CapSense_Processing.c **** 
 824:Generated_Source\PSoC6/CapSense_Processing.c ****     /* Iterate through all widget's sensors */
 825:Generated_Source\PSoC6/CapSense_Processing.c ****     for(snsId = 0u; snsId < ptrFlashWdgt->totalNumSns; snsId++)
 609              		.loc 1 825 0 discriminator 4
 610 003a 0023     		movs	r3, #0
 611 003c 3B62     		str	r3, [r7, #32]
 612 003e 2AE0     		b	.L43
 613              	.L45:
 826:Generated_Source\PSoC6/CapSense_Processing.c ****     {
 827:Generated_Source\PSoC6/CapSense_Processing.c ****         /* Run all enabled filter on specified widget's sensor */
 828:Generated_Source\PSoC6/CapSense_Processing.c ****         #if (CapSense_ENABLE == CapSense_RC_FILTER_EN)
 829:Generated_Source\PSoC6/CapSense_Processing.c ****             CapSense_FtRunEnabledFiltersInternal(fltrHistV, ptrSnsTmp, widgetType);
 614              		.loc 1 829 0
 615 0040 FA68     		ldr	r2, [r7, #12]
 616 0042 F969     		ldr	r1, [r7, #28]
 617 0044 B868     		ldr	r0, [r7, #8]
 618 0046 FFF7FEFF 		bl	CapSense_FtRunEnabledFiltersInternal
 830:Generated_Source\PSoC6/CapSense_Processing.c ****             #if (CapSense_ALP_FILTER_EN)
 831:Generated_Source\PSoC6/CapSense_Processing.c ****                 CapSense_ConfigRunALPInternal(fltrHistV, ptrRamWdgt, ptrSnsTmp, widgetType);
 832:Generated_Source\PSoC6/CapSense_Processing.c ****             #endif
 833:Generated_Source\PSoC6/CapSense_Processing.c ****         #endif /* #if (CapSense_ENABLE == CapSense_RC_FILTER_EN) */
 834:Generated_Source\PSoC6/CapSense_Processing.c **** 
 835:Generated_Source\PSoC6/CapSense_Processing.c ****         /* Run auto-tuning activities */
 836:Generated_Source\PSoC6/CapSense_Processing.c ****         #if (0u != (CapSense_CSD_AUTOTUNE & CapSense_CSD_SS_TH_EN))
 837:Generated_Source\PSoC6/CapSense_Processing.c ****             SmartSense_RunNoiseEnvelope(ptrSnsTmp->raw[0u], ptrRamWdgt->sigPFC, ptrNoiseEnvelope);
 619              		.loc 1 837 0
 620 004a FB69     		ldr	r3, [r7, #28]
 621 004c 1888     		ldrh	r0, [r3]
 622 004e 3B69     		ldr	r3, [r7, #16]
 623 0050 1B8A     		ldrh	r3, [r3, #16]
 624 0052 BA69     		ldr	r2, [r7, #24]
 625 0054 1946     		mov	r1, r3
 626 0056 FFF7FEFF 		bl	SmartSense_RunNoiseEnvelope
 838:Generated_Source\PSoC6/CapSense_Processing.c ****             CapSense_DpUpdateThresholds(ptrRamWdgt, ptrNoiseEnvelope, snsId);
 627              		.loc 1 838 0
 628 005a 3A6A     		ldr	r2, [r7, #32]
 629 005c B969     		ldr	r1, [r7, #24]
 630 005e 3869     		ldr	r0, [r7, #16]
ARM GAS  C:\Users\ikomb\AppData\Local\Temp\ccYuI7tI.s 			page 27


 631 0060 FFF7FEFF 		bl	CapSense_DpUpdateThresholds
 839:Generated_Source\PSoC6/CapSense_Processing.c **** 
 840:Generated_Source\PSoC6/CapSense_Processing.c ****             /* Calculate Proximity Touch Threshold in SmartSense mode based on Finger Threshold and
 841:Generated_Source\PSoC6/CapSense_Processing.c ****             #if (CapSense_ENABLE == CapSense_PROXIMITY_WIDGET_EN)
 842:Generated_Source\PSoC6/CapSense_Processing.c ****                 if (CapSense_WD_PROXIMITY_E == CapSense_GET_WIDGET_TYPE(ptrFlashWdgt))
 843:Generated_Source\PSoC6/CapSense_Processing.c ****                 {
 844:Generated_Source\PSoC6/CapSense_Processing.c ****                     proximityThreshold = ((uint32)ptrRamWdgt->fingerTh * CapSense_PROX_TOUCH_COEFF)
 845:Generated_Source\PSoC6/CapSense_Processing.c ****                     if ((((1Lu) << CapSense_THRESHOLD_SIZE) - 1u) < proximityThreshold)
 846:Generated_Source\PSoC6/CapSense_Processing.c ****                     {
 847:Generated_Source\PSoC6/CapSense_Processing.c ****                         proximityThreshold = ((1Lu) << CapSense_THRESHOLD_SIZE) - 1u;
 848:Generated_Source\PSoC6/CapSense_Processing.c ****                     }
 849:Generated_Source\PSoC6/CapSense_Processing.c ****                     ((CapSense_RAM_WD_PROXIMITY_STRUCT *)ptrFlashWdgt->ptr2WdgtRam)->proxTouchTh =
 850:Generated_Source\PSoC6/CapSense_Processing.c ****                         (CapSense_THRESHOLD_TYPE)proximityThreshold;
 851:Generated_Source\PSoC6/CapSense_Processing.c ****                 }
 852:Generated_Source\PSoC6/CapSense_Processing.c ****             #endif /* (0 != CapSense_PROXIMITY_WIDGET_EN) */
 853:Generated_Source\PSoC6/CapSense_Processing.c **** 
 854:Generated_Source\PSoC6/CapSense_Processing.c ****             /* Move to next noise-envelope object */
 855:Generated_Source\PSoC6/CapSense_Processing.c ****             ptrNoiseEnvelope++;
 632              		.loc 1 855 0
 633 0064 BB69     		ldr	r3, [r7, #24]
 634 0066 0C33     		adds	r3, r3, #12
 635 0068 BB61     		str	r3, [r7, #24]
 856:Generated_Source\PSoC6/CapSense_Processing.c ****         #endif /* (0u != (CapSense_CSD_AUTOTUNE & CapSense_CSD_SS_TH_EN)) */
 857:Generated_Source\PSoC6/CapSense_Processing.c **** 
 858:Generated_Source\PSoC6/CapSense_Processing.c ****         #if (CapSense_ENABLE == CapSense_TST_BSLN_DUPLICATION_EN)
 859:Generated_Source\PSoC6/CapSense_Processing.c ****             bslnTstResult = CapSense_FtUpdateBaseline(ptrRamWdgt, ptrSnsTmp, widgetType);
 860:Generated_Source\PSoC6/CapSense_Processing.c ****             if ((CY_RET_SUCCESS != bslnTstResult) && (CY_RET_SUCCESS == result))
 861:Generated_Source\PSoC6/CapSense_Processing.c ****             {
 862:Generated_Source\PSoC6/CapSense_Processing.c ****                 result = snsId | CapSense_PROCESS_BASELINE_FAILED;
 863:Generated_Source\PSoC6/CapSense_Processing.c ****             }
 864:Generated_Source\PSoC6/CapSense_Processing.c ****         #else /* (CapSense_ENABLE == CapSense_TST_BSLN_DUPLICATION_EN) */
 865:Generated_Source\PSoC6/CapSense_Processing.c ****             result = CapSense_FtUpdateBaseline(ptrRamWdgt, ptrSnsTmp, widgetType);
 636              		.loc 1 865 0
 637 006a FA68     		ldr	r2, [r7, #12]
 638 006c F969     		ldr	r1, [r7, #28]
 639 006e 3869     		ldr	r0, [r7, #16]
 640 0070 FFF7FEFF 		bl	CapSense_FtUpdateBaseline
 641 0074 7862     		str	r0, [r7, #36]
 866:Generated_Source\PSoC6/CapSense_Processing.c ****         #endif /* (CapSense_ENABLE == CapSense_TST_BSLN_DUPLICATION_EN) */
 867:Generated_Source\PSoC6/CapSense_Processing.c **** 
 868:Generated_Source\PSoC6/CapSense_Processing.c ****         CapSense_DpUpdateDifferences(ptrRamWdgt, ptrSnsTmp);
 642              		.loc 1 868 0
 643 0076 F969     		ldr	r1, [r7, #28]
 644 0078 3869     		ldr	r0, [r7, #16]
 645 007a FFF7FEFF 		bl	CapSense_DpUpdateDifferences
 869:Generated_Source\PSoC6/CapSense_Processing.c **** 
 870:Generated_Source\PSoC6/CapSense_Processing.c ****         /* Move to next sensor object */
 871:Generated_Source\PSoC6/CapSense_Processing.c ****         ptrSnsTmp++;
 646              		.loc 1 871 0
 647 007e FB69     		ldr	r3, [r7, #28]
 648 0080 0A33     		adds	r3, r3, #10
 649 0082 FB61     		str	r3, [r7, #28]
 872:Generated_Source\PSoC6/CapSense_Processing.c **** 
 873:Generated_Source\PSoC6/CapSense_Processing.c ****         #if (CapSense_ENABLE == CapSense_RC_FILTER_EN)
 874:Generated_Source\PSoC6/CapSense_Processing.c ****             /* Move to the next filter history object */
 875:Generated_Source\PSoC6/CapSense_Processing.c ****             CapSense_INC_FLTR_OBJ_VARIANT(isProxWdgt, fltrHistV);
 650              		.loc 1 875 0
ARM GAS  C:\Users\ikomb\AppData\Local\Temp\ccYuI7tI.s 			page 28


 651 0084 7B69     		ldr	r3, [r7, #20]
 652 0086 002B     		cmp	r3, #0
 653 0088 02D1     		bne	.L44
 654              		.loc 1 875 0 is_stmt 0 discriminator 1
 655 008a BB68     		ldr	r3, [r7, #8]
 656 008c 0A33     		adds	r3, r3, #10
 657 008e BB60     		str	r3, [r7, #8]
 658              	.L44:
 825:Generated_Source\PSoC6/CapSense_Processing.c ****     {
 659              		.loc 1 825 0 is_stmt 1 discriminator 2
 660 0090 3B6A     		ldr	r3, [r7, #32]
 661 0092 0133     		adds	r3, r3, #1
 662 0094 3B62     		str	r3, [r7, #32]
 663              	.L43:
 825:Generated_Source\PSoC6/CapSense_Processing.c ****     {
 664              		.loc 1 825 0 is_stmt 0 discriminator 1
 665 0096 7B68     		ldr	r3, [r7, #4]
 666 0098 1B8B     		ldrh	r3, [r3, #24]
 667 009a 1A46     		mov	r2, r3
 668 009c 3B6A     		ldr	r3, [r7, #32]
 669 009e 9A42     		cmp	r2, r3
 670 00a0 CED8     		bhi	.L45
 876:Generated_Source\PSoC6/CapSense_Processing.c ****         #endif /* #if (CapSense_ENABLE == CapSense_RC_FILTER_EN) */
 877:Generated_Source\PSoC6/CapSense_Processing.c ****     }
 878:Generated_Source\PSoC6/CapSense_Processing.c ****     return result;
 671              		.loc 1 878 0 is_stmt 1
 672 00a2 7B6A     		ldr	r3, [r7, #36]
 879:Generated_Source\PSoC6/CapSense_Processing.c **** }
 673              		.loc 1 879 0
 674 00a4 1846     		mov	r0, r3
 675 00a6 2837     		adds	r7, r7, #40
 676              		.cfi_def_cfa_offset 8
 677 00a8 BD46     		mov	sp, r7
 678              		.cfi_def_cfa_register 13
 679              		@ sp needed
 680 00aa 80BD     		pop	{r7, pc}
 681              		.cfi_endproc
 682              	.LFE130:
 683              		.size	CapSense_DpProcessCsdWidgetRawCounts, .-CapSense_DpProcessCsdWidgetRawCounts
 684              		.section	.text.CapSense_DpProcessCsdSensorRawCountsExt,"ax",%progbits
 685              		.align	2
 686              		.global	CapSense_DpProcessCsdSensorRawCountsExt
 687              		.thumb
 688              		.thumb_func
 689              		.type	CapSense_DpProcessCsdSensorRawCountsExt, %function
 690              	CapSense_DpProcessCsdSensorRawCountsExt:
 691              	.LFB131:
 880:Generated_Source\PSoC6/CapSense_Processing.c **** 
 881:Generated_Source\PSoC6/CapSense_Processing.c **** 
 882:Generated_Source\PSoC6/CapSense_Processing.c **** /*******************************************************************************
 883:Generated_Source\PSoC6/CapSense_Processing.c **** * Function Name: CapSense_DpProcessCsdSensorRawCountsExt
 884:Generated_Source\PSoC6/CapSense_Processing.c **** ****************************************************************************//**
 885:Generated_Source\PSoC6/CapSense_Processing.c **** *
 886:Generated_Source\PSoC6/CapSense_Processing.c **** * \brief
 887:Generated_Source\PSoC6/CapSense_Processing.c **** *   Performs customized processing of the CSD sensor raw counts.
 888:Generated_Source\PSoC6/CapSense_Processing.c **** *
 889:Generated_Source\PSoC6/CapSense_Processing.c **** * \details
ARM GAS  C:\Users\ikomb\AppData\Local\Temp\ccYuI7tI.s 			page 29


 890:Generated_Source\PSoC6/CapSense_Processing.c **** *   Performs customized processing of the CSD sensor raw counts.
 891:Generated_Source\PSoC6/CapSense_Processing.c **** *
 892:Generated_Source\PSoC6/CapSense_Processing.c **** *   Note that this API updates data associated only with the sensor. It cannot be used to update
 893:Generated_Source\PSoC6/CapSense_Processing.c **** *   widget status.
 894:Generated_Source\PSoC6/CapSense_Processing.c **** *
 895:Generated_Source\PSoC6/CapSense_Processing.c **** * \param ptrFlashWdgt The pointer to the Flash widget structure.
 896:Generated_Source\PSoC6/CapSense_Processing.c **** * \param curSnsPtr    The pointer to the sensor object in RAM.
 897:Generated_Source\PSoC6/CapSense_Processing.c **** * \param fltrHistV    The pointer to the Filter History Object in RAM.
 898:Generated_Source\PSoC6/CapSense_Processing.c **** * \param mode         The bit-mask with the data processing tasks to be executed.
 899:Generated_Source\PSoC6/CapSense_Processing.c **** *   The mode parameters can take the following values:
 900:Generated_Source\PSoC6/CapSense_Processing.c **** *    - CapSense_PROCESS_FILTER     (0x01) Run Firmware Filter
 901:Generated_Source\PSoC6/CapSense_Processing.c **** *    - CapSense_PROCESS_BASELINE   (0x02) Update Baselines
 902:Generated_Source\PSoC6/CapSense_Processing.c **** *    - CapSense_PROCESS_DIFFCOUNTS (0x04) Update Difference Counts
 903:Generated_Source\PSoC6/CapSense_Processing.c **** *    - CapSense_PROCESS_CALC_NOISE (0x08) Calculate Noise (only if FW Tuning is enabled)
 904:Generated_Source\PSoC6/CapSense_Processing.c **** *    - CapSense_PROCESS_THRESHOLDS (0x10) Update Thresholds (only if FW Tuning is enabled)
 905:Generated_Source\PSoC6/CapSense_Processing.c **** *    - CapSense_PROCESS_ALL               Execute all tasks
 906:Generated_Source\PSoC6/CapSense_Processing.c **** *
 907:Generated_Source\PSoC6/CapSense_Processing.c **** * \return
 908:Generated_Source\PSoC6/CapSense_Processing.c **** *  Returns the status of the specified sensor processing operation:
 909:Generated_Source\PSoC6/CapSense_Processing.c **** *  - CY_RET_SUCCESS if operation was successfully completed;
 910:Generated_Source\PSoC6/CapSense_Processing.c **** *  - CapSense_PROCESS_BASELINE_FAILED if baseline processing of any
 911:Generated_Source\PSoC6/CapSense_Processing.c **** *    sensor of the specified widget failed. The result is concatenated with the index
 912:Generated_Source\PSoC6/CapSense_Processing.c **** *    of failed sensor.
 913:Generated_Source\PSoC6/CapSense_Processing.c **** *
 914:Generated_Source\PSoC6/CapSense_Processing.c **** *******************************************************************************/
 915:Generated_Source\PSoC6/CapSense_Processing.c **** uint32 CapSense_DpProcessCsdSensorRawCountsExt(
 916:Generated_Source\PSoC6/CapSense_Processing.c ****                 CapSense_FLASH_WD_STRUCT const *ptrFlashWdgt,
 917:Generated_Source\PSoC6/CapSense_Processing.c ****                 CapSense_RAM_SNS_STRUCT *curSnsPtr,
 918:Generated_Source\PSoC6/CapSense_Processing.c ****                 CapSense_PTR_FILTER_VARIANT fltrHistV,
 919:Generated_Source\PSoC6/CapSense_Processing.c ****                  uint32 mode)
 920:Generated_Source\PSoC6/CapSense_Processing.c **** {
 692              		.loc 1 920 0
 693              		.cfi_startproc
 694              		@ args = 0, pretend = 0, frame = 32
 695              		@ frame_needed = 1, uses_anonymous_args = 0
 696 0000 80B5     		push	{r7, lr}
 697              		.cfi_def_cfa_offset 8
 698              		.cfi_offset 7, -8
 699              		.cfi_offset 14, -4
 700 0002 88B0     		sub	sp, sp, #32
 701              		.cfi_def_cfa_offset 40
 702 0004 00AF     		add	r7, sp, #0
 703              		.cfi_def_cfa_register 7
 704 0006 F860     		str	r0, [r7, #12]
 705 0008 B960     		str	r1, [r7, #8]
 706 000a 7A60     		str	r2, [r7, #4]
 707 000c 3B60     		str	r3, [r7]
 921:Generated_Source\PSoC6/CapSense_Processing.c ****     uint32 result = CY_RET_SUCCESS;
 708              		.loc 1 921 0
 709 000e 0023     		movs	r3, #0
 710 0010 FB61     		str	r3, [r7, #28]
 922:Generated_Source\PSoC6/CapSense_Processing.c ****     uint32  widgetType;
 923:Generated_Source\PSoC6/CapSense_Processing.c ****     CapSense_RAM_WD_BASE_STRUCT *ptrRamWdgt;
 924:Generated_Source\PSoC6/CapSense_Processing.c **** 
 925:Generated_Source\PSoC6/CapSense_Processing.c ****     #if (0u != (CapSense_CSD_AUTOTUNE & CapSense_CSD_SS_TH_EN))
 926:Generated_Source\PSoC6/CapSense_Processing.c ****         SMARTSENSE_CSD_NOISE_ENVELOPE_STRUCT *ptrNoiseEnvelope;
 927:Generated_Source\PSoC6/CapSense_Processing.c ****         #if (CapSense_ENABLE == CapSense_PROXIMITY_WIDGET_EN)
ARM GAS  C:\Users\ikomb\AppData\Local\Temp\ccYuI7tI.s 			page 30


 928:Generated_Source\PSoC6/CapSense_Processing.c ****             uint32  proximityThreshold;
 929:Generated_Source\PSoC6/CapSense_Processing.c ****         #endif /* (0 != CapSense_PROXIMITY_WIDGET_EN) */
 930:Generated_Source\PSoC6/CapSense_Processing.c **** 
 931:Generated_Source\PSoC6/CapSense_Processing.c ****         /* Need to specify pointer to corresponding sensor's noise-envelope object.*/
 932:Generated_Source\PSoC6/CapSense_Processing.c ****         ptrNoiseEnvelope = ptrFlashWdgt->ptr2NoiseEnvlp;
 711              		.loc 1 932 0
 712 0012 FB68     		ldr	r3, [r7, #12]
 713 0014 5B6A     		ldr	r3, [r3, #36]
 714 0016 BB61     		str	r3, [r7, #24]
 933:Generated_Source\PSoC6/CapSense_Processing.c ****     #endif /* (0u != (CapSense_CSD_AUTOTUNE & CapSense_CSD_SS_TH_EN)) */
 934:Generated_Source\PSoC6/CapSense_Processing.c **** 
 935:Generated_Source\PSoC6/CapSense_Processing.c ****     widgetType = ptrFlashWdgt->wdgtType;
 715              		.loc 1 935 0
 716 0018 FB68     		ldr	r3, [r7, #12]
 717 001a 9B7E     		ldrb	r3, [r3, #26]	@ zero_extendqisi2
 718 001c 7B61     		str	r3, [r7, #20]
 936:Generated_Source\PSoC6/CapSense_Processing.c ****     ptrRamWdgt = (CapSense_RAM_WD_BASE_STRUCT *)ptrFlashWdgt->ptr2WdgtRam;
 719              		.loc 1 936 0
 720 001e FB68     		ldr	r3, [r7, #12]
 721 0020 5B68     		ldr	r3, [r3, #4]
 722 0022 3B61     		str	r3, [r7, #16]
 937:Generated_Source\PSoC6/CapSense_Processing.c **** 
 938:Generated_Source\PSoC6/CapSense_Processing.c ****     #if (CapSense_ENABLE == CapSense_RC_FILTER_EN)
 939:Generated_Source\PSoC6/CapSense_Processing.c ****         if (0u != (mode & CapSense_PROCESS_FILTER))
 723              		.loc 1 939 0
 724 0024 3B68     		ldr	r3, [r7]
 725 0026 03F00103 		and	r3, r3, #1
 726 002a 002B     		cmp	r3, #0
 727 002c 04D0     		beq	.L48
 940:Generated_Source\PSoC6/CapSense_Processing.c ****         {
 941:Generated_Source\PSoC6/CapSense_Processing.c ****             CapSense_FtRunEnabledFiltersInternal(fltrHistV, curSnsPtr, widgetType);
 728              		.loc 1 941 0
 729 002e 7A69     		ldr	r2, [r7, #20]
 730 0030 B968     		ldr	r1, [r7, #8]
 731 0032 7868     		ldr	r0, [r7, #4]
 732 0034 FFF7FEFF 		bl	CapSense_FtRunEnabledFiltersInternal
 733              	.L48:
 942:Generated_Source\PSoC6/CapSense_Processing.c ****             #if (CapSense_ALP_FILTER_EN)
 943:Generated_Source\PSoC6/CapSense_Processing.c ****                 CapSense_ConfigRunALPInternal(fltrHistV, ptrRamWdgt, curSnsPtr, widgetType);
 944:Generated_Source\PSoC6/CapSense_Processing.c ****             #endif
 945:Generated_Source\PSoC6/CapSense_Processing.c ****         }
 946:Generated_Source\PSoC6/CapSense_Processing.c ****     #else
 947:Generated_Source\PSoC6/CapSense_Processing.c ****         (void)fltrHistV; /* This parameter is unused in such configurations */
 948:Generated_Source\PSoC6/CapSense_Processing.c ****     #endif /* #if (CapSense_ENABLE == CapSense_RC_FILTER_EN) */
 949:Generated_Source\PSoC6/CapSense_Processing.c **** 
 950:Generated_Source\PSoC6/CapSense_Processing.c ****     #if (0u != (CapSense_CSD_AUTOTUNE & CapSense_CSD_SS_TH_EN))
 951:Generated_Source\PSoC6/CapSense_Processing.c ****         if (0u != (mode & CapSense_PROCESS_CALC_NOISE))
 734              		.loc 1 951 0
 735 0038 3B68     		ldr	r3, [r7]
 736 003a 03F00803 		and	r3, r3, #8
 737 003e 002B     		cmp	r3, #0
 738 0040 07D0     		beq	.L49
 952:Generated_Source\PSoC6/CapSense_Processing.c ****         {
 953:Generated_Source\PSoC6/CapSense_Processing.c ****             SmartSense_RunNoiseEnvelope(curSnsPtr->raw[0u], ptrRamWdgt->sigPFC, ptrNoiseEnvelope);
 739              		.loc 1 953 0
 740 0042 BB68     		ldr	r3, [r7, #8]
 741 0044 1888     		ldrh	r0, [r3]
ARM GAS  C:\Users\ikomb\AppData\Local\Temp\ccYuI7tI.s 			page 31


 742 0046 3B69     		ldr	r3, [r7, #16]
 743 0048 1B8A     		ldrh	r3, [r3, #16]
 744 004a BA69     		ldr	r2, [r7, #24]
 745 004c 1946     		mov	r1, r3
 746 004e FFF7FEFF 		bl	SmartSense_RunNoiseEnvelope
 747              	.L49:
 954:Generated_Source\PSoC6/CapSense_Processing.c ****         }
 955:Generated_Source\PSoC6/CapSense_Processing.c **** 
 956:Generated_Source\PSoC6/CapSense_Processing.c ****         if (0u != (mode & CapSense_PROCESS_THRESHOLDS))
 748              		.loc 1 956 0
 749 0052 3B68     		ldr	r3, [r7]
 750 0054 03F01003 		and	r3, r3, #16
 751 0058 002B     		cmp	r3, #0
 752 005a 04D0     		beq	.L50
 957:Generated_Source\PSoC6/CapSense_Processing.c ****         {
 958:Generated_Source\PSoC6/CapSense_Processing.c ****             CapSense_DpUpdateThresholds(ptrRamWdgt, ptrNoiseEnvelope, 0u);
 753              		.loc 1 958 0
 754 005c 0022     		movs	r2, #0
 755 005e B969     		ldr	r1, [r7, #24]
 756 0060 3869     		ldr	r0, [r7, #16]
 757 0062 FFF7FEFF 		bl	CapSense_DpUpdateThresholds
 758              	.L50:
 959:Generated_Source\PSoC6/CapSense_Processing.c **** 
 960:Generated_Source\PSoC6/CapSense_Processing.c ****             /* Calculate Proximity Touch Threshold in SmartSense mode based on Finger Threshold and
 961:Generated_Source\PSoC6/CapSense_Processing.c ****             #if (CapSense_ENABLE == CapSense_PROXIMITY_WIDGET_EN)
 962:Generated_Source\PSoC6/CapSense_Processing.c ****                 if (CapSense_WD_PROXIMITY_E == CapSense_GET_WIDGET_TYPE(ptrFlashWdgt))
 963:Generated_Source\PSoC6/CapSense_Processing.c ****                 {
 964:Generated_Source\PSoC6/CapSense_Processing.c ****                     proximityThreshold = ((uint32)ptrRamWdgt->fingerTh * CapSense_PROX_TOUCH_COEFF)
 965:Generated_Source\PSoC6/CapSense_Processing.c ****                     if ((((1Lu) << CapSense_THRESHOLD_SIZE) - 1u) < proximityThreshold)
 966:Generated_Source\PSoC6/CapSense_Processing.c ****                     {
 967:Generated_Source\PSoC6/CapSense_Processing.c ****                         proximityThreshold = ((1Lu) << CapSense_THRESHOLD_SIZE) - 1u;
 968:Generated_Source\PSoC6/CapSense_Processing.c ****                     }
 969:Generated_Source\PSoC6/CapSense_Processing.c ****                     ((CapSense_RAM_WD_PROXIMITY_STRUCT *)ptrFlashWdgt->ptr2WdgtRam)->proxTouchTh =
 970:Generated_Source\PSoC6/CapSense_Processing.c ****                         (CapSense_THRESHOLD_TYPE)proximityThreshold;
 971:Generated_Source\PSoC6/CapSense_Processing.c ****                 }
 972:Generated_Source\PSoC6/CapSense_Processing.c ****             #endif /* (0 != CapSense_PROXIMITY_WIDGET_EN) */
 973:Generated_Source\PSoC6/CapSense_Processing.c ****         }
 974:Generated_Source\PSoC6/CapSense_Processing.c ****     #endif /* #if (0u != (CapSense_CSD_AUTOTUNE & CapSense_CSD_SS_TH_EN)) */
 975:Generated_Source\PSoC6/CapSense_Processing.c **** 
 976:Generated_Source\PSoC6/CapSense_Processing.c ****     if (0u != (mode & CapSense_PROCESS_BASELINE))
 759              		.loc 1 976 0
 760 0066 3B68     		ldr	r3, [r7]
 761 0068 03F00203 		and	r3, r3, #2
 762 006c 002B     		cmp	r3, #0
 763 006e 05D0     		beq	.L51
 977:Generated_Source\PSoC6/CapSense_Processing.c ****     {
 978:Generated_Source\PSoC6/CapSense_Processing.c ****         result = CapSense_FtUpdateBaseline(ptrRamWdgt, curSnsPtr, widgetType);
 764              		.loc 1 978 0
 765 0070 7A69     		ldr	r2, [r7, #20]
 766 0072 B968     		ldr	r1, [r7, #8]
 767 0074 3869     		ldr	r0, [r7, #16]
 768 0076 FFF7FEFF 		bl	CapSense_FtUpdateBaseline
 769 007a F861     		str	r0, [r7, #28]
 770              	.L51:
 979:Generated_Source\PSoC6/CapSense_Processing.c ****     }
 980:Generated_Source\PSoC6/CapSense_Processing.c **** 
 981:Generated_Source\PSoC6/CapSense_Processing.c ****     if (0u != (mode & CapSense_PROCESS_DIFFCOUNTS))
ARM GAS  C:\Users\ikomb\AppData\Local\Temp\ccYuI7tI.s 			page 32


 771              		.loc 1 981 0
 772 007c 3B68     		ldr	r3, [r7]
 773 007e 03F00403 		and	r3, r3, #4
 774 0082 002B     		cmp	r3, #0
 775 0084 03D0     		beq	.L52
 982:Generated_Source\PSoC6/CapSense_Processing.c ****     {
 983:Generated_Source\PSoC6/CapSense_Processing.c ****         CapSense_DpUpdateDifferences(ptrRamWdgt, curSnsPtr);
 776              		.loc 1 983 0
 777 0086 B968     		ldr	r1, [r7, #8]
 778 0088 3869     		ldr	r0, [r7, #16]
 779 008a FFF7FEFF 		bl	CapSense_DpUpdateDifferences
 780              	.L52:
 984:Generated_Source\PSoC6/CapSense_Processing.c ****     }
 985:Generated_Source\PSoC6/CapSense_Processing.c ****     return result;
 781              		.loc 1 985 0
 782 008e FB69     		ldr	r3, [r7, #28]
 986:Generated_Source\PSoC6/CapSense_Processing.c **** }
 783              		.loc 1 986 0
 784 0090 1846     		mov	r0, r3
 785 0092 2037     		adds	r7, r7, #32
 786              		.cfi_def_cfa_offset 8
 787 0094 BD46     		mov	sp, r7
 788              		.cfi_def_cfa_register 13
 789              		@ sp needed
 790 0096 80BD     		pop	{r7, pc}
 791              		.cfi_endproc
 792              	.LFE131:
 793              		.size	CapSense_DpProcessCsdSensorRawCountsExt, .-CapSense_DpProcessCsdSensorRawCountsExt
 794              		.section	.text.CapSense_DpProcessCsdWidgetStatus,"ax",%progbits
 795              		.align	2
 796              		.global	CapSense_DpProcessCsdWidgetStatus
 797              		.thumb
 798              		.thumb_func
 799              		.type	CapSense_DpProcessCsdWidgetStatus, %function
 800              	CapSense_DpProcessCsdWidgetStatus:
 801              	.LFB132:
 987:Generated_Source\PSoC6/CapSense_Processing.c **** 
 988:Generated_Source\PSoC6/CapSense_Processing.c **** /*******************************************************************************
 989:Generated_Source\PSoC6/CapSense_Processing.c **** * Function Name: CapSense_DpProcessCsdWidgetStatus
 990:Generated_Source\PSoC6/CapSense_Processing.c **** ****************************************************************************//**
 991:Generated_Source\PSoC6/CapSense_Processing.c **** *
 992:Generated_Source\PSoC6/CapSense_Processing.c **** * \brief
 993:Generated_Source\PSoC6/CapSense_Processing.c **** *  Runs the status processing of the CSD widget and updates it in the Data Structure.
 994:Generated_Source\PSoC6/CapSense_Processing.c **** *
 995:Generated_Source\PSoC6/CapSense_Processing.c **** * \details
 996:Generated_Source\PSoC6/CapSense_Processing.c **** *  This API determines the widget type and calls the appropriate low-level processing
 997:Generated_Source\PSoC6/CapSense_Processing.c **** *  function. Based on the returned results it updates the widget and sensor
 998:Generated_Source\PSoC6/CapSense_Processing.c **** *  status in the data structure. Any widget specific registers like the centroid
 999:Generated_Source\PSoC6/CapSense_Processing.c **** *  position are updated directly in the low-level processing function.
1000:Generated_Source\PSoC6/CapSense_Processing.c **** *
1001:Generated_Source\PSoC6/CapSense_Processing.c **** *  When the widget-specific processing completes this API updates the snsStatus
1002:Generated_Source\PSoC6/CapSense_Processing.c **** *  and wdgtStatus registers in the data structure. The wdgtStatus register
1003:Generated_Source\PSoC6/CapSense_Processing.c **** *  is a bitmask were each bit corresponds to the specific widget identified by
1004:Generated_Source\PSoC6/CapSense_Processing.c **** *  the widget index. When the bit is set the widget is active (touched);
1005:Generated_Source\PSoC6/CapSense_Processing.c **** *
1006:Generated_Source\PSoC6/CapSense_Processing.c **** *  The snsStatus register for CSD widgets contains status of each widget sensor
1007:Generated_Source\PSoC6/CapSense_Processing.c **** *  (active/non-active). Each bit corresponds to one sensor. In case of the
ARM GAS  C:\Users\ikomb\AppData\Local\Temp\ccYuI7tI.s 			page 33


1008:Generated_Source\PSoC6/CapSense_Processing.c **** *  Proximity widget two bits are used per sensor: one for proximity status and
1009:Generated_Source\PSoC6/CapSense_Processing.c **** *  second for the touch status.
1010:Generated_Source\PSoC6/CapSense_Processing.c **** *
1011:Generated_Source\PSoC6/CapSense_Processing.c **** * \param widgetId      The widget index number.
1012:Generated_Source\PSoC6/CapSense_Processing.c **** * \param ptrFlashWdgt  The pointer to the Flash widget structure.
1013:Generated_Source\PSoC6/CapSense_Processing.c **** *
1014:Generated_Source\PSoC6/CapSense_Processing.c **** *******************************************************************************/
1015:Generated_Source\PSoC6/CapSense_Processing.c **** void CapSense_DpProcessCsdWidgetStatus(uint32 widgetId, CapSense_FLASH_WD_STRUCT const *ptrFlashWdg
1016:Generated_Source\PSoC6/CapSense_Processing.c **** {
 802              		.loc 1 1016 0
 803              		.cfi_startproc
 804              		@ args = 0, pretend = 0, frame = 24
 805              		@ frame_needed = 1, uses_anonymous_args = 0
 806 0000 80B5     		push	{r7, lr}
 807              		.cfi_def_cfa_offset 8
 808              		.cfi_offset 7, -8
 809              		.cfi_offset 14, -4
 810 0002 86B0     		sub	sp, sp, #24
 811              		.cfi_def_cfa_offset 32
 812 0004 00AF     		add	r7, sp, #0
 813              		.cfi_def_cfa_register 7
 814 0006 7860     		str	r0, [r7, #4]
 815 0008 3960     		str	r1, [r7]
1017:Generated_Source\PSoC6/CapSense_Processing.c ****     uint32 sensorStatus;
1018:Generated_Source\PSoC6/CapSense_Processing.c ****     uint32 wdStatusIndex;
1019:Generated_Source\PSoC6/CapSense_Processing.c ****     uint32 wdStatusMask;
1020:Generated_Source\PSoC6/CapSense_Processing.c ****     CapSense_WD_TYPE_ENUM widgetType;
1021:Generated_Source\PSoC6/CapSense_Processing.c **** 
1022:Generated_Source\PSoC6/CapSense_Processing.c ****     widgetType = (CapSense_WD_TYPE_ENUM)ptrFlashWdgt->wdgtType;
 816              		.loc 1 1022 0
 817 000a 3B68     		ldr	r3, [r7]
 818 000c 9B7E     		ldrb	r3, [r3, #26]
 819 000e FB74     		strb	r3, [r7, #19]
1023:Generated_Source\PSoC6/CapSense_Processing.c ****     sensorStatus = CapSense_dsRam.snsStatus[widgetId];
 820              		.loc 1 1023 0
 821 0010 2B4A     		ldr	r2, .L63
 822 0012 7B68     		ldr	r3, [r7, #4]
 823 0014 1344     		add	r3, r3, r2
 824 0016 1833     		adds	r3, r3, #24
 825 0018 1B78     		ldrb	r3, [r3]	@ zero_extendqisi2
 826 001a 7B61     		str	r3, [r7, #20]
1024:Generated_Source\PSoC6/CapSense_Processing.c **** 
1025:Generated_Source\PSoC6/CapSense_Processing.c ****     switch (widgetType)
 827              		.loc 1 1025 0
 828 001c FB7C     		ldrb	r3, [r7, #19]	@ zero_extendqisi2
 829 001e 012B     		cmp	r3, #1
 830 0020 04D0     		beq	.L56
 831 0022 012B     		cmp	r3, #1
 832 0024 0EDB     		blt	.L55
 833 0026 032B     		cmp	r3, #3
 834 0028 0CDC     		bgt	.L55
 835 002a 05E0     		b	.L61
 836              	.L56:
1026:Generated_Source\PSoC6/CapSense_Processing.c ****     {
1027:Generated_Source\PSoC6/CapSense_Processing.c ****     #if (0u != CapSense_BUTTON_WIDGET_EN)
1028:Generated_Source\PSoC6/CapSense_Processing.c ****         case CapSense_WD_BUTTON_E:
1029:Generated_Source\PSoC6/CapSense_Processing.c ****             sensorStatus = CapSense_DpProcessButton(sensorStatus, ptrFlashWdgt);
ARM GAS  C:\Users\ikomb\AppData\Local\Temp\ccYuI7tI.s 			page 34


 837              		.loc 1 1029 0
 838 002c 3968     		ldr	r1, [r7]
 839 002e 7869     		ldr	r0, [r7, #20]
 840 0030 FFF7FEFF 		bl	CapSense_DpProcessButton
 841 0034 7861     		str	r0, [r7, #20]
1030:Generated_Source\PSoC6/CapSense_Processing.c ****             break;
 842              		.loc 1 1030 0
 843 0036 0BE0     		b	.L58
 844              	.L61:
1031:Generated_Source\PSoC6/CapSense_Processing.c ****     #endif /* #if (0u != CapSense_BUTTON_WIDGET_EN) */
1032:Generated_Source\PSoC6/CapSense_Processing.c **** 
1033:Generated_Source\PSoC6/CapSense_Processing.c ****     #if (0u != CapSense_SLIDER_WIDGET_EN)
1034:Generated_Source\PSoC6/CapSense_Processing.c ****         case CapSense_WD_LINEAR_SLIDER_E:
1035:Generated_Source\PSoC6/CapSense_Processing.c ****         case CapSense_WD_RADIAL_SLIDER_E:
1036:Generated_Source\PSoC6/CapSense_Processing.c ****             sensorStatus = CapSense_DpProcessSlider(sensorStatus, ptrFlashWdgt);
 845              		.loc 1 1036 0
 846 0038 3968     		ldr	r1, [r7]
 847 003a 7869     		ldr	r0, [r7, #20]
 848 003c FFF7FEFF 		bl	CapSense_DpProcessSlider
 849 0040 7861     		str	r0, [r7, #20]
1037:Generated_Source\PSoC6/CapSense_Processing.c ****             break;
 850              		.loc 1 1037 0
 851 0042 05E0     		b	.L58
 852              	.L55:
1038:Generated_Source\PSoC6/CapSense_Processing.c ****     #endif /* #if (0u != CapSense_SLIDER_WIDGET_EN) */
1039:Generated_Source\PSoC6/CapSense_Processing.c **** 
1040:Generated_Source\PSoC6/CapSense_Processing.c ****     #if (0u != CapSense_CSD_MATRIX_WIDGET_EN)
1041:Generated_Source\PSoC6/CapSense_Processing.c ****         case CapSense_WD_MATRIX_BUTTON_E:
1042:Generated_Source\PSoC6/CapSense_Processing.c ****             sensorStatus = CapSense_DpProcessCsdMatrix(sensorStatus, ptrFlashWdgt);
1043:Generated_Source\PSoC6/CapSense_Processing.c ****             break;
1044:Generated_Source\PSoC6/CapSense_Processing.c ****     #endif /* #if (0u != CapSense_CSD_MATRIX_WIDGET_EN) */
1045:Generated_Source\PSoC6/CapSense_Processing.c **** 
1046:Generated_Source\PSoC6/CapSense_Processing.c ****     #if (0u != CapSense_CSD_TOUCHPAD_WIDGET_EN)
1047:Generated_Source\PSoC6/CapSense_Processing.c ****         case CapSense_WD_TOUCHPAD_E:
1048:Generated_Source\PSoC6/CapSense_Processing.c ****             sensorStatus = CapSense_DpProcessCsdTouchpad(sensorStatus, ptrFlashWdgt);
1049:Generated_Source\PSoC6/CapSense_Processing.c ****             #if (0u != CapSense_BALLISTIC_MULTIPLIER_EN)
1050:Generated_Source\PSoC6/CapSense_Processing.c ****                 CapSense_RunBallisticMultiplier(widgetId);
1051:Generated_Source\PSoC6/CapSense_Processing.c ****             #endif /* (0u != CapSense_BALLISTIC_MULTIPLIER_EN) */
1052:Generated_Source\PSoC6/CapSense_Processing.c ****             break;
1053:Generated_Source\PSoC6/CapSense_Processing.c ****     #endif /* #if (0u != CapSense_CSD_TOUCHPAD_WIDGET_EN) */
1054:Generated_Source\PSoC6/CapSense_Processing.c **** 
1055:Generated_Source\PSoC6/CapSense_Processing.c ****     #if (0u != CapSense_PROXIMITY_WIDGET_EN)
1056:Generated_Source\PSoC6/CapSense_Processing.c ****         case CapSense_WD_PROXIMITY_E:
1057:Generated_Source\PSoC6/CapSense_Processing.c ****             sensorStatus = CapSense_DpProcessProximity(sensorStatus, ptrFlashWdgt);
1058:Generated_Source\PSoC6/CapSense_Processing.c ****             break;
1059:Generated_Source\PSoC6/CapSense_Processing.c ****     #endif /* #if (0u != CapSense_PROXIMITY_WIDGET_EN) */
1060:Generated_Source\PSoC6/CapSense_Processing.c **** 
1061:Generated_Source\PSoC6/CapSense_Processing.c ****     default:
1062:Generated_Source\PSoC6/CapSense_Processing.c ****         CY_ASSERT(0 != 0);
 853              		.loc 1 1062 0
 854 0044 40F22641 		movw	r1, #1062
 855 0048 1E48     		ldr	r0, .L63+4
 856 004a FFF7FEFF 		bl	Cy_SysLib_AssertFailed
1063:Generated_Source\PSoC6/CapSense_Processing.c ****         break;
 857              		.loc 1 1063 0
 858 004e 00BF     		nop
 859              	.L58:
ARM GAS  C:\Users\ikomb\AppData\Local\Temp\ccYuI7tI.s 			page 35


1064:Generated_Source\PSoC6/CapSense_Processing.c ****     }
1065:Generated_Source\PSoC6/CapSense_Processing.c **** 
1066:Generated_Source\PSoC6/CapSense_Processing.c ****     CapSense_dsRam.snsStatus[widgetId] = (CapSense_SNS_STS_TYPE)sensorStatus;
 860              		.loc 1 1066 0
 861 0050 7B69     		ldr	r3, [r7, #20]
 862 0052 D9B2     		uxtb	r1, r3
 863 0054 1A4A     		ldr	r2, .L63
 864 0056 7B68     		ldr	r3, [r7, #4]
 865 0058 1344     		add	r3, r3, r2
 866 005a 1833     		adds	r3, r3, #24
 867 005c 0A46     		mov	r2, r1
 868 005e 1A70     		strb	r2, [r3]
1067:Generated_Source\PSoC6/CapSense_Processing.c **** 
1068:Generated_Source\PSoC6/CapSense_Processing.c ****     /* The next two lines calculate index and bitmask of the widget status bit in the wdgtStatus ar
1069:Generated_Source\PSoC6/CapSense_Processing.c ****     wdStatusIndex = CapSense_GET_WDGT_STATUS_INDEX(widgetId);
 869              		.loc 1 1069 0
 870 0060 7B68     		ldr	r3, [r7, #4]
 871 0062 5B09     		lsrs	r3, r3, #5
 872 0064 FB60     		str	r3, [r7, #12]
1070:Generated_Source\PSoC6/CapSense_Processing.c ****     wdStatusMask = CapSense_GET_WDGT_STATUS_MASK(widgetId);
 873              		.loc 1 1070 0
 874 0066 7B68     		ldr	r3, [r7, #4]
 875 0068 03F01F03 		and	r3, r3, #31
 876 006c 0122     		movs	r2, #1
 877 006e 02FA03F3 		lsl	r3, r2, r3
 878 0072 BB60     		str	r3, [r7, #8]
1071:Generated_Source\PSoC6/CapSense_Processing.c **** 
1072:Generated_Source\PSoC6/CapSense_Processing.c ****     /* Check if there are active sensors and update widget status accordingly */
1073:Generated_Source\PSoC6/CapSense_Processing.c ****     if (0u == sensorStatus)
 879              		.loc 1 1073 0
 880 0074 7B69     		ldr	r3, [r7, #20]
 881 0076 002B     		cmp	r3, #0
 882 0078 0FD1     		bne	.L59
1074:Generated_Source\PSoC6/CapSense_Processing.c ****     {
1075:Generated_Source\PSoC6/CapSense_Processing.c ****         CapSense_dsRam.wdgtStatus[wdStatusIndex] &= ~wdStatusMask;
 883              		.loc 1 1075 0
 884 007a 114A     		ldr	r2, .L63
 885 007c FB68     		ldr	r3, [r7, #12]
 886 007e 0433     		adds	r3, r3, #4
 887 0080 9B00     		lsls	r3, r3, #2
 888 0082 1344     		add	r3, r3, r2
 889 0084 5A68     		ldr	r2, [r3, #4]
 890 0086 BB68     		ldr	r3, [r7, #8]
 891 0088 DB43     		mvns	r3, r3
 892 008a 1A40     		ands	r2, r2, r3
 893 008c 0C49     		ldr	r1, .L63
 894 008e FB68     		ldr	r3, [r7, #12]
 895 0090 0433     		adds	r3, r3, #4
 896 0092 9B00     		lsls	r3, r3, #2
 897 0094 0B44     		add	r3, r3, r1
 898 0096 5A60     		str	r2, [r3, #4]
1076:Generated_Source\PSoC6/CapSense_Processing.c ****     }
1077:Generated_Source\PSoC6/CapSense_Processing.c ****     else
1078:Generated_Source\PSoC6/CapSense_Processing.c ****     {
1079:Generated_Source\PSoC6/CapSense_Processing.c ****         CapSense_dsRam.wdgtStatus[wdStatusIndex] |= wdStatusMask;
1080:Generated_Source\PSoC6/CapSense_Processing.c ****     }
1081:Generated_Source\PSoC6/CapSense_Processing.c **** }
ARM GAS  C:\Users\ikomb\AppData\Local\Temp\ccYuI7tI.s 			page 36


 899              		.loc 1 1081 0
 900 0098 0DE0     		b	.L62
 901              	.L59:
1079:Generated_Source\PSoC6/CapSense_Processing.c ****     }
 902              		.loc 1 1079 0
 903 009a 094A     		ldr	r2, .L63
 904 009c FB68     		ldr	r3, [r7, #12]
 905 009e 0433     		adds	r3, r3, #4
 906 00a0 9B00     		lsls	r3, r3, #2
 907 00a2 1344     		add	r3, r3, r2
 908 00a4 5A68     		ldr	r2, [r3, #4]
 909 00a6 BB68     		ldr	r3, [r7, #8]
 910 00a8 1A43     		orrs	r2, r2, r3
 911 00aa 0549     		ldr	r1, .L63
 912 00ac FB68     		ldr	r3, [r7, #12]
 913 00ae 0433     		adds	r3, r3, #4
 914 00b0 9B00     		lsls	r3, r3, #2
 915 00b2 0B44     		add	r3, r3, r1
 916 00b4 5A60     		str	r2, [r3, #4]
 917              	.L62:
 918              		.loc 1 1081 0
 919 00b6 00BF     		nop
 920 00b8 1837     		adds	r7, r7, #24
 921              		.cfi_def_cfa_offset 8
 922 00ba BD46     		mov	sp, r7
 923              		.cfi_def_cfa_register 13
 924              		@ sp needed
 925 00bc 80BD     		pop	{r7, pc}
 926              	.L64:
 927 00be 00BF     		.align	2
 928              	.L63:
 929 00c0 00000000 		.word	CapSense_dsRam
 930 00c4 00000000 		.word	.LC0
 931              		.cfi_endproc
 932              	.LFE132:
 933              		.size	CapSense_DpProcessCsdWidgetStatus, .-CapSense_DpProcessCsdWidgetStatus
 934              		.section	.text.CapSense_DpUpdateThresholds,"ax",%progbits
 935              		.align	2
 936              		.global	CapSense_DpUpdateThresholds
 937              		.thumb
 938              		.thumb_func
 939              		.type	CapSense_DpUpdateThresholds, %function
 940              	CapSense_DpUpdateThresholds:
 941              	.LFB133:
1082:Generated_Source\PSoC6/CapSense_Processing.c **** #endif /* #if (0u != CapSense_TOTAL_CSD_WIDGETS) */
1083:Generated_Source\PSoC6/CapSense_Processing.c **** 
1084:Generated_Source\PSoC6/CapSense_Processing.c **** 
1085:Generated_Source\PSoC6/CapSense_Processing.c **** #if (0 != (CapSense_CSD_AUTOTUNE & CapSense_CSD_SS_TH_EN))
1086:Generated_Source\PSoC6/CapSense_Processing.c **** /*******************************************************************************
1087:Generated_Source\PSoC6/CapSense_Processing.c **** * Function Name: CapSense_DpUpdateThresholds
1088:Generated_Source\PSoC6/CapSense_Processing.c **** ****************************************************************************//**
1089:Generated_Source\PSoC6/CapSense_Processing.c **** *
1090:Generated_Source\PSoC6/CapSense_Processing.c **** * \brief
1091:Generated_Source\PSoC6/CapSense_Processing.c **** *   Updates noise and finger thresholds for a specified widget.
1092:Generated_Source\PSoC6/CapSense_Processing.c **** *
1093:Generated_Source\PSoC6/CapSense_Processing.c **** * \details
1094:Generated_Source\PSoC6/CapSense_Processing.c **** *   Updates noise and finger thresholds for a specified widget.
ARM GAS  C:\Users\ikomb\AppData\Local\Temp\ccYuI7tI.s 			page 37


1095:Generated_Source\PSoC6/CapSense_Processing.c **** *   This algorithm is a part of Auto-tuning feature.
1096:Generated_Source\PSoC6/CapSense_Processing.c **** *
1097:Generated_Source\PSoC6/CapSense_Processing.c **** * \param ptrRamWdgt       The pointer to the RAM widget object.
1098:Generated_Source\PSoC6/CapSense_Processing.c **** * \param ptrNoiseEnvelope The pointer to the noise-envelope object in RAM.
1099:Generated_Source\PSoC6/CapSense_Processing.c **** * \param startFlag        The flag indicates when new widget is processed.
1100:Generated_Source\PSoC6/CapSense_Processing.c **** *
1101:Generated_Source\PSoC6/CapSense_Processing.c **** *******************************************************************************/
1102:Generated_Source\PSoC6/CapSense_Processing.c **** void CapSense_DpUpdateThresholds(CapSense_RAM_WD_BASE_STRUCT *ptrRamWdgt,
1103:Generated_Source\PSoC6/CapSense_Processing.c ****                                          SMARTSENSE_CSD_NOISE_ENVELOPE_STRUCT *ptrNoiseEnvelope,
1104:Generated_Source\PSoC6/CapSense_Processing.c ****                                          uint32 startFlag)
1105:Generated_Source\PSoC6/CapSense_Processing.c **** {
 942              		.loc 1 1105 0
 943              		.cfi_startproc
 944              		@ args = 0, pretend = 0, frame = 32
 945              		@ frame_needed = 1, uses_anonymous_args = 0
 946 0000 80B5     		push	{r7, lr}
 947              		.cfi_def_cfa_offset 8
 948              		.cfi_offset 7, -8
 949              		.cfi_offset 14, -4
 950 0002 88B0     		sub	sp, sp, #32
 951              		.cfi_def_cfa_offset 40
 952 0004 00AF     		add	r7, sp, #0
 953              		.cfi_def_cfa_register 7
 954 0006 F860     		str	r0, [r7, #12]
 955 0008 B960     		str	r1, [r7, #8]
 956 000a 7A60     		str	r2, [r7, #4]
1106:Generated_Source\PSoC6/CapSense_Processing.c ****     SMARTSENSE_UPDATE_THRESHOLDS_STRUCT thresholds;
1107:Generated_Source\PSoC6/CapSense_Processing.c ****     SMARTSENSE_UPDATE_THRESHOLDS_STRUCT *ptrThresholds = &thresholds;
 957              		.loc 1 1107 0
 958 000c 07F11403 		add	r3, r7, #20
 959 0010 FB61     		str	r3, [r7, #28]
1108:Generated_Source\PSoC6/CapSense_Processing.c ****     ptrThresholds->fingerTh = ptrRamWdgt->fingerTh;
 960              		.loc 1 1108 0
 961 0012 FB68     		ldr	r3, [r7, #12]
 962 0014 5A88     		ldrh	r2, [r3, #2]
 963 0016 FB69     		ldr	r3, [r7, #28]
 964 0018 1A80     		strh	r2, [r3]	@ movhi
1109:Generated_Source\PSoC6/CapSense_Processing.c **** 
1110:Generated_Source\PSoC6/CapSense_Processing.c ****     SmartSense_UpdateThresholds(ptrNoiseEnvelope, ptrThresholds, ptrRamWdgt->sigPFC, startFlag);
 965              		.loc 1 1110 0
 966 001a FB68     		ldr	r3, [r7, #12]
 967 001c 1A8A     		ldrh	r2, [r3, #16]
 968 001e 7B68     		ldr	r3, [r7, #4]
 969 0020 F969     		ldr	r1, [r7, #28]
 970 0022 B868     		ldr	r0, [r7, #8]
 971 0024 FFF7FEFF 		bl	SmartSense_UpdateThresholds
1111:Generated_Source\PSoC6/CapSense_Processing.c **** 
1112:Generated_Source\PSoC6/CapSense_Processing.c ****     ptrRamWdgt->fingerTh = ptrThresholds->fingerTh;
 972              		.loc 1 1112 0
 973 0028 FB69     		ldr	r3, [r7, #28]
 974 002a 1A88     		ldrh	r2, [r3]
 975 002c FB68     		ldr	r3, [r7, #12]
 976 002e 5A80     		strh	r2, [r3, #2]	@ movhi
1113:Generated_Source\PSoC6/CapSense_Processing.c ****     ptrRamWdgt->noiseTh = ptrThresholds->noiseTh;
 977              		.loc 1 1113 0
 978 0030 FB69     		ldr	r3, [r7, #28]
 979 0032 9A78     		ldrb	r2, [r3, #2]	@ zero_extendqisi2
ARM GAS  C:\Users\ikomb\AppData\Local\Temp\ccYuI7tI.s 			page 38


 980 0034 FB68     		ldr	r3, [r7, #12]
 981 0036 1A71     		strb	r2, [r3, #4]
1114:Generated_Source\PSoC6/CapSense_Processing.c ****     ptrRamWdgt->nNoiseTh = ptrThresholds->nNoiseTh;
 982              		.loc 1 1114 0
 983 0038 FB69     		ldr	r3, [r7, #28]
 984 003a DA78     		ldrb	r2, [r3, #3]	@ zero_extendqisi2
 985 003c FB68     		ldr	r3, [r7, #12]
 986 003e 5A71     		strb	r2, [r3, #5]
1115:Generated_Source\PSoC6/CapSense_Processing.c ****     ptrRamWdgt->hysteresis = ptrThresholds->hysteresis;
 987              		.loc 1 1115 0
 988 0040 FB69     		ldr	r3, [r7, #28]
 989 0042 1A79     		ldrb	r2, [r3, #4]	@ zero_extendqisi2
 990 0044 FB68     		ldr	r3, [r7, #12]
 991 0046 9A71     		strb	r2, [r3, #6]
1116:Generated_Source\PSoC6/CapSense_Processing.c **** }
 992              		.loc 1 1116 0
 993 0048 00BF     		nop
 994 004a 2037     		adds	r7, r7, #32
 995              		.cfi_def_cfa_offset 8
 996 004c BD46     		mov	sp, r7
 997              		.cfi_def_cfa_register 13
 998              		@ sp needed
 999 004e 80BD     		pop	{r7, pc}
 1000              		.cfi_endproc
 1001              	.LFE133:
 1002              		.size	CapSense_DpUpdateThresholds, .-CapSense_DpUpdateThresholds
 1003              		.section	.text.CapSense_DpUpdateDifferences,"ax",%progbits
 1004              		.align	2
 1005              		.global	CapSense_DpUpdateDifferences
 1006              		.thumb
 1007              		.thumb_func
 1008              		.type	CapSense_DpUpdateDifferences, %function
 1009              	CapSense_DpUpdateDifferences:
 1010              	.LFB134:
1117:Generated_Source\PSoC6/CapSense_Processing.c **** #endif /* #if (0u != (CapSense_CSD_AUTOTUNE & CapSense_CSD_SS_TH_EN)) */
1118:Generated_Source\PSoC6/CapSense_Processing.c **** 
1119:Generated_Source\PSoC6/CapSense_Processing.c **** 
1120:Generated_Source\PSoC6/CapSense_Processing.c **** /*******************************************************************************
1121:Generated_Source\PSoC6/CapSense_Processing.c **** * Function Name: CapSense_DpUpdateDifferences
1122:Generated_Source\PSoC6/CapSense_Processing.c **** ****************************************************************************//**
1123:Generated_Source\PSoC6/CapSense_Processing.c **** *
1124:Generated_Source\PSoC6/CapSense_Processing.c **** * \brief
1125:Generated_Source\PSoC6/CapSense_Processing.c **** *   Calculates new difference values.
1126:Generated_Source\PSoC6/CapSense_Processing.c **** *   Also, executes the multi-frequency scan algorithm if it is enabled.
1127:Generated_Source\PSoC6/CapSense_Processing.c **** *
1128:Generated_Source\PSoC6/CapSense_Processing.c **** * \details
1129:Generated_Source\PSoC6/CapSense_Processing.c **** *   This API calculates the difference between the baseline and raw counts.
1130:Generated_Source\PSoC6/CapSense_Processing.c **** *   If the difference is positive (raw > baseline), and higher than the widget
1131:Generated_Source\PSoC6/CapSense_Processing.c **** *   noise threshold, it is saved into the data structure for further processing.
1132:Generated_Source\PSoC6/CapSense_Processing.c **** *   Otherwise the difference is set to zero. The final difference value is saved
1133:Generated_Source\PSoC6/CapSense_Processing.c **** *   with the subtracted noise threshold value.
1134:Generated_Source\PSoC6/CapSense_Processing.c **** *
1135:Generated_Source\PSoC6/CapSense_Processing.c **** *   If the multi-frequency scan algorithm is enabled, the difference is calculated
1136:Generated_Source\PSoC6/CapSense_Processing.c **** *   for the three sets of data available for each sensor. Then
1137:Generated_Source\PSoC6/CapSense_Processing.c **** *   the median filter selects the final difference value.
1138:Generated_Source\PSoC6/CapSense_Processing.c **** *
1139:Generated_Source\PSoC6/CapSense_Processing.c **** * \param ptrRamWdgt The pointer to the RAR Widget Object.
ARM GAS  C:\Users\ikomb\AppData\Local\Temp\ccYuI7tI.s 			page 39


1140:Generated_Source\PSoC6/CapSense_Processing.c **** * \param curSnsPtr  The pointer to the sensor object in RAM.
1141:Generated_Source\PSoC6/CapSense_Processing.c **** *
1142:Generated_Source\PSoC6/CapSense_Processing.c **** *******************************************************************************/
1143:Generated_Source\PSoC6/CapSense_Processing.c **** void CapSense_DpUpdateDifferences(
1144:Generated_Source\PSoC6/CapSense_Processing.c ****                         CapSense_RAM_WD_BASE_STRUCT *ptrRamWdgt,
1145:Generated_Source\PSoC6/CapSense_Processing.c ****                         CapSense_RAM_SNS_STRUCT *curSnsPtr)
1146:Generated_Source\PSoC6/CapSense_Processing.c **** {
 1011              		.loc 1 1146 0
 1012              		.cfi_startproc
 1013              		@ args = 0, pretend = 0, frame = 8
 1014              		@ frame_needed = 1, uses_anonymous_args = 0
 1015              		@ link register save eliminated.
 1016 0000 90B4     		push	{r4, r7}
 1017              		.cfi_def_cfa_offset 8
 1018              		.cfi_offset 4, -8
 1019              		.cfi_offset 7, -4
 1020 0002 82B0     		sub	sp, sp, #8
 1021              		.cfi_def_cfa_offset 16
 1022 0004 00AF     		add	r7, sp, #0
 1023              		.cfi_def_cfa_register 7
 1024 0006 7860     		str	r0, [r7, #4]
 1025 0008 3960     		str	r1, [r7]
1147:Generated_Source\PSoC6/CapSense_Processing.c ****     register int32 diffValue = 0;
1148:Generated_Source\PSoC6/CapSense_Processing.c **** 
1149:Generated_Source\PSoC6/CapSense_Processing.c ****     #if (0u != CapSense_MULTI_FREQ_SCAN_EN)
1150:Generated_Source\PSoC6/CapSense_Processing.c ****         register int32 diffValue_0 = 0;
1151:Generated_Source\PSoC6/CapSense_Processing.c ****         register int32 diffValue_2 = 0;
1152:Generated_Source\PSoC6/CapSense_Processing.c ****     #endif /* #if (0u != CapSense_MULTI_FREQ_SCAN_EN) */
1153:Generated_Source\PSoC6/CapSense_Processing.c **** 
1154:Generated_Source\PSoC6/CapSense_Processing.c ****     /* Calculate difference */
1155:Generated_Source\PSoC6/CapSense_Processing.c ****     diffValue = (int32)curSnsPtr->raw[0u] - (int32)curSnsPtr->bsln[0u];
 1026              		.loc 1 1155 0
 1027 000a 3B68     		ldr	r3, [r7]
 1028 000c 1B88     		ldrh	r3, [r3]
 1029 000e 1A46     		mov	r2, r3
 1030 0010 3B68     		ldr	r3, [r7]
 1031 0012 5B88     		ldrh	r3, [r3, #2]
 1032 0014 D41A     		subs	r4, r2, r3
1156:Generated_Source\PSoC6/CapSense_Processing.c **** 
1157:Generated_Source\PSoC6/CapSense_Processing.c ****     #if (0u != CapSense_MULTI_FREQ_SCAN_EN)
1158:Generated_Source\PSoC6/CapSense_Processing.c ****         diffValue_0 = (int32)curSnsPtr->raw[1u] - (int32)curSnsPtr->bsln[1u];
1159:Generated_Source\PSoC6/CapSense_Processing.c ****         diffValue_2 = (int32)curSnsPtr->raw[2u] - (int32)curSnsPtr->bsln[2u];
1160:Generated_Source\PSoC6/CapSense_Processing.c **** 
1161:Generated_Source\PSoC6/CapSense_Processing.c ****         /* Find median and put it into [0u] element */
1162:Generated_Source\PSoC6/CapSense_Processing.c ****         if (diffValue_0 > diffValue)
1163:Generated_Source\PSoC6/CapSense_Processing.c ****         {
1164:Generated_Source\PSoC6/CapSense_Processing.c ****             register int32 swapv = diffValue_0;
1165:Generated_Source\PSoC6/CapSense_Processing.c ****             diffValue_0 = diffValue;
1166:Generated_Source\PSoC6/CapSense_Processing.c ****             diffValue = swapv;
1167:Generated_Source\PSoC6/CapSense_Processing.c ****         }
1168:Generated_Source\PSoC6/CapSense_Processing.c **** 
1169:Generated_Source\PSoC6/CapSense_Processing.c ****         if (diffValue > diffValue_2)
1170:Generated_Source\PSoC6/CapSense_Processing.c ****         {
1171:Generated_Source\PSoC6/CapSense_Processing.c ****             register int32 swapv = diffValue;
1172:Generated_Source\PSoC6/CapSense_Processing.c ****             diffValue = diffValue_2;
1173:Generated_Source\PSoC6/CapSense_Processing.c ****             diffValue_2 = swapv;
1174:Generated_Source\PSoC6/CapSense_Processing.c ****         }
ARM GAS  C:\Users\ikomb\AppData\Local\Temp\ccYuI7tI.s 			page 40


1175:Generated_Source\PSoC6/CapSense_Processing.c **** 
1176:Generated_Source\PSoC6/CapSense_Processing.c ****         if (diffValue_0 > diffValue)
1177:Generated_Source\PSoC6/CapSense_Processing.c ****         {
1178:Generated_Source\PSoC6/CapSense_Processing.c ****             register int32 swapv = diffValue_0;
1179:Generated_Source\PSoC6/CapSense_Processing.c ****             diffValue_0 = diffValue;
1180:Generated_Source\PSoC6/CapSense_Processing.c ****             diffValue = swapv;
1181:Generated_Source\PSoC6/CapSense_Processing.c ****         }
1182:Generated_Source\PSoC6/CapSense_Processing.c ****     #endif /* #if (0u != CapSense_MULTI_FREQ_SCAN_EN) */
1183:Generated_Source\PSoC6/CapSense_Processing.c **** 
1184:Generated_Source\PSoC6/CapSense_Processing.c ****     curSnsPtr->diff = 0u;
 1033              		.loc 1 1184 0
 1034 0016 3B68     		ldr	r3, [r7]
 1035 0018 0022     		movs	r2, #0
 1036 001a DA80     		strh	r2, [r3, #6]	@ movhi
1185:Generated_Source\PSoC6/CapSense_Processing.c **** 
1186:Generated_Source\PSoC6/CapSense_Processing.c ****     if (diffValue > (int32)ptrRamWdgt->noiseTh)
 1037              		.loc 1 1186 0
 1038 001c 7B68     		ldr	r3, [r7, #4]
 1039 001e 1B79     		ldrb	r3, [r3, #4]	@ zero_extendqisi2
 1040 0020 A342     		cmp	r3, r4
 1041 0022 02DA     		bge	.L68
1187:Generated_Source\PSoC6/CapSense_Processing.c ****     {
1188:Generated_Source\PSoC6/CapSense_Processing.c ****         curSnsPtr->diff = (CapSense_THRESHOLD_TYPE) diffValue;
 1042              		.loc 1 1188 0
 1043 0024 A2B2     		uxth	r2, r4
 1044 0026 3B68     		ldr	r3, [r7]
 1045 0028 DA80     		strh	r2, [r3, #6]	@ movhi
 1046              	.L68:
1189:Generated_Source\PSoC6/CapSense_Processing.c ****     }
1190:Generated_Source\PSoC6/CapSense_Processing.c **** }
 1047              		.loc 1 1190 0
 1048 002a 00BF     		nop
 1049 002c 0837     		adds	r7, r7, #8
 1050              		.cfi_def_cfa_offset 8
 1051 002e BD46     		mov	sp, r7
 1052              		.cfi_def_cfa_register 13
 1053              		@ sp needed
 1054 0030 90BC     		pop	{r4, r7}
 1055              		.cfi_restore 7
 1056              		.cfi_restore 4
 1057              		.cfi_def_cfa_offset 0
 1058 0032 7047     		bx	lr
 1059              		.cfi_endproc
 1060              	.LFE134:
 1061              		.size	CapSense_DpUpdateDifferences, .-CapSense_DpUpdateDifferences
 1062              		.section	.text.CapSense_DpProcessButton,"ax",%progbits
 1063              		.align	2
 1064              		.global	CapSense_DpProcessButton
 1065              		.thumb
 1066              		.thumb_func
 1067              		.type	CapSense_DpProcessButton, %function
 1068              	CapSense_DpProcessButton:
 1069              	.LFB135:
1191:Generated_Source\PSoC6/CapSense_Processing.c **** 
1192:Generated_Source\PSoC6/CapSense_Processing.c **** 
1193:Generated_Source\PSoC6/CapSense_Processing.c **** #if ((0u != CapSense_BUTTON_WIDGET_EN) || (0u != CapSense_CSX_MATRIX_WIDGET_EN))
1194:Generated_Source\PSoC6/CapSense_Processing.c **** /*******************************************************************************
ARM GAS  C:\Users\ikomb\AppData\Local\Temp\ccYuI7tI.s 			page 41


1195:Generated_Source\PSoC6/CapSense_Processing.c **** * Function Name: CapSense_DpProcessButton
1196:Generated_Source\PSoC6/CapSense_Processing.c **** ****************************************************************************//**
1197:Generated_Source\PSoC6/CapSense_Processing.c **** *
1198:Generated_Source\PSoC6/CapSense_Processing.c **** * \brief
1199:Generated_Source\PSoC6/CapSense_Processing.c **** *   Processes the status of the Button widget.
1200:Generated_Source\PSoC6/CapSense_Processing.c **** *
1201:Generated_Source\PSoC6/CapSense_Processing.c **** * \details
1202:Generated_Source\PSoC6/CapSense_Processing.c **** *   This API processes the status of the CSD/CSX Button widget and
1203:Generated_Source\PSoC6/CapSense_Processing.c **** *   CSX Matrix Button widget. It applies the hysteresis and de-bounce algorithm
1204:Generated_Source\PSoC6/CapSense_Processing.c **** *   to each sensor difference value. This API is expected to be called
1205:Generated_Source\PSoC6/CapSense_Processing.c **** *   after each new widget scan. If it is called multiple times for the same
1206:Generated_Source\PSoC6/CapSense_Processing.c **** *   scan data, the de-bounce algorithm will not work properly.
1207:Generated_Source\PSoC6/CapSense_Processing.c **** *
1208:Generated_Source\PSoC6/CapSense_Processing.c **** *   This API does not update any Data Structure registers
1209:Generated_Source\PSoC6/CapSense_Processing.c **** *   except the de-bounce counters.
1210:Generated_Source\PSoC6/CapSense_Processing.c **** *
1211:Generated_Source\PSoC6/CapSense_Processing.c **** * \param currStatus   The current status of the widget sensors.
1212:Generated_Source\PSoC6/CapSense_Processing.c **** * \param ptrFlashWdgt The pointer to the Flash Widget Object.
1213:Generated_Source\PSoC6/CapSense_Processing.c **** *
1214:Generated_Source\PSoC6/CapSense_Processing.c **** * \return Returns the status of the widget's sensors. Bit #0 - corresponds to Sensor #0.
1215:Generated_Source\PSoC6/CapSense_Processing.c **** *
1216:Generated_Source\PSoC6/CapSense_Processing.c **** *******************************************************************************/
1217:Generated_Source\PSoC6/CapSense_Processing.c **** uint32 CapSense_DpProcessButton(uint32 currStatus, CapSense_FLASH_WD_STRUCT const *ptrFlashWdgt)
1218:Generated_Source\PSoC6/CapSense_Processing.c **** {
 1070              		.loc 1 1218 0
 1071              		.cfi_startproc
 1072              		@ args = 0, pretend = 0, frame = 40
 1073              		@ frame_needed = 1, uses_anonymous_args = 0
 1074              		@ link register save eliminated.
 1075 0000 80B4     		push	{r7}
 1076              		.cfi_def_cfa_offset 4
 1077              		.cfi_offset 7, -4
 1078 0002 8BB0     		sub	sp, sp, #44
 1079              		.cfi_def_cfa_offset 48
 1080 0004 00AF     		add	r7, sp, #0
 1081              		.cfi_def_cfa_register 7
 1082 0006 7860     		str	r0, [r7, #4]
 1083 0008 3960     		str	r1, [r7]
1219:Generated_Source\PSoC6/CapSense_Processing.c ****     uint32 snsCnt;
1220:Generated_Source\PSoC6/CapSense_Processing.c ****     uint32 snsMask;
1221:Generated_Source\PSoC6/CapSense_Processing.c ****     uint32 newStatus;
1222:Generated_Source\PSoC6/CapSense_Processing.c ****     uint32 touchTh;
1223:Generated_Source\PSoC6/CapSense_Processing.c ****     CapSense_RAM_SNS_STRUCT *ptrSnsTmp;
1224:Generated_Source\PSoC6/CapSense_Processing.c ****     CapSense_RAM_WD_BASE_STRUCT *ptrRamWdgt;
1225:Generated_Source\PSoC6/CapSense_Processing.c ****     uint8 * ptrDebounceCnt;
1226:Generated_Source\PSoC6/CapSense_Processing.c **** 
1227:Generated_Source\PSoC6/CapSense_Processing.c ****     snsCnt = ptrFlashWdgt->totalNumSns;
 1084              		.loc 1 1227 0
 1085 000a 3B68     		ldr	r3, [r7]
 1086 000c 1B8B     		ldrh	r3, [r3, #24]
 1087 000e 7B62     		str	r3, [r7, #36]
1228:Generated_Source\PSoC6/CapSense_Processing.c ****     ptrSnsTmp = ptrFlashWdgt->ptr2SnsRam;
 1088              		.loc 1 1228 0
 1089 0010 3B68     		ldr	r3, [r7]
 1090 0012 9B68     		ldr	r3, [r3, #8]
 1091 0014 FB61     		str	r3, [r7, #28]
1229:Generated_Source\PSoC6/CapSense_Processing.c ****     ptrRamWdgt = (CapSense_RAM_WD_BASE_STRUCT *)ptrFlashWdgt->ptr2WdgtRam;
ARM GAS  C:\Users\ikomb\AppData\Local\Temp\ccYuI7tI.s 			page 42


 1092              		.loc 1 1229 0
 1093 0016 3B68     		ldr	r3, [r7]
 1094 0018 5B68     		ldr	r3, [r3, #4]
 1095 001a 7B61     		str	r3, [r7, #20]
1230:Generated_Source\PSoC6/CapSense_Processing.c ****     ptrDebounceCnt = ptrFlashWdgt->ptr2DebounceArr;
 1096              		.loc 1 1230 0
 1097 001c 3B68     		ldr	r3, [r7]
 1098 001e 1B69     		ldr	r3, [r3, #16]
 1099 0020 BB61     		str	r3, [r7, #24]
1231:Generated_Source\PSoC6/CapSense_Processing.c **** 
1232:Generated_Source\PSoC6/CapSense_Processing.c ****     /* Go through all widget's sensors */
1233:Generated_Source\PSoC6/CapSense_Processing.c ****     snsMask = 1Lu;
 1100              		.loc 1 1233 0
 1101 0022 0123     		movs	r3, #1
 1102 0024 3B62     		str	r3, [r7, #32]
1234:Generated_Source\PSoC6/CapSense_Processing.c ****     for (; snsCnt-- > 0u; )
 1103              		.loc 1 1234 0
 1104 0026 4DE0     		b	.L70
 1105              	.L80:
1235:Generated_Source\PSoC6/CapSense_Processing.c ****     {
1236:Generated_Source\PSoC6/CapSense_Processing.c ****         /* Calculate touch threshold taking into account hysteresis
1237:Generated_Source\PSoC6/CapSense_Processing.c ****            and current sensor state. */
1238:Generated_Source\PSoC6/CapSense_Processing.c ****         touchTh = (0u == (currStatus & snsMask)) ?
 1106              		.loc 1 1238 0
 1107 0028 7A68     		ldr	r2, [r7, #4]
 1108 002a 3B6A     		ldr	r3, [r7, #32]
 1109 002c 1340     		ands	r3, r3, r2
1239:Generated_Source\PSoC6/CapSense_Processing.c ****                   ((uint32)ptrRamWdgt->fingerTh + ptrRamWdgt->hysteresis) :
 1110              		.loc 1 1239 0
 1111 002e 002B     		cmp	r3, #0
 1112 0030 06D1     		bne	.L71
 1113              		.loc 1 1239 0 is_stmt 0 discriminator 1
 1114 0032 7B69     		ldr	r3, [r7, #20]
 1115 0034 5B88     		ldrh	r3, [r3, #2]
 1116 0036 1A46     		mov	r2, r3
 1117 0038 7B69     		ldr	r3, [r7, #20]
 1118 003a 9B79     		ldrb	r3, [r3, #6]	@ zero_extendqisi2
 1119 003c 1344     		add	r3, r3, r2
 1120 003e 05E0     		b	.L72
 1121              	.L71:
1240:Generated_Source\PSoC6/CapSense_Processing.c ****                   ((uint32)ptrRamWdgt->fingerTh - ptrRamWdgt->hysteresis);
 1122              		.loc 1 1240 0 is_stmt 1 discriminator 2
 1123 0040 7B69     		ldr	r3, [r7, #20]
 1124 0042 5B88     		ldrh	r3, [r3, #2]
 1125 0044 1A46     		mov	r2, r3
 1126 0046 7B69     		ldr	r3, [r7, #20]
 1127 0048 9B79     		ldrb	r3, [r3, #6]	@ zero_extendqisi2
1239:Generated_Source\PSoC6/CapSense_Processing.c ****                   ((uint32)ptrRamWdgt->fingerTh + ptrRamWdgt->hysteresis) :
 1128              		.loc 1 1239 0 discriminator 2
 1129 004a D31A     		subs	r3, r2, r3
 1130              	.L72:
1238:Generated_Source\PSoC6/CapSense_Processing.c ****                   ((uint32)ptrRamWdgt->fingerTh + ptrRamWdgt->hysteresis) :
 1131              		.loc 1 1238 0
 1132 004c 3B61     		str	r3, [r7, #16]
1241:Generated_Source\PSoC6/CapSense_Processing.c **** 
1242:Generated_Source\PSoC6/CapSense_Processing.c ****         /* Determine new potential sensor state */
1243:Generated_Source\PSoC6/CapSense_Processing.c ****         newStatus = (ptrSnsTmp->diff > touchTh) ? snsMask : 0u;
ARM GAS  C:\Users\ikomb\AppData\Local\Temp\ccYuI7tI.s 			page 43


 1133              		.loc 1 1243 0
 1134 004e FB69     		ldr	r3, [r7, #28]
 1135 0050 DB88     		ldrh	r3, [r3, #6]
 1136 0052 1A46     		mov	r2, r3
 1137 0054 3B69     		ldr	r3, [r7, #16]
 1138 0056 9A42     		cmp	r2, r3
 1139 0058 01D9     		bls	.L73
 1140              		.loc 1 1243 0 is_stmt 0 discriminator 1
 1141 005a 3B6A     		ldr	r3, [r7, #32]
 1142 005c 00E0     		b	.L74
 1143              	.L73:
 1144              		.loc 1 1243 0 discriminator 2
 1145 005e 0023     		movs	r3, #0
 1146              	.L74:
 1147              		.loc 1 1243 0 discriminator 4
 1148 0060 FB60     		str	r3, [r7, #12]
1244:Generated_Source\PSoC6/CapSense_Processing.c **** 
1245:Generated_Source\PSoC6/CapSense_Processing.c ****         /* Sensor state changed ? */
1246:Generated_Source\PSoC6/CapSense_Processing.c ****         if (newStatus != (currStatus & snsMask))
 1149              		.loc 1 1246 0 is_stmt 1 discriminator 4
 1150 0062 7A68     		ldr	r2, [r7, #4]
 1151 0064 3B6A     		ldr	r3, [r7, #32]
 1152 0066 1A40     		ands	r2, r2, r3
 1153 0068 FB68     		ldr	r3, [r7, #12]
 1154 006a 9A42     		cmp	r2, r3
 1155 006c 05D0     		beq	.L75
1247:Generated_Source\PSoC6/CapSense_Processing.c ****         {
1248:Generated_Source\PSoC6/CapSense_Processing.c ****             /* Decrement de-bounce counter */
1249:Generated_Source\PSoC6/CapSense_Processing.c ****             (*ptrDebounceCnt)--;
 1156              		.loc 1 1249 0
 1157 006e BB69     		ldr	r3, [r7, #24]
 1158 0070 1B78     		ldrb	r3, [r3]	@ zero_extendqisi2
 1159 0072 013B     		subs	r3, r3, #1
 1160 0074 DAB2     		uxtb	r2, r3
 1161 0076 BB69     		ldr	r3, [r7, #24]
 1162 0078 1A70     		strb	r2, [r3]
 1163              	.L75:
1250:Generated_Source\PSoC6/CapSense_Processing.c ****         }
1251:Generated_Source\PSoC6/CapSense_Processing.c **** 
1252:Generated_Source\PSoC6/CapSense_Processing.c ****         /*
1253:Generated_Source\PSoC6/CapSense_Processing.c ****         *  This piece of code has two objectives:
1254:Generated_Source\PSoC6/CapSense_Processing.c ****         *  1. Reset de-bounce counter if the sensor state did not change.
1255:Generated_Source\PSoC6/CapSense_Processing.c ****         *     (It is possible that during previous processing cycles sensor
1256:Generated_Source\PSoC6/CapSense_Processing.c ****         *     was active and de-bounce counter was decremented.)
1257:Generated_Source\PSoC6/CapSense_Processing.c ****         *  2. Set new sensor state after successful de-bounce.
1258:Generated_Source\PSoC6/CapSense_Processing.c ****         */
1259:Generated_Source\PSoC6/CapSense_Processing.c ****         if ((newStatus == (currStatus & snsMask)) || (0u == (*ptrDebounceCnt)))
 1164              		.loc 1 1259 0
 1165 007a 7A68     		ldr	r2, [r7, #4]
 1166 007c 3B6A     		ldr	r3, [r7, #32]
 1167 007e 1A40     		ands	r2, r2, r3
 1168 0080 FB68     		ldr	r3, [r7, #12]
 1169 0082 9A42     		cmp	r2, r3
 1170 0084 03D0     		beq	.L76
 1171              		.loc 1 1259 0 is_stmt 0 discriminator 1
 1172 0086 BB69     		ldr	r3, [r7, #24]
 1173 0088 1B78     		ldrb	r3, [r3]	@ zero_extendqisi2
ARM GAS  C:\Users\ikomb\AppData\Local\Temp\ccYuI7tI.s 			page 44


 1174 008a 002B     		cmp	r3, #0
 1175 008c 11D1     		bne	.L77
 1176              	.L76:
1260:Generated_Source\PSoC6/CapSense_Processing.c ****         {
1261:Generated_Source\PSoC6/CapSense_Processing.c ****             /* Set new sensor status */
1262:Generated_Source\PSoC6/CapSense_Processing.c ****             currStatus &= ~snsMask;
 1177              		.loc 1 1262 0 is_stmt 1
 1178 008e 3B6A     		ldr	r3, [r7, #32]
 1179 0090 DB43     		mvns	r3, r3
 1180 0092 7A68     		ldr	r2, [r7, #4]
 1181 0094 1340     		ands	r3, r3, r2
 1182 0096 7B60     		str	r3, [r7, #4]
1263:Generated_Source\PSoC6/CapSense_Processing.c ****             currStatus |= newStatus;
 1183              		.loc 1 1263 0
 1184 0098 7A68     		ldr	r2, [r7, #4]
 1185 009a FB68     		ldr	r3, [r7, #12]
 1186 009c 1343     		orrs	r3, r3, r2
 1187 009e 7B60     		str	r3, [r7, #4]
1264:Generated_Source\PSoC6/CapSense_Processing.c **** 
1265:Generated_Source\PSoC6/CapSense_Processing.c ****             /* Reset de-bounce counter */
1266:Generated_Source\PSoC6/CapSense_Processing.c ****             #if (0u != CapSense_OFF_DEBOUNCE_EN)
1267:Generated_Source\PSoC6/CapSense_Processing.c ****                 *ptrDebounceCnt = (0Lu == newStatus) ? ptrRamWdgt->onDebounce : ptrRamWdgt->offDebo
1268:Generated_Source\PSoC6/CapSense_Processing.c ****             #else
1269:Generated_Source\PSoC6/CapSense_Processing.c ****                 *ptrDebounceCnt = (0Lu == newStatus) ? ptrRamWdgt->onDebounce : DEFAULT_OFF_DEBOUNC
 1188              		.loc 1 1269 0
 1189 00a0 FB68     		ldr	r3, [r7, #12]
 1190 00a2 002B     		cmp	r3, #0
 1191 00a4 02D1     		bne	.L78
 1192              		.loc 1 1269 0 is_stmt 0 discriminator 1
 1193 00a6 7B69     		ldr	r3, [r7, #20]
 1194 00a8 DA79     		ldrb	r2, [r3, #7]	@ zero_extendqisi2
 1195 00aa 00E0     		b	.L79
 1196              	.L78:
 1197              		.loc 1 1269 0 discriminator 2
 1198 00ac 0122     		movs	r2, #1
 1199              	.L79:
 1200              		.loc 1 1269 0 discriminator 4
 1201 00ae BB69     		ldr	r3, [r7, #24]
 1202 00b0 1A70     		strb	r2, [r3]
 1203              	.L77:
1270:Generated_Source\PSoC6/CapSense_Processing.c ****             #endif /* #if (0u != CapSense_OFF_DEBOUNCE_EN) */
1271:Generated_Source\PSoC6/CapSense_Processing.c ****         }
1272:Generated_Source\PSoC6/CapSense_Processing.c **** 
1273:Generated_Source\PSoC6/CapSense_Processing.c ****         /* Move mask to the next sensor */
1274:Generated_Source\PSoC6/CapSense_Processing.c ****         snsMask <<= 1u;
 1204              		.loc 1 1274 0 is_stmt 1
 1205 00b2 3B6A     		ldr	r3, [r7, #32]
 1206 00b4 5B00     		lsls	r3, r3, #1
 1207 00b6 3B62     		str	r3, [r7, #32]
1275:Generated_Source\PSoC6/CapSense_Processing.c **** 
1276:Generated_Source\PSoC6/CapSense_Processing.c ****         ptrSnsTmp++;
 1208              		.loc 1 1276 0
 1209 00b8 FB69     		ldr	r3, [r7, #28]
 1210 00ba 0A33     		adds	r3, r3, #10
 1211 00bc FB61     		str	r3, [r7, #28]
1277:Generated_Source\PSoC6/CapSense_Processing.c ****         ptrDebounceCnt++;
 1212              		.loc 1 1277 0
ARM GAS  C:\Users\ikomb\AppData\Local\Temp\ccYuI7tI.s 			page 45


 1213 00be BB69     		ldr	r3, [r7, #24]
 1214 00c0 0133     		adds	r3, r3, #1
 1215 00c2 BB61     		str	r3, [r7, #24]
 1216              	.L70:
1234:Generated_Source\PSoC6/CapSense_Processing.c ****     {
 1217              		.loc 1 1234 0
 1218 00c4 7B6A     		ldr	r3, [r7, #36]
 1219 00c6 5A1E     		subs	r2, r3, #1
 1220 00c8 7A62     		str	r2, [r7, #36]
 1221 00ca 002B     		cmp	r3, #0
 1222 00cc ACD1     		bne	.L80
1278:Generated_Source\PSoC6/CapSense_Processing.c ****     }
1279:Generated_Source\PSoC6/CapSense_Processing.c **** 
1280:Generated_Source\PSoC6/CapSense_Processing.c ****     return currStatus;
 1223              		.loc 1 1280 0
 1224 00ce 7B68     		ldr	r3, [r7, #4]
1281:Generated_Source\PSoC6/CapSense_Processing.c **** }
 1225              		.loc 1 1281 0
 1226 00d0 1846     		mov	r0, r3
 1227 00d2 2C37     		adds	r7, r7, #44
 1228              		.cfi_def_cfa_offset 4
 1229 00d4 BD46     		mov	sp, r7
 1230              		.cfi_def_cfa_register 13
 1231              		@ sp needed
 1232 00d6 5DF8047B 		ldr	r7, [sp], #4
 1233              		.cfi_restore 7
 1234              		.cfi_def_cfa_offset 0
 1235 00da 7047     		bx	lr
 1236              		.cfi_endproc
 1237              	.LFE135:
 1238              		.size	CapSense_DpProcessButton, .-CapSense_DpProcessButton
 1239              		.section	.text.CapSense_DpProcessSlider,"ax",%progbits
 1240              		.align	2
 1241              		.global	CapSense_DpProcessSlider
 1242              		.thumb
 1243              		.thumb_func
 1244              		.type	CapSense_DpProcessSlider, %function
 1245              	CapSense_DpProcessSlider:
 1246              	.LFB136:
1282:Generated_Source\PSoC6/CapSense_Processing.c **** #endif /* #if ((0u != CapSense_BUTTON_WIDGET_EN) || (0u != CapSense_CSX_MATRIX_WIDGET_EN)) */
1283:Generated_Source\PSoC6/CapSense_Processing.c **** 
1284:Generated_Source\PSoC6/CapSense_Processing.c **** 
1285:Generated_Source\PSoC6/CapSense_Processing.c **** #if (0u != CapSense_PROXIMITY_WIDGET_EN)
1286:Generated_Source\PSoC6/CapSense_Processing.c **** /*******************************************************************************
1287:Generated_Source\PSoC6/CapSense_Processing.c **** * Function Name: CapSense_DpProcessProximity
1288:Generated_Source\PSoC6/CapSense_Processing.c **** ****************************************************************************//**
1289:Generated_Source\PSoC6/CapSense_Processing.c **** *
1290:Generated_Source\PSoC6/CapSense_Processing.c **** * \brief
1291:Generated_Source\PSoC6/CapSense_Processing.c **** *   Processes the status of the Proximity widget.
1292:Generated_Source\PSoC6/CapSense_Processing.c **** *
1293:Generated_Source\PSoC6/CapSense_Processing.c **** * \details
1294:Generated_Source\PSoC6/CapSense_Processing.c **** *   This API processes the status of the CSD Proximity widget. It applies the
1295:Generated_Source\PSoC6/CapSense_Processing.c **** *   hysteresis and debounce algorithm to each sensor difference value.
1296:Generated_Source\PSoC6/CapSense_Processing.c **** *   The proximity and touch events are considered independently so debounce and
1297:Generated_Source\PSoC6/CapSense_Processing.c **** *   hysteresis are also applied independently.
1298:Generated_Source\PSoC6/CapSense_Processing.c **** *
1299:Generated_Source\PSoC6/CapSense_Processing.c **** *   This API is expected to be called after each new widget scan. If it is
ARM GAS  C:\Users\ikomb\AppData\Local\Temp\ccYuI7tI.s 			page 46


1300:Generated_Source\PSoC6/CapSense_Processing.c **** *   called multiple times for the same scan data the debounce algorithm
1301:Generated_Source\PSoC6/CapSense_Processing.c **** *   will not work properly.
1302:Generated_Source\PSoC6/CapSense_Processing.c **** *
1303:Generated_Source\PSoC6/CapSense_Processing.c **** *   This API does not update any Data Structure registers
1304:Generated_Source\PSoC6/CapSense_Processing.c **** *   except the debounce counters.
1305:Generated_Source\PSoC6/CapSense_Processing.c **** *
1306:Generated_Source\PSoC6/CapSense_Processing.c **** * \param currStatus   The value with the current widget status.
1307:Generated_Source\PSoC6/CapSense_Processing.c **** * \param ptrFlashWdgt The pointer to the Flash Widget Object.
1308:Generated_Source\PSoC6/CapSense_Processing.c **** *
1309:Generated_Source\PSoC6/CapSense_Processing.c **** * \return
1310:Generated_Source\PSoC6/CapSense_Processing.c **** *  Returns the status of the proximity sensors. Each sensor is represented by two bits
1311:Generated_Source\PSoC6/CapSense_Processing.c **** *  that can take the following values:
1312:Generated_Source\PSoC6/CapSense_Processing.c **** *   - 00b not active
1313:Generated_Source\PSoC6/CapSense_Processing.c **** *   - 01b proximity is detected (signal is above finger threshold)
1314:Generated_Source\PSoC6/CapSense_Processing.c **** *   - 11b finger touch is detected (signal is above the touch threshold)
1315:Generated_Source\PSoC6/CapSense_Processing.c **** *
1316:Generated_Source\PSoC6/CapSense_Processing.c **** *******************************************************************************/
1317:Generated_Source\PSoC6/CapSense_Processing.c **** uint32 CapSense_DpProcessProximity(uint32 currStatus, CapSense_FLASH_WD_STRUCT const *ptrFlashWdgt)
1318:Generated_Source\PSoC6/CapSense_Processing.c **** {
1319:Generated_Source\PSoC6/CapSense_Processing.c ****     uint32 currTh;
1320:Generated_Source\PSoC6/CapSense_Processing.c ****     uint32 snsCnt;
1321:Generated_Source\PSoC6/CapSense_Processing.c ****     uint32 snsMask;
1322:Generated_Source\PSoC6/CapSense_Processing.c ****     uint32 newStatus;
1323:Generated_Source\PSoC6/CapSense_Processing.c ****     uint32 difference;
1324:Generated_Source\PSoC6/CapSense_Processing.c **** 
1325:Generated_Source\PSoC6/CapSense_Processing.c ****     uint8 *ptrDebounceCnt;
1326:Generated_Source\PSoC6/CapSense_Processing.c ****     CapSense_RAM_SNS_STRUCT *ptrSnsTmp;
1327:Generated_Source\PSoC6/CapSense_Processing.c ****     CapSense_RAM_WD_PROXIMITY_STRUCT *ptrRamWdgt;
1328:Generated_Source\PSoC6/CapSense_Processing.c **** 
1329:Generated_Source\PSoC6/CapSense_Processing.c ****     /* Mask for proximity status bits. (All odd bits.) */
1330:Generated_Source\PSoC6/CapSense_Processing.c ****     const uint32 proxMask = UINT32_ODD_BITS_CONST;
1331:Generated_Source\PSoC6/CapSense_Processing.c **** 
1332:Generated_Source\PSoC6/CapSense_Processing.c ****     ptrSnsTmp = ptrFlashWdgt->ptr2SnsRam;
1333:Generated_Source\PSoC6/CapSense_Processing.c ****     ptrRamWdgt = (CapSense_RAM_WD_PROXIMITY_STRUCT *)ptrFlashWdgt->ptr2WdgtRam;
1334:Generated_Source\PSoC6/CapSense_Processing.c ****     ptrDebounceCnt = ptrFlashWdgt->ptr2DebounceArr;
1335:Generated_Source\PSoC6/CapSense_Processing.c **** 
1336:Generated_Source\PSoC6/CapSense_Processing.c ****     /* Get number of sensors and multiply it by 2 - proximity and touch statuses per sensor. */
1337:Generated_Source\PSoC6/CapSense_Processing.c ****     snsCnt = (uint32)ptrFlashWdgt->totalNumSns << 1u;
1338:Generated_Source\PSoC6/CapSense_Processing.c **** 
1339:Generated_Source\PSoC6/CapSense_Processing.c ****     /* Go through all sensor's status bits */
1340:Generated_Source\PSoC6/CapSense_Processing.c ****     snsMask = 1Lu;
1341:Generated_Source\PSoC6/CapSense_Processing.c ****     for (; snsCnt-- > 0u;)
1342:Generated_Source\PSoC6/CapSense_Processing.c ****     {
1343:Generated_Source\PSoC6/CapSense_Processing.c ****         difference = ptrSnsTmp->diff;
1344:Generated_Source\PSoC6/CapSense_Processing.c **** 
1345:Generated_Source\PSoC6/CapSense_Processing.c ****         /* Determine current event (proximity - odd; touch - even) and get appropriate threshold. *
1346:Generated_Source\PSoC6/CapSense_Processing.c ****         currTh = ptrRamWdgt->fingerTh;
1347:Generated_Source\PSoC6/CapSense_Processing.c **** 
1348:Generated_Source\PSoC6/CapSense_Processing.c ****         if (0u == (snsMask & proxMask))
1349:Generated_Source\PSoC6/CapSense_Processing.c ****         {
1350:Generated_Source\PSoC6/CapSense_Processing.c ****             currTh = ptrRamWdgt->proxTouchTh;
1351:Generated_Source\PSoC6/CapSense_Processing.c ****             ptrSnsTmp++;
1352:Generated_Source\PSoC6/CapSense_Processing.c ****         }
1353:Generated_Source\PSoC6/CapSense_Processing.c **** 
1354:Generated_Source\PSoC6/CapSense_Processing.c ****         /* Calculate finger threshold applying hysteresis based on current sensor state. */
1355:Generated_Source\PSoC6/CapSense_Processing.c ****         currTh = (0u == (currStatus & snsMask)) ? (currTh + ptrRamWdgt->hysteresis) : (currTh - ptr
1356:Generated_Source\PSoC6/CapSense_Processing.c **** 
ARM GAS  C:\Users\ikomb\AppData\Local\Temp\ccYuI7tI.s 			page 47


1357:Generated_Source\PSoC6/CapSense_Processing.c ****         /* Determine new potential sensor state before de-bounce */
1358:Generated_Source\PSoC6/CapSense_Processing.c ****         newStatus = (difference > currTh) ? snsMask : 0Lu;
1359:Generated_Source\PSoC6/CapSense_Processing.c **** 
1360:Generated_Source\PSoC6/CapSense_Processing.c ****         /* Sensor state changed ? */
1361:Generated_Source\PSoC6/CapSense_Processing.c ****         if (newStatus != (currStatus & snsMask))
1362:Generated_Source\PSoC6/CapSense_Processing.c ****         {
1363:Generated_Source\PSoC6/CapSense_Processing.c ****             /* Decrement de-bounce counter */
1364:Generated_Source\PSoC6/CapSense_Processing.c ****             (*ptrDebounceCnt)--;
1365:Generated_Source\PSoC6/CapSense_Processing.c ****         }
1366:Generated_Source\PSoC6/CapSense_Processing.c **** 
1367:Generated_Source\PSoC6/CapSense_Processing.c ****         /*
1368:Generated_Source\PSoC6/CapSense_Processing.c ****         *  This piece of code has two objectives:
1369:Generated_Source\PSoC6/CapSense_Processing.c ****         *  1. Reset de-bounce counter if new sensor state has not changed.
1370:Generated_Source\PSoC6/CapSense_Processing.c ****         *     (It is possible that during previous processing cycles the sensor
1371:Generated_Source\PSoC6/CapSense_Processing.c ****         *     state was different which caused de-bounce counter change.)
1372:Generated_Source\PSoC6/CapSense_Processing.c ****         *  2. Set new sensor state after successful de-bounce.
1373:Generated_Source\PSoC6/CapSense_Processing.c ****         */
1374:Generated_Source\PSoC6/CapSense_Processing.c ****         if ((newStatus == (currStatus & snsMask)) || (0u == (*ptrDebounceCnt)))
1375:Generated_Source\PSoC6/CapSense_Processing.c ****         {
1376:Generated_Source\PSoC6/CapSense_Processing.c ****             /* Set new sensor status */
1377:Generated_Source\PSoC6/CapSense_Processing.c ****             currStatus &= ~snsMask;
1378:Generated_Source\PSoC6/CapSense_Processing.c ****             currStatus |= newStatus;
1379:Generated_Source\PSoC6/CapSense_Processing.c **** 
1380:Generated_Source\PSoC6/CapSense_Processing.c ****             /* Reset de-bounce counter */
1381:Generated_Source\PSoC6/CapSense_Processing.c ****             #if (0u != CapSense_OFF_DEBOUNCE_EN)
1382:Generated_Source\PSoC6/CapSense_Processing.c ****                 *ptrDebounceCnt = (0Lu == newStatus) ? ptrRamWdgt->onDebounce : ptrRamWdgt->offDebo
1383:Generated_Source\PSoC6/CapSense_Processing.c ****             #else
1384:Generated_Source\PSoC6/CapSense_Processing.c ****                 *ptrDebounceCnt = (0Lu == newStatus) ? ptrRamWdgt->onDebounce : DEFAULT_OFF_DEBOUNC
1385:Generated_Source\PSoC6/CapSense_Processing.c ****             #endif /* #if (0u != CapSense_OFF_DEBOUNCE_EN) */
1386:Generated_Source\PSoC6/CapSense_Processing.c ****         }
1387:Generated_Source\PSoC6/CapSense_Processing.c **** 
1388:Generated_Source\PSoC6/CapSense_Processing.c ****         ptrDebounceCnt++;
1389:Generated_Source\PSoC6/CapSense_Processing.c **** 
1390:Generated_Source\PSoC6/CapSense_Processing.c ****         /* Move sensor mask to the next sensor */
1391:Generated_Source\PSoC6/CapSense_Processing.c ****         snsMask <<= 1u;
1392:Generated_Source\PSoC6/CapSense_Processing.c ****     }
1393:Generated_Source\PSoC6/CapSense_Processing.c **** 
1394:Generated_Source\PSoC6/CapSense_Processing.c ****     return currStatus;
1395:Generated_Source\PSoC6/CapSense_Processing.c **** }
1396:Generated_Source\PSoC6/CapSense_Processing.c **** #endif /* #if (0u != CapSense_PROXIMITY_WIDGET_EN) */
1397:Generated_Source\PSoC6/CapSense_Processing.c **** 
1398:Generated_Source\PSoC6/CapSense_Processing.c **** 
1399:Generated_Source\PSoC6/CapSense_Processing.c **** #if (0u != CapSense_SLIDER_WIDGET_EN)
1400:Generated_Source\PSoC6/CapSense_Processing.c **** /*******************************************************************************
1401:Generated_Source\PSoC6/CapSense_Processing.c **** * Function Name: CapSense_DpProcessSlider
1402:Generated_Source\PSoC6/CapSense_Processing.c **** ****************************************************************************//**
1403:Generated_Source\PSoC6/CapSense_Processing.c **** *
1404:Generated_Source\PSoC6/CapSense_Processing.c **** * \brief
1405:Generated_Source\PSoC6/CapSense_Processing.c **** *   Processes the status of the Linear/Radial Slider widget.
1406:Generated_Source\PSoC6/CapSense_Processing.c **** *   The process involves running the Linear/Radial Centroid algorithm.
1407:Generated_Source\PSoC6/CapSense_Processing.c **** *
1408:Generated_Source\PSoC6/CapSense_Processing.c **** * \details
1409:Generated_Source\PSoC6/CapSense_Processing.c **** *   This API processes the status of the CSD Slider widget (Linear and Radial).
1410:Generated_Source\PSoC6/CapSense_Processing.c **** *   It applies the hysteresis and de-bounce algorithm to the widget ignoring
1411:Generated_Source\PSoC6/CapSense_Processing.c **** *   the individual states of the sensors.
1412:Generated_Source\PSoC6/CapSense_Processing.c **** *
1413:Generated_Source\PSoC6/CapSense_Processing.c **** *   This API is expected to be called after each new widget scan. If it is
ARM GAS  C:\Users\ikomb\AppData\Local\Temp\ccYuI7tI.s 			page 48


1414:Generated_Source\PSoC6/CapSense_Processing.c **** *   called multiple times for the same scan data, the debounce algorithm
1415:Generated_Source\PSoC6/CapSense_Processing.c **** *   will not work properly.
1416:Generated_Source\PSoC6/CapSense_Processing.c **** *
1417:Generated_Source\PSoC6/CapSense_Processing.c **** *   Slider widgets do not support the ON to OFF debounce.
1418:Generated_Source\PSoC6/CapSense_Processing.c **** *
1419:Generated_Source\PSoC6/CapSense_Processing.c **** *   This API does not update any Data Structure registers
1420:Generated_Source\PSoC6/CapSense_Processing.c **** *   except the debounce counters.
1421:Generated_Source\PSoC6/CapSense_Processing.c **** *
1422:Generated_Source\PSoC6/CapSense_Processing.c **** * \param currStatus   The current sensor status of the Slider widget.
1423:Generated_Source\PSoC6/CapSense_Processing.c **** * \param ptrFlashWdgt The pointer to the Flash Widget Object.
1424:Generated_Source\PSoC6/CapSense_Processing.c **** *
1425:Generated_Source\PSoC6/CapSense_Processing.c **** * \return Returns the status of the widget's sensors. Bit #0 - corresponds to Sensor #0.
1426:Generated_Source\PSoC6/CapSense_Processing.c **** *
1427:Generated_Source\PSoC6/CapSense_Processing.c **** *******************************************************************************/
1428:Generated_Source\PSoC6/CapSense_Processing.c **** uint32 CapSense_DpProcessSlider(uint32 currStatus, CapSense_FLASH_WD_STRUCT const *ptrFlashWdgt)
1429:Generated_Source\PSoC6/CapSense_Processing.c **** {
 1247              		.loc 1 1429 0
 1248              		.cfi_startproc
 1249              		@ args = 0, pretend = 0, frame = 56
 1250              		@ frame_needed = 1, uses_anonymous_args = 0
 1251 0000 80B5     		push	{r7, lr}
 1252              		.cfi_def_cfa_offset 8
 1253              		.cfi_offset 7, -8
 1254              		.cfi_offset 14, -4
 1255 0002 8EB0     		sub	sp, sp, #56
 1256              		.cfi_def_cfa_offset 64
 1257 0004 00AF     		add	r7, sp, #0
 1258              		.cfi_def_cfa_register 7
 1259 0006 7860     		str	r0, [r7, #4]
 1260 0008 3960     		str	r1, [r7]
1430:Generated_Source\PSoC6/CapSense_Processing.c ****     uint32 snsCnt;
1431:Generated_Source\PSoC6/CapSense_Processing.c ****     uint32 snsMask;
1432:Generated_Source\PSoC6/CapSense_Processing.c ****     uint32 touchTh;
1433:Generated_Source\PSoC6/CapSense_Processing.c ****     uint32 newStatus = 0Lu;
 1261              		.loc 1 1433 0
 1262 000a 0023     		movs	r3, #0
 1263 000c FB62     		str	r3, [r7, #44]
1434:Generated_Source\PSoC6/CapSense_Processing.c ****     uint8 * ptrDebounceCnt;
1435:Generated_Source\PSoC6/CapSense_Processing.c ****     CapSense_RAM_SNS_STRUCT *ptrSnsTmp;
1436:Generated_Source\PSoC6/CapSense_Processing.c ****     CapSense_RAM_WD_SLIDER_STRUCT *ptrRamWdgt;
1437:Generated_Source\PSoC6/CapSense_Processing.c **** 
1438:Generated_Source\PSoC6/CapSense_Processing.c ****     #if (0u != CapSense_POSITION_FILTER_EN)
1439:Generated_Source\PSoC6/CapSense_Processing.c ****         CapSense_SLIDER_POS_HISTORY_STRUCT *ptrHistory;
1440:Generated_Source\PSoC6/CapSense_Processing.c ****     #endif /* #if (0u != CapSense_POSITION_FILTER_EN) */
1441:Generated_Source\PSoC6/CapSense_Processing.c **** 
1442:Generated_Source\PSoC6/CapSense_Processing.c ****     uint32 touchIdx;
1443:Generated_Source\PSoC6/CapSense_Processing.c ****     uint32 touchCnt = 0Lu;
 1264              		.loc 1 1443 0
 1265 000e 0023     		movs	r3, #0
 1266 0010 3B62     		str	r3, [r7, #32]
1444:Generated_Source\PSoC6/CapSense_Processing.c ****     uint16 newPos[CapSense_NUM_CENTROIDS];
1445:Generated_Source\PSoC6/CapSense_Processing.c **** 
1446:Generated_Source\PSoC6/CapSense_Processing.c ****     snsCnt = ptrFlashWdgt->totalNumSns;
 1267              		.loc 1 1446 0
 1268 0012 3B68     		ldr	r3, [r7]
 1269 0014 1B8B     		ldrh	r3, [r3, #24]
 1270 0016 7B63     		str	r3, [r7, #52]
ARM GAS  C:\Users\ikomb\AppData\Local\Temp\ccYuI7tI.s 			page 49


1447:Generated_Source\PSoC6/CapSense_Processing.c ****     ptrSnsTmp = ptrFlashWdgt->ptr2SnsRam;
 1271              		.loc 1 1447 0
 1272 0018 3B68     		ldr	r3, [r7]
 1273 001a 9B68     		ldr	r3, [r3, #8]
 1274 001c BB62     		str	r3, [r7, #40]
1448:Generated_Source\PSoC6/CapSense_Processing.c ****     ptrRamWdgt = (CapSense_RAM_WD_SLIDER_STRUCT *)ptrFlashWdgt->ptr2WdgtRam;
 1275              		.loc 1 1448 0
 1276 001e 3B68     		ldr	r3, [r7]
 1277 0020 5B68     		ldr	r3, [r3, #4]
 1278 0022 FB61     		str	r3, [r7, #28]
1449:Generated_Source\PSoC6/CapSense_Processing.c ****     ptrDebounceCnt = ptrFlashWdgt->ptr2DebounceArr;
 1279              		.loc 1 1449 0
 1280 0024 3B68     		ldr	r3, [r7]
 1281 0026 1B69     		ldr	r3, [r3, #16]
 1282 0028 BB61     		str	r3, [r7, #24]
1450:Generated_Source\PSoC6/CapSense_Processing.c **** 
1451:Generated_Source\PSoC6/CapSense_Processing.c ****     #if (0u != CapSense_POSITION_FILTER_EN)
1452:Generated_Source\PSoC6/CapSense_Processing.c ****         ptrHistory = ptrFlashWdgt->ptr2PosHistory;
 1283              		.loc 1 1452 0
 1284 002a 3B68     		ldr	r3, [r7]
 1285 002c 9B6A     		ldr	r3, [r3, #40]
 1286 002e 7B61     		str	r3, [r7, #20]
1453:Generated_Source\PSoC6/CapSense_Processing.c ****     #endif /* #if (0u != CapSense_POSITION_FILTER_EN) */
1454:Generated_Source\PSoC6/CapSense_Processing.c **** 
1455:Generated_Source\PSoC6/CapSense_Processing.c ****     /* Calculate touch threshold based on current slider state */
1456:Generated_Source\PSoC6/CapSense_Processing.c ****     touchTh = (0Lu == currStatus ) ?
1457:Generated_Source\PSoC6/CapSense_Processing.c ****               ((uint32)ptrRamWdgt->fingerTh + ptrRamWdgt->hysteresis) :
 1287              		.loc 1 1457 0
 1288 0030 7B68     		ldr	r3, [r7, #4]
 1289 0032 002B     		cmp	r3, #0
 1290 0034 06D1     		bne	.L83
 1291              		.loc 1 1457 0 is_stmt 0 discriminator 1
 1292 0036 FB69     		ldr	r3, [r7, #28]
 1293 0038 5B88     		ldrh	r3, [r3, #2]
 1294 003a 1A46     		mov	r2, r3
 1295 003c FB69     		ldr	r3, [r7, #28]
 1296 003e 9B79     		ldrb	r3, [r3, #6]	@ zero_extendqisi2
 1297 0040 1344     		add	r3, r3, r2
 1298 0042 05E0     		b	.L84
 1299              	.L83:
1458:Generated_Source\PSoC6/CapSense_Processing.c ****               ((uint32)ptrRamWdgt->fingerTh - ptrRamWdgt->hysteresis);
 1300              		.loc 1 1458 0 is_stmt 1 discriminator 2
 1301 0044 FB69     		ldr	r3, [r7, #28]
 1302 0046 5B88     		ldrh	r3, [r3, #2]
 1303 0048 1A46     		mov	r2, r3
 1304 004a FB69     		ldr	r3, [r7, #28]
 1305 004c 9B79     		ldrb	r3, [r3, #6]	@ zero_extendqisi2
1457:Generated_Source\PSoC6/CapSense_Processing.c ****               ((uint32)ptrRamWdgt->fingerTh - ptrRamWdgt->hysteresis);
 1306              		.loc 1 1457 0 discriminator 2
 1307 004e D31A     		subs	r3, r2, r3
 1308              	.L84:
1456:Generated_Source\PSoC6/CapSense_Processing.c ****               ((uint32)ptrRamWdgt->fingerTh + ptrRamWdgt->hysteresis) :
 1309              		.loc 1 1456 0
 1310 0050 3B61     		str	r3, [r7, #16]
1459:Generated_Source\PSoC6/CapSense_Processing.c **** 
1460:Generated_Source\PSoC6/CapSense_Processing.c ****     /* Go through all widget's sensors */
1461:Generated_Source\PSoC6/CapSense_Processing.c ****     snsMask = 1Lu;
ARM GAS  C:\Users\ikomb\AppData\Local\Temp\ccYuI7tI.s 			page 50


 1311              		.loc 1 1461 0
 1312 0052 0123     		movs	r3, #1
 1313 0054 3B63     		str	r3, [r7, #48]
1462:Generated_Source\PSoC6/CapSense_Processing.c ****     for (; snsCnt-- > 0Lu; )
 1314              		.loc 1 1462 0
 1315 0056 11E0     		b	.L85
 1316              	.L88:
1463:Generated_Source\PSoC6/CapSense_Processing.c ****     {
1464:Generated_Source\PSoC6/CapSense_Processing.c ****         /* Determine new potential sensor state */
1465:Generated_Source\PSoC6/CapSense_Processing.c ****         newStatus |= (ptrSnsTmp->diff > touchTh) ? snsMask : 0Lu;
 1317              		.loc 1 1465 0
 1318 0058 BB6A     		ldr	r3, [r7, #40]
 1319 005a DB88     		ldrh	r3, [r3, #6]
 1320 005c 1A46     		mov	r2, r3
 1321 005e 3B69     		ldr	r3, [r7, #16]
 1322 0060 9A42     		cmp	r2, r3
 1323 0062 01D9     		bls	.L86
 1324              		.loc 1 1465 0 is_stmt 0 discriminator 1
 1325 0064 3B6B     		ldr	r3, [r7, #48]
 1326 0066 00E0     		b	.L87
 1327              	.L86:
 1328              		.loc 1 1465 0 discriminator 2
 1329 0068 0023     		movs	r3, #0
 1330              	.L87:
 1331              		.loc 1 1465 0 discriminator 4
 1332 006a FA6A     		ldr	r2, [r7, #44]
 1333 006c 1343     		orrs	r3, r3, r2
 1334 006e FB62     		str	r3, [r7, #44]
1466:Generated_Source\PSoC6/CapSense_Processing.c ****         ptrSnsTmp++;
 1335              		.loc 1 1466 0 is_stmt 1 discriminator 4
 1336 0070 BB6A     		ldr	r3, [r7, #40]
 1337 0072 0A33     		adds	r3, r3, #10
 1338 0074 BB62     		str	r3, [r7, #40]
1467:Generated_Source\PSoC6/CapSense_Processing.c **** 
1468:Generated_Source\PSoC6/CapSense_Processing.c ****         snsMask <<= 1u;
 1339              		.loc 1 1468 0 discriminator 4
 1340 0076 3B6B     		ldr	r3, [r7, #48]
 1341 0078 5B00     		lsls	r3, r3, #1
 1342 007a 3B63     		str	r3, [r7, #48]
 1343              	.L85:
1462:Generated_Source\PSoC6/CapSense_Processing.c ****     {
 1344              		.loc 1 1462 0
 1345 007c 7B6B     		ldr	r3, [r7, #52]
 1346 007e 5A1E     		subs	r2, r3, #1
 1347 0080 7A63     		str	r2, [r7, #52]
 1348 0082 002B     		cmp	r3, #0
 1349 0084 E8D1     		bne	.L88
1469:Generated_Source\PSoC6/CapSense_Processing.c ****     }
1470:Generated_Source\PSoC6/CapSense_Processing.c **** 
1471:Generated_Source\PSoC6/CapSense_Processing.c ****     /* If widget is active, check whether debounce is needed */
1472:Generated_Source\PSoC6/CapSense_Processing.c ****     if (0Lu != newStatus)
 1350              		.loc 1 1472 0
 1351 0086 FB6A     		ldr	r3, [r7, #44]
 1352 0088 002B     		cmp	r3, #0
 1353 008a 10D0     		beq	.L89
1473:Generated_Source\PSoC6/CapSense_Processing.c ****     {
1474:Generated_Source\PSoC6/CapSense_Processing.c ****         if (0u < (*ptrDebounceCnt))
ARM GAS  C:\Users\ikomb\AppData\Local\Temp\ccYuI7tI.s 			page 51


 1354              		.loc 1 1474 0
 1355 008c BB69     		ldr	r3, [r7, #24]
 1356 008e 1B78     		ldrb	r3, [r3]	@ zero_extendqisi2
 1357 0090 002B     		cmp	r3, #0
 1358 0092 05D0     		beq	.L90
1475:Generated_Source\PSoC6/CapSense_Processing.c ****         {
1476:Generated_Source\PSoC6/CapSense_Processing.c ****             /* Decrement debounce counter */
1477:Generated_Source\PSoC6/CapSense_Processing.c ****             (*ptrDebounceCnt)--;
 1359              		.loc 1 1477 0
 1360 0094 BB69     		ldr	r3, [r7, #24]
 1361 0096 1B78     		ldrb	r3, [r3]	@ zero_extendqisi2
 1362 0098 013B     		subs	r3, r3, #1
 1363 009a DAB2     		uxtb	r2, r3
 1364 009c BB69     		ldr	r3, [r7, #24]
 1365 009e 1A70     		strb	r2, [r3]
 1366              	.L90:
1478:Generated_Source\PSoC6/CapSense_Processing.c ****         }
1479:Generated_Source\PSoC6/CapSense_Processing.c **** 
1480:Generated_Source\PSoC6/CapSense_Processing.c ****         if (0u == (*ptrDebounceCnt))
 1367              		.loc 1 1480 0
 1368 00a0 BB69     		ldr	r3, [r7, #24]
 1369 00a2 1B78     		ldrb	r3, [r3]	@ zero_extendqisi2
 1370 00a4 002B     		cmp	r3, #0
 1371 00a6 08D1     		bne	.L92
1481:Generated_Source\PSoC6/CapSense_Processing.c ****         {
1482:Generated_Source\PSoC6/CapSense_Processing.c ****             /* Update slider sensor state when debounce completes */
1483:Generated_Source\PSoC6/CapSense_Processing.c ****             currStatus = newStatus;
 1372              		.loc 1 1483 0
 1373 00a8 FB6A     		ldr	r3, [r7, #44]
 1374 00aa 7B60     		str	r3, [r7, #4]
 1375 00ac 05E0     		b	.L92
 1376              	.L89:
1484:Generated_Source\PSoC6/CapSense_Processing.c ****         }
1485:Generated_Source\PSoC6/CapSense_Processing.c ****     }
1486:Generated_Source\PSoC6/CapSense_Processing.c ****     else
1487:Generated_Source\PSoC6/CapSense_Processing.c ****     {
1488:Generated_Source\PSoC6/CapSense_Processing.c ****         /* Reset debounce counter */
1489:Generated_Source\PSoC6/CapSense_Processing.c ****         *ptrDebounceCnt = ptrRamWdgt->onDebounce;
 1377              		.loc 1 1489 0
 1378 00ae FB69     		ldr	r3, [r7, #28]
 1379 00b0 DA79     		ldrb	r2, [r3, #7]	@ zero_extendqisi2
 1380 00b2 BB69     		ldr	r3, [r7, #24]
 1381 00b4 1A70     		strb	r2, [r3]
1490:Generated_Source\PSoC6/CapSense_Processing.c **** 
1491:Generated_Source\PSoC6/CapSense_Processing.c ****         /* Clear slider sensor state */
1492:Generated_Source\PSoC6/CapSense_Processing.c ****         currStatus = 0Lu;
 1382              		.loc 1 1492 0
 1383 00b6 0023     		movs	r3, #0
 1384 00b8 7B60     		str	r3, [r7, #4]
 1385              	.L92:
1493:Generated_Source\PSoC6/CapSense_Processing.c ****     }
1494:Generated_Source\PSoC6/CapSense_Processing.c **** 
1495:Generated_Source\PSoC6/CapSense_Processing.c ****     /* Centroid processing */
1496:Generated_Source\PSoC6/CapSense_Processing.c ****     /* If there are active sensors after debounce run the centroid algorithm */
1497:Generated_Source\PSoC6/CapSense_Processing.c ****     if (0u != currStatus)
 1386              		.loc 1 1497 0
 1387 00ba 7B68     		ldr	r3, [r7, #4]
ARM GAS  C:\Users\ikomb\AppData\Local\Temp\ccYuI7tI.s 			page 52


 1388 00bc 002B     		cmp	r3, #0
 1389 00be 28D0     		beq	.L93
1498:Generated_Source\PSoC6/CapSense_Processing.c ****     {
1499:Generated_Source\PSoC6/CapSense_Processing.c ****         /* Centroid always uses the lowest finger threshold (minus hysteresis)
1500:Generated_Source\PSoC6/CapSense_Processing.c ****          * to produce same results for first and all consecutive invocations */
1501:Generated_Source\PSoC6/CapSense_Processing.c ****         touchTh = (uint32)ptrRamWdgt->fingerTh - ptrRamWdgt->hysteresis;
 1390              		.loc 1 1501 0
 1391 00c0 FB69     		ldr	r3, [r7, #28]
 1392 00c2 5B88     		ldrh	r3, [r3, #2]
 1393 00c4 1A46     		mov	r2, r3
 1394 00c6 FB69     		ldr	r3, [r7, #28]
 1395 00c8 9B79     		ldrb	r3, [r3, #6]	@ zero_extendqisi2
 1396 00ca D31A     		subs	r3, r2, r3
 1397 00cc 3B61     		str	r3, [r7, #16]
1502:Generated_Source\PSoC6/CapSense_Processing.c ****         snsCnt = ptrFlashWdgt->totalNumSns;
 1398              		.loc 1 1502 0
 1399 00ce 3B68     		ldr	r3, [r7]
 1400 00d0 1B8B     		ldrh	r3, [r3, #24]
 1401 00d2 7B63     		str	r3, [r7, #52]
1503:Generated_Source\PSoC6/CapSense_Processing.c **** 
1504:Generated_Source\PSoC6/CapSense_Processing.c ****         #if (0u != CapSense_TOTAL_DIPLEXED_SLIDERS)
1505:Generated_Source\PSoC6/CapSense_Processing.c ****             if ((0u != (ptrFlashWdgt->staticConfig & CapSense_DIPLEXING_MASK)))
1506:Generated_Source\PSoC6/CapSense_Processing.c ****             {
1507:Generated_Source\PSoC6/CapSense_Processing.c ****                 /* Run local maximum search for duplexed slider */
1508:Generated_Source\PSoC6/CapSense_Processing.c ****                 touchCnt = CapSense_DpFindLocalMaxDiplex(
1509:Generated_Source\PSoC6/CapSense_Processing.c ****                                 ptrFlashWdgt->ptr2SnsRam, snsCnt, ptrFlashWdgt->ptr2DiplexTable, to
1510:Generated_Source\PSoC6/CapSense_Processing.c **** 
1511:Generated_Source\PSoC6/CapSense_Processing.c ****                 /* Centroid calculation API requires double sensor count for the diplexed sliders. 
1512:Generated_Source\PSoC6/CapSense_Processing.c ****                 snsCnt *= 2u;
1513:Generated_Source\PSoC6/CapSense_Processing.c ****             }
1514:Generated_Source\PSoC6/CapSense_Processing.c ****             else
1515:Generated_Source\PSoC6/CapSense_Processing.c ****             {
1516:Generated_Source\PSoC6/CapSense_Processing.c ****                 /* Run local maximum search for NON-duplexed slider */
1517:Generated_Source\PSoC6/CapSense_Processing.c ****                 #if (CapSense_ENABLE == CapSense_4PTS_LOCAL_MAX_EN)
1518:Generated_Source\PSoC6/CapSense_Processing.c ****                     touchCnt = CapSense_DpFindLocalMaxSd4pts(ptrFlashWdgt, ptrFlashWdgt->ptr2SnsRam
1519:Generated_Source\PSoC6/CapSense_Processing.c ****                 #else
1520:Generated_Source\PSoC6/CapSense_Processing.c ****                     touchCnt = CapSense_DpFindLocalMaxSd(ptrFlashWdgt->ptr2SnsRam, snsCnt, touchTh)
1521:Generated_Source\PSoC6/CapSense_Processing.c ****                 #endif
1522:Generated_Source\PSoC6/CapSense_Processing.c ****             }
1523:Generated_Source\PSoC6/CapSense_Processing.c ****         #else
1524:Generated_Source\PSoC6/CapSense_Processing.c ****             /* Run local maximum search for NON-duplexed slider */
1525:Generated_Source\PSoC6/CapSense_Processing.c ****             #if (CapSense_ENABLE == CapSense_4PTS_LOCAL_MAX_EN)
1526:Generated_Source\PSoC6/CapSense_Processing.c ****                 touchCnt = CapSense_DpFindLocalMaxSd4pts(ptrFlashWdgt, ptrFlashWdgt->ptr2SnsRam, sn
1527:Generated_Source\PSoC6/CapSense_Processing.c ****             #else
1528:Generated_Source\PSoC6/CapSense_Processing.c ****                 touchCnt = CapSense_DpFindLocalMaxSd(ptrFlashWdgt->ptr2SnsRam, snsCnt, touchTh);
 1402              		.loc 1 1528 0
 1403 00d4 3B68     		ldr	r3, [r7]
 1404 00d6 9B68     		ldr	r3, [r3, #8]
 1405 00d8 3A69     		ldr	r2, [r7, #16]
 1406 00da 796B     		ldr	r1, [r7, #52]
 1407 00dc 1846     		mov	r0, r3
 1408 00de FFF7FEFF 		bl	CapSense_DpFindLocalMaxSd
 1409 00e2 3862     		str	r0, [r7, #32]
1529:Generated_Source\PSoC6/CapSense_Processing.c ****             #endif
1530:Generated_Source\PSoC6/CapSense_Processing.c ****         #endif /* #if (0u != CapSense_TOTAL_DIPLEXED_SLIDERS) */
1531:Generated_Source\PSoC6/CapSense_Processing.c **** 
1532:Generated_Source\PSoC6/CapSense_Processing.c ****         /* If at least one touch is detected */
ARM GAS  C:\Users\ikomb\AppData\Local\Temp\ccYuI7tI.s 			page 53


1533:Generated_Source\PSoC6/CapSense_Processing.c ****         if (0u != touchCnt)
 1410              		.loc 1 1533 0
 1411 00e4 3B6A     		ldr	r3, [r7, #32]
 1412 00e6 002B     		cmp	r3, #0
 1413 00e8 13D0     		beq	.L93
1534:Generated_Source\PSoC6/CapSense_Processing.c ****         {
1535:Generated_Source\PSoC6/CapSense_Processing.c ****             /* Determine slider type and calculate new position(s) */
1536:Generated_Source\PSoC6/CapSense_Processing.c ****             #if (0u != CapSense_TOTAL_LINEAR_SLIDERS)
1537:Generated_Source\PSoC6/CapSense_Processing.c ****                 if ((CapSense_WD_TYPE_ENUM)ptrFlashWdgt->wdgtType == CapSense_WD_LINEAR_SLIDER_E)
 1414              		.loc 1 1537 0
 1415 00ea 3B68     		ldr	r3, [r7]
 1416 00ec 9B7E     		ldrb	r3, [r3, #26]	@ zero_extendqisi2
 1417 00ee 022B     		cmp	r3, #2
 1418 00f0 0FD1     		bne	.L93
1538:Generated_Source\PSoC6/CapSense_Processing.c ****                 {
1539:Generated_Source\PSoC6/CapSense_Processing.c ****                     #if (CapSense_ENABLE == CapSense_SLIDER_MULT_METHOD)
1540:Generated_Source\PSoC6/CapSense_Processing.c ****                         touchCnt = CapSense_DpCalcLinearCentroid(newPos, (uint32)ptrFlashWdgt->xCen
1541:Generated_Source\PSoC6/CapSense_Processing.c ****                                     snsCnt, (uint32)(ptrFlashWdgt->xCentroidMultiplier >> 1));
1542:Generated_Source\PSoC6/CapSense_Processing.c ****                     #else
1543:Generated_Source\PSoC6/CapSense_Processing.c ****                         touchCnt = CapSense_DpCalcLinearCentroid(
1544:Generated_Source\PSoC6/CapSense_Processing.c ****                                         newPos, (uint32)ptrFlashWdgt->xCentroidMultiplier, snsCnt, 
 1419              		.loc 1 1544 0
 1420 00f2 3B68     		ldr	r3, [r7]
 1421 00f4 196A     		ldr	r1, [r3, #32]
1543:Generated_Source\PSoC6/CapSense_Processing.c ****                                         newPos, (uint32)ptrFlashWdgt->xCentroidMultiplier, snsCnt, 
 1422              		.loc 1 1543 0
 1423 00f6 07F10C00 		add	r0, r7, #12
 1424 00fa 0023     		movs	r3, #0
 1425 00fc 7A6B     		ldr	r2, [r7, #52]
 1426 00fe FFF7FEFF 		bl	CapSense_DpCalcLinearCentroid
 1427 0102 3862     		str	r0, [r7, #32]
1545:Generated_Source\PSoC6/CapSense_Processing.c ****                     #endif
1546:Generated_Source\PSoC6/CapSense_Processing.c ****                     DpUpdateLinSlider(newPos, touchCnt, ptrFlashWdgt, ptrRamWdgt);
 1428              		.loc 1 1546 0
 1429 0104 07F10C00 		add	r0, r7, #12
 1430 0108 FB69     		ldr	r3, [r7, #28]
 1431 010a 3A68     		ldr	r2, [r7]
 1432 010c 396A     		ldr	r1, [r7, #32]
 1433 010e FFF7FEFF 		bl	DpUpdateLinSlider
 1434              	.L93:
1547:Generated_Source\PSoC6/CapSense_Processing.c ****                 }
1548:Generated_Source\PSoC6/CapSense_Processing.c ****             #endif /* #if (0u != CapSense_TOTAL_LINEAR_SLIDERS) */
1549:Generated_Source\PSoC6/CapSense_Processing.c **** 
1550:Generated_Source\PSoC6/CapSense_Processing.c ****             #if (0u != CapSense_TOTAL_RADIAL_SLIDERS)
1551:Generated_Source\PSoC6/CapSense_Processing.c ****                 if ((CapSense_WD_TYPE_ENUM)ptrFlashWdgt->wdgtType == CapSense_WD_RADIAL_SLIDER_E)
1552:Generated_Source\PSoC6/CapSense_Processing.c ****                 {
1553:Generated_Source\PSoC6/CapSense_Processing.c ****                     touchCnt = CapSense_DpCalcRadialCentroid(
1554:Generated_Source\PSoC6/CapSense_Processing.c ****                                     newPos, (uint32)ptrFlashWdgt->xCentroidMultiplier, snsCnt);
1555:Generated_Source\PSoC6/CapSense_Processing.c ****                     DpUpdateRadSlider(newPos, touchCnt, ptrFlashWdgt, ptrRamWdgt);
1556:Generated_Source\PSoC6/CapSense_Processing.c ****                 }
1557:Generated_Source\PSoC6/CapSense_Processing.c ****             #endif /* #if (0u != CapSense_TOTAL_RADIAL_SLIDERS) */
1558:Generated_Source\PSoC6/CapSense_Processing.c ****         }
1559:Generated_Source\PSoC6/CapSense_Processing.c ****     }
1560:Generated_Source\PSoC6/CapSense_Processing.c **** 
1561:Generated_Source\PSoC6/CapSense_Processing.c ****     /* Clear not active position data slots */
1562:Generated_Source\PSoC6/CapSense_Processing.c ****     for (touchIdx = touchCnt; touchIdx < CapSense_NUM_CENTROIDS; touchIdx++)
 1435              		.loc 1 1562 0
ARM GAS  C:\Users\ikomb\AppData\Local\Temp\ccYuI7tI.s 			page 54


 1436 0112 3B6A     		ldr	r3, [r7, #32]
 1437 0114 7B62     		str	r3, [r7, #36]
 1438 0116 16E0     		b	.L94
 1439              	.L96:
1563:Generated_Source\PSoC6/CapSense_Processing.c ****     {
1564:Generated_Source\PSoC6/CapSense_Processing.c ****         ptrRamWdgt->position[touchIdx] = CapSense_SLIDER_POS_NONE;
 1440              		.loc 1 1564 0
 1441 0118 FA69     		ldr	r2, [r7, #28]
 1442 011a 7B6A     		ldr	r3, [r7, #36]
 1443 011c 0833     		adds	r3, r3, #8
 1444 011e 5B00     		lsls	r3, r3, #1
 1445 0120 1344     		add	r3, r3, r2
 1446 0122 4FF6FF72 		movw	r2, #65535
 1447 0126 5A80     		strh	r2, [r3, #2]	@ movhi
1565:Generated_Source\PSoC6/CapSense_Processing.c **** 
1566:Generated_Source\PSoC6/CapSense_Processing.c ****         #if (0u != CapSense_POSITION_FILTER_EN)
1567:Generated_Source\PSoC6/CapSense_Processing.c ****             if (NULL != ptrHistory)
 1448              		.loc 1 1567 0
 1449 0128 7B69     		ldr	r3, [r7, #20]
 1450 012a 002B     		cmp	r3, #0
 1451 012c 08D0     		beq	.L95
1568:Generated_Source\PSoC6/CapSense_Processing.c ****             {
1569:Generated_Source\PSoC6/CapSense_Processing.c ****                 CapSense_InitPosFiltersSd(&ptrHistory[touchIdx], CapSense_SLIDER_POS_NONE);
 1452              		.loc 1 1569 0
 1453 012e 7B6A     		ldr	r3, [r7, #36]
 1454 0130 5B00     		lsls	r3, r3, #1
 1455 0132 7A69     		ldr	r2, [r7, #20]
 1456 0134 1344     		add	r3, r3, r2
 1457 0136 4FF6FF71 		movw	r1, #65535
 1458 013a 1846     		mov	r0, r3
 1459 013c FFF7FEFF 		bl	CapSense_InitPosFiltersSd
 1460              	.L95:
1562:Generated_Source\PSoC6/CapSense_Processing.c ****     {
 1461              		.loc 1 1562 0 discriminator 2
 1462 0140 7B6A     		ldr	r3, [r7, #36]
 1463 0142 0133     		adds	r3, r3, #1
 1464 0144 7B62     		str	r3, [r7, #36]
 1465              	.L94:
1562:Generated_Source\PSoC6/CapSense_Processing.c ****     {
 1466              		.loc 1 1562 0 is_stmt 0 discriminator 1
 1467 0146 7B6A     		ldr	r3, [r7, #36]
 1468 0148 002B     		cmp	r3, #0
 1469 014a E5D0     		beq	.L96
1570:Generated_Source\PSoC6/CapSense_Processing.c ****             }
1571:Generated_Source\PSoC6/CapSense_Processing.c ****         #endif /* #if (0u != CapSense_POSITION_FILTER_EN) */
1572:Generated_Source\PSoC6/CapSense_Processing.c ****     }
1573:Generated_Source\PSoC6/CapSense_Processing.c **** 
1574:Generated_Source\PSoC6/CapSense_Processing.c ****     return currStatus;
 1470              		.loc 1 1574 0 is_stmt 1
 1471 014c 7B68     		ldr	r3, [r7, #4]
1575:Generated_Source\PSoC6/CapSense_Processing.c **** }
 1472              		.loc 1 1575 0
 1473 014e 1846     		mov	r0, r3
 1474 0150 3837     		adds	r7, r7, #56
 1475              		.cfi_def_cfa_offset 8
 1476 0152 BD46     		mov	sp, r7
 1477              		.cfi_def_cfa_register 13
ARM GAS  C:\Users\ikomb\AppData\Local\Temp\ccYuI7tI.s 			page 55


 1478              		@ sp needed
 1479 0154 80BD     		pop	{r7, pc}
 1480              		.cfi_endproc
 1481              	.LFE136:
 1482              		.size	CapSense_DpProcessSlider, .-CapSense_DpProcessSlider
 1483 0156 00BF     		.section	.text.DpUpdateLinSlider,"ax",%progbits
 1484              		.align	2
 1485              		.thumb
 1486              		.thumb_func
 1487              		.type	DpUpdateLinSlider, %function
 1488              	DpUpdateLinSlider:
 1489              	.LFB137:
1576:Generated_Source\PSoC6/CapSense_Processing.c **** #endif /* #if (0u != CapSense_SLIDER_WIDGET_EN) */
1577:Generated_Source\PSoC6/CapSense_Processing.c **** 
1578:Generated_Source\PSoC6/CapSense_Processing.c **** #if (0u != CapSense_TOTAL_LINEAR_SLIDERS)
1579:Generated_Source\PSoC6/CapSense_Processing.c **** /*******************************************************************************
1580:Generated_Source\PSoC6/CapSense_Processing.c **** * Function Name: DpUpdateLinSlider
1581:Generated_Source\PSoC6/CapSense_Processing.c **** ****************************************************************************//**
1582:Generated_Source\PSoC6/CapSense_Processing.c **** *
1583:Generated_Source\PSoC6/CapSense_Processing.c **** * \brief
1584:Generated_Source\PSoC6/CapSense_Processing.c **** *   Updates the touch status of the Linear Slider widget.
1585:Generated_Source\PSoC6/CapSense_Processing.c **** *
1586:Generated_Source\PSoC6/CapSense_Processing.c **** * \details
1587:Generated_Source\PSoC6/CapSense_Processing.c **** *   This function updates the position data of the Linear Slider
1588:Generated_Source\PSoC6/CapSense_Processing.c **** *   in the Data Structure. Also, this function runs position filters for the
1589:Generated_Source\PSoC6/CapSense_Processing.c **** *   position data if any enabled.
1590:Generated_Source\PSoC6/CapSense_Processing.c **** *
1591:Generated_Source\PSoC6/CapSense_Processing.c **** * \param newPos       The pointer to the array with the new finger position coordinates.
1592:Generated_Source\PSoC6/CapSense_Processing.c **** * \param numTouches   The number of the coordinates in the newPos array.
1593:Generated_Source\PSoC6/CapSense_Processing.c **** * \param ptrFlashWdgt The pointer to the Flash Widget Object.
1594:Generated_Source\PSoC6/CapSense_Processing.c **** * \param ptrRamWdgt   The pointer to the RAM Widget Object.
1595:Generated_Source\PSoC6/CapSense_Processing.c **** *
1596:Generated_Source\PSoC6/CapSense_Processing.c **** *******************************************************************************/
1597:Generated_Source\PSoC6/CapSense_Processing.c **** __STATIC_INLINE void DpUpdateLinSlider(
1598:Generated_Source\PSoC6/CapSense_Processing.c ****                         const uint16 newPos[],
1599:Generated_Source\PSoC6/CapSense_Processing.c ****                         uint32 numTouches,
1600:Generated_Source\PSoC6/CapSense_Processing.c ****                         CapSense_FLASH_WD_STRUCT const *ptrFlashWdgt,
1601:Generated_Source\PSoC6/CapSense_Processing.c ****                         CapSense_RAM_WD_SLIDER_STRUCT *ptrRamWdgt)
1602:Generated_Source\PSoC6/CapSense_Processing.c **** {
 1490              		.loc 1 1602 0
 1491              		.cfi_startproc
 1492              		@ args = 0, pretend = 0, frame = 40
 1493              		@ frame_needed = 1, uses_anonymous_args = 0
 1494 0000 80B5     		push	{r7, lr}
 1495              		.cfi_def_cfa_offset 8
 1496              		.cfi_offset 7, -8
 1497              		.cfi_offset 14, -4
 1498 0002 8AB0     		sub	sp, sp, #40
 1499              		.cfi_def_cfa_offset 48
 1500 0004 00AF     		add	r7, sp, #0
 1501              		.cfi_def_cfa_register 7
 1502 0006 F860     		str	r0, [r7, #12]
 1503 0008 B960     		str	r1, [r7, #8]
 1504 000a 7A60     		str	r2, [r7, #4]
 1505 000c 3B60     		str	r3, [r7]
1603:Generated_Source\PSoC6/CapSense_Processing.c ****     uint32 touchIdx;
1604:Generated_Source\PSoC6/CapSense_Processing.c **** 
ARM GAS  C:\Users\ikomb\AppData\Local\Temp\ccYuI7tI.s 			page 56


1605:Generated_Source\PSoC6/CapSense_Processing.c ****     #if (0u != CapSense_POS_AVERAGE_FILTER_EN)
1606:Generated_Source\PSoC6/CapSense_Processing.c ****         uint16 tempPosition;
1607:Generated_Source\PSoC6/CapSense_Processing.c ****     #endif /* (0u != CapSense_POS_AVERAGE_FILTER_EN) */
1608:Generated_Source\PSoC6/CapSense_Processing.c **** 
1609:Generated_Source\PSoC6/CapSense_Processing.c ****     #if (0u == CapSense_POSITION_FILTER_EN)
1610:Generated_Source\PSoC6/CapSense_Processing.c ****         /* This parameter is unused in such configurations */
1611:Generated_Source\PSoC6/CapSense_Processing.c ****         (void)ptrFlashWdgt;
1612:Generated_Source\PSoC6/CapSense_Processing.c ****     #else
1613:Generated_Source\PSoC6/CapSense_Processing.c ****         uint16 filteredPosition;
1614:Generated_Source\PSoC6/CapSense_Processing.c ****         /* Get bitmask with the enabled filters */
1615:Generated_Source\PSoC6/CapSense_Processing.c ****         uint32 filterConfig = (uint32)ptrFlashWdgt->staticConfig;
 1506              		.loc 1 1615 0
 1507 000e 7B68     		ldr	r3, [r7, #4]
 1508 0010 5B69     		ldr	r3, [r3, #20]
 1509 0012 BB61     		str	r3, [r7, #24]
1616:Generated_Source\PSoC6/CapSense_Processing.c ****         /* Get pointer to the position filter history */
1617:Generated_Source\PSoC6/CapSense_Processing.c ****         CapSense_SLIDER_POS_HISTORY_STRUCT *ptrHistory = ptrFlashWdgt->ptr2PosHistory;
 1510              		.loc 1 1617 0
 1511 0014 7B68     		ldr	r3, [r7, #4]
 1512 0016 9B6A     		ldr	r3, [r3, #40]
 1513 0018 FB61     		str	r3, [r7, #28]
1618:Generated_Source\PSoC6/CapSense_Processing.c ****     #endif /* #if (0u == CapSense_POSITION_FILTER_EN) */
1619:Generated_Source\PSoC6/CapSense_Processing.c **** 
1620:Generated_Source\PSoC6/CapSense_Processing.c ****     #if (0u != CapSense_POS_ADAPTIVE_IIR_FILTER_EN)
1621:Generated_Source\PSoC6/CapSense_Processing.c ****         ADAPTIVE_FILTER_CONTEXT_STRUCT contextAIIR;
1622:Generated_Source\PSoC6/CapSense_Processing.c ****         uint16 emptyPosition = 0;
1623:Generated_Source\PSoC6/CapSense_Processing.c ****     #endif /* (0u != CapSense_POS_ADAPTIVE_IIR_FILTER_EN) */
1624:Generated_Source\PSoC6/CapSense_Processing.c **** 
1625:Generated_Source\PSoC6/CapSense_Processing.c ****     /* Run Filter and update the position registers with the filtered data */
1626:Generated_Source\PSoC6/CapSense_Processing.c ****     for (touchIdx = 0u; touchIdx < numTouches; touchIdx++)
 1514              		.loc 1 1626 0
 1515 001a 0023     		movs	r3, #0
 1516 001c 7B62     		str	r3, [r7, #36]
 1517 001e 38E0     		b	.L99
 1518              	.L104:
1627:Generated_Source\PSoC6/CapSense_Processing.c ****     {
1628:Generated_Source\PSoC6/CapSense_Processing.c ****         #if (0u == CapSense_POSITION_FILTER_EN)
1629:Generated_Source\PSoC6/CapSense_Processing.c ****             /* If filters are not enabled just copy the position data */
1630:Generated_Source\PSoC6/CapSense_Processing.c ****             ptrRamWdgt->position[touchIdx] = newPos[touchIdx];
1631:Generated_Source\PSoC6/CapSense_Processing.c ****         #else
1632:Generated_Source\PSoC6/CapSense_Processing.c ****             filteredPosition = newPos[touchIdx];
 1519              		.loc 1 1632 0
 1520 0020 7B6A     		ldr	r3, [r7, #36]
 1521 0022 5B00     		lsls	r3, r3, #1
 1522 0024 FA68     		ldr	r2, [r7, #12]
 1523 0026 1344     		add	r3, r3, r2
 1524 0028 1B88     		ldrh	r3, [r3]	@ movhi
 1525 002a 7B84     		strh	r3, [r7, #34]	@ movhi
1633:Generated_Source\PSoC6/CapSense_Processing.c **** 
1634:Generated_Source\PSoC6/CapSense_Processing.c ****             /* If there were no touch initialize the current position with new position data */
1635:Generated_Source\PSoC6/CapSense_Processing.c ****             if (ptrRamWdgt->position[touchIdx] == CapSense_SLIDER_POS_NONE)
 1526              		.loc 1 1635 0
 1527 002c 3A68     		ldr	r2, [r7]
 1528 002e 7B6A     		ldr	r3, [r7, #36]
 1529 0030 0833     		adds	r3, r3, #8
 1530 0032 5B00     		lsls	r3, r3, #1
 1531 0034 1344     		add	r3, r3, r2
ARM GAS  C:\Users\ikomb\AppData\Local\Temp\ccYuI7tI.s 			page 57


 1532 0036 5B88     		ldrh	r3, [r3, #2]
 1533 0038 4FF6FF72 		movw	r2, #65535
 1534 003c 9342     		cmp	r3, r2
 1535 003e 05D1     		bne	.L100
1636:Generated_Source\PSoC6/CapSense_Processing.c ****             {
1637:Generated_Source\PSoC6/CapSense_Processing.c ****                 CapSense_InitPosFiltersSd(ptrHistory, filteredPosition);
 1536              		.loc 1 1637 0
 1537 0040 7B8C     		ldrh	r3, [r7, #34]
 1538 0042 1946     		mov	r1, r3
 1539 0044 F869     		ldr	r0, [r7, #28]
 1540 0046 FFF7FEFF 		bl	CapSense_InitPosFiltersSd
 1541 004a 10E0     		b	.L101
 1542              	.L100:
1638:Generated_Source\PSoC6/CapSense_Processing.c ****             }
1639:Generated_Source\PSoC6/CapSense_Processing.c ****             else
1640:Generated_Source\PSoC6/CapSense_Processing.c ****             {
1641:Generated_Source\PSoC6/CapSense_Processing.c ****                 #if (0u != CapSense_POS_MEDIAN_FILTER_EN)
1642:Generated_Source\PSoC6/CapSense_Processing.c ****                     if (0u != (filterConfig & CapSense_POS_MEDIAN_FILTER_MASK))
1643:Generated_Source\PSoC6/CapSense_Processing.c ****                     {
1644:Generated_Source\PSoC6/CapSense_Processing.c ****                         filteredPosition = (uint16)CapSense_FtMedian((uint32)ptrHistory->posMedianZ
1645:Generated_Source\PSoC6/CapSense_Processing.c ****                                             (uint32)ptrHistory->posMedianZ1, (uint32)newPos[touchId
1646:Generated_Source\PSoC6/CapSense_Processing.c ****                         ptrHistory->posMedianZ2 = ptrHistory->posMedianZ1;
1647:Generated_Source\PSoC6/CapSense_Processing.c ****                         ptrHistory->posMedianZ1 = newPos[touchIdx];
1648:Generated_Source\PSoC6/CapSense_Processing.c ****                     }
1649:Generated_Source\PSoC6/CapSense_Processing.c ****                 #endif /* #if (0u != CapSense_POS_MEDIAN_FILTER_EN) */
1650:Generated_Source\PSoC6/CapSense_Processing.c **** 
1651:Generated_Source\PSoC6/CapSense_Processing.c ****                 #if (0u != CapSense_POS_IIR_FILTER_EN)
1652:Generated_Source\PSoC6/CapSense_Processing.c ****                     if (0u != (filterConfig & CapSense_POS_IIR_FILTER_MASK))
1653:Generated_Source\PSoC6/CapSense_Processing.c ****                     {
1654:Generated_Source\PSoC6/CapSense_Processing.c ****                         filteredPosition = (uint16)CapSense_FtIIR1stOrder((uint32)filteredPosition,
1655:Generated_Source\PSoC6/CapSense_Processing.c ****                                             (uint32)ptrFlashWdgt->iirFilterCoeff, 0uL);
1656:Generated_Source\PSoC6/CapSense_Processing.c ****                         ptrHistory->posIIR = filteredPosition;
1657:Generated_Source\PSoC6/CapSense_Processing.c ****                     }
1658:Generated_Source\PSoC6/CapSense_Processing.c ****                 #endif /* #if (0u != CapSense_POS_IIR_FILTER_EN) */
1659:Generated_Source\PSoC6/CapSense_Processing.c **** 
1660:Generated_Source\PSoC6/CapSense_Processing.c ****                 #if (0u != CapSense_POS_ADAPTIVE_IIR_FILTER_EN)
1661:Generated_Source\PSoC6/CapSense_Processing.c ****                     if (0u != (filterConfig & CapSense_AIIR_FILTER_MASK))
1662:Generated_Source\PSoC6/CapSense_Processing.c ****                     {
1663:Generated_Source\PSoC6/CapSense_Processing.c ****                         contextAIIR.previousX = ptrHistory->posAIIR;
1664:Generated_Source\PSoC6/CapSense_Processing.c ****                         contextAIIR.previousY = emptyPosition;
1665:Generated_Source\PSoC6/CapSense_Processing.c ****                         contextAIIR.coefficient = ptrHistory->posAIIRCoeff;
1666:Generated_Source\PSoC6/CapSense_Processing.c ****                         AdaptiveFilter_Run(&ptrRamWdgt->aiirConfig, &contextAIIR, &filteredPosition
1667:Generated_Source\PSoC6/CapSense_Processing.c ****                         ptrHistory->posAIIR = contextAIIR.previousX;
1668:Generated_Source\PSoC6/CapSense_Processing.c ****                         ptrHistory->posAIIRCoeff = contextAIIR.coefficient;
1669:Generated_Source\PSoC6/CapSense_Processing.c ****                     }
1670:Generated_Source\PSoC6/CapSense_Processing.c ****                 #endif /* (0u != CapSense_POS_ADAPTIVE_IIR_FILTER_EN) */
1671:Generated_Source\PSoC6/CapSense_Processing.c **** 
1672:Generated_Source\PSoC6/CapSense_Processing.c ****                 #if (0u != CapSense_POS_AVERAGE_FILTER_EN)
1673:Generated_Source\PSoC6/CapSense_Processing.c ****                     if (0u != (filterConfig & CapSense_POS_AVERAGE_FILTER_MASK))
 1543              		.loc 1 1673 0
 1544 004c BB69     		ldr	r3, [r7, #24]
 1545 004e 03F04003 		and	r3, r3, #64
 1546 0052 002B     		cmp	r3, #0
 1547 0054 0BD0     		beq	.L101
1674:Generated_Source\PSoC6/CapSense_Processing.c ****                     {
1675:Generated_Source\PSoC6/CapSense_Processing.c ****                         tempPosition = filteredPosition;
 1548              		.loc 1 1675 0
ARM GAS  C:\Users\ikomb\AppData\Local\Temp\ccYuI7tI.s 			page 58


 1549 0056 7B8C     		ldrh	r3, [r7, #34]	@ movhi
 1550 0058 FB82     		strh	r3, [r7, #22]	@ movhi
1676:Generated_Source\PSoC6/CapSense_Processing.c ****                         filteredPosition = (uint16)(filteredPosition + ptrHistory->posAverage) >> 1
 1551              		.loc 1 1676 0
 1552 005a FB69     		ldr	r3, [r7, #28]
 1553 005c 1A88     		ldrh	r2, [r3]
 1554 005e 7B8C     		ldrh	r3, [r7, #34]	@ movhi
 1555 0060 1344     		add	r3, r3, r2
 1556 0062 9BB2     		uxth	r3, r3
 1557 0064 5B08     		lsrs	r3, r3, #1
 1558 0066 7B84     		strh	r3, [r7, #34]	@ movhi
1677:Generated_Source\PSoC6/CapSense_Processing.c ****                         ptrHistory->posAverage = tempPosition;
 1559              		.loc 1 1677 0
 1560 0068 FB69     		ldr	r3, [r7, #28]
 1561 006a FA8A     		ldrh	r2, [r7, #22]	@ movhi
 1562 006c 1A80     		strh	r2, [r3]	@ movhi
 1563              	.L101:
1678:Generated_Source\PSoC6/CapSense_Processing.c ****                     }
1679:Generated_Source\PSoC6/CapSense_Processing.c ****                 #endif /* #if (0u != CapSense_POS_AVERAGE_FILTER_EN) */
1680:Generated_Source\PSoC6/CapSense_Processing.c **** 
1681:Generated_Source\PSoC6/CapSense_Processing.c ****                 #if (0u != CapSense_POS_JITTER_FILTER_EN)
1682:Generated_Source\PSoC6/CapSense_Processing.c ****                     if (0u != (filterConfig & CapSense_POS_JITTER_FILTER_MASK))
1683:Generated_Source\PSoC6/CapSense_Processing.c ****                     {
1684:Generated_Source\PSoC6/CapSense_Processing.c ****                         filteredPosition = (uint16)CapSense_FtJitter((uint32)filteredPosition, (uin
1685:Generated_Source\PSoC6/CapSense_Processing.c ****                         ptrHistory->posJitter = filteredPosition;
1686:Generated_Source\PSoC6/CapSense_Processing.c ****                     }
1687:Generated_Source\PSoC6/CapSense_Processing.c ****                 #endif /* #if (0u != CapSense_POS_JITTER_FILTER_EN) */
1688:Generated_Source\PSoC6/CapSense_Processing.c ****             }
1689:Generated_Source\PSoC6/CapSense_Processing.c **** 
1690:Generated_Source\PSoC6/CapSense_Processing.c ****             /* Update position data */
1691:Generated_Source\PSoC6/CapSense_Processing.c ****             ptrRamWdgt->position[touchIdx] = filteredPosition;
 1564              		.loc 1 1691 0
 1565 006e 3A68     		ldr	r2, [r7]
 1566 0070 7B6A     		ldr	r3, [r7, #36]
 1567 0072 0833     		adds	r3, r3, #8
 1568 0074 5B00     		lsls	r3, r3, #1
 1569 0076 1344     		add	r3, r3, r2
 1570 0078 7A8C     		ldrh	r2, [r7, #34]	@ movhi
 1571 007a 5A80     		strh	r2, [r3, #2]	@ movhi
1692:Generated_Source\PSoC6/CapSense_Processing.c **** 
1693:Generated_Source\PSoC6/CapSense_Processing.c ****             ptrHistory = (NULL != ptrHistory) ? (ptrHistory + 1) : NULL;
 1572              		.loc 1 1693 0
 1573 007c FB69     		ldr	r3, [r7, #28]
 1574 007e 002B     		cmp	r3, #0
 1575 0080 02D0     		beq	.L102
 1576              		.loc 1 1693 0 is_stmt 0 discriminator 1
 1577 0082 FB69     		ldr	r3, [r7, #28]
 1578 0084 0233     		adds	r3, r3, #2
 1579 0086 00E0     		b	.L103
 1580              	.L102:
 1581              		.loc 1 1693 0 discriminator 2
 1582 0088 0023     		movs	r3, #0
 1583              	.L103:
 1584              		.loc 1 1693 0 discriminator 4
 1585 008a FB61     		str	r3, [r7, #28]
1626:Generated_Source\PSoC6/CapSense_Processing.c ****     {
 1586              		.loc 1 1626 0 is_stmt 1 discriminator 4
ARM GAS  C:\Users\ikomb\AppData\Local\Temp\ccYuI7tI.s 			page 59


 1587 008c 7B6A     		ldr	r3, [r7, #36]
 1588 008e 0133     		adds	r3, r3, #1
 1589 0090 7B62     		str	r3, [r7, #36]
 1590              	.L99:
1626:Generated_Source\PSoC6/CapSense_Processing.c ****     {
 1591              		.loc 1 1626 0 is_stmt 0 discriminator 2
 1592 0092 7A6A     		ldr	r2, [r7, #36]
 1593 0094 BB68     		ldr	r3, [r7, #8]
 1594 0096 9A42     		cmp	r2, r3
 1595 0098 C2D3     		bcc	.L104
1694:Generated_Source\PSoC6/CapSense_Processing.c ****         #endif /* (0u == CapSense_POSITION_FILTER_EN) */
1695:Generated_Source\PSoC6/CapSense_Processing.c ****     }
1696:Generated_Source\PSoC6/CapSense_Processing.c **** }
 1596              		.loc 1 1696 0 is_stmt 1
 1597 009a 00BF     		nop
 1598 009c 2837     		adds	r7, r7, #40
 1599              		.cfi_def_cfa_offset 8
 1600 009e BD46     		mov	sp, r7
 1601              		.cfi_def_cfa_register 13
 1602              		@ sp needed
 1603 00a0 80BD     		pop	{r7, pc}
 1604              		.cfi_endproc
 1605              	.LFE137:
 1606              		.size	DpUpdateLinSlider, .-DpUpdateLinSlider
 1607 00a2 00BF     		.text
 1608              	.Letext0:
 1609              		.file 2 "c:\\program files (x86)\\cypress\\psoc creator\\4.4\\psoc creator\\import\\gnu\\arm\\5.4.
 1610              		.file 3 "c:\\program files (x86)\\cypress\\psoc creator\\4.4\\psoc creator\\import\\gnu\\arm\\5.4.
 1611              		.file 4 "Generated_Source\\PSoC6\\pdl\\drivers/peripheral/syslib/cy_syslib.h"
 1612              		.file 5 "c:\\program files (x86)\\cypress\\psoc creator\\4.4\\psoc creator\\import\\gnu\\arm\\5.4.
 1613              		.file 6 "Generated_Source\\PSoC6\\CapSense_Configuration.h"
 1614              		.file 7 "Generated_Source\\PSoC6\\CapSense_SmartSense_LL.h"
 1615              		.file 8 "Generated_Source\\PSoC6\\CapSense_Structure.h"
 1616              		.file 9 "Generated_Source\\PSoC6\\pdl\\cmsis/include/core_cm4.h"