ARM GAS  C:\Users\ikomb\AppData\Local\Temp\cc565hjd.s 			page 1


   1              		.syntax unified
   2              		.cpu cortex-m4
   3              		.eabi_attribute 27, 1
   4              		.fpu fpv4-sp-d16
   5              		.eabi_attribute 20, 1
   6              		.eabi_attribute 21, 1
   7              		.eabi_attribute 23, 3
   8              		.eabi_attribute 24, 1
   9              		.eabi_attribute 25, 1
  10              		.eabi_attribute 26, 1
  11              		.eabi_attribute 30, 6
  12              		.eabi_attribute 34, 1
  13              		.eabi_attribute 18, 4
  14              		.thumb
  15              		.syntax unified
  16              		.file	"codec.c"
  17              		.text
  18              	.Ltext0:
  19              		.cfi_sections	.debug_frame
  20              		.global	masterTransferCfg
  21              		.data
  22              		.align	2
  23              		.type	masterTransferCfg, %object
  24              		.size	masterTransferCfg, 16
  25              	masterTransferCfg:
  26 0000 12       		.byte	18
  27 0001 000000   		.space	3
  28 0004 00000000 		.word	0
  29 0008 00000000 		.word	0
  30 000c 00       		.byte	0
  31 000d 000000   		.space	3
  32              		.global	Codec_DelayFunction
  33              		.align	2
  34              		.type	Codec_DelayFunction, %object
  35              		.size	Codec_DelayFunction, 4
  36              	Codec_DelayFunction:
  37 0010 00000000 		.word	Cy_SysLib_Delay
  38              		.section	.text.Codec_Init,"ax",%progbits
  39              		.align	2
  40              		.global	Codec_Init
  41              		.thumb
  42              		.thumb_func
  43              		.type	Codec_Init, %function
  44              	Codec_Init:
  45              	.LFB284:
  46              		.file 1 "codec.c"
   1:codec.c       **** /*******************************************************************************
   2:codec.c       **** * File Name: codec.c
   3:codec.c       **** *
   4:codec.c       **** * Version: 1.1
   5:codec.c       **** *
   6:codec.c       **** * Description: This file contains the codec control APIs
   7:codec.c       **** *
   8:codec.c       **** ******************************************************************************
   9:codec.c       **** * Copyright (2018), Cypress Semiconductor Corporation.
  10:codec.c       **** ******************************************************************************
  11:codec.c       **** * This software is owned by Cypress Semiconductor Corporation (Cypress) and is
ARM GAS  C:\Users\ikomb\AppData\Local\Temp\cc565hjd.s 			page 2


  12:codec.c       **** * protected by and subject to worldwide patent protection (United States and
  13:codec.c       **** * foreign), United States copyright laws and international treaty provisions.
  14:codec.c       **** * Cypress hereby grants to licensee a personal, non-exclusive, non-transferable
  15:codec.c       **** * license to copy, use, modify, create derivative works of, and compile the
  16:codec.c       **** * Cypress Source Code and derivative works for the sole purpose of creating
  17:codec.c       **** * custom software in support of licensee product to be used only in conjunction
  18:codec.c       **** * with a Cypress integrated circuit as specified in the applicable agreement.
  19:codec.c       **** * Any reproduction, modification, translation, compilation, or representation of
  20:codec.c       **** * this software except as specified above is prohibited without the express
  21:codec.c       **** * written permission of Cypress.
  22:codec.c       **** *
  23:codec.c       **** * Disclaimer: CYPRESS MAKES NO WARRANTY OF ANY KIND, EXPRESS OR IMPLIED, WITH
  24:codec.c       **** * REGARD TO THIS MATERIAL, INCLUDING, BUT NOT LIMITED TO, THE IMPLIED
  25:codec.c       **** * WARRANTIES OF MERCHANTABILITY AND FITNESS FOR A PARTICULAR PURPOSE.
  26:codec.c       **** * Cypress reserves the right to make changes without further notice to the
  27:codec.c       **** * materials described herein. Cypress does not assume any liability arising out
  28:codec.c       **** * of the application or use of any product or circuit described herein. Cypress
  29:codec.c       **** * does not authorize its products for use as critical components in life-support
  30:codec.c       **** * systems where a malfunction or failure may reasonably be expected to result in
  31:codec.c       **** * significant injury to the user. The inclusion of Cypress' product in a life-
  32:codec.c       **** * support systems application implies that the manufacturer assumes all risk of
  33:codec.c       **** * such use and in doing so indemnifies Cypress against all charges. Use may be
  34:codec.c       **** * limited by and subject to the applicable Cypress software license agreement.
  35:codec.c       **** *****************************************************************************/
  36:codec.c       **** 
  37:codec.c       **** #include "codec.h"
  38:codec.c       **** #include "CodecI2CM.h"
  39:codec.c       **** #include "stdbool.h"
  40:codec.c       **** #include "gpio/cy_gpio.h"
  41:codec.c       **** #include "rtos.h"
  42:codec.c       **** 
  43:codec.c       **** #define I2C_WRITE_OPERATION		(0x00)
  44:codec.c       **** 
  45:codec.c       **** /*******************************************************************************
  46:codec.c       **** * Global variables
  47:codec.c       **** *******************************************************************************/
  48:codec.c       **** /* Structure for master transfer configuration. */
  49:codec.c       **** cy_stc_scb_i2c_master_xfer_config_t masterTransferCfg =
  50:codec.c       **** {
  51:codec.c       ****     .slaveAddress = CODEC_I2C_ADDR,
  52:codec.c       ****     .buffer = NULL,
  53:codec.c       ****     .bufferSize = 0u,
  54:codec.c       ****     .xferPending = false
  55:codec.c       **** };
  56:codec.c       **** 
  57:codec.c       **** codec_delay_function Codec_DelayFunction = Cy_SysLib_Delay;
  58:codec.c       **** 
  59:codec.c       **** /*******************************************************************************
  60:codec.c       **** * Function Name: Codec_Init
  61:codec.c       **** ********************************************************************************
  62:codec.c       **** * Summary:
  63:codec.c       **** *   Initializes the codec with default settings.
  64:codec.c       **** *
  65:codec.c       **** * Parameters:  
  66:codec.c       **** *	func: pointer to the delay function.
  67:codec.c       **** *
  68:codec.c       **** * Return:
ARM GAS  C:\Users\ikomb\AppData\Local\Temp\cc565hjd.s 			page 3


  69:codec.c       **** *   uint32_t - I2C master transaction error status
  70:codec.c       **** *				CY_SCB_I2C_SUCCESS - Operation completed successfully                      
  71:codec.c       **** *				CY_SCB_I2C_MASTER_MANUAL_BUS_ERR - Bus error occurred   
  72:codec.c       **** *
  73:codec.c       **** *******************************************************************************/
  74:codec.c       **** uint32_t Codec_Init(codec_delay_function func)
  75:codec.c       **** {
  47              		.loc 1 75 0
  48              		.cfi_startproc
  49              		@ args = 0, pretend = 0, frame = 16
  50              		@ frame_needed = 1, uses_anonymous_args = 0
  51 0000 80B5     		push	{r7, lr}
  52              		.cfi_def_cfa_offset 8
  53              		.cfi_offset 7, -8
  54              		.cfi_offset 14, -4
  55 0002 84B0     		sub	sp, sp, #16
  56              		.cfi_def_cfa_offset 24
  57 0004 00AF     		add	r7, sp, #0
  58              		.cfi_def_cfa_register 7
  59 0006 7860     		str	r0, [r7, #4]
  76:codec.c       **** 	uint32_t ret;
  77:codec.c       **** 	
  78:codec.c       ****     /* Assert PDN Pin (if defined) */
  79:codec.c       ****     #ifdef CODEC_PDN_PORT
  80:codec.c       ****         Cy_GPIO_Set(CODEC_PDN_PORT, CODEC_PDN_NUM);
  81:codec.c       ****     #endif
  82:codec.c       ****     
  83:codec.c       ****     if (func != NULL)
  60              		.loc 1 83 0
  61 0008 7B68     		ldr	r3, [r7, #4]
  62 000a 002B     		cmp	r3, #0
  63 000c 02D0     		beq	.L2
  84:codec.c       ****     {
  85:codec.c       ****         Codec_DelayFunction = func;
  64              		.loc 1 85 0
  65 000e 214A     		ldr	r2, .L9
  66 0010 7B68     		ldr	r3, [r7, #4]
  67 0012 1360     		str	r3, [r2]
  68              	.L2:
  86:codec.c       ****     }
  87:codec.c       ****     
  88:codec.c       ****     Codec_DelayFunction(CODEC_RESET_WAIT_DELAY);
  69              		.loc 1 88 0
  70 0014 1F4B     		ldr	r3, .L9
  71 0016 1B68     		ldr	r3, [r3]
  72 0018 0A20     		movs	r0, #10
  73 001a 9847     		blx	r3
  89:codec.c       ****     
  90:codec.c       ****     /* Clear Power Managament 1 register (dummy write) */
  91:codec.c       ****     ret = Codec_SendData(CODEC_REG_PWR_MGMT1, 0x00);
  74              		.loc 1 91 0
  75 001c 0021     		movs	r1, #0
  76 001e 0020     		movs	r0, #0
  77 0020 FFF7FEFF 		bl	Codec_SendData
  78 0024 F860     		str	r0, [r7, #12]
  92:codec.c       ****     if (ret) return ret;
  79              		.loc 1 92 0
ARM GAS  C:\Users\ikomb\AppData\Local\Temp\cc565hjd.s 			page 4


  80 0026 FB68     		ldr	r3, [r7, #12]
  81 0028 002B     		cmp	r3, #0
  82 002a 01D0     		beq	.L3
  83              		.loc 1 92 0 is_stmt 0 discriminator 1
  84 002c FB68     		ldr	r3, [r7, #12]
  85 002e 2DE0     		b	.L4
  86              	.L3:
  93:codec.c       ****     
  94:codec.c       ****     /* Clear Power Managament 1 register */
  95:codec.c       ****     ret = Codec_SendData(CODEC_REG_PWR_MGMT1, 0x00);
  87              		.loc 1 95 0 is_stmt 1
  88 0030 0021     		movs	r1, #0
  89 0032 0020     		movs	r0, #0
  90 0034 FFF7FEFF 		bl	Codec_SendData
  91 0038 F860     		str	r0, [r7, #12]
  96:codec.c       ****     if (ret) return ret;
  92              		.loc 1 96 0
  93 003a FB68     		ldr	r3, [r7, #12]
  94 003c 002B     		cmp	r3, #0
  95 003e 01D0     		beq	.L5
  96              		.loc 1 96 0 is_stmt 0 discriminator 1
  97 0040 FB68     		ldr	r3, [r7, #12]
  98 0042 23E0     		b	.L4
  99              	.L5:
  97:codec.c       ****     
  98:codec.c       ****     /* Set the data alignment */
  99:codec.c       ****     ret = Codec_SendData(CODEC_REG_MODE_CTRL1, CODEC_MODE_CTRL1_DIF_24_16_I2S);
 100              		.loc 1 99 0 is_stmt 1
 101 0044 0321     		movs	r1, #3
 102 0046 0520     		movs	r0, #5
 103 0048 FFF7FEFF 		bl	Codec_SendData
 104 004c F860     		str	r0, [r7, #12]
 100:codec.c       ****     if (ret) return ret;
 105              		.loc 1 100 0
 106 004e FB68     		ldr	r3, [r7, #12]
 107 0050 002B     		cmp	r3, #0
 108 0052 01D0     		beq	.L6
 109              		.loc 1 100 0 is_stmt 0 discriminator 1
 110 0054 FB68     		ldr	r3, [r7, #12]
 111 0056 19E0     		b	.L4
 112              	.L6:
 101:codec.c       ****     
 102:codec.c       ****     /* Set sample rate */
 103:codec.c       ****     ret = Codec_SendData(CODEC_REG_MODE_CTRL2, CODEC_DEF_SAMPLING_RATE);
 113              		.loc 1 103 0 is_stmt 1
 114 0058 0021     		movs	r1, #0
 115 005a 0620     		movs	r0, #6
 116 005c FFF7FEFF 		bl	Codec_SendData
 117 0060 F860     		str	r0, [r7, #12]
 104:codec.c       ****     if (ret) return ret;
 118              		.loc 1 104 0
 119 0062 FB68     		ldr	r3, [r7, #12]
 120 0064 002B     		cmp	r3, #0
 121 0066 01D0     		beq	.L7
 122              		.loc 1 104 0 is_stmt 0 discriminator 1
 123 0068 FB68     		ldr	r3, [r7, #12]
 124 006a 0FE0     		b	.L4
ARM GAS  C:\Users\ikomb\AppData\Local\Temp\cc565hjd.s 			page 5


 125              	.L7:
 105:codec.c       ****     
 106:codec.c       ****     /* Power-up VCOM */
 107:codec.c       ****     ret = Codec_SendData(CODEC_REG_PWR_MGMT1, CODEC_PWR_MGMT1_PMVCM);
 126              		.loc 1 107 0 is_stmt 1
 127 006c 4021     		movs	r1, #64
 128 006e 0020     		movs	r0, #0
 129 0070 FFF7FEFF 		bl	Codec_SendData
 130 0074 F860     		str	r0, [r7, #12]
 108:codec.c       ****     if (ret) return ret;
 131              		.loc 1 108 0
 132 0076 FB68     		ldr	r3, [r7, #12]
 133 0078 002B     		cmp	r3, #0
 134 007a 01D0     		beq	.L8
 135              		.loc 1 108 0 is_stmt 0 discriminator 1
 136 007c FB68     		ldr	r3, [r7, #12]
 137 007e 05E0     		b	.L4
 138              	.L8:
 109:codec.c       ****     
 110:codec.c       ****     /* Clear Digital Filter Mode register */
 111:codec.c       ****     ret = Codec_SendData(CODEC_REG_DIG_FILT_MODE, 0x00);
 139              		.loc 1 111 0 is_stmt 1
 140 0080 0021     		movs	r1, #0
 141 0082 1D20     		movs	r0, #29
 142 0084 FFF7FEFF 		bl	Codec_SendData
 143 0088 F860     		str	r0, [r7, #12]
 112:codec.c       ****         
 113:codec.c       **** 	return ret;  
 144              		.loc 1 113 0
 145 008a FB68     		ldr	r3, [r7, #12]
 146              	.L4:
 114:codec.c       **** }
 147              		.loc 1 114 0
 148 008c 1846     		mov	r0, r3
 149 008e 1037     		adds	r7, r7, #16
 150              		.cfi_def_cfa_offset 8
 151 0090 BD46     		mov	sp, r7
 152              		.cfi_def_cfa_register 13
 153              		@ sp needed
 154 0092 80BD     		pop	{r7, pc}
 155              	.L10:
 156              		.align	2
 157              	.L9:
 158 0094 00000000 		.word	Codec_DelayFunction
 159              		.cfi_endproc
 160              	.LFE284:
 161              		.size	Codec_Init, .-Codec_Init
 162              		.section	.text.Codec_SendData,"ax",%progbits
 163              		.align	2
 164              		.global	Codec_SendData
 165              		.thumb
 166              		.thumb_func
 167              		.type	Codec_SendData, %function
 168              	Codec_SendData:
 169              	.LFB285:
 115:codec.c       **** 
 116:codec.c       **** /*******************************************************************************
ARM GAS  C:\Users\ikomb\AppData\Local\Temp\cc565hjd.s 			page 6


 117:codec.c       **** * Function Name: Codec_SendData
 118:codec.c       **** ********************************************************************************
 119:codec.c       **** * Summary:
 120:codec.c       **** *   Low level API to send data to codec over I2C.
 121:codec.c       **** *
 122:codec.c       **** *
 123:codec.c       **** * Parameters:  
 124:codec.c       **** *	regAddr - Address of the codec register to be updated
 125:codec.c       **** *	data - 8-bit data to be updated in the register
 126:codec.c       **** *
 127:codec.c       **** * Return:
 128:codec.c       **** *   uint32_t - I2C master transaction error status
 129:codec.c       **** *				CY_SCB_I2C_SUCCESS - Operation completed successfully                      
 130:codec.c       **** *				CY_SCB_I2C_MASTER_MANUAL_BUS_ERR - Bus error occurred    
 131:codec.c       **** *
 132:codec.c       **** *******************************************************************************/
 133:codec.c       **** uint32_t Codec_SendData(uint8_t regAddr, uint8_t data)
 134:codec.c       **** {
 170              		.loc 1 134 0
 171              		.cfi_startproc
 172              		@ args = 0, pretend = 0, frame = 16
 173              		@ frame_needed = 1, uses_anonymous_args = 0
 174 0000 80B5     		push	{r7, lr}
 175              		.cfi_def_cfa_offset 8
 176              		.cfi_offset 7, -8
 177              		.cfi_offset 14, -4
 178 0002 84B0     		sub	sp, sp, #16
 179              		.cfi_def_cfa_offset 24
 180 0004 00AF     		add	r7, sp, #0
 181              		.cfi_def_cfa_register 7
 182 0006 0346     		mov	r3, r0
 183 0008 0A46     		mov	r2, r1
 184 000a FB71     		strb	r3, [r7, #7]
 185 000c 1346     		mov	r3, r2
 186 000e BB71     		strb	r3, [r7, #6]
 135:codec.c       **** 	uint32_t temp;
 136:codec.c       ****     uint8_t buffer[CODEC_PACKET_SIZE];
 137:codec.c       ****     
 138:codec.c       ****     buffer[0] = regAddr;
 187              		.loc 1 138 0
 188 0010 FB79     		ldrb	r3, [r7, #7]
 189 0012 3B72     		strb	r3, [r7, #8]
 139:codec.c       ****     buffer[1] = data;
 190              		.loc 1 139 0
 191 0014 BB79     		ldrb	r3, [r7, #6]
 192 0016 7B72     		strb	r3, [r7, #9]
 140:codec.c       ****     
 141:codec.c       ****     /* Setup transfer specific parameters */
 142:codec.c       ****     masterTransferCfg.buffer = buffer;
 193              		.loc 1 142 0
 194 0018 164A     		ldr	r2, .L17
 195 001a 07F10803 		add	r3, r7, #8
 196 001e 5360     		str	r3, [r2, #4]
 143:codec.c       ****     masterTransferCfg.bufferSize = CODEC_PACKET_SIZE;
 197              		.loc 1 143 0
 198 0020 144B     		ldr	r3, .L17
 199 0022 0222     		movs	r2, #2
ARM GAS  C:\Users\ikomb\AppData\Local\Temp\cc565hjd.s 			page 7


 200 0024 9A60     		str	r2, [r3, #8]
 144:codec.c       ****     
 145:codec.c       ****     /* Initiate write transaction */
 146:codec.c       ****     Cy_SCB_I2C_MasterWrite(CodecI2CM_HW, &masterTransferCfg, &CodecI2CM_context);
 201              		.loc 1 146 0
 202 0026 144A     		ldr	r2, .L17+4
 203 0028 1249     		ldr	r1, .L17
 204 002a 1448     		ldr	r0, .L17+8
 205 002c FFF7FEFF 		bl	Cy_SCB_I2C_MasterWrite
 147:codec.c       ****     
 148:codec.c       ****     /* Wait until master completes write transfer. */
 149:codec.c       ****     while (0u != (Cy_SCB_I2C_MasterGetStatus(CodecI2CM_HW, &CodecI2CM_context) & CY_SCB_I2C_MASTER_
 206              		.loc 1 149 0
 207 0030 03E0     		b	.L12
 208              	.L13:
 150:codec.c       ****     {
 151:codec.c       ****         Codec_DelayFunction(1);
 209              		.loc 1 151 0
 210 0032 134B     		ldr	r3, .L17+12
 211 0034 1B68     		ldr	r3, [r3]
 212 0036 0120     		movs	r0, #1
 213 0038 9847     		blx	r3
 214              	.L12:
 149:codec.c       ****     {
 215              		.loc 1 149 0
 216 003a 0F49     		ldr	r1, .L17+4
 217 003c 0F48     		ldr	r0, .L17+8
 218 003e FFF7FEFF 		bl	Cy_SCB_I2C_MasterGetStatus
 219 0042 0346     		mov	r3, r0
 220 0044 03F48033 		and	r3, r3, #65536
 221 0048 002B     		cmp	r3, #0
 222 004a F2D1     		bne	.L13
 152:codec.c       ****     }
 153:codec.c       ****     
 154:codec.c       ****     /* Make sure that transfer was successful. */
 155:codec.c       ****     if ((Cy_SCB_I2C_MasterGetStatus(CodecI2CM_HW, &CodecI2CM_context) & CY_SCB_I2C_MASTER_ERR_EVENT
 223              		.loc 1 155 0
 224 004c 0A49     		ldr	r1, .L17+4
 225 004e 0B48     		ldr	r0, .L17+8
 226 0050 FFF7FEFF 		bl	Cy_SCB_I2C_MasterGetStatus
 227 0054 0346     		mov	r3, r0
 228 0056 03F40023 		and	r3, r3, #524288
 229 005a 002B     		cmp	r3, #0
 230 005c 02D1     		bne	.L14
 156:codec.c       ****     {
 157:codec.c       ****         temp = CY_SCB_I2C_SUCCESS;
 231              		.loc 1 157 0
 232 005e 0023     		movs	r3, #0
 233 0060 FB60     		str	r3, [r7, #12]
 234 0062 01E0     		b	.L15
 235              	.L14:
 158:codec.c       ****     }
 159:codec.c       ****     else
 160:codec.c       ****     {
 161:codec.c       ****         temp = CY_SCB_I2C_MASTER_MANUAL_BUS_ERR;
 236              		.loc 1 161 0
 237 0064 074B     		ldr	r3, .L17+16
ARM GAS  C:\Users\ikomb\AppData\Local\Temp\cc565hjd.s 			page 8


 238 0066 FB60     		str	r3, [r7, #12]
 239              	.L15:
 162:codec.c       ****     }
 163:codec.c       **** 
 164:codec.c       **** 	return temp;
 240              		.loc 1 164 0
 241 0068 FB68     		ldr	r3, [r7, #12]
 165:codec.c       **** }
 242              		.loc 1 165 0
 243 006a 1846     		mov	r0, r3
 244 006c 1037     		adds	r7, r7, #16
 245              		.cfi_def_cfa_offset 8
 246 006e BD46     		mov	sp, r7
 247              		.cfi_def_cfa_register 13
 248              		@ sp needed
 249 0070 80BD     		pop	{r7, pc}
 250              	.L18:
 251 0072 00BF     		.align	2
 252              	.L17:
 253 0074 00000000 		.word	masterTransferCfg
 254 0078 00000000 		.word	CodecI2CM_context
 255 007c 00006440 		.word	1080295424
 256 0080 00000000 		.word	Codec_DelayFunction
 257 0084 0720AA00 		.word	11149319
 258              		.cfi_endproc
 259              	.LFE285:
 260              		.size	Codec_SendData, .-Codec_SendData
 261              		.section	.text.Codec_AdjustBothHeadphoneVolume,"ax",%progbits
 262              		.align	2
 263              		.global	Codec_AdjustBothHeadphoneVolume
 264              		.thumb
 265              		.thumb_func
 266              		.type	Codec_AdjustBothHeadphoneVolume, %function
 267              	Codec_AdjustBothHeadphoneVolume:
 268              	.LFB286:
 166:codec.c       **** 
 167:codec.c       **** /*******************************************************************************
 168:codec.c       **** * Function Name: Codec_AdjustBothHeadphoneVolume
 169:codec.c       **** ********************************************************************************
 170:codec.c       **** * Summary:
 171:codec.c       **** *   This function updates the volume of both the left and right channels of the
 172:codec.c       **** * 	headphone output.
 173:codec.c       **** *
 174:codec.c       **** *
 175:codec.c       **** * Parameters:  
 176:codec.c       **** *	volume - Steps of 0.5dB, where:
 177:codec.c       **** *            Minimum volume: -65.5dB (0x8F)
 178:codec.c       **** *            Maximum volume:  +6.0dB (0x00)
 179:codec.c       **** *            Mute: (0x90~0xFF)
 180:codec.c       **** *
 181:codec.c       **** * Return:
 182:codec.c       **** *   uint32_t - I2C master transaction error status
 183:codec.c       **** *				CY_SCB_I2C_SUCCESS - Operation completed successfully                      
 184:codec.c       **** *				CY_SCB_I2C_MASTER_MANUAL_BUS_ERR - Bus error occurred   
 185:codec.c       **** *
 186:codec.c       **** *******************************************************************************/
 187:codec.c       **** 
ARM GAS  C:\Users\ikomb\AppData\Local\Temp\cc565hjd.s 			page 9


 188:codec.c       **** uint32_t Codec_AdjustBothHeadphoneVolume(uint8_t volume)
 189:codec.c       **** {
 269              		.loc 1 189 0
 270              		.cfi_startproc
 271              		@ args = 0, pretend = 0, frame = 16
 272              		@ frame_needed = 1, uses_anonymous_args = 0
 273 0000 80B5     		push	{r7, lr}
 274              		.cfi_def_cfa_offset 8
 275              		.cfi_offset 7, -8
 276              		.cfi_offset 14, -4
 277 0002 84B0     		sub	sp, sp, #16
 278              		.cfi_def_cfa_offset 24
 279 0004 00AF     		add	r7, sp, #0
 280              		.cfi_def_cfa_register 7
 281 0006 0346     		mov	r3, r0
 282 0008 FB71     		strb	r3, [r7, #7]
 190:codec.c       ****     uint32_t ret;
 191:codec.c       ****     
 192:codec.c       **** 	ret = Codec_SendData(CODEC_REG_LCH_DIG_VOL, volume);
 283              		.loc 1 192 0
 284 000a FB79     		ldrb	r3, [r7, #7]	@ zero_extendqisi2
 285 000c 1946     		mov	r1, r3
 286 000e 1320     		movs	r0, #19
 287 0010 FFF7FEFF 		bl	Codec_SendData
 288 0014 F860     		str	r0, [r7, #12]
 193:codec.c       ****     if (ret) return ret;
 289              		.loc 1 193 0
 290 0016 FB68     		ldr	r3, [r7, #12]
 291 0018 002B     		cmp	r3, #0
 292 001a 01D0     		beq	.L20
 293              		.loc 1 193 0 is_stmt 0 discriminator 1
 294 001c FB68     		ldr	r3, [r7, #12]
 295 001e 05E0     		b	.L21
 296              	.L20:
 194:codec.c       ****     return Codec_SendData(CODEC_REG_RCH_DIG_VOL, volume);
 297              		.loc 1 194 0 is_stmt 1
 298 0020 FB79     		ldrb	r3, [r7, #7]	@ zero_extendqisi2
 299 0022 1946     		mov	r1, r3
 300 0024 1420     		movs	r0, #20
 301 0026 FFF7FEFF 		bl	Codec_SendData
 302 002a 0346     		mov	r3, r0
 303              	.L21:
 195:codec.c       **** }
 304              		.loc 1 195 0
 305 002c 1846     		mov	r0, r3
 306 002e 1037     		adds	r7, r7, #16
 307              		.cfi_def_cfa_offset 8
 308 0030 BD46     		mov	sp, r7
 309              		.cfi_def_cfa_register 13
 310              		@ sp needed
 311 0032 80BD     		pop	{r7, pc}
 312              		.cfi_endproc
 313              	.LFE286:
 314              		.size	Codec_AdjustBothHeadphoneVolume, .-Codec_AdjustBothHeadphoneVolume
 315              		.section	.text.Codec_Activate,"ax",%progbits
 316              		.align	2
 317              		.global	Codec_Activate
ARM GAS  C:\Users\ikomb\AppData\Local\Temp\cc565hjd.s 			page 10


 318              		.thumb
 319              		.thumb_func
 320              		.type	Codec_Activate, %function
 321              	Codec_Activate:
 322              	.LFB287:
 196:codec.c       **** 
 197:codec.c       **** /*******************************************************************************
 198:codec.c       **** * Function Name: Codec_Activate
 199:codec.c       **** ********************************************************************************
 200:codec.c       **** * Summary:
 201:codec.c       **** *   Activates the codec - This function is called after a successful 
 202:codec.c       **** *   configuration update of the codec.
 203:codec.c       **** *
 204:codec.c       **** *
 205:codec.c       **** * Parameters:  
 206:codec.c       **** *	None
 207:codec.c       **** *
 208:codec.c       **** * Return:
 209:codec.c       **** *   uint32_t - I2C master transaction error status
 210:codec.c       **** *				CY_SCB_I2C_SUCCESS - Operation completed successfully                      
 211:codec.c       **** *				CY_SCB_I2C_MASTER_MANUAL_BUS_ERR - Bus error occurred   
 212:codec.c       **** *
 213:codec.c       **** *******************************************************************************/
 214:codec.c       **** uint32_t Codec_Activate(void)
 215:codec.c       **** {
 323              		.loc 1 215 0
 324              		.cfi_startproc
 325              		@ args = 0, pretend = 0, frame = 8
 326              		@ frame_needed = 1, uses_anonymous_args = 0
 327 0000 80B5     		push	{r7, lr}
 328              		.cfi_def_cfa_offset 8
 329              		.cfi_offset 7, -8
 330              		.cfi_offset 14, -4
 331 0002 82B0     		sub	sp, sp, #8
 332              		.cfi_def_cfa_offset 16
 333 0004 00AF     		add	r7, sp, #0
 334              		.cfi_def_cfa_register 7
 216:codec.c       ****     uint32_t ret;
 217:codec.c       ****     
 218:codec.c       ****     /* Enable Power Management DAC */
 219:codec.c       ****     ret = Codec_SendData(CODEC_REG_PWR_MGMT1, CODEC_PWR_MGMT1_PMDAC | CODEC_PWR_MGMT1_PMVCM);
 335              		.loc 1 219 0
 336 0006 4421     		movs	r1, #68
 337 0008 0020     		movs	r0, #0
 338 000a FFF7FEFF 		bl	Codec_SendData
 339 000e 7860     		str	r0, [r7, #4]
 220:codec.c       ****     if (ret) return ret;
 340              		.loc 1 220 0
 341 0010 7B68     		ldr	r3, [r7, #4]
 342 0012 002B     		cmp	r3, #0
 343 0014 01D0     		beq	.L23
 344              		.loc 1 220 0 is_stmt 0 discriminator 1
 345 0016 7B68     		ldr	r3, [r7, #4]
 346 0018 05E0     		b	.L24
 347              	.L23:
 221:codec.c       ****     
 222:codec.c       ****     /* Enable Left/Right Channels */
ARM GAS  C:\Users\ikomb\AppData\Local\Temp\cc565hjd.s 			page 11


 223:codec.c       ****     ret = Codec_SendData(CODEC_REG_PWR_MGMT2, CODEC_PWR_MGMT2_PMHPL | CODEC_PWR_MGMT2_PMHPR);
 348              		.loc 1 223 0 is_stmt 1
 349 001a 3021     		movs	r1, #48
 350 001c 0120     		movs	r0, #1
 351 001e FFF7FEFF 		bl	Codec_SendData
 352 0022 7860     		str	r0, [r7, #4]
 224:codec.c       ****     return ret;
 353              		.loc 1 224 0
 354 0024 7B68     		ldr	r3, [r7, #4]
 355              	.L24:
 225:codec.c       **** }
 356              		.loc 1 225 0
 357 0026 1846     		mov	r0, r3
 358 0028 0837     		adds	r7, r7, #8
 359              		.cfi_def_cfa_offset 8
 360 002a BD46     		mov	sp, r7
 361              		.cfi_def_cfa_register 13
 362              		@ sp needed
 363 002c 80BD     		pop	{r7, pc}
 364              		.cfi_endproc
 365              	.LFE287:
 366              		.size	Codec_Activate, .-Codec_Activate
 367 002e 00BF     		.section	.text.Codec_Deactivate,"ax",%progbits
 368              		.align	2
 369              		.global	Codec_Deactivate
 370              		.thumb
 371              		.thumb_func
 372              		.type	Codec_Deactivate, %function
 373              	Codec_Deactivate:
 374              	.LFB288:
 226:codec.c       **** 
 227:codec.c       **** /*******************************************************************************
 228:codec.c       **** * Function Name: Codec_Deactivate
 229:codec.c       **** ********************************************************************************
 230:codec.c       **** * Summary:
 231:codec.c       **** *   Deactivates the CODEC - the configuration is retained, just the CODEC input/outputs are
 232:codec.c       **** *	disabled. The function should be called before changing any setting in the codec over I2C
 233:codec.c       **** *
 234:codec.c       **** *
 235:codec.c       **** * Parameters:  
 236:codec.c       **** *	None
 237:codec.c       **** *
 238:codec.c       **** * Return:
 239:codec.c       **** *   uint32_t - I2C master transaction error status
 240:codec.c       **** *				CY_SCB_I2C_SUCCESS - Operation completed successfully                      
 241:codec.c       **** *				CY_SCB_I2C_MASTER_MANUAL_BUS_ERR - Bus error occurred   
 242:codec.c       **** *
 243:codec.c       **** *******************************************************************************/
 244:codec.c       **** uint32_t Codec_Deactivate(void)
 245:codec.c       **** {
 375              		.loc 1 245 0
 376              		.cfi_startproc
 377              		@ args = 0, pretend = 0, frame = 8
 378              		@ frame_needed = 1, uses_anonymous_args = 0
 379 0000 80B5     		push	{r7, lr}
 380              		.cfi_def_cfa_offset 8
 381              		.cfi_offset 7, -8
ARM GAS  C:\Users\ikomb\AppData\Local\Temp\cc565hjd.s 			page 12


 382              		.cfi_offset 14, -4
 383 0002 82B0     		sub	sp, sp, #8
 384              		.cfi_def_cfa_offset 16
 385 0004 00AF     		add	r7, sp, #0
 386              		.cfi_def_cfa_register 7
 246:codec.c       ****     uint32_t ret;
 247:codec.c       ****    
 248:codec.c       ****     /* Disable Left/Right Channels */
 249:codec.c       ****     ret = Codec_SendData(CODEC_REG_PWR_MGMT2, 0x00);
 387              		.loc 1 249 0
 388 0006 0021     		movs	r1, #0
 389 0008 0120     		movs	r0, #1
 390 000a FFF7FEFF 		bl	Codec_SendData
 391 000e 7860     		str	r0, [r7, #4]
 250:codec.c       ****     
 251:codec.c       ****     /* Disable Power Management DAC */
 252:codec.c       ****     ret = Codec_SendData(CODEC_REG_PWR_MGMT1, CODEC_PWR_MGMT1_PMVCM);
 392              		.loc 1 252 0
 393 0010 4021     		movs	r1, #64
 394 0012 0020     		movs	r0, #0
 395 0014 FFF7FEFF 		bl	Codec_SendData
 396 0018 7860     		str	r0, [r7, #4]
 253:codec.c       ****     return ret;
 397              		.loc 1 253 0
 398 001a 7B68     		ldr	r3, [r7, #4]
 254:codec.c       **** }
 399              		.loc 1 254 0
 400 001c 1846     		mov	r0, r3
 401 001e 0837     		adds	r7, r7, #8
 402              		.cfi_def_cfa_offset 8
 403 0020 BD46     		mov	sp, r7
 404              		.cfi_def_cfa_register 13
 405              		@ sp needed
 406 0022 80BD     		pop	{r7, pc}
 407              		.cfi_endproc
 408              	.LFE288:
 409              		.size	Codec_Deactivate, .-Codec_Deactivate
 410              		.text
 411              	.Letext0:
 412              		.file 2 "c:\\program files (x86)\\cypress\\psoc creator\\4.4\\psoc creator\\import\\gnu\\arm\\5.4.
 413              		.file 3 "c:\\program files (x86)\\cypress\\psoc creator\\4.4\\psoc creator\\import\\gnu\\arm\\5.4.
 414              		.file 4 "codec.h"
 415              		.file 5 "Generated_Source\\PSoC6\\pdl\\devices/psoc6/ip/cyip_scb.h"
 416              		.file 6 "Generated_Source\\PSoC6\\pdl\\drivers/peripheral/scb/cy_scb_i2c.h"
 417              		.file 7 "Generated_Source\\PSoC6\\pdl\\cmsis/include/core_cm4.h"
 418              		.file 8 "Generated_Source\\PSoC6/CodecI2CM.h"