ARM GAS  C:\Users\ikomb\AppData\Local\Temp\ccAzoKUN.s 			page 1


   1              		.syntax unified
   2              		.cpu cortex-m4
   3              		.eabi_attribute 27, 1
   4              		.fpu fpv4-sp-d16
   5              		.eabi_attribute 20, 1
   6              		.eabi_attribute 21, 1
   7              		.eabi_attribute 23, 3
   8              		.eabi_attribute 24, 1
   9              		.eabi_attribute 25, 1
  10              		.eabi_attribute 26, 1
  11              		.eabi_attribute 30, 6
  12              		.eabi_attribute 34, 1
  13              		.eabi_attribute 18, 4
  14              		.thumb
  15              		.syntax unified
  16              		.file	"cy_gpio.c"
  17              		.text
  18              	.Ltext0:
  19              		.cfi_sections	.debug_frame
  20              		.section	.rodata
  21              		.align	2
  22              	.LC0:
  23 0000 47656E65 		.ascii	"Generated_Source\\PSoC6\\pdl\\drivers\\peripheral\\"
  23      72617465 
  23      645F536F 
  23      75726365 
  23      5C50536F 
  24 002e 6770696F 		.ascii	"gpio\\cy_gpio.h\000"
  24      5C63795F 
  24      6770696F 
  24      2E6800
  25              		.section	.text.Cy_GPIO_SetHSIOM,"ax",%progbits
  26              		.align	2
  27              		.thumb
  28              		.thumb_func
  29              		.type	Cy_GPIO_SetHSIOM, %function
  30              	Cy_GPIO_SetHSIOM:
  31              	.LFB125:
  32              		.file 1 "Generated_Source\\PSoC6\\pdl\\drivers\\peripheral\\gpio\\cy_gpio.h"
   1:Generated_Source\PSoC6\pdl\drivers\peripheral\gpio/cy_gpio.h **** /***************************************************************************//**
   2:Generated_Source\PSoC6\pdl\drivers\peripheral\gpio/cy_gpio.h **** * \file cy_gpio.h
   3:Generated_Source\PSoC6\pdl\drivers\peripheral\gpio/cy_gpio.h **** * \version 1.10.1
   4:Generated_Source\PSoC6\pdl\drivers\peripheral\gpio/cy_gpio.h **** *
   5:Generated_Source\PSoC6\pdl\drivers\peripheral\gpio/cy_gpio.h **** * \brief
   6:Generated_Source\PSoC6\pdl\drivers\peripheral\gpio/cy_gpio.h **** * Provides an API declaration of the GPIO driver
   7:Generated_Source\PSoC6\pdl\drivers\peripheral\gpio/cy_gpio.h **** *
   8:Generated_Source\PSoC6\pdl\drivers\peripheral\gpio/cy_gpio.h **** ********************************************************************************
   9:Generated_Source\PSoC6\pdl\drivers\peripheral\gpio/cy_gpio.h **** * \copyright
  10:Generated_Source\PSoC6\pdl\drivers\peripheral\gpio/cy_gpio.h **** * Copyright 2016-2018, Cypress Semiconductor Corporation. All rights reserved.
  11:Generated_Source\PSoC6\pdl\drivers\peripheral\gpio/cy_gpio.h **** * You may use this file only in accordance with the license, terms, conditions,
  12:Generated_Source\PSoC6\pdl\drivers\peripheral\gpio/cy_gpio.h **** * disclaimers, and limitations in the end user license agreement accompanying
  13:Generated_Source\PSoC6\pdl\drivers\peripheral\gpio/cy_gpio.h **** * the software package with which this file was provided.
  14:Generated_Source\PSoC6\pdl\drivers\peripheral\gpio/cy_gpio.h **** *******************************************************************************/
  15:Generated_Source\PSoC6\pdl\drivers\peripheral\gpio/cy_gpio.h **** 
  16:Generated_Source\PSoC6\pdl\drivers\peripheral\gpio/cy_gpio.h **** /**
  17:Generated_Source\PSoC6\pdl\drivers\peripheral\gpio/cy_gpio.h **** * \defgroup group_gpio General Purpose Input Output (GPIO)
  18:Generated_Source\PSoC6\pdl\drivers\peripheral\gpio/cy_gpio.h **** * \{
ARM GAS  C:\Users\ikomb\AppData\Local\Temp\ccAzoKUN.s 			page 2


  19:Generated_Source\PSoC6\pdl\drivers\peripheral\gpio/cy_gpio.h **** * The GPIO driver provides an API to configure and access device Input/Output pins.
  20:Generated_Source\PSoC6\pdl\drivers\peripheral\gpio/cy_gpio.h **** * IO pins include all general purpose types such as GPIO, SIO, HSIO, AUXIO, and
  21:Generated_Source\PSoC6\pdl\drivers\peripheral\gpio/cy_gpio.h **** * their variants.
  22:Generated_Source\PSoC6\pdl\drivers\peripheral\gpio/cy_gpio.h **** *
  23:Generated_Source\PSoC6\pdl\drivers\peripheral\gpio/cy_gpio.h **** * Initialization can be performed either at the port level or by configuring the
  24:Generated_Source\PSoC6\pdl\drivers\peripheral\gpio/cy_gpio.h **** * individual pins. For efficient use of code space, port
  25:Generated_Source\PSoC6\pdl\drivers\peripheral\gpio/cy_gpio.h **** * configuration should be used in the field. Refer to the product device header files 
  26:Generated_Source\PSoC6\pdl\drivers\peripheral\gpio/cy_gpio.h **** * for the list of supported ports and pins.
  27:Generated_Source\PSoC6\pdl\drivers\peripheral\gpio/cy_gpio.h **** * 
  28:Generated_Source\PSoC6\pdl\drivers\peripheral\gpio/cy_gpio.h **** * - Single pin configuration is performed by using \ref Cy_GPIO_Pin_FastInit 
  29:Generated_Source\PSoC6\pdl\drivers\peripheral\gpio/cy_gpio.h **** *   (provide specific values) or \ref Cy_GPIO_Pin_Init (provide a filled
  30:Generated_Source\PSoC6\pdl\drivers\peripheral\gpio/cy_gpio.h **** *   cy_stc_gpio_pin_config_t structure).
  31:Generated_Source\PSoC6\pdl\drivers\peripheral\gpio/cy_gpio.h **** * - An entire port can be configured using \ref Cy_GPIO_Port_Init. Provide a filled 
  32:Generated_Source\PSoC6\pdl\drivers\peripheral\gpio/cy_gpio.h **** *   cy_stc_gpio_prt_config_t structure. The values in the structure are 
  33:Generated_Source\PSoC6\pdl\drivers\peripheral\gpio/cy_gpio.h **** *   bitfields representing the desired value for each pin in the port.
  34:Generated_Source\PSoC6\pdl\drivers\peripheral\gpio/cy_gpio.h **** * - Pin configuration and management is based on the port address and pin number.
  35:Generated_Source\PSoC6\pdl\drivers\peripheral\gpio/cy_gpio.h **** *   \ref Cy_GPIO_PortToAddr function can optionally be used to calculate the port
  36:Generated_Source\PSoC6\pdl\drivers\peripheral\gpio/cy_gpio.h **** *   address from the port number at run-time.
  37:Generated_Source\PSoC6\pdl\drivers\peripheral\gpio/cy_gpio.h **** *
  38:Generated_Source\PSoC6\pdl\drivers\peripheral\gpio/cy_gpio.h **** * Once the pin/port initialization is complete, each pin can be accessed by 
  39:Generated_Source\PSoC6\pdl\drivers\peripheral\gpio/cy_gpio.h **** * specifying the port (GPIO_PRT_Type) and the pin (0-7) in the provided API 
  40:Generated_Source\PSoC6\pdl\drivers\peripheral\gpio/cy_gpio.h **** * functions.
  41:Generated_Source\PSoC6\pdl\drivers\peripheral\gpio/cy_gpio.h **** *
  42:Generated_Source\PSoC6\pdl\drivers\peripheral\gpio/cy_gpio.h **** * \section group_gpio_configuration Configuration Considerations
  43:Generated_Source\PSoC6\pdl\drivers\peripheral\gpio/cy_gpio.h **** *
  44:Generated_Source\PSoC6\pdl\drivers\peripheral\gpio/cy_gpio.h **** * 1. Pin multiplexing is controlled through the High-Speed IO Matrix (HSIOM) selection.
  45:Generated_Source\PSoC6\pdl\drivers\peripheral\gpio/cy_gpio.h **** *    This allows the pin to connect to signal sources/sinks throughout the device,
  46:Generated_Source\PSoC6\pdl\drivers\peripheral\gpio/cy_gpio.h **** *    as defined by the pin HSIOM selection options (en_hsiom_sel_t).
  47:Generated_Source\PSoC6\pdl\drivers\peripheral\gpio/cy_gpio.h **** * 2. All pins are initialized to High-Z drive mode with HSIOM connected to CPU (SW
  48:Generated_Source\PSoC6\pdl\drivers\peripheral\gpio/cy_gpio.h **** *    control digital pin only) at Power-On-Reset(POR).
  49:Generated_Source\PSoC6\pdl\drivers\peripheral\gpio/cy_gpio.h **** * 3. Some API functions perform read-modify-write operations on shared port
  50:Generated_Source\PSoC6\pdl\drivers\peripheral\gpio/cy_gpio.h **** *    registers. These functions are not thread safe and care must be taken when
  51:Generated_Source\PSoC6\pdl\drivers\peripheral\gpio/cy_gpio.h **** *    called by the application.
  52:Generated_Source\PSoC6\pdl\drivers\peripheral\gpio/cy_gpio.h **** *
  53:Generated_Source\PSoC6\pdl\drivers\peripheral\gpio/cy_gpio.h **** * Multiple pins on a port can be updated using direct port register writes with an
  54:Generated_Source\PSoC6\pdl\drivers\peripheral\gpio/cy_gpio.h **** * appropriate port mask. An example is shown below, highlighting the different ways of 
  55:Generated_Source\PSoC6\pdl\drivers\peripheral\gpio/cy_gpio.h **** * configuring Port 1 pins using,
  56:Generated_Source\PSoC6\pdl\drivers\peripheral\gpio/cy_gpio.h **** * 
  57:Generated_Source\PSoC6\pdl\drivers\peripheral\gpio/cy_gpio.h **** * - Port output data register
  58:Generated_Source\PSoC6\pdl\drivers\peripheral\gpio/cy_gpio.h **** * - Port output data set register
  59:Generated_Source\PSoC6\pdl\drivers\peripheral\gpio/cy_gpio.h **** * - Port output data clear register
  60:Generated_Source\PSoC6\pdl\drivers\peripheral\gpio/cy_gpio.h **** *
  61:Generated_Source\PSoC6\pdl\drivers\peripheral\gpio/cy_gpio.h **** * \snippet gpio/gpio_v1_10_sut_01.cydsn/main_cm4.c Cy_GPIO_Snippet
  62:Generated_Source\PSoC6\pdl\drivers\peripheral\gpio/cy_gpio.h **** *
  63:Generated_Source\PSoC6\pdl\drivers\peripheral\gpio/cy_gpio.h **** * \section group_gpio_more_information More Information
  64:Generated_Source\PSoC6\pdl\drivers\peripheral\gpio/cy_gpio.h **** *
  65:Generated_Source\PSoC6\pdl\drivers\peripheral\gpio/cy_gpio.h **** * Refer to the technical reference manual (TRM) and the device datasheet.
  66:Generated_Source\PSoC6\pdl\drivers\peripheral\gpio/cy_gpio.h **** *
  67:Generated_Source\PSoC6\pdl\drivers\peripheral\gpio/cy_gpio.h **** * \section group_gpio_MISRA MISRA-C Compliance]
  68:Generated_Source\PSoC6\pdl\drivers\peripheral\gpio/cy_gpio.h **** * <table class="doxtable">
  69:Generated_Source\PSoC6\pdl\drivers\peripheral\gpio/cy_gpio.h **** *   <tr>
  70:Generated_Source\PSoC6\pdl\drivers\peripheral\gpio/cy_gpio.h **** *     <th>MISRA Rule</th>
  71:Generated_Source\PSoC6\pdl\drivers\peripheral\gpio/cy_gpio.h **** *     <th>Rule Class (Required/Advisory)</th>
  72:Generated_Source\PSoC6\pdl\drivers\peripheral\gpio/cy_gpio.h **** *     <th>Rule Description</th>
  73:Generated_Source\PSoC6\pdl\drivers\peripheral\gpio/cy_gpio.h **** *     <th>Description of Deviation(s)</th>
  74:Generated_Source\PSoC6\pdl\drivers\peripheral\gpio/cy_gpio.h **** *   </tr>
  75:Generated_Source\PSoC6\pdl\drivers\peripheral\gpio/cy_gpio.h **** *   <tr>
ARM GAS  C:\Users\ikomb\AppData\Local\Temp\ccAzoKUN.s 			page 3


  76:Generated_Source\PSoC6\pdl\drivers\peripheral\gpio/cy_gpio.h **** *     <td>16.7</td>
  77:Generated_Source\PSoC6\pdl\drivers\peripheral\gpio/cy_gpio.h **** *     <td>A</td>
  78:Generated_Source\PSoC6\pdl\drivers\peripheral\gpio/cy_gpio.h **** *     <td>A pointer parameter in a function prototype should be declared as pointer 
  79:Generated_Source\PSoC6\pdl\drivers\peripheral\gpio/cy_gpio.h **** *         to const if the pointer is not used to modify the addressed object.</td>
  80:Generated_Source\PSoC6\pdl\drivers\peripheral\gpio/cy_gpio.h **** *     <td>The objects pointed to by the base addresses of the GPIO port are not always modified.
  81:Generated_Source\PSoC6\pdl\drivers\peripheral\gpio/cy_gpio.h **** *         While a const qualifier can be used in select scenarios, it brings little benefit
  82:Generated_Source\PSoC6\pdl\drivers\peripheral\gpio/cy_gpio.h **** *         in adding this to the affected functions. </td>
  83:Generated_Source\PSoC6\pdl\drivers\peripheral\gpio/cy_gpio.h **** *   </tr>
  84:Generated_Source\PSoC6\pdl\drivers\peripheral\gpio/cy_gpio.h **** * </table>
  85:Generated_Source\PSoC6\pdl\drivers\peripheral\gpio/cy_gpio.h **** *
  86:Generated_Source\PSoC6\pdl\drivers\peripheral\gpio/cy_gpio.h **** * \section group_gpio_changelog Changelog
  87:Generated_Source\PSoC6\pdl\drivers\peripheral\gpio/cy_gpio.h **** * <table class="doxtable">
  88:Generated_Source\PSoC6\pdl\drivers\peripheral\gpio/cy_gpio.h **** *   <tr><th>Version</th><th>Changes</th><th>Reason for Change</th></tr>
  89:Generated_Source\PSoC6\pdl\drivers\peripheral\gpio/cy_gpio.h **** *   <tr>
  90:Generated_Source\PSoC6\pdl\drivers\peripheral\gpio/cy_gpio.h **** *     <td>1.10.1</td>
  91:Generated_Source\PSoC6\pdl\drivers\peripheral\gpio/cy_gpio.h **** *     <td>Updated description for the functions: \ref Cy_GPIO_GetInterruptStatus, 
  92:Generated_Source\PSoC6\pdl\drivers\peripheral\gpio/cy_gpio.h **** *         \ref Cy_GPIO_GetInterruptMask, \ref Cy_GPIO_GetInterruptStatusMasked.
  93:Generated_Source\PSoC6\pdl\drivers\peripheral\gpio/cy_gpio.h **** *         Minor documentation edits.
  94:Generated_Source\PSoC6\pdl\drivers\peripheral\gpio/cy_gpio.h **** *     </td>
  95:Generated_Source\PSoC6\pdl\drivers\peripheral\gpio/cy_gpio.h **** *     <td>Documentation update and clarification</td>
  96:Generated_Source\PSoC6\pdl\drivers\peripheral\gpio/cy_gpio.h **** *   </tr>
  97:Generated_Source\PSoC6\pdl\drivers\peripheral\gpio/cy_gpio.h **** *   <tr>
  98:Generated_Source\PSoC6\pdl\drivers\peripheral\gpio/cy_gpio.h **** *     <td>1.10</td>
  99:Generated_Source\PSoC6\pdl\drivers\peripheral\gpio/cy_gpio.h **** *     <td>Added input parameter validation to the API functions</td>
 100:Generated_Source\PSoC6\pdl\drivers\peripheral\gpio/cy_gpio.h **** *     <td></td>
 101:Generated_Source\PSoC6\pdl\drivers\peripheral\gpio/cy_gpio.h **** *   </tr>
 102:Generated_Source\PSoC6\pdl\drivers\peripheral\gpio/cy_gpio.h **** *   <tr>
 103:Generated_Source\PSoC6\pdl\drivers\peripheral\gpio/cy_gpio.h **** *     <td>1.0</td>
 104:Generated_Source\PSoC6\pdl\drivers\peripheral\gpio/cy_gpio.h **** *     <td>Initial version</td>
 105:Generated_Source\PSoC6\pdl\drivers\peripheral\gpio/cy_gpio.h **** *     <td></td>
 106:Generated_Source\PSoC6\pdl\drivers\peripheral\gpio/cy_gpio.h **** *   </tr>
 107:Generated_Source\PSoC6\pdl\drivers\peripheral\gpio/cy_gpio.h **** * </table>
 108:Generated_Source\PSoC6\pdl\drivers\peripheral\gpio/cy_gpio.h **** *
 109:Generated_Source\PSoC6\pdl\drivers\peripheral\gpio/cy_gpio.h **** * \defgroup group_gpio_macros Macros
 110:Generated_Source\PSoC6\pdl\drivers\peripheral\gpio/cy_gpio.h **** * \defgroup group_gpio_functions Functions
 111:Generated_Source\PSoC6\pdl\drivers\peripheral\gpio/cy_gpio.h **** * \{
 112:Generated_Source\PSoC6\pdl\drivers\peripheral\gpio/cy_gpio.h **** *   \defgroup group_gpio_functions_init       Initialization Functions
 113:Generated_Source\PSoC6\pdl\drivers\peripheral\gpio/cy_gpio.h **** *   \defgroup group_gpio_functions_gpio       GPIO Functions
 114:Generated_Source\PSoC6\pdl\drivers\peripheral\gpio/cy_gpio.h **** *   \defgroup group_gpio_functions_sio        SIO Functions
 115:Generated_Source\PSoC6\pdl\drivers\peripheral\gpio/cy_gpio.h **** *   \defgroup group_gpio_functions_interrupt  Port Interrupt Functions
 116:Generated_Source\PSoC6\pdl\drivers\peripheral\gpio/cy_gpio.h **** * \}
 117:Generated_Source\PSoC6\pdl\drivers\peripheral\gpio/cy_gpio.h **** * \defgroup group_gpio_data_structures Data Structures
 118:Generated_Source\PSoC6\pdl\drivers\peripheral\gpio/cy_gpio.h **** * \defgroup group_gpio_enums Enumerated Types
 119:Generated_Source\PSoC6\pdl\drivers\peripheral\gpio/cy_gpio.h **** */
 120:Generated_Source\PSoC6\pdl\drivers\peripheral\gpio/cy_gpio.h **** 
 121:Generated_Source\PSoC6\pdl\drivers\peripheral\gpio/cy_gpio.h **** #if !defined(CY_GPIO_H)
 122:Generated_Source\PSoC6\pdl\drivers\peripheral\gpio/cy_gpio.h **** #define CY_GPIO_H
 123:Generated_Source\PSoC6\pdl\drivers\peripheral\gpio/cy_gpio.h **** 
 124:Generated_Source\PSoC6\pdl\drivers\peripheral\gpio/cy_gpio.h **** #include <stddef.h>
 125:Generated_Source\PSoC6\pdl\drivers\peripheral\gpio/cy_gpio.h **** #include "syslib/cy_syslib.h"
 126:Generated_Source\PSoC6\pdl\drivers\peripheral\gpio/cy_gpio.h **** #include "cy_device_headers.h"
 127:Generated_Source\PSoC6\pdl\drivers\peripheral\gpio/cy_gpio.h **** 
 128:Generated_Source\PSoC6\pdl\drivers\peripheral\gpio/cy_gpio.h **** #if defined(__cplusplus)
 129:Generated_Source\PSoC6\pdl\drivers\peripheral\gpio/cy_gpio.h **** extern "C" {
 130:Generated_Source\PSoC6\pdl\drivers\peripheral\gpio/cy_gpio.h **** #endif
 131:Generated_Source\PSoC6\pdl\drivers\peripheral\gpio/cy_gpio.h **** 
 132:Generated_Source\PSoC6\pdl\drivers\peripheral\gpio/cy_gpio.h **** /** \addtogroup group_gpio_macros
ARM GAS  C:\Users\ikomb\AppData\Local\Temp\ccAzoKUN.s 			page 4


 133:Generated_Source\PSoC6\pdl\drivers\peripheral\gpio/cy_gpio.h **** * \{
 134:Generated_Source\PSoC6\pdl\drivers\peripheral\gpio/cy_gpio.h **** */
 135:Generated_Source\PSoC6\pdl\drivers\peripheral\gpio/cy_gpio.h **** 
 136:Generated_Source\PSoC6\pdl\drivers\peripheral\gpio/cy_gpio.h **** /** Driver major version */
 137:Generated_Source\PSoC6\pdl\drivers\peripheral\gpio/cy_gpio.h **** #define CY_GPIO_DRV_VERSION_MAJOR       1
 138:Generated_Source\PSoC6\pdl\drivers\peripheral\gpio/cy_gpio.h **** 
 139:Generated_Source\PSoC6\pdl\drivers\peripheral\gpio/cy_gpio.h **** /** Driver minor version */
 140:Generated_Source\PSoC6\pdl\drivers\peripheral\gpio/cy_gpio.h **** #define CY_GPIO_DRV_VERSION_MINOR       10
 141:Generated_Source\PSoC6\pdl\drivers\peripheral\gpio/cy_gpio.h **** 
 142:Generated_Source\PSoC6\pdl\drivers\peripheral\gpio/cy_gpio.h **** /** GPIO driver ID */
 143:Generated_Source\PSoC6\pdl\drivers\peripheral\gpio/cy_gpio.h **** #define CY_GPIO_ID CY_PDL_DRV_ID(0x16u)
 144:Generated_Source\PSoC6\pdl\drivers\peripheral\gpio/cy_gpio.h **** 
 145:Generated_Source\PSoC6\pdl\drivers\peripheral\gpio/cy_gpio.h **** /** \} group_gpio_macros */
 146:Generated_Source\PSoC6\pdl\drivers\peripheral\gpio/cy_gpio.h **** 
 147:Generated_Source\PSoC6\pdl\drivers\peripheral\gpio/cy_gpio.h **** 
 148:Generated_Source\PSoC6\pdl\drivers\peripheral\gpio/cy_gpio.h **** /***************************************
 149:Generated_Source\PSoC6\pdl\drivers\peripheral\gpio/cy_gpio.h **** *       Enumerations
 150:Generated_Source\PSoC6\pdl\drivers\peripheral\gpio/cy_gpio.h **** ***************************************/
 151:Generated_Source\PSoC6\pdl\drivers\peripheral\gpio/cy_gpio.h **** /**
 152:Generated_Source\PSoC6\pdl\drivers\peripheral\gpio/cy_gpio.h **** * \addtogroup group_gpio_enums
 153:Generated_Source\PSoC6\pdl\drivers\peripheral\gpio/cy_gpio.h **** * \{
 154:Generated_Source\PSoC6\pdl\drivers\peripheral\gpio/cy_gpio.h **** */
 155:Generated_Source\PSoC6\pdl\drivers\peripheral\gpio/cy_gpio.h **** 
 156:Generated_Source\PSoC6\pdl\drivers\peripheral\gpio/cy_gpio.h **** /**
 157:Generated_Source\PSoC6\pdl\drivers\peripheral\gpio/cy_gpio.h **** * GPIO Driver error codes
 158:Generated_Source\PSoC6\pdl\drivers\peripheral\gpio/cy_gpio.h **** */
 159:Generated_Source\PSoC6\pdl\drivers\peripheral\gpio/cy_gpio.h **** typedef enum 
 160:Generated_Source\PSoC6\pdl\drivers\peripheral\gpio/cy_gpio.h **** {
 161:Generated_Source\PSoC6\pdl\drivers\peripheral\gpio/cy_gpio.h ****     CY_GPIO_SUCCESS   = 0x00u,                                    /**< Returned successful */
 162:Generated_Source\PSoC6\pdl\drivers\peripheral\gpio/cy_gpio.h ****     CY_GPIO_BAD_PARAM = CY_GPIO_ID | CY_PDL_STATUS_ERROR | 0x01u, /**< Bad parameter was passed */
 163:Generated_Source\PSoC6\pdl\drivers\peripheral\gpio/cy_gpio.h **** } cy_en_gpio_status_t;
 164:Generated_Source\PSoC6\pdl\drivers\peripheral\gpio/cy_gpio.h **** 
 165:Generated_Source\PSoC6\pdl\drivers\peripheral\gpio/cy_gpio.h **** /** \} group_gpio_enums */
 166:Generated_Source\PSoC6\pdl\drivers\peripheral\gpio/cy_gpio.h **** 
 167:Generated_Source\PSoC6\pdl\drivers\peripheral\gpio/cy_gpio.h **** 
 168:Generated_Source\PSoC6\pdl\drivers\peripheral\gpio/cy_gpio.h **** /***************************************
 169:Generated_Source\PSoC6\pdl\drivers\peripheral\gpio/cy_gpio.h **** *       Configuration Structures
 170:Generated_Source\PSoC6\pdl\drivers\peripheral\gpio/cy_gpio.h **** ***************************************/
 171:Generated_Source\PSoC6\pdl\drivers\peripheral\gpio/cy_gpio.h **** 
 172:Generated_Source\PSoC6\pdl\drivers\peripheral\gpio/cy_gpio.h **** /**
 173:Generated_Source\PSoC6\pdl\drivers\peripheral\gpio/cy_gpio.h **** * \addtogroup group_gpio_data_structures
 174:Generated_Source\PSoC6\pdl\drivers\peripheral\gpio/cy_gpio.h **** * \{
 175:Generated_Source\PSoC6\pdl\drivers\peripheral\gpio/cy_gpio.h **** */
 176:Generated_Source\PSoC6\pdl\drivers\peripheral\gpio/cy_gpio.h **** 
 177:Generated_Source\PSoC6\pdl\drivers\peripheral\gpio/cy_gpio.h **** /** This structure is used to initialize a port of GPIO pins */
 178:Generated_Source\PSoC6\pdl\drivers\peripheral\gpio/cy_gpio.h **** typedef struct {
 179:Generated_Source\PSoC6\pdl\drivers\peripheral\gpio/cy_gpio.h ****     uint32_t out;           /**< Initial output data for the IO pins in the port */
 180:Generated_Source\PSoC6\pdl\drivers\peripheral\gpio/cy_gpio.h ****     uint32_t intrMask;      /**< Interrupt enable mask for the port interrupt */
 181:Generated_Source\PSoC6\pdl\drivers\peripheral\gpio/cy_gpio.h ****     uint32_t intrCfg;       /**< Port pin interrupt edge detection configuration */
 182:Generated_Source\PSoC6\pdl\drivers\peripheral\gpio/cy_gpio.h ****     uint32_t cfg;           /**< Port pin drive modes and input buffer enable configuration */
 183:Generated_Source\PSoC6\pdl\drivers\peripheral\gpio/cy_gpio.h ****     uint32_t cfgIn;         /**< Port pin input buffer configuration */
 184:Generated_Source\PSoC6\pdl\drivers\peripheral\gpio/cy_gpio.h ****     uint32_t cfgOut;        /**< Port pin output buffer configuration */
 185:Generated_Source\PSoC6\pdl\drivers\peripheral\gpio/cy_gpio.h ****     uint32_t cfgSIO;        /**< Port SIO pins configuration */
 186:Generated_Source\PSoC6\pdl\drivers\peripheral\gpio/cy_gpio.h ****     uint32_t sel0Active;    /**< HSIOM selection for port pins 0,1,2,3 */
 187:Generated_Source\PSoC6\pdl\drivers\peripheral\gpio/cy_gpio.h ****     uint32_t sel1Active;    /**< HSIOM selection for port pins 4,5,6,7 */
 188:Generated_Source\PSoC6\pdl\drivers\peripheral\gpio/cy_gpio.h **** } cy_stc_gpio_prt_config_t;
 189:Generated_Source\PSoC6\pdl\drivers\peripheral\gpio/cy_gpio.h **** 
ARM GAS  C:\Users\ikomb\AppData\Local\Temp\ccAzoKUN.s 			page 5


 190:Generated_Source\PSoC6\pdl\drivers\peripheral\gpio/cy_gpio.h **** /** This structure is used to initialize a single GPIO pin */
 191:Generated_Source\PSoC6\pdl\drivers\peripheral\gpio/cy_gpio.h **** typedef struct {
 192:Generated_Source\PSoC6\pdl\drivers\peripheral\gpio/cy_gpio.h ****     uint32_t outVal;         /**< Pin output state */
 193:Generated_Source\PSoC6\pdl\drivers\peripheral\gpio/cy_gpio.h ****     uint32_t driveMode;      /**< Drive mode */
 194:Generated_Source\PSoC6\pdl\drivers\peripheral\gpio/cy_gpio.h ****     en_hsiom_sel_t hsiom;   /**< HSIOM selection */
 195:Generated_Source\PSoC6\pdl\drivers\peripheral\gpio/cy_gpio.h ****     uint32_t intEdge;        /**< Interrupt Edge type */
 196:Generated_Source\PSoC6\pdl\drivers\peripheral\gpio/cy_gpio.h ****     uint32_t intMask;        /**< Interrupt enable mask */
 197:Generated_Source\PSoC6\pdl\drivers\peripheral\gpio/cy_gpio.h ****     uint32_t vtrip;          /**< Input buffer voltage trip type */
 198:Generated_Source\PSoC6\pdl\drivers\peripheral\gpio/cy_gpio.h ****     uint32_t slewRate;       /**< Output buffer slew rate */
 199:Generated_Source\PSoC6\pdl\drivers\peripheral\gpio/cy_gpio.h ****     uint32_t driveSel;       /**< Drive strength */
 200:Generated_Source\PSoC6\pdl\drivers\peripheral\gpio/cy_gpio.h ****     uint32_t vregEn;         /**< SIO pair output buffer mode */
 201:Generated_Source\PSoC6\pdl\drivers\peripheral\gpio/cy_gpio.h ****     uint32_t ibufMode;       /**< SIO pair input buffer mode */
 202:Generated_Source\PSoC6\pdl\drivers\peripheral\gpio/cy_gpio.h ****     uint32_t vtripSel;       /**< SIO pair input buffer trip point */
 203:Generated_Source\PSoC6\pdl\drivers\peripheral\gpio/cy_gpio.h ****     uint32_t vrefSel;        /**< SIO pair reference voltage for input buffer trip point */
 204:Generated_Source\PSoC6\pdl\drivers\peripheral\gpio/cy_gpio.h ****     uint32_t vohSel;         /**< SIO pair regulated voltage output level */
 205:Generated_Source\PSoC6\pdl\drivers\peripheral\gpio/cy_gpio.h **** } cy_stc_gpio_pin_config_t;
 206:Generated_Source\PSoC6\pdl\drivers\peripheral\gpio/cy_gpio.h **** 
 207:Generated_Source\PSoC6\pdl\drivers\peripheral\gpio/cy_gpio.h **** /** \} group_gpio_data_structures */
 208:Generated_Source\PSoC6\pdl\drivers\peripheral\gpio/cy_gpio.h **** 
 209:Generated_Source\PSoC6\pdl\drivers\peripheral\gpio/cy_gpio.h **** /***************************************
 210:Generated_Source\PSoC6\pdl\drivers\peripheral\gpio/cy_gpio.h **** *        Constants
 211:Generated_Source\PSoC6\pdl\drivers\peripheral\gpio/cy_gpio.h **** ***************************************/
 212:Generated_Source\PSoC6\pdl\drivers\peripheral\gpio/cy_gpio.h **** 
 213:Generated_Source\PSoC6\pdl\drivers\peripheral\gpio/cy_gpio.h **** /** \cond INTERNAL */
 214:Generated_Source\PSoC6\pdl\drivers\peripheral\gpio/cy_gpio.h **** 
 215:Generated_Source\PSoC6\pdl\drivers\peripheral\gpio/cy_gpio.h **** /* General Constants */
 216:Generated_Source\PSoC6\pdl\drivers\peripheral\gpio/cy_gpio.h **** #define CY_GPIO_PRT_HALF                       (4UL)      /**< Half-way point of a GPIO port */
 217:Generated_Source\PSoC6\pdl\drivers\peripheral\gpio/cy_gpio.h **** #define CY_GPIO_PRT_DEINIT                     (0UL)      /**< De-init value for port registers */
 218:Generated_Source\PSoC6\pdl\drivers\peripheral\gpio/cy_gpio.h **** 
 219:Generated_Source\PSoC6\pdl\drivers\peripheral\gpio/cy_gpio.h **** /* GPIO Masks */
 220:Generated_Source\PSoC6\pdl\drivers\peripheral\gpio/cy_gpio.h **** #define CY_GPIO_HSIOM_MASK                     (0x1FUL)   /**< HSIOM selection mask */
 221:Generated_Source\PSoC6\pdl\drivers\peripheral\gpio/cy_gpio.h **** #define CY_GPIO_OUT_MASK                       (0x01UL)   /**< Single pin mask for OUT register */
 222:Generated_Source\PSoC6\pdl\drivers\peripheral\gpio/cy_gpio.h **** #define CY_GPIO_IN_MASK                        (0x01UL)   /**< Single pin mask for IN register */
 223:Generated_Source\PSoC6\pdl\drivers\peripheral\gpio/cy_gpio.h **** #define CY_GPIO_CFG_DM_MASK                    (0x0FUL)   /**< Single pin mask for drive mode in CF
 224:Generated_Source\PSoC6\pdl\drivers\peripheral\gpio/cy_gpio.h **** #define CY_GPIO_CFG_IN_VTRIP_SEL_MASK          (0x01UL)   /**< Single pin mask for VTRIP selection 
 225:Generated_Source\PSoC6\pdl\drivers\peripheral\gpio/cy_gpio.h **** #define CY_GPIO_CFG_OUT_SLOW_MASK              (0x01UL)   /**< Single pin mask for slew rate in CFG
 226:Generated_Source\PSoC6\pdl\drivers\peripheral\gpio/cy_gpio.h **** #define CY_GPIO_CFG_OUT_DRIVE_SEL_MASK         (0x03UL)   /**< Single pin mask for drive strength i
 227:Generated_Source\PSoC6\pdl\drivers\peripheral\gpio/cy_gpio.h **** #define CY_GPIO_INTR_STATUS_MASK               (0x01UL)   /**< Single pin mask for interrupt status
 228:Generated_Source\PSoC6\pdl\drivers\peripheral\gpio/cy_gpio.h **** #define CY_GPIO_INTR_EN_MASK                   (0x01UL)   /**< Single pin mask for interrupt status
 229:Generated_Source\PSoC6\pdl\drivers\peripheral\gpio/cy_gpio.h **** #define CY_GPIO_INTR_MASKED_MASK               (0x01UL)   /**< Single pin mask for masked interrupt
 230:Generated_Source\PSoC6\pdl\drivers\peripheral\gpio/cy_gpio.h **** #define CY_GPIO_INTR_SET_MASK                  (0x01UL)   /**< Single pin mask for setting the inte
 231:Generated_Source\PSoC6\pdl\drivers\peripheral\gpio/cy_gpio.h **** #define CY_GPIO_INTR_EDGE_MASK                 (0x03UL)   /**< Single pin mask for interrupt edge t
 232:Generated_Source\PSoC6\pdl\drivers\peripheral\gpio/cy_gpio.h **** #define CY_GPIO_INTR_FLT_EDGE_MASK             (0x07UL)   /**< Single pin mask for setting filtered
 233:Generated_Source\PSoC6\pdl\drivers\peripheral\gpio/cy_gpio.h **** 
 234:Generated_Source\PSoC6\pdl\drivers\peripheral\gpio/cy_gpio.h **** /* SIO Masks */
 235:Generated_Source\PSoC6\pdl\drivers\peripheral\gpio/cy_gpio.h **** #define CY_GPIO_VREG_EN_MASK                   (0x01UL)   /**< Single SIO pin mask for voltage regu
 236:Generated_Source\PSoC6\pdl\drivers\peripheral\gpio/cy_gpio.h **** #define CY_GPIO_IBUF_MASK                      (0x01UL)   /**< Single SIO pin mask for input buffer
 237:Generated_Source\PSoC6\pdl\drivers\peripheral\gpio/cy_gpio.h **** #define CY_GPIO_IBUF_SHIFT                     (0x01UL)   /**< Single SIO pin shift for input buffe
 238:Generated_Source\PSoC6\pdl\drivers\peripheral\gpio/cy_gpio.h **** #define CY_GPIO_VTRIP_SEL_MASK                 (0x01UL)   /**< Single SIO pin mask for the input bu
 239:Generated_Source\PSoC6\pdl\drivers\peripheral\gpio/cy_gpio.h **** #define CY_GPIO_VTRIP_SEL_SHIFT                (0x02UL)   /**< Single SIO pin shift for the input b
 240:Generated_Source\PSoC6\pdl\drivers\peripheral\gpio/cy_gpio.h **** #define CY_GPIO_VREF_SEL_MASK                  (0x03UL)   /**< Single SIO pin mask for voltage refe
 241:Generated_Source\PSoC6\pdl\drivers\peripheral\gpio/cy_gpio.h **** #define CY_GPIO_VREF_SEL_SHIFT                 (0x03UL)   /**< Single SIO pin shift for voltage ref
 242:Generated_Source\PSoC6\pdl\drivers\peripheral\gpio/cy_gpio.h **** #define CY_GPIO_VOH_SEL_MASK                   (0x07UL)   /**< Single SIO pin mask for VOH */
 243:Generated_Source\PSoC6\pdl\drivers\peripheral\gpio/cy_gpio.h **** #define CY_GPIO_VOH_SEL_SHIFT                  (0x05UL)   /**< Single SIO pin shift for VOH */
 244:Generated_Source\PSoC6\pdl\drivers\peripheral\gpio/cy_gpio.h **** 
 245:Generated_Source\PSoC6\pdl\drivers\peripheral\gpio/cy_gpio.h **** /* Special mask for SIO pin pair setting */
 246:Generated_Source\PSoC6\pdl\drivers\peripheral\gpio/cy_gpio.h **** #define CY_GPIO_SIO_ODD_PIN_MASK               (0x00FEUL) /**< SIO pin pair selection mask */
ARM GAS  C:\Users\ikomb\AppData\Local\Temp\ccAzoKUN.s 			page 6


 247:Generated_Source\PSoC6\pdl\drivers\peripheral\gpio/cy_gpio.h **** #define CY_GPIO_SIO_PIN_MASK                   (0x00FFUL) /**< SIO pin pair mask */
 248:Generated_Source\PSoC6\pdl\drivers\peripheral\gpio/cy_gpio.h **** 
 249:Generated_Source\PSoC6\pdl\drivers\peripheral\gpio/cy_gpio.h **** /* Offsets */
 250:Generated_Source\PSoC6\pdl\drivers\peripheral\gpio/cy_gpio.h **** #define CY_GPIO_HSIOM_OFFSET                   (3UL)      /**< Offset for HSIOM */
 251:Generated_Source\PSoC6\pdl\drivers\peripheral\gpio/cy_gpio.h **** #define CY_GPIO_DRIVE_MODE_OFFSET              (2UL)      /**< Offset for Drive mode */
 252:Generated_Source\PSoC6\pdl\drivers\peripheral\gpio/cy_gpio.h **** #define CY_GPIO_INBUF_OFFSET                   (3UL)      /**< Offset for input buffer */
 253:Generated_Source\PSoC6\pdl\drivers\peripheral\gpio/cy_gpio.h **** #define CY_GPIO_CFG_OUT_DRIVE_OFFSET           (16UL)     /**< Offset for drive strength */
 254:Generated_Source\PSoC6\pdl\drivers\peripheral\gpio/cy_gpio.h **** #define CY_GPIO_INTR_CFG_OFFSET                (1UL)      /**< Offset for interrupt config */
 255:Generated_Source\PSoC6\pdl\drivers\peripheral\gpio/cy_gpio.h **** #define CY_GPIO_INTR_FILT_OFFSET               (18UL)     /**< Offset for filtered interrupt config
 256:Generated_Source\PSoC6\pdl\drivers\peripheral\gpio/cy_gpio.h **** #define CY_GPIO_CFG_SIO_OFFSET                 (2UL)      /**< Offset for SIO config */
 257:Generated_Source\PSoC6\pdl\drivers\peripheral\gpio/cy_gpio.h **** 
 258:Generated_Source\PSoC6\pdl\drivers\peripheral\gpio/cy_gpio.h **** /* Parameter validation constants */
 259:Generated_Source\PSoC6\pdl\drivers\peripheral\gpio/cy_gpio.h **** #define CY_GPIO_PINS_MAX                       (8UL)      /**< Number of pins in the port */
 260:Generated_Source\PSoC6\pdl\drivers\peripheral\gpio/cy_gpio.h **** #define CY_GPIO_PRT_PINS_MASK                  (0x0000000FFUL)
 261:Generated_Source\PSoC6\pdl\drivers\peripheral\gpio/cy_gpio.h **** #define CY_GPIO_PRT_INTR_CFG_EDGE_SEL_MASK     (GPIO_PRT_INTR_CFG_EDGE0_SEL_Msk | \
 262:Generated_Source\PSoC6\pdl\drivers\peripheral\gpio/cy_gpio.h ****                                                 GPIO_PRT_INTR_CFG_EDGE1_SEL_Msk | \
 263:Generated_Source\PSoC6\pdl\drivers\peripheral\gpio/cy_gpio.h ****                                                 GPIO_PRT_INTR_CFG_EDGE2_SEL_Msk | \
 264:Generated_Source\PSoC6\pdl\drivers\peripheral\gpio/cy_gpio.h ****                                                 GPIO_PRT_INTR_CFG_EDGE3_SEL_Msk | \
 265:Generated_Source\PSoC6\pdl\drivers\peripheral\gpio/cy_gpio.h ****                                                 GPIO_PRT_INTR_CFG_EDGE4_SEL_Msk | \
 266:Generated_Source\PSoC6\pdl\drivers\peripheral\gpio/cy_gpio.h ****                                                 GPIO_PRT_INTR_CFG_EDGE5_SEL_Msk | \
 267:Generated_Source\PSoC6\pdl\drivers\peripheral\gpio/cy_gpio.h ****                                                 GPIO_PRT_INTR_CFG_EDGE6_SEL_Msk | \
 268:Generated_Source\PSoC6\pdl\drivers\peripheral\gpio/cy_gpio.h ****                                                 GPIO_PRT_INTR_CFG_EDGE7_SEL_Msk)            
 269:Generated_Source\PSoC6\pdl\drivers\peripheral\gpio/cy_gpio.h **** #define CY_GPIO_PRT_INTR_CFG_RANGE_MASK        (CY_GPIO_PRT_INTR_CFG_EDGE_SEL_MASK | \
 270:Generated_Source\PSoC6\pdl\drivers\peripheral\gpio/cy_gpio.h ****                                                 GPIO_PRT_INTR_CFG_FLT_EDGE_SEL_Msk | \
 271:Generated_Source\PSoC6\pdl\drivers\peripheral\gpio/cy_gpio.h ****                                                 GPIO_PRT_INTR_CFG_FLT_SEL_Msk)
 272:Generated_Source\PSoC6\pdl\drivers\peripheral\gpio/cy_gpio.h **** #define CY_GPIO_PRT_INT_MASK_MASK              (0x0000001FFUL)
 273:Generated_Source\PSoC6\pdl\drivers\peripheral\gpio/cy_gpio.h **** #define CY_GPIO_PRT_SEL_ACTIVE_MASK            (0x1FFFFFFFUL)
 274:Generated_Source\PSoC6\pdl\drivers\peripheral\gpio/cy_gpio.h **** 
 275:Generated_Source\PSoC6\pdl\drivers\peripheral\gpio/cy_gpio.h **** /* Parameter validation macros */
 276:Generated_Source\PSoC6\pdl\drivers\peripheral\gpio/cy_gpio.h **** #define CY_GPIO_IS_PIN_VALID(pinNum)           (CY_GPIO_PINS_MAX > (pinNum))
 277:Generated_Source\PSoC6\pdl\drivers\peripheral\gpio/cy_gpio.h **** #define CY_GPIO_IS_FILTER_PIN_VALID(pinNum)    (CY_GPIO_PINS_MAX >= (pinNum))
 278:Generated_Source\PSoC6\pdl\drivers\peripheral\gpio/cy_gpio.h **** #define CY_GPIO_IS_VALUE_VALID(outVal)         (1UL >= (outVal))
 279:Generated_Source\PSoC6\pdl\drivers\peripheral\gpio/cy_gpio.h **** #define CY_GPIO_IS_DM_VALID(driveMode)         (0U == ((driveMode) & (uint32_t)~CY_GPIO_CFG_DM_MASK
 280:Generated_Source\PSoC6\pdl\drivers\peripheral\gpio/cy_gpio.h **** 
 281:Generated_Source\PSoC6\pdl\drivers\peripheral\gpio/cy_gpio.h **** #define CY_GPIO_IS_HSIOM_VALID(hsiom)          (0U == ((hsiom) & (uint32_t)~CY_GPIO_HSIOM_MASK))
 282:Generated_Source\PSoC6\pdl\drivers\peripheral\gpio/cy_gpio.h **** 
 283:Generated_Source\PSoC6\pdl\drivers\peripheral\gpio/cy_gpio.h **** #define CY_GPIO_IS_INT_EDGE_VALID(intEdge)     ((CY_GPIO_INTR_DISABLE  == (intEdge)) || \
 284:Generated_Source\PSoC6\pdl\drivers\peripheral\gpio/cy_gpio.h ****                                                 (CY_GPIO_INTR_RISING   == (intEdge)) || \
 285:Generated_Source\PSoC6\pdl\drivers\peripheral\gpio/cy_gpio.h ****                                                 (CY_GPIO_INTR_FALLING  == (intEdge)) || \
 286:Generated_Source\PSoC6\pdl\drivers\peripheral\gpio/cy_gpio.h ****                                                 (CY_GPIO_INTR_BOTH     == (intEdge)))
 287:Generated_Source\PSoC6\pdl\drivers\peripheral\gpio/cy_gpio.h **** 
 288:Generated_Source\PSoC6\pdl\drivers\peripheral\gpio/cy_gpio.h **** #define CY_GPIO_IS_DRIVE_SEL_VALID(driveSel)   ((CY_GPIO_DRIVE_FULL    == (driveSel)) || \
 289:Generated_Source\PSoC6\pdl\drivers\peripheral\gpio/cy_gpio.h ****                                                 (CY_GPIO_DRIVE_1_2     == (driveSel)) || \
 290:Generated_Source\PSoC6\pdl\drivers\peripheral\gpio/cy_gpio.h ****                                                 (CY_GPIO_DRIVE_1_4     == (driveSel)) || \
 291:Generated_Source\PSoC6\pdl\drivers\peripheral\gpio/cy_gpio.h ****                                                 (CY_GPIO_DRIVE_1_8     == (driveSel)))
 292:Generated_Source\PSoC6\pdl\drivers\peripheral\gpio/cy_gpio.h **** 
 293:Generated_Source\PSoC6\pdl\drivers\peripheral\gpio/cy_gpio.h **** #define CY_GPIO_IS_VREF_SEL_VALID(vrefSel)     ((CY_SIO_VREF_PINREF    == (vrefSel)) || \
 294:Generated_Source\PSoC6\pdl\drivers\peripheral\gpio/cy_gpio.h ****                                                 (CY_SIO_VREF_1_2V      == (vrefSel)) || \
 295:Generated_Source\PSoC6\pdl\drivers\peripheral\gpio/cy_gpio.h ****                                                 (CY_SIO_VREF_AMUX_A    == (vrefSel)) || \
 296:Generated_Source\PSoC6\pdl\drivers\peripheral\gpio/cy_gpio.h ****                                                 (CY_SIO_VREF_AMUX_B    == (vrefSel)))
 297:Generated_Source\PSoC6\pdl\drivers\peripheral\gpio/cy_gpio.h **** 
 298:Generated_Source\PSoC6\pdl\drivers\peripheral\gpio/cy_gpio.h **** #define CY_GPIO_IS_VOH_SEL_VALID(vrefSel)      ((CY_SIO_VOH_1_00       == (vrefSel)) || \
 299:Generated_Source\PSoC6\pdl\drivers\peripheral\gpio/cy_gpio.h ****                                                 (CY_SIO_VOH_1_25       == (vrefSel)) || \
 300:Generated_Source\PSoC6\pdl\drivers\peripheral\gpio/cy_gpio.h ****                                                 (CY_SIO_VOH_1_49       == (vrefSel)) || \
 301:Generated_Source\PSoC6\pdl\drivers\peripheral\gpio/cy_gpio.h ****                                                 (CY_SIO_VOH_1_67       == (vrefSel)) || \
 302:Generated_Source\PSoC6\pdl\drivers\peripheral\gpio/cy_gpio.h ****                                                 (CY_SIO_VOH_2_08       == (vrefSel)) || \
 303:Generated_Source\PSoC6\pdl\drivers\peripheral\gpio/cy_gpio.h ****                                                 (CY_SIO_VOH_2_50       == (vrefSel)) || \
ARM GAS  C:\Users\ikomb\AppData\Local\Temp\ccAzoKUN.s 			page 7


 304:Generated_Source\PSoC6\pdl\drivers\peripheral\gpio/cy_gpio.h ****                                                 (CY_SIO_VOH_2_78       == (vrefSel)) || \
 305:Generated_Source\PSoC6\pdl\drivers\peripheral\gpio/cy_gpio.h ****                                                 (CY_SIO_VOH_4_16       == (vrefSel)))
 306:Generated_Source\PSoC6\pdl\drivers\peripheral\gpio/cy_gpio.h ****                    
 307:Generated_Source\PSoC6\pdl\drivers\peripheral\gpio/cy_gpio.h **** #define CY_GPIO_IS_PIN_BIT_VALID(pinBit)       (0U == ((pinBit) & (uint32_t)~CY_GPIO_PRT_PINS_MASK)
 308:Generated_Source\PSoC6\pdl\drivers\peripheral\gpio/cy_gpio.h **** #define CY_GPIO_IS_INTR_CFG_VALID(intrCfg)     (0U == ((intrCfg) & (uint32_t)~CY_GPIO_PRT_INTR_CFG_
 309:Generated_Source\PSoC6\pdl\drivers\peripheral\gpio/cy_gpio.h **** #define CY_GPIO_IS_INTR_MASK_VALID(intrMask)   (0U == ((intrMask) & (uint32_t)~CY_GPIO_PRT_INT_MASK
 310:Generated_Source\PSoC6\pdl\drivers\peripheral\gpio/cy_gpio.h **** #define CY_GPIO_IS_SEL_ACT_VALID(selActive)    (0U == ((selActive) & (uint32_t)~CY_GPIO_PRT_SEL_ACT
 311:Generated_Source\PSoC6\pdl\drivers\peripheral\gpio/cy_gpio.h **** 
 312:Generated_Source\PSoC6\pdl\drivers\peripheral\gpio/cy_gpio.h **** /** \endcond */
 313:Generated_Source\PSoC6\pdl\drivers\peripheral\gpio/cy_gpio.h **** 
 314:Generated_Source\PSoC6\pdl\drivers\peripheral\gpio/cy_gpio.h **** 
 315:Generated_Source\PSoC6\pdl\drivers\peripheral\gpio/cy_gpio.h **** /***************************************
 316:Generated_Source\PSoC6\pdl\drivers\peripheral\gpio/cy_gpio.h **** *        Function Constants
 317:Generated_Source\PSoC6\pdl\drivers\peripheral\gpio/cy_gpio.h **** ***************************************/
 318:Generated_Source\PSoC6\pdl\drivers\peripheral\gpio/cy_gpio.h **** 
 319:Generated_Source\PSoC6\pdl\drivers\peripheral\gpio/cy_gpio.h **** /**
 320:Generated_Source\PSoC6\pdl\drivers\peripheral\gpio/cy_gpio.h **** * \addtogroup group_gpio_macros
 321:Generated_Source\PSoC6\pdl\drivers\peripheral\gpio/cy_gpio.h **** * \{
 322:Generated_Source\PSoC6\pdl\drivers\peripheral\gpio/cy_gpio.h **** */
 323:Generated_Source\PSoC6\pdl\drivers\peripheral\gpio/cy_gpio.h **** 
 324:Generated_Source\PSoC6\pdl\drivers\peripheral\gpio/cy_gpio.h **** /**
 325:Generated_Source\PSoC6\pdl\drivers\peripheral\gpio/cy_gpio.h **** * \defgroup group_gpio_driveModes Pin drive mode
 326:Generated_Source\PSoC6\pdl\drivers\peripheral\gpio/cy_gpio.h **** * \{
 327:Generated_Source\PSoC6\pdl\drivers\peripheral\gpio/cy_gpio.h **** * Constants to be used for setting the drive mode of the pin.
 328:Generated_Source\PSoC6\pdl\drivers\peripheral\gpio/cy_gpio.h **** */
 329:Generated_Source\PSoC6\pdl\drivers\peripheral\gpio/cy_gpio.h **** #define CY_GPIO_DM_ANALOG                      (0x00UL) /**< \brief Analog High-Z. Input buffer off
 330:Generated_Source\PSoC6\pdl\drivers\peripheral\gpio/cy_gpio.h **** #define CY_GPIO_DM_PULLUP_IN_OFF               (0x02UL) /**< \brief Resistive Pull-Up. Input buffer
 331:Generated_Source\PSoC6\pdl\drivers\peripheral\gpio/cy_gpio.h **** #define CY_GPIO_DM_PULLDOWN_IN_OFF             (0x03UL) /**< \brief Resistive Pull-Down. Input buff
 332:Generated_Source\PSoC6\pdl\drivers\peripheral\gpio/cy_gpio.h **** #define CY_GPIO_DM_OD_DRIVESLOW_IN_OFF         (0x04UL) /**< \brief Open Drain, Drives Low. Input b
 333:Generated_Source\PSoC6\pdl\drivers\peripheral\gpio/cy_gpio.h **** #define CY_GPIO_DM_OD_DRIVESHIGH_IN_OFF        (0x05UL) /**< \brief Open Drain, Drives High. Input 
 334:Generated_Source\PSoC6\pdl\drivers\peripheral\gpio/cy_gpio.h **** #define CY_GPIO_DM_STRONG_IN_OFF               (0x06UL) /**< \brief Strong Drive. Input buffer off 
 335:Generated_Source\PSoC6\pdl\drivers\peripheral\gpio/cy_gpio.h **** #define CY_GPIO_DM_PULLUP_DOWN_IN_OFF          (0x07UL) /**< \brief Resistive Pull-Up/Down. Input b
 336:Generated_Source\PSoC6\pdl\drivers\peripheral\gpio/cy_gpio.h **** #define CY_GPIO_DM_HIGHZ                       (0x08UL) /**< \brief Digital High-Z. Input buffer on
 337:Generated_Source\PSoC6\pdl\drivers\peripheral\gpio/cy_gpio.h **** #define CY_GPIO_DM_PULLUP                      (0x0AUL) /**< \brief Resistive Pull-Up. Input buffer
 338:Generated_Source\PSoC6\pdl\drivers\peripheral\gpio/cy_gpio.h **** #define CY_GPIO_DM_PULLDOWN                    (0x0BUL) /**< \brief Resistive Pull-Down. Input buff
 339:Generated_Source\PSoC6\pdl\drivers\peripheral\gpio/cy_gpio.h **** #define CY_GPIO_DM_OD_DRIVESLOW                (0x0CUL) /**< \brief Open Drain, Drives Low. Input b
 340:Generated_Source\PSoC6\pdl\drivers\peripheral\gpio/cy_gpio.h **** #define CY_GPIO_DM_OD_DRIVESHIGH               (0x0DUL) /**< \brief Open Drain, Drives High. Input 
 341:Generated_Source\PSoC6\pdl\drivers\peripheral\gpio/cy_gpio.h **** #define CY_GPIO_DM_STRONG                      (0x0EUL) /**< \brief Strong Drive. Input buffer on *
 342:Generated_Source\PSoC6\pdl\drivers\peripheral\gpio/cy_gpio.h **** #define CY_GPIO_DM_PULLUP_DOWN                 (0x0FUL) /**< \brief Resistive Pull-Up/Down. Input b
 343:Generated_Source\PSoC6\pdl\drivers\peripheral\gpio/cy_gpio.h **** /** \} */
 344:Generated_Source\PSoC6\pdl\drivers\peripheral\gpio/cy_gpio.h **** 
 345:Generated_Source\PSoC6\pdl\drivers\peripheral\gpio/cy_gpio.h **** /**
 346:Generated_Source\PSoC6\pdl\drivers\peripheral\gpio/cy_gpio.h **** * \defgroup group_gpio_vtrip Voltage trip mode
 347:Generated_Source\PSoC6\pdl\drivers\peripheral\gpio/cy_gpio.h **** * \{
 348:Generated_Source\PSoC6\pdl\drivers\peripheral\gpio/cy_gpio.h **** * Constants to be used for setting the voltage trip type on the pin.
 349:Generated_Source\PSoC6\pdl\drivers\peripheral\gpio/cy_gpio.h **** */
 350:Generated_Source\PSoC6\pdl\drivers\peripheral\gpio/cy_gpio.h **** #define CY_GPIO_VTRIP_CMOS                     (0x00UL) /**< \brief Input buffer compatible with CM
 351:Generated_Source\PSoC6\pdl\drivers\peripheral\gpio/cy_gpio.h **** #define CY_GPIO_VTRIP_TTL                      (0x01UL) /**< \brief Input buffer compatible with TT
 352:Generated_Source\PSoC6\pdl\drivers\peripheral\gpio/cy_gpio.h **** /** \} */
 353:Generated_Source\PSoC6\pdl\drivers\peripheral\gpio/cy_gpio.h **** 
 354:Generated_Source\PSoC6\pdl\drivers\peripheral\gpio/cy_gpio.h **** /**
 355:Generated_Source\PSoC6\pdl\drivers\peripheral\gpio/cy_gpio.h **** * \defgroup group_gpio_slewRate Slew Rate Mode
 356:Generated_Source\PSoC6\pdl\drivers\peripheral\gpio/cy_gpio.h **** * \{
 357:Generated_Source\PSoC6\pdl\drivers\peripheral\gpio/cy_gpio.h **** * Constants to be used for setting the slew rate of the pin.
 358:Generated_Source\PSoC6\pdl\drivers\peripheral\gpio/cy_gpio.h **** */
 359:Generated_Source\PSoC6\pdl\drivers\peripheral\gpio/cy_gpio.h **** #define CY_GPIO_SLEW_FAST                      (0x00UL) /**< \brief Fast slew rate */
 360:Generated_Source\PSoC6\pdl\drivers\peripheral\gpio/cy_gpio.h **** #define CY_GPIO_SLEW_SLOW                      (0x01UL) /**< \brief Slow slew rate */
ARM GAS  C:\Users\ikomb\AppData\Local\Temp\ccAzoKUN.s 			page 8


 361:Generated_Source\PSoC6\pdl\drivers\peripheral\gpio/cy_gpio.h **** /** \} */
 362:Generated_Source\PSoC6\pdl\drivers\peripheral\gpio/cy_gpio.h **** 
 363:Generated_Source\PSoC6\pdl\drivers\peripheral\gpio/cy_gpio.h **** /**
 364:Generated_Source\PSoC6\pdl\drivers\peripheral\gpio/cy_gpio.h **** * \defgroup group_gpio_driveStrength Pin drive strength
 365:Generated_Source\PSoC6\pdl\drivers\peripheral\gpio/cy_gpio.h **** * \{
 366:Generated_Source\PSoC6\pdl\drivers\peripheral\gpio/cy_gpio.h **** * Constants to be used for setting the drive strength of the pin.
 367:Generated_Source\PSoC6\pdl\drivers\peripheral\gpio/cy_gpio.h **** */
 368:Generated_Source\PSoC6\pdl\drivers\peripheral\gpio/cy_gpio.h **** #define CY_GPIO_DRIVE_FULL                     (0x00UL) /**< \brief Full drive strength: Max drive 
 369:Generated_Source\PSoC6\pdl\drivers\peripheral\gpio/cy_gpio.h **** #define CY_GPIO_DRIVE_1_2                      (0x01UL) /**< \brief 1/2 drive strength: 1/2 drive c
 370:Generated_Source\PSoC6\pdl\drivers\peripheral\gpio/cy_gpio.h **** #define CY_GPIO_DRIVE_1_4                      (0x02UL) /**< \brief 1/4 drive strength: 1/4 drive c
 371:Generated_Source\PSoC6\pdl\drivers\peripheral\gpio/cy_gpio.h **** #define CY_GPIO_DRIVE_1_8                      (0x03UL) /**< \brief 1/8 drive strength: 1/8 drive c
 372:Generated_Source\PSoC6\pdl\drivers\peripheral\gpio/cy_gpio.h **** /** \} */
 373:Generated_Source\PSoC6\pdl\drivers\peripheral\gpio/cy_gpio.h **** 
 374:Generated_Source\PSoC6\pdl\drivers\peripheral\gpio/cy_gpio.h **** /**
 375:Generated_Source\PSoC6\pdl\drivers\peripheral\gpio/cy_gpio.h **** * \defgroup group_gpio_interruptTrigger Interrupt trigger type
 376:Generated_Source\PSoC6\pdl\drivers\peripheral\gpio/cy_gpio.h **** * \{
 377:Generated_Source\PSoC6\pdl\drivers\peripheral\gpio/cy_gpio.h **** * Constants to be used for setting the interrupt trigger type on the pin.
 378:Generated_Source\PSoC6\pdl\drivers\peripheral\gpio/cy_gpio.h **** */
 379:Generated_Source\PSoC6\pdl\drivers\peripheral\gpio/cy_gpio.h **** #define CY_GPIO_INTR_DISABLE                   (0x00UL) /**< \brief Disable the pin interrupt gener
 380:Generated_Source\PSoC6\pdl\drivers\peripheral\gpio/cy_gpio.h **** #define CY_GPIO_INTR_RISING                    (0x01UL) /**< \brief Rising-Edge interrupt */
 381:Generated_Source\PSoC6\pdl\drivers\peripheral\gpio/cy_gpio.h **** #define CY_GPIO_INTR_FALLING                   (0x02UL) /**< \brief Falling-Edge interrupt */
 382:Generated_Source\PSoC6\pdl\drivers\peripheral\gpio/cy_gpio.h **** #define CY_GPIO_INTR_BOTH                      (0x03UL) /**< \brief Both-Edge interrupt */
 383:Generated_Source\PSoC6\pdl\drivers\peripheral\gpio/cy_gpio.h **** /** \} */
 384:Generated_Source\PSoC6\pdl\drivers\peripheral\gpio/cy_gpio.h **** 
 385:Generated_Source\PSoC6\pdl\drivers\peripheral\gpio/cy_gpio.h **** /**
 386:Generated_Source\PSoC6\pdl\drivers\peripheral\gpio/cy_gpio.h **** * \defgroup group_gpio_sioVreg SIO output buffer mode
 387:Generated_Source\PSoC6\pdl\drivers\peripheral\gpio/cy_gpio.h **** * \{
 388:Generated_Source\PSoC6\pdl\drivers\peripheral\gpio/cy_gpio.h **** * Constants to be used for setting the SIO output buffer mode on the pin.
 389:Generated_Source\PSoC6\pdl\drivers\peripheral\gpio/cy_gpio.h **** */
 390:Generated_Source\PSoC6\pdl\drivers\peripheral\gpio/cy_gpio.h **** #define CY_SIO_VREG_UNREGULATED                (0x00UL) /**< \brief Unregulated output buffer */
 391:Generated_Source\PSoC6\pdl\drivers\peripheral\gpio/cy_gpio.h **** #define CY_SIO_VREG_REGULATED                  (0x01UL) /**< \brief Regulated output buffer */
 392:Generated_Source\PSoC6\pdl\drivers\peripheral\gpio/cy_gpio.h **** /** \} */
 393:Generated_Source\PSoC6\pdl\drivers\peripheral\gpio/cy_gpio.h **** 
 394:Generated_Source\PSoC6\pdl\drivers\peripheral\gpio/cy_gpio.h **** /**
 395:Generated_Source\PSoC6\pdl\drivers\peripheral\gpio/cy_gpio.h **** * \defgroup group_gpio_sioIbuf SIO input buffer mode
 396:Generated_Source\PSoC6\pdl\drivers\peripheral\gpio/cy_gpio.h **** * \{
 397:Generated_Source\PSoC6\pdl\drivers\peripheral\gpio/cy_gpio.h **** * Constants to be used for setting the SIO input buffer mode on the pin.
 398:Generated_Source\PSoC6\pdl\drivers\peripheral\gpio/cy_gpio.h **** */
 399:Generated_Source\PSoC6\pdl\drivers\peripheral\gpio/cy_gpio.h **** #define CY_SIO_IBUF_SINGLEENDED                (0x00UL) /**< \brief Single ended input buffer */
 400:Generated_Source\PSoC6\pdl\drivers\peripheral\gpio/cy_gpio.h **** #define CY_SIO_IBUF_DIFFERENTIAL               (0x01UL) /**< \brief Differential input buffer */
 401:Generated_Source\PSoC6\pdl\drivers\peripheral\gpio/cy_gpio.h **** /** \} */
 402:Generated_Source\PSoC6\pdl\drivers\peripheral\gpio/cy_gpio.h **** 
 403:Generated_Source\PSoC6\pdl\drivers\peripheral\gpio/cy_gpio.h **** /**
 404:Generated_Source\PSoC6\pdl\drivers\peripheral\gpio/cy_gpio.h **** * \defgroup group_gpio_sioVtrip SIO input buffer trip-point
 405:Generated_Source\PSoC6\pdl\drivers\peripheral\gpio/cy_gpio.h **** * \{
 406:Generated_Source\PSoC6\pdl\drivers\peripheral\gpio/cy_gpio.h **** * Constants to be used for setting the SIO input buffer trip-point of the pin.
 407:Generated_Source\PSoC6\pdl\drivers\peripheral\gpio/cy_gpio.h **** */
 408:Generated_Source\PSoC6\pdl\drivers\peripheral\gpio/cy_gpio.h **** #define CY_SIO_VTRIP_CMOS                      (0x00UL) /**< \brief CMOS input buffer (single-ended
 409:Generated_Source\PSoC6\pdl\drivers\peripheral\gpio/cy_gpio.h **** #define CY_SIO_VTRIP_TTL                       (0x01UL) /**< \brief TTL input buffer (single-ended)
 410:Generated_Source\PSoC6\pdl\drivers\peripheral\gpio/cy_gpio.h **** #define CY_SIO_VTRIP_0_5VDDIO_0_5VOH           (0x00UL) /**< \brief 0.5xVddio or 0.5xVoh (different
 411:Generated_Source\PSoC6\pdl\drivers\peripheral\gpio/cy_gpio.h **** #define CY_SIO_VTRIP_0_4VDDIO_1_0VREF          (0x01UL) /**< \brief 0.4xVddio or 0.4xVoh (different
 412:Generated_Source\PSoC6\pdl\drivers\peripheral\gpio/cy_gpio.h **** /** \} */
 413:Generated_Source\PSoC6\pdl\drivers\peripheral\gpio/cy_gpio.h **** 
 414:Generated_Source\PSoC6\pdl\drivers\peripheral\gpio/cy_gpio.h **** /**
 415:Generated_Source\PSoC6\pdl\drivers\peripheral\gpio/cy_gpio.h **** * \defgroup group_gpio_sioVref SIO reference voltage for input buffer trip-point
 416:Generated_Source\PSoC6\pdl\drivers\peripheral\gpio/cy_gpio.h **** * \{
 417:Generated_Source\PSoC6\pdl\drivers\peripheral\gpio/cy_gpio.h **** * Constants to be used for setting the reference voltage of SIO input buffer trip-point.
ARM GAS  C:\Users\ikomb\AppData\Local\Temp\ccAzoKUN.s 			page 9


 418:Generated_Source\PSoC6\pdl\drivers\peripheral\gpio/cy_gpio.h **** */
 419:Generated_Source\PSoC6\pdl\drivers\peripheral\gpio/cy_gpio.h **** #define CY_SIO_VREF_PINREF                     (0x00UL) /**< \brief Vref from analog pin */
 420:Generated_Source\PSoC6\pdl\drivers\peripheral\gpio/cy_gpio.h **** #define CY_SIO_VREF_1_2V                       (0x01UL) /**< \brief Vref from internal 1.2V referen
 421:Generated_Source\PSoC6\pdl\drivers\peripheral\gpio/cy_gpio.h **** #define CY_SIO_VREF_AMUX_A                     (0x02UL) /**< \brief Vref from AMUXBUS_A */
 422:Generated_Source\PSoC6\pdl\drivers\peripheral\gpio/cy_gpio.h **** #define CY_SIO_VREF_AMUX_B                     (0x03UL) /**< \brief Vref from AMUXBUS_B */
 423:Generated_Source\PSoC6\pdl\drivers\peripheral\gpio/cy_gpio.h **** /** \} */
 424:Generated_Source\PSoC6\pdl\drivers\peripheral\gpio/cy_gpio.h **** 
 425:Generated_Source\PSoC6\pdl\drivers\peripheral\gpio/cy_gpio.h **** /**
 426:Generated_Source\PSoC6\pdl\drivers\peripheral\gpio/cy_gpio.h **** * \defgroup group_gpio_sioVoh Regulated output voltage level (Voh) and input buffer trip-point of a
 427:Generated_Source\PSoC6\pdl\drivers\peripheral\gpio/cy_gpio.h **** * \{
 428:Generated_Source\PSoC6\pdl\drivers\peripheral\gpio/cy_gpio.h **** * Constants to be used for setting the Voh and input buffer trip-point of an SIO pair
 429:Generated_Source\PSoC6\pdl\drivers\peripheral\gpio/cy_gpio.h **** */
 430:Generated_Source\PSoC6\pdl\drivers\peripheral\gpio/cy_gpio.h **** #define CY_SIO_VOH_1_00                        (0x00UL) /**< \brief Voh = 1 x Reference */
 431:Generated_Source\PSoC6\pdl\drivers\peripheral\gpio/cy_gpio.h **** #define CY_SIO_VOH_1_25                        (0x01UL) /**< \brief Voh = 1.25 x Reference */
 432:Generated_Source\PSoC6\pdl\drivers\peripheral\gpio/cy_gpio.h **** #define CY_SIO_VOH_1_49                        (0x02UL) /**< \brief Voh = 1.49 x Reference */
 433:Generated_Source\PSoC6\pdl\drivers\peripheral\gpio/cy_gpio.h **** #define CY_SIO_VOH_1_67                        (0x03UL) /**< \brief Voh = 1.67 x Reference */
 434:Generated_Source\PSoC6\pdl\drivers\peripheral\gpio/cy_gpio.h **** #define CY_SIO_VOH_2_08                        (0x04UL) /**< \brief Voh = 2.08 x Reference */
 435:Generated_Source\PSoC6\pdl\drivers\peripheral\gpio/cy_gpio.h **** #define CY_SIO_VOH_2_50                        (0x05UL) /**< \brief Voh = 2.50 x Reference */
 436:Generated_Source\PSoC6\pdl\drivers\peripheral\gpio/cy_gpio.h **** #define CY_SIO_VOH_2_78                        (0x06UL) /**< \brief Voh = 2.78 x Reference */
 437:Generated_Source\PSoC6\pdl\drivers\peripheral\gpio/cy_gpio.h **** #define CY_SIO_VOH_4_16                        (0x07UL) /**< \brief Voh = 4.16 x Reference */
 438:Generated_Source\PSoC6\pdl\drivers\peripheral\gpio/cy_gpio.h **** /** \} */
 439:Generated_Source\PSoC6\pdl\drivers\peripheral\gpio/cy_gpio.h **** 
 440:Generated_Source\PSoC6\pdl\drivers\peripheral\gpio/cy_gpio.h **** /** \} group_gpio_macros */
 441:Generated_Source\PSoC6\pdl\drivers\peripheral\gpio/cy_gpio.h **** 
 442:Generated_Source\PSoC6\pdl\drivers\peripheral\gpio/cy_gpio.h **** /***************************************
 443:Generated_Source\PSoC6\pdl\drivers\peripheral\gpio/cy_gpio.h **** *        Function Prototypes
 444:Generated_Source\PSoC6\pdl\drivers\peripheral\gpio/cy_gpio.h **** ***************************************/
 445:Generated_Source\PSoC6\pdl\drivers\peripheral\gpio/cy_gpio.h **** 
 446:Generated_Source\PSoC6\pdl\drivers\peripheral\gpio/cy_gpio.h **** /**
 447:Generated_Source\PSoC6\pdl\drivers\peripheral\gpio/cy_gpio.h **** * \addtogroup group_gpio_functions
 448:Generated_Source\PSoC6\pdl\drivers\peripheral\gpio/cy_gpio.h **** * \{
 449:Generated_Source\PSoC6\pdl\drivers\peripheral\gpio/cy_gpio.h **** */
 450:Generated_Source\PSoC6\pdl\drivers\peripheral\gpio/cy_gpio.h **** 
 451:Generated_Source\PSoC6\pdl\drivers\peripheral\gpio/cy_gpio.h **** /**
 452:Generated_Source\PSoC6\pdl\drivers\peripheral\gpio/cy_gpio.h **** * \addtogroup group_gpio_functions_init
 453:Generated_Source\PSoC6\pdl\drivers\peripheral\gpio/cy_gpio.h **** * \{
 454:Generated_Source\PSoC6\pdl\drivers\peripheral\gpio/cy_gpio.h **** */
 455:Generated_Source\PSoC6\pdl\drivers\peripheral\gpio/cy_gpio.h **** 
 456:Generated_Source\PSoC6\pdl\drivers\peripheral\gpio/cy_gpio.h **** cy_en_gpio_status_t Cy_GPIO_Pin_Init(GPIO_PRT_Type* base, uint32_t pinNum, const cy_stc_gpio_pin_co
 457:Generated_Source\PSoC6\pdl\drivers\peripheral\gpio/cy_gpio.h **** cy_en_gpio_status_t Cy_GPIO_Port_Init(GPIO_PRT_Type* base, const cy_stc_gpio_prt_config_t *config);
 458:Generated_Source\PSoC6\pdl\drivers\peripheral\gpio/cy_gpio.h **** void Cy_GPIO_Pin_FastInit(GPIO_PRT_Type* base, uint32_t pinNum, uint32_t driveMode, uint32_t outVal
 459:Generated_Source\PSoC6\pdl\drivers\peripheral\gpio/cy_gpio.h **** void Cy_GPIO_Port_Deinit(GPIO_PRT_Type* base);
 460:Generated_Source\PSoC6\pdl\drivers\peripheral\gpio/cy_gpio.h **** __STATIC_INLINE void Cy_GPIO_SetHSIOM(GPIO_PRT_Type* base, uint32_t pinNum, en_hsiom_sel_t value);
 461:Generated_Source\PSoC6\pdl\drivers\peripheral\gpio/cy_gpio.h **** __STATIC_INLINE en_hsiom_sel_t Cy_GPIO_GetHSIOM(GPIO_PRT_Type* base, uint32_t pinNum);
 462:Generated_Source\PSoC6\pdl\drivers\peripheral\gpio/cy_gpio.h **** __STATIC_INLINE GPIO_PRT_Type* Cy_GPIO_PortToAddr(uint32_t portNum);
 463:Generated_Source\PSoC6\pdl\drivers\peripheral\gpio/cy_gpio.h **** 
 464:Generated_Source\PSoC6\pdl\drivers\peripheral\gpio/cy_gpio.h **** /** \} group_gpio_functions_init */
 465:Generated_Source\PSoC6\pdl\drivers\peripheral\gpio/cy_gpio.h **** 
 466:Generated_Source\PSoC6\pdl\drivers\peripheral\gpio/cy_gpio.h **** /**
 467:Generated_Source\PSoC6\pdl\drivers\peripheral\gpio/cy_gpio.h **** * \addtogroup group_gpio_functions_gpio
 468:Generated_Source\PSoC6\pdl\drivers\peripheral\gpio/cy_gpio.h **** * \{
 469:Generated_Source\PSoC6\pdl\drivers\peripheral\gpio/cy_gpio.h **** */
 470:Generated_Source\PSoC6\pdl\drivers\peripheral\gpio/cy_gpio.h **** 
 471:Generated_Source\PSoC6\pdl\drivers\peripheral\gpio/cy_gpio.h **** __STATIC_INLINE uint32_t Cy_GPIO_Read(GPIO_PRT_Type* base, uint32_t pinNum);
 472:Generated_Source\PSoC6\pdl\drivers\peripheral\gpio/cy_gpio.h **** __STATIC_INLINE void Cy_GPIO_Write(GPIO_PRT_Type* base, uint32_t pinNum, uint32_t value);
 473:Generated_Source\PSoC6\pdl\drivers\peripheral\gpio/cy_gpio.h **** __STATIC_INLINE uint32_t Cy_GPIO_ReadOut(GPIO_PRT_Type* base, uint32_t pinNum);
 474:Generated_Source\PSoC6\pdl\drivers\peripheral\gpio/cy_gpio.h **** __STATIC_INLINE void Cy_GPIO_Set(GPIO_PRT_Type* base, uint32_t pinNum);
ARM GAS  C:\Users\ikomb\AppData\Local\Temp\ccAzoKUN.s 			page 10


 475:Generated_Source\PSoC6\pdl\drivers\peripheral\gpio/cy_gpio.h **** __STATIC_INLINE void Cy_GPIO_Clr(GPIO_PRT_Type* base, uint32_t pinNum);
 476:Generated_Source\PSoC6\pdl\drivers\peripheral\gpio/cy_gpio.h **** __STATIC_INLINE void Cy_GPIO_Inv(GPIO_PRT_Type* base, uint32_t pinNum);
 477:Generated_Source\PSoC6\pdl\drivers\peripheral\gpio/cy_gpio.h **** __STATIC_INLINE void Cy_GPIO_SetDrivemode(GPIO_PRT_Type* base, uint32_t pinNum, uint32_t value);
 478:Generated_Source\PSoC6\pdl\drivers\peripheral\gpio/cy_gpio.h **** __STATIC_INLINE uint32_t Cy_GPIO_GetDrivemode(GPIO_PRT_Type* base, uint32_t pinNum);
 479:Generated_Source\PSoC6\pdl\drivers\peripheral\gpio/cy_gpio.h **** __STATIC_INLINE void Cy_GPIO_SetVtrip(GPIO_PRT_Type* base, uint32_t pinNum, uint32_t value);
 480:Generated_Source\PSoC6\pdl\drivers\peripheral\gpio/cy_gpio.h **** __STATIC_INLINE uint32_t Cy_GPIO_GetVtrip(GPIO_PRT_Type* base, uint32_t pinNum);
 481:Generated_Source\PSoC6\pdl\drivers\peripheral\gpio/cy_gpio.h **** __STATIC_INLINE void Cy_GPIO_SetSlewRate(GPIO_PRT_Type* base, uint32_t pinNum, uint32_t value);
 482:Generated_Source\PSoC6\pdl\drivers\peripheral\gpio/cy_gpio.h **** __STATIC_INLINE uint32_t Cy_GPIO_GetSlewRate(GPIO_PRT_Type* base, uint32_t pinNum);
 483:Generated_Source\PSoC6\pdl\drivers\peripheral\gpio/cy_gpio.h **** __STATIC_INLINE void Cy_GPIO_SetDriveSel(GPIO_PRT_Type* base, uint32_t pinNum, uint32_t value);
 484:Generated_Source\PSoC6\pdl\drivers\peripheral\gpio/cy_gpio.h **** __STATIC_INLINE uint32_t Cy_GPIO_GetDriveSel(GPIO_PRT_Type* base, uint32_t pinNum);
 485:Generated_Source\PSoC6\pdl\drivers\peripheral\gpio/cy_gpio.h **** 
 486:Generated_Source\PSoC6\pdl\drivers\peripheral\gpio/cy_gpio.h **** /** \} group_gpio_functions_gpio */
 487:Generated_Source\PSoC6\pdl\drivers\peripheral\gpio/cy_gpio.h **** 
 488:Generated_Source\PSoC6\pdl\drivers\peripheral\gpio/cy_gpio.h **** /**
 489:Generated_Source\PSoC6\pdl\drivers\peripheral\gpio/cy_gpio.h **** * \addtogroup group_gpio_functions_sio
 490:Generated_Source\PSoC6\pdl\drivers\peripheral\gpio/cy_gpio.h **** * \{
 491:Generated_Source\PSoC6\pdl\drivers\peripheral\gpio/cy_gpio.h **** */
 492:Generated_Source\PSoC6\pdl\drivers\peripheral\gpio/cy_gpio.h **** 
 493:Generated_Source\PSoC6\pdl\drivers\peripheral\gpio/cy_gpio.h **** __STATIC_INLINE void Cy_GPIO_SetVregEn(GPIO_PRT_Type* base, uint32_t pinNum, uint32_t value);
 494:Generated_Source\PSoC6\pdl\drivers\peripheral\gpio/cy_gpio.h **** __STATIC_INLINE uint32_t Cy_GPIO_GetVregEn(GPIO_PRT_Type* base, uint32_t pinNum);
 495:Generated_Source\PSoC6\pdl\drivers\peripheral\gpio/cy_gpio.h **** __STATIC_INLINE void Cy_GPIO_SetIbufMode(GPIO_PRT_Type* base, uint32_t pinNum, uint32_t value);
 496:Generated_Source\PSoC6\pdl\drivers\peripheral\gpio/cy_gpio.h **** __STATIC_INLINE uint32_t Cy_GPIO_GetIbufMode(GPIO_PRT_Type* base, uint32_t pinNum);
 497:Generated_Source\PSoC6\pdl\drivers\peripheral\gpio/cy_gpio.h **** __STATIC_INLINE void Cy_GPIO_SetVtripSel(GPIO_PRT_Type* base, uint32_t pinNum, uint32_t value);
 498:Generated_Source\PSoC6\pdl\drivers\peripheral\gpio/cy_gpio.h **** __STATIC_INLINE uint32_t Cy_GPIO_GetVtripSel(GPIO_PRT_Type* base, uint32_t pinNum);
 499:Generated_Source\PSoC6\pdl\drivers\peripheral\gpio/cy_gpio.h **** __STATIC_INLINE void Cy_GPIO_SetVrefSel(GPIO_PRT_Type* base, uint32_t pinNum, uint32_t value);
 500:Generated_Source\PSoC6\pdl\drivers\peripheral\gpio/cy_gpio.h **** __STATIC_INLINE uint32_t Cy_GPIO_GetVrefSel(GPIO_PRT_Type* base, uint32_t pinNum);
 501:Generated_Source\PSoC6\pdl\drivers\peripheral\gpio/cy_gpio.h **** __STATIC_INLINE void Cy_GPIO_SetVohSel(GPIO_PRT_Type* base, uint32_t pinNum, uint32_t value);
 502:Generated_Source\PSoC6\pdl\drivers\peripheral\gpio/cy_gpio.h **** __STATIC_INLINE uint32_t Cy_GPIO_GetVohSel(GPIO_PRT_Type* base, uint32_t pinNum);
 503:Generated_Source\PSoC6\pdl\drivers\peripheral\gpio/cy_gpio.h **** 
 504:Generated_Source\PSoC6\pdl\drivers\peripheral\gpio/cy_gpio.h **** /** \} group_gpio_functions_sio */
 505:Generated_Source\PSoC6\pdl\drivers\peripheral\gpio/cy_gpio.h **** 
 506:Generated_Source\PSoC6\pdl\drivers\peripheral\gpio/cy_gpio.h **** /**
 507:Generated_Source\PSoC6\pdl\drivers\peripheral\gpio/cy_gpio.h **** * \addtogroup group_gpio_functions_interrupt
 508:Generated_Source\PSoC6\pdl\drivers\peripheral\gpio/cy_gpio.h **** * \{
 509:Generated_Source\PSoC6\pdl\drivers\peripheral\gpio/cy_gpio.h **** */
 510:Generated_Source\PSoC6\pdl\drivers\peripheral\gpio/cy_gpio.h **** 
 511:Generated_Source\PSoC6\pdl\drivers\peripheral\gpio/cy_gpio.h **** __STATIC_INLINE uint32_t Cy_GPIO_GetInterruptStatus(GPIO_PRT_Type* base, uint32_t pinNum);
 512:Generated_Source\PSoC6\pdl\drivers\peripheral\gpio/cy_gpio.h **** __STATIC_INLINE void Cy_GPIO_ClearInterrupt(GPIO_PRT_Type* base, uint32_t pinNum);
 513:Generated_Source\PSoC6\pdl\drivers\peripheral\gpio/cy_gpio.h **** __STATIC_INLINE void Cy_GPIO_SetInterruptMask(GPIO_PRT_Type* base, uint32_t pinNum, uint32_t value)
 514:Generated_Source\PSoC6\pdl\drivers\peripheral\gpio/cy_gpio.h **** __STATIC_INLINE uint32_t Cy_GPIO_GetInterruptMask(GPIO_PRT_Type* base, uint32_t pinNum);
 515:Generated_Source\PSoC6\pdl\drivers\peripheral\gpio/cy_gpio.h **** __STATIC_INLINE uint32_t Cy_GPIO_GetInterruptStatusMasked(GPIO_PRT_Type* base, uint32_t pinNum);
 516:Generated_Source\PSoC6\pdl\drivers\peripheral\gpio/cy_gpio.h **** __STATIC_INLINE void Cy_GPIO_SetSwInterrupt(GPIO_PRT_Type* base, uint32_t pinNum);
 517:Generated_Source\PSoC6\pdl\drivers\peripheral\gpio/cy_gpio.h **** __STATIC_INLINE void Cy_GPIO_SetInterruptEdge(GPIO_PRT_Type* base, uint32_t pinNum, uint32_t value)
 518:Generated_Source\PSoC6\pdl\drivers\peripheral\gpio/cy_gpio.h **** __STATIC_INLINE uint32_t Cy_GPIO_GetInterruptEdge(GPIO_PRT_Type* base, uint32_t pinNum);
 519:Generated_Source\PSoC6\pdl\drivers\peripheral\gpio/cy_gpio.h **** __STATIC_INLINE void Cy_GPIO_SetFilter(GPIO_PRT_Type* base, uint32_t value);
 520:Generated_Source\PSoC6\pdl\drivers\peripheral\gpio/cy_gpio.h **** __STATIC_INLINE uint32_t Cy_GPIO_GetFilter(GPIO_PRT_Type* base);
 521:Generated_Source\PSoC6\pdl\drivers\peripheral\gpio/cy_gpio.h **** 
 522:Generated_Source\PSoC6\pdl\drivers\peripheral\gpio/cy_gpio.h **** #if (IOSS_GPIO_GPIO_PORT_NR_0_31 != 0) || defined (CY_DOXYGEN)
 523:Generated_Source\PSoC6\pdl\drivers\peripheral\gpio/cy_gpio.h **** __STATIC_INLINE uint32_t Cy_GPIO_GetInterruptCause0(void);
 524:Generated_Source\PSoC6\pdl\drivers\peripheral\gpio/cy_gpio.h **** #endif /* (IOSS_GPIO_GPIO_PORT_NR_0_31 != 0) */
 525:Generated_Source\PSoC6\pdl\drivers\peripheral\gpio/cy_gpio.h **** 
 526:Generated_Source\PSoC6\pdl\drivers\peripheral\gpio/cy_gpio.h **** #if (IOSS_GPIO_GPIO_PORT_NR_32_63 != 0) || defined (CY_DOXYGEN)
 527:Generated_Source\PSoC6\pdl\drivers\peripheral\gpio/cy_gpio.h **** __STATIC_INLINE uint32_t Cy_GPIO_GetInterruptCause1(void);
 528:Generated_Source\PSoC6\pdl\drivers\peripheral\gpio/cy_gpio.h **** #endif /* (IOSS_GPIO_GPIO_PORT_NR_32_63 != 0) */
 529:Generated_Source\PSoC6\pdl\drivers\peripheral\gpio/cy_gpio.h **** 
 530:Generated_Source\PSoC6\pdl\drivers\peripheral\gpio/cy_gpio.h **** #if (IOSS_GPIO_GPIO_PORT_NR_64_95 != 0) || defined (CY_DOXYGEN)
 531:Generated_Source\PSoC6\pdl\drivers\peripheral\gpio/cy_gpio.h **** __STATIC_INLINE uint32_t Cy_GPIO_GetInterruptCause2(void);
ARM GAS  C:\Users\ikomb\AppData\Local\Temp\ccAzoKUN.s 			page 11


 532:Generated_Source\PSoC6\pdl\drivers\peripheral\gpio/cy_gpio.h **** #endif /* (IOSS_GPIO_GPIO_PORT_NR_64_95 != 0) */
 533:Generated_Source\PSoC6\pdl\drivers\peripheral\gpio/cy_gpio.h **** 
 534:Generated_Source\PSoC6\pdl\drivers\peripheral\gpio/cy_gpio.h **** #if (IOSS_GPIO_GPIO_PORT_NR_96_127 != 0) || defined (CY_DOXYGEN)
 535:Generated_Source\PSoC6\pdl\drivers\peripheral\gpio/cy_gpio.h **** __STATIC_INLINE uint32_t Cy_GPIO_GetInterruptCause3(void);
 536:Generated_Source\PSoC6\pdl\drivers\peripheral\gpio/cy_gpio.h **** #endif /* (IOSS_GPIO_GPIO_PORT_NR_96_127 != 0) */
 537:Generated_Source\PSoC6\pdl\drivers\peripheral\gpio/cy_gpio.h **** 
 538:Generated_Source\PSoC6\pdl\drivers\peripheral\gpio/cy_gpio.h **** /** \} group_gpio_functions_interrupt */
 539:Generated_Source\PSoC6\pdl\drivers\peripheral\gpio/cy_gpio.h **** 
 540:Generated_Source\PSoC6\pdl\drivers\peripheral\gpio/cy_gpio.h **** 
 541:Generated_Source\PSoC6\pdl\drivers\peripheral\gpio/cy_gpio.h **** /**
 542:Generated_Source\PSoC6\pdl\drivers\peripheral\gpio/cy_gpio.h **** * \addtogroup group_gpio_functions_init
 543:Generated_Source\PSoC6\pdl\drivers\peripheral\gpio/cy_gpio.h **** * \{
 544:Generated_Source\PSoC6\pdl\drivers\peripheral\gpio/cy_gpio.h **** */
 545:Generated_Source\PSoC6\pdl\drivers\peripheral\gpio/cy_gpio.h **** 
 546:Generated_Source\PSoC6\pdl\drivers\peripheral\gpio/cy_gpio.h **** /*******************************************************************************
 547:Generated_Source\PSoC6\pdl\drivers\peripheral\gpio/cy_gpio.h **** * Function Name: Cy_GPIO_SetHSIOM
 548:Generated_Source\PSoC6\pdl\drivers\peripheral\gpio/cy_gpio.h **** ****************************************************************************//**
 549:Generated_Source\PSoC6\pdl\drivers\peripheral\gpio/cy_gpio.h **** *
 550:Generated_Source\PSoC6\pdl\drivers\peripheral\gpio/cy_gpio.h **** * \brief Configures the HSIOM connection to the pin.
 551:Generated_Source\PSoC6\pdl\drivers\peripheral\gpio/cy_gpio.h **** *
 552:Generated_Source\PSoC6\pdl\drivers\peripheral\gpio/cy_gpio.h **** * Connects the specified High-Speed Input Output Multiplexer (HSIOM) selection
 553:Generated_Source\PSoC6\pdl\drivers\peripheral\gpio/cy_gpio.h **** * to the pin.
 554:Generated_Source\PSoC6\pdl\drivers\peripheral\gpio/cy_gpio.h **** *
 555:Generated_Source\PSoC6\pdl\drivers\peripheral\gpio/cy_gpio.h **** * \param base
 556:Generated_Source\PSoC6\pdl\drivers\peripheral\gpio/cy_gpio.h **** * Pointer to the pin's port register base address
 557:Generated_Source\PSoC6\pdl\drivers\peripheral\gpio/cy_gpio.h **** *
 558:Generated_Source\PSoC6\pdl\drivers\peripheral\gpio/cy_gpio.h **** * \param pinNum
 559:Generated_Source\PSoC6\pdl\drivers\peripheral\gpio/cy_gpio.h **** * Position of the pin bit-field within the port register
 560:Generated_Source\PSoC6\pdl\drivers\peripheral\gpio/cy_gpio.h **** *
 561:Generated_Source\PSoC6\pdl\drivers\peripheral\gpio/cy_gpio.h **** * \param value
 562:Generated_Source\PSoC6\pdl\drivers\peripheral\gpio/cy_gpio.h **** * HSIOM input selection
 563:Generated_Source\PSoC6\pdl\drivers\peripheral\gpio/cy_gpio.h **** *
 564:Generated_Source\PSoC6\pdl\drivers\peripheral\gpio/cy_gpio.h **** * \return
 565:Generated_Source\PSoC6\pdl\drivers\peripheral\gpio/cy_gpio.h **** * void
 566:Generated_Source\PSoC6\pdl\drivers\peripheral\gpio/cy_gpio.h **** *
 567:Generated_Source\PSoC6\pdl\drivers\peripheral\gpio/cy_gpio.h **** * \note 
 568:Generated_Source\PSoC6\pdl\drivers\peripheral\gpio/cy_gpio.h **** * This function modifies a port register in a read-modify-write operation. It is
 569:Generated_Source\PSoC6\pdl\drivers\peripheral\gpio/cy_gpio.h **** * not thread safe as the resource is shared among multiple pins on a port.
 570:Generated_Source\PSoC6\pdl\drivers\peripheral\gpio/cy_gpio.h **** *
 571:Generated_Source\PSoC6\pdl\drivers\peripheral\gpio/cy_gpio.h **** * \funcusage
 572:Generated_Source\PSoC6\pdl\drivers\peripheral\gpio/cy_gpio.h **** * \snippet gpio/gpio_v1_10_sut_01.cydsn/main_cm4.c snippet_Cy_GPIO_SetHSIOM
 573:Generated_Source\PSoC6\pdl\drivers\peripheral\gpio/cy_gpio.h **** *
 574:Generated_Source\PSoC6\pdl\drivers\peripheral\gpio/cy_gpio.h **** *******************************************************************************/
 575:Generated_Source\PSoC6\pdl\drivers\peripheral\gpio/cy_gpio.h **** __STATIC_INLINE void Cy_GPIO_SetHSIOM(GPIO_PRT_Type* base, uint32_t pinNum, en_hsiom_sel_t value)
 576:Generated_Source\PSoC6\pdl\drivers\peripheral\gpio/cy_gpio.h **** {
  33              		.loc 1 576 0
  34              		.cfi_startproc
  35              		@ args = 0, pretend = 0, frame = 32
  36              		@ frame_needed = 1, uses_anonymous_args = 0
  37 0000 80B5     		push	{r7, lr}
  38              		.cfi_def_cfa_offset 8
  39              		.cfi_offset 7, -8
  40              		.cfi_offset 14, -4
  41 0002 88B0     		sub	sp, sp, #32
  42              		.cfi_def_cfa_offset 40
  43 0004 00AF     		add	r7, sp, #0
  44              		.cfi_def_cfa_register 7
ARM GAS  C:\Users\ikomb\AppData\Local\Temp\ccAzoKUN.s 			page 12


  45 0006 F860     		str	r0, [r7, #12]
  46 0008 B960     		str	r1, [r7, #8]
  47 000a 1346     		mov	r3, r2
  48 000c FB71     		strb	r3, [r7, #7]
 577:Generated_Source\PSoC6\pdl\drivers\peripheral\gpio/cy_gpio.h ****     uint32_t portNum;
 578:Generated_Source\PSoC6\pdl\drivers\peripheral\gpio/cy_gpio.h ****     uint32_t tempReg;
 579:Generated_Source\PSoC6\pdl\drivers\peripheral\gpio/cy_gpio.h ****     HSIOM_PRT_Type* portAddrHSIOM;
 580:Generated_Source\PSoC6\pdl\drivers\peripheral\gpio/cy_gpio.h **** 
 581:Generated_Source\PSoC6\pdl\drivers\peripheral\gpio/cy_gpio.h ****     CY_ASSERT_L2(CY_GPIO_IS_PIN_VALID(pinNum));
  49              		.loc 1 581 0
  50 000e BB68     		ldr	r3, [r7, #8]
  51 0010 072B     		cmp	r3, #7
  52 0012 04D9     		bls	.L2
  53              		.loc 1 581 0 is_stmt 0 discriminator 1
  54 0014 40F24521 		movw	r1, #581
  55 0018 2648     		ldr	r0, .L7
  56 001a FFF7FEFF 		bl	Cy_SysLib_AssertFailed
  57              	.L2:
 582:Generated_Source\PSoC6\pdl\drivers\peripheral\gpio/cy_gpio.h ****     CY_ASSERT_L2(CY_GPIO_IS_HSIOM_VALID(value));
  58              		.loc 1 582 0 is_stmt 1
  59 001e FB79     		ldrb	r3, [r7, #7]	@ zero_extendqisi2
  60 0020 23F01F03 		bic	r3, r3, #31
  61 0024 002B     		cmp	r3, #0
  62 0026 04D0     		beq	.L3
  63              		.loc 1 582 0 is_stmt 0 discriminator 1
  64 0028 40F24621 		movw	r1, #582
  65 002c 2148     		ldr	r0, .L7
  66 002e FFF7FEFF 		bl	Cy_SysLib_AssertFailed
  67              	.L3:
 583:Generated_Source\PSoC6\pdl\drivers\peripheral\gpio/cy_gpio.h **** 
 584:Generated_Source\PSoC6\pdl\drivers\peripheral\gpio/cy_gpio.h ****     portNum = ((uint32_t)(base) - GPIO_BASE) / GPIO_PRT_SECTION_SIZE;
  68              		.loc 1 584 0 is_stmt 1
  69 0032 FB68     		ldr	r3, [r7, #12]
  70 0034 03F13F43 		add	r3, r3, #-1090519040
  71 0038 03F54E03 		add	r3, r3, #13500416
  72 003c DB09     		lsrs	r3, r3, #7
  73 003e FB61     		str	r3, [r7, #28]
 585:Generated_Source\PSoC6\pdl\drivers\peripheral\gpio/cy_gpio.h ****     portAddrHSIOM = (HSIOM_PRT_Type*)(HSIOM_BASE + (HSIOM_PRT_SECTION_SIZE * portNum));
  74              		.loc 1 585 0
  75 0040 FB69     		ldr	r3, [r7, #28]
  76 0042 03F18063 		add	r3, r3, #67108864
  77 0046 03F54433 		add	r3, r3, #200704
  78 004a 1B01     		lsls	r3, r3, #4
  79 004c BB61     		str	r3, [r7, #24]
 586:Generated_Source\PSoC6\pdl\drivers\peripheral\gpio/cy_gpio.h **** 
 587:Generated_Source\PSoC6\pdl\drivers\peripheral\gpio/cy_gpio.h ****     if(pinNum < CY_GPIO_PRT_HALF)
  80              		.loc 1 587 0
  81 004e BB68     		ldr	r3, [r7, #8]
  82 0050 032B     		cmp	r3, #3
  83 0052 14D8     		bhi	.L4
 588:Generated_Source\PSoC6\pdl\drivers\peripheral\gpio/cy_gpio.h ****     {
 589:Generated_Source\PSoC6\pdl\drivers\peripheral\gpio/cy_gpio.h ****         tempReg = portAddrHSIOM->PORT_SEL0 & ~(CY_GPIO_HSIOM_MASK << (pinNum << CY_GPIO_HSIOM_OFFSE
  84              		.loc 1 589 0
  85 0054 BB69     		ldr	r3, [r7, #24]
  86 0056 1A68     		ldr	r2, [r3]
  87 0058 BB68     		ldr	r3, [r7, #8]
  88 005a DB00     		lsls	r3, r3, #3
ARM GAS  C:\Users\ikomb\AppData\Local\Temp\ccAzoKUN.s 			page 13


  89 005c 1F21     		movs	r1, #31
  90 005e 01FA03F3 		lsl	r3, r1, r3
  91 0062 DB43     		mvns	r3, r3
  92 0064 1340     		ands	r3, r3, r2
  93 0066 7B61     		str	r3, [r7, #20]
 590:Generated_Source\PSoC6\pdl\drivers\peripheral\gpio/cy_gpio.h ****         portAddrHSIOM->PORT_SEL0 = tempReg | ((value & CY_GPIO_HSIOM_MASK) << (pinNum << CY_GPIO_HS
  94              		.loc 1 590 0
  95 0068 FB79     		ldrb	r3, [r7, #7]	@ zero_extendqisi2
  96 006a 03F01F02 		and	r2, r3, #31
  97 006e BB68     		ldr	r3, [r7, #8]
  98 0070 DB00     		lsls	r3, r3, #3
  99 0072 9A40     		lsls	r2, r2, r3
 100 0074 7B69     		ldr	r3, [r7, #20]
 101 0076 1A43     		orrs	r2, r2, r3
 102 0078 BB69     		ldr	r3, [r7, #24]
 103 007a 1A60     		str	r2, [r3]
 591:Generated_Source\PSoC6\pdl\drivers\peripheral\gpio/cy_gpio.h ****     }
 592:Generated_Source\PSoC6\pdl\drivers\peripheral\gpio/cy_gpio.h ****     else
 593:Generated_Source\PSoC6\pdl\drivers\peripheral\gpio/cy_gpio.h ****     {
 594:Generated_Source\PSoC6\pdl\drivers\peripheral\gpio/cy_gpio.h ****         pinNum -= CY_GPIO_PRT_HALF;
 595:Generated_Source\PSoC6\pdl\drivers\peripheral\gpio/cy_gpio.h ****         tempReg = portAddrHSIOM->PORT_SEL1 & ~(CY_GPIO_HSIOM_MASK << (pinNum << CY_GPIO_HSIOM_OFFSE
 596:Generated_Source\PSoC6\pdl\drivers\peripheral\gpio/cy_gpio.h ****         portAddrHSIOM->PORT_SEL1 = tempReg | ((value & CY_GPIO_HSIOM_MASK) << (pinNum << CY_GPIO_HS
 597:Generated_Source\PSoC6\pdl\drivers\peripheral\gpio/cy_gpio.h ****     }
 598:Generated_Source\PSoC6\pdl\drivers\peripheral\gpio/cy_gpio.h **** }
 104              		.loc 1 598 0
 105 007c 16E0     		b	.L6
 106              	.L4:
 594:Generated_Source\PSoC6\pdl\drivers\peripheral\gpio/cy_gpio.h ****         tempReg = portAddrHSIOM->PORT_SEL1 & ~(CY_GPIO_HSIOM_MASK << (pinNum << CY_GPIO_HSIOM_OFFSE
 107              		.loc 1 594 0
 108 007e BB68     		ldr	r3, [r7, #8]
 109 0080 043B     		subs	r3, r3, #4
 110 0082 BB60     		str	r3, [r7, #8]
 595:Generated_Source\PSoC6\pdl\drivers\peripheral\gpio/cy_gpio.h ****         portAddrHSIOM->PORT_SEL1 = tempReg | ((value & CY_GPIO_HSIOM_MASK) << (pinNum << CY_GPIO_HS
 111              		.loc 1 595 0
 112 0084 BB69     		ldr	r3, [r7, #24]
 113 0086 5A68     		ldr	r2, [r3, #4]
 114 0088 BB68     		ldr	r3, [r7, #8]
 115 008a DB00     		lsls	r3, r3, #3
 116 008c 1F21     		movs	r1, #31
 117 008e 01FA03F3 		lsl	r3, r1, r3
 118 0092 DB43     		mvns	r3, r3
 119 0094 1340     		ands	r3, r3, r2
 120 0096 7B61     		str	r3, [r7, #20]
 596:Generated_Source\PSoC6\pdl\drivers\peripheral\gpio/cy_gpio.h ****     }
 121              		.loc 1 596 0
 122 0098 FB79     		ldrb	r3, [r7, #7]	@ zero_extendqisi2
 123 009a 03F01F02 		and	r2, r3, #31
 124 009e BB68     		ldr	r3, [r7, #8]
 125 00a0 DB00     		lsls	r3, r3, #3
 126 00a2 9A40     		lsls	r2, r2, r3
 127 00a4 7B69     		ldr	r3, [r7, #20]
 128 00a6 1A43     		orrs	r2, r2, r3
 129 00a8 BB69     		ldr	r3, [r7, #24]
 130 00aa 5A60     		str	r2, [r3, #4]
 131              	.L6:
 132              		.loc 1 598 0
 133 00ac 00BF     		nop
ARM GAS  C:\Users\ikomb\AppData\Local\Temp\ccAzoKUN.s 			page 14


 134 00ae 2037     		adds	r7, r7, #32
 135              		.cfi_def_cfa_offset 8
 136 00b0 BD46     		mov	sp, r7
 137              		.cfi_def_cfa_register 13
 138              		@ sp needed
 139 00b2 80BD     		pop	{r7, pc}
 140              	.L8:
 141              		.align	2
 142              	.L7:
 143 00b4 00000000 		.word	.LC0
 144              		.cfi_endproc
 145              	.LFE125:
 146              		.size	Cy_GPIO_SetHSIOM, .-Cy_GPIO_SetHSIOM
 147              		.section	.text.Cy_GPIO_Write,"ax",%progbits
 148              		.align	2
 149              		.thumb
 150              		.thumb_func
 151              		.type	Cy_GPIO_Write, %function
 152              	Cy_GPIO_Write:
 153              	.LFB129:
 599:Generated_Source\PSoC6\pdl\drivers\peripheral\gpio/cy_gpio.h **** 
 600:Generated_Source\PSoC6\pdl\drivers\peripheral\gpio/cy_gpio.h **** 
 601:Generated_Source\PSoC6\pdl\drivers\peripheral\gpio/cy_gpio.h **** /*******************************************************************************
 602:Generated_Source\PSoC6\pdl\drivers\peripheral\gpio/cy_gpio.h **** * Function Name: Cy_GPIO_GetHSIOM
 603:Generated_Source\PSoC6\pdl\drivers\peripheral\gpio/cy_gpio.h **** ****************************************************************************//**
 604:Generated_Source\PSoC6\pdl\drivers\peripheral\gpio/cy_gpio.h **** *
 605:Generated_Source\PSoC6\pdl\drivers\peripheral\gpio/cy_gpio.h **** * \brief Returns the current HSIOM multiplexer connection to the pin.
 606:Generated_Source\PSoC6\pdl\drivers\peripheral\gpio/cy_gpio.h **** *
 607:Generated_Source\PSoC6\pdl\drivers\peripheral\gpio/cy_gpio.h **** * \param base
 608:Generated_Source\PSoC6\pdl\drivers\peripheral\gpio/cy_gpio.h **** * Pointer to the pin's port register base address
 609:Generated_Source\PSoC6\pdl\drivers\peripheral\gpio/cy_gpio.h **** *
 610:Generated_Source\PSoC6\pdl\drivers\peripheral\gpio/cy_gpio.h **** * \param pinNum
 611:Generated_Source\PSoC6\pdl\drivers\peripheral\gpio/cy_gpio.h **** * Position of the pin bit-field within the port register
 612:Generated_Source\PSoC6\pdl\drivers\peripheral\gpio/cy_gpio.h **** *
 613:Generated_Source\PSoC6\pdl\drivers\peripheral\gpio/cy_gpio.h **** * \return
 614:Generated_Source\PSoC6\pdl\drivers\peripheral\gpio/cy_gpio.h **** * HSIOM input selection
 615:Generated_Source\PSoC6\pdl\drivers\peripheral\gpio/cy_gpio.h **** *
 616:Generated_Source\PSoC6\pdl\drivers\peripheral\gpio/cy_gpio.h **** * \funcusage
 617:Generated_Source\PSoC6\pdl\drivers\peripheral\gpio/cy_gpio.h **** * \snippet gpio/gpio_v1_10_sut_01.cydsn/main_cm4.c snippet_Cy_GPIO_SetHSIOM
 618:Generated_Source\PSoC6\pdl\drivers\peripheral\gpio/cy_gpio.h **** *
 619:Generated_Source\PSoC6\pdl\drivers\peripheral\gpio/cy_gpio.h **** *******************************************************************************/
 620:Generated_Source\PSoC6\pdl\drivers\peripheral\gpio/cy_gpio.h **** __STATIC_INLINE en_hsiom_sel_t Cy_GPIO_GetHSIOM(GPIO_PRT_Type* base, uint32_t pinNum)
 621:Generated_Source\PSoC6\pdl\drivers\peripheral\gpio/cy_gpio.h **** {
 622:Generated_Source\PSoC6\pdl\drivers\peripheral\gpio/cy_gpio.h ****     uint32_t returnValue;
 623:Generated_Source\PSoC6\pdl\drivers\peripheral\gpio/cy_gpio.h ****     uint32_t portNum;
 624:Generated_Source\PSoC6\pdl\drivers\peripheral\gpio/cy_gpio.h ****     HSIOM_PRT_Type* portAddrHSIOM;
 625:Generated_Source\PSoC6\pdl\drivers\peripheral\gpio/cy_gpio.h ****     
 626:Generated_Source\PSoC6\pdl\drivers\peripheral\gpio/cy_gpio.h ****     CY_ASSERT_L2(CY_GPIO_IS_PIN_VALID(pinNum));
 627:Generated_Source\PSoC6\pdl\drivers\peripheral\gpio/cy_gpio.h **** 
 628:Generated_Source\PSoC6\pdl\drivers\peripheral\gpio/cy_gpio.h ****     portNum = ((uint32_t)(base) - GPIO_BASE) / GPIO_PRT_SECTION_SIZE;
 629:Generated_Source\PSoC6\pdl\drivers\peripheral\gpio/cy_gpio.h ****     portAddrHSIOM = (HSIOM_PRT_Type*)(HSIOM_BASE + (HSIOM_PRT_SECTION_SIZE * portNum));
 630:Generated_Source\PSoC6\pdl\drivers\peripheral\gpio/cy_gpio.h **** 
 631:Generated_Source\PSoC6\pdl\drivers\peripheral\gpio/cy_gpio.h ****     if(pinNum < CY_GPIO_PRT_HALF)
 632:Generated_Source\PSoC6\pdl\drivers\peripheral\gpio/cy_gpio.h ****     {
 633:Generated_Source\PSoC6\pdl\drivers\peripheral\gpio/cy_gpio.h ****         returnValue = (portAddrHSIOM->PORT_SEL0 >> (pinNum << CY_GPIO_HSIOM_OFFSET)) & CY_GPIO_HSIO
 634:Generated_Source\PSoC6\pdl\drivers\peripheral\gpio/cy_gpio.h ****     }
 635:Generated_Source\PSoC6\pdl\drivers\peripheral\gpio/cy_gpio.h ****     else
ARM GAS  C:\Users\ikomb\AppData\Local\Temp\ccAzoKUN.s 			page 15


 636:Generated_Source\PSoC6\pdl\drivers\peripheral\gpio/cy_gpio.h ****     {
 637:Generated_Source\PSoC6\pdl\drivers\peripheral\gpio/cy_gpio.h ****         pinNum -= CY_GPIO_PRT_HALF;
 638:Generated_Source\PSoC6\pdl\drivers\peripheral\gpio/cy_gpio.h ****         returnValue = (portAddrHSIOM->PORT_SEL1 >> (pinNum << CY_GPIO_HSIOM_OFFSET)) & CY_GPIO_HSIO
 639:Generated_Source\PSoC6\pdl\drivers\peripheral\gpio/cy_gpio.h ****     }
 640:Generated_Source\PSoC6\pdl\drivers\peripheral\gpio/cy_gpio.h **** 
 641:Generated_Source\PSoC6\pdl\drivers\peripheral\gpio/cy_gpio.h ****     return (en_hsiom_sel_t)returnValue;
 642:Generated_Source\PSoC6\pdl\drivers\peripheral\gpio/cy_gpio.h **** }
 643:Generated_Source\PSoC6\pdl\drivers\peripheral\gpio/cy_gpio.h **** 
 644:Generated_Source\PSoC6\pdl\drivers\peripheral\gpio/cy_gpio.h **** 
 645:Generated_Source\PSoC6\pdl\drivers\peripheral\gpio/cy_gpio.h **** /*******************************************************************************
 646:Generated_Source\PSoC6\pdl\drivers\peripheral\gpio/cy_gpio.h **** * Function Name: Cy_GPIO_PortToAddr
 647:Generated_Source\PSoC6\pdl\drivers\peripheral\gpio/cy_gpio.h **** ****************************************************************************//**
 648:Generated_Source\PSoC6\pdl\drivers\peripheral\gpio/cy_gpio.h **** *
 649:Generated_Source\PSoC6\pdl\drivers\peripheral\gpio/cy_gpio.h **** * \brief Retrieves the port address based on the given port number.
 650:Generated_Source\PSoC6\pdl\drivers\peripheral\gpio/cy_gpio.h **** *
 651:Generated_Source\PSoC6\pdl\drivers\peripheral\gpio/cy_gpio.h **** * This is a helper function to calculate the port base address when given a port
 652:Generated_Source\PSoC6\pdl\drivers\peripheral\gpio/cy_gpio.h **** * number. It is to be used when pin access needs to be calculated at runtime.
 653:Generated_Source\PSoC6\pdl\drivers\peripheral\gpio/cy_gpio.h **** *
 654:Generated_Source\PSoC6\pdl\drivers\peripheral\gpio/cy_gpio.h **** * \param portNum
 655:Generated_Source\PSoC6\pdl\drivers\peripheral\gpio/cy_gpio.h **** * Port number
 656:Generated_Source\PSoC6\pdl\drivers\peripheral\gpio/cy_gpio.h **** *
 657:Generated_Source\PSoC6\pdl\drivers\peripheral\gpio/cy_gpio.h **** * \return
 658:Generated_Source\PSoC6\pdl\drivers\peripheral\gpio/cy_gpio.h **** * Base address of the port register structure
 659:Generated_Source\PSoC6\pdl\drivers\peripheral\gpio/cy_gpio.h **** *
 660:Generated_Source\PSoC6\pdl\drivers\peripheral\gpio/cy_gpio.h **** * \funcusage
 661:Generated_Source\PSoC6\pdl\drivers\peripheral\gpio/cy_gpio.h **** * \snippet gpio/gpio_v1_10_sut_01.cydsn/main_cm4.c snippet_Cy_GPIO_PortToAddr
 662:Generated_Source\PSoC6\pdl\drivers\peripheral\gpio/cy_gpio.h **** *
 663:Generated_Source\PSoC6\pdl\drivers\peripheral\gpio/cy_gpio.h **** *******************************************************************************/
 664:Generated_Source\PSoC6\pdl\drivers\peripheral\gpio/cy_gpio.h **** __STATIC_INLINE GPIO_PRT_Type* Cy_GPIO_PortToAddr(uint32_t portNum)
 665:Generated_Source\PSoC6\pdl\drivers\peripheral\gpio/cy_gpio.h **** {
 666:Generated_Source\PSoC6\pdl\drivers\peripheral\gpio/cy_gpio.h ****     GPIO_PRT_Type* base;
 667:Generated_Source\PSoC6\pdl\drivers\peripheral\gpio/cy_gpio.h ****     
 668:Generated_Source\PSoC6\pdl\drivers\peripheral\gpio/cy_gpio.h ****     if(portNum < (uint32_t)IOSS_GPIO_GPIO_PORT_NR)
 669:Generated_Source\PSoC6\pdl\drivers\peripheral\gpio/cy_gpio.h ****     {
 670:Generated_Source\PSoC6\pdl\drivers\peripheral\gpio/cy_gpio.h ****          base = (GPIO_PRT_Type *)(GPIO_BASE + (GPIO_PRT_SECTION_SIZE * portNum));
 671:Generated_Source\PSoC6\pdl\drivers\peripheral\gpio/cy_gpio.h ****     }
 672:Generated_Source\PSoC6\pdl\drivers\peripheral\gpio/cy_gpio.h ****     else
 673:Generated_Source\PSoC6\pdl\drivers\peripheral\gpio/cy_gpio.h ****     {
 674:Generated_Source\PSoC6\pdl\drivers\peripheral\gpio/cy_gpio.h ****         /* Error: Return default base address */
 675:Generated_Source\PSoC6\pdl\drivers\peripheral\gpio/cy_gpio.h ****         base = (GPIO_PRT_Type *)(GPIO_BASE);
 676:Generated_Source\PSoC6\pdl\drivers\peripheral\gpio/cy_gpio.h ****     }
 677:Generated_Source\PSoC6\pdl\drivers\peripheral\gpio/cy_gpio.h **** 
 678:Generated_Source\PSoC6\pdl\drivers\peripheral\gpio/cy_gpio.h ****     return (base);
 679:Generated_Source\PSoC6\pdl\drivers\peripheral\gpio/cy_gpio.h **** }
 680:Generated_Source\PSoC6\pdl\drivers\peripheral\gpio/cy_gpio.h **** 
 681:Generated_Source\PSoC6\pdl\drivers\peripheral\gpio/cy_gpio.h **** /** \} group_gpio_functions_init */
 682:Generated_Source\PSoC6\pdl\drivers\peripheral\gpio/cy_gpio.h **** 
 683:Generated_Source\PSoC6\pdl\drivers\peripheral\gpio/cy_gpio.h **** /**
 684:Generated_Source\PSoC6\pdl\drivers\peripheral\gpio/cy_gpio.h **** * \addtogroup group_gpio_functions_gpio
 685:Generated_Source\PSoC6\pdl\drivers\peripheral\gpio/cy_gpio.h **** * \{
 686:Generated_Source\PSoC6\pdl\drivers\peripheral\gpio/cy_gpio.h **** */
 687:Generated_Source\PSoC6\pdl\drivers\peripheral\gpio/cy_gpio.h **** 
 688:Generated_Source\PSoC6\pdl\drivers\peripheral\gpio/cy_gpio.h **** /*******************************************************************************
 689:Generated_Source\PSoC6\pdl\drivers\peripheral\gpio/cy_gpio.h **** * Function Name: Cy_GPIO_Read
 690:Generated_Source\PSoC6\pdl\drivers\peripheral\gpio/cy_gpio.h **** ****************************************************************************//**
 691:Generated_Source\PSoC6\pdl\drivers\peripheral\gpio/cy_gpio.h **** *
 692:Generated_Source\PSoC6\pdl\drivers\peripheral\gpio/cy_gpio.h **** * \brief Reads the current logic level on the input buffer of the pin.
ARM GAS  C:\Users\ikomb\AppData\Local\Temp\ccAzoKUN.s 			page 16


 693:Generated_Source\PSoC6\pdl\drivers\peripheral\gpio/cy_gpio.h **** *
 694:Generated_Source\PSoC6\pdl\drivers\peripheral\gpio/cy_gpio.h **** * \param base
 695:Generated_Source\PSoC6\pdl\drivers\peripheral\gpio/cy_gpio.h **** * Pointer to the pin's port register base address
 696:Generated_Source\PSoC6\pdl\drivers\peripheral\gpio/cy_gpio.h **** *
 697:Generated_Source\PSoC6\pdl\drivers\peripheral\gpio/cy_gpio.h **** * \param pinNum
 698:Generated_Source\PSoC6\pdl\drivers\peripheral\gpio/cy_gpio.h **** * Position of the pin bit-field within the port register.
 699:Generated_Source\PSoC6\pdl\drivers\peripheral\gpio/cy_gpio.h **** * Bit position 8 is the routed pin through the port glitch filter.
 700:Generated_Source\PSoC6\pdl\drivers\peripheral\gpio/cy_gpio.h **** *
 701:Generated_Source\PSoC6\pdl\drivers\peripheral\gpio/cy_gpio.h **** * \return
 702:Generated_Source\PSoC6\pdl\drivers\peripheral\gpio/cy_gpio.h **** * Logic level present on the pin
 703:Generated_Source\PSoC6\pdl\drivers\peripheral\gpio/cy_gpio.h **** *
 704:Generated_Source\PSoC6\pdl\drivers\peripheral\gpio/cy_gpio.h **** * \funcusage
 705:Generated_Source\PSoC6\pdl\drivers\peripheral\gpio/cy_gpio.h **** * \snippet gpio/gpio_v1_10_sut_01.cydsn/main_cm4.c snippet_Cy_GPIO_Read
 706:Generated_Source\PSoC6\pdl\drivers\peripheral\gpio/cy_gpio.h **** *
 707:Generated_Source\PSoC6\pdl\drivers\peripheral\gpio/cy_gpio.h **** *******************************************************************************/
 708:Generated_Source\PSoC6\pdl\drivers\peripheral\gpio/cy_gpio.h **** __STATIC_INLINE uint32_t Cy_GPIO_Read(GPIO_PRT_Type* base, uint32_t pinNum)
 709:Generated_Source\PSoC6\pdl\drivers\peripheral\gpio/cy_gpio.h **** {
 710:Generated_Source\PSoC6\pdl\drivers\peripheral\gpio/cy_gpio.h ****     CY_ASSERT_L2(CY_GPIO_IS_FILTER_PIN_VALID(pinNum));
 711:Generated_Source\PSoC6\pdl\drivers\peripheral\gpio/cy_gpio.h ****     
 712:Generated_Source\PSoC6\pdl\drivers\peripheral\gpio/cy_gpio.h ****     return (base->IN >> (pinNum)) & CY_GPIO_IN_MASK;
 713:Generated_Source\PSoC6\pdl\drivers\peripheral\gpio/cy_gpio.h **** }
 714:Generated_Source\PSoC6\pdl\drivers\peripheral\gpio/cy_gpio.h **** 
 715:Generated_Source\PSoC6\pdl\drivers\peripheral\gpio/cy_gpio.h **** 
 716:Generated_Source\PSoC6\pdl\drivers\peripheral\gpio/cy_gpio.h **** /*******************************************************************************
 717:Generated_Source\PSoC6\pdl\drivers\peripheral\gpio/cy_gpio.h **** * Function Name: Cy_GPIO_Write
 718:Generated_Source\PSoC6\pdl\drivers\peripheral\gpio/cy_gpio.h **** ****************************************************************************//**
 719:Generated_Source\PSoC6\pdl\drivers\peripheral\gpio/cy_gpio.h **** *
 720:Generated_Source\PSoC6\pdl\drivers\peripheral\gpio/cy_gpio.h **** * \brief Write a logic 0 or logic 1 state to the output driver.
 721:Generated_Source\PSoC6\pdl\drivers\peripheral\gpio/cy_gpio.h **** *
 722:Generated_Source\PSoC6\pdl\drivers\peripheral\gpio/cy_gpio.h **** * This function should be used only for software driven pins. It does not have
 723:Generated_Source\PSoC6\pdl\drivers\peripheral\gpio/cy_gpio.h **** * any effect on peripheral driven pins.
 724:Generated_Source\PSoC6\pdl\drivers\peripheral\gpio/cy_gpio.h **** *
 725:Generated_Source\PSoC6\pdl\drivers\peripheral\gpio/cy_gpio.h **** * \param base
 726:Generated_Source\PSoC6\pdl\drivers\peripheral\gpio/cy_gpio.h **** * Pointer to the pin's port register base address
 727:Generated_Source\PSoC6\pdl\drivers\peripheral\gpio/cy_gpio.h **** *
 728:Generated_Source\PSoC6\pdl\drivers\peripheral\gpio/cy_gpio.h **** * \param pinNum
 729:Generated_Source\PSoC6\pdl\drivers\peripheral\gpio/cy_gpio.h **** * Position of the pin bit-field within the port register
 730:Generated_Source\PSoC6\pdl\drivers\peripheral\gpio/cy_gpio.h **** *
 731:Generated_Source\PSoC6\pdl\drivers\peripheral\gpio/cy_gpio.h **** * \param value
 732:Generated_Source\PSoC6\pdl\drivers\peripheral\gpio/cy_gpio.h **** * Logic level to drive out on the pin
 733:Generated_Source\PSoC6\pdl\drivers\peripheral\gpio/cy_gpio.h **** *
 734:Generated_Source\PSoC6\pdl\drivers\peripheral\gpio/cy_gpio.h **** * \return
 735:Generated_Source\PSoC6\pdl\drivers\peripheral\gpio/cy_gpio.h **** * void
 736:Generated_Source\PSoC6\pdl\drivers\peripheral\gpio/cy_gpio.h **** *
 737:Generated_Source\PSoC6\pdl\drivers\peripheral\gpio/cy_gpio.h **** * \funcusage
 738:Generated_Source\PSoC6\pdl\drivers\peripheral\gpio/cy_gpio.h **** * \snippet gpio/gpio_v1_10_sut_01.cydsn/main_cm4.c snippet_Cy_GPIO_Write
 739:Generated_Source\PSoC6\pdl\drivers\peripheral\gpio/cy_gpio.h **** *
 740:Generated_Source\PSoC6\pdl\drivers\peripheral\gpio/cy_gpio.h **** *******************************************************************************/
 741:Generated_Source\PSoC6\pdl\drivers\peripheral\gpio/cy_gpio.h **** __STATIC_INLINE void Cy_GPIO_Write(GPIO_PRT_Type* base, uint32_t pinNum, uint32_t value)
 742:Generated_Source\PSoC6\pdl\drivers\peripheral\gpio/cy_gpio.h **** {
 154              		.loc 1 742 0
 155              		.cfi_startproc
 156              		@ args = 0, pretend = 0, frame = 16
 157              		@ frame_needed = 1, uses_anonymous_args = 0
 158 0000 80B5     		push	{r7, lr}
 159              		.cfi_def_cfa_offset 8
 160              		.cfi_offset 7, -8
ARM GAS  C:\Users\ikomb\AppData\Local\Temp\ccAzoKUN.s 			page 17


 161              		.cfi_offset 14, -4
 162 0002 84B0     		sub	sp, sp, #16
 163              		.cfi_def_cfa_offset 24
 164 0004 00AF     		add	r7, sp, #0
 165              		.cfi_def_cfa_register 7
 166 0006 F860     		str	r0, [r7, #12]
 167 0008 B960     		str	r1, [r7, #8]
 168 000a 7A60     		str	r2, [r7, #4]
 743:Generated_Source\PSoC6\pdl\drivers\peripheral\gpio/cy_gpio.h ****     CY_ASSERT_L2(CY_GPIO_IS_PIN_VALID(pinNum));
 169              		.loc 1 743 0
 170 000c BB68     		ldr	r3, [r7, #8]
 171 000e 072B     		cmp	r3, #7
 172 0010 04D9     		bls	.L10
 173              		.loc 1 743 0 is_stmt 0 discriminator 1
 174 0012 40F2E721 		movw	r1, #743
 175 0016 0E48     		ldr	r0, .L15
 176 0018 FFF7FEFF 		bl	Cy_SysLib_AssertFailed
 177              	.L10:
 744:Generated_Source\PSoC6\pdl\drivers\peripheral\gpio/cy_gpio.h ****     CY_ASSERT_L2(CY_GPIO_IS_VALUE_VALID(value));
 178              		.loc 1 744 0 is_stmt 1
 179 001c 7B68     		ldr	r3, [r7, #4]
 180 001e 012B     		cmp	r3, #1
 181 0020 04D9     		bls	.L11
 182              		.loc 1 744 0 is_stmt 0 discriminator 1
 183 0022 4FF43A71 		mov	r1, #744
 184 0026 0A48     		ldr	r0, .L15
 185 0028 FFF7FEFF 		bl	Cy_SysLib_AssertFailed
 186              	.L11:
 745:Generated_Source\PSoC6\pdl\drivers\peripheral\gpio/cy_gpio.h **** 
 746:Generated_Source\PSoC6\pdl\drivers\peripheral\gpio/cy_gpio.h ****     /* Thread-safe: Directly access the pin registers instead of base->OUT */
 747:Generated_Source\PSoC6\pdl\drivers\peripheral\gpio/cy_gpio.h ****     if(0UL == value)
 187              		.loc 1 747 0 is_stmt 1
 188 002c 7B68     		ldr	r3, [r7, #4]
 189 002e 002B     		cmp	r3, #0
 190 0030 05D1     		bne	.L12
 748:Generated_Source\PSoC6\pdl\drivers\peripheral\gpio/cy_gpio.h ****     {
 749:Generated_Source\PSoC6\pdl\drivers\peripheral\gpio/cy_gpio.h ****         base->OUT_CLR = CY_GPIO_OUT_MASK << pinNum;
 191              		.loc 1 749 0
 192 0032 0122     		movs	r2, #1
 193 0034 BB68     		ldr	r3, [r7, #8]
 194 0036 9A40     		lsls	r2, r2, r3
 195 0038 FB68     		ldr	r3, [r7, #12]
 196 003a 5A60     		str	r2, [r3, #4]
 750:Generated_Source\PSoC6\pdl\drivers\peripheral\gpio/cy_gpio.h ****     }
 751:Generated_Source\PSoC6\pdl\drivers\peripheral\gpio/cy_gpio.h ****     else
 752:Generated_Source\PSoC6\pdl\drivers\peripheral\gpio/cy_gpio.h ****     {
 753:Generated_Source\PSoC6\pdl\drivers\peripheral\gpio/cy_gpio.h ****         base->OUT_SET = CY_GPIO_OUT_MASK << pinNum;
 754:Generated_Source\PSoC6\pdl\drivers\peripheral\gpio/cy_gpio.h ****     }
 755:Generated_Source\PSoC6\pdl\drivers\peripheral\gpio/cy_gpio.h **** }
 197              		.loc 1 755 0
 198 003c 04E0     		b	.L14
 199              	.L12:
 753:Generated_Source\PSoC6\pdl\drivers\peripheral\gpio/cy_gpio.h ****     }
 200              		.loc 1 753 0
 201 003e 0122     		movs	r2, #1
 202 0040 BB68     		ldr	r3, [r7, #8]
 203 0042 9A40     		lsls	r2, r2, r3
ARM GAS  C:\Users\ikomb\AppData\Local\Temp\ccAzoKUN.s 			page 18


 204 0044 FB68     		ldr	r3, [r7, #12]
 205 0046 9A60     		str	r2, [r3, #8]
 206              	.L14:
 207              		.loc 1 755 0
 208 0048 00BF     		nop
 209 004a 1037     		adds	r7, r7, #16
 210              		.cfi_def_cfa_offset 8
 211 004c BD46     		mov	sp, r7
 212              		.cfi_def_cfa_register 13
 213              		@ sp needed
 214 004e 80BD     		pop	{r7, pc}
 215              	.L16:
 216              		.align	2
 217              	.L15:
 218 0050 00000000 		.word	.LC0
 219              		.cfi_endproc
 220              	.LFE129:
 221              		.size	Cy_GPIO_Write, .-Cy_GPIO_Write
 222              		.section	.text.Cy_GPIO_SetDrivemode,"ax",%progbits
 223              		.align	2
 224              		.thumb
 225              		.thumb_func
 226              		.type	Cy_GPIO_SetDrivemode, %function
 227              	Cy_GPIO_SetDrivemode:
 228              	.LFB134:
 756:Generated_Source\PSoC6\pdl\drivers\peripheral\gpio/cy_gpio.h **** 
 757:Generated_Source\PSoC6\pdl\drivers\peripheral\gpio/cy_gpio.h **** 
 758:Generated_Source\PSoC6\pdl\drivers\peripheral\gpio/cy_gpio.h **** /*******************************************************************************
 759:Generated_Source\PSoC6\pdl\drivers\peripheral\gpio/cy_gpio.h **** * Function Name: Cy_GPIO_ReadOut
 760:Generated_Source\PSoC6\pdl\drivers\peripheral\gpio/cy_gpio.h **** ****************************************************************************//**
 761:Generated_Source\PSoC6\pdl\drivers\peripheral\gpio/cy_gpio.h **** *
 762:Generated_Source\PSoC6\pdl\drivers\peripheral\gpio/cy_gpio.h **** * \brief Reads the current logic level on the pin output driver.
 763:Generated_Source\PSoC6\pdl\drivers\peripheral\gpio/cy_gpio.h **** *
 764:Generated_Source\PSoC6\pdl\drivers\peripheral\gpio/cy_gpio.h **** * \param base
 765:Generated_Source\PSoC6\pdl\drivers\peripheral\gpio/cy_gpio.h **** * Pointer to the pin's port register base address
 766:Generated_Source\PSoC6\pdl\drivers\peripheral\gpio/cy_gpio.h **** *
 767:Generated_Source\PSoC6\pdl\drivers\peripheral\gpio/cy_gpio.h **** * \param pinNum
 768:Generated_Source\PSoC6\pdl\drivers\peripheral\gpio/cy_gpio.h **** * Position of the pin bit-field within the port register
 769:Generated_Source\PSoC6\pdl\drivers\peripheral\gpio/cy_gpio.h **** *
 770:Generated_Source\PSoC6\pdl\drivers\peripheral\gpio/cy_gpio.h **** * \return
 771:Generated_Source\PSoC6\pdl\drivers\peripheral\gpio/cy_gpio.h **** * Logic level on the pin output driver
 772:Generated_Source\PSoC6\pdl\drivers\peripheral\gpio/cy_gpio.h **** *
 773:Generated_Source\PSoC6\pdl\drivers\peripheral\gpio/cy_gpio.h **** * \funcusage
 774:Generated_Source\PSoC6\pdl\drivers\peripheral\gpio/cy_gpio.h **** * \snippet gpio/gpio_v1_10_sut_01.cydsn/main_cm4.c snippet_Cy_GPIO_ReadOut
 775:Generated_Source\PSoC6\pdl\drivers\peripheral\gpio/cy_gpio.h **** *
 776:Generated_Source\PSoC6\pdl\drivers\peripheral\gpio/cy_gpio.h **** *******************************************************************************/
 777:Generated_Source\PSoC6\pdl\drivers\peripheral\gpio/cy_gpio.h **** __STATIC_INLINE uint32_t Cy_GPIO_ReadOut(GPIO_PRT_Type* base, uint32_t pinNum)
 778:Generated_Source\PSoC6\pdl\drivers\peripheral\gpio/cy_gpio.h **** {
 779:Generated_Source\PSoC6\pdl\drivers\peripheral\gpio/cy_gpio.h ****     CY_ASSERT_L2(CY_GPIO_IS_PIN_VALID(pinNum));
 780:Generated_Source\PSoC6\pdl\drivers\peripheral\gpio/cy_gpio.h **** 
 781:Generated_Source\PSoC6\pdl\drivers\peripheral\gpio/cy_gpio.h ****     return (base->OUT >> pinNum) & CY_GPIO_OUT_MASK;
 782:Generated_Source\PSoC6\pdl\drivers\peripheral\gpio/cy_gpio.h **** }
 783:Generated_Source\PSoC6\pdl\drivers\peripheral\gpio/cy_gpio.h **** 
 784:Generated_Source\PSoC6\pdl\drivers\peripheral\gpio/cy_gpio.h **** 
 785:Generated_Source\PSoC6\pdl\drivers\peripheral\gpio/cy_gpio.h **** /*******************************************************************************
 786:Generated_Source\PSoC6\pdl\drivers\peripheral\gpio/cy_gpio.h **** * Function Name: Cy_GPIO_Set
 787:Generated_Source\PSoC6\pdl\drivers\peripheral\gpio/cy_gpio.h **** ****************************************************************************//**
ARM GAS  C:\Users\ikomb\AppData\Local\Temp\ccAzoKUN.s 			page 19


 788:Generated_Source\PSoC6\pdl\drivers\peripheral\gpio/cy_gpio.h **** *
 789:Generated_Source\PSoC6\pdl\drivers\peripheral\gpio/cy_gpio.h **** * \brief Set a pin output to logic state high.
 790:Generated_Source\PSoC6\pdl\drivers\peripheral\gpio/cy_gpio.h **** *
 791:Generated_Source\PSoC6\pdl\drivers\peripheral\gpio/cy_gpio.h **** * This function should be used only for software driven pins. It does not have
 792:Generated_Source\PSoC6\pdl\drivers\peripheral\gpio/cy_gpio.h **** * any effect on peripheral driven pins.
 793:Generated_Source\PSoC6\pdl\drivers\peripheral\gpio/cy_gpio.h **** *
 794:Generated_Source\PSoC6\pdl\drivers\peripheral\gpio/cy_gpio.h **** * \param base
 795:Generated_Source\PSoC6\pdl\drivers\peripheral\gpio/cy_gpio.h **** * Pointer to the pin's port register base address
 796:Generated_Source\PSoC6\pdl\drivers\peripheral\gpio/cy_gpio.h **** *
 797:Generated_Source\PSoC6\pdl\drivers\peripheral\gpio/cy_gpio.h **** * \param pinNum
 798:Generated_Source\PSoC6\pdl\drivers\peripheral\gpio/cy_gpio.h **** * Position of the pin bit-field within the port register
 799:Generated_Source\PSoC6\pdl\drivers\peripheral\gpio/cy_gpio.h **** *
 800:Generated_Source\PSoC6\pdl\drivers\peripheral\gpio/cy_gpio.h **** * \return
 801:Generated_Source\PSoC6\pdl\drivers\peripheral\gpio/cy_gpio.h **** * void
 802:Generated_Source\PSoC6\pdl\drivers\peripheral\gpio/cy_gpio.h **** *
 803:Generated_Source\PSoC6\pdl\drivers\peripheral\gpio/cy_gpio.h **** * \funcusage
 804:Generated_Source\PSoC6\pdl\drivers\peripheral\gpio/cy_gpio.h **** * \snippet gpio/gpio_v1_10_sut_01.cydsn/main_cm4.c snippet_Cy_GPIO_Set
 805:Generated_Source\PSoC6\pdl\drivers\peripheral\gpio/cy_gpio.h **** *
 806:Generated_Source\PSoC6\pdl\drivers\peripheral\gpio/cy_gpio.h **** *******************************************************************************/
 807:Generated_Source\PSoC6\pdl\drivers\peripheral\gpio/cy_gpio.h **** __STATIC_INLINE void Cy_GPIO_Set(GPIO_PRT_Type* base, uint32_t pinNum)
 808:Generated_Source\PSoC6\pdl\drivers\peripheral\gpio/cy_gpio.h **** {
 809:Generated_Source\PSoC6\pdl\drivers\peripheral\gpio/cy_gpio.h ****     CY_ASSERT_L2(CY_GPIO_IS_PIN_VALID(pinNum));
 810:Generated_Source\PSoC6\pdl\drivers\peripheral\gpio/cy_gpio.h ****     
 811:Generated_Source\PSoC6\pdl\drivers\peripheral\gpio/cy_gpio.h ****     base->OUT_SET = CY_GPIO_OUT_MASK << pinNum;
 812:Generated_Source\PSoC6\pdl\drivers\peripheral\gpio/cy_gpio.h **** }
 813:Generated_Source\PSoC6\pdl\drivers\peripheral\gpio/cy_gpio.h **** 
 814:Generated_Source\PSoC6\pdl\drivers\peripheral\gpio/cy_gpio.h **** 
 815:Generated_Source\PSoC6\pdl\drivers\peripheral\gpio/cy_gpio.h **** /*******************************************************************************
 816:Generated_Source\PSoC6\pdl\drivers\peripheral\gpio/cy_gpio.h **** * Function Name: Cy_GPIO_Clr
 817:Generated_Source\PSoC6\pdl\drivers\peripheral\gpio/cy_gpio.h **** ****************************************************************************//**
 818:Generated_Source\PSoC6\pdl\drivers\peripheral\gpio/cy_gpio.h **** *
 819:Generated_Source\PSoC6\pdl\drivers\peripheral\gpio/cy_gpio.h **** * \brief Set a pin output to logic state Low.
 820:Generated_Source\PSoC6\pdl\drivers\peripheral\gpio/cy_gpio.h **** *
 821:Generated_Source\PSoC6\pdl\drivers\peripheral\gpio/cy_gpio.h **** * This function should be used only for software driven pins. It does not have
 822:Generated_Source\PSoC6\pdl\drivers\peripheral\gpio/cy_gpio.h **** * any effect on peripheral driven pins.
 823:Generated_Source\PSoC6\pdl\drivers\peripheral\gpio/cy_gpio.h **** *
 824:Generated_Source\PSoC6\pdl\drivers\peripheral\gpio/cy_gpio.h **** * \param base
 825:Generated_Source\PSoC6\pdl\drivers\peripheral\gpio/cy_gpio.h **** * Pointer to the pin's port register base address
 826:Generated_Source\PSoC6\pdl\drivers\peripheral\gpio/cy_gpio.h **** *
 827:Generated_Source\PSoC6\pdl\drivers\peripheral\gpio/cy_gpio.h **** * \param pinNum
 828:Generated_Source\PSoC6\pdl\drivers\peripheral\gpio/cy_gpio.h **** * Position of the pin bit-field within the port register
 829:Generated_Source\PSoC6\pdl\drivers\peripheral\gpio/cy_gpio.h **** *
 830:Generated_Source\PSoC6\pdl\drivers\peripheral\gpio/cy_gpio.h **** * \return
 831:Generated_Source\PSoC6\pdl\drivers\peripheral\gpio/cy_gpio.h **** * void
 832:Generated_Source\PSoC6\pdl\drivers\peripheral\gpio/cy_gpio.h **** *
 833:Generated_Source\PSoC6\pdl\drivers\peripheral\gpio/cy_gpio.h **** * \funcusage
 834:Generated_Source\PSoC6\pdl\drivers\peripheral\gpio/cy_gpio.h **** * \snippet gpio/gpio_v1_10_sut_01.cydsn/main_cm4.c snippet_Cy_GPIO_Clr
 835:Generated_Source\PSoC6\pdl\drivers\peripheral\gpio/cy_gpio.h **** *
 836:Generated_Source\PSoC6\pdl\drivers\peripheral\gpio/cy_gpio.h **** *******************************************************************************/
 837:Generated_Source\PSoC6\pdl\drivers\peripheral\gpio/cy_gpio.h **** __STATIC_INLINE void Cy_GPIO_Clr(GPIO_PRT_Type* base, uint32_t pinNum)
 838:Generated_Source\PSoC6\pdl\drivers\peripheral\gpio/cy_gpio.h **** {
 839:Generated_Source\PSoC6\pdl\drivers\peripheral\gpio/cy_gpio.h ****     CY_ASSERT_L2(CY_GPIO_IS_PIN_VALID(pinNum));
 840:Generated_Source\PSoC6\pdl\drivers\peripheral\gpio/cy_gpio.h ****     
 841:Generated_Source\PSoC6\pdl\drivers\peripheral\gpio/cy_gpio.h ****     base->OUT_CLR = CY_GPIO_OUT_MASK << pinNum;
 842:Generated_Source\PSoC6\pdl\drivers\peripheral\gpio/cy_gpio.h **** }
 843:Generated_Source\PSoC6\pdl\drivers\peripheral\gpio/cy_gpio.h **** 
 844:Generated_Source\PSoC6\pdl\drivers\peripheral\gpio/cy_gpio.h **** 
ARM GAS  C:\Users\ikomb\AppData\Local\Temp\ccAzoKUN.s 			page 20


 845:Generated_Source\PSoC6\pdl\drivers\peripheral\gpio/cy_gpio.h **** /*******************************************************************************
 846:Generated_Source\PSoC6\pdl\drivers\peripheral\gpio/cy_gpio.h **** * Function Name: Cy_GPIO_Inv
 847:Generated_Source\PSoC6\pdl\drivers\peripheral\gpio/cy_gpio.h **** ****************************************************************************//**
 848:Generated_Source\PSoC6\pdl\drivers\peripheral\gpio/cy_gpio.h **** *
 849:Generated_Source\PSoC6\pdl\drivers\peripheral\gpio/cy_gpio.h **** * \brief Set a pin output logic state to the inverse of the current output
 850:Generated_Source\PSoC6\pdl\drivers\peripheral\gpio/cy_gpio.h **** * logic state.
 851:Generated_Source\PSoC6\pdl\drivers\peripheral\gpio/cy_gpio.h **** *
 852:Generated_Source\PSoC6\pdl\drivers\peripheral\gpio/cy_gpio.h **** * This function should be used only for software driven pins. It does not have
 853:Generated_Source\PSoC6\pdl\drivers\peripheral\gpio/cy_gpio.h **** * any effect on peripheral driven pins.
 854:Generated_Source\PSoC6\pdl\drivers\peripheral\gpio/cy_gpio.h **** *
 855:Generated_Source\PSoC6\pdl\drivers\peripheral\gpio/cy_gpio.h **** * \param base
 856:Generated_Source\PSoC6\pdl\drivers\peripheral\gpio/cy_gpio.h **** * Pointer to the pin's port register base address
 857:Generated_Source\PSoC6\pdl\drivers\peripheral\gpio/cy_gpio.h **** *
 858:Generated_Source\PSoC6\pdl\drivers\peripheral\gpio/cy_gpio.h **** * \param pinNum
 859:Generated_Source\PSoC6\pdl\drivers\peripheral\gpio/cy_gpio.h **** * Position of the pin bit-field within the port register
 860:Generated_Source\PSoC6\pdl\drivers\peripheral\gpio/cy_gpio.h **** *
 861:Generated_Source\PSoC6\pdl\drivers\peripheral\gpio/cy_gpio.h **** * \return
 862:Generated_Source\PSoC6\pdl\drivers\peripheral\gpio/cy_gpio.h **** * void
 863:Generated_Source\PSoC6\pdl\drivers\peripheral\gpio/cy_gpio.h **** *
 864:Generated_Source\PSoC6\pdl\drivers\peripheral\gpio/cy_gpio.h **** * \funcusage
 865:Generated_Source\PSoC6\pdl\drivers\peripheral\gpio/cy_gpio.h **** * \snippet gpio/gpio_v1_10_sut_01.cydsn/main_cm4.c snippet_Cy_GPIO_Inv
 866:Generated_Source\PSoC6\pdl\drivers\peripheral\gpio/cy_gpio.h **** *
 867:Generated_Source\PSoC6\pdl\drivers\peripheral\gpio/cy_gpio.h **** *******************************************************************************/
 868:Generated_Source\PSoC6\pdl\drivers\peripheral\gpio/cy_gpio.h **** __STATIC_INLINE void Cy_GPIO_Inv(GPIO_PRT_Type* base, uint32_t pinNum)
 869:Generated_Source\PSoC6\pdl\drivers\peripheral\gpio/cy_gpio.h **** {
 870:Generated_Source\PSoC6\pdl\drivers\peripheral\gpio/cy_gpio.h ****     CY_ASSERT_L2(CY_GPIO_IS_PIN_VALID(pinNum));
 871:Generated_Source\PSoC6\pdl\drivers\peripheral\gpio/cy_gpio.h ****     
 872:Generated_Source\PSoC6\pdl\drivers\peripheral\gpio/cy_gpio.h ****     base->OUT_INV = CY_GPIO_OUT_MASK << pinNum;
 873:Generated_Source\PSoC6\pdl\drivers\peripheral\gpio/cy_gpio.h **** }
 874:Generated_Source\PSoC6\pdl\drivers\peripheral\gpio/cy_gpio.h **** 
 875:Generated_Source\PSoC6\pdl\drivers\peripheral\gpio/cy_gpio.h **** 
 876:Generated_Source\PSoC6\pdl\drivers\peripheral\gpio/cy_gpio.h **** /*******************************************************************************
 877:Generated_Source\PSoC6\pdl\drivers\peripheral\gpio/cy_gpio.h **** * Function Name: Cy_GPIO_SetDrivemode
 878:Generated_Source\PSoC6\pdl\drivers\peripheral\gpio/cy_gpio.h **** ****************************************************************************//**
 879:Generated_Source\PSoC6\pdl\drivers\peripheral\gpio/cy_gpio.h **** *
 880:Generated_Source\PSoC6\pdl\drivers\peripheral\gpio/cy_gpio.h **** * \brief Configures the pin output buffer drive mode and input buffer enable.
 881:Generated_Source\PSoC6\pdl\drivers\peripheral\gpio/cy_gpio.h **** *
 882:Generated_Source\PSoC6\pdl\drivers\peripheral\gpio/cy_gpio.h **** * The output buffer drive mode and input buffer enable are combined into a single
 883:Generated_Source\PSoC6\pdl\drivers\peripheral\gpio/cy_gpio.h **** * parameter. The drive mode controls the behavior of the pin in general.
 884:Generated_Source\PSoC6\pdl\drivers\peripheral\gpio/cy_gpio.h **** * Enabling the input buffer allows the digital pin state to be read but also
 885:Generated_Source\PSoC6\pdl\drivers\peripheral\gpio/cy_gpio.h **** * contributes to extra current consumption.
 886:Generated_Source\PSoC6\pdl\drivers\peripheral\gpio/cy_gpio.h **** *
 887:Generated_Source\PSoC6\pdl\drivers\peripheral\gpio/cy_gpio.h **** * \param base
 888:Generated_Source\PSoC6\pdl\drivers\peripheral\gpio/cy_gpio.h **** * Pointer to the pin's port register base address
 889:Generated_Source\PSoC6\pdl\drivers\peripheral\gpio/cy_gpio.h **** *
 890:Generated_Source\PSoC6\pdl\drivers\peripheral\gpio/cy_gpio.h **** * \param pinNum
 891:Generated_Source\PSoC6\pdl\drivers\peripheral\gpio/cy_gpio.h **** * Position of the pin bit-field within the port register
 892:Generated_Source\PSoC6\pdl\drivers\peripheral\gpio/cy_gpio.h **** *
 893:Generated_Source\PSoC6\pdl\drivers\peripheral\gpio/cy_gpio.h **** * \param value
 894:Generated_Source\PSoC6\pdl\drivers\peripheral\gpio/cy_gpio.h **** * Pin drive mode. Options are detailed in \ref group_gpio_driveModes macros
 895:Generated_Source\PSoC6\pdl\drivers\peripheral\gpio/cy_gpio.h **** *
 896:Generated_Source\PSoC6\pdl\drivers\peripheral\gpio/cy_gpio.h **** * \return
 897:Generated_Source\PSoC6\pdl\drivers\peripheral\gpio/cy_gpio.h **** * void
 898:Generated_Source\PSoC6\pdl\drivers\peripheral\gpio/cy_gpio.h **** *
 899:Generated_Source\PSoC6\pdl\drivers\peripheral\gpio/cy_gpio.h **** * \note 
 900:Generated_Source\PSoC6\pdl\drivers\peripheral\gpio/cy_gpio.h **** * This function modifies a port register in a read-modify-write operation. It is
 901:Generated_Source\PSoC6\pdl\drivers\peripheral\gpio/cy_gpio.h **** * not thread safe as the resource is shared among multiple pins on a port.
ARM GAS  C:\Users\ikomb\AppData\Local\Temp\ccAzoKUN.s 			page 21


 902:Generated_Source\PSoC6\pdl\drivers\peripheral\gpio/cy_gpio.h **** *
 903:Generated_Source\PSoC6\pdl\drivers\peripheral\gpio/cy_gpio.h **** * \funcusage
 904:Generated_Source\PSoC6\pdl\drivers\peripheral\gpio/cy_gpio.h **** * \snippet gpio/gpio_v1_10_sut_01.cydsn/main_cm4.c snippet_Cy_GPIO_SetDrivemode
 905:Generated_Source\PSoC6\pdl\drivers\peripheral\gpio/cy_gpio.h **** *
 906:Generated_Source\PSoC6\pdl\drivers\peripheral\gpio/cy_gpio.h **** *******************************************************************************/
 907:Generated_Source\PSoC6\pdl\drivers\peripheral\gpio/cy_gpio.h **** __STATIC_INLINE void Cy_GPIO_SetDrivemode(GPIO_PRT_Type* base, uint32_t pinNum, uint32_t value)
 908:Generated_Source\PSoC6\pdl\drivers\peripheral\gpio/cy_gpio.h **** {
 229              		.loc 1 908 0
 230              		.cfi_startproc
 231              		@ args = 0, pretend = 0, frame = 24
 232              		@ frame_needed = 1, uses_anonymous_args = 0
 233 0000 80B5     		push	{r7, lr}
 234              		.cfi_def_cfa_offset 8
 235              		.cfi_offset 7, -8
 236              		.cfi_offset 14, -4
 237 0002 86B0     		sub	sp, sp, #24
 238              		.cfi_def_cfa_offset 32
 239 0004 00AF     		add	r7, sp, #0
 240              		.cfi_def_cfa_register 7
 241 0006 F860     		str	r0, [r7, #12]
 242 0008 B960     		str	r1, [r7, #8]
 243 000a 7A60     		str	r2, [r7, #4]
 909:Generated_Source\PSoC6\pdl\drivers\peripheral\gpio/cy_gpio.h ****     uint32_t tempReg;
 910:Generated_Source\PSoC6\pdl\drivers\peripheral\gpio/cy_gpio.h ****     uint32_t pinLoc;
 911:Generated_Source\PSoC6\pdl\drivers\peripheral\gpio/cy_gpio.h **** 
 912:Generated_Source\PSoC6\pdl\drivers\peripheral\gpio/cy_gpio.h ****     CY_ASSERT_L2(CY_GPIO_IS_PIN_VALID(pinNum));
 244              		.loc 1 912 0
 245 000c BB68     		ldr	r3, [r7, #8]
 246 000e 072B     		cmp	r3, #7
 247 0010 04D9     		bls	.L18
 248              		.loc 1 912 0 is_stmt 0 discriminator 1
 249 0012 4FF46471 		mov	r1, #912
 250 0016 1348     		ldr	r0, .L20
 251 0018 FFF7FEFF 		bl	Cy_SysLib_AssertFailed
 252              	.L18:
 913:Generated_Source\PSoC6\pdl\drivers\peripheral\gpio/cy_gpio.h ****     CY_ASSERT_L2(CY_GPIO_IS_DM_VALID(value));
 253              		.loc 1 913 0 is_stmt 1
 254 001c 7B68     		ldr	r3, [r7, #4]
 255 001e 23F00F03 		bic	r3, r3, #15
 256 0022 002B     		cmp	r3, #0
 257 0024 04D0     		beq	.L19
 258              		.loc 1 913 0 is_stmt 0 discriminator 1
 259 0026 40F29131 		movw	r1, #913
 260 002a 0E48     		ldr	r0, .L20
 261 002c FFF7FEFF 		bl	Cy_SysLib_AssertFailed
 262              	.L19:
 914:Generated_Source\PSoC6\pdl\drivers\peripheral\gpio/cy_gpio.h **** 
 915:Generated_Source\PSoC6\pdl\drivers\peripheral\gpio/cy_gpio.h ****     pinLoc = pinNum << CY_GPIO_DRIVE_MODE_OFFSET;
 263              		.loc 1 915 0 is_stmt 1
 264 0030 BB68     		ldr	r3, [r7, #8]
 265 0032 9B00     		lsls	r3, r3, #2
 266 0034 7B61     		str	r3, [r7, #20]
 916:Generated_Source\PSoC6\pdl\drivers\peripheral\gpio/cy_gpio.h ****     tempReg = (base->CFG & ~(CY_GPIO_CFG_DM_MASK << pinLoc));
 267              		.loc 1 916 0
 268 0036 FB68     		ldr	r3, [r7, #12]
 269 0038 9A6A     		ldr	r2, [r3, #40]
 270 003a 0F21     		movs	r1, #15
ARM GAS  C:\Users\ikomb\AppData\Local\Temp\ccAzoKUN.s 			page 22


 271 003c 7B69     		ldr	r3, [r7, #20]
 272 003e 01FA03F3 		lsl	r3, r1, r3
 273 0042 DB43     		mvns	r3, r3
 274 0044 1340     		ands	r3, r3, r2
 275 0046 3B61     		str	r3, [r7, #16]
 917:Generated_Source\PSoC6\pdl\drivers\peripheral\gpio/cy_gpio.h ****     base->CFG = tempReg | ((value & CY_GPIO_CFG_DM_MASK) << pinLoc);
 276              		.loc 1 917 0
 277 0048 7B68     		ldr	r3, [r7, #4]
 278 004a 03F00F02 		and	r2, r3, #15
 279 004e 7B69     		ldr	r3, [r7, #20]
 280 0050 9A40     		lsls	r2, r2, r3
 281 0052 3B69     		ldr	r3, [r7, #16]
 282 0054 1A43     		orrs	r2, r2, r3
 283 0056 FB68     		ldr	r3, [r7, #12]
 284 0058 9A62     		str	r2, [r3, #40]
 918:Generated_Source\PSoC6\pdl\drivers\peripheral\gpio/cy_gpio.h **** }
 285              		.loc 1 918 0
 286 005a 00BF     		nop
 287 005c 1837     		adds	r7, r7, #24
 288              		.cfi_def_cfa_offset 8
 289 005e BD46     		mov	sp, r7
 290              		.cfi_def_cfa_register 13
 291              		@ sp needed
 292 0060 80BD     		pop	{r7, pc}
 293              	.L21:
 294 0062 00BF     		.align	2
 295              	.L20:
 296 0064 00000000 		.word	.LC0
 297              		.cfi_endproc
 298              	.LFE134:
 299              		.size	Cy_GPIO_SetDrivemode, .-Cy_GPIO_SetDrivemode
 300              		.section	.text.Cy_GPIO_SetVtrip,"ax",%progbits
 301              		.align	2
 302              		.thumb
 303              		.thumb_func
 304              		.type	Cy_GPIO_SetVtrip, %function
 305              	Cy_GPIO_SetVtrip:
 306              	.LFB136:
 919:Generated_Source\PSoC6\pdl\drivers\peripheral\gpio/cy_gpio.h **** 
 920:Generated_Source\PSoC6\pdl\drivers\peripheral\gpio/cy_gpio.h **** 
 921:Generated_Source\PSoC6\pdl\drivers\peripheral\gpio/cy_gpio.h **** /*******************************************************************************
 922:Generated_Source\PSoC6\pdl\drivers\peripheral\gpio/cy_gpio.h **** * Function Name: Cy_GPIO_GetDrivemode
 923:Generated_Source\PSoC6\pdl\drivers\peripheral\gpio/cy_gpio.h **** ****************************************************************************//**
 924:Generated_Source\PSoC6\pdl\drivers\peripheral\gpio/cy_gpio.h **** *
 925:Generated_Source\PSoC6\pdl\drivers\peripheral\gpio/cy_gpio.h **** * \brief Returns the pin output buffer drive mode and input buffer enable state.
 926:Generated_Source\PSoC6\pdl\drivers\peripheral\gpio/cy_gpio.h **** *
 927:Generated_Source\PSoC6\pdl\drivers\peripheral\gpio/cy_gpio.h **** * \param base
 928:Generated_Source\PSoC6\pdl\drivers\peripheral\gpio/cy_gpio.h **** * Pointer to the pin's port register base address
 929:Generated_Source\PSoC6\pdl\drivers\peripheral\gpio/cy_gpio.h **** *
 930:Generated_Source\PSoC6\pdl\drivers\peripheral\gpio/cy_gpio.h **** * \param pinNum
 931:Generated_Source\PSoC6\pdl\drivers\peripheral\gpio/cy_gpio.h **** * Position of the pin bit-field within the port register
 932:Generated_Source\PSoC6\pdl\drivers\peripheral\gpio/cy_gpio.h **** *
 933:Generated_Source\PSoC6\pdl\drivers\peripheral\gpio/cy_gpio.h **** * \return
 934:Generated_Source\PSoC6\pdl\drivers\peripheral\gpio/cy_gpio.h **** * Pin drive mode. Options are detailed in \ref group_gpio_driveModes macros
 935:Generated_Source\PSoC6\pdl\drivers\peripheral\gpio/cy_gpio.h **** *
 936:Generated_Source\PSoC6\pdl\drivers\peripheral\gpio/cy_gpio.h **** * \funcusage
 937:Generated_Source\PSoC6\pdl\drivers\peripheral\gpio/cy_gpio.h **** * \snippet gpio/gpio_v1_10_sut_01.cydsn/main_cm4.c snippet_Cy_GPIO_SetDrivemode
ARM GAS  C:\Users\ikomb\AppData\Local\Temp\ccAzoKUN.s 			page 23


 938:Generated_Source\PSoC6\pdl\drivers\peripheral\gpio/cy_gpio.h **** *
 939:Generated_Source\PSoC6\pdl\drivers\peripheral\gpio/cy_gpio.h **** *******************************************************************************/
 940:Generated_Source\PSoC6\pdl\drivers\peripheral\gpio/cy_gpio.h **** __STATIC_INLINE uint32_t Cy_GPIO_GetDrivemode(GPIO_PRT_Type* base, uint32_t pinNum)
 941:Generated_Source\PSoC6\pdl\drivers\peripheral\gpio/cy_gpio.h **** {
 942:Generated_Source\PSoC6\pdl\drivers\peripheral\gpio/cy_gpio.h ****     CY_ASSERT_L2(CY_GPIO_IS_PIN_VALID(pinNum));
 943:Generated_Source\PSoC6\pdl\drivers\peripheral\gpio/cy_gpio.h ****     
 944:Generated_Source\PSoC6\pdl\drivers\peripheral\gpio/cy_gpio.h ****     return (base->CFG >> (pinNum << CY_GPIO_DRIVE_MODE_OFFSET)) & CY_GPIO_CFG_DM_MASK;
 945:Generated_Source\PSoC6\pdl\drivers\peripheral\gpio/cy_gpio.h **** }
 946:Generated_Source\PSoC6\pdl\drivers\peripheral\gpio/cy_gpio.h **** 
 947:Generated_Source\PSoC6\pdl\drivers\peripheral\gpio/cy_gpio.h **** 
 948:Generated_Source\PSoC6\pdl\drivers\peripheral\gpio/cy_gpio.h **** /*******************************************************************************
 949:Generated_Source\PSoC6\pdl\drivers\peripheral\gpio/cy_gpio.h **** * Function Name: Cy_GPIO_SetVtrip
 950:Generated_Source\PSoC6\pdl\drivers\peripheral\gpio/cy_gpio.h **** ****************************************************************************//**
 951:Generated_Source\PSoC6\pdl\drivers\peripheral\gpio/cy_gpio.h **** *
 952:Generated_Source\PSoC6\pdl\drivers\peripheral\gpio/cy_gpio.h **** * \brief Configures the GPIO pin input buffer voltage threshold mode.
 953:Generated_Source\PSoC6\pdl\drivers\peripheral\gpio/cy_gpio.h **** *
 954:Generated_Source\PSoC6\pdl\drivers\peripheral\gpio/cy_gpio.h **** * \param base
 955:Generated_Source\PSoC6\pdl\drivers\peripheral\gpio/cy_gpio.h **** * Pointer to the pin's port register base address
 956:Generated_Source\PSoC6\pdl\drivers\peripheral\gpio/cy_gpio.h **** *
 957:Generated_Source\PSoC6\pdl\drivers\peripheral\gpio/cy_gpio.h **** * \param pinNum
 958:Generated_Source\PSoC6\pdl\drivers\peripheral\gpio/cy_gpio.h **** * Position of the pin bit-field within the port register
 959:Generated_Source\PSoC6\pdl\drivers\peripheral\gpio/cy_gpio.h **** *
 960:Generated_Source\PSoC6\pdl\drivers\peripheral\gpio/cy_gpio.h **** * \param value
 961:Generated_Source\PSoC6\pdl\drivers\peripheral\gpio/cy_gpio.h **** * Pin voltage threshold mode. Options are detailed in \ref group_gpio_vtrip macros
 962:Generated_Source\PSoC6\pdl\drivers\peripheral\gpio/cy_gpio.h **** *
 963:Generated_Source\PSoC6\pdl\drivers\peripheral\gpio/cy_gpio.h **** * \return
 964:Generated_Source\PSoC6\pdl\drivers\peripheral\gpio/cy_gpio.h **** * void
 965:Generated_Source\PSoC6\pdl\drivers\peripheral\gpio/cy_gpio.h **** *
 966:Generated_Source\PSoC6\pdl\drivers\peripheral\gpio/cy_gpio.h **** * \note 
 967:Generated_Source\PSoC6\pdl\drivers\peripheral\gpio/cy_gpio.h **** * This function modifies a port register in a read-modify-write operation. It is
 968:Generated_Source\PSoC6\pdl\drivers\peripheral\gpio/cy_gpio.h **** * not thread safe as the resource is shared among multiple pins on a port.
 969:Generated_Source\PSoC6\pdl\drivers\peripheral\gpio/cy_gpio.h **** *
 970:Generated_Source\PSoC6\pdl\drivers\peripheral\gpio/cy_gpio.h **** * \funcusage
 971:Generated_Source\PSoC6\pdl\drivers\peripheral\gpio/cy_gpio.h **** * \snippet gpio/gpio_v1_10_sut_01.cydsn/main_cm4.c snippet_Cy_GPIO_SetVtrip
 972:Generated_Source\PSoC6\pdl\drivers\peripheral\gpio/cy_gpio.h **** *
 973:Generated_Source\PSoC6\pdl\drivers\peripheral\gpio/cy_gpio.h **** *******************************************************************************/
 974:Generated_Source\PSoC6\pdl\drivers\peripheral\gpio/cy_gpio.h **** __STATIC_INLINE void Cy_GPIO_SetVtrip(GPIO_PRT_Type* base, uint32_t pinNum, uint32_t value)
 975:Generated_Source\PSoC6\pdl\drivers\peripheral\gpio/cy_gpio.h **** {
 307              		.loc 1 975 0
 308              		.cfi_startproc
 309              		@ args = 0, pretend = 0, frame = 24
 310              		@ frame_needed = 1, uses_anonymous_args = 0
 311 0000 80B5     		push	{r7, lr}
 312              		.cfi_def_cfa_offset 8
 313              		.cfi_offset 7, -8
 314              		.cfi_offset 14, -4
 315 0002 86B0     		sub	sp, sp, #24
 316              		.cfi_def_cfa_offset 32
 317 0004 00AF     		add	r7, sp, #0
 318              		.cfi_def_cfa_register 7
 319 0006 F860     		str	r0, [r7, #12]
 320 0008 B960     		str	r1, [r7, #8]
 321 000a 7A60     		str	r2, [r7, #4]
 976:Generated_Source\PSoC6\pdl\drivers\peripheral\gpio/cy_gpio.h ****     uint32_t tempReg;
 977:Generated_Source\PSoC6\pdl\drivers\peripheral\gpio/cy_gpio.h **** 
 978:Generated_Source\PSoC6\pdl\drivers\peripheral\gpio/cy_gpio.h ****     CY_ASSERT_L2(CY_GPIO_IS_PIN_VALID(pinNum));
 322              		.loc 1 978 0
ARM GAS  C:\Users\ikomb\AppData\Local\Temp\ccAzoKUN.s 			page 24


 323 000c BB68     		ldr	r3, [r7, #8]
 324 000e 072B     		cmp	r3, #7
 325 0010 04D9     		bls	.L23
 326              		.loc 1 978 0 is_stmt 0 discriminator 1
 327 0012 40F2D231 		movw	r1, #978
 328 0016 1048     		ldr	r0, .L25
 329 0018 FFF7FEFF 		bl	Cy_SysLib_AssertFailed
 330              	.L23:
 979:Generated_Source\PSoC6\pdl\drivers\peripheral\gpio/cy_gpio.h ****     CY_ASSERT_L2(CY_GPIO_IS_VALUE_VALID(value));
 331              		.loc 1 979 0 is_stmt 1
 332 001c 7B68     		ldr	r3, [r7, #4]
 333 001e 012B     		cmp	r3, #1
 334 0020 04D9     		bls	.L24
 335              		.loc 1 979 0 is_stmt 0 discriminator 1
 336 0022 40F2D331 		movw	r1, #979
 337 0026 0C48     		ldr	r0, .L25
 338 0028 FFF7FEFF 		bl	Cy_SysLib_AssertFailed
 339              	.L24:
 980:Generated_Source\PSoC6\pdl\drivers\peripheral\gpio/cy_gpio.h **** 
 981:Generated_Source\PSoC6\pdl\drivers\peripheral\gpio/cy_gpio.h ****     tempReg = base->CFG_IN & ~(CY_GPIO_CFG_IN_VTRIP_SEL_MASK << pinNum);
 340              		.loc 1 981 0 is_stmt 1
 341 002c FB68     		ldr	r3, [r7, #12]
 342 002e DA6A     		ldr	r2, [r3, #44]
 343 0030 0121     		movs	r1, #1
 344 0032 BB68     		ldr	r3, [r7, #8]
 345 0034 01FA03F3 		lsl	r3, r1, r3
 346 0038 DB43     		mvns	r3, r3
 347 003a 1340     		ands	r3, r3, r2
 348 003c 7B61     		str	r3, [r7, #20]
 982:Generated_Source\PSoC6\pdl\drivers\peripheral\gpio/cy_gpio.h ****     base->CFG_IN = tempReg | ((value & CY_GPIO_CFG_IN_VTRIP_SEL_MASK) << pinNum);
 349              		.loc 1 982 0
 350 003e 7B68     		ldr	r3, [r7, #4]
 351 0040 03F00102 		and	r2, r3, #1
 352 0044 BB68     		ldr	r3, [r7, #8]
 353 0046 9A40     		lsls	r2, r2, r3
 354 0048 7B69     		ldr	r3, [r7, #20]
 355 004a 1A43     		orrs	r2, r2, r3
 356 004c FB68     		ldr	r3, [r7, #12]
 357 004e DA62     		str	r2, [r3, #44]
 983:Generated_Source\PSoC6\pdl\drivers\peripheral\gpio/cy_gpio.h **** }
 358              		.loc 1 983 0
 359 0050 00BF     		nop
 360 0052 1837     		adds	r7, r7, #24
 361              		.cfi_def_cfa_offset 8
 362 0054 BD46     		mov	sp, r7
 363              		.cfi_def_cfa_register 13
 364              		@ sp needed
 365 0056 80BD     		pop	{r7, pc}
 366              	.L26:
 367              		.align	2
 368              	.L25:
 369 0058 00000000 		.word	.LC0
 370              		.cfi_endproc
 371              	.LFE136:
 372              		.size	Cy_GPIO_SetVtrip, .-Cy_GPIO_SetVtrip
 373              		.section	.text.Cy_GPIO_SetInterruptMask,"ax",%progbits
 374              		.align	2
ARM GAS  C:\Users\ikomb\AppData\Local\Temp\ccAzoKUN.s 			page 25


 375              		.thumb
 376              		.thumb_func
 377              		.type	Cy_GPIO_SetInterruptMask, %function
 378              	Cy_GPIO_SetInterruptMask:
 379              	.LFB154:
 984:Generated_Source\PSoC6\pdl\drivers\peripheral\gpio/cy_gpio.h **** 
 985:Generated_Source\PSoC6\pdl\drivers\peripheral\gpio/cy_gpio.h **** 
 986:Generated_Source\PSoC6\pdl\drivers\peripheral\gpio/cy_gpio.h **** /*******************************************************************************
 987:Generated_Source\PSoC6\pdl\drivers\peripheral\gpio/cy_gpio.h **** * Function Name: Cy_GPIO_GetVtrip
 988:Generated_Source\PSoC6\pdl\drivers\peripheral\gpio/cy_gpio.h **** ****************************************************************************//**
 989:Generated_Source\PSoC6\pdl\drivers\peripheral\gpio/cy_gpio.h **** *
 990:Generated_Source\PSoC6\pdl\drivers\peripheral\gpio/cy_gpio.h **** * \brief Returns the pin input buffer voltage threshold mode.
 991:Generated_Source\PSoC6\pdl\drivers\peripheral\gpio/cy_gpio.h **** *
 992:Generated_Source\PSoC6\pdl\drivers\peripheral\gpio/cy_gpio.h **** * \param base
 993:Generated_Source\PSoC6\pdl\drivers\peripheral\gpio/cy_gpio.h **** * Pointer to the pin's port register base address
 994:Generated_Source\PSoC6\pdl\drivers\peripheral\gpio/cy_gpio.h **** *
 995:Generated_Source\PSoC6\pdl\drivers\peripheral\gpio/cy_gpio.h **** * \param pinNum
 996:Generated_Source\PSoC6\pdl\drivers\peripheral\gpio/cy_gpio.h **** * Position of the pin bit-field within the port register
 997:Generated_Source\PSoC6\pdl\drivers\peripheral\gpio/cy_gpio.h **** *
 998:Generated_Source\PSoC6\pdl\drivers\peripheral\gpio/cy_gpio.h **** * \return
 999:Generated_Source\PSoC6\pdl\drivers\peripheral\gpio/cy_gpio.h **** * Pin voltage threshold mode. Options are detailed in \ref group_gpio_vtrip macros
1000:Generated_Source\PSoC6\pdl\drivers\peripheral\gpio/cy_gpio.h **** *
1001:Generated_Source\PSoC6\pdl\drivers\peripheral\gpio/cy_gpio.h **** * \funcusage
1002:Generated_Source\PSoC6\pdl\drivers\peripheral\gpio/cy_gpio.h **** * \snippet gpio/gpio_v1_10_sut_01.cydsn/main_cm4.c snippet_Cy_GPIO_SetVtrip
1003:Generated_Source\PSoC6\pdl\drivers\peripheral\gpio/cy_gpio.h **** *
1004:Generated_Source\PSoC6\pdl\drivers\peripheral\gpio/cy_gpio.h **** *******************************************************************************/
1005:Generated_Source\PSoC6\pdl\drivers\peripheral\gpio/cy_gpio.h **** __STATIC_INLINE uint32_t Cy_GPIO_GetVtrip(GPIO_PRT_Type* base, uint32_t pinNum)
1006:Generated_Source\PSoC6\pdl\drivers\peripheral\gpio/cy_gpio.h **** {
1007:Generated_Source\PSoC6\pdl\drivers\peripheral\gpio/cy_gpio.h ****     CY_ASSERT_L2(CY_GPIO_IS_PIN_VALID(pinNum));
1008:Generated_Source\PSoC6\pdl\drivers\peripheral\gpio/cy_gpio.h ****     
1009:Generated_Source\PSoC6\pdl\drivers\peripheral\gpio/cy_gpio.h ****     return (base->CFG_IN >> pinNum) & CY_GPIO_CFG_IN_VTRIP_SEL_MASK;
1010:Generated_Source\PSoC6\pdl\drivers\peripheral\gpio/cy_gpio.h **** }
1011:Generated_Source\PSoC6\pdl\drivers\peripheral\gpio/cy_gpio.h **** 
1012:Generated_Source\PSoC6\pdl\drivers\peripheral\gpio/cy_gpio.h **** 
1013:Generated_Source\PSoC6\pdl\drivers\peripheral\gpio/cy_gpio.h **** /*******************************************************************************
1014:Generated_Source\PSoC6\pdl\drivers\peripheral\gpio/cy_gpio.h **** * Function Name: Cy_GPIO_SetSlewRate
1015:Generated_Source\PSoC6\pdl\drivers\peripheral\gpio/cy_gpio.h **** ****************************************************************************//**
1016:Generated_Source\PSoC6\pdl\drivers\peripheral\gpio/cy_gpio.h **** *
1017:Generated_Source\PSoC6\pdl\drivers\peripheral\gpio/cy_gpio.h **** * \brief Configures the pin output buffer slew rate.
1018:Generated_Source\PSoC6\pdl\drivers\peripheral\gpio/cy_gpio.h **** *
1019:Generated_Source\PSoC6\pdl\drivers\peripheral\gpio/cy_gpio.h **** * \param base
1020:Generated_Source\PSoC6\pdl\drivers\peripheral\gpio/cy_gpio.h **** * Pointer to the pin's port register base address
1021:Generated_Source\PSoC6\pdl\drivers\peripheral\gpio/cy_gpio.h **** *
1022:Generated_Source\PSoC6\pdl\drivers\peripheral\gpio/cy_gpio.h **** * \param pinNum
1023:Generated_Source\PSoC6\pdl\drivers\peripheral\gpio/cy_gpio.h **** * Position of the pin bit-field within the port register
1024:Generated_Source\PSoC6\pdl\drivers\peripheral\gpio/cy_gpio.h **** *
1025:Generated_Source\PSoC6\pdl\drivers\peripheral\gpio/cy_gpio.h **** * \param value
1026:Generated_Source\PSoC6\pdl\drivers\peripheral\gpio/cy_gpio.h **** * Pin slew rate. Options are detailed in \ref group_gpio_slewRate macros
1027:Generated_Source\PSoC6\pdl\drivers\peripheral\gpio/cy_gpio.h **** *
1028:Generated_Source\PSoC6\pdl\drivers\peripheral\gpio/cy_gpio.h **** * \return
1029:Generated_Source\PSoC6\pdl\drivers\peripheral\gpio/cy_gpio.h **** * void
1030:Generated_Source\PSoC6\pdl\drivers\peripheral\gpio/cy_gpio.h **** *
1031:Generated_Source\PSoC6\pdl\drivers\peripheral\gpio/cy_gpio.h **** * \note 
1032:Generated_Source\PSoC6\pdl\drivers\peripheral\gpio/cy_gpio.h **** * This function modifies a port register in a read-modify-write operation. It is
1033:Generated_Source\PSoC6\pdl\drivers\peripheral\gpio/cy_gpio.h **** * not thread safe as the resource is shared among multiple pins on a port.
1034:Generated_Source\PSoC6\pdl\drivers\peripheral\gpio/cy_gpio.h **** *
1035:Generated_Source\PSoC6\pdl\drivers\peripheral\gpio/cy_gpio.h **** * \funcusage
ARM GAS  C:\Users\ikomb\AppData\Local\Temp\ccAzoKUN.s 			page 26


1036:Generated_Source\PSoC6\pdl\drivers\peripheral\gpio/cy_gpio.h **** * \snippet gpio/gpio_v1_10_sut_01.cydsn/main_cm4.c snippet_Cy_GPIO_SetSlewRate
1037:Generated_Source\PSoC6\pdl\drivers\peripheral\gpio/cy_gpio.h **** *
1038:Generated_Source\PSoC6\pdl\drivers\peripheral\gpio/cy_gpio.h **** *******************************************************************************/
1039:Generated_Source\PSoC6\pdl\drivers\peripheral\gpio/cy_gpio.h **** __STATIC_INLINE void Cy_GPIO_SetSlewRate(GPIO_PRT_Type* base, uint32_t pinNum, uint32_t value)
1040:Generated_Source\PSoC6\pdl\drivers\peripheral\gpio/cy_gpio.h **** {
1041:Generated_Source\PSoC6\pdl\drivers\peripheral\gpio/cy_gpio.h ****     uint32_t tempReg;
1042:Generated_Source\PSoC6\pdl\drivers\peripheral\gpio/cy_gpio.h **** 
1043:Generated_Source\PSoC6\pdl\drivers\peripheral\gpio/cy_gpio.h ****     CY_ASSERT_L2(CY_GPIO_IS_PIN_VALID(pinNum));
1044:Generated_Source\PSoC6\pdl\drivers\peripheral\gpio/cy_gpio.h ****     CY_ASSERT_L2(CY_GPIO_IS_VALUE_VALID(value));
1045:Generated_Source\PSoC6\pdl\drivers\peripheral\gpio/cy_gpio.h **** 
1046:Generated_Source\PSoC6\pdl\drivers\peripheral\gpio/cy_gpio.h ****     tempReg = base->CFG_OUT & ~(CY_GPIO_CFG_OUT_SLOW_MASK << pinNum);
1047:Generated_Source\PSoC6\pdl\drivers\peripheral\gpio/cy_gpio.h ****     base->CFG_OUT = tempReg | ((value & CY_GPIO_CFG_OUT_SLOW_MASK) << pinNum);
1048:Generated_Source\PSoC6\pdl\drivers\peripheral\gpio/cy_gpio.h **** }
1049:Generated_Source\PSoC6\pdl\drivers\peripheral\gpio/cy_gpio.h **** 
1050:Generated_Source\PSoC6\pdl\drivers\peripheral\gpio/cy_gpio.h **** 
1051:Generated_Source\PSoC6\pdl\drivers\peripheral\gpio/cy_gpio.h **** /*******************************************************************************
1052:Generated_Source\PSoC6\pdl\drivers\peripheral\gpio/cy_gpio.h **** * Function Name: Cy_GPIO_GetSlewRate
1053:Generated_Source\PSoC6\pdl\drivers\peripheral\gpio/cy_gpio.h **** ****************************************************************************//**
1054:Generated_Source\PSoC6\pdl\drivers\peripheral\gpio/cy_gpio.h **** *
1055:Generated_Source\PSoC6\pdl\drivers\peripheral\gpio/cy_gpio.h **** * \brief Returns the pin output buffer slew rate.
1056:Generated_Source\PSoC6\pdl\drivers\peripheral\gpio/cy_gpio.h **** *
1057:Generated_Source\PSoC6\pdl\drivers\peripheral\gpio/cy_gpio.h **** * \param base
1058:Generated_Source\PSoC6\pdl\drivers\peripheral\gpio/cy_gpio.h **** * Pointer to the pin's port register base address
1059:Generated_Source\PSoC6\pdl\drivers\peripheral\gpio/cy_gpio.h **** *
1060:Generated_Source\PSoC6\pdl\drivers\peripheral\gpio/cy_gpio.h **** * \param pinNum
1061:Generated_Source\PSoC6\pdl\drivers\peripheral\gpio/cy_gpio.h **** * Position of the pin bit-field within the port register
1062:Generated_Source\PSoC6\pdl\drivers\peripheral\gpio/cy_gpio.h **** *
1063:Generated_Source\PSoC6\pdl\drivers\peripheral\gpio/cy_gpio.h **** * \return
1064:Generated_Source\PSoC6\pdl\drivers\peripheral\gpio/cy_gpio.h **** * Pin slew rate. Options are detailed in \ref group_gpio_slewRate macros
1065:Generated_Source\PSoC6\pdl\drivers\peripheral\gpio/cy_gpio.h **** *
1066:Generated_Source\PSoC6\pdl\drivers\peripheral\gpio/cy_gpio.h **** * \funcusage
1067:Generated_Source\PSoC6\pdl\drivers\peripheral\gpio/cy_gpio.h **** * \snippet gpio/gpio_v1_10_sut_01.cydsn/main_cm4.c snippet_Cy_GPIO_SetSlewRate
1068:Generated_Source\PSoC6\pdl\drivers\peripheral\gpio/cy_gpio.h **** *
1069:Generated_Source\PSoC6\pdl\drivers\peripheral\gpio/cy_gpio.h **** *******************************************************************************/
1070:Generated_Source\PSoC6\pdl\drivers\peripheral\gpio/cy_gpio.h **** __STATIC_INLINE uint32_t Cy_GPIO_GetSlewRate(GPIO_PRT_Type* base, uint32_t pinNum)
1071:Generated_Source\PSoC6\pdl\drivers\peripheral\gpio/cy_gpio.h **** {
1072:Generated_Source\PSoC6\pdl\drivers\peripheral\gpio/cy_gpio.h ****     CY_ASSERT_L2(CY_GPIO_IS_PIN_VALID(pinNum));
1073:Generated_Source\PSoC6\pdl\drivers\peripheral\gpio/cy_gpio.h **** 
1074:Generated_Source\PSoC6\pdl\drivers\peripheral\gpio/cy_gpio.h ****     return (base->CFG_OUT >> pinNum) & CY_GPIO_CFG_OUT_SLOW_MASK;
1075:Generated_Source\PSoC6\pdl\drivers\peripheral\gpio/cy_gpio.h **** }
1076:Generated_Source\PSoC6\pdl\drivers\peripheral\gpio/cy_gpio.h **** 
1077:Generated_Source\PSoC6\pdl\drivers\peripheral\gpio/cy_gpio.h **** 
1078:Generated_Source\PSoC6\pdl\drivers\peripheral\gpio/cy_gpio.h **** /*******************************************************************************
1079:Generated_Source\PSoC6\pdl\drivers\peripheral\gpio/cy_gpio.h **** * Function Name: Cy_GPIO_SetDriveSel
1080:Generated_Source\PSoC6\pdl\drivers\peripheral\gpio/cy_gpio.h **** ****************************************************************************//**
1081:Generated_Source\PSoC6\pdl\drivers\peripheral\gpio/cy_gpio.h **** *
1082:Generated_Source\PSoC6\pdl\drivers\peripheral\gpio/cy_gpio.h **** * \brief Configures the pin output buffer drive strength.
1083:Generated_Source\PSoC6\pdl\drivers\peripheral\gpio/cy_gpio.h **** *
1084:Generated_Source\PSoC6\pdl\drivers\peripheral\gpio/cy_gpio.h **** * \param base
1085:Generated_Source\PSoC6\pdl\drivers\peripheral\gpio/cy_gpio.h **** * Pointer to the pin's port register base address
1086:Generated_Source\PSoC6\pdl\drivers\peripheral\gpio/cy_gpio.h **** *
1087:Generated_Source\PSoC6\pdl\drivers\peripheral\gpio/cy_gpio.h **** * \param pinNum
1088:Generated_Source\PSoC6\pdl\drivers\peripheral\gpio/cy_gpio.h **** * Position of the pin bit-field within the port register
1089:Generated_Source\PSoC6\pdl\drivers\peripheral\gpio/cy_gpio.h **** *
1090:Generated_Source\PSoC6\pdl\drivers\peripheral\gpio/cy_gpio.h **** * \param value
1091:Generated_Source\PSoC6\pdl\drivers\peripheral\gpio/cy_gpio.h **** * Pin drive strength. Options are detailed in \ref group_gpio_driveStrength macros
1092:Generated_Source\PSoC6\pdl\drivers\peripheral\gpio/cy_gpio.h **** *
ARM GAS  C:\Users\ikomb\AppData\Local\Temp\ccAzoKUN.s 			page 27


1093:Generated_Source\PSoC6\pdl\drivers\peripheral\gpio/cy_gpio.h **** * \return
1094:Generated_Source\PSoC6\pdl\drivers\peripheral\gpio/cy_gpio.h **** * void
1095:Generated_Source\PSoC6\pdl\drivers\peripheral\gpio/cy_gpio.h **** *
1096:Generated_Source\PSoC6\pdl\drivers\peripheral\gpio/cy_gpio.h **** * \note 
1097:Generated_Source\PSoC6\pdl\drivers\peripheral\gpio/cy_gpio.h **** * This function modifies a port register in a read-modify-write operation. It is
1098:Generated_Source\PSoC6\pdl\drivers\peripheral\gpio/cy_gpio.h **** * not thread safe as the resource is shared among multiple pins on a port.
1099:Generated_Source\PSoC6\pdl\drivers\peripheral\gpio/cy_gpio.h **** *
1100:Generated_Source\PSoC6\pdl\drivers\peripheral\gpio/cy_gpio.h **** * \funcusage
1101:Generated_Source\PSoC6\pdl\drivers\peripheral\gpio/cy_gpio.h **** * \snippet gpio/gpio_v1_10_sut_01.cydsn/main_cm4.c snippet_Cy_GPIO_SetDriveSel
1102:Generated_Source\PSoC6\pdl\drivers\peripheral\gpio/cy_gpio.h **** *
1103:Generated_Source\PSoC6\pdl\drivers\peripheral\gpio/cy_gpio.h **** *******************************************************************************/
1104:Generated_Source\PSoC6\pdl\drivers\peripheral\gpio/cy_gpio.h **** __STATIC_INLINE void Cy_GPIO_SetDriveSel(GPIO_PRT_Type* base, uint32_t pinNum, uint32_t value)
1105:Generated_Source\PSoC6\pdl\drivers\peripheral\gpio/cy_gpio.h **** {
1106:Generated_Source\PSoC6\pdl\drivers\peripheral\gpio/cy_gpio.h ****     uint32_t tempReg;
1107:Generated_Source\PSoC6\pdl\drivers\peripheral\gpio/cy_gpio.h ****     uint32_t pinLoc;
1108:Generated_Source\PSoC6\pdl\drivers\peripheral\gpio/cy_gpio.h **** 
1109:Generated_Source\PSoC6\pdl\drivers\peripheral\gpio/cy_gpio.h ****     CY_ASSERT_L2(CY_GPIO_IS_PIN_VALID(pinNum));
1110:Generated_Source\PSoC6\pdl\drivers\peripheral\gpio/cy_gpio.h ****     CY_ASSERT_L2(CY_GPIO_IS_DRIVE_SEL_VALID(value));
1111:Generated_Source\PSoC6\pdl\drivers\peripheral\gpio/cy_gpio.h ****     
1112:Generated_Source\PSoC6\pdl\drivers\peripheral\gpio/cy_gpio.h ****     pinLoc = (uint32_t)(pinNum << 1u) + CY_GPIO_CFG_OUT_DRIVE_OFFSET;
1113:Generated_Source\PSoC6\pdl\drivers\peripheral\gpio/cy_gpio.h ****     tempReg = base->CFG_OUT & ~(CY_GPIO_CFG_OUT_DRIVE_SEL_MASK << pinLoc);
1114:Generated_Source\PSoC6\pdl\drivers\peripheral\gpio/cy_gpio.h ****     base->CFG_OUT = tempReg | ((value & CY_GPIO_CFG_OUT_DRIVE_SEL_MASK) << pinLoc);
1115:Generated_Source\PSoC6\pdl\drivers\peripheral\gpio/cy_gpio.h **** }
1116:Generated_Source\PSoC6\pdl\drivers\peripheral\gpio/cy_gpio.h **** 
1117:Generated_Source\PSoC6\pdl\drivers\peripheral\gpio/cy_gpio.h **** 
1118:Generated_Source\PSoC6\pdl\drivers\peripheral\gpio/cy_gpio.h **** /*******************************************************************************
1119:Generated_Source\PSoC6\pdl\drivers\peripheral\gpio/cy_gpio.h **** * Function Name: Cy_GPIO_GetDriveSel
1120:Generated_Source\PSoC6\pdl\drivers\peripheral\gpio/cy_gpio.h **** ****************************************************************************//**
1121:Generated_Source\PSoC6\pdl\drivers\peripheral\gpio/cy_gpio.h **** *
1122:Generated_Source\PSoC6\pdl\drivers\peripheral\gpio/cy_gpio.h **** * \brief Returns the pin output buffer drive strength.
1123:Generated_Source\PSoC6\pdl\drivers\peripheral\gpio/cy_gpio.h **** *
1124:Generated_Source\PSoC6\pdl\drivers\peripheral\gpio/cy_gpio.h **** * \param base
1125:Generated_Source\PSoC6\pdl\drivers\peripheral\gpio/cy_gpio.h **** * Pointer to the pin's port register base address
1126:Generated_Source\PSoC6\pdl\drivers\peripheral\gpio/cy_gpio.h **** *
1127:Generated_Source\PSoC6\pdl\drivers\peripheral\gpio/cy_gpio.h **** * \param pinNum
1128:Generated_Source\PSoC6\pdl\drivers\peripheral\gpio/cy_gpio.h **** * Position of the pin bit-field within the port register
1129:Generated_Source\PSoC6\pdl\drivers\peripheral\gpio/cy_gpio.h **** *
1130:Generated_Source\PSoC6\pdl\drivers\peripheral\gpio/cy_gpio.h **** * \return
1131:Generated_Source\PSoC6\pdl\drivers\peripheral\gpio/cy_gpio.h **** * Pin drive strength. Options are detailed in \ref group_gpio_driveStrength macros
1132:Generated_Source\PSoC6\pdl\drivers\peripheral\gpio/cy_gpio.h **** *
1133:Generated_Source\PSoC6\pdl\drivers\peripheral\gpio/cy_gpio.h **** * \funcusage
1134:Generated_Source\PSoC6\pdl\drivers\peripheral\gpio/cy_gpio.h **** * \snippet gpio/gpio_v1_10_sut_01.cydsn/main_cm4.c snippet_Cy_GPIO_SetDriveSel
1135:Generated_Source\PSoC6\pdl\drivers\peripheral\gpio/cy_gpio.h **** *
1136:Generated_Source\PSoC6\pdl\drivers\peripheral\gpio/cy_gpio.h **** *******************************************************************************/
1137:Generated_Source\PSoC6\pdl\drivers\peripheral\gpio/cy_gpio.h **** __STATIC_INLINE uint32_t Cy_GPIO_GetDriveSel(GPIO_PRT_Type* base, uint32_t pinNum)
1138:Generated_Source\PSoC6\pdl\drivers\peripheral\gpio/cy_gpio.h **** {
1139:Generated_Source\PSoC6\pdl\drivers\peripheral\gpio/cy_gpio.h ****     CY_ASSERT_L2(CY_GPIO_IS_PIN_VALID(pinNum));
1140:Generated_Source\PSoC6\pdl\drivers\peripheral\gpio/cy_gpio.h **** 
1141:Generated_Source\PSoC6\pdl\drivers\peripheral\gpio/cy_gpio.h ****     return ((base->CFG_OUT >> ((uint32_t)(pinNum << 1u) + CY_GPIO_CFG_OUT_DRIVE_OFFSET)) 
1142:Generated_Source\PSoC6\pdl\drivers\peripheral\gpio/cy_gpio.h ****             & CY_GPIO_CFG_OUT_DRIVE_SEL_MASK);
1143:Generated_Source\PSoC6\pdl\drivers\peripheral\gpio/cy_gpio.h **** }
1144:Generated_Source\PSoC6\pdl\drivers\peripheral\gpio/cy_gpio.h **** 
1145:Generated_Source\PSoC6\pdl\drivers\peripheral\gpio/cy_gpio.h **** /** \} group_gpio_functions_gpio */
1146:Generated_Source\PSoC6\pdl\drivers\peripheral\gpio/cy_gpio.h **** 
1147:Generated_Source\PSoC6\pdl\drivers\peripheral\gpio/cy_gpio.h **** /**
1148:Generated_Source\PSoC6\pdl\drivers\peripheral\gpio/cy_gpio.h **** * \addtogroup group_gpio_functions_sio
1149:Generated_Source\PSoC6\pdl\drivers\peripheral\gpio/cy_gpio.h **** * \{
ARM GAS  C:\Users\ikomb\AppData\Local\Temp\ccAzoKUN.s 			page 28


1150:Generated_Source\PSoC6\pdl\drivers\peripheral\gpio/cy_gpio.h **** */
1151:Generated_Source\PSoC6\pdl\drivers\peripheral\gpio/cy_gpio.h **** 
1152:Generated_Source\PSoC6\pdl\drivers\peripheral\gpio/cy_gpio.h **** /*******************************************************************************
1153:Generated_Source\PSoC6\pdl\drivers\peripheral\gpio/cy_gpio.h **** * Function Name: Cy_GPIO_SetVregEn
1154:Generated_Source\PSoC6\pdl\drivers\peripheral\gpio/cy_gpio.h **** ****************************************************************************//**
1155:Generated_Source\PSoC6\pdl\drivers\peripheral\gpio/cy_gpio.h **** *
1156:Generated_Source\PSoC6\pdl\drivers\peripheral\gpio/cy_gpio.h **** * \brief Configures the SIO pin pair output buffer regulation mode.
1157:Generated_Source\PSoC6\pdl\drivers\peripheral\gpio/cy_gpio.h **** *
1158:Generated_Source\PSoC6\pdl\drivers\peripheral\gpio/cy_gpio.h **** * Note that this function has no effect on non-SIO pins.
1159:Generated_Source\PSoC6\pdl\drivers\peripheral\gpio/cy_gpio.h **** *
1160:Generated_Source\PSoC6\pdl\drivers\peripheral\gpio/cy_gpio.h **** * \param base
1161:Generated_Source\PSoC6\pdl\drivers\peripheral\gpio/cy_gpio.h **** * Pointer to the pin's port register base address
1162:Generated_Source\PSoC6\pdl\drivers\peripheral\gpio/cy_gpio.h **** *
1163:Generated_Source\PSoC6\pdl\drivers\peripheral\gpio/cy_gpio.h **** * \param pinNum
1164:Generated_Source\PSoC6\pdl\drivers\peripheral\gpio/cy_gpio.h **** * Position of the pin bit-field within the port register
1165:Generated_Source\PSoC6\pdl\drivers\peripheral\gpio/cy_gpio.h **** *
1166:Generated_Source\PSoC6\pdl\drivers\peripheral\gpio/cy_gpio.h **** * \param value
1167:Generated_Source\PSoC6\pdl\drivers\peripheral\gpio/cy_gpio.h **** * SIO pair output buffer regulator mode. Options are detailed in \ref group_gpio_sioVreg macros
1168:Generated_Source\PSoC6\pdl\drivers\peripheral\gpio/cy_gpio.h **** *
1169:Generated_Source\PSoC6\pdl\drivers\peripheral\gpio/cy_gpio.h **** * \return
1170:Generated_Source\PSoC6\pdl\drivers\peripheral\gpio/cy_gpio.h **** * void
1171:Generated_Source\PSoC6\pdl\drivers\peripheral\gpio/cy_gpio.h **** *
1172:Generated_Source\PSoC6\pdl\drivers\peripheral\gpio/cy_gpio.h **** * \note 
1173:Generated_Source\PSoC6\pdl\drivers\peripheral\gpio/cy_gpio.h **** * This function modifies a port register in a read-modify-write operation. It is
1174:Generated_Source\PSoC6\pdl\drivers\peripheral\gpio/cy_gpio.h **** * not thread safe as the resource is shared among multiple pins on a port.
1175:Generated_Source\PSoC6\pdl\drivers\peripheral\gpio/cy_gpio.h **** *
1176:Generated_Source\PSoC6\pdl\drivers\peripheral\gpio/cy_gpio.h **** * \funcusage
1177:Generated_Source\PSoC6\pdl\drivers\peripheral\gpio/cy_gpio.h **** * \snippet gpio/gpio_v1_10_sut_01.cydsn/main_cm4.c snippet_Cy_GPIO_SetVregEn
1178:Generated_Source\PSoC6\pdl\drivers\peripheral\gpio/cy_gpio.h **** *
1179:Generated_Source\PSoC6\pdl\drivers\peripheral\gpio/cy_gpio.h **** *******************************************************************************/
1180:Generated_Source\PSoC6\pdl\drivers\peripheral\gpio/cy_gpio.h **** __STATIC_INLINE void Cy_GPIO_SetVregEn(GPIO_PRT_Type* base, uint32_t pinNum, uint32_t value)
1181:Generated_Source\PSoC6\pdl\drivers\peripheral\gpio/cy_gpio.h **** {
1182:Generated_Source\PSoC6\pdl\drivers\peripheral\gpio/cy_gpio.h ****     uint32_t tempReg;
1183:Generated_Source\PSoC6\pdl\drivers\peripheral\gpio/cy_gpio.h ****     uint32_t pinLoc;
1184:Generated_Source\PSoC6\pdl\drivers\peripheral\gpio/cy_gpio.h **** 
1185:Generated_Source\PSoC6\pdl\drivers\peripheral\gpio/cy_gpio.h ****     CY_ASSERT_L2(CY_GPIO_IS_PIN_VALID(pinNum));
1186:Generated_Source\PSoC6\pdl\drivers\peripheral\gpio/cy_gpio.h ****     CY_ASSERT_L2(CY_GPIO_IS_VALUE_VALID(value));
1187:Generated_Source\PSoC6\pdl\drivers\peripheral\gpio/cy_gpio.h **** 
1188:Generated_Source\PSoC6\pdl\drivers\peripheral\gpio/cy_gpio.h ****     pinLoc = (pinNum & CY_GPIO_SIO_ODD_PIN_MASK) << CY_GPIO_CFG_SIO_OFFSET;
1189:Generated_Source\PSoC6\pdl\drivers\peripheral\gpio/cy_gpio.h ****     tempReg = base->CFG_SIO & ~(CY_GPIO_VREG_EN_MASK << pinLoc);
1190:Generated_Source\PSoC6\pdl\drivers\peripheral\gpio/cy_gpio.h ****     base->CFG_SIO = tempReg | ((value & CY_GPIO_VREG_EN_MASK) << pinLoc);
1191:Generated_Source\PSoC6\pdl\drivers\peripheral\gpio/cy_gpio.h **** }
1192:Generated_Source\PSoC6\pdl\drivers\peripheral\gpio/cy_gpio.h **** 
1193:Generated_Source\PSoC6\pdl\drivers\peripheral\gpio/cy_gpio.h **** 
1194:Generated_Source\PSoC6\pdl\drivers\peripheral\gpio/cy_gpio.h **** /*******************************************************************************
1195:Generated_Source\PSoC6\pdl\drivers\peripheral\gpio/cy_gpio.h **** * Function Name: Cy_GPIO_GetVregEn
1196:Generated_Source\PSoC6\pdl\drivers\peripheral\gpio/cy_gpio.h **** ****************************************************************************//**
1197:Generated_Source\PSoC6\pdl\drivers\peripheral\gpio/cy_gpio.h **** *
1198:Generated_Source\PSoC6\pdl\drivers\peripheral\gpio/cy_gpio.h **** * \brief Returns the SIO pin pair output buffer regulation mode.
1199:Generated_Source\PSoC6\pdl\drivers\peripheral\gpio/cy_gpio.h **** *
1200:Generated_Source\PSoC6\pdl\drivers\peripheral\gpio/cy_gpio.h **** * Note that this function has no effect on non-SIO pins.
1201:Generated_Source\PSoC6\pdl\drivers\peripheral\gpio/cy_gpio.h **** *
1202:Generated_Source\PSoC6\pdl\drivers\peripheral\gpio/cy_gpio.h **** * \param base
1203:Generated_Source\PSoC6\pdl\drivers\peripheral\gpio/cy_gpio.h **** * Pointer to the pin's port register base address
1204:Generated_Source\PSoC6\pdl\drivers\peripheral\gpio/cy_gpio.h **** *
1205:Generated_Source\PSoC6\pdl\drivers\peripheral\gpio/cy_gpio.h **** * \param pinNum
1206:Generated_Source\PSoC6\pdl\drivers\peripheral\gpio/cy_gpio.h **** * Position of the pin bit-field within the port register
ARM GAS  C:\Users\ikomb\AppData\Local\Temp\ccAzoKUN.s 			page 29


1207:Generated_Source\PSoC6\pdl\drivers\peripheral\gpio/cy_gpio.h **** *
1208:Generated_Source\PSoC6\pdl\drivers\peripheral\gpio/cy_gpio.h **** * \return
1209:Generated_Source\PSoC6\pdl\drivers\peripheral\gpio/cy_gpio.h **** * SIO pair output buffer regulator mode. Options are detailed in \ref group_gpio_sioVreg macros
1210:Generated_Source\PSoC6\pdl\drivers\peripheral\gpio/cy_gpio.h **** *
1211:Generated_Source\PSoC6\pdl\drivers\peripheral\gpio/cy_gpio.h **** * \funcusage
1212:Generated_Source\PSoC6\pdl\drivers\peripheral\gpio/cy_gpio.h **** * \snippet gpio/gpio_v1_10_sut_01.cydsn/main_cm4.c snippet_Cy_GPIO_SetVregEn
1213:Generated_Source\PSoC6\pdl\drivers\peripheral\gpio/cy_gpio.h **** *
1214:Generated_Source\PSoC6\pdl\drivers\peripheral\gpio/cy_gpio.h **** *******************************************************************************/
1215:Generated_Source\PSoC6\pdl\drivers\peripheral\gpio/cy_gpio.h **** __STATIC_INLINE uint32_t Cy_GPIO_GetVregEn(GPIO_PRT_Type* base, uint32_t pinNum)
1216:Generated_Source\PSoC6\pdl\drivers\peripheral\gpio/cy_gpio.h **** {
1217:Generated_Source\PSoC6\pdl\drivers\peripheral\gpio/cy_gpio.h ****     CY_ASSERT_L2(CY_GPIO_IS_PIN_VALID(pinNum));
1218:Generated_Source\PSoC6\pdl\drivers\peripheral\gpio/cy_gpio.h ****     
1219:Generated_Source\PSoC6\pdl\drivers\peripheral\gpio/cy_gpio.h ****     return (base->CFG_SIO >> ((pinNum & CY_GPIO_SIO_ODD_PIN_MASK) << CY_GPIO_CFG_SIO_OFFSET)) & CY_
1220:Generated_Source\PSoC6\pdl\drivers\peripheral\gpio/cy_gpio.h **** }
1221:Generated_Source\PSoC6\pdl\drivers\peripheral\gpio/cy_gpio.h **** 
1222:Generated_Source\PSoC6\pdl\drivers\peripheral\gpio/cy_gpio.h **** 
1223:Generated_Source\PSoC6\pdl\drivers\peripheral\gpio/cy_gpio.h **** /*******************************************************************************
1224:Generated_Source\PSoC6\pdl\drivers\peripheral\gpio/cy_gpio.h **** * Function Name: Cy_GPIO_SetIbufMode
1225:Generated_Source\PSoC6\pdl\drivers\peripheral\gpio/cy_gpio.h **** ****************************************************************************//**
1226:Generated_Source\PSoC6\pdl\drivers\peripheral\gpio/cy_gpio.h **** *
1227:Generated_Source\PSoC6\pdl\drivers\peripheral\gpio/cy_gpio.h **** * \brief Configures the SIO pin pair input buffer mode.
1228:Generated_Source\PSoC6\pdl\drivers\peripheral\gpio/cy_gpio.h **** *
1229:Generated_Source\PSoC6\pdl\drivers\peripheral\gpio/cy_gpio.h **** * Note that this function has no effect on non-SIO pins.
1230:Generated_Source\PSoC6\pdl\drivers\peripheral\gpio/cy_gpio.h **** *
1231:Generated_Source\PSoC6\pdl\drivers\peripheral\gpio/cy_gpio.h **** * \param base
1232:Generated_Source\PSoC6\pdl\drivers\peripheral\gpio/cy_gpio.h **** * Pointer to the pin's port register base address
1233:Generated_Source\PSoC6\pdl\drivers\peripheral\gpio/cy_gpio.h **** *
1234:Generated_Source\PSoC6\pdl\drivers\peripheral\gpio/cy_gpio.h **** * \param pinNum
1235:Generated_Source\PSoC6\pdl\drivers\peripheral\gpio/cy_gpio.h **** * Position of the pin bit-field within the port register
1236:Generated_Source\PSoC6\pdl\drivers\peripheral\gpio/cy_gpio.h **** *
1237:Generated_Source\PSoC6\pdl\drivers\peripheral\gpio/cy_gpio.h **** * \param value
1238:Generated_Source\PSoC6\pdl\drivers\peripheral\gpio/cy_gpio.h **** * SIO pair input buffer mode. Options are detailed in \ref group_gpio_sioIbuf macros
1239:Generated_Source\PSoC6\pdl\drivers\peripheral\gpio/cy_gpio.h **** *
1240:Generated_Source\PSoC6\pdl\drivers\peripheral\gpio/cy_gpio.h **** * \return
1241:Generated_Source\PSoC6\pdl\drivers\peripheral\gpio/cy_gpio.h **** * void
1242:Generated_Source\PSoC6\pdl\drivers\peripheral\gpio/cy_gpio.h **** *
1243:Generated_Source\PSoC6\pdl\drivers\peripheral\gpio/cy_gpio.h **** * \note 
1244:Generated_Source\PSoC6\pdl\drivers\peripheral\gpio/cy_gpio.h **** * This function modifies a port register in a read-modify-write operation. It is
1245:Generated_Source\PSoC6\pdl\drivers\peripheral\gpio/cy_gpio.h **** * not thread safe as the resource is shared among multiple pins on a port.
1246:Generated_Source\PSoC6\pdl\drivers\peripheral\gpio/cy_gpio.h **** *
1247:Generated_Source\PSoC6\pdl\drivers\peripheral\gpio/cy_gpio.h **** * \funcusage
1248:Generated_Source\PSoC6\pdl\drivers\peripheral\gpio/cy_gpio.h **** * \snippet gpio/gpio_v1_10_sut_01.cydsn/main_cm4.c snippet_Cy_GPIO_SetIbufMode
1249:Generated_Source\PSoC6\pdl\drivers\peripheral\gpio/cy_gpio.h **** *
1250:Generated_Source\PSoC6\pdl\drivers\peripheral\gpio/cy_gpio.h **** *******************************************************************************/
1251:Generated_Source\PSoC6\pdl\drivers\peripheral\gpio/cy_gpio.h **** __STATIC_INLINE void Cy_GPIO_SetIbufMode(GPIO_PRT_Type* base, uint32_t pinNum, uint32_t value)
1252:Generated_Source\PSoC6\pdl\drivers\peripheral\gpio/cy_gpio.h **** {
1253:Generated_Source\PSoC6\pdl\drivers\peripheral\gpio/cy_gpio.h ****     uint32_t tempReg;
1254:Generated_Source\PSoC6\pdl\drivers\peripheral\gpio/cy_gpio.h ****     uint32_t pinLoc;
1255:Generated_Source\PSoC6\pdl\drivers\peripheral\gpio/cy_gpio.h **** 
1256:Generated_Source\PSoC6\pdl\drivers\peripheral\gpio/cy_gpio.h ****     CY_ASSERT_L2(CY_GPIO_IS_PIN_VALID(pinNum));
1257:Generated_Source\PSoC6\pdl\drivers\peripheral\gpio/cy_gpio.h ****     CY_ASSERT_L2(CY_GPIO_IS_VALUE_VALID(value));
1258:Generated_Source\PSoC6\pdl\drivers\peripheral\gpio/cy_gpio.h **** 
1259:Generated_Source\PSoC6\pdl\drivers\peripheral\gpio/cy_gpio.h ****     pinLoc = ((pinNum & CY_GPIO_SIO_ODD_PIN_MASK) << CY_GPIO_CFG_SIO_OFFSET) + CY_GPIO_IBUF_SHIFT;
1260:Generated_Source\PSoC6\pdl\drivers\peripheral\gpio/cy_gpio.h ****     tempReg = (base->CFG_SIO & ~(CY_GPIO_IBUF_MASK << pinLoc));
1261:Generated_Source\PSoC6\pdl\drivers\peripheral\gpio/cy_gpio.h ****     base->CFG_SIO = tempReg | ((value & CY_GPIO_IBUF_MASK) << pinLoc);
1262:Generated_Source\PSoC6\pdl\drivers\peripheral\gpio/cy_gpio.h **** }
1263:Generated_Source\PSoC6\pdl\drivers\peripheral\gpio/cy_gpio.h **** 
ARM GAS  C:\Users\ikomb\AppData\Local\Temp\ccAzoKUN.s 			page 30


1264:Generated_Source\PSoC6\pdl\drivers\peripheral\gpio/cy_gpio.h **** 
1265:Generated_Source\PSoC6\pdl\drivers\peripheral\gpio/cy_gpio.h **** /*******************************************************************************
1266:Generated_Source\PSoC6\pdl\drivers\peripheral\gpio/cy_gpio.h **** * Function Name: Cy_GPIO_GetIbufMode
1267:Generated_Source\PSoC6\pdl\drivers\peripheral\gpio/cy_gpio.h **** ****************************************************************************//**
1268:Generated_Source\PSoC6\pdl\drivers\peripheral\gpio/cy_gpio.h **** *
1269:Generated_Source\PSoC6\pdl\drivers\peripheral\gpio/cy_gpio.h **** * \brief Returns the SIO pin pair input buffer mode.
1270:Generated_Source\PSoC6\pdl\drivers\peripheral\gpio/cy_gpio.h **** *
1271:Generated_Source\PSoC6\pdl\drivers\peripheral\gpio/cy_gpio.h **** * Note that this function has no effect on non-SIO pins.
1272:Generated_Source\PSoC6\pdl\drivers\peripheral\gpio/cy_gpio.h **** *
1273:Generated_Source\PSoC6\pdl\drivers\peripheral\gpio/cy_gpio.h **** * \param base
1274:Generated_Source\PSoC6\pdl\drivers\peripheral\gpio/cy_gpio.h **** * Pointer to the pin's port register base address
1275:Generated_Source\PSoC6\pdl\drivers\peripheral\gpio/cy_gpio.h **** *
1276:Generated_Source\PSoC6\pdl\drivers\peripheral\gpio/cy_gpio.h **** * \param pinNum
1277:Generated_Source\PSoC6\pdl\drivers\peripheral\gpio/cy_gpio.h **** * Position of the pin bit-field within the port register
1278:Generated_Source\PSoC6\pdl\drivers\peripheral\gpio/cy_gpio.h **** *
1279:Generated_Source\PSoC6\pdl\drivers\peripheral\gpio/cy_gpio.h **** * \return
1280:Generated_Source\PSoC6\pdl\drivers\peripheral\gpio/cy_gpio.h **** * SIO pair input buffer mode. Options are detailed in \ref group_gpio_sioIbuf macros
1281:Generated_Source\PSoC6\pdl\drivers\peripheral\gpio/cy_gpio.h **** *
1282:Generated_Source\PSoC6\pdl\drivers\peripheral\gpio/cy_gpio.h **** * \funcusage
1283:Generated_Source\PSoC6\pdl\drivers\peripheral\gpio/cy_gpio.h **** * \snippet gpio/gpio_v1_10_sut_01.cydsn/main_cm4.c snippet_Cy_GPIO_SetIbufMode
1284:Generated_Source\PSoC6\pdl\drivers\peripheral\gpio/cy_gpio.h **** *
1285:Generated_Source\PSoC6\pdl\drivers\peripheral\gpio/cy_gpio.h **** *******************************************************************************/
1286:Generated_Source\PSoC6\pdl\drivers\peripheral\gpio/cy_gpio.h **** __STATIC_INLINE uint32_t Cy_GPIO_GetIbufMode(GPIO_PRT_Type* base, uint32_t pinNum)
1287:Generated_Source\PSoC6\pdl\drivers\peripheral\gpio/cy_gpio.h **** {
1288:Generated_Source\PSoC6\pdl\drivers\peripheral\gpio/cy_gpio.h ****     CY_ASSERT_L2(CY_GPIO_IS_PIN_VALID(pinNum));
1289:Generated_Source\PSoC6\pdl\drivers\peripheral\gpio/cy_gpio.h ****     
1290:Generated_Source\PSoC6\pdl\drivers\peripheral\gpio/cy_gpio.h ****     return (base->CFG_SIO >> (((pinNum & CY_GPIO_SIO_ODD_PIN_MASK) << CY_GPIO_CFG_SIO_OFFSET) + CY_
1291:Generated_Source\PSoC6\pdl\drivers\peripheral\gpio/cy_gpio.h **** }
1292:Generated_Source\PSoC6\pdl\drivers\peripheral\gpio/cy_gpio.h **** 
1293:Generated_Source\PSoC6\pdl\drivers\peripheral\gpio/cy_gpio.h **** 
1294:Generated_Source\PSoC6\pdl\drivers\peripheral\gpio/cy_gpio.h **** /*******************************************************************************
1295:Generated_Source\PSoC6\pdl\drivers\peripheral\gpio/cy_gpio.h **** * Function Name: Cy_GPIO_SetVtripSel
1296:Generated_Source\PSoC6\pdl\drivers\peripheral\gpio/cy_gpio.h **** ****************************************************************************//**
1297:Generated_Source\PSoC6\pdl\drivers\peripheral\gpio/cy_gpio.h **** *
1298:Generated_Source\PSoC6\pdl\drivers\peripheral\gpio/cy_gpio.h **** * \brief Configures the SIO pin pair input buffer trip point.
1299:Generated_Source\PSoC6\pdl\drivers\peripheral\gpio/cy_gpio.h **** *
1300:Generated_Source\PSoC6\pdl\drivers\peripheral\gpio/cy_gpio.h **** * Note that this function has no effect on non-SIO pins.
1301:Generated_Source\PSoC6\pdl\drivers\peripheral\gpio/cy_gpio.h **** *
1302:Generated_Source\PSoC6\pdl\drivers\peripheral\gpio/cy_gpio.h **** * \param base
1303:Generated_Source\PSoC6\pdl\drivers\peripheral\gpio/cy_gpio.h **** * Pointer to the pin's port register base address
1304:Generated_Source\PSoC6\pdl\drivers\peripheral\gpio/cy_gpio.h **** *
1305:Generated_Source\PSoC6\pdl\drivers\peripheral\gpio/cy_gpio.h **** * \param pinNum
1306:Generated_Source\PSoC6\pdl\drivers\peripheral\gpio/cy_gpio.h **** * Position of the pin bit-field within the port register
1307:Generated_Source\PSoC6\pdl\drivers\peripheral\gpio/cy_gpio.h **** *
1308:Generated_Source\PSoC6\pdl\drivers\peripheral\gpio/cy_gpio.h **** * \param value
1309:Generated_Source\PSoC6\pdl\drivers\peripheral\gpio/cy_gpio.h **** * SIO pair input buffer trip point. Options are detailed in \ref group_gpio_sioVtrip macros
1310:Generated_Source\PSoC6\pdl\drivers\peripheral\gpio/cy_gpio.h **** *
1311:Generated_Source\PSoC6\pdl\drivers\peripheral\gpio/cy_gpio.h **** * \return
1312:Generated_Source\PSoC6\pdl\drivers\peripheral\gpio/cy_gpio.h **** * void
1313:Generated_Source\PSoC6\pdl\drivers\peripheral\gpio/cy_gpio.h **** *
1314:Generated_Source\PSoC6\pdl\drivers\peripheral\gpio/cy_gpio.h **** * \note 
1315:Generated_Source\PSoC6\pdl\drivers\peripheral\gpio/cy_gpio.h **** * This function modifies a port register in a read-modify-write operation. It is
1316:Generated_Source\PSoC6\pdl\drivers\peripheral\gpio/cy_gpio.h **** * not thread safe as the resource is shared among multiple pins on a port.
1317:Generated_Source\PSoC6\pdl\drivers\peripheral\gpio/cy_gpio.h **** *
1318:Generated_Source\PSoC6\pdl\drivers\peripheral\gpio/cy_gpio.h **** * \funcusage
1319:Generated_Source\PSoC6\pdl\drivers\peripheral\gpio/cy_gpio.h **** * \snippet gpio/gpio_v1_10_sut_01.cydsn/main_cm4.c snippet_Cy_GPIO_SetVtripSel
1320:Generated_Source\PSoC6\pdl\drivers\peripheral\gpio/cy_gpio.h **** *
ARM GAS  C:\Users\ikomb\AppData\Local\Temp\ccAzoKUN.s 			page 31


1321:Generated_Source\PSoC6\pdl\drivers\peripheral\gpio/cy_gpio.h **** *******************************************************************************/
1322:Generated_Source\PSoC6\pdl\drivers\peripheral\gpio/cy_gpio.h **** __STATIC_INLINE void Cy_GPIO_SetVtripSel(GPIO_PRT_Type* base, uint32_t pinNum, uint32_t value)
1323:Generated_Source\PSoC6\pdl\drivers\peripheral\gpio/cy_gpio.h **** {
1324:Generated_Source\PSoC6\pdl\drivers\peripheral\gpio/cy_gpio.h ****     uint32_t tempReg;
1325:Generated_Source\PSoC6\pdl\drivers\peripheral\gpio/cy_gpio.h ****     uint32_t pinLoc;
1326:Generated_Source\PSoC6\pdl\drivers\peripheral\gpio/cy_gpio.h **** 
1327:Generated_Source\PSoC6\pdl\drivers\peripheral\gpio/cy_gpio.h ****     CY_ASSERT_L2(CY_GPIO_IS_PIN_VALID(pinNum));
1328:Generated_Source\PSoC6\pdl\drivers\peripheral\gpio/cy_gpio.h ****     CY_ASSERT_L2(CY_GPIO_IS_VALUE_VALID(value));
1329:Generated_Source\PSoC6\pdl\drivers\peripheral\gpio/cy_gpio.h **** 
1330:Generated_Source\PSoC6\pdl\drivers\peripheral\gpio/cy_gpio.h ****     pinLoc = ((pinNum & CY_GPIO_SIO_ODD_PIN_MASK) << CY_GPIO_CFG_SIO_OFFSET) + CY_GPIO_VTRIP_SEL_SH
1331:Generated_Source\PSoC6\pdl\drivers\peripheral\gpio/cy_gpio.h ****     tempReg = (base->CFG_SIO & ~(CY_GPIO_VTRIP_SEL_MASK << pinLoc));
1332:Generated_Source\PSoC6\pdl\drivers\peripheral\gpio/cy_gpio.h ****     base->CFG_SIO = tempReg | ((value & CY_GPIO_VTRIP_SEL_MASK) << pinLoc);
1333:Generated_Source\PSoC6\pdl\drivers\peripheral\gpio/cy_gpio.h **** }
1334:Generated_Source\PSoC6\pdl\drivers\peripheral\gpio/cy_gpio.h **** 
1335:Generated_Source\PSoC6\pdl\drivers\peripheral\gpio/cy_gpio.h **** 
1336:Generated_Source\PSoC6\pdl\drivers\peripheral\gpio/cy_gpio.h **** /*******************************************************************************
1337:Generated_Source\PSoC6\pdl\drivers\peripheral\gpio/cy_gpio.h **** * Function Name: Cy_GPIO_GetVtripSel
1338:Generated_Source\PSoC6\pdl\drivers\peripheral\gpio/cy_gpio.h **** ****************************************************************************//**
1339:Generated_Source\PSoC6\pdl\drivers\peripheral\gpio/cy_gpio.h **** *
1340:Generated_Source\PSoC6\pdl\drivers\peripheral\gpio/cy_gpio.h **** * \brief Returns the SIO pin pair input buffer trip point.
1341:Generated_Source\PSoC6\pdl\drivers\peripheral\gpio/cy_gpio.h **** *
1342:Generated_Source\PSoC6\pdl\drivers\peripheral\gpio/cy_gpio.h **** * Note that this function has no effect on non-SIO pins.
1343:Generated_Source\PSoC6\pdl\drivers\peripheral\gpio/cy_gpio.h **** *
1344:Generated_Source\PSoC6\pdl\drivers\peripheral\gpio/cy_gpio.h **** * \param base
1345:Generated_Source\PSoC6\pdl\drivers\peripheral\gpio/cy_gpio.h **** * Pointer to the pin's port register base address
1346:Generated_Source\PSoC6\pdl\drivers\peripheral\gpio/cy_gpio.h **** *
1347:Generated_Source\PSoC6\pdl\drivers\peripheral\gpio/cy_gpio.h **** * \param pinNum
1348:Generated_Source\PSoC6\pdl\drivers\peripheral\gpio/cy_gpio.h **** * Position of the pin bit-field within the port register
1349:Generated_Source\PSoC6\pdl\drivers\peripheral\gpio/cy_gpio.h **** *
1350:Generated_Source\PSoC6\pdl\drivers\peripheral\gpio/cy_gpio.h **** * \return
1351:Generated_Source\PSoC6\pdl\drivers\peripheral\gpio/cy_gpio.h **** * SIO pair input buffer trip point. Options are detailed in \ref group_gpio_sioVtrip macros
1352:Generated_Source\PSoC6\pdl\drivers\peripheral\gpio/cy_gpio.h **** *
1353:Generated_Source\PSoC6\pdl\drivers\peripheral\gpio/cy_gpio.h **** * \funcusage
1354:Generated_Source\PSoC6\pdl\drivers\peripheral\gpio/cy_gpio.h **** * \snippet gpio/gpio_v1_10_sut_01.cydsn/main_cm4.c snippet_Cy_GPIO_SetVtripSel
1355:Generated_Source\PSoC6\pdl\drivers\peripheral\gpio/cy_gpio.h **** *
1356:Generated_Source\PSoC6\pdl\drivers\peripheral\gpio/cy_gpio.h **** *******************************************************************************/
1357:Generated_Source\PSoC6\pdl\drivers\peripheral\gpio/cy_gpio.h **** __STATIC_INLINE uint32_t Cy_GPIO_GetVtripSel(GPIO_PRT_Type* base, uint32_t pinNum)
1358:Generated_Source\PSoC6\pdl\drivers\peripheral\gpio/cy_gpio.h **** {
1359:Generated_Source\PSoC6\pdl\drivers\peripheral\gpio/cy_gpio.h ****     CY_ASSERT_L2(CY_GPIO_IS_PIN_VALID(pinNum));
1360:Generated_Source\PSoC6\pdl\drivers\peripheral\gpio/cy_gpio.h **** 
1361:Generated_Source\PSoC6\pdl\drivers\peripheral\gpio/cy_gpio.h ****     return (base->CFG_SIO >> (((pinNum & CY_GPIO_SIO_ODD_PIN_MASK) << CY_GPIO_CFG_SIO_OFFSET) + CY_
1362:Generated_Source\PSoC6\pdl\drivers\peripheral\gpio/cy_gpio.h **** }
1363:Generated_Source\PSoC6\pdl\drivers\peripheral\gpio/cy_gpio.h **** 
1364:Generated_Source\PSoC6\pdl\drivers\peripheral\gpio/cy_gpio.h **** 
1365:Generated_Source\PSoC6\pdl\drivers\peripheral\gpio/cy_gpio.h **** /*******************************************************************************
1366:Generated_Source\PSoC6\pdl\drivers\peripheral\gpio/cy_gpio.h **** * Function Name: Cy_GPIO_SetVrefSel
1367:Generated_Source\PSoC6\pdl\drivers\peripheral\gpio/cy_gpio.h **** ****************************************************************************//**
1368:Generated_Source\PSoC6\pdl\drivers\peripheral\gpio/cy_gpio.h **** *
1369:Generated_Source\PSoC6\pdl\drivers\peripheral\gpio/cy_gpio.h **** * \brief Configures the SIO reference voltage for the input buffer trip point.
1370:Generated_Source\PSoC6\pdl\drivers\peripheral\gpio/cy_gpio.h **** *
1371:Generated_Source\PSoC6\pdl\drivers\peripheral\gpio/cy_gpio.h **** * Note that this function has no effect on non-SIO pins.
1372:Generated_Source\PSoC6\pdl\drivers\peripheral\gpio/cy_gpio.h **** *
1373:Generated_Source\PSoC6\pdl\drivers\peripheral\gpio/cy_gpio.h **** * \param base
1374:Generated_Source\PSoC6\pdl\drivers\peripheral\gpio/cy_gpio.h **** * Pointer to the pin's port register base address
1375:Generated_Source\PSoC6\pdl\drivers\peripheral\gpio/cy_gpio.h **** *
1376:Generated_Source\PSoC6\pdl\drivers\peripheral\gpio/cy_gpio.h **** * \param pinNum
1377:Generated_Source\PSoC6\pdl\drivers\peripheral\gpio/cy_gpio.h **** * Position of the pin bit-field within the port register
ARM GAS  C:\Users\ikomb\AppData\Local\Temp\ccAzoKUN.s 			page 32


1378:Generated_Source\PSoC6\pdl\drivers\peripheral\gpio/cy_gpio.h **** *
1379:Generated_Source\PSoC6\pdl\drivers\peripheral\gpio/cy_gpio.h **** * \param value
1380:Generated_Source\PSoC6\pdl\drivers\peripheral\gpio/cy_gpio.h **** * SIO pair reference voltage. Options are detailed in \ref group_gpio_sioVref macros
1381:Generated_Source\PSoC6\pdl\drivers\peripheral\gpio/cy_gpio.h **** *
1382:Generated_Source\PSoC6\pdl\drivers\peripheral\gpio/cy_gpio.h **** * \return
1383:Generated_Source\PSoC6\pdl\drivers\peripheral\gpio/cy_gpio.h **** * void
1384:Generated_Source\PSoC6\pdl\drivers\peripheral\gpio/cy_gpio.h **** *
1385:Generated_Source\PSoC6\pdl\drivers\peripheral\gpio/cy_gpio.h **** * \note 
1386:Generated_Source\PSoC6\pdl\drivers\peripheral\gpio/cy_gpio.h **** * This function modifies a port register in a read-modify-write operation. It is
1387:Generated_Source\PSoC6\pdl\drivers\peripheral\gpio/cy_gpio.h **** * not thread safe as the resource is shared among multiple pins on a port.
1388:Generated_Source\PSoC6\pdl\drivers\peripheral\gpio/cy_gpio.h **** *
1389:Generated_Source\PSoC6\pdl\drivers\peripheral\gpio/cy_gpio.h **** * \funcusage
1390:Generated_Source\PSoC6\pdl\drivers\peripheral\gpio/cy_gpio.h **** * \snippet gpio/gpio_v1_10_sut_01.cydsn/main_cm4.c snippet_Cy_GPIO_SetVrefSel
1391:Generated_Source\PSoC6\pdl\drivers\peripheral\gpio/cy_gpio.h **** *
1392:Generated_Source\PSoC6\pdl\drivers\peripheral\gpio/cy_gpio.h **** *******************************************************************************/
1393:Generated_Source\PSoC6\pdl\drivers\peripheral\gpio/cy_gpio.h **** __STATIC_INLINE void Cy_GPIO_SetVrefSel(GPIO_PRT_Type* base, uint32_t pinNum, uint32_t value)
1394:Generated_Source\PSoC6\pdl\drivers\peripheral\gpio/cy_gpio.h **** {
1395:Generated_Source\PSoC6\pdl\drivers\peripheral\gpio/cy_gpio.h ****     uint32_t tempReg;
1396:Generated_Source\PSoC6\pdl\drivers\peripheral\gpio/cy_gpio.h ****     uint32_t pinLoc;
1397:Generated_Source\PSoC6\pdl\drivers\peripheral\gpio/cy_gpio.h **** 
1398:Generated_Source\PSoC6\pdl\drivers\peripheral\gpio/cy_gpio.h ****     CY_ASSERT_L2(CY_GPIO_IS_PIN_VALID(pinNum));
1399:Generated_Source\PSoC6\pdl\drivers\peripheral\gpio/cy_gpio.h ****     CY_ASSERT_L2(CY_GPIO_IS_VREF_SEL_VALID(value));
1400:Generated_Source\PSoC6\pdl\drivers\peripheral\gpio/cy_gpio.h ****     
1401:Generated_Source\PSoC6\pdl\drivers\peripheral\gpio/cy_gpio.h ****     pinLoc = ((pinNum & CY_GPIO_SIO_ODD_PIN_MASK) << CY_GPIO_CFG_SIO_OFFSET) + CY_GPIO_VREF_SEL_SHI
1402:Generated_Source\PSoC6\pdl\drivers\peripheral\gpio/cy_gpio.h ****     tempReg = (base->CFG_SIO & ~(CY_GPIO_VREF_SEL_MASK << pinLoc));
1403:Generated_Source\PSoC6\pdl\drivers\peripheral\gpio/cy_gpio.h ****     base->CFG_SIO = tempReg | ((value & CY_GPIO_VREF_SEL_MASK) << pinLoc);
1404:Generated_Source\PSoC6\pdl\drivers\peripheral\gpio/cy_gpio.h **** }
1405:Generated_Source\PSoC6\pdl\drivers\peripheral\gpio/cy_gpio.h **** 
1406:Generated_Source\PSoC6\pdl\drivers\peripheral\gpio/cy_gpio.h **** 
1407:Generated_Source\PSoC6\pdl\drivers\peripheral\gpio/cy_gpio.h **** /*******************************************************************************
1408:Generated_Source\PSoC6\pdl\drivers\peripheral\gpio/cy_gpio.h **** * Function Name: Cy_GPIO_GetVrefSel
1409:Generated_Source\PSoC6\pdl\drivers\peripheral\gpio/cy_gpio.h **** ****************************************************************************//**
1410:Generated_Source\PSoC6\pdl\drivers\peripheral\gpio/cy_gpio.h **** *
1411:Generated_Source\PSoC6\pdl\drivers\peripheral\gpio/cy_gpio.h **** * \brief Returns the SIO reference voltage for the input buffer trip point.
1412:Generated_Source\PSoC6\pdl\drivers\peripheral\gpio/cy_gpio.h **** *
1413:Generated_Source\PSoC6\pdl\drivers\peripheral\gpio/cy_gpio.h **** * Note that this function has no effect on non-SIO pins.
1414:Generated_Source\PSoC6\pdl\drivers\peripheral\gpio/cy_gpio.h **** *
1415:Generated_Source\PSoC6\pdl\drivers\peripheral\gpio/cy_gpio.h **** * \param base
1416:Generated_Source\PSoC6\pdl\drivers\peripheral\gpio/cy_gpio.h **** * Pointer to the pin's port register base address
1417:Generated_Source\PSoC6\pdl\drivers\peripheral\gpio/cy_gpio.h **** *
1418:Generated_Source\PSoC6\pdl\drivers\peripheral\gpio/cy_gpio.h **** * \param pinNum
1419:Generated_Source\PSoC6\pdl\drivers\peripheral\gpio/cy_gpio.h **** * Position of the pin bit-field within the port register
1420:Generated_Source\PSoC6\pdl\drivers\peripheral\gpio/cy_gpio.h **** *
1421:Generated_Source\PSoC6\pdl\drivers\peripheral\gpio/cy_gpio.h **** * \return
1422:Generated_Source\PSoC6\pdl\drivers\peripheral\gpio/cy_gpio.h **** * SIO pair reference voltage. Options are detailed in \ref group_gpio_sioVref macros
1423:Generated_Source\PSoC6\pdl\drivers\peripheral\gpio/cy_gpio.h **** *
1424:Generated_Source\PSoC6\pdl\drivers\peripheral\gpio/cy_gpio.h **** * \funcusage
1425:Generated_Source\PSoC6\pdl\drivers\peripheral\gpio/cy_gpio.h **** * \snippet gpio/gpio_v1_10_sut_01.cydsn/main_cm4.c snippet_Cy_GPIO_SetVrefSel
1426:Generated_Source\PSoC6\pdl\drivers\peripheral\gpio/cy_gpio.h **** *
1427:Generated_Source\PSoC6\pdl\drivers\peripheral\gpio/cy_gpio.h **** *******************************************************************************/
1428:Generated_Source\PSoC6\pdl\drivers\peripheral\gpio/cy_gpio.h **** __STATIC_INLINE uint32_t Cy_GPIO_GetVrefSel(GPIO_PRT_Type* base, uint32_t pinNum)
1429:Generated_Source\PSoC6\pdl\drivers\peripheral\gpio/cy_gpio.h **** {
1430:Generated_Source\PSoC6\pdl\drivers\peripheral\gpio/cy_gpio.h ****     CY_ASSERT_L2(CY_GPIO_IS_PIN_VALID(pinNum));
1431:Generated_Source\PSoC6\pdl\drivers\peripheral\gpio/cy_gpio.h ****     
1432:Generated_Source\PSoC6\pdl\drivers\peripheral\gpio/cy_gpio.h ****     return (base->CFG_SIO >> (((pinNum & CY_GPIO_SIO_ODD_PIN_MASK) << CY_GPIO_CFG_SIO_OFFSET) + CY_
1433:Generated_Source\PSoC6\pdl\drivers\peripheral\gpio/cy_gpio.h **** }
1434:Generated_Source\PSoC6\pdl\drivers\peripheral\gpio/cy_gpio.h **** 
ARM GAS  C:\Users\ikomb\AppData\Local\Temp\ccAzoKUN.s 			page 33


1435:Generated_Source\PSoC6\pdl\drivers\peripheral\gpio/cy_gpio.h **** 
1436:Generated_Source\PSoC6\pdl\drivers\peripheral\gpio/cy_gpio.h **** /*******************************************************************************
1437:Generated_Source\PSoC6\pdl\drivers\peripheral\gpio/cy_gpio.h **** * Function Name: Cy_GPIO_SetVohSel
1438:Generated_Source\PSoC6\pdl\drivers\peripheral\gpio/cy_gpio.h **** ****************************************************************************//**
1439:Generated_Source\PSoC6\pdl\drivers\peripheral\gpio/cy_gpio.h **** *
1440:Generated_Source\PSoC6\pdl\drivers\peripheral\gpio/cy_gpio.h **** * \brief Configures the regulated output reference multiplier for the SIO pin pair.
1441:Generated_Source\PSoC6\pdl\drivers\peripheral\gpio/cy_gpio.h **** *
1442:Generated_Source\PSoC6\pdl\drivers\peripheral\gpio/cy_gpio.h **** * The regulated output reference controls both the output level of digital output
1443:Generated_Source\PSoC6\pdl\drivers\peripheral\gpio/cy_gpio.h **** * pin and the input trip point of digital input pin in the SIO pair.
1444:Generated_Source\PSoC6\pdl\drivers\peripheral\gpio/cy_gpio.h **** *
1445:Generated_Source\PSoC6\pdl\drivers\peripheral\gpio/cy_gpio.h **** * Note that this function has no effect on non-SIO pins.
1446:Generated_Source\PSoC6\pdl\drivers\peripheral\gpio/cy_gpio.h **** *
1447:Generated_Source\PSoC6\pdl\drivers\peripheral\gpio/cy_gpio.h **** * \param base
1448:Generated_Source\PSoC6\pdl\drivers\peripheral\gpio/cy_gpio.h **** * Pointer to the pin's port register base address
1449:Generated_Source\PSoC6\pdl\drivers\peripheral\gpio/cy_gpio.h **** *
1450:Generated_Source\PSoC6\pdl\drivers\peripheral\gpio/cy_gpio.h **** * \param pinNum
1451:Generated_Source\PSoC6\pdl\drivers\peripheral\gpio/cy_gpio.h **** * Position of the pin bit-field within the port register
1452:Generated_Source\PSoC6\pdl\drivers\peripheral\gpio/cy_gpio.h **** *
1453:Generated_Source\PSoC6\pdl\drivers\peripheral\gpio/cy_gpio.h **** * \param value
1454:Generated_Source\PSoC6\pdl\drivers\peripheral\gpio/cy_gpio.h **** * SIO pair reference voltage. Options are detailed in \ref group_gpio_sioVoh macros
1455:Generated_Source\PSoC6\pdl\drivers\peripheral\gpio/cy_gpio.h **** *
1456:Generated_Source\PSoC6\pdl\drivers\peripheral\gpio/cy_gpio.h **** * \return
1457:Generated_Source\PSoC6\pdl\drivers\peripheral\gpio/cy_gpio.h **** * void
1458:Generated_Source\PSoC6\pdl\drivers\peripheral\gpio/cy_gpio.h **** *
1459:Generated_Source\PSoC6\pdl\drivers\peripheral\gpio/cy_gpio.h **** * \note 
1460:Generated_Source\PSoC6\pdl\drivers\peripheral\gpio/cy_gpio.h **** * This function modifies a port register in a read-modify-write operation. It is
1461:Generated_Source\PSoC6\pdl\drivers\peripheral\gpio/cy_gpio.h **** * not thread safe as the resource is shared among multiple pins on a port.
1462:Generated_Source\PSoC6\pdl\drivers\peripheral\gpio/cy_gpio.h **** *
1463:Generated_Source\PSoC6\pdl\drivers\peripheral\gpio/cy_gpio.h **** * \funcusage
1464:Generated_Source\PSoC6\pdl\drivers\peripheral\gpio/cy_gpio.h **** * \snippet gpio/gpio_v1_10_sut_01.cydsn/main_cm4.c snippet_Cy_GPIO_SetVohSel
1465:Generated_Source\PSoC6\pdl\drivers\peripheral\gpio/cy_gpio.h **** *
1466:Generated_Source\PSoC6\pdl\drivers\peripheral\gpio/cy_gpio.h **** *******************************************************************************/
1467:Generated_Source\PSoC6\pdl\drivers\peripheral\gpio/cy_gpio.h **** __STATIC_INLINE void Cy_GPIO_SetVohSel(GPIO_PRT_Type* base, uint32_t pinNum, uint32_t value)
1468:Generated_Source\PSoC6\pdl\drivers\peripheral\gpio/cy_gpio.h **** {
1469:Generated_Source\PSoC6\pdl\drivers\peripheral\gpio/cy_gpio.h ****     uint32_t tempReg;
1470:Generated_Source\PSoC6\pdl\drivers\peripheral\gpio/cy_gpio.h ****     uint32_t pinLoc;
1471:Generated_Source\PSoC6\pdl\drivers\peripheral\gpio/cy_gpio.h **** 
1472:Generated_Source\PSoC6\pdl\drivers\peripheral\gpio/cy_gpio.h ****     CY_ASSERT_L2(CY_GPIO_IS_PIN_VALID(pinNum));
1473:Generated_Source\PSoC6\pdl\drivers\peripheral\gpio/cy_gpio.h ****     CY_ASSERT_L2(CY_GPIO_IS_VOH_SEL_VALID(value));
1474:Generated_Source\PSoC6\pdl\drivers\peripheral\gpio/cy_gpio.h **** 
1475:Generated_Source\PSoC6\pdl\drivers\peripheral\gpio/cy_gpio.h ****     pinLoc = ((pinNum & CY_GPIO_SIO_ODD_PIN_MASK) << CY_GPIO_CFG_SIO_OFFSET) + CY_GPIO_VOH_SEL_SHIF
1476:Generated_Source\PSoC6\pdl\drivers\peripheral\gpio/cy_gpio.h ****     tempReg = (base->CFG_SIO & ~(CY_GPIO_VOH_SEL_MASK << pinLoc));
1477:Generated_Source\PSoC6\pdl\drivers\peripheral\gpio/cy_gpio.h ****     base->CFG_SIO = tempReg | ((value & CY_GPIO_VOH_SEL_MASK) << pinLoc);
1478:Generated_Source\PSoC6\pdl\drivers\peripheral\gpio/cy_gpio.h **** }
1479:Generated_Source\PSoC6\pdl\drivers\peripheral\gpio/cy_gpio.h **** 
1480:Generated_Source\PSoC6\pdl\drivers\peripheral\gpio/cy_gpio.h **** 
1481:Generated_Source\PSoC6\pdl\drivers\peripheral\gpio/cy_gpio.h **** /*******************************************************************************
1482:Generated_Source\PSoC6\pdl\drivers\peripheral\gpio/cy_gpio.h **** * Function Name: Cy_GPIO_GetVohSel
1483:Generated_Source\PSoC6\pdl\drivers\peripheral\gpio/cy_gpio.h **** ****************************************************************************//**
1484:Generated_Source\PSoC6\pdl\drivers\peripheral\gpio/cy_gpio.h **** *
1485:Generated_Source\PSoC6\pdl\drivers\peripheral\gpio/cy_gpio.h **** * \brief Returns the regulated output reference multiplier for the SIO pin pair.
1486:Generated_Source\PSoC6\pdl\drivers\peripheral\gpio/cy_gpio.h **** *
1487:Generated_Source\PSoC6\pdl\drivers\peripheral\gpio/cy_gpio.h **** * Note that this function has no effect on non-SIO pins.
1488:Generated_Source\PSoC6\pdl\drivers\peripheral\gpio/cy_gpio.h **** *
1489:Generated_Source\PSoC6\pdl\drivers\peripheral\gpio/cy_gpio.h **** * \param base
1490:Generated_Source\PSoC6\pdl\drivers\peripheral\gpio/cy_gpio.h **** * Pointer to the pin's port register base address
1491:Generated_Source\PSoC6\pdl\drivers\peripheral\gpio/cy_gpio.h **** *
ARM GAS  C:\Users\ikomb\AppData\Local\Temp\ccAzoKUN.s 			page 34


1492:Generated_Source\PSoC6\pdl\drivers\peripheral\gpio/cy_gpio.h **** * \param pinNum
1493:Generated_Source\PSoC6\pdl\drivers\peripheral\gpio/cy_gpio.h **** * Position of the pin bit-field within the port register
1494:Generated_Source\PSoC6\pdl\drivers\peripheral\gpio/cy_gpio.h **** *
1495:Generated_Source\PSoC6\pdl\drivers\peripheral\gpio/cy_gpio.h **** * \return
1496:Generated_Source\PSoC6\pdl\drivers\peripheral\gpio/cy_gpio.h **** * SIO pair reference voltage. Options are detailed in \ref group_gpio_sioVoh macros
1497:Generated_Source\PSoC6\pdl\drivers\peripheral\gpio/cy_gpio.h **** *
1498:Generated_Source\PSoC6\pdl\drivers\peripheral\gpio/cy_gpio.h **** * \funcusage
1499:Generated_Source\PSoC6\pdl\drivers\peripheral\gpio/cy_gpio.h **** * \snippet gpio/gpio_v1_10_sut_01.cydsn/main_cm4.c snippet_Cy_GPIO_SetVohSel
1500:Generated_Source\PSoC6\pdl\drivers\peripheral\gpio/cy_gpio.h **** *
1501:Generated_Source\PSoC6\pdl\drivers\peripheral\gpio/cy_gpio.h **** *******************************************************************************/
1502:Generated_Source\PSoC6\pdl\drivers\peripheral\gpio/cy_gpio.h **** __STATIC_INLINE uint32_t Cy_GPIO_GetVohSel(GPIO_PRT_Type* base, uint32_t pinNum)
1503:Generated_Source\PSoC6\pdl\drivers\peripheral\gpio/cy_gpio.h **** {
1504:Generated_Source\PSoC6\pdl\drivers\peripheral\gpio/cy_gpio.h ****     CY_ASSERT_L2(CY_GPIO_IS_PIN_VALID(pinNum));
1505:Generated_Source\PSoC6\pdl\drivers\peripheral\gpio/cy_gpio.h ****     
1506:Generated_Source\PSoC6\pdl\drivers\peripheral\gpio/cy_gpio.h ****     return (base->CFG_SIO >> (((pinNum & CY_GPIO_SIO_ODD_PIN_MASK) << CY_GPIO_CFG_SIO_OFFSET) + CY_
1507:Generated_Source\PSoC6\pdl\drivers\peripheral\gpio/cy_gpio.h **** }
1508:Generated_Source\PSoC6\pdl\drivers\peripheral\gpio/cy_gpio.h **** 
1509:Generated_Source\PSoC6\pdl\drivers\peripheral\gpio/cy_gpio.h **** /** \} group_gpio_functions_sio */
1510:Generated_Source\PSoC6\pdl\drivers\peripheral\gpio/cy_gpio.h **** 
1511:Generated_Source\PSoC6\pdl\drivers\peripheral\gpio/cy_gpio.h **** /**
1512:Generated_Source\PSoC6\pdl\drivers\peripheral\gpio/cy_gpio.h **** * \addtogroup group_gpio_functions_interrupt
1513:Generated_Source\PSoC6\pdl\drivers\peripheral\gpio/cy_gpio.h **** * \{
1514:Generated_Source\PSoC6\pdl\drivers\peripheral\gpio/cy_gpio.h **** */
1515:Generated_Source\PSoC6\pdl\drivers\peripheral\gpio/cy_gpio.h **** 
1516:Generated_Source\PSoC6\pdl\drivers\peripheral\gpio/cy_gpio.h **** /*******************************************************************************
1517:Generated_Source\PSoC6\pdl\drivers\peripheral\gpio/cy_gpio.h **** * Function Name: Cy_GPIO_GetInterruptStatus
1518:Generated_Source\PSoC6\pdl\drivers\peripheral\gpio/cy_gpio.h **** ****************************************************************************//**
1519:Generated_Source\PSoC6\pdl\drivers\peripheral\gpio/cy_gpio.h **** *
1520:Generated_Source\PSoC6\pdl\drivers\peripheral\gpio/cy_gpio.h **** * \brief Returns the current unmasked interrupt state of the pin.
1521:Generated_Source\PSoC6\pdl\drivers\peripheral\gpio/cy_gpio.h **** *
1522:Generated_Source\PSoC6\pdl\drivers\peripheral\gpio/cy_gpio.h **** * The core processor's NVIC is triggered by the masked interrupt bits. This 
1523:Generated_Source\PSoC6\pdl\drivers\peripheral\gpio/cy_gpio.h **** * function allows reading the unmasked interrupt state. Whether the bit
1524:Generated_Source\PSoC6\pdl\drivers\peripheral\gpio/cy_gpio.h **** * positions actually trigger the interrupt are defined by the interrupt mask bits.
1525:Generated_Source\PSoC6\pdl\drivers\peripheral\gpio/cy_gpio.h **** *
1526:Generated_Source\PSoC6\pdl\drivers\peripheral\gpio/cy_gpio.h **** * \param base
1527:Generated_Source\PSoC6\pdl\drivers\peripheral\gpio/cy_gpio.h **** * Pointer to the pin's port register base address
1528:Generated_Source\PSoC6\pdl\drivers\peripheral\gpio/cy_gpio.h **** *
1529:Generated_Source\PSoC6\pdl\drivers\peripheral\gpio/cy_gpio.h **** * \param pinNum
1530:Generated_Source\PSoC6\pdl\drivers\peripheral\gpio/cy_gpio.h **** * Position of the pin bit-field within the port register
1531:Generated_Source\PSoC6\pdl\drivers\peripheral\gpio/cy_gpio.h **** * Bit position 8 is the routed pin through the port glitch filter.
1532:Generated_Source\PSoC6\pdl\drivers\peripheral\gpio/cy_gpio.h **** *
1533:Generated_Source\PSoC6\pdl\drivers\peripheral\gpio/cy_gpio.h **** * \return
1534:Generated_Source\PSoC6\pdl\drivers\peripheral\gpio/cy_gpio.h **** * 0 = Pin interrupt condition not detected
1535:Generated_Source\PSoC6\pdl\drivers\peripheral\gpio/cy_gpio.h **** * 1 = Pin interrupt condition detected
1536:Generated_Source\PSoC6\pdl\drivers\peripheral\gpio/cy_gpio.h **** *
1537:Generated_Source\PSoC6\pdl\drivers\peripheral\gpio/cy_gpio.h **** * \funcusage
1538:Generated_Source\PSoC6\pdl\drivers\peripheral\gpio/cy_gpio.h **** * \snippet gpio/gpio_v1_10_sut_01.cydsn/main_cm4.c snippet_Cy_GPIO_GetInterruptStatus
1539:Generated_Source\PSoC6\pdl\drivers\peripheral\gpio/cy_gpio.h **** *
1540:Generated_Source\PSoC6\pdl\drivers\peripheral\gpio/cy_gpio.h **** *******************************************************************************/
1541:Generated_Source\PSoC6\pdl\drivers\peripheral\gpio/cy_gpio.h **** __STATIC_INLINE uint32_t Cy_GPIO_GetInterruptStatus(GPIO_PRT_Type* base, uint32_t pinNum)
1542:Generated_Source\PSoC6\pdl\drivers\peripheral\gpio/cy_gpio.h **** {
1543:Generated_Source\PSoC6\pdl\drivers\peripheral\gpio/cy_gpio.h ****     CY_ASSERT_L2(CY_GPIO_IS_FILTER_PIN_VALID(pinNum));
1544:Generated_Source\PSoC6\pdl\drivers\peripheral\gpio/cy_gpio.h ****     
1545:Generated_Source\PSoC6\pdl\drivers\peripheral\gpio/cy_gpio.h ****     return (base->INTR >> pinNum) & CY_GPIO_INTR_STATUS_MASK;
1546:Generated_Source\PSoC6\pdl\drivers\peripheral\gpio/cy_gpio.h **** }
1547:Generated_Source\PSoC6\pdl\drivers\peripheral\gpio/cy_gpio.h **** 
1548:Generated_Source\PSoC6\pdl\drivers\peripheral\gpio/cy_gpio.h **** 
ARM GAS  C:\Users\ikomb\AppData\Local\Temp\ccAzoKUN.s 			page 35


1549:Generated_Source\PSoC6\pdl\drivers\peripheral\gpio/cy_gpio.h **** /*******************************************************************************
1550:Generated_Source\PSoC6\pdl\drivers\peripheral\gpio/cy_gpio.h **** * Function Name: Cy_GPIO_ClearInterrupt
1551:Generated_Source\PSoC6\pdl\drivers\peripheral\gpio/cy_gpio.h **** ****************************************************************************//**
1552:Generated_Source\PSoC6\pdl\drivers\peripheral\gpio/cy_gpio.h **** *
1553:Generated_Source\PSoC6\pdl\drivers\peripheral\gpio/cy_gpio.h **** * \brief Clears the triggered pin interrupt.
1554:Generated_Source\PSoC6\pdl\drivers\peripheral\gpio/cy_gpio.h **** *
1555:Generated_Source\PSoC6\pdl\drivers\peripheral\gpio/cy_gpio.h **** * \param base
1556:Generated_Source\PSoC6\pdl\drivers\peripheral\gpio/cy_gpio.h **** * Pointer to the pin's port register base address
1557:Generated_Source\PSoC6\pdl\drivers\peripheral\gpio/cy_gpio.h **** *
1558:Generated_Source\PSoC6\pdl\drivers\peripheral\gpio/cy_gpio.h **** * \param pinNum
1559:Generated_Source\PSoC6\pdl\drivers\peripheral\gpio/cy_gpio.h **** * Position of the pin bit-field within the port register
1560:Generated_Source\PSoC6\pdl\drivers\peripheral\gpio/cy_gpio.h **** * Bit position 8 is the routed pin through the port glitch filter.
1561:Generated_Source\PSoC6\pdl\drivers\peripheral\gpio/cy_gpio.h **** *
1562:Generated_Source\PSoC6\pdl\drivers\peripheral\gpio/cy_gpio.h **** * \return
1563:Generated_Source\PSoC6\pdl\drivers\peripheral\gpio/cy_gpio.h **** * void
1564:Generated_Source\PSoC6\pdl\drivers\peripheral\gpio/cy_gpio.h **** *
1565:Generated_Source\PSoC6\pdl\drivers\peripheral\gpio/cy_gpio.h **** * \funcusage
1566:Generated_Source\PSoC6\pdl\drivers\peripheral\gpio/cy_gpio.h **** * \snippet gpio/gpio_v1_10_sut_01.cydsn/main_cm4.c snippet_Cy_GPIO_ClearInterrupt
1567:Generated_Source\PSoC6\pdl\drivers\peripheral\gpio/cy_gpio.h **** *
1568:Generated_Source\PSoC6\pdl\drivers\peripheral\gpio/cy_gpio.h **** *******************************************************************************/
1569:Generated_Source\PSoC6\pdl\drivers\peripheral\gpio/cy_gpio.h **** __STATIC_INLINE void Cy_GPIO_ClearInterrupt(GPIO_PRT_Type* base, uint32_t pinNum)
1570:Generated_Source\PSoC6\pdl\drivers\peripheral\gpio/cy_gpio.h **** {
1571:Generated_Source\PSoC6\pdl\drivers\peripheral\gpio/cy_gpio.h ****     CY_ASSERT_L2(CY_GPIO_IS_FILTER_PIN_VALID(pinNum));
1572:Generated_Source\PSoC6\pdl\drivers\peripheral\gpio/cy_gpio.h ****     
1573:Generated_Source\PSoC6\pdl\drivers\peripheral\gpio/cy_gpio.h ****     /* Any INTR MMIO registers AHB clearing must be preceded with an AHB read access */
1574:Generated_Source\PSoC6\pdl\drivers\peripheral\gpio/cy_gpio.h ****     (void)base->INTR;
1575:Generated_Source\PSoC6\pdl\drivers\peripheral\gpio/cy_gpio.h **** 
1576:Generated_Source\PSoC6\pdl\drivers\peripheral\gpio/cy_gpio.h ****     base->INTR = CY_GPIO_INTR_STATUS_MASK << pinNum;
1577:Generated_Source\PSoC6\pdl\drivers\peripheral\gpio/cy_gpio.h **** 
1578:Generated_Source\PSoC6\pdl\drivers\peripheral\gpio/cy_gpio.h ****     /* This read ensures that the initial write has been flushed out to the hardware */
1579:Generated_Source\PSoC6\pdl\drivers\peripheral\gpio/cy_gpio.h ****     (void)base->INTR;
1580:Generated_Source\PSoC6\pdl\drivers\peripheral\gpio/cy_gpio.h **** }
1581:Generated_Source\PSoC6\pdl\drivers\peripheral\gpio/cy_gpio.h **** 
1582:Generated_Source\PSoC6\pdl\drivers\peripheral\gpio/cy_gpio.h **** 
1583:Generated_Source\PSoC6\pdl\drivers\peripheral\gpio/cy_gpio.h **** /*******************************************************************************
1584:Generated_Source\PSoC6\pdl\drivers\peripheral\gpio/cy_gpio.h **** * Function Name: Cy_GPIO_SetInterruptMask
1585:Generated_Source\PSoC6\pdl\drivers\peripheral\gpio/cy_gpio.h **** ****************************************************************************//**
1586:Generated_Source\PSoC6\pdl\drivers\peripheral\gpio/cy_gpio.h **** *
1587:Generated_Source\PSoC6\pdl\drivers\peripheral\gpio/cy_gpio.h **** * \brief Configures the pin interrupt to be forwarded to the CPU NVIC.
1588:Generated_Source\PSoC6\pdl\drivers\peripheral\gpio/cy_gpio.h **** *
1589:Generated_Source\PSoC6\pdl\drivers\peripheral\gpio/cy_gpio.h **** * \param base
1590:Generated_Source\PSoC6\pdl\drivers\peripheral\gpio/cy_gpio.h **** * Pointer to the pin's port register base address
1591:Generated_Source\PSoC6\pdl\drivers\peripheral\gpio/cy_gpio.h **** *
1592:Generated_Source\PSoC6\pdl\drivers\peripheral\gpio/cy_gpio.h **** * \param pinNum
1593:Generated_Source\PSoC6\pdl\drivers\peripheral\gpio/cy_gpio.h **** * Position of the pin bit-field within the port register.
1594:Generated_Source\PSoC6\pdl\drivers\peripheral\gpio/cy_gpio.h **** * Bit position 8 is the routed pin through the port glitch filter.
1595:Generated_Source\PSoC6\pdl\drivers\peripheral\gpio/cy_gpio.h **** *
1596:Generated_Source\PSoC6\pdl\drivers\peripheral\gpio/cy_gpio.h **** * \param value
1597:Generated_Source\PSoC6\pdl\drivers\peripheral\gpio/cy_gpio.h **** * 0 = Pin interrupt not forwarded to CPU interrupt controller
1598:Generated_Source\PSoC6\pdl\drivers\peripheral\gpio/cy_gpio.h **** * 1 = Pin interrupt masked and forwarded to CPU interrupt controller
1599:Generated_Source\PSoC6\pdl\drivers\peripheral\gpio/cy_gpio.h **** *
1600:Generated_Source\PSoC6\pdl\drivers\peripheral\gpio/cy_gpio.h **** * \return
1601:Generated_Source\PSoC6\pdl\drivers\peripheral\gpio/cy_gpio.h **** * void
1602:Generated_Source\PSoC6\pdl\drivers\peripheral\gpio/cy_gpio.h **** *
1603:Generated_Source\PSoC6\pdl\drivers\peripheral\gpio/cy_gpio.h **** * \note 
1604:Generated_Source\PSoC6\pdl\drivers\peripheral\gpio/cy_gpio.h **** * This function modifies a port register in a read-modify-write operation. It is
1605:Generated_Source\PSoC6\pdl\drivers\peripheral\gpio/cy_gpio.h **** * not thread safe as the resource is shared among multiple pins on a port.
ARM GAS  C:\Users\ikomb\AppData\Local\Temp\ccAzoKUN.s 			page 36


1606:Generated_Source\PSoC6\pdl\drivers\peripheral\gpio/cy_gpio.h **** *
1607:Generated_Source\PSoC6\pdl\drivers\peripheral\gpio/cy_gpio.h **** * \funcusage
1608:Generated_Source\PSoC6\pdl\drivers\peripheral\gpio/cy_gpio.h **** * \snippet gpio/gpio_v1_10_sut_01.cydsn/main_cm4.c snippet_Cy_GPIO_SetInterruptMask
1609:Generated_Source\PSoC6\pdl\drivers\peripheral\gpio/cy_gpio.h **** *
1610:Generated_Source\PSoC6\pdl\drivers\peripheral\gpio/cy_gpio.h **** *******************************************************************************/
1611:Generated_Source\PSoC6\pdl\drivers\peripheral\gpio/cy_gpio.h **** __STATIC_INLINE void Cy_GPIO_SetInterruptMask(GPIO_PRT_Type* base, uint32_t pinNum, uint32_t value)
1612:Generated_Source\PSoC6\pdl\drivers\peripheral\gpio/cy_gpio.h **** {
 380              		.loc 1 1612 0
 381              		.cfi_startproc
 382              		@ args = 0, pretend = 0, frame = 24
 383              		@ frame_needed = 1, uses_anonymous_args = 0
 384 0000 80B5     		push	{r7, lr}
 385              		.cfi_def_cfa_offset 8
 386              		.cfi_offset 7, -8
 387              		.cfi_offset 14, -4
 388 0002 86B0     		sub	sp, sp, #24
 389              		.cfi_def_cfa_offset 32
 390 0004 00AF     		add	r7, sp, #0
 391              		.cfi_def_cfa_register 7
 392 0006 F860     		str	r0, [r7, #12]
 393 0008 B960     		str	r1, [r7, #8]
 394 000a 7A60     		str	r2, [r7, #4]
1613:Generated_Source\PSoC6\pdl\drivers\peripheral\gpio/cy_gpio.h ****     uint32_t tempReg;
1614:Generated_Source\PSoC6\pdl\drivers\peripheral\gpio/cy_gpio.h **** 
1615:Generated_Source\PSoC6\pdl\drivers\peripheral\gpio/cy_gpio.h ****     CY_ASSERT_L2(CY_GPIO_IS_FILTER_PIN_VALID(pinNum));
 395              		.loc 1 1615 0
 396 000c BB68     		ldr	r3, [r7, #8]
 397 000e 082B     		cmp	r3, #8
 398 0010 04D9     		bls	.L28
 399              		.loc 1 1615 0 is_stmt 0 discriminator 1
 400 0012 40F24F61 		movw	r1, #1615
 401 0016 1048     		ldr	r0, .L30
 402 0018 FFF7FEFF 		bl	Cy_SysLib_AssertFailed
 403              	.L28:
1616:Generated_Source\PSoC6\pdl\drivers\peripheral\gpio/cy_gpio.h ****     CY_ASSERT_L2(CY_GPIO_IS_VALUE_VALID(value));
 404              		.loc 1 1616 0 is_stmt 1
 405 001c 7B68     		ldr	r3, [r7, #4]
 406 001e 012B     		cmp	r3, #1
 407 0020 04D9     		bls	.L29
 408              		.loc 1 1616 0 is_stmt 0 discriminator 1
 409 0022 4FF4CA61 		mov	r1, #1616
 410 0026 0C48     		ldr	r0, .L30
 411 0028 FFF7FEFF 		bl	Cy_SysLib_AssertFailed
 412              	.L29:
1617:Generated_Source\PSoC6\pdl\drivers\peripheral\gpio/cy_gpio.h **** 
1618:Generated_Source\PSoC6\pdl\drivers\peripheral\gpio/cy_gpio.h ****     tempReg= base->INTR_MASK & ~(CY_GPIO_INTR_EN_MASK << pinNum);
 413              		.loc 1 1618 0 is_stmt 1
 414 002c FB68     		ldr	r3, [r7, #12]
 415 002e 9A69     		ldr	r2, [r3, #24]
 416 0030 0121     		movs	r1, #1
 417 0032 BB68     		ldr	r3, [r7, #8]
 418 0034 01FA03F3 		lsl	r3, r1, r3
 419 0038 DB43     		mvns	r3, r3
 420 003a 1340     		ands	r3, r3, r2
 421 003c 7B61     		str	r3, [r7, #20]
1619:Generated_Source\PSoC6\pdl\drivers\peripheral\gpio/cy_gpio.h ****     base->INTR_MASK = tempReg | ((value & CY_GPIO_INTR_EN_MASK) << pinNum);
 422              		.loc 1 1619 0
ARM GAS  C:\Users\ikomb\AppData\Local\Temp\ccAzoKUN.s 			page 37


 423 003e 7B68     		ldr	r3, [r7, #4]
 424 0040 03F00102 		and	r2, r3, #1
 425 0044 BB68     		ldr	r3, [r7, #8]
 426 0046 9A40     		lsls	r2, r2, r3
 427 0048 7B69     		ldr	r3, [r7, #20]
 428 004a 1A43     		orrs	r2, r2, r3
 429 004c FB68     		ldr	r3, [r7, #12]
 430 004e 9A61     		str	r2, [r3, #24]
1620:Generated_Source\PSoC6\pdl\drivers\peripheral\gpio/cy_gpio.h **** }
 431              		.loc 1 1620 0
 432 0050 00BF     		nop
 433 0052 1837     		adds	r7, r7, #24
 434              		.cfi_def_cfa_offset 8
 435 0054 BD46     		mov	sp, r7
 436              		.cfi_def_cfa_register 13
 437              		@ sp needed
 438 0056 80BD     		pop	{r7, pc}
 439              	.L31:
 440              		.align	2
 441              	.L30:
 442 0058 00000000 		.word	.LC0
 443              		.cfi_endproc
 444              	.LFE154:
 445              		.size	Cy_GPIO_SetInterruptMask, .-Cy_GPIO_SetInterruptMask
 446              		.section	.text.Cy_GPIO_SetInterruptEdge,"ax",%progbits
 447              		.align	2
 448              		.thumb
 449              		.thumb_func
 450              		.type	Cy_GPIO_SetInterruptEdge, %function
 451              	Cy_GPIO_SetInterruptEdge:
 452              	.LFB158:
1621:Generated_Source\PSoC6\pdl\drivers\peripheral\gpio/cy_gpio.h **** 
1622:Generated_Source\PSoC6\pdl\drivers\peripheral\gpio/cy_gpio.h **** 
1623:Generated_Source\PSoC6\pdl\drivers\peripheral\gpio/cy_gpio.h **** /*******************************************************************************
1624:Generated_Source\PSoC6\pdl\drivers\peripheral\gpio/cy_gpio.h **** * Function Name: Cy_GPIO_GetInterruptMask
1625:Generated_Source\PSoC6\pdl\drivers\peripheral\gpio/cy_gpio.h **** ****************************************************************************//**
1626:Generated_Source\PSoC6\pdl\drivers\peripheral\gpio/cy_gpio.h **** *
1627:Generated_Source\PSoC6\pdl\drivers\peripheral\gpio/cy_gpio.h **** * \brief Returns the state of the pin interrupt mask.
1628:Generated_Source\PSoC6\pdl\drivers\peripheral\gpio/cy_gpio.h **** *
1629:Generated_Source\PSoC6\pdl\drivers\peripheral\gpio/cy_gpio.h **** * This mask is used to determine whether the pin is configured to be forwarded
1630:Generated_Source\PSoC6\pdl\drivers\peripheral\gpio/cy_gpio.h **** * to the CPU NVIC.
1631:Generated_Source\PSoC6\pdl\drivers\peripheral\gpio/cy_gpio.h **** *
1632:Generated_Source\PSoC6\pdl\drivers\peripheral\gpio/cy_gpio.h **** * \param base
1633:Generated_Source\PSoC6\pdl\drivers\peripheral\gpio/cy_gpio.h **** * Pointer to the pin's port register base address
1634:Generated_Source\PSoC6\pdl\drivers\peripheral\gpio/cy_gpio.h **** *
1635:Generated_Source\PSoC6\pdl\drivers\peripheral\gpio/cy_gpio.h **** * \param pinNum
1636:Generated_Source\PSoC6\pdl\drivers\peripheral\gpio/cy_gpio.h **** * Position of the pin bit-field within the port register.
1637:Generated_Source\PSoC6\pdl\drivers\peripheral\gpio/cy_gpio.h **** * Bit position 8 is the routed pin through the port glitch filter.
1638:Generated_Source\PSoC6\pdl\drivers\peripheral\gpio/cy_gpio.h **** *
1639:Generated_Source\PSoC6\pdl\drivers\peripheral\gpio/cy_gpio.h **** * \return
1640:Generated_Source\PSoC6\pdl\drivers\peripheral\gpio/cy_gpio.h **** * 0 = Pin interrupt not forwarded to CPU interrupt controller
1641:Generated_Source\PSoC6\pdl\drivers\peripheral\gpio/cy_gpio.h **** * 1 = Pin interrupt masked and forwarded to CPU interrupt controller
1642:Generated_Source\PSoC6\pdl\drivers\peripheral\gpio/cy_gpio.h **** *
1643:Generated_Source\PSoC6\pdl\drivers\peripheral\gpio/cy_gpio.h **** * \funcusage
1644:Generated_Source\PSoC6\pdl\drivers\peripheral\gpio/cy_gpio.h **** * \snippet gpio/gpio_v1_10_sut_01.cydsn/main_cm4.c snippet_Cy_GPIO_SetInterruptMask
1645:Generated_Source\PSoC6\pdl\drivers\peripheral\gpio/cy_gpio.h **** *
1646:Generated_Source\PSoC6\pdl\drivers\peripheral\gpio/cy_gpio.h **** *******************************************************************************/
ARM GAS  C:\Users\ikomb\AppData\Local\Temp\ccAzoKUN.s 			page 38


1647:Generated_Source\PSoC6\pdl\drivers\peripheral\gpio/cy_gpio.h **** __STATIC_INLINE uint32_t Cy_GPIO_GetInterruptMask(GPIO_PRT_Type* base, uint32_t pinNum)
1648:Generated_Source\PSoC6\pdl\drivers\peripheral\gpio/cy_gpio.h **** {
1649:Generated_Source\PSoC6\pdl\drivers\peripheral\gpio/cy_gpio.h ****     CY_ASSERT_L2(CY_GPIO_IS_FILTER_PIN_VALID(pinNum));
1650:Generated_Source\PSoC6\pdl\drivers\peripheral\gpio/cy_gpio.h ****     
1651:Generated_Source\PSoC6\pdl\drivers\peripheral\gpio/cy_gpio.h ****     return (base->INTR_MASK >> pinNum) & CY_GPIO_INTR_EN_MASK;
1652:Generated_Source\PSoC6\pdl\drivers\peripheral\gpio/cy_gpio.h **** }
1653:Generated_Source\PSoC6\pdl\drivers\peripheral\gpio/cy_gpio.h **** 
1654:Generated_Source\PSoC6\pdl\drivers\peripheral\gpio/cy_gpio.h **** 
1655:Generated_Source\PSoC6\pdl\drivers\peripheral\gpio/cy_gpio.h **** /*******************************************************************************
1656:Generated_Source\PSoC6\pdl\drivers\peripheral\gpio/cy_gpio.h **** * Function Name: Cy_GPIO_GetInterruptStatusMasked
1657:Generated_Source\PSoC6\pdl\drivers\peripheral\gpio/cy_gpio.h **** ****************************************************************************//**
1658:Generated_Source\PSoC6\pdl\drivers\peripheral\gpio/cy_gpio.h **** *
1659:Generated_Source\PSoC6\pdl\drivers\peripheral\gpio/cy_gpio.h **** * \brief Return the pin's current interrupt state after being masked.
1660:Generated_Source\PSoC6\pdl\drivers\peripheral\gpio/cy_gpio.h **** *
1661:Generated_Source\PSoC6\pdl\drivers\peripheral\gpio/cy_gpio.h **** * The core processor's NVIC is triggered by the masked interrupt bits. This 
1662:Generated_Source\PSoC6\pdl\drivers\peripheral\gpio/cy_gpio.h **** * function allows reading this masked interrupt state. Note that the bits that
1663:Generated_Source\PSoC6\pdl\drivers\peripheral\gpio/cy_gpio.h **** * are not masked will not be forwarded to the NVIC.
1664:Generated_Source\PSoC6\pdl\drivers\peripheral\gpio/cy_gpio.h **** *
1665:Generated_Source\PSoC6\pdl\drivers\peripheral\gpio/cy_gpio.h **** * \param base
1666:Generated_Source\PSoC6\pdl\drivers\peripheral\gpio/cy_gpio.h **** * Pointer to the pin's port register base address
1667:Generated_Source\PSoC6\pdl\drivers\peripheral\gpio/cy_gpio.h **** *
1668:Generated_Source\PSoC6\pdl\drivers\peripheral\gpio/cy_gpio.h **** * \param pinNum
1669:Generated_Source\PSoC6\pdl\drivers\peripheral\gpio/cy_gpio.h **** * Position of the pin bit-field within the port register.
1670:Generated_Source\PSoC6\pdl\drivers\peripheral\gpio/cy_gpio.h **** * Bit position 8 is the routed pin through the port glitch filter.
1671:Generated_Source\PSoC6\pdl\drivers\peripheral\gpio/cy_gpio.h **** *
1672:Generated_Source\PSoC6\pdl\drivers\peripheral\gpio/cy_gpio.h **** * \return
1673:Generated_Source\PSoC6\pdl\drivers\peripheral\gpio/cy_gpio.h **** * 0 = Pin interrupt not detected or not forwarded to CPU interrupt controller
1674:Generated_Source\PSoC6\pdl\drivers\peripheral\gpio/cy_gpio.h **** * 1 = Pin interrupt detected and forwarded to CPU interrupt controller
1675:Generated_Source\PSoC6\pdl\drivers\peripheral\gpio/cy_gpio.h **** *
1676:Generated_Source\PSoC6\pdl\drivers\peripheral\gpio/cy_gpio.h **** * \funcusage
1677:Generated_Source\PSoC6\pdl\drivers\peripheral\gpio/cy_gpio.h **** * \snippet gpio/gpio_v1_10_sut_01.cydsn/main_cm4.c snippet_Cy_GPIO_GetInterruptStatusMasked
1678:Generated_Source\PSoC6\pdl\drivers\peripheral\gpio/cy_gpio.h **** *
1679:Generated_Source\PSoC6\pdl\drivers\peripheral\gpio/cy_gpio.h **** *******************************************************************************/
1680:Generated_Source\PSoC6\pdl\drivers\peripheral\gpio/cy_gpio.h **** __STATIC_INLINE uint32_t Cy_GPIO_GetInterruptStatusMasked(GPIO_PRT_Type* base, uint32_t pinNum)
1681:Generated_Source\PSoC6\pdl\drivers\peripheral\gpio/cy_gpio.h **** {
1682:Generated_Source\PSoC6\pdl\drivers\peripheral\gpio/cy_gpio.h ****     CY_ASSERT_L2(CY_GPIO_IS_FILTER_PIN_VALID(pinNum));
1683:Generated_Source\PSoC6\pdl\drivers\peripheral\gpio/cy_gpio.h ****     
1684:Generated_Source\PSoC6\pdl\drivers\peripheral\gpio/cy_gpio.h ****     return (base->INTR_MASKED >> pinNum) & CY_GPIO_INTR_MASKED_MASK;
1685:Generated_Source\PSoC6\pdl\drivers\peripheral\gpio/cy_gpio.h **** }
1686:Generated_Source\PSoC6\pdl\drivers\peripheral\gpio/cy_gpio.h **** 
1687:Generated_Source\PSoC6\pdl\drivers\peripheral\gpio/cy_gpio.h **** 
1688:Generated_Source\PSoC6\pdl\drivers\peripheral\gpio/cy_gpio.h **** /*******************************************************************************
1689:Generated_Source\PSoC6\pdl\drivers\peripheral\gpio/cy_gpio.h **** * Function Name: Cy_GPIO_SetSwInterrupt
1690:Generated_Source\PSoC6\pdl\drivers\peripheral\gpio/cy_gpio.h **** ****************************************************************************//**
1691:Generated_Source\PSoC6\pdl\drivers\peripheral\gpio/cy_gpio.h **** *
1692:Generated_Source\PSoC6\pdl\drivers\peripheral\gpio/cy_gpio.h **** * \brief Force a pin interrupt to trigger.
1693:Generated_Source\PSoC6\pdl\drivers\peripheral\gpio/cy_gpio.h **** *
1694:Generated_Source\PSoC6\pdl\drivers\peripheral\gpio/cy_gpio.h **** * \param base
1695:Generated_Source\PSoC6\pdl\drivers\peripheral\gpio/cy_gpio.h **** * Pointer to the pin's port register base address
1696:Generated_Source\PSoC6\pdl\drivers\peripheral\gpio/cy_gpio.h **** *
1697:Generated_Source\PSoC6\pdl\drivers\peripheral\gpio/cy_gpio.h **** * \param pinNum
1698:Generated_Source\PSoC6\pdl\drivers\peripheral\gpio/cy_gpio.h **** * Position of the pin bit-field within the port register.
1699:Generated_Source\PSoC6\pdl\drivers\peripheral\gpio/cy_gpio.h **** * Bit position 8 is the routed pin through the port glitch filter.
1700:Generated_Source\PSoC6\pdl\drivers\peripheral\gpio/cy_gpio.h **** *
1701:Generated_Source\PSoC6\pdl\drivers\peripheral\gpio/cy_gpio.h **** * \return
1702:Generated_Source\PSoC6\pdl\drivers\peripheral\gpio/cy_gpio.h **** * void
1703:Generated_Source\PSoC6\pdl\drivers\peripheral\gpio/cy_gpio.h **** *
ARM GAS  C:\Users\ikomb\AppData\Local\Temp\ccAzoKUN.s 			page 39


1704:Generated_Source\PSoC6\pdl\drivers\peripheral\gpio/cy_gpio.h **** * \funcusage
1705:Generated_Source\PSoC6\pdl\drivers\peripheral\gpio/cy_gpio.h **** * \snippet gpio/gpio_v1_10_sut_01.cydsn/main_cm4.c snippet_Cy_GPIO_SetSwInterrupt
1706:Generated_Source\PSoC6\pdl\drivers\peripheral\gpio/cy_gpio.h **** *
1707:Generated_Source\PSoC6\pdl\drivers\peripheral\gpio/cy_gpio.h **** *******************************************************************************/
1708:Generated_Source\PSoC6\pdl\drivers\peripheral\gpio/cy_gpio.h **** __STATIC_INLINE void Cy_GPIO_SetSwInterrupt(GPIO_PRT_Type* base, uint32_t pinNum)
1709:Generated_Source\PSoC6\pdl\drivers\peripheral\gpio/cy_gpio.h **** {
1710:Generated_Source\PSoC6\pdl\drivers\peripheral\gpio/cy_gpio.h ****     CY_ASSERT_L2(CY_GPIO_IS_FILTER_PIN_VALID(pinNum));
1711:Generated_Source\PSoC6\pdl\drivers\peripheral\gpio/cy_gpio.h ****     
1712:Generated_Source\PSoC6\pdl\drivers\peripheral\gpio/cy_gpio.h ****     base->INTR_SET = CY_GPIO_INTR_SET_MASK << pinNum;
1713:Generated_Source\PSoC6\pdl\drivers\peripheral\gpio/cy_gpio.h **** }
1714:Generated_Source\PSoC6\pdl\drivers\peripheral\gpio/cy_gpio.h **** 
1715:Generated_Source\PSoC6\pdl\drivers\peripheral\gpio/cy_gpio.h **** 
1716:Generated_Source\PSoC6\pdl\drivers\peripheral\gpio/cy_gpio.h **** /*******************************************************************************
1717:Generated_Source\PSoC6\pdl\drivers\peripheral\gpio/cy_gpio.h **** * Function Name: Cy_GPIO_SetInterruptEdge
1718:Generated_Source\PSoC6\pdl\drivers\peripheral\gpio/cy_gpio.h **** ****************************************************************************//**
1719:Generated_Source\PSoC6\pdl\drivers\peripheral\gpio/cy_gpio.h **** *
1720:Generated_Source\PSoC6\pdl\drivers\peripheral\gpio/cy_gpio.h **** * \brief Configures the type of edge that will trigger a pin interrupt.
1721:Generated_Source\PSoC6\pdl\drivers\peripheral\gpio/cy_gpio.h **** *
1722:Generated_Source\PSoC6\pdl\drivers\peripheral\gpio/cy_gpio.h **** * \param base
1723:Generated_Source\PSoC6\pdl\drivers\peripheral\gpio/cy_gpio.h **** * Pointer to the pin's port register base address
1724:Generated_Source\PSoC6\pdl\drivers\peripheral\gpio/cy_gpio.h **** *
1725:Generated_Source\PSoC6\pdl\drivers\peripheral\gpio/cy_gpio.h **** * \param pinNum
1726:Generated_Source\PSoC6\pdl\drivers\peripheral\gpio/cy_gpio.h **** * Position of the pin bit-field within the port register.
1727:Generated_Source\PSoC6\pdl\drivers\peripheral\gpio/cy_gpio.h **** * Bit position 8 is the routed pin through the port glitch filter.
1728:Generated_Source\PSoC6\pdl\drivers\peripheral\gpio/cy_gpio.h **** *
1729:Generated_Source\PSoC6\pdl\drivers\peripheral\gpio/cy_gpio.h **** * \param value
1730:Generated_Source\PSoC6\pdl\drivers\peripheral\gpio/cy_gpio.h **** * Pin interrupt mode. Options are detailed in \ref group_gpio_interruptTrigger macros
1731:Generated_Source\PSoC6\pdl\drivers\peripheral\gpio/cy_gpio.h **** *
1732:Generated_Source\PSoC6\pdl\drivers\peripheral\gpio/cy_gpio.h **** * \return
1733:Generated_Source\PSoC6\pdl\drivers\peripheral\gpio/cy_gpio.h **** * void
1734:Generated_Source\PSoC6\pdl\drivers\peripheral\gpio/cy_gpio.h **** *
1735:Generated_Source\PSoC6\pdl\drivers\peripheral\gpio/cy_gpio.h **** * \note 
1736:Generated_Source\PSoC6\pdl\drivers\peripheral\gpio/cy_gpio.h **** * This function modifies a port register in a read-modify-write operation. It is
1737:Generated_Source\PSoC6\pdl\drivers\peripheral\gpio/cy_gpio.h **** * not thread safe as the resource is shared among multiple pins on a port.
1738:Generated_Source\PSoC6\pdl\drivers\peripheral\gpio/cy_gpio.h **** *
1739:Generated_Source\PSoC6\pdl\drivers\peripheral\gpio/cy_gpio.h **** * \funcusage
1740:Generated_Source\PSoC6\pdl\drivers\peripheral\gpio/cy_gpio.h **** * \snippet gpio/gpio_v1_10_sut_01.cydsn/main_cm4.c snippet_Cy_GPIO_SetInterruptEdge
1741:Generated_Source\PSoC6\pdl\drivers\peripheral\gpio/cy_gpio.h **** *
1742:Generated_Source\PSoC6\pdl\drivers\peripheral\gpio/cy_gpio.h **** *******************************************************************************/
1743:Generated_Source\PSoC6\pdl\drivers\peripheral\gpio/cy_gpio.h **** __STATIC_INLINE void Cy_GPIO_SetInterruptEdge(GPIO_PRT_Type* base, uint32_t pinNum, uint32_t value)
1744:Generated_Source\PSoC6\pdl\drivers\peripheral\gpio/cy_gpio.h **** {
 453              		.loc 1 1744 0
 454              		.cfi_startproc
 455              		@ args = 0, pretend = 0, frame = 24
 456              		@ frame_needed = 1, uses_anonymous_args = 0
 457 0000 80B5     		push	{r7, lr}
 458              		.cfi_def_cfa_offset 8
 459              		.cfi_offset 7, -8
 460              		.cfi_offset 14, -4
 461 0002 86B0     		sub	sp, sp, #24
 462              		.cfi_def_cfa_offset 32
 463 0004 00AF     		add	r7, sp, #0
 464              		.cfi_def_cfa_register 7
 465 0006 F860     		str	r0, [r7, #12]
 466 0008 B960     		str	r1, [r7, #8]
 467 000a 7A60     		str	r2, [r7, #4]
1745:Generated_Source\PSoC6\pdl\drivers\peripheral\gpio/cy_gpio.h ****     uint32_t tempReg;
ARM GAS  C:\Users\ikomb\AppData\Local\Temp\ccAzoKUN.s 			page 40


1746:Generated_Source\PSoC6\pdl\drivers\peripheral\gpio/cy_gpio.h ****     uint32_t pinLoc;
1747:Generated_Source\PSoC6\pdl\drivers\peripheral\gpio/cy_gpio.h **** 
1748:Generated_Source\PSoC6\pdl\drivers\peripheral\gpio/cy_gpio.h ****     CY_ASSERT_L2(CY_GPIO_IS_FILTER_PIN_VALID(pinNum));
 468              		.loc 1 1748 0
 469 000c BB68     		ldr	r3, [r7, #8]
 470 000e 082B     		cmp	r3, #8
 471 0010 04D9     		bls	.L33
 472              		.loc 1 1748 0 is_stmt 0 discriminator 1
 473 0012 40F2D461 		movw	r1, #1748
 474 0016 1648     		ldr	r0, .L35
 475 0018 FFF7FEFF 		bl	Cy_SysLib_AssertFailed
 476              	.L33:
1749:Generated_Source\PSoC6\pdl\drivers\peripheral\gpio/cy_gpio.h ****     CY_ASSERT_L2(CY_GPIO_IS_INT_EDGE_VALID(value));
 477              		.loc 1 1749 0 is_stmt 1
 478 001c 7B68     		ldr	r3, [r7, #4]
 479 001e 002B     		cmp	r3, #0
 480 0020 0DD0     		beq	.L34
 481              		.loc 1 1749 0 is_stmt 0 discriminator 1
 482 0022 7B68     		ldr	r3, [r7, #4]
 483 0024 012B     		cmp	r3, #1
 484 0026 0AD0     		beq	.L34
 485              		.loc 1 1749 0 discriminator 2
 486 0028 7B68     		ldr	r3, [r7, #4]
 487 002a 022B     		cmp	r3, #2
 488 002c 07D0     		beq	.L34
 489              		.loc 1 1749 0 discriminator 3
 490 002e 7B68     		ldr	r3, [r7, #4]
 491 0030 032B     		cmp	r3, #3
 492 0032 04D0     		beq	.L34
 493              		.loc 1 1749 0 discriminator 4
 494 0034 40F2D561 		movw	r1, #1749
 495 0038 0D48     		ldr	r0, .L35
 496 003a FFF7FEFF 		bl	Cy_SysLib_AssertFailed
 497              	.L34:
1750:Generated_Source\PSoC6\pdl\drivers\peripheral\gpio/cy_gpio.h **** 
1751:Generated_Source\PSoC6\pdl\drivers\peripheral\gpio/cy_gpio.h ****     pinLoc = pinNum << CY_GPIO_INTR_CFG_OFFSET;
 498              		.loc 1 1751 0 is_stmt 1
 499 003e BB68     		ldr	r3, [r7, #8]
 500 0040 5B00     		lsls	r3, r3, #1
 501 0042 7B61     		str	r3, [r7, #20]
1752:Generated_Source\PSoC6\pdl\drivers\peripheral\gpio/cy_gpio.h ****     tempReg = base->INTR_CFG & ~(CY_GPIO_INTR_EDGE_MASK << pinLoc);
 502              		.loc 1 1752 0
 503 0044 FB68     		ldr	r3, [r7, #12]
 504 0046 5A6A     		ldr	r2, [r3, #36]
 505 0048 0321     		movs	r1, #3
 506 004a 7B69     		ldr	r3, [r7, #20]
 507 004c 01FA03F3 		lsl	r3, r1, r3
 508 0050 DB43     		mvns	r3, r3
 509 0052 1340     		ands	r3, r3, r2
 510 0054 3B61     		str	r3, [r7, #16]
1753:Generated_Source\PSoC6\pdl\drivers\peripheral\gpio/cy_gpio.h ****     base->INTR_CFG = tempReg | ((value & CY_GPIO_INTR_EDGE_MASK) << pinLoc);
 511              		.loc 1 1753 0
 512 0056 7B68     		ldr	r3, [r7, #4]
 513 0058 03F00302 		and	r2, r3, #3
 514 005c 7B69     		ldr	r3, [r7, #20]
 515 005e 9A40     		lsls	r2, r2, r3
 516 0060 3B69     		ldr	r3, [r7, #16]
ARM GAS  C:\Users\ikomb\AppData\Local\Temp\ccAzoKUN.s 			page 41


 517 0062 1A43     		orrs	r2, r2, r3
 518 0064 FB68     		ldr	r3, [r7, #12]
 519 0066 5A62     		str	r2, [r3, #36]
1754:Generated_Source\PSoC6\pdl\drivers\peripheral\gpio/cy_gpio.h **** }
 520              		.loc 1 1754 0
 521 0068 00BF     		nop
 522 006a 1837     		adds	r7, r7, #24
 523              		.cfi_def_cfa_offset 8
 524 006c BD46     		mov	sp, r7
 525              		.cfi_def_cfa_register 13
 526              		@ sp needed
 527 006e 80BD     		pop	{r7, pc}
 528              	.L36:
 529              		.align	2
 530              	.L35:
 531 0070 00000000 		.word	.LC0
 532              		.cfi_endproc
 533              	.LFE158:
 534              		.size	Cy_GPIO_SetInterruptEdge, .-Cy_GPIO_SetInterruptEdge
 535              		.section	.rodata
 536 003d 000000   		.align	2
 537              	.LC1:
 538 0040 47656E65 		.ascii	"Generated_Source\\PSoC6\\pdl\\drivers\\peripheral\\"
 538      72617465 
 538      645F536F 
 538      75726365 
 538      5C50536F 
 539 006e 6770696F 		.ascii	"gpio\\cy_gpio.c\000"
 539      5C63795F 
 539      6770696F 
 539      2E6300
 540              		.section	.text.Cy_GPIO_Pin_Init,"ax",%progbits
 541              		.align	2
 542              		.global	Cy_GPIO_Pin_Init
 543              		.thumb
 544              		.thumb_func
 545              		.type	Cy_GPIO_Pin_Init, %function
 546              	Cy_GPIO_Pin_Init:
 547              	.LFB163:
 548              		.file 2 "Generated_Source\\PSoC6\\pdl\\drivers\\peripheral\\gpio\\cy_gpio.c"
   1:Generated_Source\PSoC6\pdl\drivers\peripheral\gpio/cy_gpio.c **** /***************************************************************************//**
   2:Generated_Source\PSoC6\pdl\drivers\peripheral\gpio/cy_gpio.c **** * \file cy_gpio.c
   3:Generated_Source\PSoC6\pdl\drivers\peripheral\gpio/cy_gpio.c **** * \version 1.10.1
   4:Generated_Source\PSoC6\pdl\drivers\peripheral\gpio/cy_gpio.c **** *
   5:Generated_Source\PSoC6\pdl\drivers\peripheral\gpio/cy_gpio.c **** * \brief
   6:Generated_Source\PSoC6\pdl\drivers\peripheral\gpio/cy_gpio.c **** * Provides an API implementation of the GPIO driver
   7:Generated_Source\PSoC6\pdl\drivers\peripheral\gpio/cy_gpio.c **** *
   8:Generated_Source\PSoC6\pdl\drivers\peripheral\gpio/cy_gpio.c **** ********************************************************************************
   9:Generated_Source\PSoC6\pdl\drivers\peripheral\gpio/cy_gpio.c **** * \copyright
  10:Generated_Source\PSoC6\pdl\drivers\peripheral\gpio/cy_gpio.c **** * Copyright 2016-2018, Cypress Semiconductor Corporation. All rights reserved.
  11:Generated_Source\PSoC6\pdl\drivers\peripheral\gpio/cy_gpio.c **** * You may use this file only in accordance with the license, terms, conditions,
  12:Generated_Source\PSoC6\pdl\drivers\peripheral\gpio/cy_gpio.c **** * disclaimers, and limitations in the end user license agreement accompanying
  13:Generated_Source\PSoC6\pdl\drivers\peripheral\gpio/cy_gpio.c **** * the software package with which this file was provided.
  14:Generated_Source\PSoC6\pdl\drivers\peripheral\gpio/cy_gpio.c **** *******************************************************************************/
  15:Generated_Source\PSoC6\pdl\drivers\peripheral\gpio/cy_gpio.c **** 
  16:Generated_Source\PSoC6\pdl\drivers\peripheral\gpio/cy_gpio.c **** #include "cy_gpio.h"
  17:Generated_Source\PSoC6\pdl\drivers\peripheral\gpio/cy_gpio.c **** 
ARM GAS  C:\Users\ikomb\AppData\Local\Temp\ccAzoKUN.s 			page 42


  18:Generated_Source\PSoC6\pdl\drivers\peripheral\gpio/cy_gpio.c **** #if defined(__cplusplus)
  19:Generated_Source\PSoC6\pdl\drivers\peripheral\gpio/cy_gpio.c **** extern "C" {
  20:Generated_Source\PSoC6\pdl\drivers\peripheral\gpio/cy_gpio.c **** #endif
  21:Generated_Source\PSoC6\pdl\drivers\peripheral\gpio/cy_gpio.c **** 
  22:Generated_Source\PSoC6\pdl\drivers\peripheral\gpio/cy_gpio.c **** 
  23:Generated_Source\PSoC6\pdl\drivers\peripheral\gpio/cy_gpio.c **** /*******************************************************************************
  24:Generated_Source\PSoC6\pdl\drivers\peripheral\gpio/cy_gpio.c **** * Function Name: Cy_GPIO_Pin_Init
  25:Generated_Source\PSoC6\pdl\drivers\peripheral\gpio/cy_gpio.c **** ****************************************************************************//**
  26:Generated_Source\PSoC6\pdl\drivers\peripheral\gpio/cy_gpio.c **** *
  27:Generated_Source\PSoC6\pdl\drivers\peripheral\gpio/cy_gpio.c **** * \brief Initializes all pin configuration settings for the specified pin.
  28:Generated_Source\PSoC6\pdl\drivers\peripheral\gpio/cy_gpio.c **** *
  29:Generated_Source\PSoC6\pdl\drivers\peripheral\gpio/cy_gpio.c **** * \param base
  30:Generated_Source\PSoC6\pdl\drivers\peripheral\gpio/cy_gpio.c **** * Pointer to the pin's port register base address
  31:Generated_Source\PSoC6\pdl\drivers\peripheral\gpio/cy_gpio.c **** *
  32:Generated_Source\PSoC6\pdl\drivers\peripheral\gpio/cy_gpio.c **** * \param pinNum
  33:Generated_Source\PSoC6\pdl\drivers\peripheral\gpio/cy_gpio.c **** * Position of the pin bit-field within the port register
  34:Generated_Source\PSoC6\pdl\drivers\peripheral\gpio/cy_gpio.c **** *
  35:Generated_Source\PSoC6\pdl\drivers\peripheral\gpio/cy_gpio.c **** * \param config
  36:Generated_Source\PSoC6\pdl\drivers\peripheral\gpio/cy_gpio.c **** * Pointer to the pin config structure base address
  37:Generated_Source\PSoC6\pdl\drivers\peripheral\gpio/cy_gpio.c **** *
  38:Generated_Source\PSoC6\pdl\drivers\peripheral\gpio/cy_gpio.c **** * \return
  39:Generated_Source\PSoC6\pdl\drivers\peripheral\gpio/cy_gpio.c **** * Initialization status
  40:Generated_Source\PSoC6\pdl\drivers\peripheral\gpio/cy_gpio.c **** *
  41:Generated_Source\PSoC6\pdl\drivers\peripheral\gpio/cy_gpio.c **** * \note 
  42:Generated_Source\PSoC6\pdl\drivers\peripheral\gpio/cy_gpio.c **** * This function modifies port registers in read-modify-write operations. It is
  43:Generated_Source\PSoC6\pdl\drivers\peripheral\gpio/cy_gpio.c **** * not thread safe as the resource is shared among multiple pins on a port.
  44:Generated_Source\PSoC6\pdl\drivers\peripheral\gpio/cy_gpio.c **** *
  45:Generated_Source\PSoC6\pdl\drivers\peripheral\gpio/cy_gpio.c **** * \funcusage
  46:Generated_Source\PSoC6\pdl\drivers\peripheral\gpio/cy_gpio.c **** * \snippet gpio/gpio_v1_10_sut_01.cydsn/main_cm4.c snippet_Cy_GPIO_Pin_Init
  47:Generated_Source\PSoC6\pdl\drivers\peripheral\gpio/cy_gpio.c **** *
  48:Generated_Source\PSoC6\pdl\drivers\peripheral\gpio/cy_gpio.c **** *******************************************************************************/
  49:Generated_Source\PSoC6\pdl\drivers\peripheral\gpio/cy_gpio.c **** cy_en_gpio_status_t Cy_GPIO_Pin_Init(GPIO_PRT_Type *base, uint32_t pinNum, const cy_stc_gpio_pin_co
  50:Generated_Source\PSoC6\pdl\drivers\peripheral\gpio/cy_gpio.c **** {
 549              		.loc 2 50 0
 550              		.cfi_startproc
 551              		@ args = 0, pretend = 0, frame = 32
 552              		@ frame_needed = 1, uses_anonymous_args = 0
 553 0000 80B5     		push	{r7, lr}
 554              		.cfi_def_cfa_offset 8
 555              		.cfi_offset 7, -8
 556              		.cfi_offset 14, -4
 557 0002 88B0     		sub	sp, sp, #32
 558              		.cfi_def_cfa_offset 40
 559 0004 00AF     		add	r7, sp, #0
 560              		.cfi_def_cfa_register 7
 561 0006 F860     		str	r0, [r7, #12]
 562 0008 B960     		str	r1, [r7, #8]
 563 000a 7A60     		str	r2, [r7, #4]
  51:Generated_Source\PSoC6\pdl\drivers\peripheral\gpio/cy_gpio.c ****     cy_en_gpio_status_t status = CY_GPIO_SUCCESS;
 564              		.loc 2 51 0
 565 000c 0023     		movs	r3, #0
 566 000e FB61     		str	r3, [r7, #28]
  52:Generated_Source\PSoC6\pdl\drivers\peripheral\gpio/cy_gpio.c ****     uint32_t maskCfgOut;
  53:Generated_Source\PSoC6\pdl\drivers\peripheral\gpio/cy_gpio.c ****     uint32_t tempReg;
  54:Generated_Source\PSoC6\pdl\drivers\peripheral\gpio/cy_gpio.c **** 
  55:Generated_Source\PSoC6\pdl\drivers\peripheral\gpio/cy_gpio.c ****     if((NULL != base) && (NULL != config))
 567              		.loc 2 55 0
ARM GAS  C:\Users\ikomb\AppData\Local\Temp\ccAzoKUN.s 			page 43


 568 0010 FB68     		ldr	r3, [r7, #12]
 569 0012 002B     		cmp	r3, #0
 570 0014 00F03081 		beq	.L38
 571              		.loc 2 55 0 is_stmt 0 discriminator 1
 572 0018 7B68     		ldr	r3, [r7, #4]
 573 001a 002B     		cmp	r3, #0
 574 001c 00F02C81 		beq	.L38
  56:Generated_Source\PSoC6\pdl\drivers\peripheral\gpio/cy_gpio.c ****     {
  57:Generated_Source\PSoC6\pdl\drivers\peripheral\gpio/cy_gpio.c ****         CY_ASSERT_L2(CY_GPIO_IS_PIN_VALID(pinNum));
 575              		.loc 2 57 0 is_stmt 1
 576 0020 BB68     		ldr	r3, [r7, #8]
 577 0022 072B     		cmp	r3, #7
 578 0024 03D9     		bls	.L39
 579              		.loc 2 57 0 is_stmt 0 discriminator 1
 580 0026 3921     		movs	r1, #57
 581 0028 9748     		ldr	r0, .L55
 582 002a FFF7FEFF 		bl	Cy_SysLib_AssertFailed
 583              	.L39:
  58:Generated_Source\PSoC6\pdl\drivers\peripheral\gpio/cy_gpio.c ****         CY_ASSERT_L2(CY_GPIO_IS_VALUE_VALID(config->outVal));
 584              		.loc 2 58 0 is_stmt 1
 585 002e 7B68     		ldr	r3, [r7, #4]
 586 0030 1B68     		ldr	r3, [r3]
 587 0032 012B     		cmp	r3, #1
 588 0034 03D9     		bls	.L40
 589              		.loc 2 58 0 is_stmt 0 discriminator 1
 590 0036 3A21     		movs	r1, #58
 591 0038 9348     		ldr	r0, .L55
 592 003a FFF7FEFF 		bl	Cy_SysLib_AssertFailed
 593              	.L40:
  59:Generated_Source\PSoC6\pdl\drivers\peripheral\gpio/cy_gpio.c ****         CY_ASSERT_L2(CY_GPIO_IS_DM_VALID(config->driveMode));
 594              		.loc 2 59 0 is_stmt 1
 595 003e 7B68     		ldr	r3, [r7, #4]
 596 0040 5B68     		ldr	r3, [r3, #4]
 597 0042 23F00F03 		bic	r3, r3, #15
 598 0046 002B     		cmp	r3, #0
 599 0048 03D0     		beq	.L41
 600              		.loc 2 59 0 is_stmt 0 discriminator 1
 601 004a 3B21     		movs	r1, #59
 602 004c 8E48     		ldr	r0, .L55
 603 004e FFF7FEFF 		bl	Cy_SysLib_AssertFailed
 604              	.L41:
  60:Generated_Source\PSoC6\pdl\drivers\peripheral\gpio/cy_gpio.c ****         CY_ASSERT_L2(CY_GPIO_IS_HSIOM_VALID(config->hsiom));  
 605              		.loc 2 60 0 is_stmt 1
 606 0052 7B68     		ldr	r3, [r7, #4]
 607 0054 1B7A     		ldrb	r3, [r3, #8]	@ zero_extendqisi2
 608 0056 23F01F03 		bic	r3, r3, #31
 609 005a 002B     		cmp	r3, #0
 610 005c 03D0     		beq	.L42
 611              		.loc 2 60 0 is_stmt 0 discriminator 1
 612 005e 3C21     		movs	r1, #60
 613 0060 8948     		ldr	r0, .L55
 614 0062 FFF7FEFF 		bl	Cy_SysLib_AssertFailed
 615              	.L42:
  61:Generated_Source\PSoC6\pdl\drivers\peripheral\gpio/cy_gpio.c ****         CY_ASSERT_L2(CY_GPIO_IS_INT_EDGE_VALID(config->intEdge)); 
 616              		.loc 2 61 0 is_stmt 1
 617 0066 7B68     		ldr	r3, [r7, #4]
 618 0068 DB68     		ldr	r3, [r3, #12]
ARM GAS  C:\Users\ikomb\AppData\Local\Temp\ccAzoKUN.s 			page 44


 619 006a 002B     		cmp	r3, #0
 620 006c 0FD0     		beq	.L43
 621              		.loc 2 61 0 is_stmt 0 discriminator 1
 622 006e 7B68     		ldr	r3, [r7, #4]
 623 0070 DB68     		ldr	r3, [r3, #12]
 624 0072 012B     		cmp	r3, #1
 625 0074 0BD0     		beq	.L43
 626              		.loc 2 61 0 discriminator 2
 627 0076 7B68     		ldr	r3, [r7, #4]
 628 0078 DB68     		ldr	r3, [r3, #12]
 629 007a 022B     		cmp	r3, #2
 630 007c 07D0     		beq	.L43
 631              		.loc 2 61 0 discriminator 3
 632 007e 7B68     		ldr	r3, [r7, #4]
 633 0080 DB68     		ldr	r3, [r3, #12]
 634 0082 032B     		cmp	r3, #3
 635 0084 03D0     		beq	.L43
 636              		.loc 2 61 0 discriminator 4
 637 0086 3D21     		movs	r1, #61
 638 0088 7F48     		ldr	r0, .L55
 639 008a FFF7FEFF 		bl	Cy_SysLib_AssertFailed
 640              	.L43:
  62:Generated_Source\PSoC6\pdl\drivers\peripheral\gpio/cy_gpio.c ****         CY_ASSERT_L2(CY_GPIO_IS_VALUE_VALID(config->intMask));
 641              		.loc 2 62 0 is_stmt 1
 642 008e 7B68     		ldr	r3, [r7, #4]
 643 0090 1B69     		ldr	r3, [r3, #16]
 644 0092 012B     		cmp	r3, #1
 645 0094 03D9     		bls	.L44
 646              		.loc 2 62 0 is_stmt 0 discriminator 1
 647 0096 3E21     		movs	r1, #62
 648 0098 7B48     		ldr	r0, .L55
 649 009a FFF7FEFF 		bl	Cy_SysLib_AssertFailed
 650              	.L44:
  63:Generated_Source\PSoC6\pdl\drivers\peripheral\gpio/cy_gpio.c ****         CY_ASSERT_L2(CY_GPIO_IS_VALUE_VALID(config->vtrip));
 651              		.loc 2 63 0 is_stmt 1
 652 009e 7B68     		ldr	r3, [r7, #4]
 653 00a0 5B69     		ldr	r3, [r3, #20]
 654 00a2 012B     		cmp	r3, #1
 655 00a4 03D9     		bls	.L45
 656              		.loc 2 63 0 is_stmt 0 discriminator 1
 657 00a6 3F21     		movs	r1, #63
 658 00a8 7748     		ldr	r0, .L55
 659 00aa FFF7FEFF 		bl	Cy_SysLib_AssertFailed
 660              	.L45:
  64:Generated_Source\PSoC6\pdl\drivers\peripheral\gpio/cy_gpio.c ****         CY_ASSERT_L2(CY_GPIO_IS_VALUE_VALID(config->slewRate));
 661              		.loc 2 64 0 is_stmt 1
 662 00ae 7B68     		ldr	r3, [r7, #4]
 663 00b0 9B69     		ldr	r3, [r3, #24]
 664 00b2 012B     		cmp	r3, #1
 665 00b4 03D9     		bls	.L46
 666              		.loc 2 64 0 is_stmt 0 discriminator 1
 667 00b6 4021     		movs	r1, #64
 668 00b8 7348     		ldr	r0, .L55
 669 00ba FFF7FEFF 		bl	Cy_SysLib_AssertFailed
 670              	.L46:
  65:Generated_Source\PSoC6\pdl\drivers\peripheral\gpio/cy_gpio.c ****         CY_ASSERT_L2(CY_GPIO_IS_DRIVE_SEL_VALID(config->driveSel));
 671              		.loc 2 65 0 is_stmt 1
ARM GAS  C:\Users\ikomb\AppData\Local\Temp\ccAzoKUN.s 			page 45


 672 00be 7B68     		ldr	r3, [r7, #4]
 673 00c0 DB69     		ldr	r3, [r3, #28]
 674 00c2 002B     		cmp	r3, #0
 675 00c4 0FD0     		beq	.L47
 676              		.loc 2 65 0 is_stmt 0 discriminator 1
 677 00c6 7B68     		ldr	r3, [r7, #4]
 678 00c8 DB69     		ldr	r3, [r3, #28]
 679 00ca 012B     		cmp	r3, #1
 680 00cc 0BD0     		beq	.L47
 681              		.loc 2 65 0 discriminator 2
 682 00ce 7B68     		ldr	r3, [r7, #4]
 683 00d0 DB69     		ldr	r3, [r3, #28]
 684 00d2 022B     		cmp	r3, #2
 685 00d4 07D0     		beq	.L47
 686              		.loc 2 65 0 discriminator 3
 687 00d6 7B68     		ldr	r3, [r7, #4]
 688 00d8 DB69     		ldr	r3, [r3, #28]
 689 00da 032B     		cmp	r3, #3
 690 00dc 03D0     		beq	.L47
 691              		.loc 2 65 0 discriminator 4
 692 00de 4121     		movs	r1, #65
 693 00e0 6948     		ldr	r0, .L55
 694 00e2 FFF7FEFF 		bl	Cy_SysLib_AssertFailed
 695              	.L47:
  66:Generated_Source\PSoC6\pdl\drivers\peripheral\gpio/cy_gpio.c ****         CY_ASSERT_L2(CY_GPIO_IS_VALUE_VALID(config->vregEn));
 696              		.loc 2 66 0 is_stmt 1
 697 00e6 7B68     		ldr	r3, [r7, #4]
 698 00e8 1B6A     		ldr	r3, [r3, #32]
 699 00ea 012B     		cmp	r3, #1
 700 00ec 03D9     		bls	.L48
 701              		.loc 2 66 0 is_stmt 0 discriminator 1
 702 00ee 4221     		movs	r1, #66
 703 00f0 6548     		ldr	r0, .L55
 704 00f2 FFF7FEFF 		bl	Cy_SysLib_AssertFailed
 705              	.L48:
  67:Generated_Source\PSoC6\pdl\drivers\peripheral\gpio/cy_gpio.c ****         CY_ASSERT_L2(CY_GPIO_IS_VALUE_VALID(config->ibufMode));
 706              		.loc 2 67 0 is_stmt 1
 707 00f6 7B68     		ldr	r3, [r7, #4]
 708 00f8 5B6A     		ldr	r3, [r3, #36]
 709 00fa 012B     		cmp	r3, #1
 710 00fc 03D9     		bls	.L49
 711              		.loc 2 67 0 is_stmt 0 discriminator 1
 712 00fe 4321     		movs	r1, #67
 713 0100 6148     		ldr	r0, .L55
 714 0102 FFF7FEFF 		bl	Cy_SysLib_AssertFailed
 715              	.L49:
  68:Generated_Source\PSoC6\pdl\drivers\peripheral\gpio/cy_gpio.c ****         CY_ASSERT_L2(CY_GPIO_IS_VALUE_VALID(config->vtripSel));
 716              		.loc 2 68 0 is_stmt 1
 717 0106 7B68     		ldr	r3, [r7, #4]
 718 0108 9B6A     		ldr	r3, [r3, #40]
 719 010a 012B     		cmp	r3, #1
 720 010c 03D9     		bls	.L50
 721              		.loc 2 68 0 is_stmt 0 discriminator 1
 722 010e 4421     		movs	r1, #68
 723 0110 5D48     		ldr	r0, .L55
 724 0112 FFF7FEFF 		bl	Cy_SysLib_AssertFailed
 725              	.L50:
ARM GAS  C:\Users\ikomb\AppData\Local\Temp\ccAzoKUN.s 			page 46


  69:Generated_Source\PSoC6\pdl\drivers\peripheral\gpio/cy_gpio.c ****         CY_ASSERT_L2(CY_GPIO_IS_VREF_SEL_VALID(config->vrefSel));
 726              		.loc 2 69 0 is_stmt 1
 727 0116 7B68     		ldr	r3, [r7, #4]
 728 0118 DB6A     		ldr	r3, [r3, #44]
 729 011a 002B     		cmp	r3, #0
 730 011c 0FD0     		beq	.L51
 731              		.loc 2 69 0 is_stmt 0 discriminator 1
 732 011e 7B68     		ldr	r3, [r7, #4]
 733 0120 DB6A     		ldr	r3, [r3, #44]
 734 0122 012B     		cmp	r3, #1
 735 0124 0BD0     		beq	.L51
 736              		.loc 2 69 0 discriminator 2
 737 0126 7B68     		ldr	r3, [r7, #4]
 738 0128 DB6A     		ldr	r3, [r3, #44]
 739 012a 022B     		cmp	r3, #2
 740 012c 07D0     		beq	.L51
 741              		.loc 2 69 0 discriminator 3
 742 012e 7B68     		ldr	r3, [r7, #4]
 743 0130 DB6A     		ldr	r3, [r3, #44]
 744 0132 032B     		cmp	r3, #3
 745 0134 03D0     		beq	.L51
 746              		.loc 2 69 0 discriminator 4
 747 0136 4521     		movs	r1, #69
 748 0138 5348     		ldr	r0, .L55
 749 013a FFF7FEFF 		bl	Cy_SysLib_AssertFailed
 750              	.L51:
  70:Generated_Source\PSoC6\pdl\drivers\peripheral\gpio/cy_gpio.c ****         CY_ASSERT_L2(CY_GPIO_IS_VOH_SEL_VALID(config->vohSel));
 751              		.loc 2 70 0 is_stmt 1
 752 013e 7B68     		ldr	r3, [r7, #4]
 753 0140 1B6B     		ldr	r3, [r3, #48]
 754 0142 002B     		cmp	r3, #0
 755 0144 1FD0     		beq	.L52
 756              		.loc 2 70 0 is_stmt 0 discriminator 1
 757 0146 7B68     		ldr	r3, [r7, #4]
 758 0148 1B6B     		ldr	r3, [r3, #48]
 759 014a 012B     		cmp	r3, #1
 760 014c 1BD0     		beq	.L52
 761              		.loc 2 70 0 discriminator 2
 762 014e 7B68     		ldr	r3, [r7, #4]
 763 0150 1B6B     		ldr	r3, [r3, #48]
 764 0152 022B     		cmp	r3, #2
 765 0154 17D0     		beq	.L52
 766              		.loc 2 70 0 discriminator 3
 767 0156 7B68     		ldr	r3, [r7, #4]
 768 0158 1B6B     		ldr	r3, [r3, #48]
 769 015a 032B     		cmp	r3, #3
 770 015c 13D0     		beq	.L52
 771              		.loc 2 70 0 discriminator 4
 772 015e 7B68     		ldr	r3, [r7, #4]
 773 0160 1B6B     		ldr	r3, [r3, #48]
 774 0162 042B     		cmp	r3, #4
 775 0164 0FD0     		beq	.L52
 776              		.loc 2 70 0 discriminator 5
 777 0166 7B68     		ldr	r3, [r7, #4]
 778 0168 1B6B     		ldr	r3, [r3, #48]
 779 016a 052B     		cmp	r3, #5
 780 016c 0BD0     		beq	.L52
ARM GAS  C:\Users\ikomb\AppData\Local\Temp\ccAzoKUN.s 			page 47


 781              		.loc 2 70 0 discriminator 6
 782 016e 7B68     		ldr	r3, [r7, #4]
 783 0170 1B6B     		ldr	r3, [r3, #48]
 784 0172 062B     		cmp	r3, #6
 785 0174 07D0     		beq	.L52
 786              		.loc 2 70 0 discriminator 7
 787 0176 7B68     		ldr	r3, [r7, #4]
 788 0178 1B6B     		ldr	r3, [r3, #48]
 789 017a 072B     		cmp	r3, #7
 790 017c 03D0     		beq	.L52
 791              		.loc 2 70 0 discriminator 8
 792 017e 4621     		movs	r1, #70
 793 0180 4148     		ldr	r0, .L55
 794 0182 FFF7FEFF 		bl	Cy_SysLib_AssertFailed
 795              	.L52:
  71:Generated_Source\PSoC6\pdl\drivers\peripheral\gpio/cy_gpio.c ****     
  72:Generated_Source\PSoC6\pdl\drivers\peripheral\gpio/cy_gpio.c ****         Cy_GPIO_Write(base, pinNum, config->outVal);
 796              		.loc 2 72 0 is_stmt 1
 797 0186 7B68     		ldr	r3, [r7, #4]
 798 0188 1B68     		ldr	r3, [r3]
 799 018a 1A46     		mov	r2, r3
 800 018c B968     		ldr	r1, [r7, #8]
 801 018e F868     		ldr	r0, [r7, #12]
 802 0190 FFF7FEFF 		bl	Cy_GPIO_Write
  73:Generated_Source\PSoC6\pdl\drivers\peripheral\gpio/cy_gpio.c ****         Cy_GPIO_SetDrivemode(base, pinNum, config->driveMode);
 803              		.loc 2 73 0
 804 0194 7B68     		ldr	r3, [r7, #4]
 805 0196 5B68     		ldr	r3, [r3, #4]
 806 0198 1A46     		mov	r2, r3
 807 019a B968     		ldr	r1, [r7, #8]
 808 019c F868     		ldr	r0, [r7, #12]
 809 019e FFF7FEFF 		bl	Cy_GPIO_SetDrivemode
  74:Generated_Source\PSoC6\pdl\drivers\peripheral\gpio/cy_gpio.c ****         Cy_GPIO_SetHSIOM(base, pinNum, config->hsiom);
 810              		.loc 2 74 0
 811 01a2 7B68     		ldr	r3, [r7, #4]
 812 01a4 1B7A     		ldrb	r3, [r3, #8]	@ zero_extendqisi2
 813 01a6 1A46     		mov	r2, r3
 814 01a8 B968     		ldr	r1, [r7, #8]
 815 01aa F868     		ldr	r0, [r7, #12]
 816 01ac FFF7FEFF 		bl	Cy_GPIO_SetHSIOM
  75:Generated_Source\PSoC6\pdl\drivers\peripheral\gpio/cy_gpio.c **** 
  76:Generated_Source\PSoC6\pdl\drivers\peripheral\gpio/cy_gpio.c ****         Cy_GPIO_SetInterruptEdge(base, pinNum, config->intEdge);
 817              		.loc 2 76 0
 818 01b0 7B68     		ldr	r3, [r7, #4]
 819 01b2 DB68     		ldr	r3, [r3, #12]
 820 01b4 1A46     		mov	r2, r3
 821 01b6 B968     		ldr	r1, [r7, #8]
 822 01b8 F868     		ldr	r0, [r7, #12]
 823 01ba FFF7FEFF 		bl	Cy_GPIO_SetInterruptEdge
  77:Generated_Source\PSoC6\pdl\drivers\peripheral\gpio/cy_gpio.c ****         Cy_GPIO_SetInterruptMask(base, pinNum, config->intMask);
 824              		.loc 2 77 0
 825 01be 7B68     		ldr	r3, [r7, #4]
 826 01c0 1B69     		ldr	r3, [r3, #16]
 827 01c2 1A46     		mov	r2, r3
 828 01c4 B968     		ldr	r1, [r7, #8]
 829 01c6 F868     		ldr	r0, [r7, #12]
 830 01c8 FFF7FEFF 		bl	Cy_GPIO_SetInterruptMask
ARM GAS  C:\Users\ikomb\AppData\Local\Temp\ccAzoKUN.s 			page 48


  78:Generated_Source\PSoC6\pdl\drivers\peripheral\gpio/cy_gpio.c ****         Cy_GPIO_SetVtrip(base, pinNum, config->vtrip);
 831              		.loc 2 78 0
 832 01cc 7B68     		ldr	r3, [r7, #4]
 833 01ce 5B69     		ldr	r3, [r3, #20]
 834 01d0 1A46     		mov	r2, r3
 835 01d2 B968     		ldr	r1, [r7, #8]
 836 01d4 F868     		ldr	r0, [r7, #12]
 837 01d6 FFF7FEFF 		bl	Cy_GPIO_SetVtrip
  79:Generated_Source\PSoC6\pdl\drivers\peripheral\gpio/cy_gpio.c **** 
  80:Generated_Source\PSoC6\pdl\drivers\peripheral\gpio/cy_gpio.c ****         /* Slew rate and Driver strength */
  81:Generated_Source\PSoC6\pdl\drivers\peripheral\gpio/cy_gpio.c ****         maskCfgOut = (CY_GPIO_CFG_OUT_SLOW_MASK << pinNum) 
 838              		.loc 2 81 0
 839 01da 0122     		movs	r2, #1
 840 01dc BB68     		ldr	r3, [r7, #8]
 841 01de 9A40     		lsls	r2, r2, r3
  82:Generated_Source\PSoC6\pdl\drivers\peripheral\gpio/cy_gpio.c ****                         | (CY_GPIO_CFG_OUT_DRIVE_SEL_MASK << ((uint32_t)(pinNum << 1u) + CY_GPIO_CF
 842              		.loc 2 82 0
 843 01e0 BB68     		ldr	r3, [r7, #8]
 844 01e2 5B00     		lsls	r3, r3, #1
 845 01e4 1033     		adds	r3, r3, #16
 846 01e6 0321     		movs	r1, #3
 847 01e8 01FA03F3 		lsl	r3, r1, r3
  81:Generated_Source\PSoC6\pdl\drivers\peripheral\gpio/cy_gpio.c ****                         | (CY_GPIO_CFG_OUT_DRIVE_SEL_MASK << ((uint32_t)(pinNum << 1u) + CY_GPIO_CF
 848              		.loc 2 81 0
 849 01ec 1343     		orrs	r3, r3, r2
 850 01ee BB61     		str	r3, [r7, #24]
  83:Generated_Source\PSoC6\pdl\drivers\peripheral\gpio/cy_gpio.c ****         tempReg = base->CFG_OUT & ~(maskCfgOut);
 851              		.loc 2 83 0
 852 01f0 FB68     		ldr	r3, [r7, #12]
 853 01f2 1A6B     		ldr	r2, [r3, #48]
 854 01f4 BB69     		ldr	r3, [r7, #24]
 855 01f6 DB43     		mvns	r3, r3
 856 01f8 1340     		ands	r3, r3, r2
 857 01fa 7B61     		str	r3, [r7, #20]
  84:Generated_Source\PSoC6\pdl\drivers\peripheral\gpio/cy_gpio.c ****         base->CFG_OUT = tempReg | ((config->slewRate & CY_GPIO_CFG_OUT_SLOW_MASK) << pinNum)
 858              		.loc 2 84 0
 859 01fc 7B68     		ldr	r3, [r7, #4]
 860 01fe 9B69     		ldr	r3, [r3, #24]
 861 0200 03F00102 		and	r2, r3, #1
 862 0204 BB68     		ldr	r3, [r7, #8]
 863 0206 9A40     		lsls	r2, r2, r3
 864 0208 7B69     		ldr	r3, [r7, #20]
 865 020a 1A43     		orrs	r2, r2, r3
  85:Generated_Source\PSoC6\pdl\drivers\peripheral\gpio/cy_gpio.c ****                             | ((config->driveSel & CY_GPIO_CFG_OUT_DRIVE_SEL_MASK) << ((uint32_t)(p
 866              		.loc 2 85 0
 867 020c 7B68     		ldr	r3, [r7, #4]
 868 020e DB69     		ldr	r3, [r3, #28]
 869 0210 03F00301 		and	r1, r3, #3
 870 0214 BB68     		ldr	r3, [r7, #8]
 871 0216 5B00     		lsls	r3, r3, #1
 872 0218 1033     		adds	r3, r3, #16
 873 021a 01FA03F3 		lsl	r3, r1, r3
 874 021e 1A43     		orrs	r2, r2, r3
  84:Generated_Source\PSoC6\pdl\drivers\peripheral\gpio/cy_gpio.c ****         base->CFG_OUT = tempReg | ((config->slewRate & CY_GPIO_CFG_OUT_SLOW_MASK) << pinNum)
 875              		.loc 2 84 0
 876 0220 FB68     		ldr	r3, [r7, #12]
 877 0222 1A63     		str	r2, [r3, #48]
ARM GAS  C:\Users\ikomb\AppData\Local\Temp\ccAzoKUN.s 			page 49


  86:Generated_Source\PSoC6\pdl\drivers\peripheral\gpio/cy_gpio.c **** 
  87:Generated_Source\PSoC6\pdl\drivers\peripheral\gpio/cy_gpio.c ****         /* SIO specific configuration */
  88:Generated_Source\PSoC6\pdl\drivers\peripheral\gpio/cy_gpio.c ****         tempReg = base->CFG_SIO & ~(CY_GPIO_SIO_PIN_MASK);
 878              		.loc 2 88 0
 879 0224 FB68     		ldr	r3, [r7, #12]
 880 0226 5B6B     		ldr	r3, [r3, #52]
 881 0228 23F0FF03 		bic	r3, r3, #255
 882 022c 7B61     		str	r3, [r7, #20]
  89:Generated_Source\PSoC6\pdl\drivers\peripheral\gpio/cy_gpio.c ****         base->CFG_SIO = tempReg | (((config->vregEn & CY_GPIO_VREG_EN_MASK)
 883              		.loc 2 89 0
 884 022e 7B68     		ldr	r3, [r7, #4]
 885 0230 1B6A     		ldr	r3, [r3, #32]
 886 0232 03F00102 		and	r2, r3, #1
  90:Generated_Source\PSoC6\pdl\drivers\peripheral\gpio/cy_gpio.c ****                                         | ((config->ibufMode & CY_GPIO_IBUF_MASK) << CY_GPIO_IBUF_S
 887              		.loc 2 90 0
 888 0236 7B68     		ldr	r3, [r7, #4]
 889 0238 5B6A     		ldr	r3, [r3, #36]
 890 023a 5B00     		lsls	r3, r3, #1
 891 023c 03F00203 		and	r3, r3, #2
 892 0240 1A43     		orrs	r2, r2, r3
  91:Generated_Source\PSoC6\pdl\drivers\peripheral\gpio/cy_gpio.c ****                                         | ((config->vtripSel & CY_GPIO_VTRIP_SEL_MASK) << CY_GPIO_V
 893              		.loc 2 91 0
 894 0242 7B68     		ldr	r3, [r7, #4]
 895 0244 9B6A     		ldr	r3, [r3, #40]
 896 0246 9B00     		lsls	r3, r3, #2
 897 0248 03F00403 		and	r3, r3, #4
 898 024c 1A43     		orrs	r2, r2, r3
  92:Generated_Source\PSoC6\pdl\drivers\peripheral\gpio/cy_gpio.c ****                                         | ((config->vrefSel & CY_GPIO_VREF_SEL_MASK)  << CY_GPIO_VR
 899              		.loc 2 92 0
 900 024e 7B68     		ldr	r3, [r7, #4]
 901 0250 DB6A     		ldr	r3, [r3, #44]
 902 0252 DB00     		lsls	r3, r3, #3
 903 0254 03F01803 		and	r3, r3, #24
 904 0258 1A43     		orrs	r2, r2, r3
  93:Generated_Source\PSoC6\pdl\drivers\peripheral\gpio/cy_gpio.c ****                                         | ((config->vohSel & CY_GPIO_VOH_SEL_MASK) << CY_GPIO_VOH_S
 905              		.loc 2 93 0
 906 025a 7B68     		ldr	r3, [r7, #4]
 907 025c 1B6B     		ldr	r3, [r3, #48]
 908 025e 5B01     		lsls	r3, r3, #5
 909 0260 DBB2     		uxtb	r3, r3
 910 0262 1A43     		orrs	r2, r2, r3
  94:Generated_Source\PSoC6\pdl\drivers\peripheral\gpio/cy_gpio.c ****                                             << ((pinNum & CY_GPIO_SIO_ODD_PIN_MASK) << CY_GPIO_CFG_
 911              		.loc 2 94 0
 912 0264 BB68     		ldr	r3, [r7, #8]
 913 0266 9B00     		lsls	r3, r3, #2
 914 0268 03F47E73 		and	r3, r3, #1016
 915 026c 9A40     		lsls	r2, r2, r3
  89:Generated_Source\PSoC6\pdl\drivers\peripheral\gpio/cy_gpio.c ****                                         | ((config->ibufMode & CY_GPIO_IBUF_MASK) << CY_GPIO_IBUF_S
 916              		.loc 2 89 0
 917 026e 7B69     		ldr	r3, [r7, #20]
 918 0270 1A43     		orrs	r2, r2, r3
 919 0272 FB68     		ldr	r3, [r7, #12]
 920 0274 5A63     		str	r2, [r3, #52]
 921 0276 01E0     		b	.L53
 922              	.L38:
  95:Generated_Source\PSoC6\pdl\drivers\peripheral\gpio/cy_gpio.c ****     }
  96:Generated_Source\PSoC6\pdl\drivers\peripheral\gpio/cy_gpio.c ****     else
ARM GAS  C:\Users\ikomb\AppData\Local\Temp\ccAzoKUN.s 			page 50


  97:Generated_Source\PSoC6\pdl\drivers\peripheral\gpio/cy_gpio.c ****     {
  98:Generated_Source\PSoC6\pdl\drivers\peripheral\gpio/cy_gpio.c ****         status = CY_GPIO_BAD_PARAM;
 923              		.loc 2 98 0
 924 0278 044B     		ldr	r3, .L55+4
 925 027a FB61     		str	r3, [r7, #28]
 926              	.L53:
  99:Generated_Source\PSoC6\pdl\drivers\peripheral\gpio/cy_gpio.c ****     }
 100:Generated_Source\PSoC6\pdl\drivers\peripheral\gpio/cy_gpio.c ****     
 101:Generated_Source\PSoC6\pdl\drivers\peripheral\gpio/cy_gpio.c ****     return(status);
 927              		.loc 2 101 0
 928 027c FB69     		ldr	r3, [r7, #28]
 102:Generated_Source\PSoC6\pdl\drivers\peripheral\gpio/cy_gpio.c **** }
 929              		.loc 2 102 0
 930 027e 1846     		mov	r0, r3
 931 0280 2037     		adds	r7, r7, #32
 932              		.cfi_def_cfa_offset 8
 933 0282 BD46     		mov	sp, r7
 934              		.cfi_def_cfa_register 13
 935              		@ sp needed
 936 0284 80BD     		pop	{r7, pc}
 937              	.L56:
 938 0286 00BF     		.align	2
 939              	.L55:
 940 0288 40000000 		.word	.LC1
 941 028c 01005A00 		.word	5898241
 942              		.cfi_endproc
 943              	.LFE163:
 944              		.size	Cy_GPIO_Pin_Init, .-Cy_GPIO_Pin_Init
 945              		.section	.text.Cy_GPIO_Port_Init,"ax",%progbits
 946              		.align	2
 947              		.global	Cy_GPIO_Port_Init
 948              		.thumb
 949              		.thumb_func
 950              		.type	Cy_GPIO_Port_Init, %function
 951              	Cy_GPIO_Port_Init:
 952              	.LFB164:
 103:Generated_Source\PSoC6\pdl\drivers\peripheral\gpio/cy_gpio.c **** 
 104:Generated_Source\PSoC6\pdl\drivers\peripheral\gpio/cy_gpio.c **** 
 105:Generated_Source\PSoC6\pdl\drivers\peripheral\gpio/cy_gpio.c **** /*******************************************************************************
 106:Generated_Source\PSoC6\pdl\drivers\peripheral\gpio/cy_gpio.c **** * Function Name: Cy_GPIO_Port_Init
 107:Generated_Source\PSoC6\pdl\drivers\peripheral\gpio/cy_gpio.c **** ****************************************************************************//**
 108:Generated_Source\PSoC6\pdl\drivers\peripheral\gpio/cy_gpio.c **** *
 109:Generated_Source\PSoC6\pdl\drivers\peripheral\gpio/cy_gpio.c **** * \brief Initialize a complete port of pins from a single init structure.
 110:Generated_Source\PSoC6\pdl\drivers\peripheral\gpio/cy_gpio.c **** *
 111:Generated_Source\PSoC6\pdl\drivers\peripheral\gpio/cy_gpio.c **** * The configuration structure used in this function has a 1:1 mapping to the
 112:Generated_Source\PSoC6\pdl\drivers\peripheral\gpio/cy_gpio.c **** * GPIO and HSIOM registers. Refer to the device Technical Reference Manual (TRM)
 113:Generated_Source\PSoC6\pdl\drivers\peripheral\gpio/cy_gpio.c **** * for the register details on how to populate them.
 114:Generated_Source\PSoC6\pdl\drivers\peripheral\gpio/cy_gpio.c **** *
 115:Generated_Source\PSoC6\pdl\drivers\peripheral\gpio/cy_gpio.c **** * \param base
 116:Generated_Source\PSoC6\pdl\drivers\peripheral\gpio/cy_gpio.c **** * Pointer to the pin's port register base address
 117:Generated_Source\PSoC6\pdl\drivers\peripheral\gpio/cy_gpio.c **** *
 118:Generated_Source\PSoC6\pdl\drivers\peripheral\gpio/cy_gpio.c **** * \param config
 119:Generated_Source\PSoC6\pdl\drivers\peripheral\gpio/cy_gpio.c **** * Pointer to the pin config structure base address
 120:Generated_Source\PSoC6\pdl\drivers\peripheral\gpio/cy_gpio.c **** *
 121:Generated_Source\PSoC6\pdl\drivers\peripheral\gpio/cy_gpio.c **** * \return
 122:Generated_Source\PSoC6\pdl\drivers\peripheral\gpio/cy_gpio.c **** * Initialization status
 123:Generated_Source\PSoC6\pdl\drivers\peripheral\gpio/cy_gpio.c **** *
ARM GAS  C:\Users\ikomb\AppData\Local\Temp\ccAzoKUN.s 			page 51


 124:Generated_Source\PSoC6\pdl\drivers\peripheral\gpio/cy_gpio.c **** * \note 
 125:Generated_Source\PSoC6\pdl\drivers\peripheral\gpio/cy_gpio.c **** * If using the PSoC Creator IDE, there is no need to initialize the pins when 
 126:Generated_Source\PSoC6\pdl\drivers\peripheral\gpio/cy_gpio.c **** * using the GPIO component on the schematic. Ports are configured in 
 127:Generated_Source\PSoC6\pdl\drivers\peripheral\gpio/cy_gpio.c **** * Cy_SystemInit() before main() entry.
 128:Generated_Source\PSoC6\pdl\drivers\peripheral\gpio/cy_gpio.c **** *
 129:Generated_Source\PSoC6\pdl\drivers\peripheral\gpio/cy_gpio.c **** * \funcusage
 130:Generated_Source\PSoC6\pdl\drivers\peripheral\gpio/cy_gpio.c **** * \snippet gpio/gpio_v1_10_sut_01.cydsn/main_cm4.c snippet_Cy_GPIO_Port_Init
 131:Generated_Source\PSoC6\pdl\drivers\peripheral\gpio/cy_gpio.c **** *
 132:Generated_Source\PSoC6\pdl\drivers\peripheral\gpio/cy_gpio.c **** *******************************************************************************/
 133:Generated_Source\PSoC6\pdl\drivers\peripheral\gpio/cy_gpio.c **** cy_en_gpio_status_t Cy_GPIO_Port_Init(GPIO_PRT_Type* base, const cy_stc_gpio_prt_config_t *config)
 134:Generated_Source\PSoC6\pdl\drivers\peripheral\gpio/cy_gpio.c **** {
 953              		.loc 2 134 0
 954              		.cfi_startproc
 955              		@ args = 0, pretend = 0, frame = 24
 956              		@ frame_needed = 1, uses_anonymous_args = 0
 957 0000 80B5     		push	{r7, lr}
 958              		.cfi_def_cfa_offset 8
 959              		.cfi_offset 7, -8
 960              		.cfi_offset 14, -4
 961 0002 86B0     		sub	sp, sp, #24
 962              		.cfi_def_cfa_offset 32
 963 0004 00AF     		add	r7, sp, #0
 964              		.cfi_def_cfa_register 7
 965 0006 7860     		str	r0, [r7, #4]
 966 0008 3960     		str	r1, [r7]
 135:Generated_Source\PSoC6\pdl\drivers\peripheral\gpio/cy_gpio.c ****     cy_en_gpio_status_t status = CY_GPIO_SUCCESS;
 967              		.loc 2 135 0
 968 000a 0023     		movs	r3, #0
 969 000c 7B61     		str	r3, [r7, #20]
 136:Generated_Source\PSoC6\pdl\drivers\peripheral\gpio/cy_gpio.c ****     uint32_t portNum;
 137:Generated_Source\PSoC6\pdl\drivers\peripheral\gpio/cy_gpio.c ****     HSIOM_PRT_Type* baseHSIOM;
 138:Generated_Source\PSoC6\pdl\drivers\peripheral\gpio/cy_gpio.c **** 
 139:Generated_Source\PSoC6\pdl\drivers\peripheral\gpio/cy_gpio.c ****     if((NULL != base) && (NULL != config))
 970              		.loc 2 139 0
 971 000e 7B68     		ldr	r3, [r7, #4]
 972 0010 002B     		cmp	r3, #0
 973 0012 73D0     		beq	.L58
 974              		.loc 2 139 0 is_stmt 0 discriminator 1
 975 0014 3B68     		ldr	r3, [r7]
 976 0016 002B     		cmp	r3, #0
 977 0018 70D0     		beq	.L58
 140:Generated_Source\PSoC6\pdl\drivers\peripheral\gpio/cy_gpio.c ****     {
 141:Generated_Source\PSoC6\pdl\drivers\peripheral\gpio/cy_gpio.c ****         CY_ASSERT_L2(CY_GPIO_IS_PIN_BIT_VALID(config->out));
 978              		.loc 2 141 0 is_stmt 1
 979 001a 3B68     		ldr	r3, [r7]
 980 001c 1B68     		ldr	r3, [r3]
 981 001e 23F0FF03 		bic	r3, r3, #255
 982 0022 002B     		cmp	r3, #0
 983 0024 03D0     		beq	.L59
 984              		.loc 2 141 0 is_stmt 0 discriminator 1
 985 0026 8D21     		movs	r1, #141
 986 0028 3848     		ldr	r0, .L67
 987 002a FFF7FEFF 		bl	Cy_SysLib_AssertFailed
 988              	.L59:
 142:Generated_Source\PSoC6\pdl\drivers\peripheral\gpio/cy_gpio.c ****         CY_ASSERT_L2(CY_GPIO_IS_PIN_BIT_VALID(config->cfgIn));
 989              		.loc 2 142 0 is_stmt 1
 990 002e 3B68     		ldr	r3, [r7]
ARM GAS  C:\Users\ikomb\AppData\Local\Temp\ccAzoKUN.s 			page 52


 991 0030 1B69     		ldr	r3, [r3, #16]
 992 0032 23F0FF03 		bic	r3, r3, #255
 993 0036 002B     		cmp	r3, #0
 994 0038 03D0     		beq	.L60
 995              		.loc 2 142 0 is_stmt 0 discriminator 1
 996 003a 8E21     		movs	r1, #142
 997 003c 3348     		ldr	r0, .L67
 998 003e FFF7FEFF 		bl	Cy_SysLib_AssertFailed
 999              	.L60:
 143:Generated_Source\PSoC6\pdl\drivers\peripheral\gpio/cy_gpio.c ****         CY_ASSERT_L2(CY_GPIO_IS_INTR_CFG_VALID(config->intrCfg));
 1000              		.loc 2 143 0 is_stmt 1
 1001 0042 3B68     		ldr	r3, [r7]
 1002 0044 9B68     		ldr	r3, [r3, #8]
 1003 0046 5B0D     		lsrs	r3, r3, #21
 1004 0048 5B05     		lsls	r3, r3, #21
 1005 004a 002B     		cmp	r3, #0
 1006 004c 03D0     		beq	.L61
 1007              		.loc 2 143 0 is_stmt 0 discriminator 1
 1008 004e 8F21     		movs	r1, #143
 1009 0050 2E48     		ldr	r0, .L67
 1010 0052 FFF7FEFF 		bl	Cy_SysLib_AssertFailed
 1011              	.L61:
 144:Generated_Source\PSoC6\pdl\drivers\peripheral\gpio/cy_gpio.c ****         CY_ASSERT_L2(CY_GPIO_IS_INTR_MASK_VALID(config->intrMask));
 1012              		.loc 2 144 0 is_stmt 1
 1013 0056 3B68     		ldr	r3, [r7]
 1014 0058 5B68     		ldr	r3, [r3, #4]
 1015 005a 23F4FF73 		bic	r3, r3, #510
 1016 005e 23F00103 		bic	r3, r3, #1
 1017 0062 002B     		cmp	r3, #0
 1018 0064 03D0     		beq	.L62
 1019              		.loc 2 144 0 is_stmt 0 discriminator 1
 1020 0066 9021     		movs	r1, #144
 1021 0068 2848     		ldr	r0, .L67
 1022 006a FFF7FEFF 		bl	Cy_SysLib_AssertFailed
 1023              	.L62:
 145:Generated_Source\PSoC6\pdl\drivers\peripheral\gpio/cy_gpio.c ****         CY_ASSERT_L2(CY_GPIO_IS_SEL_ACT_VALID(config->sel0Active));
 1024              		.loc 2 145 0 is_stmt 1
 1025 006e 3B68     		ldr	r3, [r7]
 1026 0070 DB69     		ldr	r3, [r3, #28]
 1027 0072 03F06043 		and	r3, r3, #-536870912
 1028 0076 002B     		cmp	r3, #0
 1029 0078 03D0     		beq	.L63
 1030              		.loc 2 145 0 is_stmt 0 discriminator 1
 1031 007a 9121     		movs	r1, #145
 1032 007c 2348     		ldr	r0, .L67
 1033 007e FFF7FEFF 		bl	Cy_SysLib_AssertFailed
 1034              	.L63:
 146:Generated_Source\PSoC6\pdl\drivers\peripheral\gpio/cy_gpio.c ****         CY_ASSERT_L2(CY_GPIO_IS_SEL_ACT_VALID(config->sel1Active));
 1035              		.loc 2 146 0 is_stmt 1
 1036 0082 3B68     		ldr	r3, [r7]
 1037 0084 1B6A     		ldr	r3, [r3, #32]
 1038 0086 03F06043 		and	r3, r3, #-536870912
 1039 008a 002B     		cmp	r3, #0
 1040 008c 03D0     		beq	.L64
 1041              		.loc 2 146 0 is_stmt 0 discriminator 1
 1042 008e 9221     		movs	r1, #146
 1043 0090 1E48     		ldr	r0, .L67
ARM GAS  C:\Users\ikomb\AppData\Local\Temp\ccAzoKUN.s 			page 53


 1044 0092 FFF7FEFF 		bl	Cy_SysLib_AssertFailed
 1045              	.L64:
 147:Generated_Source\PSoC6\pdl\drivers\peripheral\gpio/cy_gpio.c ****     
 148:Generated_Source\PSoC6\pdl\drivers\peripheral\gpio/cy_gpio.c ****         portNum = ((uint32_t)(base) - GPIO_BASE) / GPIO_PRT_SECTION_SIZE;
 1046              		.loc 2 148 0 is_stmt 1
 1047 0096 7B68     		ldr	r3, [r7, #4]
 1048 0098 03F13F43 		add	r3, r3, #-1090519040
 1049 009c 03F54E03 		add	r3, r3, #13500416
 1050 00a0 DB09     		lsrs	r3, r3, #7
 1051 00a2 3B61     		str	r3, [r7, #16]
 149:Generated_Source\PSoC6\pdl\drivers\peripheral\gpio/cy_gpio.c ****         baseHSIOM = (HSIOM_PRT_Type*)(HSIOM_BASE + (HSIOM_PRT_SECTION_SIZE * portNum));
 1052              		.loc 2 149 0
 1053 00a4 3B69     		ldr	r3, [r7, #16]
 1054 00a6 03F18063 		add	r3, r3, #67108864
 1055 00aa 03F54433 		add	r3, r3, #200704
 1056 00ae 1B01     		lsls	r3, r3, #4
 1057 00b0 FB60     		str	r3, [r7, #12]
 150:Generated_Source\PSoC6\pdl\drivers\peripheral\gpio/cy_gpio.c **** 
 151:Generated_Source\PSoC6\pdl\drivers\peripheral\gpio/cy_gpio.c ****         base->OUT            = config->out;
 1058              		.loc 2 151 0
 1059 00b2 3B68     		ldr	r3, [r7]
 1060 00b4 1A68     		ldr	r2, [r3]
 1061 00b6 7B68     		ldr	r3, [r7, #4]
 1062 00b8 1A60     		str	r2, [r3]
 152:Generated_Source\PSoC6\pdl\drivers\peripheral\gpio/cy_gpio.c ****         base->CFG            = config->cfg;
 1063              		.loc 2 152 0
 1064 00ba 3B68     		ldr	r3, [r7]
 1065 00bc DA68     		ldr	r2, [r3, #12]
 1066 00be 7B68     		ldr	r3, [r7, #4]
 1067 00c0 9A62     		str	r2, [r3, #40]
 153:Generated_Source\PSoC6\pdl\drivers\peripheral\gpio/cy_gpio.c ****         base->CFG_IN         = config->cfgIn;
 1068              		.loc 2 153 0
 1069 00c2 3B68     		ldr	r3, [r7]
 1070 00c4 1A69     		ldr	r2, [r3, #16]
 1071 00c6 7B68     		ldr	r3, [r7, #4]
 1072 00c8 DA62     		str	r2, [r3, #44]
 154:Generated_Source\PSoC6\pdl\drivers\peripheral\gpio/cy_gpio.c ****         base->CFG_OUT        = config->cfgOut;
 1073              		.loc 2 154 0
 1074 00ca 3B68     		ldr	r3, [r7]
 1075 00cc 5A69     		ldr	r2, [r3, #20]
 1076 00ce 7B68     		ldr	r3, [r7, #4]
 1077 00d0 1A63     		str	r2, [r3, #48]
 155:Generated_Source\PSoC6\pdl\drivers\peripheral\gpio/cy_gpio.c ****         base->INTR_CFG       = config->intrCfg;
 1078              		.loc 2 155 0
 1079 00d2 3B68     		ldr	r3, [r7]
 1080 00d4 9A68     		ldr	r2, [r3, #8]
 1081 00d6 7B68     		ldr	r3, [r7, #4]
 1082 00d8 5A62     		str	r2, [r3, #36]
 156:Generated_Source\PSoC6\pdl\drivers\peripheral\gpio/cy_gpio.c ****         base->INTR_MASK      = config->intrMask;
 1083              		.loc 2 156 0
 1084 00da 3B68     		ldr	r3, [r7]
 1085 00dc 5A68     		ldr	r2, [r3, #4]
 1086 00de 7B68     		ldr	r3, [r7, #4]
 1087 00e0 9A61     		str	r2, [r3, #24]
 157:Generated_Source\PSoC6\pdl\drivers\peripheral\gpio/cy_gpio.c ****         base->CFG_SIO        = config->cfgSIO;
 1088              		.loc 2 157 0
 1089 00e2 3B68     		ldr	r3, [r7]
ARM GAS  C:\Users\ikomb\AppData\Local\Temp\ccAzoKUN.s 			page 54


 1090 00e4 9A69     		ldr	r2, [r3, #24]
 1091 00e6 7B68     		ldr	r3, [r7, #4]
 1092 00e8 5A63     		str	r2, [r3, #52]
 158:Generated_Source\PSoC6\pdl\drivers\peripheral\gpio/cy_gpio.c ****         baseHSIOM->PORT_SEL0 = config->sel0Active;
 1093              		.loc 2 158 0
 1094 00ea 3B68     		ldr	r3, [r7]
 1095 00ec DA69     		ldr	r2, [r3, #28]
 1096 00ee FB68     		ldr	r3, [r7, #12]
 1097 00f0 1A60     		str	r2, [r3]
 159:Generated_Source\PSoC6\pdl\drivers\peripheral\gpio/cy_gpio.c ****         baseHSIOM->PORT_SEL1 = config->sel1Active;
 1098              		.loc 2 159 0
 1099 00f2 3B68     		ldr	r3, [r7]
 1100 00f4 1A6A     		ldr	r2, [r3, #32]
 1101 00f6 FB68     		ldr	r3, [r7, #12]
 1102 00f8 5A60     		str	r2, [r3, #4]
 1103 00fa 01E0     		b	.L65
 1104              	.L58:
 160:Generated_Source\PSoC6\pdl\drivers\peripheral\gpio/cy_gpio.c ****     }
 161:Generated_Source\PSoC6\pdl\drivers\peripheral\gpio/cy_gpio.c ****     else
 162:Generated_Source\PSoC6\pdl\drivers\peripheral\gpio/cy_gpio.c ****     {
 163:Generated_Source\PSoC6\pdl\drivers\peripheral\gpio/cy_gpio.c ****         status = CY_GPIO_BAD_PARAM;
 1105              		.loc 2 163 0
 1106 00fc 044B     		ldr	r3, .L67+4
 1107 00fe 7B61     		str	r3, [r7, #20]
 1108              	.L65:
 164:Generated_Source\PSoC6\pdl\drivers\peripheral\gpio/cy_gpio.c ****     }
 165:Generated_Source\PSoC6\pdl\drivers\peripheral\gpio/cy_gpio.c ****     
 166:Generated_Source\PSoC6\pdl\drivers\peripheral\gpio/cy_gpio.c ****     return(status);
 1109              		.loc 2 166 0
 1110 0100 7B69     		ldr	r3, [r7, #20]
 167:Generated_Source\PSoC6\pdl\drivers\peripheral\gpio/cy_gpio.c **** }
 1111              		.loc 2 167 0
 1112 0102 1846     		mov	r0, r3
 1113 0104 1837     		adds	r7, r7, #24
 1114              		.cfi_def_cfa_offset 8
 1115 0106 BD46     		mov	sp, r7
 1116              		.cfi_def_cfa_register 13
 1117              		@ sp needed
 1118 0108 80BD     		pop	{r7, pc}
 1119              	.L68:
 1120 010a 00BF     		.align	2
 1121              	.L67:
 1122 010c 40000000 		.word	.LC1
 1123 0110 01005A00 		.word	5898241
 1124              		.cfi_endproc
 1125              	.LFE164:
 1126              		.size	Cy_GPIO_Port_Init, .-Cy_GPIO_Port_Init
 1127              		.section	.text.Cy_GPIO_Pin_FastInit,"ax",%progbits
 1128              		.align	2
 1129              		.global	Cy_GPIO_Pin_FastInit
 1130              		.thumb
 1131              		.thumb_func
 1132              		.type	Cy_GPIO_Pin_FastInit, %function
 1133              	Cy_GPIO_Pin_FastInit:
 1134              	.LFB165:
 168:Generated_Source\PSoC6\pdl\drivers\peripheral\gpio/cy_gpio.c **** 
 169:Generated_Source\PSoC6\pdl\drivers\peripheral\gpio/cy_gpio.c **** 
ARM GAS  C:\Users\ikomb\AppData\Local\Temp\ccAzoKUN.s 			page 55


 170:Generated_Source\PSoC6\pdl\drivers\peripheral\gpio/cy_gpio.c **** /*******************************************************************************
 171:Generated_Source\PSoC6\pdl\drivers\peripheral\gpio/cy_gpio.c **** * Function Name: Cy_GPIO_Pin_FastInit
 172:Generated_Source\PSoC6\pdl\drivers\peripheral\gpio/cy_gpio.c **** ****************************************************************************//**
 173:Generated_Source\PSoC6\pdl\drivers\peripheral\gpio/cy_gpio.c **** *
 174:Generated_Source\PSoC6\pdl\drivers\peripheral\gpio/cy_gpio.c **** * \brief Initialize the most common configuration settings for all pin types.
 175:Generated_Source\PSoC6\pdl\drivers\peripheral\gpio/cy_gpio.c **** *
 176:Generated_Source\PSoC6\pdl\drivers\peripheral\gpio/cy_gpio.c **** * These include, drive mode, initial output value, and HSIOM connection.
 177:Generated_Source\PSoC6\pdl\drivers\peripheral\gpio/cy_gpio.c **** *
 178:Generated_Source\PSoC6\pdl\drivers\peripheral\gpio/cy_gpio.c **** * \param base
 179:Generated_Source\PSoC6\pdl\drivers\peripheral\gpio/cy_gpio.c **** * Pointer to the pin's port register base address
 180:Generated_Source\PSoC6\pdl\drivers\peripheral\gpio/cy_gpio.c **** *
 181:Generated_Source\PSoC6\pdl\drivers\peripheral\gpio/cy_gpio.c **** * \param pinNum
 182:Generated_Source\PSoC6\pdl\drivers\peripheral\gpio/cy_gpio.c **** * Position of the pin bit-field within the port register
 183:Generated_Source\PSoC6\pdl\drivers\peripheral\gpio/cy_gpio.c **** *
 184:Generated_Source\PSoC6\pdl\drivers\peripheral\gpio/cy_gpio.c **** * \param driveMode
 185:Generated_Source\PSoC6\pdl\drivers\peripheral\gpio/cy_gpio.c **** * Pin drive mode. Options are detailed in \ref group_gpio_driveModes macros
 186:Generated_Source\PSoC6\pdl\drivers\peripheral\gpio/cy_gpio.c **** *
 187:Generated_Source\PSoC6\pdl\drivers\peripheral\gpio/cy_gpio.c **** * \param outVal
 188:Generated_Source\PSoC6\pdl\drivers\peripheral\gpio/cy_gpio.c **** * Logic state of the output buffer driven to the pin (1 or 0)
 189:Generated_Source\PSoC6\pdl\drivers\peripheral\gpio/cy_gpio.c **** *
 190:Generated_Source\PSoC6\pdl\drivers\peripheral\gpio/cy_gpio.c **** * \param hsiom
 191:Generated_Source\PSoC6\pdl\drivers\peripheral\gpio/cy_gpio.c **** * HSIOM input selection
 192:Generated_Source\PSoC6\pdl\drivers\peripheral\gpio/cy_gpio.c **** *
 193:Generated_Source\PSoC6\pdl\drivers\peripheral\gpio/cy_gpio.c **** * \return
 194:Generated_Source\PSoC6\pdl\drivers\peripheral\gpio/cy_gpio.c **** * void
 195:Generated_Source\PSoC6\pdl\drivers\peripheral\gpio/cy_gpio.c **** *
 196:Generated_Source\PSoC6\pdl\drivers\peripheral\gpio/cy_gpio.c **** * \note 
 197:Generated_Source\PSoC6\pdl\drivers\peripheral\gpio/cy_gpio.c **** * This function modifies port registers in read-modify-write operations. It is
 198:Generated_Source\PSoC6\pdl\drivers\peripheral\gpio/cy_gpio.c **** * not thread safe as the resource is shared among multiple pins on a port.
 199:Generated_Source\PSoC6\pdl\drivers\peripheral\gpio/cy_gpio.c **** *
 200:Generated_Source\PSoC6\pdl\drivers\peripheral\gpio/cy_gpio.c **** * \funcusage
 201:Generated_Source\PSoC6\pdl\drivers\peripheral\gpio/cy_gpio.c **** * \snippet gpio/gpio_v1_10_sut_01.cydsn/main_cm4.c snippet_Cy_GPIO_Pin_FastInit
 202:Generated_Source\PSoC6\pdl\drivers\peripheral\gpio/cy_gpio.c **** *
 203:Generated_Source\PSoC6\pdl\drivers\peripheral\gpio/cy_gpio.c **** *******************************************************************************/
 204:Generated_Source\PSoC6\pdl\drivers\peripheral\gpio/cy_gpio.c **** void Cy_GPIO_Pin_FastInit(GPIO_PRT_Type* base, uint32_t pinNum, uint32_t driveMode,
 205:Generated_Source\PSoC6\pdl\drivers\peripheral\gpio/cy_gpio.c ****                                         uint32_t outVal, en_hsiom_sel_t hsiom)
 206:Generated_Source\PSoC6\pdl\drivers\peripheral\gpio/cy_gpio.c **** {
 1135              		.loc 2 206 0
 1136              		.cfi_startproc
 1137              		@ args = 4, pretend = 0, frame = 24
 1138              		@ frame_needed = 1, uses_anonymous_args = 0
 1139 0000 80B5     		push	{r7, lr}
 1140              		.cfi_def_cfa_offset 8
 1141              		.cfi_offset 7, -8
 1142              		.cfi_offset 14, -4
 1143 0002 86B0     		sub	sp, sp, #24
 1144              		.cfi_def_cfa_offset 32
 1145 0004 00AF     		add	r7, sp, #0
 1146              		.cfi_def_cfa_register 7
 1147 0006 F860     		str	r0, [r7, #12]
 1148 0008 B960     		str	r1, [r7, #8]
 1149 000a 7A60     		str	r2, [r7, #4]
 1150 000c 3B60     		str	r3, [r7]
 207:Generated_Source\PSoC6\pdl\drivers\peripheral\gpio/cy_gpio.c ****     uint32_t tempReg;
 208:Generated_Source\PSoC6\pdl\drivers\peripheral\gpio/cy_gpio.c **** 
 209:Generated_Source\PSoC6\pdl\drivers\peripheral\gpio/cy_gpio.c ****     CY_ASSERT_L2(CY_GPIO_IS_PIN_VALID(pinNum));
 1151              		.loc 2 209 0
ARM GAS  C:\Users\ikomb\AppData\Local\Temp\ccAzoKUN.s 			page 56


 1152 000e BB68     		ldr	r3, [r7, #8]
 1153 0010 072B     		cmp	r3, #7
 1154 0012 03D9     		bls	.L70
 1155              		.loc 2 209 0 is_stmt 0 discriminator 1
 1156 0014 D121     		movs	r1, #209
 1157 0016 2748     		ldr	r0, .L74
 1158 0018 FFF7FEFF 		bl	Cy_SysLib_AssertFailed
 1159              	.L70:
 210:Generated_Source\PSoC6\pdl\drivers\peripheral\gpio/cy_gpio.c ****     CY_ASSERT_L2(CY_GPIO_IS_DM_VALID(driveMode));
 1160              		.loc 2 210 0 is_stmt 1
 1161 001c 7B68     		ldr	r3, [r7, #4]
 1162 001e 23F00F03 		bic	r3, r3, #15
 1163 0022 002B     		cmp	r3, #0
 1164 0024 03D0     		beq	.L71
 1165              		.loc 2 210 0 is_stmt 0 discriminator 1
 1166 0026 D221     		movs	r1, #210
 1167 0028 2248     		ldr	r0, .L74
 1168 002a FFF7FEFF 		bl	Cy_SysLib_AssertFailed
 1169              	.L71:
 211:Generated_Source\PSoC6\pdl\drivers\peripheral\gpio/cy_gpio.c ****     CY_ASSERT_L2(CY_GPIO_IS_VALUE_VALID(outVal));
 1170              		.loc 2 211 0 is_stmt 1
 1171 002e 3B68     		ldr	r3, [r7]
 1172 0030 012B     		cmp	r3, #1
 1173 0032 03D9     		bls	.L72
 1174              		.loc 2 211 0 is_stmt 0 discriminator 1
 1175 0034 D321     		movs	r1, #211
 1176 0036 1F48     		ldr	r0, .L74
 1177 0038 FFF7FEFF 		bl	Cy_SysLib_AssertFailed
 1178              	.L72:
 212:Generated_Source\PSoC6\pdl\drivers\peripheral\gpio/cy_gpio.c ****     CY_ASSERT_L2(CY_GPIO_IS_HSIOM_VALID(hsiom));
 1179              		.loc 2 212 0 is_stmt 1
 1180 003c 97F82030 		ldrb	r3, [r7, #32]	@ zero_extendqisi2
 1181 0040 23F01F03 		bic	r3, r3, #31
 1182 0044 002B     		cmp	r3, #0
 1183 0046 03D0     		beq	.L73
 1184              		.loc 2 212 0 is_stmt 0 discriminator 1
 1185 0048 D421     		movs	r1, #212
 1186 004a 1A48     		ldr	r0, .L74
 1187 004c FFF7FEFF 		bl	Cy_SysLib_AssertFailed
 1188              	.L73:
 213:Generated_Source\PSoC6\pdl\drivers\peripheral\gpio/cy_gpio.c **** 
 214:Generated_Source\PSoC6\pdl\drivers\peripheral\gpio/cy_gpio.c ****     tempReg = (base->OUT & ~(CY_GPIO_OUT_MASK << pinNum));
 1189              		.loc 2 214 0 is_stmt 1
 1190 0050 FB68     		ldr	r3, [r7, #12]
 1191 0052 1A68     		ldr	r2, [r3]
 1192 0054 0121     		movs	r1, #1
 1193 0056 BB68     		ldr	r3, [r7, #8]
 1194 0058 01FA03F3 		lsl	r3, r1, r3
 1195 005c DB43     		mvns	r3, r3
 1196 005e 1340     		ands	r3, r3, r2
 1197 0060 7B61     		str	r3, [r7, #20]
 215:Generated_Source\PSoC6\pdl\drivers\peripheral\gpio/cy_gpio.c ****     base->OUT = tempReg | ((outVal & CY_GPIO_OUT_MASK) << pinNum);
 1198              		.loc 2 215 0
 1199 0062 3B68     		ldr	r3, [r7]
 1200 0064 03F00102 		and	r2, r3, #1
 1201 0068 BB68     		ldr	r3, [r7, #8]
 1202 006a 9A40     		lsls	r2, r2, r3
ARM GAS  C:\Users\ikomb\AppData\Local\Temp\ccAzoKUN.s 			page 57


 1203 006c 7B69     		ldr	r3, [r7, #20]
 1204 006e 1A43     		orrs	r2, r2, r3
 1205 0070 FB68     		ldr	r3, [r7, #12]
 1206 0072 1A60     		str	r2, [r3]
 216:Generated_Source\PSoC6\pdl\drivers\peripheral\gpio/cy_gpio.c **** 
 217:Generated_Source\PSoC6\pdl\drivers\peripheral\gpio/cy_gpio.c ****     tempReg = (base->CFG & ~(CY_GPIO_CFG_DM_MASK << (pinNum << CY_GPIO_DRIVE_MODE_OFFSET)));
 1207              		.loc 2 217 0
 1208 0074 FB68     		ldr	r3, [r7, #12]
 1209 0076 9A6A     		ldr	r2, [r3, #40]
 1210 0078 BB68     		ldr	r3, [r7, #8]
 1211 007a 9B00     		lsls	r3, r3, #2
 1212 007c 0F21     		movs	r1, #15
 1213 007e 01FA03F3 		lsl	r3, r1, r3
 1214 0082 DB43     		mvns	r3, r3
 1215 0084 1340     		ands	r3, r3, r2
 1216 0086 7B61     		str	r3, [r7, #20]
 218:Generated_Source\PSoC6\pdl\drivers\peripheral\gpio/cy_gpio.c ****     base->CFG = tempReg | ((driveMode & CY_GPIO_CFG_DM_MASK) << (pinNum << CY_GPIO_DRIVE_MODE_OFFSE
 1217              		.loc 2 218 0
 1218 0088 7B68     		ldr	r3, [r7, #4]
 1219 008a 03F00F02 		and	r2, r3, #15
 1220 008e BB68     		ldr	r3, [r7, #8]
 1221 0090 9B00     		lsls	r3, r3, #2
 1222 0092 9A40     		lsls	r2, r2, r3
 1223 0094 7B69     		ldr	r3, [r7, #20]
 1224 0096 1A43     		orrs	r2, r2, r3
 1225 0098 FB68     		ldr	r3, [r7, #12]
 1226 009a 9A62     		str	r2, [r3, #40]
 219:Generated_Source\PSoC6\pdl\drivers\peripheral\gpio/cy_gpio.c **** 
 220:Generated_Source\PSoC6\pdl\drivers\peripheral\gpio/cy_gpio.c ****     Cy_GPIO_SetHSIOM(base, pinNum, hsiom);
 1227              		.loc 2 220 0
 1228 009c 97F82030 		ldrb	r3, [r7, #32]	@ zero_extendqisi2
 1229 00a0 1A46     		mov	r2, r3
 1230 00a2 B968     		ldr	r1, [r7, #8]
 1231 00a4 F868     		ldr	r0, [r7, #12]
 1232 00a6 FFF7FEFF 		bl	Cy_GPIO_SetHSIOM
 221:Generated_Source\PSoC6\pdl\drivers\peripheral\gpio/cy_gpio.c **** }
 1233              		.loc 2 221 0
 1234 00aa 00BF     		nop
 1235 00ac 1837     		adds	r7, r7, #24
 1236              		.cfi_def_cfa_offset 8
 1237 00ae BD46     		mov	sp, r7
 1238              		.cfi_def_cfa_register 13
 1239              		@ sp needed
 1240 00b0 80BD     		pop	{r7, pc}
 1241              	.L75:
 1242 00b2 00BF     		.align	2
 1243              	.L74:
 1244 00b4 40000000 		.word	.LC1
 1245              		.cfi_endproc
 1246              	.LFE165:
 1247              		.size	Cy_GPIO_Pin_FastInit, .-Cy_GPIO_Pin_FastInit
 1248              		.section	.text.Cy_GPIO_Port_Deinit,"ax",%progbits
 1249              		.align	2
 1250              		.global	Cy_GPIO_Port_Deinit
 1251              		.thumb
 1252              		.thumb_func
 1253              		.type	Cy_GPIO_Port_Deinit, %function
ARM GAS  C:\Users\ikomb\AppData\Local\Temp\ccAzoKUN.s 			page 58


 1254              	Cy_GPIO_Port_Deinit:
 1255              	.LFB166:
 222:Generated_Source\PSoC6\pdl\drivers\peripheral\gpio/cy_gpio.c **** 
 223:Generated_Source\PSoC6\pdl\drivers\peripheral\gpio/cy_gpio.c **** 
 224:Generated_Source\PSoC6\pdl\drivers\peripheral\gpio/cy_gpio.c **** /*******************************************************************************
 225:Generated_Source\PSoC6\pdl\drivers\peripheral\gpio/cy_gpio.c **** * Function Name: Cy_GPIO_Port_Deinit
 226:Generated_Source\PSoC6\pdl\drivers\peripheral\gpio/cy_gpio.c **** ****************************************************************************//**
 227:Generated_Source\PSoC6\pdl\drivers\peripheral\gpio/cy_gpio.c **** *
 228:Generated_Source\PSoC6\pdl\drivers\peripheral\gpio/cy_gpio.c **** * \brief Reset a complete port of pins back to power on reset defaults.
 229:Generated_Source\PSoC6\pdl\drivers\peripheral\gpio/cy_gpio.c **** *
 230:Generated_Source\PSoC6\pdl\drivers\peripheral\gpio/cy_gpio.c **** * \param base
 231:Generated_Source\PSoC6\pdl\drivers\peripheral\gpio/cy_gpio.c **** * Pointer to the pin's port register base address
 232:Generated_Source\PSoC6\pdl\drivers\peripheral\gpio/cy_gpio.c **** *
 233:Generated_Source\PSoC6\pdl\drivers\peripheral\gpio/cy_gpio.c **** * \return
 234:Generated_Source\PSoC6\pdl\drivers\peripheral\gpio/cy_gpio.c **** * void
 235:Generated_Source\PSoC6\pdl\drivers\peripheral\gpio/cy_gpio.c **** *
 236:Generated_Source\PSoC6\pdl\drivers\peripheral\gpio/cy_gpio.c **** * \funcusage
 237:Generated_Source\PSoC6\pdl\drivers\peripheral\gpio/cy_gpio.c **** * \snippet gpio/gpio_v1_10_sut_01.cydsn/main_cm4.c snippet_Cy_GPIO_Port_Deinit
 238:Generated_Source\PSoC6\pdl\drivers\peripheral\gpio/cy_gpio.c **** *
 239:Generated_Source\PSoC6\pdl\drivers\peripheral\gpio/cy_gpio.c **** *******************************************************************************/
 240:Generated_Source\PSoC6\pdl\drivers\peripheral\gpio/cy_gpio.c **** void Cy_GPIO_Port_Deinit(GPIO_PRT_Type* base)
 241:Generated_Source\PSoC6\pdl\drivers\peripheral\gpio/cy_gpio.c **** {
 1256              		.loc 2 241 0
 1257              		.cfi_startproc
 1258              		@ args = 0, pretend = 0, frame = 16
 1259              		@ frame_needed = 1, uses_anonymous_args = 0
 1260              		@ link register save eliminated.
 1261 0000 80B4     		push	{r7}
 1262              		.cfi_def_cfa_offset 4
 1263              		.cfi_offset 7, -4
 1264 0002 85B0     		sub	sp, sp, #20
 1265              		.cfi_def_cfa_offset 24
 1266 0004 00AF     		add	r7, sp, #0
 1267              		.cfi_def_cfa_register 7
 1268 0006 7860     		str	r0, [r7, #4]
 242:Generated_Source\PSoC6\pdl\drivers\peripheral\gpio/cy_gpio.c ****     uint32_t portNum;
 243:Generated_Source\PSoC6\pdl\drivers\peripheral\gpio/cy_gpio.c ****     HSIOM_PRT_Type* portAddrHSIOM;
 244:Generated_Source\PSoC6\pdl\drivers\peripheral\gpio/cy_gpio.c **** 
 245:Generated_Source\PSoC6\pdl\drivers\peripheral\gpio/cy_gpio.c ****     portNum = ((uint32_t)(base) - GPIO_BASE) / GPIO_PRT_SECTION_SIZE;
 1269              		.loc 2 245 0
 1270 0008 7B68     		ldr	r3, [r7, #4]
 1271 000a 03F13F43 		add	r3, r3, #-1090519040
 1272 000e 03F54E03 		add	r3, r3, #13500416
 1273 0012 DB09     		lsrs	r3, r3, #7
 1274 0014 FB60     		str	r3, [r7, #12]
 246:Generated_Source\PSoC6\pdl\drivers\peripheral\gpio/cy_gpio.c ****     portAddrHSIOM = (HSIOM_PRT_Type*)(HSIOM_BASE + (HSIOM_PRT_SECTION_SIZE * portNum));
 1275              		.loc 2 246 0
 1276 0016 FB68     		ldr	r3, [r7, #12]
 1277 0018 03F18063 		add	r3, r3, #67108864
 1278 001c 03F54433 		add	r3, r3, #200704
 1279 0020 1B01     		lsls	r3, r3, #4
 1280 0022 BB60     		str	r3, [r7, #8]
 247:Generated_Source\PSoC6\pdl\drivers\peripheral\gpio/cy_gpio.c **** 
 248:Generated_Source\PSoC6\pdl\drivers\peripheral\gpio/cy_gpio.c ****     base->OUT = CY_GPIO_PRT_DEINIT;
 1281              		.loc 2 248 0
 1282 0024 7B68     		ldr	r3, [r7, #4]
 1283 0026 0022     		movs	r2, #0
ARM GAS  C:\Users\ikomb\AppData\Local\Temp\ccAzoKUN.s 			page 59


 1284 0028 1A60     		str	r2, [r3]
 249:Generated_Source\PSoC6\pdl\drivers\peripheral\gpio/cy_gpio.c ****     base->CFG = CY_GPIO_PRT_DEINIT;
 1285              		.loc 2 249 0
 1286 002a 7B68     		ldr	r3, [r7, #4]
 1287 002c 0022     		movs	r2, #0
 1288 002e 9A62     		str	r2, [r3, #40]
 250:Generated_Source\PSoC6\pdl\drivers\peripheral\gpio/cy_gpio.c ****     base->CFG_IN = CY_GPIO_PRT_DEINIT;
 1289              		.loc 2 250 0
 1290 0030 7B68     		ldr	r3, [r7, #4]
 1291 0032 0022     		movs	r2, #0
 1292 0034 DA62     		str	r2, [r3, #44]
 251:Generated_Source\PSoC6\pdl\drivers\peripheral\gpio/cy_gpio.c ****     base->CFG_OUT = CY_GPIO_PRT_DEINIT;
 1293              		.loc 2 251 0
 1294 0036 7B68     		ldr	r3, [r7, #4]
 1295 0038 0022     		movs	r2, #0
 1296 003a 1A63     		str	r2, [r3, #48]
 252:Generated_Source\PSoC6\pdl\drivers\peripheral\gpio/cy_gpio.c ****     base->INTR_CFG = CY_GPIO_PRT_DEINIT;
 1297              		.loc 2 252 0
 1298 003c 7B68     		ldr	r3, [r7, #4]
 1299 003e 0022     		movs	r2, #0
 1300 0040 5A62     		str	r2, [r3, #36]
 253:Generated_Source\PSoC6\pdl\drivers\peripheral\gpio/cy_gpio.c ****     base->INTR_MASK = CY_GPIO_PRT_DEINIT;
 1301              		.loc 2 253 0
 1302 0042 7B68     		ldr	r3, [r7, #4]
 1303 0044 0022     		movs	r2, #0
 1304 0046 9A61     		str	r2, [r3, #24]
 254:Generated_Source\PSoC6\pdl\drivers\peripheral\gpio/cy_gpio.c ****     base->CFG_SIO = CY_GPIO_PRT_DEINIT;
 1305              		.loc 2 254 0
 1306 0048 7B68     		ldr	r3, [r7, #4]
 1307 004a 0022     		movs	r2, #0
 1308 004c 5A63     		str	r2, [r3, #52]
 255:Generated_Source\PSoC6\pdl\drivers\peripheral\gpio/cy_gpio.c ****     portAddrHSIOM->PORT_SEL0 = CY_GPIO_PRT_DEINIT;
 1309              		.loc 2 255 0
 1310 004e BB68     		ldr	r3, [r7, #8]
 1311 0050 0022     		movs	r2, #0
 1312 0052 1A60     		str	r2, [r3]
 256:Generated_Source\PSoC6\pdl\drivers\peripheral\gpio/cy_gpio.c ****     portAddrHSIOM->PORT_SEL1 = CY_GPIO_PRT_DEINIT;
 1313              		.loc 2 256 0
 1314 0054 BB68     		ldr	r3, [r7, #8]
 1315 0056 0022     		movs	r2, #0
 1316 0058 5A60     		str	r2, [r3, #4]
 257:Generated_Source\PSoC6\pdl\drivers\peripheral\gpio/cy_gpio.c **** }
 1317              		.loc 2 257 0
 1318 005a 00BF     		nop
 1319 005c 1437     		adds	r7, r7, #20
 1320              		.cfi_def_cfa_offset 4
 1321 005e BD46     		mov	sp, r7
 1322              		.cfi_def_cfa_register 13
 1323              		@ sp needed
 1324 0060 5DF8047B 		ldr	r7, [sp], #4
 1325              		.cfi_restore 7
 1326              		.cfi_def_cfa_offset 0
 1327 0064 7047     		bx	lr
 1328              		.cfi_endproc
 1329              	.LFE166:
 1330              		.size	Cy_GPIO_Port_Deinit, .-Cy_GPIO_Port_Deinit
 1331 0066 00BF     		.text
ARM GAS  C:\Users\ikomb\AppData\Local\Temp\ccAzoKUN.s 			page 60


 1332              	.Letext0:
 1333              		.file 3 "c:\\program files (x86)\\cypress\\psoc creator\\4.4\\psoc creator\\import\\gnu\\arm\\5.4.
 1334              		.file 4 "c:\\program files (x86)\\cypress\\psoc creator\\4.4\\psoc creator\\import\\gnu\\arm\\5.4.
 1335              		.file 5 "Generated_Source\\PSoC6\\pdl\\devices/psoc6/psoc63/include/gpio_psoc63_116_bga_ble.h"
 1336              		.file 6 "Generated_Source\\PSoC6\\pdl\\devices/psoc6/ip/cyip_hsiom.h"
 1337              		.file 7 "Generated_Source\\PSoC6\\pdl\\devices/psoc6/ip/cyip_gpio.h"
 1338              		.file 8 "Generated_Source\\PSoC6\\pdl\\drivers/peripheral/syslib/cy_syslib.h"
 1339              		.file 9 "Generated_Source\\PSoC6\\pdl\\cmsis/include/core_cm4.h"
 1340              		.section	.debug_info,"",%progbits
 1341              	.Ldebug_info0:
 1342 0000 27270000 		.4byte	0x2727
 1343 0004 0400     		.2byte	0x4
 1344 0006 00000000 		.4byte	.Ldebug_abbrev0
 1345 000a 04       		.byte	0x4
 1346 000b 01       		.uleb128 0x1
 1347 000c AC390000 		.4byte	.LASF1442
 1348 0010 0C       		.byte	0xc
 1349 0011 A4420000 		.4byte	.LASF1443
 1350 0015 0F3D0000 		.4byte	.LASF1444
 1351 0019 00000000 		.4byte	.Ldebug_ranges0+0
 1352 001d 00000000 		.4byte	0
 1353 0021 00000000 		.4byte	.Ldebug_line0
 1354 0025 02       		.uleb128 0x2
 1355 0026 04       		.byte	0x4
 1356 0027 05       		.byte	0x5
 1357 0028 696E7400 		.ascii	"int\000"
 1358 002c 03       		.uleb128 0x3
 1359 002d 04       		.byte	0x4
 1360 002e 07       		.byte	0x7
 1361 002f 055B0000 		.4byte	.LASF0
 1362 0033 03       		.uleb128 0x3
 1363 0034 08       		.byte	0x8
 1364 0035 05       		.byte	0x5
 1365 0036 10000000 		.4byte	.LASF1
 1366 003a 03       		.uleb128 0x3
 1367 003b 08       		.byte	0x8
 1368 003c 04       		.byte	0x4
 1369 003d 5E070000 		.4byte	.LASF2
 1370 0041 03       		.uleb128 0x3
 1371 0042 01       		.byte	0x1
 1372 0043 06       		.byte	0x6
 1373 0044 BB480000 		.4byte	.LASF3
 1374 0048 03       		.uleb128 0x3
 1375 0049 01       		.byte	0x1
 1376 004a 08       		.byte	0x8
 1377 004b 892C0000 		.4byte	.LASF4
 1378 004f 03       		.uleb128 0x3
 1379 0050 02       		.byte	0x2
 1380 0051 05       		.byte	0x5
 1381 0052 673C0000 		.4byte	.LASF5
 1382 0056 03       		.uleb128 0x3
 1383 0057 02       		.byte	0x2
 1384 0058 07       		.byte	0x7
 1385 0059 27280000 		.4byte	.LASF6
 1386 005d 04       		.uleb128 0x4
 1387 005e EB400000 		.4byte	.LASF8
 1388 0062 03       		.byte	0x3
ARM GAS  C:\Users\ikomb\AppData\Local\Temp\ccAzoKUN.s 			page 61


 1389 0063 3F       		.byte	0x3f
 1390 0064 68000000 		.4byte	0x68
 1391 0068 03       		.uleb128 0x3
 1392 0069 04       		.byte	0x4
 1393 006a 05       		.byte	0x5
 1394 006b 35400000 		.4byte	.LASF7
 1395 006f 04       		.uleb128 0x4
 1396 0070 83320000 		.4byte	.LASF9
 1397 0074 03       		.byte	0x3
 1398 0075 41       		.byte	0x41
 1399 0076 7A000000 		.4byte	0x7a
 1400 007a 03       		.uleb128 0x3
 1401 007b 04       		.byte	0x4
 1402 007c 07       		.byte	0x7
 1403 007d 4E010000 		.4byte	.LASF10
 1404 0081 03       		.uleb128 0x3
 1405 0082 08       		.byte	0x8
 1406 0083 07       		.byte	0x7
 1407 0084 A24C0000 		.4byte	.LASF11
 1408 0088 04       		.uleb128 0x4
 1409 0089 EA590000 		.4byte	.LASF12
 1410 008d 04       		.byte	0x4
 1411 008e 2C       		.byte	0x2c
 1412 008f 5D000000 		.4byte	0x5d
 1413 0093 04       		.uleb128 0x4
 1414 0094 5C060000 		.4byte	.LASF13
 1415 0098 04       		.byte	0x4
 1416 0099 30       		.byte	0x30
 1417 009a 6F000000 		.4byte	0x6f
 1418 009e 03       		.uleb128 0x3
 1419 009f 04       		.byte	0x4
 1420 00a0 07       		.byte	0x7
 1421 00a1 20430000 		.4byte	.LASF14
 1422 00a5 05       		.uleb128 0x5
 1423 00a6 93000000 		.4byte	0x93
 1424 00aa 06       		.uleb128 0x6
 1425 00ab A5000000 		.4byte	0xa5
 1426 00af 07       		.uleb128 0x7
 1427 00b0 AA000000 		.4byte	0xaa
 1428 00b4 BF000000 		.4byte	0xbf
 1429 00b8 08       		.uleb128 0x8
 1430 00b9 9E000000 		.4byte	0x9e
 1431 00bd 01       		.byte	0x1
 1432 00be 00       		.byte	0
 1433 00bf 09       		.uleb128 0x9
 1434 00c0 01       		.byte	0x1
 1435 00c1 48000000 		.4byte	0x48
 1436 00c5 05       		.byte	0x5
 1437 00c6 6D01     		.2byte	0x16d
 1438 00c8 A1200000 		.4byte	0x20a1
 1439 00cc 0A       		.uleb128 0xa
 1440 00cd BB080000 		.4byte	.LASF15
 1441 00d1 00       		.byte	0
 1442 00d2 0A       		.uleb128 0xa
 1443 00d3 CA200000 		.4byte	.LASF16
 1444 00d7 01       		.byte	0x1
 1445 00d8 0A       		.uleb128 0xa
ARM GAS  C:\Users\ikomb\AppData\Local\Temp\ccAzoKUN.s 			page 62


 1446 00d9 6B410000 		.4byte	.LASF17
 1447 00dd 02       		.byte	0x2
 1448 00de 0A       		.uleb128 0xa
 1449 00df 255B0000 		.4byte	.LASF18
 1450 00e3 03       		.byte	0x3
 1451 00e4 0A       		.uleb128 0xa
 1452 00e5 25100000 		.4byte	.LASF19
 1453 00e9 04       		.byte	0x4
 1454 00ea 0A       		.uleb128 0xa
 1455 00eb 35100000 		.4byte	.LASF20
 1456 00ef 05       		.byte	0x5
 1457 00f0 0A       		.uleb128 0xa
 1458 00f1 F4300000 		.4byte	.LASF21
 1459 00f5 06       		.byte	0x6
 1460 00f6 0A       		.uleb128 0xa
 1461 00f7 C33F0000 		.4byte	.LASF22
 1462 00fb 07       		.byte	0x7
 1463 00fc 0A       		.uleb128 0xa
 1464 00fd 202D0000 		.4byte	.LASF23
 1465 0101 08       		.byte	0x8
 1466 0102 0A       		.uleb128 0xa
 1467 0103 302D0000 		.4byte	.LASF24
 1468 0107 09       		.byte	0x9
 1469 0108 0A       		.uleb128 0xa
 1470 0109 402D0000 		.4byte	.LASF25
 1471 010d 0A       		.byte	0xa
 1472 010e 0A       		.uleb128 0xa
 1473 010f 502D0000 		.4byte	.LASF26
 1474 0113 0B       		.byte	0xb
 1475 0114 0A       		.uleb128 0xa
 1476 0115 14460000 		.4byte	.LASF27
 1477 0119 0C       		.byte	0xc
 1478 011a 0A       		.uleb128 0xa
 1479 011b 23460000 		.4byte	.LASF28
 1480 011f 0D       		.byte	0xd
 1481 0120 0A       		.uleb128 0xa
 1482 0121 32460000 		.4byte	.LASF29
 1483 0125 0E       		.byte	0xe
 1484 0126 0A       		.uleb128 0xa
 1485 0127 41460000 		.4byte	.LASF30
 1486 012b 0F       		.byte	0xf
 1487 012c 0A       		.uleb128 0xa
 1488 012d 602D0000 		.4byte	.LASF31
 1489 0131 10       		.byte	0x10
 1490 0132 0A       		.uleb128 0xa
 1491 0133 702D0000 		.4byte	.LASF32
 1492 0137 11       		.byte	0x11
 1493 0138 0A       		.uleb128 0xa
 1494 0139 802D0000 		.4byte	.LASF33
 1495 013d 12       		.byte	0x12
 1496 013e 0A       		.uleb128 0xa
 1497 013f 902D0000 		.4byte	.LASF34
 1498 0143 13       		.byte	0x13
 1499 0144 0A       		.uleb128 0xa
 1500 0145 A02D0000 		.4byte	.LASF35
 1501 0149 14       		.byte	0x14
 1502 014a 0A       		.uleb128 0xa
ARM GAS  C:\Users\ikomb\AppData\Local\Temp\ccAzoKUN.s 			page 63


 1503 014b B02D0000 		.4byte	.LASF36
 1504 014f 15       		.byte	0x15
 1505 0150 0A       		.uleb128 0xa
 1506 0151 8C060000 		.4byte	.LASF37
 1507 0155 16       		.byte	0x16
 1508 0156 0A       		.uleb128 0xa
 1509 0157 9D060000 		.4byte	.LASF38
 1510 015b 17       		.byte	0x17
 1511 015c 0A       		.uleb128 0xa
 1512 015d AE060000 		.4byte	.LASF39
 1513 0161 18       		.byte	0x18
 1514 0162 0A       		.uleb128 0xa
 1515 0163 BF060000 		.4byte	.LASF40
 1516 0167 19       		.byte	0x19
 1517 0168 0A       		.uleb128 0xa
 1518 0169 D0060000 		.4byte	.LASF41
 1519 016d 1A       		.byte	0x1a
 1520 016e 0A       		.uleb128 0xa
 1521 016f E1060000 		.4byte	.LASF42
 1522 0173 1B       		.byte	0x1b
 1523 0174 0A       		.uleb128 0xa
 1524 0175 50460000 		.4byte	.LASF43
 1525 0179 1C       		.byte	0x1c
 1526 017a 0A       		.uleb128 0xa
 1527 017b 5F460000 		.4byte	.LASF44
 1528 017f 1D       		.byte	0x1d
 1529 0180 0A       		.uleb128 0xa
 1530 0181 6E460000 		.4byte	.LASF45
 1531 0185 1E       		.byte	0x1e
 1532 0186 0A       		.uleb128 0xa
 1533 0187 7D460000 		.4byte	.LASF46
 1534 018b 1F       		.byte	0x1f
 1535 018c 0A       		.uleb128 0xa
 1536 018d 9E340000 		.4byte	.LASF47
 1537 0191 00       		.byte	0
 1538 0192 0A       		.uleb128 0xa
 1539 0193 6B420000 		.4byte	.LASF48
 1540 0197 01       		.byte	0x1
 1541 0198 0A       		.uleb128 0xa
 1542 0199 FB370000 		.4byte	.LASF49
 1543 019d 02       		.byte	0x2
 1544 019e 0A       		.uleb128 0xa
 1545 019f 5B1F0000 		.4byte	.LASF50
 1546 01a3 03       		.byte	0x3
 1547 01a4 0A       		.uleb128 0xa
 1548 01a5 65110000 		.4byte	.LASF51
 1549 01a9 04       		.byte	0x4
 1550 01aa 0A       		.uleb128 0xa
 1551 01ab 70110000 		.4byte	.LASF52
 1552 01af 05       		.byte	0x5
 1553 01b0 0A       		.uleb128 0xa
 1554 01b1 1D050000 		.4byte	.LASF53
 1555 01b5 06       		.byte	0x6
 1556 01b6 0A       		.uleb128 0xa
 1557 01b7 7D130000 		.4byte	.LASF54
 1558 01bb 07       		.byte	0x7
 1559 01bc 0A       		.uleb128 0xa
ARM GAS  C:\Users\ikomb\AppData\Local\Temp\ccAzoKUN.s 			page 64


 1560 01bd 8B110000 		.4byte	.LASF55
 1561 01c1 08       		.byte	0x8
 1562 01c2 0A       		.uleb128 0xa
 1563 01c3 0E0A0000 		.4byte	.LASF56
 1564 01c7 09       		.byte	0x9
 1565 01c8 0A       		.uleb128 0xa
 1566 01c9 07030000 		.4byte	.LASF57
 1567 01cd 0A       		.byte	0xa
 1568 01ce 0A       		.uleb128 0xa
 1569 01cf 884D0000 		.4byte	.LASF58
 1570 01d3 0B       		.byte	0xb
 1571 01d4 0A       		.uleb128 0xa
 1572 01d5 12580000 		.4byte	.LASF59
 1573 01d9 0C       		.byte	0xc
 1574 01da 0A       		.uleb128 0xa
 1575 01db FA540000 		.4byte	.LASF60
 1576 01df 0D       		.byte	0xd
 1577 01e0 0A       		.uleb128 0xa
 1578 01e1 8D2A0000 		.4byte	.LASF61
 1579 01e5 10       		.byte	0x10
 1580 01e6 0A       		.uleb128 0xa
 1581 01e7 83440000 		.4byte	.LASF62
 1582 01eb 14       		.byte	0x14
 1583 01ec 0A       		.uleb128 0xa
 1584 01ed C8020000 		.4byte	.LASF63
 1585 01f1 18       		.byte	0x18
 1586 01f2 0A       		.uleb128 0xa
 1587 01f3 4D520000 		.4byte	.LASF64
 1588 01f7 00       		.byte	0
 1589 01f8 0A       		.uleb128 0xa
 1590 01f9 A2000000 		.4byte	.LASF65
 1591 01fd 01       		.byte	0x1
 1592 01fe 0A       		.uleb128 0xa
 1593 01ff 43020000 		.4byte	.LASF66
 1594 0203 02       		.byte	0x2
 1595 0204 0A       		.uleb128 0xa
 1596 0205 9E390000 		.4byte	.LASF67
 1597 0209 03       		.byte	0x3
 1598 020a 0A       		.uleb128 0xa
 1599 020b D2090000 		.4byte	.LASF68
 1600 020f 04       		.byte	0x4
 1601 0210 0A       		.uleb128 0xa
 1602 0211 DD090000 		.4byte	.LASF69
 1603 0215 05       		.byte	0x5
 1604 0216 0A       		.uleb128 0xa
 1605 0217 70210000 		.4byte	.LASF70
 1606 021b 06       		.byte	0x6
 1607 021c 0A       		.uleb128 0xa
 1608 021d E32F0000 		.4byte	.LASF71
 1609 0221 07       		.byte	0x7
 1610 0222 0A       		.uleb128 0xa
 1611 0223 B6030000 		.4byte	.LASF72
 1612 0227 08       		.byte	0x8
 1613 0228 0A       		.uleb128 0xa
 1614 0229 D60F0000 		.4byte	.LASF73
 1615 022d 09       		.byte	0x9
 1616 022e 0A       		.uleb128 0xa
ARM GAS  C:\Users\ikomb\AppData\Local\Temp\ccAzoKUN.s 			page 65


 1617 022f DA3A0000 		.4byte	.LASF74
 1618 0233 0A       		.byte	0xa
 1619 0234 0A       		.uleb128 0xa
 1620 0235 77570000 		.4byte	.LASF75
 1621 0239 0B       		.byte	0xb
 1622 023a 0A       		.uleb128 0xa
 1623 023b 37160000 		.4byte	.LASF76
 1624 023f 0C       		.byte	0xc
 1625 0240 0A       		.uleb128 0xa
 1626 0241 D6130000 		.4byte	.LASF77
 1627 0245 0D       		.byte	0xd
 1628 0246 0A       		.uleb128 0xa
 1629 0247 90540000 		.4byte	.LASF78
 1630 024b 14       		.byte	0x14
 1631 024c 0A       		.uleb128 0xa
 1632 024d 4F450000 		.4byte	.LASF79
 1633 0251 18       		.byte	0x18
 1634 0252 0A       		.uleb128 0xa
 1635 0253 A5470000 		.4byte	.LASF80
 1636 0257 1D       		.byte	0x1d
 1637 0258 0A       		.uleb128 0xa
 1638 0259 1C120000 		.4byte	.LASF81
 1639 025d 00       		.byte	0
 1640 025e 0A       		.uleb128 0xa
 1641 025f 871A0000 		.4byte	.LASF82
 1642 0263 01       		.byte	0x1
 1643 0264 0A       		.uleb128 0xa
 1644 0265 1B260000 		.4byte	.LASF83
 1645 0269 02       		.byte	0x2
 1646 026a 0A       		.uleb128 0xa
 1647 026b 54540000 		.4byte	.LASF84
 1648 026f 03       		.byte	0x3
 1649 0270 0A       		.uleb128 0xa
 1650 0271 95020000 		.4byte	.LASF85
 1651 0275 04       		.byte	0x4
 1652 0276 0A       		.uleb128 0xa
 1653 0277 A0020000 		.4byte	.LASF86
 1654 027b 05       		.byte	0x5
 1655 027c 0A       		.uleb128 0xa
 1656 027d 993D0000 		.4byte	.LASF87
 1657 0281 06       		.byte	0x6
 1658 0282 0A       		.uleb128 0xa
 1659 0283 DB4B0000 		.4byte	.LASF88
 1660 0287 07       		.byte	0x7
 1661 0288 0A       		.uleb128 0xa
 1662 0289 A4250000 		.4byte	.LASF89
 1663 028d 08       		.byte	0x8
 1664 028e 0A       		.uleb128 0xa
 1665 028f 511E0000 		.4byte	.LASF90
 1666 0293 09       		.byte	0x9
 1667 0294 0A       		.uleb128 0xa
 1668 0295 26170000 		.4byte	.LASF91
 1669 0299 0A       		.byte	0xa
 1670 029a 0A       		.uleb128 0xa
 1671 029b FF050000 		.4byte	.LASF92
 1672 029f 0B       		.byte	0xb
 1673 02a0 0A       		.uleb128 0xa
ARM GAS  C:\Users\ikomb\AppData\Local\Temp\ccAzoKUN.s 			page 66


 1674 02a1 BD300000 		.4byte	.LASF93
 1675 02a5 0C       		.byte	0xc
 1676 02a6 0A       		.uleb128 0xa
 1677 02a7 082E0000 		.4byte	.LASF94
 1678 02ab 0D       		.byte	0xd
 1679 02ac 0A       		.uleb128 0xa
 1680 02ad 87330000 		.4byte	.LASF95
 1681 02b1 12       		.byte	0x12
 1682 02b2 0A       		.uleb128 0xa
 1683 02b3 D4490000 		.4byte	.LASF96
 1684 02b7 13       		.byte	0x13
 1685 02b8 0A       		.uleb128 0xa
 1686 02b9 861C0000 		.4byte	.LASF97
 1687 02bd 14       		.byte	0x14
 1688 02be 0A       		.uleb128 0xa
 1689 02bf 5B2F0000 		.4byte	.LASF98
 1690 02c3 00       		.byte	0
 1691 02c4 0A       		.uleb128 0xa
 1692 02c5 D9340000 		.4byte	.LASF99
 1693 02c9 01       		.byte	0x1
 1694 02ca 0A       		.uleb128 0xa
 1695 02cb DE4C0000 		.4byte	.LASF100
 1696 02cf 02       		.byte	0x2
 1697 02d0 0A       		.uleb128 0xa
 1698 02d1 C8120000 		.4byte	.LASF101
 1699 02d5 03       		.byte	0x3
 1700 02d6 0A       		.uleb128 0xa
 1701 02d7 49550000 		.4byte	.LASF102
 1702 02db 04       		.byte	0x4
 1703 02dc 0A       		.uleb128 0xa
 1704 02dd 54550000 		.4byte	.LASF103
 1705 02e1 05       		.byte	0x5
 1706 02e2 0A       		.uleb128 0xa
 1707 02e3 5A5A0000 		.4byte	.LASF104
 1708 02e7 06       		.byte	0x6
 1709 02e8 0A       		.uleb128 0xa
 1710 02e9 170C0000 		.4byte	.LASF105
 1711 02ed 07       		.byte	0x7
 1712 02ee 0A       		.uleb128 0xa
 1713 02ef B6250000 		.4byte	.LASF106
 1714 02f3 08       		.byte	0x8
 1715 02f4 0A       		.uleb128 0xa
 1716 02f5 E1320000 		.4byte	.LASF107
 1717 02f9 09       		.byte	0x9
 1718 02fa 0A       		.uleb128 0xa
 1719 02fb E14F0000 		.4byte	.LASF108
 1720 02ff 0A       		.byte	0xa
 1721 0300 0A       		.uleb128 0xa
 1722 0301 F8100000 		.4byte	.LASF109
 1723 0305 0B       		.byte	0xb
 1724 0306 0A       		.uleb128 0xa
 1725 0307 604B0000 		.4byte	.LASF110
 1726 030b 0C       		.byte	0xc
 1727 030c 0A       		.uleb128 0xa
 1728 030d C7480000 		.4byte	.LASF111
 1729 0311 0D       		.byte	0xd
 1730 0312 0A       		.uleb128 0xa
ARM GAS  C:\Users\ikomb\AppData\Local\Temp\ccAzoKUN.s 			page 67


 1731 0313 57400000 		.4byte	.LASF112
 1732 0317 12       		.byte	0x12
 1733 0318 0A       		.uleb128 0xa
 1734 0319 37550000 		.4byte	.LASF113
 1735 031d 13       		.byte	0x13
 1736 031e 0A       		.uleb128 0xa
 1737 031f 9A400000 		.4byte	.LASF114
 1738 0323 14       		.byte	0x14
 1739 0324 0A       		.uleb128 0xa
 1740 0325 454C0000 		.4byte	.LASF115
 1741 0329 00       		.byte	0
 1742 032a 0A       		.uleb128 0xa
 1743 032b F14F0000 		.4byte	.LASF116
 1744 032f 01       		.byte	0x1
 1745 0330 0A       		.uleb128 0xa
 1746 0331 AA150000 		.4byte	.LASF117
 1747 0335 02       		.byte	0x2
 1748 0336 0A       		.uleb128 0xa
 1749 0337 B42C0000 		.4byte	.LASF118
 1750 033b 03       		.byte	0x3
 1751 033c 0A       		.uleb128 0xa
 1752 033d CC4D0000 		.4byte	.LASF119
 1753 0341 04       		.byte	0x4
 1754 0342 0A       		.uleb128 0xa
 1755 0343 D74D0000 		.4byte	.LASF120
 1756 0347 05       		.byte	0x5
 1757 0348 0A       		.uleb128 0xa
 1758 0349 4E1A0000 		.4byte	.LASF121
 1759 034d 06       		.byte	0x6
 1760 034e 0A       		.uleb128 0xa
 1761 034f 09280000 		.4byte	.LASF122
 1762 0353 07       		.byte	0x7
 1763 0354 0A       		.uleb128 0xa
 1764 0355 F63B0000 		.4byte	.LASF123
 1765 0359 08       		.byte	0x8
 1766 035a 0A       		.uleb128 0xa
 1767 035b A8330000 		.4byte	.LASF124
 1768 035f 09       		.byte	0x9
 1769 0360 0A       		.uleb128 0xa
 1770 0361 C32B0000 		.4byte	.LASF125
 1771 0365 0A       		.byte	0xa
 1772 0366 0A       		.uleb128 0xa
 1773 0367 281B0000 		.4byte	.LASF126
 1774 036b 0B       		.byte	0xb
 1775 036c 0A       		.uleb128 0xa
 1776 036d E8090000 		.4byte	.LASF127
 1777 0371 0C       		.byte	0xc
 1778 0372 0A       		.uleb128 0xa
 1779 0373 18070000 		.4byte	.LASF128
 1780 0377 0D       		.byte	0xd
 1781 0378 0A       		.uleb128 0xa
 1782 0379 88100000 		.4byte	.LASF129
 1783 037d 12       		.byte	0x12
 1784 037e 0A       		.uleb128 0xa
 1785 037f 42470000 		.4byte	.LASF130
 1786 0383 14       		.byte	0x14
 1787 0384 0A       		.uleb128 0xa
ARM GAS  C:\Users\ikomb\AppData\Local\Temp\ccAzoKUN.s 			page 68


 1788 0385 CF430000 		.4byte	.LASF131
 1789 0389 19       		.byte	0x19
 1790 038a 0A       		.uleb128 0xa
 1791 038b 3E0C0000 		.4byte	.LASF132
 1792 038f 00       		.byte	0
 1793 0390 0A       		.uleb128 0xa
 1794 0391 980D0000 		.4byte	.LASF133
 1795 0395 01       		.byte	0x1
 1796 0396 0A       		.uleb128 0xa
 1797 0397 443B0000 		.4byte	.LASF134
 1798 039b 02       		.byte	0x2
 1799 039c 0A       		.uleb128 0xa
 1800 039d 05480000 		.4byte	.LASF135
 1801 03a1 03       		.byte	0x3
 1802 03a2 0A       		.uleb128 0xa
 1803 03a3 E8450000 		.4byte	.LASF136
 1804 03a7 04       		.byte	0x4
 1805 03a8 0A       		.uleb128 0xa
 1806 03a9 F3450000 		.4byte	.LASF137
 1807 03ad 05       		.byte	0x5
 1808 03ae 0A       		.uleb128 0xa
 1809 03af 53360000 		.4byte	.LASF138
 1810 03b3 06       		.byte	0x6
 1811 03b4 0A       		.uleb128 0xa
 1812 03b5 23450000 		.4byte	.LASF139
 1813 03b9 07       		.byte	0x7
 1814 03ba 0A       		.uleb128 0xa
 1815 03bb 034A0000 		.4byte	.LASF140
 1816 03bf 08       		.byte	0x8
 1817 03c0 0A       		.uleb128 0xa
 1818 03c1 C7560000 		.4byte	.LASF141
 1819 03c5 09       		.byte	0x9
 1820 03c6 0A       		.uleb128 0xa
 1821 03c7 CA080000 		.4byte	.LASF142
 1822 03cb 0A       		.byte	0xa
 1823 03cc 0A       		.uleb128 0xa
 1824 03cd D6240000 		.4byte	.LASF143
 1825 03d1 0B       		.byte	0xb
 1826 03d2 0A       		.uleb128 0xa
 1827 03d3 4B230000 		.4byte	.LASF144
 1828 03d7 0C       		.byte	0xc
 1829 03d8 0A       		.uleb128 0xa
 1830 03d9 EF200000 		.4byte	.LASF145
 1831 03dd 0D       		.byte	0xd
 1832 03de 0A       		.uleb128 0xa
 1833 03df 26040000 		.4byte	.LASF146
 1834 03e3 10       		.byte	0x10
 1835 03e4 0A       		.uleb128 0xa
 1836 03e5 61390000 		.4byte	.LASF147
 1837 03e9 12       		.byte	0x12
 1838 03ea 0A       		.uleb128 0xa
 1839 03eb C7380000 		.4byte	.LASF148
 1840 03ef 14       		.byte	0x14
 1841 03f0 0A       		.uleb128 0xa
 1842 03f1 3E260000 		.4byte	.LASF149
 1843 03f5 19       		.byte	0x19
 1844 03f6 0A       		.uleb128 0xa
ARM GAS  C:\Users\ikomb\AppData\Local\Temp\ccAzoKUN.s 			page 69


 1845 03f7 B94E0000 		.4byte	.LASF150
 1846 03fb 00       		.byte	0
 1847 03fc 0A       		.uleb128 0xa
 1848 03fd 871D0000 		.4byte	.LASF151
 1849 0401 01       		.byte	0x1
 1850 0402 0A       		.uleb128 0xa
 1851 0403 83540000 		.4byte	.LASF152
 1852 0407 02       		.byte	0x2
 1853 0408 0A       		.uleb128 0xa
 1854 0409 CD570000 		.4byte	.LASF153
 1855 040d 03       		.byte	0x3
 1856 040e 0A       		.uleb128 0xa
 1857 040f FD360000 		.4byte	.LASF154
 1858 0413 04       		.byte	0x4
 1859 0414 0A       		.uleb128 0xa
 1860 0415 08370000 		.4byte	.LASF155
 1861 0419 05       		.byte	0x5
 1862 041a 0A       		.uleb128 0xa
 1863 041b F0110000 		.4byte	.LASF156
 1864 041f 06       		.byte	0x6
 1865 0420 0A       		.uleb128 0xa
 1866 0421 C41F0000 		.4byte	.LASF157
 1867 0425 07       		.byte	0x7
 1868 0426 0A       		.uleb128 0xa
 1869 0427 01400000 		.4byte	.LASF158
 1870 042b 08       		.byte	0x8
 1871 042c 0A       		.uleb128 0xa
 1872 042d E9370000 		.4byte	.LASF159
 1873 0431 09       		.byte	0x9
 1874 0432 0A       		.uleb128 0xa
 1875 0433 610C0000 		.4byte	.LASF160
 1876 0437 0A       		.byte	0xa
 1877 0438 0A       		.uleb128 0xa
 1878 0439 041F0000 		.4byte	.LASF161
 1879 043d 0B       		.byte	0xb
 1880 043e 0A       		.uleb128 0xa
 1881 043f DC330000 		.4byte	.LASF162
 1882 0443 0C       		.byte	0xc
 1883 0444 0A       		.uleb128 0xa
 1884 0445 38310000 		.4byte	.LASF163
 1885 0449 0D       		.byte	0xd
 1886 044a 0A       		.uleb128 0xa
 1887 044b 973F0000 		.4byte	.LASF164
 1888 044f 12       		.byte	0x12
 1889 0450 0A       		.uleb128 0xa
 1890 0451 EE550000 		.4byte	.LASF165
 1891 0455 13       		.byte	0x13
 1892 0456 0A       		.uleb128 0xa
 1893 0457 F1460000 		.4byte	.LASF166
 1894 045b 14       		.byte	0x14
 1895 045c 0A       		.uleb128 0xa
 1896 045d A3200000 		.4byte	.LASF167
 1897 0461 18       		.byte	0x18
 1898 0462 0A       		.uleb128 0xa
 1899 0463 410E0000 		.4byte	.LASF168
 1900 0467 00       		.byte	0
 1901 0468 0A       		.uleb128 0xa
ARM GAS  C:\Users\ikomb\AppData\Local\Temp\ccAzoKUN.s 			page 70


 1902 0469 3B380000 		.4byte	.LASF169
 1903 046d 01       		.byte	0x1
 1904 046e 0A       		.uleb128 0xa
 1905 046f 631D0000 		.4byte	.LASF170
 1906 0473 02       		.byte	0x2
 1907 0474 0A       		.uleb128 0xa
 1908 0475 16160000 		.4byte	.LASF171
 1909 0479 03       		.byte	0x3
 1910 047a 0A       		.uleb128 0xa
 1911 047b 652F0000 		.4byte	.LASF172
 1912 047f 04       		.byte	0x4
 1913 0480 0A       		.uleb128 0xa
 1914 0481 702F0000 		.4byte	.LASF173
 1915 0485 05       		.byte	0x5
 1916 0486 0A       		.uleb128 0xa
 1917 0487 C02D0000 		.4byte	.LASF174
 1918 048b 06       		.byte	0x6
 1919 048c 0A       		.uleb128 0xa
 1920 048d E73B0000 		.4byte	.LASF175
 1921 0491 07       		.byte	0x7
 1922 0492 0A       		.uleb128 0xa
 1923 0493 724C0000 		.4byte	.LASF176
 1924 0497 08       		.byte	0x8
 1925 0498 0A       		.uleb128 0xa
 1926 0499 63590000 		.4byte	.LASF177
 1927 049d 09       		.byte	0x9
 1928 049e 0A       		.uleb128 0xa
 1929 049f 7E450000 		.4byte	.LASF178
 1930 04a3 0A       		.byte	0xa
 1931 04a4 0A       		.uleb128 0xa
 1932 04a5 89290000 		.4byte	.LASF179
 1933 04a9 0B       		.byte	0xb
 1934 04aa 0A       		.uleb128 0xa
 1935 04ab 304F0000 		.4byte	.LASF180
 1936 04af 0C       		.byte	0xc
 1937 04b0 0A       		.uleb128 0xa
 1938 04b1 374C0000 		.4byte	.LASF181
 1939 04b5 0D       		.byte	0xd
 1940 04b6 0A       		.uleb128 0xa
 1941 04b7 6E4B0000 		.4byte	.LASF182
 1942 04bb 12       		.byte	0x12
 1943 04bc 0A       		.uleb128 0xa
 1944 04bd 01050000 		.4byte	.LASF183
 1945 04c1 13       		.byte	0x13
 1946 04c2 0A       		.uleb128 0xa
 1947 04c3 8E0C0000 		.4byte	.LASF184
 1948 04c7 14       		.byte	0x14
 1949 04c8 0A       		.uleb128 0xa
 1950 04c9 12080000 		.4byte	.LASF185
 1951 04cd 18       		.byte	0x18
 1952 04ce 0A       		.uleb128 0xa
 1953 04cf E02A0000 		.4byte	.LASF186
 1954 04d3 00       		.byte	0
 1955 04d4 0A       		.uleb128 0xa
 1956 04d5 3A530000 		.4byte	.LASF187
 1957 04d9 01       		.byte	0x1
 1958 04da 0A       		.uleb128 0xa
ARM GAS  C:\Users\ikomb\AppData\Local\Temp\ccAzoKUN.s 			page 71


 1959 04db F9430000 		.4byte	.LASF188
 1960 04df 02       		.byte	0x2
 1961 04e0 0A       		.uleb128 0xa
 1962 04e1 77300000 		.4byte	.LASF189
 1963 04e5 03       		.byte	0x3
 1964 04e6 0A       		.uleb128 0xa
 1965 04e7 87260000 		.4byte	.LASF190
 1966 04eb 04       		.byte	0x4
 1967 04ec 0A       		.uleb128 0xa
 1968 04ed 92260000 		.4byte	.LASF191
 1969 04f1 05       		.byte	0x5
 1970 04f2 0A       		.uleb128 0xa
 1971 04f3 564A0000 		.4byte	.LASF192
 1972 04f7 06       		.byte	0x6
 1973 04f8 0A       		.uleb128 0xa
 1974 04f9 EF580000 		.4byte	.LASF193
 1975 04fd 07       		.byte	0x7
 1976 04fe 0A       		.uleb128 0xa
 1977 04ff 1A550000 		.4byte	.LASF194
 1978 0503 08       		.byte	0x8
 1979 0504 0A       		.uleb128 0xa
 1980 0505 311C0000 		.4byte	.LASF195
 1981 0509 09       		.byte	0x9
 1982 050a 0A       		.uleb128 0xa
 1983 050b 13210000 		.4byte	.LASF196
 1984 050f 0A       		.byte	0xa
 1985 0510 0A       		.uleb128 0xa
 1986 0511 F5330000 		.4byte	.LASF197
 1987 0515 0B       		.byte	0xb
 1988 0516 0A       		.uleb128 0xa
 1989 0517 FB0C0000 		.4byte	.LASF198
 1990 051b 0C       		.byte	0xc
 1991 051c 0A       		.uleb128 0xa
 1992 051d 820A0000 		.4byte	.LASF199
 1993 0521 0D       		.byte	0xd
 1994 0522 0A       		.uleb128 0xa
 1995 0523 933A0000 		.4byte	.LASF200
 1996 0527 12       		.byte	0x12
 1997 0528 0A       		.uleb128 0xa
 1998 0529 E8520000 		.4byte	.LASF201
 1999 052d 14       		.byte	0x14
 2000 052e 0A       		.uleb128 0xa
 2001 052f B1480000 		.4byte	.LASF202
 2002 0533 00       		.byte	0
 2003 0534 0A       		.uleb128 0xa
 2004 0535 4A110000 		.4byte	.LASF203
 2005 0539 01       		.byte	0x1
 2006 053a 0A       		.uleb128 0xa
 2007 053b 710C0000 		.4byte	.LASF204
 2008 053f 02       		.byte	0x2
 2009 0540 0A       		.uleb128 0xa
 2010 0541 404B0000 		.4byte	.LASF205
 2011 0545 03       		.byte	0x3
 2012 0546 0A       		.uleb128 0xa
 2013 0547 891E0000 		.4byte	.LASF206
 2014 054b 04       		.byte	0x4
 2015 054c 0A       		.uleb128 0xa
ARM GAS  C:\Users\ikomb\AppData\Local\Temp\ccAzoKUN.s 			page 72


 2016 054d 941E0000 		.4byte	.LASF207
 2017 0551 05       		.byte	0x5
 2018 0552 0A       		.uleb128 0xa
 2019 0553 F00A0000 		.4byte	.LASF208
 2020 0557 06       		.byte	0x6
 2021 0558 0A       		.uleb128 0xa
 2022 0559 12190000 		.4byte	.LASF209
 2023 055d 07       		.byte	0x7
 2024 055e 0A       		.uleb128 0xa
 2025 055f AB130000 		.4byte	.LASF210
 2026 0563 08       		.byte	0x8
 2027 0564 0A       		.uleb128 0xa
 2028 0565 79370000 		.4byte	.LASF211
 2029 0569 09       		.byte	0x9
 2030 056a 0A       		.uleb128 0xa
 2031 056b B05A0000 		.4byte	.LASF212
 2032 056f 0A       		.byte	0xa
 2033 0570 0A       		.uleb128 0xa
 2034 0571 1E3F0000 		.4byte	.LASF213
 2035 0575 0B       		.byte	0xb
 2036 0576 0A       		.uleb128 0xa
 2037 0577 02270000 		.4byte	.LASF214
 2038 057b 0C       		.byte	0xc
 2039 057c 0A       		.uleb128 0xa
 2040 057d 19240000 		.4byte	.LASF215
 2041 0581 0D       		.byte	0xd
 2042 0582 0A       		.uleb128 0xa
 2043 0583 05070000 		.4byte	.LASF216
 2044 0587 12       		.byte	0x12
 2045 0588 0A       		.uleb128 0xa
 2046 0589 B9530000 		.4byte	.LASF217
 2047 058d 14       		.byte	0x14
 2048 058e 0A       		.uleb128 0xa
 2049 058f B1080000 		.4byte	.LASF218
 2050 0593 00       		.byte	0
 2051 0594 0A       		.uleb128 0xa
 2052 0595 432B0000 		.4byte	.LASF219
 2053 0599 01       		.byte	0x1
 2054 059a 0A       		.uleb128 0xa
 2055 059b E4310000 		.4byte	.LASF220
 2056 059f 02       		.byte	0x2
 2057 05a0 0A       		.uleb128 0xa
 2058 05a1 C4090000 		.4byte	.LASF221
 2059 05a5 03       		.byte	0x3
 2060 05a6 0A       		.uleb128 0xa
 2061 05a7 F1160000 		.4byte	.LASF222
 2062 05ab 04       		.byte	0x4
 2063 05ac 0A       		.uleb128 0xa
 2064 05ad FC160000 		.4byte	.LASF223
 2065 05b1 05       		.byte	0x5
 2066 05b2 0A       		.uleb128 0xa
 2067 05b3 F4250000 		.4byte	.LASF224
 2068 05b7 06       		.byte	0x6
 2069 05b8 0A       		.uleb128 0xa
 2070 05b9 6D340000 		.4byte	.LASF225
 2071 05bd 07       		.byte	0x7
 2072 05be 0A       		.uleb128 0xa
ARM GAS  C:\Users\ikomb\AppData\Local\Temp\ccAzoKUN.s 			page 73


 2073 05bf 760D0000 		.4byte	.LASF226
 2074 05c3 08       		.byte	0x8
 2075 05c4 0A       		.uleb128 0xa
 2076 05c5 F93A0000 		.4byte	.LASF227
 2077 05c9 09       		.byte	0x9
 2078 05ca 0A       		.uleb128 0xa
 2079 05cb B4360000 		.4byte	.LASF228
 2080 05cf 0A       		.byte	0xa
 2081 05d0 0A       		.uleb128 0xa
 2082 05d1 97490000 		.4byte	.LASF229
 2083 05d5 0B       		.byte	0xb
 2084 05d6 0A       		.uleb128 0xa
 2085 05d7 B8160000 		.4byte	.LASF230
 2086 05db 0C       		.byte	0xc
 2087 05dc 0A       		.uleb128 0xa
 2088 05dd 9B150000 		.4byte	.LASF231
 2089 05e1 0D       		.byte	0xd
 2090 05e2 0A       		.uleb128 0xa
 2091 05e3 29080000 		.4byte	.LASF232
 2092 05e7 14       		.byte	0x14
 2093 05e8 0A       		.uleb128 0xa
 2094 05e9 AE240000 		.4byte	.LASF233
 2095 05ed 00       		.byte	0
 2096 05ee 0A       		.uleb128 0xa
 2097 05ef A7460000 		.4byte	.LASF234
 2098 05f3 01       		.byte	0x1
 2099 05f4 0A       		.uleb128 0xa
 2100 05f5 ED570000 		.4byte	.LASF235
 2101 05f9 02       		.byte	0x2
 2102 05fa 0A       		.uleb128 0xa
 2103 05fb FB230000 		.4byte	.LASF236
 2104 05ff 03       		.byte	0x3
 2105 0600 0A       		.uleb128 0xa
 2106 0601 C80E0000 		.4byte	.LASF237
 2107 0605 04       		.byte	0x4
 2108 0606 0A       		.uleb128 0xa
 2109 0607 D30E0000 		.4byte	.LASF238
 2110 060b 05       		.byte	0x5
 2111 060c 0A       		.uleb128 0xa
 2112 060d 86430000 		.4byte	.LASF239
 2113 0611 06       		.byte	0x6
 2114 0612 0A       		.uleb128 0xa
 2115 0613 EA510000 		.4byte	.LASF240
 2116 0617 07       		.byte	0x7
 2117 0618 0A       		.uleb128 0xa
 2118 0619 9C360000 		.4byte	.LASF241
 2119 061d 08       		.byte	0x8
 2120 061e 0A       		.uleb128 0xa
 2121 061f 021A0000 		.4byte	.LASF242
 2122 0623 09       		.byte	0x9
 2123 0624 0A       		.uleb128 0xa
 2124 0625 6D130000 		.4byte	.LASF243
 2125 0629 0A       		.byte	0xa
 2126 062a 0A       		.uleb128 0xa
 2127 062b 11060000 		.4byte	.LASF244
 2128 062f 0B       		.byte	0xb
 2129 0630 0A       		.uleb128 0xa
ARM GAS  C:\Users\ikomb\AppData\Local\Temp\ccAzoKUN.s 			page 74


 2130 0631 35330000 		.4byte	.LASF245
 2131 0635 0C       		.byte	0xc
 2132 0636 0A       		.uleb128 0xa
 2133 0637 D5310000 		.4byte	.LASF246
 2134 063b 0D       		.byte	0xd
 2135 063c 0A       		.uleb128 0xa
 2136 063d 06180000 		.4byte	.LASF247
 2137 0641 14       		.byte	0x14
 2138 0642 0A       		.uleb128 0xa
 2139 0643 2D570000 		.4byte	.LASF248
 2140 0647 00       		.byte	0
 2141 0648 0A       		.uleb128 0xa
 2142 0649 7F480000 		.4byte	.LASF249
 2143 064d 01       		.byte	0x1
 2144 064e 0A       		.uleb128 0xa
 2145 064f EE0C0000 		.4byte	.LASF250
 2146 0653 02       		.byte	0x2
 2147 0654 0A       		.uleb128 0xa
 2148 0655 F8240000 		.4byte	.LASF251
 2149 0659 03       		.byte	0x3
 2150 065a 0A       		.uleb128 0xa
 2151 065b DF140000 		.4byte	.LASF252
 2152 065f 04       		.byte	0x4
 2153 0660 0A       		.uleb128 0xa
 2154 0661 EA140000 		.4byte	.LASF253
 2155 0665 05       		.byte	0x5
 2156 0666 0A       		.uleb128 0xa
 2157 0667 20440000 		.4byte	.LASF254
 2158 066b 06       		.byte	0x6
 2159 066c 0A       		.uleb128 0xa
 2160 066d 07520000 		.4byte	.LASF255
 2161 0671 07       		.byte	0x7
 2162 0672 0A       		.uleb128 0xa
 2163 0673 8A4A0000 		.4byte	.LASF256
 2164 0677 08       		.byte	0x8
 2165 0678 0A       		.uleb128 0xa
 2166 0679 7B2F0000 		.4byte	.LASF257
 2167 067d 09       		.byte	0x9
 2168 067e 0A       		.uleb128 0xa
 2169 067f 13370000 		.4byte	.LASF258
 2170 0683 0A       		.byte	0xa
 2171 0684 0A       		.uleb128 0xa
 2172 0685 7F200000 		.4byte	.LASF259
 2173 0689 0B       		.byte	0xb
 2174 068a 0A       		.uleb128 0xa
 2175 068b 4B350000 		.4byte	.LASF260
 2176 068f 0C       		.byte	0xc
 2177 0690 0A       		.uleb128 0xa
 2178 0691 BA330000 		.4byte	.LASF261
 2179 0695 0D       		.byte	0xd
 2180 0696 0A       		.uleb128 0xa
 2181 0697 29520000 		.4byte	.LASF262
 2182 069b 12       		.byte	0x12
 2183 069c 0A       		.uleb128 0xa
 2184 069d 2C0C0000 		.4byte	.LASF263
 2185 06a1 13       		.byte	0x13
 2186 06a2 0A       		.uleb128 0xa
ARM GAS  C:\Users\ikomb\AppData\Local\Temp\ccAzoKUN.s 			page 75


 2187 06a3 63160000 		.4byte	.LASF264
 2188 06a7 14       		.byte	0x14
 2189 06a8 0A       		.uleb128 0xa
 2190 06a9 420F0000 		.4byte	.LASF265
 2191 06ad 16       		.byte	0x16
 2192 06ae 0A       		.uleb128 0xa
 2193 06af 5B250000 		.4byte	.LASF266
 2194 06b3 18       		.byte	0x18
 2195 06b4 0A       		.uleb128 0xa
 2196 06b5 2F180000 		.4byte	.LASF267
 2197 06b9 00       		.byte	0
 2198 06ba 0A       		.uleb128 0xa
 2199 06bb 7E060000 		.4byte	.LASF268
 2200 06bf 01       		.byte	0x1
 2201 06c0 0A       		.uleb128 0xa
 2202 06c1 26320000 		.4byte	.LASF269
 2203 06c5 02       		.byte	0x2
 2204 06c6 0A       		.uleb128 0xa
 2205 06c7 19410000 		.4byte	.LASF270
 2206 06cb 03       		.byte	0x3
 2207 06cc 0A       		.uleb128 0xa
 2208 06cd C90C0000 		.4byte	.LASF271
 2209 06d1 04       		.byte	0x4
 2210 06d2 0A       		.uleb128 0xa
 2211 06d3 D40C0000 		.4byte	.LASF272
 2212 06d7 05       		.byte	0x5
 2213 06d8 0A       		.uleb128 0xa
 2214 06d9 65040000 		.4byte	.LASF273
 2215 06dd 06       		.byte	0x6
 2216 06de 0A       		.uleb128 0xa
 2217 06df 3C120000 		.4byte	.LASF274
 2218 06e3 07       		.byte	0x7
 2219 06e4 0A       		.uleb128 0xa
 2220 06e5 90010000 		.4byte	.LASF275
 2221 06e9 08       		.byte	0x8
 2222 06ea 0A       		.uleb128 0xa
 2223 06eb 470D0000 		.4byte	.LASF276
 2224 06ef 09       		.byte	0x9
 2225 06f0 0A       		.uleb128 0xa
 2226 06f1 9B130000 		.4byte	.LASF277
 2227 06f5 0A       		.byte	0xa
 2228 06f6 0A       		.uleb128 0xa
 2229 06f7 CE2A0000 		.4byte	.LASF278
 2230 06fb 0B       		.byte	0xb
 2231 06fc 0A       		.uleb128 0xa
 2232 06fd 65520000 		.4byte	.LASF279
 2233 0701 0C       		.byte	0xc
 2234 0702 0A       		.uleb128 0xa
 2235 0703 58510000 		.4byte	.LASF280
 2236 0707 0D       		.byte	0xd
 2237 0708 0A       		.uleb128 0xa
 2238 0709 75020000 		.4byte	.LASF281
 2239 070d 12       		.byte	0x12
 2240 070e 0A       		.uleb128 0xa
 2241 070f 4E170000 		.4byte	.LASF282
 2242 0713 13       		.byte	0x13
 2243 0714 0A       		.uleb128 0xa
ARM GAS  C:\Users\ikomb\AppData\Local\Temp\ccAzoKUN.s 			page 76


 2244 0715 1C390000 		.4byte	.LASF283
 2245 0719 14       		.byte	0x14
 2246 071a 0A       		.uleb128 0xa
 2247 071b 07570000 		.4byte	.LASF284
 2248 071f 16       		.byte	0x16
 2249 0720 0A       		.uleb128 0xa
 2250 0721 F6090000 		.4byte	.LASF285
 2251 0725 18       		.byte	0x18
 2252 0726 0A       		.uleb128 0xa
 2253 0727 94340000 		.4byte	.LASF286
 2254 072b 00       		.byte	0
 2255 072c 0A       		.uleb128 0xa
 2256 072d 71200000 		.4byte	.LASF287
 2257 0731 01       		.byte	0x1
 2258 0732 0A       		.uleb128 0xa
 2259 0733 49580000 		.4byte	.LASF288
 2260 0737 02       		.byte	0x2
 2261 0738 0A       		.uleb128 0xa
 2262 0739 D75A0000 		.4byte	.LASF289
 2263 073d 03       		.byte	0x3
 2264 073e 0A       		.uleb128 0xa
 2265 073f 4B050000 		.4byte	.LASF290
 2266 0743 04       		.byte	0x4
 2267 0744 0A       		.uleb128 0xa
 2268 0745 56050000 		.4byte	.LASF291
 2269 0749 05       		.byte	0x5
 2270 074a 0A       		.uleb128 0xa
 2271 074b 49200000 		.4byte	.LASF292
 2272 074f 06       		.byte	0x6
 2273 0750 0A       		.uleb128 0xa
 2274 0751 E42E0000 		.4byte	.LASF293
 2275 0755 07       		.byte	0x7
 2276 0756 0A       		.uleb128 0xa
 2277 0757 B5560000 		.4byte	.LASF294
 2278 075b 08       		.byte	0x8
 2279 075c 0A       		.uleb128 0xa
 2280 075d 1E4F0000 		.4byte	.LASF295
 2281 0761 09       		.byte	0x9
 2282 0762 0A       		.uleb128 0xa
 2283 0763 FE4B0000 		.4byte	.LASF296
 2284 0767 0A       		.byte	0xa
 2285 0768 0A       		.uleb128 0xa
 2286 0769 CD350000 		.4byte	.LASF297
 2287 076d 0B       		.byte	0xb
 2288 076e 0A       		.uleb128 0xa
 2289 076f 64120000 		.4byte	.LASF298
 2290 0773 0C       		.byte	0xc
 2291 0774 0A       		.uleb128 0xa
 2292 0775 9B100000 		.4byte	.LASF299
 2293 0779 0D       		.byte	0xd
 2294 077a 0A       		.uleb128 0xa
 2295 077b 500A0000 		.4byte	.LASF300
 2296 077f 12       		.byte	0x12
 2297 0780 0A       		.uleb128 0xa
 2298 0781 DA080000 		.4byte	.LASF301
 2299 0785 14       		.byte	0x14
 2300 0786 0A       		.uleb128 0xa
ARM GAS  C:\Users\ikomb\AppData\Local\Temp\ccAzoKUN.s 			page 77


 2301 0787 D13C0000 		.4byte	.LASF302
 2302 078b 16       		.byte	0x16
 2303 078c 0A       		.uleb128 0xa
 2304 078d D1510000 		.4byte	.LASF303
 2305 0791 00       		.byte	0
 2306 0792 0A       		.uleb128 0xa
 2307 0793 803B0000 		.4byte	.LASF304
 2308 0797 01       		.byte	0x1
 2309 0798 0A       		.uleb128 0xa
 2310 0799 32210000 		.4byte	.LASF305
 2311 079d 02       		.byte	0x2
 2312 079e 0A       		.uleb128 0xa
 2313 079f 66190000 		.4byte	.LASF306
 2314 07a3 03       		.byte	0x3
 2315 07a4 0A       		.uleb128 0xa
 2316 07a5 29590000 		.4byte	.LASF307
 2317 07a9 04       		.byte	0x4
 2318 07aa 0A       		.uleb128 0xa
 2319 07ab 34590000 		.4byte	.LASF308
 2320 07af 05       		.byte	0x5
 2321 07b0 0A       		.uleb128 0xa
 2322 07b1 583C0000 		.4byte	.LASF309
 2323 07b5 06       		.byte	0x6
 2324 07b6 0A       		.uleb128 0xa
 2325 07b7 9C4A0000 		.4byte	.LASF310
 2326 07bb 07       		.byte	0x7
 2327 07bc 0A       		.uleb128 0xa
 2328 07bd 59230000 		.4byte	.LASF311
 2329 07c1 08       		.byte	0x8
 2330 07c2 0A       		.uleb128 0xa
 2331 07c3 DC300000 		.4byte	.LASF312
 2332 07c7 09       		.byte	0x9
 2333 07c8 0A       		.uleb128 0xa
 2334 07c9 6E270000 		.4byte	.LASF313
 2335 07cd 0A       		.byte	0xa
 2336 07ce 0A       		.uleb128 0xa
 2337 07cf 07410000 		.4byte	.LASF314
 2338 07d3 0B       		.byte	0xb
 2339 07d4 0A       		.uleb128 0xa
 2340 07d5 592E0000 		.4byte	.LASF315
 2341 07d9 0C       		.byte	0xc
 2342 07da 0A       		.uleb128 0xa
 2343 07db 972C0000 		.4byte	.LASF316
 2344 07df 0D       		.byte	0xd
 2345 07e0 0A       		.uleb128 0xa
 2346 07e1 19330000 		.4byte	.LASF317
 2347 07e5 12       		.byte	0x12
 2348 07e6 0A       		.uleb128 0xa
 2349 07e7 7F240000 		.4byte	.LASF318
 2350 07eb 14       		.byte	0x14
 2351 07ec 0A       		.uleb128 0xa
 2352 07ed FE580000 		.4byte	.LASF319
 2353 07f1 16       		.byte	0x16
 2354 07f2 0A       		.uleb128 0xa
 2355 07f3 12120000 		.4byte	.LASF320
 2356 07f7 00       		.byte	0
 2357 07f8 0A       		.uleb128 0xa
ARM GAS  C:\Users\ikomb\AppData\Local\Temp\ccAzoKUN.s 			page 78


 2358 07f9 09560000 		.4byte	.LASF321
 2359 07fd 01       		.byte	0x1
 2360 07fe 0A       		.uleb128 0xa
 2361 07ff 35470000 		.4byte	.LASF322
 2362 0803 02       		.byte	0x2
 2363 0804 0A       		.uleb128 0xa
 2364 0805 53330000 		.4byte	.LASF323
 2365 0809 03       		.byte	0x3
 2366 080a 0A       		.uleb128 0xa
 2367 080b 67510000 		.4byte	.LASF324
 2368 080f 04       		.byte	0x4
 2369 0810 0A       		.uleb128 0xa
 2370 0811 72510000 		.4byte	.LASF325
 2371 0815 05       		.byte	0x5
 2372 0816 0A       		.uleb128 0xa
 2373 0817 7B590000 		.4byte	.LASF326
 2374 081b 06       		.byte	0x6
 2375 081c 0A       		.uleb128 0xa
 2376 081d 460B0000 		.4byte	.LASF327
 2377 0821 07       		.byte	0x7
 2378 0822 0A       		.uleb128 0xa
 2379 0823 F10E0000 		.4byte	.LASF328
 2380 0827 08       		.byte	0x8
 2381 0828 0A       		.uleb128 0xa
 2382 0829 6A070000 		.4byte	.LASF329
 2383 082d 09       		.byte	0x9
 2384 082e 0A       		.uleb128 0xa
 2385 082f 784E0000 		.4byte	.LASF330
 2386 0833 0A       		.byte	0xa
 2387 0834 0A       		.uleb128 0xa
 2388 0835 BE4A0000 		.4byte	.LASF331
 2389 0839 0B       		.byte	0xb
 2390 083a 0A       		.uleb128 0xa
 2391 083b F24A0000 		.4byte	.LASF332
 2392 083f 0C       		.byte	0xc
 2393 0840 0A       		.uleb128 0xa
 2394 0841 F4490000 		.4byte	.LASF333
 2395 0845 0D       		.byte	0xd
 2396 0846 0A       		.uleb128 0xa
 2397 0847 04350000 		.4byte	.LASF334
 2398 084b 14       		.byte	0x14
 2399 084c 0A       		.uleb128 0xa
 2400 084d FB4C0000 		.4byte	.LASF335
 2401 0851 16       		.byte	0x16
 2402 0852 0A       		.uleb128 0xa
 2403 0853 512F0000 		.4byte	.LASF336
 2404 0857 00       		.byte	0
 2405 0858 0A       		.uleb128 0xa
 2406 0859 AA140000 		.4byte	.LASF337
 2407 085d 01       		.byte	0x1
 2408 085e 0A       		.uleb128 0xa
 2409 085f 7B100000 		.4byte	.LASF338
 2410 0863 02       		.byte	0x2
 2411 0864 0A       		.uleb128 0xa
 2412 0865 884E0000 		.4byte	.LASF339
 2413 0869 03       		.byte	0x3
 2414 086a 0A       		.uleb128 0xa
ARM GAS  C:\Users\ikomb\AppData\Local\Temp\ccAzoKUN.s 			page 79


 2415 086b 5A490000 		.4byte	.LASF340
 2416 086f 04       		.byte	0x4
 2417 0870 0A       		.uleb128 0xa
 2418 0871 65490000 		.4byte	.LASF341
 2419 0875 05       		.byte	0x5
 2420 0876 0A       		.uleb128 0xa
 2421 0877 74190000 		.4byte	.LASF342
 2422 087b 06       		.byte	0x6
 2423 087c 0A       		.uleb128 0xa
 2424 087d E0260000 		.4byte	.LASF343
 2425 0881 07       		.byte	0x7
 2426 0882 0A       		.uleb128 0xa
 2427 0883 BA470000 		.4byte	.LASF344
 2428 0887 08       		.byte	0x8
 2429 0888 0A       		.uleb128 0xa
 2430 0889 C7040000 		.4byte	.LASF345
 2431 088d 09       		.byte	0x9
 2432 088e 0A       		.uleb128 0xa
 2433 088f 435B0000 		.4byte	.LASF346
 2434 0893 0A       		.byte	0xa
 2435 0894 0A       		.uleb128 0xa
 2436 0895 CD550000 		.4byte	.LASF347
 2437 0899 0B       		.byte	0xb
 2438 089a 0A       		.uleb128 0xa
 2439 089b 770B0000 		.4byte	.LASF348
 2440 089f 0C       		.byte	0xc
 2441 08a0 0A       		.uleb128 0xa
 2442 08a1 630A0000 		.4byte	.LASF349
 2443 08a5 0D       		.byte	0xd
 2444 08a6 0A       		.uleb128 0xa
 2445 08a7 FE450000 		.4byte	.LASF350
 2446 08ab 14       		.byte	0x14
 2447 08ac 0A       		.uleb128 0xa
 2448 08ad E31F0000 		.4byte	.LASF351
 2449 08b1 16       		.byte	0x16
 2450 08b2 0A       		.uleb128 0xa
 2451 08b3 171C0000 		.4byte	.LASF352
 2452 08b7 00       		.byte	0
 2453 08b8 0A       		.uleb128 0xa
 2454 08b9 112F0000 		.4byte	.LASF353
 2455 08bd 01       		.byte	0x1
 2456 08be 0A       		.uleb128 0xa
 2457 08bf EA350000 		.4byte	.LASF354
 2458 08c3 02       		.byte	0x2
 2459 08c4 0A       		.uleb128 0xa
 2460 08c5 480C0000 		.4byte	.LASF355
 2461 08c9 03       		.byte	0x3
 2462 08ca 0A       		.uleb128 0xa
 2463 08cb F0410000 		.4byte	.LASF356
 2464 08cf 04       		.byte	0x4
 2465 08d0 0A       		.uleb128 0xa
 2466 08d1 FB410000 		.4byte	.LASF357
 2467 08d5 05       		.byte	0x5
 2468 08d6 0A       		.uleb128 0xa
 2469 08d7 1A350000 		.4byte	.LASF358
 2470 08db 06       		.byte	0x6
 2471 08dc 0A       		.uleb128 0xa
ARM GAS  C:\Users\ikomb\AppData\Local\Temp\ccAzoKUN.s 			page 80


 2472 08dd 06440000 		.4byte	.LASF359
 2473 08e1 07       		.byte	0x7
 2474 08e2 0A       		.uleb128 0xa
 2475 08e3 E9230000 		.4byte	.LASF360
 2476 08e7 08       		.byte	0x8
 2477 08e8 0A       		.uleb128 0xa
 2478 08e9 741C0000 		.4byte	.LASF361
 2479 08ed 09       		.byte	0x9
 2480 08ee 0A       		.uleb128 0xa
 2481 08ef AB190000 		.4byte	.LASF362
 2482 08f3 0A       		.byte	0xa
 2483 08f4 0A       		.uleb128 0xa
 2484 08f5 74040000 		.4byte	.LASF363
 2485 08f9 0B       		.byte	0xb
 2486 08fa 0A       		.uleb128 0xa
 2487 08fb 5D260000 		.4byte	.LASF364
 2488 08ff 0C       		.byte	0xc
 2489 0900 0A       		.uleb128 0xa
 2490 0901 4C250000 		.4byte	.LASF365
 2491 0905 0D       		.byte	0xd
 2492 0906 0A       		.uleb128 0xa
 2493 0907 96550000 		.4byte	.LASF366
 2494 090b 14       		.byte	0x14
 2495 090c 0A       		.uleb128 0xa
 2496 090d 084E0000 		.4byte	.LASF367
 2497 0911 16       		.byte	0x16
 2498 0912 0A       		.uleb128 0xa
 2499 0913 B8140000 		.4byte	.LASF368
 2500 0917 00       		.byte	0
 2501 0918 0A       		.uleb128 0xa
 2502 0919 8B230000 		.4byte	.LASF369
 2503 091d 01       		.byte	0x1
 2504 091e 0A       		.uleb128 0xa
 2505 091f 40290000 		.4byte	.LASF370
 2506 0923 02       		.byte	0x2
 2507 0924 0A       		.uleb128 0xa
 2508 0925 E9020000 		.4byte	.LASF371
 2509 0929 03       		.byte	0x3
 2510 092a 0A       		.uleb128 0xa
 2511 092b 7D3A0000 		.4byte	.LASF372
 2512 092f 04       		.byte	0x4
 2513 0930 0A       		.uleb128 0xa
 2514 0931 883A0000 		.4byte	.LASF373
 2515 0935 05       		.byte	0x5
 2516 0936 0A       		.uleb128 0xa
 2517 0937 06510000 		.4byte	.LASF374
 2518 093b 06       		.byte	0x6
 2519 093c 0A       		.uleb128 0xa
 2520 093d 17030000 		.4byte	.LASF375
 2521 0941 07       		.byte	0x7
 2522 0942 0A       		.uleb128 0xa
 2523 0943 E4130000 		.4byte	.LASF376
 2524 0947 08       		.byte	0x8
 2525 0948 0A       		.uleb128 0xa
 2526 0949 DE0B0000 		.4byte	.LASF377
 2527 094d 09       		.byte	0x9
 2528 094e 0A       		.uleb128 0xa
ARM GAS  C:\Users\ikomb\AppData\Local\Temp\ccAzoKUN.s 			page 81


 2529 094f 29420000 		.4byte	.LASF378
 2530 0953 0A       		.byte	0xa
 2531 0954 0A       		.uleb128 0xa
 2532 0955 B74F0000 		.4byte	.LASF379
 2533 0959 0B       		.byte	0xb
 2534 095a 0A       		.uleb128 0xa
 2535 095b FF420000 		.4byte	.LASF380
 2536 095f 0C       		.byte	0xc
 2537 0960 0A       		.uleb128 0xa
 2538 0961 D7410000 		.4byte	.LASF381
 2539 0965 0D       		.byte	0xd
 2540 0966 0A       		.uleb128 0xa
 2541 0967 F34E0000 		.4byte	.LASF382
 2542 096b 0E       		.byte	0xe
 2543 096c 0A       		.uleb128 0xa
 2544 096d 85350000 		.4byte	.LASF383
 2545 0971 12       		.byte	0x12
 2546 0972 0A       		.uleb128 0xa
 2547 0973 4E4B0000 		.4byte	.LASF384
 2548 0977 13       		.byte	0x13
 2549 0978 0A       		.uleb128 0xa
 2550 0979 EF260000 		.4byte	.LASF385
 2551 097d 14       		.byte	0x14
 2552 097e 0A       		.uleb128 0xa
 2553 097f 6B080000 		.4byte	.LASF386
 2554 0983 19       		.byte	0x19
 2555 0984 0A       		.uleb128 0xa
 2556 0985 15510000 		.4byte	.LASF387
 2557 0989 1E       		.byte	0x1e
 2558 098a 0A       		.uleb128 0xa
 2559 098b 08310000 		.4byte	.LASF388
 2560 098f 00       		.byte	0
 2561 0990 0A       		.uleb128 0xa
 2562 0991 303F0000 		.4byte	.LASF389
 2563 0995 01       		.byte	0x1
 2564 0996 0A       		.uleb128 0xa
 2565 0997 C94F0000 		.4byte	.LASF390
 2566 099b 02       		.byte	0x2
 2567 099c 0A       		.uleb128 0xa
 2568 099d 091C0000 		.4byte	.LASF391
 2569 09a1 03       		.byte	0x3
 2570 09a2 0A       		.uleb128 0xa
 2571 09a3 00320000 		.4byte	.LASF392
 2572 09a7 04       		.byte	0x4
 2573 09a8 0A       		.uleb128 0xa
 2574 09a9 0B320000 		.4byte	.LASF393
 2575 09ad 05       		.byte	0x5
 2576 09ae 0A       		.uleb128 0xa
 2577 09af 691F0000 		.4byte	.LASF394
 2578 09b3 06       		.byte	0x6
 2579 09b4 0A       		.uleb128 0xa
 2580 09b5 081E0000 		.4byte	.LASF395
 2581 09b9 07       		.byte	0x7
 2582 09ba 0A       		.uleb128 0xa
 2583 09bb 1B4A0000 		.4byte	.LASF396
 2584 09bf 08       		.byte	0x8
 2585 09c0 0A       		.uleb128 0xa
ARM GAS  C:\Users\ikomb\AppData\Local\Temp\ccAzoKUN.s 			page 82


 2586 09c1 EF560000 		.4byte	.LASF397
 2587 09c5 09       		.byte	0x9
 2588 09c6 0A       		.uleb128 0xa
 2589 09c7 3A1D0000 		.4byte	.LASF398
 2590 09cb 0A       		.byte	0xa
 2591 09cc 0A       		.uleb128 0xa
 2592 09cd D8590000 		.4byte	.LASF399
 2593 09d1 0B       		.byte	0xb
 2594 09d2 0A       		.uleb128 0xa
 2595 09d3 80030000 		.4byte	.LASF400
 2596 09d7 0C       		.byte	0xc
 2597 09d8 0A       		.uleb128 0xa
 2598 09d9 BD010000 		.4byte	.LASF401
 2599 09dd 0D       		.byte	0xd
 2600 09de 0A       		.uleb128 0xa
 2601 09df F2590000 		.4byte	.LASF402
 2602 09e3 0E       		.byte	0xe
 2603 09e4 0A       		.uleb128 0xa
 2604 09e5 39420000 		.4byte	.LASF403
 2605 09e9 12       		.byte	0x12
 2606 09ea 0A       		.uleb128 0xa
 2607 09eb 7B560000 		.4byte	.LASF404
 2608 09ef 13       		.byte	0x13
 2609 09f0 0A       		.uleb128 0xa
 2610 09f1 AB4A0000 		.4byte	.LASF405
 2611 09f5 14       		.byte	0x14
 2612 09f6 0A       		.uleb128 0xa
 2613 09f7 FC180000 		.4byte	.LASF406
 2614 09fb 19       		.byte	0x19
 2615 09fc 0A       		.uleb128 0xa
 2616 09fd A5160000 		.4byte	.LASF407
 2617 0a01 1E       		.byte	0x1e
 2618 0a02 0A       		.uleb128 0xa
 2619 0a03 AF4E0000 		.4byte	.LASF408
 2620 0a07 00       		.byte	0
 2621 0a08 0A       		.uleb128 0xa
 2622 0a09 CA590000 		.4byte	.LASF409
 2623 0a0d 01       		.byte	0x1
 2624 0a0e 0A       		.uleb128 0xa
 2625 0a0f CE180000 		.4byte	.LASF410
 2626 0a13 02       		.byte	0x2
 2627 0a14 0A       		.uleb128 0xa
 2628 0a15 23370000 		.4byte	.LASF411
 2629 0a19 03       		.byte	0x3
 2630 0a1a 0A       		.uleb128 0xa
 2631 0a1b F6290000 		.4byte	.LASF412
 2632 0a1f 04       		.byte	0x4
 2633 0a20 0A       		.uleb128 0xa
 2634 0a21 012A0000 		.4byte	.LASF413
 2635 0a25 05       		.byte	0x5
 2636 0a26 0A       		.uleb128 0xa
 2637 0a27 D32B0000 		.4byte	.LASF414
 2638 0a2b 06       		.byte	0x6
 2639 0a2c 0A       		.uleb128 0xa
 2640 0a2d EA3A0000 		.4byte	.LASF415
 2641 0a31 07       		.byte	0x7
 2642 0a32 0A       		.uleb128 0xa
ARM GAS  C:\Users\ikomb\AppData\Local\Temp\ccAzoKUN.s 			page 83


 2643 0a33 92280000 		.4byte	.LASF416
 2644 0a37 08       		.byte	0x8
 2645 0a38 0A       		.uleb128 0xa
 2646 0a39 DD200000 		.4byte	.LASF417
 2647 0a3d 09       		.byte	0x9
 2648 0a3e 0A       		.uleb128 0xa
 2649 0a3f 5B560000 		.4byte	.LASF418
 2650 0a43 0A       		.byte	0xa
 2651 0a44 0A       		.uleb128 0xa
 2652 0a45 95080000 		.4byte	.LASF419
 2653 0a49 0B       		.byte	0xb
 2654 0a4a 0A       		.uleb128 0xa
 2655 0a4b 3C1F0000 		.4byte	.LASF420
 2656 0a4f 0C       		.byte	0xc
 2657 0a50 0A       		.uleb128 0xa
 2658 0a51 BE1D0000 		.4byte	.LASF421
 2659 0a55 0D       		.byte	0xd
 2660 0a56 0A       		.uleb128 0xa
 2661 0a57 151B0000 		.4byte	.LASF422
 2662 0a5b 12       		.byte	0x12
 2663 0a5c 0A       		.uleb128 0xa
 2664 0a5d FB480000 		.4byte	.LASF423
 2665 0a61 14       		.byte	0x14
 2666 0a62 0A       		.uleb128 0xa
 2667 0a63 4F4C0000 		.4byte	.LASF424
 2668 0a67 1E       		.byte	0x1e
 2669 0a68 0A       		.uleb128 0xa
 2670 0a69 280E0000 		.4byte	.LASF425
 2671 0a6d 00       		.byte	0
 2672 0a6e 0A       		.uleb128 0xa
 2673 0a6f D0170000 		.4byte	.LASF426
 2674 0a73 01       		.byte	0x1
 2675 0a74 0A       		.uleb128 0xa
 2676 0a75 5B3E0000 		.4byte	.LASF427
 2677 0a79 02       		.byte	0x2
 2678 0a7a 0A       		.uleb128 0xa
 2679 0a7b F9510000 		.4byte	.LASF428
 2680 0a7f 03       		.byte	0x3
 2681 0a80 0A       		.uleb128 0xa
 2682 0a81 D9210000 		.4byte	.LASF429
 2683 0a85 04       		.byte	0x4
 2684 0a86 0A       		.uleb128 0xa
 2685 0a87 E4210000 		.4byte	.LASF430
 2686 0a8b 05       		.byte	0x5
 2687 0a8c 0A       		.uleb128 0xa
 2688 0a8d 70490000 		.4byte	.LASF431
 2689 0a91 06       		.byte	0x6
 2690 0a92 0A       		.uleb128 0xa
 2691 0a93 68570000 		.4byte	.LASF432
 2692 0a97 07       		.byte	0x7
 2693 0a98 0A       		.uleb128 0xa
 2694 0a99 20110000 		.4byte	.LASF433
 2695 0a9d 08       		.byte	0x8
 2696 0a9e 0A       		.uleb128 0xa
 2697 0a9f 951D0000 		.4byte	.LASF434
 2698 0aa3 09       		.byte	0x9
 2699 0aa4 0A       		.uleb128 0xa
ARM GAS  C:\Users\ikomb\AppData\Local\Temp\ccAzoKUN.s 			page 84


 2700 0aa5 BA320000 		.4byte	.LASF435
 2701 0aa9 0A       		.byte	0xa
 2702 0aaa 0A       		.uleb128 0xa
 2703 0aab F7120000 		.4byte	.LASF436
 2704 0aaf 0B       		.byte	0xb
 2705 0ab0 0A       		.uleb128 0xa
 2706 0ab1 9E3B0000 		.4byte	.LASF437
 2707 0ab5 0C       		.byte	0xc
 2708 0ab6 0A       		.uleb128 0xa
 2709 0ab7 BB3A0000 		.4byte	.LASF438
 2710 0abb 0D       		.byte	0xd
 2711 0abc 0A       		.uleb128 0xa
 2712 0abd E1440000 		.4byte	.LASF439
 2713 0ac1 12       		.byte	0x12
 2714 0ac2 0A       		.uleb128 0xa
 2715 0ac3 B94C0000 		.4byte	.LASF440
 2716 0ac7 14       		.byte	0x14
 2717 0ac8 0A       		.uleb128 0xa
 2718 0ac9 CE2E0000 		.4byte	.LASF441
 2719 0acd 1E       		.byte	0x1e
 2720 0ace 0A       		.uleb128 0xa
 2721 0acf C42A0000 		.4byte	.LASF442
 2722 0ad3 00       		.byte	0
 2723 0ad4 0A       		.uleb128 0xa
 2724 0ad5 B8310000 		.4byte	.LASF443
 2725 0ad9 01       		.byte	0x1
 2726 0ada 0A       		.uleb128 0xa
 2727 0adb AF070000 		.4byte	.LASF444
 2728 0adf 02       		.byte	0x2
 2729 0ae0 0A       		.uleb128 0xa
 2730 0ae1 EE0F0000 		.4byte	.LASF445
 2731 0ae5 03       		.byte	0x3
 2732 0ae6 0A       		.uleb128 0xa
 2733 0ae7 2B1A0000 		.4byte	.LASF446
 2734 0aeb 04       		.byte	0x4
 2735 0aec 0A       		.uleb128 0xa
 2736 0aed 361A0000 		.4byte	.LASF447
 2737 0af1 05       		.byte	0x5
 2738 0af2 0A       		.uleb128 0xa
 2739 0af3 4D290000 		.4byte	.LASF448
 2740 0af7 06       		.byte	0x6
 2741 0af8 0A       		.uleb128 0xa
 2742 0af9 DE170000 		.4byte	.LASF449
 2743 0afd 07       		.byte	0x7
 2744 0afe 0A       		.uleb128 0xa
 2745 0aff 0F3E0000 		.4byte	.LASF450
 2746 0b03 08       		.byte	0x8
 2747 0b04 0A       		.uleb128 0xa
 2748 0b05 9B290000 		.4byte	.LASF451
 2749 0b09 09       		.byte	0x9
 2750 0b0a 0A       		.uleb128 0xa
 2751 0b0b 5A0F0000 		.4byte	.LASF452
 2752 0b0f 0A       		.byte	0xa
 2753 0b10 0A       		.uleb128 0xa
 2754 0b11 D91C0000 		.4byte	.LASF453
 2755 0b15 0B       		.byte	0xb
 2756 0b16 0A       		.uleb128 0xa
ARM GAS  C:\Users\ikomb\AppData\Local\Temp\ccAzoKUN.s 			page 85


 2757 0b17 B7580000 		.4byte	.LASF454
 2758 0b1b 0C       		.byte	0xc
 2759 0b1c 0A       		.uleb128 0xa
 2760 0b1d 49570000 		.4byte	.LASF455
 2761 0b21 0D       		.byte	0xd
 2762 0b22 0A       		.uleb128 0xa
 2763 0b23 531C0000 		.4byte	.LASF456
 2764 0b27 0E       		.byte	0xe
 2765 0b28 0A       		.uleb128 0xa
 2766 0b29 98180000 		.4byte	.LASF457
 2767 0b2d 12       		.byte	0x12
 2768 0b2e 0A       		.uleb128 0xa
 2769 0b2f F62D0000 		.4byte	.LASF458
 2770 0b33 13       		.byte	0x13
 2771 0b34 0A       		.uleb128 0xa
 2772 0b35 20580000 		.4byte	.LASF459
 2773 0b39 14       		.byte	0x14
 2774 0b3a 0A       		.uleb128 0xa
 2775 0b3b 2E5A0000 		.4byte	.LASF460
 2776 0b3f 18       		.byte	0x18
 2777 0b40 0A       		.uleb128 0xa
 2778 0b41 292E0000 		.4byte	.LASF461
 2779 0b45 19       		.byte	0x19
 2780 0b46 0A       		.uleb128 0xa
 2781 0b47 F01A0000 		.4byte	.LASF462
 2782 0b4b 1D       		.byte	0x1d
 2783 0b4c 0A       		.uleb128 0xa
 2784 0b4d AA300000 		.4byte	.LASF463
 2785 0b51 1E       		.byte	0x1e
 2786 0b52 0A       		.uleb128 0xa
 2787 0b53 31370000 		.4byte	.LASF464
 2788 0b57 1F       		.byte	0x1f
 2789 0b58 0A       		.uleb128 0xa
 2790 0b59 A7480000 		.4byte	.LASF465
 2791 0b5d 00       		.byte	0
 2792 0b5e 0A       		.uleb128 0xa
 2793 0b5f 584D0000 		.4byte	.LASF466
 2794 0b63 01       		.byte	0x1
 2795 0b64 0A       		.uleb128 0xa
 2796 0b65 4E2C0000 		.4byte	.LASF467
 2797 0b69 02       		.byte	0x2
 2798 0b6a 0A       		.uleb128 0xa
 2799 0b6b 9F2A0000 		.4byte	.LASF468
 2800 0b6f 03       		.byte	0x3
 2801 0b70 0A       		.uleb128 0xa
 2802 0b71 73120000 		.4byte	.LASF469
 2803 0b75 04       		.byte	0x4
 2804 0b76 0A       		.uleb128 0xa
 2805 0b77 7E120000 		.4byte	.LASF470
 2806 0b7b 05       		.byte	0x5
 2807 0b7c 0A       		.uleb128 0xa
 2808 0b7d 95240000 		.4byte	.LASF471
 2809 0b81 06       		.byte	0x6
 2810 0b82 0A       		.uleb128 0xa
 2811 0b83 61330000 		.4byte	.LASF472
 2812 0b87 07       		.byte	0x7
 2813 0b88 0A       		.uleb128 0xa
ARM GAS  C:\Users\ikomb\AppData\Local\Temp\ccAzoKUN.s 			page 86


 2814 0b89 07340000 		.4byte	.LASF473
 2815 0b8d 08       		.byte	0x8
 2816 0b8e 0A       		.uleb128 0xa
 2817 0b8f F22F0000 		.4byte	.LASF474
 2818 0b93 09       		.byte	0x9
 2819 0b94 0A       		.uleb128 0xa
 2820 0b95 27480000 		.4byte	.LASF475
 2821 0b99 0A       		.byte	0xa
 2822 0b9a 0A       		.uleb128 0xa
 2823 0b9b 29380000 		.4byte	.LASF476
 2824 0b9f 0B       		.byte	0xb
 2825 0ba0 0A       		.uleb128 0xa
 2826 0ba1 72180000 		.4byte	.LASF477
 2827 0ba5 0C       		.byte	0xc
 2828 0ba6 0A       		.uleb128 0xa
 2829 0ba7 07170000 		.4byte	.LASF478
 2830 0bab 0D       		.byte	0xd
 2831 0bac 0A       		.uleb128 0xa
 2832 0bad 20270000 		.4byte	.LASF479
 2833 0bb1 0E       		.byte	0xe
 2834 0bb2 0A       		.uleb128 0xa
 2835 0bb3 1B230000 		.4byte	.LASF480
 2836 0bb7 12       		.byte	0x12
 2837 0bb8 0A       		.uleb128 0xa
 2838 0bb9 8F380000 		.4byte	.LASF481
 2839 0bbd 13       		.byte	0x13
 2840 0bbe 0A       		.uleb128 0xa
 2841 0bbf 9F1E0000 		.4byte	.LASF482
 2842 0bc3 14       		.byte	0x14
 2843 0bc4 0A       		.uleb128 0xa
 2844 0bc5 A83D0000 		.4byte	.LASF483
 2845 0bc9 18       		.byte	0x18
 2846 0bca 0A       		.uleb128 0xa
 2847 0bcb D8110000 		.4byte	.LASF484
 2848 0bcf 19       		.byte	0x19
 2849 0bd0 0A       		.uleb128 0xa
 2850 0bd1 211E0000 		.4byte	.LASF485
 2851 0bd5 1D       		.byte	0x1d
 2852 0bd6 0A       		.uleb128 0xa
 2853 0bd7 CF530000 		.4byte	.LASF486
 2854 0bdb 1E       		.byte	0x1e
 2855 0bdc 0A       		.uleb128 0xa
 2856 0bdd 701D0000 		.4byte	.LASF487
 2857 0be1 1F       		.byte	0x1f
 2858 0be2 0A       		.uleb128 0xa
 2859 0be3 A7080000 		.4byte	.LASF488
 2860 0be7 00       		.byte	0
 2861 0be8 0A       		.uleb128 0xa
 2862 0be9 D00B0000 		.4byte	.LASF489
 2863 0bed 01       		.byte	0x1
 2864 0bee 0A       		.uleb128 0xa
 2865 0bef CD520000 		.4byte	.LASF490
 2866 0bf3 02       		.byte	0x2
 2867 0bf4 0A       		.uleb128 0xa
 2868 0bf5 B8450000 		.4byte	.LASF491
 2869 0bf9 03       		.byte	0x3
 2870 0bfa 0A       		.uleb128 0xa
ARM GAS  C:\Users\ikomb\AppData\Local\Temp\ccAzoKUN.s 			page 87


 2871 0bfb C70A0000 		.4byte	.LASF492
 2872 0bff 04       		.byte	0x4
 2873 0c00 0A       		.uleb128 0xa
 2874 0c01 D20A0000 		.4byte	.LASF493
 2875 0c05 05       		.byte	0x5
 2876 0c06 0A       		.uleb128 0xa
 2877 0c07 95420000 		.4byte	.LASF494
 2878 0c0b 06       		.byte	0x6
 2879 0c0c 0A       		.uleb128 0xa
 2880 0c0d F7500000 		.4byte	.LASF495
 2881 0c11 07       		.byte	0x7
 2882 0c12 0A       		.uleb128 0xa
 2883 0c13 0A530000 		.4byte	.LASF496
 2884 0c17 08       		.byte	0x8
 2885 0c18 0A       		.uleb128 0xa
 2886 0c19 CD260000 		.4byte	.LASF497
 2887 0c1d 09       		.byte	0x9
 2888 0c1e 0A       		.uleb128 0xa
 2889 0c1f 3B230000 		.4byte	.LASF498
 2890 0c23 0A       		.byte	0xa
 2891 0c24 0A       		.uleb128 0xa
 2892 0c25 96310000 		.4byte	.LASF499
 2893 0c29 0B       		.byte	0xb
 2894 0c2a 0A       		.uleb128 0xa
 2895 0c2b 4B340000 		.4byte	.LASF500
 2896 0c2f 0C       		.byte	0xc
 2897 0c30 0A       		.uleb128 0xa
 2898 0c31 44330000 		.4byte	.LASF501
 2899 0c35 0D       		.byte	0xd
 2900 0c36 0A       		.uleb128 0xa
 2901 0c37 AF4B0000 		.4byte	.LASF502
 2902 0c3b 12       		.byte	0x12
 2903 0c3c 0A       		.uleb128 0xa
 2904 0c3d E4290000 		.4byte	.LASF503
 2905 0c41 14       		.byte	0x14
 2906 0c42 0A       		.uleb128 0xa
 2907 0c43 13250000 		.4byte	.LASF504
 2908 0c47 1D       		.byte	0x1d
 2909 0c48 0A       		.uleb128 0xa
 2910 0c49 83190000 		.4byte	.LASF505
 2911 0c4d 1E       		.byte	0x1e
 2912 0c4e 0A       		.uleb128 0xa
 2913 0c4f A4240000 		.4byte	.LASF506
 2914 0c53 00       		.byte	0
 2915 0c54 0A       		.uleb128 0xa
 2916 0c55 96250000 		.4byte	.LASF507
 2917 0c59 01       		.byte	0x1
 2918 0c5a 0A       		.uleb128 0xa
 2919 0c5b 751B0000 		.4byte	.LASF508
 2920 0c5f 02       		.byte	0x2
 2921 0c60 0A       		.uleb128 0xa
 2922 0c61 4A3C0000 		.4byte	.LASF509
 2923 0c65 03       		.byte	0x3
 2924 0c66 0A       		.uleb128 0xa
 2925 0c67 8F030000 		.4byte	.LASF510
 2926 0c6b 04       		.byte	0x4
 2927 0c6c 0A       		.uleb128 0xa
ARM GAS  C:\Users\ikomb\AppData\Local\Temp\ccAzoKUN.s 			page 88


 2928 0c6d 9A030000 		.4byte	.LASF511
 2929 0c71 05       		.byte	0x5
 2930 0c72 0A       		.uleb128 0xa
 2931 0c73 4D030000 		.4byte	.LASF512
 2932 0c77 06       		.byte	0x6
 2933 0c78 0A       		.uleb128 0xa
 2934 0c79 AA100000 		.4byte	.LASF513
 2935 0c7d 07       		.byte	0x7
 2936 0c7e 0A       		.uleb128 0xa
 2937 0c7f FA570000 		.4byte	.LASF514
 2938 0c83 08       		.byte	0x8
 2939 0c84 0A       		.uleb128 0xa
 2940 0c85 4B120000 		.4byte	.LASF515
 2941 0c89 09       		.byte	0x9
 2942 0c8a 0A       		.uleb128 0xa
 2943 0c8b 0F010000 		.4byte	.LASF516
 2944 0c8f 0A       		.byte	0xa
 2945 0c90 0A       		.uleb128 0xa
 2946 0c91 F43C0000 		.4byte	.LASF517
 2947 0c95 0B       		.byte	0xb
 2948 0c96 0A       		.uleb128 0xa
 2949 0c97 DB510000 		.4byte	.LASF518
 2950 0c9b 0C       		.byte	0xc
 2951 0c9c 0A       		.uleb128 0xa
 2952 0c9d C4500000 		.4byte	.LASF519
 2953 0ca1 0D       		.byte	0xd
 2954 0ca2 0A       		.uleb128 0xa
 2955 0ca3 DB180000 		.4byte	.LASF520
 2956 0ca7 12       		.byte	0x12
 2957 0ca8 0A       		.uleb128 0xa
 2958 0ca9 B7550000 		.4byte	.LASF521
 2959 0cad 14       		.byte	0x14
 2960 0cae 0A       		.uleb128 0xa
 2961 0caf 8C050000 		.4byte	.LASF522
 2962 0cb3 1D       		.byte	0x1d
 2963 0cb4 0A       		.uleb128 0xa
 2964 0cb5 57130000 		.4byte	.LASF523
 2965 0cb9 1E       		.byte	0x1e
 2966 0cba 0A       		.uleb128 0xa
 2967 0cbb E22D0000 		.4byte	.LASF524
 2968 0cbf 00       		.byte	0
 2969 0cc0 0A       		.uleb128 0xa
 2970 0cc1 73010000 		.4byte	.LASF525
 2971 0cc5 01       		.byte	0x1
 2972 0cc6 0A       		.uleb128 0xa
 2973 0cc7 9A460000 		.4byte	.LASF526
 2974 0ccb 02       		.byte	0x2
 2975 0ccc 0A       		.uleb128 0xa
 2976 0ccd A63A0000 		.4byte	.LASF527
 2977 0cd1 03       		.byte	0x3
 2978 0cd2 0A       		.uleb128 0xa
 2979 0cd3 38040000 		.4byte	.LASF528
 2980 0cd7 04       		.byte	0x4
 2981 0cd8 0A       		.uleb128 0xa
 2982 0cd9 43040000 		.4byte	.LASF529
 2983 0cdd 05       		.byte	0x5
 2984 0cde 0A       		.uleb128 0xa
ARM GAS  C:\Users\ikomb\AppData\Local\Temp\ccAzoKUN.s 			page 89


 2985 0cdf E5000000 		.4byte	.LASF530
 2986 0ce3 06       		.byte	0x6
 2987 0ce4 0A       		.uleb128 0xa
 2988 0ce5 320E0000 		.4byte	.LASF531
 2989 0ce9 07       		.byte	0x7
 2990 0cea 0A       		.uleb128 0xa
 2991 0ceb 0E430000 		.4byte	.LASF532
 2992 0cef 08       		.byte	0x8
 2993 0cf0 0A       		.uleb128 0xa
 2994 0cf1 BB2F0000 		.4byte	.LASF533
 2995 0cf5 09       		.byte	0x9
 2996 0cf6 0A       		.uleb128 0xa
 2997 0cf7 0E4C0000 		.4byte	.LASF534
 2998 0cfb 0A       		.byte	0xa
 2999 0cfc 0A       		.uleb128 0xa
 3000 0cfd 84210000 		.4byte	.LASF535
 3001 0d01 0B       		.byte	0xb
 3002 0d02 0A       		.uleb128 0xa
 3003 0d03 954F0000 		.4byte	.LASF536
 3004 0d07 0C       		.byte	0xc
 3005 0d08 0A       		.uleb128 0xa
 3006 0d09 464E0000 		.4byte	.LASF537
 3007 0d0d 0D       		.byte	0xd
 3008 0d0e 0A       		.uleb128 0xa
 3009 0d0f 3C2C0000 		.4byte	.LASF538
 3010 0d13 12       		.byte	0x12
 3011 0d14 0A       		.uleb128 0xa
 3012 0d15 E7430000 		.4byte	.LASF539
 3013 0d19 13       		.byte	0x13
 3014 0d1a 0A       		.uleb128 0xa
 3015 0d1b F42B0000 		.4byte	.LASF540
 3016 0d1f 14       		.byte	0x14
 3017 0d20 0A       		.uleb128 0xa
 3018 0d21 B0000000 		.4byte	.LASF541
 3019 0d25 18       		.byte	0x18
 3020 0d26 0A       		.uleb128 0xa
 3021 0d27 F53E0000 		.4byte	.LASF542
 3022 0d2b 1A       		.byte	0x1a
 3023 0d2c 0A       		.uleb128 0xa
 3024 0d2d E84A0000 		.4byte	.LASF543
 3025 0d31 00       		.byte	0
 3026 0d32 0A       		.uleb128 0xa
 3027 0d33 071B0000 		.4byte	.LASF544
 3028 0d37 01       		.byte	0x1
 3029 0d38 0A       		.uleb128 0xa
 3030 0d39 A80F0000 		.4byte	.LASF545
 3031 0d3d 02       		.byte	0x2
 3032 0d3e 0A       		.uleb128 0xa
 3033 0d3f DE540000 		.4byte	.LASF546
 3034 0d43 03       		.byte	0x3
 3035 0d44 0A       		.uleb128 0xa
 3036 0d45 33580000 		.4byte	.LASF547
 3037 0d49 04       		.byte	0x4
 3038 0d4a 0A       		.uleb128 0xa
 3039 0d4b 3E580000 		.4byte	.LASF548
 3040 0d4f 05       		.byte	0x5
 3041 0d50 0A       		.uleb128 0xa
ARM GAS  C:\Users\ikomb\AppData\Local\Temp\ccAzoKUN.s 			page 90


 3042 0d51 651C0000 		.4byte	.LASF549
 3043 0d55 06       		.byte	0x6
 3044 0d56 0A       		.uleb128 0xa
 3045 0d57 6B2A0000 		.4byte	.LASF550
 3046 0d5b 07       		.byte	0x7
 3047 0d5c 0A       		.uleb128 0xa
 3048 0d5d C4360000 		.4byte	.LASF551
 3049 0d61 08       		.byte	0x8
 3050 0d62 0A       		.uleb128 0xa
 3051 0d63 2D240000 		.4byte	.LASF552
 3052 0d67 09       		.byte	0x9
 3053 0d68 0A       		.uleb128 0xa
 3054 0d69 87270000 		.4byte	.LASF553
 3055 0d6d 0A       		.byte	0xa
 3056 0d6e 0A       		.uleb128 0xa
 3057 0d6f 7C2B0000 		.4byte	.LASF554
 3058 0d73 0B       		.byte	0xb
 3059 0d74 0A       		.uleb128 0xa
 3060 0d75 790F0000 		.4byte	.LASF555
 3061 0d79 0C       		.byte	0xc
 3062 0d7a 0A       		.uleb128 0xa
 3063 0d7b F60D0000 		.4byte	.LASF556
 3064 0d7f 0D       		.byte	0xd
 3065 0d80 0A       		.uleb128 0xa
 3066 0d81 A1380000 		.4byte	.LASF557
 3067 0d85 12       		.byte	0x12
 3068 0d86 0A       		.uleb128 0xa
 3069 0d87 D24E0000 		.4byte	.LASF558
 3070 0d8b 13       		.byte	0x13
 3071 0d8c 0A       		.uleb128 0xa
 3072 0d8d A44F0000 		.4byte	.LASF559
 3073 0d91 14       		.byte	0x14
 3074 0d92 0A       		.uleb128 0xa
 3075 0d93 82400000 		.4byte	.LASF560
 3076 0d97 18       		.byte	0x18
 3077 0d98 0A       		.uleb128 0xa
 3078 0d99 200B0000 		.4byte	.LASF561
 3079 0d9d 00       		.byte	0
 3080 0d9e 0A       		.uleb128 0xa
 3081 0d9f B0350000 		.4byte	.LASF562
 3082 0da3 01       		.byte	0x1
 3083 0da4 0A       		.uleb128 0xa
 3084 0da5 F7340000 		.4byte	.LASF563
 3085 0da9 02       		.byte	0x2
 3086 0daa 0A       		.uleb128 0xa
 3087 0dab 42140000 		.4byte	.LASF564
 3088 0daf 03       		.byte	0x3
 3089 0db0 0A       		.uleb128 0xa
 3090 0db1 E1500000 		.4byte	.LASF565
 3091 0db5 04       		.byte	0x4
 3092 0db6 0A       		.uleb128 0xa
 3093 0db7 EC500000 		.4byte	.LASF566
 3094 0dbb 05       		.byte	0x5
 3095 0dbc 0A       		.uleb128 0xa
 3096 0dbd 0D390000 		.4byte	.LASF567
 3097 0dc1 06       		.byte	0x6
 3098 0dc2 0A       		.uleb128 0xa
ARM GAS  C:\Users\ikomb\AppData\Local\Temp\ccAzoKUN.s 			page 91


 3099 0dc3 D2470000 		.4byte	.LASF568
 3100 0dc7 07       		.byte	0x7
 3101 0dc8 0A       		.uleb128 0xa
 3102 0dc9 37570000 		.4byte	.LASF569
 3103 0dcd 08       		.byte	0x8
 3104 0dce 0A       		.uleb128 0xa
 3105 0dcf 27530000 		.4byte	.LASF570
 3106 0dd3 09       		.byte	0x9
 3107 0dd4 0A       		.uleb128 0xa
 3108 0dd5 3B050000 		.4byte	.LASF571
 3109 0dd9 0A       		.byte	0xa
 3110 0dda 0A       		.uleb128 0xa
 3111 0ddb 71360000 		.4byte	.LASF572
 3112 0ddf 0B       		.byte	0xb
 3113 0de0 0A       		.uleb128 0xa
 3114 0de1 6D2B0000 		.4byte	.LASF573
 3115 0de5 0C       		.byte	0xc
 3116 0de6 0A       		.uleb128 0xa
 3117 0de7 4C2A0000 		.4byte	.LASF574
 3118 0deb 0D       		.byte	0xd
 3119 0dec 0A       		.uleb128 0xa
 3120 0ded 28200000 		.4byte	.LASF575
 3121 0df1 12       		.byte	0x12
 3122 0df2 0A       		.uleb128 0xa
 3123 0df3 F5400000 		.4byte	.LASF576
 3124 0df7 14       		.byte	0x14
 3125 0df8 0A       		.uleb128 0xa
 3126 0df9 32270000 		.4byte	.LASF577
 3127 0dfd 00       		.byte	0
 3128 0dfe 0A       		.uleb128 0xa
 3129 0dff D3500000 		.4byte	.LASF578
 3130 0e03 01       		.byte	0x1
 3131 0e04 0A       		.uleb128 0xa
 3132 0e05 CA5A0000 		.4byte	.LASF579
 3133 0e09 02       		.byte	0x2
 3134 0e0a 0A       		.uleb128 0xa
 3135 0e0b B02E0000 		.4byte	.LASF580
 3136 0e0f 03       		.byte	0x3
 3137 0e10 0A       		.uleb128 0xa
 3138 0e11 E1470000 		.4byte	.LASF581
 3139 0e15 04       		.byte	0x4
 3140 0e16 0A       		.uleb128 0xa
 3141 0e17 EC470000 		.4byte	.LASF582
 3142 0e1b 05       		.byte	0x5
 3143 0e1c 0A       		.uleb128 0xa
 3144 0e1d 17560000 		.4byte	.LASF583
 3145 0e21 06       		.byte	0x6
 3146 0e22 0A       		.uleb128 0xa
 3147 0e23 8D3E0000 		.4byte	.LASF584
 3148 0e27 07       		.byte	0x7
 3149 0e28 0A       		.uleb128 0xa
 3150 0e29 8A5A0000 		.4byte	.LASF585
 3151 0e2d 08       		.byte	0x8
 3152 0e2e 0A       		.uleb128 0xa
 3153 0e2f 96070000 		.4byte	.LASF586
 3154 0e33 09       		.byte	0x9
 3155 0e34 0A       		.uleb128 0xa
ARM GAS  C:\Users\ikomb\AppData\Local\Temp\ccAzoKUN.s 			page 92


 3156 0e35 C03D0000 		.4byte	.LASF587
 3157 0e39 0A       		.byte	0xa
 3158 0e3a 0A       		.uleb128 0xa
 3159 0e3b A6410000 		.4byte	.LASF588
 3160 0e3f 0B       		.byte	0xb
 3161 0e40 0A       		.uleb128 0xa
 3162 0e41 EC480000 		.4byte	.LASF589
 3163 0e45 0C       		.byte	0xc
 3164 0e46 0A       		.uleb128 0xa
 3165 0e47 10470000 		.4byte	.LASF590
 3166 0e4b 0D       		.byte	0xd
 3167 0e4c 0A       		.uleb128 0xa
 3168 0e4d 1C490000 		.4byte	.LASF591
 3169 0e51 12       		.byte	0x12
 3170 0e52 0A       		.uleb128 0xa
 3171 0e53 343C0000 		.4byte	.LASF592
 3172 0e57 14       		.byte	0x14
 3173 0e58 0A       		.uleb128 0xa
 3174 0e59 45450000 		.4byte	.LASF593
 3175 0e5d 00       		.byte	0
 3176 0e5e 0A       		.uleb128 0xa
 3177 0e5f 030F0000 		.4byte	.LASF594
 3178 0e63 01       		.byte	0x1
 3179 0e64 0A       		.uleb128 0xa
 3180 0e65 B5460000 		.4byte	.LASF595
 3181 0e69 02       		.byte	0x2
 3182 0e6a 0A       		.uleb128 0xa
 3183 0e6b 4C490000 		.4byte	.LASF596
 3184 0e6f 03       		.byte	0x3
 3185 0e70 0A       		.uleb128 0xa
 3186 0e71 B0590000 		.4byte	.LASF597
 3187 0e75 04       		.byte	0x4
 3188 0e76 0A       		.uleb128 0xa
 3189 0e77 69400000 		.4byte	.LASF598
 3190 0e7b 05       		.byte	0x5
 3191 0e7c 0A       		.uleb128 0xa
 3192 0e7d 8C150000 		.4byte	.LASF599
 3193 0e81 06       		.byte	0x6
 3194 0e82 0A       		.uleb128 0xa
 3195 0e83 FE220000 		.4byte	.LASF600
 3196 0e87 07       		.byte	0x7
 3197 0e88 0A       		.uleb128 0xa
 3198 0e89 3B520000 		.4byte	.LASF601
 3199 0e8d 08       		.byte	0x8
 3200 0e8e 0A       		.uleb128 0xa
 3201 0e8f 05150000 		.4byte	.LASF602
 3202 0e93 09       		.byte	0x9
 3203 0e94 0A       		.uleb128 0xa
 3204 0e95 BB190000 		.4byte	.LASF603
 3205 0e99 0A       		.byte	0xa
 3206 0e9a 0A       		.uleb128 0xa
 3207 0e9b 61530000 		.4byte	.LASF604
 3208 0e9f 0B       		.byte	0xb
 3209 0ea0 0A       		.uleb128 0xa
 3210 0ea1 FF080000 		.4byte	.LASF605
 3211 0ea5 0C       		.byte	0xc
 3212 0ea6 0A       		.uleb128 0xa
ARM GAS  C:\Users\ikomb\AppData\Local\Temp\ccAzoKUN.s 			page 93


 3213 0ea7 CA070000 		.4byte	.LASF606
 3214 0eab 0D       		.byte	0xd
 3215 0eac 0A       		.uleb128 0xa
 3216 0ead 1D4D0000 		.4byte	.LASF607
 3217 0eb1 14       		.byte	0x14
 3218 0eb2 0A       		.uleb128 0xa
 3219 0eb3 60170000 		.4byte	.LASF608
 3220 0eb7 1A       		.byte	0x1a
 3221 0eb8 0A       		.uleb128 0xa
 3222 0eb9 70330000 		.4byte	.LASF609
 3223 0ebd 1B       		.byte	0x1b
 3224 0ebe 0A       		.uleb128 0xa
 3225 0ebf 13050000 		.4byte	.LASF610
 3226 0ec3 00       		.byte	0
 3227 0ec4 0A       		.uleb128 0xa
 3228 0ec5 5C290000 		.4byte	.LASF611
 3229 0ec9 01       		.byte	0x1
 3230 0eca 0A       		.uleb128 0xa
 3231 0ecb C7490000 		.4byte	.LASF612
 3232 0ecf 02       		.byte	0x2
 3233 0ed0 0A       		.uleb128 0xa
 3234 0ed1 7C070000 		.4byte	.LASF613
 3235 0ed5 03       		.byte	0x3
 3236 0ed6 0A       		.uleb128 0xa
 3237 0ed7 08380000 		.4byte	.LASF614
 3238 0edb 04       		.byte	0x4
 3239 0edc 0A       		.uleb128 0xa
 3240 0edd 13380000 		.4byte	.LASF615
 3241 0ee1 05       		.byte	0x5
 3242 0ee2 0A       		.uleb128 0xa
 3243 0ee3 C6310000 		.4byte	.LASF616
 3244 0ee7 06       		.byte	0x6
 3245 0ee8 0A       		.uleb128 0xa
 3246 0ee9 27410000 		.4byte	.LASF617
 3247 0eed 07       		.byte	0x7
 3248 0eee 0A       		.uleb128 0xa
 3249 0eef 3F210000 		.4byte	.LASF618
 3250 0ef3 08       		.byte	0x8
 3251 0ef4 0A       		.uleb128 0xa
 3252 0ef5 D8460000 		.4byte	.LASF619
 3253 0ef9 09       		.byte	0x9
 3254 0efa 0A       		.uleb128 0xa
 3255 0efb 8B520000 		.4byte	.LASF620
 3256 0eff 0A       		.byte	0xa
 3257 0f00 0A       		.uleb128 0xa
 3258 0f01 A3560000 		.4byte	.LASF621
 3259 0f05 0B       		.byte	0xb
 3260 0f06 0A       		.uleb128 0xa
 3261 0f07 C7240000 		.4byte	.LASF622
 3262 0f0b 0C       		.byte	0xc
 3263 0f0c 0A       		.uleb128 0xa
 3264 0f0d 99230000 		.4byte	.LASF623
 3265 0f11 0D       		.byte	0xd
 3266 0f12 0A       		.uleb128 0xa
 3267 0f13 C8000000 		.4byte	.LASF624
 3268 0f17 14       		.byte	0x14
 3269 0f18 0A       		.uleb128 0xa
ARM GAS  C:\Users\ikomb\AppData\Local\Temp\ccAzoKUN.s 			page 94


 3270 0f19 5E100000 		.4byte	.LASF625
 3271 0f1d 1A       		.byte	0x1a
 3272 0f1e 0A       		.uleb128 0xa
 3273 0f1f 5D1A0000 		.4byte	.LASF626
 3274 0f23 1B       		.byte	0x1b
 3275 0f24 0A       		.uleb128 0xa
 3276 0f25 B6210000 		.4byte	.LASF627
 3277 0f29 00       		.byte	0
 3278 0f2a 0A       		.uleb128 0xa
 3279 0f2b B0440000 		.4byte	.LASF628
 3280 0f2f 01       		.byte	0x1
 3281 0f30 0A       		.uleb128 0xa
 3282 0f31 1A130000 		.4byte	.LASF629
 3283 0f35 02       		.byte	0x2
 3284 0f36 0A       		.uleb128 0xa
 3285 0f37 A8210000 		.4byte	.LASF630
 3286 0f3b 03       		.byte	0x3
 3287 0f3c 0A       		.uleb128 0xa
 3288 0f3d 14300000 		.4byte	.LASF631
 3289 0f41 04       		.byte	0x4
 3290 0f42 0A       		.uleb128 0xa
 3291 0f43 1F300000 		.4byte	.LASF632
 3292 0f47 05       		.byte	0x5
 3293 0f48 0A       		.uleb128 0xa
 3294 0f49 574F0000 		.4byte	.LASF633
 3295 0f4d 06       		.byte	0x6
 3296 0f4e 0A       		.uleb128 0xa
 3297 0f4f CC010000 		.4byte	.LASF634
 3298 0f53 07       		.byte	0x7
 3299 0f54 0A       		.uleb128 0xa
 3300 0f55 6D240000 		.4byte	.LASF635
 3301 0f59 08       		.byte	0x8
 3302 0f5a 0A       		.uleb128 0xa
 3303 0f5b A7320000 		.4byte	.LASF636
 3304 0f5f 09       		.byte	0x9
 3305 0f60 0A       		.uleb128 0xa
 3306 0f61 852E0000 		.4byte	.LASF637
 3307 0f65 0A       		.byte	0xa
 3308 0f66 0A       		.uleb128 0xa
 3309 0f67 DF040000 		.4byte	.LASF638
 3310 0f6b 0B       		.byte	0xb
 3311 0f6c 0A       		.uleb128 0xa
 3312 0f6d E1420000 		.4byte	.LASF639
 3313 0f71 0C       		.byte	0xc
 3314 0f72 0A       		.uleb128 0xa
 3315 0f73 C8410000 		.4byte	.LASF640
 3316 0f77 0D       		.byte	0xd
 3317 0f78 0A       		.uleb128 0xa
 3318 0f79 B9100000 		.4byte	.LASF641
 3319 0f7d 14       		.byte	0x14
 3320 0f7e 0A       		.uleb128 0xa
 3321 0f7f 39560000 		.4byte	.LASF642
 3322 0f83 1A       		.byte	0x1a
 3323 0f84 0A       		.uleb128 0xa
 3324 0f85 13020000 		.4byte	.LASF643
 3325 0f89 1B       		.byte	0x1b
 3326 0f8a 0A       		.uleb128 0xa
ARM GAS  C:\Users\ikomb\AppData\Local\Temp\ccAzoKUN.s 			page 95


 3327 0f8b 3E3F0000 		.4byte	.LASF644
 3328 0f8f 00       		.byte	0
 3329 0f90 0A       		.uleb128 0xa
 3330 0f91 67030000 		.4byte	.LASF645
 3331 0f95 01       		.byte	0x1
 3332 0f96 0A       		.uleb128 0xa
 3333 0f97 49380000 		.4byte	.LASF646
 3334 0f9b 02       		.byte	0x2
 3335 0f9c 0A       		.uleb128 0xa
 3336 0f9d B9490000 		.4byte	.LASF647
 3337 0fa1 03       		.byte	0x3
 3338 0fa2 0A       		.uleb128 0xa
 3339 0fa3 F3270000 		.4byte	.LASF648
 3340 0fa7 04       		.byte	0x4
 3341 0fa8 0A       		.uleb128 0xa
 3342 0fa9 FE270000 		.4byte	.LASF649
 3343 0fad 05       		.byte	0x5
 3344 0fae 0A       		.uleb128 0xa
 3345 0faf 7A0E0000 		.4byte	.LASF650
 3346 0fb3 06       		.byte	0x6
 3347 0fb4 0A       		.uleb128 0xa
 3348 0fb5 441C0000 		.4byte	.LASF651
 3349 0fb9 07       		.byte	0x7
 3350 0fba 0A       		.uleb128 0xa
 3351 0fbb 66450000 		.4byte	.LASF652
 3352 0fbf 08       		.byte	0x8
 3353 0fc0 0A       		.uleb128 0xa
 3354 0fc1 79280000 		.4byte	.LASF653
 3355 0fc5 09       		.byte	0x9
 3356 0fc6 0A       		.uleb128 0xa
 3357 0fc7 A10B0000 		.4byte	.LASF654
 3358 0fcb 0A       		.byte	0xa
 3359 0fcc 0A       		.uleb128 0xa
 3360 0fcd B60E0000 		.4byte	.LASF655
 3361 0fd1 0B       		.byte	0xb
 3362 0fd2 0A       		.uleb128 0xa
 3363 0fd3 AB020000 		.4byte	.LASF656
 3364 0fd7 0C       		.byte	0xc
 3365 0fd8 0A       		.uleb128 0xa
 3366 0fd9 81010000 		.4byte	.LASF657
 3367 0fdd 0D       		.byte	0xd
 3368 0fde 0A       		.uleb128 0xa
 3369 0fdf FD130000 		.4byte	.LASF658
 3370 0fe3 14       		.byte	0x14
 3371 0fe4 0A       		.uleb128 0xa
 3372 0fe5 B6260000 		.4byte	.LASF659
 3373 0fe9 15       		.byte	0x15
 3374 0fea 0A       		.uleb128 0xa
 3375 0feb 99440000 		.4byte	.LASF660
 3376 0fef 1B       		.byte	0x1b
 3377 0ff0 0A       		.uleb128 0xa
 3378 0ff1 60470000 		.4byte	.LASF661
 3379 0ff5 00       		.byte	0
 3380 0ff6 0A       		.uleb128 0xa
 3381 0ff7 EC380000 		.4byte	.LASF662
 3382 0ffb 01       		.byte	0x1
 3383 0ffc 0A       		.uleb128 0xa
ARM GAS  C:\Users\ikomb\AppData\Local\Temp\ccAzoKUN.s 			page 96


 3384 0ffd 41060000 		.4byte	.LASF663
 3385 1001 02       		.byte	0x2
 3386 1002 0A       		.uleb128 0xa
 3387 1003 B1170000 		.4byte	.LASF664
 3388 1007 03       		.byte	0x3
 3389 1008 0A       		.uleb128 0xa
 3390 1009 B5280000 		.4byte	.LASF665
 3391 100d 04       		.byte	0x4
 3392 100e 0A       		.uleb128 0xa
 3393 100f C0280000 		.4byte	.LASF666
 3394 1013 05       		.byte	0x5
 3395 1014 0A       		.uleb128 0xa
 3396 1015 DF0C0000 		.4byte	.LASF667
 3397 1019 06       		.byte	0x6
 3398 101a 0A       		.uleb128 0xa
 3399 101b B8240000 		.4byte	.LASF668
 3400 101f 07       		.byte	0x7
 3401 1020 0A       		.uleb128 0xa
 3402 1021 81140000 		.4byte	.LASF669
 3403 1025 08       		.byte	0x8
 3404 1026 0A       		.uleb128 0xa
 3405 1027 83250000 		.4byte	.LASF670
 3406 102b 09       		.byte	0x9
 3407 102c 0A       		.uleb128 0xa
 3408 102d 6B560000 		.4byte	.LASF671
 3409 1031 0A       		.byte	0xa
 3410 1032 0A       		.uleb128 0xa
 3411 1033 34500000 		.4byte	.LASF672
 3412 1037 0B       		.byte	0xb
 3413 1038 0A       		.uleb128 0xa
 3414 1039 1F010000 		.4byte	.LASF673
 3415 103d 0C       		.byte	0xc
 3416 103e 0A       		.uleb128 0xa
 3417 103f 535B0000 		.4byte	.LASF674
 3418 1043 0D       		.byte	0xd
 3419 1044 0A       		.uleb128 0xa
 3420 1045 51000000 		.4byte	.LASF675
 3421 1049 12       		.byte	0x12
 3422 104a 0A       		.uleb128 0xa
 3423 104b 30150000 		.4byte	.LASF676
 3424 104f 13       		.byte	0x13
 3425 1050 0A       		.uleb128 0xa
 3426 1051 92160000 		.4byte	.LASF677
 3427 1055 14       		.byte	0x14
 3428 1056 0A       		.uleb128 0xa
 3429 1057 7F490000 		.4byte	.LASF678
 3430 105b 18       		.byte	0x18
 3431 105c 0A       		.uleb128 0xa
 3432 105d F8070000 		.4byte	.LASF679
 3433 1061 00       		.byte	0
 3434 1062 0A       		.uleb128 0xa
 3435 1063 39540000 		.4byte	.LASF680
 3436 1067 01       		.byte	0x1
 3437 1068 0A       		.uleb128 0xa
 3438 1069 EA2A0000 		.4byte	.LASF681
 3439 106d 02       		.byte	0x2
 3440 106e 0A       		.uleb128 0xa
ARM GAS  C:\Users\ikomb\AppData\Local\Temp\ccAzoKUN.s 			page 97


 3441 106f 88310000 		.4byte	.LASF682
 3442 1073 03       		.byte	0x3
 3443 1074 0A       		.uleb128 0xa
 3444 1075 FD200000 		.4byte	.LASF683
 3445 1079 04       		.byte	0x4
 3446 107a 0A       		.uleb128 0xa
 3447 107b 08210000 		.4byte	.LASF684
 3448 107f 05       		.byte	0x5
 3449 1080 0A       		.uleb128 0xa
 3450 1081 31290000 		.4byte	.LASF685
 3451 1085 06       		.byte	0x6
 3452 1086 0A       		.uleb128 0xa
 3453 1087 DA370000 		.4byte	.LASF686
 3454 108b 07       		.byte	0x7
 3455 108c 0A       		.uleb128 0xa
 3456 108d B8230000 		.4byte	.LASF687
 3457 1091 08       		.byte	0x8
 3458 1092 0A       		.uleb128 0xa
 3459 1093 CE3B0000 		.4byte	.LASF688
 3460 1097 09       		.byte	0x9
 3461 1098 0A       		.uleb128 0xa
 3462 1099 F9320000 		.4byte	.LASF689
 3463 109d 0A       		.byte	0xa
 3464 109e 0A       		.uleb128 0xa
 3465 109f 695A0000 		.4byte	.LASF690
 3466 10a3 0B       		.byte	0xb
 3467 10a4 0A       		.uleb128 0xa
 3468 10a5 A71C0000 		.4byte	.LASF691
 3469 10a9 0C       		.byte	0xc
 3470 10aa 0A       		.uleb128 0xa
 3471 10ab 661B0000 		.4byte	.LASF692
 3472 10af 0D       		.byte	0xd
 3473 10b0 0A       		.uleb128 0xa
 3474 10b1 8F0B0000 		.4byte	.LASF693
 3475 10b5 12       		.byte	0x12
 3476 10b6 0A       		.uleb128 0xa
 3477 10b7 91200000 		.4byte	.LASF694
 3478 10bb 13       		.byte	0x13
 3479 10bc 0A       		.uleb128 0xa
 3480 10bd 74390000 		.4byte	.LASF695
 3481 10c1 14       		.byte	0x14
 3482 10c2 0A       		.uleb128 0xa
 3483 10c3 072C0000 		.4byte	.LASF696
 3484 10c7 18       		.byte	0x18
 3485 10c8 0A       		.uleb128 0xa
 3486 10c9 81230000 		.4byte	.LASF697
 3487 10cd 00       		.byte	0
 3488 10ce 0A       		.uleb128 0xa
 3489 10cf AB120000 		.4byte	.LASF698
 3490 10d3 01       		.byte	0x1
 3491 10d4 0A       		.uleb128 0xa
 3492 10d5 96510000 		.4byte	.LASF699
 3493 10d9 02       		.byte	0x2
 3494 10da 0A       		.uleb128 0xa
 3495 10db 0F4D0000 		.4byte	.LASF700
 3496 10df 03       		.byte	0x3
 3497 10e0 0A       		.uleb128 0xa
ARM GAS  C:\Users\ikomb\AppData\Local\Temp\ccAzoKUN.s 			page 98


 3498 10e1 95190000 		.4byte	.LASF701
 3499 10e5 04       		.byte	0x4
 3500 10e6 0A       		.uleb128 0xa
 3501 10e7 A0190000 		.4byte	.LASF702
 3502 10eb 05       		.byte	0x5
 3503 10ec 0A       		.uleb128 0xa
 3504 10ed 99450000 		.4byte	.LASF703
 3505 10f1 06       		.byte	0x6
 3506 10f2 0A       		.uleb128 0xa
 3507 10f3 AA530000 		.4byte	.LASF704
 3508 10f7 07       		.byte	0x7
 3509 10f8 0A       		.uleb128 0xa
 3510 10f9 6A290000 		.4byte	.LASF705
 3511 10fd 08       		.byte	0x8
 3512 10fe 0A       		.uleb128 0xa
 3513 10ff BE3C0000 		.4byte	.LASF706
 3514 1103 09       		.byte	0x9
 3515 1104 0A       		.uleb128 0xa
 3516 1105 880F0000 		.4byte	.LASF707
 3517 1109 0A       		.byte	0xa
 3518 110a 0A       		.uleb128 0xa
 3519 110b 36090000 		.4byte	.LASF708
 3520 110f 0B       		.byte	0xb
 3521 1110 0A       		.uleb128 0xa
 3522 1111 42390000 		.4byte	.LASF709
 3523 1115 0C       		.byte	0xc
 3524 1116 0A       		.uleb128 0xa
 3525 1117 BB370000 		.4byte	.LASF710
 3526 111b 0D       		.byte	0xd
 3527 111c 0A       		.uleb128 0xa
 3528 111d 7D410000 		.4byte	.LASF711
 3529 1121 0F       		.byte	0xf
 3530 1122 0A       		.uleb128 0xa
 3531 1123 900A0000 		.4byte	.LASF712
 3532 1127 12       		.byte	0x12
 3533 1128 0A       		.uleb128 0xa
 3534 1129 E5120000 		.4byte	.LASF713
 3535 112d 14       		.byte	0x14
 3536 112e 0A       		.uleb128 0xa
 3537 112f E6410000 		.4byte	.LASF714
 3538 1133 00       		.byte	0
 3539 1134 0A       		.uleb128 0xa
 3540 1135 A62C0000 		.4byte	.LASF715
 3541 1139 01       		.byte	0x1
 3542 113a 0A       		.uleb128 0xa
 3543 113b 411A0000 		.4byte	.LASF716
 3544 113f 02       		.byte	0x2
 3545 1140 0A       		.uleb128 0xa
 3546 1141 2A0B0000 		.4byte	.LASF717
 3547 1145 03       		.byte	0x3
 3548 1146 0A       		.uleb128 0xa
 3549 1147 0A110000 		.4byte	.LASF718
 3550 114b 04       		.byte	0x4
 3551 114c 0A       		.uleb128 0xa
 3552 114d 15110000 		.4byte	.LASF719
 3553 1151 05       		.byte	0x5
 3554 1152 0A       		.uleb128 0xa
ARM GAS  C:\Users\ikomb\AppData\Local\Temp\ccAzoKUN.s 			page 99


 3555 1153 32060000 		.4byte	.LASF720
 3556 1157 06       		.byte	0x6
 3557 1158 0A       		.uleb128 0xa
 3558 1159 50140000 		.4byte	.LASF721
 3559 115d 07       		.byte	0x7
 3560 115e 0A       		.uleb128 0xa
 3561 115f 6A470000 		.4byte	.LASF722
 3562 1163 08       		.byte	0x8
 3563 1164 0A       		.uleb128 0xa
 3564 1165 EF1D0000 		.4byte	.LASF723
 3565 1169 09       		.byte	0x9
 3566 116a 0A       		.uleb128 0xa
 3567 116b 37480000 		.4byte	.LASF724
 3568 116f 0A       		.byte	0xa
 3569 1170 0A       		.uleb128 0xa
 3570 1171 FF0A0000 		.4byte	.LASF725
 3571 1175 0B       		.byte	0xb
 3572 1176 0A       		.uleb128 0xa
 3573 1177 5F550000 		.4byte	.LASF726
 3574 117b 0C       		.byte	0xc
 3575 117c 0A       		.uleb128 0xa
 3576 117d D9070000 		.4byte	.LASF727
 3577 1181 0D       		.byte	0xd
 3578 1182 0A       		.uleb128 0xa
 3579 1183 1D2B0000 		.4byte	.LASF728
 3580 1187 0F       		.byte	0xf
 3581 1188 0A       		.uleb128 0xa
 3582 1189 1C180000 		.4byte	.LASF729
 3583 118d 12       		.byte	0x12
 3584 118e 0A       		.uleb128 0xa
 3585 118f 781F0000 		.4byte	.LASF730
 3586 1193 14       		.byte	0x14
 3587 1194 0A       		.uleb128 0xa
 3588 1195 DF020000 		.4byte	.LASF731
 3589 1199 00       		.byte	0
 3590 119a 0A       		.uleb128 0xa
 3591 119b F7470000 		.4byte	.LASF732
 3592 119f 01       		.byte	0x1
 3593 11a0 0A       		.uleb128 0xa
 3594 11a1 7F050000 		.4byte	.LASF733
 3595 11a5 02       		.byte	0x2
 3596 11a6 0A       		.uleb128 0xa
 3597 11a7 E24D0000 		.4byte	.LASF734
 3598 11ab 03       		.byte	0x3
 3599 11ac 0A       		.uleb128 0xa
 3600 11ad 5F090000 		.4byte	.LASF735
 3601 11b1 04       		.byte	0x4
 3602 11b2 0A       		.uleb128 0xa
 3603 11b3 6A090000 		.4byte	.LASF736
 3604 11b7 05       		.byte	0x5
 3605 11b8 0A       		.uleb128 0xa
 3606 11b9 35220000 		.4byte	.LASF737
 3607 11bd 06       		.byte	0x6
 3608 11be 0A       		.uleb128 0xa
 3609 11bf 85300000 		.4byte	.LASF738
 3610 11c3 07       		.byte	0x7
 3611 11c4 0A       		.uleb128 0xa
ARM GAS  C:\Users\ikomb\AppData\Local\Temp\ccAzoKUN.s 			page 100


 3612 11c5 B93E0000 		.4byte	.LASF739
 3613 11c9 08       		.byte	0x8
 3614 11ca 0A       		.uleb128 0xa
 3615 11cb 125B0000 		.4byte	.LASF740
 3616 11cf 09       		.byte	0x9
 3617 11d0 0A       		.uleb128 0xa
 3618 11d1 71230000 		.4byte	.LASF741
 3619 11d5 0A       		.byte	0xa
 3620 11d6 0A       		.uleb128 0xa
 3621 11d7 96210000 		.4byte	.LASF742
 3622 11db 0B       		.byte	0xb
 3623 11dc 0A       		.uleb128 0xa
 3624 11dd BF150000 		.4byte	.LASF743
 3625 11e1 0C       		.byte	0xc
 3626 11e2 0A       		.uleb128 0xa
 3627 11e3 D0140000 		.4byte	.LASF744
 3628 11e7 0D       		.byte	0xd
 3629 11e8 0A       		.uleb128 0xa
 3630 11e9 98040000 		.4byte	.LASF745
 3631 11ed 14       		.byte	0x14
 3632 11ee 0A       		.uleb128 0xa
 3633 11ef 171E0000 		.4byte	.LASF746
 3634 11f3 00       		.byte	0
 3635 11f4 0A       		.uleb128 0xa
 3636 11f5 4E060000 		.4byte	.LASF747
 3637 11f9 01       		.byte	0x1
 3638 11fa 0A       		.uleb128 0xa
 3639 11fb 75090000 		.4byte	.LASF748
 3640 11ff 02       		.byte	0x2
 3641 1200 0A       		.uleb128 0xa
 3642 1201 74400000 		.4byte	.LASF749
 3643 1205 03       		.byte	0x3
 3644 1206 0A       		.uleb128 0xa
 3645 1207 50020000 		.4byte	.LASF750
 3646 120b 04       		.byte	0x4
 3647 120c 0A       		.uleb128 0xa
 3648 120d 5B020000 		.4byte	.LASF751
 3649 1211 05       		.byte	0x5
 3650 1212 0A       		.uleb128 0xa
 3651 1213 483F0000 		.4byte	.LASF752
 3652 1217 06       		.byte	0x6
 3653 1218 0A       		.uleb128 0xa
 3654 1219 9A4D0000 		.4byte	.LASF753
 3655 121d 07       		.byte	0x7
 3656 121e 0A       		.uleb128 0xa
 3657 121f 4B0E0000 		.4byte	.LASF754
 3658 1223 08       		.byte	0x8
 3659 1224 0A       		.uleb128 0xa
 3660 1225 2A020000 		.4byte	.LASF755
 3661 1229 09       		.byte	0x9
 3662 122a 0A       		.uleb128 0xa
 3663 122b 3E010000 		.4byte	.LASF756
 3664 122f 0A       		.byte	0xa
 3665 1230 0A       		.uleb128 0xa
 3666 1231 BF270000 		.4byte	.LASF757
 3667 1235 0B       		.byte	0xb
 3668 1236 0A       		.uleb128 0xa
ARM GAS  C:\Users\ikomb\AppData\Local\Temp\ccAzoKUN.s 			page 101


 3669 1237 F1310000 		.4byte	.LASF758
 3670 123b 0C       		.byte	0xc
 3671 123c 0A       		.uleb128 0xa
 3672 123d 68300000 		.4byte	.LASF759
 3673 1241 0D       		.byte	0xd
 3674 1242 0A       		.uleb128 0xa
 3675 1243 B2400000 		.4byte	.LASF760
 3676 1247 14       		.byte	0x14
 3677 1248 0A       		.uleb128 0xa
 3678 1249 623B0000 		.4byte	.LASF761
 3679 124d 00       		.byte	0
 3680 124e 0A       		.uleb128 0xa
 3681 124f 3B200000 		.4byte	.LASF762
 3682 1253 01       		.byte	0x1
 3683 1254 0A       		.uleb128 0xa
 3684 1255 1F2F0000 		.4byte	.LASF763
 3685 1259 02       		.byte	0x2
 3686 125a 0A       		.uleb128 0xa
 3687 125b A25A0000 		.4byte	.LASF764
 3688 125f 03       		.byte	0x3
 3689 1260 0A       		.uleb128 0xa
 3690 1261 AC550000 		.4byte	.LASF765
 3691 1265 04       		.byte	0x4
 3692 1266 0A       		.uleb128 0xa
 3693 1267 75030000 		.4byte	.LASF766
 3694 126b 05       		.byte	0x5
 3695 126c 0A       		.uleb128 0xa
 3696 126d E55A0000 		.4byte	.LASF767
 3697 1271 06       		.byte	0x6
 3698 1272 0A       		.uleb128 0xa
 3699 1273 BA0C0000 		.4byte	.LASF768
 3700 1277 07       		.byte	0x7
 3701 1278 0A       		.uleb128 0xa
 3702 1279 73530000 		.4byte	.LASF769
 3703 127d 08       		.byte	0x8
 3704 127e 0A       		.uleb128 0xa
 3705 127f C61C0000 		.4byte	.LASF770
 3706 1283 09       		.byte	0x9
 3707 1284 0A       		.uleb128 0xa
 3708 1285 51390000 		.4byte	.LASF771
 3709 1289 0A       		.byte	0xa
 3710 128a 0A       		.uleb128 0xa
 3711 128b 33320000 		.4byte	.LASF772
 3712 128f 0B       		.byte	0xb
 3713 1290 0A       		.uleb128 0xa
 3714 1291 764F0000 		.4byte	.LASF773
 3715 1295 0C       		.byte	0xc
 3716 1296 0A       		.uleb128 0xa
 3717 1297 274E0000 		.4byte	.LASF774
 3718 129b 0D       		.byte	0xd
 3719 129c 0A       		.uleb128 0xa
 3720 129d 610B0000 		.4byte	.LASF775
 3721 12a1 14       		.byte	0x14
 3722 12a2 0A       		.uleb128 0xa
 3723 12a3 AD580000 		.4byte	.LASF776
 3724 12a7 00       		.byte	0
 3725 12a8 0A       		.uleb128 0xa
ARM GAS  C:\Users\ikomb\AppData\Local\Temp\ccAzoKUN.s 			page 102


 3726 12a9 0C3B0000 		.4byte	.LASF777
 3727 12ad 01       		.byte	0x1
 3728 12ae 0A       		.uleb128 0xa
 3729 12af 47540000 		.4byte	.LASF778
 3730 12b3 02       		.byte	0x2
 3731 12b4 0A       		.uleb128 0xa
 3732 12b5 EE180000 		.4byte	.LASF779
 3733 12b9 03       		.byte	0x3
 3734 12ba 0A       		.uleb128 0xa
 3735 12bb 1C4E0000 		.4byte	.LASF780
 3736 12bf 04       		.byte	0x4
 3737 12c0 0A       		.uleb128 0xa
 3738 12c1 15440000 		.4byte	.LASF781
 3739 12c5 05       		.byte	0x5
 3740 12c6 0A       		.uleb128 0xa
 3741 12c7 3A1B0000 		.4byte	.LASF782
 3742 12cb 06       		.byte	0x6
 3743 12cc 0A       		.uleb128 0xa
 3744 12cd FA280000 		.4byte	.LASF783
 3745 12d1 07       		.byte	0x7
 3746 12d2 0A       		.uleb128 0xa
 3747 12d3 61310000 		.4byte	.LASF784
 3748 12d7 08       		.byte	0x8
 3749 12d8 0A       		.uleb128 0xa
 3750 12d9 3E400000 		.4byte	.LASF785
 3751 12dd 09       		.byte	0x9
 3752 12de 0A       		.uleb128 0xa
 3753 12df CE150000 		.4byte	.LASF786
 3754 12e3 0A       		.byte	0xa
 3755 12e4 0A       		.uleb128 0xa
 3756 12e5 FD3D0000 		.4byte	.LASF787
 3757 12e9 0B       		.byte	0xb
 3758 12ea 0A       		.uleb128 0xa
 3759 12eb 6A0F0000 		.4byte	.LASF788
 3760 12ef 0C       		.byte	0xc
 3761 12f0 0A       		.uleb128 0xa
 3762 12f1 E70D0000 		.4byte	.LASF789
 3763 12f5 0D       		.byte	0xd
 3764 12f6 0A       		.uleb128 0xa
 3765 12f7 85530000 		.4byte	.LASF790
 3766 12fb 14       		.byte	0x14
 3767 12fc 0A       		.uleb128 0xa
 3768 12fd BD040000 		.4byte	.LASF791
 3769 1301 00       		.byte	0
 3770 1302 0A       		.uleb128 0xa
 3771 1303 08160000 		.4byte	.LASF792
 3772 1307 01       		.byte	0x1
 3773 1308 0A       		.uleb128 0xa
 3774 1309 44220000 		.4byte	.LASF793
 3775 130d 02       		.byte	0x2
 3776 130e 0A       		.uleb128 0xa
 3777 130f 7C500000 		.4byte	.LASF794
 3778 1313 03       		.byte	0x3
 3779 1314 0A       		.uleb128 0xa
 3780 1315 12310000 		.4byte	.LASF795
 3781 1319 04       		.byte	0x4
 3782 131a 0A       		.uleb128 0xa
ARM GAS  C:\Users\ikomb\AppData\Local\Temp\ccAzoKUN.s 			page 103


 3783 131b 3E4F0000 		.4byte	.LASF796
 3784 131f 05       		.byte	0x5
 3785 1320 0A       		.uleb128 0xa
 3786 1321 CB190000 		.4byte	.LASF797
 3787 1325 06       		.byte	0x6
 3788 1326 0A       		.uleb128 0xa
 3789 1327 C70F0000 		.4byte	.LASF798
 3790 132b 07       		.byte	0x7
 3791 132c 0A       		.uleb128 0xa
 3792 132d 74430000 		.4byte	.LASF799
 3793 1331 08       		.byte	0x8
 3794 1332 0A       		.uleb128 0xa
 3795 1333 A3090000 		.4byte	.LASF800
 3796 1337 09       		.byte	0x9
 3797 1338 0A       		.uleb128 0xa
 3798 1339 61050000 		.4byte	.LASF801
 3799 133d 0A       		.byte	0xa
 3800 133e 0A       		.uleb128 0xa
 3801 133f 18220000 		.4byte	.LASF802
 3802 1343 0B       		.byte	0xb
 3803 1344 0A       		.uleb128 0xa
 3804 1345 0F2B0000 		.4byte	.LASF803
 3805 1349 0C       		.byte	0xc
 3806 134a 0A       		.uleb128 0xa
 3807 134b 57280000 		.4byte	.LASF804
 3808 134f 0D       		.byte	0xd
 3809 1350 0A       		.uleb128 0xa
 3810 1351 0C3F0000 		.4byte	.LASF805
 3811 1355 12       		.byte	0x12
 3812 1356 0A       		.uleb128 0xa
 3813 1357 08550000 		.4byte	.LASF806
 3814 135b 13       		.byte	0x13
 3815 135c 0A       		.uleb128 0xa
 3816 135d 3C270000 		.4byte	.LASF807
 3817 1361 14       		.byte	0x14
 3818 1362 0A       		.uleb128 0xa
 3819 1363 33360000 		.4byte	.LASF808
 3820 1367 18       		.byte	0x18
 3821 1368 0A       		.uleb128 0xa
 3822 1369 D51E0000 		.4byte	.LASF809
 3823 136d 1B       		.byte	0x1b
 3824 136e 0A       		.uleb128 0xa
 3825 136f 58200000 		.4byte	.LASF810
 3826 1373 00       		.byte	0
 3827 1374 0A       		.uleb128 0xa
 3828 1375 5A300000 		.4byte	.LASF811
 3829 1379 01       		.byte	0x1
 3830 137a 0A       		.uleb128 0xa
 3831 137b 72480000 		.4byte	.LASF812
 3832 137f 02       		.byte	0x2
 3833 1380 0A       		.uleb128 0xa
 3834 1381 D90D0000 		.4byte	.LASF813
 3835 1385 03       		.byte	0x3
 3836 1386 0A       		.uleb128 0xa
 3837 1387 1F470000 		.4byte	.LASF814
 3838 138b 04       		.byte	0x4
 3839 138c 0A       		.uleb128 0xa
ARM GAS  C:\Users\ikomb\AppData\Local\Temp\ccAzoKUN.s 			page 104


 3840 138d 2A470000 		.4byte	.LASF815
 3841 1391 05       		.byte	0x5
 3842 1392 0A       		.uleb128 0xa
 3843 1393 BE350000 		.4byte	.LASF816
 3844 1397 06       		.byte	0x6
 3845 1398 0A       		.uleb128 0xa
 3846 1399 56440000 		.4byte	.LASF817
 3847 139d 07       		.byte	0x7
 3848 139e 0A       		.uleb128 0xa
 3849 139f 77380000 		.4byte	.LASF818
 3850 13a3 08       		.byte	0x8
 3851 13a4 0A       		.uleb128 0xa
 3852 13a5 48530000 		.4byte	.LASF819
 3853 13a9 09       		.byte	0x9
 3854 13aa 0A       		.uleb128 0xa
 3855 13ab D03D0000 		.4byte	.LASF820
 3856 13af 0A       		.byte	0xa
 3857 13b0 0A       		.uleb128 0xa
 3858 13b1 E22B0000 		.4byte	.LASF821
 3859 13b5 0B       		.byte	0xb
 3860 13b6 0A       		.uleb128 0xa
 3861 13b7 8C460000 		.4byte	.LASF822
 3862 13bb 0C       		.byte	0xc
 3863 13bc 0A       		.uleb128 0xa
 3864 13bd B2430000 		.4byte	.LASF823
 3865 13c1 0D       		.byte	0xd
 3866 13c2 0A       		.uleb128 0xa
 3867 13c3 804B0000 		.4byte	.LASF824
 3868 13c7 12       		.byte	0x12
 3869 13c8 0A       		.uleb128 0xa
 3870 13c9 86040000 		.4byte	.LASF825
 3871 13cd 13       		.byte	0x13
 3872 13ce 0A       		.uleb128 0xa
 3873 13cf 014B0000 		.4byte	.LASF826
 3874 13d3 14       		.byte	0x14
 3875 13d4 0A       		.uleb128 0xa
 3876 13d5 DA190000 		.4byte	.LASF827
 3877 13d9 18       		.byte	0x18
 3878 13da 0A       		.uleb128 0xa
 3879 13db E8050000 		.4byte	.LASF828
 3880 13df 1B       		.byte	0x1b
 3881 13e0 0A       		.uleb128 0xa
 3882 13e1 D1270000 		.4byte	.LASF829
 3883 13e5 1F       		.byte	0x1f
 3884 13e6 0A       		.uleb128 0xa
 3885 13e7 E03D0000 		.4byte	.LASF830
 3886 13eb 00       		.byte	0
 3887 13ec 0A       		.uleb128 0xa
 3888 13ed 234B0000 		.4byte	.LASF831
 3889 13f1 01       		.byte	0x1
 3890 13f2 0A       		.uleb128 0xa
 3891 13f3 58110000 		.4byte	.LASF832
 3892 13f7 02       		.byte	0x2
 3893 13f8 0A       		.uleb128 0xa
 3894 13f9 49280000 		.4byte	.LASF833
 3895 13fd 03       		.byte	0x3
 3896 13fe 0A       		.uleb128 0xa
ARM GAS  C:\Users\ikomb\AppData\Local\Temp\ccAzoKUN.s 			page 105


 3897 13ff 573F0000 		.4byte	.LASF834
 3898 1403 04       		.byte	0x4
 3899 1404 0A       		.uleb128 0xa
 3900 1405 623F0000 		.4byte	.LASF835
 3901 1409 05       		.byte	0x5
 3902 140a 0A       		.uleb128 0xa
 3903 140b 9B520000 		.4byte	.LASF836
 3904 140f 06       		.byte	0x6
 3905 1410 0A       		.uleb128 0xa
 3906 1411 AE040000 		.4byte	.LASF837
 3907 1415 07       		.byte	0x7
 3908 1416 0A       		.uleb128 0xa
 3909 1417 DB570000 		.4byte	.LASF838
 3910 141b 08       		.byte	0x8
 3911 141c 0A       		.uleb128 0xa
 3912 141d 434A0000 		.4byte	.LASF839
 3913 1421 09       		.byte	0x9
 3914 1422 0A       		.uleb128 0xa
 3915 1423 F2190000 		.4byte	.LASF840
 3916 1427 0A       		.byte	0xa
 3917 1428 0A       		.uleb128 0xa
 3918 1429 48370000 		.4byte	.LASF841
 3919 142d 0B       		.byte	0xb
 3920 142e 0A       		.uleb128 0xa
 3921 142f 71050000 		.4byte	.LASF842
 3922 1433 0C       		.byte	0xc
 3923 1434 0A       		.uleb128 0xa
 3924 1435 26030000 		.4byte	.LASF843
 3925 1439 0D       		.byte	0xd
 3926 143a 0A       		.uleb128 0xa
 3927 143b 531B0000 		.4byte	.LASF844
 3928 143f 12       		.byte	0x12
 3929 1440 0A       		.uleb128 0xa
 3930 1441 47480000 		.4byte	.LASF845
 3931 1445 14       		.byte	0x14
 3932 1446 0A       		.uleb128 0xa
 3933 1447 0C450000 		.4byte	.LASF846
 3934 144b 16       		.byte	0x16
 3935 144c 0A       		.uleb128 0xa
 3936 144d D5480000 		.4byte	.LASF847
 3937 1451 1B       		.byte	0x1b
 3938 1452 0A       		.uleb128 0xa
 3939 1453 C05A0000 		.4byte	.LASF848
 3940 1457 00       		.byte	0
 3941 1458 0A       		.uleb128 0xa
 3942 1459 B6090000 		.4byte	.LASF849
 3943 145d 01       		.byte	0x1
 3944 145e 0A       		.uleb128 0xa
 3945 145f F0360000 		.4byte	.LASF850
 3946 1463 02       		.byte	0x2
 3947 1464 0A       		.uleb128 0xa
 3948 1465 A4430000 		.4byte	.LASF851
 3949 1469 03       		.byte	0x3
 3950 146a 0A       		.uleb128 0xa
 3951 146b EA330000 		.4byte	.LASF852
 3952 146f 04       		.byte	0x4
 3953 1470 0A       		.uleb128 0xa
ARM GAS  C:\Users\ikomb\AppData\Local\Temp\ccAzoKUN.s 			page 106


 3954 1471 83360000 		.4byte	.LASF853
 3955 1475 05       		.byte	0x5
 3956 1476 0A       		.uleb128 0xa
 3957 1477 B9120000 		.4byte	.LASF854
 3958 147b 06       		.byte	0x6
 3959 147c 0A       		.uleb128 0xa
 3960 147d 62200000 		.4byte	.LASF855
 3961 1481 07       		.byte	0x7
 3962 1482 0A       		.uleb128 0xa
 3963 1483 A8340000 		.4byte	.LASF856
 3964 1487 08       		.byte	0x8
 3965 1488 0A       		.uleb128 0xa
 3966 1489 97350000 		.4byte	.LASF857
 3967 148d 09       		.byte	0x9
 3968 148e 0A       		.uleb128 0xa
 3969 148f AA520000 		.4byte	.LASF858
 3970 1493 0A       		.byte	0xa
 3971 1494 0A       		.uleb128 0xa
 3972 1495 59420000 		.4byte	.LASF859
 3973 1499 0B       		.byte	0xb
 3974 149a 0A       		.uleb128 0xa
 3975 149b A71F0000 		.4byte	.LASF860
 3976 149f 0C       		.byte	0xc
 3977 14a0 0A       		.uleb128 0xa
 3978 14a1 991C0000 		.4byte	.LASF861
 3979 14a5 0D       		.byte	0xd
 3980 14a6 0A       		.uleb128 0xa
 3981 14a7 32450000 		.4byte	.LASF862
 3982 14ab 12       		.byte	0x12
 3983 14ac 0A       		.uleb128 0xa
 3984 14ad C2460000 		.4byte	.LASF863
 3985 14b1 14       		.byte	0x14
 3986 14b2 0A       		.uleb128 0xa
 3987 14b3 AD2A0000 		.4byte	.LASF864
 3988 14b7 16       		.byte	0x16
 3989 14b8 0A       		.uleb128 0xa
 3990 14b9 A42F0000 		.4byte	.LASF865
 3991 14bd 1B       		.byte	0x1b
 3992 14be 0A       		.uleb128 0xa
 3993 14bf 74520000 		.4byte	.LASF866
 3994 14c3 1F       		.byte	0x1f
 3995 14c4 0A       		.uleb128 0xa
 3996 14c5 491B0000 		.4byte	.LASF867
 3997 14c9 00       		.byte	0
 3998 14ca 0A       		.uleb128 0xa
 3999 14cb 0D230000 		.4byte	.LASF868
 4000 14cf 01       		.byte	0x1
 4001 14d0 0A       		.uleb128 0xa
 4002 14d1 F4000000 		.4byte	.LASF869
 4003 14d5 02       		.byte	0x2
 4004 14d6 0A       		.uleb128 0xa
 4005 14d7 87020000 		.4byte	.LASF870
 4006 14db 03       		.byte	0x3
 4007 14dc 0A       		.uleb128 0xa
 4008 14dd 5B190000 		.4byte	.LASF871
 4009 14e1 04       		.byte	0x4
 4010 14e2 0A       		.uleb128 0xa
ARM GAS  C:\Users\ikomb\AppData\Local\Temp\ccAzoKUN.s 			page 107


 4011 14e3 F32E0000 		.4byte	.LASF872
 4012 14e7 05       		.byte	0x5
 4013 14e8 0A       		.uleb128 0xa
 4014 14e9 952E0000 		.4byte	.LASF873
 4015 14ed 06       		.byte	0x6
 4016 14ee 0A       		.uleb128 0xa
 4017 14ef 9C3C0000 		.4byte	.LASF874
 4018 14f3 07       		.byte	0x7
 4019 14f4 0A       		.uleb128 0xa
 4020 14f5 38110000 		.4byte	.LASF875
 4021 14f9 08       		.byte	0x8
 4022 14fa 0A       		.uleb128 0xa
 4023 14fb 82090000 		.4byte	.LASF876
 4024 14ff 09       		.byte	0x9
 4025 1500 0A       		.uleb128 0xa
 4026 1501 BE2E0000 		.4byte	.LASF877
 4027 1505 0A       		.byte	0xa
 4028 1506 0A       		.uleb128 0xa
 4029 1507 464D0000 		.4byte	.LASF878
 4030 150b 0B       		.byte	0xb
 4031 150c 0A       		.uleb128 0xa
 4032 150d 6F3A0000 		.4byte	.LASF879
 4033 1511 0C       		.byte	0xc
 4034 1512 0A       		.uleb128 0xa
 4035 1513 6B370000 		.4byte	.LASF880
 4036 1517 0D       		.byte	0xd
 4037 1518 0A       		.uleb128 0xa
 4038 1519 8D560000 		.4byte	.LASF881
 4039 151d 14       		.byte	0x14
 4040 151e 0A       		.uleb128 0xa
 4041 151f 9D480000 		.4byte	.LASF882
 4042 1523 00       		.byte	0
 4043 1524 0A       		.uleb128 0xa
 4044 1525 AB3E0000 		.4byte	.LASF883
 4045 1529 01       		.byte	0x1
 4046 152a 0A       		.uleb128 0xa
 4047 152b 06250000 		.4byte	.LASF884
 4048 152f 02       		.byte	0x2
 4049 1530 0A       		.uleb128 0xa
 4050 1531 D01B0000 		.4byte	.LASF885
 4051 1535 03       		.byte	0x3
 4052 1536 0A       		.uleb128 0xa
 4053 1537 28260000 		.4byte	.LASF886
 4054 153b 04       		.byte	0x4
 4055 153c 0A       		.uleb128 0xa
 4056 153d 33260000 		.4byte	.LASF887
 4057 1541 05       		.byte	0x5
 4058 1542 0A       		.uleb128 0xa
 4059 1543 314B0000 		.4byte	.LASF888
 4060 1547 06       		.byte	0x6
 4061 1548 0A       		.uleb128 0xa
 4062 1549 BB590000 		.4byte	.LASF889
 4063 154d 07       		.byte	0x7
 4064 154e 0A       		.uleb128 0xa
 4065 154f 89570000 		.4byte	.LASF890
 4066 1553 08       		.byte	0x8
 4067 1554 0A       		.uleb128 0xa
ARM GAS  C:\Users\ikomb\AppData\Local\Temp\ccAzoKUN.s 			page 108


 4068 1555 53080000 		.4byte	.LASF891
 4069 1559 09       		.byte	0x9
 4070 155a 0A       		.uleb128 0xa
 4071 155b C00B0000 		.4byte	.LASF892
 4072 155f 0A       		.byte	0xa
 4073 1560 0A       		.uleb128 0xa
 4074 1561 1B570000 		.4byte	.LASF893
 4075 1565 0B       		.byte	0xb
 4076 1566 0A       		.uleb128 0xa
 4077 1567 B7540000 		.4byte	.LASF894
 4078 156b 0C       		.byte	0xc
 4079 156c 0A       		.uleb128 0xa
 4080 156d 57520000 		.4byte	.LASF895
 4081 1571 0D       		.byte	0xd
 4082 1572 0A       		.uleb128 0xa
 4083 1573 C22C0000 		.4byte	.LASF896
 4084 1577 14       		.byte	0x14
 4085 1578 0A       		.uleb128 0xa
 4086 1579 C5540000 		.4byte	.LASF897
 4087 157d 00       		.byte	0
 4088 157e 0A       		.uleb128 0xa
 4089 157f 55590000 		.4byte	.LASF898
 4090 1583 01       		.byte	0x1
 4091 1584 0A       		.uleb128 0xa
 4092 1585 924B0000 		.4byte	.LASF899
 4093 1589 02       		.byte	0x2
 4094 158a 0A       		.uleb128 0xa
 4095 158b 8E360000 		.4byte	.LASF900
 4096 158f 03       		.byte	0x3
 4097 1590 0A       		.uleb128 0xa
 4098 1591 161F0000 		.4byte	.LASF901
 4099 1595 04       		.byte	0x4
 4100 1596 0A       		.uleb128 0xa
 4101 1597 211F0000 		.4byte	.LASF902
 4102 159b 05       		.byte	0x5
 4103 159c 0A       		.uleb128 0xa
 4104 159d B10B0000 		.4byte	.LASF903
 4105 15a1 06       		.byte	0x6
 4106 15a2 0A       		.uleb128 0xa
 4107 15a3 5B150000 		.4byte	.LASF904
 4108 15a7 07       		.byte	0x7
 4109 15a8 0A       		.uleb128 0xa
 4110 15a9 3A250000 		.4byte	.LASF905
 4111 15ad 08       		.byte	0x8
 4112 15ae 0A       		.uleb128 0xa
 4113 15af CD1D0000 		.4byte	.LASF906
 4114 15b3 09       		.byte	0x9
 4115 15b4 0A       		.uleb128 0xa
 4116 15b5 73440000 		.4byte	.LASF907
 4117 15b9 0A       		.byte	0xa
 4118 15ba 0A       		.uleb128 0xa
 4119 15bb A6050000 		.4byte	.LASF908
 4120 15bf 0B       		.byte	0xb
 4121 15c0 0A       		.uleb128 0xa
 4122 15c1 35130000 		.4byte	.LASF909
 4123 15c5 0C       		.byte	0xc
 4124 15c6 0A       		.uleb128 0xa
ARM GAS  C:\Users\ikomb\AppData\Local\Temp\ccAzoKUN.s 			page 109


 4125 15c7 50100000 		.4byte	.LASF910
 4126 15cb 0D       		.byte	0xd
 4127 15cc 0A       		.uleb128 0xa
 4128 15cd 94300000 		.4byte	.LASF911
 4129 15d1 14       		.byte	0x14
 4130 15d2 0A       		.uleb128 0xa
 4131 15d3 6A150000 		.4byte	.LASF912
 4132 15d7 00       		.byte	0
 4133 15d8 0A       		.uleb128 0xa
 4134 15d9 94170000 		.4byte	.LASF913
 4135 15dd 01       		.byte	0x1
 4136 15de 0A       		.uleb128 0xa
 4137 15df AA220000 		.4byte	.LASF914
 4138 15e3 02       		.byte	0x2
 4139 15e4 0A       		.uleb128 0xa
 4140 15e5 B3510000 		.4byte	.LASF915
 4141 15e9 03       		.byte	0x3
 4142 15ea 0A       		.uleb128 0xa
 4143 15eb 7E170000 		.4byte	.LASF916
 4144 15ef 04       		.byte	0x4
 4145 15f0 0A       		.uleb128 0xa
 4146 15f1 89170000 		.4byte	.LASF917
 4147 15f5 05       		.byte	0x5
 4148 15f6 0A       		.uleb128 0xa
 4149 15f7 97270000 		.4byte	.LASF918
 4150 15fb 06       		.byte	0x6
 4151 15fc 0A       		.uleb128 0xa
 4152 15fd 92370000 		.4byte	.LASF919
 4153 1601 07       		.byte	0x7
 4154 1602 0A       		.uleb128 0xa
 4155 1603 B21E0000 		.4byte	.LASF920
 4156 1607 08       		.byte	0x8
 4157 1608 0A       		.uleb128 0xa
 4158 1609 F72A0000 		.4byte	.LASF921
 4159 160d 09       		.byte	0x9
 4160 160e 0A       		.uleb128 0xa
 4161 160f 09200000 		.4byte	.LASF922
 4162 1613 0A       		.byte	0xa
 4163 1614 0A       		.uleb128 0xa
 4164 1615 B50F0000 		.4byte	.LASF923
 4165 1619 0B       		.byte	0xb
 4166 161a 0A       		.uleb128 0xa
 4167 161b 09290000 		.4byte	.LASF924
 4168 161f 0C       		.byte	0xc
 4169 1620 0A       		.uleb128 0xa
 4170 1621 0C2A0000 		.4byte	.LASF925
 4171 1625 0D       		.byte	0xd
 4172 1626 0A       		.uleb128 0xa
 4173 1627 E8270000 		.4byte	.LASF926
 4174 162b 00       		.byte	0
 4175 162c 0A       		.uleb128 0xa
 4176 162d F0420000 		.4byte	.LASF927
 4177 1631 01       		.byte	0x1
 4178 1632 0A       		.uleb128 0xa
 4179 1633 BC070000 		.4byte	.LASF928
 4180 1637 02       		.byte	0x2
 4181 1638 0A       		.uleb128 0xa
ARM GAS  C:\Users\ikomb\AppData\Local\Temp\ccAzoKUN.s 			page 110


 4182 1639 B51F0000 		.4byte	.LASF929
 4183 163d 03       		.byte	0x3
 4184 163e 0A       		.uleb128 0xa
 4185 163f 0E090000 		.4byte	.LASF930
 4186 1643 04       		.byte	0x4
 4187 1644 0A       		.uleb128 0xa
 4188 1645 1A090000 		.4byte	.LASF931
 4189 1649 05       		.byte	0x5
 4190 164a 0A       		.uleb128 0xa
 4191 164b F7350000 		.4byte	.LASF932
 4192 164f 06       		.byte	0x6
 4193 1650 0A       		.uleb128 0xa
 4194 1651 BE440000 		.4byte	.LASF933
 4195 1655 07       		.byte	0x7
 4196 1656 0A       		.uleb128 0xa
 4197 1657 43440000 		.4byte	.LASF934
 4198 165b 08       		.byte	0x8
 4199 165c 0A       		.uleb128 0xa
 4200 165d EA4B0000 		.4byte	.LASF935
 4201 1661 09       		.byte	0x9
 4202 1662 0A       		.uleb128 0xa
 4203 1663 72540000 		.4byte	.LASF936
 4204 1667 0A       		.byte	0xa
 4205 1668 0A       		.uleb128 0xa
 4206 1669 84220000 		.4byte	.LASF937
 4207 166d 0B       		.byte	0xb
 4208 166e 0A       		.uleb128 0xa
 4209 166f 1A590000 		.4byte	.LASF938
 4210 1673 0C       		.byte	0xc
 4211 1674 0A       		.uleb128 0xa
 4212 1675 DF550000 		.4byte	.LASF939
 4213 1679 0D       		.byte	0xd
 4214 167a 0A       		.uleb128 0xa
 4215 167b 741A0000 		.4byte	.LASF940
 4216 167f 12       		.byte	0x12
 4217 1680 0A       		.uleb128 0xa
 4218 1681 2A300000 		.4byte	.LASF941
 4219 1685 13       		.byte	0x13
 4220 1686 0A       		.uleb128 0xa
 4221 1687 8A500000 		.4byte	.LASF942
 4222 168b 14       		.byte	0x14
 4223 168c 0A       		.uleb128 0xa
 4224 168d 7D510000 		.4byte	.LASF943
 4225 1691 18       		.byte	0x18
 4226 1692 0A       		.uleb128 0xa
 4227 1693 412E0000 		.4byte	.LASF944
 4228 1697 1B       		.byte	0x1b
 4229 1698 0A       		.uleb128 0xa
 4230 1699 8E450000 		.4byte	.LASF945
 4231 169d 00       		.byte	0
 4232 169e 0A       		.uleb128 0xa
 4233 169f 3A280000 		.4byte	.LASF946
 4234 16a3 01       		.byte	0x1
 4235 16a4 0A       		.uleb128 0xa
 4236 16a5 7B2C0000 		.4byte	.LASF947
 4237 16a9 02       		.byte	0x2
 4238 16aa 0A       		.uleb128 0xa
ARM GAS  C:\Users\ikomb\AppData\Local\Temp\ccAzoKUN.s 			page 111


 4239 16ab E44E0000 		.4byte	.LASF948
 4240 16af 03       		.byte	0x3
 4241 16b0 0A       		.uleb128 0xa
 4242 16b1 FB010000 		.4byte	.LASF949
 4243 16b5 04       		.byte	0x4
 4244 16b6 0A       		.uleb128 0xa
 4245 16b7 07020000 		.4byte	.LASF950
 4246 16bb 05       		.byte	0x5
 4247 16bc 0A       		.uleb128 0xa
 4248 16bd FA520000 		.4byte	.LASF951
 4249 16c1 06       		.byte	0x6
 4250 16c2 0A       		.uleb128 0xa
 4251 16c3 F1040000 		.4byte	.LASF952
 4252 16c7 07       		.byte	0x7
 4253 16c8 0A       		.uleb128 0xa
 4254 16c9 1A2A0000 		.4byte	.LASF953
 4255 16cd 08       		.byte	0x8
 4256 16ce 0A       		.uleb128 0xa
 4257 16cf A1370000 		.4byte	.LASF954
 4258 16d3 09       		.byte	0x9
 4259 16d4 0A       		.uleb128 0xa
 4260 16d5 D7050000 		.4byte	.LASF955
 4261 16d9 0A       		.byte	0xa
 4262 16da 0A       		.uleb128 0xa
 4263 16db 162E0000 		.4byte	.LASF956
 4264 16df 0B       		.byte	0xb
 4265 16e0 0A       		.uleb128 0xa
 4266 16e1 C7160000 		.4byte	.LASF957
 4267 16e5 0C       		.byte	0xc
 4268 16e6 0A       		.uleb128 0xa
 4269 16e7 5F140000 		.4byte	.LASF958
 4270 16eb 0D       		.byte	0xd
 4271 16ec 0A       		.uleb128 0xa
 4272 16ed E1250000 		.4byte	.LASF959
 4273 16f1 12       		.byte	0x12
 4274 16f2 0A       		.uleb128 0xa
 4275 16f3 1B3C0000 		.4byte	.LASF960
 4276 16f7 13       		.byte	0x13
 4277 16f8 0A       		.uleb128 0xa
 4278 16f9 62350000 		.4byte	.LASF961
 4279 16fd 14       		.byte	0x14
 4280 16fe 0A       		.uleb128 0xa
 4281 16ff 1F340000 		.4byte	.LASF962
 4282 1703 18       		.byte	0x18
 4283 1704 0A       		.uleb128 0xa
 4284 1705 18150000 		.4byte	.LASF963
 4285 1709 1B       		.byte	0x1b
 4286 170a 0A       		.uleb128 0xa
 4287 170b CC050000 		.4byte	.LASF964
 4288 170f 00       		.byte	0
 4289 1710 0A       		.uleb128 0xa
 4290 1711 D71A0000 		.4byte	.LASF965
 4291 1715 01       		.byte	0x1
 4292 1716 0A       		.uleb128 0xa
 4293 1717 DA520000 		.4byte	.LASF966
 4294 171b 02       		.byte	0x2
 4295 171c 0A       		.uleb128 0xa
ARM GAS  C:\Users\ikomb\AppData\Local\Temp\ccAzoKUN.s 			page 112


 4296 171d CF540000 		.4byte	.LASF967
 4297 1721 03       		.byte	0x3
 4298 1722 0A       		.uleb128 0xa
 4299 1723 7E550000 		.4byte	.LASF968
 4300 1727 04       		.byte	0x4
 4301 1728 0A       		.uleb128 0xa
 4302 1729 8A550000 		.4byte	.LASF969
 4303 172d 05       		.byte	0x5
 4304 172e 0A       		.uleb128 0xa
 4305 172f 62180000 		.4byte	.LASF970
 4306 1733 06       		.byte	0x6
 4307 1734 0A       		.uleb128 0xa
 4308 1735 BA200000 		.4byte	.LASF971
 4309 1739 07       		.byte	0x7
 4310 173a 0A       		.uleb128 0xa
 4311 173b 8A590000 		.4byte	.LASF972
 4312 173f 08       		.byte	0x8
 4313 1740 0A       		.uleb128 0xa
 4314 1741 B60D0000 		.4byte	.LASF973
 4315 1745 09       		.byte	0x9
 4316 1746 0A       		.uleb128 0xa
 4317 1747 09130000 		.4byte	.LASF974
 4318 174b 0A       		.byte	0xa
 4319 174c 0A       		.uleb128 0xa
 4320 174d 7B580000 		.4byte	.LASF975
 4321 1751 0B       		.byte	0xb
 4322 1752 0A       		.uleb128 0xa
 4323 1753 EC030000 		.4byte	.LASF976
 4324 1757 0C       		.byte	0xc
 4325 1758 0A       		.uleb128 0xa
 4326 1759 F7020000 		.4byte	.LASF977
 4327 175d 0D       		.byte	0xd
 4328 175e 0A       		.uleb128 0xa
 4329 175f 2F440000 		.4byte	.LASF978
 4330 1763 12       		.byte	0x12
 4331 1764 0A       		.uleb128 0xa
 4332 1765 CF2D0000 		.4byte	.LASF979
 4333 1769 14       		.byte	0x14
 4334 176a 0A       		.uleb128 0xa
 4335 176b 43190000 		.4byte	.LASF980
 4336 176f 1B       		.byte	0x1b
 4337 1770 0A       		.uleb128 0xa
 4338 1771 2A220000 		.4byte	.LASF981
 4339 1775 00       		.byte	0
 4340 1776 0A       		.uleb128 0xa
 4341 1777 76350000 		.4byte	.LASF982
 4342 177b 01       		.byte	0x1
 4343 177c 0A       		.uleb128 0xa
 4344 177d 921B0000 		.4byte	.LASF983
 4345 1781 02       		.byte	0x2
 4346 1782 0A       		.uleb128 0xa
 4347 1783 8C130000 		.4byte	.LASF984
 4348 1787 03       		.byte	0x3
 4349 1788 0A       		.uleb128 0xa
 4350 1789 F04D0000 		.4byte	.LASF985
 4351 178d 04       		.byte	0x4
 4352 178e 0A       		.uleb128 0xa
ARM GAS  C:\Users\ikomb\AppData\Local\Temp\ccAzoKUN.s 			page 113


 4353 178f FC4D0000 		.4byte	.LASF986
 4354 1793 05       		.byte	0x5
 4355 1794 0A       		.uleb128 0xa
 4356 1795 2C2F0000 		.4byte	.LASF987
 4357 1799 06       		.byte	0x6
 4358 179a 0A       		.uleb128 0xa
 4359 179b E43C0000 		.4byte	.LASF988
 4360 179f 07       		.byte	0x7
 4361 17a0 0A       		.uleb128 0xa
 4362 17a1 964E0000 		.4byte	.LASF989
 4363 17a5 08       		.byte	0x8
 4364 17a6 0A       		.uleb128 0xa
 4365 17a7 BD1A0000 		.4byte	.LASF990
 4366 17ab 09       		.byte	0x9
 4367 17ac 0A       		.uleb128 0xa
 4368 17ad 333B0000 		.4byte	.LASF991
 4369 17b1 0A       		.byte	0xa
 4370 17b2 0A       		.uleb128 0xa
 4371 17b3 61430000 		.4byte	.LASF992
 4372 17b7 0B       		.byte	0xb
 4373 17b8 0A       		.uleb128 0xa
 4374 17b9 4B1F0000 		.4byte	.LASF993
 4375 17bd 0C       		.byte	0xc
 4376 17be 0A       		.uleb128 0xa
 4377 17bf DF1D0000 		.4byte	.LASF994
 4378 17c3 0D       		.byte	0xd
 4379 17c4 0A       		.uleb128 0xa
 4380 17c5 FC0F0000 		.4byte	.LASF995
 4381 17c9 12       		.byte	0x12
 4382 17ca 0A       		.uleb128 0xa
 4383 17cb 87390000 		.4byte	.LASF996
 4384 17cf 14       		.byte	0x14
 4385 17d0 0A       		.uleb128 0xa
 4386 17d1 DD3E0000 		.4byte	.LASF997
 4387 17d5 1B       		.byte	0x1b
 4388 17d6 0A       		.uleb128 0xa
 4389 17d7 8C3F0000 		.4byte	.LASF998
 4390 17db 00       		.byte	0
 4391 17dc 0A       		.uleb128 0xa
 4392 17dd 9E500000 		.4byte	.LASF999
 4393 17e1 01       		.byte	0x1
 4394 17e2 0A       		.uleb128 0xa
 4395 17e3 4B420000 		.4byte	.LASF1000
 4396 17e7 02       		.byte	0x2
 4397 17e8 0A       		.uleb128 0xa
 4398 17e9 762E0000 		.4byte	.LASF1001
 4399 17ed 03       		.byte	0x3
 4400 17ee 0A       		.uleb128 0xa
 4401 17ef 550B0000 		.4byte	.LASF1002
 4402 17f3 04       		.byte	0x4
 4403 17f4 0A       		.uleb128 0xa
 4404 17f5 9E2B0000 		.4byte	.LASF1003
 4405 17f9 05       		.byte	0x5
 4406 17fa 0A       		.uleb128 0xa
 4407 17fb 9F4B0000 		.4byte	.LASF1004
 4408 17ff 06       		.byte	0x6
 4409 1800 0A       		.uleb128 0xa
ARM GAS  C:\Users\ikomb\AppData\Local\Temp\ccAzoKUN.s 			page 114


 4410 1801 045A0000 		.4byte	.LASF1005
 4411 1805 07       		.byte	0x7
 4412 1806 0A       		.uleb128 0xa
 4413 1807 D73F0000 		.4byte	.LASF1006
 4414 180b 08       		.byte	0x8
 4415 180c 0A       		.uleb128 0xa
 4416 180d 200A0000 		.4byte	.LASF1007
 4417 1811 09       		.byte	0x9
 4418 1812 0A       		.uleb128 0xa
 4419 1813 0F2D0000 		.4byte	.LASF1008
 4420 1817 0A       		.byte	0xa
 4421 1818 0A       		.uleb128 0xa
 4422 1819 A94D0000 		.4byte	.LASF1009
 4423 181d 0B       		.byte	0xb
 4424 181e 0A       		.uleb128 0xa
 4425 181f 29540000 		.4byte	.LASF1010
 4426 1823 0C       		.byte	0xc
 4427 1824 0A       		.uleb128 0xa
 4428 1825 CA3A0000 		.4byte	.LASF1011
 4429 1829 0D       		.byte	0xd
 4430 182a 0A       		.uleb128 0xa
 4431 182b 654A0000 		.4byte	.LASF1012
 4432 182f 14       		.byte	0x14
 4433 1830 0A       		.uleb128 0xa
 4434 1831 26120000 		.4byte	.LASF1013
 4435 1835 15       		.byte	0x15
 4436 1836 0A       		.uleb128 0xa
 4437 1837 1E000000 		.4byte	.LASF1014
 4438 183b 00       		.byte	0
 4439 183c 0A       		.uleb128 0xa
 4440 183d 2B1D0000 		.4byte	.LASF1015
 4441 1841 01       		.byte	0x1
 4442 1842 0A       		.uleb128 0xa
 4443 1843 380B0000 		.4byte	.LASF1016
 4444 1847 02       		.byte	0x2
 4445 1848 0A       		.uleb128 0xa
 4446 1849 2F490000 		.4byte	.LASF1017
 4447 184d 03       		.byte	0x3
 4448 184e 0A       		.uleb128 0xa
 4449 184f 433E0000 		.4byte	.LASF1018
 4450 1853 04       		.byte	0x4
 4451 1854 0A       		.uleb128 0xa
 4452 1855 4F3E0000 		.4byte	.LASF1019
 4453 1859 05       		.byte	0x5
 4454 185a 0A       		.uleb128 0xa
 4455 185b 070C0000 		.4byte	.LASF1020
 4456 185f 06       		.byte	0x6
 4457 1860 0A       		.uleb128 0xa
 4458 1861 1B1A0000 		.4byte	.LASF1021
 4459 1865 07       		.byte	0x7
 4460 1866 0A       		.uleb128 0xa
 4461 1867 42150000 		.4byte	.LASF1022
 4462 186b 08       		.byte	0x8
 4463 186c 0A       		.uleb128 0xa
 4464 186d FF210000 		.4byte	.LASF1023
 4465 1871 09       		.byte	0x9
 4466 1872 0A       		.uleb128 0xa
ARM GAS  C:\Users\ikomb\AppData\Local\Temp\ccAzoKUN.s 			page 115


 4467 1873 28510000 		.4byte	.LASF1024
 4468 1877 0A       		.byte	0xa
 4469 1878 0A       		.uleb128 0xa
 4470 1879 A1570000 		.4byte	.LASF1025
 4471 187d 0B       		.byte	0xb
 4472 187e 0A       		.uleb128 0xa
 4473 187f DF580000 		.4byte	.LASF1026
 4474 1883 0C       		.byte	0xc
 4475 1884 0A       		.uleb128 0xa
 4476 1885 58570000 		.4byte	.LASF1027
 4477 1889 0D       		.byte	0xd
 4478 188a 0A       		.uleb128 0xa
 4479 188b CA320000 		.4byte	.LASF1028
 4480 188f 14       		.byte	0x14
 4481 1890 0A       		.uleb128 0xa
 4482 1891 F00B0000 		.4byte	.LASF1029
 4483 1895 15       		.byte	0x15
 4484 1896 0A       		.uleb128 0xa
 4485 1897 FE1B0000 		.4byte	.LASF1030
 4486 189b 00       		.byte	0
 4487 189c 0A       		.uleb128 0xa
 4488 189d 22290000 		.4byte	.LASF1031
 4489 18a1 01       		.byte	0x1
 4490 18a2 0A       		.uleb128 0xa
 4491 18a3 3D300000 		.4byte	.LASF1032
 4492 18a7 02       		.byte	0x2
 4493 18a8 0A       		.uleb128 0xa
 4494 18a9 3F070000 		.4byte	.LASF1033
 4495 18ad 03       		.byte	0x3
 4496 18ae 0A       		.uleb128 0xa
 4497 18af 1B360000 		.4byte	.LASF1034
 4498 18b3 04       		.byte	0x4
 4499 18b4 0A       		.uleb128 0xa
 4500 18b5 27360000 		.4byte	.LASF1035
 4501 18b9 05       		.byte	0x5
 4502 18ba 0A       		.uleb128 0xa
 4503 18bb 10270000 		.4byte	.LASF1036
 4504 18bf 06       		.byte	0x6
 4505 18c0 0A       		.uleb128 0xa
 4506 18c1 FF2C0000 		.4byte	.LASF1037
 4507 18c5 07       		.byte	0x7
 4508 18c6 0A       		.uleb128 0xa
 4509 18c7 74260000 		.4byte	.LASF1038
 4510 18cb 08       		.byte	0x8
 4511 18cc 0A       		.uleb128 0xa
 4512 18cd 761E0000 		.4byte	.LASF1039
 4513 18d1 09       		.byte	0x9
 4514 18d2 0A       		.uleb128 0xa
 4515 18d3 2B2C0000 		.4byte	.LASF1040
 4516 18d7 0A       		.byte	0xa
 4517 18d8 0A       		.uleb128 0xa
 4518 18d9 F2060000 		.4byte	.LASF1041
 4519 18dd 0B       		.byte	0xb
 4520 18de 0A       		.uleb128 0xa
 4521 18df 88180000 		.4byte	.LASF1042
 4522 18e3 0C       		.byte	0xc
 4523 18e4 0A       		.uleb128 0xa
ARM GAS  C:\Users\ikomb\AppData\Local\Temp\ccAzoKUN.s 			page 116


 4524 18e5 16170000 		.4byte	.LASF1043
 4525 18e9 0D       		.byte	0xd
 4526 18ea 0A       		.uleb128 0xa
 4527 18eb 630E0000 		.4byte	.LASF1044
 4528 18ef 14       		.byte	0x14
 4529 18f0 0A       		.uleb128 0xa
 4530 18f1 79420000 		.4byte	.LASF1045
 4531 18f5 00       		.byte	0
 4532 18f6 0A       		.uleb128 0xa
 4533 18f7 421E0000 		.4byte	.LASF1046
 4534 18fb 01       		.byte	0x1
 4535 18fc 0A       		.uleb128 0xa
 4536 18fd 2D230000 		.4byte	.LASF1047
 4537 1901 02       		.byte	0x2
 4538 1902 0A       		.uleb128 0xa
 4539 1903 9E580000 		.4byte	.LASF1048
 4540 1907 03       		.byte	0x3
 4541 1908 0A       		.uleb128 0xa
 4542 1909 A42E0000 		.4byte	.LASF1049
 4543 190d 04       		.byte	0x4
 4544 190e 0A       		.uleb128 0xa
 4545 190f 56580000 		.4byte	.LASF1050
 4546 1913 05       		.byte	0x5
 4547 1914 0A       		.uleb128 0xa
 4548 1915 51430000 		.4byte	.LASF1051
 4549 1919 06       		.byte	0x6
 4550 191a 0A       		.uleb128 0xa
 4551 191b A3510000 		.4byte	.LASF1052
 4552 191f 07       		.byte	0x7
 4553 1920 0A       		.uleb128 0xa
 4554 1921 24160000 		.4byte	.LASF1053
 4555 1925 08       		.byte	0x8
 4556 1926 0A       		.uleb128 0xa
 4557 1927 050E0000 		.4byte	.LASF1054
 4558 192b 09       		.byte	0x9
 4559 192c 0A       		.uleb128 0xa
 4560 192d A6540000 		.4byte	.LASF1055
 4561 1931 0A       		.byte	0xa
 4562 1932 0A       		.uleb128 0xa
 4563 1933 16520000 		.4byte	.LASF1056
 4564 1937 0B       		.byte	0xb
 4565 1938 0A       		.uleb128 0xa
 4566 1939 09330000 		.4byte	.LASF1057
 4567 193d 0C       		.byte	0xc
 4568 193e 0A       		.uleb128 0xa
 4569 193f A8310000 		.4byte	.LASF1058
 4570 1943 0D       		.byte	0xd
 4571 1944 0A       		.uleb128 0xa
 4572 1945 48090000 		.4byte	.LASF1059
 4573 1949 11       		.byte	0x11
 4574 194a 0A       		.uleb128 0xa
 4575 194b CE250000 		.4byte	.LASF1060
 4576 194f 12       		.byte	0x12
 4577 1950 0A       		.uleb128 0xa
 4578 1951 AB3C0000 		.4byte	.LASF1061
 4579 1955 13       		.byte	0x13
 4580 1956 0A       		.uleb128 0xa
ARM GAS  C:\Users\ikomb\AppData\Local\Temp\ccAzoKUN.s 			page 117


 4581 1957 13480000 		.4byte	.LASF1062
 4582 195b 14       		.byte	0x14
 4583 195c 0A       		.uleb128 0xa
 4584 195d 213E0000 		.4byte	.LASF1063
 4585 1961 18       		.byte	0x18
 4586 1962 0A       		.uleb128 0xa
 4587 1963 5C030000 		.4byte	.LASF1064
 4588 1967 00       		.byte	0
 4589 1968 0A       		.uleb128 0xa
 4590 1969 DD380000 		.4byte	.LASF1065
 4591 196d 01       		.byte	0x1
 4592 196e 0A       		.uleb128 0xa
 4593 196f E6490000 		.4byte	.LASF1066
 4594 1973 02       		.byte	0x2
 4595 1974 0A       		.uleb128 0xa
 4596 1975 A2170000 		.4byte	.LASF1067
 4597 1979 03       		.byte	0x3
 4598 197a 0A       		.uleb128 0xa
 4599 197b 03260000 		.4byte	.LASF1068
 4600 197f 04       		.byte	0x4
 4601 1980 0A       		.uleb128 0xa
 4602 1981 0F260000 		.4byte	.LASF1069
 4603 1985 05       		.byte	0x5
 4604 1986 0A       		.uleb128 0xa
 4605 1987 E7340000 		.4byte	.LASF1070
 4606 198b 06       		.byte	0x6
 4607 198c 0A       		.uleb128 0xa
 4608 198d E8100000 		.4byte	.LASF1071
 4609 1991 07       		.byte	0x7
 4610 1992 0A       		.uleb128 0xa
 4611 1993 ED170000 		.4byte	.LASF1072
 4612 1997 08       		.byte	0x8
 4613 1998 0A       		.uleb128 0xa
 4614 1999 D0230000 		.4byte	.LASF1073
 4615 199d 09       		.byte	0x9
 4616 199e 0A       		.uleb128 0xa
 4617 199f CB300000 		.4byte	.LASF1074
 4618 19a3 0A       		.byte	0xa
 4619 19a4 0A       		.uleb128 0xa
 4620 19a5 8F000000 		.4byte	.LASF1075
 4621 19a9 0B       		.byte	0xb
 4622 19aa 0A       		.uleb128 0xa
 4623 19ab 55500000 		.4byte	.LASF1076
 4624 19af 0C       		.byte	0xc
 4625 19b0 0A       		.uleb128 0xa
 4626 19b1 684E0000 		.4byte	.LASF1077
 4627 19b5 0D       		.byte	0xd
 4628 19b6 0A       		.uleb128 0xa
 4629 19b7 21190000 		.4byte	.LASF1078
 4630 19bb 11       		.byte	0x11
 4631 19bc 0A       		.uleb128 0xa
 4632 19bd 8E320000 		.4byte	.LASF1079
 4633 19c1 12       		.byte	0x12
 4634 19c2 0A       		.uleb128 0xa
 4635 19c3 93410000 		.4byte	.LASF1080
 4636 19c7 13       		.byte	0x13
 4637 19c8 0A       		.uleb128 0xa
ARM GAS  C:\Users\ikomb\AppData\Local\Temp\ccAzoKUN.s 			page 118


 4638 19c9 A20E0000 		.4byte	.LASF1081
 4639 19cd 14       		.byte	0x14
 4640 19ce 0A       		.uleb128 0xa
 4641 19cf 57210000 		.4byte	.LASF1082
 4642 19d3 18       		.byte	0x18
 4643 19d4 0A       		.uleb128 0xa
 4644 19d5 CA1E0000 		.4byte	.LASF1083
 4645 19d9 00       		.byte	0
 4646 19da 0A       		.uleb128 0xa
 4647 19db 9B530000 		.4byte	.LASF1084
 4648 19df 01       		.byte	0x1
 4649 19e0 0A       		.uleb128 0xa
 4650 19e1 27130000 		.4byte	.LASF1085
 4651 19e5 02       		.byte	0x2
 4652 19e6 0A       		.uleb128 0xa
 4653 19e7 79310000 		.4byte	.LASF1086
 4654 19eb 03       		.byte	0x3
 4655 19ec 0A       		.uleb128 0xa
 4656 19ed EC1E0000 		.4byte	.LASF1087
 4657 19f1 04       		.byte	0x4
 4658 19f2 0A       		.uleb128 0xa
 4659 19f3 F81E0000 		.4byte	.LASF1088
 4660 19f7 05       		.byte	0x5
 4661 19f8 0A       		.uleb128 0xa
 4662 19f9 2C1F0000 		.4byte	.LASF1089
 4663 19fd 06       		.byte	0x6
 4664 19fe 0A       		.uleb128 0xa
 4665 19ff D82C0000 		.4byte	.LASF1090
 4666 1a03 07       		.byte	0x7
 4667 1a04 0A       		.uleb128 0xa
 4668 1a05 7A2A0000 		.4byte	.LASF1091
 4669 1a09 08       		.byte	0x8
 4670 1a0a 0A       		.uleb128 0xa
 4671 1a0b 97220000 		.4byte	.LASF1092
 4672 1a0f 09       		.byte	0x9
 4673 1a10 0A       		.uleb128 0xa
 4674 1a11 090D0000 		.4byte	.LASF1093
 4675 1a15 0A       		.byte	0xa
 4676 1a16 0A       		.uleb128 0xa
 4677 1a17 A30A0000 		.4byte	.LASF1094
 4678 1a1b 0B       		.byte	0xb
 4679 1a1c 0A       		.uleb128 0xa
 4680 1a1d 980F0000 		.4byte	.LASF1095
 4681 1a21 0C       		.byte	0xc
 4682 1a22 0A       		.uleb128 0xa
 4683 1a23 180E0000 		.4byte	.LASF1096
 4684 1a27 0D       		.byte	0xd
 4685 1a28 0A       		.uleb128 0xa
 4686 1a29 E3280000 		.4byte	.LASF1097
 4687 1a2d 11       		.byte	0x11
 4688 1a2e 0A       		.uleb128 0xa
 4689 1a2f 6C3B0000 		.4byte	.LASF1098
 4690 1a33 12       		.byte	0x12
 4691 1a34 0A       		.uleb128 0xa
 4692 1a35 2F390000 		.4byte	.LASF1099
 4693 1a39 14       		.byte	0x14
 4694 1a3a 0A       		.uleb128 0xa
ARM GAS  C:\Users\ikomb\AppData\Local\Temp\ccAzoKUN.s 			page 119


 4695 1a3b C33B0000 		.4byte	.LASF1100
 4696 1a3f 00       		.byte	0
 4697 1a40 0A       		.uleb128 0xa
 4698 1a41 9C120000 		.4byte	.LASF1101
 4699 1a45 01       		.byte	0x1
 4700 1a46 0A       		.uleb128 0xa
 4701 1a47 56380000 		.4byte	.LASF1102
 4702 1a4b 02       		.byte	0x2
 4703 1a4c 0A       		.uleb128 0xa
 4704 1a4d CF4C0000 		.4byte	.LASF1103
 4705 1a51 03       		.byte	0x3
 4706 1a52 0A       		.uleb128 0xa
 4707 1a53 36170000 		.4byte	.LASF1104
 4708 1a57 04       		.byte	0x4
 4709 1a58 0A       		.uleb128 0xa
 4710 1a59 42170000 		.4byte	.LASF1105
 4711 1a5d 05       		.byte	0x5
 4712 1a5e 0A       		.uleb128 0xa
 4713 1a5f 8E3B0000 		.4byte	.LASF1106
 4714 1a63 06       		.byte	0x6
 4715 1a64 0A       		.uleb128 0xa
 4716 1a65 334A0000 		.4byte	.LASF1107
 4717 1a69 07       		.byte	0x7
 4718 1a6a 0A       		.uleb128 0xa
 4719 1a6b 1A3B0000 		.4byte	.LASF1108
 4720 1a6f 08       		.byte	0x8
 4721 1a70 0A       		.uleb128 0xa
 4722 1a71 59480000 		.4byte	.LASF1109
 4723 1a75 09       		.byte	0x9
 4724 1a76 0A       		.uleb128 0xa
 4725 1a77 C6450000 		.4byte	.LASF1110
 4726 1a7b 0A       		.byte	0xa
 4727 1a7c 0A       		.uleb128 0xa
 4728 1a7d EA3D0000 		.4byte	.LASF1111
 4729 1a81 0B       		.byte	0xb
 4730 1a82 0A       		.uleb128 0xa
 4731 1a83 8E2B0000 		.4byte	.LASF1112
 4732 1a87 0C       		.byte	0xc
 4733 1a88 0A       		.uleb128 0xa
 4734 1a89 5B2A0000 		.4byte	.LASF1113
 4735 1a8d 0D       		.byte	0xd
 4736 1a8e 0A       		.uleb128 0xa
 4737 1a8f 6F3D0000 		.4byte	.LASF1114
 4738 1a93 11       		.byte	0x11
 4739 1a94 0A       		.uleb128 0xa
 4740 1a95 81080000 		.4byte	.LASF1115
 4741 1a99 12       		.byte	0x12
 4742 1a9a 0A       		.uleb128 0xa
 4743 1a9b 65500000 		.4byte	.LASF1116
 4744 1a9f 14       		.byte	0x14
 4745 1aa0 0A       		.uleb128 0xa
 4746 1aa1 B5180000 		.4byte	.LASF1117
 4747 1aa5 19       		.byte	0x19
 4748 1aa6 0A       		.uleb128 0xa
 4749 1aa7 4A590000 		.4byte	.LASF1118
 4750 1aab 00       		.byte	0
 4751 1aac 0A       		.uleb128 0xa
ARM GAS  C:\Users\ikomb\AppData\Local\Temp\ccAzoKUN.s 			page 120


 4752 1aad 6C2C0000 		.4byte	.LASF1119
 4753 1ab1 01       		.byte	0x1
 4754 1ab2 0A       		.uleb128 0xa
 4755 1ab3 BA020000 		.4byte	.LASF1120
 4756 1ab7 02       		.byte	0x2
 4757 1ab8 0A       		.uleb128 0xa
 4758 1ab9 110B0000 		.4byte	.LASF1121
 4759 1abd 03       		.byte	0x3
 4760 1abe 0A       		.uleb128 0xa
 4761 1abf 54470000 		.4byte	.LASF1122
 4762 1ac3 04       		.byte	0x4
 4763 1ac4 0A       		.uleb128 0xa
 4764 1ac5 110F0000 		.4byte	.LASF1123
 4765 1ac9 05       		.byte	0x5
 4766 1aca 0A       		.uleb128 0xa
 4767 1acb 8E580000 		.4byte	.LASF1124
 4768 1acf 06       		.byte	0x6
 4769 1ad0 0A       		.uleb128 0xa
 4770 1ad1 720A0000 		.4byte	.LASF1125
 4771 1ad5 07       		.byte	0x7
 4772 1ad6 0A       		.uleb128 0xa
 4773 1ad7 36410000 		.4byte	.LASF1126
 4774 1adb 08       		.byte	0x8
 4775 1adc 0A       		.uleb128 0xa
 4776 1add 64380000 		.4byte	.LASF1127
 4777 1ae1 09       		.byte	0x9
 4778 1ae2 0A       		.uleb128 0xa
 4779 1ae3 59220000 		.4byte	.LASF1128
 4780 1ae7 0A       		.byte	0xa
 4781 1ae8 0A       		.uleb128 0xa
 4782 1ae9 63000000 		.4byte	.LASF1129
 4783 1aed 0B       		.byte	0xb
 4784 1aee 0A       		.uleb128 0xa
 4785 1aef A9490000 		.4byte	.LASF1130
 4786 1af3 0C       		.byte	0xc
 4787 1af4 0A       		.uleb128 0xa
 4788 1af5 8D480000 		.4byte	.LASF1131
 4789 1af9 0D       		.byte	0xd
 4790 1afa 0A       		.uleb128 0xa
 4791 1afb 3C2F0000 		.4byte	.LASF1132
 4792 1aff 11       		.byte	0x11
 4793 1b00 0A       		.uleb128 0xa
 4794 1b01 0F040000 		.4byte	.LASF1133
 4795 1b05 14       		.byte	0x14
 4796 1b06 0A       		.uleb128 0xa
 4797 1b07 62580000 		.4byte	.LASF1134
 4798 1b0b 19       		.byte	0x19
 4799 1b0c 0A       		.uleb128 0xa
 4800 1b0d 38190000 		.4byte	.LASF1135
 4801 1b11 00       		.byte	0
 4802 1b12 0A       		.uleb128 0xa
 4803 1b13 96470000 		.4byte	.LASF1136
 4804 1b17 01       		.byte	0x1
 4805 1b18 0A       		.uleb128 0xa
 4806 1b19 9D260000 		.4byte	.LASF1137
 4807 1b1d 02       		.byte	0x2
 4808 1b1e 0A       		.uleb128 0xa
ARM GAS  C:\Users\ikomb\AppData\Local\Temp\ccAzoKUN.s 			page 121


 4809 1b1f 5E240000 		.4byte	.LASF1138
 4810 1b23 03       		.byte	0x3
 4811 1b24 0A       		.uleb128 0xa
 4812 1b25 512B0000 		.4byte	.LASF1139
 4813 1b29 04       		.byte	0x4
 4814 1b2a 0A       		.uleb128 0xa
 4815 1b2b 8A070000 		.4byte	.LASF1140
 4816 1b2f 05       		.byte	0x5
 4817 1b30 0A       		.uleb128 0xa
 4818 1b31 52180000 		.4byte	.LASF1141
 4819 1b35 06       		.byte	0x6
 4820 1b36 0A       		.uleb128 0xa
 4821 1b37 73250000 		.4byte	.LASF1142
 4822 1b3b 07       		.byte	0x7
 4823 1b3c 0A       		.uleb128 0xa
 4824 1b3d 34030000 		.4byte	.LASF1143
 4825 1b41 08       		.byte	0x8
 4826 1b42 0A       		.uleb128 0xa
 4827 1b43 C0210000 		.4byte	.LASF1144
 4828 1b47 09       		.byte	0x9
 4829 1b48 0A       		.uleb128 0xa
 4830 1b49 F45A0000 		.4byte	.LASF1145
 4831 1b4d 0A       		.byte	0xa
 4832 1b4e 0A       		.uleb128 0xa
 4833 1b4f AE290000 		.4byte	.LASF1146
 4834 1b53 0B       		.byte	0xb
 4835 1b54 0A       		.uleb128 0xa
 4836 1b55 26090000 		.4byte	.LASF1147
 4837 1b59 0C       		.byte	0xc
 4838 1b5a 0A       		.uleb128 0xa
 4839 1b5b E8070000 		.4byte	.LASF1148
 4840 1b5f 0D       		.byte	0xd
 4841 1b60 0A       		.uleb128 0xa
 4842 1b61 A8010000 		.4byte	.LASF1149
 4843 1b65 11       		.byte	0x11
 4844 1b66 0A       		.uleb128 0xa
 4845 1b67 2B140000 		.4byte	.LASF1150
 4846 1b6b 14       		.byte	0x14
 4847 1b6c 0A       		.uleb128 0xa
 4848 1b6d DF350000 		.4byte	.LASF1151
 4849 1b71 00       		.byte	0
 4850 1b72 0A       		.uleb128 0xa
 4851 1b73 23060000 		.4byte	.LASF1152
 4852 1b77 01       		.byte	0x1
 4853 1b78 0A       		.uleb128 0xa
 4854 1b79 7A4D0000 		.4byte	.LASF1153
 4855 1b7d 02       		.byte	0x2
 4856 1b7e 0A       		.uleb128 0xa
 4857 1b7f 13400000 		.4byte	.LASF1154
 4858 1b83 03       		.byte	0x3
 4859 1b84 0A       		.uleb128 0xa
 4860 1b85 39000000 		.4byte	.LASF1155
 4861 1b89 04       		.byte	0x4
 4862 1b8a 0A       		.uleb128 0xa
 4863 1b8b 45000000 		.4byte	.LASF1156
 4864 1b8f 05       		.byte	0x5
 4865 1b90 0A       		.uleb128 0xa
ARM GAS  C:\Users\ikomb\AppData\Local\Temp\ccAzoKUN.s 			page 122


 4866 1b91 D31F0000 		.4byte	.LASF1157
 4867 1b95 06       		.byte	0x6
 4868 1b96 0A       		.uleb128 0xa
 4869 1b97 29430000 		.4byte	.LASF1158
 4870 1b9b 07       		.byte	0x7
 4871 1b9c 0A       		.uleb128 0xa
 4872 1b9d 5A370000 		.4byte	.LASF1159
 4873 1ba1 0A       		.byte	0xa
 4874 1ba2 0A       		.uleb128 0xa
 4875 1ba3 5A340000 		.4byte	.LASF1160
 4876 1ba7 0B       		.byte	0xb
 4877 1ba8 0A       		.uleb128 0xa
 4878 1ba9 E8240000 		.4byte	.LASF1161
 4879 1bad 0C       		.byte	0xc
 4880 1bae 0A       		.uleb128 0xa
 4881 1baf A8230000 		.4byte	.LASF1162
 4882 1bb3 0D       		.byte	0xd
 4883 1bb4 0A       		.uleb128 0xa
 4884 1bb5 CE2F0000 		.4byte	.LASF1163
 4885 1bb9 11       		.byte	0x11
 4886 1bba 0A       		.uleb128 0xa
 4887 1bbb E1220000 		.4byte	.LASF1164
 4888 1bbf 14       		.byte	0x14
 4889 1bc0 0A       		.uleb128 0xa
 4890 1bc1 1C530000 		.4byte	.LASF1165
 4891 1bc5 00       		.byte	0
 4892 1bc6 0A       		.uleb128 0xa
 4893 1bc7 19200000 		.4byte	.LASF1166
 4894 1bcb 01       		.byte	0x1
 4895 1bcc 0A       		.uleb128 0xa
 4896 1bcd 45160000 		.4byte	.LASF1167
 4897 1bd1 02       		.byte	0x2
 4898 1bd2 0A       		.uleb128 0xa
 4899 1bd3 7B5A0000 		.4byte	.LASF1168
 4900 1bd7 03       		.byte	0x3
 4901 1bd8 0A       		.uleb128 0xa
 4902 1bd9 E2530000 		.4byte	.LASF1169
 4903 1bdd 04       		.byte	0x4
 4904 1bde 0A       		.uleb128 0xa
 4905 1bdf EE530000 		.4byte	.LASF1170
 4906 1be3 05       		.byte	0x5
 4907 1be4 0A       		.uleb128 0xa
 4908 1be5 C1510000 		.4byte	.LASF1171
 4909 1be9 06       		.byte	0x6
 4910 1bea 0A       		.uleb128 0xa
 4911 1beb DC030000 		.4byte	.LASF1172
 4912 1bef 07       		.byte	0x7
 4913 1bf0 0A       		.uleb128 0xa
 4914 1bf1 6E140000 		.4byte	.LASF1173
 4915 1bf5 11       		.byte	0x11
 4916 1bf6 0A       		.uleb128 0xa
 4917 1bf7 385B0000 		.4byte	.LASF1174
 4918 1bfb 00       		.byte	0
 4919 1bfc 0A       		.uleb128 0xa
 4920 1bfd 410A0000 		.4byte	.LASF1175
 4921 1c01 01       		.byte	0x1
 4922 1c02 0A       		.uleb128 0xa
ARM GAS  C:\Users\ikomb\AppData\Local\Temp\ccAzoKUN.s 			page 123


 4923 1c03 5D410000 		.4byte	.LASF1176
 4924 1c07 02       		.byte	0x2
 4925 1c08 0A       		.uleb128 0xa
 4926 1c09 29350000 		.4byte	.LASF1177
 4927 1c0d 03       		.byte	0x3
 4928 1c0e 0A       		.uleb128 0xa
 4929 1c0f 11540000 		.4byte	.LASF1178
 4930 1c13 04       		.byte	0x4
 4931 1c14 0A       		.uleb128 0xa
 4932 1c15 1D540000 		.4byte	.LASF1179
 4933 1c19 05       		.byte	0x5
 4934 1c1a 0A       		.uleb128 0xa
 4935 1c1b 664F0000 		.4byte	.LASF1180
 4936 1c1f 06       		.byte	0x6
 4937 1c20 0A       		.uleb128 0xa
 4938 1c21 DB010000 		.4byte	.LASF1181
 4939 1c25 07       		.byte	0x7
 4940 1c26 0A       		.uleb128 0xa
 4941 1c27 CE440000 		.4byte	.LASF1182
 4942 1c2b 08       		.byte	0x8
 4943 1c2c 0A       		.uleb128 0xa
 4944 1c2d 713C0000 		.4byte	.LASF1183
 4945 1c31 09       		.byte	0x9
 4946 1c32 0A       		.uleb128 0xa
 4947 1c33 A5030000 		.4byte	.LASF1184
 4948 1c37 0A       		.byte	0xa
 4949 1c38 0A       		.uleb128 0xa
 4950 1c39 BF220000 		.4byte	.LASF1185
 4951 1c3d 0B       		.byte	0xb
 4952 1c3e 0A       		.uleb128 0xa
 4953 1c3f DB400000 		.4byte	.LASF1186
 4954 1c43 0C       		.byte	0xc
 4955 1c44 0A       		.uleb128 0xa
 4956 1c45 332B0000 		.4byte	.LASF1187
 4957 1c49 0D       		.byte	0xd
 4958 1c4a 0A       		.uleb128 0xa
 4959 1c4b 843D0000 		.4byte	.LASF1188
 4960 1c4f 11       		.byte	0x11
 4961 1c50 0A       		.uleb128 0xa
 4962 1c51 631E0000 		.4byte	.LASF1189
 4963 1c55 12       		.byte	0x12
 4964 1c56 0A       		.uleb128 0xa
 4965 1c57 C9330000 		.4byte	.LASF1190
 4966 1c5b 13       		.byte	0x13
 4967 1c5c 0A       		.uleb128 0xa
 4968 1c5d 664D0000 		.4byte	.LASF1191
 4969 1c61 14       		.byte	0x14
 4970 1c62 0A       		.uleb128 0xa
 4971 1c63 332A0000 		.4byte	.LASF1192
 4972 1c67 18       		.byte	0x18
 4973 1c68 0A       		.uleb128 0xa
 4974 1c69 3F590000 		.4byte	.LASF1193
 4975 1c6d 00       		.byte	0
 4976 1c6e 0A       		.uleb128 0xa
 4977 1c6f EE150000 		.4byte	.LASF1194
 4978 1c73 01       		.byte	0x1
 4979 1c74 0A       		.uleb128 0xa
ARM GAS  C:\Users\ikomb\AppData\Local\Temp\ccAzoKUN.s 			page 124


 4980 1c75 330A0000 		.4byte	.LASF1195
 4981 1c79 02       		.byte	0x2
 4982 1c7a 0A       		.uleb128 0xa
 4983 1c7b 46500000 		.4byte	.LASF1196
 4984 1c7f 03       		.byte	0x3
 4985 1c80 0A       		.uleb128 0xa
 4986 1c81 8A4C0000 		.4byte	.LASF1197
 4987 1c85 04       		.byte	0x4
 4988 1c86 0A       		.uleb128 0xa
 4989 1c87 964C0000 		.4byte	.LASF1198
 4990 1c8b 05       		.byte	0x5
 4991 1c8c 0A       		.uleb128 0xa
 4992 1c8d 320F0000 		.4byte	.LASF1199
 4993 1c91 06       		.byte	0x6
 4994 1c92 0A       		.uleb128 0xa
 4995 1c93 1B1D0000 		.4byte	.LASF1200
 4996 1c97 07       		.byte	0x7
 4997 1c98 0A       		.uleb128 0xa
 4998 1c99 26070000 		.4byte	.LASF1201
 4999 1c9d 08       		.byte	0x8
 5000 1c9e 0A       		.uleb128 0xa
 5001 1c9f AC110000 		.4byte	.LASF1202
 5002 1ca3 09       		.byte	0x9
 5003 1ca4 0A       		.uleb128 0xa
 5004 1ca5 513B0000 		.4byte	.LASF1203
 5005 1ca9 0A       		.byte	0xa
 5006 1caa 0A       		.uleb128 0xa
 5007 1cab FE2E0000 		.4byte	.LASF1204
 5008 1caf 0B       		.byte	0xb
 5009 1cb0 0A       		.uleb128 0xa
 5010 1cb1 2E010000 		.4byte	.LASF1205
 5011 1cb5 0C       		.byte	0xc
 5012 1cb6 0A       		.uleb128 0xa
 5013 1cb7 00000000 		.4byte	.LASF1206
 5014 1cbb 0D       		.byte	0xd
 5015 1cbc 0A       		.uleb128 0xa
 5016 1cbd 1D0F0000 		.4byte	.LASF1207
 5017 1cc1 11       		.byte	0x11
 5018 1cc2 0A       		.uleb128 0xa
 5019 1cc3 D1290000 		.4byte	.LASF1208
 5020 1cc7 12       		.byte	0x12
 5021 1cc8 0A       		.uleb128 0xa
 5022 1cc9 C8400000 		.4byte	.LASF1209
 5023 1ccd 13       		.byte	0x13
 5024 1cce 0A       		.uleb128 0xa
 5025 1ccf 43130000 		.4byte	.LASF1210
 5026 1cd3 14       		.byte	0x14
 5027 1cd4 0A       		.uleb128 0xa
 5028 1cd5 890E0000 		.4byte	.LASF1211
 5029 1cd9 18       		.byte	0x18
 5030 1cda 0A       		.uleb128 0xa
 5031 1cdb 1E380000 		.4byte	.LASF1212
 5032 1cdf 00       		.byte	0
 5033 1ce0 0A       		.uleb128 0xa
 5034 1ce1 4B300000 		.4byte	.LASF1213
 5035 1ce5 01       		.byte	0x1
 5036 1ce6 0A       		.uleb128 0xa
ARM GAS  C:\Users\ikomb\AppData\Local\Temp\ccAzoKUN.s 			page 125


 5037 1ce7 682E0000 		.4byte	.LASF1214
 5038 1ceb 02       		.byte	0x2
 5039 1cec 0A       		.uleb128 0xa
 5040 1ced CA0D0000 		.4byte	.LASF1215
 5041 1cf1 03       		.byte	0x3
 5042 1cf2 0A       		.uleb128 0xa
 5043 1cf3 F4440000 		.4byte	.LASF1216
 5044 1cf7 04       		.byte	0x4
 5045 1cf8 0A       		.uleb128 0xa
 5046 1cf9 00450000 		.4byte	.LASF1217
 5047 1cfd 05       		.byte	0x5
 5048 1cfe 0A       		.uleb128 0xa
 5049 1cff 5D2B0000 		.4byte	.LASF1218
 5050 1d03 06       		.byte	0x6
 5051 1d04 0A       		.uleb128 0xa
 5052 1d05 5F3A0000 		.4byte	.LASF1219
 5053 1d09 07       		.byte	0x7
 5054 1d0a 0A       		.uleb128 0xa
 5055 1d0b 1B5A0000 		.4byte	.LASF1220
 5056 1d0f 08       		.byte	0x8
 5057 1d10 0A       		.uleb128 0xa
 5058 1d11 083C0000 		.4byte	.LASF1221
 5059 1d15 09       		.byte	0x9
 5060 1d16 0A       		.uleb128 0xa
 5061 1d17 BF170000 		.4byte	.LASF1222
 5062 1d1b 0A       		.byte	0xa
 5063 1d1c 0A       		.uleb128 0xa
 5064 1d1d FA380000 		.4byte	.LASF1223
 5065 1d21 0B       		.byte	0xb
 5066 1d22 0A       		.uleb128 0xa
 5067 1d23 B61C0000 		.4byte	.LASF1224
 5068 1d27 0C       		.byte	0xc
 5069 1d28 0A       		.uleb128 0xa
 5070 1d29 821B0000 		.4byte	.LASF1225
 5071 1d2d 0D       		.byte	0xd
 5072 1d2e 0A       		.uleb128 0xa
 5073 1d2f 683E0000 		.4byte	.LASF1226
 5074 1d33 11       		.byte	0x11
 5075 1d34 0A       		.uleb128 0xa
 5076 1d35 49410000 		.4byte	.LASF1227
 5077 1d39 12       		.byte	0x12
 5078 1d3a 0A       		.uleb128 0xa
 5079 1d3b 46310000 		.4byte	.LASF1228
 5080 1d3f 14       		.byte	0x14
 5081 1d40 0A       		.uleb128 0xa
 5082 1d41 2C550000 		.4byte	.LASF1229
 5083 1d45 00       		.byte	0
 5084 1d46 0A       		.uleb128 0xa
 5085 1d47 144B0000 		.4byte	.LASF1230
 5086 1d4b 01       		.byte	0x1
 5087 1d4c 0A       		.uleb128 0xa
 5088 1d4d EC540000 		.4byte	.LASF1231
 5089 1d51 02       		.byte	0x2
 5090 1d52 0A       		.uleb128 0xa
 5091 1d53 18280000 		.4byte	.LASF1232
 5092 1d57 03       		.byte	0x3
 5093 1d58 0A       		.uleb128 0xa
ARM GAS  C:\Users\ikomb\AppData\Local\Temp\ccAzoKUN.s 			page 126


 5094 1d59 843C0000 		.4byte	.LASF1233
 5095 1d5d 04       		.byte	0x4
 5096 1d5e 0A       		.uleb128 0xa
 5097 1d5f 903C0000 		.4byte	.LASF1234
 5098 1d63 05       		.byte	0x5
 5099 1d64 0A       		.uleb128 0xa
 5100 1d65 4E070000 		.4byte	.LASF1235
 5101 1d69 06       		.byte	0x6
 5102 1d6a 0A       		.uleb128 0xa
 5103 1d6b DF560000 		.4byte	.LASF1236
 5104 1d6f 07       		.byte	0x7
 5105 1d70 0A       		.uleb128 0xa
 5106 1d71 A6270000 		.4byte	.LASF1237
 5107 1d75 08       		.byte	0x8
 5108 1d76 0A       		.uleb128 0xa
 5109 1d77 C0340000 		.4byte	.LASF1238
 5110 1d7b 09       		.byte	0x9
 5111 1d7c 0A       		.uleb128 0xa
 5112 1d7d 47510000 		.4byte	.LASF1239
 5113 1d81 0A       		.byte	0xa
 5114 1d82 0A       		.uleb128 0xa
 5115 1d83 C3130000 		.4byte	.LASF1240
 5116 1d87 0B       		.byte	0xb
 5117 1d88 0A       		.uleb128 0xa
 5118 1d89 02080000 		.4byte	.LASF1241
 5119 1d8d 0C       		.byte	0xc
 5120 1d8e 0A       		.uleb128 0xa
 5121 1d8f CA370000 		.4byte	.LASF1242
 5122 1d93 0D       		.byte	0xd
 5123 1d94 0A       		.uleb128 0xa
 5124 1d95 10100000 		.4byte	.LASF1243
 5125 1d99 11       		.byte	0x11
 5126 1d9a 0A       		.uleb128 0xa
 5127 1d9b 82470000 		.4byte	.LASF1244
 5128 1d9f 12       		.byte	0x12
 5129 1da0 0A       		.uleb128 0xa
 5130 1da1 EA3F0000 		.4byte	.LASF1245
 5131 1da5 14       		.byte	0x14
 5132 1da6 0A       		.uleb128 0xa
 5133 1da7 FD150000 		.4byte	.LASF1246
 5134 1dab 00       		.byte	0
 5135 1dac 0A       		.uleb128 0xa
 5136 1dad 94090000 		.4byte	.LASF1247
 5137 1db1 01       		.byte	0x1
 5138 1db2 0A       		.uleb128 0xa
 5139 1db3 7C4A0000 		.4byte	.LASF1248
 5140 1db7 02       		.byte	0x2
 5141 1db8 0A       		.uleb128 0xa
 5142 1db9 95430000 		.4byte	.LASF1249
 5143 1dbd 03       		.byte	0x3
 5144 1dbe 0A       		.uleb128 0xa
 5145 1dbf 7C340000 		.4byte	.LASF1250
 5146 1dc3 04       		.byte	0x4
 5147 1dc4 0A       		.uleb128 0xa
 5148 1dc5 88340000 		.4byte	.LASF1251
 5149 1dc9 05       		.byte	0x5
 5150 1dca 0A       		.uleb128 0xa
ARM GAS  C:\Users\ikomb\AppData\Local\Temp\ccAzoKUN.s 			page 127


 5151 1dcb EF210000 		.4byte	.LASF1252
 5152 1dcf 06       		.byte	0x6
 5153 1dd0 0A       		.uleb128 0xa
 5154 1dd1 53160000 		.4byte	.LASF1253
 5155 1dd5 07       		.byte	0x7
 5156 1dd6 0A       		.uleb128 0xa
 5157 1dd7 89120000 		.4byte	.LASF1254
 5158 1ddb 08       		.byte	0x8
 5159 1ddc 0A       		.uleb128 0xa
 5160 1ddd DD0A0000 		.4byte	.LASF1255
 5161 1de1 09       		.byte	0x9
 5162 1de2 0A       		.uleb128 0xa
 5163 1de3 5B2C0000 		.4byte	.LASF1256
 5164 1de7 0A       		.byte	0xa
 5165 1de8 0A       		.uleb128 0xa
 5166 1de9 554E0000 		.4byte	.LASF1257
 5167 1ded 0B       		.byte	0xb
 5168 1dee 0A       		.uleb128 0xa
 5169 1def 6E550000 		.4byte	.LASF1258
 5170 1df3 0C       		.byte	0xc
 5171 1df4 0A       		.uleb128 0xa
 5172 1df5 62540000 		.4byte	.LASF1259
 5173 1df9 0D       		.byte	0xd
 5174 1dfa 0A       		.uleb128 0xa
 5175 1dfb E82C0000 		.4byte	.LASF1260
 5176 1dff 11       		.byte	0x11
 5177 1e00 0A       		.uleb128 0xa
 5178 1e01 AD500000 		.4byte	.LASF1261
 5179 1e05 14       		.byte	0x14
 5180 1e06 0A       		.uleb128 0xa
 5181 1e07 AD3B0000 		.4byte	.LASF1262
 5182 1e0b 15       		.byte	0x15
 5183 1e0c 0A       		.uleb128 0xa
 5184 1e0d AB260000 		.4byte	.LASF1263
 5185 1e11 00       		.byte	0
 5186 1e12 0A       		.uleb128 0xa
 5187 1e13 D2220000 		.4byte	.LASF1264
 5188 1e17 01       		.byte	0x1
 5189 1e18 0A       		.uleb128 0xa
 5190 1e19 65440000 		.4byte	.LASF1265
 5191 1e1d 02       		.byte	0x2
 5192 1e1e 0A       		.uleb128 0xa
 5193 1e1f 66020000 		.4byte	.LASF1266
 5194 1e23 03       		.byte	0x3
 5195 1e24 0A       		.uleb128 0xa
 5196 1e25 1F2C0000 		.4byte	.LASF1267
 5197 1e29 04       		.byte	0x4
 5198 1e2a 0A       		.uleb128 0xa
 5199 1e2b 04470000 		.4byte	.LASF1268
 5200 1e2f 05       		.byte	0x5
 5201 1e30 0A       		.uleb128 0xa
 5202 1e31 09240000 		.4byte	.LASF1269
 5203 1e35 06       		.byte	0x6
 5204 1e36 0A       		.uleb128 0xa
 5205 1e37 73320000 		.4byte	.LASF1270
 5206 1e3b 07       		.byte	0x7
 5207 1e3c 0A       		.uleb128 0xa
ARM GAS  C:\Users\ikomb\AppData\Local\Temp\ccAzoKUN.s 			page 128


 5208 1e3d C24B0000 		.4byte	.LASF1271
 5209 1e41 08       		.byte	0x8
 5210 1e42 0A       		.uleb128 0xa
 5211 1e43 C6580000 		.4byte	.LASF1272
 5212 1e47 09       		.byte	0x9
 5213 1e48 0A       		.uleb128 0xa
 5214 1e49 1A140000 		.4byte	.LASF1273
 5215 1e4d 0A       		.byte	0xa
 5216 1e4e 0A       		.uleb128 0xa
 5217 1e4f 16420000 		.4byte	.LASF1274
 5218 1e53 0B       		.byte	0xb
 5219 1e54 0A       		.uleb128 0xa
 5220 1e55 DE150000 		.4byte	.LASF1275
 5221 1e59 0C       		.byte	0xc
 5222 1e5a 0A       		.uleb128 0xa
 5223 1e5b F5140000 		.4byte	.LASF1276
 5224 1e5f 0D       		.byte	0xd
 5225 1e60 0A       		.uleb128 0xa
 5226 1e61 4E040000 		.4byte	.LASF1277
 5227 1e65 14       		.byte	0x14
 5228 1e66 0A       		.uleb128 0xa
 5229 1e67 8D2F0000 		.4byte	.LASF1278
 5230 1e6b 15       		.byte	0x15
 5231 1e6c 0A       		.uleb128 0xa
 5232 1e6d D64F0000 		.4byte	.LASF1279
 5233 1e71 00       		.byte	0
 5234 1e72 0A       		.uleb128 0xa
 5235 1e73 9C3E0000 		.4byte	.LASF1280
 5236 1e77 01       		.byte	0x1
 5237 1e78 0A       		.uleb128 0xa
 5238 1e79 320D0000 		.4byte	.LASF1281
 5239 1e7d 02       		.byte	0x2
 5240 1e7e 0A       		.uleb128 0xa
 5241 1e7f A01B0000 		.4byte	.LASF1282
 5242 1e83 03       		.byte	0x3
 5243 1e84 0A       		.uleb128 0xa
 5244 1e85 46240000 		.4byte	.LASF1283
 5245 1e89 04       		.byte	0x4
 5246 1e8a 0A       		.uleb128 0xa
 5247 1e8b 52240000 		.4byte	.LASF1284
 5248 1e8f 05       		.byte	0x5
 5249 1e90 0A       		.uleb128 0xa
 5250 1e91 06420000 		.4byte	.LASF1285
 5251 1e95 06       		.byte	0x6
 5252 1e96 0A       		.uleb128 0xa
 5253 1e97 FF4F0000 		.4byte	.LASF1286
 5254 1e9b 07       		.byte	0x7
 5255 1e9c 0A       		.uleb128 0xa
 5256 1e9d 5B270000 		.4byte	.LASF1287
 5257 1ea1 08       		.byte	0x8
 5258 1ea2 0A       		.uleb128 0xa
 5259 1ea3 F61F0000 		.4byte	.LASF1288
 5260 1ea7 09       		.byte	0x9
 5261 1ea8 0A       		.uleb128 0xa
 5262 1ea9 84420000 		.4byte	.LASF1289
 5263 1ead 0A       		.byte	0xa
 5264 1eae 0A       		.uleb128 0xa
ARM GAS  C:\Users\ikomb\AppData\Local\Temp\ccAzoKUN.s 			page 129


 5265 1eaf FC030000 		.4byte	.LASF1290
 5266 1eb3 0B       		.byte	0xb
 5267 1eb4 0A       		.uleb128 0xa
 5268 1eb5 16320000 		.4byte	.LASF1291
 5269 1eb9 0C       		.byte	0xc
 5270 1eba 0A       		.uleb128 0xa
 5271 1ebb 28310000 		.4byte	.LASF1292
 5272 1ebf 0D       		.byte	0xd
 5273 1ec0 0A       		.uleb128 0xa
 5274 1ec1 93140000 		.4byte	.LASF1293
 5275 1ec5 14       		.byte	0x14
 5276 1ec6 0A       		.uleb128 0xa
 5277 1ec7 45100000 		.4byte	.LASF1294
 5278 1ecb 00       		.byte	0
 5279 1ecc 0A       		.uleb128 0xa
 5280 1ecd 2C050000 		.4byte	.LASF1295
 5281 1ed1 01       		.byte	0x1
 5282 1ed2 0A       		.uleb128 0xa
 5283 1ed3 65320000 		.4byte	.LASF1296
 5284 1ed7 02       		.byte	0x2
 5285 1ed8 0A       		.uleb128 0xa
 5286 1ed9 62360000 		.4byte	.LASF1297
 5287 1edd 03       		.byte	0x3
 5288 1ede 0A       		.uleb128 0xa
 5289 1edf EB1C0000 		.4byte	.LASF1298
 5290 1ee3 04       		.byte	0x4
 5291 1ee4 0A       		.uleb128 0xa
 5292 1ee5 F71C0000 		.4byte	.LASF1299
 5293 1ee9 05       		.byte	0x5
 5294 1eea 0A       		.uleb128 0xa
 5295 1eeb EB010000 		.4byte	.LASF1300
 5296 1eef 06       		.byte	0x6
 5297 1ef0 0A       		.uleb128 0xa
 5298 1ef1 211C0000 		.4byte	.LASF1301
 5299 1ef5 07       		.byte	0x7
 5300 1ef6 0A       		.uleb128 0xa
 5301 1ef7 A10C0000 		.4byte	.LASF1302
 5302 1efb 08       		.byte	0x8
 5303 1efc 0A       		.uleb128 0xa
 5304 1efd 8E1F0000 		.4byte	.LASF1303
 5305 1f01 09       		.byte	0x9
 5306 1f02 0A       		.uleb128 0xa
 5307 1f03 AD1D0000 		.4byte	.LASF1304
 5308 1f07 0A       		.byte	0xa
 5309 1f08 0A       		.uleb128 0xa
 5310 1f09 C5110000 		.4byte	.LASF1305
 5311 1f0d 0B       		.byte	0xb
 5312 1f0e 0A       		.uleb128 0xa
 5313 1f0f 854F0000 		.4byte	.LASF1306
 5314 1f13 0C       		.byte	0xc
 5315 1f14 0A       		.uleb128 0xa
 5316 1f15 364E0000 		.4byte	.LASF1307
 5317 1f19 0D       		.byte	0xd
 5318 1f1a 0A       		.uleb128 0xa
 5319 1f1b AA180000 		.4byte	.LASF1308
 5320 1f1f 00       		.byte	0
 5321 1f20 0A       		.uleb128 0xa
ARM GAS  C:\Users\ikomb\AppData\Local\Temp\ccAzoKUN.s 			page 130


 5322 1f21 99330000 		.4byte	.LASF1309
 5323 1f25 01       		.byte	0x1
 5324 1f26 0A       		.uleb128 0xa
 5325 1f27 01010000 		.4byte	.LASF1310
 5326 1f2b 02       		.byte	0x2
 5327 1f2c 0A       		.uleb128 0xa
 5328 1f2d 9D110000 		.4byte	.LASF1311
 5329 1f31 03       		.byte	0x3
 5330 1f32 0A       		.uleb128 0xa
 5331 1f33 031D0000 		.4byte	.LASF1312
 5332 1f37 04       		.byte	0x4
 5333 1f38 0A       		.uleb128 0xa
 5334 1f39 0F1D0000 		.4byte	.LASF1313
 5335 1f3d 05       		.byte	0x5
 5336 1f3e 0A       		.uleb128 0xa
 5337 1f3f 29000000 		.4byte	.LASF1314
 5338 1f43 06       		.byte	0x6
 5339 1f44 0A       		.uleb128 0xa
 5340 1f45 660D0000 		.4byte	.LASF1315
 5341 1f49 07       		.byte	0x7
 5342 1f4a 0A       		.uleb128 0xa
 5343 1f4b D6160000 		.4byte	.LASF1316
 5344 1f4f 08       		.byte	0x8
 5345 1f50 0A       		.uleb128 0xa
 5346 1f51 DE0E0000 		.4byte	.LASF1317
 5347 1f55 09       		.byte	0x9
 5348 1f56 0A       		.uleb128 0xa
 5349 1f57 210D0000 		.4byte	.LASF1318
 5350 1f5b 0A       		.byte	0xa
 5351 1f5c 0A       		.uleb128 0xa
 5352 1f5d BA520000 		.4byte	.LASF1319
 5353 1f61 0B       		.byte	0xb
 5354 1f62 0A       		.uleb128 0xa
 5355 1f63 A8450000 		.4byte	.LASF1320
 5356 1f67 0C       		.byte	0xc
 5357 1f68 0A       		.uleb128 0xa
 5358 1f69 EB4C0000 		.4byte	.LASF1321
 5359 1f6d 0D       		.byte	0xd
 5360 1f6e 0A       		.uleb128 0xa
 5361 1f6f 334D0000 		.4byte	.LASF1322
 5362 1f73 12       		.byte	0x12
 5363 1f74 0A       		.uleb128 0xa
 5364 1f75 EC080000 		.4byte	.LASF1323
 5365 1f79 13       		.byte	0x13
 5366 1f7a 0A       		.uleb128 0xa
 5367 1f7b DC360000 		.4byte	.LASF1324
 5368 1f7f 14       		.byte	0x14
 5369 1f80 0A       		.uleb128 0xa
 5370 1f81 39180000 		.4byte	.LASF1325
 5371 1f85 18       		.byte	0x18
 5372 1f86 0A       		.uleb128 0xa
 5373 1f87 40340000 		.4byte	.LASF1326
 5374 1f8b 00       		.byte	0
 5375 1f8c 0A       		.uleb128 0xa
 5376 1f8d C34E0000 		.4byte	.LASF1327
 5377 1f91 01       		.byte	0x1
 5378 1f92 0A       		.uleb128 0xa
ARM GAS  C:\Users\ikomb\AppData\Local\Temp\ccAzoKUN.s 			page 131


 5379 1f93 2C250000 		.4byte	.LASF1328
 5380 1f97 02       		.byte	0x2
 5381 1f98 0A       		.uleb128 0xa
 5382 1f99 23210000 		.4byte	.LASF1329
 5383 1f9d 03       		.byte	0x3
 5384 1f9e 0A       		.uleb128 0xa
 5385 1f9f 74150000 		.4byte	.LASF1330
 5386 1fa3 04       		.byte	0x4
 5387 1fa4 0A       		.uleb128 0xa
 5388 1fa5 80150000 		.4byte	.LASF1331
 5389 1fa9 05       		.byte	0x5
 5390 1faa 0A       		.uleb128 0xa
 5391 1fab DE1B0000 		.4byte	.LASF1332
 5392 1faf 06       		.byte	0x6
 5393 1fb0 0A       		.uleb128 0xa
 5394 1fb1 C1290000 		.4byte	.LASF1333
 5395 1fb5 07       		.byte	0x7
 5396 1fb6 0A       		.uleb128 0xa
 5397 1fb7 054F0000 		.4byte	.LASF1334
 5398 1fbb 08       		.byte	0x8
 5399 1fbc 0A       		.uleb128 0xa
 5400 1fbd CF100000 		.4byte	.LASF1335
 5401 1fc1 09       		.byte	0x9
 5402 1fc2 0A       		.uleb128 0xa
 5403 1fc3 D7450000 		.4byte	.LASF1336
 5404 1fc7 0A       		.byte	0xa
 5405 1fc8 0A       		.uleb128 0xa
 5406 1fc9 60010000 		.4byte	.LASF1337
 5407 1fcd 0B       		.byte	0xb
 5408 1fce 0A       		.uleb128 0xa
 5409 1fcf A60D0000 		.4byte	.LASF1338
 5410 1fd3 0C       		.byte	0xc
 5411 1fd4 0A       		.uleb128 0xa
 5412 1fd5 7E0C0000 		.4byte	.LASF1339
 5413 1fd9 0D       		.byte	0xd
 5414 1fda 0A       		.uleb128 0xa
 5415 1fdb 9D590000 		.4byte	.LASF1340
 5416 1fdf 12       		.byte	0x12
 5417 1fe0 0A       		.uleb128 0xa
 5418 1fe1 FF110000 		.4byte	.LASF1341
 5419 1fe5 13       		.byte	0x13
 5420 1fe6 0A       		.uleb128 0xa
 5421 1fe7 465A0000 		.4byte	.LASF1342
 5422 1feb 14       		.byte	0x14
 5423 1fec 0A       		.uleb128 0xa
 5424 1fed B4570000 		.4byte	.LASF1343
 5425 1ff1 18       		.byte	0x18
 5426 1ff2 0A       		.uleb128 0xa
 5427 1ff3 560C0000 		.4byte	.LASF1344
 5428 1ff7 00       		.byte	0
 5429 1ff8 0A       		.uleb128 0xa
 5430 1ff9 951A0000 		.4byte	.LASF1345
 5431 1ffd 01       		.byte	0x1
 5432 1ffe 0A       		.uleb128 0xa
 5433 1fff CB280000 		.4byte	.LASF1346
 5434 2003 02       		.byte	0x2
 5435 2004 0A       		.uleb128 0xa
ARM GAS  C:\Users\ikomb\AppData\Local\Temp\ccAzoKUN.s 			page 132


 5436 2005 0F500000 		.4byte	.LASF1347
 5437 2009 03       		.byte	0x3
 5438 200a 0A       		.uleb128 0xa
 5439 200b D04A0000 		.4byte	.LASF1348
 5440 200f 04       		.byte	0x4
 5441 2010 0A       		.uleb128 0xa
 5442 2011 DC4A0000 		.4byte	.LASF1349
 5443 2015 05       		.byte	0x5
 5444 2016 0A       		.uleb128 0xa
 5445 2017 BC4D0000 		.4byte	.LASF1350
 5446 201b 06       		.byte	0x6
 5447 201c 0A       		.uleb128 0xa
 5448 201d B8410000 		.4byte	.LASF1351
 5449 2021 07       		.byte	0x7
 5450 2022 0A       		.uleb128 0xa
 5451 2023 26560000 		.4byte	.LASF1352
 5452 2027 08       		.byte	0x8
 5453 2028 0A       		.uleb128 0xa
 5454 2029 3F080000 		.4byte	.LASF1353
 5455 202d 09       		.byte	0x9
 5456 202e 0A       		.uleb128 0xa
 5457 202f 614C0000 		.4byte	.LASF1354
 5458 2033 0A       		.byte	0xa
 5459 2034 0A       		.uleb128 0xa
 5460 2035 38350000 		.4byte	.LASF1355
 5461 2039 0B       		.byte	0xb
 5462 203a 0A       		.uleb128 0xa
 5463 203b 7C3F0000 		.4byte	.LASF1356
 5464 203f 0C       		.byte	0xc
 5465 2040 0A       		.uleb128 0xa
 5466 2041 7D3E0000 		.4byte	.LASF1357
 5467 2045 0D       		.byte	0xd
 5468 2046 0A       		.uleb128 0xa
 5469 2047 FA530000 		.4byte	.LASF1358
 5470 204b 14       		.byte	0x14
 5471 204c 0A       		.uleb128 0xa
 5472 204d 65280000 		.4byte	.LASF1359
 5473 2051 00       		.byte	0
 5474 2052 0A       		.uleb128 0xa
 5475 2053 C0430000 		.4byte	.LASF1360
 5476 2057 01       		.byte	0x1
 5477 2058 0A       		.uleb128 0xa
 5478 2059 494F0000 		.4byte	.LASF1361
 5479 205d 02       		.byte	0x2
 5480 205e 0A       		.uleb128 0xa
 5481 205f D6120000 		.4byte	.LASF1362
 5482 2063 03       		.byte	0x3
 5483 2064 0A       		.uleb128 0xa
 5484 2065 39430000 		.4byte	.LASF1363
 5485 2069 04       		.byte	0x4
 5486 206a 0A       		.uleb128 0xa
 5487 206b 45430000 		.4byte	.LASF1364
 5488 206f 05       		.byte	0x5
 5489 2070 0A       		.uleb128 0xa
 5490 2071 880D0000 		.4byte	.LASF1365
 5491 2075 06       		.byte	0x6
 5492 2076 0A       		.uleb128 0xa
ARM GAS  C:\Users\ikomb\AppData\Local\Temp\ccAzoKUN.s 			page 133


 5493 2077 AF1B0000 		.4byte	.LASF1366
 5494 207b 07       		.byte	0x7
 5495 207c 0A       		.uleb128 0xa
 5496 207d 76000000 		.4byte	.LASF1367
 5497 2081 08       		.byte	0x8
 5498 2082 0A       		.uleb128 0xa
 5499 2083 6A220000 		.4byte	.LASF1368
 5500 2087 09       		.byte	0x9
 5501 2088 0A       		.uleb128 0xa
 5502 2089 A4280000 		.4byte	.LASF1369
 5503 208d 0A       		.byte	0xa
 5504 208e 0A       		.uleb128 0xa
 5505 208f 22400000 		.4byte	.LASF1370
 5506 2093 0B       		.byte	0xb
 5507 2094 0A       		.uleb128 0xa
 5508 2095 7B110000 		.4byte	.LASF1371
 5509 2099 0C       		.byte	0xc
 5510 209a 0A       		.uleb128 0xa
 5511 209b A93F0000 		.4byte	.LASF1372
 5512 209f 0D       		.byte	0xd
 5513 20a0 00       		.byte	0
 5514 20a1 0B       		.uleb128 0xb
 5515 20a2 6D3F0000 		.4byte	.LASF1373
 5516 20a6 05       		.byte	0x5
 5517 20a7 5907     		.2byte	0x759
 5518 20a9 BF000000 		.4byte	0xbf
 5519 20ad 07       		.uleb128 0x7
 5520 20ae AA000000 		.4byte	0xaa
 5521 20b2 BD200000 		.4byte	0x20bd
 5522 20b6 08       		.uleb128 0x8
 5523 20b7 9E000000 		.4byte	0x9e
 5524 20bb 0F       		.byte	0xf
 5525 20bc 00       		.byte	0
 5526 20bd 0C       		.uleb128 0xc
 5527 20be 10       		.byte	0x10
 5528 20bf 06       		.byte	0x6
 5529 20c0 22       		.byte	0x22
 5530 20c1 EA200000 		.4byte	0x20ea
 5531 20c5 0D       		.uleb128 0xd
 5532 20c6 B8050000 		.4byte	.LASF1374
 5533 20ca 06       		.byte	0x6
 5534 20cb 23       		.byte	0x23
 5535 20cc A5000000 		.4byte	0xa5
 5536 20d0 00       		.byte	0
 5537 20d1 0D       		.uleb128 0xd
 5538 20d2 C2050000 		.4byte	.LASF1375
 5539 20d6 06       		.byte	0x6
 5540 20d7 24       		.byte	0x24
 5541 20d8 A5000000 		.4byte	0xa5
 5542 20dc 04       		.byte	0x4
 5543 20dd 0D       		.uleb128 0xd
 5544 20de 063D0000 		.4byte	.LASF1376
 5545 20e2 06       		.byte	0x6
 5546 20e3 25       		.byte	0x25
 5547 20e4 EF200000 		.4byte	0x20ef
 5548 20e8 08       		.byte	0x8
 5549 20e9 00       		.byte	0
ARM GAS  C:\Users\ikomb\AppData\Local\Temp\ccAzoKUN.s 			page 134


 5550 20ea 05       		.uleb128 0x5
 5551 20eb AF000000 		.4byte	0xaf
 5552 20ef 06       		.uleb128 0x6
 5553 20f0 EA200000 		.4byte	0x20ea
 5554 20f4 04       		.uleb128 0x4
 5555 20f5 0D490000 		.4byte	.LASF1377
 5556 20f9 06       		.byte	0x6
 5557 20fa 26       		.byte	0x26
 5558 20fb BD200000 		.4byte	0x20bd
 5559 20ff 0C       		.uleb128 0xc
 5560 2100 80       		.byte	0x80
 5561 2101 07       		.byte	0x7
 5562 2102 22       		.byte	0x22
 5563 2103 D3210000 		.4byte	0x21d3
 5564 2107 0E       		.uleb128 0xe
 5565 2108 4F555400 		.ascii	"OUT\000"
 5566 210c 07       		.byte	0x7
 5567 210d 23       		.byte	0x23
 5568 210e A5000000 		.4byte	0xa5
 5569 2112 00       		.byte	0
 5570 2113 0D       		.uleb128 0xd
 5571 2114 E9160000 		.4byte	.LASF1378
 5572 2118 07       		.byte	0x7
 5573 2119 24       		.byte	0x24
 5574 211a A5000000 		.4byte	0xa5
 5575 211e 04       		.byte	0x4
 5576 211f 0D       		.uleb128 0xd
 5577 2120 12590000 		.4byte	.LASF1379
 5578 2124 07       		.byte	0x7
 5579 2125 25       		.byte	0x25
 5580 2126 A5000000 		.4byte	0xa5
 5581 212a 08       		.byte	0x8
 5582 212b 0D       		.uleb128 0xd
 5583 212c B7220000 		.4byte	.LASF1380
 5584 2130 07       		.byte	0x7
 5585 2131 26       		.byte	0x26
 5586 2132 A5000000 		.4byte	0xa5
 5587 2136 0C       		.byte	0xc
 5588 2137 0E       		.uleb128 0xe
 5589 2138 494E00   		.ascii	"IN\000"
 5590 213b 07       		.byte	0x7
 5591 213c 27       		.byte	0x27
 5592 213d AA000000 		.4byte	0xaa
 5593 2141 10       		.byte	0x10
 5594 2142 0D       		.uleb128 0xd
 5595 2143 7F210000 		.4byte	.LASF1381
 5596 2147 07       		.byte	0x7
 5597 2148 28       		.byte	0x28
 5598 2149 A5000000 		.4byte	0xa5
 5599 214d 14       		.byte	0x14
 5600 214e 0D       		.uleb128 0xd
 5601 214f B93F0000 		.4byte	.LASF1382
 5602 2153 07       		.byte	0x7
 5603 2154 29       		.byte	0x29
 5604 2155 A5000000 		.4byte	0xa5
 5605 2159 18       		.byte	0x18
 5606 215a 0D       		.uleb128 0xd
ARM GAS  C:\Users\ikomb\AppData\Local\Temp\ccAzoKUN.s 			page 135


 5607 215b 4F270000 		.4byte	.LASF1383
 5608 215f 07       		.byte	0x7
 5609 2160 2A       		.byte	0x2a
 5610 2161 AA000000 		.4byte	0xaa
 5611 2165 1C       		.byte	0x1c
 5612 2166 0D       		.uleb128 0xd
 5613 2167 7E270000 		.4byte	.LASF1384
 5614 216b 07       		.byte	0x7
 5615 216c 2B       		.byte	0x2b
 5616 216d A5000000 		.4byte	0xa5
 5617 2171 20       		.byte	0x20
 5618 2172 0D       		.uleb128 0xd
 5619 2173 3A3E0000 		.4byte	.LASF1385
 5620 2177 07       		.byte	0x7
 5621 2178 2C       		.byte	0x2c
 5622 2179 A5000000 		.4byte	0xa5
 5623 217d 24       		.byte	0x24
 5624 217e 0E       		.uleb128 0xe
 5625 217f 43464700 		.ascii	"CFG\000"
 5626 2183 07       		.byte	0x7
 5627 2184 2D       		.byte	0x2d
 5628 2185 A5000000 		.4byte	0xa5
 5629 2189 28       		.byte	0x28
 5630 218a 0D       		.uleb128 0xd
 5631 218b B43A0000 		.4byte	.LASF1386
 5632 218f 07       		.byte	0x7
 5633 2190 2E       		.byte	0x2e
 5634 2191 A5000000 		.4byte	0xa5
 5635 2195 2C       		.byte	0x2c
 5636 2196 0D       		.uleb128 0xd
 5637 2197 B7150000 		.4byte	.LASF1387
 5638 219b 07       		.byte	0x7
 5639 219c 2F       		.byte	0x2f
 5640 219d A5000000 		.4byte	0xa5
 5641 21a1 30       		.byte	0x30
 5642 21a2 0D       		.uleb128 0xd
 5643 21a3 3A1E0000 		.4byte	.LASF1388
 5644 21a7 07       		.byte	0x7
 5645 21a8 30       		.byte	0x30
 5646 21a9 A5000000 		.4byte	0xa5
 5647 21ad 34       		.byte	0x34
 5648 21ae 0D       		.uleb128 0xd
 5649 21af 063D0000 		.4byte	.LASF1376
 5650 21b3 07       		.byte	0x7
 5651 21b4 31       		.byte	0x31
 5652 21b5 AA000000 		.4byte	0xaa
 5653 21b9 38       		.byte	0x38
 5654 21ba 0D       		.uleb128 0xd
 5655 21bb 3E490000 		.4byte	.LASF1389
 5656 21bf 07       		.byte	0x7
 5657 21c0 32       		.byte	0x32
 5658 21c1 A5000000 		.4byte	0xa5
 5659 21c5 3C       		.byte	0x3c
 5660 21c6 0D       		.uleb128 0xd
 5661 21c7 D9280000 		.4byte	.LASF1390
 5662 21cb 07       		.byte	0x7
 5663 21cc 33       		.byte	0x33
ARM GAS  C:\Users\ikomb\AppData\Local\Temp\ccAzoKUN.s 			page 136


 5664 21cd D8210000 		.4byte	0x21d8
 5665 21d1 40       		.byte	0x40
 5666 21d2 00       		.byte	0
 5667 21d3 05       		.uleb128 0x5
 5668 21d4 AD200000 		.4byte	0x20ad
 5669 21d8 06       		.uleb128 0x6
 5670 21d9 D3210000 		.4byte	0x21d3
 5671 21dd 04       		.uleb128 0x4
 5672 21de 39510000 		.4byte	.LASF1391
 5673 21e2 07       		.byte	0x7
 5674 21e3 34       		.byte	0x34
 5675 21e4 FF200000 		.4byte	0x20ff
 5676 21e8 0B       		.uleb128 0xb
 5677 21e9 1A0D0000 		.4byte	.LASF1392
 5678 21ed 08       		.byte	0x8
 5679 21ee C401     		.2byte	0x1c4
 5680 21f0 F4210000 		.4byte	0x21f4
 5681 21f4 03       		.uleb128 0x3
 5682 21f5 01       		.byte	0x1
 5683 21f6 08       		.byte	0x8
 5684 21f7 AD400000 		.4byte	.LASF1393
 5685 21fb 03       		.uleb128 0x3
 5686 21fc 04       		.byte	0x4
 5687 21fd 04       		.byte	0x4
 5688 21fe F8220000 		.4byte	.LASF1394
 5689 2202 03       		.uleb128 0x3
 5690 2203 08       		.byte	0x8
 5691 2204 04       		.byte	0x4
 5692 2205 8B160000 		.4byte	.LASF1395
 5693 2209 0F       		.uleb128 0xf
 5694 220a 04       		.byte	0x4
 5695 220b 2C000000 		.4byte	0x2c
 5696 220f 01       		.byte	0x1
 5697 2210 A0       		.byte	0xa0
 5698 2211 25220000 		.4byte	0x2225
 5699 2215 0A       		.uleb128 0xa
 5700 2216 EE1B0000 		.4byte	.LASF1396
 5701 221a 00       		.byte	0
 5702 221b 10       		.uleb128 0x10
 5703 221c CB3E0000 		.4byte	.LASF1397
 5704 2220 01005A00 		.4byte	0x5a0001
 5705 2224 00       		.byte	0
 5706 2225 04       		.uleb128 0x4
 5707 2226 B3380000 		.4byte	.LASF1398
 5708 222a 01       		.byte	0x1
 5709 222b A3       		.byte	0xa3
 5710 222c 09220000 		.4byte	0x2209
 5711 2230 0C       		.uleb128 0xc
 5712 2231 24       		.byte	0x24
 5713 2232 01       		.byte	0x1
 5714 2233 B2       		.byte	0xb2
 5715 2234 A5220000 		.4byte	0x22a5
 5716 2238 0E       		.uleb128 0xe
 5717 2239 6F757400 		.ascii	"out\000"
 5718 223d 01       		.byte	0x1
 5719 223e B3       		.byte	0xb3
 5720 223f 93000000 		.4byte	0x93
ARM GAS  C:\Users\ikomb\AppData\Local\Temp\ccAzoKUN.s 			page 137


 5721 2243 00       		.byte	0
 5722 2244 0D       		.uleb128 0xd
 5723 2245 0B300000 		.4byte	.LASF1399
 5724 2249 01       		.byte	0x1
 5725 224a B4       		.byte	0xb4
 5726 224b 93000000 		.4byte	0x93
 5727 224f 04       		.byte	0x4
 5728 2250 0D       		.uleb128 0xd
 5729 2251 6C260000 		.4byte	.LASF1400
 5730 2255 01       		.byte	0x1
 5731 2256 B5       		.byte	0xb5
 5732 2257 93000000 		.4byte	0x93
 5733 225b 08       		.byte	0x8
 5734 225c 0E       		.uleb128 0xe
 5735 225d 63666700 		.ascii	"cfg\000"
 5736 2261 01       		.byte	0x1
 5737 2262 B6       		.byte	0xb6
 5738 2263 93000000 		.4byte	0x93
 5739 2267 0C       		.byte	0xc
 5740 2268 0D       		.uleb128 0xd
 5741 2269 260C0000 		.4byte	.LASF1401
 5742 226d 01       		.byte	0x1
 5743 226e B7       		.byte	0xb7
 5744 226f 93000000 		.4byte	0x93
 5745 2273 10       		.byte	0x10
 5746 2274 0D       		.uleb128 0xd
 5747 2275 400D0000 		.4byte	.LASF1402
 5748 2279 01       		.byte	0x1
 5749 227a B8       		.byte	0xb8
 5750 227b 93000000 		.4byte	0x93
 5751 227f 14       		.byte	0x14
 5752 2280 0D       		.uleb128 0xd
 5753 2281 145A0000 		.4byte	.LASF1403
 5754 2285 01       		.byte	0x1
 5755 2286 B9       		.byte	0xb9
 5756 2287 93000000 		.4byte	0x93
 5757 228b 18       		.byte	0x18
 5758 228c 0D       		.uleb128 0xd
 5759 228d 1D310000 		.4byte	.LASF1404
 5760 2291 01       		.byte	0x1
 5761 2292 BA       		.byte	0xba
 5762 2293 93000000 		.4byte	0x93
 5763 2297 1C       		.byte	0x1c
 5764 2298 0D       		.uleb128 0xd
 5765 2299 17290000 		.4byte	.LASF1405
 5766 229d 01       		.byte	0x1
 5767 229e BB       		.byte	0xbb
 5768 229f 93000000 		.4byte	0x93
 5769 22a3 20       		.byte	0x20
 5770 22a4 00       		.byte	0
 5771 22a5 04       		.uleb128 0x4
 5772 22a6 4A1D0000 		.4byte	.LASF1406
 5773 22aa 01       		.byte	0x1
 5774 22ab BC       		.byte	0xbc
 5775 22ac 30220000 		.4byte	0x2230
 5776 22b0 0C       		.uleb128 0xc
 5777 22b1 34       		.byte	0x34
ARM GAS  C:\Users\ikomb\AppData\Local\Temp\ccAzoKUN.s 			page 138


 5778 22b2 01       		.byte	0x1
 5779 22b3 BF       		.byte	0xbf
 5780 22b4 55230000 		.4byte	0x2355
 5781 22b8 0D       		.uleb128 0xd
 5782 22b9 13140000 		.4byte	.LASF1407
 5783 22bd 01       		.byte	0x1
 5784 22be C0       		.byte	0xc0
 5785 22bf 93000000 		.4byte	0x93
 5786 22c3 00       		.byte	0
 5787 22c4 0D       		.uleb128 0xd
 5788 22c5 E61A0000 		.4byte	.LASF1408
 5789 22c9 01       		.byte	0x1
 5790 22ca C1       		.byte	0xc1
 5791 22cb 93000000 		.4byte	0x93
 5792 22cf 04       		.byte	0x4
 5793 22d0 0D       		.uleb128 0xd
 5794 22d1 2E3C0000 		.4byte	.LASF1409
 5795 22d5 01       		.byte	0x1
 5796 22d6 C2       		.byte	0xc2
 5797 22d7 A1200000 		.4byte	0x20a1
 5798 22db 08       		.byte	0x8
 5799 22dc 0D       		.uleb128 0xd
 5800 22dd 51220000 		.4byte	.LASF1410
 5801 22e1 01       		.byte	0x1
 5802 22e2 C3       		.byte	0xc3
 5803 22e3 93000000 		.4byte	0x93
 5804 22e7 0C       		.byte	0xc
 5805 22e8 0D       		.uleb128 0xd
 5806 22e9 5A350000 		.4byte	.LASF1411
 5807 22ed 01       		.byte	0x1
 5808 22ee C4       		.byte	0xc4
 5809 22ef 93000000 		.4byte	0x93
 5810 22f3 10       		.byte	0x10
 5811 22f4 0D       		.uleb128 0xd
 5812 22f5 27240000 		.4byte	.LASF1412
 5813 22f9 01       		.byte	0x1
 5814 22fa C5       		.byte	0xc5
 5815 22fb 93000000 		.4byte	0x93
 5816 22ff 14       		.byte	0x14
 5817 2300 0D       		.uleb128 0xd
 5818 2301 860B0000 		.4byte	.LASF1413
 5819 2305 01       		.byte	0x1
 5820 2306 C6       		.byte	0xc6
 5821 2307 93000000 		.4byte	0x93
 5822 230b 18       		.byte	0x18
 5823 230c 0D       		.uleb128 0xd
 5824 230d 70280000 		.4byte	.LASF1414
 5825 2311 01       		.byte	0x1
 5826 2312 C7       		.byte	0xc7
 5827 2313 93000000 		.4byte	0x93
 5828 2317 1C       		.byte	0x1c
 5829 2318 0D       		.uleb128 0xd
 5830 2319 F6130000 		.4byte	.LASF1415
 5831 231d 01       		.byte	0x1
 5832 231e C8       		.byte	0xc8
 5833 231f 93000000 		.4byte	0x93
 5834 2323 20       		.byte	0x20
ARM GAS  C:\Users\ikomb\AppData\Local\Temp\ccAzoKUN.s 			page 139


 5835 2324 0D       		.uleb128 0xd
 5836 2325 2C330000 		.4byte	.LASF1416
 5837 2329 01       		.byte	0x1
 5838 232a C9       		.byte	0xc9
 5839 232b 93000000 		.4byte	0x93
 5840 232f 24       		.byte	0x24
 5841 2330 0D       		.uleb128 0xd
 5842 2331 00560000 		.4byte	.LASF1417
 5843 2335 01       		.byte	0x1
 5844 2336 CA       		.byte	0xca
 5845 2337 93000000 		.4byte	0x93
 5846 233b 28       		.byte	0x28
 5847 233c 0D       		.uleb128 0xd
 5848 233d 4B360000 		.4byte	.LASF1418
 5849 2341 01       		.byte	0x1
 5850 2342 CB       		.byte	0xcb
 5851 2343 93000000 		.4byte	0x93
 5852 2347 2C       		.byte	0x2c
 5853 2348 0D       		.uleb128 0xd
 5854 2349 56260000 		.4byte	.LASF1419
 5855 234d 01       		.byte	0x1
 5856 234e CC       		.byte	0xcc
 5857 234f 93000000 		.4byte	0x93
 5858 2353 30       		.byte	0x30
 5859 2354 00       		.byte	0
 5860 2355 04       		.uleb128 0x4
 5861 2356 1E4C0000 		.4byte	.LASF1420
 5862 235a 01       		.byte	0x1
 5863 235b CD       		.byte	0xcd
 5864 235c B0220000 		.4byte	0x22b0
 5865 2360 11       		.uleb128 0x11
 5866 2361 BF1B0000 		.4byte	.LASF1427
 5867 2365 01       		.byte	0x1
 5868 2366 3F02     		.2byte	0x23f
 5869 2368 00000000 		.4byte	.LFB125
 5870 236c B8000000 		.4byte	.LFE125-.LFB125
 5871 2370 01       		.uleb128 0x1
 5872 2371 9C       		.byte	0x9c
 5873 2372 D1230000 		.4byte	0x23d1
 5874 2376 12       		.uleb128 0x12
 5875 2377 2F500000 		.4byte	.LASF1421
 5876 237b 01       		.byte	0x1
 5877 237c 3F02     		.2byte	0x23f
 5878 237e D1230000 		.4byte	0x23d1
 5879 2382 02       		.uleb128 0x2
 5880 2383 91       		.byte	0x91
 5881 2384 64       		.sleb128 -28
 5882 2385 12       		.uleb128 0x12
 5883 2386 5F0D0000 		.4byte	.LASF1422
 5884 238a 01       		.byte	0x1
 5885 238b 3F02     		.2byte	0x23f
 5886 238d 93000000 		.4byte	0x93
 5887 2391 02       		.uleb128 0x2
 5888 2392 91       		.byte	0x91
 5889 2393 60       		.sleb128 -32
 5890 2394 12       		.uleb128 0x12
 5891 2395 A1320000 		.4byte	.LASF1423
ARM GAS  C:\Users\ikomb\AppData\Local\Temp\ccAzoKUN.s 			page 140


 5892 2399 01       		.byte	0x1
 5893 239a 3F02     		.2byte	0x23f
 5894 239c A1200000 		.4byte	0x20a1
 5895 23a0 02       		.uleb128 0x2
 5896 23a1 91       		.byte	0x91
 5897 23a2 5F       		.sleb128 -33
 5898 23a3 13       		.uleb128 0x13
 5899 23a4 59310000 		.4byte	.LASF1424
 5900 23a8 01       		.byte	0x1
 5901 23a9 4102     		.2byte	0x241
 5902 23ab 93000000 		.4byte	0x93
 5903 23af 02       		.uleb128 0x2
 5904 23b0 91       		.byte	0x91
 5905 23b1 74       		.sleb128 -12
 5906 23b2 13       		.uleb128 0x13
 5907 23b3 38340000 		.4byte	.LASF1425
 5908 23b7 01       		.byte	0x1
 5909 23b8 4202     		.2byte	0x242
 5910 23ba 93000000 		.4byte	0x93
 5911 23be 02       		.uleb128 0x2
 5912 23bf 91       		.byte	0x91
 5913 23c0 6C       		.sleb128 -20
 5914 23c1 13       		.uleb128 0x13
 5915 23c2 CE030000 		.4byte	.LASF1426
 5916 23c6 01       		.byte	0x1
 5917 23c7 4302     		.2byte	0x243
 5918 23c9 D7230000 		.4byte	0x23d7
 5919 23cd 02       		.uleb128 0x2
 5920 23ce 91       		.byte	0x91
 5921 23cf 70       		.sleb128 -16
 5922 23d0 00       		.byte	0
 5923 23d1 14       		.uleb128 0x14
 5924 23d2 04       		.byte	0x4
 5925 23d3 DD210000 		.4byte	0x21dd
 5926 23d7 14       		.uleb128 0x14
 5927 23d8 04       		.byte	0x4
 5928 23d9 F4200000 		.4byte	0x20f4
 5929 23dd 11       		.uleb128 0x11
 5930 23de C2140000 		.4byte	.LASF1428
 5931 23e2 01       		.byte	0x1
 5932 23e3 E502     		.2byte	0x2e5
 5933 23e5 00000000 		.4byte	.LFB129
 5934 23e9 54000000 		.4byte	.LFE129-.LFB129
 5935 23ed 01       		.uleb128 0x1
 5936 23ee 9C       		.byte	0x9c
 5937 23ef 21240000 		.4byte	0x2421
 5938 23f3 12       		.uleb128 0x12
 5939 23f4 2F500000 		.4byte	.LASF1421
 5940 23f8 01       		.byte	0x1
 5941 23f9 E502     		.2byte	0x2e5
 5942 23fb D1230000 		.4byte	0x23d1
 5943 23ff 02       		.uleb128 0x2
 5944 2400 91       		.byte	0x91
 5945 2401 74       		.sleb128 -12
 5946 2402 12       		.uleb128 0x12
 5947 2403 5F0D0000 		.4byte	.LASF1422
 5948 2407 01       		.byte	0x1
ARM GAS  C:\Users\ikomb\AppData\Local\Temp\ccAzoKUN.s 			page 141


 5949 2408 E502     		.2byte	0x2e5
 5950 240a 93000000 		.4byte	0x93
 5951 240e 02       		.uleb128 0x2
 5952 240f 91       		.byte	0x91
 5953 2410 70       		.sleb128 -16
 5954 2411 12       		.uleb128 0x12
 5955 2412 A1320000 		.4byte	.LASF1423
 5956 2416 01       		.byte	0x1
 5957 2417 E502     		.2byte	0x2e5
 5958 2419 93000000 		.4byte	0x93
 5959 241d 02       		.uleb128 0x2
 5960 241e 91       		.byte	0x91
 5961 241f 6C       		.sleb128 -20
 5962 2420 00       		.byte	0
 5963 2421 11       		.uleb128 0x11
 5964 2422 76160000 		.4byte	.LASF1429
 5965 2426 01       		.byte	0x1
 5966 2427 8B03     		.2byte	0x38b
 5967 2429 00000000 		.4byte	.LFB134
 5968 242d 68000000 		.4byte	.LFE134-.LFB134
 5969 2431 01       		.uleb128 0x1
 5970 2432 9C       		.byte	0x9c
 5971 2433 83240000 		.4byte	0x2483
 5972 2437 12       		.uleb128 0x12
 5973 2438 2F500000 		.4byte	.LASF1421
 5974 243c 01       		.byte	0x1
 5975 243d 8B03     		.2byte	0x38b
 5976 243f D1230000 		.4byte	0x23d1
 5977 2443 02       		.uleb128 0x2
 5978 2444 91       		.byte	0x91
 5979 2445 6C       		.sleb128 -20
 5980 2446 12       		.uleb128 0x12
 5981 2447 5F0D0000 		.4byte	.LASF1422
 5982 244b 01       		.byte	0x1
 5983 244c 8B03     		.2byte	0x38b
 5984 244e 93000000 		.4byte	0x93
 5985 2452 02       		.uleb128 0x2
 5986 2453 91       		.byte	0x91
 5987 2454 68       		.sleb128 -24
 5988 2455 12       		.uleb128 0x12
 5989 2456 A1320000 		.4byte	.LASF1423
 5990 245a 01       		.byte	0x1
 5991 245b 8B03     		.2byte	0x38b
 5992 245d 93000000 		.4byte	0x93
 5993 2461 02       		.uleb128 0x2
 5994 2462 91       		.byte	0x91
 5995 2463 64       		.sleb128 -28
 5996 2464 13       		.uleb128 0x13
 5997 2465 38340000 		.4byte	.LASF1425
 5998 2469 01       		.byte	0x1
 5999 246a 8D03     		.2byte	0x38d
 6000 246c 93000000 		.4byte	0x93
 6001 2470 02       		.uleb128 0x2
 6002 2471 91       		.byte	0x91
 6003 2472 70       		.sleb128 -16
 6004 2473 13       		.uleb128 0x13
 6005 2474 DE000000 		.4byte	.LASF1430
ARM GAS  C:\Users\ikomb\AppData\Local\Temp\ccAzoKUN.s 			page 142


 6006 2478 01       		.byte	0x1
 6007 2479 8E03     		.2byte	0x38e
 6008 247b 93000000 		.4byte	0x93
 6009 247f 02       		.uleb128 0x2
 6010 2480 91       		.byte	0x91
 6011 2481 74       		.sleb128 -12
 6012 2482 00       		.byte	0
 6013 2483 11       		.uleb128 0x11
 6014 2484 1E500000 		.4byte	.LASF1431
 6015 2488 01       		.byte	0x1
 6016 2489 CE03     		.2byte	0x3ce
 6017 248b 00000000 		.4byte	.LFB136
 6018 248f 5C000000 		.4byte	.LFE136-.LFB136
 6019 2493 01       		.uleb128 0x1
 6020 2494 9C       		.byte	0x9c
 6021 2495 D6240000 		.4byte	0x24d6
 6022 2499 12       		.uleb128 0x12
 6023 249a 2F500000 		.4byte	.LASF1421
 6024 249e 01       		.byte	0x1
 6025 249f CE03     		.2byte	0x3ce
 6026 24a1 D1230000 		.4byte	0x23d1
 6027 24a5 02       		.uleb128 0x2
 6028 24a6 91       		.byte	0x91
 6029 24a7 6C       		.sleb128 -20
 6030 24a8 12       		.uleb128 0x12
 6031 24a9 5F0D0000 		.4byte	.LASF1422
 6032 24ad 01       		.byte	0x1
 6033 24ae CE03     		.2byte	0x3ce
 6034 24b0 93000000 		.4byte	0x93
 6035 24b4 02       		.uleb128 0x2
 6036 24b5 91       		.byte	0x91
 6037 24b6 68       		.sleb128 -24
 6038 24b7 12       		.uleb128 0x12
 6039 24b8 A1320000 		.4byte	.LASF1423
 6040 24bc 01       		.byte	0x1
 6041 24bd CE03     		.2byte	0x3ce
 6042 24bf 93000000 		.4byte	0x93
 6043 24c3 02       		.uleb128 0x2
 6044 24c4 91       		.byte	0x91
 6045 24c5 64       		.sleb128 -28
 6046 24c6 13       		.uleb128 0x13
 6047 24c7 38340000 		.4byte	.LASF1425
 6048 24cb 01       		.byte	0x1
 6049 24cc D003     		.2byte	0x3d0
 6050 24ce 93000000 		.4byte	0x93
 6051 24d2 02       		.uleb128 0x2
 6052 24d3 91       		.byte	0x91
 6053 24d4 74       		.sleb128 -12
 6054 24d5 00       		.byte	0
 6055 24d6 11       		.uleb128 0x11
 6056 24d7 AA2B0000 		.4byte	.LASF1432
 6057 24db 01       		.byte	0x1
 6058 24dc 4B06     		.2byte	0x64b
 6059 24de 00000000 		.4byte	.LFB154
 6060 24e2 5C000000 		.4byte	.LFE154-.LFB154
 6061 24e6 01       		.uleb128 0x1
 6062 24e7 9C       		.byte	0x9c
ARM GAS  C:\Users\ikomb\AppData\Local\Temp\ccAzoKUN.s 			page 143


 6063 24e8 29250000 		.4byte	0x2529
 6064 24ec 12       		.uleb128 0x12
 6065 24ed 2F500000 		.4byte	.LASF1421
 6066 24f1 01       		.byte	0x1
 6067 24f2 4B06     		.2byte	0x64b
 6068 24f4 D1230000 		.4byte	0x23d1
 6069 24f8 02       		.uleb128 0x2
 6070 24f9 91       		.byte	0x91
 6071 24fa 6C       		.sleb128 -20
 6072 24fb 12       		.uleb128 0x12
 6073 24fc 5F0D0000 		.4byte	.LASF1422
 6074 2500 01       		.byte	0x1
 6075 2501 4B06     		.2byte	0x64b
 6076 2503 93000000 		.4byte	0x93
 6077 2507 02       		.uleb128 0x2
 6078 2508 91       		.byte	0x91
 6079 2509 68       		.sleb128 -24
 6080 250a 12       		.uleb128 0x12
 6081 250b A1320000 		.4byte	.LASF1423
 6082 250f 01       		.byte	0x1
 6083 2510 4B06     		.2byte	0x64b
 6084 2512 93000000 		.4byte	0x93
 6085 2516 02       		.uleb128 0x2
 6086 2517 91       		.byte	0x91
 6087 2518 64       		.sleb128 -28
 6088 2519 13       		.uleb128 0x13
 6089 251a 38340000 		.4byte	.LASF1425
 6090 251e 01       		.byte	0x1
 6091 251f 4D06     		.2byte	0x64d
 6092 2521 93000000 		.4byte	0x93
 6093 2525 02       		.uleb128 0x2
 6094 2526 91       		.byte	0x91
 6095 2527 74       		.sleb128 -12
 6096 2528 00       		.byte	0
 6097 2529 11       		.uleb128 0x11
 6098 252a A41A0000 		.4byte	.LASF1433
 6099 252e 01       		.byte	0x1
 6100 252f CF06     		.2byte	0x6cf
 6101 2531 00000000 		.4byte	.LFB158
 6102 2535 74000000 		.4byte	.LFE158-.LFB158
 6103 2539 01       		.uleb128 0x1
 6104 253a 9C       		.byte	0x9c
 6105 253b 8B250000 		.4byte	0x258b
 6106 253f 12       		.uleb128 0x12
 6107 2540 2F500000 		.4byte	.LASF1421
 6108 2544 01       		.byte	0x1
 6109 2545 CF06     		.2byte	0x6cf
 6110 2547 D1230000 		.4byte	0x23d1
 6111 254b 02       		.uleb128 0x2
 6112 254c 91       		.byte	0x91
 6113 254d 6C       		.sleb128 -20
 6114 254e 12       		.uleb128 0x12
 6115 254f 5F0D0000 		.4byte	.LASF1422
 6116 2553 01       		.byte	0x1
 6117 2554 CF06     		.2byte	0x6cf
 6118 2556 93000000 		.4byte	0x93
 6119 255a 02       		.uleb128 0x2
ARM GAS  C:\Users\ikomb\AppData\Local\Temp\ccAzoKUN.s 			page 144


 6120 255b 91       		.byte	0x91
 6121 255c 68       		.sleb128 -24
 6122 255d 12       		.uleb128 0x12
 6123 255e A1320000 		.4byte	.LASF1423
 6124 2562 01       		.byte	0x1
 6125 2563 CF06     		.2byte	0x6cf
 6126 2565 93000000 		.4byte	0x93
 6127 2569 02       		.uleb128 0x2
 6128 256a 91       		.byte	0x91
 6129 256b 64       		.sleb128 -28
 6130 256c 13       		.uleb128 0x13
 6131 256d 38340000 		.4byte	.LASF1425
 6132 2571 01       		.byte	0x1
 6133 2572 D106     		.2byte	0x6d1
 6134 2574 93000000 		.4byte	0x93
 6135 2578 02       		.uleb128 0x2
 6136 2579 91       		.byte	0x91
 6137 257a 70       		.sleb128 -16
 6138 257b 13       		.uleb128 0x13
 6139 257c DE000000 		.4byte	.LASF1430
 6140 2580 01       		.byte	0x1
 6141 2581 D206     		.2byte	0x6d2
 6142 2583 93000000 		.4byte	0x93
 6143 2587 02       		.uleb128 0x2
 6144 2588 91       		.byte	0x91
 6145 2589 74       		.sleb128 -12
 6146 258a 00       		.byte	0
 6147 258b 15       		.uleb128 0x15
 6148 258c B60A0000 		.4byte	.LASF1437
 6149 2590 02       		.byte	0x2
 6150 2591 31       		.byte	0x31
 6151 2592 25220000 		.4byte	0x2225
 6152 2596 00000000 		.4byte	.LFB163
 6153 259a 90020000 		.4byte	.LFE163-.LFB163
 6154 259e 01       		.uleb128 0x1
 6155 259f 9C       		.byte	0x9c
 6156 25a0 F9250000 		.4byte	0x25f9
 6157 25a4 16       		.uleb128 0x16
 6158 25a5 2F500000 		.4byte	.LASF1421
 6159 25a9 02       		.byte	0x2
 6160 25aa 31       		.byte	0x31
 6161 25ab D1230000 		.4byte	0x23d1
 6162 25af 02       		.uleb128 0x2
 6163 25b0 91       		.byte	0x91
 6164 25b1 64       		.sleb128 -28
 6165 25b2 16       		.uleb128 0x16
 6166 25b3 5F0D0000 		.4byte	.LASF1422
 6167 25b7 02       		.byte	0x2
 6168 25b8 31       		.byte	0x31
 6169 25b9 93000000 		.4byte	0x93
 6170 25bd 02       		.uleb128 0x2
 6171 25be 91       		.byte	0x91
 6172 25bf 60       		.sleb128 -32
 6173 25c0 16       		.uleb128 0x16
 6174 25c1 65060000 		.4byte	.LASF1434
 6175 25c5 02       		.byte	0x2
 6176 25c6 31       		.byte	0x31
ARM GAS  C:\Users\ikomb\AppData\Local\Temp\ccAzoKUN.s 			page 145


 6177 25c7 F9250000 		.4byte	0x25f9
 6178 25cb 02       		.uleb128 0x2
 6179 25cc 91       		.byte	0x91
 6180 25cd 5C       		.sleb128 -36
 6181 25ce 17       		.uleb128 0x17
 6182 25cf 81180000 		.4byte	.LASF1435
 6183 25d3 02       		.byte	0x2
 6184 25d4 33       		.byte	0x33
 6185 25d5 25220000 		.4byte	0x2225
 6186 25d9 02       		.uleb128 0x2
 6187 25da 91       		.byte	0x91
 6188 25db 74       		.sleb128 -12
 6189 25dc 17       		.uleb128 0x17
 6190 25dd 45320000 		.4byte	.LASF1436
 6191 25e1 02       		.byte	0x2
 6192 25e2 34       		.byte	0x34
 6193 25e3 93000000 		.4byte	0x93
 6194 25e7 02       		.uleb128 0x2
 6195 25e8 91       		.byte	0x91
 6196 25e9 70       		.sleb128 -16
 6197 25ea 17       		.uleb128 0x17
 6198 25eb 38340000 		.4byte	.LASF1425
 6199 25ef 02       		.byte	0x2
 6200 25f0 35       		.byte	0x35
 6201 25f1 93000000 		.4byte	0x93
 6202 25f5 02       		.uleb128 0x2
 6203 25f6 91       		.byte	0x91
 6204 25f7 6C       		.sleb128 -20
 6205 25f8 00       		.byte	0
 6206 25f9 14       		.uleb128 0x14
 6207 25fa 04       		.byte	0x4
 6208 25fb FF250000 		.4byte	0x25ff
 6209 25ff 06       		.uleb128 0x6
 6210 2600 55230000 		.4byte	0x2355
 6211 2604 15       		.uleb128 0x15
 6212 2605 6C060000 		.4byte	.LASF1438
 6213 2609 02       		.byte	0x2
 6214 260a 85       		.byte	0x85
 6215 260b 25220000 		.4byte	0x2225
 6216 260f 00000000 		.4byte	.LFB164
 6217 2613 14010000 		.4byte	.LFE164-.LFB164
 6218 2617 01       		.uleb128 0x1
 6219 2618 9C       		.byte	0x9c
 6220 2619 64260000 		.4byte	0x2664
 6221 261d 16       		.uleb128 0x16
 6222 261e 2F500000 		.4byte	.LASF1421
 6223 2622 02       		.byte	0x2
 6224 2623 85       		.byte	0x85
 6225 2624 D1230000 		.4byte	0x23d1
 6226 2628 02       		.uleb128 0x2
 6227 2629 91       		.byte	0x91
 6228 262a 64       		.sleb128 -28
 6229 262b 16       		.uleb128 0x16
 6230 262c 65060000 		.4byte	.LASF1434
 6231 2630 02       		.byte	0x2
 6232 2631 85       		.byte	0x85
 6233 2632 64260000 		.4byte	0x2664
ARM GAS  C:\Users\ikomb\AppData\Local\Temp\ccAzoKUN.s 			page 146


 6234 2636 02       		.uleb128 0x2
 6235 2637 91       		.byte	0x91
 6236 2638 60       		.sleb128 -32
 6237 2639 17       		.uleb128 0x17
 6238 263a 81180000 		.4byte	.LASF1435
 6239 263e 02       		.byte	0x2
 6240 263f 87       		.byte	0x87
 6241 2640 25220000 		.4byte	0x2225
 6242 2644 02       		.uleb128 0x2
 6243 2645 91       		.byte	0x91
 6244 2646 74       		.sleb128 -12
 6245 2647 17       		.uleb128 0x17
 6246 2648 59310000 		.4byte	.LASF1424
 6247 264c 02       		.byte	0x2
 6248 264d 88       		.byte	0x88
 6249 264e 93000000 		.4byte	0x93
 6250 2652 02       		.uleb128 0x2
 6251 2653 91       		.byte	0x91
 6252 2654 70       		.sleb128 -16
 6253 2655 17       		.uleb128 0x17
 6254 2656 EC2D0000 		.4byte	.LASF1439
 6255 265a 02       		.byte	0x2
 6256 265b 89       		.byte	0x89
 6257 265c D7230000 		.4byte	0x23d7
 6258 2660 02       		.uleb128 0x2
 6259 2661 91       		.byte	0x91
 6260 2662 6C       		.sleb128 -20
 6261 2663 00       		.byte	0
 6262 2664 14       		.uleb128 0x14
 6263 2665 04       		.byte	0x4
 6264 2666 6A260000 		.4byte	0x266a
 6265 266a 06       		.uleb128 0x6
 6266 266b A5220000 		.4byte	0x22a5
 6267 266f 18       		.uleb128 0x18
 6268 2670 50320000 		.4byte	.LASF1440
 6269 2674 02       		.byte	0x2
 6270 2675 CC       		.byte	0xcc
 6271 2676 00000000 		.4byte	.LFB165
 6272 267a B8000000 		.4byte	.LFE165-.LFB165
 6273 267e 01       		.uleb128 0x1
 6274 267f 9C       		.byte	0x9c
 6275 2680 D9260000 		.4byte	0x26d9
 6276 2684 16       		.uleb128 0x16
 6277 2685 2F500000 		.4byte	.LASF1421
 6278 2689 02       		.byte	0x2
 6279 268a CC       		.byte	0xcc
 6280 268b D1230000 		.4byte	0x23d1
 6281 268f 02       		.uleb128 0x2
 6282 2690 91       		.byte	0x91
 6283 2691 6C       		.sleb128 -20
 6284 2692 16       		.uleb128 0x16
 6285 2693 5F0D0000 		.4byte	.LASF1422
 6286 2697 02       		.byte	0x2
 6287 2698 CC       		.byte	0xcc
 6288 2699 93000000 		.4byte	0x93
 6289 269d 02       		.uleb128 0x2
 6290 269e 91       		.byte	0x91
ARM GAS  C:\Users\ikomb\AppData\Local\Temp\ccAzoKUN.s 			page 147


 6291 269f 68       		.sleb128 -24
 6292 26a0 16       		.uleb128 0x16
 6293 26a1 E61A0000 		.4byte	.LASF1408
 6294 26a5 02       		.byte	0x2
 6295 26a6 CC       		.byte	0xcc
 6296 26a7 93000000 		.4byte	0x93
 6297 26ab 02       		.uleb128 0x2
 6298 26ac 91       		.byte	0x91
 6299 26ad 64       		.sleb128 -28
 6300 26ae 16       		.uleb128 0x16
 6301 26af 13140000 		.4byte	.LASF1407
 6302 26b3 02       		.byte	0x2
 6303 26b4 CD       		.byte	0xcd
 6304 26b5 93000000 		.4byte	0x93
 6305 26b9 02       		.uleb128 0x2
 6306 26ba 91       		.byte	0x91
 6307 26bb 60       		.sleb128 -32
 6308 26bc 16       		.uleb128 0x16
 6309 26bd 2E3C0000 		.4byte	.LASF1409
 6310 26c1 02       		.byte	0x2
 6311 26c2 CD       		.byte	0xcd
 6312 26c3 A1200000 		.4byte	0x20a1
 6313 26c7 02       		.uleb128 0x2
 6314 26c8 91       		.byte	0x91
 6315 26c9 00       		.sleb128 0
 6316 26ca 17       		.uleb128 0x17
 6317 26cb 38340000 		.4byte	.LASF1425
 6318 26cf 02       		.byte	0x2
 6319 26d0 CF       		.byte	0xcf
 6320 26d1 93000000 		.4byte	0x93
 6321 26d5 02       		.uleb128 0x2
 6322 26d6 91       		.byte	0x91
 6323 26d7 74       		.sleb128 -12
 6324 26d8 00       		.byte	0
 6325 26d9 19       		.uleb128 0x19
 6326 26da 07360000 		.4byte	.LASF1441
 6327 26de 02       		.byte	0x2
 6328 26df F0       		.byte	0xf0
 6329 26e0 00000000 		.4byte	.LFB166
 6330 26e4 66000000 		.4byte	.LFE166-.LFB166
 6331 26e8 01       		.uleb128 0x1
 6332 26e9 9C       		.byte	0x9c
 6333 26ea 19270000 		.4byte	0x2719
 6334 26ee 16       		.uleb128 0x16
 6335 26ef 2F500000 		.4byte	.LASF1421
 6336 26f3 02       		.byte	0x2
 6337 26f4 F0       		.byte	0xf0
 6338 26f5 D1230000 		.4byte	0x23d1
 6339 26f9 02       		.uleb128 0x2
 6340 26fa 91       		.byte	0x91
 6341 26fb 6C       		.sleb128 -20
 6342 26fc 17       		.uleb128 0x17
 6343 26fd 59310000 		.4byte	.LASF1424
 6344 2701 02       		.byte	0x2
 6345 2702 F2       		.byte	0xf2
 6346 2703 93000000 		.4byte	0x93
 6347 2707 02       		.uleb128 0x2
ARM GAS  C:\Users\ikomb\AppData\Local\Temp\ccAzoKUN.s 			page 148


 6348 2708 91       		.byte	0x91
 6349 2709 74       		.sleb128 -12
 6350 270a 17       		.uleb128 0x17
 6351 270b CE030000 		.4byte	.LASF1426
 6352 270f 02       		.byte	0x2
 6353 2710 F3       		.byte	0xf3
 6354 2711 D7230000 		.4byte	0x23d7
 6355 2715 02       		.uleb128 0x2
 6356 2716 91       		.byte	0x91
 6357 2717 70       		.sleb128 -16
 6358 2718 00       		.byte	0
 6359 2719 1A       		.uleb128 0x1a
 6360 271a 7C290000 		.4byte	.LASF1445
 6361 271e 09       		.byte	0x9
 6362 271f EA07     		.2byte	0x7ea
 6363 2721 25270000 		.4byte	0x2725
 6364 2725 05       		.uleb128 0x5
 6365 2726 88000000 		.4byte	0x88
 6366 272a 00       		.byte	0
 6367              		.section	.debug_abbrev,"",%progbits
 6368              	.Ldebug_abbrev0:
 6369 0000 01       		.uleb128 0x1
 6370 0001 11       		.uleb128 0x11
 6371 0002 01       		.byte	0x1
 6372 0003 25       		.uleb128 0x25
 6373 0004 0E       		.uleb128 0xe
 6374 0005 13       		.uleb128 0x13
 6375 0006 0B       		.uleb128 0xb
 6376 0007 03       		.uleb128 0x3
 6377 0008 0E       		.uleb128 0xe
 6378 0009 1B       		.uleb128 0x1b
 6379 000a 0E       		.uleb128 0xe
 6380 000b 55       		.uleb128 0x55
 6381 000c 17       		.uleb128 0x17
 6382 000d 11       		.uleb128 0x11
 6383 000e 01       		.uleb128 0x1
 6384 000f 10       		.uleb128 0x10
 6385 0010 17       		.uleb128 0x17
 6386 0011 00       		.byte	0
 6387 0012 00       		.byte	0
 6388 0013 02       		.uleb128 0x2
 6389 0014 24       		.uleb128 0x24
 6390 0015 00       		.byte	0
 6391 0016 0B       		.uleb128 0xb
 6392 0017 0B       		.uleb128 0xb
 6393 0018 3E       		.uleb128 0x3e
 6394 0019 0B       		.uleb128 0xb
 6395 001a 03       		.uleb128 0x3
 6396 001b 08       		.uleb128 0x8
 6397 001c 00       		.byte	0
 6398 001d 00       		.byte	0
 6399 001e 03       		.uleb128 0x3
 6400 001f 24       		.uleb128 0x24
 6401 0020 00       		.byte	0
 6402 0021 0B       		.uleb128 0xb
 6403 0022 0B       		.uleb128 0xb
 6404 0023 3E       		.uleb128 0x3e
ARM GAS  C:\Users\ikomb\AppData\Local\Temp\ccAzoKUN.s 			page 149


 6405 0024 0B       		.uleb128 0xb
 6406 0025 03       		.uleb128 0x3
 6407 0026 0E       		.uleb128 0xe
 6408 0027 00       		.byte	0
 6409 0028 00       		.byte	0
 6410 0029 04       		.uleb128 0x4
 6411 002a 16       		.uleb128 0x16
 6412 002b 00       		.byte	0
 6413 002c 03       		.uleb128 0x3
 6414 002d 0E       		.uleb128 0xe
 6415 002e 3A       		.uleb128 0x3a
 6416 002f 0B       		.uleb128 0xb
 6417 0030 3B       		.uleb128 0x3b
 6418 0031 0B       		.uleb128 0xb
 6419 0032 49       		.uleb128 0x49
 6420 0033 13       		.uleb128 0x13
 6421 0034 00       		.byte	0
 6422 0035 00       		.byte	0
 6423 0036 05       		.uleb128 0x5
 6424 0037 35       		.uleb128 0x35
 6425 0038 00       		.byte	0
 6426 0039 49       		.uleb128 0x49
 6427 003a 13       		.uleb128 0x13
 6428 003b 00       		.byte	0
 6429 003c 00       		.byte	0
 6430 003d 06       		.uleb128 0x6
 6431 003e 26       		.uleb128 0x26
 6432 003f 00       		.byte	0
 6433 0040 49       		.uleb128 0x49
 6434 0041 13       		.uleb128 0x13
 6435 0042 00       		.byte	0
 6436 0043 00       		.byte	0
 6437 0044 07       		.uleb128 0x7
 6438 0045 01       		.uleb128 0x1
 6439 0046 01       		.byte	0x1
 6440 0047 49       		.uleb128 0x49
 6441 0048 13       		.uleb128 0x13
 6442 0049 01       		.uleb128 0x1
 6443 004a 13       		.uleb128 0x13
 6444 004b 00       		.byte	0
 6445 004c 00       		.byte	0
 6446 004d 08       		.uleb128 0x8
 6447 004e 21       		.uleb128 0x21
 6448 004f 00       		.byte	0
 6449 0050 49       		.uleb128 0x49
 6450 0051 13       		.uleb128 0x13
 6451 0052 2F       		.uleb128 0x2f
 6452 0053 0B       		.uleb128 0xb
 6453 0054 00       		.byte	0
 6454 0055 00       		.byte	0
 6455 0056 09       		.uleb128 0x9
 6456 0057 04       		.uleb128 0x4
 6457 0058 01       		.byte	0x1
 6458 0059 0B       		.uleb128 0xb
 6459 005a 0B       		.uleb128 0xb
 6460 005b 49       		.uleb128 0x49
 6461 005c 13       		.uleb128 0x13
ARM GAS  C:\Users\ikomb\AppData\Local\Temp\ccAzoKUN.s 			page 150


 6462 005d 3A       		.uleb128 0x3a
 6463 005e 0B       		.uleb128 0xb
 6464 005f 3B       		.uleb128 0x3b
 6465 0060 05       		.uleb128 0x5
 6466 0061 01       		.uleb128 0x1
 6467 0062 13       		.uleb128 0x13
 6468 0063 00       		.byte	0
 6469 0064 00       		.byte	0
 6470 0065 0A       		.uleb128 0xa
 6471 0066 28       		.uleb128 0x28
 6472 0067 00       		.byte	0
 6473 0068 03       		.uleb128 0x3
 6474 0069 0E       		.uleb128 0xe
 6475 006a 1C       		.uleb128 0x1c
 6476 006b 0B       		.uleb128 0xb
 6477 006c 00       		.byte	0
 6478 006d 00       		.byte	0
 6479 006e 0B       		.uleb128 0xb
 6480 006f 16       		.uleb128 0x16
 6481 0070 00       		.byte	0
 6482 0071 03       		.uleb128 0x3
 6483 0072 0E       		.uleb128 0xe
 6484 0073 3A       		.uleb128 0x3a
 6485 0074 0B       		.uleb128 0xb
 6486 0075 3B       		.uleb128 0x3b
 6487 0076 05       		.uleb128 0x5
 6488 0077 49       		.uleb128 0x49
 6489 0078 13       		.uleb128 0x13
 6490 0079 00       		.byte	0
 6491 007a 00       		.byte	0
 6492 007b 0C       		.uleb128 0xc
 6493 007c 13       		.uleb128 0x13
 6494 007d 01       		.byte	0x1
 6495 007e 0B       		.uleb128 0xb
 6496 007f 0B       		.uleb128 0xb
 6497 0080 3A       		.uleb128 0x3a
 6498 0081 0B       		.uleb128 0xb
 6499 0082 3B       		.uleb128 0x3b
 6500 0083 0B       		.uleb128 0xb
 6501 0084 01       		.uleb128 0x1
 6502 0085 13       		.uleb128 0x13
 6503 0086 00       		.byte	0
 6504 0087 00       		.byte	0
 6505 0088 0D       		.uleb128 0xd
 6506 0089 0D       		.uleb128 0xd
 6507 008a 00       		.byte	0
 6508 008b 03       		.uleb128 0x3
 6509 008c 0E       		.uleb128 0xe
 6510 008d 3A       		.uleb128 0x3a
 6511 008e 0B       		.uleb128 0xb
 6512 008f 3B       		.uleb128 0x3b
 6513 0090 0B       		.uleb128 0xb
 6514 0091 49       		.uleb128 0x49
 6515 0092 13       		.uleb128 0x13
 6516 0093 38       		.uleb128 0x38
 6517 0094 0B       		.uleb128 0xb
 6518 0095 00       		.byte	0
ARM GAS  C:\Users\ikomb\AppData\Local\Temp\ccAzoKUN.s 			page 151


 6519 0096 00       		.byte	0
 6520 0097 0E       		.uleb128 0xe
 6521 0098 0D       		.uleb128 0xd
 6522 0099 00       		.byte	0
 6523 009a 03       		.uleb128 0x3
 6524 009b 08       		.uleb128 0x8
 6525 009c 3A       		.uleb128 0x3a
 6526 009d 0B       		.uleb128 0xb
 6527 009e 3B       		.uleb128 0x3b
 6528 009f 0B       		.uleb128 0xb
 6529 00a0 49       		.uleb128 0x49
 6530 00a1 13       		.uleb128 0x13
 6531 00a2 38       		.uleb128 0x38
 6532 00a3 0B       		.uleb128 0xb
 6533 00a4 00       		.byte	0
 6534 00a5 00       		.byte	0
 6535 00a6 0F       		.uleb128 0xf
 6536 00a7 04       		.uleb128 0x4
 6537 00a8 01       		.byte	0x1
 6538 00a9 0B       		.uleb128 0xb
 6539 00aa 0B       		.uleb128 0xb
 6540 00ab 49       		.uleb128 0x49
 6541 00ac 13       		.uleb128 0x13
 6542 00ad 3A       		.uleb128 0x3a
 6543 00ae 0B       		.uleb128 0xb
 6544 00af 3B       		.uleb128 0x3b
 6545 00b0 0B       		.uleb128 0xb
 6546 00b1 01       		.uleb128 0x1
 6547 00b2 13       		.uleb128 0x13
 6548 00b3 00       		.byte	0
 6549 00b4 00       		.byte	0
 6550 00b5 10       		.uleb128 0x10
 6551 00b6 28       		.uleb128 0x28
 6552 00b7 00       		.byte	0
 6553 00b8 03       		.uleb128 0x3
 6554 00b9 0E       		.uleb128 0xe
 6555 00ba 1C       		.uleb128 0x1c
 6556 00bb 06       		.uleb128 0x6
 6557 00bc 00       		.byte	0
 6558 00bd 00       		.byte	0
 6559 00be 11       		.uleb128 0x11
 6560 00bf 2E       		.uleb128 0x2e
 6561 00c0 01       		.byte	0x1
 6562 00c1 03       		.uleb128 0x3
 6563 00c2 0E       		.uleb128 0xe
 6564 00c3 3A       		.uleb128 0x3a
 6565 00c4 0B       		.uleb128 0xb
 6566 00c5 3B       		.uleb128 0x3b
 6567 00c6 05       		.uleb128 0x5
 6568 00c7 27       		.uleb128 0x27
 6569 00c8 19       		.uleb128 0x19
 6570 00c9 11       		.uleb128 0x11
 6571 00ca 01       		.uleb128 0x1
 6572 00cb 12       		.uleb128 0x12
 6573 00cc 06       		.uleb128 0x6
 6574 00cd 40       		.uleb128 0x40
 6575 00ce 18       		.uleb128 0x18
ARM GAS  C:\Users\ikomb\AppData\Local\Temp\ccAzoKUN.s 			page 152


 6576 00cf 9642     		.uleb128 0x2116
 6577 00d1 19       		.uleb128 0x19
 6578 00d2 01       		.uleb128 0x1
 6579 00d3 13       		.uleb128 0x13
 6580 00d4 00       		.byte	0
 6581 00d5 00       		.byte	0
 6582 00d6 12       		.uleb128 0x12
 6583 00d7 05       		.uleb128 0x5
 6584 00d8 00       		.byte	0
 6585 00d9 03       		.uleb128 0x3
 6586 00da 0E       		.uleb128 0xe
 6587 00db 3A       		.uleb128 0x3a
 6588 00dc 0B       		.uleb128 0xb
 6589 00dd 3B       		.uleb128 0x3b
 6590 00de 05       		.uleb128 0x5
 6591 00df 49       		.uleb128 0x49
 6592 00e0 13       		.uleb128 0x13
 6593 00e1 02       		.uleb128 0x2
 6594 00e2 18       		.uleb128 0x18
 6595 00e3 00       		.byte	0
 6596 00e4 00       		.byte	0
 6597 00e5 13       		.uleb128 0x13
 6598 00e6 34       		.uleb128 0x34
 6599 00e7 00       		.byte	0
 6600 00e8 03       		.uleb128 0x3
 6601 00e9 0E       		.uleb128 0xe
 6602 00ea 3A       		.uleb128 0x3a
 6603 00eb 0B       		.uleb128 0xb
 6604 00ec 3B       		.uleb128 0x3b
 6605 00ed 05       		.uleb128 0x5
 6606 00ee 49       		.uleb128 0x49
 6607 00ef 13       		.uleb128 0x13
 6608 00f0 02       		.uleb128 0x2
 6609 00f1 18       		.uleb128 0x18
 6610 00f2 00       		.byte	0
 6611 00f3 00       		.byte	0
 6612 00f4 14       		.uleb128 0x14
 6613 00f5 0F       		.uleb128 0xf
 6614 00f6 00       		.byte	0
 6615 00f7 0B       		.uleb128 0xb
 6616 00f8 0B       		.uleb128 0xb
 6617 00f9 49       		.uleb128 0x49
 6618 00fa 13       		.uleb128 0x13
 6619 00fb 00       		.byte	0
 6620 00fc 00       		.byte	0
 6621 00fd 15       		.uleb128 0x15
 6622 00fe 2E       		.uleb128 0x2e
 6623 00ff 01       		.byte	0x1
 6624 0100 3F       		.uleb128 0x3f
 6625 0101 19       		.uleb128 0x19
 6626 0102 03       		.uleb128 0x3
 6627 0103 0E       		.uleb128 0xe
 6628 0104 3A       		.uleb128 0x3a
 6629 0105 0B       		.uleb128 0xb
 6630 0106 3B       		.uleb128 0x3b
 6631 0107 0B       		.uleb128 0xb
 6632 0108 27       		.uleb128 0x27
ARM GAS  C:\Users\ikomb\AppData\Local\Temp\ccAzoKUN.s 			page 153


 6633 0109 19       		.uleb128 0x19
 6634 010a 49       		.uleb128 0x49
 6635 010b 13       		.uleb128 0x13
 6636 010c 11       		.uleb128 0x11
 6637 010d 01       		.uleb128 0x1
 6638 010e 12       		.uleb128 0x12
 6639 010f 06       		.uleb128 0x6
 6640 0110 40       		.uleb128 0x40
 6641 0111 18       		.uleb128 0x18
 6642 0112 9642     		.uleb128 0x2116
 6643 0114 19       		.uleb128 0x19
 6644 0115 01       		.uleb128 0x1
 6645 0116 13       		.uleb128 0x13
 6646 0117 00       		.byte	0
 6647 0118 00       		.byte	0
 6648 0119 16       		.uleb128 0x16
 6649 011a 05       		.uleb128 0x5
 6650 011b 00       		.byte	0
 6651 011c 03       		.uleb128 0x3
 6652 011d 0E       		.uleb128 0xe
 6653 011e 3A       		.uleb128 0x3a
 6654 011f 0B       		.uleb128 0xb
 6655 0120 3B       		.uleb128 0x3b
 6656 0121 0B       		.uleb128 0xb
 6657 0122 49       		.uleb128 0x49
 6658 0123 13       		.uleb128 0x13
 6659 0124 02       		.uleb128 0x2
 6660 0125 18       		.uleb128 0x18
 6661 0126 00       		.byte	0
 6662 0127 00       		.byte	0
 6663 0128 17       		.uleb128 0x17
 6664 0129 34       		.uleb128 0x34
 6665 012a 00       		.byte	0
 6666 012b 03       		.uleb128 0x3
 6667 012c 0E       		.uleb128 0xe
 6668 012d 3A       		.uleb128 0x3a
 6669 012e 0B       		.uleb128 0xb
 6670 012f 3B       		.uleb128 0x3b
 6671 0130 0B       		.uleb128 0xb
 6672 0131 49       		.uleb128 0x49
 6673 0132 13       		.uleb128 0x13
 6674 0133 02       		.uleb128 0x2
 6675 0134 18       		.uleb128 0x18
 6676 0135 00       		.byte	0
 6677 0136 00       		.byte	0
 6678 0137 18       		.uleb128 0x18
 6679 0138 2E       		.uleb128 0x2e
 6680 0139 01       		.byte	0x1
 6681 013a 3F       		.uleb128 0x3f
 6682 013b 19       		.uleb128 0x19
 6683 013c 03       		.uleb128 0x3
 6684 013d 0E       		.uleb128 0xe
 6685 013e 3A       		.uleb128 0x3a
 6686 013f 0B       		.uleb128 0xb
 6687 0140 3B       		.uleb128 0x3b
 6688 0141 0B       		.uleb128 0xb
 6689 0142 27       		.uleb128 0x27
ARM GAS  C:\Users\ikomb\AppData\Local\Temp\ccAzoKUN.s 			page 154


 6690 0143 19       		.uleb128 0x19
 6691 0144 11       		.uleb128 0x11
 6692 0145 01       		.uleb128 0x1
 6693 0146 12       		.uleb128 0x12
 6694 0147 06       		.uleb128 0x6
 6695 0148 40       		.uleb128 0x40
 6696 0149 18       		.uleb128 0x18
 6697 014a 9642     		.uleb128 0x2116
 6698 014c 19       		.uleb128 0x19
 6699 014d 01       		.uleb128 0x1
 6700 014e 13       		.uleb128 0x13
 6701 014f 00       		.byte	0
 6702 0150 00       		.byte	0
 6703 0151 19       		.uleb128 0x19
 6704 0152 2E       		.uleb128 0x2e
 6705 0153 01       		.byte	0x1
 6706 0154 3F       		.uleb128 0x3f
 6707 0155 19       		.uleb128 0x19
 6708 0156 03       		.uleb128 0x3
 6709 0157 0E       		.uleb128 0xe
 6710 0158 3A       		.uleb128 0x3a
 6711 0159 0B       		.uleb128 0xb
 6712 015a 3B       		.uleb128 0x3b
 6713 015b 0B       		.uleb128 0xb
 6714 015c 27       		.uleb128 0x27
 6715 015d 19       		.uleb128 0x19
 6716 015e 11       		.uleb128 0x11
 6717 015f 01       		.uleb128 0x1
 6718 0160 12       		.uleb128 0x12
 6719 0161 06       		.uleb128 0x6
 6720 0162 40       		.uleb128 0x40
 6721 0163 18       		.uleb128 0x18
 6722 0164 9742     		.uleb128 0x2117
 6723 0166 19       		.uleb128 0x19
 6724 0167 01       		.uleb128 0x1
 6725 0168 13       		.uleb128 0x13
 6726 0169 00       		.byte	0
 6727 016a 00       		.byte	0
 6728 016b 1A       		.uleb128 0x1a
 6729 016c 34       		.uleb128 0x34
 6730 016d 00       		.byte	0
 6731 016e 03       		.uleb128 0x3
 6732 016f 0E       		.uleb128 0xe
 6733 0170 3A       		.uleb128 0x3a
 6734 0171 0B       		.uleb128 0xb
 6735 0172 3B       		.uleb128 0x3b
 6736 0173 05       		.uleb128 0x5
 6737 0174 49       		.uleb128 0x49
 6738 0175 13       		.uleb128 0x13
 6739 0176 3F       		.uleb128 0x3f
 6740 0177 19       		.uleb128 0x19
 6741 0178 3C       		.uleb128 0x3c
 6742 0179 19       		.uleb128 0x19
 6743 017a 00       		.byte	0
 6744 017b 00       		.byte	0
 6745 017c 00       		.byte	0
 6746              		.section	.debug_aranges,"",%progbits
ARM GAS  C:\Users\ikomb\AppData\Local\Temp\ccAzoKUN.s 			page 155


 6747 0000 64000000 		.4byte	0x64
 6748 0004 0200     		.2byte	0x2
 6749 0006 00000000 		.4byte	.Ldebug_info0
 6750 000a 04       		.byte	0x4
 6751 000b 00       		.byte	0
 6752 000c 0000     		.2byte	0
 6753 000e 0000     		.2byte	0
 6754 0010 00000000 		.4byte	.LFB125
 6755 0014 B8000000 		.4byte	.LFE125-.LFB125
 6756 0018 00000000 		.4byte	.LFB129
 6757 001c 54000000 		.4byte	.LFE129-.LFB129
 6758 0020 00000000 		.4byte	.LFB134
 6759 0024 68000000 		.4byte	.LFE134-.LFB134
 6760 0028 00000000 		.4byte	.LFB136
 6761 002c 5C000000 		.4byte	.LFE136-.LFB136
 6762 0030 00000000 		.4byte	.LFB154
 6763 0034 5C000000 		.4byte	.LFE154-.LFB154
 6764 0038 00000000 		.4byte	.LFB158
 6765 003c 74000000 		.4byte	.LFE158-.LFB158
 6766 0040 00000000 		.4byte	.LFB163
 6767 0044 90020000 		.4byte	.LFE163-.LFB163
 6768 0048 00000000 		.4byte	.LFB164
 6769 004c 14010000 		.4byte	.LFE164-.LFB164
 6770 0050 00000000 		.4byte	.LFB165
 6771 0054 B8000000 		.4byte	.LFE165-.LFB165
 6772 0058 00000000 		.4byte	.LFB166
 6773 005c 66000000 		.4byte	.LFE166-.LFB166
 6774 0060 00000000 		.4byte	0
 6775 0064 00000000 		.4byte	0
 6776              		.section	.debug_ranges,"",%progbits
 6777              	.Ldebug_ranges0:
 6778 0000 00000000 		.4byte	.LFB125
 6779 0004 B8000000 		.4byte	.LFE125
 6780 0008 00000000 		.4byte	.LFB129
 6781 000c 54000000 		.4byte	.LFE129
 6782 0010 00000000 		.4byte	.LFB134
 6783 0014 68000000 		.4byte	.LFE134
 6784 0018 00000000 		.4byte	.LFB136
 6785 001c 5C000000 		.4byte	.LFE136
 6786 0020 00000000 		.4byte	.LFB154
 6787 0024 5C000000 		.4byte	.LFE154
 6788 0028 00000000 		.4byte	.LFB158
 6789 002c 74000000 		.4byte	.LFE158
 6790 0030 00000000 		.4byte	.LFB163
 6791 0034 90020000 		.4byte	.LFE163
 6792 0038 00000000 		.4byte	.LFB164
 6793 003c 14010000 		.4byte	.LFE164
 6794 0040 00000000 		.4byte	.LFB165
 6795 0044 B8000000 		.4byte	.LFE165
 6796 0048 00000000 		.4byte	.LFB166
 6797 004c 66000000 		.4byte	.LFE166
 6798 0050 00000000 		.4byte	0
 6799 0054 00000000 		.4byte	0
 6800              		.section	.debug_line,"",%progbits
 6801              	.Ldebug_line0:
 6802 0000 0D050000 		.section	.debug_str,"MS",%progbits,1
 6802      02007802 
ARM GAS  C:\Users\ikomb\AppData\Local\Temp\ccAzoKUN.s 			page 156


 6802      00000201 
 6802      FB0E0D00 
 6802      01010101 
 6803              	.LASF1206:
 6804 0000 5031325F 		.ascii	"P12_1_LCD_SEG24\000"
 6804      315F4C43 
 6804      445F5345 
 6804      47323400 
 6805              	.LASF1:
 6806 0010 6C6F6E67 		.ascii	"long long int\000"
 6806      206C6F6E 
 6806      6720696E 
 6806      7400
 6807              	.LASF1014:
 6808 001e 5031305F 		.ascii	"P10_5_GPIO\000"
 6808      355F4750 
 6808      494F00
 6809              	.LASF1314:
 6810 0029 5031335F 		.ascii	"P13_0_AMUXA_DSI\000"
 6810      305F414D 
 6810      5558415F 
 6810      44534900 
 6811              	.LASF1155:
 6812 0039 5031315F 		.ascii	"P11_6_AMUXA\000"
 6812      365F414D 
 6812      55584100 
 6813              	.LASF1156:
 6814 0045 5031315F 		.ascii	"P11_6_AMUXB\000"
 6814      365F414D 
 6814      55584200 
 6815              	.LASF675:
 6816 0051 50385F30 		.ascii	"P8_0_SCB4_UART_RX\000"
 6816      5F534342 
 6816      345F5541 
 6816      52545F52 
 6816      5800
 6817              	.LASF1129:
 6818 0063 5031315F 		.ascii	"P11_4_CSD_CSD_TX_N\000"
 6818      345F4353 
 6818      445F4353 
 6818      445F5458 
 6818      5F4E00
 6819              	.LASF1367:
 6820 0076 5031335F 		.ascii	"P13_7_TCPWM0_LINE_COMPL3\000"
 6820      375F5443 
 6820      50574D30 
 6820      5F4C494E 
 6820      455F434F 
 6821              	.LASF1075:
 6822 008f 5031315F 		.ascii	"P11_1_CSD_CSD_TX_N\000"
 6822      315F4353 
 6822      445F4353 
 6822      445F5458 
 6822      5F4E00
 6823              	.LASF65:
 6824 00a2 50305F31 		.ascii	"P0_1_GPIO_DSI\000"
 6824      5F475049 
ARM GAS  C:\Users\ikomb\AppData\Local\Temp\ccAzoKUN.s 			page 157


 6824      4F5F4453 
 6824      4900
 6825              	.LASF541:
 6826 00b0 50375F30 		.ascii	"P7_0_PERI_TR_IO_INPUT14\000"
 6826      5F504552 
 6826      495F5452 
 6826      5F494F5F 
 6826      494E5055 
 6827              	.LASF624:
 6828 00c8 50375F35 		.ascii	"P7_5_SCB4_SPI_SELECT2\000"
 6828      5F534342 
 6828      345F5350 
 6828      495F5345 
 6828      4C454354 
 6829              	.LASF1430:
 6830 00de 70696E4C 		.ascii	"pinLoc\000"
 6830      6F6300
 6831              	.LASF530:
 6832 00e5 50375F30 		.ascii	"P7_0_AMUXA_DSI\000"
 6832      5F414D55 
 6832      58415F44 
 6832      534900
 6833              	.LASF869:
 6834 00f4 50395F34 		.ascii	"P9_4_DSI_DSI\000"
 6834      5F445349 
 6834      5F445349 
 6834      00
 6835              	.LASF1310:
 6836 0101 5031335F 		.ascii	"P13_0_DSI_DSI\000"
 6836      305F4453 
 6836      495F4453 
 6836      4900
 6837              	.LASF516:
 6838 010f 50365F37 		.ascii	"P6_7_CSD_CSD_TX\000"
 6838      5F435344 
 6838      5F435344 
 6838      5F545800 
 6839              	.LASF673:
 6840 011f 50385F30 		.ascii	"P8_0_LCD_COM54\000"
 6840      5F4C4344 
 6840      5F434F4D 
 6840      353400
 6841              	.LASF1205:
 6842 012e 5031325F 		.ascii	"P12_1_LCD_COM24\000"
 6842      315F4C43 
 6842      445F434F 
 6842      4D323400 
 6843              	.LASF756:
 6844 013e 50385F35 		.ascii	"P8_5_CSD_CSD_TX\000"
 6844      5F435344 
 6844      5F435344 
 6844      5F545800 
 6845              	.LASF10:
 6846 014e 6C6F6E67 		.ascii	"long unsigned int\000"
 6846      20756E73 
 6846      69676E65 
 6846      6420696E 
ARM GAS  C:\Users\ikomb\AppData\Local\Temp\ccAzoKUN.s 			page 158


 6846      7400
 6847              	.LASF1337:
 6848 0160 5031335F 		.ascii	"P13_1_CSD_CSD_TX_N\000"
 6848      315F4353 
 6848      445F4353 
 6848      445F5458 
 6848      5F4E00
 6849              	.LASF525:
 6850 0173 50375F30 		.ascii	"P7_0_GPIO_DSI\000"
 6850      5F475049 
 6850      4F5F4453 
 6850      4900
 6851              	.LASF657:
 6852 0181 50375F37 		.ascii	"P7_7_LCD_SEG53\000"
 6852      5F4C4344 
 6852      5F534547 
 6852      353300
 6853              	.LASF275:
 6854 0190 50355F31 		.ascii	"P5_1_TCPWM0_LINE_COMPL4\000"
 6854      5F544350 
 6854      574D305F 
 6854      4C494E45 
 6854      5F434F4D 
 6855              	.LASF1149:
 6856 01a8 5031315F 		.ascii	"P11_5_SMIF_SPI_DATA1\000"
 6856      355F534D 
 6856      49465F53 
 6856      50495F44 
 6856      41544131 
 6857              	.LASF401:
 6858 01bd 50365F31 		.ascii	"P6_1_LCD_SEG39\000"
 6858      5F4C4344 
 6858      5F534547 
 6858      333900
 6859              	.LASF634:
 6860 01cc 50375F36 		.ascii	"P7_6_AMUXB_DSI\000"
 6860      5F414D55 
 6860      58425F44 
 6860      534900
 6861              	.LASF1181:
 6862 01db 5031325F 		.ascii	"P12_0_AMUXB_DSI\000"
 6862      305F414D 
 6862      5558425F 
 6862      44534900 
 6863              	.LASF1300:
 6864 01eb 5031325F 		.ascii	"P12_7_AMUXA_DSI\000"
 6864      375F414D 
 6864      5558415F 
 6864      44534900 
 6865              	.LASF949:
 6866 01fb 5031305F 		.ascii	"P10_1_AMUXA\000"
 6866      315F414D 
 6866      55584100 
 6867              	.LASF950:
 6868 0207 5031305F 		.ascii	"P10_1_AMUXB\000"
 6868      315F414D 
 6868      55584200 
ARM GAS  C:\Users\ikomb\AppData\Local\Temp\ccAzoKUN.s 			page 159


 6869              	.LASF643:
 6870 0213 50375F36 		.ascii	"P7_6_CPUSS_TRACE_DATA1\000"
 6870      5F435055 
 6870      53535F54 
 6870      52414345 
 6870      5F444154 
 6871              	.LASF755:
 6872 022a 50385F35 		.ascii	"P8_5_TCPWM1_LINE_COMPL18\000"
 6872      5F544350 
 6872      574D315F 
 6872      4C494E45 
 6872      5F434F4D 
 6873              	.LASF66:
 6874 0243 50305F31 		.ascii	"P0_1_DSI_DSI\000"
 6874      5F445349 
 6874      5F445349 
 6874      00
 6875              	.LASF750:
 6876 0250 50385F35 		.ascii	"P8_5_AMUXA\000"
 6876      5F414D55 
 6876      584100
 6877              	.LASF751:
 6878 025b 50385F35 		.ascii	"P8_5_AMUXB\000"
 6878      5F414D55 
 6878      584200
 6879              	.LASF1266:
 6880 0266 5031325F 		.ascii	"P12_5_DSI_GPIO\000"
 6880      355F4453 
 6880      495F4750 
 6880      494F00
 6881              	.LASF281:
 6882 0275 50355F31 		.ascii	"P5_1_SCB5_UART_TX\000"
 6882      5F534342 
 6882      355F5541 
 6882      52545F54 
 6882      5800
 6883              	.LASF870:
 6884 0287 50395F34 		.ascii	"P9_4_DSI_GPIO\000"
 6884      5F445349 
 6884      5F475049 
 6884      4F00
 6885              	.LASF85:
 6886 0295 50305F32 		.ascii	"P0_2_AMUXA\000"
 6886      5F414D55 
 6886      584100
 6887              	.LASF86:
 6888 02a0 50305F32 		.ascii	"P0_2_AMUXB\000"
 6888      5F414D55 
 6888      584200
 6889              	.LASF656:
 6890 02ab 50375F37 		.ascii	"P7_7_LCD_COM53\000"
 6890      5F4C4344 
 6890      5F434F4D 
 6890      353300
 6891              	.LASF1120:
 6892 02ba 5031315F 		.ascii	"P11_4_DSI_DSI\000"
 6892      345F4453 
ARM GAS  C:\Users\ikomb\AppData\Local\Temp\ccAzoKUN.s 			page 160


 6892      495F4453 
 6892      4900
 6893              	.LASF63:
 6894 02c8 50305F30 		.ascii	"P0_0_PERI_TR_IO_INPUT0\000"
 6894      5F504552 
 6894      495F5452 
 6894      5F494F5F 
 6894      494E5055 
 6895              	.LASF731:
 6896 02df 50385F34 		.ascii	"P8_4_GPIO\000"
 6896      5F475049 
 6896      4F00
 6897              	.LASF371:
 6898 02e9 50365F30 		.ascii	"P6_0_DSI_GPIO\000"
 6898      5F445349 
 6898      5F475049 
 6898      4F00
 6899              	.LASF977:
 6900 02f7 5031305F 		.ascii	"P10_2_LCD_SEG10\000"
 6900      325F4C43 
 6900      445F5345 
 6900      47313000 
 6901              	.LASF57:
 6902 0307 50305F30 		.ascii	"P0_0_CSD_CSD_TX\000"
 6902      5F435344 
 6902      5F435344 
 6902      5F545800 
 6903              	.LASF375:
 6904 0317 50365F30 		.ascii	"P6_0_AMUXB_DSI\000"
 6904      5F414D55 
 6904      58425F44 
 6904      534900
 6905              	.LASF843:
 6906 0326 50395F32 		.ascii	"P9_2_LCD_SEG2\000"
 6906      5F4C4344 
 6906      5F534547 
 6906      3200
 6907              	.LASF1143:
 6908 0334 5031315F 		.ascii	"P11_5_TCPWM0_LINE_COMPL3\000"
 6908      355F5443 
 6908      50574D30 
 6908      5F4C494E 
 6908      455F434F 
 6909              	.LASF512:
 6910 034d 50365F37 		.ascii	"P6_7_AMUXA_DSI\000"
 6910      5F414D55 
 6910      58415F44 
 6910      534900
 6911              	.LASF1064:
 6912 035c 5031315F 		.ascii	"P11_1_GPIO\000"
 6912      315F4750 
 6912      494F00
 6913              	.LASF645:
 6914 0367 50375F37 		.ascii	"P7_7_GPIO_DSI\000"
 6914      5F475049 
 6914      4F5F4453 
 6914      4900
ARM GAS  C:\Users\ikomb\AppData\Local\Temp\ccAzoKUN.s 			page 161


 6915              	.LASF766:
 6916 0375 50385F36 		.ascii	"P8_6_AMUXB\000"
 6916      5F414D55 
 6916      584200
 6917              	.LASF400:
 6918 0380 50365F31 		.ascii	"P6_1_LCD_COM39\000"
 6918      5F4C4344 
 6918      5F434F4D 
 6918      333900
 6919              	.LASF510:
 6920 038f 50365F37 		.ascii	"P6_7_AMUXA\000"
 6920      5F414D55 
 6920      584100
 6921              	.LASF511:
 6922 039a 50365F37 		.ascii	"P6_7_AMUXB\000"
 6922      5F414D55 
 6922      584200
 6923              	.LASF1184:
 6924 03a5 5031325F 		.ascii	"P12_0_CSD_CSD_TX\000"
 6924      305F4353 
 6924      445F4353 
 6924      445F5458 
 6924      00
 6925              	.LASF72:
 6926 03b6 50305F31 		.ascii	"P0_1_TCPWM0_LINE_COMPL0\000"
 6926      5F544350 
 6926      574D305F 
 6926      4C494E45 
 6926      5F434F4D 
 6927              	.LASF1426:
 6928 03ce 706F7274 		.ascii	"portAddrHSIOM\000"
 6928      41646472 
 6928      4853494F 
 6928      4D00
 6929              	.LASF1172:
 6930 03dc 5031315F 		.ascii	"P11_7_AMUXB_DSI\000"
 6930      375F414D 
 6930      5558425F 
 6930      44534900 
 6931              	.LASF976:
 6932 03ec 5031305F 		.ascii	"P10_2_LCD_COM10\000"
 6932      325F4C43 
 6932      445F434F 
 6932      4D313000 
 6933              	.LASF1290:
 6934 03fc 5031325F 		.ascii	"P12_6_CSD_CSD_TX_N\000"
 6934      365F4353 
 6934      445F4353 
 6934      445F5458 
 6934      5F4E00
 6935              	.LASF1133:
 6936 040f 5031315F 		.ascii	"P11_4_SCB5_SPI_SELECT1\000"
 6936      345F5343 
 6936      42355F53 
 6936      50495F53 
 6936      454C4543 
 6937              	.LASF146:
ARM GAS  C:\Users\ikomb\AppData\Local\Temp\ccAzoKUN.s 			page 162


 6938 0426 50305F35 		.ascii	"P0_5_SRSS_EXT_CLK\000"
 6938      5F535253 
 6938      535F4558 
 6938      545F434C 
 6938      4B00
 6939              	.LASF528:
 6940 0438 50375F30 		.ascii	"P7_0_AMUXA\000"
 6940      5F414D55 
 6940      584100
 6941              	.LASF529:
 6942 0443 50375F30 		.ascii	"P7_0_AMUXB\000"
 6942      5F414D55 
 6942      584200
 6943              	.LASF1277:
 6944 044e 5031325F 		.ascii	"P12_5_SCB6_SPI_SELECT2\000"
 6944      355F5343 
 6944      42365F53 
 6944      50495F53 
 6944      454C4543 
 6945              	.LASF273:
 6946 0465 50355F31 		.ascii	"P5_1_AMUXA_DSI\000"
 6946      5F414D55 
 6946      58415F44 
 6946      534900
 6947              	.LASF363:
 6948 0474 50355F36 		.ascii	"P5_6_CSD_CSD_TX_N\000"
 6948      5F435344 
 6948      5F435344 
 6948      5F54585F 
 6948      4E00
 6949              	.LASF825:
 6950 0486 50395F31 		.ascii	"P9_1_SCB2_I2C_SDA\000"
 6950      5F534342 
 6950      325F4932 
 6950      435F5344 
 6950      4100
 6951              	.LASF745:
 6952 0498 50385F34 		.ascii	"P8_4_SCB4_SPI_SELECT1\000"
 6952      5F534342 
 6952      345F5350 
 6952      495F5345 
 6952      4C454354 
 6953              	.LASF837:
 6954 04ae 50395F32 		.ascii	"P9_2_AMUXB_DSI\000"
 6954      5F414D55 
 6954      58425F44 
 6954      534900
 6955              	.LASF791:
 6956 04bd 50395F30 		.ascii	"P9_0_GPIO\000"
 6956      5F475049 
 6956      4F00
 6957              	.LASF345:
 6958 04c7 50355F35 		.ascii	"P5_5_TCPWM1_LINE_COMPL6\000"
 6958      5F544350 
 6958      574D315F 
 6958      4C494E45 
 6958      5F434F4D 
ARM GAS  C:\Users\ikomb\AppData\Local\Temp\ccAzoKUN.s 			page 163


 6959              	.LASF638:
 6960 04df 50375F36 		.ascii	"P7_6_CSD_CSD_TX_N\000"
 6960      5F435344 
 6960      5F435344 
 6960      5F54585F 
 6960      4E00
 6961              	.LASF952:
 6962 04f1 5031305F 		.ascii	"P10_1_AMUXB_DSI\000"
 6962      315F414D 
 6962      5558425F 
 6962      44534900 
 6963              	.LASF183:
 6964 0501 50315F31 		.ascii	"P1_1_SCB7_I2C_SDA\000"
 6964      5F534342 
 6964      375F4932 
 6964      435F5344 
 6964      4100
 6965              	.LASF610:
 6966 0513 50375F35 		.ascii	"P7_5_GPIO\000"
 6966      5F475049 
 6966      4F00
 6967              	.LASF53:
 6968 051d 50305F30 		.ascii	"P0_0_AMUXA_DSI\000"
 6968      5F414D55 
 6968      58415F44 
 6968      534900
 6969              	.LASF1295:
 6970 052c 5031325F 		.ascii	"P12_7_GPIO_DSI\000"
 6970      375F4750 
 6970      494F5F44 
 6970      534900
 6971              	.LASF571:
 6972 053b 50375F32 		.ascii	"P7_2_CSD_CSD_TX\000"
 6972      5F435344 
 6972      5F435344 
 6972      5F545800 
 6973              	.LASF290:
 6974 054b 50355F32 		.ascii	"P5_2_AMUXA\000"
 6974      5F414D55 
 6974      584100
 6975              	.LASF291:
 6976 0556 50355F32 		.ascii	"P5_2_AMUXB\000"
 6976      5F414D55 
 6976      584200
 6977              	.LASF801:
 6978 0561 50395F30 		.ascii	"P9_0_CSD_CSD_TX\000"
 6978      5F435344 
 6978      5F435344 
 6978      5F545800 
 6979              	.LASF842:
 6980 0571 50395F32 		.ascii	"P9_2_LCD_COM2\000"
 6980      5F4C4344 
 6980      5F434F4D 
 6980      3200
 6981              	.LASF733:
 6982 057f 50385F34 		.ascii	"P8_4_DSI_DSI\000"
 6982      5F445349 
ARM GAS  C:\Users\ikomb\AppData\Local\Temp\ccAzoKUN.s 			page 164


 6982      5F445349 
 6982      00
 6983              	.LASF522:
 6984 058c 50365F37 		.ascii	"P6_7_CPUSS_SWJ_SWCLK_TCLK\000"
 6984      5F435055 
 6984      53535F53 
 6984      574A5F53 
 6984      57434C4B 
 6985              	.LASF908:
 6986 05a6 50395F36 		.ascii	"P9_6_CSD_CSD_TX_N\000"
 6986      5F435344 
 6986      5F435344 
 6986      5F54585F 
 6986      4E00
 6987              	.LASF1374:
 6988 05b8 504F5254 		.ascii	"PORT_SEL0\000"
 6988      5F53454C 
 6988      3000
 6989              	.LASF1375:
 6990 05c2 504F5254 		.ascii	"PORT_SEL1\000"
 6990      5F53454C 
 6990      3100
 6991              	.LASF964:
 6992 05cc 5031305F 		.ascii	"P10_2_GPIO\000"
 6992      325F4750 
 6992      494F00
 6993              	.LASF955:
 6994 05d7 5031305F 		.ascii	"P10_1_CSD_CSD_TX\000"
 6994      315F4353 
 6994      445F4353 
 6994      445F5458 
 6994      00
 6995              	.LASF828:
 6996 05e8 50395F31 		.ascii	"P9_1_CPUSS_TRACE_DATA2\000"
 6996      5F435055 
 6996      53535F54 
 6996      52414345 
 6996      5F444154 
 6997              	.LASF92:
 6998 05ff 50305F32 		.ascii	"P0_2_CSD_CSD_TX_N\000"
 6998      5F435344 
 6998      5F435344 
 6998      5F54585F 
 6998      4E00
 6999              	.LASF244:
 7000 0611 50315F35 		.ascii	"P1_5_CSD_CSD_TX_N\000"
 7000      5F435344 
 7000      5F435344 
 7000      5F54585F 
 7000      4E00
 7001              	.LASF1152:
 7002 0623 5031315F 		.ascii	"P11_6_GPIO_DSI\000"
 7002      365F4750 
 7002      494F5F44 
 7002      534900
 7003              	.LASF720:
 7004 0632 50385F33 		.ascii	"P8_3_AMUXA_DSI\000"
ARM GAS  C:\Users\ikomb\AppData\Local\Temp\ccAzoKUN.s 			page 165


 7004      5F414D55 
 7004      58415F44 
 7004      534900
 7005              	.LASF663:
 7006 0641 50385F30 		.ascii	"P8_0_DSI_DSI\000"
 7006      5F445349 
 7006      5F445349 
 7006      00
 7007              	.LASF747:
 7008 064e 50385F35 		.ascii	"P8_5_GPIO_DSI\000"
 7008      5F475049 
 7008      4F5F4453 
 7008      4900
 7009              	.LASF13:
 7010 065c 75696E74 		.ascii	"uint32_t\000"
 7010      33325F74 
 7010      00
 7011              	.LASF1434:
 7012 0665 636F6E66 		.ascii	"config\000"
 7012      696700
 7013              	.LASF1438:
 7014 066c 43795F47 		.ascii	"Cy_GPIO_Port_Init\000"
 7014      50494F5F 
 7014      506F7274 
 7014      5F496E69 
 7014      7400
 7015              	.LASF268:
 7016 067e 50355F31 		.ascii	"P5_1_GPIO_DSI\000"
 7016      5F475049 
 7016      4F5F4453 
 7016      4900
 7017              	.LASF37:
 7018 068c 4853494F 		.ascii	"HSIOM_SEL_ACT_10\000"
 7018      4D5F5345 
 7018      4C5F4143 
 7018      545F3130 
 7018      00
 7019              	.LASF38:
 7020 069d 4853494F 		.ascii	"HSIOM_SEL_ACT_11\000"
 7020      4D5F5345 
 7020      4C5F4143 
 7020      545F3131 
 7020      00
 7021              	.LASF39:
 7022 06ae 4853494F 		.ascii	"HSIOM_SEL_ACT_12\000"
 7022      4D5F5345 
 7022      4C5F4143 
 7022      545F3132 
 7022      00
 7023              	.LASF40:
 7024 06bf 4853494F 		.ascii	"HSIOM_SEL_ACT_13\000"
 7024      4D5F5345 
 7024      4C5F4143 
 7024      545F3133 
 7024      00
 7025              	.LASF41:
 7026 06d0 4853494F 		.ascii	"HSIOM_SEL_ACT_14\000"
ARM GAS  C:\Users\ikomb\AppData\Local\Temp\ccAzoKUN.s 			page 166


 7026      4D5F5345 
 7026      4C5F4143 
 7026      545F3134 
 7026      00
 7027              	.LASF42:
 7028 06e1 4853494F 		.ascii	"HSIOM_SEL_ACT_15\000"
 7028      4D5F5345 
 7028      4C5F4143 
 7028      545F3135 
 7028      00
 7029              	.LASF1041:
 7030 06f2 5031305F 		.ascii	"P10_6_CSD_CSD_TX_N\000"
 7030      365F4353 
 7030      445F4353 
 7030      445F5458 
 7030      5F4E00
 7031              	.LASF216:
 7032 0705 50315F33 		.ascii	"P1_3_SCB7_UART_CTS\000"
 7032      5F534342 
 7032      375F5541 
 7032      52545F43 
 7032      545300
 7033              	.LASF128:
 7034 0718 50305F34 		.ascii	"P0_4_LCD_SEG4\000"
 7034      5F4C4344 
 7034      5F534547 
 7034      3400
 7035              	.LASF1201:
 7036 0726 5031325F 		.ascii	"P12_1_TCPWM0_LINE_COMPL4\000"
 7036      315F5443 
 7036      50574D30 
 7036      5F4C494E 
 7036      455F434F 
 7037              	.LASF1033:
 7038 073f 5031305F 		.ascii	"P10_6_DSI_GPIO\000"
 7038      365F4453 
 7038      495F4750 
 7038      494F00
 7039              	.LASF1235:
 7040 074e 5031325F 		.ascii	"P12_3_AMUXA_DSI\000"
 7040      335F414D 
 7040      5558415F 
 7040      44534900 
 7041              	.LASF2:
 7042 075e 6C6F6E67 		.ascii	"long double\000"
 7042      20646F75 
 7042      626C6500 
 7043              	.LASF329:
 7044 076a 50355F34 		.ascii	"P5_4_TCPWM1_LINE6\000"
 7044      5F544350 
 7044      574D315F 
 7044      4C494E45 
 7044      3600
 7045              	.LASF613:
 7046 077c 50375F35 		.ascii	"P7_5_DSI_GPIO\000"
 7046      5F445349 
 7046      5F475049 
ARM GAS  C:\Users\ikomb\AppData\Local\Temp\ccAzoKUN.s 			page 167


 7046      4F00
 7047              	.LASF1140:
 7048 078a 5031315F 		.ascii	"P11_5_AMUXB\000"
 7048      355F414D 
 7048      55584200 
 7049              	.LASF586:
 7050 0796 50375F33 		.ascii	"P7_3_TCPWM1_LINE_COMPL13\000"
 7050      5F544350 
 7050      574D315F 
 7050      4C494E45 
 7050      5F434F4D 
 7051              	.LASF444:
 7052 07af 50365F34 		.ascii	"P6_4_DSI_DSI\000"
 7052      5F445349 
 7052      5F445349 
 7052      00
 7053              	.LASF928:
 7054 07bc 5031305F 		.ascii	"P10_0_DSI_DSI\000"
 7054      305F4453 
 7054      495F4453 
 7054      4900
 7055              	.LASF606:
 7056 07ca 50375F34 		.ascii	"P7_4_LCD_SEG50\000"
 7056      5F4C4344 
 7056      5F534547 
 7056      353000
 7057              	.LASF727:
 7058 07d9 50385F33 		.ascii	"P8_3_LCD_SEG57\000"
 7058      5F4C4344 
 7058      5F534547 
 7058      353700
 7059              	.LASF1148:
 7060 07e8 5031315F 		.ascii	"P11_5_LCD_SEG21\000"
 7060      355F4C43 
 7060      445F5345 
 7060      47323100 
 7061              	.LASF679:
 7062 07f8 50385F31 		.ascii	"P8_1_GPIO\000"
 7062      5F475049 
 7062      4F00
 7063              	.LASF1241:
 7064 0802 5031325F 		.ascii	"P12_3_LCD_COM26\000"
 7064      335F4C43 
 7064      445F434F 
 7064      4D323600 
 7065              	.LASF185:
 7066 0812 50315F31 		.ascii	"P1_1_PERI_TR_IO_INPUT3\000"
 7066      5F504552 
 7066      495F5452 
 7066      5F494F5F 
 7066      494E5055 
 7067              	.LASF232:
 7068 0829 50315F34 		.ascii	"P1_4_SCB7_SPI_SELECT1\000"
 7068      5F534342 
 7068      375F5350 
 7068      495F5345 
 7068      4C454354 
ARM GAS  C:\Users\ikomb\AppData\Local\Temp\ccAzoKUN.s 			page 168


 7069              	.LASF1353:
 7070 083f 5031335F 		.ascii	"P13_6_TCPWM1_LINE11\000"
 7070      365F5443 
 7070      50574D31 
 7070      5F4C494E 
 7070      45313100 
 7071              	.LASF891:
 7072 0853 50395F35 		.ascii	"P9_5_TCPWM1_LINE_COMPL0\000"
 7072      5F544350 
 7072      574D315F 
 7072      4C494E45 
 7072      5F434F4D 
 7073              	.LASF386:
 7074 086b 50365F30 		.ascii	"P6_0_CPUSS_FAULT_OUT0\000"
 7074      5F435055 
 7074      53535F46 
 7074      41554C54 
 7074      5F4F5554 
 7075              	.LASF1115:
 7076 0881 5031315F 		.ascii	"P11_3_SCB5_UART_CTS\000"
 7076      335F5343 
 7076      42355F55 
 7076      4152545F 
 7076      43545300 
 7077              	.LASF419:
 7078 0895 50365F32 		.ascii	"P6_2_CSD_CSD_TX_N\000"
 7078      5F435344 
 7078      5F435344 
 7078      5F54585F 
 7078      4E00
 7079              	.LASF488:
 7080 08a7 50365F36 		.ascii	"P6_6_GPIO\000"
 7080      5F475049 
 7080      4F00
 7081              	.LASF218:
 7082 08b1 50315F34 		.ascii	"P1_4_GPIO\000"
 7082      5F475049 
 7082      4F00
 7083              	.LASF15:
 7084 08bb 4853494F 		.ascii	"HSIOM_SEL_GPIO\000"
 7084      4D5F5345 
 7084      4C5F4750 
 7084      494F00
 7085              	.LASF142:
 7086 08ca 50305F35 		.ascii	"P0_5_CSD_CSD_TX\000"
 7086      5F435344 
 7086      5F435344 
 7086      5F545800 
 7087              	.LASF301:
 7088 08da 50355F32 		.ascii	"P5_2_SCB5_SPI_CLK\000"
 7088      5F534342 
 7088      355F5350 
 7088      495F434C 
 7088      4B00
 7089              	.LASF1323:
 7090 08ec 5031335F 		.ascii	"P13_0_SCB6_I2C_SCL\000"
 7090      305F5343 
ARM GAS  C:\Users\ikomb\AppData\Local\Temp\ccAzoKUN.s 			page 169


 7090      42365F49 
 7090      32435F53 
 7090      434C00
 7091              	.LASF605:
 7092 08ff 50375F34 		.ascii	"P7_4_LCD_COM50\000"
 7092      5F4C4344 
 7092      5F434F4D 
 7092      353000
 7093              	.LASF930:
 7094 090e 5031305F 		.ascii	"P10_0_AMUXA\000"
 7094      305F414D 
 7094      55584100 
 7095              	.LASF931:
 7096 091a 5031305F 		.ascii	"P10_0_AMUXB\000"
 7096      305F414D 
 7096      55584200 
 7097              	.LASF1147:
 7098 0926 5031315F 		.ascii	"P11_5_LCD_COM21\000"
 7098      355F4C43 
 7098      445F434F 
 7098      4D323100 
 7099              	.LASF708:
 7100 0936 50385F32 		.ascii	"P8_2_CSD_CSD_TX_N\000"
 7100      5F435344 
 7100      5F435344 
 7100      5F54585F 
 7100      4E00
 7101              	.LASF1059:
 7102 0948 5031315F 		.ascii	"P11_0_SMIF_SPI_SELECT2\000"
 7102      305F534D 
 7102      49465F53 
 7102      50495F53 
 7102      454C4543 
 7103              	.LASF735:
 7104 095f 50385F34 		.ascii	"P8_4_AMUXA\000"
 7104      5F414D55 
 7104      584100
 7105              	.LASF736:
 7106 096a 50385F34 		.ascii	"P8_4_AMUXB\000"
 7106      5F414D55 
 7106      584200
 7107              	.LASF748:
 7108 0975 50385F35 		.ascii	"P8_5_DSI_DSI\000"
 7108      5F445349 
 7108      5F445349 
 7108      00
 7109              	.LASF876:
 7110 0982 50395F34 		.ascii	"P9_4_TCPWM1_LINE0\000"
 7110      5F544350 
 7110      574D315F 
 7110      4C494E45 
 7110      3000
 7111              	.LASF1247:
 7112 0994 5031325F 		.ascii	"P12_4_GPIO_DSI\000"
 7112      345F4750 
 7112      494F5F44 
 7112      534900
ARM GAS  C:\Users\ikomb\AppData\Local\Temp\ccAzoKUN.s 			page 170


 7113              	.LASF800:
 7114 09a3 50395F30 		.ascii	"P9_0_TCPWM1_LINE20\000"
 7114      5F544350 
 7114      574D315F 
 7114      4C494E45 
 7114      323000
 7115              	.LASF849:
 7116 09b6 50395F33 		.ascii	"P9_3_GPIO_DSI\000"
 7116      5F475049 
 7116      4F5F4453 
 7116      4900
 7117              	.LASF221:
 7118 09c4 50315F34 		.ascii	"P1_4_DSI_GPIO\000"
 7118      5F445349 
 7118      5F475049 
 7118      4F00
 7119              	.LASF68:
 7120 09d2 50305F31 		.ascii	"P0_1_AMUXA\000"
 7120      5F414D55 
 7120      584100
 7121              	.LASF69:
 7122 09dd 50305F31 		.ascii	"P0_1_AMUXB\000"
 7122      5F414D55 
 7122      584200
 7123              	.LASF127:
 7124 09e8 50305F34 		.ascii	"P0_4_LCD_COM4\000"
 7124      5F4C4344 
 7124      5F434F4D 
 7124      3400
 7125              	.LASF285:
 7126 09f6 50355F31 		.ascii	"P5_1_PERI_TR_IO_INPUT11\000"
 7126      5F504552 
 7126      495F5452 
 7126      5F494F5F 
 7126      494E5055 
 7127              	.LASF56:
 7128 0a0e 50305F30 		.ascii	"P0_0_TCPWM1_LINE0\000"
 7128      5F544350 
 7128      574D315F 
 7128      4C494E45 
 7128      3000
 7129              	.LASF1007:
 7130 0a20 5031305F 		.ascii	"P10_4_TCPWM1_LINE0\000"
 7130      345F5443 
 7130      50574D31 
 7130      5F4C494E 
 7130      453000
 7131              	.LASF1195:
 7132 0a33 5031325F 		.ascii	"P12_1_DSI_DSI\000"
 7132      315F4453 
 7132      495F4453 
 7132      4900
 7133              	.LASF1175:
 7134 0a41 5031325F 		.ascii	"P12_0_GPIO_DSI\000"
 7134      305F4750 
 7134      494F5F44 
 7134      534900
ARM GAS  C:\Users\ikomb\AppData\Local\Temp\ccAzoKUN.s 			page 171


 7135              	.LASF300:
 7136 0a50 50355F32 		.ascii	"P5_2_SCB5_UART_RTS\000"
 7136      5F534342 
 7136      355F5541 
 7136      52545F52 
 7136      545300
 7137              	.LASF349:
 7138 0a63 50355F35 		.ascii	"P5_5_LCD_SEG35\000"
 7138      5F4C4344 
 7138      5F534547 
 7138      333500
 7139              	.LASF1125:
 7140 0a72 5031315F 		.ascii	"P11_4_AMUXB_DSI\000"
 7140      345F414D 
 7140      5558425F 
 7140      44534900 
 7141              	.LASF199:
 7142 0a82 50315F32 		.ascii	"P1_2_LCD_SEG8\000"
 7142      5F4C4344 
 7142      5F534547 
 7142      3800
 7143              	.LASF712:
 7144 0a90 50385F32 		.ascii	"P8_2_SCB4_UART_RTS\000"
 7144      5F534342 
 7144      345F5541 
 7144      52545F52 
 7144      545300
 7145              	.LASF1094:
 7146 0aa3 5031315F 		.ascii	"P11_2_CSD_CSD_TX_N\000"
 7146      325F4353 
 7146      445F4353 
 7146      445F5458 
 7146      5F4E00
 7147              	.LASF1437:
 7148 0ab6 43795F47 		.ascii	"Cy_GPIO_Pin_Init\000"
 7148      50494F5F 
 7148      50696E5F 
 7148      496E6974 
 7148      00
 7149              	.LASF492:
 7150 0ac7 50365F36 		.ascii	"P6_6_AMUXA\000"
 7150      5F414D55 
 7150      584100
 7151              	.LASF493:
 7152 0ad2 50365F36 		.ascii	"P6_6_AMUXB\000"
 7152      5F414D55 
 7152      584200
 7153              	.LASF1255:
 7154 0add 5031325F 		.ascii	"P12_4_TCPWM1_LINE6\000"
 7154      345F5443 
 7154      50574D31 
 7154      5F4C494E 
 7154      453600
 7155              	.LASF208:
 7156 0af0 50315F33 		.ascii	"P1_3_AMUXA_DSI\000"
 7156      5F414D55 
 7156      58415F44 
ARM GAS  C:\Users\ikomb\AppData\Local\Temp\ccAzoKUN.s 			page 172


 7156      534900
 7157              	.LASF725:
 7158 0aff 50385F33 		.ascii	"P8_3_CSD_CSD_TX_N\000"
 7158      5F435344 
 7158      5F435344 
 7158      5F54585F 
 7158      4E00
 7159              	.LASF1121:
 7160 0b11 5031315F 		.ascii	"P11_4_DSI_GPIO\000"
 7160      345F4453 
 7160      495F4750 
 7160      494F00
 7161              	.LASF561:
 7162 0b20 50375F32 		.ascii	"P7_2_GPIO\000"
 7162      5F475049 
 7162      4F00
 7163              	.LASF717:
 7164 0b2a 50385F33 		.ascii	"P8_3_DSI_GPIO\000"
 7164      5F445349 
 7164      5F475049 
 7164      4F00
 7165              	.LASF1016:
 7166 0b38 5031305F 		.ascii	"P10_5_DSI_DSI\000"
 7166      355F4453 
 7166      495F4453 
 7166      4900
 7167              	.LASF327:
 7168 0b46 50355F34 		.ascii	"P5_4_AMUXB_DSI\000"
 7168      5F414D55 
 7168      58425F44 
 7168      534900
 7169              	.LASF1002:
 7170 0b55 5031305F 		.ascii	"P10_4_AMUXA\000"
 7170      345F414D 
 7170      55584100 
 7171              	.LASF775:
 7172 0b61 50385F36 		.ascii	"P8_6_SCB4_SPI_SELECT3\000"
 7172      5F534342 
 7172      345F5350 
 7172      495F5345 
 7172      4C454354 
 7173              	.LASF348:
 7174 0b77 50355F35 		.ascii	"P5_5_LCD_COM35\000"
 7174      5F4C4344 
 7174      5F434F4D 
 7174      333500
 7175              	.LASF1413:
 7176 0b86 736C6577 		.ascii	"slewRate\000"
 7176      52617465 
 7176      00
 7177              	.LASF693:
 7178 0b8f 50385F31 		.ascii	"P8_1_SCB4_UART_TX\000"
 7178      5F534342 
 7178      345F5541 
 7178      52545F54 
 7178      5800
 7179              	.LASF654:
ARM GAS  C:\Users\ikomb\AppData\Local\Temp\ccAzoKUN.s 			page 173


 7180 0ba1 50375F37 		.ascii	"P7_7_CSD_CSD_TX\000"
 7180      5F435344 
 7180      5F435344 
 7180      5F545800 
 7181              	.LASF903:
 7182 0bb1 50395F36 		.ascii	"P9_6_AMUXA_DSI\000"
 7182      5F414D55 
 7182      58415F44 
 7182      534900
 7183              	.LASF892:
 7184 0bc0 50395F35 		.ascii	"P9_5_CSD_CSD_TX\000"
 7184      5F435344 
 7184      5F435344 
 7184      5F545800 
 7185              	.LASF489:
 7186 0bd0 50365F36 		.ascii	"P6_6_GPIO_DSI\000"
 7186      5F475049 
 7186      4F5F4453 
 7186      4900
 7187              	.LASF377:
 7188 0bde 50365F30 		.ascii	"P6_0_TCPWM1_LINE8\000"
 7188      5F544350 
 7188      574D315F 
 7188      4C494E45 
 7188      3800
 7189              	.LASF1029:
 7190 0bf0 5031305F 		.ascii	"P10_5_AUDIOSS_PDM_DATA\000"
 7190      355F4155 
 7190      44494F53 
 7190      535F5044 
 7190      4D5F4441 
 7191              	.LASF1020:
 7192 0c07 5031305F 		.ascii	"P10_5_AMUXA_DSI\000"
 7192      355F414D 
 7192      5558415F 
 7192      44534900 
 7193              	.LASF105:
 7194 0c17 50305F33 		.ascii	"P0_3_AMUXB_DSI\000"
 7194      5F414D55 
 7194      58425F44 
 7194      534900
 7195              	.LASF1401:
 7196 0c26 63666749 		.ascii	"cfgIn\000"
 7196      6E00
 7197              	.LASF263:
 7198 0c2c 50355F30 		.ascii	"P5_0_SCB5_I2C_SCL\000"
 7198      5F534342 
 7198      355F4932 
 7198      435F5343 
 7198      4C00
 7199              	.LASF132:
 7200 0c3e 50305F35 		.ascii	"P0_5_GPIO\000"
 7200      5F475049 
 7200      4F00
 7201              	.LASF355:
 7202 0c48 50355F36 		.ascii	"P5_6_DSI_GPIO\000"
 7202      5F445349 
ARM GAS  C:\Users\ikomb\AppData\Local\Temp\ccAzoKUN.s 			page 174


 7202      5F475049 
 7202      4F00
 7203              	.LASF1344:
 7204 0c56 5031335F 		.ascii	"P13_6_GPIO\000"
 7204      365F4750 
 7204      494F00
 7205              	.LASF160:
 7206 0c61 50315F30 		.ascii	"P1_0_CSD_CSD_TX\000"
 7206      5F435344 
 7206      5F435344 
 7206      5F545800 
 7207              	.LASF204:
 7208 0c71 50315F33 		.ascii	"P1_3_DSI_DSI\000"
 7208      5F445349 
 7208      5F445349 
 7208      00
 7209              	.LASF1339:
 7210 0c7e 5031335F 		.ascii	"P13_1_LCD_SEG32\000"
 7210      315F4C43 
 7210      445F5345 
 7210      47333200 
 7211              	.LASF184:
 7212 0c8e 50315F31 		.ascii	"P1_1_SCB7_SPI_MISO\000"
 7212      5F534342 
 7212      375F5350 
 7212      495F4D49 
 7212      534F00
 7213              	.LASF1302:
 7214 0ca1 5031325F 		.ascii	"P12_7_TCPWM0_LINE_COMPL7\000"
 7214      375F5443 
 7214      50574D30 
 7214      5F4C494E 
 7214      455F434F 
 7215              	.LASF768:
 7216 0cba 50385F36 		.ascii	"P8_6_AMUXB_DSI\000"
 7216      5F414D55 
 7216      58425F44 
 7216      534900
 7217              	.LASF271:
 7218 0cc9 50355F31 		.ascii	"P5_1_AMUXA\000"
 7218      5F414D55 
 7218      584100
 7219              	.LASF272:
 7220 0cd4 50355F31 		.ascii	"P5_1_AMUXB\000"
 7220      5F414D55 
 7220      584200
 7221              	.LASF667:
 7222 0cdf 50385F30 		.ascii	"P8_0_AMUXA_DSI\000"
 7222      5F414D55 
 7222      58415F44 
 7222      534900
 7223              	.LASF250:
 7224 0cee 50355F30 		.ascii	"P5_0_DSI_DSI\000"
 7224      5F445349 
 7224      5F445349 
 7224      00
 7225              	.LASF198:
ARM GAS  C:\Users\ikomb\AppData\Local\Temp\ccAzoKUN.s 			page 175


 7226 0cfb 50315F32 		.ascii	"P1_2_LCD_COM8\000"
 7226      5F4C4344 
 7226      5F434F4D 
 7226      3800
 7227              	.LASF1093:
 7228 0d09 5031315F 		.ascii	"P11_2_CSD_CSD_TX\000"
 7228      325F4353 
 7228      445F4353 
 7228      445F5458 
 7228      00
 7229              	.LASF1392:
 7230 0d1a 63686172 		.ascii	"char_t\000"
 7230      5F7400
 7231              	.LASF1318:
 7232 0d21 5031335F 		.ascii	"P13_0_CSD_CSD_TX\000"
 7232      305F4353 
 7232      445F4353 
 7232      445F5458 
 7232      00
 7233              	.LASF1281:
 7234 0d32 5031325F 		.ascii	"P12_6_DSI_DSI\000"
 7234      365F4453 
 7234      495F4453 
 7234      4900
 7235              	.LASF1402:
 7236 0d40 6366674F 		.ascii	"cfgOut\000"
 7236      757400
 7237              	.LASF276:
 7238 0d47 50355F31 		.ascii	"P5_1_TCPWM1_LINE_COMPL4\000"
 7238      5F544350 
 7238      574D315F 
 7238      4C494E45 
 7238      5F434F4D 
 7239              	.LASF1422:
 7240 0d5f 70696E4E 		.ascii	"pinNum\000"
 7240      756D00
 7241              	.LASF1315:
 7242 0d66 5031335F 		.ascii	"P13_0_AMUXB_DSI\000"
 7242      305F414D 
 7242      5558425F 
 7242      44534900 
 7243              	.LASF226:
 7244 0d76 50315F34 		.ascii	"P1_4_TCPWM0_LINE5\000"
 7244      5F544350 
 7244      574D305F 
 7244      4C494E45 
 7244      3500
 7245              	.LASF1365:
 7246 0d88 5031335F 		.ascii	"P13_7_AMUXA_DSI\000"
 7246      375F414D 
 7246      5558415F 
 7246      44534900 
 7247              	.LASF133:
 7248 0d98 50305F35 		.ascii	"P0_5_GPIO_DSI\000"
 7248      5F475049 
 7248      4F5F4453 
 7248      4900
ARM GAS  C:\Users\ikomb\AppData\Local\Temp\ccAzoKUN.s 			page 176


 7249              	.LASF1338:
 7250 0da6 5031335F 		.ascii	"P13_1_LCD_COM32\000"
 7250      315F4C43 
 7250      445F434F 
 7250      4D333200 
 7251              	.LASF973:
 7252 0db6 5031305F 		.ascii	"P10_2_TCPWM1_LINE23\000"
 7252      325F5443 
 7252      50574D31 
 7252      5F4C494E 
 7252      45323300 
 7253              	.LASF1215:
 7254 0dca 5031325F 		.ascii	"P12_2_DSI_GPIO\000"
 7254      325F4453 
 7254      495F4750 
 7254      494F00
 7255              	.LASF813:
 7256 0dd9 50395F31 		.ascii	"P9_1_DSI_GPIO\000"
 7256      5F445349 
 7256      5F475049 
 7256      4F00
 7257              	.LASF789:
 7258 0de7 50385F37 		.ascii	"P8_7_LCD_SEG61\000"
 7258      5F4C4344 
 7258      5F534547 
 7258      363100
 7259              	.LASF556:
 7260 0df6 50375F31 		.ascii	"P7_1_LCD_SEG47\000"
 7260      5F4C4344 
 7260      5F534547 
 7260      343700
 7261              	.LASF1054:
 7262 0e05 5031315F 		.ascii	"P11_0_TCPWM1_LINE1\000"
 7262      305F5443 
 7262      50574D31 
 7262      5F4C494E 
 7262      453100
 7263              	.LASF1096:
 7264 0e18 5031315F 		.ascii	"P11_2_LCD_SEG18\000"
 7264      325F4C43 
 7264      445F5345 
 7264      47313800 
 7265              	.LASF425:
 7266 0e28 50365F33 		.ascii	"P6_3_GPIO\000"
 7266      5F475049 
 7266      4F00
 7267              	.LASF531:
 7268 0e32 50375F30 		.ascii	"P7_0_AMUXB_DSI\000"
 7268      5F414D55 
 7268      58425F44 
 7268      534900
 7269              	.LASF168:
 7270 0e41 50315F31 		.ascii	"P1_1_GPIO\000"
 7270      5F475049 
 7270      4F00
 7271              	.LASF754:
 7272 0e4b 50385F35 		.ascii	"P8_5_TCPWM0_LINE_COMPL2\000"
ARM GAS  C:\Users\ikomb\AppData\Local\Temp\ccAzoKUN.s 			page 177


 7272      5F544350 
 7272      574D305F 
 7272      4C494E45 
 7272      5F434F4D 
 7273              	.LASF1044:
 7274 0e63 5031305F 		.ascii	"P10_6_SCB1_SPI_SELECT3\000"
 7274      365F5343 
 7274      42315F53 
 7274      50495F53 
 7274      454C4543 
 7275              	.LASF650:
 7276 0e7a 50375F37 		.ascii	"P7_7_AMUXA_DSI\000"
 7276      5F414D55 
 7276      58415F44 
 7276      534900
 7277              	.LASF1211:
 7278 0e89 5031325F 		.ascii	"P12_1_PERI_TR_IO_INPUT25\000"
 7278      315F5045 
 7278      52495F54 
 7278      525F494F 
 7278      5F494E50 
 7279              	.LASF1081:
 7280 0ea2 5031315F 		.ascii	"P11_1_SCB5_SPI_MISO\000"
 7280      315F5343 
 7280      42355F53 
 7280      50495F4D 
 7280      49534F00 
 7281              	.LASF655:
 7282 0eb6 50375F37 		.ascii	"P7_7_CSD_CSD_TX_N\000"
 7282      5F435344 
 7282      5F435344 
 7282      5F54585F 
 7282      4E00
 7283              	.LASF237:
 7284 0ec8 50315F35 		.ascii	"P1_5_AMUXA\000"
 7284      5F414D55 
 7284      584100
 7285              	.LASF238:
 7286 0ed3 50315F35 		.ascii	"P1_5_AMUXB\000"
 7286      5F414D55 
 7286      584200
 7287              	.LASF1317:
 7288 0ede 5031335F 		.ascii	"P13_0_TCPWM1_LINE8\000"
 7288      305F5443 
 7288      50574D31 
 7288      5F4C494E 
 7288      453800
 7289              	.LASF328:
 7290 0ef1 50355F34 		.ascii	"P5_4_TCPWM0_LINE6\000"
 7290      5F544350 
 7290      574D305F 
 7290      4C494E45 
 7290      3600
 7291              	.LASF594:
 7292 0f03 50375F34 		.ascii	"P7_4_GPIO_DSI\000"
 7292      5F475049 
 7292      4F5F4453 
ARM GAS  C:\Users\ikomb\AppData\Local\Temp\ccAzoKUN.s 			page 178


 7292      4900
 7293              	.LASF1123:
 7294 0f11 5031315F 		.ascii	"P11_4_AMUXB\000"
 7294      345F414D 
 7294      55584200 
 7295              	.LASF1207:
 7296 0f1d 5031325F 		.ascii	"P12_1_SMIF_SPI_DATA5\000"
 7296      315F534D 
 7296      49465F53 
 7296      50495F44 
 7296      41544135 
 7297              	.LASF1199:
 7298 0f32 5031325F 		.ascii	"P12_1_AMUXA_DSI\000"
 7298      315F414D 
 7298      5558415F 
 7298      44534900 
 7299              	.LASF265:
 7300 0f42 50355F30 		.ascii	"P5_0_AUDIOSS_CLK_I2S_IF\000"
 7300      5F415544 
 7300      494F5353 
 7300      5F434C4B 
 7300      5F493253 
 7301              	.LASF452:
 7302 0f5a 50365F34 		.ascii	"P6_4_CSD_CSD_TX\000"
 7302      5F435344 
 7302      5F435344 
 7302      5F545800 
 7303              	.LASF788:
 7304 0f6a 50385F37 		.ascii	"P8_7_LCD_COM61\000"
 7304      5F4C4344 
 7304      5F434F4D 
 7304      363100
 7305              	.LASF555:
 7306 0f79 50375F31 		.ascii	"P7_1_LCD_COM47\000"
 7306      5F4C4344 
 7306      5F434F4D 
 7306      343700
 7307              	.LASF707:
 7308 0f88 50385F32 		.ascii	"P8_2_CSD_CSD_TX\000"
 7308      5F435344 
 7308      5F435344 
 7308      5F545800 
 7309              	.LASF1095:
 7310 0f98 5031315F 		.ascii	"P11_2_LCD_COM18\000"
 7310      325F4C43 
 7310      445F434F 
 7310      4D313800 
 7311              	.LASF545:
 7312 0fa8 50375F31 		.ascii	"P7_1_DSI_DSI\000"
 7312      5F445349 
 7312      5F445349 
 7312      00
 7313              	.LASF923:
 7314 0fb5 50395F37 		.ascii	"P9_7_CSD_CSD_TX_N\000"
 7314      5F435344 
 7314      5F435344 
 7314      5F54585F 
ARM GAS  C:\Users\ikomb\AppData\Local\Temp\ccAzoKUN.s 			page 179


 7314      4E00
 7315              	.LASF798:
 7316 0fc7 50395F30 		.ascii	"P9_0_AMUXB_DSI\000"
 7316      5F414D55 
 7316      58425F44 
 7316      534900
 7317              	.LASF73:
 7318 0fd6 50305F31 		.ascii	"P0_1_TCPWM1_LINE_COMPL0\000"
 7318      5F544350 
 7318      574D315F 
 7318      4C494E45 
 7318      5F434F4D 
 7319              	.LASF445:
 7320 0fee 50365F34 		.ascii	"P6_4_DSI_GPIO\000"
 7320      5F445349 
 7320      5F475049 
 7320      4F00
 7321              	.LASF995:
 7322 0ffc 5031305F 		.ascii	"P10_3_SCB1_UART_CTS\000"
 7322      335F5343 
 7322      42315F55 
 7322      4152545F 
 7322      43545300 
 7323              	.LASF1243:
 7324 1010 5031325F 		.ascii	"P12_3_SMIF_SPI_DATA7\000"
 7324      335F534D 
 7324      49465F53 
 7324      50495F44 
 7324      41544137 
 7325              	.LASF19:
 7326 1025 4853494F 		.ascii	"HSIOM_SEL_AMUXA\000"
 7326      4D5F5345 
 7326      4C5F414D 
 7326      55584100 
 7327              	.LASF20:
 7328 1035 4853494F 		.ascii	"HSIOM_SEL_AMUXB\000"
 7328      4D5F5345 
 7328      4C5F414D 
 7328      55584200 
 7329              	.LASF1294:
 7330 1045 5031325F 		.ascii	"P12_7_GPIO\000"
 7330      375F4750 
 7330      494F00
 7331              	.LASF910:
 7332 1050 50395F36 		.ascii	"P9_6_LCD_SEG6\000"
 7332      5F4C4344 
 7332      5F534547 
 7332      3600
 7333              	.LASF625:
 7334 105e 50375F35 		.ascii	"P7_5_BLESS_EXT_PA_TX_CTL_OUT\000"
 7334      5F424C45 
 7334      53535F45 
 7334      58545F50 
 7334      415F5458 
 7335              	.LASF338:
 7336 107b 50355F35 		.ascii	"P5_5_DSI_DSI\000"
 7336      5F445349 
ARM GAS  C:\Users\ikomb\AppData\Local\Temp\ccAzoKUN.s 			page 180


 7336      5F445349 
 7336      00
 7337              	.LASF129:
 7338 1088 50305F34 		.ascii	"P0_4_SCB0_UART_RTS\000"
 7338      5F534342 
 7338      305F5541 
 7338      52545F52 
 7338      545300
 7339              	.LASF299:
 7340 109b 50355F32 		.ascii	"P5_2_LCD_SEG32\000"
 7340      5F4C4344 
 7340      5F534547 
 7340      333200
 7341              	.LASF513:
 7342 10aa 50365F37 		.ascii	"P6_7_AMUXB_DSI\000"
 7342      5F414D55 
 7342      58425F44 
 7342      534900
 7343              	.LASF641:
 7344 10b9 50375F36 		.ascii	"P7_6_SCB4_SPI_SELECT3\000"
 7344      5F534342 
 7344      345F5350 
 7344      495F5345 
 7344      4C454354 
 7345              	.LASF1335:
 7346 10cf 5031335F 		.ascii	"P13_1_TCPWM1_LINE_COMPL8\000"
 7346      315F5443 
 7346      50574D31 
 7346      5F4C494E 
 7346      455F434F 
 7347              	.LASF1071:
 7348 10e8 5031315F 		.ascii	"P11_1_AMUXB_DSI\000"
 7348      315F414D 
 7348      5558425F 
 7348      44534900 
 7349              	.LASF109:
 7350 10f8 50305F33 		.ascii	"P0_3_CSD_CSD_TX_N\000"
 7350      5F435344 
 7350      5F435344 
 7350      5F54585F 
 7350      4E00
 7351              	.LASF718:
 7352 110a 50385F33 		.ascii	"P8_3_AMUXA\000"
 7352      5F414D55 
 7352      584100
 7353              	.LASF719:
 7354 1115 50385F33 		.ascii	"P8_3_AMUXB\000"
 7354      5F414D55 
 7354      584200
 7355              	.LASF433:
 7356 1120 50365F33 		.ascii	"P6_3_TCPWM0_LINE_COMPL1\000"
 7356      5F544350 
 7356      574D305F 
 7356      4C494E45 
 7356      5F434F4D 
 7357              	.LASF875:
 7358 1138 50395F34 		.ascii	"P9_4_TCPWM0_LINE7\000"
ARM GAS  C:\Users\ikomb\AppData\Local\Temp\ccAzoKUN.s 			page 181


 7358      5F544350 
 7358      574D305F 
 7358      4C494E45 
 7358      3700
 7359              	.LASF203:
 7360 114a 50315F33 		.ascii	"P1_3_GPIO_DSI\000"
 7360      5F475049 
 7360      4F5F4453 
 7360      4900
 7361              	.LASF832:
 7362 1158 50395F32 		.ascii	"P9_2_DSI_DSI\000"
 7362      5F445349 
 7362      5F445349 
 7362      00
 7363              	.LASF51:
 7364 1165 50305F30 		.ascii	"P0_0_AMUXA\000"
 7364      5F414D55 
 7364      584100
 7365              	.LASF52:
 7366 1170 50305F30 		.ascii	"P0_0_AMUXB\000"
 7366      5F414D55 
 7366      584200
 7367              	.LASF1371:
 7368 117b 5031335F 		.ascii	"P13_7_LCD_COM38\000"
 7368      375F4C43 
 7368      445F434F 
 7368      4D333800 
 7369              	.LASF55:
 7370 118b 50305F30 		.ascii	"P0_0_TCPWM0_LINE0\000"
 7370      5F544350 
 7370      574D305F 
 7370      4C494E45 
 7370      3000
 7371              	.LASF1311:
 7372 119d 5031335F 		.ascii	"P13_0_DSI_GPIO\000"
 7372      305F4453 
 7372      495F4750 
 7372      494F00
 7373              	.LASF1202:
 7374 11ac 5031325F 		.ascii	"P12_1_TCPWM1_LINE_COMPL4\000"
 7374      315F5443 
 7374      50574D31 
 7374      5F4C494E 
 7374      455F434F 
 7375              	.LASF1305:
 7376 11c5 5031325F 		.ascii	"P12_7_CSD_CSD_TX_N\000"
 7376      375F4353 
 7376      445F4353 
 7376      445F5458 
 7376      5F4E00
 7377              	.LASF484:
 7378 11d8 50365F35 		.ascii	"P6_5_PERI_TR_IO_OUTPUT1\000"
 7378      5F504552 
 7378      495F5452 
 7378      5F494F5F 
 7378      4F555450 
 7379              	.LASF156:
ARM GAS  C:\Users\ikomb\AppData\Local\Temp\ccAzoKUN.s 			page 182


 7380 11f0 50315F30 		.ascii	"P1_0_AMUXA_DSI\000"
 7380      5F414D55 
 7380      58415F44 
 7380      534900
 7381              	.LASF1341:
 7382 11ff 5031335F 		.ascii	"P13_1_SCB6_I2C_SDA\000"
 7382      315F5343 
 7382      42365F49 
 7382      32435F53 
 7382      444100
 7383              	.LASF320:
 7384 1212 50355F34 		.ascii	"P5_4_GPIO\000"
 7384      5F475049 
 7384      4F00
 7385              	.LASF81:
 7386 121c 50305F32 		.ascii	"P0_2_GPIO\000"
 7386      5F475049 
 7386      4F00
 7387              	.LASF1013:
 7388 1226 5031305F 		.ascii	"P10_4_AUDIOSS_PDM_CLK\000"
 7388      345F4155 
 7388      44494F53 
 7388      535F5044 
 7388      4D5F434C 
 7389              	.LASF274:
 7390 123c 50355F31 		.ascii	"P5_1_AMUXB_DSI\000"
 7390      5F414D55 
 7390      58425F44 
 7390      534900
 7391              	.LASF515:
 7392 124b 50365F37 		.ascii	"P6_7_TCPWM1_LINE_COMPL11\000"
 7392      5F544350 
 7392      574D315F 
 7392      4C494E45 
 7392      5F434F4D 
 7393              	.LASF298:
 7394 1264 50355F32 		.ascii	"P5_2_LCD_COM32\000"
 7394      5F4C4344 
 7394      5F434F4D 
 7394      333200
 7395              	.LASF469:
 7396 1273 50365F35 		.ascii	"P6_5_AMUXA\000"
 7396      5F414D55 
 7396      584100
 7397              	.LASF470:
 7398 127e 50365F35 		.ascii	"P6_5_AMUXB\000"
 7398      5F414D55 
 7398      584200
 7399              	.LASF1254:
 7400 1289 5031325F 		.ascii	"P12_4_TCPWM0_LINE6\000"
 7400      345F5443 
 7400      50574D30 
 7400      5F4C494E 
 7400      453600
 7401              	.LASF1101:
 7402 129c 5031315F 		.ascii	"P11_3_GPIO_DSI\000"
 7402      335F4750 
ARM GAS  C:\Users\ikomb\AppData\Local\Temp\ccAzoKUN.s 			page 183


 7402      494F5F44 
 7402      534900
 7403              	.LASF698:
 7404 12ab 50385F32 		.ascii	"P8_2_GPIO_DSI\000"
 7404      5F475049 
 7404      4F5F4453 
 7404      4900
 7405              	.LASF854:
 7406 12b9 50395F33 		.ascii	"P9_3_AMUXA_DSI\000"
 7406      5F414D55 
 7406      58415F44 
 7406      534900
 7407              	.LASF101:
 7408 12c8 50305F33 		.ascii	"P0_3_DSI_GPIO\000"
 7408      5F445349 
 7408      5F475049 
 7408      4F00
 7409              	.LASF1362:
 7410 12d6 5031335F 		.ascii	"P13_7_DSI_GPIO\000"
 7410      375F4453 
 7410      495F4750 
 7410      494F00
 7411              	.LASF713:
 7412 12e5 50385F32 		.ascii	"P8_2_SCB4_SPI_CLK\000"
 7412      5F534342 
 7412      345F5350 
 7412      495F434C 
 7412      4B00
 7413              	.LASF436:
 7414 12f7 50365F33 		.ascii	"P6_3_CSD_CSD_TX_N\000"
 7414      5F435344 
 7414      5F435344 
 7414      5F54585F 
 7414      4E00
 7415              	.LASF974:
 7416 1309 5031305F 		.ascii	"P10_2_CSD_CSD_TX\000"
 7416      325F4353 
 7416      445F4353 
 7416      445F5458 
 7416      00
 7417              	.LASF629:
 7418 131a 50375F36 		.ascii	"P7_6_DSI_DSI\000"
 7418      5F445349 
 7418      5F445349 
 7418      00
 7419              	.LASF1085:
 7420 1327 5031315F 		.ascii	"P11_2_DSI_DSI\000"
 7420      325F4453 
 7420      495F4453 
 7420      4900
 7421              	.LASF909:
 7422 1335 50395F36 		.ascii	"P9_6_LCD_COM6\000"
 7422      5F4C4344 
 7422      5F434F4D 
 7422      3600
 7423              	.LASF1210:
 7424 1343 5031325F 		.ascii	"P12_1_SCB6_SPI_MISO\000"
ARM GAS  C:\Users\ikomb\AppData\Local\Temp\ccAzoKUN.s 			page 184


 7424      315F5343 
 7424      42365F53 
 7424      50495F4D 
 7424      49534F00 
 7425              	.LASF523:
 7426 1357 50365F37 		.ascii	"P6_7_SCB8_SPI_SELECT0\000"
 7426      5F534342 
 7426      385F5350 
 7426      495F5345 
 7426      4C454354 
 7427              	.LASF243:
 7428 136d 50315F35 		.ascii	"P1_5_CSD_CSD_TX\000"
 7428      5F435344 
 7428      5F435344 
 7428      5F545800 
 7429              	.LASF54:
 7430 137d 50305F30 		.ascii	"P0_0_AMUXB_DSI\000"
 7430      5F414D55 
 7430      58425F44 
 7430      534900
 7431              	.LASF984:
 7432 138c 5031305F 		.ascii	"P10_3_DSI_GPIO\000"
 7432      335F4453 
 7432      495F4750 
 7432      494F00
 7433              	.LASF277:
 7434 139b 50355F31 		.ascii	"P5_1_CSD_CSD_TX\000"
 7434      5F435344 
 7434      5F435344 
 7434      5F545800 
 7435              	.LASF210:
 7436 13ab 50315F33 		.ascii	"P1_3_TCPWM0_LINE_COMPL4\000"
 7436      5F544350 
 7436      574D305F 
 7436      4C494E45 
 7436      5F434F4D 
 7437              	.LASF1240:
 7438 13c3 5031325F 		.ascii	"P12_3_CSD_CSD_TX_N\000"
 7438      335F4353 
 7438      445F4353 
 7438      445F5458 
 7438      5F4E00
 7439              	.LASF77:
 7440 13d6 50305F31 		.ascii	"P0_1_LCD_SEG1\000"
 7440      5F4C4344 
 7440      5F534547 
 7440      3100
 7441              	.LASF376:
 7442 13e4 50365F30 		.ascii	"P6_0_TCPWM0_LINE0\000"
 7442      5F544350 
 7442      574D305F 
 7442      4C494E45 
 7442      3000
 7443              	.LASF1415:
 7444 13f6 76726567 		.ascii	"vregEn\000"
 7444      456E00
 7445              	.LASF658:
ARM GAS  C:\Users\ikomb\AppData\Local\Temp\ccAzoKUN.s 			page 185


 7446 13fd 50375F37 		.ascii	"P7_7_SCB3_SPI_SELECT1\000"
 7446      5F534342 
 7446      335F5350 
 7446      495F5345 
 7446      4C454354 
 7447              	.LASF1407:
 7448 1413 6F757456 		.ascii	"outVal\000"
 7448      616C00
 7449              	.LASF1273:
 7450 141a 5031325F 		.ascii	"P12_5_CSD_CSD_TX\000"
 7450      355F4353 
 7450      445F4353 
 7450      445F5458 
 7450      00
 7451              	.LASF1150:
 7452 142b 5031315F 		.ascii	"P11_5_SCB5_SPI_SELECT2\000"
 7452      355F5343 
 7452      42355F53 
 7452      50495F53 
 7452      454C4543 
 7453              	.LASF564:
 7454 1442 50375F32 		.ascii	"P7_2_DSI_GPIO\000"
 7454      5F445349 
 7454      5F475049 
 7454      4F00
 7455              	.LASF721:
 7456 1450 50385F33 		.ascii	"P8_3_AMUXB_DSI\000"
 7456      5F414D55 
 7456      58425F44 
 7456      534900
 7457              	.LASF958:
 7458 145f 5031305F 		.ascii	"P10_1_LCD_SEG9\000"
 7458      315F4C43 
 7458      445F5345 
 7458      473900
 7459              	.LASF1173:
 7460 146e 5031315F 		.ascii	"P11_7_SMIF_SPI_CLK\000"
 7460      375F534D 
 7460      49465F53 
 7460      50495F43 
 7460      4C4B00
 7461              	.LASF669:
 7462 1481 50385F30 		.ascii	"P8_0_TCPWM0_LINE0\000"
 7462      5F544350 
 7462      574D305F 
 7462      4C494E45 
 7462      3000
 7463              	.LASF1293:
 7464 1493 5031325F 		.ascii	"P12_6_SCB6_SPI_SELECT3\000"
 7464      365F5343 
 7464      42365F53 
 7464      50495F53 
 7464      454C4543 
 7465              	.LASF337:
 7466 14aa 50355F35 		.ascii	"P5_5_GPIO_DSI\000"
 7466      5F475049 
 7466      4F5F4453 
ARM GAS  C:\Users\ikomb\AppData\Local\Temp\ccAzoKUN.s 			page 186


 7466      4900
 7467              	.LASF368:
 7468 14b8 50365F30 		.ascii	"P6_0_GPIO\000"
 7468      5F475049 
 7468      4F00
 7469              	.LASF1428:
 7470 14c2 43795F47 		.ascii	"Cy_GPIO_Write\000"
 7470      50494F5F 
 7470      57726974 
 7470      6500
 7471              	.LASF744:
 7472 14d0 50385F34 		.ascii	"P8_4_LCD_SEG58\000"
 7472      5F4C4344 
 7472      5F534547 
 7472      353800
 7473              	.LASF252:
 7474 14df 50355F30 		.ascii	"P5_0_AMUXA\000"
 7474      5F414D55 
 7474      584100
 7475              	.LASF253:
 7476 14ea 50355F30 		.ascii	"P5_0_AMUXB\000"
 7476      5F414D55 
 7476      584200
 7477              	.LASF1276:
 7478 14f5 5031325F 		.ascii	"P12_5_LCD_SEG28\000"
 7478      355F4C43 
 7478      445F5345 
 7478      47323800 
 7479              	.LASF602:
 7480 1505 50375F34 		.ascii	"P7_4_TCPWM1_LINE14\000"
 7480      5F544350 
 7480      574D315F 
 7480      4C494E45 
 7480      313400
 7481              	.LASF963:
 7482 1518 5031305F 		.ascii	"P10_1_CPUSS_TRACE_DATA2\000"
 7482      315F4350 
 7482      5553535F 
 7482      54524143 
 7482      455F4441 
 7483              	.LASF676:
 7484 1530 50385F30 		.ascii	"P8_0_SCB4_I2C_SCL\000"
 7484      5F534342 
 7484      345F4932 
 7484      435F5343 
 7484      4C00
 7485              	.LASF1022:
 7486 1542 5031305F 		.ascii	"P10_5_TCPWM0_LINE_COMPL0\000"
 7486      355F5443 
 7486      50574D30 
 7486      5F4C494E 
 7486      455F434F 
 7487              	.LASF904:
 7488 155b 50395F36 		.ascii	"P9_6_AMUXB_DSI\000"
 7488      5F414D55 
 7488      58425F44 
 7488      534900
ARM GAS  C:\Users\ikomb\AppData\Local\Temp\ccAzoKUN.s 			page 187


 7489              	.LASF912:
 7490 156a 50395F37 		.ascii	"P9_7_GPIO\000"
 7490      5F475049 
 7490      4F00
 7491              	.LASF1330:
 7492 1574 5031335F 		.ascii	"P13_1_AMUXA\000"
 7492      315F414D 
 7492      55584100 
 7493              	.LASF1331:
 7494 1580 5031335F 		.ascii	"P13_1_AMUXB\000"
 7494      315F414D 
 7494      55584200 
 7495              	.LASF599:
 7496 158c 50375F34 		.ascii	"P7_4_AMUXA_DSI\000"
 7496      5F414D55 
 7496      58415F44 
 7496      534900
 7497              	.LASF231:
 7498 159b 50315F34 		.ascii	"P1_4_LCD_SEG10\000"
 7498      5F4C4344 
 7498      5F534547 
 7498      313000
 7499              	.LASF117:
 7500 15aa 50305F34 		.ascii	"P0_4_DSI_DSI\000"
 7500      5F445349 
 7500      5F445349 
 7500      00
 7501              	.LASF1387:
 7502 15b7 4346475F 		.ascii	"CFG_OUT\000"
 7502      4F555400 
 7503              	.LASF743:
 7504 15bf 50385F34 		.ascii	"P8_4_LCD_COM58\000"
 7504      5F4C4344 
 7504      5F434F4D 
 7504      353800
 7505              	.LASF786:
 7506 15ce 50385F37 		.ascii	"P8_7_CSD_CSD_TX\000"
 7506      5F435344 
 7506      5F435344 
 7506      5F545800 
 7507              	.LASF1275:
 7508 15de 5031325F 		.ascii	"P12_5_LCD_COM28\000"
 7508      355F4C43 
 7508      445F434F 
 7508      4D323800 
 7509              	.LASF1194:
 7510 15ee 5031325F 		.ascii	"P12_1_GPIO_DSI\000"
 7510      315F4750 
 7510      494F5F44 
 7510      534900
 7511              	.LASF1246:
 7512 15fd 5031325F 		.ascii	"P12_4_GPIO\000"
 7512      345F4750 
 7512      494F00
 7513              	.LASF792:
 7514 1608 50395F30 		.ascii	"P9_0_GPIO_DSI\000"
 7514      5F475049 
ARM GAS  C:\Users\ikomb\AppData\Local\Temp\ccAzoKUN.s 			page 188


 7514      4F5F4453 
 7514      4900
 7515              	.LASF171:
 7516 1616 50315F31 		.ascii	"P1_1_DSI_GPIO\000"
 7516      5F445349 
 7516      5F475049 
 7516      4F00
 7517              	.LASF1053:
 7518 1624 5031315F 		.ascii	"P11_0_TCPWM0_LINE1\000"
 7518      305F5443 
 7518      50574D30 
 7518      5F4C494E 
 7518      453100
 7519              	.LASF76:
 7520 1637 50305F31 		.ascii	"P0_1_LCD_COM1\000"
 7520      5F4C4344 
 7520      5F434F4D 
 7520      3100
 7521              	.LASF1167:
 7522 1645 5031315F 		.ascii	"P11_7_DSI_DSI\000"
 7522      375F4453 
 7522      495F4453 
 7522      4900
 7523              	.LASF1253:
 7524 1653 5031325F 		.ascii	"P12_4_AMUXB_DSI\000"
 7524      345F414D 
 7524      5558425F 
 7524      44534900 
 7525              	.LASF264:
 7526 1663 50355F30 		.ascii	"P5_0_SCB5_SPI_MOSI\000"
 7526      5F534342 
 7526      355F5350 
 7526      495F4D4F 
 7526      534900
 7527              	.LASF1429:
 7528 1676 43795F47 		.ascii	"Cy_GPIO_SetDrivemode\000"
 7528      50494F5F 
 7528      53657444 
 7528      72697665 
 7528      6D6F6465 
 7529              	.LASF1395:
 7530 168b 646F7562 		.ascii	"double\000"
 7530      6C6500
 7531              	.LASF677:
 7532 1692 50385F30 		.ascii	"P8_0_SCB4_SPI_MOSI\000"
 7532      5F534342 
 7532      345F5350 
 7532      495F4D4F 
 7532      534900
 7533              	.LASF407:
 7534 16a5 50365F31 		.ascii	"P6_1_SCB8_SPI_MISO\000"
 7534      5F534342 
 7534      385F5350 
 7534      495F4D49 
 7534      534F00
 7535              	.LASF230:
 7536 16b8 50315F34 		.ascii	"P1_4_LCD_COM10\000"
ARM GAS  C:\Users\ikomb\AppData\Local\Temp\ccAzoKUN.s 			page 189


 7536      5F4C4344 
 7536      5F434F4D 
 7536      313000
 7537              	.LASF957:
 7538 16c7 5031305F 		.ascii	"P10_1_LCD_COM9\000"
 7538      315F4C43 
 7538      445F434F 
 7538      4D3900
 7539              	.LASF1316:
 7540 16d6 5031335F 		.ascii	"P13_0_TCPWM0_LINE0\000"
 7540      305F5443 
 7540      50574D30 
 7540      5F4C494E 
 7540      453000
 7541              	.LASF1378:
 7542 16e9 4F55545F 		.ascii	"OUT_CLR\000"
 7542      434C5200 
 7543              	.LASF222:
 7544 16f1 50315F34 		.ascii	"P1_4_AMUXA\000"
 7544      5F414D55 
 7544      584100
 7545              	.LASF223:
 7546 16fc 50315F34 		.ascii	"P1_4_AMUXB\000"
 7546      5F414D55 
 7546      584200
 7547              	.LASF478:
 7548 1707 50365F35 		.ascii	"P6_5_LCD_SEG43\000"
 7548      5F4C4344 
 7548      5F534547 
 7548      343300
 7549              	.LASF1043:
 7550 1716 5031305F 		.ascii	"P10_6_LCD_SEG14\000"
 7550      365F4C43 
 7550      445F5345 
 7550      47313400 
 7551              	.LASF91:
 7552 1726 50305F32 		.ascii	"P0_2_CSD_CSD_TX\000"
 7552      5F435344 
 7552      5F435344 
 7552      5F545800 
 7553              	.LASF1104:
 7554 1736 5031315F 		.ascii	"P11_3_AMUXA\000"
 7554      335F414D 
 7554      55584100 
 7555              	.LASF1105:
 7556 1742 5031315F 		.ascii	"P11_3_AMUXB\000"
 7556      335F414D 
 7556      55584200 
 7557              	.LASF282:
 7558 174e 50355F31 		.ascii	"P5_1_SCB5_I2C_SDA\000"
 7558      5F534342 
 7558      355F4932 
 7558      435F5344 
 7558      4100
 7559              	.LASF608:
 7560 1760 50375F34 		.ascii	"P7_4_BLESS_EXT_LNA_RX_CTL_OUT\000"
 7560      5F424C45 
ARM GAS  C:\Users\ikomb\AppData\Local\Temp\ccAzoKUN.s 			page 190


 7560      53535F45 
 7560      58545F4C 
 7560      4E415F52 
 7561              	.LASF916:
 7562 177e 50395F37 		.ascii	"P9_7_AMUXA\000"
 7562      5F414D55 
 7562      584100
 7563              	.LASF917:
 7564 1789 50395F37 		.ascii	"P9_7_AMUXB\000"
 7564      5F414D55 
 7564      584200
 7565              	.LASF913:
 7566 1794 50395F37 		.ascii	"P9_7_GPIO_DSI\000"
 7566      5F475049 
 7566      4F5F4453 
 7566      4900
 7567              	.LASF1067:
 7568 17a2 5031315F 		.ascii	"P11_1_DSI_GPIO\000"
 7568      315F4453 
 7568      495F4750 
 7568      494F00
 7569              	.LASF664:
 7570 17b1 50385F30 		.ascii	"P8_0_DSI_GPIO\000"
 7570      5F445349 
 7570      5F475049 
 7570      4F00
 7571              	.LASF1222:
 7572 17bf 5031325F 		.ascii	"P12_2_CSD_CSD_TX\000"
 7572      325F4353 
 7572      445F4353 
 7572      445F5458 
 7572      00
 7573              	.LASF426:
 7574 17d0 50365F33 		.ascii	"P6_3_GPIO_DSI\000"
 7574      5F475049 
 7574      4F5F4453 
 7574      4900
 7575              	.LASF449:
 7576 17de 50365F34 		.ascii	"P6_4_AMUXB_DSI\000"
 7576      5F414D55 
 7576      58425F44 
 7576      534900
 7577              	.LASF1072:
 7578 17ed 5031315F 		.ascii	"P11_1_TCPWM0_LINE_COMPL1\000"
 7578      315F5443 
 7578      50574D30 
 7578      5F4C494E 
 7578      455F434F 
 7579              	.LASF247:
 7580 1806 50315F35 		.ascii	"P1_5_SCB7_SPI_SELECT2\000"
 7580      5F534342 
 7580      375F5350 
 7580      495F5345 
 7580      4C454354 
 7581              	.LASF729:
 7582 181c 50385F33 		.ascii	"P8_3_SCB4_UART_CTS\000"
 7582      5F534342 
ARM GAS  C:\Users\ikomb\AppData\Local\Temp\ccAzoKUN.s 			page 191


 7582      345F5541 
 7582      52545F43 
 7582      545300
 7583              	.LASF267:
 7584 182f 50355F31 		.ascii	"P5_1_GPIO\000"
 7584      5F475049 
 7584      4F00
 7585              	.LASF1325:
 7586 1839 5031335F 		.ascii	"P13_0_PERI_TR_IO_INPUT26\000"
 7586      305F5045 
 7586      52495F54 
 7586      525F494F 
 7586      5F494E50 
 7587              	.LASF1141:
 7588 1852 5031315F 		.ascii	"P11_5_AMUXA_DSI\000"
 7588      355F414D 
 7588      5558415F 
 7588      44534900 
 7589              	.LASF970:
 7590 1862 5031305F 		.ascii	"P10_2_AMUXA_DSI\000"
 7590      325F414D 
 7590      5558415F 
 7590      44534900 
 7591              	.LASF477:
 7592 1872 50365F35 		.ascii	"P6_5_LCD_COM43\000"
 7592      5F4C4344 
 7592      5F434F4D 
 7592      343300
 7593              	.LASF1435:
 7594 1881 73746174 		.ascii	"status\000"
 7594      757300
 7595              	.LASF1042:
 7596 1888 5031305F 		.ascii	"P10_6_LCD_COM14\000"
 7596      365F4C43 
 7596      445F434F 
 7596      4D313400 
 7597              	.LASF457:
 7598 1898 50365F34 		.ascii	"P6_4_SCB6_UART_RX\000"
 7598      5F534342 
 7598      365F5541 
 7598      52545F52 
 7598      5800
 7599              	.LASF1308:
 7600 18aa 5031335F 		.ascii	"P13_0_GPIO\000"
 7600      305F4750 
 7600      494F00
 7601              	.LASF1117:
 7602 18b5 5031315F 		.ascii	"P11_3_PERI_TR_IO_OUTPUT0\000"
 7602      335F5045 
 7602      52495F54 
 7602      525F494F 
 7602      5F4F5554 
 7603              	.LASF410:
 7604 18ce 50365F32 		.ascii	"P6_2_DSI_DSI\000"
 7604      5F445349 
 7604      5F445349 
 7604      00
ARM GAS  C:\Users\ikomb\AppData\Local\Temp\ccAzoKUN.s 			page 192


 7605              	.LASF520:
 7606 18db 50365F37 		.ascii	"P6_7_SCB6_UART_CTS\000"
 7606      5F534342 
 7606      365F5541 
 7606      52545F43 
 7606      545300
 7607              	.LASF779:
 7608 18ee 50385F37 		.ascii	"P8_7_DSI_GPIO\000"
 7608      5F445349 
 7608      5F475049 
 7608      4F00
 7609              	.LASF406:
 7610 18fc 50365F31 		.ascii	"P6_1_CPUSS_FAULT_OUT1\000"
 7610      5F435055 
 7610      53535F46 
 7610      41554C54 
 7610      5F4F5554 
 7611              	.LASF209:
 7612 1912 50315F33 		.ascii	"P1_3_AMUXB_DSI\000"
 7612      5F414D55 
 7612      58425F44 
 7612      534900
 7613              	.LASF1078:
 7614 1921 5031315F 		.ascii	"P11_1_SMIF_SPI_SELECT1\000"
 7614      315F534D 
 7614      49465F53 
 7614      50495F53 
 7614      454C4543 
 7615              	.LASF1135:
 7616 1938 5031315F 		.ascii	"P11_5_GPIO\000"
 7616      355F4750 
 7616      494F00
 7617              	.LASF980:
 7618 1943 5031305F 		.ascii	"P10_2_CPUSS_TRACE_DATA1\000"
 7618      325F4350 
 7618      5553535F 
 7618      54524143 
 7618      455F4441 
 7619              	.LASF871:
 7620 195b 50395F34 		.ascii	"P9_4_AMUXA\000"
 7620      5F414D55 
 7620      584100
 7621              	.LASF306:
 7622 1966 50355F33 		.ascii	"P5_3_DSI_GPIO\000"
 7622      5F445349 
 7622      5F475049 
 7622      4F00
 7623              	.LASF342:
 7624 1974 50355F35 		.ascii	"P5_5_AMUXA_DSI\000"
 7624      5F414D55 
 7624      58415F44 
 7624      534900
 7625              	.LASF505:
 7626 1983 50365F36 		.ascii	"P6_6_SCB8_SPI_CLK\000"
 7626      5F534342 
 7626      385F5350 
 7626      495F434C 
ARM GAS  C:\Users\ikomb\AppData\Local\Temp\ccAzoKUN.s 			page 193


 7626      4B00
 7627              	.LASF701:
 7628 1995 50385F32 		.ascii	"P8_2_AMUXA\000"
 7628      5F414D55 
 7628      584100
 7629              	.LASF702:
 7630 19a0 50385F32 		.ascii	"P8_2_AMUXB\000"
 7630      5F414D55 
 7630      584200
 7631              	.LASF362:
 7632 19ab 50355F36 		.ascii	"P5_6_CSD_CSD_TX\000"
 7632      5F435344 
 7632      5F435344 
 7632      5F545800 
 7633              	.LASF603:
 7634 19bb 50375F34 		.ascii	"P7_4_CSD_CSD_TX\000"
 7634      5F435344 
 7634      5F435344 
 7634      5F545800 
 7635              	.LASF797:
 7636 19cb 50395F30 		.ascii	"P9_0_AMUXA_DSI\000"
 7636      5F414D55 
 7636      58415F44 
 7636      534900
 7637              	.LASF827:
 7638 19da 50395F31 		.ascii	"P9_1_PERI_TR_IO_INPUT19\000"
 7638      5F504552 
 7638      495F5452 
 7638      5F494F5F 
 7638      494E5055 
 7639              	.LASF840:
 7640 19f2 50395F32 		.ascii	"P9_2_CSD_CSD_TX\000"
 7640      5F435344 
 7640      5F435344 
 7640      5F545800 
 7641              	.LASF242:
 7642 1a02 50315F35 		.ascii	"P1_5_TCPWM1_LINE_COMPL14\000"
 7642      5F544350 
 7642      574D315F 
 7642      4C494E45 
 7642      5F434F4D 
 7643              	.LASF1021:
 7644 1a1b 5031305F 		.ascii	"P10_5_AMUXB_DSI\000"
 7644      355F414D 
 7644      5558425F 
 7644      44534900 
 7645              	.LASF446:
 7646 1a2b 50365F34 		.ascii	"P6_4_AMUXA\000"
 7646      5F414D55 
 7646      584100
 7647              	.LASF447:
 7648 1a36 50365F34 		.ascii	"P6_4_AMUXB\000"
 7648      5F414D55 
 7648      584200
 7649              	.LASF716:
 7650 1a41 50385F33 		.ascii	"P8_3_DSI_DSI\000"
 7650      5F445349 
ARM GAS  C:\Users\ikomb\AppData\Local\Temp\ccAzoKUN.s 			page 194


 7650      5F445349 
 7650      00
 7651              	.LASF121:
 7652 1a4e 50305F34 		.ascii	"P0_4_AMUXA_DSI\000"
 7652      5F414D55 
 7652      58415F44 
 7652      534900
 7653              	.LASF626:
 7654 1a5d 50375F35 		.ascii	"P7_5_CPUSS_TRACE_DATA2\000"
 7654      5F435055 
 7654      53535F54 
 7654      52414345 
 7654      5F444154 
 7655              	.LASF940:
 7656 1a74 5031305F 		.ascii	"P10_0_SCB1_UART_RX\000"
 7656      305F5343 
 7656      42315F55 
 7656      4152545F 
 7656      525800
 7657              	.LASF82:
 7658 1a87 50305F32 		.ascii	"P0_2_GPIO_DSI\000"
 7658      5F475049 
 7658      4F5F4453 
 7658      4900
 7659              	.LASF1345:
 7660 1a95 5031335F 		.ascii	"P13_6_GPIO_DSI\000"
 7660      365F4750 
 7660      494F5F44 
 7660      534900
 7661              	.LASF1433:
 7662 1aa4 43795F47 		.ascii	"Cy_GPIO_SetInterruptEdge\000"
 7662      50494F5F 
 7662      53657449 
 7662      6E746572 
 7662      72757074 
 7663              	.LASF990:
 7664 1abd 5031305F 		.ascii	"P10_3_TCPWM1_LINE_COMPL23\000"
 7664      335F5443 
 7664      50574D31 
 7664      5F4C494E 
 7664      455F434F 
 7665              	.LASF965:
 7666 1ad7 5031305F 		.ascii	"P10_2_GPIO_DSI\000"
 7666      325F4750 
 7666      494F5F44 
 7666      534900
 7667              	.LASF1408:
 7668 1ae6 64726976 		.ascii	"driveMode\000"
 7668      654D6F64 
 7668      6500
 7669              	.LASF462:
 7670 1af0 50365F34 		.ascii	"P6_4_CPUSS_SWJ_SWO_TDO\000"
 7670      5F435055 
 7670      53535F53 
 7670      574A5F53 
 7670      574F5F54 
 7671              	.LASF544:
ARM GAS  C:\Users\ikomb\AppData\Local\Temp\ccAzoKUN.s 			page 195


 7672 1b07 50375F31 		.ascii	"P7_1_GPIO_DSI\000"
 7672      5F475049 
 7672      4F5F4453 
 7672      4900
 7673              	.LASF422:
 7674 1b15 50365F32 		.ascii	"P6_2_SCB3_UART_RTS\000"
 7674      5F534342 
 7674      335F5541 
 7674      52545F52 
 7674      545300
 7675              	.LASF126:
 7676 1b28 50305F34 		.ascii	"P0_4_CSD_CSD_TX_N\000"
 7676      5F435344 
 7676      5F435344 
 7676      5F54585F 
 7676      4E00
 7677              	.LASF782:
 7678 1b3a 50385F37 		.ascii	"P8_7_AMUXA_DSI\000"
 7678      5F414D55 
 7678      58415F44 
 7678      534900
 7679              	.LASF867:
 7680 1b49 50395F34 		.ascii	"P9_4_GPIO\000"
 7680      5F475049 
 7680      4F00
 7681              	.LASF844:
 7682 1b53 50395F32 		.ascii	"P9_2_SCB2_UART_RTS\000"
 7682      5F534342 
 7682      325F5541 
 7682      52545F52 
 7682      545300
 7683              	.LASF692:
 7684 1b66 50385F31 		.ascii	"P8_1_LCD_SEG55\000"
 7684      5F4C4344 
 7684      5F534547 
 7684      353500
 7685              	.LASF508:
 7686 1b75 50365F37 		.ascii	"P6_7_DSI_DSI\000"
 7686      5F445349 
 7686      5F445349 
 7686      00
 7687              	.LASF1225:
 7688 1b82 5031325F 		.ascii	"P12_2_LCD_SEG25\000"
 7688      325F4C43 
 7688      445F5345 
 7688      47323500 
 7689              	.LASF983:
 7690 1b92 5031305F 		.ascii	"P10_3_DSI_DSI\000"
 7690      335F4453 
 7690      495F4453 
 7690      4900
 7691              	.LASF1282:
 7692 1ba0 5031325F 		.ascii	"P12_6_DSI_GPIO\000"
 7692      365F4453 
 7692      495F4750 
 7692      494F00
 7693              	.LASF1366:
ARM GAS  C:\Users\ikomb\AppData\Local\Temp\ccAzoKUN.s 			page 196


 7694 1baf 5031335F 		.ascii	"P13_7_AMUXB_DSI\000"
 7694      375F414D 
 7694      5558425F 
 7694      44534900 
 7695              	.LASF1427:
 7696 1bbf 43795F47 		.ascii	"Cy_GPIO_SetHSIOM\000"
 7696      50494F5F 
 7696      53657448 
 7696      53494F4D 
 7696      00
 7697              	.LASF885:
 7698 1bd0 50395F35 		.ascii	"P9_5_DSI_GPIO\000"
 7698      5F445349 
 7698      5F475049 
 7698      4F00
 7699              	.LASF1332:
 7700 1bde 5031335F 		.ascii	"P13_1_AMUXA_DSI\000"
 7700      315F414D 
 7700      5558415F 
 7700      44534900 
 7701              	.LASF1396:
 7702 1bee 43595F47 		.ascii	"CY_GPIO_SUCCESS\000"
 7702      50494F5F 
 7702      53554343 
 7702      45535300 
 7703              	.LASF1030:
 7704 1bfe 5031305F 		.ascii	"P10_6_GPIO\000"
 7704      365F4750 
 7704      494F00
 7705              	.LASF391:
 7706 1c09 50365F31 		.ascii	"P6_1_DSI_GPIO\000"
 7706      5F445349 
 7706      5F475049 
 7706      4F00
 7707              	.LASF352:
 7708 1c17 50355F36 		.ascii	"P5_6_GPIO\000"
 7708      5F475049 
 7708      4F00
 7709              	.LASF1301:
 7710 1c21 5031325F 		.ascii	"P12_7_AMUXB_DSI\000"
 7710      375F414D 
 7710      5558425F 
 7710      44534900 
 7711              	.LASF195:
 7712 1c31 50315F32 		.ascii	"P1_2_TCPWM1_LINE12\000"
 7712      5F544350 
 7712      574D315F 
 7712      4C494E45 
 7712      313200
 7713              	.LASF651:
 7714 1c44 50375F37 		.ascii	"P7_7_AMUXB_DSI\000"
 7714      5F414D55 
 7714      58425F44 
 7714      534900
 7715              	.LASF456:
 7716 1c53 50365F34 		.ascii	"P6_4_SCB8_I2C_SCL\000"
 7716      5F534342 
ARM GAS  C:\Users\ikomb\AppData\Local\Temp\ccAzoKUN.s 			page 197


 7716      385F4932 
 7716      435F5343 
 7716      4C00
 7717              	.LASF549:
 7718 1c65 50375F31 		.ascii	"P7_1_AMUXA_DSI\000"
 7718      5F414D55 
 7718      58415F44 
 7718      534900
 7719              	.LASF361:
 7720 1c74 50355F36 		.ascii	"P5_6_TCPWM1_LINE7\000"
 7720      5F544350 
 7720      574D315F 
 7720      4C494E45 
 7720      3700
 7721              	.LASF97:
 7722 1c86 50305F32 		.ascii	"P0_2_SCB0_SPI_MOSI\000"
 7722      5F534342 
 7722      305F5350 
 7722      495F4D4F 
 7722      534900
 7723              	.LASF861:
 7724 1c99 50395F33 		.ascii	"P9_3_LCD_SEG3\000"
 7724      5F4C4344 
 7724      5F534547 
 7724      3300
 7725              	.LASF691:
 7726 1ca7 50385F31 		.ascii	"P8_1_LCD_COM55\000"
 7726      5F4C4344 
 7726      5F434F4D 
 7726      353500
 7727              	.LASF1224:
 7728 1cb6 5031325F 		.ascii	"P12_2_LCD_COM25\000"
 7728      325F4C43 
 7728      445F434F 
 7728      4D323500 
 7729              	.LASF770:
 7730 1cc6 50385F36 		.ascii	"P8_6_TCPWM1_LINE19\000"
 7730      5F544350 
 7730      574D315F 
 7730      4C494E45 
 7730      313900
 7731              	.LASF453:
 7732 1cd9 50365F34 		.ascii	"P6_4_CSD_CSD_TX_N\000"
 7732      5F435344 
 7732      5F435344 
 7732      5F54585F 
 7732      4E00
 7733              	.LASF1298:
 7734 1ceb 5031325F 		.ascii	"P12_7_AMUXA\000"
 7734      375F414D 
 7734      55584100 
 7735              	.LASF1299:
 7736 1cf7 5031325F 		.ascii	"P12_7_AMUXB\000"
 7736      375F414D 
 7736      55584200 
 7737              	.LASF1312:
 7738 1d03 5031335F 		.ascii	"P13_0_AMUXA\000"
ARM GAS  C:\Users\ikomb\AppData\Local\Temp\ccAzoKUN.s 			page 198


 7738      305F414D 
 7738      55584100 
 7739              	.LASF1313:
 7740 1d0f 5031335F 		.ascii	"P13_0_AMUXB\000"
 7740      305F414D 
 7740      55584200 
 7741              	.LASF1200:
 7742 1d1b 5031325F 		.ascii	"P12_1_AMUXB_DSI\000"
 7742      315F414D 
 7742      5558425F 
 7742      44534900 
 7743              	.LASF1015:
 7744 1d2b 5031305F 		.ascii	"P10_5_GPIO_DSI\000"
 7744      355F4750 
 7744      494F5F44 
 7744      534900
 7745              	.LASF398:
 7746 1d3a 50365F31 		.ascii	"P6_1_CSD_CSD_TX\000"
 7746      5F435344 
 7746      5F435344 
 7746      5F545800 
 7747              	.LASF1406:
 7748 1d4a 63795F73 		.ascii	"cy_stc_gpio_prt_config_t\000"
 7748      74635F67 
 7748      70696F5F 
 7748      7072745F 
 7748      636F6E66 
 7749              	.LASF170:
 7750 1d63 50315F31 		.ascii	"P1_1_DSI_DSI\000"
 7750      5F445349 
 7750      5F445349 
 7750      00
 7751              	.LASF487:
 7752 1d70 50365F35 		.ascii	"P6_5_SRSS_DDFT_PIN_IN1\000"
 7752      5F535253 
 7752      535F4444 
 7752      46545F50 
 7752      494E5F49 
 7753              	.LASF151:
 7754 1d87 50315F30 		.ascii	"P1_0_GPIO_DSI\000"
 7754      5F475049 
 7754      4F5F4453 
 7754      4900
 7755              	.LASF434:
 7756 1d95 50365F33 		.ascii	"P6_3_TCPWM1_LINE_COMPL9\000"
 7756      5F544350 
 7756      574D315F 
 7756      4C494E45 
 7756      5F434F4D 
 7757              	.LASF1304:
 7758 1dad 5031325F 		.ascii	"P12_7_CSD_CSD_TX\000"
 7758      375F4353 
 7758      445F4353 
 7758      445F5458 
 7758      00
 7759              	.LASF421:
 7760 1dbe 50365F32 		.ascii	"P6_2_LCD_SEG40\000"
ARM GAS  C:\Users\ikomb\AppData\Local\Temp\ccAzoKUN.s 			page 199


 7760      5F4C4344 
 7760      5F534547 
 7760      343000
 7761              	.LASF906:
 7762 1dcd 50395F36 		.ascii	"P9_6_TCPWM1_LINE1\000"
 7762      5F544350 
 7762      574D315F 
 7762      4C494E45 
 7762      3100
 7763              	.LASF994:
 7764 1ddf 5031305F 		.ascii	"P10_3_LCD_SEG11\000"
 7764      335F4C43 
 7764      445F5345 
 7764      47313100 
 7765              	.LASF723:
 7766 1def 50385F33 		.ascii	"P8_3_TCPWM1_LINE_COMPL17\000"
 7766      5F544350 
 7766      574D315F 
 7766      4C494E45 
 7766      5F434F4D 
 7767              	.LASF395:
 7768 1e08 50365F31 		.ascii	"P6_1_AMUXB_DSI\000"
 7768      5F414D55 
 7768      58425F44 
 7768      534900
 7769              	.LASF746:
 7770 1e17 50385F35 		.ascii	"P8_5_GPIO\000"
 7770      5F475049 
 7770      4F00
 7771              	.LASF485:
 7772 1e21 50365F35 		.ascii	"P6_5_CPUSS_SWJ_SWDOE_TDI\000"
 7772      5F435055 
 7772      53535F53 
 7772      574A5F53 
 7772      57444F45 
 7773              	.LASF1388:
 7774 1e3a 4346475F 		.ascii	"CFG_SIO\000"
 7774      53494F00 
 7775              	.LASF1046:
 7776 1e42 5031315F 		.ascii	"P11_0_GPIO_DSI\000"
 7776      305F4750 
 7776      494F5F44 
 7776      534900
 7777              	.LASF90:
 7778 1e51 50305F32 		.ascii	"P0_2_TCPWM1_LINE1\000"
 7778      5F544350 
 7778      574D315F 
 7778      4C494E45 
 7778      3100
 7779              	.LASF1189:
 7780 1e63 5031325F 		.ascii	"P12_0_SCB6_UART_RX\000"
 7780      305F5343 
 7780      42365F55 
 7780      4152545F 
 7780      525800
 7781              	.LASF1039:
 7782 1e76 5031305F 		.ascii	"P10_6_TCPWM1_LINE2\000"
ARM GAS  C:\Users\ikomb\AppData\Local\Temp\ccAzoKUN.s 			page 200


 7782      365F5443 
 7782      50574D31 
 7782      5F4C494E 
 7782      453200
 7783              	.LASF206:
 7784 1e89 50315F33 		.ascii	"P1_3_AMUXA\000"
 7784      5F414D55 
 7784      584100
 7785              	.LASF207:
 7786 1e94 50315F33 		.ascii	"P1_3_AMUXB\000"
 7786      5F414D55 
 7786      584200
 7787              	.LASF482:
 7788 1e9f 50365F35 		.ascii	"P6_5_SCB6_SPI_MISO\000"
 7788      5F534342 
 7788      365F5350 
 7788      495F4D49 
 7788      534F00
 7789              	.LASF920:
 7790 1eb2 50395F37 		.ascii	"P9_7_TCPWM0_LINE_COMPL0\000"
 7790      5F544350 
 7790      574D305F 
 7790      4C494E45 
 7790      5F434F4D 
 7791              	.LASF1083:
 7792 1eca 5031315F 		.ascii	"P11_2_GPIO\000"
 7792      325F4750 
 7792      494F00
 7793              	.LASF809:
 7794 1ed5 50395F30 		.ascii	"P9_0_CPUSS_TRACE_DATA3\000"
 7794      5F435055 
 7794      53535F54 
 7794      52414345 
 7794      5F444154 
 7795              	.LASF1087:
 7796 1eec 5031315F 		.ascii	"P11_2_AMUXA\000"
 7796      325F414D 
 7796      55584100 
 7797              	.LASF1088:
 7798 1ef8 5031315F 		.ascii	"P11_2_AMUXB\000"
 7798      325F414D 
 7798      55584200 
 7799              	.LASF161:
 7800 1f04 50315F30 		.ascii	"P1_0_CSD_CSD_TX_N\000"
 7800      5F435344 
 7800      5F435344 
 7800      5F54585F 
 7800      4E00
 7801              	.LASF901:
 7802 1f16 50395F36 		.ascii	"P9_6_AMUXA\000"
 7802      5F414D55 
 7802      584100
 7803              	.LASF902:
 7804 1f21 50395F36 		.ascii	"P9_6_AMUXB\000"
 7804      5F414D55 
 7804      584200
 7805              	.LASF1089:
ARM GAS  C:\Users\ikomb\AppData\Local\Temp\ccAzoKUN.s 			page 201


 7806 1f2c 5031315F 		.ascii	"P11_2_AMUXA_DSI\000"
 7806      325F414D 
 7806      5558415F 
 7806      44534900 
 7807              	.LASF420:
 7808 1f3c 50365F32 		.ascii	"P6_2_LCD_COM40\000"
 7808      5F4C4344 
 7808      5F434F4D 
 7808      343000
 7809              	.LASF993:
 7810 1f4b 5031305F 		.ascii	"P10_3_LCD_COM11\000"
 7810      335F4C43 
 7810      445F434F 
 7810      4D313100 
 7811              	.LASF50:
 7812 1f5b 50305F30 		.ascii	"P0_0_DSI_GPIO\000"
 7812      5F445349 
 7812      5F475049 
 7812      4F00
 7813              	.LASF394:
 7814 1f69 50365F31 		.ascii	"P6_1_AMUXA_DSI\000"
 7814      5F414D55 
 7814      58415F44 
 7814      534900
 7815              	.LASF730:
 7816 1f78 50385F33 		.ascii	"P8_3_SCB4_SPI_SELECT0\000"
 7816      5F534342 
 7816      345F5350 
 7816      495F5345 
 7816      4C454354 
 7817              	.LASF1303:
 7818 1f8e 5031325F 		.ascii	"P12_7_TCPWM1_LINE_COMPL7\000"
 7818      375F5443 
 7818      50574D31 
 7818      5F4C494E 
 7818      455F434F 
 7819              	.LASF860:
 7820 1fa7 50395F33 		.ascii	"P9_3_LCD_COM3\000"
 7820      5F4C4344 
 7820      5F434F4D 
 7820      3300
 7821              	.LASF929:
 7822 1fb5 5031305F 		.ascii	"P10_0_DSI_GPIO\000"
 7822      305F4453 
 7822      495F4750 
 7822      494F00
 7823              	.LASF157:
 7824 1fc4 50315F30 		.ascii	"P1_0_AMUXB_DSI\000"
 7824      5F414D55 
 7824      58425F44 
 7824      534900
 7825              	.LASF1157:
 7826 1fd3 5031315F 		.ascii	"P11_6_AMUXA_DSI\000"
 7826      365F414D 
 7826      5558415F 
 7826      44534900 
 7827              	.LASF351:
ARM GAS  C:\Users\ikomb\AppData\Local\Temp\ccAzoKUN.s 			page 202


 7828 1fe3 50355F35 		.ascii	"P5_5_AUDIOSS_RX_WS\000"
 7828      5F415544 
 7828      494F5353 
 7828      5F52585F 
 7828      575300
 7829              	.LASF1288:
 7830 1ff6 5031325F 		.ascii	"P12_6_TCPWM1_LINE7\000"
 7830      365F5443 
 7830      50574D31 
 7830      5F4C494E 
 7830      453700
 7831              	.LASF922:
 7832 2009 50395F37 		.ascii	"P9_7_CSD_CSD_TX\000"
 7832      5F435344 
 7832      5F435344 
 7832      5F545800 
 7833              	.LASF1166:
 7834 2019 5031315F 		.ascii	"P11_7_GPIO_DSI\000"
 7834      375F4750 
 7834      494F5F44 
 7834      534900
 7835              	.LASF575:
 7836 2028 50375F32 		.ascii	"P7_2_SCB4_UART_RTS\000"
 7836      5F534342 
 7836      345F5541 
 7836      52545F52 
 7836      545300
 7837              	.LASF762:
 7838 203b 50385F36 		.ascii	"P8_6_GPIO_DSI\000"
 7838      5F475049 
 7838      4F5F4453 
 7838      4900
 7839              	.LASF292:
 7840 2049 50355F32 		.ascii	"P5_2_AMUXA_DSI\000"
 7840      5F414D55 
 7840      58415F44 
 7840      534900
 7841              	.LASF810:
 7842 2058 50395F31 		.ascii	"P9_1_GPIO\000"
 7842      5F475049 
 7842      4F00
 7843              	.LASF855:
 7844 2062 50395F33 		.ascii	"P9_3_AMUXB_DSI\000"
 7844      5F414D55 
 7844      58425F44 
 7844      534900
 7845              	.LASF287:
 7846 2071 50355F32 		.ascii	"P5_2_GPIO_DSI\000"
 7846      5F475049 
 7846      4F5F4453 
 7846      4900
 7847              	.LASF259:
 7848 207f 50355F30 		.ascii	"P5_0_CSD_CSD_TX_N\000"
 7848      5F435344 
 7848      5F435344 
 7848      5F54585F 
 7848      4E00
ARM GAS  C:\Users\ikomb\AppData\Local\Temp\ccAzoKUN.s 			page 203


 7849              	.LASF694:
 7850 2091 50385F31 		.ascii	"P8_1_SCB4_I2C_SDA\000"
 7850      5F534342 
 7850      345F4932 
 7850      435F5344 
 7850      4100
 7851              	.LASF167:
 7852 20a3 50315F30 		.ascii	"P1_0_PERI_TR_IO_INPUT2\000"
 7852      5F504552 
 7852      495F5452 
 7852      5F494F5F 
 7852      494E5055 
 7853              	.LASF971:
 7854 20ba 5031305F 		.ascii	"P10_2_AMUXB_DSI\000"
 7854      325F414D 
 7854      5558425F 
 7854      44534900 
 7855              	.LASF16:
 7856 20ca 4853494F 		.ascii	"HSIOM_SEL_GPIO_DSI\000"
 7856      4D5F5345 
 7856      4C5F4750 
 7856      494F5F44 
 7856      534900
 7857              	.LASF417:
 7858 20dd 50365F32 		.ascii	"P6_2_TCPWM1_LINE9\000"
 7858      5F544350 
 7858      574D315F 
 7858      4C494E45 
 7858      3900
 7859              	.LASF145:
 7860 20ef 50305F35 		.ascii	"P0_5_LCD_SEG5\000"
 7860      5F4C4344 
 7860      5F534547 
 7860      3500
 7861              	.LASF683:
 7862 20fd 50385F31 		.ascii	"P8_1_AMUXA\000"
 7862      5F414D55 
 7862      584100
 7863              	.LASF684:
 7864 2108 50385F31 		.ascii	"P8_1_AMUXB\000"
 7864      5F414D55 
 7864      584200
 7865              	.LASF196:
 7866 2113 50315F32 		.ascii	"P1_2_CSD_CSD_TX\000"
 7866      5F435344 
 7866      5F435344 
 7866      5F545800 
 7867              	.LASF1329:
 7868 2123 5031335F 		.ascii	"P13_1_DSI_GPIO\000"
 7868      315F4453 
 7868      495F4750 
 7868      494F00
 7869              	.LASF305:
 7870 2132 50355F33 		.ascii	"P5_3_DSI_DSI\000"
 7870      5F445349 
 7870      5F445349 
 7870      00
ARM GAS  C:\Users\ikomb\AppData\Local\Temp\ccAzoKUN.s 			page 204


 7871              	.LASF618:
 7872 213f 50375F35 		.ascii	"P7_5_TCPWM0_LINE_COMPL6\000"
 7872      5F544350 
 7872      574D305F 
 7872      4C494E45 
 7872      5F434F4D 
 7873              	.LASF1082:
 7874 2157 5031315F 		.ascii	"P11_1_PERI_TR_IO_INPUT23\000"
 7874      315F5045 
 7874      52495F54 
 7874      525F494F 
 7874      5F494E50 
 7875              	.LASF70:
 7876 2170 50305F31 		.ascii	"P0_1_AMUXA_DSI\000"
 7876      5F414D55 
 7876      58415F44 
 7876      534900
 7877              	.LASF1381:
 7878 217f 494E5452 		.ascii	"INTR\000"
 7878      00
 7879              	.LASF535:
 7880 2184 50375F30 		.ascii	"P7_0_CSD_CSD_TX_N\000"
 7880      5F435344 
 7880      5F435344 
 7880      5F54585F 
 7880      4E00
 7881              	.LASF742:
 7882 2196 50385F34 		.ascii	"P8_4_CSD_CSD_TX_N\000"
 7882      5F435344 
 7882      5F435344 
 7882      5F54585F 
 7882      4E00
 7883              	.LASF630:
 7884 21a8 50375F36 		.ascii	"P7_6_DSI_GPIO\000"
 7884      5F445349 
 7884      5F475049 
 7884      4F00
 7885              	.LASF627:
 7886 21b6 50375F36 		.ascii	"P7_6_GPIO\000"
 7886      5F475049 
 7886      4F00
 7887              	.LASF1144:
 7888 21c0 5031315F 		.ascii	"P11_5_TCPWM1_LINE_COMPL3\000"
 7888      355F5443 
 7888      50574D31 
 7888      5F4C494E 
 7888      455F434F 
 7889              	.LASF429:
 7890 21d9 50365F33 		.ascii	"P6_3_AMUXA\000"
 7890      5F414D55 
 7890      584100
 7891              	.LASF430:
 7892 21e4 50365F33 		.ascii	"P6_3_AMUXB\000"
 7892      5F414D55 
 7892      584200
 7893              	.LASF1252:
 7894 21ef 5031325F 		.ascii	"P12_4_AMUXA_DSI\000"
ARM GAS  C:\Users\ikomb\AppData\Local\Temp\ccAzoKUN.s 			page 205


 7894      345F414D 
 7894      5558415F 
 7894      44534900 
 7895              	.LASF1023:
 7896 21ff 5031305F 		.ascii	"P10_5_TCPWM1_LINE_COMPL0\000"
 7896      355F5443 
 7896      50574D31 
 7896      5F4C494E 
 7896      455F434F 
 7897              	.LASF802:
 7898 2218 50395F30 		.ascii	"P9_0_CSD_CSD_TX_N\000"
 7898      5F435344 
 7898      5F435344 
 7898      5F54585F 
 7898      4E00
 7899              	.LASF981:
 7900 222a 5031305F 		.ascii	"P10_3_GPIO\000"
 7900      335F4750 
 7900      494F00
 7901              	.LASF737:
 7902 2235 50385F34 		.ascii	"P8_4_AMUXA_DSI\000"
 7902      5F414D55 
 7902      58415F44 
 7902      534900
 7903              	.LASF793:
 7904 2244 50395F30 		.ascii	"P9_0_DSI_DSI\000"
 7904      5F445349 
 7904      5F445349 
 7904      00
 7905              	.LASF1410:
 7906 2251 696E7445 		.ascii	"intEdge\000"
 7906      64676500 
 7907              	.LASF1128:
 7908 2259 5031315F 		.ascii	"P11_4_CSD_CSD_TX\000"
 7908      345F4353 
 7908      445F4353 
 7908      445F5458 
 7908      00
 7909              	.LASF1368:
 7910 226a 5031335F 		.ascii	"P13_7_TCPWM1_LINE_COMPL11\000"
 7910      375F5443 
 7910      50574D31 
 7910      5F4C494E 
 7910      455F434F 
 7911              	.LASF937:
 7912 2284 5031305F 		.ascii	"P10_0_CSD_CSD_TX_N\000"
 7912      305F4353 
 7912      445F4353 
 7912      445F5458 
 7912      5F4E00
 7913              	.LASF1092:
 7914 2297 5031315F 		.ascii	"P11_2_TCPWM1_LINE2\000"
 7914      325F5443 
 7914      50574D31 
 7914      5F4C494E 
 7914      453200
 7915              	.LASF914:
ARM GAS  C:\Users\ikomb\AppData\Local\Temp\ccAzoKUN.s 			page 206


 7916 22aa 50395F37 		.ascii	"P9_7_DSI_DSI\000"
 7916      5F445349 
 7916      5F445349 
 7916      00
 7917              	.LASF1380:
 7918 22b7 4F55545F 		.ascii	"OUT_INV\000"
 7918      494E5600 
 7919              	.LASF1185:
 7920 22bf 5031325F 		.ascii	"P12_0_CSD_CSD_TX_N\000"
 7920      305F4353 
 7920      445F4353 
 7920      445F5458 
 7920      5F4E00
 7921              	.LASF1264:
 7922 22d2 5031325F 		.ascii	"P12_5_GPIO_DSI\000"
 7922      355F4750 
 7922      494F5F44 
 7922      534900
 7923              	.LASF1164:
 7924 22e1 5031315F 		.ascii	"P11_6_SCB5_SPI_SELECT3\000"
 7924      365F5343 
 7924      42355F53 
 7924      50495F53 
 7924      454C4543 
 7925              	.LASF1394:
 7926 22f8 666C6F61 		.ascii	"float\000"
 7926      7400
 7927              	.LASF600:
 7928 22fe 50375F34 		.ascii	"P7_4_AMUXB_DSI\000"
 7928      5F414D55 
 7928      58425F44 
 7928      534900
 7929              	.LASF868:
 7930 230d 50395F34 		.ascii	"P9_4_GPIO_DSI\000"
 7930      5F475049 
 7930      4F5F4453 
 7930      4900
 7931              	.LASF480:
 7932 231b 50365F35 		.ascii	"P6_5_SCB6_UART_TX\000"
 7932      5F534342 
 7932      365F5541 
 7932      52545F54 
 7932      5800
 7933              	.LASF1047:
 7934 232d 5031315F 		.ascii	"P11_0_DSI_DSI\000"
 7934      305F4453 
 7934      495F4453 
 7934      4900
 7935              	.LASF498:
 7936 233b 50365F36 		.ascii	"P6_6_CSD_CSD_TX\000"
 7936      5F435344 
 7936      5F435344 
 7936      5F545800 
 7937              	.LASF144:
 7938 234b 50305F35 		.ascii	"P0_5_LCD_COM5\000"
 7938      5F4C4344 
 7938      5F434F4D 
ARM GAS  C:\Users\ikomb\AppData\Local\Temp\ccAzoKUN.s 			page 207


 7938      3500
 7939              	.LASF311:
 7940 2359 50355F33 		.ascii	"P5_3_TCPWM0_LINE_COMPL5\000"
 7940      5F544350 
 7940      574D305F 
 7940      4C494E45 
 7940      5F434F4D 
 7941              	.LASF741:
 7942 2371 50385F34 		.ascii	"P8_4_CSD_CSD_TX\000"
 7942      5F435344 
 7942      5F435344 
 7942      5F545800 
 7943              	.LASF697:
 7944 2381 50385F32 		.ascii	"P8_2_GPIO\000"
 7944      5F475049 
 7944      4F00
 7945              	.LASF369:
 7946 238b 50365F30 		.ascii	"P6_0_GPIO_DSI\000"
 7946      5F475049 
 7946      4F5F4453 
 7946      4900
 7947              	.LASF623:
 7948 2399 50375F35 		.ascii	"P7_5_LCD_SEG51\000"
 7948      5F4C4344 
 7948      5F534547 
 7948      353100
 7949              	.LASF1162:
 7950 23a8 5031315F 		.ascii	"P11_6_LCD_SEG22\000"
 7950      365F4C43 
 7950      445F5345 
 7950      47323200 
 7951              	.LASF687:
 7952 23b8 50385F31 		.ascii	"P8_1_TCPWM0_LINE_COMPL0\000"
 7952      5F544350 
 7952      574D305F 
 7952      4C494E45 
 7952      5F434F4D 
 7953              	.LASF1073:
 7954 23d0 5031315F 		.ascii	"P11_1_TCPWM1_LINE_COMPL1\000"
 7954      315F5443 
 7954      50574D31 
 7954      5F4C494E 
 7954      455F434F 
 7955              	.LASF360:
 7956 23e9 50355F36 		.ascii	"P5_6_TCPWM0_LINE7\000"
 7956      5F544350 
 7956      574D305F 
 7956      4C494E45 
 7956      3700
 7957              	.LASF236:
 7958 23fb 50315F35 		.ascii	"P1_5_DSI_GPIO\000"
 7958      5F445349 
 7958      5F475049 
 7958      4F00
 7959              	.LASF1269:
 7960 2409 5031325F 		.ascii	"P12_5_AMUXA_DSI\000"
 7960      355F414D 
ARM GAS  C:\Users\ikomb\AppData\Local\Temp\ccAzoKUN.s 			page 208


 7960      5558415F 
 7960      44534900 
 7961              	.LASF215:
 7962 2419 50315F33 		.ascii	"P1_3_LCD_SEG9\000"
 7962      5F4C4344 
 7962      5F534547 
 7962      3900
 7963              	.LASF1412:
 7964 2427 76747269 		.ascii	"vtrip\000"
 7964      7000
 7965              	.LASF552:
 7966 242d 50375F31 		.ascii	"P7_1_TCPWM1_LINE_COMPL12\000"
 7966      5F544350 
 7966      574D315F 
 7966      4C494E45 
 7966      5F434F4D 
 7967              	.LASF1283:
 7968 2446 5031325F 		.ascii	"P12_6_AMUXA\000"
 7968      365F414D 
 7968      55584100 
 7969              	.LASF1284:
 7970 2452 5031325F 		.ascii	"P12_6_AMUXB\000"
 7970      365F414D 
 7970      55584200 
 7971              	.LASF1138:
 7972 245e 5031315F 		.ascii	"P11_5_DSI_GPIO\000"
 7972      355F4453 
 7972      495F4750 
 7972      494F00
 7973              	.LASF635:
 7974 246d 50375F36 		.ascii	"P7_6_TCPWM0_LINE7\000"
 7974      5F544350 
 7974      574D305F 
 7974      4C494E45 
 7974      3700
 7975              	.LASF318:
 7976 247f 50355F33 		.ascii	"P5_3_SCB5_SPI_SELECT0\000"
 7976      5F534342 
 7976      355F5350 
 7976      495F5345 
 7976      4C454354 
 7977              	.LASF471:
 7978 2495 50365F35 		.ascii	"P6_5_AMUXA_DSI\000"
 7978      5F414D55 
 7978      58415F44 
 7978      534900
 7979              	.LASF506:
 7980 24a4 50365F37 		.ascii	"P6_7_GPIO\000"
 7980      5F475049 
 7980      4F00
 7981              	.LASF233:
 7982 24ae 50315F35 		.ascii	"P1_5_GPIO\000"
 7982      5F475049 
 7982      4F00
 7983              	.LASF668:
 7984 24b8 50385F30 		.ascii	"P8_0_AMUXB_DSI\000"
 7984      5F414D55 
ARM GAS  C:\Users\ikomb\AppData\Local\Temp\ccAzoKUN.s 			page 209


 7984      58425F44 
 7984      534900
 7985              	.LASF622:
 7986 24c7 50375F35 		.ascii	"P7_5_LCD_COM51\000"
 7986      5F4C4344 
 7986      5F434F4D 
 7986      353100
 7987              	.LASF143:
 7988 24d6 50305F35 		.ascii	"P0_5_CSD_CSD_TX_N\000"
 7988      5F435344 
 7988      5F435344 
 7988      5F54585F 
 7988      4E00
 7989              	.LASF1161:
 7990 24e8 5031315F 		.ascii	"P11_6_LCD_COM22\000"
 7990      365F4C43 
 7990      445F434F 
 7990      4D323200 
 7991              	.LASF251:
 7992 24f8 50355F30 		.ascii	"P5_0_DSI_GPIO\000"
 7992      5F445349 
 7992      5F475049 
 7992      4F00
 7993              	.LASF884:
 7994 2506 50395F35 		.ascii	"P9_5_DSI_DSI\000"
 7994      5F445349 
 7994      5F445349 
 7994      00
 7995              	.LASF504:
 7996 2513 50365F36 		.ascii	"P6_6_CPUSS_SWJ_SWDIO_TMS\000"
 7996      5F435055 
 7996      53535F53 
 7996      574A5F53 
 7996      5744494F 
 7997              	.LASF1328:
 7998 252c 5031335F 		.ascii	"P13_1_DSI_DSI\000"
 7998      315F4453 
 7998      495F4453 
 7998      4900
 7999              	.LASF905:
 8000 253a 50395F36 		.ascii	"P9_6_TCPWM0_LINE0\000"
 8000      5F544350 
 8000      574D305F 
 8000      4C494E45 
 8000      3000
 8001              	.LASF365:
 8002 254c 50355F36 		.ascii	"P5_6_LCD_SEG36\000"
 8002      5F4C4344 
 8002      5F534547 
 8002      333600
 8003              	.LASF266:
 8004 255b 50355F30 		.ascii	"P5_0_PERI_TR_IO_INPUT10\000"
 8004      5F504552 
 8004      495F5452 
 8004      5F494F5F 
 8004      494E5055 
 8005              	.LASF1142:
ARM GAS  C:\Users\ikomb\AppData\Local\Temp\ccAzoKUN.s 			page 210


 8006 2573 5031315F 		.ascii	"P11_5_AMUXB_DSI\000"
 8006      355F414D 
 8006      5558425F 
 8006      44534900 
 8007              	.LASF670:
 8008 2583 50385F30 		.ascii	"P8_0_TCPWM1_LINE16\000"
 8008      5F544350 
 8008      574D315F 
 8008      4C494E45 
 8008      313600
 8009              	.LASF507:
 8010 2596 50365F37 		.ascii	"P6_7_GPIO_DSI\000"
 8010      5F475049 
 8010      4F5F4453 
 8010      4900
 8011              	.LASF89:
 8012 25a4 50305F32 		.ascii	"P0_2_TCPWM0_LINE1\000"
 8012      5F544350 
 8012      574D305F 
 8012      4C494E45 
 8012      3100
 8013              	.LASF106:
 8014 25b6 50305F33 		.ascii	"P0_3_TCPWM0_LINE_COMPL1\000"
 8014      5F544350 
 8014      574D305F 
 8014      4C494E45 
 8014      5F434F4D 
 8015              	.LASF1060:
 8016 25ce 5031315F 		.ascii	"P11_0_SCB5_UART_RX\000"
 8016      305F5343 
 8016      42355F55 
 8016      4152545F 
 8016      525800
 8017              	.LASF959:
 8018 25e1 5031305F 		.ascii	"P10_1_SCB1_UART_TX\000"
 8018      315F5343 
 8018      42315F55 
 8018      4152545F 
 8018      545800
 8019              	.LASF224:
 8020 25f4 50315F34 		.ascii	"P1_4_AMUXA_DSI\000"
 8020      5F414D55 
 8020      58415F44 
 8020      534900
 8021              	.LASF1068:
 8022 2603 5031315F 		.ascii	"P11_1_AMUXA\000"
 8022      315F414D 
 8022      55584100 
 8023              	.LASF1069:
 8024 260f 5031315F 		.ascii	"P11_1_AMUXB\000"
 8024      315F414D 
 8024      55584200 
 8025              	.LASF83:
 8026 261b 50305F32 		.ascii	"P0_2_DSI_DSI\000"
 8026      5F445349 
 8026      5F445349 
 8026      00
ARM GAS  C:\Users\ikomb\AppData\Local\Temp\ccAzoKUN.s 			page 211


 8027              	.LASF886:
 8028 2628 50395F35 		.ascii	"P9_5_AMUXA\000"
 8028      5F414D55 
 8028      584100
 8029              	.LASF887:
 8030 2633 50395F35 		.ascii	"P9_5_AMUXB\000"
 8030      5F414D55 
 8030      584200
 8031              	.LASF149:
 8032 263e 50305F35 		.ascii	"P0_5_PERI_TR_IO_OUTPUT1\000"
 8032      5F504552 
 8032      495F5452 
 8032      5F494F5F 
 8032      4F555450 
 8033              	.LASF1419:
 8034 2656 766F6853 		.ascii	"vohSel\000"
 8034      656C00
 8035              	.LASF364:
 8036 265d 50355F36 		.ascii	"P5_6_LCD_COM36\000"
 8036      5F4C4344 
 8036      5F434F4D 
 8036      333600
 8037              	.LASF1400:
 8038 266c 696E7472 		.ascii	"intrCfg\000"
 8038      43666700 
 8039              	.LASF1038:
 8040 2674 5031305F 		.ascii	"P10_6_TCPWM0_LINE1\000"
 8040      365F5443 
 8040      50574D30 
 8040      5F4C494E 
 8040      453100
 8041              	.LASF190:
 8042 2687 50315F32 		.ascii	"P1_2_AMUXA\000"
 8042      5F414D55 
 8042      584100
 8043              	.LASF191:
 8044 2692 50315F32 		.ascii	"P1_2_AMUXB\000"
 8044      5F414D55 
 8044      584200
 8045              	.LASF1137:
 8046 269d 5031315F 		.ascii	"P11_5_DSI_DSI\000"
 8046      355F4453 
 8046      495F4453 
 8046      4900
 8047              	.LASF1263:
 8048 26ab 5031325F 		.ascii	"P12_5_GPIO\000"
 8048      355F4750 
 8048      494F00
 8049              	.LASF659:
 8050 26b6 50375F37 		.ascii	"P7_7_CPUSS_CLK_FM_PUMP\000"
 8050      5F435055 
 8050      53535F43 
 8050      4C4B5F46 
 8050      4D5F5055 
 8051              	.LASF497:
 8052 26cd 50365F36 		.ascii	"P6_6_TCPWM1_LINE11\000"
 8052      5F544350 
ARM GAS  C:\Users\ikomb\AppData\Local\Temp\ccAzoKUN.s 			page 212


 8052      574D315F 
 8052      4C494E45 
 8052      313100
 8053              	.LASF343:
 8054 26e0 50355F35 		.ascii	"P5_5_AMUXB_DSI\000"
 8054      5F414D55 
 8054      58425F44 
 8054      534900
 8055              	.LASF385:
 8056 26ef 50365F30 		.ascii	"P6_0_SCB3_SPI_MOSI\000"
 8056      5F534342 
 8056      335F5350 
 8056      495F4D4F 
 8056      534900
 8057              	.LASF214:
 8058 2702 50315F33 		.ascii	"P1_3_LCD_COM9\000"
 8058      5F4C4344 
 8058      5F434F4D 
 8058      3900
 8059              	.LASF1036:
 8060 2710 5031305F 		.ascii	"P10_6_AMUXA_DSI\000"
 8060      365F414D 
 8060      5558415F 
 8060      44534900 
 8061              	.LASF479:
 8062 2720 50365F35 		.ascii	"P6_5_SCB8_I2C_SDA\000"
 8062      5F534342 
 8062      385F4932 
 8062      435F5344 
 8062      4100
 8063              	.LASF577:
 8064 2732 50375F33 		.ascii	"P7_3_GPIO\000"
 8064      5F475049 
 8064      4F00
 8065              	.LASF807:
 8066 273c 50395F30 		.ascii	"P9_0_SCB2_SPI_MOSI\000"
 8066      5F534342 
 8066      325F5350 
 8066      495F4D4F 
 8066      534900
 8067              	.LASF1383:
 8068 274f 494E5452 		.ascii	"INTR_MASKED\000"
 8068      5F4D4153 
 8068      4B454400 
 8069              	.LASF1287:
 8070 275b 5031325F 		.ascii	"P12_6_TCPWM0_LINE7\000"
 8070      365F5443 
 8070      50574D30 
 8070      5F4C494E 
 8070      453700
 8071              	.LASF313:
 8072 276e 50355F33 		.ascii	"P5_3_CSD_CSD_TX\000"
 8072      5F435344 
 8072      5F435344 
 8072      5F545800 
 8073              	.LASF1384:
 8074 277e 494E5452 		.ascii	"INTR_SET\000"
ARM GAS  C:\Users\ikomb\AppData\Local\Temp\ccAzoKUN.s 			page 213


 8074      5F534554 
 8074      00
 8075              	.LASF553:
 8076 2787 50375F31 		.ascii	"P7_1_CSD_CSD_TX\000"
 8076      5F435344 
 8076      5F435344 
 8076      5F545800 
 8077              	.LASF918:
 8078 2797 50395F37 		.ascii	"P9_7_AMUXA_DSI\000"
 8078      5F414D55 
 8078      58415F44 
 8078      534900
 8079              	.LASF1237:
 8080 27a6 5031325F 		.ascii	"P12_3_TCPWM0_LINE_COMPL5\000"
 8080      335F5443 
 8080      50574D30 
 8080      5F4C494E 
 8080      455F434F 
 8081              	.LASF757:
 8082 27bf 50385F35 		.ascii	"P8_5_CSD_CSD_TX_N\000"
 8082      5F435344 
 8082      5F435344 
 8082      5F54585F 
 8082      4E00
 8083              	.LASF829:
 8084 27d1 50395F31 		.ascii	"P9_1_SRSS_DDFT_PIN_IN0\000"
 8084      5F535253 
 8084      535F4444 
 8084      46545F50 
 8084      494E5F49 
 8085              	.LASF926:
 8086 27e8 5031305F 		.ascii	"P10_0_GPIO\000"
 8086      305F4750 
 8086      494F00
 8087              	.LASF648:
 8088 27f3 50375F37 		.ascii	"P7_7_AMUXA\000"
 8088      5F414D55 
 8088      584100
 8089              	.LASF649:
 8090 27fe 50375F37 		.ascii	"P7_7_AMUXB\000"
 8090      5F414D55 
 8090      584200
 8091              	.LASF122:
 8092 2809 50305F34 		.ascii	"P0_4_AMUXB_DSI\000"
 8092      5F414D55 
 8092      58425F44 
 8092      534900
 8093              	.LASF1232:
 8094 2818 5031325F 		.ascii	"P12_3_DSI_GPIO\000"
 8094      335F4453 
 8094      495F4750 
 8094      494F00
 8095              	.LASF6:
 8096 2827 73686F72 		.ascii	"short unsigned int\000"
 8096      7420756E 
 8096      7369676E 
 8096      65642069 
ARM GAS  C:\Users\ikomb\AppData\Local\Temp\ccAzoKUN.s 			page 214


 8096      6E7400
 8097              	.LASF946:
 8098 283a 5031305F 		.ascii	"P10_1_GPIO_DSI\000"
 8098      315F4750 
 8098      494F5F44 
 8098      534900
 8099              	.LASF833:
 8100 2849 50395F32 		.ascii	"P9_2_DSI_GPIO\000"
 8100      5F445349 
 8100      5F475049 
 8100      4F00
 8101              	.LASF804:
 8102 2857 50395F30 		.ascii	"P9_0_LCD_SEG0\000"
 8102      5F4C4344 
 8102      5F534547 
 8102      3000
 8103              	.LASF1359:
 8104 2865 5031335F 		.ascii	"P13_7_GPIO\000"
 8104      375F4750 
 8104      494F00
 8105              	.LASF1414:
 8106 2870 64726976 		.ascii	"driveSel\000"
 8106      6553656C 
 8106      00
 8107              	.LASF653:
 8108 2879 50375F37 		.ascii	"P7_7_TCPWM1_LINE_COMPL15\000"
 8108      5F544350 
 8108      574D315F 
 8108      4C494E45 
 8108      5F434F4D 
 8109              	.LASF416:
 8110 2892 50365F32 		.ascii	"P6_2_TCPWM0_LINE1\000"
 8110      5F544350 
 8110      574D305F 
 8110      4C494E45 
 8110      3100
 8111              	.LASF1369:
 8112 28a4 5031335F 		.ascii	"P13_7_CSD_CSD_TX\000"
 8112      375F4353 
 8112      445F4353 
 8112      445F5458 
 8112      00
 8113              	.LASF665:
 8114 28b5 50385F30 		.ascii	"P8_0_AMUXA\000"
 8114      5F414D55 
 8114      584100
 8115              	.LASF666:
 8116 28c0 50385F30 		.ascii	"P8_0_AMUXB\000"
 8116      5F414D55 
 8116      584200
 8117              	.LASF1346:
 8118 28cb 5031335F 		.ascii	"P13_6_DSI_DSI\000"
 8118      365F4453 
 8118      495F4453 
 8118      4900
 8119              	.LASF1390:
 8120 28d9 52455345 		.ascii	"RESERVED1\000"
ARM GAS  C:\Users\ikomb\AppData\Local\Temp\ccAzoKUN.s 			page 215


 8120      52564544 
 8120      3100
 8121              	.LASF1097:
 8122 28e3 5031315F 		.ascii	"P11_2_SMIF_SPI_SELECT0\000"
 8122      325F534D 
 8122      49465F53 
 8122      50495F53 
 8122      454C4543 
 8123              	.LASF783:
 8124 28fa 50385F37 		.ascii	"P8_7_AMUXB_DSI\000"
 8124      5F414D55 
 8124      58425F44 
 8124      534900
 8125              	.LASF924:
 8126 2909 50395F37 		.ascii	"P9_7_LCD_COM7\000"
 8126      5F4C4344 
 8126      5F434F4D 
 8126      3700
 8127              	.LASF1405:
 8128 2917 73656C31 		.ascii	"sel1Active\000"
 8128      41637469 
 8128      766500
 8129              	.LASF1031:
 8130 2922 5031305F 		.ascii	"P10_6_GPIO_DSI\000"
 8130      365F4750 
 8130      494F5F44 
 8130      534900
 8131              	.LASF685:
 8132 2931 50385F31 		.ascii	"P8_1_AMUXA_DSI\000"
 8132      5F414D55 
 8132      58415F44 
 8132      534900
 8133              	.LASF370:
 8134 2940 50365F30 		.ascii	"P6_0_DSI_DSI\000"
 8134      5F445349 
 8134      5F445349 
 8134      00
 8135              	.LASF448:
 8136 294d 50365F34 		.ascii	"P6_4_AMUXA_DSI\000"
 8136      5F414D55 
 8136      58415F44 
 8136      534900
 8137              	.LASF611:
 8138 295c 50375F35 		.ascii	"P7_5_GPIO_DSI\000"
 8138      5F475049 
 8138      4F5F4453 
 8138      4900
 8139              	.LASF705:
 8140 296a 50385F32 		.ascii	"P8_2_TCPWM0_LINE1\000"
 8140      5F544350 
 8140      574D305F 
 8140      4C494E45 
 8140      3100
 8141              	.LASF1445:
 8142 297c 49544D5F 		.ascii	"ITM_RxBuffer\000"
 8142      52784275 
 8142      66666572 
ARM GAS  C:\Users\ikomb\AppData\Local\Temp\ccAzoKUN.s 			page 216


 8142      00
 8143              	.LASF179:
 8144 2989 50315F31 		.ascii	"P1_1_CSD_CSD_TX_N\000"
 8144      5F435344 
 8144      5F435344 
 8144      5F54585F 
 8144      4E00
 8145              	.LASF451:
 8146 299b 50365F34 		.ascii	"P6_4_TCPWM1_LINE10\000"
 8146      5F544350 
 8146      574D315F 
 8146      4C494E45 
 8146      313000
 8147              	.LASF1146:
 8148 29ae 5031315F 		.ascii	"P11_5_CSD_CSD_TX_N\000"
 8148      355F4353 
 8148      445F4353 
 8148      445F5458 
 8148      5F4E00
 8149              	.LASF1333:
 8150 29c1 5031335F 		.ascii	"P13_1_AMUXB_DSI\000"
 8150      315F414D 
 8150      5558425F 
 8150      44534900 
 8151              	.LASF1208:
 8152 29d1 5031325F 		.ascii	"P12_1_SCB6_UART_TX\000"
 8152      315F5343 
 8152      42365F55 
 8152      4152545F 
 8152      545800
 8153              	.LASF503:
 8154 29e4 50365F36 		.ascii	"P6_6_SCB6_SPI_CLK\000"
 8154      5F534342 
 8154      365F5350 
 8154      495F434C 
 8154      4B00
 8155              	.LASF412:
 8156 29f6 50365F32 		.ascii	"P6_2_AMUXA\000"
 8156      5F414D55 
 8156      584100
 8157              	.LASF413:
 8158 2a01 50365F32 		.ascii	"P6_2_AMUXB\000"
 8158      5F414D55 
 8158      584200
 8159              	.LASF925:
 8160 2a0c 50395F37 		.ascii	"P9_7_LCD_SEG7\000"
 8160      5F4C4344 
 8160      5F534547 
 8160      3700
 8161              	.LASF953:
 8162 2a1a 5031305F 		.ascii	"P10_1_TCPWM0_LINE_COMPL6\000"
 8162      315F5443 
 8162      50574D30 
 8162      5F4C494E 
 8162      455F434F 
 8163              	.LASF1192:
 8164 2a33 5031325F 		.ascii	"P12_0_PERI_TR_IO_INPUT24\000"
ARM GAS  C:\Users\ikomb\AppData\Local\Temp\ccAzoKUN.s 			page 217


 8164      305F5045 
 8164      52495F54 
 8164      525F494F 
 8164      5F494E50 
 8165              	.LASF574:
 8166 2a4c 50375F32 		.ascii	"P7_2_LCD_SEG48\000"
 8166      5F4C4344 
 8166      5F534547 
 8166      343800
 8167              	.LASF1113:
 8168 2a5b 5031315F 		.ascii	"P11_3_LCD_SEG19\000"
 8168      335F4C43 
 8168      445F5345 
 8168      47313900 
 8169              	.LASF550:
 8170 2a6b 50375F31 		.ascii	"P7_1_AMUXB_DSI\000"
 8170      5F414D55 
 8170      58425F44 
 8170      534900
 8171              	.LASF1091:
 8172 2a7a 5031315F 		.ascii	"P11_2_TCPWM0_LINE2\000"
 8172      325F5443 
 8172      50574D30 
 8172      5F4C494E 
 8172      453200
 8173              	.LASF61:
 8174 2a8d 50305F30 		.ascii	"P0_0_SRSS_EXT_CLK\000"
 8174      5F535253 
 8174      535F4558 
 8174      545F434C 
 8174      4B00
 8175              	.LASF468:
 8176 2a9f 50365F35 		.ascii	"P6_5_DSI_GPIO\000"
 8176      5F445349 
 8176      5F475049 
 8176      4F00
 8177              	.LASF864:
 8178 2aad 50395F33 		.ascii	"P9_3_PASS_DSI_CTB_CMP1\000"
 8178      5F504153 
 8178      535F4453 
 8178      495F4354 
 8178      425F434D 
 8179              	.LASF442:
 8180 2ac4 50365F34 		.ascii	"P6_4_GPIO\000"
 8180      5F475049 
 8180      4F00
 8181              	.LASF278:
 8182 2ace 50355F31 		.ascii	"P5_1_CSD_CSD_TX_N\000"
 8182      5F435344 
 8182      5F435344 
 8182      5F54585F 
 8182      4E00
 8183              	.LASF186:
 8184 2ae0 50315F32 		.ascii	"P1_2_GPIO\000"
 8184      5F475049 
 8184      4F00
 8185              	.LASF681:
ARM GAS  C:\Users\ikomb\AppData\Local\Temp\ccAzoKUN.s 			page 218


 8186 2aea 50385F31 		.ascii	"P8_1_DSI_DSI\000"
 8186      5F445349 
 8186      5F445349 
 8186      00
 8187              	.LASF921:
 8188 2af7 50395F37 		.ascii	"P9_7_TCPWM1_LINE_COMPL1\000"
 8188      5F544350 
 8188      574D315F 
 8188      4C494E45 
 8188      5F434F4D 
 8189              	.LASF803:
 8190 2b0f 50395F30 		.ascii	"P9_0_LCD_COM0\000"
 8190      5F4C4344 
 8190      5F434F4D 
 8190      3000
 8191              	.LASF728:
 8192 2b1d 50385F33 		.ascii	"P8_3_LPCOMP_DSI_COMP1\000"
 8192      5F4C5043 
 8192      4F4D505F 
 8192      4453495F 
 8192      434F4D50 
 8193              	.LASF1187:
 8194 2b33 5031325F 		.ascii	"P12_0_LCD_SEG23\000"
 8194      305F4C43 
 8194      445F5345 
 8194      47323300 
 8195              	.LASF219:
 8196 2b43 50315F34 		.ascii	"P1_4_GPIO_DSI\000"
 8196      5F475049 
 8196      4F5F4453 
 8196      4900
 8197              	.LASF1139:
 8198 2b51 5031315F 		.ascii	"P11_5_AMUXA\000"
 8198      355F414D 
 8198      55584100 
 8199              	.LASF1218:
 8200 2b5d 5031325F 		.ascii	"P12_2_AMUXA_DSI\000"
 8200      325F414D 
 8200      5558415F 
 8200      44534900 
 8201              	.LASF573:
 8202 2b6d 50375F32 		.ascii	"P7_2_LCD_COM48\000"
 8202      5F4C4344 
 8202      5F434F4D 
 8202      343800
 8203              	.LASF554:
 8204 2b7c 50375F31 		.ascii	"P7_1_CSD_CSD_TX_N\000"
 8204      5F435344 
 8204      5F435344 
 8204      5F54585F 
 8204      4E00
 8205              	.LASF1112:
 8206 2b8e 5031315F 		.ascii	"P11_3_LCD_COM19\000"
 8206      335F4C43 
 8206      445F434F 
 8206      4D313900 
 8207              	.LASF1003:
ARM GAS  C:\Users\ikomb\AppData\Local\Temp\ccAzoKUN.s 			page 219


 8208 2b9e 5031305F 		.ascii	"P10_4_AMUXB\000"
 8208      345F414D 
 8208      55584200 
 8209              	.LASF1432:
 8210 2baa 43795F47 		.ascii	"Cy_GPIO_SetInterruptMask\000"
 8210      50494F5F 
 8210      53657449 
 8210      6E746572 
 8210      72757074 
 8211              	.LASF125:
 8212 2bc3 50305F34 		.ascii	"P0_4_CSD_CSD_TX\000"
 8212      5F435344 
 8212      5F435344 
 8212      5F545800 
 8213              	.LASF414:
 8214 2bd3 50365F32 		.ascii	"P6_2_AMUXA_DSI\000"
 8214      5F414D55 
 8214      58415F44 
 8214      534900
 8215              	.LASF821:
 8216 2be2 50395F31 		.ascii	"P9_1_CSD_CSD_TX_N\000"
 8216      5F435344 
 8216      5F435344 
 8216      5F54585F 
 8216      4E00
 8217              	.LASF540:
 8218 2bf4 50375F30 		.ascii	"P7_0_SCB4_SPI_MOSI\000"
 8218      5F534342 
 8218      345F5350 
 8218      495F4D4F 
 8218      534900
 8219              	.LASF696:
 8220 2c07 50385F31 		.ascii	"P8_1_PERI_TR_IO_INPUT17\000"
 8220      5F504552 
 8220      495F5452 
 8220      5F494F5F 
 8220      494E5055 
 8221              	.LASF1267:
 8222 2c1f 5031325F 		.ascii	"P12_5_AMUXA\000"
 8222      355F414D 
 8222      55584100 
 8223              	.LASF1040:
 8224 2c2b 5031305F 		.ascii	"P10_6_CSD_CSD_TX\000"
 8224      365F4353 
 8224      445F4353 
 8224      445F5458 
 8224      00
 8225              	.LASF538:
 8226 2c3c 50375F30 		.ascii	"P7_0_SCB4_UART_RX\000"
 8226      5F534342 
 8226      345F5541 
 8226      52545F52 
 8226      5800
 8227              	.LASF467:
 8228 2c4e 50365F35 		.ascii	"P6_5_DSI_DSI\000"
 8228      5F445349 
 8228      5F445349 
ARM GAS  C:\Users\ikomb\AppData\Local\Temp\ccAzoKUN.s 			page 220


 8228      00
 8229              	.LASF1256:
 8230 2c5b 5031325F 		.ascii	"P12_4_CSD_CSD_TX\000"
 8230      345F4353 
 8230      445F4353 
 8230      445F5458 
 8230      00
 8231              	.LASF1119:
 8232 2c6c 5031315F 		.ascii	"P11_4_GPIO_DSI\000"
 8232      345F4750 
 8232      494F5F44 
 8232      534900
 8233              	.LASF947:
 8234 2c7b 5031305F 		.ascii	"P10_1_DSI_DSI\000"
 8234      315F4453 
 8234      495F4453 
 8234      4900
 8235              	.LASF4:
 8236 2c89 756E7369 		.ascii	"unsigned char\000"
 8236      676E6564 
 8236      20636861 
 8236      7200
 8237              	.LASF316:
 8238 2c97 50355F33 		.ascii	"P5_3_LCD_SEG33\000"
 8238      5F4C4344 
 8238      5F534547 
 8238      333300
 8239              	.LASF715:
 8240 2ca6 50385F33 		.ascii	"P8_3_GPIO_DSI\000"
 8240      5F475049 
 8240      4F5F4453 
 8240      4900
 8241              	.LASF118:
 8242 2cb4 50305F34 		.ascii	"P0_4_DSI_GPIO\000"
 8242      5F445349 
 8242      5F475049 
 8242      4F00
 8243              	.LASF896:
 8244 2cc2 50395F35 		.ascii	"P9_5_SCB2_SPI_SELECT2\000"
 8244      5F534342 
 8244      325F5350 
 8244      495F5345 
 8244      4C454354 
 8245              	.LASF1090:
 8246 2cd8 5031315F 		.ascii	"P11_2_AMUXB_DSI\000"
 8246      325F414D 
 8246      5558425F 
 8246      44534900 
 8247              	.LASF1260:
 8248 2ce8 5031325F 		.ascii	"P12_4_SMIF_SPI_SELECT3\000"
 8248      345F534D 
 8248      49465F53 
 8248      50495F53 
 8248      454C4543 
 8249              	.LASF1037:
 8250 2cff 5031305F 		.ascii	"P10_6_AMUXB_DSI\000"
 8250      365F414D 
ARM GAS  C:\Users\ikomb\AppData\Local\Temp\ccAzoKUN.s 			page 221


 8250      5558425F 
 8250      44534900 
 8251              	.LASF1008:
 8252 2d0f 5031305F 		.ascii	"P10_4_CSD_CSD_TX\000"
 8252      345F4353 
 8252      445F4353 
 8252      445F5458 
 8252      00
 8253              	.LASF23:
 8254 2d20 4853494F 		.ascii	"HSIOM_SEL_ACT_0\000"
 8254      4D5F5345 
 8254      4C5F4143 
 8254      545F3000 
 8255              	.LASF24:
 8256 2d30 4853494F 		.ascii	"HSIOM_SEL_ACT_1\000"
 8256      4D5F5345 
 8256      4C5F4143 
 8256      545F3100 
 8257              	.LASF25:
 8258 2d40 4853494F 		.ascii	"HSIOM_SEL_ACT_2\000"
 8258      4D5F5345 
 8258      4C5F4143 
 8258      545F3200 
 8259              	.LASF26:
 8260 2d50 4853494F 		.ascii	"HSIOM_SEL_ACT_3\000"
 8260      4D5F5345 
 8260      4C5F4143 
 8260      545F3300 
 8261              	.LASF31:
 8262 2d60 4853494F 		.ascii	"HSIOM_SEL_ACT_4\000"
 8262      4D5F5345 
 8262      4C5F4143 
 8262      545F3400 
 8263              	.LASF32:
 8264 2d70 4853494F 		.ascii	"HSIOM_SEL_ACT_5\000"
 8264      4D5F5345 
 8264      4C5F4143 
 8264      545F3500 
 8265              	.LASF33:
 8266 2d80 4853494F 		.ascii	"HSIOM_SEL_ACT_6\000"
 8266      4D5F5345 
 8266      4C5F4143 
 8266      545F3600 
 8267              	.LASF34:
 8268 2d90 4853494F 		.ascii	"HSIOM_SEL_ACT_7\000"
 8268      4D5F5345 
 8268      4C5F4143 
 8268      545F3700 
 8269              	.LASF35:
 8270 2da0 4853494F 		.ascii	"HSIOM_SEL_ACT_8\000"
 8270      4D5F5345 
 8270      4C5F4143 
 8270      545F3800 
 8271              	.LASF36:
 8272 2db0 4853494F 		.ascii	"HSIOM_SEL_ACT_9\000"
 8272      4D5F5345 
 8272      4C5F4143 
ARM GAS  C:\Users\ikomb\AppData\Local\Temp\ccAzoKUN.s 			page 222


 8272      545F3900 
 8273              	.LASF174:
 8274 2dc0 50315F31 		.ascii	"P1_1_AMUXA_DSI\000"
 8274      5F414D55 
 8274      58415F44 
 8274      534900
 8275              	.LASF979:
 8276 2dcf 5031305F 		.ascii	"P10_2_SCB1_SPI_CLK\000"
 8276      325F5343 
 8276      42315F53 
 8276      50495F43 
 8276      4C4B00
 8277              	.LASF524:
 8278 2de2 50375F30 		.ascii	"P7_0_GPIO\000"
 8278      5F475049 
 8278      4F00
 8279              	.LASF1439:
 8280 2dec 62617365 		.ascii	"baseHSIOM\000"
 8280      4853494F 
 8280      4D00
 8281              	.LASF458:
 8282 2df6 50365F34 		.ascii	"P6_4_SCB6_I2C_SCL\000"
 8282      5F534342 
 8282      365F4932 
 8282      435F5343 
 8282      4C00
 8283              	.LASF94:
 8284 2e08 50305F32 		.ascii	"P0_2_LCD_SEG2\000"
 8284      5F4C4344 
 8284      5F534547 
 8284      3200
 8285              	.LASF956:
 8286 2e16 5031305F 		.ascii	"P10_1_CSD_CSD_TX_N\000"
 8286      315F4353 
 8286      445F4353 
 8286      445F5458 
 8286      5F4E00
 8287              	.LASF461:
 8288 2e29 50365F34 		.ascii	"P6_4_PERI_TR_IO_OUTPUT0\000"
 8288      5F504552 
 8288      495F5452 
 8288      5F494F5F 
 8288      4F555450 
 8289              	.LASF944:
 8290 2e41 5031305F 		.ascii	"P10_0_CPUSS_TRACE_DATA3\000"
 8290      305F4350 
 8290      5553535F 
 8290      54524143 
 8290      455F4441 
 8291              	.LASF315:
 8292 2e59 50355F33 		.ascii	"P5_3_LCD_COM33\000"
 8292      5F4C4344 
 8292      5F434F4D 
 8292      333300
 8293              	.LASF1214:
 8294 2e68 5031325F 		.ascii	"P12_2_DSI_DSI\000"
 8294      325F4453 
ARM GAS  C:\Users\ikomb\AppData\Local\Temp\ccAzoKUN.s 			page 223


 8294      495F4453 
 8294      4900
 8295              	.LASF1001:
 8296 2e76 5031305F 		.ascii	"P10_4_DSI_GPIO\000"
 8296      345F4453 
 8296      495F4750 
 8296      494F00
 8297              	.LASF637:
 8298 2e85 50375F36 		.ascii	"P7_6_CSD_CSD_TX\000"
 8298      5F435344 
 8298      5F435344 
 8298      5F545800 
 8299              	.LASF873:
 8300 2e95 50395F34 		.ascii	"P9_4_AMUXA_DSI\000"
 8300      5F414D55 
 8300      58415F44 
 8300      534900
 8301              	.LASF1049:
 8302 2ea4 5031315F 		.ascii	"P11_0_AMUXA\000"
 8302      305F414D 
 8302      55584100 
 8303              	.LASF580:
 8304 2eb0 50375F33 		.ascii	"P7_3_DSI_GPIO\000"
 8304      5F445349 
 8304      5F475049 
 8304      4F00
 8305              	.LASF877:
 8306 2ebe 50395F34 		.ascii	"P9_4_CSD_CSD_TX\000"
 8306      5F435344 
 8306      5F435344 
 8306      5F545800 
 8307              	.LASF441:
 8308 2ece 50365F33 		.ascii	"P6_3_SCB8_SPI_SELECT0\000"
 8308      5F534342 
 8308      385F5350 
 8308      495F5345 
 8308      4C454354 
 8309              	.LASF293:
 8310 2ee4 50355F32 		.ascii	"P5_2_AMUXB_DSI\000"
 8310      5F414D55 
 8310      58425F44 
 8310      534900
 8311              	.LASF872:
 8312 2ef3 50395F34 		.ascii	"P9_4_AMUXB\000"
 8312      5F414D55 
 8312      584200
 8313              	.LASF1204:
 8314 2efe 5031325F 		.ascii	"P12_1_CSD_CSD_TX_N\000"
 8314      315F4353 
 8314      445F4353 
 8314      445F5458 
 8314      5F4E00
 8315              	.LASF353:
 8316 2f11 50355F36 		.ascii	"P5_6_GPIO_DSI\000"
 8316      5F475049 
 8316      4F5F4453 
 8316      4900
ARM GAS  C:\Users\ikomb\AppData\Local\Temp\ccAzoKUN.s 			page 224


 8317              	.LASF763:
 8318 2f1f 50385F36 		.ascii	"P8_6_DSI_DSI\000"
 8318      5F445349 
 8318      5F445349 
 8318      00
 8319              	.LASF987:
 8320 2f2c 5031305F 		.ascii	"P10_3_AMUXA_DSI\000"
 8320      335F414D 
 8320      5558415F 
 8320      44534900 
 8321              	.LASF1132:
 8322 2f3c 5031315F 		.ascii	"P11_4_SMIF_SPI_DATA2\000"
 8322      345F534D 
 8322      49465F53 
 8322      50495F44 
 8322      41544132 
 8323              	.LASF336:
 8324 2f51 50355F35 		.ascii	"P5_5_GPIO\000"
 8324      5F475049 
 8324      4F00
 8325              	.LASF98:
 8326 2f5b 50305F33 		.ascii	"P0_3_GPIO\000"
 8326      5F475049 
 8326      4F00
 8327              	.LASF172:
 8328 2f65 50315F31 		.ascii	"P1_1_AMUXA\000"
 8328      5F414D55 
 8328      584100
 8329              	.LASF173:
 8330 2f70 50315F31 		.ascii	"P1_1_AMUXB\000"
 8330      5F414D55 
 8330      584200
 8331              	.LASF257:
 8332 2f7b 50355F30 		.ascii	"P5_0_TCPWM1_LINE4\000"
 8332      5F544350 
 8332      574D315F 
 8332      4C494E45 
 8332      3400
 8333              	.LASF1278:
 8334 2f8d 5031325F 		.ascii	"P12_5_AUDIOSS_PDM_DATA\000"
 8334      355F4155 
 8334      44494F53 
 8334      535F5044 
 8334      4D5F4441 
 8335              	.LASF865:
 8336 2fa4 50395F33 		.ascii	"P9_3_CPUSS_TRACE_DATA0\000"
 8336      5F435055 
 8336      53535F54 
 8336      52414345 
 8336      5F444154 
 8337              	.LASF533:
 8338 2fbb 50375F30 		.ascii	"P7_0_TCPWM1_LINE12\000"
 8338      5F544350 
 8338      574D315F 
 8338      4C494E45 
 8338      313200
 8339              	.LASF1163:
ARM GAS  C:\Users\ikomb\AppData\Local\Temp\ccAzoKUN.s 			page 225


 8340 2fce 5031315F 		.ascii	"P11_6_SMIF_SPI_DATA0\000"
 8340      365F534D 
 8340      49465F53 
 8340      50495F44 
 8340      41544130 
 8341              	.LASF71:
 8342 2fe3 50305F31 		.ascii	"P0_1_AMUXB_DSI\000"
 8342      5F414D55 
 8342      58425F44 
 8342      534900
 8343              	.LASF474:
 8344 2ff2 50365F35 		.ascii	"P6_5_TCPWM1_LINE_COMPL10\000"
 8344      5F544350 
 8344      574D315F 
 8344      4C494E45 
 8344      5F434F4D 
 8345              	.LASF1399:
 8346 300b 696E7472 		.ascii	"intrMask\000"
 8346      4D61736B 
 8346      00
 8347              	.LASF631:
 8348 3014 50375F36 		.ascii	"P7_6_AMUXA\000"
 8348      5F414D55 
 8348      584100
 8349              	.LASF632:
 8350 301f 50375F36 		.ascii	"P7_6_AMUXB\000"
 8350      5F414D55 
 8350      584200
 8351              	.LASF941:
 8352 302a 5031305F 		.ascii	"P10_0_SCB1_I2C_SCL\000"
 8352      305F5343 
 8352      42315F49 
 8352      32435F53 
 8352      434C00
 8353              	.LASF1032:
 8354 303d 5031305F 		.ascii	"P10_6_DSI_DSI\000"
 8354      365F4453 
 8354      495F4453 
 8354      4900
 8355              	.LASF1213:
 8356 304b 5031325F 		.ascii	"P12_2_GPIO_DSI\000"
 8356      325F4750 
 8356      494F5F44 
 8356      534900
 8357              	.LASF811:
 8358 305a 50395F31 		.ascii	"P9_1_GPIO_DSI\000"
 8358      5F475049 
 8358      4F5F4453 
 8358      4900
 8359              	.LASF759:
 8360 3068 50385F35 		.ascii	"P8_5_LCD_SEG59\000"
 8360      5F4C4344 
 8360      5F534547 
 8360      353900
 8361              	.LASF189:
 8362 3077 50315F32 		.ascii	"P1_2_DSI_GPIO\000"
 8362      5F445349 
ARM GAS  C:\Users\ikomb\AppData\Local\Temp\ccAzoKUN.s 			page 226


 8362      5F475049 
 8362      4F00
 8363              	.LASF738:
 8364 3085 50385F34 		.ascii	"P8_4_AMUXB_DSI\000"
 8364      5F414D55 
 8364      58425F44 
 8364      534900
 8365              	.LASF911:
 8366 3094 50395F36 		.ascii	"P9_6_SCB2_SPI_SELECT3\000"
 8366      5F534342 
 8366      325F5350 
 8366      495F5345 
 8366      4C454354 
 8367              	.LASF463:
 8368 30aa 50365F34 		.ascii	"P6_4_SCB8_SPI_MOSI\000"
 8368      5F534342 
 8368      385F5350 
 8368      495F4D4F 
 8368      534900
 8369              	.LASF93:
 8370 30bd 50305F32 		.ascii	"P0_2_LCD_COM2\000"
 8370      5F4C4344 
 8370      5F434F4D 
 8370      3200
 8371              	.LASF1074:
 8372 30cb 5031315F 		.ascii	"P11_1_CSD_CSD_TX\000"
 8372      315F4353 
 8372      445F4353 
 8372      445F5458 
 8372      00
 8373              	.LASF312:
 8374 30dc 50355F33 		.ascii	"P5_3_TCPWM1_LINE_COMPL5\000"
 8374      5F544350 
 8374      574D315F 
 8374      4C494E45 
 8374      5F434F4D 
 8375              	.LASF21:
 8376 30f4 4853494F 		.ascii	"HSIOM_SEL_AMUXA_DSI\000"
 8376      4D5F5345 
 8376      4C5F414D 
 8376      5558415F 
 8376      44534900 
 8377              	.LASF388:
 8378 3108 50365F31 		.ascii	"P6_1_GPIO\000"
 8378      5F475049 
 8378      4F00
 8379              	.LASF795:
 8380 3112 50395F30 		.ascii	"P9_0_AMUXA\000"
 8380      5F414D55 
 8380      584100
 8381              	.LASF1404:
 8382 311d 73656C30 		.ascii	"sel0Active\000"
 8382      41637469 
 8382      766500
 8383              	.LASF1292:
 8384 3128 5031325F 		.ascii	"P12_6_LCD_SEG29\000"
 8384      365F4C43 
ARM GAS  C:\Users\ikomb\AppData\Local\Temp\ccAzoKUN.s 			page 227


 8384      445F5345 
 8384      47323900 
 8385              	.LASF163:
 8386 3138 50315F30 		.ascii	"P1_0_LCD_SEG6\000"
 8386      5F4C4344 
 8386      5F534547 
 8386      3600
 8387              	.LASF1228:
 8388 3146 5031325F 		.ascii	"P12_2_SCB6_SPI_CLK\000"
 8388      325F5343 
 8388      42365F53 
 8388      50495F43 
 8388      4C4B00
 8389              	.LASF1424:
 8390 3159 706F7274 		.ascii	"portNum\000"
 8390      4E756D00 
 8391              	.LASF784:
 8392 3161 50385F37 		.ascii	"P8_7_TCPWM0_LINE_COMPL3\000"
 8392      5F544350 
 8392      574D305F 
 8392      4C494E45 
 8392      5F434F4D 
 8393              	.LASF1086:
 8394 3179 5031315F 		.ascii	"P11_2_DSI_GPIO\000"
 8394      325F4453 
 8394      495F4750 
 8394      494F00
 8395              	.LASF682:
 8396 3188 50385F31 		.ascii	"P8_1_DSI_GPIO\000"
 8396      5F445349 
 8396      5F475049 
 8396      4F00
 8397              	.LASF499:
 8398 3196 50365F36 		.ascii	"P6_6_CSD_CSD_TX_N\000"
 8398      5F435344 
 8398      5F435344 
 8398      5F54585F 
 8398      4E00
 8399              	.LASF1058:
 8400 31a8 5031315F 		.ascii	"P11_0_LCD_SEG16\000"
 8400      305F4C43 
 8400      445F5345 
 8400      47313600 
 8401              	.LASF443:
 8402 31b8 50365F34 		.ascii	"P6_4_GPIO_DSI\000"
 8402      5F475049 
 8402      4F5F4453 
 8402      4900
 8403              	.LASF616:
 8404 31c6 50375F35 		.ascii	"P7_5_AMUXA_DSI\000"
 8404      5F414D55 
 8404      58415F44 
 8404      534900
 8405              	.LASF246:
 8406 31d5 50315F35 		.ascii	"P1_5_LCD_SEG11\000"
 8406      5F4C4344 
 8406      5F534547 
ARM GAS  C:\Users\ikomb\AppData\Local\Temp\ccAzoKUN.s 			page 228


 8406      313100
 8407              	.LASF220:
 8408 31e4 50315F34 		.ascii	"P1_4_DSI_DSI\000"
 8408      5F445349 
 8408      5F445349 
 8408      00
 8409              	.LASF758:
 8410 31f1 50385F35 		.ascii	"P8_5_LCD_COM59\000"
 8410      5F4C4344 
 8410      5F434F4D 
 8410      353900
 8411              	.LASF392:
 8412 3200 50365F31 		.ascii	"P6_1_AMUXA\000"
 8412      5F414D55 
 8412      584100
 8413              	.LASF393:
 8414 320b 50365F31 		.ascii	"P6_1_AMUXB\000"
 8414      5F414D55 
 8414      584200
 8415              	.LASF1291:
 8416 3216 5031325F 		.ascii	"P12_6_LCD_COM29\000"
 8416      365F4C43 
 8416      445F434F 
 8416      4D323900 
 8417              	.LASF269:
 8418 3226 50355F31 		.ascii	"P5_1_DSI_DSI\000"
 8418      5F445349 
 8418      5F445349 
 8418      00
 8419              	.LASF772:
 8420 3233 50385F36 		.ascii	"P8_6_CSD_CSD_TX_N\000"
 8420      5F435344 
 8420      5F435344 
 8420      5F54585F 
 8420      4E00
 8421              	.LASF1436:
 8422 3245 6D61736B 		.ascii	"maskCfgOut\000"
 8422      4366674F 
 8422      757400
 8423              	.LASF1440:
 8424 3250 43795F47 		.ascii	"Cy_GPIO_Pin_FastInit\000"
 8424      50494F5F 
 8424      50696E5F 
 8424      46617374 
 8424      496E6974 
 8425              	.LASF1296:
 8426 3265 5031325F 		.ascii	"P12_7_DSI_DSI\000"
 8426      375F4453 
 8426      495F4453 
 8426      4900
 8427              	.LASF1270:
 8428 3273 5031325F 		.ascii	"P12_5_AMUXB_DSI\000"
 8428      355F414D 
 8428      5558425F 
 8428      44534900 
 8429              	.LASF9:
 8430 3283 5F5F7569 		.ascii	"__uint32_t\000"
ARM GAS  C:\Users\ikomb\AppData\Local\Temp\ccAzoKUN.s 			page 229


 8430      6E743332 
 8430      5F7400
 8431              	.LASF1079:
 8432 328e 5031315F 		.ascii	"P11_1_SCB5_UART_TX\000"
 8432      315F5343 
 8432      42355F55 
 8432      4152545F 
 8432      545800
 8433              	.LASF1423:
 8434 32a1 76616C75 		.ascii	"value\000"
 8434      6500
 8435              	.LASF636:
 8436 32a7 50375F36 		.ascii	"P7_6_TCPWM1_LINE15\000"
 8436      5F544350 
 8436      574D315F 
 8436      4C494E45 
 8436      313500
 8437              	.LASF435:
 8438 32ba 50365F33 		.ascii	"P6_3_CSD_CSD_TX\000"
 8438      5F435344 
 8438      5F435344 
 8438      5F545800 
 8439              	.LASF1028:
 8440 32ca 5031305F 		.ascii	"P10_5_SCB1_SPI_SELECT2\000"
 8440      355F5343 
 8440      42315F53 
 8440      50495F53 
 8440      454C4543 
 8441              	.LASF107:
 8442 32e1 50305F33 		.ascii	"P0_3_TCPWM1_LINE_COMPL1\000"
 8442      5F544350 
 8442      574D315F 
 8442      4C494E45 
 8442      5F434F4D 
 8443              	.LASF689:
 8444 32f9 50385F31 		.ascii	"P8_1_CSD_CSD_TX\000"
 8444      5F435344 
 8444      5F435344 
 8444      5F545800 
 8445              	.LASF1057:
 8446 3309 5031315F 		.ascii	"P11_0_LCD_COM16\000"
 8446      305F4C43 
 8446      445F434F 
 8446      4D313600 
 8447              	.LASF317:
 8448 3319 50355F33 		.ascii	"P5_3_SCB5_UART_CTS\000"
 8448      5F534342 
 8448      355F5541 
 8448      52545F43 
 8448      545300
 8449              	.LASF1416:
 8450 332c 69627566 		.ascii	"ibufMode\000"
 8450      4D6F6465 
 8450      00
 8451              	.LASF245:
 8452 3335 50315F35 		.ascii	"P1_5_LCD_COM11\000"
 8452      5F4C4344 
ARM GAS  C:\Users\ikomb\AppData\Local\Temp\ccAzoKUN.s 			page 230


 8452      5F434F4D 
 8452      313100
 8453              	.LASF501:
 8454 3344 50365F36 		.ascii	"P6_6_LCD_SEG44\000"
 8454      5F4C4344 
 8454      5F534547 
 8454      343400
 8455              	.LASF323:
 8456 3353 50355F34 		.ascii	"P5_4_DSI_GPIO\000"
 8456      5F445349 
 8456      5F475049 
 8456      4F00
 8457              	.LASF472:
 8458 3361 50365F35 		.ascii	"P6_5_AMUXB_DSI\000"
 8458      5F414D55 
 8458      58425F44 
 8458      534900
 8459              	.LASF609:
 8460 3370 50375F34 		.ascii	"P7_4_CPUSS_TRACE_DATA3\000"
 8460      5F435055 
 8460      53535F54 
 8460      52414345 
 8460      5F444154 
 8461              	.LASF95:
 8462 3387 50305F32 		.ascii	"P0_2_SCB0_UART_RX\000"
 8462      5F534342 
 8462      305F5541 
 8462      52545F52 
 8462      5800
 8463              	.LASF1309:
 8464 3399 5031335F 		.ascii	"P13_0_GPIO_DSI\000"
 8464      305F4750 
 8464      494F5F44 
 8464      534900
 8465              	.LASF124:
 8466 33a8 50305F34 		.ascii	"P0_4_TCPWM1_LINE2\000"
 8466      5F544350 
 8466      574D315F 
 8466      4C494E45 
 8466      3200
 8467              	.LASF261:
 8468 33ba 50355F30 		.ascii	"P5_0_LCD_SEG30\000"
 8468      5F4C4344 
 8468      5F534547 
 8468      333000
 8469              	.LASF1190:
 8470 33c9 5031325F 		.ascii	"P12_0_SCB6_I2C_SCL\000"
 8470      305F5343 
 8470      42365F49 
 8470      32435F53 
 8470      434C00
 8471              	.LASF162:
 8472 33dc 50315F30 		.ascii	"P1_0_LCD_COM6\000"
 8472      5F4C4344 
 8472      5F434F4D 
 8472      3600
 8473              	.LASF852:
ARM GAS  C:\Users\ikomb\AppData\Local\Temp\ccAzoKUN.s 			page 231


 8474 33ea 50395F33 		.ascii	"P9_3_AMUXA\000"
 8474      5F414D55 
 8474      584100
 8475              	.LASF197:
 8476 33f5 50315F32 		.ascii	"P1_2_CSD_CSD_TX_N\000"
 8476      5F435344 
 8476      5F435344 
 8476      5F54585F 
 8476      4E00
 8477              	.LASF473:
 8478 3407 50365F35 		.ascii	"P6_5_TCPWM0_LINE_COMPL2\000"
 8478      5F544350 
 8478      574D305F 
 8478      4C494E45 
 8478      5F434F4D 
 8479              	.LASF962:
 8480 341f 5031305F 		.ascii	"P10_1_PERI_TR_IO_INPUT21\000"
 8480      315F5045 
 8480      52495F54 
 8480      525F494F 
 8480      5F494E50 
 8481              	.LASF1425:
 8482 3438 74656D70 		.ascii	"tempReg\000"
 8482      52656700 
 8483              	.LASF1326:
 8484 3440 5031335F 		.ascii	"P13_1_GPIO\000"
 8484      315F4750 
 8484      494F00
 8485              	.LASF500:
 8486 344b 50365F36 		.ascii	"P6_6_LCD_COM44\000"
 8486      5F4C4344 
 8486      5F434F4D 
 8486      343400
 8487              	.LASF1160:
 8488 345a 5031315F 		.ascii	"P11_6_CSD_CSD_TX_N\000"
 8488      365F4353 
 8488      445F4353 
 8488      445F5458 
 8488      5F4E00
 8489              	.LASF225:
 8490 346d 50315F34 		.ascii	"P1_4_AMUXB_DSI\000"
 8490      5F414D55 
 8490      58425F44 
 8490      534900
 8491              	.LASF1250:
 8492 347c 5031325F 		.ascii	"P12_4_AMUXA\000"
 8492      345F414D 
 8492      55584100 
 8493              	.LASF1251:
 8494 3488 5031325F 		.ascii	"P12_4_AMUXB\000"
 8494      345F414D 
 8494      55584200 
 8495              	.LASF286:
 8496 3494 50355F32 		.ascii	"P5_2_GPIO\000"
 8496      5F475049 
 8496      4F00
 8497              	.LASF47:
ARM GAS  C:\Users\ikomb\AppData\Local\Temp\ccAzoKUN.s 			page 232


 8498 349e 50305F30 		.ascii	"P0_0_GPIO\000"
 8498      5F475049 
 8498      4F00
 8499              	.LASF856:
 8500 34a8 50395F33 		.ascii	"P9_3_TCPWM0_LINE_COMPL5\000"
 8500      5F544350 
 8500      574D305F 
 8500      4C494E45 
 8500      5F434F4D 
 8501              	.LASF1238:
 8502 34c0 5031325F 		.ascii	"P12_3_TCPWM1_LINE_COMPL5\000"
 8502      335F5443 
 8502      50574D31 
 8502      5F4C494E 
 8502      455F434F 
 8503              	.LASF99:
 8504 34d9 50305F33 		.ascii	"P0_3_GPIO_DSI\000"
 8504      5F475049 
 8504      4F5F4453 
 8504      4900
 8505              	.LASF1070:
 8506 34e7 5031315F 		.ascii	"P11_1_AMUXA_DSI\000"
 8506      315F414D 
 8506      5558415F 
 8506      44534900 
 8507              	.LASF563:
 8508 34f7 50375F32 		.ascii	"P7_2_DSI_DSI\000"
 8508      5F445349 
 8508      5F445349 
 8508      00
 8509              	.LASF334:
 8510 3504 50355F34 		.ascii	"P5_4_SCB5_SPI_SELECT1\000"
 8510      5F534342 
 8510      355F5350 
 8510      495F5345 
 8510      4C454354 
 8511              	.LASF358:
 8512 351a 50355F36 		.ascii	"P5_6_AMUXA_DSI\000"
 8512      5F414D55 
 8512      58415F44 
 8512      534900
 8513              	.LASF1177:
 8514 3529 5031325F 		.ascii	"P12_0_DSI_GPIO\000"
 8514      305F4453 
 8514      495F4750 
 8514      494F00
 8515              	.LASF1355:
 8516 3538 5031335F 		.ascii	"P13_6_CSD_CSD_TX_N\000"
 8516      365F4353 
 8516      445F4353 
 8516      445F5458 
 8516      5F4E00
 8517              	.LASF260:
 8518 354b 50355F30 		.ascii	"P5_0_LCD_COM30\000"
 8518      5F4C4344 
 8518      5F434F4D 
 8518      333000
ARM GAS  C:\Users\ikomb\AppData\Local\Temp\ccAzoKUN.s 			page 233


 8519              	.LASF1411:
 8520 355a 696E744D 		.ascii	"intMask\000"
 8520      61736B00 
 8521              	.LASF961:
 8522 3562 5031305F 		.ascii	"P10_1_SCB1_SPI_MISO\000"
 8522      315F5343 
 8522      42315F53 
 8522      50495F4D 
 8522      49534F00 
 8523              	.LASF982:
 8524 3576 5031305F 		.ascii	"P10_3_GPIO_DSI\000"
 8524      335F4750 
 8524      494F5F44 
 8524      534900
 8525              	.LASF383:
 8526 3585 50365F30 		.ascii	"P6_0_SCB3_UART_RX\000"
 8526      5F534342 
 8526      335F5541 
 8526      52545F52 
 8526      5800
 8527              	.LASF857:
 8528 3597 50395F33 		.ascii	"P9_3_TCPWM1_LINE_COMPL21\000"
 8528      5F544350 
 8528      574D315F 
 8528      4C494E45 
 8528      5F434F4D 
 8529              	.LASF562:
 8530 35b0 50375F32 		.ascii	"P7_2_GPIO_DSI\000"
 8530      5F475049 
 8530      4F5F4453 
 8530      4900
 8531              	.LASF816:
 8532 35be 50395F31 		.ascii	"P9_1_AMUXA_DSI\000"
 8532      5F414D55 
 8532      58415F44 
 8532      534900
 8533              	.LASF297:
 8534 35cd 50355F32 		.ascii	"P5_2_CSD_CSD_TX_N\000"
 8534      5F435344 
 8534      5F435344 
 8534      5F54585F 
 8534      4E00
 8535              	.LASF1151:
 8536 35df 5031315F 		.ascii	"P11_6_GPIO\000"
 8536      365F4750 
 8536      494F00
 8537              	.LASF354:
 8538 35ea 50355F36 		.ascii	"P5_6_DSI_DSI\000"
 8538      5F445349 
 8538      5F445349 
 8538      00
 8539              	.LASF932:
 8540 35f7 5031305F 		.ascii	"P10_0_AMUXA_DSI\000"
 8540      305F414D 
 8540      5558415F 
 8540      44534900 
 8541              	.LASF1441:
ARM GAS  C:\Users\ikomb\AppData\Local\Temp\ccAzoKUN.s 			page 234


 8542 3607 43795F47 		.ascii	"Cy_GPIO_Port_Deinit\000"
 8542      50494F5F 
 8542      506F7274 
 8542      5F446569 
 8542      6E697400 
 8543              	.LASF1034:
 8544 361b 5031305F 		.ascii	"P10_6_AMUXA\000"
 8544      365F414D 
 8544      55584100 
 8545              	.LASF1035:
 8546 3627 5031305F 		.ascii	"P10_6_AMUXB\000"
 8546      365F414D 
 8546      55584200 
 8547              	.LASF808:
 8548 3633 50395F30 		.ascii	"P9_0_PERI_TR_IO_INPUT18\000"
 8548      5F504552 
 8548      495F5452 
 8548      5F494F5F 
 8548      494E5055 
 8549              	.LASF1418:
 8550 364b 76726566 		.ascii	"vrefSel\000"
 8550      53656C00 
 8551              	.LASF138:
 8552 3653 50305F35 		.ascii	"P0_5_AMUXA_DSI\000"
 8552      5F414D55 
 8552      58415F44 
 8552      534900
 8553              	.LASF1297:
 8554 3662 5031325F 		.ascii	"P12_7_DSI_GPIO\000"
 8554      375F4453 
 8554      495F4750 
 8554      494F00
 8555              	.LASF572:
 8556 3671 50375F32 		.ascii	"P7_2_CSD_CSD_TX_N\000"
 8556      5F435344 
 8556      5F435344 
 8556      5F54585F 
 8556      4E00
 8557              	.LASF853:
 8558 3683 50395F33 		.ascii	"P9_3_AMUXB\000"
 8558      5F414D55 
 8558      584200
 8559              	.LASF900:
 8560 368e 50395F36 		.ascii	"P9_6_DSI_GPIO\000"
 8560      5F445349 
 8560      5F475049 
 8560      4F00
 8561              	.LASF241:
 8562 369c 50315F35 		.ascii	"P1_5_TCPWM0_LINE_COMPL5\000"
 8562      5F544350 
 8562      574D305F 
 8562      4C494E45 
 8562      5F434F4D 
 8563              	.LASF228:
 8564 36b4 50315F34 		.ascii	"P1_4_CSD_CSD_TX\000"
 8564      5F435344 
 8564      5F435344 
ARM GAS  C:\Users\ikomb\AppData\Local\Temp\ccAzoKUN.s 			page 235


 8564      5F545800 
 8565              	.LASF551:
 8566 36c4 50375F31 		.ascii	"P7_1_TCPWM0_LINE_COMPL4\000"
 8566      5F544350 
 8566      574D305F 
 8566      4C494E45 
 8566      5F434F4D 
 8567              	.LASF1324:
 8568 36dc 5031335F 		.ascii	"P13_0_SCB6_SPI_MOSI\000"
 8568      305F5343 
 8568      42365F53 
 8568      50495F4D 
 8568      4F534900 
 8569              	.LASF850:
 8570 36f0 50395F33 		.ascii	"P9_3_DSI_DSI\000"
 8570      5F445349 
 8570      5F445349 
 8570      00
 8571              	.LASF154:
 8572 36fd 50315F30 		.ascii	"P1_0_AMUXA\000"
 8572      5F414D55 
 8572      584100
 8573              	.LASF155:
 8574 3708 50315F30 		.ascii	"P1_0_AMUXB\000"
 8574      5F414D55 
 8574      584200
 8575              	.LASF258:
 8576 3713 50355F30 		.ascii	"P5_0_CSD_CSD_TX\000"
 8576      5F435344 
 8576      5F435344 
 8576      5F545800 
 8577              	.LASF411:
 8578 3723 50365F32 		.ascii	"P6_2_DSI_GPIO\000"
 8578      5F445349 
 8578      5F475049 
 8578      4F00
 8579              	.LASF464:
 8580 3731 50365F34 		.ascii	"P6_4_SRSS_DDFT_PIN_IN0\000"
 8580      5F535253 
 8580      535F4444 
 8580      46545F50 
 8580      494E5F49 
 8581              	.LASF841:
 8582 3748 50395F32 		.ascii	"P9_2_CSD_CSD_TX_N\000"
 8582      5F435344 
 8582      5F435344 
 8582      5F54585F 
 8582      4E00
 8583              	.LASF1159:
 8584 375a 5031315F 		.ascii	"P11_6_CSD_CSD_TX\000"
 8584      365F4353 
 8584      445F4353 
 8584      445F5458 
 8584      00
 8585              	.LASF880:
 8586 376b 50395F34 		.ascii	"P9_4_LCD_SEG4\000"
 8586      5F4C4344 
ARM GAS  C:\Users\ikomb\AppData\Local\Temp\ccAzoKUN.s 			page 236


 8586      5F534547 
 8586      3400
 8587              	.LASF211:
 8588 3779 50315F33 		.ascii	"P1_3_TCPWM1_LINE_COMPL12\000"
 8588      5F544350 
 8588      574D315F 
 8588      4C494E45 
 8588      5F434F4D 
 8589              	.LASF919:
 8590 3792 50395F37 		.ascii	"P9_7_AMUXB_DSI\000"
 8590      5F414D55 
 8590      58425F44 
 8590      534900
 8591              	.LASF954:
 8592 37a1 5031305F 		.ascii	"P10_1_TCPWM1_LINE_COMPL22\000"
 8592      315F5443 
 8592      50574D31 
 8592      5F4C494E 
 8592      455F434F 
 8593              	.LASF710:
 8594 37bb 50385F32 		.ascii	"P8_2_LCD_SEG56\000"
 8594      5F4C4344 
 8594      5F534547 
 8594      353600
 8595              	.LASF1242:
 8596 37ca 5031325F 		.ascii	"P12_3_LCD_SEG26\000"
 8596      335F4C43 
 8596      445F5345 
 8596      47323600 
 8597              	.LASF686:
 8598 37da 50385F31 		.ascii	"P8_1_AMUXB_DSI\000"
 8598      5F414D55 
 8598      58425F44 
 8598      534900
 8599              	.LASF159:
 8600 37e9 50315F30 		.ascii	"P1_0_TCPWM1_LINE3\000"
 8600      5F544350 
 8600      574D315F 
 8600      4C494E45 
 8600      3300
 8601              	.LASF49:
 8602 37fb 50305F30 		.ascii	"P0_0_DSI_DSI\000"
 8602      5F445349 
 8602      5F445349 
 8602      00
 8603              	.LASF614:
 8604 3808 50375F35 		.ascii	"P7_5_AMUXA\000"
 8604      5F414D55 
 8604      584100
 8605              	.LASF615:
 8606 3813 50375F35 		.ascii	"P7_5_AMUXB\000"
 8606      5F414D55 
 8606      584200
 8607              	.LASF1212:
 8608 381e 5031325F 		.ascii	"P12_2_GPIO\000"
 8608      325F4750 
 8608      494F00
ARM GAS  C:\Users\ikomb\AppData\Local\Temp\ccAzoKUN.s 			page 237


 8609              	.LASF476:
 8610 3829 50365F35 		.ascii	"P6_5_CSD_CSD_TX_N\000"
 8610      5F435344 
 8610      5F435344 
 8610      5F54585F 
 8610      4E00
 8611              	.LASF169:
 8612 383b 50315F31 		.ascii	"P1_1_GPIO_DSI\000"
 8612      5F475049 
 8612      4F5F4453 
 8612      4900
 8613              	.LASF646:
 8614 3849 50375F37 		.ascii	"P7_7_DSI_DSI\000"
 8614      5F445349 
 8614      5F445349 
 8614      00
 8615              	.LASF1102:
 8616 3856 5031315F 		.ascii	"P11_3_DSI_DSI\000"
 8616      335F4453 
 8616      495F4453 
 8616      4900
 8617              	.LASF1127:
 8618 3864 5031315F 		.ascii	"P11_4_TCPWM1_LINE3\000"
 8618      345F5443 
 8618      50574D31 
 8618      5F4C494E 
 8618      453300
 8619              	.LASF818:
 8620 3877 50395F31 		.ascii	"P9_1_TCPWM0_LINE_COMPL4\000"
 8620      5F544350 
 8620      574D305F 
 8620      4C494E45 
 8620      5F434F4D 
 8621              	.LASF481:
 8622 388f 50365F35 		.ascii	"P6_5_SCB6_I2C_SDA\000"
 8622      5F534342 
 8622      365F4932 
 8622      435F5344 
 8622      4100
 8623              	.LASF557:
 8624 38a1 50375F31 		.ascii	"P7_1_SCB4_UART_TX\000"
 8624      5F534342 
 8624      345F5541 
 8624      52545F54 
 8624      5800
 8625              	.LASF1398:
 8626 38b3 63795F65 		.ascii	"cy_en_gpio_status_t\000"
 8626      6E5F6770 
 8626      696F5F73 
 8626      74617475 
 8626      735F7400 
 8627              	.LASF148:
 8628 38c7 50305F35 		.ascii	"P0_5_SCB0_SPI_SELECT0\000"
 8628      5F534342 
 8628      305F5350 
 8628      495F5345 
 8628      4C454354 
ARM GAS  C:\Users\ikomb\AppData\Local\Temp\ccAzoKUN.s 			page 238


 8629              	.LASF1065:
 8630 38dd 5031315F 		.ascii	"P11_1_GPIO_DSI\000"
 8630      315F4750 
 8630      494F5F44 
 8630      534900
 8631              	.LASF662:
 8632 38ec 50385F30 		.ascii	"P8_0_GPIO_DSI\000"
 8632      5F475049 
 8632      4F5F4453 
 8632      4900
 8633              	.LASF1223:
 8634 38fa 5031325F 		.ascii	"P12_2_CSD_CSD_TX_N\000"
 8634      325F4353 
 8634      445F4353 
 8634      445F5458 
 8634      5F4E00
 8635              	.LASF567:
 8636 390d 50375F32 		.ascii	"P7_2_AMUXA_DSI\000"
 8636      5F414D55 
 8636      58415F44 
 8636      534900
 8637              	.LASF283:
 8638 391c 50355F31 		.ascii	"P5_1_SCB5_SPI_MISO\000"
 8638      5F534342 
 8638      355F5350 
 8638      495F4D49 
 8638      534F00
 8639              	.LASF1099:
 8640 392f 5031315F 		.ascii	"P11_2_SCB5_SPI_CLK\000"
 8640      325F5343 
 8640      42355F53 
 8640      50495F43 
 8640      4C4B00
 8641              	.LASF709:
 8642 3942 50385F32 		.ascii	"P8_2_LCD_COM56\000"
 8642      5F4C4344 
 8642      5F434F4D 
 8642      353600
 8643              	.LASF771:
 8644 3951 50385F36 		.ascii	"P8_6_CSD_CSD_TX\000"
 8644      5F435344 
 8644      5F435344 
 8644      5F545800 
 8645              	.LASF147:
 8646 3961 50305F35 		.ascii	"P0_5_SCB0_UART_CTS\000"
 8646      5F534342 
 8646      305F5541 
 8646      52545F43 
 8646      545300
 8647              	.LASF695:
 8648 3974 50385F31 		.ascii	"P8_1_SCB4_SPI_MISO\000"
 8648      5F534342 
 8648      345F5350 
 8648      495F4D49 
 8648      534F00
 8649              	.LASF996:
 8650 3987 5031305F 		.ascii	"P10_3_SCB1_SPI_SELECT0\000"
ARM GAS  C:\Users\ikomb\AppData\Local\Temp\ccAzoKUN.s 			page 239


 8650      335F5343 
 8650      42315F53 
 8650      50495F53 
 8650      454C4543 
 8651              	.LASF67:
 8652 399e 50305F31 		.ascii	"P0_1_DSI_GPIO\000"
 8652      5F445349 
 8652      5F475049 
 8652      4F00
 8653              	.LASF1442:
 8654 39ac 474E5520 		.ascii	"GNU C11 5.4.1 20160609 (release) [ARM/embedded-5-br"
 8654      43313120 
 8654      352E342E 
 8654      31203230 
 8654      31363036 
 8655 39df 616E6368 		.ascii	"anch revision 237715] -mcpu=cortex-m4 -mfloat-abi=s"
 8655      20726576 
 8655      6973696F 
 8655      6E203233 
 8655      37373135 
 8656 3a12 6F667466 		.ascii	"oftfp -mfpu=fpv4-sp-d16 -mthumb -g -O0 -ffunction-s"
 8656      70202D6D 
 8656      6670753D 
 8656      66707634 
 8656      2D73702D 
 8657 3a45 65637469 		.ascii	"ections -ffat-lto-objects\000"
 8657      6F6E7320 
 8657      2D666661 
 8657      742D6C74 
 8657      6F2D6F62 
 8658              	.LASF1219:
 8659 3a5f 5031325F 		.ascii	"P12_2_AMUXB_DSI\000"
 8659      325F414D 
 8659      5558425F 
 8659      44534900 
 8660              	.LASF879:
 8661 3a6f 50395F34 		.ascii	"P9_4_LCD_COM4\000"
 8661      5F4C4344 
 8661      5F434F4D 
 8661      3400
 8662              	.LASF372:
 8663 3a7d 50365F30 		.ascii	"P6_0_AMUXA\000"
 8663      5F414D55 
 8663      584100
 8664              	.LASF373:
 8665 3a88 50365F30 		.ascii	"P6_0_AMUXB\000"
 8665      5F414D55 
 8665      584200
 8666              	.LASF200:
 8667 3a93 50315F32 		.ascii	"P1_2_SCB7_UART_RTS\000"
 8667      5F534342 
 8667      375F5541 
 8667      52545F52 
 8667      545300
 8668              	.LASF527:
 8669 3aa6 50375F30 		.ascii	"P7_0_DSI_GPIO\000"
 8669      5F445349 
ARM GAS  C:\Users\ikomb\AppData\Local\Temp\ccAzoKUN.s 			page 240


 8669      5F475049 
 8669      4F00
 8670              	.LASF1386:
 8671 3ab4 4346475F 		.ascii	"CFG_IN\000"
 8671      494E00
 8672              	.LASF438:
 8673 3abb 50365F33 		.ascii	"P6_3_LCD_SEG41\000"
 8673      5F4C4344 
 8673      5F534547 
 8673      343100
 8674              	.LASF1011:
 8675 3aca 5031305F 		.ascii	"P10_4_LCD_SEG12\000"
 8675      345F4C43 
 8675      445F5345 
 8675      47313200 
 8676              	.LASF74:
 8677 3ada 50305F31 		.ascii	"P0_1_CSD_CSD_TX\000"
 8677      5F435344 
 8677      5F435344 
 8677      5F545800 
 8678              	.LASF415:
 8679 3aea 50365F32 		.ascii	"P6_2_AMUXB_DSI\000"
 8679      5F414D55 
 8679      58425F44 
 8679      534900
 8680              	.LASF227:
 8681 3af9 50315F34 		.ascii	"P1_4_TCPWM1_LINE13\000"
 8681      5F544350 
 8681      574D315F 
 8681      4C494E45 
 8681      313300
 8682              	.LASF777:
 8683 3b0c 50385F37 		.ascii	"P8_7_GPIO_DSI\000"
 8683      5F475049 
 8683      4F5F4453 
 8683      4900
 8684              	.LASF1108:
 8685 3b1a 5031315F 		.ascii	"P11_3_TCPWM0_LINE_COMPL2\000"
 8685      335F5443 
 8685      50574D30 
 8685      5F4C494E 
 8685      455F434F 
 8686              	.LASF991:
 8687 3b33 5031305F 		.ascii	"P10_3_CSD_CSD_TX\000"
 8687      335F4353 
 8687      445F4353 
 8687      445F5458 
 8687      00
 8688              	.LASF134:
 8689 3b44 50305F35 		.ascii	"P0_5_DSI_DSI\000"
 8689      5F445349 
 8689      5F445349 
 8689      00
 8690              	.LASF1203:
 8691 3b51 5031325F 		.ascii	"P12_1_CSD_CSD_TX\000"
 8691      315F4353 
 8691      445F4353 
ARM GAS  C:\Users\ikomb\AppData\Local\Temp\ccAzoKUN.s 			page 241


 8691      445F5458 
 8691      00
 8692              	.LASF761:
 8693 3b62 50385F36 		.ascii	"P8_6_GPIO\000"
 8693      5F475049 
 8693      4F00
 8694              	.LASF1098:
 8695 3b6c 5031315F 		.ascii	"P11_2_SCB5_UART_RTS\000"
 8695      325F5343 
 8695      42355F55 
 8695      4152545F 
 8695      52545300 
 8696              	.LASF304:
 8697 3b80 50355F33 		.ascii	"P5_3_GPIO_DSI\000"
 8697      5F475049 
 8697      4F5F4453 
 8697      4900
 8698              	.LASF1106:
 8699 3b8e 5031315F 		.ascii	"P11_3_AMUXA_DSI\000"
 8699      335F414D 
 8699      5558415F 
 8699      44534900 
 8700              	.LASF437:
 8701 3b9e 50365F33 		.ascii	"P6_3_LCD_COM41\000"
 8701      5F4C4344 
 8701      5F434F4D 
 8701      343100
 8702              	.LASF1262:
 8703 3bad 5031325F 		.ascii	"P12_4_AUDIOSS_PDM_CLK\000"
 8703      345F4155 
 8703      44494F53 
 8703      535F5044 
 8703      4D5F434C 
 8704              	.LASF1100:
 8705 3bc3 5031315F 		.ascii	"P11_3_GPIO\000"
 8705      335F4750 
 8705      494F00
 8706              	.LASF688:
 8707 3bce 50385F31 		.ascii	"P8_1_TCPWM1_LINE_COMPL16\000"
 8707      5F544350 
 8707      574D315F 
 8707      4C494E45 
 8707      5F434F4D 
 8708              	.LASF175:
 8709 3be7 50315F31 		.ascii	"P1_1_AMUXB_DSI\000"
 8709      5F414D55 
 8709      58425F44 
 8709      534900
 8710              	.LASF123:
 8711 3bf6 50305F34 		.ascii	"P0_4_TCPWM0_LINE2\000"
 8711      5F544350 
 8711      574D305F 
 8711      4C494E45 
 8711      3200
 8712              	.LASF1221:
 8713 3c08 5031325F 		.ascii	"P12_2_TCPWM1_LINE5\000"
 8713      325F5443 
ARM GAS  C:\Users\ikomb\AppData\Local\Temp\ccAzoKUN.s 			page 242


 8713      50574D31 
 8713      5F4C494E 
 8713      453500
 8714              	.LASF960:
 8715 3c1b 5031305F 		.ascii	"P10_1_SCB1_I2C_SDA\000"
 8715      315F5343 
 8715      42315F49 
 8715      32435F53 
 8715      444100
 8716              	.LASF1409:
 8717 3c2e 6873696F 		.ascii	"hsiom\000"
 8717      6D00
 8718              	.LASF592:
 8719 3c34 50375F33 		.ascii	"P7_3_SCB4_SPI_SELECT0\000"
 8719      5F534342 
 8719      345F5350 
 8719      495F5345 
 8719      4C454354 
 8720              	.LASF509:
 8721 3c4a 50365F37 		.ascii	"P6_7_DSI_GPIO\000"
 8721      5F445349 
 8721      5F475049 
 8721      4F00
 8722              	.LASF309:
 8723 3c58 50355F33 		.ascii	"P5_3_AMUXA_DSI\000"
 8723      5F414D55 
 8723      58415F44 
 8723      534900
 8724              	.LASF5:
 8725 3c67 73686F72 		.ascii	"short int\000"
 8725      7420696E 
 8725      7400
 8726              	.LASF1183:
 8727 3c71 5031325F 		.ascii	"P12_0_TCPWM1_LINE4\000"
 8727      305F5443 
 8727      50574D31 
 8727      5F4C494E 
 8727      453400
 8728              	.LASF1233:
 8729 3c84 5031325F 		.ascii	"P12_3_AMUXA\000"
 8729      335F414D 
 8729      55584100 
 8730              	.LASF1234:
 8731 3c90 5031325F 		.ascii	"P12_3_AMUXB\000"
 8731      335F414D 
 8731      55584200 
 8732              	.LASF874:
 8733 3c9c 50395F34 		.ascii	"P9_4_AMUXB_DSI\000"
 8733      5F414D55 
 8733      58425F44 
 8733      534900
 8734              	.LASF1061:
 8735 3cab 5031315F 		.ascii	"P11_0_SCB5_I2C_SCL\000"
 8735      305F5343 
 8735      42355F49 
 8735      32435F53 
 8735      434C00
ARM GAS  C:\Users\ikomb\AppData\Local\Temp\ccAzoKUN.s 			page 243


 8736              	.LASF706:
 8737 3cbe 50385F32 		.ascii	"P8_2_TCPWM1_LINE17\000"
 8737      5F544350 
 8737      574D315F 
 8737      4C494E45 
 8737      313700
 8738              	.LASF302:
 8739 3cd1 50355F32 		.ascii	"P5_2_AUDIOSS_TX_WS\000"
 8739      5F415544 
 8739      494F5353 
 8739      5F54585F 
 8739      575300
 8740              	.LASF988:
 8741 3ce4 5031305F 		.ascii	"P10_3_AMUXB_DSI\000"
 8741      335F414D 
 8741      5558425F 
 8741      44534900 
 8742              	.LASF517:
 8743 3cf4 50365F37 		.ascii	"P6_7_CSD_CSD_TX_N\000"
 8743      5F435344 
 8743      5F435344 
 8743      5F54585F 
 8743      4E00
 8744              	.LASF1376:
 8745 3d06 52455345 		.ascii	"RESERVED\000"
 8745      52564544 
 8745      00
 8746              	.LASF1444:
 8747 3d0f 433A5C55 		.ascii	"C:\\Users\\ikomb\\Documents\\PSoC Creator\\CE222221"
 8747      73657273 
 8747      5C696B6F 
 8747      6D625C44 
 8747      6F63756D 
 8748 3d3d 5F566F69 		.ascii	"_Voice_Recorder01\\CE222221_Voice_Recorder01.cydsn\000"
 8748      63655F52 
 8748      65636F72 
 8748      64657230 
 8748      315C4345 
 8749              	.LASF1114:
 8750 3d6f 5031315F 		.ascii	"P11_3_SMIF_SPI_DATA3\000"
 8750      335F534D 
 8750      49465F53 
 8750      50495F44 
 8750      41544133 
 8751              	.LASF1188:
 8752 3d84 5031325F 		.ascii	"P12_0_SMIF_SPI_DATA4\000"
 8752      305F534D 
 8752      49465F53 
 8752      50495F44 
 8752      41544134 
 8753              	.LASF87:
 8754 3d99 50305F32 		.ascii	"P0_2_AMUXA_DSI\000"
 8754      5F414D55 
 8754      58415F44 
 8754      534900
 8755              	.LASF483:
 8756 3da8 50365F35 		.ascii	"P6_5_PERI_TR_IO_INPUT13\000"
ARM GAS  C:\Users\ikomb\AppData\Local\Temp\ccAzoKUN.s 			page 244


 8756      5F504552 
 8756      495F5452 
 8756      5F494F5F 
 8756      494E5055 
 8757              	.LASF587:
 8758 3dc0 50375F33 		.ascii	"P7_3_CSD_CSD_TX\000"
 8758      5F435344 
 8758      5F435344 
 8758      5F545800 
 8759              	.LASF820:
 8760 3dd0 50395F31 		.ascii	"P9_1_CSD_CSD_TX\000"
 8760      5F435344 
 8760      5F435344 
 8760      5F545800 
 8761              	.LASF830:
 8762 3de0 50395F32 		.ascii	"P9_2_GPIO\000"
 8762      5F475049 
 8762      4F00
 8763              	.LASF1111:
 8764 3dea 5031315F 		.ascii	"P11_3_CSD_CSD_TX_N\000"
 8764      335F4353 
 8764      445F4353 
 8764      445F5458 
 8764      5F4E00
 8765              	.LASF787:
 8766 3dfd 50385F37 		.ascii	"P8_7_CSD_CSD_TX_N\000"
 8766      5F435344 
 8766      5F435344 
 8766      5F54585F 
 8766      4E00
 8767              	.LASF450:
 8768 3e0f 50365F34 		.ascii	"P6_4_TCPWM0_LINE2\000"
 8768      5F544350 
 8768      574D305F 
 8768      4C494E45 
 8768      3200
 8769              	.LASF1063:
 8770 3e21 5031315F 		.ascii	"P11_0_PERI_TR_IO_INPUT22\000"
 8770      305F5045 
 8770      52495F54 
 8770      525F494F 
 8770      5F494E50 
 8771              	.LASF1385:
 8772 3e3a 494E5452 		.ascii	"INTR_CFG\000"
 8772      5F434647 
 8772      00
 8773              	.LASF1018:
 8774 3e43 5031305F 		.ascii	"P10_5_AMUXA\000"
 8774      355F414D 
 8774      55584100 
 8775              	.LASF1019:
 8776 3e4f 5031305F 		.ascii	"P10_5_AMUXB\000"
 8776      355F414D 
 8776      55584200 
 8777              	.LASF427:
 8778 3e5b 50365F33 		.ascii	"P6_3_DSI_DSI\000"
 8778      5F445349 
ARM GAS  C:\Users\ikomb\AppData\Local\Temp\ccAzoKUN.s 			page 245


 8778      5F445349 
 8778      00
 8779              	.LASF1226:
 8780 3e68 5031325F 		.ascii	"P12_2_SMIF_SPI_DATA6\000"
 8780      325F534D 
 8780      49465F53 
 8780      50495F44 
 8780      41544136 
 8781              	.LASF1357:
 8782 3e7d 5031335F 		.ascii	"P13_6_LCD_SEG37\000"
 8782      365F4C43 
 8782      445F5345 
 8782      47333700 
 8783              	.LASF584:
 8784 3e8d 50375F33 		.ascii	"P7_3_AMUXB_DSI\000"
 8784      5F414D55 
 8784      58425F44 
 8784      534900
 8785              	.LASF1280:
 8786 3e9c 5031325F 		.ascii	"P12_6_GPIO_DSI\000"
 8786      365F4750 
 8786      494F5F44 
 8786      534900
 8787              	.LASF883:
 8788 3eab 50395F35 		.ascii	"P9_5_GPIO_DSI\000"
 8788      5F475049 
 8788      4F5F4453 
 8788      4900
 8789              	.LASF739:
 8790 3eb9 50385F34 		.ascii	"P8_4_TCPWM0_LINE2\000"
 8790      5F544350 
 8790      574D305F 
 8790      4C494E45 
 8790      3200
 8791              	.LASF1397:
 8792 3ecb 43595F47 		.ascii	"CY_GPIO_BAD_PARAM\000"
 8792      50494F5F 
 8792      4241445F 
 8792      50415241 
 8792      4D00
 8793              	.LASF997:
 8794 3edd 5031305F 		.ascii	"P10_3_CPUSS_TRACE_DATA0\000"
 8794      335F4350 
 8794      5553535F 
 8794      54524143 
 8794      455F4441 
 8795              	.LASF542:
 8796 3ef5 50375F30 		.ascii	"P7_0_CPUSS_TRACE_CLOCK\000"
 8796      5F435055 
 8796      53535F54 
 8796      52414345 
 8796      5F434C4F 
 8797              	.LASF805:
 8798 3f0c 50395F30 		.ascii	"P9_0_SCB2_UART_RX\000"
 8798      5F534342 
 8798      325F5541 
 8798      52545F52 
ARM GAS  C:\Users\ikomb\AppData\Local\Temp\ccAzoKUN.s 			page 246


 8798      5800
 8799              	.LASF213:
 8800 3f1e 50315F33 		.ascii	"P1_3_CSD_CSD_TX_N\000"
 8800      5F435344 
 8800      5F435344 
 8800      5F54585F 
 8800      4E00
 8801              	.LASF389:
 8802 3f30 50365F31 		.ascii	"P6_1_GPIO_DSI\000"
 8802      5F475049 
 8802      4F5F4453 
 8802      4900
 8803              	.LASF644:
 8804 3f3e 50375F37 		.ascii	"P7_7_GPIO\000"
 8804      5F475049 
 8804      4F00
 8805              	.LASF752:
 8806 3f48 50385F35 		.ascii	"P8_5_AMUXA_DSI\000"
 8806      5F414D55 
 8806      58415F44 
 8806      534900
 8807              	.LASF834:
 8808 3f57 50395F32 		.ascii	"P9_2_AMUXA\000"
 8808      5F414D55 
 8808      584100
 8809              	.LASF835:
 8810 3f62 50395F32 		.ascii	"P9_2_AMUXB\000"
 8810      5F414D55 
 8810      584200
 8811              	.LASF1373:
 8812 3f6d 656E5F68 		.ascii	"en_hsiom_sel_t\000"
 8812      73696F6D 
 8812      5F73656C 
 8812      5F7400
 8813              	.LASF1356:
 8814 3f7c 5031335F 		.ascii	"P13_6_LCD_COM37\000"
 8814      365F4C43 
 8814      445F434F 
 8814      4D333700 
 8815              	.LASF998:
 8816 3f8c 5031305F 		.ascii	"P10_4_GPIO\000"
 8816      345F4750 
 8816      494F00
 8817              	.LASF164:
 8818 3f97 50315F30 		.ascii	"P1_0_SCB7_UART_RX\000"
 8818      5F534342 
 8818      375F5541 
 8818      52545F52 
 8818      5800
 8819              	.LASF1372:
 8820 3fa9 5031335F 		.ascii	"P13_7_LCD_SEG38\000"
 8820      375F4C43 
 8820      445F5345 
 8820      47333800 
 8821              	.LASF1382:
 8822 3fb9 494E5452 		.ascii	"INTR_MASK\000"
 8822      5F4D4153 
ARM GAS  C:\Users\ikomb\AppData\Local\Temp\ccAzoKUN.s 			page 247


 8822      4B00
 8823              	.LASF22:
 8824 3fc3 4853494F 		.ascii	"HSIOM_SEL_AMUXB_DSI\000"
 8824      4D5F5345 
 8824      4C5F414D 
 8824      5558425F 
 8824      44534900 
 8825              	.LASF1006:
 8826 3fd7 5031305F 		.ascii	"P10_4_TCPWM0_LINE0\000"
 8826      345F5443 
 8826      50574D30 
 8826      5F4C494E 
 8826      453000
 8827              	.LASF1245:
 8828 3fea 5031325F 		.ascii	"P12_3_SCB6_SPI_SELECT0\000"
 8828      335F5343 
 8828      42365F53 
 8828      50495F53 
 8828      454C4543 
 8829              	.LASF158:
 8830 4001 50315F30 		.ascii	"P1_0_TCPWM0_LINE3\000"
 8830      5F544350 
 8830      574D305F 
 8830      4C494E45 
 8830      3300
 8831              	.LASF1154:
 8832 4013 5031315F 		.ascii	"P11_6_DSI_GPIO\000"
 8832      365F4453 
 8832      495F4750 
 8832      494F00
 8833              	.LASF1370:
 8834 4022 5031335F 		.ascii	"P13_7_CSD_CSD_TX_N\000"
 8834      375F4353 
 8834      445F4353 
 8834      445F5458 
 8834      5F4E00
 8835              	.LASF7:
 8836 4035 6C6F6E67 		.ascii	"long int\000"
 8836      20696E74 
 8836      00
 8837              	.LASF785:
 8838 403e 50385F37 		.ascii	"P8_7_TCPWM1_LINE_COMPL19\000"
 8838      5F544350 
 8838      574D315F 
 8838      4C494E45 
 8838      5F434F4D 
 8839              	.LASF112:
 8840 4057 50305F33 		.ascii	"P0_3_SCB0_UART_TX\000"
 8840      5F534342 
 8840      305F5541 
 8840      52545F54 
 8840      5800
 8841              	.LASF598:
 8842 4069 50375F34 		.ascii	"P7_4_AMUXB\000"
 8842      5F414D55 
 8842      584200
 8843              	.LASF749:
ARM GAS  C:\Users\ikomb\AppData\Local\Temp\ccAzoKUN.s 			page 248


 8844 4074 50385F35 		.ascii	"P8_5_DSI_GPIO\000"
 8844      5F445349 
 8844      5F475049 
 8844      4F00
 8845              	.LASF560:
 8846 4082 50375F31 		.ascii	"P7_1_PERI_TR_IO_INPUT15\000"
 8846      5F504552 
 8846      495F5452 
 8846      5F494F5F 
 8846      494E5055 
 8847              	.LASF114:
 8848 409a 50305F33 		.ascii	"P0_3_SCB0_SPI_MISO\000"
 8848      5F534342 
 8848      305F5350 
 8848      495F4D49 
 8848      534F00
 8849              	.LASF1393:
 8850 40ad 63686172 		.ascii	"char\000"
 8850      00
 8851              	.LASF760:
 8852 40b2 50385F35 		.ascii	"P8_5_SCB4_SPI_SELECT2\000"
 8852      5F534342 
 8852      345F5350 
 8852      495F5345 
 8852      4C454354 
 8853              	.LASF1209:
 8854 40c8 5031325F 		.ascii	"P12_1_SCB6_I2C_SDA\000"
 8854      315F5343 
 8854      42365F49 
 8854      32435F53 
 8854      444100
 8855              	.LASF1186:
 8856 40db 5031325F 		.ascii	"P12_0_LCD_COM23\000"
 8856      305F4C43 
 8856      445F434F 
 8856      4D323300 
 8857              	.LASF8:
 8858 40eb 5F5F696E 		.ascii	"__int32_t\000"
 8858      7433325F 
 8858      7400
 8859              	.LASF576:
 8860 40f5 50375F32 		.ascii	"P7_2_SCB4_SPI_CLK\000"
 8860      5F534342 
 8860      345F5350 
 8860      495F434C 
 8860      4B00
 8861              	.LASF314:
 8862 4107 50355F33 		.ascii	"P5_3_CSD_CSD_TX_N\000"
 8862      5F435344 
 8862      5F435344 
 8862      5F54585F 
 8862      4E00
 8863              	.LASF270:
 8864 4119 50355F31 		.ascii	"P5_1_DSI_GPIO\000"
 8864      5F445349 
 8864      5F475049 
 8864      4F00
ARM GAS  C:\Users\ikomb\AppData\Local\Temp\ccAzoKUN.s 			page 249


 8865              	.LASF617:
 8866 4127 50375F35 		.ascii	"P7_5_AMUXB_DSI\000"
 8866      5F414D55 
 8866      58425F44 
 8866      534900
 8867              	.LASF1126:
 8868 4136 5031315F 		.ascii	"P11_4_TCPWM0_LINE3\000"
 8868      345F5443 
 8868      50574D30 
 8868      5F4C494E 
 8868      453300
 8869              	.LASF1227:
 8870 4149 5031325F 		.ascii	"P12_2_SCB6_UART_RTS\000"
 8870      325F5343 
 8870      42365F55 
 8870      4152545F 
 8870      52545300 
 8871              	.LASF1176:
 8872 415d 5031325F 		.ascii	"P12_0_DSI_DSI\000"
 8872      305F4453 
 8872      495F4453 
 8872      4900
 8873              	.LASF17:
 8874 416b 4853494F 		.ascii	"HSIOM_SEL_DSI_DSI\000"
 8874      4D5F5345 
 8874      4C5F4453 
 8874      495F4453 
 8874      4900
 8875              	.LASF711:
 8876 417d 50385F32 		.ascii	"P8_2_LPCOMP_DSI_COMP0\000"
 8876      5F4C5043 
 8876      4F4D505F 
 8876      4453495F 
 8876      434F4D50 
 8877              	.LASF1080:
 8878 4193 5031315F 		.ascii	"P11_1_SCB5_I2C_SDA\000"
 8878      315F5343 
 8878      42355F49 
 8878      32435F53 
 8878      444100
 8879              	.LASF588:
 8880 41a6 50375F33 		.ascii	"P7_3_CSD_CSD_TX_N\000"
 8880      5F435344 
 8880      5F435344 
 8880      5F54585F 
 8880      4E00
 8881              	.LASF1351:
 8882 41b8 5031335F 		.ascii	"P13_6_AMUXB_DSI\000"
 8882      365F414D 
 8882      5558425F 
 8882      44534900 
 8883              	.LASF640:
 8884 41c8 50375F36 		.ascii	"P7_6_LCD_SEG52\000"
 8884      5F4C4344 
 8884      5F534547 
 8884      353200
 8885              	.LASF381:
ARM GAS  C:\Users\ikomb\AppData\Local\Temp\ccAzoKUN.s 			page 250


 8886 41d7 50365F30 		.ascii	"P6_0_LCD_SEG38\000"
 8886      5F4C4344 
 8886      5F534547 
 8886      333800
 8887              	.LASF714:
 8888 41e6 50385F33 		.ascii	"P8_3_GPIO\000"
 8888      5F475049 
 8888      4F00
 8889              	.LASF356:
 8890 41f0 50355F36 		.ascii	"P5_6_AMUXA\000"
 8890      5F414D55 
 8890      584100
 8891              	.LASF357:
 8892 41fb 50355F36 		.ascii	"P5_6_AMUXB\000"
 8892      5F414D55 
 8892      584200
 8893              	.LASF1285:
 8894 4206 5031325F 		.ascii	"P12_6_AMUXA_DSI\000"
 8894      365F414D 
 8894      5558415F 
 8894      44534900 
 8895              	.LASF1274:
 8896 4216 5031325F 		.ascii	"P12_5_CSD_CSD_TX_N\000"
 8896      355F4353 
 8896      445F4353 
 8896      445F5458 
 8896      5F4E00
 8897              	.LASF378:
 8898 4229 50365F30 		.ascii	"P6_0_CSD_CSD_TX\000"
 8898      5F435344 
 8898      5F435344 
 8898      5F545800 
 8899              	.LASF403:
 8900 4239 50365F31 		.ascii	"P6_1_SCB3_UART_TX\000"
 8900      5F534342 
 8900      335F5541 
 8900      52545F54 
 8900      5800
 8901              	.LASF1000:
 8902 424b 5031305F 		.ascii	"P10_4_DSI_DSI\000"
 8902      345F4453 
 8902      495F4453 
 8902      4900
 8903              	.LASF859:
 8904 4259 50395F33 		.ascii	"P9_3_CSD_CSD_TX_N\000"
 8904      5F435344 
 8904      5F435344 
 8904      5F54585F 
 8904      4E00
 8905              	.LASF48:
 8906 426b 50305F30 		.ascii	"P0_0_GPIO_DSI\000"
 8906      5F475049 
 8906      4F5F4453 
 8906      4900
 8907              	.LASF1045:
 8908 4279 5031315F 		.ascii	"P11_0_GPIO\000"
 8908      305F4750 
ARM GAS  C:\Users\ikomb\AppData\Local\Temp\ccAzoKUN.s 			page 251


 8908      494F00
 8909              	.LASF1289:
 8910 4284 5031325F 		.ascii	"P12_6_CSD_CSD_TX\000"
 8910      365F4353 
 8910      445F4353 
 8910      445F5458 
 8910      00
 8911              	.LASF494:
 8912 4295 50365F36 		.ascii	"P6_6_AMUXA_DSI\000"
 8912      5F414D55 
 8912      58415F44 
 8912      534900
 8913              	.LASF1443:
 8914 42a4 47656E65 		.ascii	"Generated_Source\\PSoC6\\pdl\\drivers\\peripheral\\"
 8914      72617465 
 8914      645F536F 
 8914      75726365 
 8914      5C50536F 
 8915 42d2 6770696F 		.ascii	"gpio\\cy_gpio.c\000"
 8915      5C63795F 
 8915      6770696F 
 8915      2E6300
 8916              	.LASF639:
 8917 42e1 50375F36 		.ascii	"P7_6_LCD_COM52\000"
 8917      5F4C4344 
 8917      5F434F4D 
 8917      353200
 8918              	.LASF927:
 8919 42f0 5031305F 		.ascii	"P10_0_GPIO_DSI\000"
 8919      305F4750 
 8919      494F5F44 
 8919      534900
 8920              	.LASF380:
 8921 42ff 50365F30 		.ascii	"P6_0_LCD_COM38\000"
 8921      5F4C4344 
 8921      5F434F4D 
 8921      333800
 8922              	.LASF532:
 8923 430e 50375F30 		.ascii	"P7_0_TCPWM0_LINE4\000"
 8923      5F544350 
 8923      574D305F 
 8923      4C494E45 
 8923      3400
 8924              	.LASF14:
 8925 4320 73697A65 		.ascii	"sizetype\000"
 8925      74797065 
 8925      00
 8926              	.LASF1158:
 8927 4329 5031315F 		.ascii	"P11_6_AMUXB_DSI\000"
 8927      365F414D 
 8927      5558425F 
 8927      44534900 
 8928              	.LASF1363:
 8929 4339 5031335F 		.ascii	"P13_7_AMUXA\000"
 8929      375F414D 
 8929      55584100 
 8930              	.LASF1364:
ARM GAS  C:\Users\ikomb\AppData\Local\Temp\ccAzoKUN.s 			page 252


 8931 4345 5031335F 		.ascii	"P13_7_AMUXB\000"
 8931      375F414D 
 8931      55584200 
 8932              	.LASF1051:
 8933 4351 5031315F 		.ascii	"P11_0_AMUXA_DSI\000"
 8933      305F414D 
 8933      5558415F 
 8933      44534900 
 8934              	.LASF992:
 8935 4361 5031305F 		.ascii	"P10_3_CSD_CSD_TX_N\000"
 8935      335F4353 
 8935      445F4353 
 8935      445F5458 
 8935      5F4E00
 8936              	.LASF799:
 8937 4374 50395F30 		.ascii	"P9_0_TCPWM0_LINE4\000"
 8937      5F544350 
 8937      574D305F 
 8937      4C494E45 
 8937      3400
 8938              	.LASF239:
 8939 4386 50315F35 		.ascii	"P1_5_AMUXA_DSI\000"
 8939      5F414D55 
 8939      58415F44 
 8939      534900
 8940              	.LASF1249:
 8941 4395 5031325F 		.ascii	"P12_4_DSI_GPIO\000"
 8941      345F4453 
 8941      495F4750 
 8941      494F00
 8942              	.LASF851:
 8943 43a4 50395F33 		.ascii	"P9_3_DSI_GPIO\000"
 8943      5F445349 
 8943      5F475049 
 8943      4F00
 8944              	.LASF823:
 8945 43b2 50395F31 		.ascii	"P9_1_LCD_SEG1\000"
 8945      5F4C4344 
 8945      5F534547 
 8945      3100
 8946              	.LASF1360:
 8947 43c0 5031335F 		.ascii	"P13_7_GPIO_DSI\000"
 8947      375F4750 
 8947      494F5F44 
 8947      534900
 8948              	.LASF131:
 8949 43cf 50305F34 		.ascii	"P0_4_PERI_TR_IO_OUTPUT0\000"
 8949      5F504552 
 8949      495F5452 
 8949      5F494F5F 
 8949      4F555450 
 8950              	.LASF539:
 8951 43e7 50375F30 		.ascii	"P7_0_SCB4_I2C_SCL\000"
 8951      5F534342 
 8951      345F4932 
 8951      435F5343 
 8951      4C00
ARM GAS  C:\Users\ikomb\AppData\Local\Temp\ccAzoKUN.s 			page 253


 8952              	.LASF188:
 8953 43f9 50315F32 		.ascii	"P1_2_DSI_DSI\000"
 8953      5F445349 
 8953      5F445349 
 8953      00
 8954              	.LASF359:
 8955 4406 50355F36 		.ascii	"P5_6_AMUXB_DSI\000"
 8955      5F414D55 
 8955      58425F44 
 8955      534900
 8956              	.LASF781:
 8957 4415 50385F37 		.ascii	"P8_7_AMUXB\000"
 8957      5F414D55 
 8957      584200
 8958              	.LASF254:
 8959 4420 50355F30 		.ascii	"P5_0_AMUXA_DSI\000"
 8959      5F414D55 
 8959      58415F44 
 8959      534900
 8960              	.LASF978:
 8961 442f 5031305F 		.ascii	"P10_2_SCB1_UART_RTS\000"
 8961      325F5343 
 8961      42315F55 
 8961      4152545F 
 8961      52545300 
 8962              	.LASF934:
 8963 4443 5031305F 		.ascii	"P10_0_TCPWM0_LINE6\000"
 8963      305F5443 
 8963      50574D30 
 8963      5F4C494E 
 8963      453600
 8964              	.LASF817:
 8965 4456 50395F31 		.ascii	"P9_1_AMUXB_DSI\000"
 8965      5F414D55 
 8965      58425F44 
 8965      534900
 8966              	.LASF1265:
 8967 4465 5031325F 		.ascii	"P12_5_DSI_DSI\000"
 8967      355F4453 
 8967      495F4453 
 8967      4900
 8968              	.LASF907:
 8969 4473 50395F36 		.ascii	"P9_6_CSD_CSD_TX\000"
 8969      5F435344 
 8969      5F435344 
 8969      5F545800 
 8970              	.LASF62:
 8971 4483 50305F30 		.ascii	"P0_0_SCB0_SPI_SELECT1\000"
 8971      5F534342 
 8971      305F5350 
 8971      495F5345 
 8971      4C454354 
 8972              	.LASF660:
 8973 4499 50375F37 		.ascii	"P7_7_CPUSS_TRACE_DATA0\000"
 8973      5F435055 
 8973      53535F54 
 8973      52414345 
ARM GAS  C:\Users\ikomb\AppData\Local\Temp\ccAzoKUN.s 			page 254


 8973      5F444154 
 8974              	.LASF628:
 8975 44b0 50375F36 		.ascii	"P7_6_GPIO_DSI\000"
 8975      5F475049 
 8975      4F5F4453 
 8975      4900
 8976              	.LASF933:
 8977 44be 5031305F 		.ascii	"P10_0_AMUXB_DSI\000"
 8977      305F414D 
 8977      5558425F 
 8977      44534900 
 8978              	.LASF1182:
 8979 44ce 5031325F 		.ascii	"P12_0_TCPWM0_LINE4\000"
 8979      305F5443 
 8979      50574D30 
 8979      5F4C494E 
 8979      453400
 8980              	.LASF439:
 8981 44e1 50365F33 		.ascii	"P6_3_SCB3_UART_CTS\000"
 8981      5F534342 
 8981      335F5541 
 8981      52545F43 
 8981      545300
 8982              	.LASF1216:
 8983 44f4 5031325F 		.ascii	"P12_2_AMUXA\000"
 8983      325F414D 
 8983      55584100 
 8984              	.LASF1217:
 8985 4500 5031325F 		.ascii	"P12_2_AMUXB\000"
 8985      325F414D 
 8985      55584200 
 8986              	.LASF846:
 8987 450c 50395F32 		.ascii	"P9_2_PASS_DSI_CTB_CMP0\000"
 8987      5F504153 
 8987      535F4453 
 8987      495F4354 
 8987      425F434D 
 8988              	.LASF139:
 8989 4523 50305F35 		.ascii	"P0_5_AMUXB_DSI\000"
 8989      5F414D55 
 8989      58425F44 
 8989      534900
 8990              	.LASF862:
 8991 4532 50395F33 		.ascii	"P9_3_SCB2_UART_CTS\000"
 8991      5F534342 
 8991      325F5541 
 8991      52545F43 
 8991      545300
 8992              	.LASF593:
 8993 4545 50375F34 		.ascii	"P7_4_GPIO\000"
 8993      5F475049 
 8993      4F00
 8994              	.LASF79:
 8995 454f 50305F31 		.ascii	"P0_1_PERI_TR_IO_INPUT1\000"
 8995      5F504552 
 8995      495F5452 
 8995      5F494F5F 
ARM GAS  C:\Users\ikomb\AppData\Local\Temp\ccAzoKUN.s 			page 255


 8995      494E5055 
 8996              	.LASF652:
 8997 4566 50375F37 		.ascii	"P7_7_TCPWM0_LINE_COMPL7\000"
 8997      5F544350 
 8997      574D305F 
 8997      4C494E45 
 8997      5F434F4D 
 8998              	.LASF178:
 8999 457e 50315F31 		.ascii	"P1_1_CSD_CSD_TX\000"
 8999      5F435344 
 8999      5F435344 
 8999      5F545800 
 9000              	.LASF945:
 9001 458e 5031305F 		.ascii	"P10_1_GPIO\000"
 9001      315F4750 
 9001      494F00
 9002              	.LASF703:
 9003 4599 50385F32 		.ascii	"P8_2_AMUXA_DSI\000"
 9003      5F414D55 
 9003      58415F44 
 9003      534900
 9004              	.LASF1320:
 9005 45a8 5031335F 		.ascii	"P13_0_LCD_COM31\000"
 9005      305F4C43 
 9005      445F434F 
 9005      4D333100 
 9006              	.LASF491:
 9007 45b8 50365F36 		.ascii	"P6_6_DSI_GPIO\000"
 9007      5F445349 
 9007      5F475049 
 9007      4F00
 9008              	.LASF1110:
 9009 45c6 5031315F 		.ascii	"P11_3_CSD_CSD_TX\000"
 9009      335F4353 
 9009      445F4353 
 9009      445F5458 
 9009      00
 9010              	.LASF1336:
 9011 45d7 5031335F 		.ascii	"P13_1_CSD_CSD_TX\000"
 9011      315F4353 
 9011      445F4353 
 9011      445F5458 
 9011      00
 9012              	.LASF136:
 9013 45e8 50305F35 		.ascii	"P0_5_AMUXA\000"
 9013      5F414D55 
 9013      584100
 9014              	.LASF137:
 9015 45f3 50305F35 		.ascii	"P0_5_AMUXB\000"
 9015      5F414D55 
 9015      584200
 9016              	.LASF350:
 9017 45fe 50355F35 		.ascii	"P5_5_SCB5_SPI_SELECT2\000"
 9017      5F534342 
 9017      355F5350 
 9017      495F5345 
 9017      4C454354 
ARM GAS  C:\Users\ikomb\AppData\Local\Temp\ccAzoKUN.s 			page 256


 9018              	.LASF27:
 9019 4614 4853494F 		.ascii	"HSIOM_SEL_DS_0\000"
 9019      4D5F5345 
 9019      4C5F4453 
 9019      5F3000
 9020              	.LASF28:
 9021 4623 4853494F 		.ascii	"HSIOM_SEL_DS_1\000"
 9021      4D5F5345 
 9021      4C5F4453 
 9021      5F3100
 9022              	.LASF29:
 9023 4632 4853494F 		.ascii	"HSIOM_SEL_DS_2\000"
 9023      4D5F5345 
 9023      4C5F4453 
 9023      5F3200
 9024              	.LASF30:
 9025 4641 4853494F 		.ascii	"HSIOM_SEL_DS_3\000"
 9025      4D5F5345 
 9025      4C5F4453 
 9025      5F3300
 9026              	.LASF43:
 9027 4650 4853494F 		.ascii	"HSIOM_SEL_DS_4\000"
 9027      4D5F5345 
 9027      4C5F4453 
 9027      5F3400
 9028              	.LASF44:
 9029 465f 4853494F 		.ascii	"HSIOM_SEL_DS_5\000"
 9029      4D5F5345 
 9029      4C5F4453 
 9029      5F3500
 9030              	.LASF45:
 9031 466e 4853494F 		.ascii	"HSIOM_SEL_DS_6\000"
 9031      4D5F5345 
 9031      4C5F4453 
 9031      5F3600
 9032              	.LASF46:
 9033 467d 4853494F 		.ascii	"HSIOM_SEL_DS_7\000"
 9033      4D5F5345 
 9033      4C5F4453 
 9033      5F3700
 9034              	.LASF822:
 9035 468c 50395F31 		.ascii	"P9_1_LCD_COM1\000"
 9035      5F4C4344 
 9035      5F434F4D 
 9035      3100
 9036              	.LASF526:
 9037 469a 50375F30 		.ascii	"P7_0_DSI_DSI\000"
 9037      5F445349 
 9037      5F445349 
 9037      00
 9038              	.LASF234:
 9039 46a7 50315F35 		.ascii	"P1_5_GPIO_DSI\000"
 9039      5F475049 
 9039      4F5F4453 
 9039      4900
 9040              	.LASF595:
 9041 46b5 50375F34 		.ascii	"P7_4_DSI_DSI\000"
ARM GAS  C:\Users\ikomb\AppData\Local\Temp\ccAzoKUN.s 			page 257


 9041      5F445349 
 9041      5F445349 
 9041      00
 9042              	.LASF863:
 9043 46c2 50395F33 		.ascii	"P9_3_SCB2_SPI_SELECT0\000"
 9043      5F534342 
 9043      325F5350 
 9043      495F5345 
 9043      4C454354 
 9044              	.LASF619:
 9045 46d8 50375F35 		.ascii	"P7_5_TCPWM1_LINE_COMPL14\000"
 9045      5F544350 
 9045      574D315F 
 9045      4C494E45 
 9045      5F434F4D 
 9046              	.LASF166:
 9047 46f1 50315F30 		.ascii	"P1_0_SCB7_SPI_MOSI\000"
 9047      5F534342 
 9047      375F5350 
 9047      495F4D4F 
 9047      534900
 9048              	.LASF1268:
 9049 4704 5031325F 		.ascii	"P12_5_AMUXB\000"
 9049      355F414D 
 9049      55584200 
 9050              	.LASF590:
 9051 4710 50375F33 		.ascii	"P7_3_LCD_SEG49\000"
 9051      5F4C4344 
 9051      5F534547 
 9051      343900
 9052              	.LASF814:
 9053 471f 50395F31 		.ascii	"P9_1_AMUXA\000"
 9053      5F414D55 
 9053      584100
 9054              	.LASF815:
 9055 472a 50395F31 		.ascii	"P9_1_AMUXB\000"
 9055      5F414D55 
 9055      584200
 9056              	.LASF322:
 9057 4735 50355F34 		.ascii	"P5_4_DSI_DSI\000"
 9057      5F445349 
 9057      5F445349 
 9057      00
 9058              	.LASF130:
 9059 4742 50305F34 		.ascii	"P0_4_SCB0_SPI_CLK\000"
 9059      5F534342 
 9059      305F5350 
 9059      495F434C 
 9059      4B00
 9060              	.LASF1122:
 9061 4754 5031315F 		.ascii	"P11_4_AMUXA\000"
 9061      345F414D 
 9061      55584100 
 9062              	.LASF661:
 9063 4760 50385F30 		.ascii	"P8_0_GPIO\000"
 9063      5F475049 
 9063      4F00
ARM GAS  C:\Users\ikomb\AppData\Local\Temp\ccAzoKUN.s 			page 258


 9064              	.LASF722:
 9065 476a 50385F33 		.ascii	"P8_3_TCPWM0_LINE_COMPL1\000"
 9065      5F544350 
 9065      574D305F 
 9065      4C494E45 
 9065      5F434F4D 
 9066              	.LASF1244:
 9067 4782 5031325F 		.ascii	"P12_3_SCB6_UART_CTS\000"
 9067      335F5343 
 9067      42365F55 
 9067      4152545F 
 9067      43545300 
 9068              	.LASF1136:
 9069 4796 5031315F 		.ascii	"P11_5_GPIO_DSI\000"
 9069      355F4750 
 9069      494F5F44 
 9069      534900
 9070              	.LASF80:
 9071 47a5 50305F31 		.ascii	"P0_1_CPUSS_SWJ_TRSTN\000"
 9071      5F435055 
 9071      53535F53 
 9071      574A5F54 
 9071      5253544E 
 9072              	.LASF344:
 9073 47ba 50355F35 		.ascii	"P5_5_TCPWM0_LINE_COMPL6\000"
 9073      5F544350 
 9073      574D305F 
 9073      4C494E45 
 9073      5F434F4D 
 9074              	.LASF568:
 9075 47d2 50375F32 		.ascii	"P7_2_AMUXB_DSI\000"
 9075      5F414D55 
 9075      58425F44 
 9075      534900
 9076              	.LASF581:
 9077 47e1 50375F33 		.ascii	"P7_3_AMUXA\000"
 9077      5F414D55 
 9077      584100
 9078              	.LASF582:
 9079 47ec 50375F33 		.ascii	"P7_3_AMUXB\000"
 9079      5F414D55 
 9079      584200
 9080              	.LASF732:
 9081 47f7 50385F34 		.ascii	"P8_4_GPIO_DSI\000"
 9081      5F475049 
 9081      4F5F4453 
 9081      4900
 9082              	.LASF135:
 9083 4805 50305F35 		.ascii	"P0_5_DSI_GPIO\000"
 9083      5F445349 
 9083      5F475049 
 9083      4F00
 9084              	.LASF1062:
 9085 4813 5031315F 		.ascii	"P11_0_SCB5_SPI_MOSI\000"
 9085      305F5343 
 9085      42355F53 
 9085      50495F4D 
ARM GAS  C:\Users\ikomb\AppData\Local\Temp\ccAzoKUN.s 			page 259


 9085      4F534900 
 9086              	.LASF475:
 9087 4827 50365F35 		.ascii	"P6_5_CSD_CSD_TX\000"
 9087      5F435344 
 9087      5F435344 
 9087      5F545800 
 9088              	.LASF724:
 9089 4837 50385F33 		.ascii	"P8_3_CSD_CSD_TX\000"
 9089      5F435344 
 9089      5F435344 
 9089      5F545800 
 9090              	.LASF845:
 9091 4847 50395F32 		.ascii	"P9_2_SCB2_SPI_CLK\000"
 9091      5F534342 
 9091      325F5350 
 9091      495F434C 
 9091      4B00
 9092              	.LASF1109:
 9093 4859 5031315F 		.ascii	"P11_3_TCPWM1_LINE_COMPL2\000"
 9093      335F5443 
 9093      50574D31 
 9093      5F4C494E 
 9093      455F434F 
 9094              	.LASF812:
 9095 4872 50395F31 		.ascii	"P9_1_DSI_DSI\000"
 9095      5F445349 
 9095      5F445349 
 9095      00
 9096              	.LASF249:
 9097 487f 50355F30 		.ascii	"P5_0_GPIO_DSI\000"
 9097      5F475049 
 9097      4F5F4453 
 9097      4900
 9098              	.LASF1131:
 9099 488d 5031315F 		.ascii	"P11_4_LCD_SEG20\000"
 9099      345F4C43 
 9099      445F5345 
 9099      47323000 
 9100              	.LASF882:
 9101 489d 50395F35 		.ascii	"P9_5_GPIO\000"
 9101      5F475049 
 9101      4F00
 9102              	.LASF465:
 9103 48a7 50365F35 		.ascii	"P6_5_GPIO\000"
 9103      5F475049 
 9103      4F00
 9104              	.LASF202:
 9105 48b1 50315F33 		.ascii	"P1_3_GPIO\000"
 9105      5F475049 
 9105      4F00
 9106              	.LASF3:
 9107 48bb 7369676E 		.ascii	"signed char\000"
 9107      65642063 
 9107      68617200 
 9108              	.LASF111:
 9109 48c7 50305F33 		.ascii	"P0_3_LCD_SEG3\000"
 9109      5F4C4344 
ARM GAS  C:\Users\ikomb\AppData\Local\Temp\ccAzoKUN.s 			page 260


 9109      5F534547 
 9109      3300
 9110              	.LASF847:
 9111 48d5 50395F32 		.ascii	"P9_2_CPUSS_TRACE_DATA1\000"
 9111      5F435055 
 9111      53535F54 
 9111      52414345 
 9111      5F444154 
 9112              	.LASF589:
 9113 48ec 50375F33 		.ascii	"P7_3_LCD_COM49\000"
 9113      5F4C4344 
 9113      5F434F4D 
 9113      343900
 9114              	.LASF423:
 9115 48fb 50365F32 		.ascii	"P6_2_SCB3_SPI_CLK\000"
 9115      5F534342 
 9115      335F5350 
 9115      495F434C 
 9115      4B00
 9116              	.LASF1377:
 9117 490d 4853494F 		.ascii	"HSIOM_PRT_Type\000"
 9117      4D5F5052 
 9117      545F5479 
 9117      706500
 9118              	.LASF591:
 9119 491c 50375F33 		.ascii	"P7_3_SCB4_UART_CTS\000"
 9119      5F534342 
 9119      345F5541 
 9119      52545F43 
 9119      545300
 9120              	.LASF1017:
 9121 492f 5031305F 		.ascii	"P10_5_DSI_GPIO\000"
 9121      355F4453 
 9121      495F4750 
 9121      494F00
 9122              	.LASF1389:
 9123 493e 4346475F 		.ascii	"CFG_IN_GPIO5V\000"
 9123      494E5F47 
 9123      50494F35 
 9123      5600
 9124              	.LASF596:
 9125 494c 50375F34 		.ascii	"P7_4_DSI_GPIO\000"
 9125      5F445349 
 9125      5F475049 
 9125      4F00
 9126              	.LASF340:
 9127 495a 50355F35 		.ascii	"P5_5_AMUXA\000"
 9127      5F414D55 
 9127      584100
 9128              	.LASF341:
 9129 4965 50355F35 		.ascii	"P5_5_AMUXB\000"
 9129      5F414D55 
 9129      584200
 9130              	.LASF431:
 9131 4970 50365F33 		.ascii	"P6_3_AMUXA_DSI\000"
 9131      5F414D55 
 9131      58415F44 
ARM GAS  C:\Users\ikomb\AppData\Local\Temp\ccAzoKUN.s 			page 261


 9131      534900
 9132              	.LASF678:
 9133 497f 50385F30 		.ascii	"P8_0_PERI_TR_IO_INPUT16\000"
 9133      5F504552 
 9133      495F5452 
 9133      5F494F5F 
 9133      494E5055 
 9134              	.LASF229:
 9135 4997 50315F34 		.ascii	"P1_4_CSD_CSD_TX_N\000"
 9135      5F435344 
 9135      5F435344 
 9135      5F54585F 
 9135      4E00
 9136              	.LASF1130:
 9137 49a9 5031315F 		.ascii	"P11_4_LCD_COM20\000"
 9137      345F4C43 
 9137      445F434F 
 9137      4D323000 
 9138              	.LASF647:
 9139 49b9 50375F37 		.ascii	"P7_7_DSI_GPIO\000"
 9139      5F445349 
 9139      5F475049 
 9139      4F00
 9140              	.LASF612:
 9141 49c7 50375F35 		.ascii	"P7_5_DSI_DSI\000"
 9141      5F445349 
 9141      5F445349 
 9141      00
 9142              	.LASF96:
 9143 49d4 50305F32 		.ascii	"P0_2_SCB0_I2C_SCL\000"
 9143      5F534342 
 9143      305F4932 
 9143      435F5343 
 9143      4C00
 9144              	.LASF1066:
 9145 49e6 5031315F 		.ascii	"P11_1_DSI_DSI\000"
 9145      315F4453 
 9145      495F4453 
 9145      4900
 9146              	.LASF333:
 9147 49f4 50355F34 		.ascii	"P5_4_LCD_SEG34\000"
 9147      5F4C4344 
 9147      5F534547 
 9147      333400
 9148              	.LASF140:
 9149 4a03 50305F35 		.ascii	"P0_5_TCPWM0_LINE_COMPL2\000"
 9149      5F544350 
 9149      574D305F 
 9149      4C494E45 
 9149      5F434F4D 
 9150              	.LASF396:
 9151 4a1b 50365F31 		.ascii	"P6_1_TCPWM0_LINE_COMPL0\000"
 9151      5F544350 
 9151      574D305F 
 9151      4C494E45 
 9151      5F434F4D 
 9152              	.LASF1107:
ARM GAS  C:\Users\ikomb\AppData\Local\Temp\ccAzoKUN.s 			page 262


 9153 4a33 5031315F 		.ascii	"P11_3_AMUXB_DSI\000"
 9153      335F414D 
 9153      5558425F 
 9153      44534900 
 9154              	.LASF839:
 9155 4a43 50395F32 		.ascii	"P9_2_TCPWM1_LINE21\000"
 9155      5F544350 
 9155      574D315F 
 9155      4C494E45 
 9155      323100
 9156              	.LASF192:
 9157 4a56 50315F32 		.ascii	"P1_2_AMUXA_DSI\000"
 9157      5F414D55 
 9157      58415F44 
 9157      534900
 9158              	.LASF1012:
 9159 4a65 5031305F 		.ascii	"P10_4_SCB1_SPI_SELECT1\000"
 9159      345F5343 
 9159      42315F53 
 9159      50495F53 
 9159      454C4543 
 9160              	.LASF1248:
 9161 4a7c 5031325F 		.ascii	"P12_4_DSI_DSI\000"
 9161      345F4453 
 9161      495F4453 
 9161      4900
 9162              	.LASF256:
 9163 4a8a 50355F30 		.ascii	"P5_0_TCPWM0_LINE4\000"
 9163      5F544350 
 9163      574D305F 
 9163      4C494E45 
 9163      3400
 9164              	.LASF310:
 9165 4a9c 50355F33 		.ascii	"P5_3_AMUXB_DSI\000"
 9165      5F414D55 
 9165      58425F44 
 9165      534900
 9166              	.LASF405:
 9167 4aab 50365F31 		.ascii	"P6_1_SCB3_SPI_MISO\000"
 9167      5F534342 
 9167      335F5350 
 9167      495F4D49 
 9167      534F00
 9168              	.LASF331:
 9169 4abe 50355F34 		.ascii	"P5_4_CSD_CSD_TX_N\000"
 9169      5F435344 
 9169      5F435344 
 9169      5F54585F 
 9169      4E00
 9170              	.LASF1348:
 9171 4ad0 5031335F 		.ascii	"P13_6_AMUXA\000"
 9171      365F414D 
 9171      55584100 
 9172              	.LASF1349:
 9173 4adc 5031335F 		.ascii	"P13_6_AMUXB\000"
 9173      365F414D 
 9173      55584200 
ARM GAS  C:\Users\ikomb\AppData\Local\Temp\ccAzoKUN.s 			page 263


 9174              	.LASF543:
 9175 4ae8 50375F31 		.ascii	"P7_1_GPIO\000"
 9175      5F475049 
 9175      4F00
 9176              	.LASF332:
 9177 4af2 50355F34 		.ascii	"P5_4_LCD_COM34\000"
 9177      5F4C4344 
 9177      5F434F4D 
 9177      333400
 9178              	.LASF826:
 9179 4b01 50395F31 		.ascii	"P9_1_SCB2_SPI_MISO\000"
 9179      5F534342 
 9179      325F5350 
 9179      495F4D49 
 9179      534F00
 9180              	.LASF1230:
 9181 4b14 5031325F 		.ascii	"P12_3_GPIO_DSI\000"
 9181      335F4750 
 9181      494F5F44 
 9181      534900
 9182              	.LASF831:
 9183 4b23 50395F32 		.ascii	"P9_2_GPIO_DSI\000"
 9183      5F475049 
 9183      4F5F4453 
 9183      4900
 9184              	.LASF888:
 9185 4b31 50395F35 		.ascii	"P9_5_AMUXA_DSI\000"
 9185      5F414D55 
 9185      58415F44 
 9185      534900
 9186              	.LASF205:
 9187 4b40 50315F33 		.ascii	"P1_3_DSI_GPIO\000"
 9187      5F445349 
 9187      5F475049 
 9187      4F00
 9188              	.LASF384:
 9189 4b4e 50365F30 		.ascii	"P6_0_SCB3_I2C_SCL\000"
 9189      5F534342 
 9189      335F4932 
 9189      435F5343 
 9189      4C00
 9190              	.LASF110:
 9191 4b60 50305F33 		.ascii	"P0_3_LCD_COM3\000"
 9191      5F4C4344 
 9191      5F434F4D 
 9191      3300
 9192              	.LASF182:
 9193 4b6e 50315F31 		.ascii	"P1_1_SCB7_UART_TX\000"
 9193      5F534342 
 9193      375F5541 
 9193      52545F54 
 9193      5800
 9194              	.LASF824:
 9195 4b80 50395F31 		.ascii	"P9_1_SCB2_UART_TX\000"
 9195      5F534342 
 9195      325F5541 
 9195      52545F54 
ARM GAS  C:\Users\ikomb\AppData\Local\Temp\ccAzoKUN.s 			page 264


 9195      5800
 9196              	.LASF899:
 9197 4b92 50395F36 		.ascii	"P9_6_DSI_DSI\000"
 9197      5F445349 
 9197      5F445349 
 9197      00
 9198              	.LASF1004:
 9199 4b9f 5031305F 		.ascii	"P10_4_AMUXA_DSI\000"
 9199      345F414D 
 9199      5558415F 
 9199      44534900 
 9200              	.LASF502:
 9201 4baf 50365F36 		.ascii	"P6_6_SCB6_UART_RTS\000"
 9201      5F534342 
 9201      365F5541 
 9201      52545F52 
 9201      545300
 9202              	.LASF1271:
 9203 4bc2 5031325F 		.ascii	"P12_5_TCPWM0_LINE_COMPL6\000"
 9203      355F5443 
 9203      50574D30 
 9203      5F4C494E 
 9203      455F434F 
 9204              	.LASF88:
 9205 4bdb 50305F32 		.ascii	"P0_2_AMUXB_DSI\000"
 9205      5F414D55 
 9205      58425F44 
 9205      534900
 9206              	.LASF935:
 9207 4bea 5031305F 		.ascii	"P10_0_TCPWM1_LINE22\000"
 9207      305F5443 
 9207      50574D31 
 9207      5F4C494E 
 9207      45323200 
 9208              	.LASF296:
 9209 4bfe 50355F32 		.ascii	"P5_2_CSD_CSD_TX\000"
 9209      5F435344 
 9209      5F435344 
 9209      5F545800 
 9210              	.LASF534:
 9211 4c0e 50375F30 		.ascii	"P7_0_CSD_CSD_TX\000"
 9211      5F435344 
 9211      5F435344 
 9211      5F545800 
 9212              	.LASF1420:
 9213 4c1e 63795F73 		.ascii	"cy_stc_gpio_pin_config_t\000"
 9213      74635F67 
 9213      70696F5F 
 9213      70696E5F 
 9213      636F6E66 
 9214              	.LASF181:
 9215 4c37 50315F31 		.ascii	"P1_1_LCD_SEG7\000"
 9215      5F4C4344 
 9215      5F534547 
 9215      3700
 9216              	.LASF115:
 9217 4c45 50305F34 		.ascii	"P0_4_GPIO\000"
ARM GAS  C:\Users\ikomb\AppData\Local\Temp\ccAzoKUN.s 			page 265


 9217      5F475049 
 9217      4F00
 9218              	.LASF424:
 9219 4c4f 50365F32 		.ascii	"P6_2_SCB8_SPI_CLK\000"
 9219      5F534342 
 9219      385F5350 
 9219      495F434C 
 9219      4B00
 9220              	.LASF1354:
 9221 4c61 5031335F 		.ascii	"P13_6_CSD_CSD_TX\000"
 9221      365F4353 
 9221      445F4353 
 9221      445F5458 
 9221      00
 9222              	.LASF176:
 9223 4c72 50315F31 		.ascii	"P1_1_TCPWM0_LINE_COMPL3\000"
 9223      5F544350 
 9223      574D305F 
 9223      4C494E45 
 9223      5F434F4D 
 9224              	.LASF1197:
 9225 4c8a 5031325F 		.ascii	"P12_1_AMUXA\000"
 9225      315F414D 
 9225      55584100 
 9226              	.LASF1198:
 9227 4c96 5031325F 		.ascii	"P12_1_AMUXB\000"
 9227      315F414D 
 9227      55584200 
 9228              	.LASF11:
 9229 4ca2 6C6F6E67 		.ascii	"long long unsigned int\000"
 9229      206C6F6E 
 9229      6720756E 
 9229      7369676E 
 9229      65642069 
 9230              	.LASF440:
 9231 4cb9 50365F33 		.ascii	"P6_3_SCB3_SPI_SELECT0\000"
 9231      5F534342 
 9231      335F5350 
 9231      495F5345 
 9231      4C454354 
 9232              	.LASF1103:
 9233 4ccf 5031315F 		.ascii	"P11_3_DSI_GPIO\000"
 9233      335F4453 
 9233      495F4750 
 9233      494F00
 9234              	.LASF100:
 9235 4cde 50305F33 		.ascii	"P0_3_DSI_DSI\000"
 9235      5F445349 
 9235      5F445349 
 9235      00
 9236              	.LASF1321:
 9237 4ceb 5031335F 		.ascii	"P13_0_LCD_SEG31\000"
 9237      305F4C43 
 9237      445F5345 
 9237      47333100 
 9238              	.LASF335:
 9239 4cfb 50355F34 		.ascii	"P5_4_AUDIOSS_RX_SCK\000"
ARM GAS  C:\Users\ikomb\AppData\Local\Temp\ccAzoKUN.s 			page 266


 9239      5F415544 
 9239      494F5353 
 9239      5F52585F 
 9239      53434B00 
 9240              	.LASF700:
 9241 4d0f 50385F32 		.ascii	"P8_2_DSI_GPIO\000"
 9241      5F445349 
 9241      5F475049 
 9241      4F00
 9242              	.LASF607:
 9243 4d1d 50375F34 		.ascii	"P7_4_SCB4_SPI_SELECT1\000"
 9243      5F534342 
 9243      345F5350 
 9243      495F5345 
 9243      4C454354 
 9244              	.LASF1322:
 9245 4d33 5031335F 		.ascii	"P13_0_SCB6_UART_RX\000"
 9245      305F5343 
 9245      42365F55 
 9245      4152545F 
 9245      525800
 9246              	.LASF878:
 9247 4d46 50395F34 		.ascii	"P9_4_CSD_CSD_TX_N\000"
 9247      5F435344 
 9247      5F435344 
 9247      5F54585F 
 9247      4E00
 9248              	.LASF466:
 9249 4d58 50365F35 		.ascii	"P6_5_GPIO_DSI\000"
 9249      5F475049 
 9249      4F5F4453 
 9249      4900
 9250              	.LASF1191:
 9251 4d66 5031325F 		.ascii	"P12_0_SCB6_SPI_MOSI\000"
 9251      305F5343 
 9251      42365F53 
 9251      50495F4D 
 9251      4F534900 
 9252              	.LASF1153:
 9253 4d7a 5031315F 		.ascii	"P11_6_DSI_DSI\000"
 9253      365F4453 
 9253      495F4453 
 9253      4900
 9254              	.LASF58:
 9255 4d88 50305F30 		.ascii	"P0_0_CSD_CSD_TX_N\000"
 9255      5F435344 
 9255      5F435344 
 9255      5F54585F 
 9255      4E00
 9256              	.LASF753:
 9257 4d9a 50385F35 		.ascii	"P8_5_AMUXB_DSI\000"
 9257      5F414D55 
 9257      58425F44 
 9257      534900
 9258              	.LASF1009:
 9259 4da9 5031305F 		.ascii	"P10_4_CSD_CSD_TX_N\000"
 9259      345F4353 
ARM GAS  C:\Users\ikomb\AppData\Local\Temp\ccAzoKUN.s 			page 267


 9259      445F4353 
 9259      445F5458 
 9259      5F4E00
 9260              	.LASF1350:
 9261 4dbc 5031335F 		.ascii	"P13_6_AMUXA_DSI\000"
 9261      365F414D 
 9261      5558415F 
 9261      44534900 
 9262              	.LASF119:
 9263 4dcc 50305F34 		.ascii	"P0_4_AMUXA\000"
 9263      5F414D55 
 9263      584100
 9264              	.LASF120:
 9265 4dd7 50305F34 		.ascii	"P0_4_AMUXB\000"
 9265      5F414D55 
 9265      584200
 9266              	.LASF734:
 9267 4de2 50385F34 		.ascii	"P8_4_DSI_GPIO\000"
 9267      5F445349 
 9267      5F475049 
 9267      4F00
 9268              	.LASF985:
 9269 4df0 5031305F 		.ascii	"P10_3_AMUXA\000"
 9269      335F414D 
 9269      55584100 
 9270              	.LASF986:
 9271 4dfc 5031305F 		.ascii	"P10_3_AMUXB\000"
 9271      335F414D 
 9271      55584200 
 9272              	.LASF367:
 9273 4e08 50355F36 		.ascii	"P5_6_AUDIOSS_RX_SDI\000"
 9273      5F415544 
 9273      494F5353 
 9273      5F52585F 
 9273      53444900 
 9274              	.LASF780:
 9275 4e1c 50385F37 		.ascii	"P8_7_AMUXA\000"
 9275      5F414D55 
 9275      584100
 9276              	.LASF774:
 9277 4e27 50385F36 		.ascii	"P8_6_LCD_SEG60\000"
 9277      5F4C4344 
 9277      5F534547 
 9277      363000
 9278              	.LASF1307:
 9279 4e36 5031325F 		.ascii	"P12_7_LCD_SEG30\000"
 9279      375F4C43 
 9279      445F5345 
 9279      47333000 
 9280              	.LASF537:
 9281 4e46 50375F30 		.ascii	"P7_0_LCD_SEG46\000"
 9281      5F4C4344 
 9281      5F534547 
 9281      343600
 9282              	.LASF1257:
 9283 4e55 5031325F 		.ascii	"P12_4_CSD_CSD_TX_N\000"
 9283      345F4353 
ARM GAS  C:\Users\ikomb\AppData\Local\Temp\ccAzoKUN.s 			page 268


 9283      445F4353 
 9283      445F5458 
 9283      5F4E00
 9284              	.LASF1077:
 9285 4e68 5031315F 		.ascii	"P11_1_LCD_SEG17\000"
 9285      315F4C43 
 9285      445F5345 
 9285      47313700 
 9286              	.LASF330:
 9287 4e78 50355F34 		.ascii	"P5_4_CSD_CSD_TX\000"
 9287      5F435344 
 9287      5F435344 
 9287      5F545800 
 9288              	.LASF339:
 9289 4e88 50355F35 		.ascii	"P5_5_DSI_GPIO\000"
 9289      5F445349 
 9289      5F475049 
 9289      4F00
 9290              	.LASF989:
 9291 4e96 5031305F 		.ascii	"P10_3_TCPWM0_LINE_COMPL7\000"
 9291      335F5443 
 9291      50574D30 
 9291      5F4C494E 
 9291      455F434F 
 9292              	.LASF408:
 9293 4eaf 50365F32 		.ascii	"P6_2_GPIO\000"
 9293      5F475049 
 9293      4F00
 9294              	.LASF150:
 9295 4eb9 50315F30 		.ascii	"P1_0_GPIO\000"
 9295      5F475049 
 9295      4F00
 9296              	.LASF1327:
 9297 4ec3 5031335F 		.ascii	"P13_1_GPIO_DSI\000"
 9297      315F4750 
 9297      494F5F44 
 9297      534900
 9298              	.LASF558:
 9299 4ed2 50375F31 		.ascii	"P7_1_SCB4_I2C_SDA\000"
 9299      5F534342 
 9299      345F4932 
 9299      435F5344 
 9299      4100
 9300              	.LASF948:
 9301 4ee4 5031305F 		.ascii	"P10_1_DSI_GPIO\000"
 9301      315F4453 
 9301      495F4750 
 9301      494F00
 9302              	.LASF382:
 9303 4ef3 50365F30 		.ascii	"P6_0_SCB8_I2C_SCL\000"
 9303      5F534342 
 9303      385F4932 
 9303      435F5343 
 9303      4C00
 9304              	.LASF1334:
 9305 4f05 5031335F 		.ascii	"P13_1_TCPWM0_LINE_COMPL0\000"
 9305      315F5443 
ARM GAS  C:\Users\ikomb\AppData\Local\Temp\ccAzoKUN.s 			page 269


 9305      50574D30 
 9305      5F4C494E 
 9305      455F434F 
 9306              	.LASF295:
 9307 4f1e 50355F32 		.ascii	"P5_2_TCPWM1_LINE5\000"
 9307      5F544350 
 9307      574D315F 
 9307      4C494E45 
 9307      3500
 9308              	.LASF180:
 9309 4f30 50315F31 		.ascii	"P1_1_LCD_COM7\000"
 9309      5F4C4344 
 9309      5F434F4D 
 9309      3700
 9310              	.LASF796:
 9311 4f3e 50395F30 		.ascii	"P9_0_AMUXB\000"
 9311      5F414D55 
 9311      584200
 9312              	.LASF1361:
 9313 4f49 5031335F 		.ascii	"P13_7_DSI_DSI\000"
 9313      375F4453 
 9313      495F4453 
 9313      4900
 9314              	.LASF633:
 9315 4f57 50375F36 		.ascii	"P7_6_AMUXA_DSI\000"
 9315      5F414D55 
 9315      58415F44 
 9315      534900
 9316              	.LASF1180:
 9317 4f66 5031325F 		.ascii	"P12_0_AMUXA_DSI\000"
 9317      305F414D 
 9317      5558415F 
 9317      44534900 
 9318              	.LASF773:
 9319 4f76 50385F36 		.ascii	"P8_6_LCD_COM60\000"
 9319      5F4C4344 
 9319      5F434F4D 
 9319      363000
 9320              	.LASF1306:
 9321 4f85 5031325F 		.ascii	"P12_7_LCD_COM30\000"
 9321      375F4C43 
 9321      445F434F 
 9321      4D333000 
 9322              	.LASF536:
 9323 4f95 50375F30 		.ascii	"P7_0_LCD_COM46\000"
 9323      5F4C4344 
 9323      5F434F4D 
 9323      343600
 9324              	.LASF559:
 9325 4fa4 50375F31 		.ascii	"P7_1_SCB4_SPI_MISO\000"
 9325      5F534342 
 9325      345F5350 
 9325      495F4D49 
 9325      534F00
 9326              	.LASF379:
 9327 4fb7 50365F30 		.ascii	"P6_0_CSD_CSD_TX_N\000"
 9327      5F435344 
ARM GAS  C:\Users\ikomb\AppData\Local\Temp\ccAzoKUN.s 			page 270


 9327      5F435344 
 9327      5F54585F 
 9327      4E00
 9328              	.LASF390:
 9329 4fc9 50365F31 		.ascii	"P6_1_DSI_DSI\000"
 9329      5F445349 
 9329      5F445349 
 9329      00
 9330              	.LASF1279:
 9331 4fd6 5031325F 		.ascii	"P12_6_GPIO\000"
 9331      365F4750 
 9331      494F00
 9332              	.LASF108:
 9333 4fe1 50305F33 		.ascii	"P0_3_CSD_CSD_TX\000"
 9333      5F435344 
 9333      5F435344 
 9333      5F545800 
 9334              	.LASF116:
 9335 4ff1 50305F34 		.ascii	"P0_4_GPIO_DSI\000"
 9335      5F475049 
 9335      4F5F4453 
 9335      4900
 9336              	.LASF1286:
 9337 4fff 5031325F 		.ascii	"P12_6_AMUXB_DSI\000"
 9337      365F414D 
 9337      5558425F 
 9337      44534900 
 9338              	.LASF1347:
 9339 500f 5031335F 		.ascii	"P13_6_DSI_GPIO\000"
 9339      365F4453 
 9339      495F4750 
 9339      494F00
 9340              	.LASF1431:
 9341 501e 43795F47 		.ascii	"Cy_GPIO_SetVtrip\000"
 9341      50494F5F 
 9341      53657456 
 9341      74726970 
 9341      00
 9342              	.LASF1421:
 9343 502f 62617365 		.ascii	"base\000"
 9343      00
 9344              	.LASF672:
 9345 5034 50385F30 		.ascii	"P8_0_CSD_CSD_TX_N\000"
 9345      5F435344 
 9345      5F435344 
 9345      5F54585F 
 9345      4E00
 9346              	.LASF1196:
 9347 5046 5031325F 		.ascii	"P12_1_DSI_GPIO\000"
 9347      315F4453 
 9347      495F4750 
 9347      494F00
 9348              	.LASF1076:
 9349 5055 5031315F 		.ascii	"P11_1_LCD_COM17\000"
 9349      315F4C43 
 9349      445F434F 
 9349      4D313700 
ARM GAS  C:\Users\ikomb\AppData\Local\Temp\ccAzoKUN.s 			page 271


 9350              	.LASF1116:
 9351 5065 5031315F 		.ascii	"P11_3_SCB5_SPI_SELECT0\000"
 9351      335F5343 
 9351      42355F53 
 9351      50495F53 
 9351      454C4543 
 9352              	.LASF794:
 9353 507c 50395F30 		.ascii	"P9_0_DSI_GPIO\000"
 9353      5F445349 
 9353      5F475049 
 9353      4F00
 9354              	.LASF942:
 9355 508a 5031305F 		.ascii	"P10_0_SCB1_SPI_MOSI\000"
 9355      305F5343 
 9355      42315F53 
 9355      50495F4D 
 9355      4F534900 
 9356              	.LASF999:
 9357 509e 5031305F 		.ascii	"P10_4_GPIO_DSI\000"
 9357      345F4750 
 9357      494F5F44 
 9357      534900
 9358              	.LASF1261:
 9359 50ad 5031325F 		.ascii	"P12_4_SCB6_SPI_SELECT1\000"
 9359      345F5343 
 9359      42365F53 
 9359      50495F53 
 9359      454C4543 
 9360              	.LASF519:
 9361 50c4 50365F37 		.ascii	"P6_7_LCD_SEG45\000"
 9361      5F4C4344 
 9361      5F534547 
 9361      343500
 9362              	.LASF578:
 9363 50d3 50375F33 		.ascii	"P7_3_GPIO_DSI\000"
 9363      5F475049 
 9363      4F5F4453 
 9363      4900
 9364              	.LASF565:
 9365 50e1 50375F32 		.ascii	"P7_2_AMUXA\000"
 9365      5F414D55 
 9365      584100
 9366              	.LASF566:
 9367 50ec 50375F32 		.ascii	"P7_2_AMUXB\000"
 9367      5F414D55 
 9367      584200
 9368              	.LASF495:
 9369 50f7 50365F36 		.ascii	"P6_6_AMUXB_DSI\000"
 9369      5F414D55 
 9369      58425F44 
 9369      534900
 9370              	.LASF374:
 9371 5106 50365F30 		.ascii	"P6_0_AMUXA_DSI\000"
 9371      5F414D55 
 9371      58415F44 
 9371      534900
 9372              	.LASF387:
ARM GAS  C:\Users\ikomb\AppData\Local\Temp\ccAzoKUN.s 			page 272


 9373 5115 50365F30 		.ascii	"P6_0_SCB8_SPI_MOSI\000"
 9373      5F534342 
 9373      385F5350 
 9373      495F4D4F 
 9373      534900
 9374              	.LASF1024:
 9375 5128 5031305F 		.ascii	"P10_5_CSD_CSD_TX\000"
 9375      355F4353 
 9375      445F4353 
 9375      445F5458 
 9375      00
 9376              	.LASF1391:
 9377 5139 4750494F 		.ascii	"GPIO_PRT_Type\000"
 9377      5F505254 
 9377      5F547970 
 9377      6500
 9378              	.LASF1239:
 9379 5147 5031325F 		.ascii	"P12_3_CSD_CSD_TX\000"
 9379      335F4353 
 9379      445F4353 
 9379      445F5458 
 9379      00
 9380              	.LASF280:
 9381 5158 50355F31 		.ascii	"P5_1_LCD_SEG31\000"
 9381      5F4C4344 
 9381      5F534547 
 9381      333100
 9382              	.LASF324:
 9383 5167 50355F34 		.ascii	"P5_4_AMUXA\000"
 9383      5F414D55 
 9383      584100
 9384              	.LASF325:
 9385 5172 50355F34 		.ascii	"P5_4_AMUXB\000"
 9385      5F414D55 
 9385      584200
 9386              	.LASF943:
 9387 517d 5031305F 		.ascii	"P10_0_PERI_TR_IO_INPUT20\000"
 9387      305F5045 
 9387      52495F54 
 9387      525F494F 
 9387      5F494E50 
 9388              	.LASF699:
 9389 5196 50385F32 		.ascii	"P8_2_DSI_DSI\000"
 9389      5F445349 
 9389      5F445349 
 9389      00
 9390              	.LASF1052:
 9391 51a3 5031315F 		.ascii	"P11_0_AMUXB_DSI\000"
 9391      305F414D 
 9391      5558425F 
 9391      44534900 
 9392              	.LASF915:
 9393 51b3 50395F37 		.ascii	"P9_7_DSI_GPIO\000"
 9393      5F445349 
 9393      5F475049 
 9393      4F00
 9394              	.LASF1171:
ARM GAS  C:\Users\ikomb\AppData\Local\Temp\ccAzoKUN.s 			page 273


 9395 51c1 5031315F 		.ascii	"P11_7_AMUXA_DSI\000"
 9395      375F414D 
 9395      5558415F 
 9395      44534900 
 9396              	.LASF303:
 9397 51d1 50355F33 		.ascii	"P5_3_GPIO\000"
 9397      5F475049 
 9397      4F00
 9398              	.LASF518:
 9399 51db 50365F37 		.ascii	"P6_7_LCD_COM45\000"
 9399      5F4C4344 
 9399      5F434F4D 
 9399      343500
 9400              	.LASF240:
 9401 51ea 50315F35 		.ascii	"P1_5_AMUXB_DSI\000"
 9401      5F414D55 
 9401      58425F44 
 9401      534900
 9402              	.LASF428:
 9403 51f9 50365F33 		.ascii	"P6_3_DSI_GPIO\000"
 9403      5F445349 
 9403      5F475049 
 9403      4F00
 9404              	.LASF255:
 9405 5207 50355F30 		.ascii	"P5_0_AMUXB_DSI\000"
 9405      5F414D55 
 9405      58425F44 
 9405      534900
 9406              	.LASF1056:
 9407 5216 5031315F 		.ascii	"P11_0_CSD_CSD_TX_N\000"
 9407      305F4353 
 9407      445F4353 
 9407      445F5458 
 9407      5F4E00
 9408              	.LASF262:
 9409 5229 50355F30 		.ascii	"P5_0_SCB5_UART_RX\000"
 9409      5F534342 
 9409      355F5541 
 9409      52545F52 
 9409      5800
 9410              	.LASF601:
 9411 523b 50375F34 		.ascii	"P7_4_TCPWM0_LINE6\000"
 9411      5F544350 
 9411      574D305F 
 9411      4C494E45 
 9411      3600
 9412              	.LASF64:
 9413 524d 50305F31 		.ascii	"P0_1_GPIO\000"
 9413      5F475049 
 9413      4F00
 9414              	.LASF895:
 9415 5257 50395F35 		.ascii	"P9_5_LCD_SEG5\000"
 9415      5F4C4344 
 9415      5F534547 
 9415      3500
 9416              	.LASF279:
 9417 5265 50355F31 		.ascii	"P5_1_LCD_COM31\000"
ARM GAS  C:\Users\ikomb\AppData\Local\Temp\ccAzoKUN.s 			page 274


 9417      5F4C4344 
 9417      5F434F4D 
 9417      333100
 9418              	.LASF866:
 9419 5274 50395F33 		.ascii	"P9_3_SRSS_DDFT_PIN_IN1\000"
 9419      5F535253 
 9419      535F4444 
 9419      46545F50 
 9419      494E5F49 
 9420              	.LASF620:
 9421 528b 50375F35 		.ascii	"P7_5_CSD_CSD_TX\000"
 9421      5F435344 
 9421      5F435344 
 9421      5F545800 
 9422              	.LASF836:
 9423 529b 50395F32 		.ascii	"P9_2_AMUXA_DSI\000"
 9423      5F414D55 
 9423      58415F44 
 9423      534900
 9424              	.LASF858:
 9425 52aa 50395F33 		.ascii	"P9_3_CSD_CSD_TX\000"
 9425      5F435344 
 9425      5F435344 
 9425      5F545800 
 9426              	.LASF1319:
 9427 52ba 5031335F 		.ascii	"P13_0_CSD_CSD_TX_N\000"
 9427      305F4353 
 9427      445F4353 
 9427      445F5458 
 9427      5F4E00
 9428              	.LASF490:
 9429 52cd 50365F36 		.ascii	"P6_6_DSI_DSI\000"
 9429      5F445349 
 9429      5F445349 
 9429      00
 9430              	.LASF966:
 9431 52da 5031305F 		.ascii	"P10_2_DSI_DSI\000"
 9431      325F4453 
 9431      495F4453 
 9431      4900
 9432              	.LASF201:
 9433 52e8 50315F32 		.ascii	"P1_2_SCB7_SPI_CLK\000"
 9433      5F534342 
 9433      375F5350 
 9433      495F434C 
 9433      4B00
 9434              	.LASF951:
 9435 52fa 5031305F 		.ascii	"P10_1_AMUXA_DSI\000"
 9435      315F414D 
 9435      5558415F 
 9435      44534900 
 9436              	.LASF496:
 9437 530a 50365F36 		.ascii	"P6_6_TCPWM0_LINE3\000"
 9437      5F544350 
 9437      574D305F 
 9437      4C494E45 
 9437      3300
ARM GAS  C:\Users\ikomb\AppData\Local\Temp\ccAzoKUN.s 			page 275


 9438              	.LASF1165:
 9439 531c 5031315F 		.ascii	"P11_7_GPIO\000"
 9439      375F4750 
 9439      494F00
 9440              	.LASF570:
 9441 5327 50375F32 		.ascii	"P7_2_TCPWM1_LINE13\000"
 9441      5F544350 
 9441      574D315F 
 9441      4C494E45 
 9441      313300
 9442              	.LASF187:
 9443 533a 50315F32 		.ascii	"P1_2_GPIO_DSI\000"
 9443      5F475049 
 9443      4F5F4453 
 9443      4900
 9444              	.LASF819:
 9445 5348 50395F31 		.ascii	"P9_1_TCPWM1_LINE_COMPL20\000"
 9445      5F544350 
 9445      574D315F 
 9445      4C494E45 
 9445      5F434F4D 
 9446              	.LASF604:
 9447 5361 50375F34 		.ascii	"P7_4_CSD_CSD_TX_N\000"
 9447      5F435344 
 9447      5F435344 
 9447      5F54585F 
 9447      4E00
 9448              	.LASF769:
 9449 5373 50385F36 		.ascii	"P8_6_TCPWM0_LINE3\000"
 9449      5F544350 
 9449      574D305F 
 9449      4C494E45 
 9449      3300
 9450              	.LASF790:
 9451 5385 50385F37 		.ascii	"P8_7_SCB3_SPI_SELECT2\000"
 9451      5F534342 
 9451      335F5350 
 9451      495F5345 
 9451      4C454354 
 9452              	.LASF1084:
 9453 539b 5031315F 		.ascii	"P11_2_GPIO_DSI\000"
 9453      325F4750 
 9453      494F5F44 
 9453      534900
 9454              	.LASF704:
 9455 53aa 50385F32 		.ascii	"P8_2_AMUXB_DSI\000"
 9455      5F414D55 
 9455      58425F44 
 9455      534900
 9456              	.LASF217:
 9457 53b9 50315F33 		.ascii	"P1_3_SCB7_SPI_SELECT0\000"
 9457      5F534342 
 9457      375F5350 
 9457      495F5345 
 9457      4C454354 
 9458              	.LASF486:
 9459 53cf 50365F35 		.ascii	"P6_5_SCB8_SPI_MISO\000"
ARM GAS  C:\Users\ikomb\AppData\Local\Temp\ccAzoKUN.s 			page 276


 9459      5F534342 
 9459      385F5350 
 9459      495F4D49 
 9459      534F00
 9460              	.LASF1169:
 9461 53e2 5031315F 		.ascii	"P11_7_AMUXA\000"
 9461      375F414D 
 9461      55584100 
 9462              	.LASF1170:
 9463 53ee 5031315F 		.ascii	"P11_7_AMUXB\000"
 9463      375F414D 
 9463      55584200 
 9464              	.LASF1358:
 9465 53fa 5031335F 		.ascii	"P13_6_SCB6_SPI_SELECT3\000"
 9465      365F5343 
 9465      42365F53 
 9465      50495F53 
 9465      454C4543 
 9466              	.LASF1178:
 9467 5411 5031325F 		.ascii	"P12_0_AMUXA\000"
 9467      305F414D 
 9467      55584100 
 9468              	.LASF1179:
 9469 541d 5031325F 		.ascii	"P12_0_AMUXB\000"
 9469      305F414D 
 9469      55584200 
 9470              	.LASF1010:
 9471 5429 5031305F 		.ascii	"P10_4_LCD_COM12\000"
 9471      345F4C43 
 9471      445F434F 
 9471      4D313200 
 9472              	.LASF680:
 9473 5439 50385F31 		.ascii	"P8_1_GPIO_DSI\000"
 9473      5F475049 
 9473      4F5F4453 
 9473      4900
 9474              	.LASF778:
 9475 5447 50385F37 		.ascii	"P8_7_DSI_DSI\000"
 9475      5F445349 
 9475      5F445349 
 9475      00
 9476              	.LASF84:
 9477 5454 50305F32 		.ascii	"P0_2_DSI_GPIO\000"
 9477      5F445349 
 9477      5F475049 
 9477      4F00
 9478              	.LASF1259:
 9479 5462 5031325F 		.ascii	"P12_4_LCD_SEG27\000"
 9479      345F4C43 
 9479      445F5345 
 9479      47323700 
 9480              	.LASF936:
 9481 5472 5031305F 		.ascii	"P10_0_CSD_CSD_TX\000"
 9481      305F4353 
 9481      445F4353 
 9481      445F5458 
 9481      00
ARM GAS  C:\Users\ikomb\AppData\Local\Temp\ccAzoKUN.s 			page 277


 9482              	.LASF152:
 9483 5483 50315F30 		.ascii	"P1_0_DSI_DSI\000"
 9483      5F445349 
 9483      5F445349 
 9483      00
 9484              	.LASF78:
 9485 5490 50305F31 		.ascii	"P0_1_SCB0_SPI_SELECT2\000"
 9485      5F534342 
 9485      305F5350 
 9485      495F5345 
 9485      4C454354 
 9486              	.LASF1055:
 9487 54a6 5031315F 		.ascii	"P11_0_CSD_CSD_TX\000"
 9487      305F4353 
 9487      445F4353 
 9487      445F5458 
 9487      00
 9488              	.LASF894:
 9489 54b7 50395F35 		.ascii	"P9_5_LCD_COM5\000"
 9489      5F4C4344 
 9489      5F434F4D 
 9489      3500
 9490              	.LASF897:
 9491 54c5 50395F36 		.ascii	"P9_6_GPIO\000"
 9491      5F475049 
 9491      4F00
 9492              	.LASF967:
 9493 54cf 5031305F 		.ascii	"P10_2_DSI_GPIO\000"
 9493      325F4453 
 9493      495F4750 
 9493      494F00
 9494              	.LASF546:
 9495 54de 50375F31 		.ascii	"P7_1_DSI_GPIO\000"
 9495      5F445349 
 9495      5F475049 
 9495      4F00
 9496              	.LASF1231:
 9497 54ec 5031325F 		.ascii	"P12_3_DSI_DSI\000"
 9497      335F4453 
 9497      495F4453 
 9497      4900
 9498              	.LASF60:
 9499 54fa 50305F30 		.ascii	"P0_0_LCD_SEG0\000"
 9499      5F4C4344 
 9499      5F534547 
 9499      3000
 9500              	.LASF806:
 9501 5508 50395F30 		.ascii	"P9_0_SCB2_I2C_SCL\000"
 9501      5F534342 
 9501      325F4932 
 9501      435F5343 
 9501      4C00
 9502              	.LASF194:
 9503 551a 50315F32 		.ascii	"P1_2_TCPWM0_LINE4\000"
 9503      5F544350 
 9503      574D305F 
 9503      4C494E45 
ARM GAS  C:\Users\ikomb\AppData\Local\Temp\ccAzoKUN.s 			page 278


 9503      3400
 9504              	.LASF1229:
 9505 552c 5031325F 		.ascii	"P12_3_GPIO\000"
 9505      335F4750 
 9505      494F00
 9506              	.LASF113:
 9507 5537 50305F33 		.ascii	"P0_3_SCB0_I2C_SDA\000"
 9507      5F534342 
 9507      305F4932 
 9507      435F5344 
 9507      4100
 9508              	.LASF102:
 9509 5549 50305F33 		.ascii	"P0_3_AMUXA\000"
 9509      5F414D55 
 9509      584100
 9510              	.LASF103:
 9511 5554 50305F33 		.ascii	"P0_3_AMUXB\000"
 9511      5F414D55 
 9511      584200
 9512              	.LASF726:
 9513 555f 50385F33 		.ascii	"P8_3_LCD_COM57\000"
 9513      5F4C4344 
 9513      5F434F4D 
 9513      353700
 9514              	.LASF1258:
 9515 556e 5031325F 		.ascii	"P12_4_LCD_COM27\000"
 9515      345F4C43 
 9515      445F434F 
 9515      4D323700 
 9516              	.LASF968:
 9517 557e 5031305F 		.ascii	"P10_2_AMUXA\000"
 9517      325F414D 
 9517      55584100 
 9518              	.LASF969:
 9519 558a 5031305F 		.ascii	"P10_2_AMUXB\000"
 9519      325F414D 
 9519      55584200 
 9520              	.LASF366:
 9521 5596 50355F36 		.ascii	"P5_6_SCB5_SPI_SELECT3\000"
 9521      5F534342 
 9521      355F5350 
 9521      495F5345 
 9521      4C454354 
 9522              	.LASF765:
 9523 55ac 50385F36 		.ascii	"P8_6_AMUXA\000"
 9523      5F414D55 
 9523      584100
 9524              	.LASF521:
 9525 55b7 50365F37 		.ascii	"P6_7_SCB6_SPI_SELECT0\000"
 9525      5F534342 
 9525      365F5350 
 9525      495F5345 
 9525      4C454354 
 9526              	.LASF347:
 9527 55cd 50355F35 		.ascii	"P5_5_CSD_CSD_TX_N\000"
 9527      5F435344 
 9527      5F435344 
ARM GAS  C:\Users\ikomb\AppData\Local\Temp\ccAzoKUN.s 			page 279


 9527      5F54585F 
 9527      4E00
 9528              	.LASF939:
 9529 55df 5031305F 		.ascii	"P10_0_LCD_SEG8\000"
 9529      305F4C43 
 9529      445F5345 
 9529      473800
 9530              	.LASF165:
 9531 55ee 50315F30 		.ascii	"P1_0_SCB7_I2C_SCL\000"
 9531      5F534342 
 9531      375F4932 
 9531      435F5343 
 9531      4C00
 9532              	.LASF1417:
 9533 5600 76747269 		.ascii	"vtripSel\000"
 9533      7053656C 
 9533      00
 9534              	.LASF321:
 9535 5609 50355F34 		.ascii	"P5_4_GPIO_DSI\000"
 9535      5F475049 
 9535      4F5F4453 
 9535      4900
 9536              	.LASF583:
 9537 5617 50375F33 		.ascii	"P7_3_AMUXA_DSI\000"
 9537      5F414D55 
 9537      58415F44 
 9537      534900
 9538              	.LASF1352:
 9539 5626 5031335F 		.ascii	"P13_6_TCPWM0_LINE3\000"
 9539      365F5443 
 9539      50574D30 
 9539      5F4C494E 
 9539      453300
 9540              	.LASF642:
 9541 5639 50375F36 		.ascii	"P7_6_BLESS_EXT_PA_LNA_CHIP_EN_OUT\000"
 9541      5F424C45 
 9541      53535F45 
 9541      58545F50 
 9541      415F4C4E 
 9542              	.LASF418:
 9543 565b 50365F32 		.ascii	"P6_2_CSD_CSD_TX\000"
 9543      5F435344 
 9543      5F435344 
 9543      5F545800 
 9544              	.LASF671:
 9545 566b 50385F30 		.ascii	"P8_0_CSD_CSD_TX\000"
 9545      5F435344 
 9545      5F435344 
 9545      5F545800 
 9546              	.LASF404:
 9547 567b 50365F31 		.ascii	"P6_1_SCB3_I2C_SDA\000"
 9547      5F534342 
 9547      335F4932 
 9547      435F5344 
 9547      4100
 9548              	.LASF881:
 9549 568d 50395F34 		.ascii	"P9_4_SCB2_SPI_SELECT1\000"
ARM GAS  C:\Users\ikomb\AppData\Local\Temp\ccAzoKUN.s 			page 280


 9549      5F534342 
 9549      325F5350 
 9549      495F5345 
 9549      4C454354 
 9550              	.LASF621:
 9551 56a3 50375F35 		.ascii	"P7_5_CSD_CSD_TX_N\000"
 9551      5F435344 
 9551      5F435344 
 9551      5F54585F 
 9551      4E00
 9552              	.LASF294:
 9553 56b5 50355F32 		.ascii	"P5_2_TCPWM0_LINE5\000"
 9553      5F544350 
 9553      574D305F 
 9553      4C494E45 
 9553      3500
 9554              	.LASF141:
 9555 56c7 50305F35 		.ascii	"P0_5_TCPWM1_LINE_COMPL2\000"
 9555      5F544350 
 9555      574D315F 
 9555      4C494E45 
 9555      5F434F4D 
 9556              	.LASF1236:
 9557 56df 5031325F 		.ascii	"P12_3_AMUXB_DSI\000"
 9557      335F414D 
 9557      5558425F 
 9557      44534900 
 9558              	.LASF397:
 9559 56ef 50365F31 		.ascii	"P6_1_TCPWM1_LINE_COMPL8\000"
 9559      5F544350 
 9559      574D315F 
 9559      4C494E45 
 9559      5F434F4D 
 9560              	.LASF284:
 9561 5707 50355F31 		.ascii	"P5_1_AUDIOSS_TX_SCK\000"
 9561      5F415544 
 9561      494F5353 
 9561      5F54585F 
 9561      53434B00 
 9562              	.LASF893:
 9563 571b 50395F35 		.ascii	"P9_5_CSD_CSD_TX_N\000"
 9563      5F435344 
 9563      5F435344 
 9563      5F54585F 
 9563      4E00
 9564              	.LASF248:
 9565 572d 50355F30 		.ascii	"P5_0_GPIO\000"
 9565      5F475049 
 9565      4F00
 9566              	.LASF569:
 9567 5737 50375F32 		.ascii	"P7_2_TCPWM0_LINE5\000"
 9567      5F544350 
 9567      574D305F 
 9567      4C494E45 
 9567      3500
 9568              	.LASF455:
 9569 5749 50365F34 		.ascii	"P6_4_LCD_SEG42\000"
ARM GAS  C:\Users\ikomb\AppData\Local\Temp\ccAzoKUN.s 			page 281


 9569      5F4C4344 
 9569      5F534547 
 9569      343200
 9570              	.LASF1027:
 9571 5758 5031305F 		.ascii	"P10_5_LCD_SEG13\000"
 9571      355F4C43 
 9571      445F5345 
 9571      47313300 
 9572              	.LASF432:
 9573 5768 50365F33 		.ascii	"P6_3_AMUXB_DSI\000"
 9573      5F414D55 
 9573      58425F44 
 9573      534900
 9574              	.LASF75:
 9575 5777 50305F31 		.ascii	"P0_1_CSD_CSD_TX_N\000"
 9575      5F435344 
 9575      5F435344 
 9575      5F54585F 
 9575      4E00
 9576              	.LASF890:
 9577 5789 50395F35 		.ascii	"P9_5_TCPWM0_LINE_COMPL7\000"
 9577      5F544350 
 9577      574D305F 
 9577      4C494E45 
 9577      5F434F4D 
 9578              	.LASF1025:
 9579 57a1 5031305F 		.ascii	"P10_5_CSD_CSD_TX_N\000"
 9579      355F4353 
 9579      445F4353 
 9579      445F5458 
 9579      5F4E00
 9580              	.LASF1343:
 9581 57b4 5031335F 		.ascii	"P13_1_PERI_TR_IO_INPUT27\000"
 9581      315F5045 
 9581      52495F54 
 9581      525F494F 
 9581      5F494E50 
 9582              	.LASF153:
 9583 57cd 50315F30 		.ascii	"P1_0_DSI_GPIO\000"
 9583      5F445349 
 9583      5F475049 
 9583      4F00
 9584              	.LASF838:
 9585 57db 50395F32 		.ascii	"P9_2_TCPWM0_LINE5\000"
 9585      5F544350 
 9585      574D305F 
 9585      4C494E45 
 9585      3500
 9586              	.LASF235:
 9587 57ed 50315F35 		.ascii	"P1_5_DSI_DSI\000"
 9587      5F445349 
 9587      5F445349 
 9587      00
 9588              	.LASF514:
 9589 57fa 50365F37 		.ascii	"P6_7_TCPWM0_LINE_COMPL3\000"
 9589      5F544350 
 9589      574D305F 
ARM GAS  C:\Users\ikomb\AppData\Local\Temp\ccAzoKUN.s 			page 282


 9589      4C494E45 
 9589      5F434F4D 
 9590              	.LASF59:
 9591 5812 50305F30 		.ascii	"P0_0_LCD_COM0\000"
 9591      5F4C4344 
 9591      5F434F4D 
 9591      3000
 9592              	.LASF459:
 9593 5820 50365F34 		.ascii	"P6_4_SCB6_SPI_MOSI\000"
 9593      5F534342 
 9593      365F5350 
 9593      495F4D4F 
 9593      534900
 9594              	.LASF547:
 9595 5833 50375F31 		.ascii	"P7_1_AMUXA\000"
 9595      5F414D55 
 9595      584100
 9596              	.LASF548:
 9597 583e 50375F31 		.ascii	"P7_1_AMUXB\000"
 9597      5F414D55 
 9597      584200
 9598              	.LASF288:
 9599 5849 50355F32 		.ascii	"P5_2_DSI_DSI\000"
 9599      5F445349 
 9599      5F445349 
 9599      00
 9600              	.LASF1050:
 9601 5856 5031315F 		.ascii	"P11_0_AMUXB\000"
 9601      305F414D 
 9601      55584200 
 9602              	.LASF1134:
 9603 5862 5031315F 		.ascii	"P11_4_PERI_TR_IO_OUTPUT1\000"
 9603      345F5045 
 9603      52495F54 
 9603      525F494F 
 9603      5F4F5554 
 9604              	.LASF975:
 9605 587b 5031305F 		.ascii	"P10_2_CSD_CSD_TX_N\000"
 9605      325F4353 
 9605      445F4353 
 9605      445F5458 
 9605      5F4E00
 9606              	.LASF1124:
 9607 588e 5031315F 		.ascii	"P11_4_AMUXA_DSI\000"
 9607      345F414D 
 9607      5558415F 
 9607      44534900 
 9608              	.LASF1048:
 9609 589e 5031315F 		.ascii	"P11_0_DSI_GPIO\000"
 9609      305F4453 
 9609      495F4750 
 9609      494F00
 9610              	.LASF776:
 9611 58ad 50385F37 		.ascii	"P8_7_GPIO\000"
 9611      5F475049 
 9611      4F00
 9612              	.LASF454:
ARM GAS  C:\Users\ikomb\AppData\Local\Temp\ccAzoKUN.s 			page 283


 9613 58b7 50365F34 		.ascii	"P6_4_LCD_COM42\000"
 9613      5F4C4344 
 9613      5F434F4D 
 9613      343200
 9614              	.LASF1272:
 9615 58c6 5031325F 		.ascii	"P12_5_TCPWM1_LINE_COMPL6\000"
 9615      355F5443 
 9615      50574D31 
 9615      5F4C494E 
 9615      455F434F 
 9616              	.LASF1026:
 9617 58df 5031305F 		.ascii	"P10_5_LCD_COM13\000"
 9617      355F4C43 
 9617      445F434F 
 9617      4D313300 
 9618              	.LASF193:
 9619 58ef 50315F32 		.ascii	"P1_2_AMUXB_DSI\000"
 9619      5F414D55 
 9619      58425F44 
 9619      534900
 9620              	.LASF319:
 9621 58fe 50355F33 		.ascii	"P5_3_AUDIOSS_TX_SDO\000"
 9621      5F415544 
 9621      494F5353 
 9621      5F54585F 
 9621      53444F00 
 9622              	.LASF1379:
 9623 5912 4F55545F 		.ascii	"OUT_SET\000"
 9623      53455400 
 9624              	.LASF938:
 9625 591a 5031305F 		.ascii	"P10_0_LCD_COM8\000"
 9625      305F4C43 
 9625      445F434F 
 9625      4D3800
 9626              	.LASF307:
 9627 5929 50355F33 		.ascii	"P5_3_AMUXA\000"
 9627      5F414D55 
 9627      584100
 9628              	.LASF308:
 9629 5934 50355F33 		.ascii	"P5_3_AMUXB\000"
 9629      5F414D55 
 9629      584200
 9630              	.LASF1193:
 9631 593f 5031325F 		.ascii	"P12_1_GPIO\000"
 9631      315F4750 
 9631      494F00
 9632              	.LASF1118:
 9633 594a 5031315F 		.ascii	"P11_4_GPIO\000"
 9633      345F4750 
 9633      494F00
 9634              	.LASF898:
 9635 5955 50395F36 		.ascii	"P9_6_GPIO_DSI\000"
 9635      5F475049 
 9635      4F5F4453 
 9635      4900
 9636              	.LASF177:
 9637 5963 50315F31 		.ascii	"P1_1_TCPWM1_LINE_COMPL3\000"
ARM GAS  C:\Users\ikomb\AppData\Local\Temp\ccAzoKUN.s 			page 284


 9637      5F544350 
 9637      574D315F 
 9637      4C494E45 
 9637      5F434F4D 
 9638              	.LASF326:
 9639 597b 50355F34 		.ascii	"P5_4_AMUXA_DSI\000"
 9639      5F414D55 
 9639      58415F44 
 9639      534900
 9640              	.LASF972:
 9641 598a 5031305F 		.ascii	"P10_2_TCPWM0_LINE7\000"
 9641      325F5443 
 9641      50574D30 
 9641      5F4C494E 
 9641      453700
 9642              	.LASF1340:
 9643 599d 5031335F 		.ascii	"P13_1_SCB6_UART_TX\000"
 9643      315F5343 
 9643      42365F55 
 9643      4152545F 
 9643      545800
 9644              	.LASF597:
 9645 59b0 50375F34 		.ascii	"P7_4_AMUXA\000"
 9645      5F414D55 
 9645      584100
 9646              	.LASF889:
 9647 59bb 50395F35 		.ascii	"P9_5_AMUXB_DSI\000"
 9647      5F414D55 
 9647      58425F44 
 9647      534900
 9648              	.LASF409:
 9649 59ca 50365F32 		.ascii	"P6_2_GPIO_DSI\000"
 9649      5F475049 
 9649      4F5F4453 
 9649      4900
 9650              	.LASF399:
 9651 59d8 50365F31 		.ascii	"P6_1_CSD_CSD_TX_N\000"
 9651      5F435344 
 9651      5F435344 
 9651      5F54585F 
 9651      4E00
 9652              	.LASF12:
 9653 59ea 696E7433 		.ascii	"int32_t\000"
 9653      325F7400 
 9654              	.LASF402:
 9655 59f2 50365F31 		.ascii	"P6_1_SCB8_I2C_SDA\000"
 9655      5F534342 
 9655      385F4932 
 9655      435F5344 
 9655      4100
 9656              	.LASF1005:
 9657 5a04 5031305F 		.ascii	"P10_4_AMUXB_DSI\000"
 9657      345F414D 
 9657      5558425F 
 9657      44534900 
 9658              	.LASF1403:
 9659 5a14 63666753 		.ascii	"cfgSIO\000"
ARM GAS  C:\Users\ikomb\AppData\Local\Temp\ccAzoKUN.s 			page 285


 9659      494F00
 9660              	.LASF1220:
 9661 5a1b 5031325F 		.ascii	"P12_2_TCPWM0_LINE5\000"
 9661      325F5443 
 9661      50574D30 
 9661      5F4C494E 
 9661      453500
 9662              	.LASF460:
 9663 5a2e 50365F34 		.ascii	"P6_4_PERI_TR_IO_INPUT12\000"
 9663      5F504552 
 9663      495F5452 
 9663      5F494F5F 
 9663      494E5055 
 9664              	.LASF1342:
 9665 5a46 5031335F 		.ascii	"P13_1_SCB6_SPI_MISO\000"
 9665      315F5343 
 9665      42365F53 
 9665      50495F4D 
 9665      49534F00 
 9666              	.LASF104:
 9667 5a5a 50305F33 		.ascii	"P0_3_AMUXA_DSI\000"
 9667      5F414D55 
 9667      58415F44 
 9667      534900
 9668              	.LASF690:
 9669 5a69 50385F31 		.ascii	"P8_1_CSD_CSD_TX_N\000"
 9669      5F435344 
 9669      5F435344 
 9669      5F54585F 
 9669      4E00
 9670              	.LASF1168:
 9671 5a7b 5031315F 		.ascii	"P11_7_DSI_GPIO\000"
 9671      375F4453 
 9671      495F4750 
 9671      494F00
 9672              	.LASF585:
 9673 5a8a 50375F33 		.ascii	"P7_3_TCPWM0_LINE_COMPL5\000"
 9673      5F544350 
 9673      574D305F 
 9673      4C494E45 
 9673      5F434F4D 
 9674              	.LASF764:
 9675 5aa2 50385F36 		.ascii	"P8_6_DSI_GPIO\000"
 9675      5F445349 
 9675      5F475049 
 9675      4F00
 9676              	.LASF212:
 9677 5ab0 50315F33 		.ascii	"P1_3_CSD_CSD_TX\000"
 9677      5F435344 
 9677      5F435344 
 9677      5F545800 
 9678              	.LASF848:
 9679 5ac0 50395F33 		.ascii	"P9_3_GPIO\000"
 9679      5F475049 
 9679      4F00
 9680              	.LASF579:
 9681 5aca 50375F33 		.ascii	"P7_3_DSI_DSI\000"
ARM GAS  C:\Users\ikomb\AppData\Local\Temp\ccAzoKUN.s 			page 286


 9681      5F445349 
 9681      5F445349 
 9681      00
 9682              	.LASF289:
 9683 5ad7 50355F32 		.ascii	"P5_2_DSI_GPIO\000"
 9683      5F445349 
 9683      5F475049 
 9683      4F00
 9684              	.LASF767:
 9685 5ae5 50385F36 		.ascii	"P8_6_AMUXA_DSI\000"
 9685      5F414D55 
 9685      58415F44 
 9685      534900
 9686              	.LASF1145:
 9687 5af4 5031315F 		.ascii	"P11_5_CSD_CSD_TX\000"
 9687      355F4353 
 9687      445F4353 
 9687      445F5458 
 9687      00
 9688              	.LASF0:
 9689 5b05 756E7369 		.ascii	"unsigned int\000"
 9689      676E6564 
 9689      20696E74 
 9689      00
 9690              	.LASF740:
 9691 5b12 50385F34 		.ascii	"P8_4_TCPWM1_LINE18\000"
 9691      5F544350 
 9691      574D315F 
 9691      4C494E45 
 9691      313800
 9692              	.LASF18:
 9693 5b25 4853494F 		.ascii	"HSIOM_SEL_DSI_GPIO\000"
 9693      4D5F5345 
 9693      4C5F4453 
 9693      495F4750 
 9693      494F00
 9694              	.LASF1174:
 9695 5b38 5031325F 		.ascii	"P12_0_GPIO\000"
 9695      305F4750 
 9695      494F00
 9696              	.LASF346:
 9697 5b43 50355F35 		.ascii	"P5_5_CSD_CSD_TX\000"
 9697      5F435344 
 9697      5F435344 
 9697      5F545800 
 9698              	.LASF674:
 9699 5b53 50385F30 		.ascii	"P8_0_LCD_SEG54\000"
 9699      5F4C4344 
 9699      5F534547 
 9699      353400
 9700              		.ident	"GCC: (GNU Tools for ARM Embedded Processors) 5.4.1 20160609 (release) [ARM/embedded-5-bran
