ARM GAS  C:\Users\ikomb\AppData\Local\Temp\ccAzoKUN.s 			page 1


   1              		.syntax unified
   2              		.cpu cortex-m4
   3              		.eabi_attribute 27, 1
   4              		.fpu fpv4-sp-d16
   5              		.eabi_attribute 20, 1
   6              		.eabi_attribute 21, 1
   7              		.eabi_attribute 23, 3
   8              		.eabi_attribute 24, 1
   9              		.eabi_attribute 25, 1
  10              		.eabi_attribute 26, 1
  11              		.eabi_attribute 30, 6
  12              		.eabi_attribute 34, 1
  13              		.eabi_attribute 18, 4
  14              		.thumb
  15              		.syntax unified
  16              		.file	"cy_gpio.c"
  17              		.text
  18              	.Ltext0:
  19              		.cfi_sections	.debug_frame
  20              		.section	.rodata
  21              		.align	2
  22              	.LC0:
  23 0000 47656E65 		.ascii	"Generated_Source\\PSoC6\\pdl\\drivers\\peripheral\\"
  23      72617465 
  23      645F536F 
  23      75726365 
  23      5C50536F 
  24 002e 6770696F 		.ascii	"gpio\\cy_gpio.h\000"
  24      5C63795F 
  24      6770696F 
  24      2E6800
  25              		.section	.text.Cy_GPIO_SetHSIOM,"ax",%progbits
  26              		.align	2
  27              		.thumb
  28              		.thumb_func
  29              		.type	Cy_GPIO_SetHSIOM, %function
  30              	Cy_GPIO_SetHSIOM:
  31              	.LFB125:
  32              		.file 1 "Generated_Source\\PSoC6\\pdl\\drivers\\peripheral\\gpio\\cy_gpio.h"
   1:Generated_Source\PSoC6\pdl\drivers\peripheral\gpio/cy_gpio.h **** /***************************************************************************//**
   2:Generated_Source\PSoC6\pdl\drivers\peripheral\gpio/cy_gpio.h **** * \file cy_gpio.h
   3:Generated_Source\PSoC6\pdl\drivers\peripheral\gpio/cy_gpio.h **** * \version 1.10.1
   4:Generated_Source\PSoC6\pdl\drivers\peripheral\gpio/cy_gpio.h **** *
   5:Generated_Source\PSoC6\pdl\drivers\peripheral\gpio/cy_gpio.h **** * \brief
   6:Generated_Source\PSoC6\pdl\drivers\peripheral\gpio/cy_gpio.h **** * Provides an API declaration of the GPIO driver
   7:Generated_Source\PSoC6\pdl\drivers\peripheral\gpio/cy_gpio.h **** *
   8:Generated_Source\PSoC6\pdl\drivers\peripheral\gpio/cy_gpio.h **** ********************************************************************************
   9:Generated_Source\PSoC6\pdl\drivers\peripheral\gpio/cy_gpio.h **** * \copyright
  10:Generated_Source\PSoC6\pdl\drivers\peripheral\gpio/cy_gpio.h **** * Copyright 2016-2018, Cypress Semiconductor Corporation. All rights reserved.
  11:Generated_Source\PSoC6\pdl\drivers\peripheral\gpio/cy_gpio.h **** * You may use this file only in accordance with the license, terms, conditions,
  12:Generated_Source\PSoC6\pdl\drivers\peripheral\gpio/cy_gpio.h **** * disclaimers, and limitations in the end user license agreement accompanying
  13:Generated_Source\PSoC6\pdl\drivers\peripheral\gpio/cy_gpio.h **** * the software package with which this file was provided.
  14:Generated_Source\PSoC6\pdl\drivers\peripheral\gpio/cy_gpio.h **** *******************************************************************************/
  15:Generated_Source\PSoC6\pdl\drivers\peripheral\gpio/cy_gpio.h **** 
  16:Generated_Source\PSoC6\pdl\drivers\peripheral\gpio/cy_gpio.h **** /**
  17:Generated_Source\PSoC6\pdl\drivers\peripheral\gpio/cy_gpio.h **** * \defgroup group_gpio General Purpose Input Output (GPIO)
  18:Generated_Source\PSoC6\pdl\drivers\peripheral\gpio/cy_gpio.h **** * \{
ARM GAS  C:\Users\ikomb\AppData\Local\Temp\ccAzoKUN.s 			page 2


  19:Generated_Source\PSoC6\pdl\drivers\peripheral\gpio/cy_gpio.h **** * The GPIO driver provides an API to configure and access device Input/Output pins.
  20:Generated_Source\PSoC6\pdl\drivers\peripheral\gpio/cy_gpio.h **** * IO pins include all general purpose types such as GPIO, SIO, HSIO, AUXIO, and
  21:Generated_Source\PSoC6\pdl\drivers\peripheral\gpio/cy_gpio.h **** * their variants.
  22:Generated_Source\PSoC6\pdl\drivers\peripheral\gpio/cy_gpio.h **** *
  23:Generated_Source\PSoC6\pdl\drivers\peripheral\gpio/cy_gpio.h **** * Initialization can be performed either at the port level or by configuring the
  24:Generated_Source\PSoC6\pdl\drivers\peripheral\gpio/cy_gpio.h **** * individual pins. For efficient use of code space, port
  25:Generated_Source\PSoC6\pdl\drivers\peripheral\gpio/cy_gpio.h **** * configuration should be used in the field. Refer to the product device header files 
  26:Generated_Source\PSoC6\pdl\drivers\peripheral\gpio/cy_gpio.h **** * for the list of supported ports and pins.
  27:Generated_Source\PSoC6\pdl\drivers\peripheral\gpio/cy_gpio.h **** * 
  28:Generated_Source\PSoC6\pdl\drivers\peripheral\gpio/cy_gpio.h **** * - Single pin configuration is performed by using \ref Cy_GPIO_Pin_FastInit 
  29:Generated_Source\PSoC6\pdl\drivers\peripheral\gpio/cy_gpio.h **** *   (provide specific values) or \ref Cy_GPIO_Pin_Init (provide a filled
  30:Generated_Source\PSoC6\pdl\drivers\peripheral\gpio/cy_gpio.h **** *   cy_stc_gpio_pin_config_t structure).
  31:Generated_Source\PSoC6\pdl\drivers\peripheral\gpio/cy_gpio.h **** * - An entire port can be configured using \ref Cy_GPIO_Port_Init. Provide a filled 
  32:Generated_Source\PSoC6\pdl\drivers\peripheral\gpio/cy_gpio.h **** *   cy_stc_gpio_prt_config_t structure. The values in the structure are 
  33:Generated_Source\PSoC6\pdl\drivers\peripheral\gpio/cy_gpio.h **** *   bitfields representing the desired value for each pin in the port.
  34:Generated_Source\PSoC6\pdl\drivers\peripheral\gpio/cy_gpio.h **** * - Pin configuration and management is based on the port address and pin number.
  35:Generated_Source\PSoC6\pdl\drivers\peripheral\gpio/cy_gpio.h **** *   \ref Cy_GPIO_PortToAddr function can optionally be used to calculate the port
  36:Generated_Source\PSoC6\pdl\drivers\peripheral\gpio/cy_gpio.h **** *   address from the port number at run-time.
  37:Generated_Source\PSoC6\pdl\drivers\peripheral\gpio/cy_gpio.h **** *
  38:Generated_Source\PSoC6\pdl\drivers\peripheral\gpio/cy_gpio.h **** * Once the pin/port initialization is complete, each pin can be accessed by 
  39:Generated_Source\PSoC6\pdl\drivers\peripheral\gpio/cy_gpio.h **** * specifying the port (GPIO_PRT_Type) and the pin (0-7) in the provided API 
  40:Generated_Source\PSoC6\pdl\drivers\peripheral\gpio/cy_gpio.h **** * functions.
  41:Generated_Source\PSoC6\pdl\drivers\peripheral\gpio/cy_gpio.h **** *
  42:Generated_Source\PSoC6\pdl\drivers\peripheral\gpio/cy_gpio.h **** * \section group_gpio_configuration Configuration Considerations
  43:Generated_Source\PSoC6\pdl\drivers\peripheral\gpio/cy_gpio.h **** *
  44:Generated_Source\PSoC6\pdl\drivers\peripheral\gpio/cy_gpio.h **** * 1. Pin multiplexing is controlled through the High-Speed IO Matrix (HSIOM) selection.
  45:Generated_Source\PSoC6\pdl\drivers\peripheral\gpio/cy_gpio.h **** *    This allows the pin to connect to signal sources/sinks throughout the device,
  46:Generated_Source\PSoC6\pdl\drivers\peripheral\gpio/cy_gpio.h **** *    as defined by the pin HSIOM selection options (en_hsiom_sel_t).
  47:Generated_Source\PSoC6\pdl\drivers\peripheral\gpio/cy_gpio.h **** * 2. All pins are initialized to High-Z drive mode with HSIOM connected to CPU (SW
  48:Generated_Source\PSoC6\pdl\drivers\peripheral\gpio/cy_gpio.h **** *    control digital pin only) at Power-On-Reset(POR).
  49:Generated_Source\PSoC6\pdl\drivers\peripheral\gpio/cy_gpio.h **** * 3. Some API functions perform read-modify-write operations on shared port
  50:Generated_Source\PSoC6\pdl\drivers\peripheral\gpio/cy_gpio.h **** *    registers. These functions are not thread safe and care must be taken when
  51:Generated_Source\PSoC6\pdl\drivers\peripheral\gpio/cy_gpio.h **** *    called by the application.
  52:Generated_Source\PSoC6\pdl\drivers\peripheral\gpio/cy_gpio.h **** *
  53:Generated_Source\PSoC6\pdl\drivers\peripheral\gpio/cy_gpio.h **** * Multiple pins on a port can be updated using direct port register writes with an
  54:Generated_Source\PSoC6\pdl\drivers\peripheral\gpio/cy_gpio.h **** * appropriate port mask. An example is shown below, highlighting the different ways of 
  55:Generated_Source\PSoC6\pdl\drivers\peripheral\gpio/cy_gpio.h **** * configuring Port 1 pins using,
  56:Generated_Source\PSoC6\pdl\drivers\peripheral\gpio/cy_gpio.h **** * 
  57:Generated_Source\PSoC6\pdl\drivers\peripheral\gpio/cy_gpio.h **** * - Port output data register
  58:Generated_Source\PSoC6\pdl\drivers\peripheral\gpio/cy_gpio.h **** * - Port output data set register
  59:Generated_Source\PSoC6\pdl\drivers\peripheral\gpio/cy_gpio.h **** * - Port output data clear register
  60:Generated_Source\PSoC6\pdl\drivers\peripheral\gpio/cy_gpio.h **** *
  61:Generated_Source\PSoC6\pdl\drivers\peripheral\gpio/cy_gpio.h **** * \snippet gpio/gpio_v1_10_sut_01.cydsn/main_cm4.c Cy_GPIO_Snippet
  62:Generated_Source\PSoC6\pdl\drivers\peripheral\gpio/cy_gpio.h **** *
  63:Generated_Source\PSoC6\pdl\drivers\peripheral\gpio/cy_gpio.h **** * \section group_gpio_more_information More Information
  64:Generated_Source\PSoC6\pdl\drivers\peripheral\gpio/cy_gpio.h **** *
  65:Generated_Source\PSoC6\pdl\drivers\peripheral\gpio/cy_gpio.h **** * Refer to the technical reference manual (TRM) and the device datasheet.
  66:Generated_Source\PSoC6\pdl\drivers\peripheral\gpio/cy_gpio.h **** *
  67:Generated_Source\PSoC6\pdl\drivers\peripheral\gpio/cy_gpio.h **** * \section group_gpio_MISRA MISRA-C Compliance]
  68:Generated_Source\PSoC6\pdl\drivers\peripheral\gpio/cy_gpio.h **** * <table class="doxtable">
  69:Generated_Source\PSoC6\pdl\drivers\peripheral\gpio/cy_gpio.h **** *   <tr>
  70:Generated_Source\PSoC6\pdl\drivers\peripheral\gpio/cy_gpio.h **** *     <th>MISRA Rule</th>
  71:Generated_Source\PSoC6\pdl\drivers\peripheral\gpio/cy_gpio.h **** *     <th>Rule Class (Required/Advisory)</th>
  72:Generated_Source\PSoC6\pdl\drivers\peripheral\gpio/cy_gpio.h **** *     <th>Rule Description</th>
  73:Generated_Source\PSoC6\pdl\drivers\peripheral\gpio/cy_gpio.h **** *     <th>Description of Deviation(s)</th>
  74:Generated_Source\PSoC6\pdl\drivers\peripheral\gpio/cy_gpio.h **** *   </tr>
  75:Generated_Source\PSoC6\pdl\drivers\peripheral\gpio/cy_gpio.h **** *   <tr>
ARM GAS  C:\Users\ikomb\AppData\Local\Temp\ccAzoKUN.s 			page 3


  76:Generated_Source\PSoC6\pdl\drivers\peripheral\gpio/cy_gpio.h **** *     <td>16.7</td>
  77:Generated_Source\PSoC6\pdl\drivers\peripheral\gpio/cy_gpio.h **** *     <td>A</td>
  78:Generated_Source\PSoC6\pdl\drivers\peripheral\gpio/cy_gpio.h **** *     <td>A pointer parameter in a function prototype should be declared as pointer 
  79:Generated_Source\PSoC6\pdl\drivers\peripheral\gpio/cy_gpio.h **** *         to const if the pointer is not used to modify the addressed object.</td>
  80:Generated_Source\PSoC6\pdl\drivers\peripheral\gpio/cy_gpio.h **** *     <td>The objects pointed to by the base addresses of the GPIO port are not always modified.
  81:Generated_Source\PSoC6\pdl\drivers\peripheral\gpio/cy_gpio.h **** *         While a const qualifier can be used in select scenarios, it brings little benefit
  82:Generated_Source\PSoC6\pdl\drivers\peripheral\gpio/cy_gpio.h **** *         in adding this to the affected functions. </td>
  83:Generated_Source\PSoC6\pdl\drivers\peripheral\gpio/cy_gpio.h **** *   </tr>
  84:Generated_Source\PSoC6\pdl\drivers\peripheral\gpio/cy_gpio.h **** * </table>
  85:Generated_Source\PSoC6\pdl\drivers\peripheral\gpio/cy_gpio.h **** *
  86:Generated_Source\PSoC6\pdl\drivers\peripheral\gpio/cy_gpio.h **** * \section group_gpio_changelog Changelog
  87:Generated_Source\PSoC6\pdl\drivers\peripheral\gpio/cy_gpio.h **** * <table class="doxtable">
  88:Generated_Source\PSoC6\pdl\drivers\peripheral\gpio/cy_gpio.h **** *   <tr><th>Version</th><th>Changes</th><th>Reason for Change</th></tr>
  89:Generated_Source\PSoC6\pdl\drivers\peripheral\gpio/cy_gpio.h **** *   <tr>
  90:Generated_Source\PSoC6\pdl\drivers\peripheral\gpio/cy_gpio.h **** *     <td>1.10.1</td>
  91:Generated_Source\PSoC6\pdl\drivers\peripheral\gpio/cy_gpio.h **** *     <td>Updated description for the functions: \ref Cy_GPIO_GetInterruptStatus, 
  92:Generated_Source\PSoC6\pdl\drivers\peripheral\gpio/cy_gpio.h **** *         \ref Cy_GPIO_GetInterruptMask, \ref Cy_GPIO_GetInterruptStatusMasked.
  93:Generated_Source\PSoC6\pdl\drivers\peripheral\gpio/cy_gpio.h **** *         Minor documentation edits.
  94:Generated_Source\PSoC6\pdl\drivers\peripheral\gpio/cy_gpio.h **** *     </td>
  95:Generated_Source\PSoC6\pdl\drivers\peripheral\gpio/cy_gpio.h **** *     <td>Documentation update and clarification</td>
  96:Generated_Source\PSoC6\pdl\drivers\peripheral\gpio/cy_gpio.h **** *   </tr>
  97:Generated_Source\PSoC6\pdl\drivers\peripheral\gpio/cy_gpio.h **** *   <tr>
  98:Generated_Source\PSoC6\pdl\drivers\peripheral\gpio/cy_gpio.h **** *     <td>1.10</td>
  99:Generated_Source\PSoC6\pdl\drivers\peripheral\gpio/cy_gpio.h **** *     <td>Added input parameter validation to the API functions</td>
 100:Generated_Source\PSoC6\pdl\drivers\peripheral\gpio/cy_gpio.h **** *     <td></td>
 101:Generated_Source\PSoC6\pdl\drivers\peripheral\gpio/cy_gpio.h **** *   </tr>
 102:Generated_Source\PSoC6\pdl\drivers\peripheral\gpio/cy_gpio.h **** *   <tr>
 103:Generated_Source\PSoC6\pdl\drivers\peripheral\gpio/cy_gpio.h **** *     <td>1.0</td>
 104:Generated_Source\PSoC6\pdl\drivers\peripheral\gpio/cy_gpio.h **** *     <td>Initial version</td>
 105:Generated_Source\PSoC6\pdl\drivers\peripheral\gpio/cy_gpio.h **** *     <td></td>
 106:Generated_Source\PSoC6\pdl\drivers\peripheral\gpio/cy_gpio.h **** *   </tr>
 107:Generated_Source\PSoC6\pdl\drivers\peripheral\gpio/cy_gpio.h **** * </table>
 108:Generated_Source\PSoC6\pdl\drivers\peripheral\gpio/cy_gpio.h **** *
 109:Generated_Source\PSoC6\pdl\drivers\peripheral\gpio/cy_gpio.h **** * \defgroup group_gpio_macros Macros
 110:Generated_Source\PSoC6\pdl\drivers\peripheral\gpio/cy_gpio.h **** * \defgroup group_gpio_functions Functions
 111:Generated_Source\PSoC6\pdl\drivers\peripheral\gpio/cy_gpio.h **** * \{
 112:Generated_Source\PSoC6\pdl\drivers\peripheral\gpio/cy_gpio.h **** *   \defgroup group_gpio_functions_init       Initialization Functions
 113:Generated_Source\PSoC6\pdl\drivers\peripheral\gpio/cy_gpio.h **** *   \defgroup group_gpio_functions_gpio       GPIO Functions
 114:Generated_Source\PSoC6\pdl\drivers\peripheral\gpio/cy_gpio.h **** *   \defgroup group_gpio_functions_sio        SIO Functions
 115:Generated_Source\PSoC6\pdl\drivers\peripheral\gpio/cy_gpio.h **** *   \defgroup group_gpio_functions_interrupt  Port Interrupt Functions
 116:Generated_Source\PSoC6\pdl\drivers\peripheral\gpio/cy_gpio.h **** * \}
 117:Generated_Source\PSoC6\pdl\drivers\peripheral\gpio/cy_gpio.h **** * \defgroup group_gpio_data_structures Data Structures
 118:Generated_Source\PSoC6\pdl\drivers\peripheral\gpio/cy_gpio.h **** * \defgroup group_gpio_enums Enumerated Types
 119:Generated_Source\PSoC6\pdl\drivers\peripheral\gpio/cy_gpio.h **** */
 120:Generated_Source\PSoC6\pdl\drivers\peripheral\gpio/cy_gpio.h **** 
 121:Generated_Source\PSoC6\pdl\drivers\peripheral\gpio/cy_gpio.h **** #if !defined(CY_GPIO_H)
 122:Generated_Source\PSoC6\pdl\drivers\peripheral\gpio/cy_gpio.h **** #define CY_GPIO_H
 123:Generated_Source\PSoC6\pdl\drivers\peripheral\gpio/cy_gpio.h **** 
 124:Generated_Source\PSoC6\pdl\drivers\peripheral\gpio/cy_gpio.h **** #include <stddef.h>
 125:Generated_Source\PSoC6\pdl\drivers\peripheral\gpio/cy_gpio.h **** #include "syslib/cy_syslib.h"
 126:Generated_Source\PSoC6\pdl\drivers\peripheral\gpio/cy_gpio.h **** #include "cy_device_headers.h"
 127:Generated_Source\PSoC6\pdl\drivers\peripheral\gpio/cy_gpio.h **** 
 128:Generated_Source\PSoC6\pdl\drivers\peripheral\gpio/cy_gpio.h **** #if defined(__cplusplus)
 129:Generated_Source\PSoC6\pdl\drivers\peripheral\gpio/cy_gpio.h **** extern "C" {
 130:Generated_Source\PSoC6\pdl\drivers\peripheral\gpio/cy_gpio.h **** #endif
 131:Generated_Source\PSoC6\pdl\drivers\peripheral\gpio/cy_gpio.h **** 
 132:Generated_Source\PSoC6\pdl\drivers\peripheral\gpio/cy_gpio.h **** /** \addtogroup group_gpio_macros
ARM GAS  C:\Users\ikomb\AppData\Local\Temp\ccAzoKUN.s 			page 4


 133:Generated_Source\PSoC6\pdl\drivers\peripheral\gpio/cy_gpio.h **** * \{
 134:Generated_Source\PSoC6\pdl\drivers\peripheral\gpio/cy_gpio.h **** */
 135:Generated_Source\PSoC6\pdl\drivers\peripheral\gpio/cy_gpio.h **** 
 136:Generated_Source\PSoC6\pdl\drivers\peripheral\gpio/cy_gpio.h **** /** Driver major version */
 137:Generated_Source\PSoC6\pdl\drivers\peripheral\gpio/cy_gpio.h **** #define CY_GPIO_DRV_VERSION_MAJOR       1
 138:Generated_Source\PSoC6\pdl\drivers\peripheral\gpio/cy_gpio.h **** 
 139:Generated_Source\PSoC6\pdl\drivers\peripheral\gpio/cy_gpio.h **** /** Driver minor version */
 140:Generated_Source\PSoC6\pdl\drivers\peripheral\gpio/cy_gpio.h **** #define CY_GPIO_DRV_VERSION_MINOR       10
 141:Generated_Source\PSoC6\pdl\drivers\peripheral\gpio/cy_gpio.h **** 
 142:Generated_Source\PSoC6\pdl\drivers\peripheral\gpio/cy_gpio.h **** /** GPIO driver ID */
 143:Generated_Source\PSoC6\pdl\drivers\peripheral\gpio/cy_gpio.h **** #define CY_GPIO_ID CY_PDL_DRV_ID(0x16u)
 144:Generated_Source\PSoC6\pdl\drivers\peripheral\gpio/cy_gpio.h **** 
 145:Generated_Source\PSoC6\pdl\drivers\peripheral\gpio/cy_gpio.h **** /** \} group_gpio_macros */
 146:Generated_Source\PSoC6\pdl\drivers\peripheral\gpio/cy_gpio.h **** 
 147:Generated_Source\PSoC6\pdl\drivers\peripheral\gpio/cy_gpio.h **** 
 148:Generated_Source\PSoC6\pdl\drivers\peripheral\gpio/cy_gpio.h **** /***************************************
 149:Generated_Source\PSoC6\pdl\drivers\peripheral\gpio/cy_gpio.h **** *       Enumerations
 150:Generated_Source\PSoC6\pdl\drivers\peripheral\gpio/cy_gpio.h **** ***************************************/
 151:Generated_Source\PSoC6\pdl\drivers\peripheral\gpio/cy_gpio.h **** /**
 152:Generated_Source\PSoC6\pdl\drivers\peripheral\gpio/cy_gpio.h **** * \addtogroup group_gpio_enums
 153:Generated_Source\PSoC6\pdl\drivers\peripheral\gpio/cy_gpio.h **** * \{
 154:Generated_Source\PSoC6\pdl\drivers\peripheral\gpio/cy_gpio.h **** */
 155:Generated_Source\PSoC6\pdl\drivers\peripheral\gpio/cy_gpio.h **** 
 156:Generated_Source\PSoC6\pdl\drivers\peripheral\gpio/cy_gpio.h **** /**
 157:Generated_Source\PSoC6\pdl\drivers\peripheral\gpio/cy_gpio.h **** * GPIO Driver error codes
 158:Generated_Source\PSoC6\pdl\drivers\peripheral\gpio/cy_gpio.h **** */
 159:Generated_Source\PSoC6\pdl\drivers\peripheral\gpio/cy_gpio.h **** typedef enum 
 160:Generated_Source\PSoC6\pdl\drivers\peripheral\gpio/cy_gpio.h **** {
 161:Generated_Source\PSoC6\pdl\drivers\peripheral\gpio/cy_gpio.h ****     CY_GPIO_SUCCESS   = 0x00u,                                    /**< Returned successful */
 162:Generated_Source\PSoC6\pdl\drivers\peripheral\gpio/cy_gpio.h ****     CY_GPIO_BAD_PARAM = CY_GPIO_ID | CY_PDL_STATUS_ERROR | 0x01u, /**< Bad parameter was passed */
 163:Generated_Source\PSoC6\pdl\drivers\peripheral\gpio/cy_gpio.h **** } cy_en_gpio_status_t;
 164:Generated_Source\PSoC6\pdl\drivers\peripheral\gpio/cy_gpio.h **** 
 165:Generated_Source\PSoC6\pdl\drivers\peripheral\gpio/cy_gpio.h **** /** \} group_gpio_enums */
 166:Generated_Source\PSoC6\pdl\drivers\peripheral\gpio/cy_gpio.h **** 
 167:Generated_Source\PSoC6\pdl\drivers\peripheral\gpio/cy_gpio.h **** 
 168:Generated_Source\PSoC6\pdl\drivers\peripheral\gpio/cy_gpio.h **** /***************************************
 169:Generated_Source\PSoC6\pdl\drivers\peripheral\gpio/cy_gpio.h **** *       Configuration Structures
 170:Generated_Source\PSoC6\pdl\drivers\peripheral\gpio/cy_gpio.h **** ***************************************/
 171:Generated_Source\PSoC6\pdl\drivers\peripheral\gpio/cy_gpio.h **** 
 172:Generated_Source\PSoC6\pdl\drivers\peripheral\gpio/cy_gpio.h **** /**
 173:Generated_Source\PSoC6\pdl\drivers\peripheral\gpio/cy_gpio.h **** * \addtogroup group_gpio_data_structures
 174:Generated_Source\PSoC6\pdl\drivers\peripheral\gpio/cy_gpio.h **** * \{
 175:Generated_Source\PSoC6\pdl\drivers\peripheral\gpio/cy_gpio.h **** */
 176:Generated_Source\PSoC6\pdl\drivers\peripheral\gpio/cy_gpio.h **** 
 177:Generated_Source\PSoC6\pdl\drivers\peripheral\gpio/cy_gpio.h **** /** This structure is used to initialize a port of GPIO pins */
 178:Generated_Source\PSoC6\pdl\drivers\peripheral\gpio/cy_gpio.h **** typedef struct {
 179:Generated_Source\PSoC6\pdl\drivers\peripheral\gpio/cy_gpio.h ****     uint32_t out;           /**< Initial output data for the IO pins in the port */
 180:Generated_Source\PSoC6\pdl\drivers\peripheral\gpio/cy_gpio.h ****     uint32_t intrMask;      /**< Interrupt enable mask for the port interrupt */
 181:Generated_Source\PSoC6\pdl\drivers\peripheral\gpio/cy_gpio.h ****     uint32_t intrCfg;       /**< Port pin interrupt edge detection configuration */
 182:Generated_Source\PSoC6\pdl\drivers\peripheral\gpio/cy_gpio.h ****     uint32_t cfg;           /**< Port pin drive modes and input buffer enable configuration */
 183:Generated_Source\PSoC6\pdl\drivers\peripheral\gpio/cy_gpio.h ****     uint32_t cfgIn;         /**< Port pin input buffer configuration */
 184:Generated_Source\PSoC6\pdl\drivers\peripheral\gpio/cy_gpio.h ****     uint32_t cfgOut;        /**< Port pin output buffer configuration */
 185:Generated_Source\PSoC6\pdl\drivers\peripheral\gpio/cy_gpio.h ****     uint32_t cfgSIO;        /**< Port SIO pins configuration */
 186:Generated_Source\PSoC6\pdl\drivers\peripheral\gpio/cy_gpio.h ****     uint32_t sel0Active;    /**< HSIOM selection for port pins 0,1,2,3 */
 187:Generated_Source\PSoC6\pdl\drivers\peripheral\gpio/cy_gpio.h ****     uint32_t sel1Active;    /**< HSIOM selection for port pins 4,5,6,7 */
 188:Generated_Source\PSoC6\pdl\drivers\peripheral\gpio/cy_gpio.h **** } cy_stc_gpio_prt_config_t;
 189:Generated_Source\PSoC6\pdl\drivers\peripheral\gpio/cy_gpio.h **** 
ARM GAS  C:\Users\ikomb\AppData\Local\Temp\ccAzoKUN.s 			page 5


 190:Generated_Source\PSoC6\pdl\drivers\peripheral\gpio/cy_gpio.h **** /** This structure is used to initialize a single GPIO pin */
 191:Generated_Source\PSoC6\pdl\drivers\peripheral\gpio/cy_gpio.h **** typedef struct {
 192:Generated_Source\PSoC6\pdl\drivers\peripheral\gpio/cy_gpio.h ****     uint32_t outVal;         /**< Pin output state */
 193:Generated_Source\PSoC6\pdl\drivers\peripheral\gpio/cy_gpio.h ****     uint32_t driveMode;      /**< Drive mode */
 194:Generated_Source\PSoC6\pdl\drivers\peripheral\gpio/cy_gpio.h ****     en_hsiom_sel_t hsiom;   /**< HSIOM selection */
 195:Generated_Source\PSoC6\pdl\drivers\peripheral\gpio/cy_gpio.h ****     uint32_t intEdge;        /**< Interrupt Edge type */
 196:Generated_Source\PSoC6\pdl\drivers\peripheral\gpio/cy_gpio.h ****     uint32_t intMask;        /**< Interrupt enable mask */
 197:Generated_Source\PSoC6\pdl\drivers\peripheral\gpio/cy_gpio.h ****     uint32_t vtrip;          /**< Input buffer voltage trip type */
 198:Generated_Source\PSoC6\pdl\drivers\peripheral\gpio/cy_gpio.h ****     uint32_t slewRate;       /**< Output buffer slew rate */
 199:Generated_Source\PSoC6\pdl\drivers\peripheral\gpio/cy_gpio.h ****     uint32_t driveSel;       /**< Drive strength */
 200:Generated_Source\PSoC6\pdl\drivers\peripheral\gpio/cy_gpio.h ****     uint32_t vregEn;         /**< SIO pair output buffer mode */
 201:Generated_Source\PSoC6\pdl\drivers\peripheral\gpio/cy_gpio.h ****     uint32_t ibufMode;       /**< SIO pair input buffer mode */
 202:Generated_Source\PSoC6\pdl\drivers\peripheral\gpio/cy_gpio.h ****     uint32_t vtripSel;       /**< SIO pair input buffer trip point */
 203:Generated_Source\PSoC6\pdl\drivers\peripheral\gpio/cy_gpio.h ****     uint32_t vrefSel;        /**< SIO pair reference voltage for input buffer trip point */
 204:Generated_Source\PSoC6\pdl\drivers\peripheral\gpio/cy_gpio.h ****     uint32_t vohSel;         /**< SIO pair regulated voltage output level */
 205:Generated_Source\PSoC6\pdl\drivers\peripheral\gpio/cy_gpio.h **** } cy_stc_gpio_pin_config_t;
 206:Generated_Source\PSoC6\pdl\drivers\peripheral\gpio/cy_gpio.h **** 
 207:Generated_Source\PSoC6\pdl\drivers\peripheral\gpio/cy_gpio.h **** /** \} group_gpio_data_structures */
 208:Generated_Source\PSoC6\pdl\drivers\peripheral\gpio/cy_gpio.h **** 
 209:Generated_Source\PSoC6\pdl\drivers\peripheral\gpio/cy_gpio.h **** /***************************************
 210:Generated_Source\PSoC6\pdl\drivers\peripheral\gpio/cy_gpio.h **** *        Constants
 211:Generated_Source\PSoC6\pdl\drivers\peripheral\gpio/cy_gpio.h **** ***************************************/
 212:Generated_Source\PSoC6\pdl\drivers\peripheral\gpio/cy_gpio.h **** 
 213:Generated_Source\PSoC6\pdl\drivers\peripheral\gpio/cy_gpio.h **** /** \cond INTERNAL */
 214:Generated_Source\PSoC6\pdl\drivers\peripheral\gpio/cy_gpio.h **** 
 215:Generated_Source\PSoC6\pdl\drivers\peripheral\gpio/cy_gpio.h **** /* General Constants */
 216:Generated_Source\PSoC6\pdl\drivers\peripheral\gpio/cy_gpio.h **** #define CY_GPIO_PRT_HALF                       (4UL)      /**< Half-way point of a GPIO port */
 217:Generated_Source\PSoC6\pdl\drivers\peripheral\gpio/cy_gpio.h **** #define CY_GPIO_PRT_DEINIT                     (0UL)      /**< De-init value for port registers */
 218:Generated_Source\PSoC6\pdl\drivers\peripheral\gpio/cy_gpio.h **** 
 219:Generated_Source\PSoC6\pdl\drivers\peripheral\gpio/cy_gpio.h **** /* GPIO Masks */
 220:Generated_Source\PSoC6\pdl\drivers\peripheral\gpio/cy_gpio.h **** #define CY_GPIO_HSIOM_MASK                     (0x1FUL)   /**< HSIOM selection mask */
 221:Generated_Source\PSoC6\pdl\drivers\peripheral\gpio/cy_gpio.h **** #define CY_GPIO_OUT_MASK                       (0x01UL)   /**< Single pin mask for OUT register */
 222:Generated_Source\PSoC6\pdl\drivers\peripheral\gpio/cy_gpio.h **** #define CY_GPIO_IN_MASK                        (0x01UL)   /**< Single pin mask for IN register */
 223:Generated_Source\PSoC6\pdl\drivers\peripheral\gpio/cy_gpio.h **** #define CY_GPIO_CFG_DM_MASK                    (0x0FUL)   /**< Single pin mask for drive mode in CF
 224:Generated_Source\PSoC6\pdl\drivers\peripheral\gpio/cy_gpio.h **** #define CY_GPIO_CFG_IN_VTRIP_SEL_MASK          (0x01UL)   /**< Single pin mask for VTRIP selection 
 225:Generated_Source\PSoC6\pdl\drivers\peripheral\gpio/cy_gpio.h **** #define CY_GPIO_CFG_OUT_SLOW_MASK              (0x01UL)   /**< Single pin mask for slew rate in CFG
 226:Generated_Source\PSoC6\pdl\drivers\peripheral\gpio/cy_gpio.h **** #define CY_GPIO_CFG_OUT_DRIVE_SEL_MASK         (0x03UL)   /**< Single pin mask for drive strength i
 227:Generated_Source\PSoC6\pdl\drivers\peripheral\gpio/cy_gpio.h **** #define CY_GPIO_INTR_STATUS_MASK               (0x01UL)   /**< Single pin mask for interrupt status
 228:Generated_Source\PSoC6\pdl\drivers\peripheral\gpio/cy_gpio.h **** #define CY_GPIO_INTR_EN_MASK                   (0x01UL)   /**< Single pin mask for interrupt status
 229:Generated_Source\PSoC6\pdl\drivers\peripheral\gpio/cy_gpio.h **** #define CY_GPIO_INTR_MASKED_MASK               (0x01UL)   /**< Single pin mask for masked interrupt
 230:Generated_Source\PSoC6\pdl\drivers\peripheral\gpio/cy_gpio.h **** #define CY_GPIO_INTR_SET_MASK                  (0x01UL)   /**< Single pin mask for setting the inte
 231:Generated_Source\PSoC6\pdl\drivers\peripheral\gpio/cy_gpio.h **** #define CY_GPIO_INTR_EDGE_MASK                 (0x03UL)   /**< Single pin mask for interrupt edge t
 232:Generated_Source\PSoC6\pdl\drivers\peripheral\gpio/cy_gpio.h **** #define CY_GPIO_INTR_FLT_EDGE_MASK             (0x07UL)   /**< Single pin mask for setting filtered
 233:Generated_Source\PSoC6\pdl\drivers\peripheral\gpio/cy_gpio.h **** 
 234:Generated_Source\PSoC6\pdl\drivers\peripheral\gpio/cy_gpio.h **** /* SIO Masks */
 235:Generated_Source\PSoC6\pdl\drivers\peripheral\gpio/cy_gpio.h **** #define CY_GPIO_VREG_EN_MASK                   (0x01UL)   /**< Single SIO pin mask for voltage regu
 236:Generated_Source\PSoC6\pdl\drivers\peripheral\gpio/cy_gpio.h **** #define CY_GPIO_IBUF_MASK                      (0x01UL)   /**< Single SIO pin mask for input buffer
 237:Generated_Source\PSoC6\pdl\drivers\peripheral\gpio/cy_gpio.h **** #define CY_GPIO_IBUF_SHIFT                     (0x01UL)   /**< Single SIO pin shift for input buffe
 238:Generated_Source\PSoC6\pdl\drivers\peripheral\gpio/cy_gpio.h **** #define CY_GPIO_VTRIP_SEL_MASK                 (0x01UL)   /**< Single SIO pin mask for the input bu
 239:Generated_Source\PSoC6\pdl\drivers\peripheral\gpio/cy_gpio.h **** #define CY_GPIO_VTRIP_SEL_SHIFT                (0x02UL)   /**< Single SIO pin shift for the input b
 240:Generated_Source\PSoC6\pdl\drivers\peripheral\gpio/cy_gpio.h **** #define CY_GPIO_VREF_SEL_MASK                  (0x03UL)   /**< Single SIO pin mask for voltage refe
 241:Generated_Source\PSoC6\pdl\drivers\peripheral\gpio/cy_gpio.h **** #define CY_GPIO_VREF_SEL_SHIFT                 (0x03UL)   /**< Single SIO pin shift for voltage ref
 242:Generated_Source\PSoC6\pdl\drivers\peripheral\gpio/cy_gpio.h **** #define CY_GPIO_VOH_SEL_MASK                   (0x07UL)   /**< Single SIO pin mask for VOH */
 243:Generated_Source\PSoC6\pdl\drivers\peripheral\gpio/cy_gpio.h **** #define CY_GPIO_VOH_SEL_SHIFT                  (0x05UL)   /**< Single SIO pin shift for VOH */
 244:Generated_Source\PSoC6\pdl\drivers\peripheral\gpio/cy_gpio.h **** 
 245:Generated_Source\PSoC6\pdl\drivers\peripheral\gpio/cy_gpio.h **** /* Special mask for SIO pin pair setting */
 246:Generated_Source\PSoC6\pdl\drivers\peripheral\gpio/cy_gpio.h **** #define CY_GPIO_SIO_ODD_PIN_MASK               (0x00FEUL) /**< SIO pin pair selection mask */
ARM GAS  C:\Users\ikomb\AppData\Local\Temp\ccAzoKUN.s 			page 6


 247:Generated_Source\PSoC6\pdl\drivers\peripheral\gpio/cy_gpio.h **** #define CY_GPIO_SIO_PIN_MASK                   (0x00FFUL) /**< SIO pin pair mask */
 248:Generated_Source\PSoC6\pdl\drivers\peripheral\gpio/cy_gpio.h **** 
 249:Generated_Source\PSoC6\pdl\drivers\peripheral\gpio/cy_gpio.h **** /* Offsets */
 250:Generated_Source\PSoC6\pdl\drivers\peripheral\gpio/cy_gpio.h **** #define CY_GPIO_HSIOM_OFFSET                   (3UL)      /**< Offset for HSIOM */
 251:Generated_Source\PSoC6\pdl\drivers\peripheral\gpio/cy_gpio.h **** #define CY_GPIO_DRIVE_MODE_OFFSET              (2UL)      /**< Offset for Drive mode */
 252:Generated_Source\PSoC6\pdl\drivers\peripheral\gpio/cy_gpio.h **** #define CY_GPIO_INBUF_OFFSET                   (3UL)      /**< Offset for input buffer */
 253:Generated_Source\PSoC6\pdl\drivers\peripheral\gpio/cy_gpio.h **** #define CY_GPIO_CFG_OUT_DRIVE_OFFSET           (16UL)     /**< Offset for drive strength */
 254:Generated_Source\PSoC6\pdl\drivers\peripheral\gpio/cy_gpio.h **** #define CY_GPIO_INTR_CFG_OFFSET                (1UL)      /**< Offset for interrupt config */
 255:Generated_Source\PSoC6\pdl\drivers\peripheral\gpio/cy_gpio.h **** #define CY_GPIO_INTR_FILT_OFFSET               (18UL)     /**< Offset for filtered interrupt config
 256:Generated_Source\PSoC6\pdl\drivers\peripheral\gpio/cy_gpio.h **** #define CY_GPIO_CFG_SIO_OFFSET                 (2UL)      /**< Offset for SIO config */
 257:Generated_Source\PSoC6\pdl\drivers\peripheral\gpio/cy_gpio.h **** 
 258:Generated_Source\PSoC6\pdl\drivers\peripheral\gpio/cy_gpio.h **** /* Parameter validation constants */
 259:Generated_Source\PSoC6\pdl\drivers\peripheral\gpio/cy_gpio.h **** #define CY_GPIO_PINS_MAX                       (8UL)      /**< Number of pins in the port */
 260:Generated_Source\PSoC6\pdl\drivers\peripheral\gpio/cy_gpio.h **** #define CY_GPIO_PRT_PINS_MASK                  (0x0000000FFUL)
 261:Generated_Source\PSoC6\pdl\drivers\peripheral\gpio/cy_gpio.h **** #define CY_GPIO_PRT_INTR_CFG_EDGE_SEL_MASK     (GPIO_PRT_INTR_CFG_EDGE0_SEL_Msk | \
 262:Generated_Source\PSoC6\pdl\drivers\peripheral\gpio/cy_gpio.h ****                                                 GPIO_PRT_INTR_CFG_EDGE1_SEL_Msk | \
 263:Generated_Source\PSoC6\pdl\drivers\peripheral\gpio/cy_gpio.h ****                                                 GPIO_PRT_INTR_CFG_EDGE2_SEL_Msk | \
 264:Generated_Source\PSoC6\pdl\drivers\peripheral\gpio/cy_gpio.h ****                                                 GPIO_PRT_INTR_CFG_EDGE3_SEL_Msk | \
 265:Generated_Source\PSoC6\pdl\drivers\peripheral\gpio/cy_gpio.h ****                                                 GPIO_PRT_INTR_CFG_EDGE4_SEL_Msk | \
 266:Generated_Source\PSoC6\pdl\drivers\peripheral\gpio/cy_gpio.h ****                                                 GPIO_PRT_INTR_CFG_EDGE5_SEL_Msk | \
 267:Generated_Source\PSoC6\pdl\drivers\peripheral\gpio/cy_gpio.h ****                                                 GPIO_PRT_INTR_CFG_EDGE6_SEL_Msk | \
 268:Generated_Source\PSoC6\pdl\drivers\peripheral\gpio/cy_gpio.h ****                                                 GPIO_PRT_INTR_CFG_EDGE7_SEL_Msk)            
 269:Generated_Source\PSoC6\pdl\drivers\peripheral\gpio/cy_gpio.h **** #define CY_GPIO_PRT_INTR_CFG_RANGE_MASK        (CY_GPIO_PRT_INTR_CFG_EDGE_SEL_MASK | \
 270:Generated_Source\PSoC6\pdl\drivers\peripheral\gpio/cy_gpio.h ****                                                 GPIO_PRT_INTR_CFG_FLT_EDGE_SEL_Msk | \
 271:Generated_Source\PSoC6\pdl\drivers\peripheral\gpio/cy_gpio.h ****                                                 GPIO_PRT_INTR_CFG_FLT_SEL_Msk)
 272:Generated_Source\PSoC6\pdl\drivers\peripheral\gpio/cy_gpio.h **** #define CY_GPIO_PRT_INT_MASK_MASK              (0x0000001FFUL)
 273:Generated_Source\PSoC6\pdl\drivers\peripheral\gpio/cy_gpio.h **** #define CY_GPIO_PRT_SEL_ACTIVE_MASK            (0x1FFFFFFFUL)
 274:Generated_Source\PSoC6\pdl\drivers\peripheral\gpio/cy_gpio.h **** 
 275:Generated_Source\PSoC6\pdl\drivers\peripheral\gpio/cy_gpio.h **** /* Parameter validation macros */
 276:Generated_Source\PSoC6\pdl\drivers\peripheral\gpio/cy_gpio.h **** #define CY_GPIO_IS_PIN_VALID(pinNum)           (CY_GPIO_PINS_MAX > (pinNum))
 277:Generated_Source\PSoC6\pdl\drivers\peripheral\gpio/cy_gpio.h **** #define CY_GPIO_IS_FILTER_PIN_VALID(pinNum)    (CY_GPIO_PINS_MAX >= (pinNum))
 278:Generated_Source\PSoC6\pdl\drivers\peripheral\gpio/cy_gpio.h **** #define CY_GPIO_IS_VALUE_VALID(outVal)         (1UL >= (outVal))
 279:Generated_Source\PSoC6\pdl\drivers\peripheral\gpio/cy_gpio.h **** #define CY_GPIO_IS_DM_VALID(driveMode)         (0U == ((driveMode) & (uint32_t)~CY_GPIO_CFG_DM_MASK
 280:Generated_Source\PSoC6\pdl\drivers\peripheral\gpio/cy_gpio.h **** 
 281:Generated_Source\PSoC6\pdl\drivers\peripheral\gpio/cy_gpio.h **** #define CY_GPIO_IS_HSIOM_VALID(hsiom)          (0U == ((hsiom) & (uint32_t)~CY_GPIO_HSIOM_MASK))
 282:Generated_Source\PSoC6\pdl\drivers\peripheral\gpio/cy_gpio.h **** 
 283:Generated_Source\PSoC6\pdl\drivers\peripheral\gpio/cy_gpio.h **** #define CY_GPIO_IS_INT_EDGE_VALID(intEdge)     ((CY_GPIO_INTR_DISABLE  == (intEdge)) || \
 284:Generated_Source\PSoC6\pdl\drivers\peripheral\gpio/cy_gpio.h ****                                                 (CY_GPIO_INTR_RISING   == (intEdge)) || \
 285:Generated_Source\PSoC6\pdl\drivers\peripheral\gpio/cy_gpio.h ****                                                 (CY_GPIO_INTR_FALLING  == (intEdge)) || \
 286:Generated_Source\PSoC6\pdl\drivers\peripheral\gpio/cy_gpio.h ****                                                 (CY_GPIO_INTR_BOTH     == (intEdge)))
 287:Generated_Source\PSoC6\pdl\drivers\peripheral\gpio/cy_gpio.h **** 
 288:Generated_Source\PSoC6\pdl\drivers\peripheral\gpio/cy_gpio.h **** #define CY_GPIO_IS_DRIVE_SEL_VALID(driveSel)   ((CY_GPIO_DRIVE_FULL    == (driveSel)) || \
 289:Generated_Source\PSoC6\pdl\drivers\peripheral\gpio/cy_gpio.h ****                                                 (CY_GPIO_DRIVE_1_2     == (driveSel)) || \
 290:Generated_Source\PSoC6\pdl\drivers\peripheral\gpio/cy_gpio.h ****                                                 (CY_GPIO_DRIVE_1_4     == (driveSel)) || \
 291:Generated_Source\PSoC6\pdl\drivers\peripheral\gpio/cy_gpio.h ****                                                 (CY_GPIO_DRIVE_1_8     == (driveSel)))
 292:Generated_Source\PSoC6\pdl\drivers\peripheral\gpio/cy_gpio.h **** 
 293:Generated_Source\PSoC6\pdl\drivers\peripheral\gpio/cy_gpio.h **** #define CY_GPIO_IS_VREF_SEL_VALID(vrefSel)     ((CY_SIO_VREF_PINREF    == (vrefSel)) || \
 294:Generated_Source\PSoC6\pdl\drivers\peripheral\gpio/cy_gpio.h ****                                                 (CY_SIO_VREF_1_2V      == (vrefSel)) || \
 295:Generated_Source\PSoC6\pdl\drivers\peripheral\gpio/cy_gpio.h ****                                                 (CY_SIO_VREF_AMUX_A    == (vrefSel)) || \
 296:Generated_Source\PSoC6\pdl\drivers\peripheral\gpio/cy_gpio.h ****                                                 (CY_SIO_VREF_AMUX_B    == (vrefSel)))
 297:Generated_Source\PSoC6\pdl\drivers\peripheral\gpio/cy_gpio.h **** 
 298:Generated_Source\PSoC6\pdl\drivers\peripheral\gpio/cy_gpio.h **** #define CY_GPIO_IS_VOH_SEL_VALID(vrefSel)      ((CY_SIO_VOH_1_00       == (vrefSel)) || \
 299:Generated_Source\PSoC6\pdl\drivers\peripheral\gpio/cy_gpio.h ****                                                 (CY_SIO_VOH_1_25       == (vrefSel)) || \
 300:Generated_Source\PSoC6\pdl\drivers\peripheral\gpio/cy_gpio.h ****                                                 (CY_SIO_VOH_1_49       == (vrefSel)) || \
 301:Generated_Source\PSoC6\pdl\drivers\peripheral\gpio/cy_gpio.h ****                                                 (CY_SIO_VOH_1_67       == (vrefSel)) || \
 302:Generated_Source\PSoC6\pdl\drivers\peripheral\gpio/cy_gpio.h ****                                                 (CY_SIO_VOH_2_08       == (vrefSel)) || \
 303:Generated_Source\PSoC6\pdl\drivers\peripheral\gpio/cy_gpio.h ****                                                 (CY_SIO_VOH_2_50       == (vrefSel)) || \
ARM GAS  C:\Users\ikomb\AppData\Local\Temp\ccAzoKUN.s 			page 7


 304:Generated_Source\PSoC6\pdl\drivers\peripheral\gpio/cy_gpio.h ****                                                 (CY_SIO_VOH_2_78       == (vrefSel)) || \
 305:Generated_Source\PSoC6\pdl\drivers\peripheral\gpio/cy_gpio.h ****                                                 (CY_SIO_VOH_4_16       == (vrefSel)))
 306:Generated_Source\PSoC6\pdl\drivers\peripheral\gpio/cy_gpio.h ****                    
 307:Generated_Source\PSoC6\pdl\drivers\peripheral\gpio/cy_gpio.h **** #define CY_GPIO_IS_PIN_BIT_VALID(pinBit)       (0U == ((pinBit) & (uint32_t)~CY_GPIO_PRT_PINS_MASK)
 308:Generated_Source\PSoC6\pdl\drivers\peripheral\gpio/cy_gpio.h **** #define CY_GPIO_IS_INTR_CFG_VALID(intrCfg)     (0U == ((intrCfg) & (uint32_t)~CY_GPIO_PRT_INTR_CFG_
 309:Generated_Source\PSoC6\pdl\drivers\peripheral\gpio/cy_gpio.h **** #define CY_GPIO_IS_INTR_MASK_VALID(intrMask)   (0U == ((intrMask) & (uint32_t)~CY_GPIO_PRT_INT_MASK
 310:Generated_Source\PSoC6\pdl\drivers\peripheral\gpio/cy_gpio.h **** #define CY_GPIO_IS_SEL_ACT_VALID(selActive)    (0U == ((selActive) & (uint32_t)~CY_GPIO_PRT_SEL_ACT
 311:Generated_Source\PSoC6\pdl\drivers\peripheral\gpio/cy_gpio.h **** 
 312:Generated_Source\PSoC6\pdl\drivers\peripheral\gpio/cy_gpio.h **** /** \endcond */
 313:Generated_Source\PSoC6\pdl\drivers\peripheral\gpio/cy_gpio.h **** 
 314:Generated_Source\PSoC6\pdl\drivers\peripheral\gpio/cy_gpio.h **** 
 315:Generated_Source\PSoC6\pdl\drivers\peripheral\gpio/cy_gpio.h **** /***************************************
 316:Generated_Source\PSoC6\pdl\drivers\peripheral\gpio/cy_gpio.h **** *        Function Constants
 317:Generated_Source\PSoC6\pdl\drivers\peripheral\gpio/cy_gpio.h **** ***************************************/
 318:Generated_Source\PSoC6\pdl\drivers\peripheral\gpio/cy_gpio.h **** 
 319:Generated_Source\PSoC6\pdl\drivers\peripheral\gpio/cy_gpio.h **** /**
 320:Generated_Source\PSoC6\pdl\drivers\peripheral\gpio/cy_gpio.h **** * \addtogroup group_gpio_macros
 321:Generated_Source\PSoC6\pdl\drivers\peripheral\gpio/cy_gpio.h **** * \{
 322:Generated_Source\PSoC6\pdl\drivers\peripheral\gpio/cy_gpio.h **** */
 323:Generated_Source\PSoC6\pdl\drivers\peripheral\gpio/cy_gpio.h **** 
 324:Generated_Source\PSoC6\pdl\drivers\peripheral\gpio/cy_gpio.h **** /**
 325:Generated_Source\PSoC6\pdl\drivers\peripheral\gpio/cy_gpio.h **** * \defgroup group_gpio_driveModes Pin drive mode
 326:Generated_Source\PSoC6\pdl\drivers\peripheral\gpio/cy_gpio.h **** * \{
 327:Generated_Source\PSoC6\pdl\drivers\peripheral\gpio/cy_gpio.h **** * Constants to be used for setting the drive mode of the pin.
 328:Generated_Source\PSoC6\pdl\drivers\peripheral\gpio/cy_gpio.h **** */
 329:Generated_Source\PSoC6\pdl\drivers\peripheral\gpio/cy_gpio.h **** #define CY_GPIO_DM_ANALOG                      (0x00UL) /**< \brief Analog High-Z. Input buffer off
 330:Generated_Source\PSoC6\pdl\drivers\peripheral\gpio/cy_gpio.h **** #define CY_GPIO_DM_PULLUP_IN_OFF               (0x02UL) /**< \brief Resistive Pull-Up. Input buffer
 331:Generated_Source\PSoC6\pdl\drivers\peripheral\gpio/cy_gpio.h **** #define CY_GPIO_DM_PULLDOWN_IN_OFF             (0x03UL) /**< \brief Resistive Pull-Down. Input buff
 332:Generated_Source\PSoC6\pdl\drivers\peripheral\gpio/cy_gpio.h **** #define CY_GPIO_DM_OD_DRIVESLOW_IN_OFF         (0x04UL) /**< \brief Open Drain, Drives Low. Input b
 333:Generated_Source\PSoC6\pdl\drivers\peripheral\gpio/cy_gpio.h **** #define CY_GPIO_DM_OD_DRIVESHIGH_IN_OFF        (0x05UL) /**< \brief Open Drain, Drives High. Input 
 334:Generated_Source\PSoC6\pdl\drivers\peripheral\gpio/cy_gpio.h **** #define CY_GPIO_DM_STRONG_IN_OFF               (0x06UL) /**< \brief Strong Drive. Input buffer off 
 335:Generated_Source\PSoC6\pdl\drivers\peripheral\gpio/cy_gpio.h **** #define CY_GPIO_DM_PULLUP_DOWN_IN_OFF          (0x07UL) /**< \brief Resistive Pull-Up/Down. Input b
 336:Generated_Source\PSoC6\pdl\drivers\peripheral\gpio/cy_gpio.h **** #define CY_GPIO_DM_HIGHZ                       (0x08UL) /**< \brief Digital High-Z. Input buffer on
 337:Generated_Source\PSoC6\pdl\drivers\peripheral\gpio/cy_gpio.h **** #define CY_GPIO_DM_PULLUP                      (0x0AUL) /**< \brief Resistive Pull-Up. Input buffer
 338:Generated_Source\PSoC6\pdl\drivers\peripheral\gpio/cy_gpio.h **** #define CY_GPIO_DM_PULLDOWN                    (0x0BUL) /**< \brief Resistive Pull-Down. Input buff
 339:Generated_Source\PSoC6\pdl\drivers\peripheral\gpio/cy_gpio.h **** #define CY_GPIO_DM_OD_DRIVESLOW                (0x0CUL) /**< \brief Open Drain, Drives Low. Input b
 340:Generated_Source\PSoC6\pdl\drivers\peripheral\gpio/cy_gpio.h **** #define CY_GPIO_DM_OD_DRIVESHIGH               (0x0DUL) /**< \brief Open Drain, Drives High. Input 
 341:Generated_Source\PSoC6\pdl\drivers\peripheral\gpio/cy_gpio.h **** #define CY_GPIO_DM_STRONG                      (0x0EUL) /**< \brief Strong Drive. Input buffer on *
 342:Generated_Source\PSoC6\pdl\drivers\peripheral\gpio/cy_gpio.h **** #define CY_GPIO_DM_PULLUP_DOWN                 (0x0FUL) /**< \brief Resistive Pull-Up/Down. Input b
 343:Generated_Source\PSoC6\pdl\drivers\peripheral\gpio/cy_gpio.h **** /** \} */
 344:Generated_Source\PSoC6\pdl\drivers\peripheral\gpio/cy_gpio.h **** 
 345:Generated_Source\PSoC6\pdl\drivers\peripheral\gpio/cy_gpio.h **** /**
 346:Generated_Source\PSoC6\pdl\drivers\peripheral\gpio/cy_gpio.h **** * \defgroup group_gpio_vtrip Voltage trip mode
 347:Generated_Source\PSoC6\pdl\drivers\peripheral\gpio/cy_gpio.h **** * \{
 348:Generated_Source\PSoC6\pdl\drivers\peripheral\gpio/cy_gpio.h **** * Constants to be used for setting the voltage trip type on the pin.
 349:Generated_Source\PSoC6\pdl\drivers\peripheral\gpio/cy_gpio.h **** */
 350:Generated_Source\PSoC6\pdl\drivers\peripheral\gpio/cy_gpio.h **** #define CY_GPIO_VTRIP_CMOS                     (0x00UL) /**< \brief Input buffer compatible with CM
 351:Generated_Source\PSoC6\pdl\drivers\peripheral\gpio/cy_gpio.h **** #define CY_GPIO_VTRIP_TTL                      (0x01UL) /**< \brief Input buffer compatible with TT
 352:Generated_Source\PSoC6\pdl\drivers\peripheral\gpio/cy_gpio.h **** /** \} */
 353:Generated_Source\PSoC6\pdl\drivers\peripheral\gpio/cy_gpio.h **** 
 354:Generated_Source\PSoC6\pdl\drivers\peripheral\gpio/cy_gpio.h **** /**
 355:Generated_Source\PSoC6\pdl\drivers\peripheral\gpio/cy_gpio.h **** * \defgroup group_gpio_slewRate Slew Rate Mode
 356:Generated_Source\PSoC6\pdl\drivers\peripheral\gpio/cy_gpio.h **** * \{
 357:Generated_Source\PSoC6\pdl\drivers\peripheral\gpio/cy_gpio.h **** * Constants to be used for setting the slew rate of the pin.
 358:Generated_Source\PSoC6\pdl\drivers\peripheral\gpio/cy_gpio.h **** */
 359:Generated_Source\PSoC6\pdl\drivers\peripheral\gpio/cy_gpio.h **** #define CY_GPIO_SLEW_FAST                      (0x00UL) /**< \brief Fast slew rate */
 360:Generated_Source\PSoC6\pdl\drivers\peripheral\gpio/cy_gpio.h **** #define CY_GPIO_SLEW_SLOW                      (0x01UL) /**< \brief Slow slew rate */
ARM GAS  C:\Users\ikomb\AppData\Local\Temp\ccAzoKUN.s 			page 8


 361:Generated_Source\PSoC6\pdl\drivers\peripheral\gpio/cy_gpio.h **** /** \} */
 362:Generated_Source\PSoC6\pdl\drivers\peripheral\gpio/cy_gpio.h **** 
 363:Generated_Source\PSoC6\pdl\drivers\peripheral\gpio/cy_gpio.h **** /**
 364:Generated_Source\PSoC6\pdl\drivers\peripheral\gpio/cy_gpio.h **** * \defgroup group_gpio_driveStrength Pin drive strength
 365:Generated_Source\PSoC6\pdl\drivers\peripheral\gpio/cy_gpio.h **** * \{
 366:Generated_Source\PSoC6\pdl\drivers\peripheral\gpio/cy_gpio.h **** * Constants to be used for setting the drive strength of the pin.
 367:Generated_Source\PSoC6\pdl\drivers\peripheral\gpio/cy_gpio.h **** */
 368:Generated_Source\PSoC6\pdl\drivers\peripheral\gpio/cy_gpio.h **** #define CY_GPIO_DRIVE_FULL                     (0x00UL) /**< \brief Full drive strength: Max drive 
 369:Generated_Source\PSoC6\pdl\drivers\peripheral\gpio/cy_gpio.h **** #define CY_GPIO_DRIVE_1_2                      (0x01UL) /**< \brief 1/2 drive strength: 1/2 drive c
 370:Generated_Source\PSoC6\pdl\drivers\peripheral\gpio/cy_gpio.h **** #define CY_GPIO_DRIVE_1_4                      (0x02UL) /**< \brief 1/4 drive strength: 1/4 drive c
 371:Generated_Source\PSoC6\pdl\drivers\peripheral\gpio/cy_gpio.h **** #define CY_GPIO_DRIVE_1_8                      (0x03UL) /**< \brief 1/8 drive strength: 1/8 drive c
 372:Generated_Source\PSoC6\pdl\drivers\peripheral\gpio/cy_gpio.h **** /** \} */
 373:Generated_Source\PSoC6\pdl\drivers\peripheral\gpio/cy_gpio.h **** 
 374:Generated_Source\PSoC6\pdl\drivers\peripheral\gpio/cy_gpio.h **** /**
 375:Generated_Source\PSoC6\pdl\drivers\peripheral\gpio/cy_gpio.h **** * \defgroup group_gpio_interruptTrigger Interrupt trigger type
 376:Generated_Source\PSoC6\pdl\drivers\peripheral\gpio/cy_gpio.h **** * \{
 377:Generated_Source\PSoC6\pdl\drivers\peripheral\gpio/cy_gpio.h **** * Constants to be used for setting the interrupt trigger type on the pin.
 378:Generated_Source\PSoC6\pdl\drivers\peripheral\gpio/cy_gpio.h **** */
 379:Generated_Source\PSoC6\pdl\drivers\peripheral\gpio/cy_gpio.h **** #define CY_GPIO_INTR_DISABLE                   (0x00UL) /**< \brief Disable the pin interrupt gener
 380:Generated_Source\PSoC6\pdl\drivers\peripheral\gpio/cy_gpio.h **** #define CY_GPIO_INTR_RISING                    (0x01UL) /**< \brief Rising-Edge interrupt */
 381:Generated_Source\PSoC6\pdl\drivers\peripheral\gpio/cy_gpio.h **** #define CY_GPIO_INTR_FALLING                   (0x02UL) /**< \brief Falling-Edge interrupt */
 382:Generated_Source\PSoC6\pdl\drivers\peripheral\gpio/cy_gpio.h **** #define CY_GPIO_INTR_BOTH                      (0x03UL) /**< \brief Both-Edge interrupt */
 383:Generated_Source\PSoC6\pdl\drivers\peripheral\gpio/cy_gpio.h **** /** \} */
 384:Generated_Source\PSoC6\pdl\drivers\peripheral\gpio/cy_gpio.h **** 
 385:Generated_Source\PSoC6\pdl\drivers\peripheral\gpio/cy_gpio.h **** /**
 386:Generated_Source\PSoC6\pdl\drivers\peripheral\gpio/cy_gpio.h **** * \defgroup group_gpio_sioVreg SIO output buffer mode
 387:Generated_Source\PSoC6\pdl\drivers\peripheral\gpio/cy_gpio.h **** * \{
 388:Generated_Source\PSoC6\pdl\drivers\peripheral\gpio/cy_gpio.h **** * Constants to be used for setting the SIO output buffer mode on the pin.
 389:Generated_Source\PSoC6\pdl\drivers\peripheral\gpio/cy_gpio.h **** */
 390:Generated_Source\PSoC6\pdl\drivers\peripheral\gpio/cy_gpio.h **** #define CY_SIO_VREG_UNREGULATED                (0x00UL) /**< \brief Unregulated output buffer */
 391:Generated_Source\PSoC6\pdl\drivers\peripheral\gpio/cy_gpio.h **** #define CY_SIO_VREG_REGULATED                  (0x01UL) /**< \brief Regulated output buffer */
 392:Generated_Source\PSoC6\pdl\drivers\peripheral\gpio/cy_gpio.h **** /** \} */
 393:Generated_Source\PSoC6\pdl\drivers\peripheral\gpio/cy_gpio.h **** 
 394:Generated_Source\PSoC6\pdl\drivers\peripheral\gpio/cy_gpio.h **** /**
 395:Generated_Source\PSoC6\pdl\drivers\peripheral\gpio/cy_gpio.h **** * \defgroup group_gpio_sioIbuf SIO input buffer mode
 396:Generated_Source\PSoC6\pdl\drivers\peripheral\gpio/cy_gpio.h **** * \{
 397:Generated_Source\PSoC6\pdl\drivers\peripheral\gpio/cy_gpio.h **** * Constants to be used for setting the SIO input buffer mode on the pin.
 398:Generated_Source\PSoC6\pdl\drivers\peripheral\gpio/cy_gpio.h **** */
 399:Generated_Source\PSoC6\pdl\drivers\peripheral\gpio/cy_gpio.h **** #define CY_SIO_IBUF_SINGLEENDED                (0x00UL) /**< \brief Single ended input buffer */
 400:Generated_Source\PSoC6\pdl\drivers\peripheral\gpio/cy_gpio.h **** #define CY_SIO_IBUF_DIFFERENTIAL               (0x01UL) /**< \brief Differential input buffer */
 401:Generated_Source\PSoC6\pdl\drivers\peripheral\gpio/cy_gpio.h **** /** \} */
 402:Generated_Source\PSoC6\pdl\drivers\peripheral\gpio/cy_gpio.h **** 
 403:Generated_Source\PSoC6\pdl\drivers\peripheral\gpio/cy_gpio.h **** /**
 404:Generated_Source\PSoC6\pdl\drivers\peripheral\gpio/cy_gpio.h **** * \defgroup group_gpio_sioVtrip SIO input buffer trip-point
 405:Generated_Source\PSoC6\pdl\drivers\peripheral\gpio/cy_gpio.h **** * \{
 406:Generated_Source\PSoC6\pdl\drivers\peripheral\gpio/cy_gpio.h **** * Constants to be used for setting the SIO input buffer trip-point of the pin.
 407:Generated_Source\PSoC6\pdl\drivers\peripheral\gpio/cy_gpio.h **** */
 408:Generated_Source\PSoC6\pdl\drivers\peripheral\gpio/cy_gpio.h **** #define CY_SIO_VTRIP_CMOS                      (0x00UL) /**< \brief CMOS input buffer (single-ended
 409:Generated_Source\PSoC6\pdl\drivers\peripheral\gpio/cy_gpio.h **** #define CY_SIO_VTRIP_TTL                       (0x01UL) /**< \brief TTL input buffer (single-ended)
 410:Generated_Source\PSoC6\pdl\drivers\peripheral\gpio/cy_gpio.h **** #define CY_SIO_VTRIP_0_5VDDIO_0_5VOH           (0x00UL) /**< \brief 0.5xVddio or 0.5xVoh (different
 411:Generated_Source\PSoC6\pdl\drivers\peripheral\gpio/cy_gpio.h **** #define CY_SIO_VTRIP_0_4VDDIO_1_0VREF          (0x01UL) /**< \brief 0.4xVddio or 0.4xVoh (different
 412:Generated_Source\PSoC6\pdl\drivers\peripheral\gpio/cy_gpio.h **** /** \} */
 413:Generated_Source\PSoC6\pdl\drivers\peripheral\gpio/cy_gpio.h **** 
 414:Generated_Source\PSoC6\pdl\drivers\peripheral\gpio/cy_gpio.h **** /**
 415:Generated_Source\PSoC6\pdl\drivers\peripheral\gpio/cy_gpio.h **** * \defgroup group_gpio_sioVref SIO reference voltage for input buffer trip-point
 416:Generated_Source\PSoC6\pdl\drivers\peripheral\gpio/cy_gpio.h **** * \{
 417:Generated_Source\PSoC6\pdl\drivers\peripheral\gpio/cy_gpio.h **** * Constants to be used for setting the reference voltage of SIO input buffer trip-point.
ARM GAS  C:\Users\ikomb\AppData\Local\Temp\ccAzoKUN.s 			page 9


 418:Generated_Source\PSoC6\pdl\drivers\peripheral\gpio/cy_gpio.h **** */
 419:Generated_Source\PSoC6\pdl\drivers\peripheral\gpio/cy_gpio.h **** #define CY_SIO_VREF_PINREF                     (0x00UL) /**< \brief Vref from analog pin */
 420:Generated_Source\PSoC6\pdl\drivers\peripheral\gpio/cy_gpio.h **** #define CY_SIO_VREF_1_2V                       (0x01UL) /**< \brief Vref from internal 1.2V referen
 421:Generated_Source\PSoC6\pdl\drivers\peripheral\gpio/cy_gpio.h **** #define CY_SIO_VREF_AMUX_A                     (0x02UL) /**< \brief Vref from AMUXBUS_A */
 422:Generated_Source\PSoC6\pdl\drivers\peripheral\gpio/cy_gpio.h **** #define CY_SIO_VREF_AMUX_B                     (0x03UL) /**< \brief Vref from AMUXBUS_B */
 423:Generated_Source\PSoC6\pdl\drivers\peripheral\gpio/cy_gpio.h **** /** \} */
 424:Generated_Source\PSoC6\pdl\drivers\peripheral\gpio/cy_gpio.h **** 
 425:Generated_Source\PSoC6\pdl\drivers\peripheral\gpio/cy_gpio.h **** /**
 426:Generated_Source\PSoC6\pdl\drivers\peripheral\gpio/cy_gpio.h **** * \defgroup group_gpio_sioVoh Regulated output voltage level (Voh) and input buffer trip-point of a
 427:Generated_Source\PSoC6\pdl\drivers\peripheral\gpio/cy_gpio.h **** * \{
 428:Generated_Source\PSoC6\pdl\drivers\peripheral\gpio/cy_gpio.h **** * Constants to be used for setting the Voh and input buffer trip-point of an SIO pair
 429:Generated_Source\PSoC6\pdl\drivers\peripheral\gpio/cy_gpio.h **** */
 430:Generated_Source\PSoC6\pdl\drivers\peripheral\gpio/cy_gpio.h **** #define CY_SIO_VOH_1_00                        (0x00UL) /**< \brief Voh = 1 x Reference */
 431:Generated_Source\PSoC6\pdl\drivers\peripheral\gpio/cy_gpio.h **** #define CY_SIO_VOH_1_25                        (0x01UL) /**< \brief Voh = 1.25 x Reference */
 432:Generated_Source\PSoC6\pdl\drivers\peripheral\gpio/cy_gpio.h **** #define CY_SIO_VOH_1_49                        (0x02UL) /**< \brief Voh = 1.49 x Reference */
 433:Generated_Source\PSoC6\pdl\drivers\peripheral\gpio/cy_gpio.h **** #define CY_SIO_VOH_1_67                        (0x03UL) /**< \brief Voh = 1.67 x Reference */
 434:Generated_Source\PSoC6\pdl\drivers\peripheral\gpio/cy_gpio.h **** #define CY_SIO_VOH_2_08                        (0x04UL) /**< \brief Voh = 2.08 x Reference */
 435:Generated_Source\PSoC6\pdl\drivers\peripheral\gpio/cy_gpio.h **** #define CY_SIO_VOH_2_50                        (0x05UL) /**< \brief Voh = 2.50 x Reference */
 436:Generated_Source\PSoC6\pdl\drivers\peripheral\gpio/cy_gpio.h **** #define CY_SIO_VOH_2_78                        (0x06UL) /**< \brief Voh = 2.78 x Reference */
 437:Generated_Source\PSoC6\pdl\drivers\peripheral\gpio/cy_gpio.h **** #define CY_SIO_VOH_4_16                        (0x07UL) /**< \brief Voh = 4.16 x Reference */
 438:Generated_Source\PSoC6\pdl\drivers\peripheral\gpio/cy_gpio.h **** /** \} */
 439:Generated_Source\PSoC6\pdl\drivers\peripheral\gpio/cy_gpio.h **** 
 440:Generated_Source\PSoC6\pdl\drivers\peripheral\gpio/cy_gpio.h **** /** \} group_gpio_macros */
 441:Generated_Source\PSoC6\pdl\drivers\peripheral\gpio/cy_gpio.h **** 
 442:Generated_Source\PSoC6\pdl\drivers\peripheral\gpio/cy_gpio.h **** /***************************************
 443:Generated_Source\PSoC6\pdl\drivers\peripheral\gpio/cy_gpio.h **** *        Function Prototypes
 444:Generated_Source\PSoC6\pdl\drivers\peripheral\gpio/cy_gpio.h **** ***************************************/
 445:Generated_Source\PSoC6\pdl\drivers\peripheral\gpio/cy_gpio.h **** 
 446:Generated_Source\PSoC6\pdl\drivers\peripheral\gpio/cy_gpio.h **** /**
 447:Generated_Source\PSoC6\pdl\drivers\peripheral\gpio/cy_gpio.h **** * \addtogroup group_gpio_functions
 448:Generated_Source\PSoC6\pdl\drivers\peripheral\gpio/cy_gpio.h **** * \{
 449:Generated_Source\PSoC6\pdl\drivers\peripheral\gpio/cy_gpio.h **** */
 450:Generated_Source\PSoC6\pdl\drivers\peripheral\gpio/cy_gpio.h **** 
 451:Generated_Source\PSoC6\pdl\drivers\peripheral\gpio/cy_gpio.h **** /**
 452:Generated_Source\PSoC6\pdl\drivers\peripheral\gpio/cy_gpio.h **** * \addtogroup group_gpio_functions_init
 453:Generated_Source\PSoC6\pdl\drivers\peripheral\gpio/cy_gpio.h **** * \{
 454:Generated_Source\PSoC6\pdl\drivers\peripheral\gpio/cy_gpio.h **** */
 455:Generated_Source\PSoC6\pdl\drivers\peripheral\gpio/cy_gpio.h **** 
 456:Generated_Source\PSoC6\pdl\drivers\peripheral\gpio/cy_gpio.h **** cy_en_gpio_status_t Cy_GPIO_Pin_Init(GPIO_PRT_Type* base, uint32_t pinNum, const cy_stc_gpio_pin_co
 457:Generated_Source\PSoC6\pdl\drivers\peripheral\gpio/cy_gpio.h **** cy_en_gpio_status_t Cy_GPIO_Port_Init(GPIO_PRT_Type* base, const cy_stc_gpio_prt_config_t *config);
 458:Generated_Source\PSoC6\pdl\drivers\peripheral\gpio/cy_gpio.h **** void Cy_GPIO_Pin_FastInit(GPIO_PRT_Type* base, uint32_t pinNum, uint32_t driveMode, uint32_t outVal
 459:Generated_Source\PSoC6\pdl\drivers\peripheral\gpio/cy_gpio.h **** void Cy_GPIO_Port_Deinit(GPIO_PRT_Type* base);
 460:Generated_Source\PSoC6\pdl\drivers\peripheral\gpio/cy_gpio.h **** __STATIC_INLINE void Cy_GPIO_SetHSIOM(GPIO_PRT_Type* base, uint32_t pinNum, en_hsiom_sel_t value);
 461:Generated_Source\PSoC6\pdl\drivers\peripheral\gpio/cy_gpio.h **** __STATIC_INLINE en_hsiom_sel_t Cy_GPIO_GetHSIOM(GPIO_PRT_Type* base, uint32_t pinNum);
 462:Generated_Source\PSoC6\pdl\drivers\peripheral\gpio/cy_gpio.h **** __STATIC_INLINE GPIO_PRT_Type* Cy_GPIO_PortToAddr(uint32_t portNum);
 463:Generated_Source\PSoC6\pdl\drivers\peripheral\gpio/cy_gpio.h **** 
 464:Generated_Source\PSoC6\pdl\drivers\peripheral\gpio/cy_gpio.h **** /** \} group_gpio_functions_init */
 465:Generated_Source\PSoC6\pdl\drivers\peripheral\gpio/cy_gpio.h **** 
 466:Generated_Source\PSoC6\pdl\drivers\peripheral\gpio/cy_gpio.h **** /**
 467:Generated_Source\PSoC6\pdl\drivers\peripheral\gpio/cy_gpio.h **** * \addtogroup group_gpio_functions_gpio
 468:Generated_Source\PSoC6\pdl\drivers\peripheral\gpio/cy_gpio.h **** * \{
 469:Generated_Source\PSoC6\pdl\drivers\peripheral\gpio/cy_gpio.h **** */
 470:Generated_Source\PSoC6\pdl\drivers\peripheral\gpio/cy_gpio.h **** 
 471:Generated_Source\PSoC6\pdl\drivers\peripheral\gpio/cy_gpio.h **** __STATIC_INLINE uint32_t Cy_GPIO_Read(GPIO_PRT_Type* base, uint32_t pinNum);
 472:Generated_Source\PSoC6\pdl\drivers\peripheral\gpio/cy_gpio.h **** __STATIC_INLINE void Cy_GPIO_Write(GPIO_PRT_Type* base, uint32_t pinNum, uint32_t value);
 473:Generated_Source\PSoC6\pdl\drivers\peripheral\gpio/cy_gpio.h **** __STATIC_INLINE uint32_t Cy_GPIO_ReadOut(GPIO_PRT_Type* base, uint32_t pinNum);
 474:Generated_Source\PSoC6\pdl\drivers\peripheral\gpio/cy_gpio.h **** __STATIC_INLINE void Cy_GPIO_Set(GPIO_PRT_Type* base, uint32_t pinNum);
ARM GAS  C:\Users\ikomb\AppData\Local\Temp\ccAzoKUN.s 			page 10


 475:Generated_Source\PSoC6\pdl\drivers\peripheral\gpio/cy_gpio.h **** __STATIC_INLINE void Cy_GPIO_Clr(GPIO_PRT_Type* base, uint32_t pinNum);
 476:Generated_Source\PSoC6\pdl\drivers\peripheral\gpio/cy_gpio.h **** __STATIC_INLINE void Cy_GPIO_Inv(GPIO_PRT_Type* base, uint32_t pinNum);
 477:Generated_Source\PSoC6\pdl\drivers\peripheral\gpio/cy_gpio.h **** __STATIC_INLINE void Cy_GPIO_SetDrivemode(GPIO_PRT_Type* base, uint32_t pinNum, uint32_t value);
 478:Generated_Source\PSoC6\pdl\drivers\peripheral\gpio/cy_gpio.h **** __STATIC_INLINE uint32_t Cy_GPIO_GetDrivemode(GPIO_PRT_Type* base, uint32_t pinNum);
 479:Generated_Source\PSoC6\pdl\drivers\peripheral\gpio/cy_gpio.h **** __STATIC_INLINE void Cy_GPIO_SetVtrip(GPIO_PRT_Type* base, uint32_t pinNum, uint32_t value);
 480:Generated_Source\PSoC6\pdl\drivers\peripheral\gpio/cy_gpio.h **** __STATIC_INLINE uint32_t Cy_GPIO_GetVtrip(GPIO_PRT_Type* base, uint32_t pinNum);
 481:Generated_Source\PSoC6\pdl\drivers\peripheral\gpio/cy_gpio.h **** __STATIC_INLINE void Cy_GPIO_SetSlewRate(GPIO_PRT_Type* base, uint32_t pinNum, uint32_t value);
 482:Generated_Source\PSoC6\pdl\drivers\peripheral\gpio/cy_gpio.h **** __STATIC_INLINE uint32_t Cy_GPIO_GetSlewRate(GPIO_PRT_Type* base, uint32_t pinNum);
 483:Generated_Source\PSoC6\pdl\drivers\peripheral\gpio/cy_gpio.h **** __STATIC_INLINE void Cy_GPIO_SetDriveSel(GPIO_PRT_Type* base, uint32_t pinNum, uint32_t value);
 484:Generated_Source\PSoC6\pdl\drivers\peripheral\gpio/cy_gpio.h **** __STATIC_INLINE uint32_t Cy_GPIO_GetDriveSel(GPIO_PRT_Type* base, uint32_t pinNum);
 485:Generated_Source\PSoC6\pdl\drivers\peripheral\gpio/cy_gpio.h **** 
 486:Generated_Source\PSoC6\pdl\drivers\peripheral\gpio/cy_gpio.h **** /** \} group_gpio_functions_gpio */
 487:Generated_Source\PSoC6\pdl\drivers\peripheral\gpio/cy_gpio.h **** 
 488:Generated_Source\PSoC6\pdl\drivers\peripheral\gpio/cy_gpio.h **** /**
 489:Generated_Source\PSoC6\pdl\drivers\peripheral\gpio/cy_gpio.h **** * \addtogroup group_gpio_functions_sio
 490:Generated_Source\PSoC6\pdl\drivers\peripheral\gpio/cy_gpio.h **** * \{
 491:Generated_Source\PSoC6\pdl\drivers\peripheral\gpio/cy_gpio.h **** */
 492:Generated_Source\PSoC6\pdl\drivers\peripheral\gpio/cy_gpio.h **** 
 493:Generated_Source\PSoC6\pdl\drivers\peripheral\gpio/cy_gpio.h **** __STATIC_INLINE void Cy_GPIO_SetVregEn(GPIO_PRT_Type* base, uint32_t pinNum, uint32_t value);
 494:Generated_Source\PSoC6\pdl\drivers\peripheral\gpio/cy_gpio.h **** __STATIC_INLINE uint32_t Cy_GPIO_GetVregEn(GPIO_PRT_Type* base, uint32_t pinNum);
 495:Generated_Source\PSoC6\pdl\drivers\peripheral\gpio/cy_gpio.h **** __STATIC_INLINE void Cy_GPIO_SetIbufMode(GPIO_PRT_Type* base, uint32_t pinNum, uint32_t value);
 496:Generated_Source\PSoC6\pdl\drivers\peripheral\gpio/cy_gpio.h **** __STATIC_INLINE uint32_t Cy_GPIO_GetIbufMode(GPIO_PRT_Type* base, uint32_t pinNum);
 497:Generated_Source\PSoC6\pdl\drivers\peripheral\gpio/cy_gpio.h **** __STATIC_INLINE void Cy_GPIO_SetVtripSel(GPIO_PRT_Type* base, uint32_t pinNum, uint32_t value);
 498:Generated_Source\PSoC6\pdl\drivers\peripheral\gpio/cy_gpio.h **** __STATIC_INLINE uint32_t Cy_GPIO_GetVtripSel(GPIO_PRT_Type* base, uint32_t pinNum);
 499:Generated_Source\PSoC6\pdl\drivers\peripheral\gpio/cy_gpio.h **** __STATIC_INLINE void Cy_GPIO_SetVrefSel(GPIO_PRT_Type* base, uint32_t pinNum, uint32_t value);
 500:Generated_Source\PSoC6\pdl\drivers\peripheral\gpio/cy_gpio.h **** __STATIC_INLINE uint32_t Cy_GPIO_GetVrefSel(GPIO_PRT_Type* base, uint32_t pinNum);
 501:Generated_Source\PSoC6\pdl\drivers\peripheral\gpio/cy_gpio.h **** __STATIC_INLINE void Cy_GPIO_SetVohSel(GPIO_PRT_Type* base, uint32_t pinNum, uint32_t value);
 502:Generated_Source\PSoC6\pdl\drivers\peripheral\gpio/cy_gpio.h **** __STATIC_INLINE uint32_t Cy_GPIO_GetVohSel(GPIO_PRT_Type* base, uint32_t pinNum);
 503:Generated_Source\PSoC6\pdl\drivers\peripheral\gpio/cy_gpio.h **** 
 504:Generated_Source\PSoC6\pdl\drivers\peripheral\gpio/cy_gpio.h **** /** \} group_gpio_functions_sio */
 505:Generated_Source\PSoC6\pdl\drivers\peripheral\gpio/cy_gpio.h **** 
 506:Generated_Source\PSoC6\pdl\drivers\peripheral\gpio/cy_gpio.h **** /**
 507:Generated_Source\PSoC6\pdl\drivers\peripheral\gpio/cy_gpio.h **** * \addtogroup group_gpio_functions_interrupt
 508:Generated_Source\PSoC6\pdl\drivers\peripheral\gpio/cy_gpio.h **** * \{
 509:Generated_Source\PSoC6\pdl\drivers\peripheral\gpio/cy_gpio.h **** */
 510:Generated_Source\PSoC6\pdl\drivers\peripheral\gpio/cy_gpio.h **** 
 511:Generated_Source\PSoC6\pdl\drivers\peripheral\gpio/cy_gpio.h **** __STATIC_INLINE uint32_t Cy_GPIO_GetInterruptStatus(GPIO_PRT_Type* base, uint32_t pinNum);
 512:Generated_Source\PSoC6\pdl\drivers\peripheral\gpio/cy_gpio.h **** __STATIC_INLINE void Cy_GPIO_ClearInterrupt(GPIO_PRT_Type* base, uint32_t pinNum);
 513:Generated_Source\PSoC6\pdl\drivers\peripheral\gpio/cy_gpio.h **** __STATIC_INLINE void Cy_GPIO_SetInterruptMask(GPIO_PRT_Type* base, uint32_t pinNum, uint32_t value)
 514:Generated_Source\PSoC6\pdl\drivers\peripheral\gpio/cy_gpio.h **** __STATIC_INLINE uint32_t Cy_GPIO_GetInterruptMask(GPIO_PRT_Type* base, uint32_t pinNum);
 515:Generated_Source\PSoC6\pdl\drivers\peripheral\gpio/cy_gpio.h **** __STATIC_INLINE uint32_t Cy_GPIO_GetInterruptStatusMasked(GPIO_PRT_Type* base, uint32_t pinNum);
 516:Generated_Source\PSoC6\pdl\drivers\peripheral\gpio/cy_gpio.h **** __STATIC_INLINE void Cy_GPIO_SetSwInterrupt(GPIO_PRT_Type* base, uint32_t pinNum);
 517:Generated_Source\PSoC6\pdl\drivers\peripheral\gpio/cy_gpio.h **** __STATIC_INLINE void Cy_GPIO_SetInterruptEdge(GPIO_PRT_Type* base, uint32_t pinNum, uint32_t value)
 518:Generated_Source\PSoC6\pdl\drivers\peripheral\gpio/cy_gpio.h **** __STATIC_INLINE uint32_t Cy_GPIO_GetInterruptEdge(GPIO_PRT_Type* base, uint32_t pinNum);
 519:Generated_Source\PSoC6\pdl\drivers\peripheral\gpio/cy_gpio.h **** __STATIC_INLINE void Cy_GPIO_SetFilter(GPIO_PRT_Type* base, uint32_t value);
 520:Generated_Source\PSoC6\pdl\drivers\peripheral\gpio/cy_gpio.h **** __STATIC_INLINE uint32_t Cy_GPIO_GetFilter(GPIO_PRT_Type* base);
 521:Generated_Source\PSoC6\pdl\drivers\peripheral\gpio/cy_gpio.h **** 
 522:Generated_Source\PSoC6\pdl\drivers\peripheral\gpio/cy_gpio.h **** #if (IOSS_GPIO_GPIO_PORT_NR_0_31 != 0) || defined (CY_DOXYGEN)
 523:Generated_Source\PSoC6\pdl\drivers\peripheral\gpio/cy_gpio.h **** __STATIC_INLINE uint32_t Cy_GPIO_GetInterruptCause0(void);
 524:Generated_Source\PSoC6\pdl\drivers\peripheral\gpio/cy_gpio.h **** #endif /* (IOSS_GPIO_GPIO_PORT_NR_0_31 != 0) */
 525:Generated_Source\PSoC6\pdl\drivers\peripheral\gpio/cy_gpio.h **** 
 526:Generated_Source\PSoC6\pdl\drivers\peripheral\gpio/cy_gpio.h **** #if (IOSS_GPIO_GPIO_PORT_NR_32_63 != 0) || defined (CY_DOXYGEN)
 527:Generated_Source\PSoC6\pdl\drivers\peripheral\gpio/cy_gpio.h **** __STATIC_INLINE uint32_t Cy_GPIO_GetInterruptCause1(void);
 528:Generated_Source\PSoC6\pdl\drivers\peripheral\gpio/cy_gpio.h **** #endif /* (IOSS_GPIO_GPIO_PORT_NR_32_63 != 0) */
 529:Generated_Source\PSoC6\pdl\drivers\peripheral\gpio/cy_gpio.h **** 
 530:Generated_Source\PSoC6\pdl\drivers\peripheral\gpio/cy_gpio.h **** #if (IOSS_GPIO_GPIO_PORT_NR_64_95 != 0) || defined (CY_DOXYGEN)
 531:Generated_Source\PSoC6\pdl\drivers\peripheral\gpio/cy_gpio.h **** __STATIC_INLINE uint32_t Cy_GPIO_GetInterruptCause2(void);
ARM GAS  C:\Users\ikomb\AppData\Local\Temp\ccAzoKUN.s 			page 11


 532:Generated_Source\PSoC6\pdl\drivers\peripheral\gpio/cy_gpio.h **** #endif /* (IOSS_GPIO_GPIO_PORT_NR_64_95 != 0) */
 533:Generated_Source\PSoC6\pdl\drivers\peripheral\gpio/cy_gpio.h **** 
 534:Generated_Source\PSoC6\pdl\drivers\peripheral\gpio/cy_gpio.h **** #if (IOSS_GPIO_GPIO_PORT_NR_96_127 != 0) || defined (CY_DOXYGEN)
 535:Generated_Source\PSoC6\pdl\drivers\peripheral\gpio/cy_gpio.h **** __STATIC_INLINE uint32_t Cy_GPIO_GetInterruptCause3(void);
 536:Generated_Source\PSoC6\pdl\drivers\peripheral\gpio/cy_gpio.h **** #endif /* (IOSS_GPIO_GPIO_PORT_NR_96_127 != 0) */
 537:Generated_Source\PSoC6\pdl\drivers\peripheral\gpio/cy_gpio.h **** 
 538:Generated_Source\PSoC6\pdl\drivers\peripheral\gpio/cy_gpio.h **** /** \} group_gpio_functions_interrupt */
 539:Generated_Source\PSoC6\pdl\drivers\peripheral\gpio/cy_gpio.h **** 
 540:Generated_Source\PSoC6\pdl\drivers\peripheral\gpio/cy_gpio.h **** 
 541:Generated_Source\PSoC6\pdl\drivers\peripheral\gpio/cy_gpio.h **** /**
 542:Generated_Source\PSoC6\pdl\drivers\peripheral\gpio/cy_gpio.h **** * \addtogroup group_gpio_functions_init
 543:Generated_Source\PSoC6\pdl\drivers\peripheral\gpio/cy_gpio.h **** * \{
 544:Generated_Source\PSoC6\pdl\drivers\peripheral\gpio/cy_gpio.h **** */
 545:Generated_Source\PSoC6\pdl\drivers\peripheral\gpio/cy_gpio.h **** 
 546:Generated_Source\PSoC6\pdl\drivers\peripheral\gpio/cy_gpio.h **** /*******************************************************************************
 547:Generated_Source\PSoC6\pdl\drivers\peripheral\gpio/cy_gpio.h **** * Function Name: Cy_GPIO_SetHSIOM
 548:Generated_Source\PSoC6\pdl\drivers\peripheral\gpio/cy_gpio.h **** ****************************************************************************//**
 549:Generated_Source\PSoC6\pdl\drivers\peripheral\gpio/cy_gpio.h **** *
 550:Generated_Source\PSoC6\pdl\drivers\peripheral\gpio/cy_gpio.h **** * \brief Configures the HSIOM connection to the pin.
 551:Generated_Source\PSoC6\pdl\drivers\peripheral\gpio/cy_gpio.h **** *
 552:Generated_Source\PSoC6\pdl\drivers\peripheral\gpio/cy_gpio.h **** * Connects the specified High-Speed Input Output Multiplexer (HSIOM) selection
 553:Generated_Source\PSoC6\pdl\drivers\peripheral\gpio/cy_gpio.h **** * to the pin.
 554:Generated_Source\PSoC6\pdl\drivers\peripheral\gpio/cy_gpio.h **** *
 555:Generated_Source\PSoC6\pdl\drivers\peripheral\gpio/cy_gpio.h **** * \param base
 556:Generated_Source\PSoC6\pdl\drivers\peripheral\gpio/cy_gpio.h **** * Pointer to the pin's port register base address
 557:Generated_Source\PSoC6\pdl\drivers\peripheral\gpio/cy_gpio.h **** *
 558:Generated_Source\PSoC6\pdl\drivers\peripheral\gpio/cy_gpio.h **** * \param pinNum
 559:Generated_Source\PSoC6\pdl\drivers\peripheral\gpio/cy_gpio.h **** * Position of the pin bit-field within the port register
 560:Generated_Source\PSoC6\pdl\drivers\peripheral\gpio/cy_gpio.h **** *
 561:Generated_Source\PSoC6\pdl\drivers\peripheral\gpio/cy_gpio.h **** * \param value
 562:Generated_Source\PSoC6\pdl\drivers\peripheral\gpio/cy_gpio.h **** * HSIOM input selection
 563:Generated_Source\PSoC6\pdl\drivers\peripheral\gpio/cy_gpio.h **** *
 564:Generated_Source\PSoC6\pdl\drivers\peripheral\gpio/cy_gpio.h **** * \return
 565:Generated_Source\PSoC6\pdl\drivers\peripheral\gpio/cy_gpio.h **** * void
 566:Generated_Source\PSoC6\pdl\drivers\peripheral\gpio/cy_gpio.h **** *
 567:Generated_Source\PSoC6\pdl\drivers\peripheral\gpio/cy_gpio.h **** * \note 
 568:Generated_Source\PSoC6\pdl\drivers\peripheral\gpio/cy_gpio.h **** * This function modifies a port register in a read-modify-write operation. It is
 569:Generated_Source\PSoC6\pdl\drivers\peripheral\gpio/cy_gpio.h **** * not thread safe as the resource is shared among multiple pins on a port.
 570:Generated_Source\PSoC6\pdl\drivers\peripheral\gpio/cy_gpio.h **** *
 571:Generated_Source\PSoC6\pdl\drivers\peripheral\gpio/cy_gpio.h **** * \funcusage
 572:Generated_Source\PSoC6\pdl\drivers\peripheral\gpio/cy_gpio.h **** * \snippet gpio/gpio_v1_10_sut_01.cydsn/main_cm4.c snippet_Cy_GPIO_SetHSIOM
 573:Generated_Source\PSoC6\pdl\drivers\peripheral\gpio/cy_gpio.h **** *
 574:Generated_Source\PSoC6\pdl\drivers\peripheral\gpio/cy_gpio.h **** *******************************************************************************/
 575:Generated_Source\PSoC6\pdl\drivers\peripheral\gpio/cy_gpio.h **** __STATIC_INLINE void Cy_GPIO_SetHSIOM(GPIO_PRT_Type* base, uint32_t pinNum, en_hsiom_sel_t value)
 576:Generated_Source\PSoC6\pdl\drivers\peripheral\gpio/cy_gpio.h **** {
  33              		.loc 1 576 0
  34              		.cfi_startproc
  35              		@ args = 0, pretend = 0, frame = 32
  36              		@ frame_needed = 1, uses_anonymous_args = 0
  37 0000 80B5     		push	{r7, lr}
  38              		.cfi_def_cfa_offset 8
  39              		.cfi_offset 7, -8
  40              		.cfi_offset 14, -4
  41 0002 88B0     		sub	sp, sp, #32
  42              		.cfi_def_cfa_offset 40
  43 0004 00AF     		add	r7, sp, #0
  44              		.cfi_def_cfa_register 7
ARM GAS  C:\Users\ikomb\AppData\Local\Temp\ccAzoKUN.s 			page 12


  45 0006 F860     		str	r0, [r7, #12]
  46 0008 B960     		str	r1, [r7, #8]
  47 000a 1346     		mov	r3, r2
  48 000c FB71     		strb	r3, [r7, #7]
 577:Generated_Source\PSoC6\pdl\drivers\peripheral\gpio/cy_gpio.h ****     uint32_t portNum;
 578:Generated_Source\PSoC6\pdl\drivers\peripheral\gpio/cy_gpio.h ****     uint32_t tempReg;
 579:Generated_Source\PSoC6\pdl\drivers\peripheral\gpio/cy_gpio.h ****     HSIOM_PRT_Type* portAddrHSIOM;
 580:Generated_Source\PSoC6\pdl\drivers\peripheral\gpio/cy_gpio.h **** 
 581:Generated_Source\PSoC6\pdl\drivers\peripheral\gpio/cy_gpio.h ****     CY_ASSERT_L2(CY_GPIO_IS_PIN_VALID(pinNum));
  49              		.loc 1 581 0
  50 000e BB68     		ldr	r3, [r7, #8]
  51 0010 072B     		cmp	r3, #7
  52 0012 04D9     		bls	.L2
  53              		.loc 1 581 0 is_stmt 0 discriminator 1
  54 0014 40F24521 		movw	r1, #581
  55 0018 2648     		ldr	r0, .L7
  56 001a FFF7FEFF 		bl	Cy_SysLib_AssertFailed
  57              	.L2:
 582:Generated_Source\PSoC6\pdl\drivers\peripheral\gpio/cy_gpio.h ****     CY_ASSERT_L2(CY_GPIO_IS_HSIOM_VALID(value));
  58              		.loc 1 582 0 is_stmt 1
  59 001e FB79     		ldrb	r3, [r7, #7]	@ zero_extendqisi2
  60 0020 23F01F03 		bic	r3, r3, #31
  61 0024 002B     		cmp	r3, #0
  62 0026 04D0     		beq	.L3
  63              		.loc 1 582 0 is_stmt 0 discriminator 1
  64 0028 40F24621 		movw	r1, #582
  65 002c 2148     		ldr	r0, .L7
  66 002e FFF7FEFF 		bl	Cy_SysLib_AssertFailed
  67              	.L3:
 583:Generated_Source\PSoC6\pdl\drivers\peripheral\gpio/cy_gpio.h **** 
 584:Generated_Source\PSoC6\pdl\drivers\peripheral\gpio/cy_gpio.h ****     portNum = ((uint32_t)(base) - GPIO_BASE) / GPIO_PRT_SECTION_SIZE;
  68              		.loc 1 584 0 is_stmt 1
  69 0032 FB68     		ldr	r3, [r7, #12]
  70 0034 03F13F43 		add	r3, r3, #-1090519040
  71 0038 03F54E03 		add	r3, r3, #13500416
  72 003c DB09     		lsrs	r3, r3, #7
  73 003e FB61     		str	r3, [r7, #28]
 585:Generated_Source\PSoC6\pdl\drivers\peripheral\gpio/cy_gpio.h ****     portAddrHSIOM = (HSIOM_PRT_Type*)(HSIOM_BASE + (HSIOM_PRT_SECTION_SIZE * portNum));
  74              		.loc 1 585 0
  75 0040 FB69     		ldr	r3, [r7, #28]
  76 0042 03F18063 		add	r3, r3, #67108864
  77 0046 03F54433 		add	r3, r3, #200704
  78 004a 1B01     		lsls	r3, r3, #4
  79 004c BB61     		str	r3, [r7, #24]
 586:Generated_Source\PSoC6\pdl\drivers\peripheral\gpio/cy_gpio.h **** 
 587:Generated_Source\PSoC6\pdl\drivers\peripheral\gpio/cy_gpio.h ****     if(pinNum < CY_GPIO_PRT_HALF)
  80              		.loc 1 587 0
  81 004e BB68     		ldr	r3, [r7, #8]
  82 0050 032B     		cmp	r3, #3
  83 0052 14D8     		bhi	.L4
 588:Generated_Source\PSoC6\pdl\drivers\peripheral\gpio/cy_gpio.h ****     {
 589:Generated_Source\PSoC6\pdl\drivers\peripheral\gpio/cy_gpio.h ****         tempReg = portAddrHSIOM->PORT_SEL0 & ~(CY_GPIO_HSIOM_MASK << (pinNum << CY_GPIO_HSIOM_OFFSE
  84              		.loc 1 589 0
  85 0054 BB69     		ldr	r3, [r7, #24]
  86 0056 1A68     		ldr	r2, [r3]
  87 0058 BB68     		ldr	r3, [r7, #8]
  88 005a DB00     		lsls	r3, r3, #3
ARM GAS  C:\Users\ikomb\AppData\Local\Temp\ccAzoKUN.s 			page 13


  89 005c 1F21     		movs	r1, #31
  90 005e 01FA03F3 		lsl	r3, r1, r3
  91 0062 DB43     		mvns	r3, r3
  92 0064 1340     		ands	r3, r3, r2
  93 0066 7B61     		str	r3, [r7, #20]
 590:Generated_Source\PSoC6\pdl\drivers\peripheral\gpio/cy_gpio.h ****         portAddrHSIOM->PORT_SEL0 = tempReg | ((value & CY_GPIO_HSIOM_MASK) << (pinNum << CY_GPIO_HS
  94              		.loc 1 590 0
  95 0068 FB79     		ldrb	r3, [r7, #7]	@ zero_extendqisi2
  96 006a 03F01F02 		and	r2, r3, #31
  97 006e BB68     		ldr	r3, [r7, #8]
  98 0070 DB00     		lsls	r3, r3, #3
  99 0072 9A40     		lsls	r2, r2, r3
 100 0074 7B69     		ldr	r3, [r7, #20]
 101 0076 1A43     		orrs	r2, r2, r3
 102 0078 BB69     		ldr	r3, [r7, #24]
 103 007a 1A60     		str	r2, [r3]
 591:Generated_Source\PSoC6\pdl\drivers\peripheral\gpio/cy_gpio.h ****     }
 592:Generated_Source\PSoC6\pdl\drivers\peripheral\gpio/cy_gpio.h ****     else
 593:Generated_Source\PSoC6\pdl\drivers\peripheral\gpio/cy_gpio.h ****     {
 594:Generated_Source\PSoC6\pdl\drivers\peripheral\gpio/cy_gpio.h ****         pinNum -= CY_GPIO_PRT_HALF;
 595:Generated_Source\PSoC6\pdl\drivers\peripheral\gpio/cy_gpio.h ****         tempReg = portAddrHSIOM->PORT_SEL1 & ~(CY_GPIO_HSIOM_MASK << (pinNum << CY_GPIO_HSIOM_OFFSE
 596:Generated_Source\PSoC6\pdl\drivers\peripheral\gpio/cy_gpio.h ****         portAddrHSIOM->PORT_SEL1 = tempReg | ((value & CY_GPIO_HSIOM_MASK) << (pinNum << CY_GPIO_HS
 597:Generated_Source\PSoC6\pdl\drivers\peripheral\gpio/cy_gpio.h ****     }
 598:Generated_Source\PSoC6\pdl\drivers\peripheral\gpio/cy_gpio.h **** }
 104              		.loc 1 598 0
 105 007c 16E0     		b	.L6
 106              	.L4:
 594:Generated_Source\PSoC6\pdl\drivers\peripheral\gpio/cy_gpio.h ****         tempReg = portAddrHSIOM->PORT_SEL1 & ~(CY_GPIO_HSIOM_MASK << (pinNum << CY_GPIO_HSIOM_OFFSE
 107              		.loc 1 594 0
 108 007e BB68     		ldr	r3, [r7, #8]
 109 0080 043B     		subs	r3, r3, #4
 110 0082 BB60     		str	r3, [r7, #8]
 595:Generated_Source\PSoC6\pdl\drivers\peripheral\gpio/cy_gpio.h ****         portAddrHSIOM->PORT_SEL1 = tempReg | ((value & CY_GPIO_HSIOM_MASK) << (pinNum << CY_GPIO_HS
 111              		.loc 1 595 0
 112 0084 BB69     		ldr	r3, [r7, #24]
 113 0086 5A68     		ldr	r2, [r3, #4]
 114 0088 BB68     		ldr	r3, [r7, #8]
 115 008a DB00     		lsls	r3, r3, #3
 116 008c 1F21     		movs	r1, #31
 117 008e 01FA03F3 		lsl	r3, r1, r3
 118 0092 DB43     		mvns	r3, r3
 119 0094 1340     		ands	r3, r3, r2
 120 0096 7B61     		str	r3, [r7, #20]
 596:Generated_Source\PSoC6\pdl\drivers\peripheral\gpio/cy_gpio.h ****     }
 121              		.loc 1 596 0
 122 0098 FB79     		ldrb	r3, [r7, #7]	@ zero_extendqisi2
 123 009a 03F01F02 		and	r2, r3, #31
 124 009e BB68     		ldr	r3, [r7, #8]
 125 00a0 DB00     		lsls	r3, r3, #3
 126 00a2 9A40     		lsls	r2, r2, r3
 127 00a4 7B69     		ldr	r3, [r7, #20]
 128 00a6 1A43     		orrs	r2, r2, r3
 129 00a8 BB69     		ldr	r3, [r7, #24]
 130 00aa 5A60     		str	r2, [r3, #4]
 131              	.L6:
 132              		.loc 1 598 0
 133 00ac 00BF     		nop
ARM GAS  C:\Users\ikomb\AppData\Local\Temp\ccAzoKUN.s 			page 14


 134 00ae 2037     		adds	r7, r7, #32
 135              		.cfi_def_cfa_offset 8
 136 00b0 BD46     		mov	sp, r7
 137              		.cfi_def_cfa_register 13
 138              		@ sp needed
 139 00b2 80BD     		pop	{r7, pc}
 140              	.L8:
 141              		.align	2
 142              	.L7:
 143 00b4 00000000 		.word	.LC0
 144              		.cfi_endproc
 145              	.LFE125:
 146              		.size	Cy_GPIO_SetHSIOM, .-Cy_GPIO_SetHSIOM
 147              		.section	.text.Cy_GPIO_Write,"ax",%progbits
 148              		.align	2
 149              		.thumb
 150              		.thumb_func
 151              		.type	Cy_GPIO_Write, %function
 152              	Cy_GPIO_Write:
 153              	.LFB129:
 599:Generated_Source\PSoC6\pdl\drivers\peripheral\gpio/cy_gpio.h **** 
 600:Generated_Source\PSoC6\pdl\drivers\peripheral\gpio/cy_gpio.h **** 
 601:Generated_Source\PSoC6\pdl\drivers\peripheral\gpio/cy_gpio.h **** /*******************************************************************************
 602:Generated_Source\PSoC6\pdl\drivers\peripheral\gpio/cy_gpio.h **** * Function Name: Cy_GPIO_GetHSIOM
 603:Generated_Source\PSoC6\pdl\drivers\peripheral\gpio/cy_gpio.h **** ****************************************************************************//**
 604:Generated_Source\PSoC6\pdl\drivers\peripheral\gpio/cy_gpio.h **** *
 605:Generated_Source\PSoC6\pdl\drivers\peripheral\gpio/cy_gpio.h **** * \brief Returns the current HSIOM multiplexer connection to the pin.
 606:Generated_Source\PSoC6\pdl\drivers\peripheral\gpio/cy_gpio.h **** *
 607:Generated_Source\PSoC6\pdl\drivers\peripheral\gpio/cy_gpio.h **** * \param base
 608:Generated_Source\PSoC6\pdl\drivers\peripheral\gpio/cy_gpio.h **** * Pointer to the pin's port register base address
 609:Generated_Source\PSoC6\pdl\drivers\peripheral\gpio/cy_gpio.h **** *
 610:Generated_Source\PSoC6\pdl\drivers\peripheral\gpio/cy_gpio.h **** * \param pinNum
 611:Generated_Source\PSoC6\pdl\drivers\peripheral\gpio/cy_gpio.h **** * Position of the pin bit-field within the port register
 612:Generated_Source\PSoC6\pdl\drivers\peripheral\gpio/cy_gpio.h **** *
 613:Generated_Source\PSoC6\pdl\drivers\peripheral\gpio/cy_gpio.h **** * \return
 614:Generated_Source\PSoC6\pdl\drivers\peripheral\gpio/cy_gpio.h **** * HSIOM input selection
 615:Generated_Source\PSoC6\pdl\drivers\peripheral\gpio/cy_gpio.h **** *
 616:Generated_Source\PSoC6\pdl\drivers\peripheral\gpio/cy_gpio.h **** * \funcusage
 617:Generated_Source\PSoC6\pdl\drivers\peripheral\gpio/cy_gpio.h **** * \snippet gpio/gpio_v1_10_sut_01.cydsn/main_cm4.c snippet_Cy_GPIO_SetHSIOM
 618:Generated_Source\PSoC6\pdl\drivers\peripheral\gpio/cy_gpio.h **** *
 619:Generated_Source\PSoC6\pdl\drivers\peripheral\gpio/cy_gpio.h **** *******************************************************************************/
 620:Generated_Source\PSoC6\pdl\drivers\peripheral\gpio/cy_gpio.h **** __STATIC_INLINE en_hsiom_sel_t Cy_GPIO_GetHSIOM(GPIO_PRT_Type* base, uint32_t pinNum)
 621:Generated_Source\PSoC6\pdl\drivers\peripheral\gpio/cy_gpio.h **** {
 622:Generated_Source\PSoC6\pdl\drivers\peripheral\gpio/cy_gpio.h ****     uint32_t returnValue;
 623:Generated_Source\PSoC6\pdl\drivers\peripheral\gpio/cy_gpio.h ****     uint32_t portNum;
 624:Generated_Source\PSoC6\pdl\drivers\peripheral\gpio/cy_gpio.h ****     HSIOM_PRT_Type* portAddrHSIOM;
 625:Generated_Source\PSoC6\pdl\drivers\peripheral\gpio/cy_gpio.h ****     
 626:Generated_Source\PSoC6\pdl\drivers\peripheral\gpio/cy_gpio.h ****     CY_ASSERT_L2(CY_GPIO_IS_PIN_VALID(pinNum));
 627:Generated_Source\PSoC6\pdl\drivers\peripheral\gpio/cy_gpio.h **** 
 628:Generated_Source\PSoC6\pdl\drivers\peripheral\gpio/cy_gpio.h ****     portNum = ((uint32_t)(base) - GPIO_BASE) / GPIO_PRT_SECTION_SIZE;
 629:Generated_Source\PSoC6\pdl\drivers\peripheral\gpio/cy_gpio.h ****     portAddrHSIOM = (HSIOM_PRT_Type*)(HSIOM_BASE + (HSIOM_PRT_SECTION_SIZE * portNum));
 630:Generated_Source\PSoC6\pdl\drivers\peripheral\gpio/cy_gpio.h **** 
 631:Generated_Source\PSoC6\pdl\drivers\peripheral\gpio/cy_gpio.h ****     if(pinNum < CY_GPIO_PRT_HALF)
 632:Generated_Source\PSoC6\pdl\drivers\peripheral\gpio/cy_gpio.h ****     {
 633:Generated_Source\PSoC6\pdl\drivers\peripheral\gpio/cy_gpio.h ****         returnValue = (portAddrHSIOM->PORT_SEL0 >> (pinNum << CY_GPIO_HSIOM_OFFSET)) & CY_GPIO_HSIO
 634:Generated_Source\PSoC6\pdl\drivers\peripheral\gpio/cy_gpio.h ****     }
 635:Generated_Source\PSoC6\pdl\drivers\peripheral\gpio/cy_gpio.h ****     else
ARM GAS  C:\Users\ikomb\AppData\Local\Temp\ccAzoKUN.s 			page 15


 636:Generated_Source\PSoC6\pdl\drivers\peripheral\gpio/cy_gpio.h ****     {
 637:Generated_Source\PSoC6\pdl\drivers\peripheral\gpio/cy_gpio.h ****         pinNum -= CY_GPIO_PRT_HALF;
 638:Generated_Source\PSoC6\pdl\drivers\peripheral\gpio/cy_gpio.h ****         returnValue = (portAddrHSIOM->PORT_SEL1 >> (pinNum << CY_GPIO_HSIOM_OFFSET)) & CY_GPIO_HSIO
 639:Generated_Source\PSoC6\pdl\drivers\peripheral\gpio/cy_gpio.h ****     }
 640:Generated_Source\PSoC6\pdl\drivers\peripheral\gpio/cy_gpio.h **** 
 641:Generated_Source\PSoC6\pdl\drivers\peripheral\gpio/cy_gpio.h ****     return (en_hsiom_sel_t)returnValue;
 642:Generated_Source\PSoC6\pdl\drivers\peripheral\gpio/cy_gpio.h **** }
 643:Generated_Source\PSoC6\pdl\drivers\peripheral\gpio/cy_gpio.h **** 
 644:Generated_Source\PSoC6\pdl\drivers\peripheral\gpio/cy_gpio.h **** 
 645:Generated_Source\PSoC6\pdl\drivers\peripheral\gpio/cy_gpio.h **** /*******************************************************************************
 646:Generated_Source\PSoC6\pdl\drivers\peripheral\gpio/cy_gpio.h **** * Function Name: Cy_GPIO_PortToAddr
 647:Generated_Source\PSoC6\pdl\drivers\peripheral\gpio/cy_gpio.h **** ****************************************************************************//**
 648:Generated_Source\PSoC6\pdl\drivers\peripheral\gpio/cy_gpio.h **** *
 649:Generated_Source\PSoC6\pdl\drivers\peripheral\gpio/cy_gpio.h **** * \brief Retrieves the port address based on the given port number.
 650:Generated_Source\PSoC6\pdl\drivers\peripheral\gpio/cy_gpio.h **** *
 651:Generated_Source\PSoC6\pdl\drivers\peripheral\gpio/cy_gpio.h **** * This is a helper function to calculate the port base address when given a port
 652:Generated_Source\PSoC6\pdl\drivers\peripheral\gpio/cy_gpio.h **** * number. It is to be used when pin access needs to be calculated at runtime.
 653:Generated_Source\PSoC6\pdl\drivers\peripheral\gpio/cy_gpio.h **** *
 654:Generated_Source\PSoC6\pdl\drivers\peripheral\gpio/cy_gpio.h **** * \param portNum
 655:Generated_Source\PSoC6\pdl\drivers\peripheral\gpio/cy_gpio.h **** * Port number
 656:Generated_Source\PSoC6\pdl\drivers\peripheral\gpio/cy_gpio.h **** *
 657:Generated_Source\PSoC6\pdl\drivers\peripheral\gpio/cy_gpio.h **** * \return
 658:Generated_Source\PSoC6\pdl\drivers\peripheral\gpio/cy_gpio.h **** * Base address of the port register structure
 659:Generated_Source\PSoC6\pdl\drivers\peripheral\gpio/cy_gpio.h **** *
 660:Generated_Source\PSoC6\pdl\drivers\peripheral\gpio/cy_gpio.h **** * \funcusage
 661:Generated_Source\PSoC6\pdl\drivers\peripheral\gpio/cy_gpio.h **** * \snippet gpio/gpio_v1_10_sut_01.cydsn/main_cm4.c snippet_Cy_GPIO_PortToAddr
 662:Generated_Source\PSoC6\pdl\drivers\peripheral\gpio/cy_gpio.h **** *
 663:Generated_Source\PSoC6\pdl\drivers\peripheral\gpio/cy_gpio.h **** *******************************************************************************/
 664:Generated_Source\PSoC6\pdl\drivers\peripheral\gpio/cy_gpio.h **** __STATIC_INLINE GPIO_PRT_Type* Cy_GPIO_PortToAddr(uint32_t portNum)
 665:Generated_Source\PSoC6\pdl\drivers\peripheral\gpio/cy_gpio.h **** {
 666:Generated_Source\PSoC6\pdl\drivers\peripheral\gpio/cy_gpio.h ****     GPIO_PRT_Type* base;
 667:Generated_Source\PSoC6\pdl\drivers\peripheral\gpio/cy_gpio.h ****     
 668:Generated_Source\PSoC6\pdl\drivers\peripheral\gpio/cy_gpio.h ****     if(portNum < (uint32_t)IOSS_GPIO_GPIO_PORT_NR)
 669:Generated_Source\PSoC6\pdl\drivers\peripheral\gpio/cy_gpio.h ****     {
 670:Generated_Source\PSoC6\pdl\drivers\peripheral\gpio/cy_gpio.h ****          base = (GPIO_PRT_Type *)(GPIO_BASE + (GPIO_PRT_SECTION_SIZE * portNum));
 671:Generated_Source\PSoC6\pdl\drivers\peripheral\gpio/cy_gpio.h ****     }
 672:Generated_Source\PSoC6\pdl\drivers\peripheral\gpio/cy_gpio.h ****     else
 673:Generated_Source\PSoC6\pdl\drivers\peripheral\gpio/cy_gpio.h ****     {
 674:Generated_Source\PSoC6\pdl\drivers\peripheral\gpio/cy_gpio.h ****         /* Error: Return default base address */
 675:Generated_Source\PSoC6\pdl\drivers\peripheral\gpio/cy_gpio.h ****         base = (GPIO_PRT_Type *)(GPIO_BASE);
 676:Generated_Source\PSoC6\pdl\drivers\peripheral\gpio/cy_gpio.h ****     }
 677:Generated_Source\PSoC6\pdl\drivers\peripheral\gpio/cy_gpio.h **** 
 678:Generated_Source\PSoC6\pdl\drivers\peripheral\gpio/cy_gpio.h ****     return (base);
 679:Generated_Source\PSoC6\pdl\drivers\peripheral\gpio/cy_gpio.h **** }
 680:Generated_Source\PSoC6\pdl\drivers\peripheral\gpio/cy_gpio.h **** 
 681:Generated_Source\PSoC6\pdl\drivers\peripheral\gpio/cy_gpio.h **** /** \} group_gpio_functions_init */
 682:Generated_Source\PSoC6\pdl\drivers\peripheral\gpio/cy_gpio.h **** 
 683:Generated_Source\PSoC6\pdl\drivers\peripheral\gpio/cy_gpio.h **** /**
 684:Generated_Source\PSoC6\pdl\drivers\peripheral\gpio/cy_gpio.h **** * \addtogroup group_gpio_functions_gpio
 685:Generated_Source\PSoC6\pdl\drivers\peripheral\gpio/cy_gpio.h **** * \{
 686:Generated_Source\PSoC6\pdl\drivers\peripheral\gpio/cy_gpio.h **** */
 687:Generated_Source\PSoC6\pdl\drivers\peripheral\gpio/cy_gpio.h **** 
 688:Generated_Source\PSoC6\pdl\drivers\peripheral\gpio/cy_gpio.h **** /*******************************************************************************
 689:Generated_Source\PSoC6\pdl\drivers\peripheral\gpio/cy_gpio.h **** * Function Name: Cy_GPIO_Read
 690:Generated_Source\PSoC6\pdl\drivers\peripheral\gpio/cy_gpio.h **** ****************************************************************************//**
 691:Generated_Source\PSoC6\pdl\drivers\peripheral\gpio/cy_gpio.h **** *
 692:Generated_Source\PSoC6\pdl\drivers\peripheral\gpio/cy_gpio.h **** * \brief Reads the current logic level on the input buffer of the pin.
ARM GAS  C:\Users\ikomb\AppData\Local\Temp\ccAzoKUN.s 			page 16


 693:Generated_Source\PSoC6\pdl\drivers\peripheral\gpio/cy_gpio.h **** *
 694:Generated_Source\PSoC6\pdl\drivers\peripheral\gpio/cy_gpio.h **** * \param base
 695:Generated_Source\PSoC6\pdl\drivers\peripheral\gpio/cy_gpio.h **** * Pointer to the pin's port register base address
 696:Generated_Source\PSoC6\pdl\drivers\peripheral\gpio/cy_gpio.h **** *
 697:Generated_Source\PSoC6\pdl\drivers\peripheral\gpio/cy_gpio.h **** * \param pinNum
 698:Generated_Source\PSoC6\pdl\drivers\peripheral\gpio/cy_gpio.h **** * Position of the pin bit-field within the port register.
 699:Generated_Source\PSoC6\pdl\drivers\peripheral\gpio/cy_gpio.h **** * Bit position 8 is the routed pin through the port glitch filter.
 700:Generated_Source\PSoC6\pdl\drivers\peripheral\gpio/cy_gpio.h **** *
 701:Generated_Source\PSoC6\pdl\drivers\peripheral\gpio/cy_gpio.h **** * \return
 702:Generated_Source\PSoC6\pdl\drivers\peripheral\gpio/cy_gpio.h **** * Logic level present on the pin
 703:Generated_Source\PSoC6\pdl\drivers\peripheral\gpio/cy_gpio.h **** *
 704:Generated_Source\PSoC6\pdl\drivers\peripheral\gpio/cy_gpio.h **** * \funcusage
 705:Generated_Source\PSoC6\pdl\drivers\peripheral\gpio/cy_gpio.h **** * \snippet gpio/gpio_v1_10_sut_01.cydsn/main_cm4.c snippet_Cy_GPIO_Read
 706:Generated_Source\PSoC6\pdl\drivers\peripheral\gpio/cy_gpio.h **** *
 707:Generated_Source\PSoC6\pdl\drivers\peripheral\gpio/cy_gpio.h **** *******************************************************************************/
 708:Generated_Source\PSoC6\pdl\drivers\peripheral\gpio/cy_gpio.h **** __STATIC_INLINE uint32_t Cy_GPIO_Read(GPIO_PRT_Type* base, uint32_t pinNum)
 709:Generated_Source\PSoC6\pdl\drivers\peripheral\gpio/cy_gpio.h **** {
 710:Generated_Source\PSoC6\pdl\drivers\peripheral\gpio/cy_gpio.h ****     CY_ASSERT_L2(CY_GPIO_IS_FILTER_PIN_VALID(pinNum));
 711:Generated_Source\PSoC6\pdl\drivers\peripheral\gpio/cy_gpio.h ****     
 712:Generated_Source\PSoC6\pdl\drivers\peripheral\gpio/cy_gpio.h ****     return (base->IN >> (pinNum)) & CY_GPIO_IN_MASK;
 713:Generated_Source\PSoC6\pdl\drivers\peripheral\gpio/cy_gpio.h **** }
 714:Generated_Source\PSoC6\pdl\drivers\peripheral\gpio/cy_gpio.h **** 
 715:Generated_Source\PSoC6\pdl\drivers\peripheral\gpio/cy_gpio.h **** 
 716:Generated_Source\PSoC6\pdl\drivers\peripheral\gpio/cy_gpio.h **** /*******************************************************************************
 717:Generated_Source\PSoC6\pdl\drivers\peripheral\gpio/cy_gpio.h **** * Function Name: Cy_GPIO_Write
 718:Generated_Source\PSoC6\pdl\drivers\peripheral\gpio/cy_gpio.h **** ****************************************************************************//**
 719:Generated_Source\PSoC6\pdl\drivers\peripheral\gpio/cy_gpio.h **** *
 720:Generated_Source\PSoC6\pdl\drivers\peripheral\gpio/cy_gpio.h **** * \brief Write a logic 0 or logic 1 state to the output driver.
 721:Generated_Source\PSoC6\pdl\drivers\peripheral\gpio/cy_gpio.h **** *
 722:Generated_Source\PSoC6\pdl\drivers\peripheral\gpio/cy_gpio.h **** * This function should be used only for software driven pins. It does not have
 723:Generated_Source\PSoC6\pdl\drivers\peripheral\gpio/cy_gpio.h **** * any effect on peripheral driven pins.
 724:Generated_Source\PSoC6\pdl\drivers\peripheral\gpio/cy_gpio.h **** *
 725:Generated_Source\PSoC6\pdl\drivers\peripheral\gpio/cy_gpio.h **** * \param base
 726:Generated_Source\PSoC6\pdl\drivers\peripheral\gpio/cy_gpio.h **** * Pointer to the pin's port register base address
 727:Generated_Source\PSoC6\pdl\drivers\peripheral\gpio/cy_gpio.h **** *
 728:Generated_Source\PSoC6\pdl\drivers\peripheral\gpio/cy_gpio.h **** * \param pinNum
 729:Generated_Source\PSoC6\pdl\drivers\peripheral\gpio/cy_gpio.h **** * Position of the pin bit-field within the port register
 730:Generated_Source\PSoC6\pdl\drivers\peripheral\gpio/cy_gpio.h **** *
 731:Generated_Source\PSoC6\pdl\drivers\peripheral\gpio/cy_gpio.h **** * \param value
 732:Generated_Source\PSoC6\pdl\drivers\peripheral\gpio/cy_gpio.h **** * Logic level to drive out on the pin
 733:Generated_Source\PSoC6\pdl\drivers\peripheral\gpio/cy_gpio.h **** *
 734:Generated_Source\PSoC6\pdl\drivers\peripheral\gpio/cy_gpio.h **** * \return
 735:Generated_Source\PSoC6\pdl\drivers\peripheral\gpio/cy_gpio.h **** * void
 736:Generated_Source\PSoC6\pdl\drivers\peripheral\gpio/cy_gpio.h **** *
 737:Generated_Source\PSoC6\pdl\drivers\peripheral\gpio/cy_gpio.h **** * \funcusage
 738:Generated_Source\PSoC6\pdl\drivers\peripheral\gpio/cy_gpio.h **** * \snippet gpio/gpio_v1_10_sut_01.cydsn/main_cm4.c snippet_Cy_GPIO_Write
 739:Generated_Source\PSoC6\pdl\drivers\peripheral\gpio/cy_gpio.h **** *
 740:Generated_Source\PSoC6\pdl\drivers\peripheral\gpio/cy_gpio.h **** *******************************************************************************/
 741:Generated_Source\PSoC6\pdl\drivers\peripheral\gpio/cy_gpio.h **** __STATIC_INLINE void Cy_GPIO_Write(GPIO_PRT_Type* base, uint32_t pinNum, uint32_t value)
 742:Generated_Source\PSoC6\pdl\drivers\peripheral\gpio/cy_gpio.h **** {
 154              		.loc 1 742 0
 155              		.cfi_startproc
 156              		@ args = 0, pretend = 0, frame = 16
 157              		@ frame_needed = 1, uses_anonymous_args = 0
 158 0000 80B5     		push	{r7, lr}
 159              		.cfi_def_cfa_offset 8
 160              		.cfi_offset 7, -8
ARM GAS  C:\Users\ikomb\AppData\Local\Temp\ccAzoKUN.s 			page 17


 161              		.cfi_offset 14, -4
 162 0002 84B0     		sub	sp, sp, #16
 163              		.cfi_def_cfa_offset 24
 164 0004 00AF     		add	r7, sp, #0
 165              		.cfi_def_cfa_register 7
 166 0006 F860     		str	r0, [r7, #12]
 167 0008 B960     		str	r1, [r7, #8]
 168 000a 7A60     		str	r2, [r7, #4]
 743:Generated_Source\PSoC6\pdl\drivers\peripheral\gpio/cy_gpio.h ****     CY_ASSERT_L2(CY_GPIO_IS_PIN_VALID(pinNum));
 169              		.loc 1 743 0
 170 000c BB68     		ldr	r3, [r7, #8]
 171 000e 072B     		cmp	r3, #7
 172 0010 04D9     		bls	.L10
 173              		.loc 1 743 0 is_stmt 0 discriminator 1
 174 0012 40F2E721 		movw	r1, #743
 175 0016 0E48     		ldr	r0, .L15
 176 0018 FFF7FEFF 		bl	Cy_SysLib_AssertFailed
 177              	.L10:
 744:Generated_Source\PSoC6\pdl\drivers\peripheral\gpio/cy_gpio.h ****     CY_ASSERT_L2(CY_GPIO_IS_VALUE_VALID(value));
 178              		.loc 1 744 0 is_stmt 1
 179 001c 7B68     		ldr	r3, [r7, #4]
 180 001e 012B     		cmp	r3, #1
 181 0020 04D9     		bls	.L11
 182              		.loc 1 744 0 is_stmt 0 discriminator 1
 183 0022 4FF43A71 		mov	r1, #744
 184 0026 0A48     		ldr	r0, .L15
 185 0028 FFF7FEFF 		bl	Cy_SysLib_AssertFailed
 186              	.L11:
 745:Generated_Source\PSoC6\pdl\drivers\peripheral\gpio/cy_gpio.h **** 
 746:Generated_Source\PSoC6\pdl\drivers\peripheral\gpio/cy_gpio.h ****     /* Thread-safe: Directly access the pin registers instead of base->OUT */
 747:Generated_Source\PSoC6\pdl\drivers\peripheral\gpio/cy_gpio.h ****     if(0UL == value)
 187              		.loc 1 747 0 is_stmt 1
 188 002c 7B68     		ldr	r3, [r7, #4]
 189 002e 002B     		cmp	r3, #0
 190 0030 05D1     		bne	.L12
 748:Generated_Source\PSoC6\pdl\drivers\peripheral\gpio/cy_gpio.h ****     {
 749:Generated_Source\PSoC6\pdl\drivers\peripheral\gpio/cy_gpio.h ****         base->OUT_CLR = CY_GPIO_OUT_MASK << pinNum;
 191              		.loc 1 749 0
 192 0032 0122     		movs	r2, #1
 193 0034 BB68     		ldr	r3, [r7, #8]
 194 0036 9A40     		lsls	r2, r2, r3
 195 0038 FB68     		ldr	r3, [r7, #12]
 196 003a 5A60     		str	r2, [r3, #4]
 750:Generated_Source\PSoC6\pdl\drivers\peripheral\gpio/cy_gpio.h ****     }
 751:Generated_Source\PSoC6\pdl\drivers\peripheral\gpio/cy_gpio.h ****     else
 752:Generated_Source\PSoC6\pdl\drivers\peripheral\gpio/cy_gpio.h ****     {
 753:Generated_Source\PSoC6\pdl\drivers\peripheral\gpio/cy_gpio.h ****         base->OUT_SET = CY_GPIO_OUT_MASK << pinNum;
 754:Generated_Source\PSoC6\pdl\drivers\peripheral\gpio/cy_gpio.h ****     }
 755:Generated_Source\PSoC6\pdl\drivers\peripheral\gpio/cy_gpio.h **** }
 197              		.loc 1 755 0
 198 003c 04E0     		b	.L14
 199              	.L12:
 753:Generated_Source\PSoC6\pdl\drivers\peripheral\gpio/cy_gpio.h ****     }
 200              		.loc 1 753 0
 201 003e 0122     		movs	r2, #1
 202 0040 BB68     		ldr	r3, [r7, #8]
 203 0042 9A40     		lsls	r2, r2, r3
ARM GAS  C:\Users\ikomb\AppData\Local\Temp\ccAzoKUN.s 			page 18


 204 0044 FB68     		ldr	r3, [r7, #12]
 205 0046 9A60     		str	r2, [r3, #8]
 206              	.L14:
 207              		.loc 1 755 0
 208 0048 00BF     		nop
 209 004a 1037     		adds	r7, r7, #16
 210              		.cfi_def_cfa_offset 8
 211 004c BD46     		mov	sp, r7
 212              		.cfi_def_cfa_register 13
 213              		@ sp needed
 214 004e 80BD     		pop	{r7, pc}
 215              	.L16:
 216              		.align	2
 217              	.L15:
 218 0050 00000000 		.word	.LC0
 219              		.cfi_endproc
 220              	.LFE129:
 221              		.size	Cy_GPIO_Write, .-Cy_GPIO_Write
 222              		.section	.text.Cy_GPIO_SetDrivemode,"ax",%progbits
 223              		.align	2
 224              		.thumb
 225              		.thumb_func
 226              		.type	Cy_GPIO_SetDrivemode, %function
 227              	Cy_GPIO_SetDrivemode:
 228              	.LFB134:
 756:Generated_Source\PSoC6\pdl\drivers\peripheral\gpio/cy_gpio.h **** 
 757:Generated_Source\PSoC6\pdl\drivers\peripheral\gpio/cy_gpio.h **** 
 758:Generated_Source\PSoC6\pdl\drivers\peripheral\gpio/cy_gpio.h **** /*******************************************************************************
 759:Generated_Source\PSoC6\pdl\drivers\peripheral\gpio/cy_gpio.h **** * Function Name: Cy_GPIO_ReadOut
 760:Generated_Source\PSoC6\pdl\drivers\peripheral\gpio/cy_gpio.h **** ****************************************************************************//**
 761:Generated_Source\PSoC6\pdl\drivers\peripheral\gpio/cy_gpio.h **** *
 762:Generated_Source\PSoC6\pdl\drivers\peripheral\gpio/cy_gpio.h **** * \brief Reads the current logic level on the pin output driver.
 763:Generated_Source\PSoC6\pdl\drivers\peripheral\gpio/cy_gpio.h **** *
 764:Generated_Source\PSoC6\pdl\drivers\peripheral\gpio/cy_gpio.h **** * \param base
 765:Generated_Source\PSoC6\pdl\drivers\peripheral\gpio/cy_gpio.h **** * Pointer to the pin's port register base address
 766:Generated_Source\PSoC6\pdl\drivers\peripheral\gpio/cy_gpio.h **** *
 767:Generated_Source\PSoC6\pdl\drivers\peripheral\gpio/cy_gpio.h **** * \param pinNum
 768:Generated_Source\PSoC6\pdl\drivers\peripheral\gpio/cy_gpio.h **** * Position of the pin bit-field within the port register
 769:Generated_Source\PSoC6\pdl\drivers\peripheral\gpio/cy_gpio.h **** *
 770:Generated_Source\PSoC6\pdl\drivers\peripheral\gpio/cy_gpio.h **** * \return
 771:Generated_Source\PSoC6\pdl\drivers\peripheral\gpio/cy_gpio.h **** * Logic level on the pin output driver
 772:Generated_Source\PSoC6\pdl\drivers\peripheral\gpio/cy_gpio.h **** *
 773:Generated_Source\PSoC6\pdl\drivers\peripheral\gpio/cy_gpio.h **** * \funcusage
 774:Generated_Source\PSoC6\pdl\drivers\peripheral\gpio/cy_gpio.h **** * \snippet gpio/gpio_v1_10_sut_01.cydsn/main_cm4.c snippet_Cy_GPIO_ReadOut
 775:Generated_Source\PSoC6\pdl\drivers\peripheral\gpio/cy_gpio.h **** *
 776:Generated_Source\PSoC6\pdl\drivers\peripheral\gpio/cy_gpio.h **** *******************************************************************************/
 777:Generated_Source\PSoC6\pdl\drivers\peripheral\gpio/cy_gpio.h **** __STATIC_INLINE uint32_t Cy_GPIO_ReadOut(GPIO_PRT_Type* base, uint32_t pinNum)
 778:Generated_Source\PSoC6\pdl\drivers\peripheral\gpio/cy_gpio.h **** {
 779:Generated_Source\PSoC6\pdl\drivers\peripheral\gpio/cy_gpio.h ****     CY_ASSERT_L2(CY_GPIO_IS_PIN_VALID(pinNum));
 780:Generated_Source\PSoC6\pdl\drivers\peripheral\gpio/cy_gpio.h **** 
 781:Generated_Source\PSoC6\pdl\drivers\peripheral\gpio/cy_gpio.h ****     return (base->OUT >> pinNum) & CY_GPIO_OUT_MASK;
 782:Generated_Source\PSoC6\pdl\drivers\peripheral\gpio/cy_gpio.h **** }
 783:Generated_Source\PSoC6\pdl\drivers\peripheral\gpio/cy_gpio.h **** 
 784:Generated_Source\PSoC6\pdl\drivers\peripheral\gpio/cy_gpio.h **** 
 785:Generated_Source\PSoC6\pdl\drivers\peripheral\gpio/cy_gpio.h **** /*******************************************************************************
 786:Generated_Source\PSoC6\pdl\drivers\peripheral\gpio/cy_gpio.h **** * Function Name: Cy_GPIO_Set
 787:Generated_Source\PSoC6\pdl\drivers\peripheral\gpio/cy_gpio.h **** ****************************************************************************//**
ARM GAS  C:\Users\ikomb\AppData\Local\Temp\ccAzoKUN.s 			page 19


 788:Generated_Source\PSoC6\pdl\drivers\peripheral\gpio/cy_gpio.h **** *
 789:Generated_Source\PSoC6\pdl\drivers\peripheral\gpio/cy_gpio.h **** * \brief Set a pin output to logic state high.
 790:Generated_Source\PSoC6\pdl\drivers\peripheral\gpio/cy_gpio.h **** *
 791:Generated_Source\PSoC6\pdl\drivers\peripheral\gpio/cy_gpio.h **** * This function should be used only for software driven pins. It does not have
 792:Generated_Source\PSoC6\pdl\drivers\peripheral\gpio/cy_gpio.h **** * any effect on peripheral driven pins.
 793:Generated_Source\PSoC6\pdl\drivers\peripheral\gpio/cy_gpio.h **** *
 794:Generated_Source\PSoC6\pdl\drivers\peripheral\gpio/cy_gpio.h **** * \param base
 795:Generated_Source\PSoC6\pdl\drivers\peripheral\gpio/cy_gpio.h **** * Pointer to the pin's port register base address
 796:Generated_Source\PSoC6\pdl\drivers\peripheral\gpio/cy_gpio.h **** *
 797:Generated_Source\PSoC6\pdl\drivers\peripheral\gpio/cy_gpio.h **** * \param pinNum
 798:Generated_Source\PSoC6\pdl\drivers\peripheral\gpio/cy_gpio.h **** * Position of the pin bit-field within the port register
 799:Generated_Source\PSoC6\pdl\drivers\peripheral\gpio/cy_gpio.h **** *
 800:Generated_Source\PSoC6\pdl\drivers\peripheral\gpio/cy_gpio.h **** * \return
 801:Generated_Source\PSoC6\pdl\drivers\peripheral\gpio/cy_gpio.h **** * void
 802:Generated_Source\PSoC6\pdl\drivers\peripheral\gpio/cy_gpio.h **** *
 803:Generated_Source\PSoC6\pdl\drivers\peripheral\gpio/cy_gpio.h **** * \funcusage
 804:Generated_Source\PSoC6\pdl\drivers\peripheral\gpio/cy_gpio.h **** * \snippet gpio/gpio_v1_10_sut_01.cydsn/main_cm4.c snippet_Cy_GPIO_Set
 805:Generated_Source\PSoC6\pdl\drivers\peripheral\gpio/cy_gpio.h **** *
 806:Generated_Source\PSoC6\pdl\drivers\peripheral\gpio/cy_gpio.h **** *******************************************************************************/
 807:Generated_Source\PSoC6\pdl\drivers\peripheral\gpio/cy_gpio.h **** __STATIC_INLINE void Cy_GPIO_Set(GPIO_PRT_Type* base, uint32_t pinNum)
 808:Generated_Source\PSoC6\pdl\drivers\peripheral\gpio/cy_gpio.h **** {
 809:Generated_Source\PSoC6\pdl\drivers\peripheral\gpio/cy_gpio.h ****     CY_ASSERT_L2(CY_GPIO_IS_PIN_VALID(pinNum));
 810:Generated_Source\PSoC6\pdl\drivers\peripheral\gpio/cy_gpio.h ****     
 811:Generated_Source\PSoC6\pdl\drivers\peripheral\gpio/cy_gpio.h ****     base->OUT_SET = CY_GPIO_OUT_MASK << pinNum;
 812:Generated_Source\PSoC6\pdl\drivers\peripheral\gpio/cy_gpio.h **** }
 813:Generated_Source\PSoC6\pdl\drivers\peripheral\gpio/cy_gpio.h **** 
 814:Generated_Source\PSoC6\pdl\drivers\peripheral\gpio/cy_gpio.h **** 
 815:Generated_Source\PSoC6\pdl\drivers\peripheral\gpio/cy_gpio.h **** /*******************************************************************************
 816:Generated_Source\PSoC6\pdl\drivers\peripheral\gpio/cy_gpio.h **** * Function Name: Cy_GPIO_Clr
 817:Generated_Source\PSoC6\pdl\drivers\peripheral\gpio/cy_gpio.h **** ****************************************************************************//**
 818:Generated_Source\PSoC6\pdl\drivers\peripheral\gpio/cy_gpio.h **** *
 819:Generated_Source\PSoC6\pdl\drivers\peripheral\gpio/cy_gpio.h **** * \brief Set a pin output to logic state Low.
 820:Generated_Source\PSoC6\pdl\drivers\peripheral\gpio/cy_gpio.h **** *
 821:Generated_Source\PSoC6\pdl\drivers\peripheral\gpio/cy_gpio.h **** * This function should be used only for software driven pins. It does not have
 822:Generated_Source\PSoC6\pdl\drivers\peripheral\gpio/cy_gpio.h **** * any effect on peripheral driven pins.
 823:Generated_Source\PSoC6\pdl\drivers\peripheral\gpio/cy_gpio.h **** *
 824:Generated_Source\PSoC6\pdl\drivers\peripheral\gpio/cy_gpio.h **** * \param base
 825:Generated_Source\PSoC6\pdl\drivers\peripheral\gpio/cy_gpio.h **** * Pointer to the pin's port register base address
 826:Generated_Source\PSoC6\pdl\drivers\peripheral\gpio/cy_gpio.h **** *
 827:Generated_Source\PSoC6\pdl\drivers\peripheral\gpio/cy_gpio.h **** * \param pinNum
 828:Generated_Source\PSoC6\pdl\drivers\peripheral\gpio/cy_gpio.h **** * Position of the pin bit-field within the port register
 829:Generated_Source\PSoC6\pdl\drivers\peripheral\gpio/cy_gpio.h **** *
 830:Generated_Source\PSoC6\pdl\drivers\peripheral\gpio/cy_gpio.h **** * \return
 831:Generated_Source\PSoC6\pdl\drivers\peripheral\gpio/cy_gpio.h **** * void
 832:Generated_Source\PSoC6\pdl\drivers\peripheral\gpio/cy_gpio.h **** *
 833:Generated_Source\PSoC6\pdl\drivers\peripheral\gpio/cy_gpio.h **** * \funcusage
 834:Generated_Source\PSoC6\pdl\drivers\peripheral\gpio/cy_gpio.h **** * \snippet gpio/gpio_v1_10_sut_01.cydsn/main_cm4.c snippet_Cy_GPIO_Clr
 835:Generated_Source\PSoC6\pdl\drivers\peripheral\gpio/cy_gpio.h **** *
 836:Generated_Source\PSoC6\pdl\drivers\peripheral\gpio/cy_gpio.h **** *******************************************************************************/
 837:Generated_Source\PSoC6\pdl\drivers\peripheral\gpio/cy_gpio.h **** __STATIC_INLINE void Cy_GPIO_Clr(GPIO_PRT_Type* base, uint32_t pinNum)
 838:Generated_Source\PSoC6\pdl\drivers\peripheral\gpio/cy_gpio.h **** {
 839:Generated_Source\PSoC6\pdl\drivers\peripheral\gpio/cy_gpio.h ****     CY_ASSERT_L2(CY_GPIO_IS_PIN_VALID(pinNum));
 840:Generated_Source\PSoC6\pdl\drivers\peripheral\gpio/cy_gpio.h ****     
 841:Generated_Source\PSoC6\pdl\drivers\peripheral\gpio/cy_gpio.h ****     base->OUT_CLR = CY_GPIO_OUT_MASK << pinNum;
 842:Generated_Source\PSoC6\pdl\drivers\peripheral\gpio/cy_gpio.h **** }
 843:Generated_Source\PSoC6\pdl\drivers\peripheral\gpio/cy_gpio.h **** 
 844:Generated_Source\PSoC6\pdl\drivers\peripheral\gpio/cy_gpio.h **** 
ARM GAS  C:\Users\ikomb\AppData\Local\Temp\ccAzoKUN.s 			page 20


 845:Generated_Source\PSoC6\pdl\drivers\peripheral\gpio/cy_gpio.h **** /*******************************************************************************
 846:Generated_Source\PSoC6\pdl\drivers\peripheral\gpio/cy_gpio.h **** * Function Name: Cy_GPIO_Inv
 847:Generated_Source\PSoC6\pdl\drivers\peripheral\gpio/cy_gpio.h **** ****************************************************************************//**
 848:Generated_Source\PSoC6\pdl\drivers\peripheral\gpio/cy_gpio.h **** *
 849:Generated_Source\PSoC6\pdl\drivers\peripheral\gpio/cy_gpio.h **** * \brief Set a pin output logic state to the inverse of the current output
 850:Generated_Source\PSoC6\pdl\drivers\peripheral\gpio/cy_gpio.h **** * logic state.
 851:Generated_Source\PSoC6\pdl\drivers\peripheral\gpio/cy_gpio.h **** *
 852:Generated_Source\PSoC6\pdl\drivers\peripheral\gpio/cy_gpio.h **** * This function should be used only for software driven pins. It does not have
 853:Generated_Source\PSoC6\pdl\drivers\peripheral\gpio/cy_gpio.h **** * any effect on peripheral driven pins.
 854:Generated_Source\PSoC6\pdl\drivers\peripheral\gpio/cy_gpio.h **** *
 855:Generated_Source\PSoC6\pdl\drivers\peripheral\gpio/cy_gpio.h **** * \param base
 856:Generated_Source\PSoC6\pdl\drivers\peripheral\gpio/cy_gpio.h **** * Pointer to the pin's port register base address
 857:Generated_Source\PSoC6\pdl\drivers\peripheral\gpio/cy_gpio.h **** *
 858:Generated_Source\PSoC6\pdl\drivers\peripheral\gpio/cy_gpio.h **** * \param pinNum
 859:Generated_Source\PSoC6\pdl\drivers\peripheral\gpio/cy_gpio.h **** * Position of the pin bit-field within the port register
 860:Generated_Source\PSoC6\pdl\drivers\peripheral\gpio/cy_gpio.h **** *
 861:Generated_Source\PSoC6\pdl\drivers\peripheral\gpio/cy_gpio.h **** * \return
 862:Generated_Source\PSoC6\pdl\drivers\peripheral\gpio/cy_gpio.h **** * void
 863:Generated_Source\PSoC6\pdl\drivers\peripheral\gpio/cy_gpio.h **** *
 864:Generated_Source\PSoC6\pdl\drivers\peripheral\gpio/cy_gpio.h **** * \funcusage
 865:Generated_Source\PSoC6\pdl\drivers\peripheral\gpio/cy_gpio.h **** * \snippet gpio/gpio_v1_10_sut_01.cydsn/main_cm4.c snippet_Cy_GPIO_Inv
 866:Generated_Source\PSoC6\pdl\drivers\peripheral\gpio/cy_gpio.h **** *
 867:Generated_Source\PSoC6\pdl\drivers\peripheral\gpio/cy_gpio.h **** *******************************************************************************/
 868:Generated_Source\PSoC6\pdl\drivers\peripheral\gpio/cy_gpio.h **** __STATIC_INLINE void Cy_GPIO_Inv(GPIO_PRT_Type* base, uint32_t pinNum)
 869:Generated_Source\PSoC6\pdl\drivers\peripheral\gpio/cy_gpio.h **** {
 870:Generated_Source\PSoC6\pdl\drivers\peripheral\gpio/cy_gpio.h ****     CY_ASSERT_L2(CY_GPIO_IS_PIN_VALID(pinNum));
 871:Generated_Source\PSoC6\pdl\drivers\peripheral\gpio/cy_gpio.h ****     
 872:Generated_Source\PSoC6\pdl\drivers\peripheral\gpio/cy_gpio.h ****     base->OUT_INV = CY_GPIO_OUT_MASK << pinNum;
 873:Generated_Source\PSoC6\pdl\drivers\peripheral\gpio/cy_gpio.h **** }
 874:Generated_Source\PSoC6\pdl\drivers\peripheral\gpio/cy_gpio.h **** 
 875:Generated_Source\PSoC6\pdl\drivers\peripheral\gpio/cy_gpio.h **** 
 876:Generated_Source\PSoC6\pdl\drivers\peripheral\gpio/cy_gpio.h **** /*******************************************************************************
 877:Generated_Source\PSoC6\pdl\drivers\peripheral\gpio/cy_gpio.h **** * Function Name: Cy_GPIO_SetDrivemode
 878:Generated_Source\PSoC6\pdl\drivers\peripheral\gpio/cy_gpio.h **** ****************************************************************************//**
 879:Generated_Source\PSoC6\pdl\drivers\peripheral\gpio/cy_gpio.h **** *
 880:Generated_Source\PSoC6\pdl\drivers\peripheral\gpio/cy_gpio.h **** * \brief Configures the pin output buffer drive mode and input buffer enable.
 881:Generated_Source\PSoC6\pdl\drivers\peripheral\gpio/cy_gpio.h **** *
 882:Generated_Source\PSoC6\pdl\drivers\peripheral\gpio/cy_gpio.h **** * The output buffer drive mode and input buffer enable are combined into a single
 883:Generated_Source\PSoC6\pdl\drivers\peripheral\gpio/cy_gpio.h **** * parameter. The drive mode controls the behavior of the pin in general.
 884:Generated_Source\PSoC6\pdl\drivers\peripheral\gpio/cy_gpio.h **** * Enabling the input buffer allows the digital pin state to be read but also
 885:Generated_Source\PSoC6\pdl\drivers\peripheral\gpio/cy_gpio.h **** * contributes to extra current consumption.
 886:Generated_Source\PSoC6\pdl\drivers\peripheral\gpio/cy_gpio.h **** *
 887:Generated_Source\PSoC6\pdl\drivers\peripheral\gpio/cy_gpio.h **** * \param base
 888:Generated_Source\PSoC6\pdl\drivers\peripheral\gpio/cy_gpio.h **** * Pointer to the pin's port register base address
 889:Generated_Source\PSoC6\pdl\drivers\peripheral\gpio/cy_gpio.h **** *
 890:Generated_Source\PSoC6\pdl\drivers\peripheral\gpio/cy_gpio.h **** * \param pinNum
 891:Generated_Source\PSoC6\pdl\drivers\peripheral\gpio/cy_gpio.h **** * Position of the pin bit-field within the port register
 892:Generated_Source\PSoC6\pdl\drivers\peripheral\gpio/cy_gpio.h **** *
 893:Generated_Source\PSoC6\pdl\drivers\peripheral\gpio/cy_gpio.h **** * \param value
 894:Generated_Source\PSoC6\pdl\drivers\peripheral\gpio/cy_gpio.h **** * Pin drive mode. Options are detailed in \ref group_gpio_driveModes macros
 895:Generated_Source\PSoC6\pdl\drivers\peripheral\gpio/cy_gpio.h **** *
 896:Generated_Source\PSoC6\pdl\drivers\peripheral\gpio/cy_gpio.h **** * \return
 897:Generated_Source\PSoC6\pdl\drivers\peripheral\gpio/cy_gpio.h **** * void
 898:Generated_Source\PSoC6\pdl\drivers\peripheral\gpio/cy_gpio.h **** *
 899:Generated_Source\PSoC6\pdl\drivers\peripheral\gpio/cy_gpio.h **** * \note 
 900:Generated_Source\PSoC6\pdl\drivers\peripheral\gpio/cy_gpio.h **** * This function modifies a port register in a read-modify-write operation. It is
 901:Generated_Source\PSoC6\pdl\drivers\peripheral\gpio/cy_gpio.h **** * not thread safe as the resource is shared among multiple pins on a port.
ARM GAS  C:\Users\ikomb\AppData\Local\Temp\ccAzoKUN.s 			page 21


 902:Generated_Source\PSoC6\pdl\drivers\peripheral\gpio/cy_gpio.h **** *
 903:Generated_Source\PSoC6\pdl\drivers\peripheral\gpio/cy_gpio.h **** * \funcusage
 904:Generated_Source\PSoC6\pdl\drivers\peripheral\gpio/cy_gpio.h **** * \snippet gpio/gpio_v1_10_sut_01.cydsn/main_cm4.c snippet_Cy_GPIO_SetDrivemode
 905:Generated_Source\PSoC6\pdl\drivers\peripheral\gpio/cy_gpio.h **** *
 906:Generated_Source\PSoC6\pdl\drivers\peripheral\gpio/cy_gpio.h **** *******************************************************************************/
 907:Generated_Source\PSoC6\pdl\drivers\peripheral\gpio/cy_gpio.h **** __STATIC_INLINE void Cy_GPIO_SetDrivemode(GPIO_PRT_Type* base, uint32_t pinNum, uint32_t value)
 908:Generated_Source\PSoC6\pdl\drivers\peripheral\gpio/cy_gpio.h **** {
 229              		.loc 1 908 0
 230              		.cfi_startproc
 231              		@ args = 0, pretend = 0, frame = 24
 232              		@ frame_needed = 1, uses_anonymous_args = 0
 233 0000 80B5     		push	{r7, lr}
 234              		.cfi_def_cfa_offset 8
 235              		.cfi_offset 7, -8
 236              		.cfi_offset 14, -4
 237 0002 86B0     		sub	sp, sp, #24
 238              		.cfi_def_cfa_offset 32
 239 0004 00AF     		add	r7, sp, #0
 240              		.cfi_def_cfa_register 7
 241 0006 F860     		str	r0, [r7, #12]
 242 0008 B960     		str	r1, [r7, #8]
 243 000a 7A60     		str	r2, [r7, #4]
 909:Generated_Source\PSoC6\pdl\drivers\peripheral\gpio/cy_gpio.h ****     uint32_t tempReg;
 910:Generated_Source\PSoC6\pdl\drivers\peripheral\gpio/cy_gpio.h ****     uint32_t pinLoc;
 911:Generated_Source\PSoC6\pdl\drivers\peripheral\gpio/cy_gpio.h **** 
 912:Generated_Source\PSoC6\pdl\drivers\peripheral\gpio/cy_gpio.h ****     CY_ASSERT_L2(CY_GPIO_IS_PIN_VALID(pinNum));
 244              		.loc 1 912 0
 245 000c BB68     		ldr	r3, [r7, #8]
 246 000e 072B     		cmp	r3, #7
 247 0010 04D9     		bls	.L18
 248              		.loc 1 912 0 is_stmt 0 discriminator 1
 249 0012 4FF46471 		mov	r1, #912
 250 0016 1348     		ldr	r0, .L20
 251 0018 FFF7FEFF 		bl	Cy_SysLib_AssertFailed
 252              	.L18:
 913:Generated_Source\PSoC6\pdl\drivers\peripheral\gpio/cy_gpio.h ****     CY_ASSERT_L2(CY_GPIO_IS_DM_VALID(value));
 253              		.loc 1 913 0 is_stmt 1
 254 001c 7B68     		ldr	r3, [r7, #4]
 255 001e 23F00F03 		bic	r3, r3, #15
 256 0022 002B     		cmp	r3, #0
 257 0024 04D0     		beq	.L19
 258              		.loc 1 913 0 is_stmt 0 discriminator 1
 259 0026 40F29131 		movw	r1, #913
 260 002a 0E48     		ldr	r0, .L20
 261 002c FFF7FEFF 		bl	Cy_SysLib_AssertFailed
 262              	.L19:
 914:Generated_Source\PSoC6\pdl\drivers\peripheral\gpio/cy_gpio.h **** 
 915:Generated_Source\PSoC6\pdl\drivers\peripheral\gpio/cy_gpio.h ****     pinLoc = pinNum << CY_GPIO_DRIVE_MODE_OFFSET;
 263              		.loc 1 915 0 is_stmt 1
 264 0030 BB68     		ldr	r3, [r7, #8]
 265 0032 9B00     		lsls	r3, r3, #2
 266 0034 7B61     		str	r3, [r7, #20]
 916:Generated_Source\PSoC6\pdl\drivers\peripheral\gpio/cy_gpio.h ****     tempReg = (base->CFG & ~(CY_GPIO_CFG_DM_MASK << pinLoc));
 267              		.loc 1 916 0
 268 0036 FB68     		ldr	r3, [r7, #12]
 269 0038 9A6A     		ldr	r2, [r3, #40]
 270 003a 0F21     		movs	r1, #15
ARM GAS  C:\Users\ikomb\AppData\Local\Temp\ccAzoKUN.s 			page 22


 271 003c 7B69     		ldr	r3, [r7, #20]
 272 003e 01FA03F3 		lsl	r3, r1, r3
 273 0042 DB43     		mvns	r3, r3
 274 0044 1340     		ands	r3, r3, r2
 275 0046 3B61     		str	r3, [r7, #16]
 917:Generated_Source\PSoC6\pdl\drivers\peripheral\gpio/cy_gpio.h ****     base->CFG = tempReg | ((value & CY_GPIO_CFG_DM_MASK) << pinLoc);
 276              		.loc 1 917 0
 277 0048 7B68     		ldr	r3, [r7, #4]
 278 004a 03F00F02 		and	r2, r3, #15
 279 004e 7B69     		ldr	r3, [r7, #20]
 280 0050 9A40     		lsls	r2, r2, r3
 281 0052 3B69     		ldr	r3, [r7, #16]
 282 0054 1A43     		orrs	r2, r2, r3
 283 0056 FB68     		ldr	r3, [r7, #12]
 284 0058 9A62     		str	r2, [r3, #40]
 918:Generated_Source\PSoC6\pdl\drivers\peripheral\gpio/cy_gpio.h **** }
 285              		.loc 1 918 0
 286 005a 00BF     		nop
 287 005c 1837     		adds	r7, r7, #24
 288              		.cfi_def_cfa_offset 8
 289 005e BD46     		mov	sp, r7
 290              		.cfi_def_cfa_register 13
 291              		@ sp needed
 292 0060 80BD     		pop	{r7, pc}
 293              	.L21:
 294 0062 00BF     		.align	2
 295              	.L20:
 296 0064 00000000 		.word	.LC0
 297              		.cfi_endproc
 298              	.LFE134:
 299              		.size	Cy_GPIO_SetDrivemode, .-Cy_GPIO_SetDrivemode
 300              		.section	.text.Cy_GPIO_SetVtrip,"ax",%progbits
 301              		.align	2
 302              		.thumb
 303              		.thumb_func
 304              		.type	Cy_GPIO_SetVtrip, %function
 305              	Cy_GPIO_SetVtrip:
 306              	.LFB136:
 919:Generated_Source\PSoC6\pdl\drivers\peripheral\gpio/cy_gpio.h **** 
 920:Generated_Source\PSoC6\pdl\drivers\peripheral\gpio/cy_gpio.h **** 
 921:Generated_Source\PSoC6\pdl\drivers\peripheral\gpio/cy_gpio.h **** /*******************************************************************************
 922:Generated_Source\PSoC6\pdl\drivers\peripheral\gpio/cy_gpio.h **** * Function Name: Cy_GPIO_GetDrivemode
 923:Generated_Source\PSoC6\pdl\drivers\peripheral\gpio/cy_gpio.h **** ****************************************************************************//**
 924:Generated_Source\PSoC6\pdl\drivers\peripheral\gpio/cy_gpio.h **** *
 925:Generated_Source\PSoC6\pdl\drivers\peripheral\gpio/cy_gpio.h **** * \brief Returns the pin output buffer drive mode and input buffer enable state.
 926:Generated_Source\PSoC6\pdl\drivers\peripheral\gpio/cy_gpio.h **** *
 927:Generated_Source\PSoC6\pdl\drivers\peripheral\gpio/cy_gpio.h **** * \param base
 928:Generated_Source\PSoC6\pdl\drivers\peripheral\gpio/cy_gpio.h **** * Pointer to the pin's port register base address
 929:Generated_Source\PSoC6\pdl\drivers\peripheral\gpio/cy_gpio.h **** *
 930:Generated_Source\PSoC6\pdl\drivers\peripheral\gpio/cy_gpio.h **** * \param pinNum
 931:Generated_Source\PSoC6\pdl\drivers\peripheral\gpio/cy_gpio.h **** * Position of the pin bit-field within the port register
 932:Generated_Source\PSoC6\pdl\drivers\peripheral\gpio/cy_gpio.h **** *
 933:Generated_Source\PSoC6\pdl\drivers\peripheral\gpio/cy_gpio.h **** * \return
 934:Generated_Source\PSoC6\pdl\drivers\peripheral\gpio/cy_gpio.h **** * Pin drive mode. Options are detailed in \ref group_gpio_driveModes macros
 935:Generated_Source\PSoC6\pdl\drivers\peripheral\gpio/cy_gpio.h **** *
 936:Generated_Source\PSoC6\pdl\drivers\peripheral\gpio/cy_gpio.h **** * \funcusage
 937:Generated_Source\PSoC6\pdl\drivers\peripheral\gpio/cy_gpio.h **** * \snippet gpio/gpio_v1_10_sut_01.cydsn/main_cm4.c snippet_Cy_GPIO_SetDrivemode
ARM GAS  C:\Users\ikomb\AppData\Local\Temp\ccAzoKUN.s 			page 23


 938:Generated_Source\PSoC6\pdl\drivers\peripheral\gpio/cy_gpio.h **** *
 939:Generated_Source\PSoC6\pdl\drivers\peripheral\gpio/cy_gpio.h **** *******************************************************************************/
 940:Generated_Source\PSoC6\pdl\drivers\peripheral\gpio/cy_gpio.h **** __STATIC_INLINE uint32_t Cy_GPIO_GetDrivemode(GPIO_PRT_Type* base, uint32_t pinNum)
 941:Generated_Source\PSoC6\pdl\drivers\peripheral\gpio/cy_gpio.h **** {
 942:Generated_Source\PSoC6\pdl\drivers\peripheral\gpio/cy_gpio.h ****     CY_ASSERT_L2(CY_GPIO_IS_PIN_VALID(pinNum));
 943:Generated_Source\PSoC6\pdl\drivers\peripheral\gpio/cy_gpio.h ****     
 944:Generated_Source\PSoC6\pdl\drivers\peripheral\gpio/cy_gpio.h ****     return (base->CFG >> (pinNum << CY_GPIO_DRIVE_MODE_OFFSET)) & CY_GPIO_CFG_DM_MASK;
 945:Generated_Source\PSoC6\pdl\drivers\peripheral\gpio/cy_gpio.h **** }
 946:Generated_Source\PSoC6\pdl\drivers\peripheral\gpio/cy_gpio.h **** 
 947:Generated_Source\PSoC6\pdl\drivers\peripheral\gpio/cy_gpio.h **** 
 948:Generated_Source\PSoC6\pdl\drivers\peripheral\gpio/cy_gpio.h **** /*******************************************************************************
 949:Generated_Source\PSoC6\pdl\drivers\peripheral\gpio/cy_gpio.h **** * Function Name: Cy_GPIO_SetVtrip
 950:Generated_Source\PSoC6\pdl\drivers\peripheral\gpio/cy_gpio.h **** ****************************************************************************//**
 951:Generated_Source\PSoC6\pdl\drivers\peripheral\gpio/cy_gpio.h **** *
 952:Generated_Source\PSoC6\pdl\drivers\peripheral\gpio/cy_gpio.h **** * \brief Configures the GPIO pin input buffer voltage threshold mode.
 953:Generated_Source\PSoC6\pdl\drivers\peripheral\gpio/cy_gpio.h **** *
 954:Generated_Source\PSoC6\pdl\drivers\peripheral\gpio/cy_gpio.h **** * \param base
 955:Generated_Source\PSoC6\pdl\drivers\peripheral\gpio/cy_gpio.h **** * Pointer to the pin's port register base address
 956:Generated_Source\PSoC6\pdl\drivers\peripheral\gpio/cy_gpio.h **** *
 957:Generated_Source\PSoC6\pdl\drivers\peripheral\gpio/cy_gpio.h **** * \param pinNum
 958:Generated_Source\PSoC6\pdl\drivers\peripheral\gpio/cy_gpio.h **** * Position of the pin bit-field within the port register
 959:Generated_Source\PSoC6\pdl\drivers\peripheral\gpio/cy_gpio.h **** *
 960:Generated_Source\PSoC6\pdl\drivers\peripheral\gpio/cy_gpio.h **** * \param value
 961:Generated_Source\PSoC6\pdl\drivers\peripheral\gpio/cy_gpio.h **** * Pin voltage threshold mode. Options are detailed in \ref group_gpio_vtrip macros
 962:Generated_Source\PSoC6\pdl\drivers\peripheral\gpio/cy_gpio.h **** *
 963:Generated_Source\PSoC6\pdl\drivers\peripheral\gpio/cy_gpio.h **** * \return
 964:Generated_Source\PSoC6\pdl\drivers\peripheral\gpio/cy_gpio.h **** * void
 965:Generated_Source\PSoC6\pdl\drivers\peripheral\gpio/cy_gpio.h **** *
 966:Generated_Source\PSoC6\pdl\drivers\peripheral\gpio/cy_gpio.h **** * \note 
 967:Generated_Source\PSoC6\pdl\drivers\peripheral\gpio/cy_gpio.h **** * This function modifies a port register in a read-modify-write operation. It is
 968:Generated_Source\PSoC6\pdl\drivers\peripheral\gpio/cy_gpio.h **** * not thread safe as the resource is shared among multiple pins on a port.
 969:Generated_Source\PSoC6\pdl\drivers\peripheral\gpio/cy_gpio.h **** *
 970:Generated_Source\PSoC6\pdl\drivers\peripheral\gpio/cy_gpio.h **** * \funcusage
 971:Generated_Source\PSoC6\pdl\drivers\peripheral\gpio/cy_gpio.h **** * \snippet gpio/gpio_v1_10_sut_01.cydsn/main_cm4.c snippet_Cy_GPIO_SetVtrip
 972:Generated_Source\PSoC6\pdl\drivers\peripheral\gpio/cy_gpio.h **** *
 973:Generated_Source\PSoC6\pdl\drivers\peripheral\gpio/cy_gpio.h **** *******************************************************************************/
 974:Generated_Source\PSoC6\pdl\drivers\peripheral\gpio/cy_gpio.h **** __STATIC_INLINE void Cy_GPIO_SetVtrip(GPIO_PRT_Type* base, uint32_t pinNum, uint32_t value)
 975:Generated_Source\PSoC6\pdl\drivers\peripheral\gpio/cy_gpio.h **** {
 307              		.loc 1 975 0
 308              		.cfi_startproc
 309              		@ args = 0, pretend = 0, frame = 24
 310              		@ frame_needed = 1, uses_anonymous_args = 0
 311 0000 80B5     		push	{r7, lr}
 312              		.cfi_def_cfa_offset 8
 313              		.cfi_offset 7, -8
 314              		.cfi_offset 14, -4
 315 0002 86B0     		sub	sp, sp, #24
 316              		.cfi_def_cfa_offset 32
 317 0004 00AF     		add	r7, sp, #0
 318              		.cfi_def_cfa_register 7
 319 0006 F860     		str	r0, [r7, #12]
 320 0008 B960     		str	r1, [r7, #8]
 321 000a 7A60     		str	r2, [r7, #4]
 976:Generated_Source\PSoC6\pdl\drivers\peripheral\gpio/cy_gpio.h ****     uint32_t tempReg;
 977:Generated_Source\PSoC6\pdl\drivers\peripheral\gpio/cy_gpio.h **** 
 978:Generated_Source\PSoC6\pdl\drivers\peripheral\gpio/cy_gpio.h ****     CY_ASSERT_L2(CY_GPIO_IS_PIN_VALID(pinNum));
 322              		.loc 1 978 0
ARM GAS  C:\Users\ikomb\AppData\Local\Temp\ccAzoKUN.s 			page 24


 323 000c BB68     		ldr	r3, [r7, #8]
 324 000e 072B     		cmp	r3, #7
 325 0010 04D9     		bls	.L23
 326              		.loc 1 978 0 is_stmt 0 discriminator 1
 327 0012 40F2D231 		movw	r1, #978
 328 0016 1048     		ldr	r0, .L25
 329 0018 FFF7FEFF 		bl	Cy_SysLib_AssertFailed
 330              	.L23:
 979:Generated_Source\PSoC6\pdl\drivers\peripheral\gpio/cy_gpio.h ****     CY_ASSERT_L2(CY_GPIO_IS_VALUE_VALID(value));
 331              		.loc 1 979 0 is_stmt 1
 332 001c 7B68     		ldr	r3, [r7, #4]
 333 001e 012B     		cmp	r3, #1
 334 0020 04D9     		bls	.L24
 335              		.loc 1 979 0 is_stmt 0 discriminator 1
 336 0022 40F2D331 		movw	r1, #979
 337 0026 0C48     		ldr	r0, .L25
 338 0028 FFF7FEFF 		bl	Cy_SysLib_AssertFailed
 339              	.L24:
 980:Generated_Source\PSoC6\pdl\drivers\peripheral\gpio/cy_gpio.h **** 
 981:Generated_Source\PSoC6\pdl\drivers\peripheral\gpio/cy_gpio.h ****     tempReg = base->CFG_IN & ~(CY_GPIO_CFG_IN_VTRIP_SEL_MASK << pinNum);
 340              		.loc 1 981 0 is_stmt 1
 341 002c FB68     		ldr	r3, [r7, #12]
 342 002e DA6A     		ldr	r2, [r3, #44]
 343 0030 0121     		movs	r1, #1
 344 0032 BB68     		ldr	r3, [r7, #8]
 345 0034 01FA03F3 		lsl	r3, r1, r3
 346 0038 DB43     		mvns	r3, r3
 347 003a 1340     		ands	r3, r3, r2
 348 003c 7B61     		str	r3, [r7, #20]
 982:Generated_Source\PSoC6\pdl\drivers\peripheral\gpio/cy_gpio.h ****     base->CFG_IN = tempReg | ((value & CY_GPIO_CFG_IN_VTRIP_SEL_MASK) << pinNum);
 349              		.loc 1 982 0
 350 003e 7B68     		ldr	r3, [r7, #4]
 351 0040 03F00102 		and	r2, r3, #1
 352 0044 BB68     		ldr	r3, [r7, #8]
 353 0046 9A40     		lsls	r2, r2, r3
 354 0048 7B69     		ldr	r3, [r7, #20]
 355 004a 1A43     		orrs	r2, r2, r3
 356 004c FB68     		ldr	r3, [r7, #12]
 357 004e DA62     		str	r2, [r3, #44]
 983:Generated_Source\PSoC6\pdl\drivers\peripheral\gpio/cy_gpio.h **** }
 358              		.loc 1 983 0
 359 0050 00BF     		nop
 360 0052 1837     		adds	r7, r7, #24
 361              		.cfi_def_cfa_offset 8
 362 0054 BD46     		mov	sp, r7
 363              		.cfi_def_cfa_register 13
 364              		@ sp needed
 365 0056 80BD     		pop	{r7, pc}
 366              	.L26:
 367              		.align	2
 368              	.L25:
 369 0058 00000000 		.word	.LC0
 370              		.cfi_endproc
 371              	.LFE136:
 372              		.size	Cy_GPIO_SetVtrip, .-Cy_GPIO_SetVtrip
 373              		.section	.text.Cy_GPIO_SetInterruptMask,"ax",%progbits
 374              		.align	2
ARM GAS  C:\Users\ikomb\AppData\Local\Temp\ccAzoKUN.s 			page 25


 375              		.thumb
 376              		.thumb_func
 377              		.type	Cy_GPIO_SetInterruptMask, %function
 378              	Cy_GPIO_SetInterruptMask:
 379              	.LFB154:
 984:Generated_Source\PSoC6\pdl\drivers\peripheral\gpio/cy_gpio.h **** 
 985:Generated_Source\PSoC6\pdl\drivers\peripheral\gpio/cy_gpio.h **** 
 986:Generated_Source\PSoC6\pdl\drivers\peripheral\gpio/cy_gpio.h **** /*******************************************************************************
 987:Generated_Source\PSoC6\pdl\drivers\peripheral\gpio/cy_gpio.h **** * Function Name: Cy_GPIO_GetVtrip
 988:Generated_Source\PSoC6\pdl\drivers\peripheral\gpio/cy_gpio.h **** ****************************************************************************//**
 989:Generated_Source\PSoC6\pdl\drivers\peripheral\gpio/cy_gpio.h **** *
 990:Generated_Source\PSoC6\pdl\drivers\peripheral\gpio/cy_gpio.h **** * \brief Returns the pin input buffer voltage threshold mode.
 991:Generated_Source\PSoC6\pdl\drivers\peripheral\gpio/cy_gpio.h **** *
 992:Generated_Source\PSoC6\pdl\drivers\peripheral\gpio/cy_gpio.h **** * \param base
 993:Generated_Source\PSoC6\pdl\drivers\peripheral\gpio/cy_gpio.h **** * Pointer to the pin's port register base address
 994:Generated_Source\PSoC6\pdl\drivers\peripheral\gpio/cy_gpio.h **** *
 995:Generated_Source\PSoC6\pdl\drivers\peripheral\gpio/cy_gpio.h **** * \param pinNum
 996:Generated_Source\PSoC6\pdl\drivers\peripheral\gpio/cy_gpio.h **** * Position of the pin bit-field within the port register
 997:Generated_Source\PSoC6\pdl\drivers\peripheral\gpio/cy_gpio.h **** *
 998:Generated_Source\PSoC6\pdl\drivers\peripheral\gpio/cy_gpio.h **** * \return
 999:Generated_Source\PSoC6\pdl\drivers\peripheral\gpio/cy_gpio.h **** * Pin voltage threshold mode. Options are detailed in \ref group_gpio_vtrip macros
1000:Generated_Source\PSoC6\pdl\drivers\peripheral\gpio/cy_gpio.h **** *
1001:Generated_Source\PSoC6\pdl\drivers\peripheral\gpio/cy_gpio.h **** * \funcusage
1002:Generated_Source\PSoC6\pdl\drivers\peripheral\gpio/cy_gpio.h **** * \snippet gpio/gpio_v1_10_sut_01.cydsn/main_cm4.c snippet_Cy_GPIO_SetVtrip
1003:Generated_Source\PSoC6\pdl\drivers\peripheral\gpio/cy_gpio.h **** *
1004:Generated_Source\PSoC6\pdl\drivers\peripheral\gpio/cy_gpio.h **** *******************************************************************************/
1005:Generated_Source\PSoC6\pdl\drivers\peripheral\gpio/cy_gpio.h **** __STATIC_INLINE uint32_t Cy_GPIO_GetVtrip(GPIO_PRT_Type* base, uint32_t pinNum)
1006:Generated_Source\PSoC6\pdl\drivers\peripheral\gpio/cy_gpio.h **** {
1007:Generated_Source\PSoC6\pdl\drivers\peripheral\gpio/cy_gpio.h ****     CY_ASSERT_L2(CY_GPIO_IS_PIN_VALID(pinNum));
1008:Generated_Source\PSoC6\pdl\drivers\peripheral\gpio/cy_gpio.h ****     
1009:Generated_Source\PSoC6\pdl\drivers\peripheral\gpio/cy_gpio.h ****     return (base->CFG_IN >> pinNum) & CY_GPIO_CFG_IN_VTRIP_SEL_MASK;
1010:Generated_Source\PSoC6\pdl\drivers\peripheral\gpio/cy_gpio.h **** }
1011:Generated_Source\PSoC6\pdl\drivers\peripheral\gpio/cy_gpio.h **** 
1012:Generated_Source\PSoC6\pdl\drivers\peripheral\gpio/cy_gpio.h **** 
1013:Generated_Source\PSoC6\pdl\drivers\peripheral\gpio/cy_gpio.h **** /*******************************************************************************
1014:Generated_Source\PSoC6\pdl\drivers\peripheral\gpio/cy_gpio.h **** * Function Name: Cy_GPIO_SetSlewRate
1015:Generated_Source\PSoC6\pdl\drivers\peripheral\gpio/cy_gpio.h **** ****************************************************************************//**
1016:Generated_Source\PSoC6\pdl\drivers\peripheral\gpio/cy_gpio.h **** *
1017:Generated_Source\PSoC6\pdl\drivers\peripheral\gpio/cy_gpio.h **** * \brief Configures the pin output buffer slew rate.
1018:Generated_Source\PSoC6\pdl\drivers\peripheral\gpio/cy_gpio.h **** *
1019:Generated_Source\PSoC6\pdl\drivers\peripheral\gpio/cy_gpio.h **** * \param base
1020:Generated_Source\PSoC6\pdl\drivers\peripheral\gpio/cy_gpio.h **** * Pointer to the pin's port register base address
1021:Generated_Source\PSoC6\pdl\drivers\peripheral\gpio/cy_gpio.h **** *
1022:Generated_Source\PSoC6\pdl\drivers\peripheral\gpio/cy_gpio.h **** * \param pinNum
1023:Generated_Source\PSoC6\pdl\drivers\peripheral\gpio/cy_gpio.h **** * Position of the pin bit-field within the port register
1024:Generated_Source\PSoC6\pdl\drivers\peripheral\gpio/cy_gpio.h **** *
1025:Generated_Source\PSoC6\pdl\drivers\peripheral\gpio/cy_gpio.h **** * \param value
1026:Generated_Source\PSoC6\pdl\drivers\peripheral\gpio/cy_gpio.h **** * Pin slew rate. Options are detailed in \ref group_gpio_slewRate macros
1027:Generated_Source\PSoC6\pdl\drivers\peripheral\gpio/cy_gpio.h **** *
1028:Generated_Source\PSoC6\pdl\drivers\peripheral\gpio/cy_gpio.h **** * \return
1029:Generated_Source\PSoC6\pdl\drivers\peripheral\gpio/cy_gpio.h **** * void
1030:Generated_Source\PSoC6\pdl\drivers\peripheral\gpio/cy_gpio.h **** *
1031:Generated_Source\PSoC6\pdl\drivers\peripheral\gpio/cy_gpio.h **** * \note 
1032:Generated_Source\PSoC6\pdl\drivers\peripheral\gpio/cy_gpio.h **** * This function modifies a port register in a read-modify-write operation. It is
1033:Generated_Source\PSoC6\pdl\drivers\peripheral\gpio/cy_gpio.h **** * not thread safe as the resource is shared among multiple pins on a port.
1034:Generated_Source\PSoC6\pdl\drivers\peripheral\gpio/cy_gpio.h **** *
1035:Generated_Source\PSoC6\pdl\drivers\peripheral\gpio/cy_gpio.h **** * \funcusage
ARM GAS  C:\Users\ikomb\AppData\Local\Temp\ccAzoKUN.s 			page 26


1036:Generated_Source\PSoC6\pdl\drivers\peripheral\gpio/cy_gpio.h **** * \snippet gpio/gpio_v1_10_sut_01.cydsn/main_cm4.c snippet_Cy_GPIO_SetSlewRate
1037:Generated_Source\PSoC6\pdl\drivers\peripheral\gpio/cy_gpio.h **** *
1038:Generated_Source\PSoC6\pdl\drivers\peripheral\gpio/cy_gpio.h **** *******************************************************************************/
1039:Generated_Source\PSoC6\pdl\drivers\peripheral\gpio/cy_gpio.h **** __STATIC_INLINE void Cy_GPIO_SetSlewRate(GPIO_PRT_Type* base, uint32_t pinNum, uint32_t value)
1040:Generated_Source\PSoC6\pdl\drivers\peripheral\gpio/cy_gpio.h **** {
1041:Generated_Source\PSoC6\pdl\drivers\peripheral\gpio/cy_gpio.h ****     uint32_t tempReg;
1042:Generated_Source\PSoC6\pdl\drivers\peripheral\gpio/cy_gpio.h **** 
1043:Generated_Source\PSoC6\pdl\drivers\peripheral\gpio/cy_gpio.h ****     CY_ASSERT_L2(CY_GPIO_IS_PIN_VALID(pinNum));
1044:Generated_Source\PSoC6\pdl\drivers\peripheral\gpio/cy_gpio.h ****     CY_ASSERT_L2(CY_GPIO_IS_VALUE_VALID(value));
1045:Generated_Source\PSoC6\pdl\drivers\peripheral\gpio/cy_gpio.h **** 
1046:Generated_Source\PSoC6\pdl\drivers\peripheral\gpio/cy_gpio.h ****     tempReg = base->CFG_OUT & ~(CY_GPIO_CFG_OUT_SLOW_MASK << pinNum);
1047:Generated_Source\PSoC6\pdl\drivers\peripheral\gpio/cy_gpio.h ****     base->CFG_OUT = tempReg | ((value & CY_GPIO_CFG_OUT_SLOW_MASK) << pinNum);
1048:Generated_Source\PSoC6\pdl\drivers\peripheral\gpio/cy_gpio.h **** }
1049:Generated_Source\PSoC6\pdl\drivers\peripheral\gpio/cy_gpio.h **** 
1050:Generated_Source\PSoC6\pdl\drivers\peripheral\gpio/cy_gpio.h **** 
1051:Generated_Source\PSoC6\pdl\drivers\peripheral\gpio/cy_gpio.h **** /*******************************************************************************
1052:Generated_Source\PSoC6\pdl\drivers\peripheral\gpio/cy_gpio.h **** * Function Name: Cy_GPIO_GetSlewRate
1053:Generated_Source\PSoC6\pdl\drivers\peripheral\gpio/cy_gpio.h **** ****************************************************************************//**
1054:Generated_Source\PSoC6\pdl\drivers\peripheral\gpio/cy_gpio.h **** *
1055:Generated_Source\PSoC6\pdl\drivers\peripheral\gpio/cy_gpio.h **** * \brief Returns the pin output buffer slew rate.
1056:Generated_Source\PSoC6\pdl\drivers\peripheral\gpio/cy_gpio.h **** *
1057:Generated_Source\PSoC6\pdl\drivers\peripheral\gpio/cy_gpio.h **** * \param base
1058:Generated_Source\PSoC6\pdl\drivers\peripheral\gpio/cy_gpio.h **** * Pointer to the pin's port register base address
1059:Generated_Source\PSoC6\pdl\drivers\peripheral\gpio/cy_gpio.h **** *
1060:Generated_Source\PSoC6\pdl\drivers\peripheral\gpio/cy_gpio.h **** * \param pinNum
1061:Generated_Source\PSoC6\pdl\drivers\peripheral\gpio/cy_gpio.h **** * Position of the pin bit-field within the port register
1062:Generated_Source\PSoC6\pdl\drivers\peripheral\gpio/cy_gpio.h **** *
1063:Generated_Source\PSoC6\pdl\drivers\peripheral\gpio/cy_gpio.h **** * \return
1064:Generated_Source\PSoC6\pdl\drivers\peripheral\gpio/cy_gpio.h **** * Pin slew rate. Options are detailed in \ref group_gpio_slewRate macros
1065:Generated_Source\PSoC6\pdl\drivers\peripheral\gpio/cy_gpio.h **** *
1066:Generated_Source\PSoC6\pdl\drivers\peripheral\gpio/cy_gpio.h **** * \funcusage
1067:Generated_Source\PSoC6\pdl\drivers\peripheral\gpio/cy_gpio.h **** * \snippet gpio/gpio_v1_10_sut_01.cydsn/main_cm4.c snippet_Cy_GPIO_SetSlewRate
1068:Generated_Source\PSoC6\pdl\drivers\peripheral\gpio/cy_gpio.h **** *
1069:Generated_Source\PSoC6\pdl\drivers\peripheral\gpio/cy_gpio.h **** *******************************************************************************/
1070:Generated_Source\PSoC6\pdl\drivers\peripheral\gpio/cy_gpio.h **** __STATIC_INLINE uint32_t Cy_GPIO_GetSlewRate(GPIO_PRT_Type* base, uint32_t pinNum)
1071:Generated_Source\PSoC6\pdl\drivers\peripheral\gpio/cy_gpio.h **** {
1072:Generated_Source\PSoC6\pdl\drivers\peripheral\gpio/cy_gpio.h ****     CY_ASSERT_L2(CY_GPIO_IS_PIN_VALID(pinNum));
1073:Generated_Source\PSoC6\pdl\drivers\peripheral\gpio/cy_gpio.h **** 
1074:Generated_Source\PSoC6\pdl\drivers\peripheral\gpio/cy_gpio.h ****     return (base->CFG_OUT >> pinNum) & CY_GPIO_CFG_OUT_SLOW_MASK;
1075:Generated_Source\PSoC6\pdl\drivers\peripheral\gpio/cy_gpio.h **** }
1076:Generated_Source\PSoC6\pdl\drivers\peripheral\gpio/cy_gpio.h **** 
1077:Generated_Source\PSoC6\pdl\drivers\peripheral\gpio/cy_gpio.h **** 
1078:Generated_Source\PSoC6\pdl\drivers\peripheral\gpio/cy_gpio.h **** /*******************************************************************************
1079:Generated_Source\PSoC6\pdl\drivers\peripheral\gpio/cy_gpio.h **** * Function Name: Cy_GPIO_SetDriveSel
1080:Generated_Source\PSoC6\pdl\drivers\peripheral\gpio/cy_gpio.h **** ****************************************************************************//**
1081:Generated_Source\PSoC6\pdl\drivers\peripheral\gpio/cy_gpio.h **** *
1082:Generated_Source\PSoC6\pdl\drivers\peripheral\gpio/cy_gpio.h **** * \brief Configures the pin output buffer drive strength.
1083:Generated_Source\PSoC6\pdl\drivers\peripheral\gpio/cy_gpio.h **** *
1084:Generated_Source\PSoC6\pdl\drivers\peripheral\gpio/cy_gpio.h **** * \param base
1085:Generated_Source\PSoC6\pdl\drivers\peripheral\gpio/cy_gpio.h **** * Pointer to the pin's port register base address
1086:Generated_Source\PSoC6\pdl\drivers\peripheral\gpio/cy_gpio.h **** *
1087:Generated_Source\PSoC6\pdl\drivers\peripheral\gpio/cy_gpio.h **** * \param pinNum
1088:Generated_Source\PSoC6\pdl\drivers\peripheral\gpio/cy_gpio.h **** * Position of the pin bit-field within the port register
1089:Generated_Source\PSoC6\pdl\drivers\peripheral\gpio/cy_gpio.h **** *
1090:Generated_Source\PSoC6\pdl\drivers\peripheral\gpio/cy_gpio.h **** * \param value
1091:Generated_Source\PSoC6\pdl\drivers\peripheral\gpio/cy_gpio.h **** * Pin drive strength. Options are detailed in \ref group_gpio_driveStrength macros
1092:Generated_Source\PSoC6\pdl\drivers\peripheral\gpio/cy_gpio.h **** *
ARM GAS  C:\Users\ikomb\AppData\Local\Temp\ccAzoKUN.s 			page 27


1093:Generated_Source\PSoC6\pdl\drivers\peripheral\gpio/cy_gpio.h **** * \return
1094:Generated_Source\PSoC6\pdl\drivers\peripheral\gpio/cy_gpio.h **** * void
1095:Generated_Source\PSoC6\pdl\drivers\peripheral\gpio/cy_gpio.h **** *
1096:Generated_Source\PSoC6\pdl\drivers\peripheral\gpio/cy_gpio.h **** * \note 
1097:Generated_Source\PSoC6\pdl\drivers\peripheral\gpio/cy_gpio.h **** * This function modifies a port register in a read-modify-write operation. It is
1098:Generated_Source\PSoC6\pdl\drivers\peripheral\gpio/cy_gpio.h **** * not thread safe as the resource is shared among multiple pins on a port.
1099:Generated_Source\PSoC6\pdl\drivers\peripheral\gpio/cy_gpio.h **** *
1100:Generated_Source\PSoC6\pdl\drivers\peripheral\gpio/cy_gpio.h **** * \funcusage
1101:Generated_Source\PSoC6\pdl\drivers\peripheral\gpio/cy_gpio.h **** * \snippet gpio/gpio_v1_10_sut_01.cydsn/main_cm4.c snippet_Cy_GPIO_SetDriveSel
1102:Generated_Source\PSoC6\pdl\drivers\peripheral\gpio/cy_gpio.h **** *
1103:Generated_Source\PSoC6\pdl\drivers\peripheral\gpio/cy_gpio.h **** *******************************************************************************/
1104:Generated_Source\PSoC6\pdl\drivers\peripheral\gpio/cy_gpio.h **** __STATIC_INLINE void Cy_GPIO_SetDriveSel(GPIO_PRT_Type* base, uint32_t pinNum, uint32_t value)
1105:Generated_Source\PSoC6\pdl\drivers\peripheral\gpio/cy_gpio.h **** {
1106:Generated_Source\PSoC6\pdl\drivers\peripheral\gpio/cy_gpio.h ****     uint32_t tempReg;
1107:Generated_Source\PSoC6\pdl\drivers\peripheral\gpio/cy_gpio.h ****     uint32_t pinLoc;
1108:Generated_Source\PSoC6\pdl\drivers\peripheral\gpio/cy_gpio.h **** 
1109:Generated_Source\PSoC6\pdl\drivers\peripheral\gpio/cy_gpio.h ****     CY_ASSERT_L2(CY_GPIO_IS_PIN_VALID(pinNum));
1110:Generated_Source\PSoC6\pdl\drivers\peripheral\gpio/cy_gpio.h ****     CY_ASSERT_L2(CY_GPIO_IS_DRIVE_SEL_VALID(value));
1111:Generated_Source\PSoC6\pdl\drivers\peripheral\gpio/cy_gpio.h ****     
1112:Generated_Source\PSoC6\pdl\drivers\peripheral\gpio/cy_gpio.h ****     pinLoc = (uint32_t)(pinNum << 1u) + CY_GPIO_CFG_OUT_DRIVE_OFFSET;
1113:Generated_Source\PSoC6\pdl\drivers\peripheral\gpio/cy_gpio.h ****     tempReg = base->CFG_OUT & ~(CY_GPIO_CFG_OUT_DRIVE_SEL_MASK << pinLoc);
1114:Generated_Source\PSoC6\pdl\drivers\peripheral\gpio/cy_gpio.h ****     base->CFG_OUT = tempReg | ((value & CY_GPIO_CFG_OUT_DRIVE_SEL_MASK) << pinLoc);
1115:Generated_Source\PSoC6\pdl\drivers\peripheral\gpio/cy_gpio.h **** }
1116:Generated_Source\PSoC6\pdl\drivers\peripheral\gpio/cy_gpio.h **** 
1117:Generated_Source\PSoC6\pdl\drivers\peripheral\gpio/cy_gpio.h **** 
1118:Generated_Source\PSoC6\pdl\drivers\peripheral\gpio/cy_gpio.h **** /*******************************************************************************
1119:Generated_Source\PSoC6\pdl\drivers\peripheral\gpio/cy_gpio.h **** * Function Name: Cy_GPIO_GetDriveSel
1120:Generated_Source\PSoC6\pdl\drivers\peripheral\gpio/cy_gpio.h **** ****************************************************************************//**
1121:Generated_Source\PSoC6\pdl\drivers\peripheral\gpio/cy_gpio.h **** *
1122:Generated_Source\PSoC6\pdl\drivers\peripheral\gpio/cy_gpio.h **** * \brief Returns the pin output buffer drive strength.
1123:Generated_Source\PSoC6\pdl\drivers\peripheral\gpio/cy_gpio.h **** *
1124:Generated_Source\PSoC6\pdl\drivers\peripheral\gpio/cy_gpio.h **** * \param base
1125:Generated_Source\PSoC6\pdl\drivers\peripheral\gpio/cy_gpio.h **** * Pointer to the pin's port register base address
1126:Generated_Source\PSoC6\pdl\drivers\peripheral\gpio/cy_gpio.h **** *
1127:Generated_Source\PSoC6\pdl\drivers\peripheral\gpio/cy_gpio.h **** * \param pinNum
1128:Generated_Source\PSoC6\pdl\drivers\peripheral\gpio/cy_gpio.h **** * Position of the pin bit-field within the port register
1129:Generated_Source\PSoC6\pdl\drivers\peripheral\gpio/cy_gpio.h **** *
1130:Generated_Source\PSoC6\pdl\drivers\peripheral\gpio/cy_gpio.h **** * \return
1131:Generated_Source\PSoC6\pdl\drivers\peripheral\gpio/cy_gpio.h **** * Pin drive strength. Options are detailed in \ref group_gpio_driveStrength macros
1132:Generated_Source\PSoC6\pdl\drivers\peripheral\gpio/cy_gpio.h **** *
1133:Generated_Source\PSoC6\pdl\drivers\peripheral\gpio/cy_gpio.h **** * \funcusage
1134:Generated_Source\PSoC6\pdl\drivers\peripheral\gpio/cy_gpio.h **** * \snippet gpio/gpio_v1_10_sut_01.cydsn/main_cm4.c snippet_Cy_GPIO_SetDriveSel
1135:Generated_Source\PSoC6\pdl\drivers\peripheral\gpio/cy_gpio.h **** *
1136:Generated_Source\PSoC6\pdl\drivers\peripheral\gpio/cy_gpio.h **** *******************************************************************************/
1137:Generated_Source\PSoC6\pdl\drivers\peripheral\gpio/cy_gpio.h **** __STATIC_INLINE uint32_t Cy_GPIO_GetDriveSel(GPIO_PRT_Type* base, uint32_t pinNum)
1138:Generated_Source\PSoC6\pdl\drivers\peripheral\gpio/cy_gpio.h **** {
1139:Generated_Source\PSoC6\pdl\drivers\peripheral\gpio/cy_gpio.h ****     CY_ASSERT_L2(CY_GPIO_IS_PIN_VALID(pinNum));
1140:Generated_Source\PSoC6\pdl\drivers\peripheral\gpio/cy_gpio.h **** 
1141:Generated_Source\PSoC6\pdl\drivers\peripheral\gpio/cy_gpio.h ****     return ((base->CFG_OUT >> ((uint32_t)(pinNum << 1u) + CY_GPIO_CFG_OUT_DRIVE_OFFSET)) 
1142:Generated_Source\PSoC6\pdl\drivers\peripheral\gpio/cy_gpio.h ****             & CY_GPIO_CFG_OUT_DRIVE_SEL_MASK);
1143:Generated_Source\PSoC6\pdl\drivers\peripheral\gpio/cy_gpio.h **** }
1144:Generated_Source\PSoC6\pdl\drivers\peripheral\gpio/cy_gpio.h **** 
1145:Generated_Source\PSoC6\pdl\drivers\peripheral\gpio/cy_gpio.h **** /** \} group_gpio_functions_gpio */
1146:Generated_Source\PSoC6\pdl\drivers\peripheral\gpio/cy_gpio.h **** 
1147:Generated_Source\PSoC6\pdl\drivers\peripheral\gpio/cy_gpio.h **** /**
1148:Generated_Source\PSoC6\pdl\drivers\peripheral\gpio/cy_gpio.h **** * \addtogroup group_gpio_functions_sio
1149:Generated_Source\PSoC6\pdl\drivers\peripheral\gpio/cy_gpio.h **** * \{
ARM GAS  C:\Users\ikomb\AppData\Local\Temp\ccAzoKUN.s 			page 28


1150:Generated_Source\PSoC6\pdl\drivers\peripheral\gpio/cy_gpio.h **** */
1151:Generated_Source\PSoC6\pdl\drivers\peripheral\gpio/cy_gpio.h **** 
1152:Generated_Source\PSoC6\pdl\drivers\peripheral\gpio/cy_gpio.h **** /*******************************************************************************
1153:Generated_Source\PSoC6\pdl\drivers\peripheral\gpio/cy_gpio.h **** * Function Name: Cy_GPIO_SetVregEn
1154:Generated_Source\PSoC6\pdl\drivers\peripheral\gpio/cy_gpio.h **** ****************************************************************************//**
1155:Generated_Source\PSoC6\pdl\drivers\peripheral\gpio/cy_gpio.h **** *
1156:Generated_Source\PSoC6\pdl\drivers\peripheral\gpio/cy_gpio.h **** * \brief Configures the SIO pin pair output buffer regulation mode.
1157:Generated_Source\PSoC6\pdl\drivers\peripheral\gpio/cy_gpio.h **** *
1158:Generated_Source\PSoC6\pdl\drivers\peripheral\gpio/cy_gpio.h **** * Note that this function has no effect on non-SIO pins.
1159:Generated_Source\PSoC6\pdl\drivers\peripheral\gpio/cy_gpio.h **** *
1160:Generated_Source\PSoC6\pdl\drivers\peripheral\gpio/cy_gpio.h **** * \param base
1161:Generated_Source\PSoC6\pdl\drivers\peripheral\gpio/cy_gpio.h **** * Pointer to the pin's port register base address
1162:Generated_Source\PSoC6\pdl\drivers\peripheral\gpio/cy_gpio.h **** *
1163:Generated_Source\PSoC6\pdl\drivers\peripheral\gpio/cy_gpio.h **** * \param pinNum
1164:Generated_Source\PSoC6\pdl\drivers\peripheral\gpio/cy_gpio.h **** * Position of the pin bit-field within the port register
1165:Generated_Source\PSoC6\pdl\drivers\peripheral\gpio/cy_gpio.h **** *
1166:Generated_Source\PSoC6\pdl\drivers\peripheral\gpio/cy_gpio.h **** * \param value
1167:Generated_Source\PSoC6\pdl\drivers\peripheral\gpio/cy_gpio.h **** * SIO pair output buffer regulator mode. Options are detailed in \ref group_gpio_sioVreg macros
1168:Generated_Source\PSoC6\pdl\drivers\peripheral\gpio/cy_gpio.h **** *
1169:Generated_Source\PSoC6\pdl\drivers\peripheral\gpio/cy_gpio.h **** * \return
1170:Generated_Source\PSoC6\pdl\drivers\peripheral\gpio/cy_gpio.h **** * void
1171:Generated_Source\PSoC6\pdl\drivers\peripheral\gpio/cy_gpio.h **** *
1172:Generated_Source\PSoC6\pdl\drivers\peripheral\gpio/cy_gpio.h **** * \note 
1173:Generated_Source\PSoC6\pdl\drivers\peripheral\gpio/cy_gpio.h **** * This function modifies a port register in a read-modify-write operation. It is
1174:Generated_Source\PSoC6\pdl\drivers\peripheral\gpio/cy_gpio.h **** * not thread safe as the resource is shared among multiple pins on a port.
1175:Generated_Source\PSoC6\pdl\drivers\peripheral\gpio/cy_gpio.h **** *
1176:Generated_Source\PSoC6\pdl\drivers\peripheral\gpio/cy_gpio.h **** * \funcusage
1177:Generated_Source\PSoC6\pdl\drivers\peripheral\gpio/cy_gpio.h **** * \snippet gpio/gpio_v1_10_sut_01.cydsn/main_cm4.c snippet_Cy_GPIO_SetVregEn
1178:Generated_Source\PSoC6\pdl\drivers\peripheral\gpio/cy_gpio.h **** *
1179:Generated_Source\PSoC6\pdl\drivers\peripheral\gpio/cy_gpio.h **** *******************************************************************************/
1180:Generated_Source\PSoC6\pdl\drivers\peripheral\gpio/cy_gpio.h **** __STATIC_INLINE void Cy_GPIO_SetVregEn(GPIO_PRT_Type* base, uint32_t pinNum, uint32_t value)
1181:Generated_Source\PSoC6\pdl\drivers\peripheral\gpio/cy_gpio.h **** {
1182:Generated_Source\PSoC6\pdl\drivers\peripheral\gpio/cy_gpio.h ****     uint32_t tempReg;
1183:Generated_Source\PSoC6\pdl\drivers\peripheral\gpio/cy_gpio.h ****     uint32_t pinLoc;
1184:Generated_Source\PSoC6\pdl\drivers\peripheral\gpio/cy_gpio.h **** 
1185:Generated_Source\PSoC6\pdl\drivers\peripheral\gpio/cy_gpio.h ****     CY_ASSERT_L2(CY_GPIO_IS_PIN_VALID(pinNum));
1186:Generated_Source\PSoC6\pdl\drivers\peripheral\gpio/cy_gpio.h ****     CY_ASSERT_L2(CY_GPIO_IS_VALUE_VALID(value));
1187:Generated_Source\PSoC6\pdl\drivers\peripheral\gpio/cy_gpio.h **** 
1188:Generated_Source\PSoC6\pdl\drivers\peripheral\gpio/cy_gpio.h ****     pinLoc = (pinNum & CY_GPIO_SIO_ODD_PIN_MASK) << CY_GPIO_CFG_SIO_OFFSET;
1189:Generated_Source\PSoC6\pdl\drivers\peripheral\gpio/cy_gpio.h ****     tempReg = base->CFG_SIO & ~(CY_GPIO_VREG_EN_MASK << pinLoc);
1190:Generated_Source\PSoC6\pdl\drivers\peripheral\gpio/cy_gpio.h ****     base->CFG_SIO = tempReg | ((value & CY_GPIO_VREG_EN_MASK) << pinLoc);
1191:Generated_Source\PSoC6\pdl\drivers\peripheral\gpio/cy_gpio.h **** }
1192:Generated_Source\PSoC6\pdl\drivers\peripheral\gpio/cy_gpio.h **** 
1193:Generated_Source\PSoC6\pdl\drivers\peripheral\gpio/cy_gpio.h **** 
1194:Generated_Source\PSoC6\pdl\drivers\peripheral\gpio/cy_gpio.h **** /*******************************************************************************
1195:Generated_Source\PSoC6\pdl\drivers\peripheral\gpio/cy_gpio.h **** * Function Name: Cy_GPIO_GetVregEn
1196:Generated_Source\PSoC6\pdl\drivers\peripheral\gpio/cy_gpio.h **** ****************************************************************************//**
1197:Generated_Source\PSoC6\pdl\drivers\peripheral\gpio/cy_gpio.h **** *
1198:Generated_Source\PSoC6\pdl\drivers\peripheral\gpio/cy_gpio.h **** * \brief Returns the SIO pin pair output buffer regulation mode.
1199:Generated_Source\PSoC6\pdl\drivers\peripheral\gpio/cy_gpio.h **** *
1200:Generated_Source\PSoC6\pdl\drivers\peripheral\gpio/cy_gpio.h **** * Note that this function has no effect on non-SIO pins.
1201:Generated_Source\PSoC6\pdl\drivers\peripheral\gpio/cy_gpio.h **** *
1202:Generated_Source\PSoC6\pdl\drivers\peripheral\gpio/cy_gpio.h **** * \param base
1203:Generated_Source\PSoC6\pdl\drivers\peripheral\gpio/cy_gpio.h **** * Pointer to the pin's port register base address
1204:Generated_Source\PSoC6\pdl\drivers\peripheral\gpio/cy_gpio.h **** *
1205:Generated_Source\PSoC6\pdl\drivers\peripheral\gpio/cy_gpio.h **** * \param pinNum
1206:Generated_Source\PSoC6\pdl\drivers\peripheral\gpio/cy_gpio.h **** * Position of the pin bit-field within the port register
ARM GAS  C:\Users\ikomb\AppData\Local\Temp\ccAzoKUN.s 			page 29


1207:Generated_Source\PSoC6\pdl\drivers\peripheral\gpio/cy_gpio.h **** *
1208:Generated_Source\PSoC6\pdl\drivers\peripheral\gpio/cy_gpio.h **** * \return
1209:Generated_Source\PSoC6\pdl\drivers\peripheral\gpio/cy_gpio.h **** * SIO pair output buffer regulator mode. Options are detailed in \ref group_gpio_sioVreg macros
1210:Generated_Source\PSoC6\pdl\drivers\peripheral\gpio/cy_gpio.h **** *
1211:Generated_Source\PSoC6\pdl\drivers\peripheral\gpio/cy_gpio.h **** * \funcusage
1212:Generated_Source\PSoC6\pdl\drivers\peripheral\gpio/cy_gpio.h **** * \snippet gpio/gpio_v1_10_sut_01.cydsn/main_cm4.c snippet_Cy_GPIO_SetVregEn
1213:Generated_Source\PSoC6\pdl\drivers\peripheral\gpio/cy_gpio.h **** *
1214:Generated_Source\PSoC6\pdl\drivers\peripheral\gpio/cy_gpio.h **** *******************************************************************************/
1215:Generated_Source\PSoC6\pdl\drivers\peripheral\gpio/cy_gpio.h **** __STATIC_INLINE uint32_t Cy_GPIO_GetVregEn(GPIO_PRT_Type* base, uint32_t pinNum)
1216:Generated_Source\PSoC6\pdl\drivers\peripheral\gpio/cy_gpio.h **** {
1217:Generated_Source\PSoC6\pdl\drivers\peripheral\gpio/cy_gpio.h ****     CY_ASSERT_L2(CY_GPIO_IS_PIN_VALID(pinNum));
1218:Generated_Source\PSoC6\pdl\drivers\peripheral\gpio/cy_gpio.h ****     
1219:Generated_Source\PSoC6\pdl\drivers\peripheral\gpio/cy_gpio.h ****     return (base->CFG_SIO >> ((pinNum & CY_GPIO_SIO_ODD_PIN_MASK) << CY_GPIO_CFG_SIO_OFFSET)) & CY_
1220:Generated_Source\PSoC6\pdl\drivers\peripheral\gpio/cy_gpio.h **** }
1221:Generated_Source\PSoC6\pdl\drivers\peripheral\gpio/cy_gpio.h **** 
1222:Generated_Source\PSoC6\pdl\drivers\peripheral\gpio/cy_gpio.h **** 
1223:Generated_Source\PSoC6\pdl\drivers\peripheral\gpio/cy_gpio.h **** /*******************************************************************************
1224:Generated_Source\PSoC6\pdl\drivers\peripheral\gpio/cy_gpio.h **** * Function Name: Cy_GPIO_SetIbufMode
1225:Generated_Source\PSoC6\pdl\drivers\peripheral\gpio/cy_gpio.h **** ****************************************************************************//**
1226:Generated_Source\PSoC6\pdl\drivers\peripheral\gpio/cy_gpio.h **** *
1227:Generated_Source\PSoC6\pdl\drivers\peripheral\gpio/cy_gpio.h **** * \brief Configures the SIO pin pair input buffer mode.
1228:Generated_Source\PSoC6\pdl\drivers\peripheral\gpio/cy_gpio.h **** *
1229:Generated_Source\PSoC6\pdl\drivers\peripheral\gpio/cy_gpio.h **** * Note that this function has no effect on non-SIO pins.
1230:Generated_Source\PSoC6\pdl\drivers\peripheral\gpio/cy_gpio.h **** *
1231:Generated_Source\PSoC6\pdl\drivers\peripheral\gpio/cy_gpio.h **** * \param base
1232:Generated_Source\PSoC6\pdl\drivers\peripheral\gpio/cy_gpio.h **** * Pointer to the pin's port register base address
1233:Generated_Source\PSoC6\pdl\drivers\peripheral\gpio/cy_gpio.h **** *
1234:Generated_Source\PSoC6\pdl\drivers\peripheral\gpio/cy_gpio.h **** * \param pinNum
1235:Generated_Source\PSoC6\pdl\drivers\peripheral\gpio/cy_gpio.h **** * Position of the pin bit-field within the port register
1236:Generated_Source\PSoC6\pdl\drivers\peripheral\gpio/cy_gpio.h **** *
1237:Generated_Source\PSoC6\pdl\drivers\peripheral\gpio/cy_gpio.h **** * \param value
1238:Generated_Source\PSoC6\pdl\drivers\peripheral\gpio/cy_gpio.h **** * SIO pair input buffer mode. Options are detailed in \ref group_gpio_sioIbuf macros
1239:Generated_Source\PSoC6\pdl\drivers\peripheral\gpio/cy_gpio.h **** *
1240:Generated_Source\PSoC6\pdl\drivers\peripheral\gpio/cy_gpio.h **** * \return
1241:Generated_Source\PSoC6\pdl\drivers\peripheral\gpio/cy_gpio.h **** * void
1242:Generated_Source\PSoC6\pdl\drivers\peripheral\gpio/cy_gpio.h **** *
1243:Generated_Source\PSoC6\pdl\drivers\peripheral\gpio/cy_gpio.h **** * \note 
1244:Generated_Source\PSoC6\pdl\drivers\peripheral\gpio/cy_gpio.h **** * This function modifies a port register in a read-modify-write operation. It is
1245:Generated_Source\PSoC6\pdl\drivers\peripheral\gpio/cy_gpio.h **** * not thread safe as the resource is shared among multiple pins on a port.
1246:Generated_Source\PSoC6\pdl\drivers\peripheral\gpio/cy_gpio.h **** *
1247:Generated_Source\PSoC6\pdl\drivers\peripheral\gpio/cy_gpio.h **** * \funcusage
1248:Generated_Source\PSoC6\pdl\drivers\peripheral\gpio/cy_gpio.h **** * \snippet gpio/gpio_v1_10_sut_01.cydsn/main_cm4.c snippet_Cy_GPIO_SetIbufMode
1249:Generated_Source\PSoC6\pdl\drivers\peripheral\gpio/cy_gpio.h **** *
1250:Generated_Source\PSoC6\pdl\drivers\peripheral\gpio/cy_gpio.h **** *******************************************************************************/
1251:Generated_Source\PSoC6\pdl\drivers\peripheral\gpio/cy_gpio.h **** __STATIC_INLINE void Cy_GPIO_SetIbufMode(GPIO_PRT_Type* base, uint32_t pinNum, uint32_t value)
1252:Generated_Source\PSoC6\pdl\drivers\peripheral\gpio/cy_gpio.h **** {
1253:Generated_Source\PSoC6\pdl\drivers\peripheral\gpio/cy_gpio.h ****     uint32_t tempReg;
1254:Generated_Source\PSoC6\pdl\drivers\peripheral\gpio/cy_gpio.h ****     uint32_t pinLoc;
1255:Generated_Source\PSoC6\pdl\drivers\peripheral\gpio/cy_gpio.h **** 
1256:Generated_Source\PSoC6\pdl\drivers\peripheral\gpio/cy_gpio.h ****     CY_ASSERT_L2(CY_GPIO_IS_PIN_VALID(pinNum));
1257:Generated_Source\PSoC6\pdl\drivers\peripheral\gpio/cy_gpio.h ****     CY_ASSERT_L2(CY_GPIO_IS_VALUE_VALID(value));
1258:Generated_Source\PSoC6\pdl\drivers\peripheral\gpio/cy_gpio.h **** 
1259:Generated_Source\PSoC6\pdl\drivers\peripheral\gpio/cy_gpio.h ****     pinLoc = ((pinNum & CY_GPIO_SIO_ODD_PIN_MASK) << CY_GPIO_CFG_SIO_OFFSET) + CY_GPIO_IBUF_SHIFT;
1260:Generated_Source\PSoC6\pdl\drivers\peripheral\gpio/cy_gpio.h ****     tempReg = (base->CFG_SIO & ~(CY_GPIO_IBUF_MASK << pinLoc));
1261:Generated_Source\PSoC6\pdl\drivers\peripheral\gpio/cy_gpio.h ****     base->CFG_SIO = tempReg | ((value & CY_GPIO_IBUF_MASK) << pinLoc);
1262:Generated_Source\PSoC6\pdl\drivers\peripheral\gpio/cy_gpio.h **** }
1263:Generated_Source\PSoC6\pdl\drivers\peripheral\gpio/cy_gpio.h **** 
ARM GAS  C:\Users\ikomb\AppData\Local\Temp\ccAzoKUN.s 			page 30


1264:Generated_Source\PSoC6\pdl\drivers\peripheral\gpio/cy_gpio.h **** 
1265:Generated_Source\PSoC6\pdl\drivers\peripheral\gpio/cy_gpio.h **** /*******************************************************************************
1266:Generated_Source\PSoC6\pdl\drivers\peripheral\gpio/cy_gpio.h **** * Function Name: Cy_GPIO_GetIbufMode
1267:Generated_Source\PSoC6\pdl\drivers\peripheral\gpio/cy_gpio.h **** ****************************************************************************//**
1268:Generated_Source\PSoC6\pdl\drivers\peripheral\gpio/cy_gpio.h **** *
1269:Generated_Source\PSoC6\pdl\drivers\peripheral\gpio/cy_gpio.h **** * \brief Returns the SIO pin pair input buffer mode.
1270:Generated_Source\PSoC6\pdl\drivers\peripheral\gpio/cy_gpio.h **** *
1271:Generated_Source\PSoC6\pdl\drivers\peripheral\gpio/cy_gpio.h **** * Note that this function has no effect on non-SIO pins.
1272:Generated_Source\PSoC6\pdl\drivers\peripheral\gpio/cy_gpio.h **** *
1273:Generated_Source\PSoC6\pdl\drivers\peripheral\gpio/cy_gpio.h **** * \param base
1274:Generated_Source\PSoC6\pdl\drivers\peripheral\gpio/cy_gpio.h **** * Pointer to the pin's port register base address
1275:Generated_Source\PSoC6\pdl\drivers\peripheral\gpio/cy_gpio.h **** *
1276:Generated_Source\PSoC6\pdl\drivers\peripheral\gpio/cy_gpio.h **** * \param pinNum
1277:Generated_Source\PSoC6\pdl\drivers\peripheral\gpio/cy_gpio.h **** * Position of the pin bit-field within the port register
1278:Generated_Source\PSoC6\pdl\drivers\peripheral\gpio/cy_gpio.h **** *
1279:Generated_Source\PSoC6\pdl\drivers\peripheral\gpio/cy_gpio.h **** * \return
1280:Generated_Source\PSoC6\pdl\drivers\peripheral\gpio/cy_gpio.h **** * SIO pair input buffer mode. Options are detailed in \ref group_gpio_sioIbuf macros
1281:Generated_Source\PSoC6\pdl\drivers\peripheral\gpio/cy_gpio.h **** *
1282:Generated_Source\PSoC6\pdl\drivers\peripheral\gpio/cy_gpio.h **** * \funcusage
1283:Generated_Source\PSoC6\pdl\drivers\peripheral\gpio/cy_gpio.h **** * \snippet gpio/gpio_v1_10_sut_01.cydsn/main_cm4.c snippet_Cy_GPIO_SetIbufMode
1284:Generated_Source\PSoC6\pdl\drivers\peripheral\gpio/cy_gpio.h **** *
1285:Generated_Source\PSoC6\pdl\drivers\peripheral\gpio/cy_gpio.h **** *******************************************************************************/
1286:Generated_Source\PSoC6\pdl\drivers\peripheral\gpio/cy_gpio.h **** __STATIC_INLINE uint32_t Cy_GPIO_GetIbufMode(GPIO_PRT_Type* base, uint32_t pinNum)
1287:Generated_Source\PSoC6\pdl\drivers\peripheral\gpio/cy_gpio.h **** {
1288:Generated_Source\PSoC6\pdl\drivers\peripheral\gpio/cy_gpio.h ****     CY_ASSERT_L2(CY_GPIO_IS_PIN_VALID(pinNum));
1289:Generated_Source\PSoC6\pdl\drivers\peripheral\gpio/cy_gpio.h ****     
1290:Generated_Source\PSoC6\pdl\drivers\peripheral\gpio/cy_gpio.h ****     return (base->CFG_SIO >> (((pinNum & CY_GPIO_SIO_ODD_PIN_MASK) << CY_GPIO_CFG_SIO_OFFSET) + CY_
1291:Generated_Source\PSoC6\pdl\drivers\peripheral\gpio/cy_gpio.h **** }
1292:Generated_Source\PSoC6\pdl\drivers\peripheral\gpio/cy_gpio.h **** 
1293:Generated_Source\PSoC6\pdl\drivers\peripheral\gpio/cy_gpio.h **** 
1294:Generated_Source\PSoC6\pdl\drivers\peripheral\gpio/cy_gpio.h **** /*******************************************************************************
1295:Generated_Source\PSoC6\pdl\drivers\peripheral\gpio/cy_gpio.h **** * Function Name: Cy_GPIO_SetVtripSel
1296:Generated_Source\PSoC6\pdl\drivers\peripheral\gpio/cy_gpio.h **** ****************************************************************************//**
1297:Generated_Source\PSoC6\pdl\drivers\peripheral\gpio/cy_gpio.h **** *
1298:Generated_Source\PSoC6\pdl\drivers\peripheral\gpio/cy_gpio.h **** * \brief Configures the SIO pin pair input buffer trip point.
1299:Generated_Source\PSoC6\pdl\drivers\peripheral\gpio/cy_gpio.h **** *
1300:Generated_Source\PSoC6\pdl\drivers\peripheral\gpio/cy_gpio.h **** * Note that this function has no effect on non-SIO pins.
1301:Generated_Source\PSoC6\pdl\drivers\peripheral\gpio/cy_gpio.h **** *
1302:Generated_Source\PSoC6\pdl\drivers\peripheral\gpio/cy_gpio.h **** * \param base
1303:Generated_Source\PSoC6\pdl\drivers\peripheral\gpio/cy_gpio.h **** * Pointer to the pin's port register base address
1304:Generated_Source\PSoC6\pdl\drivers\peripheral\gpio/cy_gpio.h **** *
1305:Generated_Source\PSoC6\pdl\drivers\peripheral\gpio/cy_gpio.h **** * \param pinNum
1306:Generated_Source\PSoC6\pdl\drivers\peripheral\gpio/cy_gpio.h **** * Position of the pin bit-field within the port register
1307:Generated_Source\PSoC6\pdl\drivers\peripheral\gpio/cy_gpio.h **** *
1308:Generated_Source\PSoC6\pdl\drivers\peripheral\gpio/cy_gpio.h **** * \param value
1309:Generated_Source\PSoC6\pdl\drivers\peripheral\gpio/cy_gpio.h **** * SIO pair input buffer trip point. Options are detailed in \ref group_gpio_sioVtrip macros
1310:Generated_Source\PSoC6\pdl\drivers\peripheral\gpio/cy_gpio.h **** *
1311:Generated_Source\PSoC6\pdl\drivers\peripheral\gpio/cy_gpio.h **** * \return
1312:Generated_Source\PSoC6\pdl\drivers\peripheral\gpio/cy_gpio.h **** * void
1313:Generated_Source\PSoC6\pdl\drivers\peripheral\gpio/cy_gpio.h **** *
1314:Generated_Source\PSoC6\pdl\drivers\peripheral\gpio/cy_gpio.h **** * \note 
1315:Generated_Source\PSoC6\pdl\drivers\peripheral\gpio/cy_gpio.h **** * This function modifies a port register in a read-modify-write operation. It is
1316:Generated_Source\PSoC6\pdl\drivers\peripheral\gpio/cy_gpio.h **** * not thread safe as the resource is shared among multiple pins on a port.
1317:Generated_Source\PSoC6\pdl\drivers\peripheral\gpio/cy_gpio.h **** *
1318:Generated_Source\PSoC6\pdl\drivers\peripheral\gpio/cy_gpio.h **** * \funcusage
1319:Generated_Source\PSoC6\pdl\drivers\peripheral\gpio/cy_gpio.h **** * \snippet gpio/gpio_v1_10_sut_01.cydsn/main_cm4.c snippet_Cy_GPIO_SetVtripSel
1320:Generated_Source\PSoC6\pdl\drivers\peripheral\gpio/cy_gpio.h **** *
ARM GAS  C:\Users\ikomb\AppData\Local\Temp\ccAzoKUN.s 			page 31


1321:Generated_Source\PSoC6\pdl\drivers\peripheral\gpio/cy_gpio.h **** *******************************************************************************/
1322:Generated_Source\PSoC6\pdl\drivers\peripheral\gpio/cy_gpio.h **** __STATIC_INLINE void Cy_GPIO_SetVtripSel(GPIO_PRT_Type* base, uint32_t pinNum, uint32_t value)
1323:Generated_Source\PSoC6\pdl\drivers\peripheral\gpio/cy_gpio.h **** {
1324:Generated_Source\PSoC6\pdl\drivers\peripheral\gpio/cy_gpio.h ****     uint32_t tempReg;
1325:Generated_Source\PSoC6\pdl\drivers\peripheral\gpio/cy_gpio.h ****     uint32_t pinLoc;
1326:Generated_Source\PSoC6\pdl\drivers\peripheral\gpio/cy_gpio.h **** 
1327:Generated_Source\PSoC6\pdl\drivers\peripheral\gpio/cy_gpio.h ****     CY_ASSERT_L2(CY_GPIO_IS_PIN_VALID(pinNum));
1328:Generated_Source\PSoC6\pdl\drivers\peripheral\gpio/cy_gpio.h ****     CY_ASSERT_L2(CY_GPIO_IS_VALUE_VALID(value));
1329:Generated_Source\PSoC6\pdl\drivers\peripheral\gpio/cy_gpio.h **** 
1330:Generated_Source\PSoC6\pdl\drivers\peripheral\gpio/cy_gpio.h ****     pinLoc = ((pinNum & CY_GPIO_SIO_ODD_PIN_MASK) << CY_GPIO_CFG_SIO_OFFSET) + CY_GPIO_VTRIP_SEL_SH
1331:Generated_Source\PSoC6\pdl\drivers\peripheral\gpio/cy_gpio.h ****     tempReg = (base->CFG_SIO & ~(CY_GPIO_VTRIP_SEL_MASK << pinLoc));
1332:Generated_Source\PSoC6\pdl\drivers\peripheral\gpio/cy_gpio.h ****     base->CFG_SIO = tempReg | ((value & CY_GPIO_VTRIP_SEL_MASK) << pinLoc);
1333:Generated_Source\PSoC6\pdl\drivers\peripheral\gpio/cy_gpio.h **** }
1334:Generated_Source\PSoC6\pdl\drivers\peripheral\gpio/cy_gpio.h **** 
1335:Generated_Source\PSoC6\pdl\drivers\peripheral\gpio/cy_gpio.h **** 
1336:Generated_Source\PSoC6\pdl\drivers\peripheral\gpio/cy_gpio.h **** /*******************************************************************************
1337:Generated_Source\PSoC6\pdl\drivers\peripheral\gpio/cy_gpio.h **** * Function Name: Cy_GPIO_GetVtripSel
1338:Generated_Source\PSoC6\pdl\drivers\peripheral\gpio/cy_gpio.h **** ****************************************************************************//**
1339:Generated_Source\PSoC6\pdl\drivers\peripheral\gpio/cy_gpio.h **** *
1340:Generated_Source\PSoC6\pdl\drivers\peripheral\gpio/cy_gpio.h **** * \brief Returns the SIO pin pair input buffer trip point.
1341:Generated_Source\PSoC6\pdl\drivers\peripheral\gpio/cy_gpio.h **** *
1342:Generated_Source\PSoC6\pdl\drivers\peripheral\gpio/cy_gpio.h **** * Note that this function has no effect on non-SIO pins.
1343:Generated_Source\PSoC6\pdl\drivers\peripheral\gpio/cy_gpio.h **** *
1344:Generated_Source\PSoC6\pdl\drivers\peripheral\gpio/cy_gpio.h **** * \param base
1345:Generated_Source\PSoC6\pdl\drivers\peripheral\gpio/cy_gpio.h **** * Pointer to the pin's port register base address
1346:Generated_Source\PSoC6\pdl\drivers\peripheral\gpio/cy_gpio.h **** *
1347:Generated_Source\PSoC6\pdl\drivers\peripheral\gpio/cy_gpio.h **** * \param pinNum
1348:Generated_Source\PSoC6\pdl\drivers\peripheral\gpio/cy_gpio.h **** * Position of the pin bit-field within the port register
1349:Generated_Source\PSoC6\pdl\drivers\peripheral\gpio/cy_gpio.h **** *
1350:Generated_Source\PSoC6\pdl\drivers\peripheral\gpio/cy_gpio.h **** * \return
1351:Generated_Source\PSoC6\pdl\drivers\peripheral\gpio/cy_gpio.h **** * SIO pair input buffer trip point. Options are detailed in \ref group_gpio_sioVtrip macros
1352:Generated_Source\PSoC6\pdl\drivers\peripheral\gpio/cy_gpio.h **** *
1353:Generated_Source\PSoC6\pdl\drivers\peripheral\gpio/cy_gpio.h **** * \funcusage
1354:Generated_Source\PSoC6\pdl\drivers\peripheral\gpio/cy_gpio.h **** * \snippet gpio/gpio_v1_10_sut_01.cydsn/main_cm4.c snippet_Cy_GPIO_SetVtripSel
1355:Generated_Source\PSoC6\pdl\drivers\peripheral\gpio/cy_gpio.h **** *
1356:Generated_Source\PSoC6\pdl\drivers\peripheral\gpio/cy_gpio.h **** *******************************************************************************/
1357:Generated_Source\PSoC6\pdl\drivers\peripheral\gpio/cy_gpio.h **** __STATIC_INLINE uint32_t Cy_GPIO_GetVtripSel(GPIO_PRT_Type* base, uint32_t pinNum)
1358:Generated_Source\PSoC6\pdl\drivers\peripheral\gpio/cy_gpio.h **** {
1359:Generated_Source\PSoC6\pdl\drivers\peripheral\gpio/cy_gpio.h ****     CY_ASSERT_L2(CY_GPIO_IS_PIN_VALID(pinNum));
1360:Generated_Source\PSoC6\pdl\drivers\peripheral\gpio/cy_gpio.h **** 
1361:Generated_Source\PSoC6\pdl\drivers\peripheral\gpio/cy_gpio.h ****     return (base->CFG_SIO >> (((pinNum & CY_GPIO_SIO_ODD_PIN_MASK) << CY_GPIO_CFG_SIO_OFFSET) + CY_
1362:Generated_Source\PSoC6\pdl\drivers\peripheral\gpio/cy_gpio.h **** }
1363:Generated_Source\PSoC6\pdl\drivers\peripheral\gpio/cy_gpio.h **** 
1364:Generated_Source\PSoC6\pdl\drivers\peripheral\gpio/cy_gpio.h **** 
1365:Generated_Source\PSoC6\pdl\drivers\peripheral\gpio/cy_gpio.h **** /*******************************************************************************
1366:Generated_Source\PSoC6\pdl\drivers\peripheral\gpio/cy_gpio.h **** * Function Name: Cy_GPIO_SetVrefSel
1367:Generated_Source\PSoC6\pdl\drivers\peripheral\gpio/cy_gpio.h **** ****************************************************************************//**
1368:Generated_Source\PSoC6\pdl\drivers\peripheral\gpio/cy_gpio.h **** *
1369:Generated_Source\PSoC6\pdl\drivers\peripheral\gpio/cy_gpio.h **** * \brief Configures the SIO reference voltage for the input buffer trip point.
1370:Generated_Source\PSoC6\pdl\drivers\peripheral\gpio/cy_gpio.h **** *
1371:Generated_Source\PSoC6\pdl\drivers\peripheral\gpio/cy_gpio.h **** * Note that this function has no effect on non-SIO pins.
1372:Generated_Source\PSoC6\pdl\drivers\peripheral\gpio/cy_gpio.h **** *
1373:Generated_Source\PSoC6\pdl\drivers\peripheral\gpio/cy_gpio.h **** * \param base
1374:Generated_Source\PSoC6\pdl\drivers\peripheral\gpio/cy_gpio.h **** * Pointer to the pin's port register base address
1375:Generated_Source\PSoC6\pdl\drivers\peripheral\gpio/cy_gpio.h **** *
1376:Generated_Source\PSoC6\pdl\drivers\peripheral\gpio/cy_gpio.h **** * \param pinNum
1377:Generated_Source\PSoC6\pdl\drivers\peripheral\gpio/cy_gpio.h **** * Position of the pin bit-field within the port register
ARM GAS  C:\Users\ikomb\AppData\Local\Temp\ccAzoKUN.s 			page 32


1378:Generated_Source\PSoC6\pdl\drivers\peripheral\gpio/cy_gpio.h **** *
1379:Generated_Source\PSoC6\pdl\drivers\peripheral\gpio/cy_gpio.h **** * \param value
1380:Generated_Source\PSoC6\pdl\drivers\peripheral\gpio/cy_gpio.h **** * SIO pair reference voltage. Options are detailed in \ref group_gpio_sioVref macros
1381:Generated_Source\PSoC6\pdl\drivers\peripheral\gpio/cy_gpio.h **** *
1382:Generated_Source\PSoC6\pdl\drivers\peripheral\gpio/cy_gpio.h **** * \return
1383:Generated_Source\PSoC6\pdl\drivers\peripheral\gpio/cy_gpio.h **** * void
1384:Generated_Source\PSoC6\pdl\drivers\peripheral\gpio/cy_gpio.h **** *
1385:Generated_Source\PSoC6\pdl\drivers\peripheral\gpio/cy_gpio.h **** * \note 
1386:Generated_Source\PSoC6\pdl\drivers\peripheral\gpio/cy_gpio.h **** * This function modifies a port register in a read-modify-write operation. It is
1387:Generated_Source\PSoC6\pdl\drivers\peripheral\gpio/cy_gpio.h **** * not thread safe as the resource is shared among multiple pins on a port.
1388:Generated_Source\PSoC6\pdl\drivers\peripheral\gpio/cy_gpio.h **** *
1389:Generated_Source\PSoC6\pdl\drivers\peripheral\gpio/cy_gpio.h **** * \funcusage
1390:Generated_Source\PSoC6\pdl\drivers\peripheral\gpio/cy_gpio.h **** * \snippet gpio/gpio_v1_10_sut_01.cydsn/main_cm4.c snippet_Cy_GPIO_SetVrefSel
1391:Generated_Source\PSoC6\pdl\drivers\peripheral\gpio/cy_gpio.h **** *
1392:Generated_Source\PSoC6\pdl\drivers\peripheral\gpio/cy_gpio.h **** *******************************************************************************/
1393:Generated_Source\PSoC6\pdl\drivers\peripheral\gpio/cy_gpio.h **** __STATIC_INLINE void Cy_GPIO_SetVrefSel(GPIO_PRT_Type* base, uint32_t pinNum, uint32_t value)
1394:Generated_Source\PSoC6\pdl\drivers\peripheral\gpio/cy_gpio.h **** {
1395:Generated_Source\PSoC6\pdl\drivers\peripheral\gpio/cy_gpio.h ****     uint32_t tempReg;
1396:Generated_Source\PSoC6\pdl\drivers\peripheral\gpio/cy_gpio.h ****     uint32_t pinLoc;
1397:Generated_Source\PSoC6\pdl\drivers\peripheral\gpio/cy_gpio.h **** 
1398:Generated_Source\PSoC6\pdl\drivers\peripheral\gpio/cy_gpio.h ****     CY_ASSERT_L2(CY_GPIO_IS_PIN_VALID(pinNum));
1399:Generated_Source\PSoC6\pdl\drivers\peripheral\gpio/cy_gpio.h ****     CY_ASSERT_L2(CY_GPIO_IS_VREF_SEL_VALID(value));
1400:Generated_Source\PSoC6\pdl\drivers\peripheral\gpio/cy_gpio.h ****     
1401:Generated_Source\PSoC6\pdl\drivers\peripheral\gpio/cy_gpio.h ****     pinLoc = ((pinNum & CY_GPIO_SIO_ODD_PIN_MASK) << CY_GPIO_CFG_SIO_OFFSET) + CY_GPIO_VREF_SEL_SHI
1402:Generated_Source\PSoC6\pdl\drivers\peripheral\gpio/cy_gpio.h ****     tempReg = (base->CFG_SIO & ~(CY_GPIO_VREF_SEL_MASK << pinLoc));
1403:Generated_Source\PSoC6\pdl\drivers\peripheral\gpio/cy_gpio.h ****     base->CFG_SIO = tempReg | ((value & CY_GPIO_VREF_SEL_MASK) << pinLoc);
1404:Generated_Source\PSoC6\pdl\drivers\peripheral\gpio/cy_gpio.h **** }
1405:Generated_Source\PSoC6\pdl\drivers\peripheral\gpio/cy_gpio.h **** 
1406:Generated_Source\PSoC6\pdl\drivers\peripheral\gpio/cy_gpio.h **** 
1407:Generated_Source\PSoC6\pdl\drivers\peripheral\gpio/cy_gpio.h **** /*******************************************************************************
1408:Generated_Source\PSoC6\pdl\drivers\peripheral\gpio/cy_gpio.h **** * Function Name: Cy_GPIO_GetVrefSel
1409:Generated_Source\PSoC6\pdl\drivers\peripheral\gpio/cy_gpio.h **** ****************************************************************************//**
1410:Generated_Source\PSoC6\pdl\drivers\peripheral\gpio/cy_gpio.h **** *
1411:Generated_Source\PSoC6\pdl\drivers\peripheral\gpio/cy_gpio.h **** * \brief Returns the SIO reference voltage for the input buffer trip point.
1412:Generated_Source\PSoC6\pdl\drivers\peripheral\gpio/cy_gpio.h **** *
1413:Generated_Source\PSoC6\pdl\drivers\peripheral\gpio/cy_gpio.h **** * Note that this function has no effect on non-SIO pins.
1414:Generated_Source\PSoC6\pdl\drivers\peripheral\gpio/cy_gpio.h **** *
1415:Generated_Source\PSoC6\pdl\drivers\peripheral\gpio/cy_gpio.h **** * \param base
1416:Generated_Source\PSoC6\pdl\drivers\peripheral\gpio/cy_gpio.h **** * Pointer to the pin's port register base address
1417:Generated_Source\PSoC6\pdl\drivers\peripheral\gpio/cy_gpio.h **** *
1418:Generated_Source\PSoC6\pdl\drivers\peripheral\gpio/cy_gpio.h **** * \param pinNum
1419:Generated_Source\PSoC6\pdl\drivers\peripheral\gpio/cy_gpio.h **** * Position of the pin bit-field within the port register
1420:Generated_Source\PSoC6\pdl\drivers\peripheral\gpio/cy_gpio.h **** *
1421:Generated_Source\PSoC6\pdl\drivers\peripheral\gpio/cy_gpio.h **** * \return
1422:Generated_Source\PSoC6\pdl\drivers\peripheral\gpio/cy_gpio.h **** * SIO pair reference voltage. Options are detailed in \ref group_gpio_sioVref macros
1423:Generated_Source\PSoC6\pdl\drivers\peripheral\gpio/cy_gpio.h **** *
1424:Generated_Source\PSoC6\pdl\drivers\peripheral\gpio/cy_gpio.h **** * \funcusage
1425:Generated_Source\PSoC6\pdl\drivers\peripheral\gpio/cy_gpio.h **** * \snippet gpio/gpio_v1_10_sut_01.cydsn/main_cm4.c snippet_Cy_GPIO_SetVrefSel
1426:Generated_Source\PSoC6\pdl\drivers\peripheral\gpio/cy_gpio.h **** *
1427:Generated_Source\PSoC6\pdl\drivers\peripheral\gpio/cy_gpio.h **** *******************************************************************************/
1428:Generated_Source\PSoC6\pdl\drivers\peripheral\gpio/cy_gpio.h **** __STATIC_INLINE uint32_t Cy_GPIO_GetVrefSel(GPIO_PRT_Type* base, uint32_t pinNum)
1429:Generated_Source\PSoC6\pdl\drivers\peripheral\gpio/cy_gpio.h **** {
1430:Generated_Source\PSoC6\pdl\drivers\peripheral\gpio/cy_gpio.h ****     CY_ASSERT_L2(CY_GPIO_IS_PIN_VALID(pinNum));
1431:Generated_Source\PSoC6\pdl\drivers\peripheral\gpio/cy_gpio.h ****     
1432:Generated_Source\PSoC6\pdl\drivers\peripheral\gpio/cy_gpio.h ****     return (base->CFG_SIO >> (((pinNum & CY_GPIO_SIO_ODD_PIN_MASK) << CY_GPIO_CFG_SIO_OFFSET) + CY_
1433:Generated_Source\PSoC6\pdl\drivers\peripheral\gpio/cy_gpio.h **** }
1434:Generated_Source\PSoC6\pdl\drivers\peripheral\gpio/cy_gpio.h **** 
ARM GAS  C:\Users\ikomb\AppData\Local\Temp\ccAzoKUN.s 			page 33


1435:Generated_Source\PSoC6\pdl\drivers\peripheral\gpio/cy_gpio.h **** 
1436:Generated_Source\PSoC6\pdl\drivers\peripheral\gpio/cy_gpio.h **** /*******************************************************************************
1437:Generated_Source\PSoC6\pdl\drivers\peripheral\gpio/cy_gpio.h **** * Function Name: Cy_GPIO_SetVohSel
1438:Generated_Source\PSoC6\pdl\drivers\peripheral\gpio/cy_gpio.h **** ****************************************************************************//**
1439:Generated_Source\PSoC6\pdl\drivers\peripheral\gpio/cy_gpio.h **** *
1440:Generated_Source\PSoC6\pdl\drivers\peripheral\gpio/cy_gpio.h **** * \brief Configures the regulated output reference multiplier for the SIO pin pair.
1441:Generated_Source\PSoC6\pdl\drivers\peripheral\gpio/cy_gpio.h **** *
1442:Generated_Source\PSoC6\pdl\drivers\peripheral\gpio/cy_gpio.h **** * The regulated output reference controls both the output level of digital output
1443:Generated_Source\PSoC6\pdl\drivers\peripheral\gpio/cy_gpio.h **** * pin and the input trip point of digital input pin in the SIO pair.
1444:Generated_Source\PSoC6\pdl\drivers\peripheral\gpio/cy_gpio.h **** *
1445:Generated_Source\PSoC6\pdl\drivers\peripheral\gpio/cy_gpio.h **** * Note that this function has no effect on non-SIO pins.
1446:Generated_Source\PSoC6\pdl\drivers\peripheral\gpio/cy_gpio.h **** *
1447:Generated_Source\PSoC6\pdl\drivers\peripheral\gpio/cy_gpio.h **** * \param base
1448:Generated_Source\PSoC6\pdl\drivers\peripheral\gpio/cy_gpio.h **** * Pointer to the pin's port register base address
1449:Generated_Source\PSoC6\pdl\drivers\peripheral\gpio/cy_gpio.h **** *
1450:Generated_Source\PSoC6\pdl\drivers\peripheral\gpio/cy_gpio.h **** * \param pinNum
1451:Generated_Source\PSoC6\pdl\drivers\peripheral\gpio/cy_gpio.h **** * Position of the pin bit-field within the port register
1452:Generated_Source\PSoC6\pdl\drivers\peripheral\gpio/cy_gpio.h **** *
1453:Generated_Source\PSoC6\pdl\drivers\peripheral\gpio/cy_gpio.h **** * \param value
1454:Generated_Source\PSoC6\pdl\drivers\peripheral\gpio/cy_gpio.h **** * SIO pair reference voltage. Options are detailed in \ref group_gpio_sioVoh macros
1455:Generated_Source\PSoC6\pdl\drivers\peripheral\gpio/cy_gpio.h **** *
1456:Generated_Source\PSoC6\pdl\drivers\peripheral\gpio/cy_gpio.h **** * \return
1457:Generated_Source\PSoC6\pdl\drivers\peripheral\gpio/cy_gpio.h **** * void
1458:Generated_Source\PSoC6\pdl\drivers\peripheral\gpio/cy_gpio.h **** *
1459:Generated_Source\PSoC6\pdl\drivers\peripheral\gpio/cy_gpio.h **** * \note 
1460:Generated_Source\PSoC6\pdl\drivers\peripheral\gpio/cy_gpio.h **** * This function modifies a port register in a read-modify-write operation. It is
1461:Generated_Source\PSoC6\pdl\drivers\peripheral\gpio/cy_gpio.h **** * not thread safe as the resource is shared among multiple pins on a port.
1462:Generated_Source\PSoC6\pdl\drivers\peripheral\gpio/cy_gpio.h **** *
1463:Generated_Source\PSoC6\pdl\drivers\peripheral\gpio/cy_gpio.h **** * \funcusage
1464:Generated_Source\PSoC6\pdl\drivers\peripheral\gpio/cy_gpio.h **** * \snippet gpio/gpio_v1_10_sut_01.cydsn/main_cm4.c snippet_Cy_GPIO_SetVohSel
1465:Generated_Source\PSoC6\pdl\drivers\peripheral\gpio/cy_gpio.h **** *
1466:Generated_Source\PSoC6\pdl\drivers\peripheral\gpio/cy_gpio.h **** *******************************************************************************/
1467:Generated_Source\PSoC6\pdl\drivers\peripheral\gpio/cy_gpio.h **** __STATIC_INLINE void Cy_GPIO_SetVohSel(GPIO_PRT_Type* base, uint32_t pinNum, uint32_t value)
1468:Generated_Source\PSoC6\pdl\drivers\peripheral\gpio/cy_gpio.h **** {
1469:Generated_Source\PSoC6\pdl\drivers\peripheral\gpio/cy_gpio.h ****     uint32_t tempReg;
1470:Generated_Source\PSoC6\pdl\drivers\peripheral\gpio/cy_gpio.h ****     uint32_t pinLoc;
1471:Generated_Source\PSoC6\pdl\drivers\peripheral\gpio/cy_gpio.h **** 
1472:Generated_Source\PSoC6\pdl\drivers\peripheral\gpio/cy_gpio.h ****     CY_ASSERT_L2(CY_GPIO_IS_PIN_VALID(pinNum));
1473:Generated_Source\PSoC6\pdl\drivers\peripheral\gpio/cy_gpio.h ****     CY_ASSERT_L2(CY_GPIO_IS_VOH_SEL_VALID(value));
1474:Generated_Source\PSoC6\pdl\drivers\peripheral\gpio/cy_gpio.h **** 
1475:Generated_Source\PSoC6\pdl\drivers\peripheral\gpio/cy_gpio.h ****     pinLoc = ((pinNum & CY_GPIO_SIO_ODD_PIN_MASK) << CY_GPIO_CFG_SIO_OFFSET) + CY_GPIO_VOH_SEL_SHIF
1476:Generated_Source\PSoC6\pdl\drivers\peripheral\gpio/cy_gpio.h ****     tempReg = (base->CFG_SIO & ~(CY_GPIO_VOH_SEL_MASK << pinLoc));
1477:Generated_Source\PSoC6\pdl\drivers\peripheral\gpio/cy_gpio.h ****     base->CFG_SIO = tempReg | ((value & CY_GPIO_VOH_SEL_MASK) << pinLoc);
1478:Generated_Source\PSoC6\pdl\drivers\peripheral\gpio/cy_gpio.h **** }
1479:Generated_Source\PSoC6\pdl\drivers\peripheral\gpio/cy_gpio.h **** 
1480:Generated_Source\PSoC6\pdl\drivers\peripheral\gpio/cy_gpio.h **** 
1481:Generated_Source\PSoC6\pdl\drivers\peripheral\gpio/cy_gpio.h **** /*******************************************************************************
1482:Generated_Source\PSoC6\pdl\drivers\peripheral\gpio/cy_gpio.h **** * Function Name: Cy_GPIO_GetVohSel
1483:Generated_Source\PSoC6\pdl\drivers\peripheral\gpio/cy_gpio.h **** ****************************************************************************//**
1484:Generated_Source\PSoC6\pdl\drivers\peripheral\gpio/cy_gpio.h **** *
1485:Generated_Source\PSoC6\pdl\drivers\peripheral\gpio/cy_gpio.h **** * \brief Returns the regulated output reference multiplier for the SIO pin pair.
1486:Generated_Source\PSoC6\pdl\drivers\peripheral\gpio/cy_gpio.h **** *
1487:Generated_Source\PSoC6\pdl\drivers\peripheral\gpio/cy_gpio.h **** * Note that this function has no effect on non-SIO pins.
1488:Generated_Source\PSoC6\pdl\drivers\peripheral\gpio/cy_gpio.h **** *
1489:Generated_Source\PSoC6\pdl\drivers\peripheral\gpio/cy_gpio.h **** * \param base
1490:Generated_Source\PSoC6\pdl\drivers\peripheral\gpio/cy_gpio.h **** * Pointer to the pin's port register base address
1491:Generated_Source\PSoC6\pdl\drivers\peripheral\gpio/cy_gpio.h **** *
ARM GAS  C:\Users\ikomb\AppData\Local\Temp\ccAzoKUN.s 			page 34


1492:Generated_Source\PSoC6\pdl\drivers\peripheral\gpio/cy_gpio.h **** * \param pinNum
1493:Generated_Source\PSoC6\pdl\drivers\peripheral\gpio/cy_gpio.h **** * Position of the pin bit-field within the port register
1494:Generated_Source\PSoC6\pdl\drivers\peripheral\gpio/cy_gpio.h **** *
1495:Generated_Source\PSoC6\pdl\drivers\peripheral\gpio/cy_gpio.h **** * \return
1496:Generated_Source\PSoC6\pdl\drivers\peripheral\gpio/cy_gpio.h **** * SIO pair reference voltage. Options are detailed in \ref group_gpio_sioVoh macros
1497:Generated_Source\PSoC6\pdl\drivers\peripheral\gpio/cy_gpio.h **** *
1498:Generated_Source\PSoC6\pdl\drivers\peripheral\gpio/cy_gpio.h **** * \funcusage
1499:Generated_Source\PSoC6\pdl\drivers\peripheral\gpio/cy_gpio.h **** * \snippet gpio/gpio_v1_10_sut_01.cydsn/main_cm4.c snippet_Cy_GPIO_SetVohSel
1500:Generated_Source\PSoC6\pdl\drivers\peripheral\gpio/cy_gpio.h **** *
1501:Generated_Source\PSoC6\pdl\drivers\peripheral\gpio/cy_gpio.h **** *******************************************************************************/
1502:Generated_Source\PSoC6\pdl\drivers\peripheral\gpio/cy_gpio.h **** __STATIC_INLINE uint32_t Cy_GPIO_GetVohSel(GPIO_PRT_Type* base, uint32_t pinNum)
1503:Generated_Source\PSoC6\pdl\drivers\peripheral\gpio/cy_gpio.h **** {
1504:Generated_Source\PSoC6\pdl\drivers\peripheral\gpio/cy_gpio.h ****     CY_ASSERT_L2(CY_GPIO_IS_PIN_VALID(pinNum));
1505:Generated_Source\PSoC6\pdl\drivers\peripheral\gpio/cy_gpio.h ****     
1506:Generated_Source\PSoC6\pdl\drivers\peripheral\gpio/cy_gpio.h ****     return (base->CFG_SIO >> (((pinNum & CY_GPIO_SIO_ODD_PIN_MASK) << CY_GPIO_CFG_SIO_OFFSET) + CY_
1507:Generated_Source\PSoC6\pdl\drivers\peripheral\gpio/cy_gpio.h **** }
1508:Generated_Source\PSoC6\pdl\drivers\peripheral\gpio/cy_gpio.h **** 
1509:Generated_Source\PSoC6\pdl\drivers\peripheral\gpio/cy_gpio.h **** /** \} group_gpio_functions_sio */
1510:Generated_Source\PSoC6\pdl\drivers\peripheral\gpio/cy_gpio.h **** 
1511:Generated_Source\PSoC6\pdl\drivers\peripheral\gpio/cy_gpio.h **** /**
1512:Generated_Source\PSoC6\pdl\drivers\peripheral\gpio/cy_gpio.h **** * \addtogroup group_gpio_functions_interrupt
1513:Generated_Source\PSoC6\pdl\drivers\peripheral\gpio/cy_gpio.h **** * \{
1514:Generated_Source\PSoC6\pdl\drivers\peripheral\gpio/cy_gpio.h **** */
1515:Generated_Source\PSoC6\pdl\drivers\peripheral\gpio/cy_gpio.h **** 
1516:Generated_Source\PSoC6\pdl\drivers\peripheral\gpio/cy_gpio.h **** /*******************************************************************************
1517:Generated_Source\PSoC6\pdl\drivers\peripheral\gpio/cy_gpio.h **** * Function Name: Cy_GPIO_GetInterruptStatus
1518:Generated_Source\PSoC6\pdl\drivers\peripheral\gpio/cy_gpio.h **** ****************************************************************************//**
1519:Generated_Source\PSoC6\pdl\drivers\peripheral\gpio/cy_gpio.h **** *
1520:Generated_Source\PSoC6\pdl\drivers\peripheral\gpio/cy_gpio.h **** * \brief Returns the current unmasked interrupt state of the pin.
1521:Generated_Source\PSoC6\pdl\drivers\peripheral\gpio/cy_gpio.h **** *
1522:Generated_Source\PSoC6\pdl\drivers\peripheral\gpio/cy_gpio.h **** * The core processor's NVIC is triggered by the masked interrupt bits. This 
1523:Generated_Source\PSoC6\pdl\drivers\peripheral\gpio/cy_gpio.h **** * function allows reading the unmasked interrupt state. Whether the bit
1524:Generated_Source\PSoC6\pdl\drivers\peripheral\gpio/cy_gpio.h **** * positions actually trigger the interrupt are defined by the interrupt mask bits.
1525:Generated_Source\PSoC6\pdl\drivers\peripheral\gpio/cy_gpio.h **** *
1526:Generated_Source\PSoC6\pdl\drivers\peripheral\gpio/cy_gpio.h **** * \param base
1527:Generated_Source\PSoC6\pdl\drivers\peripheral\gpio/cy_gpio.h **** * Pointer to the pin's port register base address
1528:Generated_Source\PSoC6\pdl\drivers\peripheral\gpio/cy_gpio.h **** *
1529:Generated_Source\PSoC6\pdl\drivers\peripheral\gpio/cy_gpio.h **** * \param pinNum
1530:Generated_Source\PSoC6\pdl\drivers\peripheral\gpio/cy_gpio.h **** * Position of the pin bit-field within the port register
1531:Generated_Source\PSoC6\pdl\drivers\peripheral\gpio/cy_gpio.h **** * Bit position 8 is the routed pin through the port glitch filter.
1532:Generated_Source\PSoC6\pdl\drivers\peripheral\gpio/cy_gpio.h **** *
1533:Generated_Source\PSoC6\pdl\drivers\peripheral\gpio/cy_gpio.h **** * \return
1534:Generated_Source\PSoC6\pdl\drivers\peripheral\gpio/cy_gpio.h **** * 0 = Pin interrupt condition not detected
1535:Generated_Source\PSoC6\pdl\drivers\peripheral\gpio/cy_gpio.h **** * 1 = Pin interrupt condition detected
1536:Generated_Source\PSoC6\pdl\drivers\peripheral\gpio/cy_gpio.h **** *
1537:Generated_Source\PSoC6\pdl\drivers\peripheral\gpio/cy_gpio.h **** * \funcusage
1538:Generated_Source\PSoC6\pdl\drivers\peripheral\gpio/cy_gpio.h **** * \snippet gpio/gpio_v1_10_sut_01.cydsn/main_cm4.c snippet_Cy_GPIO_GetInterruptStatus
1539:Generated_Source\PSoC6\pdl\drivers\peripheral\gpio/cy_gpio.h **** *
1540:Generated_Source\PSoC6\pdl\drivers\peripheral\gpio/cy_gpio.h **** *******************************************************************************/
1541:Generated_Source\PSoC6\pdl\drivers\peripheral\gpio/cy_gpio.h **** __STATIC_INLINE uint32_t Cy_GPIO_GetInterruptStatus(GPIO_PRT_Type* base, uint32_t pinNum)
1542:Generated_Source\PSoC6\pdl\drivers\peripheral\gpio/cy_gpio.h **** {
1543:Generated_Source\PSoC6\pdl\drivers\peripheral\gpio/cy_gpio.h ****     CY_ASSERT_L2(CY_GPIO_IS_FILTER_PIN_VALID(pinNum));
1544:Generated_Source\PSoC6\pdl\drivers\peripheral\gpio/cy_gpio.h ****     
1545:Generated_Source\PSoC6\pdl\drivers\peripheral\gpio/cy_gpio.h ****     return (base->INTR >> pinNum) & CY_GPIO_INTR_STATUS_MASK;
1546:Generated_Source\PSoC6\pdl\drivers\peripheral\gpio/cy_gpio.h **** }
1547:Generated_Source\PSoC6\pdl\drivers\peripheral\gpio/cy_gpio.h **** 
1548:Generated_Source\PSoC6\pdl\drivers\peripheral\gpio/cy_gpio.h **** 
ARM GAS  C:\Users\ikomb\AppData\Local\Temp\ccAzoKUN.s 			page 35


1549:Generated_Source\PSoC6\pdl\drivers\peripheral\gpio/cy_gpio.h **** /*******************************************************************************
1550:Generated_Source\PSoC6\pdl\drivers\peripheral\gpio/cy_gpio.h **** * Function Name: Cy_GPIO_ClearInterrupt
1551:Generated_Source\PSoC6\pdl\drivers\peripheral\gpio/cy_gpio.h **** ****************************************************************************//**
1552:Generated_Source\PSoC6\pdl\drivers\peripheral\gpio/cy_gpio.h **** *
1553:Generated_Source\PSoC6\pdl\drivers\peripheral\gpio/cy_gpio.h **** * \brief Clears the triggered pin interrupt.
1554:Generated_Source\PSoC6\pdl\drivers\peripheral\gpio/cy_gpio.h **** *
1555:Generated_Source\PSoC6\pdl\drivers\peripheral\gpio/cy_gpio.h **** * \param base
1556:Generated_Source\PSoC6\pdl\drivers\peripheral\gpio/cy_gpio.h **** * Pointer to the pin's port register base address
1557:Generated_Source\PSoC6\pdl\drivers\peripheral\gpio/cy_gpio.h **** *
1558:Generated_Source\PSoC6\pdl\drivers\peripheral\gpio/cy_gpio.h **** * \param pinNum
1559:Generated_Source\PSoC6\pdl\drivers\peripheral\gpio/cy_gpio.h **** * Position of the pin bit-field within the port register
1560:Generated_Source\PSoC6\pdl\drivers\peripheral\gpio/cy_gpio.h **** * Bit position 8 is the routed pin through the port glitch filter.
1561:Generated_Source\PSoC6\pdl\drivers\peripheral\gpio/cy_gpio.h **** *
1562:Generated_Source\PSoC6\pdl\drivers\peripheral\gpio/cy_gpio.h **** * \return
1563:Generated_Source\PSoC6\pdl\drivers\peripheral\gpio/cy_gpio.h **** * void
1564:Generated_Source\PSoC6\pdl\drivers\peripheral\gpio/cy_gpio.h **** *
1565:Generated_Source\PSoC6\pdl\drivers\peripheral\gpio/cy_gpio.h **** * \funcusage
1566:Generated_Source\PSoC6\pdl\drivers\peripheral\gpio/cy_gpio.h **** * \snippet gpio/gpio_v1_10_sut_01.cydsn/main_cm4.c snippet_Cy_GPIO_ClearInterrupt
1567:Generated_Source\PSoC6\pdl\drivers\peripheral\gpio/cy_gpio.h **** *
1568:Generated_Source\PSoC6\pdl\drivers\peripheral\gpio/cy_gpio.h **** *******************************************************************************/
1569:Generated_Source\PSoC6\pdl\drivers\peripheral\gpio/cy_gpio.h **** __STATIC_INLINE void Cy_GPIO_ClearInterrupt(GPIO_PRT_Type* base, uint32_t pinNum)
1570:Generated_Source\PSoC6\pdl\drivers\peripheral\gpio/cy_gpio.h **** {
1571:Generated_Source\PSoC6\pdl\drivers\peripheral\gpio/cy_gpio.h ****     CY_ASSERT_L2(CY_GPIO_IS_FILTER_PIN_VALID(pinNum));
1572:Generated_Source\PSoC6\pdl\drivers\peripheral\gpio/cy_gpio.h ****     
1573:Generated_Source\PSoC6\pdl\drivers\peripheral\gpio/cy_gpio.h ****     /* Any INTR MMIO registers AHB clearing must be preceded with an AHB read access */
1574:Generated_Source\PSoC6\pdl\drivers\peripheral\gpio/cy_gpio.h ****     (void)base->INTR;
1575:Generated_Source\PSoC6\pdl\drivers\peripheral\gpio/cy_gpio.h **** 
1576:Generated_Source\PSoC6\pdl\drivers\peripheral\gpio/cy_gpio.h ****     base->INTR = CY_GPIO_INTR_STATUS_MASK << pinNum;
1577:Generated_Source\PSoC6\pdl\drivers\peripheral\gpio/cy_gpio.h **** 
1578:Generated_Source\PSoC6\pdl\drivers\peripheral\gpio/cy_gpio.h ****     /* This read ensures that the initial write has been flushed out to the hardware */
1579:Generated_Source\PSoC6\pdl\drivers\peripheral\gpio/cy_gpio.h ****     (void)base->INTR;
1580:Generated_Source\PSoC6\pdl\drivers\peripheral\gpio/cy_gpio.h **** }
1581:Generated_Source\PSoC6\pdl\drivers\peripheral\gpio/cy_gpio.h **** 
1582:Generated_Source\PSoC6\pdl\drivers\peripheral\gpio/cy_gpio.h **** 
1583:Generated_Source\PSoC6\pdl\drivers\peripheral\gpio/cy_gpio.h **** /*******************************************************************************
1584:Generated_Source\PSoC6\pdl\drivers\peripheral\gpio/cy_gpio.h **** * Function Name: Cy_GPIO_SetInterruptMask
1585:Generated_Source\PSoC6\pdl\drivers\peripheral\gpio/cy_gpio.h **** ****************************************************************************//**
1586:Generated_Source\PSoC6\pdl\drivers\peripheral\gpio/cy_gpio.h **** *
1587:Generated_Source\PSoC6\pdl\drivers\peripheral\gpio/cy_gpio.h **** * \brief Configures the pin interrupt to be forwarded to the CPU NVIC.
1588:Generated_Source\PSoC6\pdl\drivers\peripheral\gpio/cy_gpio.h **** *
1589:Generated_Source\PSoC6\pdl\drivers\peripheral\gpio/cy_gpio.h **** * \param base
1590:Generated_Source\PSoC6\pdl\drivers\peripheral\gpio/cy_gpio.h **** * Pointer to the pin's port register base address
1591:Generated_Source\PSoC6\pdl\drivers\peripheral\gpio/cy_gpio.h **** *
1592:Generated_Source\PSoC6\pdl\drivers\peripheral\gpio/cy_gpio.h **** * \param pinNum
1593:Generated_Source\PSoC6\pdl\drivers\peripheral\gpio/cy_gpio.h **** * Position of the pin bit-field within the port register.
1594:Generated_Source\PSoC6\pdl\drivers\peripheral\gpio/cy_gpio.h **** * Bit position 8 is the routed pin through the port glitch filter.
1595:Generated_Source\PSoC6\pdl\drivers\peripheral\gpio/cy_gpio.h **** *
1596:Generated_Source\PSoC6\pdl\drivers\peripheral\gpio/cy_gpio.h **** * \param value
1597:Generated_Source\PSoC6\pdl\drivers\peripheral\gpio/cy_gpio.h **** * 0 = Pin interrupt not forwarded to CPU interrupt controller
1598:Generated_Source\PSoC6\pdl\drivers\peripheral\gpio/cy_gpio.h **** * 1 = Pin interrupt masked and forwarded to CPU interrupt controller
1599:Generated_Source\PSoC6\pdl\drivers\peripheral\gpio/cy_gpio.h **** *
1600:Generated_Source\PSoC6\pdl\drivers\peripheral\gpio/cy_gpio.h **** * \return
1601:Generated_Source\PSoC6\pdl\drivers\peripheral\gpio/cy_gpio.h **** * void
1602:Generated_Source\PSoC6\pdl\drivers\peripheral\gpio/cy_gpio.h **** *
1603:Generated_Source\PSoC6\pdl\drivers\peripheral\gpio/cy_gpio.h **** * \note 
1604:Generated_Source\PSoC6\pdl\drivers\peripheral\gpio/cy_gpio.h **** * This function modifies a port register in a read-modify-write operation. It is
1605:Generated_Source\PSoC6\pdl\drivers\peripheral\gpio/cy_gpio.h **** * not thread safe as the resource is shared among multiple pins on a port.
ARM GAS  C:\Users\ikomb\AppData\Local\Temp\ccAzoKUN.s 			page 36


1606:Generated_Source\PSoC6\pdl\drivers\peripheral\gpio/cy_gpio.h **** *
1607:Generated_Source\PSoC6\pdl\drivers\peripheral\gpio/cy_gpio.h **** * \funcusage
1608:Generated_Source\PSoC6\pdl\drivers\peripheral\gpio/cy_gpio.h **** * \snippet gpio/gpio_v1_10_sut_01.cydsn/main_cm4.c snippet_Cy_GPIO_SetInterruptMask
1609:Generated_Source\PSoC6\pdl\drivers\peripheral\gpio/cy_gpio.h **** *
1610:Generated_Source\PSoC6\pdl\drivers\peripheral\gpio/cy_gpio.h **** *******************************************************************************/
1611:Generated_Source\PSoC6\pdl\drivers\peripheral\gpio/cy_gpio.h **** __STATIC_INLINE void Cy_GPIO_SetInterruptMask(GPIO_PRT_Type* base, uint32_t pinNum, uint32_t value)
1612:Generated_Source\PSoC6\pdl\drivers\peripheral\gpio/cy_gpio.h **** {
 380              		.loc 1 1612 0
 381              		.cfi_startproc
 382              		@ args = 0, pretend = 0, frame = 24
 383              		@ frame_needed = 1, uses_anonymous_args = 0
 384 0000 80B5     		push	{r7, lr}
 385              		.cfi_def_cfa_offset 8
 386              		.cfi_offset 7, -8
 387              		.cfi_offset 14, -4
 388 0002 86B0     		sub	sp, sp, #24
 389              		.cfi_def_cfa_offset 32
 390 0004 00AF     		add	r7, sp, #0
 391              		.cfi_def_cfa_register 7
 392 0006 F860     		str	r0, [r7, #12]
 393 0008 B960     		str	r1, [r7, #8]
 394 000a 7A60     		str	r2, [r7, #4]
1613:Generated_Source\PSoC6\pdl\drivers\peripheral\gpio/cy_gpio.h ****     uint32_t tempReg;
1614:Generated_Source\PSoC6\pdl\drivers\peripheral\gpio/cy_gpio.h **** 
1615:Generated_Source\PSoC6\pdl\drivers\peripheral\gpio/cy_gpio.h ****     CY_ASSERT_L2(CY_GPIO_IS_FILTER_PIN_VALID(pinNum));
 395              		.loc 1 1615 0
 396 000c BB68     		ldr	r3, [r7, #8]
 397 000e 082B     		cmp	r3, #8
 398 0010 04D9     		bls	.L28
 399              		.loc 1 1615 0 is_stmt 0 discriminator 1
 400 0012 40F24F61 		movw	r1, #1615
 401 0016 1048     		ldr	r0, .L30
 402 0018 FFF7FEFF 		bl	Cy_SysLib_AssertFailed
 403              	.L28:
1616:Generated_Source\PSoC6\pdl\drivers\peripheral\gpio/cy_gpio.h ****     CY_ASSERT_L2(CY_GPIO_IS_VALUE_VALID(value));
 404              		.loc 1 1616 0 is_stmt 1
 405 001c 7B68     		ldr	r3, [r7, #4]
 406 001e 012B     		cmp	r3, #1
 407 0020 04D9     		bls	.L29
 408              		.loc 1 1616 0 is_stmt 0 discriminator 1
 409 0022 4FF4CA61 		mov	r1, #1616
 410 0026 0C48     		ldr	r0, .L30
 411 0028 FFF7FEFF 		bl	Cy_SysLib_AssertFailed
 412              	.L29:
1617:Generated_Source\PSoC6\pdl\drivers\peripheral\gpio/cy_gpio.h **** 
1618:Generated_Source\PSoC6\pdl\drivers\peripheral\gpio/cy_gpio.h ****     tempReg= base->INTR_MASK & ~(CY_GPIO_INTR_EN_MASK << pinNum);
 413              		.loc 1 1618 0 is_stmt 1
 414 002c FB68     		ldr	r3, [r7, #12]
 415 002e 9A69     		ldr	r2, [r3, #24]
 416 0030 0121     		movs	r1, #1
 417 0032 BB68     		ldr	r3, [r7, #8]
 418 0034 01FA03F3 		lsl	r3, r1, r3
 419 0038 DB43     		mvns	r3, r3
 420 003a 1340     		ands	r3, r3, r2
 421 003c 7B61     		str	r3, [r7, #20]
1619:Generated_Source\PSoC6\pdl\drivers\peripheral\gpio/cy_gpio.h ****     base->INTR_MASK = tempReg | ((value & CY_GPIO_INTR_EN_MASK) << pinNum);
 422              		.loc 1 1619 0
ARM GAS  C:\Users\ikomb\AppData\Local\Temp\ccAzoKUN.s 			page 37


 423 003e 7B68     		ldr	r3, [r7, #4]
 424 0040 03F00102 		and	r2, r3, #1
 425 0044 BB68     		ldr	r3, [r7, #8]
 426 0046 9A40     		lsls	r2, r2, r3
 427 0048 7B69     		ldr	r3, [r7, #20]
 428 004a 1A43     		orrs	r2, r2, r3
 429 004c FB68     		ldr	r3, [r7, #12]
 430 004e 9A61     		str	r2, [r3, #24]
1620:Generated_Source\PSoC6\pdl\drivers\peripheral\gpio/cy_gpio.h **** }
 431              		.loc 1 1620 0
 432 0050 00BF     		nop
 433 0052 1837     		adds	r7, r7, #24
 434              		.cfi_def_cfa_offset 8
 435 0054 BD46     		mov	sp, r7
 436              		.cfi_def_cfa_register 13
 437              		@ sp needed
 438 0056 80BD     		pop	{r7, pc}
 439              	.L31:
 440              		.align	2
 441              	.L30:
 442 0058 00000000 		.word	.LC0
 443              		.cfi_endproc
 444              	.LFE154:
 445              		.size	Cy_GPIO_SetInterruptMask, .-Cy_GPIO_SetInterruptMask
 446              		.section	.text.Cy_GPIO_SetInterruptEdge,"ax",%progbits
 447              		.align	2
 448              		.thumb
 449              		.thumb_func
 450              		.type	Cy_GPIO_SetInterruptEdge, %function
 451              	Cy_GPIO_SetInterruptEdge:
 452              	.LFB158:
1621:Generated_Source\PSoC6\pdl\drivers\peripheral\gpio/cy_gpio.h **** 
1622:Generated_Source\PSoC6\pdl\drivers\peripheral\gpio/cy_gpio.h **** 
1623:Generated_Source\PSoC6\pdl\drivers\peripheral\gpio/cy_gpio.h **** /*******************************************************************************
1624:Generated_Source\PSoC6\pdl\drivers\peripheral\gpio/cy_gpio.h **** * Function Name: Cy_GPIO_GetInterruptMask
1625:Generated_Source\PSoC6\pdl\drivers\peripheral\gpio/cy_gpio.h **** ****************************************************************************//**
1626:Generated_Source\PSoC6\pdl\drivers\peripheral\gpio/cy_gpio.h **** *
1627:Generated_Source\PSoC6\pdl\drivers\peripheral\gpio/cy_gpio.h **** * \brief Returns the state of the pin interrupt mask.
1628:Generated_Source\PSoC6\pdl\drivers\peripheral\gpio/cy_gpio.h **** *
1629:Generated_Source\PSoC6\pdl\drivers\peripheral\gpio/cy_gpio.h **** * This mask is used to determine whether the pin is configured to be forwarded
1630:Generated_Source\PSoC6\pdl\drivers\peripheral\gpio/cy_gpio.h **** * to the CPU NVIC.
1631:Generated_Source\PSoC6\pdl\drivers\peripheral\gpio/cy_gpio.h **** *
1632:Generated_Source\PSoC6\pdl\drivers\peripheral\gpio/cy_gpio.h **** * \param base
1633:Generated_Source\PSoC6\pdl\drivers\peripheral\gpio/cy_gpio.h **** * Pointer to the pin's port register base address
1634:Generated_Source\PSoC6\pdl\drivers\peripheral\gpio/cy_gpio.h **** *
1635:Generated_Source\PSoC6\pdl\drivers\peripheral\gpio/cy_gpio.h **** * \param pinNum
1636:Generated_Source\PSoC6\pdl\drivers\peripheral\gpio/cy_gpio.h **** * Position of the pin bit-field within the port register.
1637:Generated_Source\PSoC6\pdl\drivers\peripheral\gpio/cy_gpio.h **** * Bit position 8 is the routed pin through the port glitch filter.
1638:Generated_Source\PSoC6\pdl\drivers\peripheral\gpio/cy_gpio.h **** *
1639:Generated_Source\PSoC6\pdl\drivers\peripheral\gpio/cy_gpio.h **** * \return
1640:Generated_Source\PSoC6\pdl\drivers\peripheral\gpio/cy_gpio.h **** * 0 = Pin interrupt not forwarded to CPU interrupt controller
1641:Generated_Source\PSoC6\pdl\drivers\peripheral\gpio/cy_gpio.h **** * 1 = Pin interrupt masked and forwarded to CPU interrupt controller
1642:Generated_Source\PSoC6\pdl\drivers\peripheral\gpio/cy_gpio.h **** *
1643:Generated_Source\PSoC6\pdl\drivers\peripheral\gpio/cy_gpio.h **** * \funcusage
1644:Generated_Source\PSoC6\pdl\drivers\peripheral\gpio/cy_gpio.h **** * \snippet gpio/gpio_v1_10_sut_01.cydsn/main_cm4.c snippet_Cy_GPIO_SetInterruptMask
1645:Generated_Source\PSoC6\pdl\drivers\peripheral\gpio/cy_gpio.h **** *
1646:Generated_Source\PSoC6\pdl\drivers\peripheral\gpio/cy_gpio.h **** *******************************************************************************/
ARM GAS  C:\Users\ikomb\AppData\Local\Temp\ccAzoKUN.s 			page 38


1647:Generated_Source\PSoC6\pdl\drivers\peripheral\gpio/cy_gpio.h **** __STATIC_INLINE uint32_t Cy_GPIO_GetInterruptMask(GPIO_PRT_Type* base, uint32_t pinNum)
1648:Generated_Source\PSoC6\pdl\drivers\peripheral\gpio/cy_gpio.h **** {
1649:Generated_Source\PSoC6\pdl\drivers\peripheral\gpio/cy_gpio.h ****     CY_ASSERT_L2(CY_GPIO_IS_FILTER_PIN_VALID(pinNum));
1650:Generated_Source\PSoC6\pdl\drivers\peripheral\gpio/cy_gpio.h ****     
1651:Generated_Source\PSoC6\pdl\drivers\peripheral\gpio/cy_gpio.h ****     return (base->INTR_MASK >> pinNum) & CY_GPIO_INTR_EN_MASK;
1652:Generated_Source\PSoC6\pdl\drivers\peripheral\gpio/cy_gpio.h **** }
1653:Generated_Source\PSoC6\pdl\drivers\peripheral\gpio/cy_gpio.h **** 
1654:Generated_Source\PSoC6\pdl\drivers\peripheral\gpio/cy_gpio.h **** 
1655:Generated_Source\PSoC6\pdl\drivers\peripheral\gpio/cy_gpio.h **** /*******************************************************************************
1656:Generated_Source\PSoC6\pdl\drivers\peripheral\gpio/cy_gpio.h **** * Function Name: Cy_GPIO_GetInterruptStatusMasked
1657:Generated_Source\PSoC6\pdl\drivers\peripheral\gpio/cy_gpio.h **** ****************************************************************************//**
1658:Generated_Source\PSoC6\pdl\drivers\peripheral\gpio/cy_gpio.h **** *
1659:Generated_Source\PSoC6\pdl\drivers\peripheral\gpio/cy_gpio.h **** * \brief Return the pin's current interrupt state after being masked.
1660:Generated_Source\PSoC6\pdl\drivers\peripheral\gpio/cy_gpio.h **** *
1661:Generated_Source\PSoC6\pdl\drivers\peripheral\gpio/cy_gpio.h **** * The core processor's NVIC is triggered by the masked interrupt bits. This 
1662:Generated_Source\PSoC6\pdl\drivers\peripheral\gpio/cy_gpio.h **** * function allows reading this masked interrupt state. Note that the bits that
1663:Generated_Source\PSoC6\pdl\drivers\peripheral\gpio/cy_gpio.h **** * are not masked will not be forwarded to the NVIC.
1664:Generated_Source\PSoC6\pdl\drivers\peripheral\gpio/cy_gpio.h **** *
1665:Generated_Source\PSoC6\pdl\drivers\peripheral\gpio/cy_gpio.h **** * \param base
1666:Generated_Source\PSoC6\pdl\drivers\peripheral\gpio/cy_gpio.h **** * Pointer to the pin's port register base address
1667:Generated_Source\PSoC6\pdl\drivers\peripheral\gpio/cy_gpio.h **** *
1668:Generated_Source\PSoC6\pdl\drivers\peripheral\gpio/cy_gpio.h **** * \param pinNum
1669:Generated_Source\PSoC6\pdl\drivers\peripheral\gpio/cy_gpio.h **** * Position of the pin bit-field within the port register.
1670:Generated_Source\PSoC6\pdl\drivers\peripheral\gpio/cy_gpio.h **** * Bit position 8 is the routed pin through the port glitch filter.
1671:Generated_Source\PSoC6\pdl\drivers\peripheral\gpio/cy_gpio.h **** *
1672:Generated_Source\PSoC6\pdl\drivers\peripheral\gpio/cy_gpio.h **** * \return
1673:Generated_Source\PSoC6\pdl\drivers\peripheral\gpio/cy_gpio.h **** * 0 = Pin interrupt not detected or not forwarded to CPU interrupt controller
1674:Generated_Source\PSoC6\pdl\drivers\peripheral\gpio/cy_gpio.h **** * 1 = Pin interrupt detected and forwarded to CPU interrupt controller
1675:Generated_Source\PSoC6\pdl\drivers\peripheral\gpio/cy_gpio.h **** *
1676:Generated_Source\PSoC6\pdl\drivers\peripheral\gpio/cy_gpio.h **** * \funcusage
1677:Generated_Source\PSoC6\pdl\drivers\peripheral\gpio/cy_gpio.h **** * \snippet gpio/gpio_v1_10_sut_01.cydsn/main_cm4.c snippet_Cy_GPIO_GetInterruptStatusMasked
1678:Generated_Source\PSoC6\pdl\drivers\peripheral\gpio/cy_gpio.h **** *
1679:Generated_Source\PSoC6\pdl\drivers\peripheral\gpio/cy_gpio.h **** *******************************************************************************/
1680:Generated_Source\PSoC6\pdl\drivers\peripheral\gpio/cy_gpio.h **** __STATIC_INLINE uint32_t Cy_GPIO_GetInterruptStatusMasked(GPIO_PRT_Type* base, uint32_t pinNum)
1681:Generated_Source\PSoC6\pdl\drivers\peripheral\gpio/cy_gpio.h **** {
1682:Generated_Source\PSoC6\pdl\drivers\peripheral\gpio/cy_gpio.h ****     CY_ASSERT_L2(CY_GPIO_IS_FILTER_PIN_VALID(pinNum));
1683:Generated_Source\PSoC6\pdl\drivers\peripheral\gpio/cy_gpio.h ****     
1684:Generated_Source\PSoC6\pdl\drivers\peripheral\gpio/cy_gpio.h ****     return (base->INTR_MASKED >> pinNum) & CY_GPIO_INTR_MASKED_MASK;
1685:Generated_Source\PSoC6\pdl\drivers\peripheral\gpio/cy_gpio.h **** }
1686:Generated_Source\PSoC6\pdl\drivers\peripheral\gpio/cy_gpio.h **** 
1687:Generated_Source\PSoC6\pdl\drivers\peripheral\gpio/cy_gpio.h **** 
1688:Generated_Source\PSoC6\pdl\drivers\peripheral\gpio/cy_gpio.h **** /*******************************************************************************
1689:Generated_Source\PSoC6\pdl\drivers\peripheral\gpio/cy_gpio.h **** * Function Name: Cy_GPIO_SetSwInterrupt
1690:Generated_Source\PSoC6\pdl\drivers\peripheral\gpio/cy_gpio.h **** ****************************************************************************//**
1691:Generated_Source\PSoC6\pdl\drivers\peripheral\gpio/cy_gpio.h **** *
1692:Generated_Source\PSoC6\pdl\drivers\peripheral\gpio/cy_gpio.h **** * \brief Force a pin interrupt to trigger.
1693:Generated_Source\PSoC6\pdl\drivers\peripheral\gpio/cy_gpio.h **** *
1694:Generated_Source\PSoC6\pdl\drivers\peripheral\gpio/cy_gpio.h **** * \param base
1695:Generated_Source\PSoC6\pdl\drivers\peripheral\gpio/cy_gpio.h **** * Pointer to the pin's port register base address
1696:Generated_Source\PSoC6\pdl\drivers\peripheral\gpio/cy_gpio.h **** *
1697:Generated_Source\PSoC6\pdl\drivers\peripheral\gpio/cy_gpio.h **** * \param pinNum
1698:Generated_Source\PSoC6\pdl\drivers\peripheral\gpio/cy_gpio.h **** * Position of the pin bit-field within the port register.
1699:Generated_Source\PSoC6\pdl\drivers\peripheral\gpio/cy_gpio.h **** * Bit position 8 is the routed pin through the port glitch filter.
1700:Generated_Source\PSoC6\pdl\drivers\peripheral\gpio/cy_gpio.h **** *
1701:Generated_Source\PSoC6\pdl\drivers\peripheral\gpio/cy_gpio.h **** * \return
1702:Generated_Source\PSoC6\pdl\drivers\peripheral\gpio/cy_gpio.h **** * void
1703:Generated_Source\PSoC6\pdl\drivers\peripheral\gpio/cy_gpio.h **** *
ARM GAS  C:\Users\ikomb\AppData\Local\Temp\ccAzoKUN.s 			page 39


1704:Generated_Source\PSoC6\pdl\drivers\peripheral\gpio/cy_gpio.h **** * \funcusage
1705:Generated_Source\PSoC6\pdl\drivers\peripheral\gpio/cy_gpio.h **** * \snippet gpio/gpio_v1_10_sut_01.cydsn/main_cm4.c snippet_Cy_GPIO_SetSwInterrupt
1706:Generated_Source\PSoC6\pdl\drivers\peripheral\gpio/cy_gpio.h **** *
1707:Generated_Source\PSoC6\pdl\drivers\peripheral\gpio/cy_gpio.h **** *******************************************************************************/
1708:Generated_Source\PSoC6\pdl\drivers\peripheral\gpio/cy_gpio.h **** __STATIC_INLINE void Cy_GPIO_SetSwInterrupt(GPIO_PRT_Type* base, uint32_t pinNum)
1709:Generated_Source\PSoC6\pdl\drivers\peripheral\gpio/cy_gpio.h **** {
1710:Generated_Source\PSoC6\pdl\drivers\peripheral\gpio/cy_gpio.h ****     CY_ASSERT_L2(CY_GPIO_IS_FILTER_PIN_VALID(pinNum));
1711:Generated_Source\PSoC6\pdl\drivers\peripheral\gpio/cy_gpio.h ****     
1712:Generated_Source\PSoC6\pdl\drivers\peripheral\gpio/cy_gpio.h ****     base->INTR_SET = CY_GPIO_INTR_SET_MASK << pinNum;
1713:Generated_Source\PSoC6\pdl\drivers\peripheral\gpio/cy_gpio.h **** }
1714:Generated_Source\PSoC6\pdl\drivers\peripheral\gpio/cy_gpio.h **** 
1715:Generated_Source\PSoC6\pdl\drivers\peripheral\gpio/cy_gpio.h **** 
1716:Generated_Source\PSoC6\pdl\drivers\peripheral\gpio/cy_gpio.h **** /*******************************************************************************
1717:Generated_Source\PSoC6\pdl\drivers\peripheral\gpio/cy_gpio.h **** * Function Name: Cy_GPIO_SetInterruptEdge
1718:Generated_Source\PSoC6\pdl\drivers\peripheral\gpio/cy_gpio.h **** ****************************************************************************//**
1719:Generated_Source\PSoC6\pdl\drivers\peripheral\gpio/cy_gpio.h **** *
1720:Generated_Source\PSoC6\pdl\drivers\peripheral\gpio/cy_gpio.h **** * \brief Configures the type of edge that will trigger a pin interrupt.
1721:Generated_Source\PSoC6\pdl\drivers\peripheral\gpio/cy_gpio.h **** *
1722:Generated_Source\PSoC6\pdl\drivers\peripheral\gpio/cy_gpio.h **** * \param base
1723:Generated_Source\PSoC6\pdl\drivers\peripheral\gpio/cy_gpio.h **** * Pointer to the pin's port register base address
1724:Generated_Source\PSoC6\pdl\drivers\peripheral\gpio/cy_gpio.h **** *
1725:Generated_Source\PSoC6\pdl\drivers\peripheral\gpio/cy_gpio.h **** * \param pinNum
1726:Generated_Source\PSoC6\pdl\drivers\peripheral\gpio/cy_gpio.h **** * Position of the pin bit-field within the port register.
1727:Generated_Source\PSoC6\pdl\drivers\peripheral\gpio/cy_gpio.h **** * Bit position 8 is the routed pin through the port glitch filter.
1728:Generated_Source\PSoC6\pdl\drivers\peripheral\gpio/cy_gpio.h **** *
1729:Generated_Source\PSoC6\pdl\drivers\peripheral\gpio/cy_gpio.h **** * \param value
1730:Generated_Source\PSoC6\pdl\drivers\peripheral\gpio/cy_gpio.h **** * Pin interrupt mode. Options are detailed in \ref group_gpio_interruptTrigger macros
1731:Generated_Source\PSoC6\pdl\drivers\peripheral\gpio/cy_gpio.h **** *
1732:Generated_Source\PSoC6\pdl\drivers\peripheral\gpio/cy_gpio.h **** * \return
1733:Generated_Source\PSoC6\pdl\drivers\peripheral\gpio/cy_gpio.h **** * void
1734:Generated_Source\PSoC6\pdl\drivers\peripheral\gpio/cy_gpio.h **** *
1735:Generated_Source\PSoC6\pdl\drivers\peripheral\gpio/cy_gpio.h **** * \note 
1736:Generated_Source\PSoC6\pdl\drivers\peripheral\gpio/cy_gpio.h **** * This function modifies a port register in a read-modify-write operation. It is
1737:Generated_Source\PSoC6\pdl\drivers\peripheral\gpio/cy_gpio.h **** * not thread safe as the resource is shared among multiple pins on a port.
1738:Generated_Source\PSoC6\pdl\drivers\peripheral\gpio/cy_gpio.h **** *
1739:Generated_Source\PSoC6\pdl\drivers\peripheral\gpio/cy_gpio.h **** * \funcusage
1740:Generated_Source\PSoC6\pdl\drivers\peripheral\gpio/cy_gpio.h **** * \snippet gpio/gpio_v1_10_sut_01.cydsn/main_cm4.c snippet_Cy_GPIO_SetInterruptEdge
1741:Generated_Source\PSoC6\pdl\drivers\peripheral\gpio/cy_gpio.h **** *
1742:Generated_Source\PSoC6\pdl\drivers\peripheral\gpio/cy_gpio.h **** *******************************************************************************/
1743:Generated_Source\PSoC6\pdl\drivers\peripheral\gpio/cy_gpio.h **** __STATIC_INLINE void Cy_GPIO_SetInterruptEdge(GPIO_PRT_Type* base, uint32_t pinNum, uint32_t value)
1744:Generated_Source\PSoC6\pdl\drivers\peripheral\gpio/cy_gpio.h **** {
 453              		.loc 1 1744 0
 454              		.cfi_startproc
 455              		@ args = 0, pretend = 0, frame = 24
 456              		@ frame_needed = 1, uses_anonymous_args = 0
 457 0000 80B5     		push	{r7, lr}
 458              		.cfi_def_cfa_offset 8
 459              		.cfi_offset 7, -8
 460              		.cfi_offset 14, -4
 461 0002 86B0     		sub	sp, sp, #24
 462              		.cfi_def_cfa_offset 32
 463 0004 00AF     		add	r7, sp, #0
 464              		.cfi_def_cfa_register 7
 465 0006 F860     		str	r0, [r7, #12]
 466 0008 B960     		str	r1, [r7, #8]
 467 000a 7A60     		str	r2, [r7, #4]
1745:Generated_Source\PSoC6\pdl\drivers\peripheral\gpio/cy_gpio.h ****     uint32_t tempReg;
ARM GAS  C:\Users\ikomb\AppData\Local\Temp\ccAzoKUN.s 			page 40


1746:Generated_Source\PSoC6\pdl\drivers\peripheral\gpio/cy_gpio.h ****     uint32_t pinLoc;
1747:Generated_Source\PSoC6\pdl\drivers\peripheral\gpio/cy_gpio.h **** 
1748:Generated_Source\PSoC6\pdl\drivers\peripheral\gpio/cy_gpio.h ****     CY_ASSERT_L2(CY_GPIO_IS_FILTER_PIN_VALID(pinNum));
 468              		.loc 1 1748 0
 469 000c BB68     		ldr	r3, [r7, #8]
 470 000e 082B     		cmp	r3, #8
 471 0010 04D9     		bls	.L33
 472              		.loc 1 1748 0 is_stmt 0 discriminator 1
 473 0012 40F2D461 		movw	r1, #1748
 474 0016 1648     		ldr	r0, .L35
 475 0018 FFF7FEFF 		bl	Cy_SysLib_AssertFailed
 476              	.L33:
1749:Generated_Source\PSoC6\pdl\drivers\peripheral\gpio/cy_gpio.h ****     CY_ASSERT_L2(CY_GPIO_IS_INT_EDGE_VALID(value));
 477              		.loc 1 1749 0 is_stmt 1
 478 001c 7B68     		ldr	r3, [r7, #4]
 479 001e 002B     		cmp	r3, #0
 480 0020 0DD0     		beq	.L34
 481              		.loc 1 1749 0 is_stmt 0 discriminator 1
 482 0022 7B68     		ldr	r3, [r7, #4]
 483 0024 012B     		cmp	r3, #1
 484 0026 0AD0     		beq	.L34
 485              		.loc 1 1749 0 discriminator 2
 486 0028 7B68     		ldr	r3, [r7, #4]
 487 002a 022B     		cmp	r3, #2
 488 002c 07D0     		beq	.L34
 489              		.loc 1 1749 0 discriminator 3
 490 002e 7B68     		ldr	r3, [r7, #4]
 491 0030 032B     		cmp	r3, #3
 492 0032 04D0     		beq	.L34
 493              		.loc 1 1749 0 discriminator 4
 494 0034 40F2D561 		movw	r1, #1749
 495 0038 0D48     		ldr	r0, .L35
 496 003a FFF7FEFF 		bl	Cy_SysLib_AssertFailed
 497              	.L34:
1750:Generated_Source\PSoC6\pdl\drivers\peripheral\gpio/cy_gpio.h **** 
1751:Generated_Source\PSoC6\pdl\drivers\peripheral\gpio/cy_gpio.h ****     pinLoc = pinNum << CY_GPIO_INTR_CFG_OFFSET;
 498              		.loc 1 1751 0 is_stmt 1
 499 003e BB68     		ldr	r3, [r7, #8]
 500 0040 5B00     		lsls	r3, r3, #1
 501 0042 7B61     		str	r3, [r7, #20]
1752:Generated_Source\PSoC6\pdl\drivers\peripheral\gpio/cy_gpio.h ****     tempReg = base->INTR_CFG & ~(CY_GPIO_INTR_EDGE_MASK << pinLoc);
 502              		.loc 1 1752 0
 503 0044 FB68     		ldr	r3, [r7, #12]
 504 0046 5A6A     		ldr	r2, [r3, #36]
 505 0048 0321     		movs	r1, #3
 506 004a 7B69     		ldr	r3, [r7, #20]
 507 004c 01FA03F3 		lsl	r3, r1, r3
 508 0050 DB43     		mvns	r3, r3
 509 0052 1340     		ands	r3, r3, r2
 510 0054 3B61     		str	r3, [r7, #16]
1753:Generated_Source\PSoC6\pdl\drivers\peripheral\gpio/cy_gpio.h ****     base->INTR_CFG = tempReg | ((value & CY_GPIO_INTR_EDGE_MASK) << pinLoc);
 511              		.loc 1 1753 0
 512 0056 7B68     		ldr	r3, [r7, #4]
 513 0058 03F00302 		and	r2, r3, #3
 514 005c 7B69     		ldr	r3, [r7, #20]
 515 005e 9A40     		lsls	r2, r2, r3
 516 0060 3B69     		ldr	r3, [r7, #16]
ARM GAS  C:\Users\ikomb\AppData\Local\Temp\ccAzoKUN.s 			page 41


 517 0062 1A43     		orrs	r2, r2, r3
 518 0064 FB68     		ldr	r3, [r7, #12]
 519 0066 5A62     		str	r2, [r3, #36]
1754:Generated_Source\PSoC6\pdl\drivers\peripheral\gpio/cy_gpio.h **** }
 520              		.loc 1 1754 0
 521 0068 00BF     		nop
 522 006a 1837     		adds	r7, r7, #24
 523              		.cfi_def_cfa_offset 8
 524 006c BD46     		mov	sp, r7
 525              		.cfi_def_cfa_register 13
 526              		@ sp needed
 527 006e 80BD     		pop	{r7, pc}
 528              	.L36:
 529              		.align	2
 530              	.L35:
 531 0070 00000000 		.word	.LC0
 532              		.cfi_endproc
 533              	.LFE158:
 534              		.size	Cy_GPIO_SetInterruptEdge, .-Cy_GPIO_SetInterruptEdge
 535              		.section	.rodata
 536 003d 000000   		.align	2
 537              	.LC1:
 538 0040 47656E65 		.ascii	"Generated_Source\\PSoC6\\pdl\\drivers\\peripheral\\"
 538      72617465 
 538      645F536F 
 538      75726365 
 538      5C50536F 
 539 006e 6770696F 		.ascii	"gpio\\cy_gpio.c\000"
 539      5C63795F 
 539      6770696F 
 539      2E6300
 540              		.section	.text.Cy_GPIO_Pin_Init,"ax",%progbits
 541              		.align	2
 542              		.global	Cy_GPIO_Pin_Init
 543              		.thumb
 544              		.thumb_func
 545              		.type	Cy_GPIO_Pin_Init, %function
 546              	Cy_GPIO_Pin_Init:
 547              	.LFB163:
 548              		.file 2 "Generated_Source\\PSoC6\\pdl\\drivers\\peripheral\\gpio\\cy_gpio.c"
   1:Generated_Source\PSoC6\pdl\drivers\peripheral\gpio/cy_gpio.c **** /***************************************************************************//**
   2:Generated_Source\PSoC6\pdl\drivers\peripheral\gpio/cy_gpio.c **** * \file cy_gpio.c
   3:Generated_Source\PSoC6\pdl\drivers\peripheral\gpio/cy_gpio.c **** * \version 1.10.1
   4:Generated_Source\PSoC6\pdl\drivers\peripheral\gpio/cy_gpio.c **** *
   5:Generated_Source\PSoC6\pdl\drivers\peripheral\gpio/cy_gpio.c **** * \brief
   6:Generated_Source\PSoC6\pdl\drivers\peripheral\gpio/cy_gpio.c **** * Provides an API implementation of the GPIO driver
   7:Generated_Source\PSoC6\pdl\drivers\peripheral\gpio/cy_gpio.c **** *
   8:Generated_Source\PSoC6\pdl\drivers\peripheral\gpio/cy_gpio.c **** ********************************************************************************
   9:Generated_Source\PSoC6\pdl\drivers\peripheral\gpio/cy_gpio.c **** * \copyright
  10:Generated_Source\PSoC6\pdl\drivers\peripheral\gpio/cy_gpio.c **** * Copyright 2016-2018, Cypress Semiconductor Corporation. All rights reserved.
  11:Generated_Source\PSoC6\pdl\drivers\peripheral\gpio/cy_gpio.c **** * You may use this file only in accordance with the license, terms, conditions,
  12:Generated_Source\PSoC6\pdl\drivers\peripheral\gpio/cy_gpio.c **** * disclaimers, and limitations in the end user license agreement accompanying
  13:Generated_Source\PSoC6\pdl\drivers\peripheral\gpio/cy_gpio.c **** * the software package with which this file was provided.
  14:Generated_Source\PSoC6\pdl\drivers\peripheral\gpio/cy_gpio.c **** *******************************************************************************/
  15:Generated_Source\PSoC6\pdl\drivers\peripheral\gpio/cy_gpio.c **** 
  16:Generated_Source\PSoC6\pdl\drivers\peripheral\gpio/cy_gpio.c **** #include "cy_gpio.h"
  17:Generated_Source\PSoC6\pdl\drivers\peripheral\gpio/cy_gpio.c **** 
ARM GAS  C:\Users\ikomb\AppData\Local\Temp\ccAzoKUN.s 			page 42


  18:Generated_Source\PSoC6\pdl\drivers\peripheral\gpio/cy_gpio.c **** #if defined(__cplusplus)
  19:Generated_Source\PSoC6\pdl\drivers\peripheral\gpio/cy_gpio.c **** extern "C" {
  20:Generated_Source\PSoC6\pdl\drivers\peripheral\gpio/cy_gpio.c **** #endif
  21:Generated_Source\PSoC6\pdl\drivers\peripheral\gpio/cy_gpio.c **** 
  22:Generated_Source\PSoC6\pdl\drivers\peripheral\gpio/cy_gpio.c **** 
  23:Generated_Source\PSoC6\pdl\drivers\peripheral\gpio/cy_gpio.c **** /*******************************************************************************
  24:Generated_Source\PSoC6\pdl\drivers\peripheral\gpio/cy_gpio.c **** * Function Name: Cy_GPIO_Pin_Init
  25:Generated_Source\PSoC6\pdl\drivers\peripheral\gpio/cy_gpio.c **** ****************************************************************************//**
  26:Generated_Source\PSoC6\pdl\drivers\peripheral\gpio/cy_gpio.c **** *
  27:Generated_Source\PSoC6\pdl\drivers\peripheral\gpio/cy_gpio.c **** * \brief Initializes all pin configuration settings for the specified pin.
  28:Generated_Source\PSoC6\pdl\drivers\peripheral\gpio/cy_gpio.c **** *
  29:Generated_Source\PSoC6\pdl\drivers\peripheral\gpio/cy_gpio.c **** * \param base
  30:Generated_Source\PSoC6\pdl\drivers\peripheral\gpio/cy_gpio.c **** * Pointer to the pin's port register base address
  31:Generated_Source\PSoC6\pdl\drivers\peripheral\gpio/cy_gpio.c **** *
  32:Generated_Source\PSoC6\pdl\drivers\peripheral\gpio/cy_gpio.c **** * \param pinNum
  33:Generated_Source\PSoC6\pdl\drivers\peripheral\gpio/cy_gpio.c **** * Position of the pin bit-field within the port register
  34:Generated_Source\PSoC6\pdl\drivers\peripheral\gpio/cy_gpio.c **** *
  35:Generated_Source\PSoC6\pdl\drivers\peripheral\gpio/cy_gpio.c **** * \param config
  36:Generated_Source\PSoC6\pdl\drivers\peripheral\gpio/cy_gpio.c **** * Pointer to the pin config structure base address
  37:Generated_Source\PSoC6\pdl\drivers\peripheral\gpio/cy_gpio.c **** *
  38:Generated_Source\PSoC6\pdl\drivers\peripheral\gpio/cy_gpio.c **** * \return
  39:Generated_Source\PSoC6\pdl\drivers\peripheral\gpio/cy_gpio.c **** * Initialization status
  40:Generated_Source\PSoC6\pdl\drivers\peripheral\gpio/cy_gpio.c **** *
  41:Generated_Source\PSoC6\pdl\drivers\peripheral\gpio/cy_gpio.c **** * \note 
  42:Generated_Source\PSoC6\pdl\drivers\peripheral\gpio/cy_gpio.c **** * This function modifies port registers in read-modify-write operations. It is
  43:Generated_Source\PSoC6\pdl\drivers\peripheral\gpio/cy_gpio.c **** * not thread safe as the resource is shared among multiple pins on a port.
  44:Generated_Source\PSoC6\pdl\drivers\peripheral\gpio/cy_gpio.c **** *
  45:Generated_Source\PSoC6\pdl\drivers\peripheral\gpio/cy_gpio.c **** * \funcusage
  46:Generated_Source\PSoC6\pdl\drivers\peripheral\gpio/cy_gpio.c **** * \snippet gpio/gpio_v1_10_sut_01.cydsn/main_cm4.c snippet_Cy_GPIO_Pin_Init
  47:Generated_Source\PSoC6\pdl\drivers\peripheral\gpio/cy_gpio.c **** *
  48:Generated_Source\PSoC6\pdl\drivers\peripheral\gpio/cy_gpio.c **** *******************************************************************************/
  49:Generated_Source\PSoC6\pdl\drivers\peripheral\gpio/cy_gpio.c **** cy_en_gpio_status_t Cy_GPIO_Pin_Init(GPIO_PRT_Type *base, uint32_t pinNum, const cy_stc_gpio_pin_co
  50:Generated_Source\PSoC6\pdl\drivers\peripheral\gpio/cy_gpio.c **** {
 549              		.loc 2 50 0
 550              		.cfi_startproc
 551              		@ args = 0, pretend = 0, frame = 32
 552              		@ frame_needed = 1, uses_anonymous_args = 0
 553 0000 80B5     		push	{r7, lr}
 554              		.cfi_def_cfa_offset 8
 555              		.cfi_offset 7, -8
 556              		.cfi_offset 14, -4
 557 0002 88B0     		sub	sp, sp, #32
 558              		.cfi_def_cfa_offset 40
 559 0004 00AF     		add	r7, sp, #0
 560              		.cfi_def_cfa_register 7
 561 0006 F860     		str	r0, [r7, #12]
 562 0008 B960     		str	r1, [r7, #8]
 563 000a 7A60     		str	r2, [r7, #4]
  51:Generated_Source\PSoC6\pdl\drivers\peripheral\gpio/cy_gpio.c ****     cy_en_gpio_status_t status = CY_GPIO_SUCCESS;
 564              		.loc 2 51 0
 565 000c 0023     		movs	r3, #0
 566 000e FB61     		str	r3, [r7, #28]
  52:Generated_Source\PSoC6\pdl\drivers\peripheral\gpio/cy_gpio.c ****     uint32_t maskCfgOut;
  53:Generated_Source\PSoC6\pdl\drivers\peripheral\gpio/cy_gpio.c ****     uint32_t tempReg;
  54:Generated_Source\PSoC6\pdl\drivers\peripheral\gpio/cy_gpio.c **** 
  55:Generated_Source\PSoC6\pdl\drivers\peripheral\gpio/cy_gpio.c ****     if((NULL != base) && (NULL != config))
 567              		.loc 2 55 0
ARM GAS  C:\Users\ikomb\AppData\Local\Temp\ccAzoKUN.s 			page 43


 568 0010 FB68     		ldr	r3, [r7, #12]
 569 0012 002B     		cmp	r3, #0
 570 0014 00F03081 		beq	.L38
 571              		.loc 2 55 0 is_stmt 0 discriminator 1
 572 0018 7B68     		ldr	r3, [r7, #4]
 573 001a 002B     		cmp	r3, #0
 574 001c 00F02C81 		beq	.L38
  56:Generated_Source\PSoC6\pdl\drivers\peripheral\gpio/cy_gpio.c ****     {
  57:Generated_Source\PSoC6\pdl\drivers\peripheral\gpio/cy_gpio.c ****         CY_ASSERT_L2(CY_GPIO_IS_PIN_VALID(pinNum));
 575              		.loc 2 57 0 is_stmt 1
 576 0020 BB68     		ldr	r3, [r7, #8]
 577 0022 072B     		cmp	r3, #7
 578 0024 03D9     		bls	.L39
 579              		.loc 2 57 0 is_stmt 0 discriminator 1
 580 0026 3921     		movs	r1, #57
 581 0028 9748     		ldr	r0, .L55
 582 002a FFF7FEFF 		bl	Cy_SysLib_AssertFailed
 583              	.L39:
  58:Generated_Source\PSoC6\pdl\drivers\peripheral\gpio/cy_gpio.c ****         CY_ASSERT_L2(CY_GPIO_IS_VALUE_VALID(config->outVal));
 584              		.loc 2 58 0 is_stmt 1
 585 002e 7B68     		ldr	r3, [r7, #4]
 586 0030 1B68     		ldr	r3, [r3]
 587 0032 012B     		cmp	r3, #1
 588 0034 03D9     		bls	.L40
 589              		.loc 2 58 0 is_stmt 0 discriminator 1
 590 0036 3A21     		movs	r1, #58
 591 0038 9348     		ldr	r0, .L55
 592 003a FFF7FEFF 		bl	Cy_SysLib_AssertFailed
 593              	.L40:
  59:Generated_Source\PSoC6\pdl\drivers\peripheral\gpio/cy_gpio.c ****         CY_ASSERT_L2(CY_GPIO_IS_DM_VALID(config->driveMode));
 594              		.loc 2 59 0 is_stmt 1
 595 003e 7B68     		ldr	r3, [r7, #4]
 596 0040 5B68     		ldr	r3, [r3, #4]
 597 0042 23F00F03 		bic	r3, r3, #15
 598 0046 002B     		cmp	r3, #0
 599 0048 03D0     		beq	.L41
 600              		.loc 2 59 0 is_stmt 0 discriminator 1
 601 004a 3B21     		movs	r1, #59
 602 004c 8E48     		ldr	r0, .L55
 603 004e FFF7FEFF 		bl	Cy_SysLib_AssertFailed
 604              	.L41:
  60:Generated_Source\PSoC6\pdl\drivers\peripheral\gpio/cy_gpio.c ****         CY_ASSERT_L2(CY_GPIO_IS_HSIOM_VALID(config->hsiom));  
 605              		.loc 2 60 0 is_stmt 1
 606 0052 7B68     		ldr	r3, [r7, #4]
 607 0054 1B7A     		ldrb	r3, [r3, #8]	@ zero_extendqisi2
 608 0056 23F01F03 		bic	r3, r3, #31
 609 005a 002B     		cmp	r3, #0
 610 005c 03D0     		beq	.L42
 611              		.loc 2 60 0 is_stmt 0 discriminator 1
 612 005e 3C21     		movs	r1, #60
 613 0060 8948     		ldr	r0, .L55
 614 0062 FFF7FEFF 		bl	Cy_SysLib_AssertFailed
 615              	.L42:
  61:Generated_Source\PSoC6\pdl\drivers\peripheral\gpio/cy_gpio.c ****         CY_ASSERT_L2(CY_GPIO_IS_INT_EDGE_VALID(config->intEdge)); 
 616              		.loc 2 61 0 is_stmt 1
 617 0066 7B68     		ldr	r3, [r7, #4]
 618 0068 DB68     		ldr	r3, [r3, #12]
ARM GAS  C:\Users\ikomb\AppData\Local\Temp\ccAzoKUN.s 			page 44


 619 006a 002B     		cmp	r3, #0
 620 006c 0FD0     		beq	.L43
 621              		.loc 2 61 0 is_stmt 0 discriminator 1
 622 006e 7B68     		ldr	r3, [r7, #4]
 623 0070 DB68     		ldr	r3, [r3, #12]
 624 0072 012B     		cmp	r3, #1
 625 0074 0BD0     		beq	.L43
 626              		.loc 2 61 0 discriminator 2
 627 0076 7B68     		ldr	r3, [r7, #4]
 628 0078 DB68     		ldr	r3, [r3, #12]
 629 007a 022B     		cmp	r3, #2
 630 007c 07D0     		beq	.L43
 631              		.loc 2 61 0 discriminator 3
 632 007e 7B68     		ldr	r3, [r7, #4]
 633 0080 DB68     		ldr	r3, [r3, #12]
 634 0082 032B     		cmp	r3, #3
 635 0084 03D0     		beq	.L43
 636              		.loc 2 61 0 discriminator 4
 637 0086 3D21     		movs	r1, #61
 638 0088 7F48     		ldr	r0, .L55
 639 008a FFF7FEFF 		bl	Cy_SysLib_AssertFailed
 640              	.L43:
  62:Generated_Source\PSoC6\pdl\drivers\peripheral\gpio/cy_gpio.c ****         CY_ASSERT_L2(CY_GPIO_IS_VALUE_VALID(config->intMask));
 641              		.loc 2 62 0 is_stmt 1
 642 008e 7B68     		ldr	r3, [r7, #4]
 643 0090 1B69     		ldr	r3, [r3, #16]
 644 0092 012B     		cmp	r3, #1
 645 0094 03D9     		bls	.L44
 646              		.loc 2 62 0 is_stmt 0 discriminator 1
 647 0096 3E21     		movs	r1, #62
 648 0098 7B48     		ldr	r0, .L55
 649 009a FFF7FEFF 		bl	Cy_SysLib_AssertFailed
 650              	.L44:
  63:Generated_Source\PSoC6\pdl\drivers\peripheral\gpio/cy_gpio.c ****         CY_ASSERT_L2(CY_GPIO_IS_VALUE_VALID(config->vtrip));
 651              		.loc 2 63 0 is_stmt 1
 652 009e 7B68     		ldr	r3, [r7, #4]
 653 00a0 5B69     		ldr	r3, [r3, #20]
 654 00a2 012B     		cmp	r3, #1
 655 00a4 03D9     		bls	.L45
 656              		.loc 2 63 0 is_stmt 0 discriminator 1
 657 00a6 3F21     		movs	r1, #63
 658 00a8 7748     		ldr	r0, .L55
 659 00aa FFF7FEFF 		bl	Cy_SysLib_AssertFailed
 660              	.L45:
  64:Generated_Source\PSoC6\pdl\drivers\peripheral\gpio/cy_gpio.c ****         CY_ASSERT_L2(CY_GPIO_IS_VALUE_VALID(config->slewRate));
 661              		.loc 2 64 0 is_stmt 1
 662 00ae 7B68     		ldr	r3, [r7, #4]
 663 00b0 9B69     		ldr	r3, [r3, #24]
 664 00b2 012B     		cmp	r3, #1
 665 00b4 03D9     		bls	.L46
 666              		.loc 2 64 0 is_stmt 0 discriminator 1
 667 00b6 4021     		movs	r1, #64
 668 00b8 7348     		ldr	r0, .L55
 669 00ba FFF7FEFF 		bl	Cy_SysLib_AssertFailed
 670              	.L46:
  65:Generated_Source\PSoC6\pdl\drivers\peripheral\gpio/cy_gpio.c ****         CY_ASSERT_L2(CY_GPIO_IS_DRIVE_SEL_VALID(config->driveSel));
 671              		.loc 2 65 0 is_stmt 1
ARM GAS  C:\Users\ikomb\AppData\Local\Temp\ccAzoKUN.s 			page 45


 672 00be 7B68     		ldr	r3, [r7, #4]
 673 00c0 DB69     		ldr	r3, [r3, #28]
 674 00c2 002B     		cmp	r3, #0
 675 00c4 0FD0     		beq	.L47
 676              		.loc 2 65 0 is_stmt 0 discriminator 1
 677 00c6 7B68     		ldr	r3, [r7, #4]
 678 00c8 DB69     		ldr	r3, [r3, #28]
 679 00ca 012B     		cmp	r3, #1
 680 00cc 0BD0     		beq	.L47
 681              		.loc 2 65 0 discriminator 2
 682 00ce 7B68     		ldr	r3, [r7, #4]
 683 00d0 DB69     		ldr	r3, [r3, #28]
 684 00d2 022B     		cmp	r3, #2
 685 00d4 07D0     		beq	.L47
 686              		.loc 2 65 0 discriminator 3
 687 00d6 7B68     		ldr	r3, [r7, #4]
 688 00d8 DB69     		ldr	r3, [r3, #28]
 689 00da 032B     		cmp	r3, #3
 690 00dc 03D0     		beq	.L47
 691              		.loc 2 65 0 discriminator 4
 692 00de 4121     		movs	r1, #65
 693 00e0 6948     		ldr	r0, .L55
 694 00e2 FFF7FEFF 		bl	Cy_SysLib_AssertFailed
 695              	.L47:
  66:Generated_Source\PSoC6\pdl\drivers\peripheral\gpio/cy_gpio.c ****         CY_ASSERT_L2(CY_GPIO_IS_VALUE_VALID(config->vregEn));
 696              		.loc 2 66 0 is_stmt 1
 697 00e6 7B68     		ldr	r3, [r7, #4]
 698 00e8 1B6A     		ldr	r3, [r3, #32]
 699 00ea 012B     		cmp	r3, #1
 700 00ec 03D9     		bls	.L48
 701              		.loc 2 66 0 is_stmt 0 discriminator 1
 702 00ee 4221     		movs	r1, #66
 703 00f0 6548     		ldr	r0, .L55
 704 00f2 FFF7FEFF 		bl	Cy_SysLib_AssertFailed
 705              	.L48:
  67:Generated_Source\PSoC6\pdl\drivers\peripheral\gpio/cy_gpio.c ****         CY_ASSERT_L2(CY_GPIO_IS_VALUE_VALID(config->ibufMode));
 706              		.loc 2 67 0 is_stmt 1
 707 00f6 7B68     		ldr	r3, [r7, #4]
 708 00f8 5B6A     		ldr	r3, [r3, #36]
 709 00fa 012B     		cmp	r3, #1
 710 00fc 03D9     		bls	.L49
 711              		.loc 2 67 0 is_stmt 0 discriminator 1
 712 00fe 4321     		movs	r1, #67
 713 0100 6148     		ldr	r0, .L55
 714 0102 FFF7FEFF 		bl	Cy_SysLib_AssertFailed
 715              	.L49:
  68:Generated_Source\PSoC6\pdl\drivers\peripheral\gpio/cy_gpio.c ****         CY_ASSERT_L2(CY_GPIO_IS_VALUE_VALID(config->vtripSel));
 716              		.loc 2 68 0 is_stmt 1
 717 0106 7B68     		ldr	r3, [r7, #4]
 718 0108 9B6A     		ldr	r3, [r3, #40]
 719 010a 012B     		cmp	r3, #1
 720 010c 03D9     		bls	.L50
 721              		.loc 2 68 0 is_stmt 0 discriminator 1
 722 010e 4421     		movs	r1, #68
 723 0110 5D48     		ldr	r0, .L55
 724 0112 FFF7FEFF 		bl	Cy_SysLib_AssertFailed
 725              	.L50:
ARM GAS  C:\Users\ikomb\AppData\Local\Temp\ccAzoKUN.s 			page 46


  69:Generated_Source\PSoC6\pdl\drivers\peripheral\gpio/cy_gpio.c ****         CY_ASSERT_L2(CY_GPIO_IS_VREF_SEL_VALID(config->vrefSel));
 726              		.loc 2 69 0 is_stmt 1
 727 0116 7B68     		ldr	r3, [r7, #4]
 728 0118 DB6A     		ldr	r3, [r3, #44]
 729 011a 002B     		cmp	r3, #0
 730 011c 0FD0     		beq	.L51
 731              		.loc 2 69 0 is_stmt 0 discriminator 1
 732 011e 7B68     		ldr	r3, [r7, #4]
 733 0120 DB6A     		ldr	r3, [r3, #44]
 734 0122 012B     		cmp	r3, #1
 735 0124 0BD0     		beq	.L51
 736              		.loc 2 69 0 discriminator 2
 737 0126 7B68     		ldr	r3, [r7, #4]
 738 0128 DB6A     		ldr	r3, [r3, #44]
 739 012a 022B     		cmp	r3, #2
 740 012c 07D0     		beq	.L51
 741              		.loc 2 69 0 discriminator 3
 742 012e 7B68     		ldr	r3, [r7, #4]
 743 0130 DB6A     		ldr	r3, [r3, #44]
 744 0132 032B     		cmp	r3, #3
 745 0134 03D0     		beq	.L51
 746              		.loc 2 69 0 discriminator 4
 747 0136 4521     		movs	r1, #69
 748 0138 5348     		ldr	r0, .L55
 749 013a FFF7FEFF 		bl	Cy_SysLib_AssertFailed
 750              	.L51:
  70:Generated_Source\PSoC6\pdl\drivers\peripheral\gpio/cy_gpio.c ****         CY_ASSERT_L2(CY_GPIO_IS_VOH_SEL_VALID(config->vohSel));
 751              		.loc 2 70 0 is_stmt 1
 752 013e 7B68     		ldr	r3, [r7, #4]
 753 0140 1B6B     		ldr	r3, [r3, #48]
 754 0142 002B     		cmp	r3, #0
 755 0144 1FD0     		beq	.L52
 756              		.loc 2 70 0 is_stmt 0 discriminator 1
 757 0146 7B68     		ldr	r3, [r7, #4]
 758 0148 1B6B     		ldr	r3, [r3, #48]
 759 014a 012B     		cmp	r3, #1
 760 014c 1BD0     		beq	.L52
 761              		.loc 2 70 0 discriminator 2
 762 014e 7B68     		ldr	r3, [r7, #4]
 763 0150 1B6B     		ldr	r3, [r3, #48]
 764 0152 022B     		cmp	r3, #2
 765 0154 17D0     		beq	.L52
 766              		.loc 2 70 0 discriminator 3
 767 0156 7B68     		ldr	r3, [r7, #4]
 768 0158 1B6B     		ldr	r3, [r3, #48]
 769 015a 032B     		cmp	r3, #3
 770 015c 13D0     		beq	.L52
 771              		.loc 2 70 0 discriminator 4
 772 015e 7B68     		ldr	r3, [r7, #4]
 773 0160 1B6B     		ldr	r3, [r3, #48]
 774 0162 042B     		cmp	r3, #4
 775 0164 0FD0     		beq	.L52
 776              		.loc 2 70 0 discriminator 5
 777 0166 7B68     		ldr	r3, [r7, #4]
 778 0168 1B6B     		ldr	r3, [r3, #48]
 779 016a 052B     		cmp	r3, #5
 780 016c 0BD0     		beq	.L52
ARM GAS  C:\Users\ikomb\AppData\Local\Temp\ccAzoKUN.s 			page 47


 781              		.loc 2 70 0 discriminator 6
 782 016e 7B68     		ldr	r3, [r7, #4]
 783 0170 1B6B     		ldr	r3, [r3, #48]
 784 0172 062B     		cmp	r3, #6
 785 0174 07D0     		beq	.L52
 786              		.loc 2 70 0 discriminator 7
 787 0176 7B68     		ldr	r3, [r7, #4]
 788 0178 1B6B     		ldr	r3, [r3, #48]
 789 017a 072B     		cmp	r3, #7
 790 017c 03D0     		beq	.L52
 791              		.loc 2 70 0 discriminator 8
 792 017e 4621     		movs	r1, #70
 793 0180 4148     		ldr	r0, .L55
 794 0182 FFF7FEFF 		bl	Cy_SysLib_AssertFailed
 795              	.L52:
  71:Generated_Source\PSoC6\pdl\drivers\peripheral\gpio/cy_gpio.c ****     
  72:Generated_Source\PSoC6\pdl\drivers\peripheral\gpio/cy_gpio.c ****         Cy_GPIO_Write(base, pinNum, config->outVal);
 796              		.loc 2 72 0 is_stmt 1
 797 0186 7B68     		ldr	r3, [r7, #4]
 798 0188 1B68     		ldr	r3, [r3]
 799 018a 1A46     		mov	r2, r3
 800 018c B968     		ldr	r1, [r7, #8]
 801 018e F868     		ldr	r0, [r7, #12]
 802 0190 FFF7FEFF 		bl	Cy_GPIO_Write
  73:Generated_Source\PSoC6\pdl\drivers\peripheral\gpio/cy_gpio.c ****         Cy_GPIO_SetDrivemode(base, pinNum, config->driveMode);
 803              		.loc 2 73 0
 804 0194 7B68     		ldr	r3, [r7, #4]
 805 0196 5B68     		ldr	r3, [r3, #4]
 806 0198 1A46     		mov	r2, r3
 807 019a B968     		ldr	r1, [r7, #8]
 808 019c F868     		ldr	r0, [r7, #12]
 809 019e FFF7FEFF 		bl	Cy_GPIO_SetDrivemode
  74:Generated_Source\PSoC6\pdl\drivers\peripheral\gpio/cy_gpio.c ****         Cy_GPIO_SetHSIOM(base, pinNum, config->hsiom);
 810              		.loc 2 74 0
 811 01a2 7B68     		ldr	r3, [r7, #4]
 812 01a4 1B7A     		ldrb	r3, [r3, #8]	@ zero_extendqisi2
 813 01a6 1A46     		mov	r2, r3
 814 01a8 B968     		ldr	r1, [r7, #8]
 815 01aa F868     		ldr	r0, [r7, #12]
 816 01ac FFF7FEFF 		bl	Cy_GPIO_SetHSIOM
  75:Generated_Source\PSoC6\pdl\drivers\peripheral\gpio/cy_gpio.c **** 
  76:Generated_Source\PSoC6\pdl\drivers\peripheral\gpio/cy_gpio.c ****         Cy_GPIO_SetInterruptEdge(base, pinNum, config->intEdge);
 817              		.loc 2 76 0
 818 01b0 7B68     		ldr	r3, [r7, #4]
 819 01b2 DB68     		ldr	r3, [r3, #12]
 820 01b4 1A46     		mov	r2, r3
 821 01b6 B968     		ldr	r1, [r7, #8]
 822 01b8 F868     		ldr	r0, [r7, #12]
 823 01ba FFF7FEFF 		bl	Cy_GPIO_SetInterruptEdge
  77:Generated_Source\PSoC6\pdl\drivers\peripheral\gpio/cy_gpio.c ****         Cy_GPIO_SetInterruptMask(base, pinNum, config->intMask);
 824              		.loc 2 77 0
 825 01be 7B68     		ldr	r3, [r7, #4]
 826 01c0 1B69     		ldr	r3, [r3, #16]
 827 01c2 1A46     		mov	r2, r3
 828 01c4 B968     		ldr	r1, [r7, #8]
 829 01c6 F868     		ldr	r0, [r7, #12]
 830 01c8 FFF7FEFF 		bl	Cy_GPIO_SetInterruptMask
ARM GAS  C:\Users\ikomb\AppData\Local\Temp\ccAzoKUN.s 			page 48


  78:Generated_Source\PSoC6\pdl\drivers\peripheral\gpio/cy_gpio.c ****         Cy_GPIO_SetVtrip(base, pinNum, config->vtrip);
 831              		.loc 2 78 0
 832 01cc 7B68     		ldr	r3, [r7, #4]
 833 01ce 5B69     		ldr	r3, [r3, #20]
 834 01d0 1A46     		mov	r2, r3
 835 01d2 B968     		ldr	r1, [r7, #8]
 836 01d4 F868     		ldr	r0, [r7, #12]
 837 01d6 FFF7FEFF 		bl	Cy_GPIO_SetVtrip
  79:Generated_Source\PSoC6\pdl\drivers\peripheral\gpio/cy_gpio.c **** 
  80:Generated_Source\PSoC6\pdl\drivers\peripheral\gpio/cy_gpio.c ****         /* Slew rate and Driver strength */
  81:Generated_Source\PSoC6\pdl\drivers\peripheral\gpio/cy_gpio.c ****         maskCfgOut = (CY_GPIO_CFG_OUT_SLOW_MASK << pinNum) 
 838              		.loc 2 81 0
 839 01da 0122     		movs	r2, #1
 840 01dc BB68     		ldr	r3, [r7, #8]
 841 01de 9A40     		lsls	r2, r2, r3
  82:Generated_Source\PSoC6\pdl\drivers\peripheral\gpio/cy_gpio.c ****                         | (CY_GPIO_CFG_OUT_DRIVE_SEL_MASK << ((uint32_t)(pinNum << 1u) + CY_GPIO_CF
 842              		.loc 2 82 0
 843 01e0 BB68     		ldr	r3, [r7, #8]
 844 01e2 5B00     		lsls	r3, r3, #1
 845 01e4 1033     		adds	r3, r3, #16
 846 01e6 0321     		movs	r1, #3
 847 01e8 01FA03F3 		lsl	r3, r1, r3
  81:Generated_Source\PSoC6\pdl\drivers\peripheral\gpio/cy_gpio.c ****                         | (CY_GPIO_CFG_OUT_DRIVE_SEL_MASK << ((uint32_t)(pinNum << 1u) + CY_GPIO_CF
 848              		.loc 2 81 0
 849 01ec 1343     		orrs	r3, r3, r2
 850 01ee BB61     		str	r3, [r7, #24]
  83:Generated_Source\PSoC6\pdl\drivers\peripheral\gpio/cy_gpio.c ****         tempReg = base->CFG_OUT & ~(maskCfgOut);
 851              		.loc 2 83 0
 852 01f0 FB68     		ldr	r3, [r7, #12]
 853 01f2 1A6B     		ldr	r2, [r3, #48]
 854 01f4 BB69     		ldr	r3, [r7, #24]
 855 01f6 DB43     		mvns	r3, r3
 856 01f8 1340     		ands	r3, r3, r2
 857 01fa 7B61     		str	r3, [r7, #20]
  84:Generated_Source\PSoC6\pdl\drivers\peripheral\gpio/cy_gpio.c ****         base->CFG_OUT = tempReg | ((config->slewRate & CY_GPIO_CFG_OUT_SLOW_MASK) << pinNum)
 858              		.loc 2 84 0
 859 01fc 7B68     		ldr	r3, [r7, #4]
 860 01fe 9B69     		ldr	r3, [r3, #24]
 861 0200 03F00102 		and	r2, r3, #1
 862 0204 BB68     		ldr	r3, [r7, #8]
 863 0206 9A40     		lsls	r2, r2, r3
 864 0208 7B69     		ldr	r3, [r7, #20]
 865 020a 1A43     		orrs	r2, r2, r3
  85:Generated_Source\PSoC6\pdl\drivers\peripheral\gpio/cy_gpio.c ****                             | ((config->driveSel & CY_GPIO_CFG_OUT_DRIVE_SEL_MASK) << ((uint32_t)(p
 866              		.loc 2 85 0
 867 020c 7B68     		ldr	r3, [r7, #4]
 868 020e DB69     		ldr	r3, [r3, #28]
 869 0210 03F00301 		and	r1, r3, #3
 870 0214 BB68     		ldr	r3, [r7, #8]
 871 0216 5B00     		lsls	r3, r3, #1
 872 0218 1033     		adds	r3, r3, #16
 873 021a 01FA03F3 		lsl	r3, r1, r3
 874 021e 1A43     		orrs	r2, r2, r3
  84:Generated_Source\PSoC6\pdl\drivers\peripheral\gpio/cy_gpio.c ****         base->CFG_OUT = tempReg | ((config->slewRate & CY_GPIO_CFG_OUT_SLOW_MASK) << pinNum)
 875              		.loc 2 84 0
 876 0220 FB68     		ldr	r3, [r7, #12]
 877 0222 1A63     		str	r2, [r3, #48]
ARM GAS  C:\Users\ikomb\AppData\Local\Temp\ccAzoKUN.s 			page 49


  86:Generated_Source\PSoC6\pdl\drivers\peripheral\gpio/cy_gpio.c **** 
  87:Generated_Source\PSoC6\pdl\drivers\peripheral\gpio/cy_gpio.c ****         /* SIO specific configuration */
  88:Generated_Source\PSoC6\pdl\drivers\peripheral\gpio/cy_gpio.c ****         tempReg = base->CFG_SIO & ~(CY_GPIO_SIO_PIN_MASK);
 878              		.loc 2 88 0
 879 0224 FB68     		ldr	r3, [r7, #12]
 880 0226 5B6B     		ldr	r3, [r3, #52]
 881 0228 23F0FF03 		bic	r3, r3, #255
 882 022c 7B61     		str	r3, [r7, #20]
  89:Generated_Source\PSoC6\pdl\drivers\peripheral\gpio/cy_gpio.c ****         base->CFG_SIO = tempReg | (((config->vregEn & CY_GPIO_VREG_EN_MASK)
 883              		.loc 2 89 0
 884 022e 7B68     		ldr	r3, [r7, #4]
 885 0230 1B6A     		ldr	r3, [r3, #32]
 886 0232 03F00102 		and	r2, r3, #1
  90:Generated_Source\PSoC6\pdl\drivers\peripheral\gpio/cy_gpio.c ****                                         | ((config->ibufMode & CY_GPIO_IBUF_MASK) << CY_GPIO_IBUF_S
 887              		.loc 2 90 0
 888 0236 7B68     		ldr	r3, [r7, #4]
 889 0238 5B6A     		ldr	r3, [r3, #36]
 890 023a 5B00     		lsls	r3, r3, #1
 891 023c 03F00203 		and	r3, r3, #2
 892 0240 1A43     		orrs	r2, r2, r3
  91:Generated_Source\PSoC6\pdl\drivers\peripheral\gpio/cy_gpio.c ****                                         | ((config->vtripSel & CY_GPIO_VTRIP_SEL_MASK) << CY_GPIO_V
 893              		.loc 2 91 0
 894 0242 7B68     		ldr	r3, [r7, #4]
 895 0244 9B6A     		ldr	r3, [r3, #40]
 896 0246 9B00     		lsls	r3, r3, #2
 897 0248 03F00403 		and	r3, r3, #4
 898 024c 1A43     		orrs	r2, r2, r3
  92:Generated_Source\PSoC6\pdl\drivers\peripheral\gpio/cy_gpio.c ****                                         | ((config->vrefSel & CY_GPIO_VREF_SEL_MASK)  << CY_GPIO_VR
 899              		.loc 2 92 0
 900 024e 7B68     		ldr	r3, [r7, #4]
 901 0250 DB6A     		ldr	r3, [r3, #44]
 902 0252 DB00     		lsls	r3, r3, #3
 903 0254 03F01803 		and	r3, r3, #24
 904 0258 1A43     		orrs	r2, r2, r3
  93:Generated_Source\PSoC6\pdl\drivers\peripheral\gpio/cy_gpio.c ****                                         | ((config->vohSel & CY_GPIO_VOH_SEL_MASK) << CY_GPIO_VOH_S
 905              		.loc 2 93 0
 906 025a 7B68     		ldr	r3, [r7, #4]
 907 025c 1B6B     		ldr	r3, [r3, #48]
 908 025e 5B01     		lsls	r3, r3, #5
 909 0260 DBB2     		uxtb	r3, r3
 910 0262 1A43     		orrs	r2, r2, r3
  94:Generated_Source\PSoC6\pdl\drivers\peripheral\gpio/cy_gpio.c ****                                             << ((pinNum & CY_GPIO_SIO_ODD_PIN_MASK) << CY_GPIO_CFG_
 911              		.loc 2 94 0
 912 0264 BB68     		ldr	r3, [r7, #8]
 913 0266 9B00     		lsls	r3, r3, #2
 914 0268 03F47E73 		and	r3, r3, #1016
 915 026c 9A40     		lsls	r2, r2, r3
  89:Generated_Source\PSoC6\pdl\drivers\peripheral\gpio/cy_gpio.c ****                                         | ((config->ibufMode & CY_GPIO_IBUF_MASK) << CY_GPIO_IBUF_S
 916              		.loc 2 89 0
 917 026e 7B69     		ldr	r3, [r7, #20]
 918 0270 1A43     		orrs	r2, r2, r3
 919 0272 FB68     		ldr	r3, [r7, #12]
 920 0274 5A63     		str	r2, [r3, #52]
 921 0276 01E0     		b	.L53
 922              	.L38:
  95:Generated_Source\PSoC6\pdl\drivers\peripheral\gpio/cy_gpio.c ****     }
  96:Generated_Source\PSoC6\pdl\drivers\peripheral\gpio/cy_gpio.c ****     else
ARM GAS  C:\Users\ikomb\AppData\Local\Temp\ccAzoKUN.s 			page 50


  97:Generated_Source\PSoC6\pdl\drivers\peripheral\gpio/cy_gpio.c ****     {
  98:Generated_Source\PSoC6\pdl\drivers\peripheral\gpio/cy_gpio.c ****         status = CY_GPIO_BAD_PARAM;
 923              		.loc 2 98 0
 924 0278 044B     		ldr	r3, .L55+4
 925 027a FB61     		str	r3, [r7, #28]
 926              	.L53:
  99:Generated_Source\PSoC6\pdl\drivers\peripheral\gpio/cy_gpio.c ****     }
 100:Generated_Source\PSoC6\pdl\drivers\peripheral\gpio/cy_gpio.c ****     
 101:Generated_Source\PSoC6\pdl\drivers\peripheral\gpio/cy_gpio.c ****     return(status);
 927              		.loc 2 101 0
 928 027c FB69     		ldr	r3, [r7, #28]
 102:Generated_Source\PSoC6\pdl\drivers\peripheral\gpio/cy_gpio.c **** }
 929              		.loc 2 102 0
 930 027e 1846     		mov	r0, r3
 931 0280 2037     		adds	r7, r7, #32
 932              		.cfi_def_cfa_offset 8
 933 0282 BD46     		mov	sp, r7
 934              		.cfi_def_cfa_register 13
 935              		@ sp needed
 936 0284 80BD     		pop	{r7, pc}
 937              	.L56:
 938 0286 00BF     		.align	2
 939              	.L55:
 940 0288 40000000 		.word	.LC1
 941 028c 01005A00 		.word	5898241
 942              		.cfi_endproc
 943              	.LFE163:
 944              		.size	Cy_GPIO_Pin_Init, .-Cy_GPIO_Pin_Init
 945              		.section	.text.Cy_GPIO_Port_Init,"ax",%progbits
 946              		.align	2
 947              		.global	Cy_GPIO_Port_Init
 948              		.thumb
 949              		.thumb_func
 950              		.type	Cy_GPIO_Port_Init, %function
 951              	Cy_GPIO_Port_Init:
 952              	.LFB164:
 103:Generated_Source\PSoC6\pdl\drivers\peripheral\gpio/cy_gpio.c **** 
 104:Generated_Source\PSoC6\pdl\drivers\peripheral\gpio/cy_gpio.c **** 
 105:Generated_Source\PSoC6\pdl\drivers\peripheral\gpio/cy_gpio.c **** /*******************************************************************************
 106:Generated_Source\PSoC6\pdl\drivers\peripheral\gpio/cy_gpio.c **** * Function Name: Cy_GPIO_Port_Init
 107:Generated_Source\PSoC6\pdl\drivers\peripheral\gpio/cy_gpio.c **** ****************************************************************************//**
 108:Generated_Source\PSoC6\pdl\drivers\peripheral\gpio/cy_gpio.c **** *
 109:Generated_Source\PSoC6\pdl\drivers\peripheral\gpio/cy_gpio.c **** * \brief Initialize a complete port of pins from a single init structure.
 110:Generated_Source\PSoC6\pdl\drivers\peripheral\gpio/cy_gpio.c **** *
 111:Generated_Source\PSoC6\pdl\drivers\peripheral\gpio/cy_gpio.c **** * The configuration structure used in this function has a 1:1 mapping to the
 112:Generated_Source\PSoC6\pdl\drivers\peripheral\gpio/cy_gpio.c **** * GPIO and HSIOM registers. Refer to the device Technical Reference Manual (TRM)
 113:Generated_Source\PSoC6\pdl\drivers\peripheral\gpio/cy_gpio.c **** * for the register details on how to populate them.
 114:Generated_Source\PSoC6\pdl\drivers\peripheral\gpio/cy_gpio.c **** *
 115:Generated_Source\PSoC6\pdl\drivers\peripheral\gpio/cy_gpio.c **** * \param base
 116:Generated_Source\PSoC6\pdl\drivers\peripheral\gpio/cy_gpio.c **** * Pointer to the pin's port register base address
 117:Generated_Source\PSoC6\pdl\drivers\peripheral\gpio/cy_gpio.c **** *
 118:Generated_Source\PSoC6\pdl\drivers\peripheral\gpio/cy_gpio.c **** * \param config
 119:Generated_Source\PSoC6\pdl\drivers\peripheral\gpio/cy_gpio.c **** * Pointer to the pin config structure base address
 120:Generated_Source\PSoC6\pdl\drivers\peripheral\gpio/cy_gpio.c **** *
 121:Generated_Source\PSoC6\pdl\drivers\peripheral\gpio/cy_gpio.c **** * \return
 122:Generated_Source\PSoC6\pdl\drivers\peripheral\gpio/cy_gpio.c **** * Initialization status
 123:Generated_Source\PSoC6\pdl\drivers\peripheral\gpio/cy_gpio.c **** *
ARM GAS  C:\Users\ikomb\AppData\Local\Temp\ccAzoKUN.s 			page 51


 124:Generated_Source\PSoC6\pdl\drivers\peripheral\gpio/cy_gpio.c **** * \note 
 125:Generated_Source\PSoC6\pdl\drivers\peripheral\gpio/cy_gpio.c **** * If using the PSoC Creator IDE, there is no need to initialize the pins when 
 126:Generated_Source\PSoC6\pdl\drivers\peripheral\gpio/cy_gpio.c **** * using the GPIO component on the schematic. Ports are configured in 
 127:Generated_Source\PSoC6\pdl\drivers\peripheral\gpio/cy_gpio.c **** * Cy_SystemInit() before main() entry.
 128:Generated_Source\PSoC6\pdl\drivers\peripheral\gpio/cy_gpio.c **** *
 129:Generated_Source\PSoC6\pdl\drivers\peripheral\gpio/cy_gpio.c **** * \funcusage
 130:Generated_Source\PSoC6\pdl\drivers\peripheral\gpio/cy_gpio.c **** * \snippet gpio/gpio_v1_10_sut_01.cydsn/main_cm4.c snippet_Cy_GPIO_Port_Init
 131:Generated_Source\PSoC6\pdl\drivers\peripheral\gpio/cy_gpio.c **** *
 132:Generated_Source\PSoC6\pdl\drivers\peripheral\gpio/cy_gpio.c **** *******************************************************************************/
 133:Generated_Source\PSoC6\pdl\drivers\peripheral\gpio/cy_gpio.c **** cy_en_gpio_status_t Cy_GPIO_Port_Init(GPIO_PRT_Type* base, const cy_stc_gpio_prt_config_t *config)
 134:Generated_Source\PSoC6\pdl\drivers\peripheral\gpio/cy_gpio.c **** {
 953              		.loc 2 134 0
 954              		.cfi_startproc
 955              		@ args = 0, pretend = 0, frame = 24
 956              		@ frame_needed = 1, uses_anonymous_args = 0
 957 0000 80B5     		push	{r7, lr}
 958              		.cfi_def_cfa_offset 8
 959              		.cfi_offset 7, -8
 960              		.cfi_offset 14, -4
 961 0002 86B0     		sub	sp, sp, #24
 962              		.cfi_def_cfa_offset 32
 963 0004 00AF     		add	r7, sp, #0
 964              		.cfi_def_cfa_register 7
 965 0006 7860     		str	r0, [r7, #4]
 966 0008 3960     		str	r1, [r7]
 135:Generated_Source\PSoC6\pdl\drivers\peripheral\gpio/cy_gpio.c ****     cy_en_gpio_status_t status = CY_GPIO_SUCCESS;
 967              		.loc 2 135 0
 968 000a 0023     		movs	r3, #0
 969 000c 7B61     		str	r3, [r7, #20]
 136:Generated_Source\PSoC6\pdl\drivers\peripheral\gpio/cy_gpio.c ****     uint32_t portNum;
 137:Generated_Source\PSoC6\pdl\drivers\peripheral\gpio/cy_gpio.c ****     HSIOM_PRT_Type* baseHSIOM;
 138:Generated_Source\PSoC6\pdl\drivers\peripheral\gpio/cy_gpio.c **** 
 139:Generated_Source\PSoC6\pdl\drivers\peripheral\gpio/cy_gpio.c ****     if((NULL != base) && (NULL != config))
 970              		.loc 2 139 0
 971 000e 7B68     		ldr	r3, [r7, #4]
 972 0010 002B     		cmp	r3, #0
 973 0012 73D0     		beq	.L58
 974              		.loc 2 139 0 is_stmt 0 discriminator 1
 975 0014 3B68     		ldr	r3, [r7]
 976 0016 002B     		cmp	r3, #0
 977 0018 70D0     		beq	.L58
 140:Generated_Source\PSoC6\pdl\drivers\peripheral\gpio/cy_gpio.c ****     {
 141:Generated_Source\PSoC6\pdl\drivers\peripheral\gpio/cy_gpio.c ****         CY_ASSERT_L2(CY_GPIO_IS_PIN_BIT_VALID(config->out));
 978              		.loc 2 141 0 is_stmt 1
 979 001a 3B68     		ldr	r3, [r7]
 980 001c 1B68     		ldr	r3, [r3]
 981 001e 23F0FF03 		bic	r3, r3, #255
 982 0022 002B     		cmp	r3, #0
 983 0024 03D0     		beq	.L59
 984              		.loc 2 141 0 is_stmt 0 discriminator 1
 985 0026 8D21     		movs	r1, #141
 986 0028 3848     		ldr	r0, .L67
 987 002a FFF7FEFF 		bl	Cy_SysLib_AssertFailed
 988              	.L59:
 142:Generated_Source\PSoC6\pdl\drivers\peripheral\gpio/cy_gpio.c ****         CY_ASSERT_L2(CY_GPIO_IS_PIN_BIT_VALID(config->cfgIn));
 989              		.loc 2 142 0 is_stmt 1
 990 002e 3B68     		ldr	r3, [r7]
ARM GAS  C:\Users\ikomb\AppData\Local\Temp\ccAzoKUN.s 			page 52


 991 0030 1B69     		ldr	r3, [r3, #16]
 992 0032 23F0FF03 		bic	r3, r3, #255
 993 0036 002B     		cmp	r3, #0
 994 0038 03D0     		beq	.L60
 995              		.loc 2 142 0 is_stmt 0 discriminator 1
 996 003a 8E21     		movs	r1, #142
 997 003c 3348     		ldr	r0, .L67
 998 003e FFF7FEFF 		bl	Cy_SysLib_AssertFailed
 999              	.L60:
 143:Generated_Source\PSoC6\pdl\drivers\peripheral\gpio/cy_gpio.c ****         CY_ASSERT_L2(CY_GPIO_IS_INTR_CFG_VALID(config->intrCfg));
 1000              		.loc 2 143 0 is_stmt 1
 1001 0042 3B68     		ldr	r3, [r7]
 1002 0044 9B68     		ldr	r3, [r3, #8]
 1003 0046 5B0D     		lsrs	r3, r3, #21
 1004 0048 5B05     		lsls	r3, r3, #21
 1005 004a 002B     		cmp	r3, #0
 1006 004c 03D0     		beq	.L61
 1007              		.loc 2 143 0 is_stmt 0 discriminator 1
 1008 004e 8F21     		movs	r1, #143
 1009 0050 2E48     		ldr	r0, .L67
 1010 0052 FFF7FEFF 		bl	Cy_SysLib_AssertFailed
 1011              	.L61:
 144:Generated_Source\PSoC6\pdl\drivers\peripheral\gpio/cy_gpio.c ****         CY_ASSERT_L2(CY_GPIO_IS_INTR_MASK_VALID(config->intrMask));
 1012              		.loc 2 144 0 is_stmt 1
 1013 0056 3B68     		ldr	r3, [r7]
 1014 0058 5B68     		ldr	r3, [r3, #4]
 1015 005a 23F4FF73 		bic	r3, r3, #510
 1016 005e 23F00103 		bic	r3, r3, #1
 1017 0062 002B     		cmp	r3, #0
 1018 0064 03D0     		beq	.L62
 1019              		.loc 2 144 0 is_stmt 0 discriminator 1
 1020 0066 9021     		movs	r1, #144
 1021 0068 2848     		ldr	r0, .L67
 1022 006a FFF7FEFF 		bl	Cy_SysLib_AssertFailed
 1023              	.L62:
