ARM GAS  C:\Users\ikomb\AppData\Local\Temp\cchnbsea.s 			page 1


   1              		.syntax unified
   2              		.cpu cortex-m4
   3              		.eabi_attribute 27, 1
   4              		.fpu fpv4-sp-d16
   5              		.eabi_attribute 20, 1
   6              		.eabi_attribute 21, 1
   7              		.eabi_attribute 23, 3
   8              		.eabi_attribute 24, 1
   9              		.eabi_attribute 25, 1
  10              		.eabi_attribute 26, 1
  11              		.eabi_attribute 30, 6
  12              		.eabi_attribute 34, 1
  13              		.eabi_attribute 18, 4
  14              		.thumb
  15              		.syntax unified
  16              		.file	"cy_i2s.c"
  17              		.text
  18              	.Ltext0:
  19              		.cfi_sections	.debug_frame
  20              		.section	.text.Cy_I2S_EnableTx,"ax",%progbits
  21              		.align	2
  22              		.thumb
  23              		.thumb_func
  24              		.type	Cy_I2S_EnableTx, %function
  25              	Cy_I2S_EnableTx:
  26              	.LFB158:
  27              		.file 1 "Generated_Source\\PSoC6\\pdl\\drivers\\peripheral\\i2s\\cy_i2s.h"
   1:Generated_Source\PSoC6\pdl\drivers\peripheral\i2s/cy_i2s.h **** /***************************************************************************//**
   2:Generated_Source\PSoC6\pdl\drivers\peripheral\i2s/cy_i2s.h **** * \file cy_i2s.h
   3:Generated_Source\PSoC6\pdl\drivers\peripheral\i2s/cy_i2s.h **** * \version 2.0.1
   4:Generated_Source\PSoC6\pdl\drivers\peripheral\i2s/cy_i2s.h **** * 
   5:Generated_Source\PSoC6\pdl\drivers\peripheral\i2s/cy_i2s.h **** * The header file of the I2S driver.
   6:Generated_Source\PSoC6\pdl\drivers\peripheral\i2s/cy_i2s.h **** *
   7:Generated_Source\PSoC6\pdl\drivers\peripheral\i2s/cy_i2s.h **** ********************************************************************************
   8:Generated_Source\PSoC6\pdl\drivers\peripheral\i2s/cy_i2s.h **** * \copyright
   9:Generated_Source\PSoC6\pdl\drivers\peripheral\i2s/cy_i2s.h **** * Copyright 2016-2018, Cypress Semiconductor Corporation. All rights reserved.
  10:Generated_Source\PSoC6\pdl\drivers\peripheral\i2s/cy_i2s.h **** * You may use this file only in accordance with the license, terms, conditions,
  11:Generated_Source\PSoC6\pdl\drivers\peripheral\i2s/cy_i2s.h **** * disclaimers, and limitations in the end user license agreement accompanying
  12:Generated_Source\PSoC6\pdl\drivers\peripheral\i2s/cy_i2s.h **** * the software package with which this file was provided.
  13:Generated_Source\PSoC6\pdl\drivers\peripheral\i2s/cy_i2s.h **** *******************************************************************************/
  14:Generated_Source\PSoC6\pdl\drivers\peripheral\i2s/cy_i2s.h **** 
  15:Generated_Source\PSoC6\pdl\drivers\peripheral\i2s/cy_i2s.h **** /**
  16:Generated_Source\PSoC6\pdl\drivers\peripheral\i2s/cy_i2s.h **** * \defgroup group_i2s Inter-IC Sound (I2S)
  17:Generated_Source\PSoC6\pdl\drivers\peripheral\i2s/cy_i2s.h **** * \{
  18:Generated_Source\PSoC6\pdl\drivers\peripheral\i2s/cy_i2s.h **** * The I2S driver provides a function API to manage Inter-IC Sound. I2S is used 
  19:Generated_Source\PSoC6\pdl\drivers\peripheral\i2s/cy_i2s.h **** * to send digital audio streaming data to external I2S devices, such as audio 
  20:Generated_Source\PSoC6\pdl\drivers\peripheral\i2s/cy_i2s.h **** * codecs or simple DACs. It can also receive digital audio streaming data.
  21:Generated_Source\PSoC6\pdl\drivers\peripheral\i2s/cy_i2s.h **** *
  22:Generated_Source\PSoC6\pdl\drivers\peripheral\i2s/cy_i2s.h **** * Features:
  23:Generated_Source\PSoC6\pdl\drivers\peripheral\i2s/cy_i2s.h **** * * An industry standard NXP I2S interface.
  24:Generated_Source\PSoC6\pdl\drivers\peripheral\i2s/cy_i2s.h **** * * Supports master/slave TX/RX operation.
  25:Generated_Source\PSoC6\pdl\drivers\peripheral\i2s/cy_i2s.h **** * * Programmable Channel/Word Lengths.
  26:Generated_Source\PSoC6\pdl\drivers\peripheral\i2s/cy_i2s.h **** * * Supports External Clock operation.
  27:Generated_Source\PSoC6\pdl\drivers\peripheral\i2s/cy_i2s.h **** *
  28:Generated_Source\PSoC6\pdl\drivers\peripheral\i2s/cy_i2s.h **** * The I2S bus is an industry standard. The hardware interface was 
  29:Generated_Source\PSoC6\pdl\drivers\peripheral\i2s/cy_i2s.h **** * developed by Philips Semiconductors (now NXP Semiconductors). 
  30:Generated_Source\PSoC6\pdl\drivers\peripheral\i2s/cy_i2s.h **** *
ARM GAS  C:\Users\ikomb\AppData\Local\Temp\cchnbsea.s 			page 2


  31:Generated_Source\PSoC6\pdl\drivers\peripheral\i2s/cy_i2s.h **** * \section group_i2s_configuration_considerations Configuration Considerations
  32:Generated_Source\PSoC6\pdl\drivers\peripheral\i2s/cy_i2s.h **** *
  33:Generated_Source\PSoC6\pdl\drivers\peripheral\i2s/cy_i2s.h **** * To set up an I2S, provide the configuration parameters in the
  34:Generated_Source\PSoC6\pdl\drivers\peripheral\i2s/cy_i2s.h **** * \ref cy_stc_i2s_config_t structure. 
  35:Generated_Source\PSoC6\pdl\drivers\peripheral\i2s/cy_i2s.h **** * 
  36:Generated_Source\PSoC6\pdl\drivers\peripheral\i2s/cy_i2s.h **** * For example, for Tx configuration, set txEnabled to true, configure
  37:Generated_Source\PSoC6\pdl\drivers\peripheral\i2s/cy_i2s.h **** * txDmaTrigger (depending on whether DMA is going to be used or not), set
  38:Generated_Source\PSoC6\pdl\drivers\peripheral\i2s/cy_i2s.h **** * extClk (if an external clock is used), provide clkDiv, txMasterMode,
  39:Generated_Source\PSoC6\pdl\drivers\peripheral\i2s/cy_i2s.h **** * txAlignment, txChannels (only 2 is supported in I2S and Left Justified modes)
  40:Generated_Source\PSoC6\pdl\drivers\peripheral\i2s/cy_i2s.h **** * txSdoLatchingTime (for slave mode only), txChannelLength, txWordLength,
  41:Generated_Source\PSoC6\pdl\drivers\peripheral\i2s/cy_i2s.h **** * txWsPulseWidth (for TMD modes only), txWatchdogEnable and txWatchdogValue
  42:Generated_Source\PSoC6\pdl\drivers\peripheral\i2s/cy_i2s.h **** * (both for Slave mode only, and when the watchdog interrupt will be used),
  43:Generated_Source\PSoC6\pdl\drivers\peripheral\i2s/cy_i2s.h **** * either txSckoInversion or txSckiInversion (based on txMasterMode setting),
  44:Generated_Source\PSoC6\pdl\drivers\peripheral\i2s/cy_i2s.h **** * txFifoTriggerLevel (when the Trig interrupt will be used) and txOverheadValue
  45:Generated_Source\PSoC6\pdl\drivers\peripheral\i2s/cy_i2s.h **** * (only when the word length is less than channel length).
  46:Generated_Source\PSoC6\pdl\drivers\peripheral\i2s/cy_i2s.h **** * A similar setup is for the Rx configuration.
  47:Generated_Source\PSoC6\pdl\drivers\peripheral\i2s/cy_i2s.h **** *
  48:Generated_Source\PSoC6\pdl\drivers\peripheral\i2s/cy_i2s.h **** * To initialize the I2S block, call the \ref Cy_I2S_Init function, providing the
  49:Generated_Source\PSoC6\pdl\drivers\peripheral\i2s/cy_i2s.h **** * filled \ref cy_stc_i2s_config_t structure.
  50:Generated_Source\PSoC6\pdl\drivers\peripheral\i2s/cy_i2s.h **** * Before starting the transmission, clear the FIFO \ref Cy_I2S_ClearTxFifo, then
  51:Generated_Source\PSoC6\pdl\drivers\peripheral\i2s/cy_i2s.h **** * fill the first Tx data frame by calling \ref Cy_I2S_WriteTxData once for each
  52:Generated_Source\PSoC6\pdl\drivers\peripheral\i2s/cy_i2s.h **** * channel (e.g. twice for I2S mode with only two channels) with zero data. Then
  53:Generated_Source\PSoC6\pdl\drivers\peripheral\i2s/cy_i2s.h **** * call the \ref Cy_I2S_EnableTx itself.
  54:Generated_Source\PSoC6\pdl\drivers\peripheral\i2s/cy_i2s.h **** * For the reception the sequence is the same except for filling the first data
  55:Generated_Source\PSoC6\pdl\drivers\peripheral\i2s/cy_i2s.h **** * frame, just RX FIFO clearing is enough.
  56:Generated_Source\PSoC6\pdl\drivers\peripheral\i2s/cy_i2s.h **** *
  57:Generated_Source\PSoC6\pdl\drivers\peripheral\i2s/cy_i2s.h **** * For example:
  58:Generated_Source\PSoC6\pdl\drivers\peripheral\i2s/cy_i2s.h **** * \snippet i2s/i2s_v2_0_sut_00.cydsn/main_cm4.c snippet_Cy_I2S_Init
  59:Generated_Source\PSoC6\pdl\drivers\peripheral\i2s/cy_i2s.h **** * 
  60:Generated_Source\PSoC6\pdl\drivers\peripheral\i2s/cy_i2s.h **** * If you use a DMA, the DMA channel should be previously configured. The I2S interrupts 
  61:Generated_Source\PSoC6\pdl\drivers\peripheral\i2s/cy_i2s.h **** * (if applicable) can be enabled by calling \ref Cy_I2S_SetInterruptMask.
  62:Generated_Source\PSoC6\pdl\drivers\peripheral\i2s/cy_i2s.h **** *
  63:Generated_Source\PSoC6\pdl\drivers\peripheral\i2s/cy_i2s.h **** * For example, if the trigger interrupt is used, during operation the ISR
  64:Generated_Source\PSoC6\pdl\drivers\peripheral\i2s/cy_i2s.h **** * should call the \ref Cy_I2S_WriteTxData as many times as required for your 
  65:Generated_Source\PSoC6\pdl\drivers\peripheral\i2s/cy_i2s.h **** * FIFO payload, but not more than the FIFO size. Then call \ref Cy_I2S_ClearInterrupt 
  66:Generated_Source\PSoC6\pdl\drivers\peripheral\i2s/cy_i2s.h **** * with appropriate parameters.
  67:Generated_Source\PSoC6\pdl\drivers\peripheral\i2s/cy_i2s.h **** *
  68:Generated_Source\PSoC6\pdl\drivers\peripheral\i2s/cy_i2s.h **** * The I2S/Left Justified data formats always contains two data channels.
  69:Generated_Source\PSoC6\pdl\drivers\peripheral\i2s/cy_i2s.h **** * They are ordered one-by-one in the FIFOs, left always goes first.
  70:Generated_Source\PSoC6\pdl\drivers\peripheral\i2s/cy_i2s.h **** * So in case of mono audio stream transmission, each sample can be put twice
  71:Generated_Source\PSoC6\pdl\drivers\peripheral\i2s/cy_i2s.h **** * into the TX FIFO (in this case both channels will sound the same),
  72:Generated_Source\PSoC6\pdl\drivers\peripheral\i2s/cy_i2s.h **** * or combined with zeroes: sample1-zero-sample2-zero (in this case only the
  73:Generated_Source\PSoC6\pdl\drivers\peripheral\i2s/cy_i2s.h **** * left channel will finally sound, for right-only case zero should go first).
  74:Generated_Source\PSoC6\pdl\drivers\peripheral\i2s/cy_i2s.h **** * The TDM frame word order in FIFOs is similar, one-by-one.
  75:Generated_Source\PSoC6\pdl\drivers\peripheral\i2s/cy_i2s.h **** * 
  76:Generated_Source\PSoC6\pdl\drivers\peripheral\i2s/cy_i2s.h **** * If a DMA is used and the DMA channel is properly configured - no CPU activity
  77:Generated_Source\PSoC6\pdl\drivers\peripheral\i2s/cy_i2s.h **** * (or any application code) is needed for I2S operation.
  78:Generated_Source\PSoC6\pdl\drivers\peripheral\i2s/cy_i2s.h **** *
  79:Generated_Source\PSoC6\pdl\drivers\peripheral\i2s/cy_i2s.h **** * The I2S frame appears as:
  80:Generated_Source\PSoC6\pdl\drivers\peripheral\i2s/cy_i2s.h **** * \image html i2s_frame.png
  81:Generated_Source\PSoC6\pdl\drivers\peripheral\i2s/cy_i2s.h **** * This is an example for the channel length = 32. A similar is for all the rest
  82:Generated_Source\PSoC6\pdl\drivers\peripheral\i2s/cy_i2s.h **** * channel lengths, with one limitation: the word length could be less or equal
  83:Generated_Source\PSoC6\pdl\drivers\peripheral\i2s/cy_i2s.h **** * to the channel length. See the device Technical Reference Manual (TRM)
  84:Generated_Source\PSoC6\pdl\drivers\peripheral\i2s/cy_i2s.h **** * for more details.
  85:Generated_Source\PSoC6\pdl\drivers\peripheral\i2s/cy_i2s.h **** *
  86:Generated_Source\PSoC6\pdl\drivers\peripheral\i2s/cy_i2s.h **** * \section group_i2s_more_information More Information
  87:Generated_Source\PSoC6\pdl\drivers\peripheral\i2s/cy_i2s.h **** * See: the the I2S chapter of the device technical reference manual (TRM);
ARM GAS  C:\Users\ikomb\AppData\Local\Temp\cchnbsea.s 			page 3


  88:Generated_Source\PSoC6\pdl\drivers\peripheral\i2s/cy_i2s.h **** *      I2S_PDL Component datasheet;
  89:Generated_Source\PSoC6\pdl\drivers\peripheral\i2s/cy_i2s.h **** *      CE218636 - PSOC 6 MCU INTER-IC SOUND (I2S) EXAMPLE.
  90:Generated_Source\PSoC6\pdl\drivers\peripheral\i2s/cy_i2s.h **** *
  91:Generated_Source\PSoC6\pdl\drivers\peripheral\i2s/cy_i2s.h **** * \section group_i2s_MISRA MISRA-C Compliance
  92:Generated_Source\PSoC6\pdl\drivers\peripheral\i2s/cy_i2s.h **** * The I2S driver has the following specific deviations:
  93:Generated_Source\PSoC6\pdl\drivers\peripheral\i2s/cy_i2s.h **** * <table class="doxtable">
  94:Generated_Source\PSoC6\pdl\drivers\peripheral\i2s/cy_i2s.h **** *   <tr>
  95:Generated_Source\PSoC6\pdl\drivers\peripheral\i2s/cy_i2s.h **** *     <th>MISRA Rule</th>
  96:Generated_Source\PSoC6\pdl\drivers\peripheral\i2s/cy_i2s.h **** *     <th>Rule Class (Required/Advisory)</th>
  97:Generated_Source\PSoC6\pdl\drivers\peripheral\i2s/cy_i2s.h **** *     <th>Rule Description</th>
  98:Generated_Source\PSoC6\pdl\drivers\peripheral\i2s/cy_i2s.h **** *     <th>Description of Deviation(s)</th>
  99:Generated_Source\PSoC6\pdl\drivers\peripheral\i2s/cy_i2s.h **** *   </tr>
 100:Generated_Source\PSoC6\pdl\drivers\peripheral\i2s/cy_i2s.h **** *   <tr>
 101:Generated_Source\PSoC6\pdl\drivers\peripheral\i2s/cy_i2s.h **** *     <td>11.4</td>
 102:Generated_Source\PSoC6\pdl\drivers\peripheral\i2s/cy_i2s.h **** *     <td>A</td>
 103:Generated_Source\PSoC6\pdl\drivers\peripheral\i2s/cy_i2s.h **** *     <td>A cast should not be performed between a pointer to the object type and
 104:Generated_Source\PSoC6\pdl\drivers\peripheral\i2s/cy_i2s.h **** *         a different pointer to the object type.</td>
 105:Generated_Source\PSoC6\pdl\drivers\peripheral\i2s/cy_i2s.h **** *     <td>The function \ref Cy_I2S_DeepSleepCallback is a callback of
 106:Generated_Source\PSoC6\pdl\drivers\peripheral\i2s/cy_i2s.h **** *         \ref cy_en_syspm_status_t type. The cast operation safety in this
 107:Generated_Source\PSoC6\pdl\drivers\peripheral\i2s/cy_i2s.h **** *         function becomes the user responsibility because the pointer is
 108:Generated_Source\PSoC6\pdl\drivers\peripheral\i2s/cy_i2s.h **** *         initialized when a callback is registered in the SysPm driver.</td>
 109:Generated_Source\PSoC6\pdl\drivers\peripheral\i2s/cy_i2s.h **** *   </tr>
 110:Generated_Source\PSoC6\pdl\drivers\peripheral\i2s/cy_i2s.h **** * </table>
 111:Generated_Source\PSoC6\pdl\drivers\peripheral\i2s/cy_i2s.h **** *
 112:Generated_Source\PSoC6\pdl\drivers\peripheral\i2s/cy_i2s.h **** * \section group_i2s_changelog Changelog
 113:Generated_Source\PSoC6\pdl\drivers\peripheral\i2s/cy_i2s.h **** * <table class="doxtable">
 114:Generated_Source\PSoC6\pdl\drivers\peripheral\i2s/cy_i2s.h **** *   <tr><th>Version</th><th>Changes</th><th>Reason for Change</th></tr>
 115:Generated_Source\PSoC6\pdl\drivers\peripheral\i2s/cy_i2s.h **** *   <tr>
 116:Generated_Source\PSoC6\pdl\drivers\peripheral\i2s/cy_i2s.h **** *     <td>2.0.1</td>
 117:Generated_Source\PSoC6\pdl\drivers\peripheral\i2s/cy_i2s.h **** *     <td>Added Low Power Callback section</td>
 118:Generated_Source\PSoC6\pdl\drivers\peripheral\i2s/cy_i2s.h **** *     <td>Documentation update and clarification</td>
 119:Generated_Source\PSoC6\pdl\drivers\peripheral\i2s/cy_i2s.h **** *   </tr>
 120:Generated_Source\PSoC6\pdl\drivers\peripheral\i2s/cy_i2s.h **** *   <tr>
 121:Generated_Source\PSoC6\pdl\drivers\peripheral\i2s/cy_i2s.h **** *     <td>2.0</td>
 122:Generated_Source\PSoC6\pdl\drivers\peripheral\i2s/cy_i2s.h **** *     <td>The slave operation is added, Left Justified and TDM modes are added</td>
 123:Generated_Source\PSoC6\pdl\drivers\peripheral\i2s/cy_i2s.h **** *     <td></td>
 124:Generated_Source\PSoC6\pdl\drivers\peripheral\i2s/cy_i2s.h **** *   </tr>
 125:Generated_Source\PSoC6\pdl\drivers\peripheral\i2s/cy_i2s.h **** *   <tr>
 126:Generated_Source\PSoC6\pdl\drivers\peripheral\i2s/cy_i2s.h **** *     <td>1.0</td>
 127:Generated_Source\PSoC6\pdl\drivers\peripheral\i2s/cy_i2s.h **** *     <td>Initial version</td>
 128:Generated_Source\PSoC6\pdl\drivers\peripheral\i2s/cy_i2s.h **** *     <td></td>
 129:Generated_Source\PSoC6\pdl\drivers\peripheral\i2s/cy_i2s.h **** *   </tr>
 130:Generated_Source\PSoC6\pdl\drivers\peripheral\i2s/cy_i2s.h **** * </table>
 131:Generated_Source\PSoC6\pdl\drivers\peripheral\i2s/cy_i2s.h **** *
 132:Generated_Source\PSoC6\pdl\drivers\peripheral\i2s/cy_i2s.h **** * \defgroup group_i2s_macros Macros
 133:Generated_Source\PSoC6\pdl\drivers\peripheral\i2s/cy_i2s.h **** * \defgroup group_i2s_functions Functions
 134:Generated_Source\PSoC6\pdl\drivers\peripheral\i2s/cy_i2s.h **** *   \{
 135:Generated_Source\PSoC6\pdl\drivers\peripheral\i2s/cy_i2s.h **** *       \defgroup group_i2s_functions_syspm_callback  Low Power Callback
 136:Generated_Source\PSoC6\pdl\drivers\peripheral\i2s/cy_i2s.h **** *   \}
 137:Generated_Source\PSoC6\pdl\drivers\peripheral\i2s/cy_i2s.h **** * \defgroup group_i2s_data_structures Data Structures
 138:Generated_Source\PSoC6\pdl\drivers\peripheral\i2s/cy_i2s.h **** * \defgroup group_i2s_enums Enumerated Types
 139:Generated_Source\PSoC6\pdl\drivers\peripheral\i2s/cy_i2s.h **** */
 140:Generated_Source\PSoC6\pdl\drivers\peripheral\i2s/cy_i2s.h **** 
 141:Generated_Source\PSoC6\pdl\drivers\peripheral\i2s/cy_i2s.h **** 
 142:Generated_Source\PSoC6\pdl\drivers\peripheral\i2s/cy_i2s.h **** #if !defined CY_I2S_H
 143:Generated_Source\PSoC6\pdl\drivers\peripheral\i2s/cy_i2s.h **** #define CY_I2S_H
 144:Generated_Source\PSoC6\pdl\drivers\peripheral\i2s/cy_i2s.h **** 
ARM GAS  C:\Users\ikomb\AppData\Local\Temp\cchnbsea.s 			page 4


 145:Generated_Source\PSoC6\pdl\drivers\peripheral\i2s/cy_i2s.h **** #include <stddef.h>
 146:Generated_Source\PSoC6\pdl\drivers\peripheral\i2s/cy_i2s.h **** #include <stdbool.h>
 147:Generated_Source\PSoC6\pdl\drivers\peripheral\i2s/cy_i2s.h **** #include "syslib/cy_syslib.h"
 148:Generated_Source\PSoC6\pdl\drivers\peripheral\i2s/cy_i2s.h **** #include "syspm/cy_syspm.h"
 149:Generated_Source\PSoC6\pdl\drivers\peripheral\i2s/cy_i2s.h **** 
 150:Generated_Source\PSoC6\pdl\drivers\peripheral\i2s/cy_i2s.h **** #ifndef CY_IP_MXAUDIOSS
 151:Generated_Source\PSoC6\pdl\drivers\peripheral\i2s/cy_i2s.h ****     #error "The I2S driver is not supported on this device"
 152:Generated_Source\PSoC6\pdl\drivers\peripheral\i2s/cy_i2s.h **** #endif
 153:Generated_Source\PSoC6\pdl\drivers\peripheral\i2s/cy_i2s.h **** 
 154:Generated_Source\PSoC6\pdl\drivers\peripheral\i2s/cy_i2s.h **** #ifdef __cplusplus
 155:Generated_Source\PSoC6\pdl\drivers\peripheral\i2s/cy_i2s.h **** extern "C" {
 156:Generated_Source\PSoC6\pdl\drivers\peripheral\i2s/cy_i2s.h **** #endif
 157:Generated_Source\PSoC6\pdl\drivers\peripheral\i2s/cy_i2s.h **** 
 158:Generated_Source\PSoC6\pdl\drivers\peripheral\i2s/cy_i2s.h **** /** \addtogroup group_i2s_macros
 159:Generated_Source\PSoC6\pdl\drivers\peripheral\i2s/cy_i2s.h **** * \{
 160:Generated_Source\PSoC6\pdl\drivers\peripheral\i2s/cy_i2s.h **** */
 161:Generated_Source\PSoC6\pdl\drivers\peripheral\i2s/cy_i2s.h **** 
 162:Generated_Source\PSoC6\pdl\drivers\peripheral\i2s/cy_i2s.h **** /** The driver major version */
 163:Generated_Source\PSoC6\pdl\drivers\peripheral\i2s/cy_i2s.h **** #define CY_I2S_DRV_VERSION_MAJOR       2
 164:Generated_Source\PSoC6\pdl\drivers\peripheral\i2s/cy_i2s.h **** 
 165:Generated_Source\PSoC6\pdl\drivers\peripheral\i2s/cy_i2s.h **** /** The driver minor version */
 166:Generated_Source\PSoC6\pdl\drivers\peripheral\i2s/cy_i2s.h **** #define CY_I2S_DRV_VERSION_MINOR       0
 167:Generated_Source\PSoC6\pdl\drivers\peripheral\i2s/cy_i2s.h **** 
 168:Generated_Source\PSoC6\pdl\drivers\peripheral\i2s/cy_i2s.h **** /** The I2S driver identifier */
 169:Generated_Source\PSoC6\pdl\drivers\peripheral\i2s/cy_i2s.h **** #define CY_I2S_ID                      (CY_PDL_DRV_ID(0x20U))
 170:Generated_Source\PSoC6\pdl\drivers\peripheral\i2s/cy_i2s.h **** 
 171:Generated_Source\PSoC6\pdl\drivers\peripheral\i2s/cy_i2s.h **** /**
 172:Generated_Source\PSoC6\pdl\drivers\peripheral\i2s/cy_i2s.h **** * \defgroup group_i2s_macros_intrerrupt_masks Interrupt Masks
 173:Generated_Source\PSoC6\pdl\drivers\peripheral\i2s/cy_i2s.h **** * \{
 174:Generated_Source\PSoC6\pdl\drivers\peripheral\i2s/cy_i2s.h **** */
 175:Generated_Source\PSoC6\pdl\drivers\peripheral\i2s/cy_i2s.h **** 
 176:Generated_Source\PSoC6\pdl\drivers\peripheral\i2s/cy_i2s.h **** /** Bit 0: Less entries in the TX FIFO than specified by Trigger Level. */
 177:Generated_Source\PSoC6\pdl\drivers\peripheral\i2s/cy_i2s.h **** #define CY_I2S_INTR_TX_TRIGGER         (I2S_INTR_TX_TRIGGER_Msk)
 178:Generated_Source\PSoC6\pdl\drivers\peripheral\i2s/cy_i2s.h **** /** Bit 1: TX FIFO is not full. */
 179:Generated_Source\PSoC6\pdl\drivers\peripheral\i2s/cy_i2s.h **** #define CY_I2S_INTR_TX_NOT_FULL        (I2S_INTR_TX_NOT_FULL_Msk)
 180:Generated_Source\PSoC6\pdl\drivers\peripheral\i2s/cy_i2s.h **** /** Bit 4: TX FIFO is empty, i.e. it has 0 entries. */
 181:Generated_Source\PSoC6\pdl\drivers\peripheral\i2s/cy_i2s.h **** #define CY_I2S_INTR_TX_EMPTY           (I2S_INTR_TX_EMPTY_Msk)
 182:Generated_Source\PSoC6\pdl\drivers\peripheral\i2s/cy_i2s.h **** /** Bit 5: Attempt to write to a full TX FIFO. */
 183:Generated_Source\PSoC6\pdl\drivers\peripheral\i2s/cy_i2s.h **** #define CY_I2S_INTR_TX_OVERFLOW        (I2S_INTR_TX_OVERFLOW_Msk)
 184:Generated_Source\PSoC6\pdl\drivers\peripheral\i2s/cy_i2s.h **** /** Bit 6: Attempt to read from an empty TX FIFO.
 185:Generated_Source\PSoC6\pdl\drivers\peripheral\i2s/cy_i2s.h **** * This happens when the IP is ready to transfer data and TX_EMPTY is '1'. */
 186:Generated_Source\PSoC6\pdl\drivers\peripheral\i2s/cy_i2s.h **** #define CY_I2S_INTR_TX_UNDERFLOW       (I2S_INTR_TX_UNDERFLOW_Msk)
 187:Generated_Source\PSoC6\pdl\drivers\peripheral\i2s/cy_i2s.h **** /** Bit 8: Tx watchdog event occurs. */
 188:Generated_Source\PSoC6\pdl\drivers\peripheral\i2s/cy_i2s.h **** #define CY_I2S_INTR_TX_WD              (I2S_INTR_TX_WD_Msk)
 189:Generated_Source\PSoC6\pdl\drivers\peripheral\i2s/cy_i2s.h **** /** Bit 16: More entries in the RX FIFO than specified by Trigger Level. */
 190:Generated_Source\PSoC6\pdl\drivers\peripheral\i2s/cy_i2s.h **** #define CY_I2S_INTR_RX_TRIGGER         (I2S_INTR_RX_TRIGGER_Msk)
 191:Generated_Source\PSoC6\pdl\drivers\peripheral\i2s/cy_i2s.h **** /** Bit 18: RX FIFO is not empty. */
 192:Generated_Source\PSoC6\pdl\drivers\peripheral\i2s/cy_i2s.h **** #define CY_I2S_INTR_RX_NOT_EMPTY       (I2S_INTR_RX_NOT_EMPTY_Msk)
 193:Generated_Source\PSoC6\pdl\drivers\peripheral\i2s/cy_i2s.h **** /** Bit 19: RX FIFO is full. */
 194:Generated_Source\PSoC6\pdl\drivers\peripheral\i2s/cy_i2s.h **** #define CY_I2S_INTR_RX_FULL            (I2S_INTR_RX_FULL_Msk)
 195:Generated_Source\PSoC6\pdl\drivers\peripheral\i2s/cy_i2s.h **** /** Bit 21: Attempt to write to a full RX FIFO. */
 196:Generated_Source\PSoC6\pdl\drivers\peripheral\i2s/cy_i2s.h **** #define CY_I2S_INTR_RX_OVERFLOW        (I2S_INTR_RX_OVERFLOW_Msk)
 197:Generated_Source\PSoC6\pdl\drivers\peripheral\i2s/cy_i2s.h **** /** Bit 22: Attempt to read from an empty RX FIFO. */
 198:Generated_Source\PSoC6\pdl\drivers\peripheral\i2s/cy_i2s.h **** #define CY_I2S_INTR_RX_UNDERFLOW       (I2S_INTR_RX_UNDERFLOW_Msk)
 199:Generated_Source\PSoC6\pdl\drivers\peripheral\i2s/cy_i2s.h **** /** Bit 24: Rx watchdog event occurs. */
 200:Generated_Source\PSoC6\pdl\drivers\peripheral\i2s/cy_i2s.h **** #define CY_I2S_INTR_RX_WD              (I2S_INTR_RX_WD_Msk)
 201:Generated_Source\PSoC6\pdl\drivers\peripheral\i2s/cy_i2s.h **** 
ARM GAS  C:\Users\ikomb\AppData\Local\Temp\cchnbsea.s 			page 5


 202:Generated_Source\PSoC6\pdl\drivers\peripheral\i2s/cy_i2s.h **** /** \} group_i2s_macros_intrerrupt_masks */
 203:Generated_Source\PSoC6\pdl\drivers\peripheral\i2s/cy_i2s.h **** 
 204:Generated_Source\PSoC6\pdl\drivers\peripheral\i2s/cy_i2s.h **** 
 205:Generated_Source\PSoC6\pdl\drivers\peripheral\i2s/cy_i2s.h **** /**
 206:Generated_Source\PSoC6\pdl\drivers\peripheral\i2s/cy_i2s.h **** * \defgroup group_i2s_macros_current_state Current State
 207:Generated_Source\PSoC6\pdl\drivers\peripheral\i2s/cy_i2s.h **** * \{
 208:Generated_Source\PSoC6\pdl\drivers\peripheral\i2s/cy_i2s.h **** */
 209:Generated_Source\PSoC6\pdl\drivers\peripheral\i2s/cy_i2s.h **** 
 210:Generated_Source\PSoC6\pdl\drivers\peripheral\i2s/cy_i2s.h **** /** Transmission is active */ 
 211:Generated_Source\PSoC6\pdl\drivers\peripheral\i2s/cy_i2s.h **** #define CY_I2S_TX_START                (I2S_CMD_TX_START_Msk)
 212:Generated_Source\PSoC6\pdl\drivers\peripheral\i2s/cy_i2s.h **** /** Transmission is paused */
 213:Generated_Source\PSoC6\pdl\drivers\peripheral\i2s/cy_i2s.h **** #define CY_I2S_TX_PAUSE                (I2S_CMD_TX_PAUSE_Msk)
 214:Generated_Source\PSoC6\pdl\drivers\peripheral\i2s/cy_i2s.h **** /** Reception is active */
 215:Generated_Source\PSoC6\pdl\drivers\peripheral\i2s/cy_i2s.h **** #define CY_I2S_RX_START                (I2S_CMD_RX_START_Msk)
 216:Generated_Source\PSoC6\pdl\drivers\peripheral\i2s/cy_i2s.h **** 
 217:Generated_Source\PSoC6\pdl\drivers\peripheral\i2s/cy_i2s.h **** /** \} group_i2s_macros_current_state */
 218:Generated_Source\PSoC6\pdl\drivers\peripheral\i2s/cy_i2s.h **** 
 219:Generated_Source\PSoC6\pdl\drivers\peripheral\i2s/cy_i2s.h **** /** \} group_i2s_macros */
 220:Generated_Source\PSoC6\pdl\drivers\peripheral\i2s/cy_i2s.h **** 
 221:Generated_Source\PSoC6\pdl\drivers\peripheral\i2s/cy_i2s.h **** /**
 222:Generated_Source\PSoC6\pdl\drivers\peripheral\i2s/cy_i2s.h **** * \addtogroup group_i2s_enums
 223:Generated_Source\PSoC6\pdl\drivers\peripheral\i2s/cy_i2s.h **** * \{
 224:Generated_Source\PSoC6\pdl\drivers\peripheral\i2s/cy_i2s.h **** */
 225:Generated_Source\PSoC6\pdl\drivers\peripheral\i2s/cy_i2s.h **** 
 226:Generated_Source\PSoC6\pdl\drivers\peripheral\i2s/cy_i2s.h **** /**
 227:Generated_Source\PSoC6\pdl\drivers\peripheral\i2s/cy_i2s.h **** * I2S status definitions.
 228:Generated_Source\PSoC6\pdl\drivers\peripheral\i2s/cy_i2s.h **** */
 229:Generated_Source\PSoC6\pdl\drivers\peripheral\i2s/cy_i2s.h **** 
 230:Generated_Source\PSoC6\pdl\drivers\peripheral\i2s/cy_i2s.h **** typedef enum 
 231:Generated_Source\PSoC6\pdl\drivers\peripheral\i2s/cy_i2s.h **** {
 232:Generated_Source\PSoC6\pdl\drivers\peripheral\i2s/cy_i2s.h ****     CY_I2S_SUCCESS   = 0x00UL, /**< Successful. */
 233:Generated_Source\PSoC6\pdl\drivers\peripheral\i2s/cy_i2s.h ****     CY_I2S_BAD_PARAM = CY_I2S_ID | CY_PDL_STATUS_ERROR | 0x01UL /**< One or more invalid parameters
 234:Generated_Source\PSoC6\pdl\drivers\peripheral\i2s/cy_i2s.h **** } cy_en_i2s_status_t;
 235:Generated_Source\PSoC6\pdl\drivers\peripheral\i2s/cy_i2s.h **** 
 236:Generated_Source\PSoC6\pdl\drivers\peripheral\i2s/cy_i2s.h **** 
 237:Generated_Source\PSoC6\pdl\drivers\peripheral\i2s/cy_i2s.h **** /**
 238:Generated_Source\PSoC6\pdl\drivers\peripheral\i2s/cy_i2s.h **** * I2S data alignment.
 239:Generated_Source\PSoC6\pdl\drivers\peripheral\i2s/cy_i2s.h **** */
 240:Generated_Source\PSoC6\pdl\drivers\peripheral\i2s/cy_i2s.h **** typedef enum
 241:Generated_Source\PSoC6\pdl\drivers\peripheral\i2s/cy_i2s.h **** {
 242:Generated_Source\PSoC6\pdl\drivers\peripheral\i2s/cy_i2s.h ****     CY_I2S_LEFT_JUSTIFIED = 0U, /**< Left justified. */
 243:Generated_Source\PSoC6\pdl\drivers\peripheral\i2s/cy_i2s.h ****     CY_I2S_I2S_MODE       = 1U, /**< I2S mode. */
 244:Generated_Source\PSoC6\pdl\drivers\peripheral\i2s/cy_i2s.h ****     CY_I2S_TDM_MODE_A     = 2U, /**< TDM mode A. */
 245:Generated_Source\PSoC6\pdl\drivers\peripheral\i2s/cy_i2s.h ****     CY_I2S_TDM_MODE_B     = 3U  /**< TDM mode B. */
 246:Generated_Source\PSoC6\pdl\drivers\peripheral\i2s/cy_i2s.h **** } cy_en_i2s_alignment_t;
 247:Generated_Source\PSoC6\pdl\drivers\peripheral\i2s/cy_i2s.h **** 
 248:Generated_Source\PSoC6\pdl\drivers\peripheral\i2s/cy_i2s.h **** /**
 249:Generated_Source\PSoC6\pdl\drivers\peripheral\i2s/cy_i2s.h **** * I2S channel/word length.
 250:Generated_Source\PSoC6\pdl\drivers\peripheral\i2s/cy_i2s.h **** */
 251:Generated_Source\PSoC6\pdl\drivers\peripheral\i2s/cy_i2s.h **** typedef enum
 252:Generated_Source\PSoC6\pdl\drivers\peripheral\i2s/cy_i2s.h **** {
 253:Generated_Source\PSoC6\pdl\drivers\peripheral\i2s/cy_i2s.h ****     CY_I2S_LEN8  = 0U, /**< Channel/word length:  8 bit. */
 254:Generated_Source\PSoC6\pdl\drivers\peripheral\i2s/cy_i2s.h ****     CY_I2S_LEN16 = 1U, /**< Channel/Word length: 16 bit. */
 255:Generated_Source\PSoC6\pdl\drivers\peripheral\i2s/cy_i2s.h ****     CY_I2S_LEN18 = 2U, /**< Channel/Word length: 18 bit. */
 256:Generated_Source\PSoC6\pdl\drivers\peripheral\i2s/cy_i2s.h ****     CY_I2S_LEN20 = 3U, /**< Channel/Word length: 20 bit. */
 257:Generated_Source\PSoC6\pdl\drivers\peripheral\i2s/cy_i2s.h ****     CY_I2S_LEN24 = 4U, /**< Channel/Word length: 24 bit. */
 258:Generated_Source\PSoC6\pdl\drivers\peripheral\i2s/cy_i2s.h ****     CY_I2S_LEN32 = 5U  /**< Channel/Word length: 32 bit. */
ARM GAS  C:\Users\ikomb\AppData\Local\Temp\cchnbsea.s 			page 6


 259:Generated_Source\PSoC6\pdl\drivers\peripheral\i2s/cy_i2s.h **** } cy_en_i2s_len_t;
 260:Generated_Source\PSoC6\pdl\drivers\peripheral\i2s/cy_i2s.h **** 
 261:Generated_Source\PSoC6\pdl\drivers\peripheral\i2s/cy_i2s.h **** /**
 262:Generated_Source\PSoC6\pdl\drivers\peripheral\i2s/cy_i2s.h **** * I2S TX overhead value.
 263:Generated_Source\PSoC6\pdl\drivers\peripheral\i2s/cy_i2s.h **** */
 264:Generated_Source\PSoC6\pdl\drivers\peripheral\i2s/cy_i2s.h **** typedef enum
 265:Generated_Source\PSoC6\pdl\drivers\peripheral\i2s/cy_i2s.h **** {
 266:Generated_Source\PSoC6\pdl\drivers\peripheral\i2s/cy_i2s.h ****     CY_I2S_OVHDATA_ZERO = 0U, /**< Fill overhead bits by zeroes. */
 267:Generated_Source\PSoC6\pdl\drivers\peripheral\i2s/cy_i2s.h ****     CY_I2S_OVHDATA_ONE  = 1U, /**< Fill overhead bits by ones. */
 268:Generated_Source\PSoC6\pdl\drivers\peripheral\i2s/cy_i2s.h **** } cy_en_i2s_overhead_t;
 269:Generated_Source\PSoC6\pdl\drivers\peripheral\i2s/cy_i2s.h **** 
 270:Generated_Source\PSoC6\pdl\drivers\peripheral\i2s/cy_i2s.h **** /**
 271:Generated_Source\PSoC6\pdl\drivers\peripheral\i2s/cy_i2s.h **** * I2S WS pulse width.
 272:Generated_Source\PSoC6\pdl\drivers\peripheral\i2s/cy_i2s.h **** */
 273:Generated_Source\PSoC6\pdl\drivers\peripheral\i2s/cy_i2s.h **** typedef enum
 274:Generated_Source\PSoC6\pdl\drivers\peripheral\i2s/cy_i2s.h **** {
 275:Generated_Source\PSoC6\pdl\drivers\peripheral\i2s/cy_i2s.h ****     CY_I2S_WS_ONE_SCK_CYCLE      = 0U, /**< WS pulse width is one SCK cycle. */
 276:Generated_Source\PSoC6\pdl\drivers\peripheral\i2s/cy_i2s.h ****     CY_I2S_WS_ONE_CHANNEL_LENGTH = 1U, /**< WS pulse width is one channel length. */
 277:Generated_Source\PSoC6\pdl\drivers\peripheral\i2s/cy_i2s.h **** } cy_en_i2s_ws_pw_t;
 278:Generated_Source\PSoC6\pdl\drivers\peripheral\i2s/cy_i2s.h **** 
 279:Generated_Source\PSoC6\pdl\drivers\peripheral\i2s/cy_i2s.h **** /** \} group_i2s_enums */
 280:Generated_Source\PSoC6\pdl\drivers\peripheral\i2s/cy_i2s.h **** 
 281:Generated_Source\PSoC6\pdl\drivers\peripheral\i2s/cy_i2s.h **** /**
 282:Generated_Source\PSoC6\pdl\drivers\peripheral\i2s/cy_i2s.h **** * \addtogroup group_i2s_data_structures
 283:Generated_Source\PSoC6\pdl\drivers\peripheral\i2s/cy_i2s.h **** * \{
 284:Generated_Source\PSoC6\pdl\drivers\peripheral\i2s/cy_i2s.h **** */
 285:Generated_Source\PSoC6\pdl\drivers\peripheral\i2s/cy_i2s.h **** 
 286:Generated_Source\PSoC6\pdl\drivers\peripheral\i2s/cy_i2s.h **** /**
 287:Generated_Source\PSoC6\pdl\drivers\peripheral\i2s/cy_i2s.h **** * I2S initialization configuration.
 288:Generated_Source\PSoC6\pdl\drivers\peripheral\i2s/cy_i2s.h **** */
 289:Generated_Source\PSoC6\pdl\drivers\peripheral\i2s/cy_i2s.h **** typedef struct
 290:Generated_Source\PSoC6\pdl\drivers\peripheral\i2s/cy_i2s.h **** {
 291:Generated_Source\PSoC6\pdl\drivers\peripheral\i2s/cy_i2s.h ****     bool                  txEnabled;          /**< Enables the I2S TX component: 'false': disabled.
 292:Generated_Source\PSoC6\pdl\drivers\peripheral\i2s/cy_i2s.h ****     bool                  rxEnabled;          /**< Enables the I2S RX component: 'false': disabled.
 293:Generated_Source\PSoC6\pdl\drivers\peripheral\i2s/cy_i2s.h ****     bool                  txDmaTrigger;       /**< 'false': TX DMA trigger disable, 'true': TX DMA 
 294:Generated_Source\PSoC6\pdl\drivers\peripheral\i2s/cy_i2s.h ****     bool                  rxDmaTrigger;       /**< 'false': RX DMA trigger disable, 'true': RX DMA 
 295:Generated_Source\PSoC6\pdl\drivers\peripheral\i2s/cy_i2s.h ****     uint8_t               clkDiv;             /**< CLK_SEL divider: 1: Bypass, 2: 1/2, 3: 1/3, ...,
 296:Generated_Source\PSoC6\pdl\drivers\peripheral\i2s/cy_i2s.h ****     bool                  extClk;             /**< 'false': internal clock, 'true': external clock.
 297:Generated_Source\PSoC6\pdl\drivers\peripheral\i2s/cy_i2s.h ****     bool                  txMasterMode;       /**< 'false': TX in slave mode, 'true': TX in master 
 298:Generated_Source\PSoC6\pdl\drivers\peripheral\i2s/cy_i2s.h ****     cy_en_i2s_alignment_t txAlignment;        /**< TX data alignment, see: #cy_en_i2s_alignment_t. 
 299:Generated_Source\PSoC6\pdl\drivers\peripheral\i2s/cy_i2s.h ****     cy_en_i2s_ws_pw_t     txWsPulseWidth;     /**< TX Word Select pulse width.
 300:Generated_Source\PSoC6\pdl\drivers\peripheral\i2s/cy_i2s.h ****                                                    The value of this parameter is ignored in I2S an
 301:Generated_Source\PSoC6\pdl\drivers\peripheral\i2s/cy_i2s.h ****                                                    the WS pulse width is always "one channel length
 302:Generated_Source\PSoC6\pdl\drivers\peripheral\i2s/cy_i2s.h ****     bool                  txWatchdogEnable;   /**< 'false': TX watchdog disabled, 'true': TX watchd
 303:Generated_Source\PSoC6\pdl\drivers\peripheral\i2s/cy_i2s.h ****     uint32_t              txWatchdogValue;    /**< TX watchdog counter value (32 bit). */
 304:Generated_Source\PSoC6\pdl\drivers\peripheral\i2s/cy_i2s.h ****     bool                  txSdoLatchingTime;  /**< 'false': SDO bit starts at falling edge (accordi
 305:Generated_Source\PSoC6\pdl\drivers\peripheral\i2s/cy_i2s.h ****                                                    Standard, if txSckoInversion is false),
 306:Generated_Source\PSoC6\pdl\drivers\peripheral\i2s/cy_i2s.h ****                                                    'true': SDO bit starts at rising edge which goes
 307:Generated_Source\PSoC6\pdl\drivers\peripheral\i2s/cy_i2s.h ****                                                    mentioned falling edge, i.e. the SDO signal is a
 308:Generated_Source\PSoC6\pdl\drivers\peripheral\i2s/cy_i2s.h ****                                                    period (if txSckoInversion is false).
 309:Generated_Source\PSoC6\pdl\drivers\peripheral\i2s/cy_i2s.h ****                                                    If txSckoInversion is true - the rising/falling 
 310:Generated_Source\PSoC6\pdl\drivers\peripheral\i2s/cy_i2s.h ****                                                    in above explanations.
 311:Generated_Source\PSoC6\pdl\drivers\peripheral\i2s/cy_i2s.h ****                                                    Effective only in slave mode, must be false in m
 312:Generated_Source\PSoC6\pdl\drivers\peripheral\i2s/cy_i2s.h ****     bool                  txSckoInversion;    /**< TX SCKO polarity:
 313:Generated_Source\PSoC6\pdl\drivers\peripheral\i2s/cy_i2s.h ****                                                    'false': When transmitter is in master mode, ser
 314:Generated_Source\PSoC6\pdl\drivers\peripheral\i2s/cy_i2s.h ****                                                             transmitted off the falling bit clock e
 315:Generated_Source\PSoC6\pdl\drivers\peripheral\i2s/cy_i2s.h ****                                                             the I2S Standard);
ARM GAS  C:\Users\ikomb\AppData\Local\Temp\cchnbsea.s 			page 7


 316:Generated_Source\PSoC6\pdl\drivers\peripheral\i2s/cy_i2s.h ****                                                    'true':  When transmitter is in master mode, ser
 317:Generated_Source\PSoC6\pdl\drivers\peripheral\i2s/cy_i2s.h ****                                                             transmitted off the rising bit clock ed
 318:Generated_Source\PSoC6\pdl\drivers\peripheral\i2s/cy_i2s.h ****                                                    Effective only in master mode. */
 319:Generated_Source\PSoC6\pdl\drivers\peripheral\i2s/cy_i2s.h ****     bool                  txSckiInversion;    /**< TX SCKI polarity:
 320:Generated_Source\PSoC6\pdl\drivers\peripheral\i2s/cy_i2s.h ****                                                    'false': When transmitter is in slave mode, seri
 321:Generated_Source\PSoC6\pdl\drivers\peripheral\i2s/cy_i2s.h ****                                                             transmitted off the falling bit clock e
 322:Generated_Source\PSoC6\pdl\drivers\peripheral\i2s/cy_i2s.h ****                                                             the I2S Standard);
 323:Generated_Source\PSoC6\pdl\drivers\peripheral\i2s/cy_i2s.h ****                                                    'true':  When transmitter is in slave mode, seri
 324:Generated_Source\PSoC6\pdl\drivers\peripheral\i2s/cy_i2s.h ****                                                             transmitted off the rising bit clock ed
 325:Generated_Source\PSoC6\pdl\drivers\peripheral\i2s/cy_i2s.h ****                                                    Effective only in slave mode. */
 326:Generated_Source\PSoC6\pdl\drivers\peripheral\i2s/cy_i2s.h ****     uint8_t               txChannels;         /**< Number of TX channels, valid range is 1...8 for 
 327:Generated_Source\PSoC6\pdl\drivers\peripheral\i2s/cy_i2s.h ****                                                    In the I2S and Left Justified modes the value of
 328:Generated_Source\PSoC6\pdl\drivers\peripheral\i2s/cy_i2s.h ****                                                    ignored - the real number of channels is always 
 329:Generated_Source\PSoC6\pdl\drivers\peripheral\i2s/cy_i2s.h ****     cy_en_i2s_len_t       txChannelLength;    /**< TX channel length, see #cy_en_i2s_len_t,
 330:Generated_Source\PSoC6\pdl\drivers\peripheral\i2s/cy_i2s.h ****                                                    the value of this parameter is ignored in TDM mo
 331:Generated_Source\PSoC6\pdl\drivers\peripheral\i2s/cy_i2s.h ****                                                    channel length is 32 bit in these modes. */
 332:Generated_Source\PSoC6\pdl\drivers\peripheral\i2s/cy_i2s.h ****     cy_en_i2s_len_t       txWordLength;       /**< TX word length, see #cy_en_i2s_len_t,
 333:Generated_Source\PSoC6\pdl\drivers\peripheral\i2s/cy_i2s.h ****                                                    must be less or equal to txChannelLength. */
 334:Generated_Source\PSoC6\pdl\drivers\peripheral\i2s/cy_i2s.h ****     cy_en_i2s_overhead_t  txOverheadValue;    /**< TX overhead bits value
 335:Generated_Source\PSoC6\pdl\drivers\peripheral\i2s/cy_i2s.h ****                                                    when the word length is less than the channel le
 336:Generated_Source\PSoC6\pdl\drivers\peripheral\i2s/cy_i2s.h ****     uint8_t               txFifoTriggerLevel; /**< TX FIFO interrupt trigger level (0, 1, ..., 255)
 337:Generated_Source\PSoC6\pdl\drivers\peripheral\i2s/cy_i2s.h ****     bool                  rxMasterMode;       /**< 'false': RX in slave mode, 'true': RX in master 
 338:Generated_Source\PSoC6\pdl\drivers\peripheral\i2s/cy_i2s.h ****     cy_en_i2s_alignment_t rxAlignment;        /**< RX data alignment, see: #cy_en_i2s_alignment_t. 
 339:Generated_Source\PSoC6\pdl\drivers\peripheral\i2s/cy_i2s.h ****     cy_en_i2s_ws_pw_t     rxWsPulseWidth;     /**< RX Word Select pulse width.
 340:Generated_Source\PSoC6\pdl\drivers\peripheral\i2s/cy_i2s.h ****                                                    The value of this parameter is ignored in I2S an
 341:Generated_Source\PSoC6\pdl\drivers\peripheral\i2s/cy_i2s.h ****                                                    the WS pulse width is always "one channel length
 342:Generated_Source\PSoC6\pdl\drivers\peripheral\i2s/cy_i2s.h ****     bool                  rxWatchdogEnable;   /**< 'false': RX watchdog disabled, 'true': RX watchd
 343:Generated_Source\PSoC6\pdl\drivers\peripheral\i2s/cy_i2s.h ****     uint32_t              rxWatchdogValue;    /**< RX watchdog counter value (32 bit). */
 344:Generated_Source\PSoC6\pdl\drivers\peripheral\i2s/cy_i2s.h ****     bool                  rxSdiLatchingTime;  /**< 'false': SDI bit starts at falling edge (accordi
 345:Generated_Source\PSoC6\pdl\drivers\peripheral\i2s/cy_i2s.h ****                                                    Standard if rxSckoInversion is false),
 346:Generated_Source\PSoC6\pdl\drivers\peripheral\i2s/cy_i2s.h ****                                                    'true': SDI bit starts at rising edge which goes
 347:Generated_Source\PSoC6\pdl\drivers\peripheral\i2s/cy_i2s.h ****                                                    mentioned falling edge, i.e. the SDI signal is d
 348:Generated_Source\PSoC6\pdl\drivers\peripheral\i2s/cy_i2s.h ****                                                    period (if rxSckoInversion is false).
 349:Generated_Source\PSoC6\pdl\drivers\peripheral\i2s/cy_i2s.h ****                                                    If rxSckoInversion is true - the rising/falling 
 350:Generated_Source\PSoC6\pdl\drivers\peripheral\i2s/cy_i2s.h ****                                                    in above explanations.
 351:Generated_Source\PSoC6\pdl\drivers\peripheral\i2s/cy_i2s.h ****                                                    Effective only in master mode, must be false in 
 352:Generated_Source\PSoC6\pdl\drivers\peripheral\i2s/cy_i2s.h ****     bool                  rxSckoInversion;    /**< RX SCKO polarity:
 353:Generated_Source\PSoC6\pdl\drivers\peripheral\i2s/cy_i2s.h ****                                                    'false': When receiver is in master mode, serial
 354:Generated_Source\PSoC6\pdl\drivers\peripheral\i2s/cy_i2s.h ****                                                             captured by the rising bit clock edge (
 355:Generated_Source\PSoC6\pdl\drivers\peripheral\i2s/cy_i2s.h ****                                                             I2S Standard);
 356:Generated_Source\PSoC6\pdl\drivers\peripheral\i2s/cy_i2s.h ****                                                    'true':  When receiver is in master mode, serial
 357:Generated_Source\PSoC6\pdl\drivers\peripheral\i2s/cy_i2s.h ****                                                             captured by the falling bit clock edge.
 358:Generated_Source\PSoC6\pdl\drivers\peripheral\i2s/cy_i2s.h ****                                                    Effective only in master mode. */
 359:Generated_Source\PSoC6\pdl\drivers\peripheral\i2s/cy_i2s.h ****     bool                  rxSckiInversion;    /**< RX SCKI polarity:
 360:Generated_Source\PSoC6\pdl\drivers\peripheral\i2s/cy_i2s.h ****                                                    'false': When receiver is in slave mode, serial 
 361:Generated_Source\PSoC6\pdl\drivers\peripheral\i2s/cy_i2s.h ****                                                             captured by the rising bit clock edge (
 362:Generated_Source\PSoC6\pdl\drivers\peripheral\i2s/cy_i2s.h ****                                                             I2S Standard);
 363:Generated_Source\PSoC6\pdl\drivers\peripheral\i2s/cy_i2s.h ****                                                    'true':  When receiver is in slave mode, serial 
 364:Generated_Source\PSoC6\pdl\drivers\peripheral\i2s/cy_i2s.h ****                                                             captured by the falling bit clock edge.
 365:Generated_Source\PSoC6\pdl\drivers\peripheral\i2s/cy_i2s.h ****                                                    Effective only in slave mode. */
 366:Generated_Source\PSoC6\pdl\drivers\peripheral\i2s/cy_i2s.h ****     uint8_t               rxChannels;         /**< Number of RX channels, valid range is 1...8 for 
 367:Generated_Source\PSoC6\pdl\drivers\peripheral\i2s/cy_i2s.h ****                                                    In the I2S and Left Justified modes the value of
 368:Generated_Source\PSoC6\pdl\drivers\peripheral\i2s/cy_i2s.h ****                                                    ignored - the real number of channels is always 
 369:Generated_Source\PSoC6\pdl\drivers\peripheral\i2s/cy_i2s.h ****     cy_en_i2s_len_t       rxChannelLength;    /**< RX channel length, see #cy_en_i2s_len_t,
 370:Generated_Source\PSoC6\pdl\drivers\peripheral\i2s/cy_i2s.h ****                                                    the value of this parameter is ignored in TDM mo
 371:Generated_Source\PSoC6\pdl\drivers\peripheral\i2s/cy_i2s.h ****                                                    channel length is 32 bit in these modes. */
 372:Generated_Source\PSoC6\pdl\drivers\peripheral\i2s/cy_i2s.h ****     cy_en_i2s_len_t       rxWordLength;       /**< RX word length, see #cy_en_i2s_len_t,
ARM GAS  C:\Users\ikomb\AppData\Local\Temp\cchnbsea.s 			page 8


 373:Generated_Source\PSoC6\pdl\drivers\peripheral\i2s/cy_i2s.h ****                                                    must be less or equal to rxChannelLength. */
 374:Generated_Source\PSoC6\pdl\drivers\peripheral\i2s/cy_i2s.h ****     bool                  rxSignExtension;    /**< RX value sign extension (when the word length is
 375:Generated_Source\PSoC6\pdl\drivers\peripheral\i2s/cy_i2s.h ****                                                    'false': all MSB are filled by zeroes, 
 376:Generated_Source\PSoC6\pdl\drivers\peripheral\i2s/cy_i2s.h ****                                                    'true': all MSB are filled by the original sign 
 377:Generated_Source\PSoC6\pdl\drivers\peripheral\i2s/cy_i2s.h ****     uint8_t               rxFifoTriggerLevel; /**< RX FIFO interrupt trigger level
 378:Generated_Source\PSoC6\pdl\drivers\peripheral\i2s/cy_i2s.h ****                                                    (0, 1, ..., (255 - (number of channels))). */
 379:Generated_Source\PSoC6\pdl\drivers\peripheral\i2s/cy_i2s.h **** } cy_stc_i2s_config_t;
 380:Generated_Source\PSoC6\pdl\drivers\peripheral\i2s/cy_i2s.h **** 
 381:Generated_Source\PSoC6\pdl\drivers\peripheral\i2s/cy_i2s.h **** 
 382:Generated_Source\PSoC6\pdl\drivers\peripheral\i2s/cy_i2s.h **** /**
 383:Generated_Source\PSoC6\pdl\drivers\peripheral\i2s/cy_i2s.h ****  * The I2S backup structure type to be used for the SysPm callback.
 384:Generated_Source\PSoC6\pdl\drivers\peripheral\i2s/cy_i2s.h ****  * \ref Cy_I2S_DeepSleepCallback context definition.
 385:Generated_Source\PSoC6\pdl\drivers\peripheral\i2s/cy_i2s.h ****  *
 386:Generated_Source\PSoC6\pdl\drivers\peripheral\i2s/cy_i2s.h ****  * \cond Also can be used for other purposes to store the current Tx/Rx
 387:Generated_Source\PSoC6\pdl\drivers\peripheral\i2s/cy_i2s.h ****  * operation state and interrupt settings - the factors that are usually
 388:Generated_Source\PSoC6\pdl\drivers\peripheral\i2s/cy_i2s.h ****  * changed on the fly. \endcond
 389:Generated_Source\PSoC6\pdl\drivers\peripheral\i2s/cy_i2s.h ****  */
 390:Generated_Source\PSoC6\pdl\drivers\peripheral\i2s/cy_i2s.h **** typedef struct
 391:Generated_Source\PSoC6\pdl\drivers\peripheral\i2s/cy_i2s.h **** {
 392:Generated_Source\PSoC6\pdl\drivers\peripheral\i2s/cy_i2s.h ****     uint32_t enableState;            /**< Stores the I2S state */
 393:Generated_Source\PSoC6\pdl\drivers\peripheral\i2s/cy_i2s.h ****     uint32_t interruptMask;          /**< Stores the I2S interrupt mask */
 394:Generated_Source\PSoC6\pdl\drivers\peripheral\i2s/cy_i2s.h **** } cy_stc_i2s_context_t;
 395:Generated_Source\PSoC6\pdl\drivers\peripheral\i2s/cy_i2s.h **** 
 396:Generated_Source\PSoC6\pdl\drivers\peripheral\i2s/cy_i2s.h **** /** \} group_i2s_data_structures */
 397:Generated_Source\PSoC6\pdl\drivers\peripheral\i2s/cy_i2s.h **** 
 398:Generated_Source\PSoC6\pdl\drivers\peripheral\i2s/cy_i2s.h **** /** \cond INTERNAL */
 399:Generated_Source\PSoC6\pdl\drivers\peripheral\i2s/cy_i2s.h **** /******************************************************************************
 400:Generated_Source\PSoC6\pdl\drivers\peripheral\i2s/cy_i2s.h ****  * Local definitions
 401:Generated_Source\PSoC6\pdl\drivers\peripheral\i2s/cy_i2s.h **** *******************************************************************************/
 402:Generated_Source\PSoC6\pdl\drivers\peripheral\i2s/cy_i2s.h **** 
 403:Generated_Source\PSoC6\pdl\drivers\peripheral\i2s/cy_i2s.h **** #define CY_I2S_INTR_MASK           (CY_I2S_INTR_TX_TRIGGER   | \
 404:Generated_Source\PSoC6\pdl\drivers\peripheral\i2s/cy_i2s.h ****                                     CY_I2S_INTR_TX_NOT_FULL  | \
 405:Generated_Source\PSoC6\pdl\drivers\peripheral\i2s/cy_i2s.h ****                                     CY_I2S_INTR_TX_EMPTY     | \
 406:Generated_Source\PSoC6\pdl\drivers\peripheral\i2s/cy_i2s.h ****                                     CY_I2S_INTR_TX_OVERFLOW  | \
 407:Generated_Source\PSoC6\pdl\drivers\peripheral\i2s/cy_i2s.h ****                                     CY_I2S_INTR_TX_UNDERFLOW | \
 408:Generated_Source\PSoC6\pdl\drivers\peripheral\i2s/cy_i2s.h ****                                     CY_I2S_INTR_TX_WD        | \
 409:Generated_Source\PSoC6\pdl\drivers\peripheral\i2s/cy_i2s.h ****                                     CY_I2S_INTR_RX_TRIGGER   | \
 410:Generated_Source\PSoC6\pdl\drivers\peripheral\i2s/cy_i2s.h ****                                     CY_I2S_INTR_RX_NOT_EMPTY | \
 411:Generated_Source\PSoC6\pdl\drivers\peripheral\i2s/cy_i2s.h ****                                     CY_I2S_INTR_RX_FULL      | \
 412:Generated_Source\PSoC6\pdl\drivers\peripheral\i2s/cy_i2s.h ****                                     CY_I2S_INTR_RX_OVERFLOW  | \
 413:Generated_Source\PSoC6\pdl\drivers\peripheral\i2s/cy_i2s.h ****                                     CY_I2S_INTR_RX_UNDERFLOW | \
 414:Generated_Source\PSoC6\pdl\drivers\peripheral\i2s/cy_i2s.h ****                                     CY_I2S_INTR_RX_WD)
 415:Generated_Source\PSoC6\pdl\drivers\peripheral\i2s/cy_i2s.h **** 
 416:Generated_Source\PSoC6\pdl\drivers\peripheral\i2s/cy_i2s.h **** /* Non-zero default values */
 417:Generated_Source\PSoC6\pdl\drivers\peripheral\i2s/cy_i2s.h **** #define CY_I2S_TX_CTL_CH_NR_DEFAULT    (0x1U)
 418:Generated_Source\PSoC6\pdl\drivers\peripheral\i2s/cy_i2s.h **** #define CY_I2S_TX_CTL_I2S_MODE_DEFAULT (0x2U)
 419:Generated_Source\PSoC6\pdl\drivers\peripheral\i2s/cy_i2s.h **** #define CY_I2S_TX_CTL_WS_PULSE_DEFAULT (0x1U)
 420:Generated_Source\PSoC6\pdl\drivers\peripheral\i2s/cy_i2s.h **** #define CY_I2S_TX_CTL_CH_LEN_DEFAULT   (0x4U)
 421:Generated_Source\PSoC6\pdl\drivers\peripheral\i2s/cy_i2s.h **** #define CY_I2S_TX_CTL_WORD_LEN_DEFAULT (0x4U)
 422:Generated_Source\PSoC6\pdl\drivers\peripheral\i2s/cy_i2s.h **** 
 423:Generated_Source\PSoC6\pdl\drivers\peripheral\i2s/cy_i2s.h **** #define CY_I2S_TX_CTL_DEFAULT (_VAL2FLD(I2S_TX_CTL_CH_NR,    CY_I2S_TX_CTL_CH_NR_DEFAULT)    | \
 424:Generated_Source\PSoC6\pdl\drivers\peripheral\i2s/cy_i2s.h ****                                _VAL2FLD(I2S_TX_CTL_I2S_MODE, CY_I2S_TX_CTL_I2S_MODE_DEFAULT) | \
 425:Generated_Source\PSoC6\pdl\drivers\peripheral\i2s/cy_i2s.h ****                                _VAL2FLD(I2S_TX_CTL_WS_PULSE, CY_I2S_TX_CTL_WS_PULSE_DEFAULT) | \
 426:Generated_Source\PSoC6\pdl\drivers\peripheral\i2s/cy_i2s.h ****                                _VAL2FLD(I2S_TX_CTL_CH_LEN,   CY_I2S_TX_CTL_CH_LEN_DEFAULT)   | \
 427:Generated_Source\PSoC6\pdl\drivers\peripheral\i2s/cy_i2s.h ****                                _VAL2FLD(I2S_TX_CTL_WORD_LEN, CY_I2S_TX_CTL_WORD_LEN_DEFAULT))
 428:Generated_Source\PSoC6\pdl\drivers\peripheral\i2s/cy_i2s.h **** 
 429:Generated_Source\PSoC6\pdl\drivers\peripheral\i2s/cy_i2s.h **** #define CY_I2S_RX_CTL_CH_NR_DEFAULT    (0x1U)
ARM GAS  C:\Users\ikomb\AppData\Local\Temp\cchnbsea.s 			page 9


 430:Generated_Source\PSoC6\pdl\drivers\peripheral\i2s/cy_i2s.h **** #define CY_I2S_RX_CTL_I2S_MODE_DEFAULT (0x2U)
 431:Generated_Source\PSoC6\pdl\drivers\peripheral\i2s/cy_i2s.h **** #define CY_I2S_RX_CTL_WS_PULSE_DEFAULT (0x1U)
 432:Generated_Source\PSoC6\pdl\drivers\peripheral\i2s/cy_i2s.h **** #define CY_I2S_RX_CTL_CH_LEN_DEFAULT   (0x4U)
 433:Generated_Source\PSoC6\pdl\drivers\peripheral\i2s/cy_i2s.h **** #define CY_I2S_RX_CTL_WORD_LEN_DEFAULT (0x4U)
 434:Generated_Source\PSoC6\pdl\drivers\peripheral\i2s/cy_i2s.h **** 
 435:Generated_Source\PSoC6\pdl\drivers\peripheral\i2s/cy_i2s.h **** #define CY_I2S_RX_CTL_DEFAULT (_VAL2FLD(I2S_RX_CTL_CH_NR,    CY_I2S_RX_CTL_CH_NR_DEFAULT)    | \
 436:Generated_Source\PSoC6\pdl\drivers\peripheral\i2s/cy_i2s.h ****                                _VAL2FLD(I2S_RX_CTL_I2S_MODE, CY_I2S_RX_CTL_I2S_MODE_DEFAULT) | \
 437:Generated_Source\PSoC6\pdl\drivers\peripheral\i2s/cy_i2s.h ****                                _VAL2FLD(I2S_RX_CTL_WS_PULSE, CY_I2S_RX_CTL_WS_PULSE_DEFAULT) | \
 438:Generated_Source\PSoC6\pdl\drivers\peripheral\i2s/cy_i2s.h ****                                _VAL2FLD(I2S_RX_CTL_CH_LEN,   CY_I2S_RX_CTL_CH_LEN_DEFAULT)   | \
 439:Generated_Source\PSoC6\pdl\drivers\peripheral\i2s/cy_i2s.h ****                                _VAL2FLD(I2S_RX_CTL_WORD_LEN, CY_I2S_RX_CTL_WORD_LEN_DEFAULT))
 440:Generated_Source\PSoC6\pdl\drivers\peripheral\i2s/cy_i2s.h **** 
 441:Generated_Source\PSoC6\pdl\drivers\peripheral\i2s/cy_i2s.h **** /* Macros for conditions used by CY_ASSERT calls */
 442:Generated_Source\PSoC6\pdl\drivers\peripheral\i2s/cy_i2s.h **** #define CY_I2S_IS_ALIGNMENT_VALID(alignment) ((CY_I2S_LEFT_JUSTIFIED == (alignment)) || \
 443:Generated_Source\PSoC6\pdl\drivers\peripheral\i2s/cy_i2s.h ****                                               (CY_I2S_I2S_MODE       == (alignment)) || \
 444:Generated_Source\PSoC6\pdl\drivers\peripheral\i2s/cy_i2s.h ****                                               (CY_I2S_TDM_MODE_A     == (alignment)) || \
 445:Generated_Source\PSoC6\pdl\drivers\peripheral\i2s/cy_i2s.h ****                                               (CY_I2S_TDM_MODE_B     == (alignment)))
 446:Generated_Source\PSoC6\pdl\drivers\peripheral\i2s/cy_i2s.h **** 
 447:Generated_Source\PSoC6\pdl\drivers\peripheral\i2s/cy_i2s.h **** #define CY_I2S_IS_LEN_VALID(length)          ((CY_I2S_LEN8  == (length)) || \
 448:Generated_Source\PSoC6\pdl\drivers\peripheral\i2s/cy_i2s.h ****                                               (CY_I2S_LEN16 == (length)) || \
 449:Generated_Source\PSoC6\pdl\drivers\peripheral\i2s/cy_i2s.h ****                                               (CY_I2S_LEN18 == (length)) || \
 450:Generated_Source\PSoC6\pdl\drivers\peripheral\i2s/cy_i2s.h ****                                               (CY_I2S_LEN20 == (length)) || \
 451:Generated_Source\PSoC6\pdl\drivers\peripheral\i2s/cy_i2s.h ****                                               (CY_I2S_LEN24 == (length)) || \
 452:Generated_Source\PSoC6\pdl\drivers\peripheral\i2s/cy_i2s.h ****                                               (CY_I2S_LEN32 == (length)))
 453:Generated_Source\PSoC6\pdl\drivers\peripheral\i2s/cy_i2s.h **** 
 454:Generated_Source\PSoC6\pdl\drivers\peripheral\i2s/cy_i2s.h **** #define CY_I2S_IS_OVHDATA_VALID(overhead)    ((CY_I2S_OVHDATA_ZERO == (overhead)) || \
 455:Generated_Source\PSoC6\pdl\drivers\peripheral\i2s/cy_i2s.h ****                                               (CY_I2S_OVHDATA_ONE  == (overhead)))
 456:Generated_Source\PSoC6\pdl\drivers\peripheral\i2s/cy_i2s.h **** 
 457:Generated_Source\PSoC6\pdl\drivers\peripheral\i2s/cy_i2s.h **** #define CY_I2S_IS_WSPULSE_VALID(wsPulse)     ((CY_I2S_WS_ONE_SCK_CYCLE      == (wsPulse)) || \
 458:Generated_Source\PSoC6\pdl\drivers\peripheral\i2s/cy_i2s.h ****                                               (CY_I2S_WS_ONE_CHANNEL_LENGTH == (wsPulse)))
 459:Generated_Source\PSoC6\pdl\drivers\peripheral\i2s/cy_i2s.h **** 
 460:Generated_Source\PSoC6\pdl\drivers\peripheral\i2s/cy_i2s.h **** #define CY_I2S_IS_CLK_DIV_VALID(clkDiv)      ((clkDiv) <= 63U)
 461:Generated_Source\PSoC6\pdl\drivers\peripheral\i2s/cy_i2s.h **** #define CY_I2S_IS_CHANNELS_VALID(channels)   ((channels) <= 7UL)
 462:Generated_Source\PSoC6\pdl\drivers\peripheral\i2s/cy_i2s.h **** #define CY_I2S_IS_INTR_MASK_VALID(interrupt) (0UL == ((interrupt) & ((uint32_t) ~CY_I2S_INTR_MASK))
 463:Generated_Source\PSoC6\pdl\drivers\peripheral\i2s/cy_i2s.h **** 
 464:Generated_Source\PSoC6\pdl\drivers\peripheral\i2s/cy_i2s.h **** #define CY_I2S_IS_CHAN_WORD_VALID(channel, word)        ((CY_I2S_IS_LEN_VALID(channel)) && \
 465:Generated_Source\PSoC6\pdl\drivers\peripheral\i2s/cy_i2s.h ****                                                          (CY_I2S_IS_LEN_VALID(word))    && \
 466:Generated_Source\PSoC6\pdl\drivers\peripheral\i2s/cy_i2s.h ****                                                          ((channel) >= (word)))
 467:Generated_Source\PSoC6\pdl\drivers\peripheral\i2s/cy_i2s.h **** #define CY_I2S_IS_TRIG_LEVEL_VALID(trigLevel, channels) ((trigLevel) <= (255U - (channels)))
 468:Generated_Source\PSoC6\pdl\drivers\peripheral\i2s/cy_i2s.h **** 
 469:Generated_Source\PSoC6\pdl\drivers\peripheral\i2s/cy_i2s.h **** /** \endcond */
 470:Generated_Source\PSoC6\pdl\drivers\peripheral\i2s/cy_i2s.h **** 
 471:Generated_Source\PSoC6\pdl\drivers\peripheral\i2s/cy_i2s.h **** 
 472:Generated_Source\PSoC6\pdl\drivers\peripheral\i2s/cy_i2s.h **** /**
 473:Generated_Source\PSoC6\pdl\drivers\peripheral\i2s/cy_i2s.h **** * \addtogroup group_i2s_functions
 474:Generated_Source\PSoC6\pdl\drivers\peripheral\i2s/cy_i2s.h **** * \{
 475:Generated_Source\PSoC6\pdl\drivers\peripheral\i2s/cy_i2s.h **** */
 476:Generated_Source\PSoC6\pdl\drivers\peripheral\i2s/cy_i2s.h **** 
 477:Generated_Source\PSoC6\pdl\drivers\peripheral\i2s/cy_i2s.h ****   cy_en_i2s_status_t     Cy_I2S_Init(I2S_Type * base, cy_stc_i2s_config_t const * config);
 478:Generated_Source\PSoC6\pdl\drivers\peripheral\i2s/cy_i2s.h ****                 void     Cy_I2S_DeInit(I2S_Type * base);
 479:Generated_Source\PSoC6\pdl\drivers\peripheral\i2s/cy_i2s.h ****                 
 480:Generated_Source\PSoC6\pdl\drivers\peripheral\i2s/cy_i2s.h **** /** \addtogroup group_i2s_functions_syspm_callback
 481:Generated_Source\PSoC6\pdl\drivers\peripheral\i2s/cy_i2s.h **** * The driver supports SysPm callback for Deep Sleep transition.
 482:Generated_Source\PSoC6\pdl\drivers\peripheral\i2s/cy_i2s.h **** * \{
 483:Generated_Source\PSoC6\pdl\drivers\peripheral\i2s/cy_i2s.h **** */
 484:Generated_Source\PSoC6\pdl\drivers\peripheral\i2s/cy_i2s.h **** cy_en_syspm_status_t     Cy_I2S_DeepSleepCallback(cy_stc_syspm_callback_params_t * callbackParams);
 485:Generated_Source\PSoC6\pdl\drivers\peripheral\i2s/cy_i2s.h **** /** \} */
 486:Generated_Source\PSoC6\pdl\drivers\peripheral\i2s/cy_i2s.h **** 
ARM GAS  C:\Users\ikomb\AppData\Local\Temp\cchnbsea.s 			page 10


 487:Generated_Source\PSoC6\pdl\drivers\peripheral\i2s/cy_i2s.h **** __STATIC_INLINE void     Cy_I2S_EnableTx(I2S_Type * base);
 488:Generated_Source\PSoC6\pdl\drivers\peripheral\i2s/cy_i2s.h **** __STATIC_INLINE void     Cy_I2S_PauseTx(I2S_Type * base);
 489:Generated_Source\PSoC6\pdl\drivers\peripheral\i2s/cy_i2s.h **** __STATIC_INLINE void     Cy_I2S_ResumeTx(I2S_Type * base);
 490:Generated_Source\PSoC6\pdl\drivers\peripheral\i2s/cy_i2s.h **** __STATIC_INLINE void     Cy_I2S_DisableTx(I2S_Type * base);
 491:Generated_Source\PSoC6\pdl\drivers\peripheral\i2s/cy_i2s.h **** __STATIC_INLINE void     Cy_I2S_EnableRx(I2S_Type * base);
 492:Generated_Source\PSoC6\pdl\drivers\peripheral\i2s/cy_i2s.h **** __STATIC_INLINE void     Cy_I2S_DisableRx(I2S_Type * base);
 493:Generated_Source\PSoC6\pdl\drivers\peripheral\i2s/cy_i2s.h **** __STATIC_INLINE uint32_t Cy_I2S_GetCurrentState(I2S_Type const * base);
 494:Generated_Source\PSoC6\pdl\drivers\peripheral\i2s/cy_i2s.h **** 
 495:Generated_Source\PSoC6\pdl\drivers\peripheral\i2s/cy_i2s.h **** __STATIC_INLINE void     Cy_I2S_ClearTxFifo(I2S_Type * base);
 496:Generated_Source\PSoC6\pdl\drivers\peripheral\i2s/cy_i2s.h **** __STATIC_INLINE uint32_t Cy_I2S_GetNumInTxFifo(I2S_Type const * base);
 497:Generated_Source\PSoC6\pdl\drivers\peripheral\i2s/cy_i2s.h **** __STATIC_INLINE void     Cy_I2S_WriteTxData(I2S_Type * base, uint32_t data);
 498:Generated_Source\PSoC6\pdl\drivers\peripheral\i2s/cy_i2s.h **** __STATIC_INLINE uint8_t  Cy_I2S_GetTxReadPointer(I2S_Type const * base);
 499:Generated_Source\PSoC6\pdl\drivers\peripheral\i2s/cy_i2s.h **** __STATIC_INLINE uint8_t  Cy_I2S_GetTxWritePointer(I2S_Type const * base);
 500:Generated_Source\PSoC6\pdl\drivers\peripheral\i2s/cy_i2s.h **** __STATIC_INLINE void     Cy_I2S_FreezeTxFifo(I2S_Type * base);
 501:Generated_Source\PSoC6\pdl\drivers\peripheral\i2s/cy_i2s.h **** __STATIC_INLINE void     Cy_I2S_UnfreezeTxFifo(I2S_Type * base);
 502:Generated_Source\PSoC6\pdl\drivers\peripheral\i2s/cy_i2s.h **** 
 503:Generated_Source\PSoC6\pdl\drivers\peripheral\i2s/cy_i2s.h **** __STATIC_INLINE void     Cy_I2S_ClearRxFifo(I2S_Type * base);
 504:Generated_Source\PSoC6\pdl\drivers\peripheral\i2s/cy_i2s.h **** __STATIC_INLINE uint32_t Cy_I2S_GetNumInRxFifo(I2S_Type const * base);
 505:Generated_Source\PSoC6\pdl\drivers\peripheral\i2s/cy_i2s.h **** __STATIC_INLINE uint32_t Cy_I2S_ReadRxData(I2S_Type const * base);
 506:Generated_Source\PSoC6\pdl\drivers\peripheral\i2s/cy_i2s.h **** __STATIC_INLINE uint32_t Cy_I2S_ReadRxDataSilent(I2S_Type const * base);
 507:Generated_Source\PSoC6\pdl\drivers\peripheral\i2s/cy_i2s.h **** __STATIC_INLINE uint8_t  Cy_I2S_GetRxReadPointer(I2S_Type const * base);
 508:Generated_Source\PSoC6\pdl\drivers\peripheral\i2s/cy_i2s.h **** __STATIC_INLINE uint8_t  Cy_I2S_GetRxWritePointer(I2S_Type const * base);
 509:Generated_Source\PSoC6\pdl\drivers\peripheral\i2s/cy_i2s.h **** __STATIC_INLINE void     Cy_I2S_FreezeRxFifo(I2S_Type * base);
 510:Generated_Source\PSoC6\pdl\drivers\peripheral\i2s/cy_i2s.h **** __STATIC_INLINE void     Cy_I2S_UnfreezeRxFifo(I2S_Type * base);
 511:Generated_Source\PSoC6\pdl\drivers\peripheral\i2s/cy_i2s.h **** 
 512:Generated_Source\PSoC6\pdl\drivers\peripheral\i2s/cy_i2s.h **** __STATIC_INLINE uint32_t Cy_I2S_GetInterruptStatus(I2S_Type const * base);
 513:Generated_Source\PSoC6\pdl\drivers\peripheral\i2s/cy_i2s.h **** __STATIC_INLINE void     Cy_I2S_ClearInterrupt(I2S_Type * base, uint32_t interrupt);
 514:Generated_Source\PSoC6\pdl\drivers\peripheral\i2s/cy_i2s.h **** __STATIC_INLINE void     Cy_I2S_SetInterrupt(I2S_Type * base, uint32_t interrupt);
 515:Generated_Source\PSoC6\pdl\drivers\peripheral\i2s/cy_i2s.h **** __STATIC_INLINE uint32_t Cy_I2S_GetInterruptMask(I2S_Type const * base);
 516:Generated_Source\PSoC6\pdl\drivers\peripheral\i2s/cy_i2s.h **** __STATIC_INLINE void     Cy_I2S_SetInterruptMask(I2S_Type * base, uint32_t interrupt);
 517:Generated_Source\PSoC6\pdl\drivers\peripheral\i2s/cy_i2s.h **** __STATIC_INLINE uint32_t Cy_I2S_GetInterruptStatusMasked(I2S_Type const * base);
 518:Generated_Source\PSoC6\pdl\drivers\peripheral\i2s/cy_i2s.h **** 
 519:Generated_Source\PSoC6\pdl\drivers\peripheral\i2s/cy_i2s.h **** /*******************************************************************************
 520:Generated_Source\PSoC6\pdl\drivers\peripheral\i2s/cy_i2s.h **** * Function Name: Cy_I2S_EnableTx
 521:Generated_Source\PSoC6\pdl\drivers\peripheral\i2s/cy_i2s.h **** ****************************************************************************//**
 522:Generated_Source\PSoC6\pdl\drivers\peripheral\i2s/cy_i2s.h **** *
 523:Generated_Source\PSoC6\pdl\drivers\peripheral\i2s/cy_i2s.h **** * Starts an I2S transmission. Interrupts enabling (by the 
 524:Generated_Source\PSoC6\pdl\drivers\peripheral\i2s/cy_i2s.h **** * \ref Cy_I2S_SetInterruptMask) is required after this function call, in case
 525:Generated_Source\PSoC6\pdl\drivers\peripheral\i2s/cy_i2s.h **** * if any I2S interrupts are used in the application.
 526:Generated_Source\PSoC6\pdl\drivers\peripheral\i2s/cy_i2s.h **** *
 527:Generated_Source\PSoC6\pdl\drivers\peripheral\i2s/cy_i2s.h **** * \pre Cy_I2S_Init() must be called before.
 528:Generated_Source\PSoC6\pdl\drivers\peripheral\i2s/cy_i2s.h **** *
 529:Generated_Source\PSoC6\pdl\drivers\peripheral\i2s/cy_i2s.h **** * \param base The pointer to the I2S instance address.
 530:Generated_Source\PSoC6\pdl\drivers\peripheral\i2s/cy_i2s.h **** *
 531:Generated_Source\PSoC6\pdl\drivers\peripheral\i2s/cy_i2s.h **** * \funcusage
 532:Generated_Source\PSoC6\pdl\drivers\peripheral\i2s/cy_i2s.h **** * \snippet i2s/i2s_v2_0_sut_00.cydsn/main_cm4.c snippet_Cy_I2S_EnableTx
 533:Generated_Source\PSoC6\pdl\drivers\peripheral\i2s/cy_i2s.h **** *
 534:Generated_Source\PSoC6\pdl\drivers\peripheral\i2s/cy_i2s.h **** *******************************************************************************/
 535:Generated_Source\PSoC6\pdl\drivers\peripheral\i2s/cy_i2s.h **** __STATIC_INLINE void Cy_I2S_EnableTx(I2S_Type * base)
 536:Generated_Source\PSoC6\pdl\drivers\peripheral\i2s/cy_i2s.h **** {
  28              		.loc 1 536 0
  29              		.cfi_startproc
  30              		@ args = 0, pretend = 0, frame = 8
  31              		@ frame_needed = 1, uses_anonymous_args = 0
  32              		@ link register save eliminated.
  33 0000 80B4     		push	{r7}
  34              		.cfi_def_cfa_offset 4
ARM GAS  C:\Users\ikomb\AppData\Local\Temp\cchnbsea.s 			page 11


  35              		.cfi_offset 7, -4
  36 0002 83B0     		sub	sp, sp, #12
  37              		.cfi_def_cfa_offset 16
  38 0004 00AF     		add	r7, sp, #0
  39              		.cfi_def_cfa_register 7
  40 0006 7860     		str	r0, [r7, #4]
 537:Generated_Source\PSoC6\pdl\drivers\peripheral\i2s/cy_i2s.h ****     base->CMD |= I2S_CMD_TX_START_Msk;
  41              		.loc 1 537 0
  42 0008 7B68     		ldr	r3, [r7, #4]
  43 000a 1B6A     		ldr	r3, [r3, #32]
  44 000c 43F00102 		orr	r2, r3, #1
  45 0010 7B68     		ldr	r3, [r7, #4]
  46 0012 1A62     		str	r2, [r3, #32]
 538:Generated_Source\PSoC6\pdl\drivers\peripheral\i2s/cy_i2s.h **** }
  47              		.loc 1 538 0
  48 0014 00BF     		nop
  49 0016 0C37     		adds	r7, r7, #12
  50              		.cfi_def_cfa_offset 4
  51 0018 BD46     		mov	sp, r7
  52              		.cfi_def_cfa_register 13
  53              		@ sp needed
  54 001a 5DF8047B 		ldr	r7, [sp], #4
  55              		.cfi_restore 7
  56              		.cfi_def_cfa_offset 0
  57 001e 7047     		bx	lr
  58              		.cfi_endproc
  59              	.LFE158:
  60              		.size	Cy_I2S_EnableTx, .-Cy_I2S_EnableTx
  61              		.section	.text.Cy_I2S_PauseTx,"ax",%progbits
  62              		.align	2
  63              		.thumb
  64              		.thumb_func
  65              		.type	Cy_I2S_PauseTx, %function
  66              	Cy_I2S_PauseTx:
  67              	.LFB159:
 539:Generated_Source\PSoC6\pdl\drivers\peripheral\i2s/cy_i2s.h **** 
 540:Generated_Source\PSoC6\pdl\drivers\peripheral\i2s/cy_i2s.h **** 
 541:Generated_Source\PSoC6\pdl\drivers\peripheral\i2s/cy_i2s.h **** /*******************************************************************************
 542:Generated_Source\PSoC6\pdl\drivers\peripheral\i2s/cy_i2s.h **** * Function Name: Cy_I2S_PauseTx
 543:Generated_Source\PSoC6\pdl\drivers\peripheral\i2s/cy_i2s.h **** ****************************************************************************//**
 544:Generated_Source\PSoC6\pdl\drivers\peripheral\i2s/cy_i2s.h **** *
 545:Generated_Source\PSoC6\pdl\drivers\peripheral\i2s/cy_i2s.h **** * Pauses an I2S transmission.
 546:Generated_Source\PSoC6\pdl\drivers\peripheral\i2s/cy_i2s.h **** *
 547:Generated_Source\PSoC6\pdl\drivers\peripheral\i2s/cy_i2s.h **** * \param base The pointer to the I2S instance address.
 548:Generated_Source\PSoC6\pdl\drivers\peripheral\i2s/cy_i2s.h **** *
 549:Generated_Source\PSoC6\pdl\drivers\peripheral\i2s/cy_i2s.h **** * \funcusage
 550:Generated_Source\PSoC6\pdl\drivers\peripheral\i2s/cy_i2s.h **** * \snippet i2s/i2s_v2_0_sut_00.cydsn/main_cm4.c snippet_Cy_I2S_PauseTx
 551:Generated_Source\PSoC6\pdl\drivers\peripheral\i2s/cy_i2s.h **** *
 552:Generated_Source\PSoC6\pdl\drivers\peripheral\i2s/cy_i2s.h **** *******************************************************************************/
 553:Generated_Source\PSoC6\pdl\drivers\peripheral\i2s/cy_i2s.h **** __STATIC_INLINE void Cy_I2S_PauseTx(I2S_Type * base)
 554:Generated_Source\PSoC6\pdl\drivers\peripheral\i2s/cy_i2s.h **** {
  68              		.loc 1 554 0
  69              		.cfi_startproc
  70              		@ args = 0, pretend = 0, frame = 8
  71              		@ frame_needed = 1, uses_anonymous_args = 0
  72              		@ link register save eliminated.
  73 0000 80B4     		push	{r7}
ARM GAS  C:\Users\ikomb\AppData\Local\Temp\cchnbsea.s 			page 12


  74              		.cfi_def_cfa_offset 4
  75              		.cfi_offset 7, -4
  76 0002 83B0     		sub	sp, sp, #12
  77              		.cfi_def_cfa_offset 16
  78 0004 00AF     		add	r7, sp, #0
  79              		.cfi_def_cfa_register 7
  80 0006 7860     		str	r0, [r7, #4]
 555:Generated_Source\PSoC6\pdl\drivers\peripheral\i2s/cy_i2s.h ****     base->CMD |= I2S_CMD_TX_PAUSE_Msk;
  81              		.loc 1 555 0
  82 0008 7B68     		ldr	r3, [r7, #4]
  83 000a 1B6A     		ldr	r3, [r3, #32]
  84 000c 43F48072 		orr	r2, r3, #256
  85 0010 7B68     		ldr	r3, [r7, #4]
  86 0012 1A62     		str	r2, [r3, #32]
 556:Generated_Source\PSoC6\pdl\drivers\peripheral\i2s/cy_i2s.h **** }
  87              		.loc 1 556 0
  88 0014 00BF     		nop
  89 0016 0C37     		adds	r7, r7, #12
  90              		.cfi_def_cfa_offset 4
  91 0018 BD46     		mov	sp, r7
  92              		.cfi_def_cfa_register 13
  93              		@ sp needed
  94 001a 5DF8047B 		ldr	r7, [sp], #4
  95              		.cfi_restore 7
  96              		.cfi_def_cfa_offset 0
  97 001e 7047     		bx	lr
  98              		.cfi_endproc
  99              	.LFE159:
 100              		.size	Cy_I2S_PauseTx, .-Cy_I2S_PauseTx
 101              		.section	.text.Cy_I2S_DisableTx,"ax",%progbits
 102              		.align	2
 103              		.thumb
 104              		.thumb_func
 105              		.type	Cy_I2S_DisableTx, %function
 106              	Cy_I2S_DisableTx:
 107              	.LFB161:
 557:Generated_Source\PSoC6\pdl\drivers\peripheral\i2s/cy_i2s.h **** 
 558:Generated_Source\PSoC6\pdl\drivers\peripheral\i2s/cy_i2s.h **** 
 559:Generated_Source\PSoC6\pdl\drivers\peripheral\i2s/cy_i2s.h **** /*******************************************************************************
 560:Generated_Source\PSoC6\pdl\drivers\peripheral\i2s/cy_i2s.h **** * Function Name: Cy_I2S_ResumeTx
 561:Generated_Source\PSoC6\pdl\drivers\peripheral\i2s/cy_i2s.h **** ****************************************************************************//**
 562:Generated_Source\PSoC6\pdl\drivers\peripheral\i2s/cy_i2s.h **** *
 563:Generated_Source\PSoC6\pdl\drivers\peripheral\i2s/cy_i2s.h **** * Resumes an I2S transmission.
 564:Generated_Source\PSoC6\pdl\drivers\peripheral\i2s/cy_i2s.h **** *
 565:Generated_Source\PSoC6\pdl\drivers\peripheral\i2s/cy_i2s.h **** * \param base The pointer to the I2S instance address.
 566:Generated_Source\PSoC6\pdl\drivers\peripheral\i2s/cy_i2s.h **** *
 567:Generated_Source\PSoC6\pdl\drivers\peripheral\i2s/cy_i2s.h **** * \funcusage
 568:Generated_Source\PSoC6\pdl\drivers\peripheral\i2s/cy_i2s.h **** * \snippet i2s/i2s_v2_0_sut_00.cydsn/main_cm4.c snippet_Cy_I2S_ResumeTx
 569:Generated_Source\PSoC6\pdl\drivers\peripheral\i2s/cy_i2s.h **** *
 570:Generated_Source\PSoC6\pdl\drivers\peripheral\i2s/cy_i2s.h **** *******************************************************************************/
 571:Generated_Source\PSoC6\pdl\drivers\peripheral\i2s/cy_i2s.h **** __STATIC_INLINE void Cy_I2S_ResumeTx(I2S_Type * base)
 572:Generated_Source\PSoC6\pdl\drivers\peripheral\i2s/cy_i2s.h **** {
 573:Generated_Source\PSoC6\pdl\drivers\peripheral\i2s/cy_i2s.h ****     base->CMD &= (uint32_t) ~I2S_CMD_TX_PAUSE_Msk;
 574:Generated_Source\PSoC6\pdl\drivers\peripheral\i2s/cy_i2s.h **** }
 575:Generated_Source\PSoC6\pdl\drivers\peripheral\i2s/cy_i2s.h **** 
 576:Generated_Source\PSoC6\pdl\drivers\peripheral\i2s/cy_i2s.h **** 
 577:Generated_Source\PSoC6\pdl\drivers\peripheral\i2s/cy_i2s.h **** /*******************************************************************************
ARM GAS  C:\Users\ikomb\AppData\Local\Temp\cchnbsea.s 			page 13


 578:Generated_Source\PSoC6\pdl\drivers\peripheral\i2s/cy_i2s.h **** * Function Name: Cy_I2S_DisableTx
 579:Generated_Source\PSoC6\pdl\drivers\peripheral\i2s/cy_i2s.h **** ****************************************************************************//**
 580:Generated_Source\PSoC6\pdl\drivers\peripheral\i2s/cy_i2s.h **** *
 581:Generated_Source\PSoC6\pdl\drivers\peripheral\i2s/cy_i2s.h **** * Stops an I2S transmission. 
 582:Generated_Source\PSoC6\pdl\drivers\peripheral\i2s/cy_i2s.h **** *
 583:Generated_Source\PSoC6\pdl\drivers\peripheral\i2s/cy_i2s.h **** * \pre TX interrupts disabling (by the \ref Cy_I2S_SetInterruptMask) is required
 584:Generated_Source\PSoC6\pdl\drivers\peripheral\i2s/cy_i2s.h **** * prior to this function call, in case if any TX I2S interrupts are used.
 585:Generated_Source\PSoC6\pdl\drivers\peripheral\i2s/cy_i2s.h **** *
 586:Generated_Source\PSoC6\pdl\drivers\peripheral\i2s/cy_i2s.h **** * \param base The pointer to the I2S instance address.
 587:Generated_Source\PSoC6\pdl\drivers\peripheral\i2s/cy_i2s.h **** *
 588:Generated_Source\PSoC6\pdl\drivers\peripheral\i2s/cy_i2s.h **** * \funcusage
 589:Generated_Source\PSoC6\pdl\drivers\peripheral\i2s/cy_i2s.h **** * \snippet i2s/i2s_v2_0_sut_00.cydsn/main_cm4.c snippet_Cy_I2S_DisableTx
 590:Generated_Source\PSoC6\pdl\drivers\peripheral\i2s/cy_i2s.h **** *
 591:Generated_Source\PSoC6\pdl\drivers\peripheral\i2s/cy_i2s.h **** *******************************************************************************/
 592:Generated_Source\PSoC6\pdl\drivers\peripheral\i2s/cy_i2s.h **** __STATIC_INLINE void Cy_I2S_DisableTx(I2S_Type * base)
 593:Generated_Source\PSoC6\pdl\drivers\peripheral\i2s/cy_i2s.h **** {
 108              		.loc 1 593 0
 109              		.cfi_startproc
 110              		@ args = 0, pretend = 0, frame = 8
 111              		@ frame_needed = 1, uses_anonymous_args = 0
 112              		@ link register save eliminated.
 113 0000 80B4     		push	{r7}
 114              		.cfi_def_cfa_offset 4
 115              		.cfi_offset 7, -4
 116 0002 83B0     		sub	sp, sp, #12
 117              		.cfi_def_cfa_offset 16
 118 0004 00AF     		add	r7, sp, #0
 119              		.cfi_def_cfa_register 7
 120 0006 7860     		str	r0, [r7, #4]
 594:Generated_Source\PSoC6\pdl\drivers\peripheral\i2s/cy_i2s.h ****     base->CMD &= (uint32_t) ~I2S_CMD_TX_START_Msk;
 121              		.loc 1 594 0
 122 0008 7B68     		ldr	r3, [r7, #4]
 123 000a 1B6A     		ldr	r3, [r3, #32]
 124 000c 23F00102 		bic	r2, r3, #1
 125 0010 7B68     		ldr	r3, [r7, #4]
 126 0012 1A62     		str	r2, [r3, #32]
 595:Generated_Source\PSoC6\pdl\drivers\peripheral\i2s/cy_i2s.h **** }
 127              		.loc 1 595 0
 128 0014 00BF     		nop
 129 0016 0C37     		adds	r7, r7, #12
 130              		.cfi_def_cfa_offset 4
 131 0018 BD46     		mov	sp, r7
 132              		.cfi_def_cfa_register 13
 133              		@ sp needed
 134 001a 5DF8047B 		ldr	r7, [sp], #4
 135              		.cfi_restore 7
 136              		.cfi_def_cfa_offset 0
 137 001e 7047     		bx	lr
 138              		.cfi_endproc
 139              	.LFE161:
 140              		.size	Cy_I2S_DisableTx, .-Cy_I2S_DisableTx
 141              		.section	.text.Cy_I2S_EnableRx,"ax",%progbits
 142              		.align	2
 143              		.thumb
 144              		.thumb_func
 145              		.type	Cy_I2S_EnableRx, %function
 146              	Cy_I2S_EnableRx:
ARM GAS  C:\Users\ikomb\AppData\Local\Temp\cchnbsea.s 			page 14


 147              	.LFB162:
 596:Generated_Source\PSoC6\pdl\drivers\peripheral\i2s/cy_i2s.h **** 
 597:Generated_Source\PSoC6\pdl\drivers\peripheral\i2s/cy_i2s.h **** 
 598:Generated_Source\PSoC6\pdl\drivers\peripheral\i2s/cy_i2s.h **** /*******************************************************************************
 599:Generated_Source\PSoC6\pdl\drivers\peripheral\i2s/cy_i2s.h **** * Function Name: Cy_I2S_EnableRx
 600:Generated_Source\PSoC6\pdl\drivers\peripheral\i2s/cy_i2s.h **** ****************************************************************************//**
 601:Generated_Source\PSoC6\pdl\drivers\peripheral\i2s/cy_i2s.h **** *
 602:Generated_Source\PSoC6\pdl\drivers\peripheral\i2s/cy_i2s.h **** * Starts an I2S reception. Interrupts enabling (by the 
 603:Generated_Source\PSoC6\pdl\drivers\peripheral\i2s/cy_i2s.h **** * \ref Cy_I2S_SetInterruptMask) is required after this function call, in case
 604:Generated_Source\PSoC6\pdl\drivers\peripheral\i2s/cy_i2s.h **** * if any I2S interrupts are used in the application.
 605:Generated_Source\PSoC6\pdl\drivers\peripheral\i2s/cy_i2s.h **** *
 606:Generated_Source\PSoC6\pdl\drivers\peripheral\i2s/cy_i2s.h **** * \pre \ref Cy_I2S_Init() must be called before.
 607:Generated_Source\PSoC6\pdl\drivers\peripheral\i2s/cy_i2s.h **** *
 608:Generated_Source\PSoC6\pdl\drivers\peripheral\i2s/cy_i2s.h **** * \param base The pointer to the I2S instance address.
 609:Generated_Source\PSoC6\pdl\drivers\peripheral\i2s/cy_i2s.h **** *
 610:Generated_Source\PSoC6\pdl\drivers\peripheral\i2s/cy_i2s.h **** * \funcusage
 611:Generated_Source\PSoC6\pdl\drivers\peripheral\i2s/cy_i2s.h **** * \snippet i2s/i2s_v2_0_sut_00.cydsn/main_cm4.c snippet_Cy_I2S_EnableRx
 612:Generated_Source\PSoC6\pdl\drivers\peripheral\i2s/cy_i2s.h **** *
 613:Generated_Source\PSoC6\pdl\drivers\peripheral\i2s/cy_i2s.h **** *******************************************************************************/
 614:Generated_Source\PSoC6\pdl\drivers\peripheral\i2s/cy_i2s.h **** __STATIC_INLINE void Cy_I2S_EnableRx(I2S_Type * base)
 615:Generated_Source\PSoC6\pdl\drivers\peripheral\i2s/cy_i2s.h **** {
 148              		.loc 1 615 0
 149              		.cfi_startproc
 150              		@ args = 0, pretend = 0, frame = 8
 151              		@ frame_needed = 1, uses_anonymous_args = 0
 152              		@ link register save eliminated.
 153 0000 80B4     		push	{r7}
 154              		.cfi_def_cfa_offset 4
 155              		.cfi_offset 7, -4
 156 0002 83B0     		sub	sp, sp, #12
 157              		.cfi_def_cfa_offset 16
 158 0004 00AF     		add	r7, sp, #0
 159              		.cfi_def_cfa_register 7
 160 0006 7860     		str	r0, [r7, #4]
 616:Generated_Source\PSoC6\pdl\drivers\peripheral\i2s/cy_i2s.h ****     base->CMD |= I2S_CMD_RX_START_Msk;
 161              		.loc 1 616 0
 162 0008 7B68     		ldr	r3, [r7, #4]
 163 000a 1B6A     		ldr	r3, [r3, #32]
 164 000c 43F48032 		orr	r2, r3, #65536
 165 0010 7B68     		ldr	r3, [r7, #4]
 166 0012 1A62     		str	r2, [r3, #32]
 617:Generated_Source\PSoC6\pdl\drivers\peripheral\i2s/cy_i2s.h **** }
 167              		.loc 1 617 0
 168 0014 00BF     		nop
 169 0016 0C37     		adds	r7, r7, #12
 170              		.cfi_def_cfa_offset 4
 171 0018 BD46     		mov	sp, r7
 172              		.cfi_def_cfa_register 13
 173              		@ sp needed
 174 001a 5DF8047B 		ldr	r7, [sp], #4
 175              		.cfi_restore 7
 176              		.cfi_def_cfa_offset 0
 177 001e 7047     		bx	lr
 178              		.cfi_endproc
 179              	.LFE162:
 180              		.size	Cy_I2S_EnableRx, .-Cy_I2S_EnableRx
 181              		.section	.text.Cy_I2S_DisableRx,"ax",%progbits
ARM GAS  C:\Users\ikomb\AppData\Local\Temp\cchnbsea.s 			page 15


 182              		.align	2
 183              		.thumb
 184              		.thumb_func
 185              		.type	Cy_I2S_DisableRx, %function
 186              	Cy_I2S_DisableRx:
 187              	.LFB163:
 618:Generated_Source\PSoC6\pdl\drivers\peripheral\i2s/cy_i2s.h **** 
 619:Generated_Source\PSoC6\pdl\drivers\peripheral\i2s/cy_i2s.h **** 
 620:Generated_Source\PSoC6\pdl\drivers\peripheral\i2s/cy_i2s.h **** /*******************************************************************************
 621:Generated_Source\PSoC6\pdl\drivers\peripheral\i2s/cy_i2s.h **** * Function Name: Cy_I2S_DisableRx
 622:Generated_Source\PSoC6\pdl\drivers\peripheral\i2s/cy_i2s.h **** ****************************************************************************//**
 623:Generated_Source\PSoC6\pdl\drivers\peripheral\i2s/cy_i2s.h **** *
 624:Generated_Source\PSoC6\pdl\drivers\peripheral\i2s/cy_i2s.h **** * Stops an I2S reception.
 625:Generated_Source\PSoC6\pdl\drivers\peripheral\i2s/cy_i2s.h **** *
 626:Generated_Source\PSoC6\pdl\drivers\peripheral\i2s/cy_i2s.h **** * \pre RX interrupts disabling (by the \ref Cy_I2S_SetInterruptMask) is required
 627:Generated_Source\PSoC6\pdl\drivers\peripheral\i2s/cy_i2s.h **** * prior to this function call, in case if any RX I2S interrupts are used.
 628:Generated_Source\PSoC6\pdl\drivers\peripheral\i2s/cy_i2s.h **** *
 629:Generated_Source\PSoC6\pdl\drivers\peripheral\i2s/cy_i2s.h **** * \param base The pointer to the I2S instance address.
 630:Generated_Source\PSoC6\pdl\drivers\peripheral\i2s/cy_i2s.h **** *
 631:Generated_Source\PSoC6\pdl\drivers\peripheral\i2s/cy_i2s.h **** * \funcusage
 632:Generated_Source\PSoC6\pdl\drivers\peripheral\i2s/cy_i2s.h **** * \snippet i2s/i2s_v2_0_sut_00.cydsn/main_cm4.c snippet_Cy_I2S_DisableRx
 633:Generated_Source\PSoC6\pdl\drivers\peripheral\i2s/cy_i2s.h **** *
 634:Generated_Source\PSoC6\pdl\drivers\peripheral\i2s/cy_i2s.h **** *******************************************************************************/
 635:Generated_Source\PSoC6\pdl\drivers\peripheral\i2s/cy_i2s.h **** __STATIC_INLINE void Cy_I2S_DisableRx(I2S_Type * base)
 636:Generated_Source\PSoC6\pdl\drivers\peripheral\i2s/cy_i2s.h **** {
 188              		.loc 1 636 0
 189              		.cfi_startproc
 190              		@ args = 0, pretend = 0, frame = 8
 191              		@ frame_needed = 1, uses_anonymous_args = 0
 192              		@ link register save eliminated.
 193 0000 80B4     		push	{r7}
 194              		.cfi_def_cfa_offset 4
 195              		.cfi_offset 7, -4
 196 0002 83B0     		sub	sp, sp, #12
 197              		.cfi_def_cfa_offset 16
 198 0004 00AF     		add	r7, sp, #0
 199              		.cfi_def_cfa_register 7
 200 0006 7860     		str	r0, [r7, #4]
 637:Generated_Source\PSoC6\pdl\drivers\peripheral\i2s/cy_i2s.h ****     base->CMD &= (uint32_t) ~I2S_CMD_RX_START_Msk;
 201              		.loc 1 637 0
 202 0008 7B68     		ldr	r3, [r7, #4]
 203 000a 1B6A     		ldr	r3, [r3, #32]
 204 000c 23F48032 		bic	r2, r3, #65536
 205 0010 7B68     		ldr	r3, [r7, #4]
 206 0012 1A62     		str	r2, [r3, #32]
 638:Generated_Source\PSoC6\pdl\drivers\peripheral\i2s/cy_i2s.h **** }
 207              		.loc 1 638 0
 208 0014 00BF     		nop
 209 0016 0C37     		adds	r7, r7, #12
 210              		.cfi_def_cfa_offset 4
 211 0018 BD46     		mov	sp, r7
 212              		.cfi_def_cfa_register 13
 213              		@ sp needed
 214 001a 5DF8047B 		ldr	r7, [sp], #4
 215              		.cfi_restore 7
 216              		.cfi_def_cfa_offset 0
 217 001e 7047     		bx	lr
ARM GAS  C:\Users\ikomb\AppData\Local\Temp\cchnbsea.s 			page 16


 218              		.cfi_endproc
 219              	.LFE163:
 220              		.size	Cy_I2S_DisableRx, .-Cy_I2S_DisableRx
 221              		.section	.text.Cy_I2S_GetCurrentState,"ax",%progbits
 222              		.align	2
 223              		.thumb
 224              		.thumb_func
 225              		.type	Cy_I2S_GetCurrentState, %function
 226              	Cy_I2S_GetCurrentState:
 227              	.LFB164:
 639:Generated_Source\PSoC6\pdl\drivers\peripheral\i2s/cy_i2s.h **** 
 640:Generated_Source\PSoC6\pdl\drivers\peripheral\i2s/cy_i2s.h **** 
 641:Generated_Source\PSoC6\pdl\drivers\peripheral\i2s/cy_i2s.h **** /*******************************************************************************
 642:Generated_Source\PSoC6\pdl\drivers\peripheral\i2s/cy_i2s.h **** * Function Name: Cy_I2S_GetCurrentState
 643:Generated_Source\PSoC6\pdl\drivers\peripheral\i2s/cy_i2s.h **** ****************************************************************************//**
 644:Generated_Source\PSoC6\pdl\drivers\peripheral\i2s/cy_i2s.h **** *
 645:Generated_Source\PSoC6\pdl\drivers\peripheral\i2s/cy_i2s.h **** * Returns the current I2S state (TX/RX running/paused/stopped).
 646:Generated_Source\PSoC6\pdl\drivers\peripheral\i2s/cy_i2s.h **** *
 647:Generated_Source\PSoC6\pdl\drivers\peripheral\i2s/cy_i2s.h **** * \param base The pointer to the I2S instance address.
 648:Generated_Source\PSoC6\pdl\drivers\peripheral\i2s/cy_i2s.h **** *
 649:Generated_Source\PSoC6\pdl\drivers\peripheral\i2s/cy_i2s.h **** * \return The current state \ref group_i2s_macros_current_state.
 650:Generated_Source\PSoC6\pdl\drivers\peripheral\i2s/cy_i2s.h **** *
 651:Generated_Source\PSoC6\pdl\drivers\peripheral\i2s/cy_i2s.h **** * \funcusage
 652:Generated_Source\PSoC6\pdl\drivers\peripheral\i2s/cy_i2s.h **** * \snippet i2s/i2s_v2_0_sut_00.cydsn/main_cm4.c snippet_Cy_I2S_GetCurrentState
 653:Generated_Source\PSoC6\pdl\drivers\peripheral\i2s/cy_i2s.h **** *
 654:Generated_Source\PSoC6\pdl\drivers\peripheral\i2s/cy_i2s.h **** *******************************************************************************/
 655:Generated_Source\PSoC6\pdl\drivers\peripheral\i2s/cy_i2s.h **** __STATIC_INLINE uint32_t Cy_I2S_GetCurrentState(I2S_Type const * base)
 656:Generated_Source\PSoC6\pdl\drivers\peripheral\i2s/cy_i2s.h **** {
 228              		.loc 1 656 0
 229              		.cfi_startproc
 230              		@ args = 0, pretend = 0, frame = 8
 231              		@ frame_needed = 1, uses_anonymous_args = 0
 232              		@ link register save eliminated.
 233 0000 80B4     		push	{r7}
 234              		.cfi_def_cfa_offset 4
 235              		.cfi_offset 7, -4
 236 0002 83B0     		sub	sp, sp, #12
 237              		.cfi_def_cfa_offset 16
 238 0004 00AF     		add	r7, sp, #0
 239              		.cfi_def_cfa_register 7
 240 0006 7860     		str	r0, [r7, #4]
 657:Generated_Source\PSoC6\pdl\drivers\peripheral\i2s/cy_i2s.h ****     return (base->CMD & (I2S_CMD_TX_START_Msk | I2S_CMD_TX_PAUSE_Msk | I2S_CMD_RX_START_Msk));
 241              		.loc 1 657 0
 242 0008 7B68     		ldr	r3, [r7, #4]
 243 000a 1B6A     		ldr	r3, [r3, #32]
 244 000c 03F00133 		and	r3, r3, #16843009
 245 0010 23F08073 		bic	r3, r3, #16777216
 658:Generated_Source\PSoC6\pdl\drivers\peripheral\i2s/cy_i2s.h **** }
 246              		.loc 1 658 0
 247 0014 1846     		mov	r0, r3
 248 0016 0C37     		adds	r7, r7, #12
 249              		.cfi_def_cfa_offset 4
 250 0018 BD46     		mov	sp, r7
 251              		.cfi_def_cfa_register 13
 252              		@ sp needed
 253 001a 5DF8047B 		ldr	r7, [sp], #4
 254              		.cfi_restore 7
ARM GAS  C:\Users\ikomb\AppData\Local\Temp\cchnbsea.s 			page 17


 255              		.cfi_def_cfa_offset 0
 256 001e 7047     		bx	lr
 257              		.cfi_endproc
 258              	.LFE164:
 259              		.size	Cy_I2S_GetCurrentState, .-Cy_I2S_GetCurrentState
 260              		.section	.text.Cy_I2S_ClearTxFifo,"ax",%progbits
 261              		.align	2
 262              		.thumb
 263              		.thumb_func
 264              		.type	Cy_I2S_ClearTxFifo, %function
 265              	Cy_I2S_ClearTxFifo:
 266              	.LFB165:
 659:Generated_Source\PSoC6\pdl\drivers\peripheral\i2s/cy_i2s.h **** 
 660:Generated_Source\PSoC6\pdl\drivers\peripheral\i2s/cy_i2s.h **** 
 661:Generated_Source\PSoC6\pdl\drivers\peripheral\i2s/cy_i2s.h **** /*******************************************************************************
 662:Generated_Source\PSoC6\pdl\drivers\peripheral\i2s/cy_i2s.h **** * Function Name: Cy_I2S_ClearTxFifo
 663:Generated_Source\PSoC6\pdl\drivers\peripheral\i2s/cy_i2s.h **** ****************************************************************************//**
 664:Generated_Source\PSoC6\pdl\drivers\peripheral\i2s/cy_i2s.h **** *
 665:Generated_Source\PSoC6\pdl\drivers\peripheral\i2s/cy_i2s.h **** * Clears the TX FIFO (resets the Read/Write FIFO pointers).
 666:Generated_Source\PSoC6\pdl\drivers\peripheral\i2s/cy_i2s.h **** *
 667:Generated_Source\PSoC6\pdl\drivers\peripheral\i2s/cy_i2s.h **** * \param base The pointer to the I2S instance address.
 668:Generated_Source\PSoC6\pdl\drivers\peripheral\i2s/cy_i2s.h **** *
 669:Generated_Source\PSoC6\pdl\drivers\peripheral\i2s/cy_i2s.h **** * \funcusage
 670:Generated_Source\PSoC6\pdl\drivers\peripheral\i2s/cy_i2s.h **** * \snippet i2s/i2s_v2_0_sut_00.cydsn/main_cm4.c snippet_Cy_I2S_ClearTxFifo
 671:Generated_Source\PSoC6\pdl\drivers\peripheral\i2s/cy_i2s.h **** *
 672:Generated_Source\PSoC6\pdl\drivers\peripheral\i2s/cy_i2s.h **** *******************************************************************************/
 673:Generated_Source\PSoC6\pdl\drivers\peripheral\i2s/cy_i2s.h **** __STATIC_INLINE void Cy_I2S_ClearTxFifo(I2S_Type * base)
 674:Generated_Source\PSoC6\pdl\drivers\peripheral\i2s/cy_i2s.h **** {
 267              		.loc 1 674 0
 268              		.cfi_startproc
 269              		@ args = 0, pretend = 0, frame = 8
 270              		@ frame_needed = 1, uses_anonymous_args = 0
 271              		@ link register save eliminated.
 272 0000 80B4     		push	{r7}
 273              		.cfi_def_cfa_offset 4
 274              		.cfi_offset 7, -4
 275 0002 83B0     		sub	sp, sp, #12
 276              		.cfi_def_cfa_offset 16
 277 0004 00AF     		add	r7, sp, #0
 278              		.cfi_def_cfa_register 7
 279 0006 7860     		str	r0, [r7, #4]
 675:Generated_Source\PSoC6\pdl\drivers\peripheral\i2s/cy_i2s.h ****     base->TX_FIFO_CTL |= I2S_TX_FIFO_CTL_CLEAR_Msk;
 280              		.loc 1 675 0
 281 0008 7B68     		ldr	r3, [r7, #4]
 282 000a D3F80032 		ldr	r3, [r3, #512]
 283 000e 43F48032 		orr	r2, r3, #65536
 284 0012 7B68     		ldr	r3, [r7, #4]
 285 0014 C3F80022 		str	r2, [r3, #512]
 676:Generated_Source\PSoC6\pdl\drivers\peripheral\i2s/cy_i2s.h ****     base->TX_FIFO_CTL &= (uint32_t) ~I2S_TX_FIFO_CTL_CLEAR_Msk;
 286              		.loc 1 676 0
 287 0018 7B68     		ldr	r3, [r7, #4]
 288 001a D3F80032 		ldr	r3, [r3, #512]
 289 001e 23F48032 		bic	r2, r3, #65536
 290 0022 7B68     		ldr	r3, [r7, #4]
 291 0024 C3F80022 		str	r2, [r3, #512]
 677:Generated_Source\PSoC6\pdl\drivers\peripheral\i2s/cy_i2s.h ****     (void) base->TX_FIFO_CTL;
 292              		.loc 1 677 0
ARM GAS  C:\Users\ikomb\AppData\Local\Temp\cchnbsea.s 			page 18


 293 0028 7B68     		ldr	r3, [r7, #4]
 294 002a D3F80032 		ldr	r3, [r3, #512]
 678:Generated_Source\PSoC6\pdl\drivers\peripheral\i2s/cy_i2s.h **** }
 295              		.loc 1 678 0
 296 002e 00BF     		nop
 297 0030 0C37     		adds	r7, r7, #12
 298              		.cfi_def_cfa_offset 4
 299 0032 BD46     		mov	sp, r7
 300              		.cfi_def_cfa_register 13
 301              		@ sp needed
 302 0034 5DF8047B 		ldr	r7, [sp], #4
 303              		.cfi_restore 7
 304              		.cfi_def_cfa_offset 0
 305 0038 7047     		bx	lr
 306              		.cfi_endproc
 307              	.LFE165:
 308              		.size	Cy_I2S_ClearTxFifo, .-Cy_I2S_ClearTxFifo
 309 003a 00BF     		.section	.text.Cy_I2S_WriteTxData,"ax",%progbits
 310              		.align	2
 311              		.thumb
 312              		.thumb_func
 313              		.type	Cy_I2S_WriteTxData, %function
 314              	Cy_I2S_WriteTxData:
 315              	.LFB167:
 679:Generated_Source\PSoC6\pdl\drivers\peripheral\i2s/cy_i2s.h **** 
 680:Generated_Source\PSoC6\pdl\drivers\peripheral\i2s/cy_i2s.h **** 
 681:Generated_Source\PSoC6\pdl\drivers\peripheral\i2s/cy_i2s.h **** /*******************************************************************************
 682:Generated_Source\PSoC6\pdl\drivers\peripheral\i2s/cy_i2s.h **** * Function Name: Cy_I2S_GetNumInTxFifo
 683:Generated_Source\PSoC6\pdl\drivers\peripheral\i2s/cy_i2s.h **** ****************************************************************************//**
 684:Generated_Source\PSoC6\pdl\drivers\peripheral\i2s/cy_i2s.h **** *
 685:Generated_Source\PSoC6\pdl\drivers\peripheral\i2s/cy_i2s.h **** * Gets the number of used words in the TX FIFO.
 686:Generated_Source\PSoC6\pdl\drivers\peripheral\i2s/cy_i2s.h **** *
 687:Generated_Source\PSoC6\pdl\drivers\peripheral\i2s/cy_i2s.h **** * \param base The pointer to the I2S instance address.
 688:Generated_Source\PSoC6\pdl\drivers\peripheral\i2s/cy_i2s.h **** *
 689:Generated_Source\PSoC6\pdl\drivers\peripheral\i2s/cy_i2s.h **** * \return The current number of used words in the TX FIFO.
 690:Generated_Source\PSoC6\pdl\drivers\peripheral\i2s/cy_i2s.h **** *
 691:Generated_Source\PSoC6\pdl\drivers\peripheral\i2s/cy_i2s.h **** * \funcusage
 692:Generated_Source\PSoC6\pdl\drivers\peripheral\i2s/cy_i2s.h **** * \snippet i2s/i2s_v2_0_sut_00.cydsn/main_cm4.c snippet_Cy_I2S_GetNumInTxFifo
 693:Generated_Source\PSoC6\pdl\drivers\peripheral\i2s/cy_i2s.h **** *
 694:Generated_Source\PSoC6\pdl\drivers\peripheral\i2s/cy_i2s.h **** *******************************************************************************/
 695:Generated_Source\PSoC6\pdl\drivers\peripheral\i2s/cy_i2s.h **** __STATIC_INLINE uint32_t Cy_I2S_GetNumInTxFifo(I2S_Type const * base)
 696:Generated_Source\PSoC6\pdl\drivers\peripheral\i2s/cy_i2s.h **** {   
 697:Generated_Source\PSoC6\pdl\drivers\peripheral\i2s/cy_i2s.h ****     return (_FLD2VAL(I2S_TX_FIFO_STATUS_USED, base->TX_FIFO_STATUS));
 698:Generated_Source\PSoC6\pdl\drivers\peripheral\i2s/cy_i2s.h **** }
 699:Generated_Source\PSoC6\pdl\drivers\peripheral\i2s/cy_i2s.h **** 
 700:Generated_Source\PSoC6\pdl\drivers\peripheral\i2s/cy_i2s.h **** 
 701:Generated_Source\PSoC6\pdl\drivers\peripheral\i2s/cy_i2s.h **** /*******************************************************************************
 702:Generated_Source\PSoC6\pdl\drivers\peripheral\i2s/cy_i2s.h **** * Function Name: Cy_I2S_WriteTxData
 703:Generated_Source\PSoC6\pdl\drivers\peripheral\i2s/cy_i2s.h **** ****************************************************************************//**
 704:Generated_Source\PSoC6\pdl\drivers\peripheral\i2s/cy_i2s.h **** *
 705:Generated_Source\PSoC6\pdl\drivers\peripheral\i2s/cy_i2s.h **** * Writes data to the TX FIFO. Increases the TX FIFO level.
 706:Generated_Source\PSoC6\pdl\drivers\peripheral\i2s/cy_i2s.h **** *
 707:Generated_Source\PSoC6\pdl\drivers\peripheral\i2s/cy_i2s.h **** * \param base The pointer to the I2S instance address.
 708:Generated_Source\PSoC6\pdl\drivers\peripheral\i2s/cy_i2s.h **** *
 709:Generated_Source\PSoC6\pdl\drivers\peripheral\i2s/cy_i2s.h **** * \param data Data to be written to the TX FIFO.
 710:Generated_Source\PSoC6\pdl\drivers\peripheral\i2s/cy_i2s.h **** *
 711:Generated_Source\PSoC6\pdl\drivers\peripheral\i2s/cy_i2s.h **** * \funcusage
ARM GAS  C:\Users\ikomb\AppData\Local\Temp\cchnbsea.s 			page 19


 712:Generated_Source\PSoC6\pdl\drivers\peripheral\i2s/cy_i2s.h **** * \snippet i2s/i2s_v2_0_sut_00.cydsn/main_cm4.c snippet_Cy_I2S_WriteTxData
 713:Generated_Source\PSoC6\pdl\drivers\peripheral\i2s/cy_i2s.h **** *
 714:Generated_Source\PSoC6\pdl\drivers\peripheral\i2s/cy_i2s.h **** *******************************************************************************/
 715:Generated_Source\PSoC6\pdl\drivers\peripheral\i2s/cy_i2s.h **** __STATIC_INLINE void Cy_I2S_WriteTxData(I2S_Type * base, uint32_t data)
 716:Generated_Source\PSoC6\pdl\drivers\peripheral\i2s/cy_i2s.h **** {
 316              		.loc 1 716 0
 317              		.cfi_startproc
 318              		@ args = 0, pretend = 0, frame = 8
 319              		@ frame_needed = 1, uses_anonymous_args = 0
 320              		@ link register save eliminated.
 321 0000 80B4     		push	{r7}
 322              		.cfi_def_cfa_offset 4
 323              		.cfi_offset 7, -4
 324 0002 83B0     		sub	sp, sp, #12
 325              		.cfi_def_cfa_offset 16
 326 0004 00AF     		add	r7, sp, #0
 327              		.cfi_def_cfa_register 7
 328 0006 7860     		str	r0, [r7, #4]
 329 0008 3960     		str	r1, [r7]
 717:Generated_Source\PSoC6\pdl\drivers\peripheral\i2s/cy_i2s.h ****     base->TX_FIFO_WR = data;
 330              		.loc 1 717 0
 331 000a 7B68     		ldr	r3, [r7, #4]
 332 000c 3A68     		ldr	r2, [r7]
 333 000e C3F80822 		str	r2, [r3, #520]
 718:Generated_Source\PSoC6\pdl\drivers\peripheral\i2s/cy_i2s.h **** }
 334              		.loc 1 718 0
 335 0012 00BF     		nop
 336 0014 0C37     		adds	r7, r7, #12
 337              		.cfi_def_cfa_offset 4
 338 0016 BD46     		mov	sp, r7
 339              		.cfi_def_cfa_register 13
 340              		@ sp needed
 341 0018 5DF8047B 		ldr	r7, [sp], #4
 342              		.cfi_restore 7
 343              		.cfi_def_cfa_offset 0
 344 001c 7047     		bx	lr
 345              		.cfi_endproc
 346              	.LFE167:
 347              		.size	Cy_I2S_WriteTxData, .-Cy_I2S_WriteTxData
 348 001e 00BF     		.section	.text.Cy_I2S_ClearRxFifo,"ax",%progbits
 349              		.align	2
 350              		.thumb
 351              		.thumb_func
 352              		.type	Cy_I2S_ClearRxFifo, %function
 353              	Cy_I2S_ClearRxFifo:
 354              	.LFB172:
 719:Generated_Source\PSoC6\pdl\drivers\peripheral\i2s/cy_i2s.h **** 
 720:Generated_Source\PSoC6\pdl\drivers\peripheral\i2s/cy_i2s.h **** 
 721:Generated_Source\PSoC6\pdl\drivers\peripheral\i2s/cy_i2s.h **** /*******************************************************************************
 722:Generated_Source\PSoC6\pdl\drivers\peripheral\i2s/cy_i2s.h **** * Function Name: Cy_I2S_GetTxReadPointer
 723:Generated_Source\PSoC6\pdl\drivers\peripheral\i2s/cy_i2s.h **** ****************************************************************************//**
 724:Generated_Source\PSoC6\pdl\drivers\peripheral\i2s/cy_i2s.h **** *
 725:Generated_Source\PSoC6\pdl\drivers\peripheral\i2s/cy_i2s.h **** * Gets the TX FIFO Read pointer. This function is rather for debug purposes.
 726:Generated_Source\PSoC6\pdl\drivers\peripheral\i2s/cy_i2s.h **** *
 727:Generated_Source\PSoC6\pdl\drivers\peripheral\i2s/cy_i2s.h **** * \param base The pointer to the I2S instance address.
 728:Generated_Source\PSoC6\pdl\drivers\peripheral\i2s/cy_i2s.h **** *
 729:Generated_Source\PSoC6\pdl\drivers\peripheral\i2s/cy_i2s.h **** * \return The current TX Read pointer value.
ARM GAS  C:\Users\ikomb\AppData\Local\Temp\cchnbsea.s 			page 20


 730:Generated_Source\PSoC6\pdl\drivers\peripheral\i2s/cy_i2s.h **** *
 731:Generated_Source\PSoC6\pdl\drivers\peripheral\i2s/cy_i2s.h **** * \funcusage
 732:Generated_Source\PSoC6\pdl\drivers\peripheral\i2s/cy_i2s.h **** * \snippet i2s/i2s_v2_0_sut_00.cydsn/main_cm4.c snippet_Cy_I2S_GetTxReadPointer
 733:Generated_Source\PSoC6\pdl\drivers\peripheral\i2s/cy_i2s.h **** *
 734:Generated_Source\PSoC6\pdl\drivers\peripheral\i2s/cy_i2s.h **** *******************************************************************************/
 735:Generated_Source\PSoC6\pdl\drivers\peripheral\i2s/cy_i2s.h **** __STATIC_INLINE uint8_t Cy_I2S_GetTxReadPointer(I2S_Type const * base)
 736:Generated_Source\PSoC6\pdl\drivers\peripheral\i2s/cy_i2s.h **** {
 737:Generated_Source\PSoC6\pdl\drivers\peripheral\i2s/cy_i2s.h ****     return ((uint8_t) _FLD2VAL(I2S_TX_FIFO_STATUS_RD_PTR, base->TX_FIFO_STATUS));
 738:Generated_Source\PSoC6\pdl\drivers\peripheral\i2s/cy_i2s.h **** }
 739:Generated_Source\PSoC6\pdl\drivers\peripheral\i2s/cy_i2s.h **** 
 740:Generated_Source\PSoC6\pdl\drivers\peripheral\i2s/cy_i2s.h **** 
 741:Generated_Source\PSoC6\pdl\drivers\peripheral\i2s/cy_i2s.h **** /*******************************************************************************
 742:Generated_Source\PSoC6\pdl\drivers\peripheral\i2s/cy_i2s.h **** * Function Name: Cy_I2S_GetTxWritePointer
 743:Generated_Source\PSoC6\pdl\drivers\peripheral\i2s/cy_i2s.h **** ****************************************************************************//**
 744:Generated_Source\PSoC6\pdl\drivers\peripheral\i2s/cy_i2s.h **** *
 745:Generated_Source\PSoC6\pdl\drivers\peripheral\i2s/cy_i2s.h **** * Gets the TX FIFO Write pointer. This function is rather for debug purposes.
 746:Generated_Source\PSoC6\pdl\drivers\peripheral\i2s/cy_i2s.h **** *
 747:Generated_Source\PSoC6\pdl\drivers\peripheral\i2s/cy_i2s.h **** * \param base The pointer to the I2S instance address.
 748:Generated_Source\PSoC6\pdl\drivers\peripheral\i2s/cy_i2s.h **** *
 749:Generated_Source\PSoC6\pdl\drivers\peripheral\i2s/cy_i2s.h **** * \return The current TX Write pointer value.
 750:Generated_Source\PSoC6\pdl\drivers\peripheral\i2s/cy_i2s.h **** *
 751:Generated_Source\PSoC6\pdl\drivers\peripheral\i2s/cy_i2s.h **** * \funcusage
 752:Generated_Source\PSoC6\pdl\drivers\peripheral\i2s/cy_i2s.h **** * \snippet i2s/i2s_v2_0_sut_00.cydsn/main_cm4.c snippet_Cy_I2S_GetTxWritePointer
 753:Generated_Source\PSoC6\pdl\drivers\peripheral\i2s/cy_i2s.h **** *
 754:Generated_Source\PSoC6\pdl\drivers\peripheral\i2s/cy_i2s.h **** *******************************************************************************/
 755:Generated_Source\PSoC6\pdl\drivers\peripheral\i2s/cy_i2s.h **** __STATIC_INLINE uint8_t Cy_I2S_GetTxWritePointer(I2S_Type const * base)
 756:Generated_Source\PSoC6\pdl\drivers\peripheral\i2s/cy_i2s.h **** {
 757:Generated_Source\PSoC6\pdl\drivers\peripheral\i2s/cy_i2s.h ****     return ((uint8_t) _FLD2VAL(I2S_TX_FIFO_STATUS_WR_PTR, base->TX_FIFO_STATUS));
 758:Generated_Source\PSoC6\pdl\drivers\peripheral\i2s/cy_i2s.h **** }
 759:Generated_Source\PSoC6\pdl\drivers\peripheral\i2s/cy_i2s.h **** 
 760:Generated_Source\PSoC6\pdl\drivers\peripheral\i2s/cy_i2s.h **** 
 761:Generated_Source\PSoC6\pdl\drivers\peripheral\i2s/cy_i2s.h **** /*******************************************************************************
 762:Generated_Source\PSoC6\pdl\drivers\peripheral\i2s/cy_i2s.h **** * Function Name: Cy_I2S_FreezeTxFifo
 763:Generated_Source\PSoC6\pdl\drivers\peripheral\i2s/cy_i2s.h **** ****************************************************************************//**
 764:Generated_Source\PSoC6\pdl\drivers\peripheral\i2s/cy_i2s.h **** *
 765:Generated_Source\PSoC6\pdl\drivers\peripheral\i2s/cy_i2s.h **** * Freezes the TX FIFO. This function is rather for debug purposes.
 766:Generated_Source\PSoC6\pdl\drivers\peripheral\i2s/cy_i2s.h **** *
 767:Generated_Source\PSoC6\pdl\drivers\peripheral\i2s/cy_i2s.h **** * \param base The pointer to the I2S instance address.
 768:Generated_Source\PSoC6\pdl\drivers\peripheral\i2s/cy_i2s.h **** *
 769:Generated_Source\PSoC6\pdl\drivers\peripheral\i2s/cy_i2s.h **** * \funcusage
 770:Generated_Source\PSoC6\pdl\drivers\peripheral\i2s/cy_i2s.h **** * \snippet i2s/i2s_v2_0_sut_00.cydsn/main_cm4.c snippet_Cy_I2S_FreezeTxFifo
 771:Generated_Source\PSoC6\pdl\drivers\peripheral\i2s/cy_i2s.h **** *
 772:Generated_Source\PSoC6\pdl\drivers\peripheral\i2s/cy_i2s.h **** *******************************************************************************/
 773:Generated_Source\PSoC6\pdl\drivers\peripheral\i2s/cy_i2s.h **** __STATIC_INLINE void Cy_I2S_FreezeTxFifo(I2S_Type * base)
 774:Generated_Source\PSoC6\pdl\drivers\peripheral\i2s/cy_i2s.h **** {
 775:Generated_Source\PSoC6\pdl\drivers\peripheral\i2s/cy_i2s.h ****     base->TX_FIFO_CTL |= I2S_TX_FIFO_CTL_FREEZE_Msk;
 776:Generated_Source\PSoC6\pdl\drivers\peripheral\i2s/cy_i2s.h **** }
 777:Generated_Source\PSoC6\pdl\drivers\peripheral\i2s/cy_i2s.h **** 
 778:Generated_Source\PSoC6\pdl\drivers\peripheral\i2s/cy_i2s.h **** 
 779:Generated_Source\PSoC6\pdl\drivers\peripheral\i2s/cy_i2s.h **** /*******************************************************************************
 780:Generated_Source\PSoC6\pdl\drivers\peripheral\i2s/cy_i2s.h **** * Function Name: Cy_I2S_UnfreezeTxFifo
 781:Generated_Source\PSoC6\pdl\drivers\peripheral\i2s/cy_i2s.h **** ****************************************************************************//**
 782:Generated_Source\PSoC6\pdl\drivers\peripheral\i2s/cy_i2s.h **** *
 783:Generated_Source\PSoC6\pdl\drivers\peripheral\i2s/cy_i2s.h **** * Unfreezes the TX FIFO. This function is rather for debug purposes.
 784:Generated_Source\PSoC6\pdl\drivers\peripheral\i2s/cy_i2s.h **** *
 785:Generated_Source\PSoC6\pdl\drivers\peripheral\i2s/cy_i2s.h **** * \param base The pointer to the I2S instance address.
 786:Generated_Source\PSoC6\pdl\drivers\peripheral\i2s/cy_i2s.h **** *
ARM GAS  C:\Users\ikomb\AppData\Local\Temp\cchnbsea.s 			page 21


 787:Generated_Source\PSoC6\pdl\drivers\peripheral\i2s/cy_i2s.h **** * \funcusage
 788:Generated_Source\PSoC6\pdl\drivers\peripheral\i2s/cy_i2s.h **** * \snippet i2s/i2s_v2_0_sut_00.cydsn/main_cm4.c snippet_Cy_I2S_UnfreezeTxFifo
 789:Generated_Source\PSoC6\pdl\drivers\peripheral\i2s/cy_i2s.h **** *
 790:Generated_Source\PSoC6\pdl\drivers\peripheral\i2s/cy_i2s.h **** *******************************************************************************/
 791:Generated_Source\PSoC6\pdl\drivers\peripheral\i2s/cy_i2s.h **** __STATIC_INLINE void Cy_I2S_UnfreezeTxFifo(I2S_Type * base)
 792:Generated_Source\PSoC6\pdl\drivers\peripheral\i2s/cy_i2s.h **** {
 793:Generated_Source\PSoC6\pdl\drivers\peripheral\i2s/cy_i2s.h ****     base->TX_FIFO_CTL &= (uint32_t) ~I2S_TX_FIFO_CTL_FREEZE_Msk;
 794:Generated_Source\PSoC6\pdl\drivers\peripheral\i2s/cy_i2s.h **** }
 795:Generated_Source\PSoC6\pdl\drivers\peripheral\i2s/cy_i2s.h **** 
 796:Generated_Source\PSoC6\pdl\drivers\peripheral\i2s/cy_i2s.h **** 
 797:Generated_Source\PSoC6\pdl\drivers\peripheral\i2s/cy_i2s.h **** /*******************************************************************************
 798:Generated_Source\PSoC6\pdl\drivers\peripheral\i2s/cy_i2s.h **** * Function Name: Cy_I2S_ClearRxFifo
 799:Generated_Source\PSoC6\pdl\drivers\peripheral\i2s/cy_i2s.h **** ****************************************************************************//**
 800:Generated_Source\PSoC6\pdl\drivers\peripheral\i2s/cy_i2s.h **** *
 801:Generated_Source\PSoC6\pdl\drivers\peripheral\i2s/cy_i2s.h **** * Clears the RX FIFO (resets the Read/Write FIFO pointers).
 802:Generated_Source\PSoC6\pdl\drivers\peripheral\i2s/cy_i2s.h **** *
 803:Generated_Source\PSoC6\pdl\drivers\peripheral\i2s/cy_i2s.h **** * \param base The pointer to the I2S instance address.
 804:Generated_Source\PSoC6\pdl\drivers\peripheral\i2s/cy_i2s.h **** *
 805:Generated_Source\PSoC6\pdl\drivers\peripheral\i2s/cy_i2s.h **** * \funcusage
 806:Generated_Source\PSoC6\pdl\drivers\peripheral\i2s/cy_i2s.h **** * \snippet i2s/i2s_v2_0_sut_00.cydsn/main_cm4.c snippet_Cy_I2S_ClearRxFifo
 807:Generated_Source\PSoC6\pdl\drivers\peripheral\i2s/cy_i2s.h **** *
 808:Generated_Source\PSoC6\pdl\drivers\peripheral\i2s/cy_i2s.h **** *******************************************************************************/
 809:Generated_Source\PSoC6\pdl\drivers\peripheral\i2s/cy_i2s.h **** __STATIC_INLINE void Cy_I2S_ClearRxFifo(I2S_Type * base)
 810:Generated_Source\PSoC6\pdl\drivers\peripheral\i2s/cy_i2s.h **** {
 355              		.loc 1 810 0
 356              		.cfi_startproc
 357              		@ args = 0, pretend = 0, frame = 8
 358              		@ frame_needed = 1, uses_anonymous_args = 0
 359              		@ link register save eliminated.
 360 0000 80B4     		push	{r7}
 361              		.cfi_def_cfa_offset 4
 362              		.cfi_offset 7, -4
 363 0002 83B0     		sub	sp, sp, #12
 364              		.cfi_def_cfa_offset 16
 365 0004 00AF     		add	r7, sp, #0
 366              		.cfi_def_cfa_register 7
 367 0006 7860     		str	r0, [r7, #4]
 811:Generated_Source\PSoC6\pdl\drivers\peripheral\i2s/cy_i2s.h ****     base->RX_FIFO_CTL |= I2S_RX_FIFO_CTL_CLEAR_Msk;
 368              		.loc 1 811 0
 369 0008 7B68     		ldr	r3, [r7, #4]
 370 000a D3F80033 		ldr	r3, [r3, #768]
 371 000e 43F48032 		orr	r2, r3, #65536
 372 0012 7B68     		ldr	r3, [r7, #4]
 373 0014 C3F80023 		str	r2, [r3, #768]
 812:Generated_Source\PSoC6\pdl\drivers\peripheral\i2s/cy_i2s.h ****     base->RX_FIFO_CTL &= (uint32_t) ~I2S_RX_FIFO_CTL_CLEAR_Msk;
 374              		.loc 1 812 0
 375 0018 7B68     		ldr	r3, [r7, #4]
 376 001a D3F80033 		ldr	r3, [r3, #768]
 377 001e 23F48032 		bic	r2, r3, #65536
 378 0022 7B68     		ldr	r3, [r7, #4]
 379 0024 C3F80023 		str	r2, [r3, #768]
 813:Generated_Source\PSoC6\pdl\drivers\peripheral\i2s/cy_i2s.h ****     (void) base->RX_FIFO_CTL;
 380              		.loc 1 813 0
 381 0028 7B68     		ldr	r3, [r7, #4]
 382 002a D3F80033 		ldr	r3, [r3, #768]
 814:Generated_Source\PSoC6\pdl\drivers\peripheral\i2s/cy_i2s.h **** }
 383              		.loc 1 814 0
ARM GAS  C:\Users\ikomb\AppData\Local\Temp\cchnbsea.s 			page 22


 384 002e 00BF     		nop
 385 0030 0C37     		adds	r7, r7, #12
 386              		.cfi_def_cfa_offset 4
 387 0032 BD46     		mov	sp, r7
 388              		.cfi_def_cfa_register 13
 389              		@ sp needed
 390 0034 5DF8047B 		ldr	r7, [sp], #4
 391              		.cfi_restore 7
 392              		.cfi_def_cfa_offset 0
 393 0038 7047     		bx	lr
 394              		.cfi_endproc
 395              	.LFE172:
 396              		.size	Cy_I2S_ClearRxFifo, .-Cy_I2S_ClearRxFifo
 397 003a 00BF     		.section	.rodata
 398              		.align	2
 399              	.LC0:
 400 0000 47656E65 		.ascii	"Generated_Source\\PSoC6\\pdl\\drivers\\peripheral\\"
 400      72617465 
 400      645F536F 
 400      75726365 
 400      5C50536F 
 401 002e 6932735C 		.ascii	"i2s\\cy_i2s.h\000"
 401      63795F69 
 401      32732E68 
 401      00
 402              		.section	.text.Cy_I2S_ClearInterrupt,"ax",%progbits
 403              		.align	2
 404              		.thumb
 405              		.thumb_func
 406              		.type	Cy_I2S_ClearInterrupt, %function
 407              	Cy_I2S_ClearInterrupt:
 408              	.LFB181:
 815:Generated_Source\PSoC6\pdl\drivers\peripheral\i2s/cy_i2s.h **** 
 816:Generated_Source\PSoC6\pdl\drivers\peripheral\i2s/cy_i2s.h **** 
 817:Generated_Source\PSoC6\pdl\drivers\peripheral\i2s/cy_i2s.h **** /*******************************************************************************
 818:Generated_Source\PSoC6\pdl\drivers\peripheral\i2s/cy_i2s.h **** * Function Name: Cy_I2S_GetNumInRxFifo
 819:Generated_Source\PSoC6\pdl\drivers\peripheral\i2s/cy_i2s.h **** ****************************************************************************//**
 820:Generated_Source\PSoC6\pdl\drivers\peripheral\i2s/cy_i2s.h **** *
 821:Generated_Source\PSoC6\pdl\drivers\peripheral\i2s/cy_i2s.h **** * Gets the number of used words in the RX FIFO.
 822:Generated_Source\PSoC6\pdl\drivers\peripheral\i2s/cy_i2s.h **** *
 823:Generated_Source\PSoC6\pdl\drivers\peripheral\i2s/cy_i2s.h **** * \param base The pointer to the I2S instance address.
 824:Generated_Source\PSoC6\pdl\drivers\peripheral\i2s/cy_i2s.h **** *
 825:Generated_Source\PSoC6\pdl\drivers\peripheral\i2s/cy_i2s.h **** * \return The current number of used words in rge RX FIFO.
 826:Generated_Source\PSoC6\pdl\drivers\peripheral\i2s/cy_i2s.h **** *
 827:Generated_Source\PSoC6\pdl\drivers\peripheral\i2s/cy_i2s.h **** * \funcusage
 828:Generated_Source\PSoC6\pdl\drivers\peripheral\i2s/cy_i2s.h **** * \snippet i2s/i2s_v2_0_sut_00.cydsn/main_cm4.c snippet_Cy_I2S_GetNumInRxFifo
 829:Generated_Source\PSoC6\pdl\drivers\peripheral\i2s/cy_i2s.h **** *
 830:Generated_Source\PSoC6\pdl\drivers\peripheral\i2s/cy_i2s.h **** *******************************************************************************/
 831:Generated_Source\PSoC6\pdl\drivers\peripheral\i2s/cy_i2s.h **** __STATIC_INLINE uint32_t Cy_I2S_GetNumInRxFifo(I2S_Type const * base)
 832:Generated_Source\PSoC6\pdl\drivers\peripheral\i2s/cy_i2s.h **** {
 833:Generated_Source\PSoC6\pdl\drivers\peripheral\i2s/cy_i2s.h ****     return (_FLD2VAL(I2S_RX_FIFO_STATUS_USED, base->RX_FIFO_STATUS));
 834:Generated_Source\PSoC6\pdl\drivers\peripheral\i2s/cy_i2s.h **** }
 835:Generated_Source\PSoC6\pdl\drivers\peripheral\i2s/cy_i2s.h **** 
 836:Generated_Source\PSoC6\pdl\drivers\peripheral\i2s/cy_i2s.h **** 
 837:Generated_Source\PSoC6\pdl\drivers\peripheral\i2s/cy_i2s.h **** /*******************************************************************************
 838:Generated_Source\PSoC6\pdl\drivers\peripheral\i2s/cy_i2s.h **** * Function Name: Cy_I2S_ReadRxData
 839:Generated_Source\PSoC6\pdl\drivers\peripheral\i2s/cy_i2s.h **** ****************************************************************************//**
ARM GAS  C:\Users\ikomb\AppData\Local\Temp\cchnbsea.s 			page 23


 840:Generated_Source\PSoC6\pdl\drivers\peripheral\i2s/cy_i2s.h **** *
 841:Generated_Source\PSoC6\pdl\drivers\peripheral\i2s/cy_i2s.h **** * Reads data from the RX FIFO. Decreases the RX FIFO level.
 842:Generated_Source\PSoC6\pdl\drivers\peripheral\i2s/cy_i2s.h **** *
 843:Generated_Source\PSoC6\pdl\drivers\peripheral\i2s/cy_i2s.h **** * \param base The pointer to the I2S instance address.
 844:Generated_Source\PSoC6\pdl\drivers\peripheral\i2s/cy_i2s.h **** *
 845:Generated_Source\PSoC6\pdl\drivers\peripheral\i2s/cy_i2s.h **** * \return The read data.
 846:Generated_Source\PSoC6\pdl\drivers\peripheral\i2s/cy_i2s.h **** *
 847:Generated_Source\PSoC6\pdl\drivers\peripheral\i2s/cy_i2s.h **** * \funcusage
 848:Generated_Source\PSoC6\pdl\drivers\peripheral\i2s/cy_i2s.h **** * \snippet i2s/i2s_v2_0_sut_00.cydsn/main_cm4.c snippet_Cy_I2S_ReadRxData
 849:Generated_Source\PSoC6\pdl\drivers\peripheral\i2s/cy_i2s.h **** *
 850:Generated_Source\PSoC6\pdl\drivers\peripheral\i2s/cy_i2s.h **** *******************************************************************************/
 851:Generated_Source\PSoC6\pdl\drivers\peripheral\i2s/cy_i2s.h **** __STATIC_INLINE uint32_t Cy_I2S_ReadRxData(I2S_Type const * base)
 852:Generated_Source\PSoC6\pdl\drivers\peripheral\i2s/cy_i2s.h **** {
 853:Generated_Source\PSoC6\pdl\drivers\peripheral\i2s/cy_i2s.h ****     return (base->RX_FIFO_RD);
 854:Generated_Source\PSoC6\pdl\drivers\peripheral\i2s/cy_i2s.h **** }
 855:Generated_Source\PSoC6\pdl\drivers\peripheral\i2s/cy_i2s.h **** 
 856:Generated_Source\PSoC6\pdl\drivers\peripheral\i2s/cy_i2s.h **** 
 857:Generated_Source\PSoC6\pdl\drivers\peripheral\i2s/cy_i2s.h **** /*******************************************************************************
 858:Generated_Source\PSoC6\pdl\drivers\peripheral\i2s/cy_i2s.h **** * Function Name: Cy_I2S_ReadRxDataSilent
 859:Generated_Source\PSoC6\pdl\drivers\peripheral\i2s/cy_i2s.h **** ****************************************************************************//**
 860:Generated_Source\PSoC6\pdl\drivers\peripheral\i2s/cy_i2s.h **** *
 861:Generated_Source\PSoC6\pdl\drivers\peripheral\i2s/cy_i2s.h **** * Reads data from the RX FIFO without updating the RX FIFO read pointer.
 862:Generated_Source\PSoC6\pdl\drivers\peripheral\i2s/cy_i2s.h **** * This function is rather for debug purposes.
 863:Generated_Source\PSoC6\pdl\drivers\peripheral\i2s/cy_i2s.h **** *
 864:Generated_Source\PSoC6\pdl\drivers\peripheral\i2s/cy_i2s.h **** * \param base The pointer to the I2S instance address.
 865:Generated_Source\PSoC6\pdl\drivers\peripheral\i2s/cy_i2s.h **** *
 866:Generated_Source\PSoC6\pdl\drivers\peripheral\i2s/cy_i2s.h **** * \return The read data.
 867:Generated_Source\PSoC6\pdl\drivers\peripheral\i2s/cy_i2s.h **** *
 868:Generated_Source\PSoC6\pdl\drivers\peripheral\i2s/cy_i2s.h **** * \funcusage
 869:Generated_Source\PSoC6\pdl\drivers\peripheral\i2s/cy_i2s.h **** * \snippet i2s/i2s_v2_0_sut_00.cydsn/main_cm4.c snippet_Cy_I2S_ReadRxDataSilent
 870:Generated_Source\PSoC6\pdl\drivers\peripheral\i2s/cy_i2s.h **** *
 871:Generated_Source\PSoC6\pdl\drivers\peripheral\i2s/cy_i2s.h **** *******************************************************************************/
 872:Generated_Source\PSoC6\pdl\drivers\peripheral\i2s/cy_i2s.h **** __STATIC_INLINE uint32_t Cy_I2S_ReadRxDataSilent(I2S_Type const * base)
 873:Generated_Source\PSoC6\pdl\drivers\peripheral\i2s/cy_i2s.h **** {
 874:Generated_Source\PSoC6\pdl\drivers\peripheral\i2s/cy_i2s.h ****     return (base->RX_FIFO_RD_SILENT);
 875:Generated_Source\PSoC6\pdl\drivers\peripheral\i2s/cy_i2s.h **** }
 876:Generated_Source\PSoC6\pdl\drivers\peripheral\i2s/cy_i2s.h **** 
 877:Generated_Source\PSoC6\pdl\drivers\peripheral\i2s/cy_i2s.h **** 
 878:Generated_Source\PSoC6\pdl\drivers\peripheral\i2s/cy_i2s.h **** /*******************************************************************************
 879:Generated_Source\PSoC6\pdl\drivers\peripheral\i2s/cy_i2s.h **** * Function Name: Cy_I2S_GetRxReadPointer
 880:Generated_Source\PSoC6\pdl\drivers\peripheral\i2s/cy_i2s.h **** ****************************************************************************//**
 881:Generated_Source\PSoC6\pdl\drivers\peripheral\i2s/cy_i2s.h **** *
 882:Generated_Source\PSoC6\pdl\drivers\peripheral\i2s/cy_i2s.h **** * Gets the RX FIFO Read pointer. This function is rather for debug purposes.
 883:Generated_Source\PSoC6\pdl\drivers\peripheral\i2s/cy_i2s.h **** *
 884:Generated_Source\PSoC6\pdl\drivers\peripheral\i2s/cy_i2s.h **** * \param base The pointer to the I2S instance address.
 885:Generated_Source\PSoC6\pdl\drivers\peripheral\i2s/cy_i2s.h **** *
 886:Generated_Source\PSoC6\pdl\drivers\peripheral\i2s/cy_i2s.h **** * \return The current RX Read pointer value.
 887:Generated_Source\PSoC6\pdl\drivers\peripheral\i2s/cy_i2s.h **** *
 888:Generated_Source\PSoC6\pdl\drivers\peripheral\i2s/cy_i2s.h **** * \funcusage
 889:Generated_Source\PSoC6\pdl\drivers\peripheral\i2s/cy_i2s.h **** * \snippet i2s/i2s_v2_0_sut_00.cydsn/main_cm4.c snippet_Cy_I2S_GetRxReadPointer
 890:Generated_Source\PSoC6\pdl\drivers\peripheral\i2s/cy_i2s.h **** *
 891:Generated_Source\PSoC6\pdl\drivers\peripheral\i2s/cy_i2s.h **** *******************************************************************************/
 892:Generated_Source\PSoC6\pdl\drivers\peripheral\i2s/cy_i2s.h **** __STATIC_INLINE uint8_t Cy_I2S_GetRxReadPointer(I2S_Type const * base)
 893:Generated_Source\PSoC6\pdl\drivers\peripheral\i2s/cy_i2s.h **** {
 894:Generated_Source\PSoC6\pdl\drivers\peripheral\i2s/cy_i2s.h ****     return ((uint8_t) _FLD2VAL(I2S_RX_FIFO_STATUS_RD_PTR, base->RX_FIFO_STATUS));
 895:Generated_Source\PSoC6\pdl\drivers\peripheral\i2s/cy_i2s.h **** }
 896:Generated_Source\PSoC6\pdl\drivers\peripheral\i2s/cy_i2s.h **** 
ARM GAS  C:\Users\ikomb\AppData\Local\Temp\cchnbsea.s 			page 24


 897:Generated_Source\PSoC6\pdl\drivers\peripheral\i2s/cy_i2s.h **** 
 898:Generated_Source\PSoC6\pdl\drivers\peripheral\i2s/cy_i2s.h **** /*******************************************************************************
 899:Generated_Source\PSoC6\pdl\drivers\peripheral\i2s/cy_i2s.h **** * Function Name: Cy_I2S_GetRxWritePointer
 900:Generated_Source\PSoC6\pdl\drivers\peripheral\i2s/cy_i2s.h **** ****************************************************************************//**
 901:Generated_Source\PSoC6\pdl\drivers\peripheral\i2s/cy_i2s.h **** *
 902:Generated_Source\PSoC6\pdl\drivers\peripheral\i2s/cy_i2s.h **** * Gets the RX FIFO Write pointer. This function is rather for debug purposes.
 903:Generated_Source\PSoC6\pdl\drivers\peripheral\i2s/cy_i2s.h **** *
 904:Generated_Source\PSoC6\pdl\drivers\peripheral\i2s/cy_i2s.h **** * \param base The pointer to the I2S instance address.
 905:Generated_Source\PSoC6\pdl\drivers\peripheral\i2s/cy_i2s.h **** *
 906:Generated_Source\PSoC6\pdl\drivers\peripheral\i2s/cy_i2s.h **** * \return The current RX Write pointer value.
 907:Generated_Source\PSoC6\pdl\drivers\peripheral\i2s/cy_i2s.h **** *
 908:Generated_Source\PSoC6\pdl\drivers\peripheral\i2s/cy_i2s.h **** * \funcusage
 909:Generated_Source\PSoC6\pdl\drivers\peripheral\i2s/cy_i2s.h **** * \snippet i2s/i2s_v2_0_sut_00.cydsn/main_cm4.c snippet_Cy_I2S_GetRxWritePointer
 910:Generated_Source\PSoC6\pdl\drivers\peripheral\i2s/cy_i2s.h **** *
 911:Generated_Source\PSoC6\pdl\drivers\peripheral\i2s/cy_i2s.h **** *******************************************************************************/
 912:Generated_Source\PSoC6\pdl\drivers\peripheral\i2s/cy_i2s.h **** __STATIC_INLINE uint8_t Cy_I2S_GetRxWritePointer(I2S_Type const * base)
 913:Generated_Source\PSoC6\pdl\drivers\peripheral\i2s/cy_i2s.h **** {
 914:Generated_Source\PSoC6\pdl\drivers\peripheral\i2s/cy_i2s.h ****     return ((uint8_t) _FLD2VAL(I2S_RX_FIFO_STATUS_WR_PTR, base->RX_FIFO_STATUS));
 915:Generated_Source\PSoC6\pdl\drivers\peripheral\i2s/cy_i2s.h **** }
 916:Generated_Source\PSoC6\pdl\drivers\peripheral\i2s/cy_i2s.h **** 
 917:Generated_Source\PSoC6\pdl\drivers\peripheral\i2s/cy_i2s.h **** 
 918:Generated_Source\PSoC6\pdl\drivers\peripheral\i2s/cy_i2s.h **** /*******************************************************************************
 919:Generated_Source\PSoC6\pdl\drivers\peripheral\i2s/cy_i2s.h **** * Function Name: Cy_I2S_FreezeRxFifo
 920:Generated_Source\PSoC6\pdl\drivers\peripheral\i2s/cy_i2s.h **** ****************************************************************************//**
 921:Generated_Source\PSoC6\pdl\drivers\peripheral\i2s/cy_i2s.h **** *
 922:Generated_Source\PSoC6\pdl\drivers\peripheral\i2s/cy_i2s.h **** * Freezes the RX FIFO. This function is rather for debug purposes.
 923:Generated_Source\PSoC6\pdl\drivers\peripheral\i2s/cy_i2s.h **** *
 924:Generated_Source\PSoC6\pdl\drivers\peripheral\i2s/cy_i2s.h **** * \param base The pointer to the I2S instance address.
 925:Generated_Source\PSoC6\pdl\drivers\peripheral\i2s/cy_i2s.h **** *
 926:Generated_Source\PSoC6\pdl\drivers\peripheral\i2s/cy_i2s.h **** * \funcusage
 927:Generated_Source\PSoC6\pdl\drivers\peripheral\i2s/cy_i2s.h **** * \snippet i2s/i2s_v2_0_sut_00.cydsn/main_cm4.c snippet_Cy_I2S_FreezeRxFifo
 928:Generated_Source\PSoC6\pdl\drivers\peripheral\i2s/cy_i2s.h **** *
 929:Generated_Source\PSoC6\pdl\drivers\peripheral\i2s/cy_i2s.h **** *******************************************************************************/
 930:Generated_Source\PSoC6\pdl\drivers\peripheral\i2s/cy_i2s.h **** __STATIC_INLINE void Cy_I2S_FreezeRxFifo(I2S_Type * base)
 931:Generated_Source\PSoC6\pdl\drivers\peripheral\i2s/cy_i2s.h **** {
 932:Generated_Source\PSoC6\pdl\drivers\peripheral\i2s/cy_i2s.h ****     base->RX_FIFO_CTL |= I2S_RX_FIFO_CTL_FREEZE_Msk;
 933:Generated_Source\PSoC6\pdl\drivers\peripheral\i2s/cy_i2s.h **** }
 934:Generated_Source\PSoC6\pdl\drivers\peripheral\i2s/cy_i2s.h **** 
 935:Generated_Source\PSoC6\pdl\drivers\peripheral\i2s/cy_i2s.h **** 
 936:Generated_Source\PSoC6\pdl\drivers\peripheral\i2s/cy_i2s.h **** /*******************************************************************************
 937:Generated_Source\PSoC6\pdl\drivers\peripheral\i2s/cy_i2s.h **** * Function Name: Cy_I2S_UnfreezeRxFifo
 938:Generated_Source\PSoC6\pdl\drivers\peripheral\i2s/cy_i2s.h **** ****************************************************************************//**
 939:Generated_Source\PSoC6\pdl\drivers\peripheral\i2s/cy_i2s.h **** *
 940:Generated_Source\PSoC6\pdl\drivers\peripheral\i2s/cy_i2s.h **** * Unfreezes the RX FIFO. This function is rather for debug purposes.
 941:Generated_Source\PSoC6\pdl\drivers\peripheral\i2s/cy_i2s.h **** *
 942:Generated_Source\PSoC6\pdl\drivers\peripheral\i2s/cy_i2s.h **** * \param base The pointer to the I2S instance address.
 943:Generated_Source\PSoC6\pdl\drivers\peripheral\i2s/cy_i2s.h **** *
 944:Generated_Source\PSoC6\pdl\drivers\peripheral\i2s/cy_i2s.h **** * \funcusage
 945:Generated_Source\PSoC6\pdl\drivers\peripheral\i2s/cy_i2s.h **** * \snippet i2s/i2s_v2_0_sut_00.cydsn/main_cm4.c snippet_Cy_I2S_UnfreezeRxFifo
 946:Generated_Source\PSoC6\pdl\drivers\peripheral\i2s/cy_i2s.h **** *
 947:Generated_Source\PSoC6\pdl\drivers\peripheral\i2s/cy_i2s.h **** *******************************************************************************/
 948:Generated_Source\PSoC6\pdl\drivers\peripheral\i2s/cy_i2s.h **** __STATIC_INLINE void Cy_I2S_UnfreezeRxFifo(I2S_Type * base)
 949:Generated_Source\PSoC6\pdl\drivers\peripheral\i2s/cy_i2s.h **** {
 950:Generated_Source\PSoC6\pdl\drivers\peripheral\i2s/cy_i2s.h ****     base->RX_FIFO_CTL &= (uint32_t) ~I2S_RX_FIFO_CTL_FREEZE_Msk;
 951:Generated_Source\PSoC6\pdl\drivers\peripheral\i2s/cy_i2s.h **** }
 952:Generated_Source\PSoC6\pdl\drivers\peripheral\i2s/cy_i2s.h **** 
 953:Generated_Source\PSoC6\pdl\drivers\peripheral\i2s/cy_i2s.h **** 
ARM GAS  C:\Users\ikomb\AppData\Local\Temp\cchnbsea.s 			page 25


 954:Generated_Source\PSoC6\pdl\drivers\peripheral\i2s/cy_i2s.h **** /*******************************************************************************
 955:Generated_Source\PSoC6\pdl\drivers\peripheral\i2s/cy_i2s.h **** * Function Name: Cy_I2S_GetInterruptStatus
 956:Generated_Source\PSoC6\pdl\drivers\peripheral\i2s/cy_i2s.h **** ****************************************************************************//**
 957:Generated_Source\PSoC6\pdl\drivers\peripheral\i2s/cy_i2s.h **** *
 958:Generated_Source\PSoC6\pdl\drivers\peripheral\i2s/cy_i2s.h **** * Gets an interrupt status (returns a content of the INTR register).
 959:Generated_Source\PSoC6\pdl\drivers\peripheral\i2s/cy_i2s.h **** *
 960:Generated_Source\PSoC6\pdl\drivers\peripheral\i2s/cy_i2s.h **** * \param base The pointer to the I2S instance address.
 961:Generated_Source\PSoC6\pdl\drivers\peripheral\i2s/cy_i2s.h **** *
 962:Generated_Source\PSoC6\pdl\drivers\peripheral\i2s/cy_i2s.h **** * \return The interrupt bit mask \ref group_i2s_macros_intrerrupt_masks.
 963:Generated_Source\PSoC6\pdl\drivers\peripheral\i2s/cy_i2s.h **** *
 964:Generated_Source\PSoC6\pdl\drivers\peripheral\i2s/cy_i2s.h **** * \funcusage
 965:Generated_Source\PSoC6\pdl\drivers\peripheral\i2s/cy_i2s.h **** * \snippet i2s/i2s_v2_0_sut_00.cydsn/main_cm4.c snippet_Cy_I2S_GetInterruptStatus
 966:Generated_Source\PSoC6\pdl\drivers\peripheral\i2s/cy_i2s.h **** *
 967:Generated_Source\PSoC6\pdl\drivers\peripheral\i2s/cy_i2s.h **** *******************************************************************************/
 968:Generated_Source\PSoC6\pdl\drivers\peripheral\i2s/cy_i2s.h **** __STATIC_INLINE uint32_t Cy_I2S_GetInterruptStatus(I2S_Type const * base)
 969:Generated_Source\PSoC6\pdl\drivers\peripheral\i2s/cy_i2s.h **** {
 970:Generated_Source\PSoC6\pdl\drivers\peripheral\i2s/cy_i2s.h ****     return (base->INTR);
 971:Generated_Source\PSoC6\pdl\drivers\peripheral\i2s/cy_i2s.h **** }
 972:Generated_Source\PSoC6\pdl\drivers\peripheral\i2s/cy_i2s.h **** 
 973:Generated_Source\PSoC6\pdl\drivers\peripheral\i2s/cy_i2s.h **** 
 974:Generated_Source\PSoC6\pdl\drivers\peripheral\i2s/cy_i2s.h **** /*******************************************************************************
 975:Generated_Source\PSoC6\pdl\drivers\peripheral\i2s/cy_i2s.h **** * Function Name: Cy_I2S_ClearInterrupt
 976:Generated_Source\PSoC6\pdl\drivers\peripheral\i2s/cy_i2s.h **** ****************************************************************************//**
 977:Generated_Source\PSoC6\pdl\drivers\peripheral\i2s/cy_i2s.h **** *
 978:Generated_Source\PSoC6\pdl\drivers\peripheral\i2s/cy_i2s.h **** * Clears one or more interrupt factors (sets the INTR register).
 979:Generated_Source\PSoC6\pdl\drivers\peripheral\i2s/cy_i2s.h **** *
 980:Generated_Source\PSoC6\pdl\drivers\peripheral\i2s/cy_i2s.h **** * \param base      The pointer to the I2S instance address.
 981:Generated_Source\PSoC6\pdl\drivers\peripheral\i2s/cy_i2s.h **** *
 982:Generated_Source\PSoC6\pdl\drivers\peripheral\i2s/cy_i2s.h **** * \param interrupt Interrupt bit mask \ref group_i2s_macros_intrerrupt_masks.
 983:Generated_Source\PSoC6\pdl\drivers\peripheral\i2s/cy_i2s.h **** *
 984:Generated_Source\PSoC6\pdl\drivers\peripheral\i2s/cy_i2s.h **** * \funcusage
 985:Generated_Source\PSoC6\pdl\drivers\peripheral\i2s/cy_i2s.h **** * \snippet i2s/i2s_v2_0_sut_00.cydsn/main_cm4.c snippet_Cy_I2S_ClearInterrupt
 986:Generated_Source\PSoC6\pdl\drivers\peripheral\i2s/cy_i2s.h **** *
 987:Generated_Source\PSoC6\pdl\drivers\peripheral\i2s/cy_i2s.h **** *******************************************************************************/
 988:Generated_Source\PSoC6\pdl\drivers\peripheral\i2s/cy_i2s.h **** __STATIC_INLINE void Cy_I2S_ClearInterrupt(I2S_Type * base, uint32_t interrupt)
 989:Generated_Source\PSoC6\pdl\drivers\peripheral\i2s/cy_i2s.h **** {
 409              		.loc 1 989 0
 410              		.cfi_startproc
 411              		@ args = 0, pretend = 0, frame = 8
 412              		@ frame_needed = 1, uses_anonymous_args = 0
 413 0000 80B5     		push	{r7, lr}
 414              		.cfi_def_cfa_offset 8
 415              		.cfi_offset 7, -8
 416              		.cfi_offset 14, -4
 417 0002 82B0     		sub	sp, sp, #8
 418              		.cfi_def_cfa_offset 16
 419 0004 00AF     		add	r7, sp, #0
 420              		.cfi_def_cfa_register 7
 421 0006 7860     		str	r0, [r7, #4]
 422 0008 3960     		str	r1, [r7]
 990:Generated_Source\PSoC6\pdl\drivers\peripheral\i2s/cy_i2s.h ****     CY_ASSERT_L2(CY_I2S_IS_INTR_MASK_VALID(interrupt));
 423              		.loc 1 990 0
 424 000a 3A68     		ldr	r2, [r7]
 425 000c 094B     		ldr	r3, .L13
 426 000e 1340     		ands	r3, r3, r2
 427 0010 002B     		cmp	r3, #0
 428 0012 04D0     		beq	.L12
ARM GAS  C:\Users\ikomb\AppData\Local\Temp\cchnbsea.s 			page 26


 429              		.loc 1 990 0 is_stmt 0 discriminator 1
 430 0014 40F2DE31 		movw	r1, #990
 431 0018 0748     		ldr	r0, .L13+4
 432 001a FFF7FEFF 		bl	Cy_SysLib_AssertFailed
 433              	.L12:
 991:Generated_Source\PSoC6\pdl\drivers\peripheral\i2s/cy_i2s.h ****     base->INTR = interrupt;
 434              		.loc 1 991 0 is_stmt 1
 435 001e 7B68     		ldr	r3, [r7, #4]
 436 0020 3A68     		ldr	r2, [r7]
 437 0022 C3F8002F 		str	r2, [r3, #3840]
 992:Generated_Source\PSoC6\pdl\drivers\peripheral\i2s/cy_i2s.h ****     (void) base->INTR;
 438              		.loc 1 992 0
 439 0026 7B68     		ldr	r3, [r7, #4]
 440 0028 D3F8003F 		ldr	r3, [r3, #3840]
 993:Generated_Source\PSoC6\pdl\drivers\peripheral\i2s/cy_i2s.h **** }
 441              		.loc 1 993 0
 442 002c 00BF     		nop
 443 002e 0837     		adds	r7, r7, #8
 444              		.cfi_def_cfa_offset 8
 445 0030 BD46     		mov	sp, r7
 446              		.cfi_def_cfa_register 13
 447              		@ sp needed
 448 0032 80BD     		pop	{r7, pc}
 449              	.L14:
 450              		.align	2
 451              	.L13:
 452 0034 8CFE92FE 		.word	-23921012
 453 0038 00000000 		.word	.LC0
 454              		.cfi_endproc
 455              	.LFE181:
 456              		.size	Cy_I2S_ClearInterrupt, .-Cy_I2S_ClearInterrupt
 457              		.section	.text.Cy_I2S_GetInterruptMask,"ax",%progbits
 458              		.align	2
 459              		.thumb
 460              		.thumb_func
 461              		.type	Cy_I2S_GetInterruptMask, %function
 462              	Cy_I2S_GetInterruptMask:
 463              	.LFB183:
 994:Generated_Source\PSoC6\pdl\drivers\peripheral\i2s/cy_i2s.h **** 
 995:Generated_Source\PSoC6\pdl\drivers\peripheral\i2s/cy_i2s.h **** 
 996:Generated_Source\PSoC6\pdl\drivers\peripheral\i2s/cy_i2s.h **** /*******************************************************************************
 997:Generated_Source\PSoC6\pdl\drivers\peripheral\i2s/cy_i2s.h **** * Function Name: Cy_I2S_SetInterrupt
 998:Generated_Source\PSoC6\pdl\drivers\peripheral\i2s/cy_i2s.h **** ****************************************************************************//**
 999:Generated_Source\PSoC6\pdl\drivers\peripheral\i2s/cy_i2s.h **** *
1000:Generated_Source\PSoC6\pdl\drivers\peripheral\i2s/cy_i2s.h **** * Sets one or more interrupt factors (sets the INTR_SET register).
1001:Generated_Source\PSoC6\pdl\drivers\peripheral\i2s/cy_i2s.h **** *
1002:Generated_Source\PSoC6\pdl\drivers\peripheral\i2s/cy_i2s.h **** * \param base      The pointer to the I2S instance address.
1003:Generated_Source\PSoC6\pdl\drivers\peripheral\i2s/cy_i2s.h **** *
1004:Generated_Source\PSoC6\pdl\drivers\peripheral\i2s/cy_i2s.h **** * \param interrupt Interrupt bit mask \ref group_i2s_macros_intrerrupt_masks.
1005:Generated_Source\PSoC6\pdl\drivers\peripheral\i2s/cy_i2s.h **** *
1006:Generated_Source\PSoC6\pdl\drivers\peripheral\i2s/cy_i2s.h **** * \funcusage
1007:Generated_Source\PSoC6\pdl\drivers\peripheral\i2s/cy_i2s.h **** * \snippet i2s/i2s_v2_0_sut_00.cydsn/main_cm4.c snippet_Cy_I2S_SetInterrupt
1008:Generated_Source\PSoC6\pdl\drivers\peripheral\i2s/cy_i2s.h **** *
1009:Generated_Source\PSoC6\pdl\drivers\peripheral\i2s/cy_i2s.h **** *******************************************************************************/
1010:Generated_Source\PSoC6\pdl\drivers\peripheral\i2s/cy_i2s.h **** __STATIC_INLINE void Cy_I2S_SetInterrupt(I2S_Type * base, uint32_t interrupt)
1011:Generated_Source\PSoC6\pdl\drivers\peripheral\i2s/cy_i2s.h **** {
1012:Generated_Source\PSoC6\pdl\drivers\peripheral\i2s/cy_i2s.h ****     CY_ASSERT_L2(CY_I2S_IS_INTR_MASK_VALID(interrupt));
ARM GAS  C:\Users\ikomb\AppData\Local\Temp\cchnbsea.s 			page 27


1013:Generated_Source\PSoC6\pdl\drivers\peripheral\i2s/cy_i2s.h ****     base->INTR_SET = interrupt;
1014:Generated_Source\PSoC6\pdl\drivers\peripheral\i2s/cy_i2s.h **** }
1015:Generated_Source\PSoC6\pdl\drivers\peripheral\i2s/cy_i2s.h **** 
1016:Generated_Source\PSoC6\pdl\drivers\peripheral\i2s/cy_i2s.h **** 
1017:Generated_Source\PSoC6\pdl\drivers\peripheral\i2s/cy_i2s.h **** /*******************************************************************************
1018:Generated_Source\PSoC6\pdl\drivers\peripheral\i2s/cy_i2s.h **** * Function Name: Cy_I2S_GetInterruptMask
1019:Generated_Source\PSoC6\pdl\drivers\peripheral\i2s/cy_i2s.h **** ****************************************************************************//**
1020:Generated_Source\PSoC6\pdl\drivers\peripheral\i2s/cy_i2s.h **** *
1021:Generated_Source\PSoC6\pdl\drivers\peripheral\i2s/cy_i2s.h **** * Returns the interrupt mask (a content of the INTR_MASK register).
1022:Generated_Source\PSoC6\pdl\drivers\peripheral\i2s/cy_i2s.h **** *
1023:Generated_Source\PSoC6\pdl\drivers\peripheral\i2s/cy_i2s.h **** * \param base The pointer to the I2S instance address.
1024:Generated_Source\PSoC6\pdl\drivers\peripheral\i2s/cy_i2s.h **** *
1025:Generated_Source\PSoC6\pdl\drivers\peripheral\i2s/cy_i2s.h **** * \return The interrupt bit mask \ref group_i2s_macros_intrerrupt_masks.
1026:Generated_Source\PSoC6\pdl\drivers\peripheral\i2s/cy_i2s.h **** *
1027:Generated_Source\PSoC6\pdl\drivers\peripheral\i2s/cy_i2s.h **** * \funcusage
1028:Generated_Source\PSoC6\pdl\drivers\peripheral\i2s/cy_i2s.h **** * \snippet i2s/i2s_v2_0_sut_00.cydsn/main_cm4.c snippet_Cy_I2S_GetInterruptMask
1029:Generated_Source\PSoC6\pdl\drivers\peripheral\i2s/cy_i2s.h **** *
1030:Generated_Source\PSoC6\pdl\drivers\peripheral\i2s/cy_i2s.h **** *******************************************************************************/
1031:Generated_Source\PSoC6\pdl\drivers\peripheral\i2s/cy_i2s.h **** __STATIC_INLINE uint32_t Cy_I2S_GetInterruptMask(I2S_Type const * base)
1032:Generated_Source\PSoC6\pdl\drivers\peripheral\i2s/cy_i2s.h **** {
 464              		.loc 1 1032 0
 465              		.cfi_startproc
 466              		@ args = 0, pretend = 0, frame = 8
 467              		@ frame_needed = 1, uses_anonymous_args = 0
 468              		@ link register save eliminated.
 469 0000 80B4     		push	{r7}
 470              		.cfi_def_cfa_offset 4
 471              		.cfi_offset 7, -4
 472 0002 83B0     		sub	sp, sp, #12
 473              		.cfi_def_cfa_offset 16
 474 0004 00AF     		add	r7, sp, #0
 475              		.cfi_def_cfa_register 7
 476 0006 7860     		str	r0, [r7, #4]
1033:Generated_Source\PSoC6\pdl\drivers\peripheral\i2s/cy_i2s.h ****     return (base->INTR_MASK);
 477              		.loc 1 1033 0
 478 0008 7B68     		ldr	r3, [r7, #4]
 479 000a D3F8083F 		ldr	r3, [r3, #3848]
1034:Generated_Source\PSoC6\pdl\drivers\peripheral\i2s/cy_i2s.h **** }
 480              		.loc 1 1034 0
 481 000e 1846     		mov	r0, r3
 482 0010 0C37     		adds	r7, r7, #12
 483              		.cfi_def_cfa_offset 4
 484 0012 BD46     		mov	sp, r7
 485              		.cfi_def_cfa_register 13
 486              		@ sp needed
 487 0014 5DF8047B 		ldr	r7, [sp], #4
 488              		.cfi_restore 7
 489              		.cfi_def_cfa_offset 0
 490 0018 7047     		bx	lr
 491              		.cfi_endproc
 492              	.LFE183:
 493              		.size	Cy_I2S_GetInterruptMask, .-Cy_I2S_GetInterruptMask
 494 001a 00BF     		.section	.text.Cy_I2S_SetInterruptMask,"ax",%progbits
 495              		.align	2
 496              		.thumb
 497              		.thumb_func
 498              		.type	Cy_I2S_SetInterruptMask, %function
ARM GAS  C:\Users\ikomb\AppData\Local\Temp\cchnbsea.s 			page 28


 499              	Cy_I2S_SetInterruptMask:
 500              	.LFB184:
1035:Generated_Source\PSoC6\pdl\drivers\peripheral\i2s/cy_i2s.h **** 
1036:Generated_Source\PSoC6\pdl\drivers\peripheral\i2s/cy_i2s.h **** 
1037:Generated_Source\PSoC6\pdl\drivers\peripheral\i2s/cy_i2s.h **** /*******************************************************************************
1038:Generated_Source\PSoC6\pdl\drivers\peripheral\i2s/cy_i2s.h **** * Function Name: Cy_I2S_SetInterruptMask
1039:Generated_Source\PSoC6\pdl\drivers\peripheral\i2s/cy_i2s.h **** ****************************************************************************//**
1040:Generated_Source\PSoC6\pdl\drivers\peripheral\i2s/cy_i2s.h **** *
1041:Generated_Source\PSoC6\pdl\drivers\peripheral\i2s/cy_i2s.h **** * Sets one or more interrupt factor masks (the INTR_MASK register).
1042:Generated_Source\PSoC6\pdl\drivers\peripheral\i2s/cy_i2s.h **** *
1043:Generated_Source\PSoC6\pdl\drivers\peripheral\i2s/cy_i2s.h **** * \param base      The pointer to the I2S instance address.
1044:Generated_Source\PSoC6\pdl\drivers\peripheral\i2s/cy_i2s.h **** *
1045:Generated_Source\PSoC6\pdl\drivers\peripheral\i2s/cy_i2s.h **** * \param interrupt Interrupt bit mask \ref group_i2s_macros_intrerrupt_masks.
1046:Generated_Source\PSoC6\pdl\drivers\peripheral\i2s/cy_i2s.h **** *
1047:Generated_Source\PSoC6\pdl\drivers\peripheral\i2s/cy_i2s.h **** * \funcusage
1048:Generated_Source\PSoC6\pdl\drivers\peripheral\i2s/cy_i2s.h **** * \snippet i2s/i2s_v2_0_sut_00.cydsn/main_cm4.c snippet_Cy_I2S_SetInterruptMask
1049:Generated_Source\PSoC6\pdl\drivers\peripheral\i2s/cy_i2s.h **** *
1050:Generated_Source\PSoC6\pdl\drivers\peripheral\i2s/cy_i2s.h **** *******************************************************************************/
1051:Generated_Source\PSoC6\pdl\drivers\peripheral\i2s/cy_i2s.h **** __STATIC_INLINE void Cy_I2S_SetInterruptMask(I2S_Type * base, uint32_t interrupt)
1052:Generated_Source\PSoC6\pdl\drivers\peripheral\i2s/cy_i2s.h **** {
 501              		.loc 1 1052 0
 502              		.cfi_startproc
 503              		@ args = 0, pretend = 0, frame = 8
 504              		@ frame_needed = 1, uses_anonymous_args = 0
 505 0000 80B5     		push	{r7, lr}
 506              		.cfi_def_cfa_offset 8
 507              		.cfi_offset 7, -8
 508              		.cfi_offset 14, -4
 509 0002 82B0     		sub	sp, sp, #8
 510              		.cfi_def_cfa_offset 16
 511 0004 00AF     		add	r7, sp, #0
 512              		.cfi_def_cfa_register 7
 513 0006 7860     		str	r0, [r7, #4]
 514 0008 3960     		str	r1, [r7]
1053:Generated_Source\PSoC6\pdl\drivers\peripheral\i2s/cy_i2s.h ****     CY_ASSERT_L2(CY_I2S_IS_INTR_MASK_VALID(interrupt));
 515              		.loc 1 1053 0
 516 000a 3A68     		ldr	r2, [r7]
 517 000c 084B     		ldr	r3, .L19
 518 000e 1340     		ands	r3, r3, r2
 519 0010 002B     		cmp	r3, #0
 520 0012 04D0     		beq	.L18
 521              		.loc 1 1053 0 is_stmt 0 discriminator 1
 522 0014 40F21D41 		movw	r1, #1053
 523 0018 0648     		ldr	r0, .L19+4
 524 001a FFF7FEFF 		bl	Cy_SysLib_AssertFailed
 525              	.L18:
1054:Generated_Source\PSoC6\pdl\drivers\peripheral\i2s/cy_i2s.h ****     base->INTR_MASK = interrupt;
 526              		.loc 1 1054 0 is_stmt 1
 527 001e 7B68     		ldr	r3, [r7, #4]
 528 0020 3A68     		ldr	r2, [r7]
 529 0022 C3F8082F 		str	r2, [r3, #3848]
1055:Generated_Source\PSoC6\pdl\drivers\peripheral\i2s/cy_i2s.h **** }
 530              		.loc 1 1055 0
 531 0026 00BF     		nop
 532 0028 0837     		adds	r7, r7, #8
 533              		.cfi_def_cfa_offset 8
 534 002a BD46     		mov	sp, r7
ARM GAS  C:\Users\ikomb\AppData\Local\Temp\cchnbsea.s 			page 29


 535              		.cfi_def_cfa_register 13
 536              		@ sp needed
 537 002c 80BD     		pop	{r7, pc}
 538              	.L20:
 539 002e 00BF     		.align	2
 540              	.L19:
 541 0030 8CFE92FE 		.word	-23921012
 542 0034 00000000 		.word	.LC0
 543              		.cfi_endproc
 544              	.LFE184:
 545              		.size	Cy_I2S_SetInterruptMask, .-Cy_I2S_SetInterruptMask
 546              		.section	.rodata
 547 003b 00       		.align	2
 548              	.LC1:
 549 003c 47656E65 		.ascii	"Generated_Source\\PSoC6\\pdl\\drivers\\peripheral\\"
 549      72617465 
 549      645F536F 
 549      75726365 
 549      5C50536F 
 550 006a 6932735C 		.ascii	"i2s\\cy_i2s.c\000"
 550      63795F69 
 550      32732E63 
 550      00
 551              		.section	.text.Cy_I2S_Init,"ax",%progbits
 552              		.align	2
 553              		.global	Cy_I2S_Init
 554              		.thumb
 555              		.thumb_func
 556              		.type	Cy_I2S_Init, %function
 557              	Cy_I2S_Init:
 558              	.LFB186:
 559              		.file 2 "Generated_Source\\PSoC6\\pdl\\drivers\\peripheral\\i2s\\cy_i2s.c"
   1:Generated_Source\PSoC6\pdl\drivers\peripheral\i2s/cy_i2s.c **** /***************************************************************************//**
   2:Generated_Source\PSoC6\pdl\drivers\peripheral\i2s/cy_i2s.c **** * \file cy_i2s.c
   3:Generated_Source\PSoC6\pdl\drivers\peripheral\i2s/cy_i2s.c **** * \version 2.0.1
   4:Generated_Source\PSoC6\pdl\drivers\peripheral\i2s/cy_i2s.c **** *
   5:Generated_Source\PSoC6\pdl\drivers\peripheral\i2s/cy_i2s.c **** * The source code file for the I2S driver.
   6:Generated_Source\PSoC6\pdl\drivers\peripheral\i2s/cy_i2s.c **** *
   7:Generated_Source\PSoC6\pdl\drivers\peripheral\i2s/cy_i2s.c **** ********************************************************************************
   8:Generated_Source\PSoC6\pdl\drivers\peripheral\i2s/cy_i2s.c **** * \copyright
   9:Generated_Source\PSoC6\pdl\drivers\peripheral\i2s/cy_i2s.c **** * Copyright 2016-2018, Cypress Semiconductor Corporation. All rights reserved.
  10:Generated_Source\PSoC6\pdl\drivers\peripheral\i2s/cy_i2s.c **** * You may use this file only in accordance with the license, terms, conditions,
  11:Generated_Source\PSoC6\pdl\drivers\peripheral\i2s/cy_i2s.c **** * disclaimers, and limitations in the end user license agreement accompanying
  12:Generated_Source\PSoC6\pdl\drivers\peripheral\i2s/cy_i2s.c **** * the software package with which this file was provided.
  13:Generated_Source\PSoC6\pdl\drivers\peripheral\i2s/cy_i2s.c **** *******************************************************************************/
  14:Generated_Source\PSoC6\pdl\drivers\peripheral\i2s/cy_i2s.c **** 
  15:Generated_Source\PSoC6\pdl\drivers\peripheral\i2s/cy_i2s.c **** #include "cy_i2s.h"
  16:Generated_Source\PSoC6\pdl\drivers\peripheral\i2s/cy_i2s.c **** 
  17:Generated_Source\PSoC6\pdl\drivers\peripheral\i2s/cy_i2s.c **** #ifdef __cplusplus
  18:Generated_Source\PSoC6\pdl\drivers\peripheral\i2s/cy_i2s.c **** extern "C" {
  19:Generated_Source\PSoC6\pdl\drivers\peripheral\i2s/cy_i2s.c **** #endif
  20:Generated_Source\PSoC6\pdl\drivers\peripheral\i2s/cy_i2s.c **** 
  21:Generated_Source\PSoC6\pdl\drivers\peripheral\i2s/cy_i2s.c **** 
  22:Generated_Source\PSoC6\pdl\drivers\peripheral\i2s/cy_i2s.c **** /*******************************************************************************
  23:Generated_Source\PSoC6\pdl\drivers\peripheral\i2s/cy_i2s.c **** * Function Name: Cy_I2S_Init
  24:Generated_Source\PSoC6\pdl\drivers\peripheral\i2s/cy_i2s.c **** ****************************************************************************//**
  25:Generated_Source\PSoC6\pdl\drivers\peripheral\i2s/cy_i2s.c **** *
ARM GAS  C:\Users\ikomb\AppData\Local\Temp\cchnbsea.s 			page 30


  26:Generated_Source\PSoC6\pdl\drivers\peripheral\i2s/cy_i2s.c **** * Initializes the I2S module in accordance with a configuration structure.
  27:Generated_Source\PSoC6\pdl\drivers\peripheral\i2s/cy_i2s.c **** *
  28:Generated_Source\PSoC6\pdl\drivers\peripheral\i2s/cy_i2s.c **** * \pre If the I2S module is initialized previously, the \ref Cy_I2S_DeInit()
  29:Generated_Source\PSoC6\pdl\drivers\peripheral\i2s/cy_i2s.c **** * must be called before calling this function.
  30:Generated_Source\PSoC6\pdl\drivers\peripheral\i2s/cy_i2s.c **** *
  31:Generated_Source\PSoC6\pdl\drivers\peripheral\i2s/cy_i2s.c **** * \param base      The pointer to the I2S instance address.
  32:Generated_Source\PSoC6\pdl\drivers\peripheral\i2s/cy_i2s.c **** *
  33:Generated_Source\PSoC6\pdl\drivers\peripheral\i2s/cy_i2s.c **** * \param config    The pointer to a configuration structure.
  34:Generated_Source\PSoC6\pdl\drivers\peripheral\i2s/cy_i2s.c **** *
  35:Generated_Source\PSoC6\pdl\drivers\peripheral\i2s/cy_i2s.c **** * \return error / status code. See \ref cy_en_i2s_status_t.
  36:Generated_Source\PSoC6\pdl\drivers\peripheral\i2s/cy_i2s.c **** *
  37:Generated_Source\PSoC6\pdl\drivers\peripheral\i2s/cy_i2s.c **** * \funcusage
  38:Generated_Source\PSoC6\pdl\drivers\peripheral\i2s/cy_i2s.c **** * \snippet i2s/i2s_v2_0_sut_00.cydsn/main_cm4.c snippet_Cy_I2S_Init
  39:Generated_Source\PSoC6\pdl\drivers\peripheral\i2s/cy_i2s.c **** *
  40:Generated_Source\PSoC6\pdl\drivers\peripheral\i2s/cy_i2s.c **** *******************************************************************************/
  41:Generated_Source\PSoC6\pdl\drivers\peripheral\i2s/cy_i2s.c **** cy_en_i2s_status_t Cy_I2S_Init(I2S_Type * base, cy_stc_i2s_config_t const * config)
  42:Generated_Source\PSoC6\pdl\drivers\peripheral\i2s/cy_i2s.c **** {
 560              		.loc 2 42 0
 561              		.cfi_startproc
 562              		@ args = 0, pretend = 0, frame = 24
 563              		@ frame_needed = 1, uses_anonymous_args = 0
 564 0000 80B5     		push	{r7, lr}
 565              		.cfi_def_cfa_offset 8
 566              		.cfi_offset 7, -8
 567              		.cfi_offset 14, -4
 568 0002 86B0     		sub	sp, sp, #24
 569              		.cfi_def_cfa_offset 32
 570 0004 00AF     		add	r7, sp, #0
 571              		.cfi_def_cfa_register 7
 572 0006 7860     		str	r0, [r7, #4]
 573 0008 3960     		str	r1, [r7]
  43:Generated_Source\PSoC6\pdl\drivers\peripheral\i2s/cy_i2s.c ****     cy_en_i2s_status_t ret = CY_I2S_BAD_PARAM;
 574              		.loc 2 43 0
 575 000a 864B     		ldr	r3, .L84
 576 000c 7B61     		str	r3, [r7, #20]
  44:Generated_Source\PSoC6\pdl\drivers\peripheral\i2s/cy_i2s.c ****     
  45:Generated_Source\PSoC6\pdl\drivers\peripheral\i2s/cy_i2s.c ****     if((NULL != base) && (NULL != config))
 577              		.loc 2 45 0
 578 000e 7B68     		ldr	r3, [r7, #4]
 579 0010 002B     		cmp	r3, #0
 580 0012 00F07082 		beq	.L22
 581              		.loc 2 45 0 is_stmt 0 discriminator 1
 582 0016 3B68     		ldr	r3, [r7]
 583 0018 002B     		cmp	r3, #0
 584 001a 00F06C82 		beq	.L22
 585              	.LBB2:
  46:Generated_Source\PSoC6\pdl\drivers\peripheral\i2s/cy_i2s.c ****     {
  47:Generated_Source\PSoC6\pdl\drivers\peripheral\i2s/cy_i2s.c ****         cy_en_i2s_ws_pw_t wsPulseWidth;
  48:Generated_Source\PSoC6\pdl\drivers\peripheral\i2s/cy_i2s.c ****         cy_en_i2s_len_t channelLength;
  49:Generated_Source\PSoC6\pdl\drivers\peripheral\i2s/cy_i2s.c ****         uint32_t channels;
  50:Generated_Source\PSoC6\pdl\drivers\peripheral\i2s/cy_i2s.c ****         uint32_t clockDiv = (uint32_t)config->clkDiv - 1U;
 586              		.loc 2 50 0 is_stmt 1
 587 001e 3B68     		ldr	r3, [r7]
 588 0020 1B79     		ldrb	r3, [r3, #4]	@ zero_extendqisi2
 589 0022 013B     		subs	r3, r3, #1
 590 0024 BB60     		str	r3, [r7, #8]
  51:Generated_Source\PSoC6\pdl\drivers\peripheral\i2s/cy_i2s.c ****         
ARM GAS  C:\Users\ikomb\AppData\Local\Temp\cchnbsea.s 			page 31


  52:Generated_Source\PSoC6\pdl\drivers\peripheral\i2s/cy_i2s.c ****         CY_ASSERT_L2(CY_I2S_IS_CLK_DIV_VALID(clockDiv));
 591              		.loc 2 52 0
 592 0026 BB68     		ldr	r3, [r7, #8]
 593 0028 3F2B     		cmp	r3, #63
 594 002a 03D9     		bls	.L23
 595              		.loc 2 52 0 is_stmt 0 discriminator 1
 596 002c 3421     		movs	r1, #52
 597 002e 7E48     		ldr	r0, .L84+4
 598 0030 FFF7FEFF 		bl	Cy_SysLib_AssertFailed
 599              	.L23:
  53:Generated_Source\PSoC6\pdl\drivers\peripheral\i2s/cy_i2s.c ****         
  54:Generated_Source\PSoC6\pdl\drivers\peripheral\i2s/cy_i2s.c ****         /* The clock setting */
  55:Generated_Source\PSoC6\pdl\drivers\peripheral\i2s/cy_i2s.c ****         base->CLOCK_CTL = _VAL2FLD(I2S_CLOCK_CTL_CLOCK_DIV, clockDiv) |
 600              		.loc 2 55 0 is_stmt 1
 601 0034 BB68     		ldr	r3, [r7, #8]
 602 0036 03F03F02 		and	r2, r3, #63
  56:Generated_Source\PSoC6\pdl\drivers\peripheral\i2s/cy_i2s.c ****                           _BOOL2FLD(I2S_CLOCK_CTL_CLOCK_SEL, config->extClk);
 603              		.loc 2 56 0
 604 003a 3B68     		ldr	r3, [r7]
 605 003c 5B79     		ldrb	r3, [r3, #5]	@ zero_extendqisi2
 606 003e 002B     		cmp	r3, #0
 607 0040 02D0     		beq	.L24
 608              		.loc 2 56 0 is_stmt 0 discriminator 1
 609 0042 4FF48073 		mov	r3, #256
 610 0046 00E0     		b	.L25
 611              	.L24:
 612              		.loc 2 56 0 discriminator 2
 613 0048 0023     		movs	r3, #0
 614              	.L25:
  55:Generated_Source\PSoC6\pdl\drivers\peripheral\i2s/cy_i2s.c ****                           _BOOL2FLD(I2S_CLOCK_CTL_CLOCK_SEL, config->extClk);
 615              		.loc 2 55 0 is_stmt 1
 616 004a 1A43     		orrs	r2, r2, r3
 617 004c 7B68     		ldr	r3, [r7, #4]
 618 004e 1A61     		str	r2, [r3, #16]
  57:Generated_Source\PSoC6\pdl\drivers\peripheral\i2s/cy_i2s.c **** 
  58:Generated_Source\PSoC6\pdl\drivers\peripheral\i2s/cy_i2s.c ****         /* The Tx setting */
  59:Generated_Source\PSoC6\pdl\drivers\peripheral\i2s/cy_i2s.c ****         if (config->txEnabled)
 619              		.loc 2 59 0
 620 0050 3B68     		ldr	r3, [r7]
 621 0052 1B78     		ldrb	r3, [r3]	@ zero_extendqisi2
 622 0054 002B     		cmp	r3, #0
 623 0056 00F0FF80 		beq	.L26
  60:Generated_Source\PSoC6\pdl\drivers\peripheral\i2s/cy_i2s.c ****         {
  61:Generated_Source\PSoC6\pdl\drivers\peripheral\i2s/cy_i2s.c ****             CY_ASSERT_L3(CY_I2S_IS_ALIGNMENT_VALID(config->txAlignment));
 624              		.loc 2 61 0
 625 005a 3B68     		ldr	r3, [r7]
 626 005c DB79     		ldrb	r3, [r3, #7]	@ zero_extendqisi2
 627 005e 002B     		cmp	r3, #0
 628 0060 0FD0     		beq	.L27
 629              		.loc 2 61 0 is_stmt 0 discriminator 1
 630 0062 3B68     		ldr	r3, [r7]
 631 0064 DB79     		ldrb	r3, [r3, #7]	@ zero_extendqisi2
 632 0066 012B     		cmp	r3, #1
 633 0068 0BD0     		beq	.L27
 634              		.loc 2 61 0 discriminator 2
 635 006a 3B68     		ldr	r3, [r7]
 636 006c DB79     		ldrb	r3, [r3, #7]	@ zero_extendqisi2
ARM GAS  C:\Users\ikomb\AppData\Local\Temp\cchnbsea.s 			page 32


 637 006e 022B     		cmp	r3, #2
 638 0070 07D0     		beq	.L27
 639              		.loc 2 61 0 discriminator 3
 640 0072 3B68     		ldr	r3, [r7]
 641 0074 DB79     		ldrb	r3, [r3, #7]	@ zero_extendqisi2
 642 0076 032B     		cmp	r3, #3
 643 0078 03D0     		beq	.L27
 644              		.loc 2 61 0 discriminator 4
 645 007a 3D21     		movs	r1, #61
 646 007c 6A48     		ldr	r0, .L84+4
 647 007e FFF7FEFF 		bl	Cy_SysLib_AssertFailed
 648              	.L27:
  62:Generated_Source\PSoC6\pdl\drivers\peripheral\i2s/cy_i2s.c ****             CY_ASSERT_L3(CY_I2S_IS_OVHDATA_VALID(config->txOverheadValue));
 649              		.loc 2 62 0 is_stmt 1
 650 0082 3B68     		ldr	r3, [r7]
 651 0084 9B7D     		ldrb	r3, [r3, #22]	@ zero_extendqisi2
 652 0086 002B     		cmp	r3, #0
 653 0088 07D0     		beq	.L28
 654              		.loc 2 62 0 is_stmt 0 discriminator 1
 655 008a 3B68     		ldr	r3, [r7]
 656 008c 9B7D     		ldrb	r3, [r3, #22]	@ zero_extendqisi2
 657 008e 012B     		cmp	r3, #1
 658 0090 03D0     		beq	.L28
 659              		.loc 2 62 0 discriminator 2
 660 0092 3E21     		movs	r1, #62
 661 0094 6448     		ldr	r0, .L84+4
 662 0096 FFF7FEFF 		bl	Cy_SysLib_AssertFailed
 663              	.L28:
  63:Generated_Source\PSoC6\pdl\drivers\peripheral\i2s/cy_i2s.c ****             
  64:Generated_Source\PSoC6\pdl\drivers\peripheral\i2s/cy_i2s.c ****             if ((CY_I2S_TDM_MODE_A == config->txAlignment) || (CY_I2S_TDM_MODE_B == config->txAlign
 664              		.loc 2 64 0 is_stmt 1
 665 009a 3B68     		ldr	r3, [r7]
 666 009c DB79     		ldrb	r3, [r3, #7]	@ zero_extendqisi2
 667 009e 022B     		cmp	r3, #2
 668 00a0 03D0     		beq	.L29
 669              		.loc 2 64 0 is_stmt 0 discriminator 1
 670 00a2 3B68     		ldr	r3, [r7]
 671 00a4 DB79     		ldrb	r3, [r3, #7]	@ zero_extendqisi2
 672 00a6 032B     		cmp	r3, #3
 673 00a8 36D1     		bne	.L30
 674              	.L29:
  65:Generated_Source\PSoC6\pdl\drivers\peripheral\i2s/cy_i2s.c ****             {
  66:Generated_Source\PSoC6\pdl\drivers\peripheral\i2s/cy_i2s.c ****                 channels = (uint32_t)config->txChannels - 1UL;
 675              		.loc 2 66 0 is_stmt 1
 676 00aa 3B68     		ldr	r3, [r7]
 677 00ac DB7C     		ldrb	r3, [r3, #19]	@ zero_extendqisi2
 678 00ae 013B     		subs	r3, r3, #1
 679 00b0 FB60     		str	r3, [r7, #12]
  67:Generated_Source\PSoC6\pdl\drivers\peripheral\i2s/cy_i2s.c ****                 wsPulseWidth = config->txWsPulseWidth;
 680              		.loc 2 67 0
 681 00b2 3B68     		ldr	r3, [r7]
 682 00b4 1B7A     		ldrb	r3, [r3, #8]
 683 00b6 FB74     		strb	r3, [r7, #19]
  68:Generated_Source\PSoC6\pdl\drivers\peripheral\i2s/cy_i2s.c ****                 channelLength = CY_I2S_LEN32;
 684              		.loc 2 68 0
 685 00b8 0523     		movs	r3, #5
 686 00ba BB74     		strb	r3, [r7, #18]
ARM GAS  C:\Users\ikomb\AppData\Local\Temp\cchnbsea.s 			page 33


  69:Generated_Source\PSoC6\pdl\drivers\peripheral\i2s/cy_i2s.c ****                 
  70:Generated_Source\PSoC6\pdl\drivers\peripheral\i2s/cy_i2s.c ****                 CY_ASSERT_L2(CY_I2S_IS_CHANNELS_VALID(channels));
 687              		.loc 2 70 0
 688 00bc FB68     		ldr	r3, [r7, #12]
 689 00be 072B     		cmp	r3, #7
 690 00c0 03D9     		bls	.L31
 691              		.loc 2 70 0 is_stmt 0 discriminator 1
 692 00c2 4621     		movs	r1, #70
 693 00c4 5848     		ldr	r0, .L84+4
 694 00c6 FFF7FEFF 		bl	Cy_SysLib_AssertFailed
 695              	.L31:
  71:Generated_Source\PSoC6\pdl\drivers\peripheral\i2s/cy_i2s.c ****                 CY_ASSERT_L3(CY_I2S_IS_WSPULSE_VALID(wsPulseWidth));
 696              		.loc 2 71 0 is_stmt 1
 697 00ca FB7C     		ldrb	r3, [r7, #19]	@ zero_extendqisi2
 698 00cc 002B     		cmp	r3, #0
 699 00ce 06D0     		beq	.L32
 700              		.loc 2 71 0 is_stmt 0 discriminator 1
 701 00d0 FB7C     		ldrb	r3, [r7, #19]	@ zero_extendqisi2
 702 00d2 012B     		cmp	r3, #1
 703 00d4 03D0     		beq	.L32
 704              		.loc 2 71 0 discriminator 2
 705 00d6 4721     		movs	r1, #71
 706 00d8 5348     		ldr	r0, .L84+4
 707 00da FFF7FEFF 		bl	Cy_SysLib_AssertFailed
 708              	.L32:
  72:Generated_Source\PSoC6\pdl\drivers\peripheral\i2s/cy_i2s.c ****                 CY_ASSERT_L3(CY_I2S_IS_LEN_VALID(config->txWordLength));
 709              		.loc 2 72 0 is_stmt 1
 710 00de 3B68     		ldr	r3, [r7]
 711 00e0 5B7D     		ldrb	r3, [r3, #21]	@ zero_extendqisi2
 712 00e2 002B     		cmp	r3, #0
 713 00e4 53D0     		beq	.L82
 714              		.loc 2 72 0 is_stmt 0 discriminator 1
 715 00e6 3B68     		ldr	r3, [r7]
 716 00e8 5B7D     		ldrb	r3, [r3, #21]	@ zero_extendqisi2
 717 00ea 012B     		cmp	r3, #1
 718 00ec 4FD0     		beq	.L82
 719              		.loc 2 72 0 discriminator 2
 720 00ee 3B68     		ldr	r3, [r7]
 721 00f0 5B7D     		ldrb	r3, [r3, #21]	@ zero_extendqisi2
 722 00f2 022B     		cmp	r3, #2
 723 00f4 4BD0     		beq	.L82
 724              		.loc 2 72 0 discriminator 3
 725 00f6 3B68     		ldr	r3, [r7]
 726 00f8 5B7D     		ldrb	r3, [r3, #21]	@ zero_extendqisi2
 727 00fa 032B     		cmp	r3, #3
 728 00fc 47D0     		beq	.L82
 729              		.loc 2 72 0 discriminator 4
 730 00fe 3B68     		ldr	r3, [r7]
 731 0100 5B7D     		ldrb	r3, [r3, #21]	@ zero_extendqisi2
 732 0102 042B     		cmp	r3, #4
 733 0104 43D0     		beq	.L82
 734              		.loc 2 72 0 discriminator 5
 735 0106 3B68     		ldr	r3, [r7]
 736 0108 5B7D     		ldrb	r3, [r3, #21]	@ zero_extendqisi2
 737 010a 052B     		cmp	r3, #5
 738 010c 3FD0     		beq	.L82
 739              		.loc 2 72 0 discriminator 6
ARM GAS  C:\Users\ikomb\AppData\Local\Temp\cchnbsea.s 			page 34


 740 010e 4821     		movs	r1, #72
 741 0110 4548     		ldr	r0, .L84+4
 742 0112 FFF7FEFF 		bl	Cy_SysLib_AssertFailed
 743 0116 3AE0     		b	.L82
 744              	.L30:
  73:Generated_Source\PSoC6\pdl\drivers\peripheral\i2s/cy_i2s.c ****             }
  74:Generated_Source\PSoC6\pdl\drivers\peripheral\i2s/cy_i2s.c ****             else
  75:Generated_Source\PSoC6\pdl\drivers\peripheral\i2s/cy_i2s.c ****             {
  76:Generated_Source\PSoC6\pdl\drivers\peripheral\i2s/cy_i2s.c ****                 channels = 1UL;
 745              		.loc 2 76 0 is_stmt 1
 746 0118 0123     		movs	r3, #1
 747 011a FB60     		str	r3, [r7, #12]
  77:Generated_Source\PSoC6\pdl\drivers\peripheral\i2s/cy_i2s.c ****                 wsPulseWidth = CY_I2S_WS_ONE_CHANNEL_LENGTH;
 748              		.loc 2 77 0
 749 011c 0123     		movs	r3, #1
 750 011e FB74     		strb	r3, [r7, #19]
  78:Generated_Source\PSoC6\pdl\drivers\peripheral\i2s/cy_i2s.c ****                 channelLength = config->txChannelLength;
 751              		.loc 2 78 0
 752 0120 3B68     		ldr	r3, [r7]
 753 0122 1B7D     		ldrb	r3, [r3, #20]
 754 0124 BB74     		strb	r3, [r7, #18]
  79:Generated_Source\PSoC6\pdl\drivers\peripheral\i2s/cy_i2s.c ****                 
  80:Generated_Source\PSoC6\pdl\drivers\peripheral\i2s/cy_i2s.c ****                 CY_ASSERT_L3(CY_I2S_IS_CHAN_WORD_VALID(channelLength, config->txWordLength));
 755              		.loc 2 80 0
 756 0126 BB7C     		ldrb	r3, [r7, #18]	@ zero_extendqisi2
 757 0128 002B     		cmp	r3, #0
 758 012a 0ED0     		beq	.L35
 759              		.loc 2 80 0 is_stmt 0 discriminator 1
 760 012c BB7C     		ldrb	r3, [r7, #18]	@ zero_extendqisi2
 761 012e 012B     		cmp	r3, #1
 762 0130 0BD0     		beq	.L35
 763              		.loc 2 80 0 discriminator 3
 764 0132 BB7C     		ldrb	r3, [r7, #18]	@ zero_extendqisi2
 765 0134 022B     		cmp	r3, #2
 766 0136 08D0     		beq	.L35
 767              		.loc 2 80 0 discriminator 5
 768 0138 BB7C     		ldrb	r3, [r7, #18]	@ zero_extendqisi2
 769 013a 032B     		cmp	r3, #3
 770 013c 05D0     		beq	.L35
 771              		.loc 2 80 0 discriminator 7
 772 013e BB7C     		ldrb	r3, [r7, #18]	@ zero_extendqisi2
 773 0140 042B     		cmp	r3, #4
 774 0142 02D0     		beq	.L35
 775              		.loc 2 80 0 discriminator 9
 776 0144 BB7C     		ldrb	r3, [r7, #18]	@ zero_extendqisi2
 777 0146 052B     		cmp	r3, #5
 778 0148 1CD1     		bne	.L36
 779              	.L35:
 780              		.loc 2 80 0 discriminator 12
 781 014a 3B68     		ldr	r3, [r7]
 782 014c 5B7D     		ldrb	r3, [r3, #21]	@ zero_extendqisi2
 783 014e 002B     		cmp	r3, #0
 784 0150 13D0     		beq	.L37
 785              		.loc 2 80 0 discriminator 13
 786 0152 3B68     		ldr	r3, [r7]
 787 0154 5B7D     		ldrb	r3, [r3, #21]	@ zero_extendqisi2
 788 0156 012B     		cmp	r3, #1
ARM GAS  C:\Users\ikomb\AppData\Local\Temp\cchnbsea.s 			page 35


 789 0158 0FD0     		beq	.L37
 790              		.loc 2 80 0 discriminator 15
 791 015a 3B68     		ldr	r3, [r7]
 792 015c 5B7D     		ldrb	r3, [r3, #21]	@ zero_extendqisi2
 793 015e 022B     		cmp	r3, #2
 794 0160 0BD0     		beq	.L37
 795              		.loc 2 80 0 discriminator 17
 796 0162 3B68     		ldr	r3, [r7]
 797 0164 5B7D     		ldrb	r3, [r3, #21]	@ zero_extendqisi2
 798 0166 032B     		cmp	r3, #3
 799 0168 07D0     		beq	.L37
 800              		.loc 2 80 0 discriminator 19
 801 016a 3B68     		ldr	r3, [r7]
 802 016c 5B7D     		ldrb	r3, [r3, #21]	@ zero_extendqisi2
 803 016e 042B     		cmp	r3, #4
 804 0170 03D0     		beq	.L37
 805              		.loc 2 80 0 discriminator 21
 806 0172 3B68     		ldr	r3, [r7]
 807 0174 5B7D     		ldrb	r3, [r3, #21]	@ zero_extendqisi2
 808 0176 052B     		cmp	r3, #5
 809 0178 04D1     		bne	.L36
 810              	.L37:
 811              		.loc 2 80 0 discriminator 24
 812 017a 3B68     		ldr	r3, [r7]
 813 017c 5B7D     		ldrb	r3, [r3, #21]	@ zero_extendqisi2
 814 017e BA7C     		ldrb	r2, [r7, #18]	@ zero_extendqisi2
 815 0180 9A42     		cmp	r2, r3
 816 0182 05D2     		bcs	.L34
 817              	.L36:
 818              		.loc 2 80 0 discriminator 25
 819 0184 5021     		movs	r1, #80
 820 0186 2848     		ldr	r0, .L84+4
 821 0188 FFF7FEFF 		bl	Cy_SysLib_AssertFailed
 822 018c 00E0     		b	.L34
 823              	.L82:
  72:Generated_Source\PSoC6\pdl\drivers\peripheral\i2s/cy_i2s.c ****             }
 824              		.loc 2 72 0 is_stmt 1
 825 018e 00BF     		nop
 826              	.L34:
  81:Generated_Source\PSoC6\pdl\drivers\peripheral\i2s/cy_i2s.c ****             }
  82:Generated_Source\PSoC6\pdl\drivers\peripheral\i2s/cy_i2s.c ****             
  83:Generated_Source\PSoC6\pdl\drivers\peripheral\i2s/cy_i2s.c ****             CY_ASSERT_L2(CY_I2S_IS_TRIG_LEVEL_VALID(config->txFifoTriggerLevel, channels));
 827              		.loc 2 83 0
 828 0190 3B68     		ldr	r3, [r7]
 829 0192 DB7D     		ldrb	r3, [r3, #23]	@ zero_extendqisi2
 830 0194 1A46     		mov	r2, r3
 831 0196 FB68     		ldr	r3, [r7, #12]
 832 0198 C3F1FF03 		rsb	r3, r3, #255
 833 019c 9A42     		cmp	r2, r3
 834 019e 03D9     		bls	.L38
 835              		.loc 2 83 0 is_stmt 0 discriminator 1
 836 01a0 5321     		movs	r1, #83
 837 01a2 2148     		ldr	r0, .L84+4
 838 01a4 FFF7FEFF 		bl	Cy_SysLib_AssertFailed
 839              	.L38:
  84:Generated_Source\PSoC6\pdl\drivers\peripheral\i2s/cy_i2s.c ****             
  85:Generated_Source\PSoC6\pdl\drivers\peripheral\i2s/cy_i2s.c ****             base->TX_WATCHDOG = config->txWatchdogValue;
ARM GAS  C:\Users\ikomb\AppData\Local\Temp\cchnbsea.s 			page 36


 840              		.loc 2 85 0 is_stmt 1
 841 01a8 3B68     		ldr	r3, [r7]
 842 01aa DA68     		ldr	r2, [r3, #12]
 843 01ac 7B68     		ldr	r3, [r7, #4]
 844 01ae C3F88420 		str	r2, [r3, #132]
  86:Generated_Source\PSoC6\pdl\drivers\peripheral\i2s/cy_i2s.c **** 
  87:Generated_Source\PSoC6\pdl\drivers\peripheral\i2s/cy_i2s.c ****             base->TX_CTL = _VAL2FLD(I2S_TX_CTL_I2S_MODE, config->txAlignment) |
 845              		.loc 2 87 0
 846 01b2 3B68     		ldr	r3, [r7]
 847 01b4 DB79     		ldrb	r3, [r3, #7]	@ zero_extendqisi2
 848 01b6 1B02     		lsls	r3, r3, #8
 849 01b8 03F44072 		and	r2, r3, #768
  88:Generated_Source\PSoC6\pdl\drivers\peripheral\i2s/cy_i2s.c ****                            _BOOL2FLD(I2S_TX_CTL_B_CLOCK_INV, config->txSdoLatchingTime) |
 850              		.loc 2 88 0
 851 01bc 3B68     		ldr	r3, [r7]
 852 01be 1B7C     		ldrb	r3, [r3, #16]	@ zero_extendqisi2
 853 01c0 002B     		cmp	r3, #0
 854 01c2 01D0     		beq	.L39
 855              		.loc 2 88 0 is_stmt 0 discriminator 1
 856 01c4 0823     		movs	r3, #8
 857 01c6 00E0     		b	.L40
 858              	.L39:
 859              		.loc 2 88 0 discriminator 2
 860 01c8 0023     		movs	r3, #0
 861              	.L40:
  87:Generated_Source\PSoC6\pdl\drivers\peripheral\i2s/cy_i2s.c ****                            _BOOL2FLD(I2S_TX_CTL_B_CLOCK_INV, config->txSdoLatchingTime) |
 862              		.loc 2 87 0 is_stmt 1
 863 01ca 1A43     		orrs	r2, r2, r3
  89:Generated_Source\PSoC6\pdl\drivers\peripheral\i2s/cy_i2s.c ****                            _VAL2FLD(I2S_TX_CTL_CH_NR, channels) |
 864              		.loc 2 89 0
 865 01cc FB68     		ldr	r3, [r7, #12]
 866 01ce 1B01     		lsls	r3, r3, #4
 867 01d0 03F07003 		and	r3, r3, #112
  88:Generated_Source\PSoC6\pdl\drivers\peripheral\i2s/cy_i2s.c ****                            _BOOL2FLD(I2S_TX_CTL_B_CLOCK_INV, config->txSdoLatchingTime) |
 868              		.loc 2 88 0
 869 01d4 1A43     		orrs	r2, r2, r3
  90:Generated_Source\PSoC6\pdl\drivers\peripheral\i2s/cy_i2s.c ****                            _BOOL2FLD(I2S_TX_CTL_MS, config->txMasterMode) |
 870              		.loc 2 90 0
 871 01d6 3B68     		ldr	r3, [r7]
 872 01d8 9B79     		ldrb	r3, [r3, #6]	@ zero_extendqisi2
 873 01da 002B     		cmp	r3, #0
 874 01dc 01D0     		beq	.L41
 875              		.loc 2 90 0 is_stmt 0 discriminator 1
 876 01de 8023     		movs	r3, #128
 877 01e0 00E0     		b	.L42
 878              	.L41:
 879              		.loc 2 90 0 discriminator 2
 880 01e2 0023     		movs	r3, #0
 881              	.L42:
  89:Generated_Source\PSoC6\pdl\drivers\peripheral\i2s/cy_i2s.c ****                            _VAL2FLD(I2S_TX_CTL_CH_NR, channels) |
 882              		.loc 2 89 0 is_stmt 1
 883 01e4 1A43     		orrs	r2, r2, r3
  91:Generated_Source\PSoC6\pdl\drivers\peripheral\i2s/cy_i2s.c ****                            _VAL2FLD(I2S_TX_CTL_WS_PULSE, wsPulseWidth) |
 884              		.loc 2 91 0
 885 01e6 FB7C     		ldrb	r3, [r7, #19]	@ zero_extendqisi2
 886 01e8 9B02     		lsls	r3, r3, #10
 887 01ea 03F48063 		and	r3, r3, #1024
ARM GAS  C:\Users\ikomb\AppData\Local\Temp\cchnbsea.s 			page 37


  90:Generated_Source\PSoC6\pdl\drivers\peripheral\i2s/cy_i2s.c ****                            _BOOL2FLD(I2S_TX_CTL_MS, config->txMasterMode) |
 888              		.loc 2 90 0
 889 01ee 1A43     		orrs	r2, r2, r3
  92:Generated_Source\PSoC6\pdl\drivers\peripheral\i2s/cy_i2s.c ****                            _BOOL2FLD(I2S_TX_CTL_WD_EN, config->txWatchdogEnable) |
 890              		.loc 2 92 0
 891 01f0 3B68     		ldr	r3, [r7]
 892 01f2 5B7A     		ldrb	r3, [r3, #9]	@ zero_extendqisi2
 893 01f4 002B     		cmp	r3, #0
 894 01f6 02D0     		beq	.L43
 895              		.loc 2 92 0 is_stmt 0 discriminator 1
 896 01f8 4FF40053 		mov	r3, #8192
 897 01fc 00E0     		b	.L44
 898              	.L43:
 899              		.loc 2 92 0 discriminator 2
 900 01fe 0023     		movs	r3, #0
 901              	.L44:
  91:Generated_Source\PSoC6\pdl\drivers\peripheral\i2s/cy_i2s.c ****                            _VAL2FLD(I2S_TX_CTL_WS_PULSE, wsPulseWidth) |
 902              		.loc 2 91 0 is_stmt 1
 903 0200 1A43     		orrs	r2, r2, r3
  93:Generated_Source\PSoC6\pdl\drivers\peripheral\i2s/cy_i2s.c ****                            _BOOL2FLD(I2S_TX_CTL_SCKO_POL, config->txSckoInversion) |
 904              		.loc 2 93 0
 905 0202 3B68     		ldr	r3, [r7]
 906 0204 5B7C     		ldrb	r3, [r3, #17]	@ zero_extendqisi2
 907 0206 002B     		cmp	r3, #0
 908 0208 02D0     		beq	.L45
 909              		.loc 2 93 0 is_stmt 0 discriminator 1
 910 020a 4FF08073 		mov	r3, #16777216
 911 020e 00E0     		b	.L46
 912              	.L45:
 913              		.loc 2 93 0 discriminator 2
 914 0210 0023     		movs	r3, #0
 915              	.L46:
  92:Generated_Source\PSoC6\pdl\drivers\peripheral\i2s/cy_i2s.c ****                            _BOOL2FLD(I2S_TX_CTL_WD_EN, config->txWatchdogEnable) |
 916              		.loc 2 92 0 is_stmt 1
 917 0212 1A43     		orrs	r2, r2, r3
  94:Generated_Source\PSoC6\pdl\drivers\peripheral\i2s/cy_i2s.c ****                            _BOOL2FLD(I2S_TX_CTL_SCKI_POL, config->txSckiInversion) |
 918              		.loc 2 94 0
 919 0214 3B68     		ldr	r3, [r7]
 920 0216 9B7C     		ldrb	r3, [r3, #18]	@ zero_extendqisi2
 921 0218 002B     		cmp	r3, #0
 922 021a 07D0     		beq	.L47
 923              		.loc 2 94 0 is_stmt 0 discriminator 1
 924 021c 4FF00073 		mov	r3, #33554432
 925 0220 05E0     		b	.L48
 926              	.L85:
 927 0222 00BF     		.align	2
 928              	.L84:
 929 0224 01008200 		.word	8519681
 930 0228 3C000000 		.word	.LC1
 931              	.L47:
 932              		.loc 2 94 0 discriminator 2
 933 022c 0023     		movs	r3, #0
 934              	.L48:
  93:Generated_Source\PSoC6\pdl\drivers\peripheral\i2s/cy_i2s.c ****                            _BOOL2FLD(I2S_TX_CTL_SCKO_POL, config->txSckoInversion) |
 935              		.loc 2 93 0 is_stmt 1
 936 022e 1A43     		orrs	r2, r2, r3
  95:Generated_Source\PSoC6\pdl\drivers\peripheral\i2s/cy_i2s.c ****                            _VAL2FLD(I2S_TX_CTL_CH_LEN, channelLength) |
ARM GAS  C:\Users\ikomb\AppData\Local\Temp\cchnbsea.s 			page 38


 937              		.loc 2 95 0
 938 0230 BB7C     		ldrb	r3, [r7, #18]	@ zero_extendqisi2
 939 0232 1B04     		lsls	r3, r3, #16
 940 0234 03F4E023 		and	r3, r3, #458752
  94:Generated_Source\PSoC6\pdl\drivers\peripheral\i2s/cy_i2s.c ****                            _BOOL2FLD(I2S_TX_CTL_SCKI_POL, config->txSckiInversion) |
 941              		.loc 2 94 0
 942 0238 1A43     		orrs	r2, r2, r3
  96:Generated_Source\PSoC6\pdl\drivers\peripheral\i2s/cy_i2s.c ****                            _VAL2FLD(I2S_TX_CTL_WORD_LEN, config->txWordLength) |
 943              		.loc 2 96 0
 944 023a 3B68     		ldr	r3, [r7]
 945 023c 5B7D     		ldrb	r3, [r3, #21]	@ zero_extendqisi2
 946 023e 1B05     		lsls	r3, r3, #20
 947 0240 03F4E003 		and	r3, r3, #7340032
  95:Generated_Source\PSoC6\pdl\drivers\peripheral\i2s/cy_i2s.c ****                            _VAL2FLD(I2S_TX_CTL_CH_LEN, channelLength) |
 948              		.loc 2 95 0
 949 0244 1A43     		orrs	r2, r2, r3
  97:Generated_Source\PSoC6\pdl\drivers\peripheral\i2s/cy_i2s.c ****                            _VAL2FLD(I2S_TX_CTL_OVHDATA, config->txOverheadValue);
 950              		.loc 2 97 0
 951 0246 3B68     		ldr	r3, [r7]
 952 0248 9B7D     		ldrb	r3, [r3, #22]	@ zero_extendqisi2
 953 024a 1B03     		lsls	r3, r3, #12
 954 024c 03F48053 		and	r3, r3, #4096
  96:Generated_Source\PSoC6\pdl\drivers\peripheral\i2s/cy_i2s.c ****                            _VAL2FLD(I2S_TX_CTL_WORD_LEN, config->txWordLength) |
 955              		.loc 2 96 0
 956 0250 1A43     		orrs	r2, r2, r3
  87:Generated_Source\PSoC6\pdl\drivers\peripheral\i2s/cy_i2s.c ****                            _BOOL2FLD(I2S_TX_CTL_B_CLOCK_INV, config->txSdoLatchingTime) |
 957              		.loc 2 87 0
 958 0252 7B68     		ldr	r3, [r7, #4]
 959 0254 C3F88020 		str	r2, [r3, #128]
 960              	.L26:
  98:Generated_Source\PSoC6\pdl\drivers\peripheral\i2s/cy_i2s.c ****         }
  99:Generated_Source\PSoC6\pdl\drivers\peripheral\i2s/cy_i2s.c **** 
 100:Generated_Source\PSoC6\pdl\drivers\peripheral\i2s/cy_i2s.c ****         /* The Rx setting */
 101:Generated_Source\PSoC6\pdl\drivers\peripheral\i2s/cy_i2s.c ****         if (config->rxEnabled)
 961              		.loc 2 101 0
 962 0258 3B68     		ldr	r3, [r7]
 963 025a 5B78     		ldrb	r3, [r3, #1]	@ zero_extendqisi2
 964 025c 002B     		cmp	r3, #0
 965 025e 00F00681 		beq	.L49
 102:Generated_Source\PSoC6\pdl\drivers\peripheral\i2s/cy_i2s.c ****         {
 103:Generated_Source\PSoC6\pdl\drivers\peripheral\i2s/cy_i2s.c ****             CY_ASSERT_L3(CY_I2S_IS_ALIGNMENT_VALID(config->rxAlignment));
 966              		.loc 2 103 0
 967 0262 3B68     		ldr	r3, [r7]
 968 0264 5B7E     		ldrb	r3, [r3, #25]	@ zero_extendqisi2
 969 0266 002B     		cmp	r3, #0
 970 0268 0FD0     		beq	.L50
 971              		.loc 2 103 0 is_stmt 0 discriminator 1
 972 026a 3B68     		ldr	r3, [r7]
 973 026c 5B7E     		ldrb	r3, [r3, #25]	@ zero_extendqisi2
 974 026e 012B     		cmp	r3, #1
 975 0270 0BD0     		beq	.L50
 976              		.loc 2 103 0 discriminator 2
 977 0272 3B68     		ldr	r3, [r7]
 978 0274 5B7E     		ldrb	r3, [r3, #25]	@ zero_extendqisi2
 979 0276 022B     		cmp	r3, #2
 980 0278 07D0     		beq	.L50
 981              		.loc 2 103 0 discriminator 3
ARM GAS  C:\Users\ikomb\AppData\Local\Temp\cchnbsea.s 			page 39


 982 027a 3B68     		ldr	r3, [r7]
 983 027c 5B7E     		ldrb	r3, [r3, #25]	@ zero_extendqisi2
 984 027e 032B     		cmp	r3, #3
 985 0280 03D0     		beq	.L50
 986              		.loc 2 103 0 discriminator 4
 987 0282 6721     		movs	r1, #103
 988 0284 9E48     		ldr	r0, .L86
 989 0286 FFF7FEFF 		bl	Cy_SysLib_AssertFailed
 990              	.L50:
 104:Generated_Source\PSoC6\pdl\drivers\peripheral\i2s/cy_i2s.c ****             
 105:Generated_Source\PSoC6\pdl\drivers\peripheral\i2s/cy_i2s.c ****             if ((CY_I2S_TDM_MODE_A == config->rxAlignment) || (CY_I2S_TDM_MODE_B == config->rxAlign
 991              		.loc 2 105 0 is_stmt 1
 992 028a 3B68     		ldr	r3, [r7]
 993 028c 5B7E     		ldrb	r3, [r3, #25]	@ zero_extendqisi2
 994 028e 022B     		cmp	r3, #2
 995 0290 03D0     		beq	.L51
 996              		.loc 2 105 0 is_stmt 0 discriminator 1
 997 0292 3B68     		ldr	r3, [r7]
 998 0294 5B7E     		ldrb	r3, [r3, #25]	@ zero_extendqisi2
 999 0296 032B     		cmp	r3, #3
 1000 0298 3DD1     		bne	.L52
 1001              	.L51:
 106:Generated_Source\PSoC6\pdl\drivers\peripheral\i2s/cy_i2s.c ****             {
 107:Generated_Source\PSoC6\pdl\drivers\peripheral\i2s/cy_i2s.c ****                 channels = (uint32_t)config->rxChannels - 1UL;
 1002              		.loc 2 107 0 is_stmt 1
 1003 029a 3B68     		ldr	r3, [r7]
 1004 029c 93F82330 		ldrb	r3, [r3, #35]	@ zero_extendqisi2
 1005 02a0 013B     		subs	r3, r3, #1
 1006 02a2 FB60     		str	r3, [r7, #12]
 108:Generated_Source\PSoC6\pdl\drivers\peripheral\i2s/cy_i2s.c ****                 wsPulseWidth = config->rxWsPulseWidth;
 1007              		.loc 2 108 0
 1008 02a4 3B68     		ldr	r3, [r7]
 1009 02a6 9B7E     		ldrb	r3, [r3, #26]
 1010 02a8 FB74     		strb	r3, [r7, #19]
 109:Generated_Source\PSoC6\pdl\drivers\peripheral\i2s/cy_i2s.c ****                 channelLength = CY_I2S_LEN32;
 1011              		.loc 2 109 0
 1012 02aa 0523     		movs	r3, #5
 1013 02ac BB74     		strb	r3, [r7, #18]
 110:Generated_Source\PSoC6\pdl\drivers\peripheral\i2s/cy_i2s.c ****                 
 111:Generated_Source\PSoC6\pdl\drivers\peripheral\i2s/cy_i2s.c ****                 CY_ASSERT_L2(CY_I2S_IS_CHANNELS_VALID(channels));
 1014              		.loc 2 111 0
 1015 02ae FB68     		ldr	r3, [r7, #12]
 1016 02b0 072B     		cmp	r3, #7
 1017 02b2 03D9     		bls	.L53
 1018              		.loc 2 111 0 is_stmt 0 discriminator 1
 1019 02b4 6F21     		movs	r1, #111
 1020 02b6 9248     		ldr	r0, .L86
 1021 02b8 FFF7FEFF 		bl	Cy_SysLib_AssertFailed
 1022              	.L53:
 112:Generated_Source\PSoC6\pdl\drivers\peripheral\i2s/cy_i2s.c ****                 CY_ASSERT_L3(CY_I2S_IS_WSPULSE_VALID(wsPulseWidth));
 1023              		.loc 2 112 0 is_stmt 1
 1024 02bc FB7C     		ldrb	r3, [r7, #19]	@ zero_extendqisi2
 1025 02be 002B     		cmp	r3, #0
 1026 02c0 06D0     		beq	.L54
 1027              		.loc 2 112 0 is_stmt 0 discriminator 1
 1028 02c2 FB7C     		ldrb	r3, [r7, #19]	@ zero_extendqisi2
 1029 02c4 012B     		cmp	r3, #1
ARM GAS  C:\Users\ikomb\AppData\Local\Temp\cchnbsea.s 			page 40


 1030 02c6 03D0     		beq	.L54
 1031              		.loc 2 112 0 discriminator 2
 1032 02c8 7021     		movs	r1, #112
 1033 02ca 8D48     		ldr	r0, .L86
 1034 02cc FFF7FEFF 		bl	Cy_SysLib_AssertFailed
 1035              	.L54:
 113:Generated_Source\PSoC6\pdl\drivers\peripheral\i2s/cy_i2s.c ****                 CY_ASSERT_L3(CY_I2S_IS_LEN_VALID(config->rxWordLength));
 1036              		.loc 2 113 0 is_stmt 1
 1037 02d0 3B68     		ldr	r3, [r7]
 1038 02d2 93F82530 		ldrb	r3, [r3, #37]	@ zero_extendqisi2
 1039 02d6 002B     		cmp	r3, #0
 1040 02d8 60D0     		beq	.L83
 1041              		.loc 2 113 0 is_stmt 0 discriminator 1
 1042 02da 3B68     		ldr	r3, [r7]
 1043 02dc 93F82530 		ldrb	r3, [r3, #37]	@ zero_extendqisi2
 1044 02e0 012B     		cmp	r3, #1
 1045 02e2 5BD0     		beq	.L83
 1046              		.loc 2 113 0 discriminator 2
 1047 02e4 3B68     		ldr	r3, [r7]
 1048 02e6 93F82530 		ldrb	r3, [r3, #37]	@ zero_extendqisi2
 1049 02ea 022B     		cmp	r3, #2
 1050 02ec 56D0     		beq	.L83
 1051              		.loc 2 113 0 discriminator 3
 1052 02ee 3B68     		ldr	r3, [r7]
 1053 02f0 93F82530 		ldrb	r3, [r3, #37]	@ zero_extendqisi2
 1054 02f4 032B     		cmp	r3, #3
 1055 02f6 51D0     		beq	.L83
 1056              		.loc 2 113 0 discriminator 4
 1057 02f8 3B68     		ldr	r3, [r7]
 1058 02fa 93F82530 		ldrb	r3, [r3, #37]	@ zero_extendqisi2
 1059 02fe 042B     		cmp	r3, #4
 1060 0300 4CD0     		beq	.L83
 1061              		.loc 2 113 0 discriminator 5
 1062 0302 3B68     		ldr	r3, [r7]
 1063 0304 93F82530 		ldrb	r3, [r3, #37]	@ zero_extendqisi2
 1064 0308 052B     		cmp	r3, #5
 1065 030a 47D0     		beq	.L83
 1066              		.loc 2 113 0 discriminator 6
 1067 030c 7121     		movs	r1, #113
 1068 030e 7C48     		ldr	r0, .L86
 1069 0310 FFF7FEFF 		bl	Cy_SysLib_AssertFailed
 1070 0314 42E0     		b	.L83
 1071              	.L52:
 114:Generated_Source\PSoC6\pdl\drivers\peripheral\i2s/cy_i2s.c ****             }
 115:Generated_Source\PSoC6\pdl\drivers\peripheral\i2s/cy_i2s.c ****             else
 116:Generated_Source\PSoC6\pdl\drivers\peripheral\i2s/cy_i2s.c ****             {
 117:Generated_Source\PSoC6\pdl\drivers\peripheral\i2s/cy_i2s.c ****                 channels = 1UL;
 1072              		.loc 2 117 0 is_stmt 1
 1073 0316 0123     		movs	r3, #1
 1074 0318 FB60     		str	r3, [r7, #12]
 118:Generated_Source\PSoC6\pdl\drivers\peripheral\i2s/cy_i2s.c ****                 wsPulseWidth = CY_I2S_WS_ONE_CHANNEL_LENGTH;
 1075              		.loc 2 118 0
 1076 031a 0123     		movs	r3, #1
 1077 031c FB74     		strb	r3, [r7, #19]
 119:Generated_Source\PSoC6\pdl\drivers\peripheral\i2s/cy_i2s.c ****                 channelLength = config->rxChannelLength;
 1078              		.loc 2 119 0
 1079 031e 3B68     		ldr	r3, [r7]
ARM GAS  C:\Users\ikomb\AppData\Local\Temp\cchnbsea.s 			page 41


 1080 0320 93F82430 		ldrb	r3, [r3, #36]
 1081 0324 BB74     		strb	r3, [r7, #18]
 120:Generated_Source\PSoC6\pdl\drivers\peripheral\i2s/cy_i2s.c ****                 
 121:Generated_Source\PSoC6\pdl\drivers\peripheral\i2s/cy_i2s.c ****                 CY_ASSERT_L3(CY_I2S_IS_CHAN_WORD_VALID(channelLength, config->rxWordLength));
 1082              		.loc 2 121 0
 1083 0326 BB7C     		ldrb	r3, [r7, #18]	@ zero_extendqisi2
 1084 0328 002B     		cmp	r3, #0
 1085 032a 0ED0     		beq	.L57
 1086              		.loc 2 121 0 is_stmt 0 discriminator 1
 1087 032c BB7C     		ldrb	r3, [r7, #18]	@ zero_extendqisi2
 1088 032e 012B     		cmp	r3, #1
 1089 0330 0BD0     		beq	.L57
 1090              		.loc 2 121 0 discriminator 3
 1091 0332 BB7C     		ldrb	r3, [r7, #18]	@ zero_extendqisi2
 1092 0334 022B     		cmp	r3, #2
 1093 0336 08D0     		beq	.L57
 1094              		.loc 2 121 0 discriminator 5
 1095 0338 BB7C     		ldrb	r3, [r7, #18]	@ zero_extendqisi2
 1096 033a 032B     		cmp	r3, #3
 1097 033c 05D0     		beq	.L57
 1098              		.loc 2 121 0 discriminator 7
 1099 033e BB7C     		ldrb	r3, [r7, #18]	@ zero_extendqisi2
 1100 0340 042B     		cmp	r3, #4
 1101 0342 02D0     		beq	.L57
 1102              		.loc 2 121 0 discriminator 9
 1103 0344 BB7C     		ldrb	r3, [r7, #18]	@ zero_extendqisi2
 1104 0346 052B     		cmp	r3, #5
 1105 0348 23D1     		bne	.L58
 1106              	.L57:
 1107              		.loc 2 121 0 discriminator 12
 1108 034a 3B68     		ldr	r3, [r7]
 1109 034c 93F82530 		ldrb	r3, [r3, #37]	@ zero_extendqisi2
 1110 0350 002B     		cmp	r3, #0
 1111 0352 18D0     		beq	.L59
 1112              		.loc 2 121 0 discriminator 13
 1113 0354 3B68     		ldr	r3, [r7]
 1114 0356 93F82530 		ldrb	r3, [r3, #37]	@ zero_extendqisi2
 1115 035a 012B     		cmp	r3, #1
 1116 035c 13D0     		beq	.L59
 1117              		.loc 2 121 0 discriminator 15
 1118 035e 3B68     		ldr	r3, [r7]
 1119 0360 93F82530 		ldrb	r3, [r3, #37]	@ zero_extendqisi2
 1120 0364 022B     		cmp	r3, #2
 1121 0366 0ED0     		beq	.L59
 1122              		.loc 2 121 0 discriminator 17
 1123 0368 3B68     		ldr	r3, [r7]
 1124 036a 93F82530 		ldrb	r3, [r3, #37]	@ zero_extendqisi2
 1125 036e 032B     		cmp	r3, #3
 1126 0370 09D0     		beq	.L59
 1127              		.loc 2 121 0 discriminator 19
 1128 0372 3B68     		ldr	r3, [r7]
 1129 0374 93F82530 		ldrb	r3, [r3, #37]	@ zero_extendqisi2
 1130 0378 042B     		cmp	r3, #4
 1131 037a 04D0     		beq	.L59
 1132              		.loc 2 121 0 discriminator 21
 1133 037c 3B68     		ldr	r3, [r7]
 1134 037e 93F82530 		ldrb	r3, [r3, #37]	@ zero_extendqisi2
ARM GAS  C:\Users\ikomb\AppData\Local\Temp\cchnbsea.s 			page 42


 1135 0382 052B     		cmp	r3, #5
 1136 0384 05D1     		bne	.L58
 1137              	.L59:
 1138              		.loc 2 121 0 discriminator 24
 1139 0386 3B68     		ldr	r3, [r7]
 1140 0388 93F82530 		ldrb	r3, [r3, #37]	@ zero_extendqisi2
 1141 038c BA7C     		ldrb	r2, [r7, #18]	@ zero_extendqisi2
 1142 038e 9A42     		cmp	r2, r3
 1143 0390 05D2     		bcs	.L56
 1144              	.L58:
 1145              		.loc 2 121 0 discriminator 25
 1146 0392 7921     		movs	r1, #121
 1147 0394 5A48     		ldr	r0, .L86
 1148 0396 FFF7FEFF 		bl	Cy_SysLib_AssertFailed
 1149 039a 00E0     		b	.L56
 1150              	.L83:
 113:Generated_Source\PSoC6\pdl\drivers\peripheral\i2s/cy_i2s.c ****             }
 1151              		.loc 2 113 0 is_stmt 1
 1152 039c 00BF     		nop
 1153              	.L56:
 122:Generated_Source\PSoC6\pdl\drivers\peripheral\i2s/cy_i2s.c ****             }
 123:Generated_Source\PSoC6\pdl\drivers\peripheral\i2s/cy_i2s.c ****             
 124:Generated_Source\PSoC6\pdl\drivers\peripheral\i2s/cy_i2s.c ****             CY_ASSERT_L2(CY_I2S_IS_TRIG_LEVEL_VALID(config->rxFifoTriggerLevel, channels));
 1154              		.loc 2 124 0
 1155 039e 3B68     		ldr	r3, [r7]
 1156 03a0 93F82730 		ldrb	r3, [r3, #39]	@ zero_extendqisi2
 1157 03a4 1A46     		mov	r2, r3
 1158 03a6 FB68     		ldr	r3, [r7, #12]
 1159 03a8 C3F1FF03 		rsb	r3, r3, #255
 1160 03ac 9A42     		cmp	r2, r3
 1161 03ae 03D9     		bls	.L60
 1162              		.loc 2 124 0 is_stmt 0 discriminator 1
 1163 03b0 7C21     		movs	r1, #124
 1164 03b2 5348     		ldr	r0, .L86
 1165 03b4 FFF7FEFF 		bl	Cy_SysLib_AssertFailed
 1166              	.L60:
 125:Generated_Source\PSoC6\pdl\drivers\peripheral\i2s/cy_i2s.c **** 
 126:Generated_Source\PSoC6\pdl\drivers\peripheral\i2s/cy_i2s.c ****             base->RX_WATCHDOG = config->rxWatchdogValue;
 1167              		.loc 2 126 0 is_stmt 1
 1168 03b8 3B68     		ldr	r3, [r7]
 1169 03ba DA69     		ldr	r2, [r3, #28]
 1170 03bc 7B68     		ldr	r3, [r7, #4]
 1171 03be C3F8A420 		str	r2, [r3, #164]
 127:Generated_Source\PSoC6\pdl\drivers\peripheral\i2s/cy_i2s.c **** 
 128:Generated_Source\PSoC6\pdl\drivers\peripheral\i2s/cy_i2s.c ****             base->RX_CTL = _VAL2FLD(I2S_RX_CTL_I2S_MODE, config->rxAlignment) |
 1172              		.loc 2 128 0
 1173 03c2 3B68     		ldr	r3, [r7]
 1174 03c4 5B7E     		ldrb	r3, [r3, #25]	@ zero_extendqisi2
 1175 03c6 1B02     		lsls	r3, r3, #8
 1176 03c8 03F44072 		and	r2, r3, #768
 129:Generated_Source\PSoC6\pdl\drivers\peripheral\i2s/cy_i2s.c ****                            _BOOL2FLD(I2S_RX_CTL_B_CLOCK_INV, config->rxSdiLatchingTime) |
 1177              		.loc 2 129 0
 1178 03cc 3B68     		ldr	r3, [r7]
 1179 03ce 93F82030 		ldrb	r3, [r3, #32]	@ zero_extendqisi2
 1180 03d2 002B     		cmp	r3, #0
 1181 03d4 01D0     		beq	.L61
 1182              		.loc 2 129 0 is_stmt 0 discriminator 1
ARM GAS  C:\Users\ikomb\AppData\Local\Temp\cchnbsea.s 			page 43


 1183 03d6 0823     		movs	r3, #8
 1184 03d8 00E0     		b	.L62
 1185              	.L61:
 1186              		.loc 2 129 0 discriminator 2
 1187 03da 0023     		movs	r3, #0
 1188              	.L62:
 128:Generated_Source\PSoC6\pdl\drivers\peripheral\i2s/cy_i2s.c ****                            _BOOL2FLD(I2S_RX_CTL_B_CLOCK_INV, config->rxSdiLatchingTime) |
 1189              		.loc 2 128 0 is_stmt 1
 1190 03dc 1A43     		orrs	r2, r2, r3
 130:Generated_Source\PSoC6\pdl\drivers\peripheral\i2s/cy_i2s.c ****                            _VAL2FLD(I2S_RX_CTL_CH_NR, channels) |
 1191              		.loc 2 130 0
 1192 03de FB68     		ldr	r3, [r7, #12]
 1193 03e0 1B01     		lsls	r3, r3, #4
 1194 03e2 03F07003 		and	r3, r3, #112
 129:Generated_Source\PSoC6\pdl\drivers\peripheral\i2s/cy_i2s.c ****                            _BOOL2FLD(I2S_RX_CTL_B_CLOCK_INV, config->rxSdiLatchingTime) |
 1195              		.loc 2 129 0
 1196 03e6 1A43     		orrs	r2, r2, r3
 131:Generated_Source\PSoC6\pdl\drivers\peripheral\i2s/cy_i2s.c ****                            _BOOL2FLD(I2S_RX_CTL_MS, config->rxMasterMode) |
 1197              		.loc 2 131 0
 1198 03e8 3B68     		ldr	r3, [r7]
 1199 03ea 1B7E     		ldrb	r3, [r3, #24]	@ zero_extendqisi2
 1200 03ec 002B     		cmp	r3, #0
 1201 03ee 01D0     		beq	.L63
 1202              		.loc 2 131 0 is_stmt 0 discriminator 1
 1203 03f0 8023     		movs	r3, #128
 1204 03f2 00E0     		b	.L64
 1205              	.L63:
 1206              		.loc 2 131 0 discriminator 2
 1207 03f4 0023     		movs	r3, #0
 1208              	.L64:
 130:Generated_Source\PSoC6\pdl\drivers\peripheral\i2s/cy_i2s.c ****                            _VAL2FLD(I2S_RX_CTL_CH_NR, channels) |
 1209              		.loc 2 130 0 is_stmt 1
 1210 03f6 1A43     		orrs	r2, r2, r3
 132:Generated_Source\PSoC6\pdl\drivers\peripheral\i2s/cy_i2s.c ****                            _VAL2FLD(I2S_RX_CTL_WS_PULSE, wsPulseWidth) |
 1211              		.loc 2 132 0
 1212 03f8 FB7C     		ldrb	r3, [r7, #19]	@ zero_extendqisi2
 1213 03fa 9B02     		lsls	r3, r3, #10
 1214 03fc 03F48063 		and	r3, r3, #1024
 131:Generated_Source\PSoC6\pdl\drivers\peripheral\i2s/cy_i2s.c ****                            _BOOL2FLD(I2S_RX_CTL_MS, config->rxMasterMode) |
 1215              		.loc 2 131 0
 1216 0400 1A43     		orrs	r2, r2, r3
 133:Generated_Source\PSoC6\pdl\drivers\peripheral\i2s/cy_i2s.c ****                            _BOOL2FLD(I2S_RX_CTL_WD_EN, config->rxWatchdogEnable) |
 1217              		.loc 2 133 0
 1218 0402 3B68     		ldr	r3, [r7]
 1219 0404 DB7E     		ldrb	r3, [r3, #27]	@ zero_extendqisi2
 1220 0406 002B     		cmp	r3, #0
 1221 0408 02D0     		beq	.L65
 1222              		.loc 2 133 0 is_stmt 0 discriminator 1
 1223 040a 4FF40053 		mov	r3, #8192
 1224 040e 00E0     		b	.L66
 1225              	.L65:
 1226              		.loc 2 133 0 discriminator 2
 1227 0410 0023     		movs	r3, #0
 1228              	.L66:
 132:Generated_Source\PSoC6\pdl\drivers\peripheral\i2s/cy_i2s.c ****                            _VAL2FLD(I2S_RX_CTL_WS_PULSE, wsPulseWidth) |
 1229              		.loc 2 132 0 is_stmt 1
 1230 0412 1A43     		orrs	r2, r2, r3
ARM GAS  C:\Users\ikomb\AppData\Local\Temp\cchnbsea.s 			page 44


 134:Generated_Source\PSoC6\pdl\drivers\peripheral\i2s/cy_i2s.c ****                            _BOOL2FLD(I2S_RX_CTL_SCKO_POL, config->rxSckoInversion) |
 1231              		.loc 2 134 0
 1232 0414 3B68     		ldr	r3, [r7]
 1233 0416 93F82130 		ldrb	r3, [r3, #33]	@ zero_extendqisi2
 1234 041a 002B     		cmp	r3, #0
 1235 041c 02D0     		beq	.L67
 1236              		.loc 2 134 0 is_stmt 0 discriminator 1
 1237 041e 4FF08073 		mov	r3, #16777216
 1238 0422 00E0     		b	.L68
 1239              	.L67:
 1240              		.loc 2 134 0 discriminator 2
 1241 0424 0023     		movs	r3, #0
 1242              	.L68:
 133:Generated_Source\PSoC6\pdl\drivers\peripheral\i2s/cy_i2s.c ****                            _BOOL2FLD(I2S_RX_CTL_WD_EN, config->rxWatchdogEnable) |
 1243              		.loc 2 133 0 is_stmt 1
 1244 0426 1A43     		orrs	r2, r2, r3
 135:Generated_Source\PSoC6\pdl\drivers\peripheral\i2s/cy_i2s.c ****                            _BOOL2FLD(I2S_RX_CTL_SCKI_POL, config->rxSckiInversion) |
 1245              		.loc 2 135 0
 1246 0428 3B68     		ldr	r3, [r7]
 1247 042a 93F82230 		ldrb	r3, [r3, #34]	@ zero_extendqisi2
 1248 042e 002B     		cmp	r3, #0
 1249 0430 02D0     		beq	.L69
 1250              		.loc 2 135 0 is_stmt 0 discriminator 1
 1251 0432 4FF00073 		mov	r3, #33554432
 1252 0436 00E0     		b	.L70
 1253              	.L69:
 1254              		.loc 2 135 0 discriminator 2
 1255 0438 0023     		movs	r3, #0
 1256              	.L70:
 134:Generated_Source\PSoC6\pdl\drivers\peripheral\i2s/cy_i2s.c ****                            _BOOL2FLD(I2S_RX_CTL_SCKO_POL, config->rxSckoInversion) |
 1257              		.loc 2 134 0 is_stmt 1
 1258 043a 1A43     		orrs	r2, r2, r3
 136:Generated_Source\PSoC6\pdl\drivers\peripheral\i2s/cy_i2s.c ****                            _VAL2FLD(I2S_RX_CTL_CH_LEN, channelLength) |
 1259              		.loc 2 136 0
 1260 043c BB7C     		ldrb	r3, [r7, #18]	@ zero_extendqisi2
 1261 043e 1B04     		lsls	r3, r3, #16
 1262 0440 03F4E023 		and	r3, r3, #458752
 135:Generated_Source\PSoC6\pdl\drivers\peripheral\i2s/cy_i2s.c ****                            _BOOL2FLD(I2S_RX_CTL_SCKI_POL, config->rxSckiInversion) |
 1263              		.loc 2 135 0
 1264 0444 1A43     		orrs	r2, r2, r3
 137:Generated_Source\PSoC6\pdl\drivers\peripheral\i2s/cy_i2s.c ****                            _VAL2FLD(I2S_RX_CTL_WORD_LEN, config->rxWordLength) |
 1265              		.loc 2 137 0
 1266 0446 3B68     		ldr	r3, [r7]
 1267 0448 93F82530 		ldrb	r3, [r3, #37]	@ zero_extendqisi2
 1268 044c 1B05     		lsls	r3, r3, #20
 1269 044e 03F4E003 		and	r3, r3, #7340032
 136:Generated_Source\PSoC6\pdl\drivers\peripheral\i2s/cy_i2s.c ****                            _VAL2FLD(I2S_RX_CTL_CH_LEN, channelLength) |
 1270              		.loc 2 136 0
 1271 0452 1A43     		orrs	r2, r2, r3
 138:Generated_Source\PSoC6\pdl\drivers\peripheral\i2s/cy_i2s.c ****                            _BOOL2FLD(I2S_RX_CTL_BIT_EXTENSION, config->rxSignExtension);
 1272              		.loc 2 138 0
 1273 0454 3B68     		ldr	r3, [r7]
 1274 0456 93F82630 		ldrb	r3, [r3, #38]	@ zero_extendqisi2
 1275 045a 002B     		cmp	r3, #0
 1276 045c 02D0     		beq	.L71
 1277              		.loc 2 138 0 is_stmt 0 discriminator 1
 1278 045e 4FF40003 		mov	r3, #8388608
ARM GAS  C:\Users\ikomb\AppData\Local\Temp\cchnbsea.s 			page 45


 1279 0462 00E0     		b	.L72
 1280              	.L71:
 1281              		.loc 2 138 0 discriminator 2
 1282 0464 0023     		movs	r3, #0
 1283              	.L72:
 137:Generated_Source\PSoC6\pdl\drivers\peripheral\i2s/cy_i2s.c ****                            _VAL2FLD(I2S_RX_CTL_WORD_LEN, config->rxWordLength) |
 1284              		.loc 2 137 0 is_stmt 1
 1285 0466 1A43     		orrs	r2, r2, r3
 128:Generated_Source\PSoC6\pdl\drivers\peripheral\i2s/cy_i2s.c ****                            _BOOL2FLD(I2S_RX_CTL_B_CLOCK_INV, config->rxSdiLatchingTime) |
 1286              		.loc 2 128 0
 1287 0468 7B68     		ldr	r3, [r7, #4]
 1288 046a C3F8A020 		str	r2, [r3, #160]
 1289              	.L49:
 139:Generated_Source\PSoC6\pdl\drivers\peripheral\i2s/cy_i2s.c ****         }
 140:Generated_Source\PSoC6\pdl\drivers\peripheral\i2s/cy_i2s.c **** 
 141:Generated_Source\PSoC6\pdl\drivers\peripheral\i2s/cy_i2s.c ****         /* The I2S enable setting */
 142:Generated_Source\PSoC6\pdl\drivers\peripheral\i2s/cy_i2s.c ****         if (config->txEnabled)
 1290              		.loc 2 142 0
 1291 046e 3B68     		ldr	r3, [r7]
 1292 0470 1B78     		ldrb	r3, [r3]	@ zero_extendqisi2
 1293 0472 002B     		cmp	r3, #0
 1294 0474 05D0     		beq	.L73
 143:Generated_Source\PSoC6\pdl\drivers\peripheral\i2s/cy_i2s.c ****         {
 144:Generated_Source\PSoC6\pdl\drivers\peripheral\i2s/cy_i2s.c ****             base->CTL |= I2S_CTL_TX_ENABLED_Msk;
 1295              		.loc 2 144 0
 1296 0476 7B68     		ldr	r3, [r7, #4]
 1297 0478 1B68     		ldr	r3, [r3]
 1298 047a 43F08042 		orr	r2, r3, #1073741824
 1299 047e 7B68     		ldr	r3, [r7, #4]
 1300 0480 1A60     		str	r2, [r3]
 1301              	.L73:
 145:Generated_Source\PSoC6\pdl\drivers\peripheral\i2s/cy_i2s.c ****         }
 146:Generated_Source\PSoC6\pdl\drivers\peripheral\i2s/cy_i2s.c **** 
 147:Generated_Source\PSoC6\pdl\drivers\peripheral\i2s/cy_i2s.c ****         if (config->rxEnabled)
 1302              		.loc 2 147 0
 1303 0482 3B68     		ldr	r3, [r7]
 1304 0484 5B78     		ldrb	r3, [r3, #1]	@ zero_extendqisi2
 1305 0486 002B     		cmp	r3, #0
 1306 0488 05D0     		beq	.L74
 148:Generated_Source\PSoC6\pdl\drivers\peripheral\i2s/cy_i2s.c ****         {
 149:Generated_Source\PSoC6\pdl\drivers\peripheral\i2s/cy_i2s.c ****             base->CTL |= I2S_CTL_RX_ENABLED_Msk;
 1307              		.loc 2 149 0
 1308 048a 7B68     		ldr	r3, [r7, #4]
 1309 048c 1B68     		ldr	r3, [r3]
 1310 048e 43F00042 		orr	r2, r3, #-2147483648
 1311 0492 7B68     		ldr	r3, [r7, #4]
 1312 0494 1A60     		str	r2, [r3]
 1313              	.L74:
 150:Generated_Source\PSoC6\pdl\drivers\peripheral\i2s/cy_i2s.c ****         }
 151:Generated_Source\PSoC6\pdl\drivers\peripheral\i2s/cy_i2s.c **** 
 152:Generated_Source\PSoC6\pdl\drivers\peripheral\i2s/cy_i2s.c ****         /* The FIFO setting */
 153:Generated_Source\PSoC6\pdl\drivers\peripheral\i2s/cy_i2s.c ****         if (config->txEnabled)
 1314              		.loc 2 153 0
 1315 0496 3B68     		ldr	r3, [r7]
 1316 0498 1B78     		ldrb	r3, [r3]	@ zero_extendqisi2
 1317 049a 002B     		cmp	r3, #0
 1318 049c 11D0     		beq	.L75
ARM GAS  C:\Users\ikomb\AppData\Local\Temp\cchnbsea.s 			page 46


 154:Generated_Source\PSoC6\pdl\drivers\peripheral\i2s/cy_i2s.c ****         {
 155:Generated_Source\PSoC6\pdl\drivers\peripheral\i2s/cy_i2s.c ****             base->TX_FIFO_CTL = _VAL2FLD(I2S_TX_FIFO_CTL_TRIGGER_LEVEL, config->txFifoTriggerLevel)
 1319              		.loc 2 155 0
 1320 049e 3B68     		ldr	r3, [r7]
 1321 04a0 DB7D     		ldrb	r3, [r3, #23]	@ zero_extendqisi2
 1322 04a2 1A46     		mov	r2, r3
 1323 04a4 7B68     		ldr	r3, [r7, #4]
 1324 04a6 C3F80022 		str	r2, [r3, #512]
 156:Generated_Source\PSoC6\pdl\drivers\peripheral\i2s/cy_i2s.c **** 
 157:Generated_Source\PSoC6\pdl\drivers\peripheral\i2s/cy_i2s.c ****             base->TR_CTL |= _BOOL2FLD(I2S_TR_CTL_TX_REQ_EN, config->txDmaTrigger);
 1325              		.loc 2 157 0
 1326 04aa 7B68     		ldr	r3, [r7, #4]
 1327 04ac 1A6C     		ldr	r2, [r3, #64]
 1328 04ae 3B68     		ldr	r3, [r7]
 1329 04b0 9B78     		ldrb	r3, [r3, #2]	@ zero_extendqisi2
 1330 04b2 002B     		cmp	r3, #0
 1331 04b4 01D0     		beq	.L76
 1332              		.loc 2 157 0 is_stmt 0 discriminator 1
 1333 04b6 0123     		movs	r3, #1
 1334 04b8 00E0     		b	.L77
 1335              	.L76:
 1336              		.loc 2 157 0 discriminator 2
 1337 04ba 0023     		movs	r3, #0
 1338              	.L77:
 1339              		.loc 2 157 0 discriminator 4
 1340 04bc 1A43     		orrs	r2, r2, r3
 1341 04be 7B68     		ldr	r3, [r7, #4]
 1342 04c0 1A64     		str	r2, [r3, #64]
 1343              	.L75:
 158:Generated_Source\PSoC6\pdl\drivers\peripheral\i2s/cy_i2s.c ****         }
 159:Generated_Source\PSoC6\pdl\drivers\peripheral\i2s/cy_i2s.c **** 
 160:Generated_Source\PSoC6\pdl\drivers\peripheral\i2s/cy_i2s.c ****         if (config->rxEnabled)
 1344              		.loc 2 160 0 is_stmt 1
 1345 04c2 3B68     		ldr	r3, [r7]
 1346 04c4 5B78     		ldrb	r3, [r3, #1]	@ zero_extendqisi2
 1347 04c6 002B     		cmp	r3, #0
 1348 04c8 13D0     		beq	.L78
 161:Generated_Source\PSoC6\pdl\drivers\peripheral\i2s/cy_i2s.c ****         {
 162:Generated_Source\PSoC6\pdl\drivers\peripheral\i2s/cy_i2s.c ****             base->RX_FIFO_CTL = _VAL2FLD(I2S_RX_FIFO_CTL_TRIGGER_LEVEL, config->rxFifoTriggerLevel)
 1349              		.loc 2 162 0
 1350 04ca 3B68     		ldr	r3, [r7]
 1351 04cc 93F82730 		ldrb	r3, [r3, #39]	@ zero_extendqisi2
 1352 04d0 1A46     		mov	r2, r3
 1353 04d2 7B68     		ldr	r3, [r7, #4]
 1354 04d4 C3F80023 		str	r2, [r3, #768]
 163:Generated_Source\PSoC6\pdl\drivers\peripheral\i2s/cy_i2s.c **** 
 164:Generated_Source\PSoC6\pdl\drivers\peripheral\i2s/cy_i2s.c ****             base->TR_CTL |= _BOOL2FLD(I2S_TR_CTL_RX_REQ_EN, config->rxDmaTrigger);
 1355              		.loc 2 164 0
 1356 04d8 7B68     		ldr	r3, [r7, #4]
 1357 04da 1A6C     		ldr	r2, [r3, #64]
 1358 04dc 3B68     		ldr	r3, [r7]
 1359 04de DB78     		ldrb	r3, [r3, #3]	@ zero_extendqisi2
 1360 04e0 002B     		cmp	r3, #0
 1361 04e2 02D0     		beq	.L79
 1362              		.loc 2 164 0 is_stmt 0 discriminator 1
 1363 04e4 4FF48033 		mov	r3, #65536
 1364 04e8 00E0     		b	.L80
ARM GAS  C:\Users\ikomb\AppData\Local\Temp\cchnbsea.s 			page 47


 1365              	.L79:
 1366              		.loc 2 164 0 discriminator 2
 1367 04ea 0023     		movs	r3, #0
 1368              	.L80:
 1369              		.loc 2 164 0 discriminator 4
 1370 04ec 1A43     		orrs	r2, r2, r3
 1371 04ee 7B68     		ldr	r3, [r7, #4]
 1372 04f0 1A64     		str	r2, [r3, #64]
 1373              	.L78:
 165:Generated_Source\PSoC6\pdl\drivers\peripheral\i2s/cy_i2s.c ****         }
 166:Generated_Source\PSoC6\pdl\drivers\peripheral\i2s/cy_i2s.c ****         
 167:Generated_Source\PSoC6\pdl\drivers\peripheral\i2s/cy_i2s.c ****         ret = CY_I2S_SUCCESS;
 1374              		.loc 2 167 0 is_stmt 1
 1375 04f2 0023     		movs	r3, #0
 1376 04f4 7B61     		str	r3, [r7, #20]
 1377              	.L22:
 1378              	.LBE2:
 168:Generated_Source\PSoC6\pdl\drivers\peripheral\i2s/cy_i2s.c ****     }
 169:Generated_Source\PSoC6\pdl\drivers\peripheral\i2s/cy_i2s.c **** 
 170:Generated_Source\PSoC6\pdl\drivers\peripheral\i2s/cy_i2s.c ****     return (ret);
 1379              		.loc 2 170 0
 1380 04f6 7B69     		ldr	r3, [r7, #20]
 171:Generated_Source\PSoC6\pdl\drivers\peripheral\i2s/cy_i2s.c **** }
 1381              		.loc 2 171 0
 1382 04f8 1846     		mov	r0, r3
 1383 04fa 1837     		adds	r7, r7, #24
 1384              		.cfi_def_cfa_offset 8
 1385 04fc BD46     		mov	sp, r7
 1386              		.cfi_def_cfa_register 13
 1387              		@ sp needed
 1388 04fe 80BD     		pop	{r7, pc}
 1389              	.L87:
 1390              		.align	2
 1391              	.L86:
 1392 0500 3C000000 		.word	.LC1
 1393              		.cfi_endproc
 1394              	.LFE186:
 1395              		.size	Cy_I2S_Init, .-Cy_I2S_Init
 1396              		.section	.text.Cy_I2S_DeInit,"ax",%progbits
 1397              		.align	2
 1398              		.global	Cy_I2S_DeInit
 1399              		.thumb
 1400              		.thumb_func
 1401              		.type	Cy_I2S_DeInit, %function
 1402              	Cy_I2S_DeInit:
 1403              	.LFB187:
 172:Generated_Source\PSoC6\pdl\drivers\peripheral\i2s/cy_i2s.c **** 
 173:Generated_Source\PSoC6\pdl\drivers\peripheral\i2s/cy_i2s.c **** 
 174:Generated_Source\PSoC6\pdl\drivers\peripheral\i2s/cy_i2s.c **** /*******************************************************************************
 175:Generated_Source\PSoC6\pdl\drivers\peripheral\i2s/cy_i2s.c **** * Function Name: Cy_I2S_DeInit
 176:Generated_Source\PSoC6\pdl\drivers\peripheral\i2s/cy_i2s.c **** ****************************************************************************//**
 177:Generated_Source\PSoC6\pdl\drivers\peripheral\i2s/cy_i2s.c **** *
 178:Generated_Source\PSoC6\pdl\drivers\peripheral\i2s/cy_i2s.c **** * Uninitializes the I2S module (reverts default register values).
 179:Generated_Source\PSoC6\pdl\drivers\peripheral\i2s/cy_i2s.c **** *
 180:Generated_Source\PSoC6\pdl\drivers\peripheral\i2s/cy_i2s.c **** * \param base The pointer to the I2S instance address.
 181:Generated_Source\PSoC6\pdl\drivers\peripheral\i2s/cy_i2s.c **** *
 182:Generated_Source\PSoC6\pdl\drivers\peripheral\i2s/cy_i2s.c **** * \funcusage
ARM GAS  C:\Users\ikomb\AppData\Local\Temp\cchnbsea.s 			page 48


 183:Generated_Source\PSoC6\pdl\drivers\peripheral\i2s/cy_i2s.c **** * \snippet i2s/i2s_v2_0_sut_00.cydsn/main_cm4.c snippet_Cy_I2S_DeInit
 184:Generated_Source\PSoC6\pdl\drivers\peripheral\i2s/cy_i2s.c **** *
 185:Generated_Source\PSoC6\pdl\drivers\peripheral\i2s/cy_i2s.c **** *******************************************************************************/
 186:Generated_Source\PSoC6\pdl\drivers\peripheral\i2s/cy_i2s.c **** void Cy_I2S_DeInit(I2S_Type * base)
 187:Generated_Source\PSoC6\pdl\drivers\peripheral\i2s/cy_i2s.c **** {
 1404              		.loc 2 187 0
 1405              		.cfi_startproc
 1406              		@ args = 0, pretend = 0, frame = 8
 1407              		@ frame_needed = 1, uses_anonymous_args = 0
 1408              		@ link register save eliminated.
 1409 0000 80B4     		push	{r7}
 1410              		.cfi_def_cfa_offset 4
 1411              		.cfi_offset 7, -4
 1412 0002 83B0     		sub	sp, sp, #12
 1413              		.cfi_def_cfa_offset 16
 1414 0004 00AF     		add	r7, sp, #0
 1415              		.cfi_def_cfa_register 7
 1416 0006 7860     		str	r0, [r7, #4]
 188:Generated_Source\PSoC6\pdl\drivers\peripheral\i2s/cy_i2s.c ****     base->INTR_MASK = 0UL; /* Disable interrupts prior to stopping the operation */
 1417              		.loc 2 188 0
 1418 0008 7B68     		ldr	r3, [r7, #4]
 1419 000a 0022     		movs	r2, #0
 1420 000c C3F8082F 		str	r2, [r3, #3848]
 189:Generated_Source\PSoC6\pdl\drivers\peripheral\i2s/cy_i2s.c ****     base->CMD = 0UL;
 1421              		.loc 2 189 0
 1422 0010 7B68     		ldr	r3, [r7, #4]
 1423 0012 0022     		movs	r2, #0
 1424 0014 1A62     		str	r2, [r3, #32]
 190:Generated_Source\PSoC6\pdl\drivers\peripheral\i2s/cy_i2s.c ****     base->TR_CTL = 0UL;
 1425              		.loc 2 190 0
 1426 0016 7B68     		ldr	r3, [r7, #4]
 1427 0018 0022     		movs	r2, #0
 1428 001a 1A64     		str	r2, [r3, #64]
 191:Generated_Source\PSoC6\pdl\drivers\peripheral\i2s/cy_i2s.c ****     base->TX_FIFO_CTL = 0UL;
 1429              		.loc 2 191 0
 1430 001c 7B68     		ldr	r3, [r7, #4]
 1431 001e 0022     		movs	r2, #0
 1432 0020 C3F80022 		str	r2, [r3, #512]
 192:Generated_Source\PSoC6\pdl\drivers\peripheral\i2s/cy_i2s.c ****     base->RX_FIFO_CTL = 0UL;
 1433              		.loc 2 192 0
 1434 0024 7B68     		ldr	r3, [r7, #4]
 1435 0026 0022     		movs	r2, #0
 1436 0028 C3F80023 		str	r2, [r3, #768]
 193:Generated_Source\PSoC6\pdl\drivers\peripheral\i2s/cy_i2s.c ****     base->CTL = 0UL;
 1437              		.loc 2 193 0
 1438 002c 7B68     		ldr	r3, [r7, #4]
 1439 002e 0022     		movs	r2, #0
 1440 0030 1A60     		str	r2, [r3]
 194:Generated_Source\PSoC6\pdl\drivers\peripheral\i2s/cy_i2s.c ****     base->TX_CTL = CY_I2S_TX_CTL_DEFAULT;
 1441              		.loc 2 194 0
 1442 0032 7B68     		ldr	r3, [r7, #4]
 1443 0034 0B4A     		ldr	r2, .L89
 1444 0036 C3F88020 		str	r2, [r3, #128]
 195:Generated_Source\PSoC6\pdl\drivers\peripheral\i2s/cy_i2s.c ****     base->RX_CTL = CY_I2S_RX_CTL_DEFAULT;
 1445              		.loc 2 195 0
 1446 003a 7B68     		ldr	r3, [r7, #4]
 1447 003c 094A     		ldr	r2, .L89
ARM GAS  C:\Users\ikomb\AppData\Local\Temp\cchnbsea.s 			page 49


 1448 003e C3F8A020 		str	r2, [r3, #160]
 196:Generated_Source\PSoC6\pdl\drivers\peripheral\i2s/cy_i2s.c ****     base->TX_WATCHDOG = 0UL;
 1449              		.loc 2 196 0
 1450 0042 7B68     		ldr	r3, [r7, #4]
 1451 0044 0022     		movs	r2, #0
 1452 0046 C3F88420 		str	r2, [r3, #132]
 197:Generated_Source\PSoC6\pdl\drivers\peripheral\i2s/cy_i2s.c ****     base->RX_WATCHDOG = 0UL;
 1453              		.loc 2 197 0
 1454 004a 7B68     		ldr	r3, [r7, #4]
 1455 004c 0022     		movs	r2, #0
 1456 004e C3F8A420 		str	r2, [r3, #164]
 198:Generated_Source\PSoC6\pdl\drivers\peripheral\i2s/cy_i2s.c ****     base->CLOCK_CTL = 0UL;
 1457              		.loc 2 198 0
 1458 0052 7B68     		ldr	r3, [r7, #4]
 1459 0054 0022     		movs	r2, #0
 1460 0056 1A61     		str	r2, [r3, #16]
 199:Generated_Source\PSoC6\pdl\drivers\peripheral\i2s/cy_i2s.c **** }
 1461              		.loc 2 199 0
 1462 0058 00BF     		nop
 1463 005a 0C37     		adds	r7, r7, #12
 1464              		.cfi_def_cfa_offset 4
 1465 005c BD46     		mov	sp, r7
 1466              		.cfi_def_cfa_register 13
 1467              		@ sp needed
 1468 005e 5DF8047B 		ldr	r7, [sp], #4
 1469              		.cfi_restore 7
 1470              		.cfi_def_cfa_offset 0
 1471 0062 7047     		bx	lr
 1472              	.L90:
 1473              		.align	2
 1474              	.L89:
 1475 0064 10064400 		.word	4458000
 1476              		.cfi_endproc
 1477              	.LFE187:
 1478              		.size	Cy_I2S_DeInit, .-Cy_I2S_DeInit
 1479              		.section	.text.Cy_I2S_DeepSleepCallback,"ax",%progbits
 1480              		.align	2
 1481              		.global	Cy_I2S_DeepSleepCallback
 1482              		.thumb
 1483              		.thumb_func
 1484              		.type	Cy_I2S_DeepSleepCallback, %function
 1485              	Cy_I2S_DeepSleepCallback:
 1486              	.LFB188:
 200:Generated_Source\PSoC6\pdl\drivers\peripheral\i2s/cy_i2s.c **** 
 201:Generated_Source\PSoC6\pdl\drivers\peripheral\i2s/cy_i2s.c **** 
 202:Generated_Source\PSoC6\pdl\drivers\peripheral\i2s/cy_i2s.c **** /*******************************************************************************
 203:Generated_Source\PSoC6\pdl\drivers\peripheral\i2s/cy_i2s.c **** * Function Name: Cy_I2S_DeepSleepCallback
 204:Generated_Source\PSoC6\pdl\drivers\peripheral\i2s/cy_i2s.c **** ****************************************************************************//**
 205:Generated_Source\PSoC6\pdl\drivers\peripheral\i2s/cy_i2s.c **** *
 206:Generated_Source\PSoC6\pdl\drivers\peripheral\i2s/cy_i2s.c **** * This is a callback function to be used at the application layer to
 207:Generated_Source\PSoC6\pdl\drivers\peripheral\i2s/cy_i2s.c **** * manage an I2S operation during the Deep-Sleep cycle. It stores the I2S state 
 208:Generated_Source\PSoC6\pdl\drivers\peripheral\i2s/cy_i2s.c **** * (Tx/Rx enabled/disabled/paused) into the context structure and stops the 
 209:Generated_Source\PSoC6\pdl\drivers\peripheral\i2s/cy_i2s.c **** * communication before entering into Deep-Sleep power mode and restores the I2S
 210:Generated_Source\PSoC6\pdl\drivers\peripheral\i2s/cy_i2s.c **** * state after waking up.
 211:Generated_Source\PSoC6\pdl\drivers\peripheral\i2s/cy_i2s.c **** *
 212:Generated_Source\PSoC6\pdl\drivers\peripheral\i2s/cy_i2s.c **** * \param 
 213:Generated_Source\PSoC6\pdl\drivers\peripheral\i2s/cy_i2s.c **** * callbackParams - The pointer to the callback parameters structure, 
ARM GAS  C:\Users\ikomb\AppData\Local\Temp\cchnbsea.s 			page 50


 214:Generated_Source\PSoC6\pdl\drivers\peripheral\i2s/cy_i2s.c **** * see \ref cy_stc_syspm_callback_params_t.
 215:Generated_Source\PSoC6\pdl\drivers\peripheral\i2s/cy_i2s.c **** *
 216:Generated_Source\PSoC6\pdl\drivers\peripheral\i2s/cy_i2s.c **** * \return the SysPm callback status \ref cy_en_syspm_status_t.
 217:Generated_Source\PSoC6\pdl\drivers\peripheral\i2s/cy_i2s.c **** *
 218:Generated_Source\PSoC6\pdl\drivers\peripheral\i2s/cy_i2s.c **** * \note Use the \ref cy_stc_i2s_context_t data type for definition of the 
 219:Generated_Source\PSoC6\pdl\drivers\peripheral\i2s/cy_i2s.c **** * *context element of the \ref cy_stc_syspm_callback_params_t strusture.
 220:Generated_Source\PSoC6\pdl\drivers\peripheral\i2s/cy_i2s.c **** *
 221:Generated_Source\PSoC6\pdl\drivers\peripheral\i2s/cy_i2s.c **** * \funcusage
 222:Generated_Source\PSoC6\pdl\drivers\peripheral\i2s/cy_i2s.c **** * \snippet i2s/i2s_v2_0_sut_00.cydsn/main_cm4.c snippet_Cy_I2S_DeepSleepCallback
 223:Generated_Source\PSoC6\pdl\drivers\peripheral\i2s/cy_i2s.c **** *
 224:Generated_Source\PSoC6\pdl\drivers\peripheral\i2s/cy_i2s.c **** *******************************************************************************/
 225:Generated_Source\PSoC6\pdl\drivers\peripheral\i2s/cy_i2s.c **** cy_en_syspm_status_t Cy_I2S_DeepSleepCallback(cy_stc_syspm_callback_params_t * callbackParams)
 226:Generated_Source\PSoC6\pdl\drivers\peripheral\i2s/cy_i2s.c **** {
 1487              		.loc 2 226 0
 1488              		.cfi_startproc
 1489              		@ args = 0, pretend = 0, frame = 24
 1490              		@ frame_needed = 1, uses_anonymous_args = 0
 1491 0000 80B5     		push	{r7, lr}
 1492              		.cfi_def_cfa_offset 8
 1493              		.cfi_offset 7, -8
 1494              		.cfi_offset 14, -4
 1495 0002 86B0     		sub	sp, sp, #24
 1496              		.cfi_def_cfa_offset 32
 1497 0004 00AF     		add	r7, sp, #0
 1498              		.cfi_def_cfa_register 7
 1499 0006 7860     		str	r0, [r7, #4]
 227:Generated_Source\PSoC6\pdl\drivers\peripheral\i2s/cy_i2s.c ****     cy_en_syspm_status_t ret = CY_SYSPM_SUCCESS;
 1500              		.loc 2 227 0
 1501 0008 0023     		movs	r3, #0
 1502 000a 7B61     		str	r3, [r7, #20]
 228:Generated_Source\PSoC6\pdl\drivers\peripheral\i2s/cy_i2s.c ****     CY_ASSERT_L1(NULL != callbackParams->context);
 1503              		.loc 2 228 0
 1504 000c 7B68     		ldr	r3, [r7, #4]
 1505 000e 9B68     		ldr	r3, [r3, #8]
 1506 0010 002B     		cmp	r3, #0
 1507 0012 03D1     		bne	.L92
 1508              		.loc 2 228 0 is_stmt 0 discriminator 1
 1509 0014 E421     		movs	r1, #228
 1510 0016 4348     		ldr	r0, .L106
 1511 0018 FFF7FEFF 		bl	Cy_SysLib_AssertFailed
 1512              	.L92:
 229:Generated_Source\PSoC6\pdl\drivers\peripheral\i2s/cy_i2s.c ****     I2S_Type * locBase = (I2S_Type*) callbackParams->base;
 1513              		.loc 2 229 0 is_stmt 1
 1514 001c 7B68     		ldr	r3, [r7, #4]
 1515 001e 5B68     		ldr	r3, [r3, #4]
 1516 0020 3B61     		str	r3, [r7, #16]
 230:Generated_Source\PSoC6\pdl\drivers\peripheral\i2s/cy_i2s.c ****     uint32_t * locInterruptMask = (uint32_t*) &(((cy_stc_i2s_context_t*)(callbackParams->context))-
 1517              		.loc 2 230 0
 1518 0022 7B68     		ldr	r3, [r7, #4]
 1519 0024 9B68     		ldr	r3, [r3, #8]
 1520 0026 0433     		adds	r3, r3, #4
 1521 0028 FB60     		str	r3, [r7, #12]
 231:Generated_Source\PSoC6\pdl\drivers\peripheral\i2s/cy_i2s.c ****     uint32_t * locState = (uint32_t*) &(((cy_stc_i2s_context_t*)(callbackParams->context))->enableS
 1522              		.loc 2 231 0
 1523 002a 7B68     		ldr	r3, [r7, #4]
 1524 002c 9B68     		ldr	r3, [r3, #8]
 1525 002e BB60     		str	r3, [r7, #8]
ARM GAS  C:\Users\ikomb\AppData\Local\Temp\cchnbsea.s 			page 51


 232:Generated_Source\PSoC6\pdl\drivers\peripheral\i2s/cy_i2s.c ****     
 233:Generated_Source\PSoC6\pdl\drivers\peripheral\i2s/cy_i2s.c ****     switch(callbackParams->mode)
 1526              		.loc 2 233 0
 1527 0030 7B68     		ldr	r3, [r7, #4]
 1528 0032 1B78     		ldrb	r3, [r3]	@ zero_extendqisi2
 1529 0034 013B     		subs	r3, r3, #1
 1530 0036 072B     		cmp	r3, #7
 1531 0038 6BD8     		bhi	.L93
 1532 003a 01A2     		adr	r2, .L95
 1533 003c 52F823F0 		ldr	pc, [r2, r3, lsl #2]
 1534              		.p2align 2
 1535              	.L95:
 1536 0040 19010000 		.word	.L105+1
 1537 0044 19010000 		.word	.L105+1
 1538 0048 13010000 		.word	.L93+1
 1539 004c 61000000 		.word	.L96+1
 1540 0050 13010000 		.word	.L93+1
 1541 0054 13010000 		.word	.L93+1
 1542 0058 13010000 		.word	.L93+1
 1543 005c A7000000 		.word	.L97+1
 1544              		.p2align 1
 1545              	.L96:
 234:Generated_Source\PSoC6\pdl\drivers\peripheral\i2s/cy_i2s.c ****     {
 235:Generated_Source\PSoC6\pdl\drivers\peripheral\i2s/cy_i2s.c ****         case CY_SYSPM_CHECK_READY:            
 236:Generated_Source\PSoC6\pdl\drivers\peripheral\i2s/cy_i2s.c ****         case CY_SYSPM_CHECK_FAIL:
 237:Generated_Source\PSoC6\pdl\drivers\peripheral\i2s/cy_i2s.c ****             break;
 238:Generated_Source\PSoC6\pdl\drivers\peripheral\i2s/cy_i2s.c ****         
 239:Generated_Source\PSoC6\pdl\drivers\peripheral\i2s/cy_i2s.c ****         case CY_SYSPM_BEFORE_TRANSITION:
 240:Generated_Source\PSoC6\pdl\drivers\peripheral\i2s/cy_i2s.c ****             *locInterruptMask = Cy_I2S_GetInterruptMask(locBase); /* Store I2S interrupts */
 1546              		.loc 2 240 0
 1547 0060 3869     		ldr	r0, [r7, #16]
 1548 0062 FFF7FEFF 		bl	Cy_I2S_GetInterruptMask
 1549 0066 0246     		mov	r2, r0
 1550 0068 FB68     		ldr	r3, [r7, #12]
 1551 006a 1A60     		str	r2, [r3]
 241:Generated_Source\PSoC6\pdl\drivers\peripheral\i2s/cy_i2s.c ****             *locState = Cy_I2S_GetCurrentState(locBase); /* Store I2S state */
 1552              		.loc 2 241 0
 1553 006c 3869     		ldr	r0, [r7, #16]
 1554 006e FFF7FEFF 		bl	Cy_I2S_GetCurrentState
 1555 0072 0246     		mov	r2, r0
 1556 0074 BB68     		ldr	r3, [r7, #8]
 1557 0076 1A60     		str	r2, [r3]
 242:Generated_Source\PSoC6\pdl\drivers\peripheral\i2s/cy_i2s.c ****             if (0UL != (*locState & I2S_CMD_TX_START_Msk))
 1558              		.loc 2 242 0
 1559 0078 BB68     		ldr	r3, [r7, #8]
 1560 007a 1B68     		ldr	r3, [r3]
 1561 007c 03F00103 		and	r3, r3, #1
 1562 0080 002B     		cmp	r3, #0
 1563 0082 02D0     		beq	.L99
 243:Generated_Source\PSoC6\pdl\drivers\peripheral\i2s/cy_i2s.c ****             {
 244:Generated_Source\PSoC6\pdl\drivers\peripheral\i2s/cy_i2s.c ****                 Cy_I2S_DisableTx(locBase); /* Stop TX operation */
 1564              		.loc 2 244 0
 1565 0084 3869     		ldr	r0, [r7, #16]
 1566 0086 FFF7FEFF 		bl	Cy_I2S_DisableTx
 1567              	.L99:
 245:Generated_Source\PSoC6\pdl\drivers\peripheral\i2s/cy_i2s.c ****             }
 246:Generated_Source\PSoC6\pdl\drivers\peripheral\i2s/cy_i2s.c ****             if (0UL != (*locState & I2S_CMD_RX_START_Msk))
ARM GAS  C:\Users\ikomb\AppData\Local\Temp\cchnbsea.s 			page 52


 1568              		.loc 2 246 0
 1569 008a BB68     		ldr	r3, [r7, #8]
 1570 008c 1B68     		ldr	r3, [r3]
 1571 008e 03F48033 		and	r3, r3, #65536
 1572 0092 002B     		cmp	r3, #0
 1573 0094 02D0     		beq	.L100
 247:Generated_Source\PSoC6\pdl\drivers\peripheral\i2s/cy_i2s.c ****             {
 248:Generated_Source\PSoC6\pdl\drivers\peripheral\i2s/cy_i2s.c ****                 Cy_I2S_DisableRx(locBase); /* Stop RX operation */
 1574              		.loc 2 248 0
 1575 0096 3869     		ldr	r0, [r7, #16]
 1576 0098 FFF7FEFF 		bl	Cy_I2S_DisableRx
 1577              	.L100:
 249:Generated_Source\PSoC6\pdl\drivers\peripheral\i2s/cy_i2s.c ****             }
 250:Generated_Source\PSoC6\pdl\drivers\peripheral\i2s/cy_i2s.c ****             Cy_I2S_SetInterruptMask(locBase, 0UL); /* Disable I2S interrupts */
 1578              		.loc 2 250 0
 1579 009c 0021     		movs	r1, #0
 1580 009e 3869     		ldr	r0, [r7, #16]
 1581 00a0 FFF7FEFF 		bl	Cy_I2S_SetInterruptMask
 251:Generated_Source\PSoC6\pdl\drivers\peripheral\i2s/cy_i2s.c ****             /* Unload FIFOs in order not to lose data (if needed) */
 252:Generated_Source\PSoC6\pdl\drivers\peripheral\i2s/cy_i2s.c ****             break;
 1582              		.loc 2 252 0
 1583 00a4 39E0     		b	.L98
 1584              	.L97:
 253:Generated_Source\PSoC6\pdl\drivers\peripheral\i2s/cy_i2s.c ****             
 254:Generated_Source\PSoC6\pdl\drivers\peripheral\i2s/cy_i2s.c ****         case CY_SYSPM_AFTER_TRANSITION:
 255:Generated_Source\PSoC6\pdl\drivers\peripheral\i2s/cy_i2s.c ****             if (0UL != (*locState & I2S_CMD_RX_START_Msk))
 1585              		.loc 2 255 0
 1586 00a6 BB68     		ldr	r3, [r7, #8]
 1587 00a8 1B68     		ldr	r3, [r3]
 1588 00aa 03F48033 		and	r3, r3, #65536
 1589 00ae 002B     		cmp	r3, #0
 1590 00b0 05D0     		beq	.L101
 256:Generated_Source\PSoC6\pdl\drivers\peripheral\i2s/cy_i2s.c ****             {
 257:Generated_Source\PSoC6\pdl\drivers\peripheral\i2s/cy_i2s.c ****                 Cy_I2S_ClearRxFifo(locBase); /* Clear the RX FIFO */
 1591              		.loc 2 257 0
 1592 00b2 3869     		ldr	r0, [r7, #16]
 1593 00b4 FFF7FEFF 		bl	Cy_I2S_ClearRxFifo
 258:Generated_Source\PSoC6\pdl\drivers\peripheral\i2s/cy_i2s.c ****                 Cy_I2S_EnableRx(locBase); /* Start RX operation */
 1594              		.loc 2 258 0
 1595 00b8 3869     		ldr	r0, [r7, #16]
 1596 00ba FFF7FEFF 		bl	Cy_I2S_EnableRx
 1597              	.L101:
 259:Generated_Source\PSoC6\pdl\drivers\peripheral\i2s/cy_i2s.c ****             }
 260:Generated_Source\PSoC6\pdl\drivers\peripheral\i2s/cy_i2s.c ****             if (0UL != (*locState & I2S_CMD_TX_START_Msk))
 1598              		.loc 2 260 0
 1599 00be BB68     		ldr	r3, [r7, #8]
 1600 00c0 1B68     		ldr	r3, [r3]
 1601 00c2 03F00103 		and	r3, r3, #1
 1602 00c6 002B     		cmp	r3, #0
 1603 00c8 16D0     		beq	.L102
 261:Generated_Source\PSoC6\pdl\drivers\peripheral\i2s/cy_i2s.c ****             {
 262:Generated_Source\PSoC6\pdl\drivers\peripheral\i2s/cy_i2s.c ****                 Cy_I2S_ClearTxFifo(locBase); /* Clear the TX FIFO */
 1604              		.loc 2 262 0
 1605 00ca 3869     		ldr	r0, [r7, #16]
 1606 00cc FFF7FEFF 		bl	Cy_I2S_ClearTxFifo
 263:Generated_Source\PSoC6\pdl\drivers\peripheral\i2s/cy_i2s.c ****                 Cy_I2S_WriteTxData(locBase, 0UL); /* Fill at least one TX frame */
 1607              		.loc 2 263 0
ARM GAS  C:\Users\ikomb\AppData\Local\Temp\cchnbsea.s 			page 53


 1608 00d0 0021     		movs	r1, #0
 1609 00d2 3869     		ldr	r0, [r7, #16]
 1610 00d4 FFF7FEFF 		bl	Cy_I2S_WriteTxData
 264:Generated_Source\PSoC6\pdl\drivers\peripheral\i2s/cy_i2s.c ****                 Cy_I2S_WriteTxData(locBase, 0UL);
 1611              		.loc 2 264 0
 1612 00d8 0021     		movs	r1, #0
 1613 00da 3869     		ldr	r0, [r7, #16]
 1614 00dc FFF7FEFF 		bl	Cy_I2S_WriteTxData
 265:Generated_Source\PSoC6\pdl\drivers\peripheral\i2s/cy_i2s.c ****                 if (0UL != (*locState & I2S_CMD_TX_PAUSE_Msk))
 1615              		.loc 2 265 0
 1616 00e0 BB68     		ldr	r3, [r7, #8]
 1617 00e2 1B68     		ldr	r3, [r3]
 1618 00e4 03F48073 		and	r3, r3, #256
 1619 00e8 002B     		cmp	r3, #0
 1620 00ea 02D0     		beq	.L103
 266:Generated_Source\PSoC6\pdl\drivers\peripheral\i2s/cy_i2s.c ****                 {
 267:Generated_Source\PSoC6\pdl\drivers\peripheral\i2s/cy_i2s.c ****                     Cy_I2S_PauseTx(locBase); /* Restore the TX paused state */
 1621              		.loc 2 267 0
 1622 00ec 3869     		ldr	r0, [r7, #16]
 1623 00ee FFF7FEFF 		bl	Cy_I2S_PauseTx
 1624              	.L103:
 268:Generated_Source\PSoC6\pdl\drivers\peripheral\i2s/cy_i2s.c ****                 }
 269:Generated_Source\PSoC6\pdl\drivers\peripheral\i2s/cy_i2s.c ****                 Cy_I2S_EnableTx(locBase); /* Start TX operation */
 1625              		.loc 2 269 0
 1626 00f2 3869     		ldr	r0, [r7, #16]
 1627 00f4 FFF7FEFF 		bl	Cy_I2S_EnableTx
 1628              	.L102:
 270:Generated_Source\PSoC6\pdl\drivers\peripheral\i2s/cy_i2s.c ****             }
 271:Generated_Source\PSoC6\pdl\drivers\peripheral\i2s/cy_i2s.c ****             Cy_I2S_ClearInterrupt(locBase, *locInterruptMask); /* Clear possible pending I2S interr
 1629              		.loc 2 271 0
 1630 00f8 FB68     		ldr	r3, [r7, #12]
 1631 00fa 1B68     		ldr	r3, [r3]
 1632 00fc 1946     		mov	r1, r3
 1633 00fe 3869     		ldr	r0, [r7, #16]
 1634 0100 FFF7FEFF 		bl	Cy_I2S_ClearInterrupt
 272:Generated_Source\PSoC6\pdl\drivers\peripheral\i2s/cy_i2s.c ****             Cy_I2S_SetInterruptMask(locBase, *locInterruptMask); /* Restore I2S interrupts */
 1635              		.loc 2 272 0
 1636 0104 FB68     		ldr	r3, [r7, #12]
 1637 0106 1B68     		ldr	r3, [r3]
 1638 0108 1946     		mov	r1, r3
 1639 010a 3869     		ldr	r0, [r7, #16]
 1640 010c FFF7FEFF 		bl	Cy_I2S_SetInterruptMask
 273:Generated_Source\PSoC6\pdl\drivers\peripheral\i2s/cy_i2s.c ****             break;
 1641              		.loc 2 273 0
 1642 0110 03E0     		b	.L98
 1643              	.L93:
 274:Generated_Source\PSoC6\pdl\drivers\peripheral\i2s/cy_i2s.c ****         
 275:Generated_Source\PSoC6\pdl\drivers\peripheral\i2s/cy_i2s.c ****         default:
 276:Generated_Source\PSoC6\pdl\drivers\peripheral\i2s/cy_i2s.c ****             ret = CY_SYSPM_FAIL;
 1644              		.loc 2 276 0
 1645 0112 054B     		ldr	r3, .L106+4
 1646 0114 7B61     		str	r3, [r7, #20]
 277:Generated_Source\PSoC6\pdl\drivers\peripheral\i2s/cy_i2s.c ****             break;
 1647              		.loc 2 277 0
 1648 0116 00E0     		b	.L98
 1649              	.L105:
 237:Generated_Source\PSoC6\pdl\drivers\peripheral\i2s/cy_i2s.c ****         
ARM GAS  C:\Users\ikomb\AppData\Local\Temp\cchnbsea.s 			page 54


 1650              		.loc 2 237 0
 1651 0118 00BF     		nop
 1652              	.L98:
 278:Generated_Source\PSoC6\pdl\drivers\peripheral\i2s/cy_i2s.c ****     }
 279:Generated_Source\PSoC6\pdl\drivers\peripheral\i2s/cy_i2s.c ****         
 280:Generated_Source\PSoC6\pdl\drivers\peripheral\i2s/cy_i2s.c ****     return(ret);
 1653              		.loc 2 280 0
 1654 011a 7B69     		ldr	r3, [r7, #20]
 281:Generated_Source\PSoC6\pdl\drivers\peripheral\i2s/cy_i2s.c **** }
 1655              		.loc 2 281 0
 1656 011c 1846     		mov	r0, r3
 1657 011e 1837     		adds	r7, r7, #24
 1658              		.cfi_def_cfa_offset 8
 1659 0120 BD46     		mov	sp, r7
 1660              		.cfi_def_cfa_register 13
 1661              		@ sp needed
 1662 0122 80BD     		pop	{r7, pc}
 1663              	.L107:
 1664              		.align	2
 1665              	.L106:
 1666 0124 3C000000 		.word	.LC1
 1667 0128 FF004200 		.word	4325631
 1668              		.cfi_endproc
 1669              	.LFE188:
 1670              		.size	Cy_I2S_DeepSleepCallback, .-Cy_I2S_DeepSleepCallback
 1671              		.text
 1672              	.Letext0:
 1673              		.file 3 "c:\\program files (x86)\\cypress\\psoc creator\\4.4\\psoc creator\\import\\gnu\\arm\\5.4.
 1674              		.file 4 "c:\\program files (x86)\\cypress\\psoc creator\\4.4\\psoc creator\\import\\gnu\\arm\\5.4.
 1675              		.file 5 "Generated_Source\\PSoC6\\pdl\\devices/psoc6/ip/cyip_i2s.h"
 1676              		.file 6 "Generated_Source\\PSoC6\\pdl\\drivers/peripheral/syslib/cy_syslib.h"
 1677              		.file 7 "Generated_Source\\PSoC6\\pdl\\drivers/peripheral/syspm/cy_syspm.h"
 1678              		.file 8 "Generated_Source\\PSoC6\\pdl\\cmsis/include/core_cm4.h"
 1679              		.section	.debug_info,"",%progbits
 1680              	.Ldebug_info0:
 1681 0000 CC090000 		.4byte	0x9cc
 1682 0004 0400     		.2byte	0x4
 1683 0006 00000000 		.4byte	.Ldebug_abbrev0
 1684 000a 04       		.byte	0x4
 1685 000b 01       		.uleb128 0x1
 1686 000c 66080000 		.4byte	.LASF145
 1687 0010 0C       		.byte	0xc
 1688 0011 05010000 		.4byte	.LASF146
 1689 0015 BD030000 		.4byte	.LASF147
 1690 0019 00000000 		.4byte	.Ldebug_ranges0+0
 1691 001d 00000000 		.4byte	0
 1692 0021 00000000 		.4byte	.Ldebug_line0
 1693 0025 02       		.uleb128 0x2
 1694 0026 04       		.byte	0x4
 1695 0027 05       		.byte	0x5
 1696 0028 696E7400 		.ascii	"int\000"
 1697 002c 03       		.uleb128 0x3
 1698 002d 04       		.byte	0x4
 1699 002e 07       		.byte	0x7
 1700 002f 76010000 		.4byte	.LASF0
 1701 0033 03       		.uleb128 0x3
 1702 0034 08       		.byte	0x8
ARM GAS  C:\Users\ikomb\AppData\Local\Temp\cchnbsea.s 			page 55


 1703 0035 05       		.byte	0x5
 1704 0036 CE000000 		.4byte	.LASF1
 1705 003a 03       		.uleb128 0x3
 1706 003b 08       		.byte	0x8
 1707 003c 04       		.byte	0x4
 1708 003d 9E060000 		.4byte	.LASF2
 1709 0041 03       		.uleb128 0x3
 1710 0042 01       		.byte	0x1
 1711 0043 06       		.byte	0x6
 1712 0044 DC000000 		.4byte	.LASF3
 1713 0048 04       		.uleb128 0x4
 1714 0049 6E000000 		.4byte	.LASF7
 1715 004d 03       		.byte	0x3
 1716 004e 1D       		.byte	0x1d
 1717 004f 53000000 		.4byte	0x53
 1718 0053 03       		.uleb128 0x3
 1719 0054 01       		.byte	0x1
 1720 0055 08       		.byte	0x8
 1721 0056 8D050000 		.4byte	.LASF4
 1722 005a 03       		.uleb128 0x3
 1723 005b 02       		.byte	0x2
 1724 005c 05       		.byte	0x5
 1725 005d B7050000 		.4byte	.LASF5
 1726 0061 03       		.uleb128 0x3
 1727 0062 02       		.byte	0x2
 1728 0063 07       		.byte	0x7
 1729 0064 EF020000 		.4byte	.LASF6
 1730 0068 04       		.uleb128 0x4
 1731 0069 37030000 		.4byte	.LASF8
 1732 006d 03       		.byte	0x3
 1733 006e 3F       		.byte	0x3f
 1734 006f 73000000 		.4byte	0x73
 1735 0073 03       		.uleb128 0x3
 1736 0074 04       		.byte	0x4
 1737 0075 05       		.byte	0x5
 1738 0076 5D010000 		.4byte	.LASF9
 1739 007a 04       		.uleb128 0x4
 1740 007b 07020000 		.4byte	.LASF10
 1741 007f 03       		.byte	0x3
 1742 0080 41       		.byte	0x41
 1743 0081 85000000 		.4byte	0x85
 1744 0085 03       		.uleb128 0x3
 1745 0086 04       		.byte	0x4
 1746 0087 07       		.byte	0x7
 1747 0088 AE020000 		.4byte	.LASF11
 1748 008c 03       		.uleb128 0x3
 1749 008d 08       		.byte	0x8
 1750 008e 07       		.byte	0x7
 1751 008f 96000000 		.4byte	.LASF12
 1752 0093 04       		.uleb128 0x4
 1753 0094 06070000 		.4byte	.LASF13
 1754 0098 04       		.byte	0x4
 1755 0099 18       		.byte	0x18
 1756 009a 48000000 		.4byte	0x48
 1757 009e 04       		.uleb128 0x4
 1758 009f 85050000 		.4byte	.LASF14
 1759 00a3 04       		.byte	0x4
ARM GAS  C:\Users\ikomb\AppData\Local\Temp\cchnbsea.s 			page 56


 1760 00a4 2C       		.byte	0x2c
 1761 00a5 68000000 		.4byte	0x68
 1762 00a9 04       		.uleb128 0x4
 1763 00aa 95060000 		.4byte	.LASF15
 1764 00ae 04       		.byte	0x4
 1765 00af 30       		.byte	0x30
 1766 00b0 7A000000 		.4byte	0x7a
 1767 00b4 03       		.uleb128 0x3
 1768 00b5 04       		.byte	0x4
 1769 00b6 07       		.byte	0x7
 1770 00b7 95030000 		.4byte	.LASF16
 1771 00bb 05       		.uleb128 0x5
 1772 00bc A9000000 		.4byte	0xa9
 1773 00c0 06       		.uleb128 0x6
 1774 00c1 BB000000 		.4byte	0xbb
 1775 00c5 07       		.uleb128 0x7
 1776 00c6 C0000000 		.4byte	0xc0
 1777 00ca D5000000 		.4byte	0xd5
 1778 00ce 08       		.uleb128 0x8
 1779 00cf B4000000 		.4byte	0xb4
 1780 00d3 06       		.byte	0x6
 1781 00d4 00       		.byte	0
 1782 00d5 07       		.uleb128 0x7
 1783 00d6 C0000000 		.4byte	0xc0
 1784 00da E5000000 		.4byte	0xe5
 1785 00de 08       		.uleb128 0x8
 1786 00df B4000000 		.4byte	0xb4
 1787 00e3 05       		.byte	0x5
 1788 00e4 00       		.byte	0
 1789 00e5 07       		.uleb128 0x7
 1790 00e6 C0000000 		.4byte	0xc0
 1791 00ea F5000000 		.4byte	0xf5
 1792 00ee 08       		.uleb128 0x8
 1793 00ef B4000000 		.4byte	0xb4
 1794 00f3 02       		.byte	0x2
 1795 00f4 00       		.byte	0
 1796 00f5 07       		.uleb128 0x7
 1797 00f6 C0000000 		.4byte	0xc0
 1798 00fa 05010000 		.4byte	0x105
 1799 00fe 08       		.uleb128 0x8
 1800 00ff B4000000 		.4byte	0xb4
 1801 0103 0E       		.byte	0xe
 1802 0104 00       		.byte	0
 1803 0105 07       		.uleb128 0x7
 1804 0106 C0000000 		.4byte	0xc0
 1805 010a 15010000 		.4byte	0x115
 1806 010e 08       		.uleb128 0x8
 1807 010f B4000000 		.4byte	0xb4
 1808 0113 3C       		.byte	0x3c
 1809 0114 00       		.byte	0
 1810 0115 09       		.uleb128 0x9
 1811 0116 100F     		.2byte	0xf10
 1812 0118 05       		.byte	0x5
 1813 0119 21       		.byte	0x21
 1814 011a 70020000 		.4byte	0x270
 1815 011e 0A       		.uleb128 0xa
 1816 011f 43544C00 		.ascii	"CTL\000"
ARM GAS  C:\Users\ikomb\AppData\Local\Temp\cchnbsea.s 			page 57


 1817 0123 05       		.byte	0x5
 1818 0124 22       		.byte	0x22
 1819 0125 BB000000 		.4byte	0xbb
 1820 0129 00       		.byte	0
 1821 012a 0B       		.uleb128 0xb
 1822 012b 03060000 		.4byte	.LASF17
 1823 012f 05       		.byte	0x5
 1824 0130 23       		.byte	0x23
 1825 0131 75020000 		.4byte	0x275
 1826 0135 04       		.byte	0x4
 1827 0136 0B       		.uleb128 0xb
 1828 0137 8C000000 		.4byte	.LASF18
 1829 013b 05       		.byte	0x5
 1830 013c 24       		.byte	0x24
 1831 013d BB000000 		.4byte	0xbb
 1832 0141 10       		.byte	0x10
 1833 0142 0B       		.uleb128 0xb
 1834 0143 00050000 		.4byte	.LASF19
 1835 0147 05       		.byte	0x5
 1836 0148 25       		.byte	0x25
 1837 0149 7F020000 		.4byte	0x27f
 1838 014d 14       		.byte	0x14
 1839 014e 0A       		.uleb128 0xa
 1840 014f 434D4400 		.ascii	"CMD\000"
 1841 0153 05       		.byte	0x5
 1842 0154 26       		.byte	0x26
 1843 0155 BB000000 		.4byte	0xbb
 1844 0159 20       		.byte	0x20
 1845 015a 0B       		.uleb128 0xb
 1846 015b 0A050000 		.4byte	.LASF20
 1847 015f 05       		.byte	0x5
 1848 0160 27       		.byte	0x27
 1849 0161 89020000 		.4byte	0x289
 1850 0165 24       		.byte	0x24
 1851 0166 0B       		.uleb128 0xb
 1852 0167 8E020000 		.4byte	.LASF21
 1853 016b 05       		.byte	0x5
 1854 016c 28       		.byte	0x28
 1855 016d BB000000 		.4byte	0xbb
 1856 0171 40       		.byte	0x40
 1857 0172 0B       		.uleb128 0xb
 1858 0173 14050000 		.4byte	.LASF22
 1859 0177 05       		.byte	0x5
 1860 0178 29       		.byte	0x29
 1861 0179 93020000 		.4byte	0x293
 1862 017d 44       		.byte	0x44
 1863 017e 0B       		.uleb128 0xb
 1864 017f C7000000 		.4byte	.LASF23
 1865 0183 05       		.byte	0x5
 1866 0184 2A       		.byte	0x2a
 1867 0185 BB000000 		.4byte	0xbb
 1868 0189 80       		.byte	0x80
 1869 018a 0B       		.uleb128 0xb
 1870 018b 78000000 		.4byte	.LASF24
 1871 018f 05       		.byte	0x5
 1872 0190 2B       		.byte	0x2b
 1873 0191 BB000000 		.4byte	0xbb
ARM GAS  C:\Users\ikomb\AppData\Local\Temp\cchnbsea.s 			page 58


 1874 0195 84       		.byte	0x84
 1875 0196 0B       		.uleb128 0xb
 1876 0197 1E050000 		.4byte	.LASF25
 1877 019b 05       		.byte	0x5
 1878 019c 2C       		.byte	0x2c
 1879 019d 9D020000 		.4byte	0x29d
 1880 01a1 88       		.byte	0x88
 1881 01a2 0B       		.uleb128 0xb
 1882 01a3 AD070000 		.4byte	.LASF26
 1883 01a7 05       		.byte	0x5
 1884 01a8 2D       		.byte	0x2d
 1885 01a9 BB000000 		.4byte	0xbb
 1886 01ad A0       		.byte	0xa0
 1887 01ae 0B       		.uleb128 0xb
 1888 01af E8000000 		.4byte	.LASF27
 1889 01b3 05       		.byte	0x5
 1890 01b4 2E       		.byte	0x2e
 1891 01b5 BB000000 		.4byte	0xbb
 1892 01b9 A4       		.byte	0xa4
 1893 01ba 0B       		.uleb128 0xb
 1894 01bb 28050000 		.4byte	.LASF28
 1895 01bf 05       		.byte	0x5
 1896 01c0 2F       		.byte	0x2f
 1897 01c1 B7020000 		.4byte	0x2b7
 1898 01c5 A8       		.byte	0xa8
 1899 01c6 0C       		.uleb128 0xc
 1900 01c7 AB050000 		.4byte	.LASF29
 1901 01cb 05       		.byte	0x5
 1902 01cc 30       		.byte	0x30
 1903 01cd BB000000 		.4byte	0xbb
 1904 01d1 0002     		.2byte	0x200
 1905 01d3 0C       		.uleb128 0xc
 1906 01d4 86030000 		.4byte	.LASF30
 1907 01d8 05       		.byte	0x5
 1908 01d9 31       		.byte	0x31
 1909 01da C0000000 		.4byte	0xc0
 1910 01de 0402     		.2byte	0x204
 1911 01e0 0C       		.uleb128 0xc
 1912 01e1 77070000 		.4byte	.LASF31
 1913 01e5 05       		.byte	0x5
 1914 01e6 32       		.byte	0x32
 1915 01e7 BB000000 		.4byte	0xbb
 1916 01eb 0802     		.2byte	0x208
 1917 01ed 0C       		.uleb128 0xc
 1918 01ee 32050000 		.4byte	.LASF32
 1919 01f2 05       		.byte	0x5
 1920 01f3 33       		.byte	0x33
 1921 01f4 C1020000 		.4byte	0x2c1
 1922 01f8 0C02     		.2byte	0x20c
 1923 01fa 0C       		.uleb128 0xc
 1924 01fb B4060000 		.4byte	.LASF33
 1925 01ff 05       		.byte	0x5
 1926 0200 34       		.byte	0x34
 1927 0201 BB000000 		.4byte	0xbb
 1928 0205 0003     		.2byte	0x300
 1929 0207 0C       		.uleb128 0xc
 1930 0208 0E070000 		.4byte	.LASF34
ARM GAS  C:\Users\ikomb\AppData\Local\Temp\cchnbsea.s 			page 59


 1931 020c 05       		.byte	0x5
 1932 020d 35       		.byte	0x35
 1933 020e C0000000 		.4byte	0xc0
 1934 0212 0403     		.2byte	0x304
 1935 0214 0C       		.uleb128 0xc
 1936 0215 6C070000 		.4byte	.LASF35
 1937 0219 05       		.byte	0x5
 1938 021a 36       		.byte	0x36
 1939 021b C0000000 		.4byte	0xc0
 1940 021f 0803     		.2byte	0x308
 1941 0221 0C       		.uleb128 0xc
 1942 0222 44080000 		.4byte	.LASF36
 1943 0226 05       		.byte	0x5
 1944 0227 37       		.byte	0x37
 1945 0228 C0000000 		.4byte	0xc0
 1946 022c 0C03     		.2byte	0x30c
 1947 022e 0C       		.uleb128 0xc
 1948 022f 3C050000 		.4byte	.LASF37
 1949 0233 05       		.byte	0x5
 1950 0234 38       		.byte	0x38
 1951 0235 DC020000 		.4byte	0x2dc
 1952 0239 1003     		.2byte	0x310
 1953 023b 0C       		.uleb128 0xc
 1954 023c 4C040000 		.4byte	.LASF38
 1955 0240 05       		.byte	0x5
 1956 0241 39       		.byte	0x39
 1957 0242 BB000000 		.4byte	0xbb
 1958 0246 000F     		.2byte	0xf00
 1959 0248 0C       		.uleb128 0xc
 1960 0249 6A030000 		.4byte	.LASF39
 1961 024d 05       		.byte	0x5
 1962 024e 3A       		.byte	0x3a
 1963 024f BB000000 		.4byte	0xbb
 1964 0253 040F     		.2byte	0xf04
 1965 0255 0C       		.uleb128 0xc
 1966 0256 E0020000 		.4byte	.LASF40
 1967 025a 05       		.byte	0x5
 1968 025b 3B       		.byte	0x3b
 1969 025c BB000000 		.4byte	0xbb
 1970 0260 080F     		.2byte	0xf08
 1971 0262 0C       		.uleb128 0xc
 1972 0263 BF040000 		.4byte	.LASF41
 1973 0267 05       		.byte	0x5
 1974 0268 3C       		.byte	0x3c
 1975 0269 C0000000 		.4byte	0xc0
 1976 026d 0C0F     		.2byte	0xf0c
 1977 026f 00       		.byte	0
 1978 0270 05       		.uleb128 0x5
 1979 0271 E5000000 		.4byte	0xe5
 1980 0275 06       		.uleb128 0x6
 1981 0276 70020000 		.4byte	0x270
 1982 027a 05       		.uleb128 0x5
 1983 027b E5000000 		.4byte	0xe5
 1984 027f 06       		.uleb128 0x6
 1985 0280 7A020000 		.4byte	0x27a
 1986 0284 05       		.uleb128 0x5
 1987 0285 C5000000 		.4byte	0xc5
ARM GAS  C:\Users\ikomb\AppData\Local\Temp\cchnbsea.s 			page 60


 1988 0289 06       		.uleb128 0x6
 1989 028a 84020000 		.4byte	0x284
 1990 028e 05       		.uleb128 0x5
 1991 028f F5000000 		.4byte	0xf5
 1992 0293 06       		.uleb128 0x6
 1993 0294 8E020000 		.4byte	0x28e
 1994 0298 05       		.uleb128 0x5
 1995 0299 D5000000 		.4byte	0xd5
 1996 029d 06       		.uleb128 0x6
 1997 029e 98020000 		.4byte	0x298
 1998 02a2 07       		.uleb128 0x7
 1999 02a3 C0000000 		.4byte	0xc0
 2000 02a7 B2020000 		.4byte	0x2b2
 2001 02ab 08       		.uleb128 0x8
 2002 02ac B4000000 		.4byte	0xb4
 2003 02b0 55       		.byte	0x55
 2004 02b1 00       		.byte	0
 2005 02b2 05       		.uleb128 0x5
 2006 02b3 A2020000 		.4byte	0x2a2
 2007 02b7 06       		.uleb128 0x6
 2008 02b8 B2020000 		.4byte	0x2b2
 2009 02bc 05       		.uleb128 0x5
 2010 02bd 05010000 		.4byte	0x105
 2011 02c1 06       		.uleb128 0x6
 2012 02c2 BC020000 		.4byte	0x2bc
 2013 02c6 07       		.uleb128 0x7
 2014 02c7 C0000000 		.4byte	0xc0
 2015 02cb D7020000 		.4byte	0x2d7
 2016 02cf 0D       		.uleb128 0xd
 2017 02d0 B4000000 		.4byte	0xb4
 2018 02d4 FB02     		.2byte	0x2fb
 2019 02d6 00       		.byte	0
 2020 02d7 05       		.uleb128 0x5
 2021 02d8 C6020000 		.4byte	0x2c6
 2022 02dc 06       		.uleb128 0x6
 2023 02dd D7020000 		.4byte	0x2d7
 2024 02e1 04       		.uleb128 0x4
 2025 02e2 43040000 		.4byte	.LASF42
 2026 02e6 05       		.byte	0x5
 2027 02e7 3D       		.byte	0x3d
 2028 02e8 15010000 		.4byte	0x115
 2029 02ec 0E       		.uleb128 0xe
 2030 02ed 95020000 		.4byte	.LASF43
 2031 02f1 06       		.byte	0x6
 2032 02f2 C401     		.2byte	0x1c4
 2033 02f4 F8020000 		.4byte	0x2f8
 2034 02f8 03       		.uleb128 0x3
 2035 02f9 01       		.byte	0x1
 2036 02fa 08       		.byte	0x8
 2037 02fb AA060000 		.4byte	.LASF44
 2038 02ff 03       		.uleb128 0x3
 2039 0300 04       		.byte	0x4
 2040 0301 04       		.byte	0x4
 2041 0302 CB040000 		.4byte	.LASF45
 2042 0306 03       		.uleb128 0x3
 2043 0307 08       		.byte	0x8
 2044 0308 04       		.byte	0x4
ARM GAS  C:\Users\ikomb\AppData\Local\Temp\cchnbsea.s 			page 61


 2045 0309 96010000 		.4byte	.LASF46
 2046 030d 0F       		.uleb128 0xf
 2047 030e 04       		.byte	0x4
 2048 030f 2C000000 		.4byte	0x2c
 2049 0313 07       		.byte	0x7
 2050 0314 9703     		.2byte	0x397
 2051 0316 45030000 		.4byte	0x345
 2052 031a 10       		.uleb128 0x10
 2053 031b 0D080000 		.4byte	.LASF47
 2054 031f 00       		.byte	0
 2055 0320 11       		.uleb128 0x11
 2056 0321 3F000000 		.4byte	.LASF48
 2057 0325 01004200 		.4byte	0x420001
 2058 0329 11       		.uleb128 0x11
 2059 032a 2E000000 		.4byte	.LASF49
 2060 032e 02004200 		.4byte	0x420002
 2061 0332 11       		.uleb128 0x11
 2062 0333 77020000 		.4byte	.LASF50
 2063 0337 03004200 		.4byte	0x420003
 2064 033b 11       		.uleb128 0x11
 2065 033c 8F070000 		.4byte	.LASF51
 2066 0340 FF004200 		.4byte	0x4200ff
 2067 0344 00       		.byte	0
 2068 0345 0E       		.uleb128 0xe
 2069 0346 19090000 		.4byte	.LASF52
 2070 034a 07       		.byte	0x7
 2071 034b 9E03     		.2byte	0x39e
 2072 034d 0D030000 		.4byte	0x30d
 2073 0351 0F       		.uleb128 0xf
 2074 0352 01       		.byte	0x1
 2075 0353 53000000 		.4byte	0x53
 2076 0357 07       		.byte	0x7
 2077 0358 3704     		.2byte	0x437
 2078 035a 77030000 		.4byte	0x377
 2079 035e 10       		.uleb128 0x10
 2080 035f 2F080000 		.4byte	.LASF53
 2081 0363 01       		.byte	0x1
 2082 0364 10       		.uleb128 0x10
 2083 0365 50070000 		.4byte	.LASF54
 2084 0369 02       		.byte	0x2
 2085 036a 10       		.uleb128 0x10
 2086 036b 51040000 		.4byte	.LASF55
 2087 036f 04       		.byte	0x4
 2088 0370 10       		.uleb128 0x10
 2089 0371 50030000 		.4byte	.LASF56
 2090 0375 08       		.byte	0x8
 2091 0376 00       		.byte	0
 2092 0377 0E       		.uleb128 0xe
 2093 0378 A3040000 		.4byte	.LASF57
 2094 037c 07       		.byte	0x7
 2095 037d 4104     		.2byte	0x441
 2096 037f 51030000 		.4byte	0x351
 2097 0383 12       		.uleb128 0x12
 2098 0384 0C       		.byte	0xc
 2099 0385 07       		.byte	0x7
 2100 0386 5D04     		.2byte	0x45d
 2101 0388 B4030000 		.4byte	0x3b4
ARM GAS  C:\Users\ikomb\AppData\Local\Temp\cchnbsea.s 			page 62


 2102 038c 13       		.uleb128 0x13
 2103 038d AF060000 		.4byte	.LASF58
 2104 0391 07       		.byte	0x7
 2105 0392 5F04     		.2byte	0x45f
 2106 0394 77030000 		.4byte	0x377
 2107 0398 00       		.byte	0
 2108 0399 13       		.uleb128 0x13
 2109 039a 73030000 		.4byte	.LASF59
 2110 039e 07       		.byte	0x7
 2111 039f 6304     		.2byte	0x463
 2112 03a1 B4030000 		.4byte	0x3b4
 2113 03a5 04       		.byte	0x4
 2114 03a6 13       		.uleb128 0x13
 2115 03a7 64070000 		.4byte	.LASF60
 2116 03ab 07       		.byte	0x7
 2117 03ac 6504     		.2byte	0x465
 2118 03ae B4030000 		.4byte	0x3b4
 2119 03b2 08       		.byte	0x8
 2120 03b3 00       		.byte	0
 2121 03b4 14       		.uleb128 0x14
 2122 03b5 04       		.byte	0x4
 2123 03b6 0E       		.uleb128 0xe
 2124 03b7 D2010000 		.4byte	.LASF61
 2125 03bb 07       		.byte	0x7
 2126 03bc 6804     		.2byte	0x468
 2127 03be 83030000 		.4byte	0x383
 2128 03c2 15       		.uleb128 0x15
 2129 03c3 04       		.byte	0x4
 2130 03c4 B6030000 		.4byte	0x3b6
 2131 03c8 16       		.uleb128 0x16
 2132 03c9 04       		.byte	0x4
 2133 03ca 2C000000 		.4byte	0x2c
 2134 03ce 01       		.byte	0x1
 2135 03cf E7       		.byte	0xe7
 2136 03d0 E4030000 		.4byte	0x3e4
 2137 03d4 10       		.uleb128 0x10
 2138 03d5 86060000 		.4byte	.LASF62
 2139 03d9 00       		.byte	0
 2140 03da 11       		.uleb128 0x11
 2141 03db F4000000 		.4byte	.LASF63
 2142 03df 01008200 		.4byte	0x820001
 2143 03e3 00       		.byte	0
 2144 03e4 04       		.uleb128 0x4
 2145 03e5 B5010000 		.4byte	.LASF64
 2146 03e9 01       		.byte	0x1
 2147 03ea EA       		.byte	0xea
 2148 03eb C8030000 		.4byte	0x3c8
 2149 03ef 16       		.uleb128 0x16
 2150 03f0 01       		.byte	0x1
 2151 03f1 53000000 		.4byte	0x53
 2152 03f5 01       		.byte	0x1
 2153 03f6 F1       		.byte	0xf1
 2154 03f7 14040000 		.4byte	0x414
 2155 03fb 10       		.uleb128 0x10
 2156 03fc F1010000 		.4byte	.LASF65
 2157 0400 00       		.byte	0
 2158 0401 10       		.uleb128 0x10
ARM GAS  C:\Users\ikomb\AppData\Local\Temp\cchnbsea.s 			page 63


 2159 0402 72090000 		.4byte	.LASF66
 2160 0406 01       		.byte	0x1
 2161 0407 10       		.uleb128 0x10
 2162 0408 47020000 		.4byte	.LASF67
 2163 040c 02       		.byte	0x2
 2164 040d 10       		.uleb128 0x10
 2165 040e 59020000 		.4byte	.LASF68
 2166 0412 03       		.byte	0x3
 2167 0413 00       		.byte	0
 2168 0414 04       		.uleb128 0x4
 2169 0415 E3070000 		.4byte	.LASF69
 2170 0419 01       		.byte	0x1
 2171 041a F6       		.byte	0xf6
 2172 041b EF030000 		.4byte	0x3ef
 2173 041f 16       		.uleb128 0x16
 2174 0420 01       		.byte	0x1
 2175 0421 53000000 		.4byte	0x53
 2176 0425 01       		.byte	0x1
 2177 0426 FC       		.byte	0xfc
 2178 0427 50040000 		.4byte	0x450
 2179 042b 10       		.uleb128 0x10
 2180 042c 22020000 		.4byte	.LASF70
 2181 0430 00       		.byte	0
 2182 0431 10       		.uleb128 0x10
 2183 0432 6C040000 		.4byte	.LASF71
 2184 0436 01       		.byte	0x1
 2185 0437 10       		.uleb128 0x10
 2186 0438 89040000 		.4byte	.LASF72
 2187 043c 02       		.byte	0x2
 2188 043d 10       		.uleb128 0x10
 2189 043e DD050000 		.4byte	.LASF73
 2190 0442 03       		.byte	0x3
 2191 0443 10       		.uleb128 0x10
 2192 0444 0C060000 		.4byte	.LASF74
 2193 0448 04       		.byte	0x4
 2194 0449 10       		.uleb128 0x10
 2195 044a 43070000 		.4byte	.LASF75
 2196 044e 05       		.byte	0x5
 2197 044f 00       		.byte	0
 2198 0450 0E       		.uleb128 0xe
 2199 0451 D0020000 		.4byte	.LASF76
 2200 0455 01       		.byte	0x1
 2201 0456 0301     		.2byte	0x103
 2202 0458 1F040000 		.4byte	0x41f
 2203 045c 0F       		.uleb128 0xf
 2204 045d 01       		.byte	0x1
 2205 045e 53000000 		.4byte	0x53
 2206 0462 01       		.byte	0x1
 2207 0463 0901     		.2byte	0x109
 2208 0465 76040000 		.4byte	0x476
 2209 0469 10       		.uleb128 0x10
 2210 046a F9070000 		.4byte	.LASF77
 2211 046e 00       		.byte	0
 2212 046f 10       		.uleb128 0x10
 2213 0470 19060000 		.4byte	.LASF78
 2214 0474 01       		.byte	0x1
 2215 0475 00       		.byte	0
ARM GAS  C:\Users\ikomb\AppData\Local\Temp\cchnbsea.s 			page 64


 2216 0476 0E       		.uleb128 0xe
 2217 0477 2E070000 		.4byte	.LASF79
 2218 047b 01       		.byte	0x1
 2219 047c 0C01     		.2byte	0x10c
 2220 047e 5C040000 		.4byte	0x45c
 2221 0482 0F       		.uleb128 0xf
 2222 0483 01       		.byte	0x1
 2223 0484 53000000 		.4byte	0x53
 2224 0488 01       		.byte	0x1
 2225 0489 1201     		.2byte	0x112
 2226 048b 9C040000 		.4byte	0x49c
 2227 048f 10       		.uleb128 0x10
 2228 0490 BB070000 		.4byte	.LASF80
 2229 0494 00       		.byte	0
 2230 0495 10       		.uleb128 0x10
 2231 0496 02030000 		.4byte	.LASF81
 2232 049a 01       		.byte	0x1
 2233 049b 00       		.byte	0
 2234 049c 0E       		.uleb128 0xe
 2235 049d C0060000 		.4byte	.LASF82
 2236 04a1 01       		.byte	0x1
 2237 04a2 1501     		.2byte	0x115
 2238 04a4 82040000 		.4byte	0x482
 2239 04a8 12       		.uleb128 0x12
 2240 04a9 28       		.byte	0x28
 2241 04aa 01       		.byte	0x1
 2242 04ab 2101     		.2byte	0x121
 2243 04ad 52060000 		.4byte	0x652
 2244 04b1 13       		.uleb128 0x13
 2245 04b2 3D020000 		.4byte	.LASF83
 2246 04b6 01       		.byte	0x1
 2247 04b7 2301     		.2byte	0x123
 2248 04b9 52060000 		.4byte	0x652
 2249 04bd 00       		.byte	0
 2250 04be 13       		.uleb128 0x13
 2251 04bf 00000000 		.4byte	.LASF84
 2252 04c3 01       		.byte	0x1
 2253 04c4 2401     		.2byte	0x124
 2254 04c6 52060000 		.4byte	0x652
 2255 04ca 01       		.byte	0x1
 2256 04cb 13       		.uleb128 0x13
 2257 04cc AD000000 		.4byte	.LASF85
 2258 04d0 01       		.byte	0x1
 2259 04d1 2501     		.2byte	0x125
 2260 04d3 52060000 		.4byte	0x652
 2261 04d7 02       		.byte	0x2
 2262 04d8 13       		.uleb128 0x13
 2263 04d9 C1050000 		.4byte	.LASF86
 2264 04dd 01       		.byte	0x1
 2265 04de 2601     		.2byte	0x126
 2266 04e0 52060000 		.4byte	0x652
 2267 04e4 03       		.byte	0x3
 2268 04e5 13       		.uleb128 0x13
 2269 04e6 B4070000 		.4byte	.LASF87
 2270 04ea 01       		.byte	0x1
 2271 04eb 2701     		.2byte	0x127
 2272 04ed 93000000 		.4byte	0x93
ARM GAS  C:\Users\ikomb\AppData\Local\Temp\cchnbsea.s 			page 65


 2273 04f1 04       		.byte	0x4
 2274 04f2 13       		.uleb128 0x13
 2275 04f3 5B000000 		.4byte	.LASF88
 2276 04f7 01       		.byte	0x1
 2277 04f8 2801     		.2byte	0x128
 2278 04fa 52060000 		.4byte	0x652
 2279 04fe 05       		.byte	0x5
 2280 04ff 13       		.uleb128 0x13
 2281 0500 43060000 		.4byte	.LASF89
 2282 0504 01       		.byte	0x1
 2283 0505 2901     		.2byte	0x129
 2284 0507 52060000 		.4byte	0x652
 2285 050b 06       		.byte	0x6
 2286 050c 13       		.uleb128 0x13
 2287 050d 9E030000 		.4byte	.LASF90
 2288 0511 01       		.byte	0x1
 2289 0512 2A01     		.2byte	0x12a
 2290 0514 14040000 		.4byte	0x414
 2291 0518 07       		.byte	0x7
 2292 0519 13       		.uleb128 0x13
 2293 051a 2E020000 		.4byte	.LASF91
 2294 051e 01       		.byte	0x1
 2295 051f 2B01     		.2byte	0x12b
 2296 0521 9C040000 		.4byte	0x49c
 2297 0525 08       		.byte	0x8
 2298 0526 13       		.uleb128 0x13
 2299 0527 1E080000 		.4byte	.LASF92
 2300 052b 01       		.byte	0x1
 2301 052c 2E01     		.2byte	0x12e
 2302 052e 52060000 		.4byte	0x652
 2303 0532 09       		.byte	0x9
 2304 0533 13       		.uleb128 0x13
 2305 0534 50060000 		.4byte	.LASF93
 2306 0538 01       		.byte	0x1
 2307 0539 2F01     		.2byte	0x12f
 2308 053b A9000000 		.4byte	0xa9
 2309 053f 0C       		.byte	0xc
 2310 0540 13       		.uleb128 0x13
 2311 0541 9C020000 		.4byte	.LASF94
 2312 0545 01       		.byte	0x1
 2313 0546 3001     		.2byte	0x130
 2314 0548 52060000 		.4byte	0x652
 2315 054c 10       		.byte	0x10
 2316 054d 13       		.uleb128 0x13
 2317 054e 6B060000 		.4byte	.LASF95
 2318 0552 01       		.byte	0x1
 2319 0553 3801     		.2byte	0x138
 2320 0555 52060000 		.4byte	0x652
 2321 0559 11       		.byte	0x11
 2322 055a 13       		.uleb128 0x13
 2323 055b 37090000 		.4byte	.LASF96
 2324 055f 01       		.byte	0x1
 2325 0560 3F01     		.2byte	0x13f
 2326 0562 52060000 		.4byte	0x652
 2327 0566 12       		.byte	0x12
 2328 0567 13       		.uleb128 0x13
 2329 0568 7B060000 		.4byte	.LASF97
ARM GAS  C:\Users\ikomb\AppData\Local\Temp\cchnbsea.s 			page 66


 2330 056c 01       		.byte	0x1
 2331 056d 4601     		.2byte	0x146
 2332 056f 93000000 		.4byte	0x93
 2333 0573 13       		.byte	0x13
 2334 0574 13       		.uleb128 0x13
 2335 0575 9B050000 		.4byte	.LASF98
 2336 0579 01       		.byte	0x1
 2337 057a 4901     		.2byte	0x149
 2338 057c 50040000 		.4byte	0x450
 2339 0580 14       		.byte	0x14
 2340 0581 13       		.uleb128 0x13
 2341 0582 96040000 		.4byte	.LASF99
 2342 0586 01       		.byte	0x1
 2343 0587 4C01     		.2byte	0x14c
 2344 0589 50040000 		.4byte	0x450
 2345 058d 15       		.byte	0x15
 2346 058e 13       		.uleb128 0x13
 2347 058f 9D070000 		.4byte	.LASF100
 2348 0593 01       		.byte	0x1
 2349 0594 4E01     		.2byte	0x14e
 2350 0596 76040000 		.4byte	0x476
 2351 059a 16       		.byte	0x16
 2352 059b 13       		.uleb128 0x13
 2353 059c 46050000 		.4byte	.LASF101
 2354 05a0 01       		.byte	0x1
 2355 05a1 5001     		.2byte	0x150
 2356 05a3 93000000 		.4byte	0x93
 2357 05a7 17       		.byte	0x17
 2358 05a8 13       		.uleb128 0x13
 2359 05a9 47090000 		.4byte	.LASF102
 2360 05ad 01       		.byte	0x1
 2361 05ae 5101     		.2byte	0x151
 2362 05b0 52060000 		.4byte	0x652
 2363 05b4 18       		.byte	0x18
 2364 05b5 13       		.uleb128 0x13
 2365 05b6 6B020000 		.4byte	.LASF103
 2366 05ba 01       		.byte	0x1
 2367 05bb 5201     		.2byte	0x152
 2368 05bd 14040000 		.4byte	0x414
 2369 05c1 19       		.byte	0x19
 2370 05c2 13       		.uleb128 0x13
 2371 05c3 DF040000 		.4byte	.LASF104
 2372 05c7 01       		.byte	0x1
 2373 05c8 5301     		.2byte	0x153
 2374 05ca 9C040000 		.4byte	0x49c
 2375 05ce 1A       		.byte	0x1a
 2376 05cf 13       		.uleb128 0x13
 2377 05d0 54090000 		.4byte	.LASF105
 2378 05d4 01       		.byte	0x1
 2379 05d5 5601     		.2byte	0x156
 2380 05d7 52060000 		.4byte	0x652
 2381 05db 1B       		.byte	0x1b
 2382 05dc 13       		.uleb128 0x13
 2383 05dd 56080000 		.4byte	.LASF106
 2384 05e1 01       		.byte	0x1
 2385 05e2 5701     		.2byte	0x157
 2386 05e4 A9000000 		.4byte	0xa9
ARM GAS  C:\Users\ikomb\AppData\Local\Temp\cchnbsea.s 			page 67


 2387 05e8 1C       		.byte	0x1c
 2388 05e9 13       		.uleb128 0x13
 2389 05ea EE040000 		.4byte	.LASF107
 2390 05ee 01       		.byte	0x1
 2391 05ef 5801     		.2byte	0x158
 2392 05f1 52060000 		.4byte	0x652
 2393 05f5 20       		.byte	0x20
 2394 05f6 13       		.uleb128 0x13
 2395 05f7 12020000 		.4byte	.LASF108
 2396 05fb 01       		.byte	0x1
 2397 05fc 6001     		.2byte	0x160
 2398 05fe 52060000 		.4byte	0x652
 2399 0602 21       		.byte	0x21
 2400 0603 13       		.uleb128 0x13
 2401 0604 79040000 		.4byte	.LASF109
 2402 0608 01       		.byte	0x1
 2403 0609 6701     		.2byte	0x167
 2404 060b 52060000 		.4byte	0x652
 2405 060f 22       		.byte	0x22
 2406 0610 13       		.uleb128 0x13
 2407 0611 60060000 		.4byte	.LASF110
 2408 0615 01       		.byte	0x1
 2409 0616 6E01     		.2byte	0x16e
 2410 0618 93000000 		.4byte	0x93
 2411 061c 23       		.byte	0x23
 2412 061d 13       		.uleb128 0x13
 2413 061e C0020000 		.4byte	.LASF111
 2414 0622 01       		.byte	0x1
 2415 0623 7101     		.2byte	0x171
 2416 0625 50040000 		.4byte	0x450
 2417 0629 24       		.byte	0x24
 2418 062a 13       		.uleb128 0x13
 2419 062b 82070000 		.4byte	.LASF112
 2420 062f 01       		.byte	0x1
 2421 0630 7401     		.2byte	0x174
 2422 0632 50040000 		.4byte	0x450
 2423 0636 25       		.byte	0x25
 2424 0637 13       		.uleb128 0x13
 2425 0638 66010000 		.4byte	.LASF113
 2426 063c 01       		.byte	0x1
 2427 063d 7601     		.2byte	0x176
 2428 063f 52060000 		.4byte	0x652
 2429 0643 26       		.byte	0x26
 2430 0644 13       		.uleb128 0x13
 2431 0645 1B000000 		.4byte	.LASF114
 2432 0649 01       		.byte	0x1
 2433 064a 7901     		.2byte	0x179
 2434 064c 93000000 		.4byte	0x93
 2435 0650 27       		.byte	0x27
 2436 0651 00       		.byte	0
 2437 0652 03       		.uleb128 0x3
 2438 0653 01       		.byte	0x1
 2439 0654 02       		.byte	0x2
 2440 0655 7F050000 		.4byte	.LASF115
 2441 0659 0E       		.uleb128 0xe
 2442 065a 40010000 		.4byte	.LASF116
 2443 065e 01       		.byte	0x1
ARM GAS  C:\Users\ikomb\AppData\Local\Temp\cchnbsea.s 			page 68


 2444 065f 7B01     		.2byte	0x17b
 2445 0661 A8040000 		.4byte	0x4a8
 2446 0665 12       		.uleb128 0x12
 2447 0666 08       		.byte	0x8
 2448 0667 01       		.byte	0x1
 2449 0668 8601     		.2byte	0x186
 2450 066a 89060000 		.4byte	0x689
 2451 066e 13       		.uleb128 0x13
 2452 066f D9060000 		.4byte	.LASF117
 2453 0673 01       		.byte	0x1
 2454 0674 8801     		.2byte	0x188
 2455 0676 A9000000 		.4byte	0xa9
 2456 067a 00       		.byte	0
 2457 067b 13       		.uleb128 0x13
 2458 067c D1040000 		.4byte	.LASF118
 2459 0680 01       		.byte	0x1
 2460 0681 8901     		.2byte	0x189
 2461 0683 A9000000 		.4byte	0xa9
 2462 0687 04       		.byte	0x4
 2463 0688 00       		.byte	0
 2464 0689 0E       		.uleb128 0xe
 2465 068a 1D040000 		.4byte	.LASF119
 2466 068e 01       		.byte	0x1
 2467 068f 8A01     		.2byte	0x18a
 2468 0691 65060000 		.4byte	0x665
 2469 0695 17       		.uleb128 0x17
 2470 0696 D3070000 		.4byte	.LASF120
 2471 069a 01       		.byte	0x1
 2472 069b 1702     		.2byte	0x217
 2473 069d 00000000 		.4byte	.LFB158
 2474 06a1 20000000 		.4byte	.LFE158-.LFB158
 2475 06a5 01       		.uleb128 0x1
 2476 06a6 9C       		.byte	0x9c
 2477 06a7 BB060000 		.4byte	0x6bb
 2478 06ab 18       		.uleb128 0x18
 2479 06ac 73030000 		.4byte	.LASF59
 2480 06b0 01       		.byte	0x1
 2481 06b1 1702     		.2byte	0x217
 2482 06b3 BB060000 		.4byte	0x6bb
 2483 06b7 02       		.uleb128 0x2
 2484 06b8 91       		.byte	0x91
 2485 06b9 74       		.sleb128 -12
 2486 06ba 00       		.byte	0
 2487 06bb 15       		.uleb128 0x15
 2488 06bc 04       		.byte	0x4
 2489 06bd E1020000 		.4byte	0x2e1
 2490 06c1 17       		.uleb128 0x17
 2491 06c2 CE050000 		.4byte	.LASF121
 2492 06c6 01       		.byte	0x1
 2493 06c7 2902     		.2byte	0x229
 2494 06c9 00000000 		.4byte	.LFB159
 2495 06cd 20000000 		.4byte	.LFE159-.LFB159
 2496 06d1 01       		.uleb128 0x1
 2497 06d2 9C       		.byte	0x9c
 2498 06d3 E7060000 		.4byte	0x6e7
 2499 06d7 18       		.uleb128 0x18
 2500 06d8 73030000 		.4byte	.LASF59
ARM GAS  C:\Users\ikomb\AppData\Local\Temp\cchnbsea.s 			page 69


 2501 06dc 01       		.byte	0x1
 2502 06dd 2902     		.2byte	0x229
 2503 06df BB060000 		.4byte	0x6bb
 2504 06e3 02       		.uleb128 0x2
 2505 06e4 91       		.byte	0x91
 2506 06e5 74       		.sleb128 -12
 2507 06e6 00       		.byte	0
 2508 06e7 17       		.uleb128 0x17
 2509 06e8 1D070000 		.4byte	.LASF122
 2510 06ec 01       		.byte	0x1
 2511 06ed 5002     		.2byte	0x250
 2512 06ef 00000000 		.4byte	.LFB161
 2513 06f3 20000000 		.4byte	.LFE161-.LFB161
 2514 06f7 01       		.uleb128 0x1
 2515 06f8 9C       		.byte	0x9c
 2516 06f9 0D070000 		.4byte	0x70d
 2517 06fd 18       		.uleb128 0x18
 2518 06fe 73030000 		.4byte	.LASF59
 2519 0702 01       		.byte	0x1
 2520 0703 5002     		.2byte	0x250
 2521 0705 BB060000 		.4byte	0x6bb
 2522 0709 02       		.uleb128 0x2
 2523 070a 91       		.byte	0x91
 2524 070b 74       		.sleb128 -12
 2525 070c 00       		.byte	0
 2526 070d 17       		.uleb128 0x17
 2527 070e 6F050000 		.4byte	.LASF123
 2528 0712 01       		.byte	0x1
 2529 0713 6602     		.2byte	0x266
 2530 0715 00000000 		.4byte	.LFB162
 2531 0719 20000000 		.4byte	.LFE162-.LFB162
 2532 071d 01       		.uleb128 0x1
 2533 071e 9C       		.byte	0x9c
 2534 071f 33070000 		.4byte	0x733
 2535 0723 18       		.uleb128 0x18
 2536 0724 73030000 		.4byte	.LASF59
 2537 0728 01       		.byte	0x1
 2538 0729 6602     		.2byte	0x266
 2539 072b BB060000 		.4byte	0x6bb
 2540 072f 02       		.uleb128 0x2
 2541 0730 91       		.byte	0x91
 2542 0731 74       		.sleb128 -12
 2543 0732 00       		.byte	0
 2544 0733 17       		.uleb128 0x17
 2545 0734 32040000 		.4byte	.LASF124
 2546 0738 01       		.byte	0x1
 2547 0739 7B02     		.2byte	0x27b
 2548 073b 00000000 		.4byte	.LFB163
 2549 073f 20000000 		.4byte	.LFE163-.LFB163
 2550 0743 01       		.uleb128 0x1
 2551 0744 9C       		.byte	0x9c
 2552 0745 59070000 		.4byte	0x759
 2553 0749 18       		.uleb128 0x18
 2554 074a 73030000 		.4byte	.LASF59
 2555 074e 01       		.byte	0x1
 2556 074f 7B02     		.2byte	0x27b
 2557 0751 BB060000 		.4byte	0x6bb
ARM GAS  C:\Users\ikomb\AppData\Local\Temp\cchnbsea.s 			page 70


 2558 0755 02       		.uleb128 0x2
 2559 0756 91       		.byte	0x91
 2560 0757 74       		.sleb128 -12
 2561 0758 00       		.byte	0
 2562 0759 19       		.uleb128 0x19
 2563 075a 2C060000 		.4byte	.LASF131
 2564 075e 01       		.byte	0x1
 2565 075f 8F02     		.2byte	0x28f
 2566 0761 A9000000 		.4byte	0xa9
 2567 0765 00000000 		.4byte	.LFB164
 2568 0769 20000000 		.4byte	.LFE164-.LFB164
 2569 076d 01       		.uleb128 0x1
 2570 076e 9C       		.byte	0x9c
 2571 076f 83070000 		.4byte	0x783
 2572 0773 18       		.uleb128 0x18
 2573 0774 73030000 		.4byte	.LASF59
 2574 0778 01       		.byte	0x1
 2575 0779 8F02     		.2byte	0x28f
 2576 077b 83070000 		.4byte	0x783
 2577 077f 02       		.uleb128 0x2
 2578 0780 91       		.byte	0x91
 2579 0781 74       		.sleb128 -12
 2580 0782 00       		.byte	0
 2581 0783 15       		.uleb128 0x15
 2582 0784 04       		.byte	0x4
 2583 0785 89070000 		.4byte	0x789
 2584 0789 06       		.uleb128 0x6
 2585 078a E1020000 		.4byte	0x2e1
 2586 078e 17       		.uleb128 0x17
 2587 078f E5060000 		.4byte	.LASF125
 2588 0793 01       		.byte	0x1
 2589 0794 A102     		.2byte	0x2a1
 2590 0796 00000000 		.4byte	.LFB165
 2591 079a 3A000000 		.4byte	.LFE165-.LFB165
 2592 079e 01       		.uleb128 0x1
 2593 079f 9C       		.byte	0x9c
 2594 07a0 B4070000 		.4byte	0x7b4
 2595 07a4 18       		.uleb128 0x18
 2596 07a5 73030000 		.4byte	.LASF59
 2597 07a9 01       		.byte	0x1
 2598 07aa A102     		.2byte	0x2a1
 2599 07ac BB060000 		.4byte	0x6bb
 2600 07b0 02       		.uleb128 0x2
 2601 07b1 91       		.byte	0x91
 2602 07b2 74       		.sleb128 -12
 2603 07b3 00       		.byte	0
 2604 07b4 17       		.uleb128 0x17
 2605 07b5 AA030000 		.4byte	.LASF126
 2606 07b9 01       		.byte	0x1
 2607 07ba CB02     		.2byte	0x2cb
 2608 07bc 00000000 		.4byte	.LFB167
 2609 07c0 1E000000 		.4byte	.LFE167-.LFB167
 2610 07c4 01       		.uleb128 0x1
 2611 07c5 9C       		.byte	0x9c
 2612 07c6 E9070000 		.4byte	0x7e9
 2613 07ca 18       		.uleb128 0x18
 2614 07cb 73030000 		.4byte	.LASF59
ARM GAS  C:\Users\ikomb\AppData\Local\Temp\cchnbsea.s 			page 71


 2615 07cf 01       		.byte	0x1
 2616 07d0 CB02     		.2byte	0x2cb
 2617 07d2 BB060000 		.4byte	0x6bb
 2618 07d6 02       		.uleb128 0x2
 2619 07d7 91       		.byte	0x91
 2620 07d8 74       		.sleb128 -12
 2621 07d9 18       		.uleb128 0x18
 2622 07da EA020000 		.4byte	.LASF127
 2623 07de 01       		.byte	0x1
 2624 07df CB02     		.2byte	0x2cb
 2625 07e1 A9000000 		.4byte	0xa9
 2626 07e5 02       		.uleb128 0x2
 2627 07e6 91       		.byte	0x91
 2628 07e7 70       		.sleb128 -16
 2629 07e8 00       		.byte	0
 2630 07e9 17       		.uleb128 0x17
 2631 07ea 83010000 		.4byte	.LASF128
 2632 07ee 01       		.byte	0x1
 2633 07ef 2903     		.2byte	0x329
 2634 07f1 00000000 		.4byte	.LFB172
 2635 07f5 3A000000 		.4byte	.LFE172-.LFB172
 2636 07f9 01       		.uleb128 0x1
 2637 07fa 9C       		.byte	0x9c
 2638 07fb 0F080000 		.4byte	0x80f
 2639 07ff 18       		.uleb128 0x18
 2640 0800 73030000 		.4byte	.LASF59
 2641 0804 01       		.byte	0x1
 2642 0805 2903     		.2byte	0x329
 2643 0807 BB060000 		.4byte	0x6bb
 2644 080b 02       		.uleb128 0x2
 2645 080c 91       		.byte	0x91
 2646 080d 74       		.sleb128 -12
 2647 080e 00       		.byte	0
 2648 080f 1A       		.uleb128 0x1a
 2649 0810 59050000 		.4byte	.LASF129
 2650 0814 01       		.byte	0x1
 2651 0815 DC03     		.2byte	0x3dc
 2652 0817 00000000 		.4byte	.LFB181
 2653 081b 3C000000 		.4byte	.LFE181-.LFB181
 2654 081f 01       		.uleb128 0x1
 2655 0820 9C       		.byte	0x9c
 2656 0821 44080000 		.4byte	0x844
 2657 0825 18       		.uleb128 0x18
 2658 0826 73030000 		.4byte	.LASF59
 2659 082a 01       		.byte	0x1
 2660 082b DC03     		.2byte	0x3dc
 2661 082d BB060000 		.4byte	0x6bb
 2662 0831 02       		.uleb128 0x2
 2663 0832 91       		.byte	0x91
 2664 0833 74       		.sleb128 -12
 2665 0834 18       		.uleb128 0x18
 2666 0835 C8010000 		.4byte	.LASF130
 2667 0839 01       		.byte	0x1
 2668 083a DC03     		.2byte	0x3dc
 2669 083c A9000000 		.4byte	0xa9
 2670 0840 02       		.uleb128 0x2
 2671 0841 91       		.byte	0x91
ARM GAS  C:\Users\ikomb\AppData\Local\Temp\cchnbsea.s 			page 72


 2672 0842 70       		.sleb128 -16
 2673 0843 00       		.byte	0
 2674 0844 19       		.uleb128 0x19
 2675 0845 9D010000 		.4byte	.LASF132
 2676 0849 01       		.byte	0x1
 2677 084a 0704     		.2byte	0x407
 2678 084c A9000000 		.4byte	0xa9
 2679 0850 00000000 		.4byte	.LFB183
 2680 0854 1A000000 		.4byte	.LFE183-.LFB183
 2681 0858 01       		.uleb128 0x1
 2682 0859 9C       		.byte	0x9c
 2683 085a 6E080000 		.4byte	0x86e
 2684 085e 18       		.uleb128 0x18
 2685 085f 73030000 		.4byte	.LASF59
 2686 0863 01       		.byte	0x1
 2687 0864 0704     		.2byte	0x407
 2688 0866 83070000 		.4byte	0x783
 2689 086a 02       		.uleb128 0x2
 2690 086b 91       		.byte	0x91
 2691 086c 74       		.sleb128 -12
 2692 086d 00       		.byte	0
 2693 086e 1A       		.uleb128 0x1a
 2694 086f 1F030000 		.4byte	.LASF133
 2695 0873 01       		.byte	0x1
 2696 0874 1B04     		.2byte	0x41b
 2697 0876 00000000 		.4byte	.LFB184
 2698 087a 38000000 		.4byte	.LFE184-.LFB184
 2699 087e 01       		.uleb128 0x1
 2700 087f 9C       		.byte	0x9c
 2701 0880 A3080000 		.4byte	0x8a3
 2702 0884 18       		.uleb128 0x18
 2703 0885 73030000 		.4byte	.LASF59
 2704 0889 01       		.byte	0x1
 2705 088a 1B04     		.2byte	0x41b
 2706 088c BB060000 		.4byte	0x6bb
 2707 0890 02       		.uleb128 0x2
 2708 0891 91       		.byte	0x91
 2709 0892 74       		.sleb128 -12
 2710 0893 18       		.uleb128 0x18
 2711 0894 C8010000 		.4byte	.LASF130
 2712 0898 01       		.byte	0x1
 2713 0899 1B04     		.2byte	0x41b
 2714 089b A9000000 		.4byte	0xa9
 2715 089f 02       		.uleb128 0x2
 2716 08a0 91       		.byte	0x91
 2717 08a1 70       		.sleb128 -16
 2718 08a2 00       		.byte	0
 2719 08a3 1B       		.uleb128 0x1b
 2720 08a4 62000000 		.4byte	.LASF139
 2721 08a8 02       		.byte	0x2
 2722 08a9 29       		.byte	0x29
 2723 08aa E4030000 		.4byte	0x3e4
 2724 08ae 00000000 		.4byte	.LFB186
 2725 08b2 04050000 		.4byte	.LFE186-.LFB186
 2726 08b6 01       		.uleb128 0x1
 2727 08b7 9C       		.byte	0x9c
 2728 08b8 29090000 		.4byte	0x929
ARM GAS  C:\Users\ikomb\AppData\Local\Temp\cchnbsea.s 			page 73


 2729 08bc 1C       		.uleb128 0x1c
 2730 08bd 73030000 		.4byte	.LASF59
 2731 08c1 02       		.byte	0x2
 2732 08c2 29       		.byte	0x29
 2733 08c3 BB060000 		.4byte	0x6bb
 2734 08c7 02       		.uleb128 0x2
 2735 08c8 91       		.byte	0x91
 2736 08c9 64       		.sleb128 -28
 2737 08ca 1C       		.uleb128 0x1c
 2738 08cb D2060000 		.4byte	.LASF134
 2739 08cf 02       		.byte	0x2
 2740 08d0 29       		.byte	0x29
 2741 08d1 29090000 		.4byte	0x929
 2742 08d5 02       		.uleb128 0x2
 2743 08d6 91       		.byte	0x91
 2744 08d7 60       		.sleb128 -32
 2745 08d8 1D       		.uleb128 0x1d
 2746 08d9 72657400 		.ascii	"ret\000"
 2747 08dd 02       		.byte	0x2
 2748 08de 2B       		.byte	0x2b
 2749 08df E4030000 		.4byte	0x3e4
 2750 08e3 02       		.uleb128 0x2
 2751 08e4 91       		.byte	0x91
 2752 08e5 74       		.sleb128 -12
 2753 08e6 1E       		.uleb128 0x1e
 2754 08e7 1E000000 		.4byte	.LBB2
 2755 08eb D8040000 		.4byte	.LBE2-.LBB2
 2756 08ef 1F       		.uleb128 0x1f
 2757 08f0 65090000 		.4byte	.LASF135
 2758 08f4 02       		.byte	0x2
 2759 08f5 2F       		.byte	0x2f
 2760 08f6 9C040000 		.4byte	0x49c
 2761 08fa 02       		.uleb128 0x2
 2762 08fb 91       		.byte	0x91
 2763 08fc 73       		.sleb128 -13
 2764 08fd 1F       		.uleb128 0x1f
 2765 08fe 78030000 		.4byte	.LASF136
 2766 0902 02       		.byte	0x2
 2767 0903 30       		.byte	0x30
 2768 0904 50040000 		.4byte	0x450
 2769 0908 02       		.uleb128 0x2
 2770 0909 91       		.byte	0x91
 2771 090a 72       		.sleb128 -14
 2772 090b 1F       		.uleb128 0x1f
 2773 090c 54010000 		.4byte	.LASF137
 2774 0910 02       		.byte	0x2
 2775 0911 31       		.byte	0x31
 2776 0912 A9000000 		.4byte	0xa9
 2777 0916 02       		.uleb128 0x2
 2778 0917 91       		.byte	0x91
 2779 0918 6C       		.sleb128 -20
 2780 0919 1F       		.uleb128 0x1f
 2781 091a 2E090000 		.4byte	.LASF138
 2782 091e 02       		.byte	0x2
 2783 091f 32       		.byte	0x32
 2784 0920 A9000000 		.4byte	0xa9
 2785 0924 02       		.uleb128 0x2
ARM GAS  C:\Users\ikomb\AppData\Local\Temp\cchnbsea.s 			page 74


 2786 0925 91       		.byte	0x91
 2787 0926 68       		.sleb128 -24
 2788 0927 00       		.byte	0
 2789 0928 00       		.byte	0
 2790 0929 15       		.uleb128 0x15
 2791 092a 04       		.byte	0x4
 2792 092b 2F090000 		.4byte	0x92f
 2793 092f 06       		.uleb128 0x6
 2794 0930 59060000 		.4byte	0x659
 2795 0934 20       		.uleb128 0x20
 2796 0935 F8060000 		.4byte	.LASF148
 2797 0939 02       		.byte	0x2
 2798 093a BA       		.byte	0xba
 2799 093b 00000000 		.4byte	.LFB187
 2800 093f 68000000 		.4byte	.LFE187-.LFB187
 2801 0943 01       		.uleb128 0x1
 2802 0944 9C       		.byte	0x9c
 2803 0945 58090000 		.4byte	0x958
 2804 0949 1C       		.uleb128 0x1c
 2805 094a 73030000 		.4byte	.LASF59
 2806 094e 02       		.byte	0x2
 2807 094f BA       		.byte	0xba
 2808 0950 BB060000 		.4byte	0x6bb
 2809 0954 02       		.uleb128 0x2
 2810 0955 91       		.byte	0x91
 2811 0956 74       		.sleb128 -12
 2812 0957 00       		.byte	0
 2813 0958 1B       		.uleb128 0x1b
 2814 0959 EA050000 		.4byte	.LASF140
 2815 095d 02       		.byte	0x2
 2816 095e E1       		.byte	0xe1
 2817 095f 45030000 		.4byte	0x345
 2818 0963 00000000 		.4byte	.LFB188
 2819 0967 2C010000 		.4byte	.LFE188-.LFB188
 2820 096b 01       		.uleb128 0x1
 2821 096c 9C       		.byte	0x9c
 2822 096d B8090000 		.4byte	0x9b8
 2823 0971 1C       		.uleb128 0x1c
 2824 0972 41030000 		.4byte	.LASF141
 2825 0976 02       		.byte	0x2
 2826 0977 E1       		.byte	0xe1
 2827 0978 C2030000 		.4byte	0x3c2
 2828 097c 02       		.uleb128 0x2
 2829 097d 91       		.byte	0x91
 2830 097e 64       		.sleb128 -28
 2831 097f 1D       		.uleb128 0x1d
 2832 0980 72657400 		.ascii	"ret\000"
 2833 0984 02       		.byte	0x2
 2834 0985 E3       		.byte	0xe3
 2835 0986 45030000 		.4byte	0x345
 2836 098a 02       		.uleb128 0x2
 2837 098b 91       		.byte	0x91
 2838 098c 74       		.sleb128 -12
 2839 098d 1F       		.uleb128 0x1f
 2840 098e 84000000 		.4byte	.LASF142
 2841 0992 02       		.byte	0x2
 2842 0993 E5       		.byte	0xe5
ARM GAS  C:\Users\ikomb\AppData\Local\Temp\cchnbsea.s 			page 75


 2843 0994 BB060000 		.4byte	0x6bb
 2844 0998 02       		.uleb128 0x2
 2845 0999 91       		.byte	0x91
 2846 099a 70       		.sleb128 -16
 2847 099b 1F       		.uleb128 0x1f
 2848 099c 0A000000 		.4byte	.LASF143
 2849 09a0 02       		.byte	0x2
 2850 09a1 E6       		.byte	0xe6
 2851 09a2 B8090000 		.4byte	0x9b8
 2852 09a6 02       		.uleb128 0x2
 2853 09a7 91       		.byte	0x91
 2854 09a8 6C       		.sleb128 -20
 2855 09a9 1F       		.uleb128 0x1f
 2856 09aa 52000000 		.4byte	.LASF144
 2857 09ae 02       		.byte	0x2
 2858 09af E7       		.byte	0xe7
 2859 09b0 B8090000 		.4byte	0x9b8
 2860 09b4 02       		.uleb128 0x2
 2861 09b5 91       		.byte	0x91
 2862 09b6 68       		.sleb128 -24
 2863 09b7 00       		.byte	0
 2864 09b8 15       		.uleb128 0x15
 2865 09b9 04       		.byte	0x4
 2866 09ba A9000000 		.4byte	0xa9
 2867 09be 21       		.uleb128 0x21
 2868 09bf BA000000 		.4byte	.LASF149
 2869 09c3 08       		.byte	0x8
 2870 09c4 EA07     		.2byte	0x7ea
 2871 09c6 CA090000 		.4byte	0x9ca
 2872 09ca 05       		.uleb128 0x5
 2873 09cb 9E000000 		.4byte	0x9e
 2874 09cf 00       		.byte	0
 2875              		.section	.debug_abbrev,"",%progbits
 2876              	.Ldebug_abbrev0:
 2877 0000 01       		.uleb128 0x1
 2878 0001 11       		.uleb128 0x11
 2879 0002 01       		.byte	0x1
 2880 0003 25       		.uleb128 0x25
 2881 0004 0E       		.uleb128 0xe
 2882 0005 13       		.uleb128 0x13
 2883 0006 0B       		.uleb128 0xb
 2884 0007 03       		.uleb128 0x3
 2885 0008 0E       		.uleb128 0xe
 2886 0009 1B       		.uleb128 0x1b
 2887 000a 0E       		.uleb128 0xe
 2888 000b 55       		.uleb128 0x55
 2889 000c 17       		.uleb128 0x17
 2890 000d 11       		.uleb128 0x11
 2891 000e 01       		.uleb128 0x1
 2892 000f 10       		.uleb128 0x10
 2893 0010 17       		.uleb128 0x17
 2894 0011 00       		.byte	0
 2895 0012 00       		.byte	0
 2896 0013 02       		.uleb128 0x2
 2897 0014 24       		.uleb128 0x24
 2898 0015 00       		.byte	0
 2899 0016 0B       		.uleb128 0xb
ARM GAS  C:\Users\ikomb\AppData\Local\Temp\cchnbsea.s 			page 76


 2900 0017 0B       		.uleb128 0xb
 2901 0018 3E       		.uleb128 0x3e
 2902 0019 0B       		.uleb128 0xb
 2903 001a 03       		.uleb128 0x3
 2904 001b 08       		.uleb128 0x8
 2905 001c 00       		.byte	0
 2906 001d 00       		.byte	0
 2907 001e 03       		.uleb128 0x3
 2908 001f 24       		.uleb128 0x24
 2909 0020 00       		.byte	0
 2910 0021 0B       		.uleb128 0xb
 2911 0022 0B       		.uleb128 0xb
 2912 0023 3E       		.uleb128 0x3e
 2913 0024 0B       		.uleb128 0xb
 2914 0025 03       		.uleb128 0x3
 2915 0026 0E       		.uleb128 0xe
 2916 0027 00       		.byte	0
 2917 0028 00       		.byte	0
 2918 0029 04       		.uleb128 0x4
 2919 002a 16       		.uleb128 0x16
 2920 002b 00       		.byte	0
 2921 002c 03       		.uleb128 0x3
 2922 002d 0E       		.uleb128 0xe
 2923 002e 3A       		.uleb128 0x3a
 2924 002f 0B       		.uleb128 0xb
 2925 0030 3B       		.uleb128 0x3b
 2926 0031 0B       		.uleb128 0xb
 2927 0032 49       		.uleb128 0x49
 2928 0033 13       		.uleb128 0x13
 2929 0034 00       		.byte	0
 2930 0035 00       		.byte	0
 2931 0036 05       		.uleb128 0x5
 2932 0037 35       		.uleb128 0x35
 2933 0038 00       		.byte	0
 2934 0039 49       		.uleb128 0x49
 2935 003a 13       		.uleb128 0x13
 2936 003b 00       		.byte	0
 2937 003c 00       		.byte	0
 2938 003d 06       		.uleb128 0x6
 2939 003e 26       		.uleb128 0x26
 2940 003f 00       		.byte	0
 2941 0040 49       		.uleb128 0x49
 2942 0041 13       		.uleb128 0x13
 2943 0042 00       		.byte	0
 2944 0043 00       		.byte	0
 2945 0044 07       		.uleb128 0x7
 2946 0045 01       		.uleb128 0x1
 2947 0046 01       		.byte	0x1
 2948 0047 49       		.uleb128 0x49
 2949 0048 13       		.uleb128 0x13
 2950 0049 01       		.uleb128 0x1
 2951 004a 13       		.uleb128 0x13
 2952 004b 00       		.byte	0
 2953 004c 00       		.byte	0
 2954 004d 08       		.uleb128 0x8
 2955 004e 21       		.uleb128 0x21
 2956 004f 00       		.byte	0
ARM GAS  C:\Users\ikomb\AppData\Local\Temp\cchnbsea.s 			page 77


 2957 0050 49       		.uleb128 0x49
 2958 0051 13       		.uleb128 0x13
 2959 0052 2F       		.uleb128 0x2f
 2960 0053 0B       		.uleb128 0xb
 2961 0054 00       		.byte	0
 2962 0055 00       		.byte	0
 2963 0056 09       		.uleb128 0x9
 2964 0057 13       		.uleb128 0x13
 2965 0058 01       		.byte	0x1
 2966 0059 0B       		.uleb128 0xb
 2967 005a 05       		.uleb128 0x5
 2968 005b 3A       		.uleb128 0x3a
 2969 005c 0B       		.uleb128 0xb
 2970 005d 3B       		.uleb128 0x3b
 2971 005e 0B       		.uleb128 0xb
 2972 005f 01       		.uleb128 0x1
 2973 0060 13       		.uleb128 0x13
 2974 0061 00       		.byte	0
 2975 0062 00       		.byte	0
 2976 0063 0A       		.uleb128 0xa
 2977 0064 0D       		.uleb128 0xd
 2978 0065 00       		.byte	0
 2979 0066 03       		.uleb128 0x3
 2980 0067 08       		.uleb128 0x8
 2981 0068 3A       		.uleb128 0x3a
 2982 0069 0B       		.uleb128 0xb
 2983 006a 3B       		.uleb128 0x3b
 2984 006b 0B       		.uleb128 0xb
 2985 006c 49       		.uleb128 0x49
 2986 006d 13       		.uleb128 0x13
 2987 006e 38       		.uleb128 0x38
 2988 006f 0B       		.uleb128 0xb
 2989 0070 00       		.byte	0
 2990 0071 00       		.byte	0
 2991 0072 0B       		.uleb128 0xb
 2992 0073 0D       		.uleb128 0xd
 2993 0074 00       		.byte	0
 2994 0075 03       		.uleb128 0x3
 2995 0076 0E       		.uleb128 0xe
 2996 0077 3A       		.uleb128 0x3a
 2997 0078 0B       		.uleb128 0xb
 2998 0079 3B       		.uleb128 0x3b
 2999 007a 0B       		.uleb128 0xb
 3000 007b 49       		.uleb128 0x49
 3001 007c 13       		.uleb128 0x13
 3002 007d 38       		.uleb128 0x38
 3003 007e 0B       		.uleb128 0xb
 3004 007f 00       		.byte	0
 3005 0080 00       		.byte	0
 3006 0081 0C       		.uleb128 0xc
 3007 0082 0D       		.uleb128 0xd
 3008 0083 00       		.byte	0
 3009 0084 03       		.uleb128 0x3
 3010 0085 0E       		.uleb128 0xe
 3011 0086 3A       		.uleb128 0x3a
 3012 0087 0B       		.uleb128 0xb
 3013 0088 3B       		.uleb128 0x3b
ARM GAS  C:\Users\ikomb\AppData\Local\Temp\cchnbsea.s 			page 78


 3014 0089 0B       		.uleb128 0xb
 3015 008a 49       		.uleb128 0x49
 3016 008b 13       		.uleb128 0x13
 3017 008c 38       		.uleb128 0x38
 3018 008d 05       		.uleb128 0x5
 3019 008e 00       		.byte	0
 3020 008f 00       		.byte	0
 3021 0090 0D       		.uleb128 0xd
 3022 0091 21       		.uleb128 0x21
 3023 0092 00       		.byte	0
 3024 0093 49       		.uleb128 0x49
 3025 0094 13       		.uleb128 0x13
 3026 0095 2F       		.uleb128 0x2f
 3027 0096 05       		.uleb128 0x5
 3028 0097 00       		.byte	0
 3029 0098 00       		.byte	0
 3030 0099 0E       		.uleb128 0xe
 3031 009a 16       		.uleb128 0x16
 3032 009b 00       		.byte	0
 3033 009c 03       		.uleb128 0x3
 3034 009d 0E       		.uleb128 0xe
 3035 009e 3A       		.uleb128 0x3a
 3036 009f 0B       		.uleb128 0xb
 3037 00a0 3B       		.uleb128 0x3b
 3038 00a1 05       		.uleb128 0x5
 3039 00a2 49       		.uleb128 0x49
 3040 00a3 13       		.uleb128 0x13
 3041 00a4 00       		.byte	0
 3042 00a5 00       		.byte	0
 3043 00a6 0F       		.uleb128 0xf
 3044 00a7 04       		.uleb128 0x4
 3045 00a8 01       		.byte	0x1
 3046 00a9 0B       		.uleb128 0xb
 3047 00aa 0B       		.uleb128 0xb
 3048 00ab 49       		.uleb128 0x49
 3049 00ac 13       		.uleb128 0x13
 3050 00ad 3A       		.uleb128 0x3a
 3051 00ae 0B       		.uleb128 0xb
 3052 00af 3B       		.uleb128 0x3b
 3053 00b0 05       		.uleb128 0x5
 3054 00b1 01       		.uleb128 0x1
 3055 00b2 13       		.uleb128 0x13
 3056 00b3 00       		.byte	0
 3057 00b4 00       		.byte	0
 3058 00b5 10       		.uleb128 0x10
 3059 00b6 28       		.uleb128 0x28
 3060 00b7 00       		.byte	0
 3061 00b8 03       		.uleb128 0x3
 3062 00b9 0E       		.uleb128 0xe
 3063 00ba 1C       		.uleb128 0x1c
 3064 00bb 0B       		.uleb128 0xb
 3065 00bc 00       		.byte	0
 3066 00bd 00       		.byte	0
 3067 00be 11       		.uleb128 0x11
 3068 00bf 28       		.uleb128 0x28
 3069 00c0 00       		.byte	0
 3070 00c1 03       		.uleb128 0x3
ARM GAS  C:\Users\ikomb\AppData\Local\Temp\cchnbsea.s 			page 79


 3071 00c2 0E       		.uleb128 0xe
 3072 00c3 1C       		.uleb128 0x1c
 3073 00c4 06       		.uleb128 0x6
 3074 00c5 00       		.byte	0
 3075 00c6 00       		.byte	0
 3076 00c7 12       		.uleb128 0x12
 3077 00c8 13       		.uleb128 0x13
 3078 00c9 01       		.byte	0x1
 3079 00ca 0B       		.uleb128 0xb
 3080 00cb 0B       		.uleb128 0xb
 3081 00cc 3A       		.uleb128 0x3a
 3082 00cd 0B       		.uleb128 0xb
 3083 00ce 3B       		.uleb128 0x3b
 3084 00cf 05       		.uleb128 0x5
 3085 00d0 01       		.uleb128 0x1
 3086 00d1 13       		.uleb128 0x13
 3087 00d2 00       		.byte	0
 3088 00d3 00       		.byte	0
 3089 00d4 13       		.uleb128 0x13
 3090 00d5 0D       		.uleb128 0xd
 3091 00d6 00       		.byte	0
 3092 00d7 03       		.uleb128 0x3
 3093 00d8 0E       		.uleb128 0xe
 3094 00d9 3A       		.uleb128 0x3a
 3095 00da 0B       		.uleb128 0xb
 3096 00db 3B       		.uleb128 0x3b
 3097 00dc 05       		.uleb128 0x5
 3098 00dd 49       		.uleb128 0x49
 3099 00de 13       		.uleb128 0x13
 3100 00df 38       		.uleb128 0x38
 3101 00e0 0B       		.uleb128 0xb
 3102 00e1 00       		.byte	0
 3103 00e2 00       		.byte	0
 3104 00e3 14       		.uleb128 0x14
 3105 00e4 0F       		.uleb128 0xf
 3106 00e5 00       		.byte	0
 3107 00e6 0B       		.uleb128 0xb
 3108 00e7 0B       		.uleb128 0xb
 3109 00e8 00       		.byte	0
 3110 00e9 00       		.byte	0
 3111 00ea 15       		.uleb128 0x15
 3112 00eb 0F       		.uleb128 0xf
 3113 00ec 00       		.byte	0
 3114 00ed 0B       		.uleb128 0xb
 3115 00ee 0B       		.uleb128 0xb
 3116 00ef 49       		.uleb128 0x49
 3117 00f0 13       		.uleb128 0x13
 3118 00f1 00       		.byte	0
 3119 00f2 00       		.byte	0
 3120 00f3 16       		.uleb128 0x16
 3121 00f4 04       		.uleb128 0x4
 3122 00f5 01       		.byte	0x1
 3123 00f6 0B       		.uleb128 0xb
 3124 00f7 0B       		.uleb128 0xb
 3125 00f8 49       		.uleb128 0x49
 3126 00f9 13       		.uleb128 0x13
 3127 00fa 3A       		.uleb128 0x3a
ARM GAS  C:\Users\ikomb\AppData\Local\Temp\cchnbsea.s 			page 80


 3128 00fb 0B       		.uleb128 0xb
 3129 00fc 3B       		.uleb128 0x3b
 3130 00fd 0B       		.uleb128 0xb
 3131 00fe 01       		.uleb128 0x1
 3132 00ff 13       		.uleb128 0x13
 3133 0100 00       		.byte	0
 3134 0101 00       		.byte	0
 3135 0102 17       		.uleb128 0x17
 3136 0103 2E       		.uleb128 0x2e
 3137 0104 01       		.byte	0x1
 3138 0105 03       		.uleb128 0x3
 3139 0106 0E       		.uleb128 0xe
 3140 0107 3A       		.uleb128 0x3a
 3141 0108 0B       		.uleb128 0xb
 3142 0109 3B       		.uleb128 0x3b
 3143 010a 05       		.uleb128 0x5
 3144 010b 27       		.uleb128 0x27
 3145 010c 19       		.uleb128 0x19
 3146 010d 11       		.uleb128 0x11
 3147 010e 01       		.uleb128 0x1
 3148 010f 12       		.uleb128 0x12
 3149 0110 06       		.uleb128 0x6
 3150 0111 40       		.uleb128 0x40
 3151 0112 18       		.uleb128 0x18
 3152 0113 9742     		.uleb128 0x2117
 3153 0115 19       		.uleb128 0x19
 3154 0116 01       		.uleb128 0x1
 3155 0117 13       		.uleb128 0x13
 3156 0118 00       		.byte	0
 3157 0119 00       		.byte	0
 3158 011a 18       		.uleb128 0x18
 3159 011b 05       		.uleb128 0x5
 3160 011c 00       		.byte	0
 3161 011d 03       		.uleb128 0x3
 3162 011e 0E       		.uleb128 0xe
 3163 011f 3A       		.uleb128 0x3a
 3164 0120 0B       		.uleb128 0xb
 3165 0121 3B       		.uleb128 0x3b
 3166 0122 05       		.uleb128 0x5
 3167 0123 49       		.uleb128 0x49
 3168 0124 13       		.uleb128 0x13
 3169 0125 02       		.uleb128 0x2
 3170 0126 18       		.uleb128 0x18
 3171 0127 00       		.byte	0
 3172 0128 00       		.byte	0
 3173 0129 19       		.uleb128 0x19
 3174 012a 2E       		.uleb128 0x2e
 3175 012b 01       		.byte	0x1
 3176 012c 03       		.uleb128 0x3
 3177 012d 0E       		.uleb128 0xe
 3178 012e 3A       		.uleb128 0x3a
 3179 012f 0B       		.uleb128 0xb
 3180 0130 3B       		.uleb128 0x3b
 3181 0131 05       		.uleb128 0x5
 3182 0132 27       		.uleb128 0x27
 3183 0133 19       		.uleb128 0x19
 3184 0134 49       		.uleb128 0x49
ARM GAS  C:\Users\ikomb\AppData\Local\Temp\cchnbsea.s 			page 81


 3185 0135 13       		.uleb128 0x13
 3186 0136 11       		.uleb128 0x11
 3187 0137 01       		.uleb128 0x1
 3188 0138 12       		.uleb128 0x12
 3189 0139 06       		.uleb128 0x6
 3190 013a 40       		.uleb128 0x40
 3191 013b 18       		.uleb128 0x18
 3192 013c 9742     		.uleb128 0x2117
 3193 013e 19       		.uleb128 0x19
 3194 013f 01       		.uleb128 0x1
 3195 0140 13       		.uleb128 0x13
 3196 0141 00       		.byte	0
 3197 0142 00       		.byte	0
 3198 0143 1A       		.uleb128 0x1a
 3199 0144 2E       		.uleb128 0x2e
 3200 0145 01       		.byte	0x1
 3201 0146 03       		.uleb128 0x3
 3202 0147 0E       		.uleb128 0xe
 3203 0148 3A       		.uleb128 0x3a
 3204 0149 0B       		.uleb128 0xb
 3205 014a 3B       		.uleb128 0x3b
 3206 014b 05       		.uleb128 0x5
 3207 014c 27       		.uleb128 0x27
 3208 014d 19       		.uleb128 0x19
 3209 014e 11       		.uleb128 0x11
 3210 014f 01       		.uleb128 0x1
 3211 0150 12       		.uleb128 0x12
 3212 0151 06       		.uleb128 0x6
 3213 0152 40       		.uleb128 0x40
 3214 0153 18       		.uleb128 0x18
 3215 0154 9642     		.uleb128 0x2116
 3216 0156 19       		.uleb128 0x19
 3217 0157 01       		.uleb128 0x1
 3218 0158 13       		.uleb128 0x13
 3219 0159 00       		.byte	0
 3220 015a 00       		.byte	0
 3221 015b 1B       		.uleb128 0x1b
 3222 015c 2E       		.uleb128 0x2e
 3223 015d 01       		.byte	0x1
 3224 015e 3F       		.uleb128 0x3f
 3225 015f 19       		.uleb128 0x19
 3226 0160 03       		.uleb128 0x3
 3227 0161 0E       		.uleb128 0xe
 3228 0162 3A       		.uleb128 0x3a
 3229 0163 0B       		.uleb128 0xb
 3230 0164 3B       		.uleb128 0x3b
 3231 0165 0B       		.uleb128 0xb
 3232 0166 27       		.uleb128 0x27
 3233 0167 19       		.uleb128 0x19
 3234 0168 49       		.uleb128 0x49
 3235 0169 13       		.uleb128 0x13
 3236 016a 11       		.uleb128 0x11
 3237 016b 01       		.uleb128 0x1
 3238 016c 12       		.uleb128 0x12
 3239 016d 06       		.uleb128 0x6
 3240 016e 40       		.uleb128 0x40
 3241 016f 18       		.uleb128 0x18
ARM GAS  C:\Users\ikomb\AppData\Local\Temp\cchnbsea.s 			page 82


 3242 0170 9642     		.uleb128 0x2116
 3243 0172 19       		.uleb128 0x19
 3244 0173 01       		.uleb128 0x1
 3245 0174 13       		.uleb128 0x13
 3246 0175 00       		.byte	0
 3247 0176 00       		.byte	0
 3248 0177 1C       		.uleb128 0x1c
 3249 0178 05       		.uleb128 0x5
 3250 0179 00       		.byte	0
 3251 017a 03       		.uleb128 0x3
 3252 017b 0E       		.uleb128 0xe
 3253 017c 3A       		.uleb128 0x3a
 3254 017d 0B       		.uleb128 0xb
 3255 017e 3B       		.uleb128 0x3b
 3256 017f 0B       		.uleb128 0xb
 3257 0180 49       		.uleb128 0x49
 3258 0181 13       		.uleb128 0x13
 3259 0182 02       		.uleb128 0x2
 3260 0183 18       		.uleb128 0x18
 3261 0184 00       		.byte	0
 3262 0185 00       		.byte	0
 3263 0186 1D       		.uleb128 0x1d
 3264 0187 34       		.uleb128 0x34
 3265 0188 00       		.byte	0
 3266 0189 03       		.uleb128 0x3
 3267 018a 08       		.uleb128 0x8
 3268 018b 3A       		.uleb128 0x3a
 3269 018c 0B       		.uleb128 0xb
 3270 018d 3B       		.uleb128 0x3b
 3271 018e 0B       		.uleb128 0xb
 3272 018f 49       		.uleb128 0x49
 3273 0190 13       		.uleb128 0x13
 3274 0191 02       		.uleb128 0x2
 3275 0192 18       		.uleb128 0x18
 3276 0193 00       		.byte	0
 3277 0194 00       		.byte	0
 3278 0195 1E       		.uleb128 0x1e
 3279 0196 0B       		.uleb128 0xb
 3280 0197 01       		.byte	0x1
 3281 0198 11       		.uleb128 0x11
 3282 0199 01       		.uleb128 0x1
 3283 019a 12       		.uleb128 0x12
 3284 019b 06       		.uleb128 0x6
 3285 019c 00       		.byte	0
 3286 019d 00       		.byte	0
 3287 019e 1F       		.uleb128 0x1f
 3288 019f 34       		.uleb128 0x34
 3289 01a0 00       		.byte	0
 3290 01a1 03       		.uleb128 0x3
 3291 01a2 0E       		.uleb128 0xe
 3292 01a3 3A       		.uleb128 0x3a
 3293 01a4 0B       		.uleb128 0xb
 3294 01a5 3B       		.uleb128 0x3b
 3295 01a6 0B       		.uleb128 0xb
 3296 01a7 49       		.uleb128 0x49
 3297 01a8 13       		.uleb128 0x13
 3298 01a9 02       		.uleb128 0x2
ARM GAS  C:\Users\ikomb\AppData\Local\Temp\cchnbsea.s 			page 83


 3299 01aa 18       		.uleb128 0x18
 3300 01ab 00       		.byte	0
 3301 01ac 00       		.byte	0
 3302 01ad 20       		.uleb128 0x20
 3303 01ae 2E       		.uleb128 0x2e
 3304 01af 01       		.byte	0x1
 3305 01b0 3F       		.uleb128 0x3f
 3306 01b1 19       		.uleb128 0x19
 3307 01b2 03       		.uleb128 0x3
 3308 01b3 0E       		.uleb128 0xe
 3309 01b4 3A       		.uleb128 0x3a
 3310 01b5 0B       		.uleb128 0xb
 3311 01b6 3B       		.uleb128 0x3b
 3312 01b7 0B       		.uleb128 0xb
 3313 01b8 27       		.uleb128 0x27
 3314 01b9 19       		.uleb128 0x19
 3315 01ba 11       		.uleb128 0x11
 3316 01bb 01       		.uleb128 0x1
 3317 01bc 12       		.uleb128 0x12
 3318 01bd 06       		.uleb128 0x6
 3319 01be 40       		.uleb128 0x40
 3320 01bf 18       		.uleb128 0x18
 3321 01c0 9742     		.uleb128 0x2117
 3322 01c2 19       		.uleb128 0x19
 3323 01c3 01       		.uleb128 0x1
 3324 01c4 13       		.uleb128 0x13
 3325 01c5 00       		.byte	0
 3326 01c6 00       		.byte	0
 3327 01c7 21       		.uleb128 0x21
 3328 01c8 34       		.uleb128 0x34
 3329 01c9 00       		.byte	0
 3330 01ca 03       		.uleb128 0x3
 3331 01cb 0E       		.uleb128 0xe
 3332 01cc 3A       		.uleb128 0x3a
 3333 01cd 0B       		.uleb128 0xb
 3334 01ce 3B       		.uleb128 0x3b
 3335 01cf 05       		.uleb128 0x5
 3336 01d0 49       		.uleb128 0x49
 3337 01d1 13       		.uleb128 0x13
 3338 01d2 3F       		.uleb128 0x3f
 3339 01d3 19       		.uleb128 0x19
 3340 01d4 3C       		.uleb128 0x3c
 3341 01d5 19       		.uleb128 0x19
 3342 01d6 00       		.byte	0
 3343 01d7 00       		.byte	0
 3344 01d8 00       		.byte	0
 3345              		.section	.debug_aranges,"",%progbits
 3346 0000 8C000000 		.4byte	0x8c
 3347 0004 0200     		.2byte	0x2
 3348 0006 00000000 		.4byte	.Ldebug_info0
 3349 000a 04       		.byte	0x4
 3350 000b 00       		.byte	0
 3351 000c 0000     		.2byte	0
 3352 000e 0000     		.2byte	0
 3353 0010 00000000 		.4byte	.LFB158
 3354 0014 20000000 		.4byte	.LFE158-.LFB158
 3355 0018 00000000 		.4byte	.LFB159
ARM GAS  C:\Users\ikomb\AppData\Local\Temp\cchnbsea.s 			page 84


 3356 001c 20000000 		.4byte	.LFE159-.LFB159
 3357 0020 00000000 		.4byte	.LFB161
 3358 0024 20000000 		.4byte	.LFE161-.LFB161
 3359 0028 00000000 		.4byte	.LFB162
 3360 002c 20000000 		.4byte	.LFE162-.LFB162
 3361 0030 00000000 		.4byte	.LFB163
 3362 0034 20000000 		.4byte	.LFE163-.LFB163
 3363 0038 00000000 		.4byte	.LFB164
 3364 003c 20000000 		.4byte	.LFE164-.LFB164
 3365 0040 00000000 		.4byte	.LFB165
 3366 0044 3A000000 		.4byte	.LFE165-.LFB165
 3367 0048 00000000 		.4byte	.LFB167
 3368 004c 1E000000 		.4byte	.LFE167-.LFB167
 3369 0050 00000000 		.4byte	.LFB172
 3370 0054 3A000000 		.4byte	.LFE172-.LFB172
 3371 0058 00000000 		.4byte	.LFB181
 3372 005c 3C000000 		.4byte	.LFE181-.LFB181
 3373 0060 00000000 		.4byte	.LFB183
 3374 0064 1A000000 		.4byte	.LFE183-.LFB183
 3375 0068 00000000 		.4byte	.LFB184
 3376 006c 38000000 		.4byte	.LFE184-.LFB184
 3377 0070 00000000 		.4byte	.LFB186
 3378 0074 04050000 		.4byte	.LFE186-.LFB186
 3379 0078 00000000 		.4byte	.LFB187
 3380 007c 68000000 		.4byte	.LFE187-.LFB187
 3381 0080 00000000 		.4byte	.LFB188
 3382 0084 2C010000 		.4byte	.LFE188-.LFB188
 3383 0088 00000000 		.4byte	0
 3384 008c 00000000 		.4byte	0
 3385              		.section	.debug_ranges,"",%progbits
 3386              	.Ldebug_ranges0:
 3387 0000 00000000 		.4byte	.LFB158
 3388 0004 20000000 		.4byte	.LFE158
 3389 0008 00000000 		.4byte	.LFB159
 3390 000c 20000000 		.4byte	.LFE159
 3391 0010 00000000 		.4byte	.LFB161
 3392 0014 20000000 		.4byte	.LFE161
 3393 0018 00000000 		.4byte	.LFB162
 3394 001c 20000000 		.4byte	.LFE162
 3395 0020 00000000 		.4byte	.LFB163
 3396 0024 20000000 		.4byte	.LFE163
 3397 0028 00000000 		.4byte	.LFB164
 3398 002c 20000000 		.4byte	.LFE164
 3399 0030 00000000 		.4byte	.LFB165
 3400 0034 3A000000 		.4byte	.LFE165
 3401 0038 00000000 		.4byte	.LFB167
 3402 003c 1E000000 		.4byte	.LFE167
 3403 0040 00000000 		.4byte	.LFB172
 3404 0044 3A000000 		.4byte	.LFE172
 3405 0048 00000000 		.4byte	.LFB181
 3406 004c 3C000000 		.4byte	.LFE181
 3407 0050 00000000 		.4byte	.LFB183
 3408 0054 1A000000 		.4byte	.LFE183
 3409 0058 00000000 		.4byte	.LFB184
 3410 005c 38000000 		.4byte	.LFE184
 3411 0060 00000000 		.4byte	.LFB186
 3412 0064 04050000 		.4byte	.LFE186
ARM GAS  C:\Users\ikomb\AppData\Local\Temp\cchnbsea.s 			page 85


 3413 0068 00000000 		.4byte	.LFB187
 3414 006c 68000000 		.4byte	.LFE187
 3415 0070 00000000 		.4byte	.LFB188
 3416 0074 2C010000 		.4byte	.LFE188
 3417 0078 00000000 		.4byte	0
 3418 007c 00000000 		.4byte	0
 3419              		.section	.debug_line,"",%progbits
 3420              	.Ldebug_line0:
 3421 0000 22060000 		.section	.debug_str,"MS",%progbits,1
 3421      02005102 
 3421      00000201 
 3421      FB0E0D00 
 3421      01010101 
 3422              	.LASF84:
 3423 0000 7278456E 		.ascii	"rxEnabled\000"
 3423      61626C65 
 3423      6400
 3424              	.LASF143:
 3425 000a 6C6F6349 		.ascii	"locInterruptMask\000"
 3425      6E746572 
 3425      72757074 
 3425      4D61736B 
 3425      00
 3426              	.LASF114:
 3427 001b 72784669 		.ascii	"rxFifoTriggerLevel\000"
 3427      666F5472 
 3427      69676765 
 3427      724C6576 
 3427      656C00
 3428              	.LASF49:
 3429 002e 43595F53 		.ascii	"CY_SYSPM_TIMEOUT\000"
 3429      5953504D 
 3429      5F54494D 
 3429      454F5554 
 3429      00
 3430              	.LASF48:
 3431 003f 43595F53 		.ascii	"CY_SYSPM_BAD_PARAM\000"
 3431      5953504D 
 3431      5F424144 
 3431      5F504152 
 3431      414D00
 3432              	.LASF144:
 3433 0052 6C6F6353 		.ascii	"locState\000"
 3433      74617465 
 3433      00
 3434              	.LASF88:
 3435 005b 65787443 		.ascii	"extClk\000"
 3435      6C6B00
 3436              	.LASF139:
 3437 0062 43795F49 		.ascii	"Cy_I2S_Init\000"
 3437      32535F49 
 3437      6E697400 
 3438              	.LASF7:
 3439 006e 5F5F7569 		.ascii	"__uint8_t\000"
 3439      6E74385F 
 3439      7400
 3440              	.LASF24:
ARM GAS  C:\Users\ikomb\AppData\Local\Temp\cchnbsea.s 			page 86


 3441 0078 54585F57 		.ascii	"TX_WATCHDOG\000"
 3441      41544348 
 3441      444F4700 
 3442              	.LASF142:
 3443 0084 6C6F6342 		.ascii	"locBase\000"
 3443      61736500 
 3444              	.LASF18:
 3445 008c 434C4F43 		.ascii	"CLOCK_CTL\000"
 3445      4B5F4354 
 3445      4C00
 3446              	.LASF12:
 3447 0096 6C6F6E67 		.ascii	"long long unsigned int\000"
 3447      206C6F6E 
 3447      6720756E 
 3447      7369676E 
 3447      65642069 
 3448              	.LASF85:
 3449 00ad 7478446D 		.ascii	"txDmaTrigger\000"
 3449      61547269 
 3449      67676572 
 3449      00
 3450              	.LASF149:
 3451 00ba 49544D5F 		.ascii	"ITM_RxBuffer\000"
 3451      52784275 
 3451      66666572 
 3451      00
 3452              	.LASF23:
 3453 00c7 54585F43 		.ascii	"TX_CTL\000"
 3453      544C00
 3454              	.LASF1:
 3455 00ce 6C6F6E67 		.ascii	"long long int\000"
 3455      206C6F6E 
 3455      6720696E 
 3455      7400
 3456              	.LASF3:
 3457 00dc 7369676E 		.ascii	"signed char\000"
 3457      65642063 
 3457      68617200 
 3458              	.LASF27:
 3459 00e8 52585F57 		.ascii	"RX_WATCHDOG\000"
 3459      41544348 
 3459      444F4700 
 3460              	.LASF63:
 3461 00f4 43595F49 		.ascii	"CY_I2S_BAD_PARAM\000"
 3461      32535F42 
 3461      41445F50 
 3461      4152414D 
 3461      00
 3462              	.LASF146:
 3463 0105 47656E65 		.ascii	"Generated_Source\\PSoC6\\pdl\\drivers\\peripheral\\"
 3463      72617465 
 3463      645F536F 
 3463      75726365 
 3463      5C50536F 
 3464 0133 6932735C 		.ascii	"i2s\\cy_i2s.c\000"
 3464      63795F69 
 3464      32732E63 
ARM GAS  C:\Users\ikomb\AppData\Local\Temp\cchnbsea.s 			page 87


 3464      00
 3465              	.LASF116:
 3466 0140 63795F73 		.ascii	"cy_stc_i2s_config_t\000"
 3466      74635F69 
 3466      32735F63 
 3466      6F6E6669 
 3466      675F7400 
 3467              	.LASF137:
 3468 0154 6368616E 		.ascii	"channels\000"
 3468      6E656C73 
 3468      00
 3469              	.LASF9:
 3470 015d 6C6F6E67 		.ascii	"long int\000"
 3470      20696E74 
 3470      00
 3471              	.LASF113:
 3472 0166 72785369 		.ascii	"rxSignExtension\000"
 3472      676E4578 
 3472      74656E73 
 3472      696F6E00 
 3473              	.LASF0:
 3474 0176 756E7369 		.ascii	"unsigned int\000"
 3474      676E6564 
 3474      20696E74 
 3474      00
 3475              	.LASF128:
 3476 0183 43795F49 		.ascii	"Cy_I2S_ClearRxFifo\000"
 3476      32535F43 
 3476      6C656172 
 3476      52784669 
 3476      666F00
 3477              	.LASF46:
 3478 0196 646F7562 		.ascii	"double\000"
 3478      6C6500
 3479              	.LASF132:
 3480 019d 43795F49 		.ascii	"Cy_I2S_GetInterruptMask\000"
 3480      32535F47 
 3480      6574496E 
 3480      74657272 
 3480      7570744D 
 3481              	.LASF64:
 3482 01b5 63795F65 		.ascii	"cy_en_i2s_status_t\000"
 3482      6E5F6932 
 3482      735F7374 
 3482      61747573 
 3482      5F7400
 3483              	.LASF130:
 3484 01c8 696E7465 		.ascii	"interrupt\000"
 3484      72727570 
 3484      7400
 3485              	.LASF61:
 3486 01d2 63795F73 		.ascii	"cy_stc_syspm_callback_params_t\000"
 3486      74635F73 
 3486      7973706D 
 3486      5F63616C 
 3486      6C626163 
 3487              	.LASF65:
ARM GAS  C:\Users\ikomb\AppData\Local\Temp\cchnbsea.s 			page 88


 3488 01f1 43595F49 		.ascii	"CY_I2S_LEFT_JUSTIFIED\000"
 3488      32535F4C 
 3488      4546545F 
 3488      4A555354 
 3488      49464945 
 3489              	.LASF10:
 3490 0207 5F5F7569 		.ascii	"__uint32_t\000"
 3490      6E743332 
 3490      5F7400
 3491              	.LASF108:
 3492 0212 72785363 		.ascii	"rxSckoInversion\000"
 3492      6B6F496E 
 3492      76657273 
 3492      696F6E00 
 3493              	.LASF70:
 3494 0222 43595F49 		.ascii	"CY_I2S_LEN8\000"
 3494      32535F4C 
 3494      454E3800 
 3495              	.LASF91:
 3496 022e 74785773 		.ascii	"txWsPulseWidth\000"
 3496      50756C73 
 3496      65576964 
 3496      746800
 3497              	.LASF83:
 3498 023d 7478456E 		.ascii	"txEnabled\000"
 3498      61626C65 
 3498      6400
 3499              	.LASF67:
 3500 0247 43595F49 		.ascii	"CY_I2S_TDM_MODE_A\000"
 3500      32535F54 
 3500      444D5F4D 
 3500      4F44455F 
 3500      4100
 3501              	.LASF68:
 3502 0259 43595F49 		.ascii	"CY_I2S_TDM_MODE_B\000"
 3502      32535F54 
 3502      444D5F4D 
 3502      4F44455F 
 3502      4200
 3503              	.LASF103:
 3504 026b 7278416C 		.ascii	"rxAlignment\000"
 3504      69676E6D 
 3504      656E7400 
 3505              	.LASF50:
 3506 0277 43595F53 		.ascii	"CY_SYSPM_INVALID_STATE\000"
 3506      5953504D 
 3506      5F494E56 
 3506      414C4944 
 3506      5F535441 
 3507              	.LASF21:
 3508 028e 54525F43 		.ascii	"TR_CTL\000"
 3508      544C00
 3509              	.LASF43:
 3510 0295 63686172 		.ascii	"char_t\000"
 3510      5F7400
 3511              	.LASF94:
 3512 029c 74785364 		.ascii	"txSdoLatchingTime\000"
ARM GAS  C:\Users\ikomb\AppData\Local\Temp\cchnbsea.s 			page 89


 3512      6F4C6174 
 3512      6368696E 
 3512      6754696D 
 3512      6500
 3513              	.LASF11:
 3514 02ae 6C6F6E67 		.ascii	"long unsigned int\000"
 3514      20756E73 
 3514      69676E65 
 3514      6420696E 
 3514      7400
 3515              	.LASF111:
 3516 02c0 72784368 		.ascii	"rxChannelLength\000"
 3516      616E6E65 
 3516      6C4C656E 
 3516      67746800 
 3517              	.LASF76:
 3518 02d0 63795F65 		.ascii	"cy_en_i2s_len_t\000"
 3518      6E5F6932 
 3518      735F6C65 
 3518      6E5F7400 
 3519              	.LASF40:
 3520 02e0 494E5452 		.ascii	"INTR_MASK\000"
 3520      5F4D4153 
 3520      4B00
 3521              	.LASF127:
 3522 02ea 64617461 		.ascii	"data\000"
 3522      00
 3523              	.LASF6:
 3524 02ef 73686F72 		.ascii	"short unsigned int\000"
 3524      7420756E 
 3524      7369676E 
 3524      65642069 
 3524      6E7400
 3525              	.LASF81:
 3526 0302 43595F49 		.ascii	"CY_I2S_WS_ONE_CHANNEL_LENGTH\000"
 3526      32535F57 
 3526      535F4F4E 
 3526      455F4348 
 3526      414E4E45 
 3527              	.LASF133:
 3528 031f 43795F49 		.ascii	"Cy_I2S_SetInterruptMask\000"
 3528      32535F53 
 3528      6574496E 
 3528      74657272 
 3528      7570744D 
 3529              	.LASF8:
 3530 0337 5F5F696E 		.ascii	"__int32_t\000"
 3530      7433325F 
 3530      7400
 3531              	.LASF141:
 3532 0341 63616C6C 		.ascii	"callbackParams\000"
 3532      6261636B 
 3532      50617261 
 3532      6D7300
 3533              	.LASF56:
 3534 0350 43595F53 		.ascii	"CY_SYSPM_AFTER_TRANSITION\000"
 3534      5953504D 
ARM GAS  C:\Users\ikomb\AppData\Local\Temp\cchnbsea.s 			page 90


 3534      5F414654 
 3534      45525F54 
 3534      52414E53 
 3535              	.LASF39:
 3536 036a 494E5452 		.ascii	"INTR_SET\000"
 3536      5F534554 
 3536      00
 3537              	.LASF59:
 3538 0373 62617365 		.ascii	"base\000"
 3538      00
 3539              	.LASF136:
 3540 0378 6368616E 		.ascii	"channelLength\000"
 3540      6E656C4C 
 3540      656E6774 
 3540      6800
 3541              	.LASF30:
 3542 0386 54585F46 		.ascii	"TX_FIFO_STATUS\000"
 3542      49464F5F 
 3542      53544154 
 3542      555300
 3543              	.LASF16:
 3544 0395 73697A65 		.ascii	"sizetype\000"
 3544      74797065 
 3544      00
 3545              	.LASF90:
 3546 039e 7478416C 		.ascii	"txAlignment\000"
 3546      69676E6D 
 3546      656E7400 
 3547              	.LASF126:
 3548 03aa 43795F49 		.ascii	"Cy_I2S_WriteTxData\000"
 3548      32535F57 
 3548      72697465 
 3548      54784461 
 3548      746100
 3549              	.LASF147:
 3550 03bd 433A5C55 		.ascii	"C:\\Users\\ikomb\\Documents\\PSoC Creator\\CE222221"
 3550      73657273 
 3550      5C696B6F 
 3550      6D625C44 
 3550      6F63756D 
 3551 03eb 5F566F69 		.ascii	"_Voice_Recorder01\\CE222221_Voice_Recorder01.cydsn\000"
 3551      63655F52 
 3551      65636F72 
 3551      64657230 
 3551      315C4345 
 3552              	.LASF119:
 3553 041d 63795F73 		.ascii	"cy_stc_i2s_context_t\000"
 3553      74635F69 
 3553      32735F63 
 3553      6F6E7465 
 3553      78745F74 
 3554              	.LASF124:
 3555 0432 43795F49 		.ascii	"Cy_I2S_DisableRx\000"
 3555      32535F44 
 3555      69736162 
 3555      6C655278 
 3555      00
ARM GAS  C:\Users\ikomb\AppData\Local\Temp\cchnbsea.s 			page 91


 3556              	.LASF42:
 3557 0443 4932535F 		.ascii	"I2S_Type\000"
 3557      54797065 
 3557      00
 3558              	.LASF38:
 3559 044c 494E5452 		.ascii	"INTR\000"
 3559      00
 3560              	.LASF55:
 3561 0451 43595F53 		.ascii	"CY_SYSPM_BEFORE_TRANSITION\000"
 3561      5953504D 
 3561      5F424546 
 3561      4F52455F 
 3561      5452414E 
 3562              	.LASF71:
 3563 046c 43595F49 		.ascii	"CY_I2S_LEN16\000"
 3563      32535F4C 
 3563      454E3136 
 3563      00
 3564              	.LASF109:
 3565 0479 72785363 		.ascii	"rxSckiInversion\000"
 3565      6B69496E 
 3565      76657273 
 3565      696F6E00 
 3566              	.LASF72:
 3567 0489 43595F49 		.ascii	"CY_I2S_LEN18\000"
 3567      32535F4C 
 3567      454E3138 
 3567      00
 3568              	.LASF99:
 3569 0496 7478576F 		.ascii	"txWordLength\000"
 3569      72644C65 
 3569      6E677468 
 3569      00
 3570              	.LASF57:
 3571 04a3 63795F65 		.ascii	"cy_en_syspm_callback_mode_t\000"
 3571      6E5F7379 
 3571      73706D5F 
 3571      63616C6C 
 3571      6261636B 
 3572              	.LASF41:
 3573 04bf 494E5452 		.ascii	"INTR_MASKED\000"
 3573      5F4D4153 
 3573      4B454400 
 3574              	.LASF45:
 3575 04cb 666C6F61 		.ascii	"float\000"
 3575      7400
 3576              	.LASF118:
 3577 04d1 696E7465 		.ascii	"interruptMask\000"
 3577      72727570 
 3577      744D6173 
 3577      6B00
 3578              	.LASF104:
 3579 04df 72785773 		.ascii	"rxWsPulseWidth\000"
 3579      50756C73 
 3579      65576964 
 3579      746800
 3580              	.LASF107:
ARM GAS  C:\Users\ikomb\AppData\Local\Temp\cchnbsea.s 			page 92


 3581 04ee 72785364 		.ascii	"rxSdiLatchingTime\000"
 3581      694C6174 
 3581      6368696E 
 3581      6754696D 
 3581      6500
 3582              	.LASF19:
 3583 0500 52455345 		.ascii	"RESERVED1\000"
 3583      52564544 
 3583      3100
 3584              	.LASF20:
 3585 050a 52455345 		.ascii	"RESERVED2\000"
 3585      52564544 
 3585      3200
 3586              	.LASF22:
 3587 0514 52455345 		.ascii	"RESERVED3\000"
 3587      52564544 
 3587      3300
 3588              	.LASF25:
 3589 051e 52455345 		.ascii	"RESERVED4\000"
 3589      52564544 
 3589      3400
 3590              	.LASF28:
 3591 0528 52455345 		.ascii	"RESERVED5\000"
 3591      52564544 
 3591      3500
 3592              	.LASF32:
 3593 0532 52455345 		.ascii	"RESERVED6\000"
 3593      52564544 
 3593      3600
 3594              	.LASF37:
 3595 053c 52455345 		.ascii	"RESERVED7\000"
 3595      52564544 
 3595      3700
 3596              	.LASF101:
 3597 0546 74784669 		.ascii	"txFifoTriggerLevel\000"
 3597      666F5472 
 3597      69676765 
 3597      724C6576 
 3597      656C00
 3598              	.LASF129:
 3599 0559 43795F49 		.ascii	"Cy_I2S_ClearInterrupt\000"
 3599      32535F43 
 3599      6C656172 
 3599      496E7465 
 3599      72727570 
 3600              	.LASF123:
 3601 056f 43795F49 		.ascii	"Cy_I2S_EnableRx\000"
 3601      32535F45 
 3601      6E61626C 
 3601      65527800 
 3602              	.LASF115:
 3603 057f 5F426F6F 		.ascii	"_Bool\000"
 3603      6C00
 3604              	.LASF14:
 3605 0585 696E7433 		.ascii	"int32_t\000"
 3605      325F7400 
 3606              	.LASF4:
ARM GAS  C:\Users\ikomb\AppData\Local\Temp\cchnbsea.s 			page 93


 3607 058d 756E7369 		.ascii	"unsigned char\000"
 3607      676E6564 
 3607      20636861 
 3607      7200
 3608              	.LASF98:
 3609 059b 74784368 		.ascii	"txChannelLength\000"
 3609      616E6E65 
 3609      6C4C656E 
 3609      67746800 
 3610              	.LASF29:
 3611 05ab 54585F46 		.ascii	"TX_FIFO_CTL\000"
 3611      49464F5F 
 3611      43544C00 
 3612              	.LASF5:
 3613 05b7 73686F72 		.ascii	"short int\000"
 3613      7420696E 
 3613      7400
 3614              	.LASF86:
 3615 05c1 7278446D 		.ascii	"rxDmaTrigger\000"
 3615      61547269 
 3615      67676572 
 3615      00
 3616              	.LASF121:
 3617 05ce 43795F49 		.ascii	"Cy_I2S_PauseTx\000"
 3617      32535F50 
 3617      61757365 
 3617      547800
 3618              	.LASF73:
 3619 05dd 43595F49 		.ascii	"CY_I2S_LEN20\000"
 3619      32535F4C 
 3619      454E3230 
 3619      00
 3620              	.LASF140:
 3621 05ea 43795F49 		.ascii	"Cy_I2S_DeepSleepCallback\000"
 3621      32535F44 
 3621      65657053 
 3621      6C656570 
 3621      43616C6C 
 3622              	.LASF17:
 3623 0603 52455345 		.ascii	"RESERVED\000"
 3623      52564544 
 3623      00
 3624              	.LASF74:
 3625 060c 43595F49 		.ascii	"CY_I2S_LEN24\000"
 3625      32535F4C 
 3625      454E3234 
 3625      00
 3626              	.LASF78:
 3627 0619 43595F49 		.ascii	"CY_I2S_OVHDATA_ONE\000"
 3627      32535F4F 
 3627      56484441 
 3627      54415F4F 
 3627      4E4500
 3628              	.LASF131:
 3629 062c 43795F49 		.ascii	"Cy_I2S_GetCurrentState\000"
 3629      32535F47 
 3629      65744375 
ARM GAS  C:\Users\ikomb\AppData\Local\Temp\cchnbsea.s 			page 94


 3629      7272656E 
 3629      74537461 
 3630              	.LASF89:
 3631 0643 74784D61 		.ascii	"txMasterMode\000"
 3631      73746572 
 3631      4D6F6465 
 3631      00
 3632              	.LASF93:
 3633 0650 74785761 		.ascii	"txWatchdogValue\000"
 3633      74636864 
 3633      6F675661 
 3633      6C756500 
 3634              	.LASF110:
 3635 0660 72784368 		.ascii	"rxChannels\000"
 3635      616E6E65 
 3635      6C7300
 3636              	.LASF95:
 3637 066b 74785363 		.ascii	"txSckoInversion\000"
 3637      6B6F496E 
 3637      76657273 
 3637      696F6E00 
 3638              	.LASF97:
 3639 067b 74784368 		.ascii	"txChannels\000"
 3639      616E6E65 
 3639      6C7300
 3640              	.LASF62:
 3641 0686 43595F49 		.ascii	"CY_I2S_SUCCESS\000"
 3641      32535F53 
 3641      55434345 
 3641      535300
 3642              	.LASF15:
 3643 0695 75696E74 		.ascii	"uint32_t\000"
 3643      33325F74 
 3643      00
 3644              	.LASF2:
 3645 069e 6C6F6E67 		.ascii	"long double\000"
 3645      20646F75 
 3645      626C6500 
 3646              	.LASF44:
 3647 06aa 63686172 		.ascii	"char\000"
 3647      00
 3648              	.LASF58:
 3649 06af 6D6F6465 		.ascii	"mode\000"
 3649      00
 3650              	.LASF33:
 3651 06b4 52585F46 		.ascii	"RX_FIFO_CTL\000"
 3651      49464F5F 
 3651      43544C00 
 3652              	.LASF82:
 3653 06c0 63795F65 		.ascii	"cy_en_i2s_ws_pw_t\000"
 3653      6E5F6932 
 3653      735F7773 
 3653      5F70775F 
 3653      7400
 3654              	.LASF134:
 3655 06d2 636F6E66 		.ascii	"config\000"
 3655      696700
ARM GAS  C:\Users\ikomb\AppData\Local\Temp\cchnbsea.s 			page 95


 3656              	.LASF117:
 3657 06d9 656E6162 		.ascii	"enableState\000"
 3657      6C655374 
 3657      61746500 
 3658              	.LASF125:
 3659 06e5 43795F49 		.ascii	"Cy_I2S_ClearTxFifo\000"
 3659      32535F43 
 3659      6C656172 
 3659      54784669 
 3659      666F00
 3660              	.LASF148:
 3661 06f8 43795F49 		.ascii	"Cy_I2S_DeInit\000"
 3661      32535F44 
 3661      65496E69 
 3661      7400
 3662              	.LASF13:
 3663 0706 75696E74 		.ascii	"uint8_t\000"
 3663      385F7400 
 3664              	.LASF34:
 3665 070e 52585F46 		.ascii	"RX_FIFO_STATUS\000"
 3665      49464F5F 
 3665      53544154 
 3665      555300
 3666              	.LASF122:
 3667 071d 43795F49 		.ascii	"Cy_I2S_DisableTx\000"
 3667      32535F44 
 3667      69736162 
 3667      6C655478 
 3667      00
 3668              	.LASF79:
 3669 072e 63795F65 		.ascii	"cy_en_i2s_overhead_t\000"
 3669      6E5F6932 
 3669      735F6F76 
 3669      65726865 
 3669      61645F74 
 3670              	.LASF75:
 3671 0743 43595F49 		.ascii	"CY_I2S_LEN32\000"
 3671      32535F4C 
 3671      454E3332 
 3671      00
 3672              	.LASF54:
 3673 0750 43595F53 		.ascii	"CY_SYSPM_CHECK_FAIL\000"
 3673      5953504D 
 3673      5F434845 
 3673      434B5F46 
 3673      41494C00 
 3674              	.LASF60:
 3675 0764 636F6E74 		.ascii	"context\000"
 3675      65787400 
 3676              	.LASF35:
 3677 076c 52585F46 		.ascii	"RX_FIFO_RD\000"
 3677      49464F5F 
 3677      524400
 3678              	.LASF31:
 3679 0777 54585F46 		.ascii	"TX_FIFO_WR\000"
 3679      49464F5F 
 3679      575200
ARM GAS  C:\Users\ikomb\AppData\Local\Temp\cchnbsea.s 			page 96


 3680              	.LASF112:
 3681 0782 7278576F 		.ascii	"rxWordLength\000"
 3681      72644C65 
 3681      6E677468 
 3681      00
 3682              	.LASF51:
 3683 078f 43595F53 		.ascii	"CY_SYSPM_FAIL\000"
 3683      5953504D 
 3683      5F464149 
 3683      4C00
 3684              	.LASF100:
 3685 079d 74784F76 		.ascii	"txOverheadValue\000"
 3685      65726865 
 3685      61645661 
 3685      6C756500 
 3686              	.LASF26:
 3687 07ad 52585F43 		.ascii	"RX_CTL\000"
 3687      544C00
 3688              	.LASF87:
 3689 07b4 636C6B44 		.ascii	"clkDiv\000"
 3689      697600
 3690              	.LASF80:
 3691 07bb 43595F49 		.ascii	"CY_I2S_WS_ONE_SCK_CYCLE\000"
 3691      32535F57 
 3691      535F4F4E 
 3691      455F5343 
 3691      4B5F4359 
 3692              	.LASF120:
 3693 07d3 43795F49 		.ascii	"Cy_I2S_EnableTx\000"
 3693      32535F45 
 3693      6E61626C 
 3693      65547800 
 3694              	.LASF69:
 3695 07e3 63795F65 		.ascii	"cy_en_i2s_alignment_t\000"
 3695      6E5F6932 
 3695      735F616C 
 3695      69676E6D 
 3695      656E745F 
 3696              	.LASF77:
 3697 07f9 43595F49 		.ascii	"CY_I2S_OVHDATA_ZERO\000"
 3697      32535F4F 
 3697      56484441 
 3697      54415F5A 
 3697      45524F00 
 3698              	.LASF47:
 3699 080d 43595F53 		.ascii	"CY_SYSPM_SUCCESS\000"
 3699      5953504D 
 3699      5F535543 
 3699      43455353 
 3699      00
 3700              	.LASF92:
 3701 081e 74785761 		.ascii	"txWatchdogEnable\000"
 3701      74636864 
 3701      6F67456E 
 3701      61626C65 
 3701      00
 3702              	.LASF53:
ARM GAS  C:\Users\ikomb\AppData\Local\Temp\cchnbsea.s 			page 97


 3703 082f 43595F53 		.ascii	"CY_SYSPM_CHECK_READY\000"
 3703      5953504D 
 3703      5F434845 
 3703      434B5F52 
 3703      45414459 
 3704              	.LASF36:
 3705 0844 52585F46 		.ascii	"RX_FIFO_RD_SILENT\000"
 3705      49464F5F 
 3705      52445F53 
 3705      494C454E 
 3705      5400
 3706              	.LASF106:
 3707 0856 72785761 		.ascii	"rxWatchdogValue\000"
 3707      74636864 
 3707      6F675661 
 3707      6C756500 
 3708              	.LASF145:
 3709 0866 474E5520 		.ascii	"GNU C11 5.4.1 20160609 (release) [ARM/embedded-5-br"
 3709      43313120 
 3709      352E342E 
 3709      31203230 
 3709      31363036 
 3710 0899 616E6368 		.ascii	"anch revision 237715] -mcpu=cortex-m4 -mfloat-abi=s"
 3710      20726576 
 3710      6973696F 
 3710      6E203233 
 3710      37373135 
 3711 08cc 6F667466 		.ascii	"oftfp -mfpu=fpv4-sp-d16 -mthumb -g -O0 -ffunction-s"
 3711      70202D6D 
 3711      6670753D 
 3711      66707634 
 3711      2D73702D 
 3712 08ff 65637469 		.ascii	"ections -ffat-lto-objects\000"
 3712      6F6E7320 
 3712      2D666661 
 3712      742D6C74 
 3712      6F2D6F62 
 3713              	.LASF52:
 3714 0919 63795F65 		.ascii	"cy_en_syspm_status_t\000"
 3714      6E5F7379 
 3714      73706D5F 
 3714      73746174 
 3714      75735F74 
 3715              	.LASF138:
 3716 092e 636C6F63 		.ascii	"clockDiv\000"
 3716      6B446976 
 3716      00
 3717              	.LASF96:
 3718 0937 74785363 		.ascii	"txSckiInversion\000"
 3718      6B69496E 
 3718      76657273 
 3718      696F6E00 
 3719              	.LASF102:
 3720 0947 72784D61 		.ascii	"rxMasterMode\000"
 3720      73746572 
 3720      4D6F6465 
 3720      00
ARM GAS  C:\Users\ikomb\AppData\Local\Temp\cchnbsea.s 			page 98


 3721              	.LASF105:
 3722 0954 72785761 		.ascii	"rxWatchdogEnable\000"
 3722      74636864 
 3722      6F67456E 
 3722      61626C65 
 3722      00
 3723              	.LASF135:
 3724 0965 77735075 		.ascii	"wsPulseWidth\000"
 3724      6C736557 
 3724      69647468 
 3724      00
 3725              	.LASF66:
 3726 0972 43595F49 		.ascii	"CY_I2S_I2S_MODE\000"
 3726      32535F49 
 3726      32535F4D 
 3726      4F444500 
 3727              		.ident	"GCC: (GNU Tools for ARM Embedded Processors) 5.4.1 20160609 (release) [ARM/embedded-5-bran
