ARM GAS  C:\Users\ikomb\AppData\Local\Temp\cchnbsea.s 			page 1


   1              		.syntax unified
   2              		.cpu cortex-m4
   3              		.eabi_attribute 27, 1
   4              		.fpu fpv4-sp-d16
   5              		.eabi_attribute 20, 1
   6              		.eabi_attribute 21, 1
   7              		.eabi_attribute 23, 3
   8              		.eabi_attribute 24, 1
   9              		.eabi_attribute 25, 1
  10              		.eabi_attribute 26, 1
  11              		.eabi_attribute 30, 6
  12              		.eabi_attribute 34, 1
  13              		.eabi_attribute 18, 4
  14              		.thumb
  15              		.syntax unified
  16              		.file	"cy_i2s.c"
  17              		.text
  18              	.Ltext0:
  19              		.cfi_sections	.debug_frame
  20              		.section	.text.Cy_I2S_EnableTx,"ax",%progbits
  21              		.align	2
  22              		.thumb
  23              		.thumb_func
  24              		.type	Cy_I2S_EnableTx, %function
  25              	Cy_I2S_EnableTx:
  26              	.LFB158:
  27              		.file 1 "Generated_Source\\PSoC6\\pdl\\drivers\\peripheral\\i2s\\cy_i2s.h"
   1:Generated_Source\PSoC6\pdl\drivers\peripheral\i2s/cy_i2s.h **** /***************************************************************************//**
   2:Generated_Source\PSoC6\pdl\drivers\peripheral\i2s/cy_i2s.h **** * \file cy_i2s.h
   3:Generated_Source\PSoC6\pdl\drivers\peripheral\i2s/cy_i2s.h **** * \version 2.0.1
   4:Generated_Source\PSoC6\pdl\drivers\peripheral\i2s/cy_i2s.h **** * 
   5:Generated_Source\PSoC6\pdl\drivers\peripheral\i2s/cy_i2s.h **** * The header file of the I2S driver.
   6:Generated_Source\PSoC6\pdl\drivers\peripheral\i2s/cy_i2s.h **** *
   7:Generated_Source\PSoC6\pdl\drivers\peripheral\i2s/cy_i2s.h **** ********************************************************************************
   8:Generated_Source\PSoC6\pdl\drivers\peripheral\i2s/cy_i2s.h **** * \copyright
   9:Generated_Source\PSoC6\pdl\drivers\peripheral\i2s/cy_i2s.h **** * Copyright 2016-2018, Cypress Semiconductor Corporation. All rights reserved.
  10:Generated_Source\PSoC6\pdl\drivers\peripheral\i2s/cy_i2s.h **** * You may use this file only in accordance with the license, terms, conditions,
  11:Generated_Source\PSoC6\pdl\drivers\peripheral\i2s/cy_i2s.h **** * disclaimers, and limitations in the end user license agreement accompanying
  12:Generated_Source\PSoC6\pdl\drivers\peripheral\i2s/cy_i2s.h **** * the software package with which this file was provided.
  13:Generated_Source\PSoC6\pdl\drivers\peripheral\i2s/cy_i2s.h **** *******************************************************************************/
  14:Generated_Source\PSoC6\pdl\drivers\peripheral\i2s/cy_i2s.h **** 
  15:Generated_Source\PSoC6\pdl\drivers\peripheral\i2s/cy_i2s.h **** /**
  16:Generated_Source\PSoC6\pdl\drivers\peripheral\i2s/cy_i2s.h **** * \defgroup group_i2s Inter-IC Sound (I2S)
  17:Generated_Source\PSoC6\pdl\drivers\peripheral\i2s/cy_i2s.h **** * \{
  18:Generated_Source\PSoC6\pdl\drivers\peripheral\i2s/cy_i2s.h **** * The I2S driver provides a function API to manage Inter-IC Sound. I2S is used 
  19:Generated_Source\PSoC6\pdl\drivers\peripheral\i2s/cy_i2s.h **** * to send digital audio streaming data to external I2S devices, such as audio 
  20:Generated_Source\PSoC6\pdl\drivers\peripheral\i2s/cy_i2s.h **** * codecs or simple DACs. It can also receive digital audio streaming data.
  21:Generated_Source\PSoC6\pdl\drivers\peripheral\i2s/cy_i2s.h **** *
  22:Generated_Source\PSoC6\pdl\drivers\peripheral\i2s/cy_i2s.h **** * Features:
  23:Generated_Source\PSoC6\pdl\drivers\peripheral\i2s/cy_i2s.h **** * * An industry standard NXP I2S interface.
  24:Generated_Source\PSoC6\pdl\drivers\peripheral\i2s/cy_i2s.h **** * * Supports master/slave TX/RX operation.
  25:Generated_Source\PSoC6\pdl\drivers\peripheral\i2s/cy_i2s.h **** * * Programmable Channel/Word Lengths.
  26:Generated_Source\PSoC6\pdl\drivers\peripheral\i2s/cy_i2s.h **** * * Supports External Clock operation.
  27:Generated_Source\PSoC6\pdl\drivers\peripheral\i2s/cy_i2s.h **** *
  28:Generated_Source\PSoC6\pdl\drivers\peripheral\i2s/cy_i2s.h **** * The I2S bus is an industry standard. The hardware interface was 
  29:Generated_Source\PSoC6\pdl\drivers\peripheral\i2s/cy_i2s.h **** * developed by Philips Semiconductors (now NXP Semiconductors). 
  30:Generated_Source\PSoC6\pdl\drivers\peripheral\i2s/cy_i2s.h **** *
ARM GAS  C:\Users\ikomb\AppData\Local\Temp\cchnbsea.s 			page 2


  31:Generated_Source\PSoC6\pdl\drivers\peripheral\i2s/cy_i2s.h **** * \section group_i2s_configuration_considerations Configuration Considerations
  32:Generated_Source\PSoC6\pdl\drivers\peripheral\i2s/cy_i2s.h **** *
  33:Generated_Source\PSoC6\pdl\drivers\peripheral\i2s/cy_i2s.h **** * To set up an I2S, provide the configuration parameters in the
  34:Generated_Source\PSoC6\pdl\drivers\peripheral\i2s/cy_i2s.h **** * \ref cy_stc_i2s_config_t structure. 
  35:Generated_Source\PSoC6\pdl\drivers\peripheral\i2s/cy_i2s.h **** * 
  36:Generated_Source\PSoC6\pdl\drivers\peripheral\i2s/cy_i2s.h **** * For example, for Tx configuration, set txEnabled to true, configure
  37:Generated_Source\PSoC6\pdl\drivers\peripheral\i2s/cy_i2s.h **** * txDmaTrigger (depending on whether DMA is going to be used or not), set
  38:Generated_Source\PSoC6\pdl\drivers\peripheral\i2s/cy_i2s.h **** * extClk (if an external clock is used), provide clkDiv, txMasterMode,
  39:Generated_Source\PSoC6\pdl\drivers\peripheral\i2s/cy_i2s.h **** * txAlignment, txChannels (only 2 is supported in I2S and Left Justified modes)
  40:Generated_Source\PSoC6\pdl\drivers\peripheral\i2s/cy_i2s.h **** * txSdoLatchingTime (for slave mode only), txChannelLength, txWordLength,
  41:Generated_Source\PSoC6\pdl\drivers\peripheral\i2s/cy_i2s.h **** * txWsPulseWidth (for TMD modes only), txWatchdogEnable and txWatchdogValue
  42:Generated_Source\PSoC6\pdl\drivers\peripheral\i2s/cy_i2s.h **** * (both for Slave mode only, and when the watchdog interrupt will be used),
  43:Generated_Source\PSoC6\pdl\drivers\peripheral\i2s/cy_i2s.h **** * either txSckoInversion or txSckiInversion (based on txMasterMode setting),
  44:Generated_Source\PSoC6\pdl\drivers\peripheral\i2s/cy_i2s.h **** * txFifoTriggerLevel (when the Trig interrupt will be used) and txOverheadValue
  45:Generated_Source\PSoC6\pdl\drivers\peripheral\i2s/cy_i2s.h **** * (only when the word length is less than channel length).
  46:Generated_Source\PSoC6\pdl\drivers\peripheral\i2s/cy_i2s.h **** * A similar setup is for the Rx configuration.
  47:Generated_Source\PSoC6\pdl\drivers\peripheral\i2s/cy_i2s.h **** *
  48:Generated_Source\PSoC6\pdl\drivers\peripheral\i2s/cy_i2s.h **** * To initialize the I2S block, call the \ref Cy_I2S_Init function, providing the
  49:Generated_Source\PSoC6\pdl\drivers\peripheral\i2s/cy_i2s.h **** * filled \ref cy_stc_i2s_config_t structure.
  50:Generated_Source\PSoC6\pdl\drivers\peripheral\i2s/cy_i2s.h **** * Before starting the transmission, clear the FIFO \ref Cy_I2S_ClearTxFifo, then
  51:Generated_Source\PSoC6\pdl\drivers\peripheral\i2s/cy_i2s.h **** * fill the first Tx data frame by calling \ref Cy_I2S_WriteTxData once for each
  52:Generated_Source\PSoC6\pdl\drivers\peripheral\i2s/cy_i2s.h **** * channel (e.g. twice for I2S mode with only two channels) with zero data. Then
  53:Generated_Source\PSoC6\pdl\drivers\peripheral\i2s/cy_i2s.h **** * call the \ref Cy_I2S_EnableTx itself.
  54:Generated_Source\PSoC6\pdl\drivers\peripheral\i2s/cy_i2s.h **** * For the reception the sequence is the same except for filling the first data
  55:Generated_Source\PSoC6\pdl\drivers\peripheral\i2s/cy_i2s.h **** * frame, just RX FIFO clearing is enough.
  56:Generated_Source\PSoC6\pdl\drivers\peripheral\i2s/cy_i2s.h **** *
  57:Generated_Source\PSoC6\pdl\drivers\peripheral\i2s/cy_i2s.h **** * For example:
  58:Generated_Source\PSoC6\pdl\drivers\peripheral\i2s/cy_i2s.h **** * \snippet i2s/i2s_v2_0_sut_00.cydsn/main_cm4.c snippet_Cy_I2S_Init
  59:Generated_Source\PSoC6\pdl\drivers\peripheral\i2s/cy_i2s.h **** * 
  60:Generated_Source\PSoC6\pdl\drivers\peripheral\i2s/cy_i2s.h **** * If you use a DMA, the DMA channel should be previously configured. The I2S interrupts 
  61:Generated_Source\PSoC6\pdl\drivers\peripheral\i2s/cy_i2s.h **** * (if applicable) can be enabled by calling \ref Cy_I2S_SetInterruptMask.
  62:Generated_Source\PSoC6\pdl\drivers\peripheral\i2s/cy_i2s.h **** *
  63:Generated_Source\PSoC6\pdl\drivers\peripheral\i2s/cy_i2s.h **** * For example, if the trigger interrupt is used, during operation the ISR
  64:Generated_Source\PSoC6\pdl\drivers\peripheral\i2s/cy_i2s.h **** * should call the \ref Cy_I2S_WriteTxData as many times as required for your 
  65:Generated_Source\PSoC6\pdl\drivers\peripheral\i2s/cy_i2s.h **** * FIFO payload, but not more than the FIFO size. Then call \ref Cy_I2S_ClearInterrupt 
  66:Generated_Source\PSoC6\pdl\drivers\peripheral\i2s/cy_i2s.h **** * with appropriate parameters.
  67:Generated_Source\PSoC6\pdl\drivers\peripheral\i2s/cy_i2s.h **** *
  68:Generated_Source\PSoC6\pdl\drivers\peripheral\i2s/cy_i2s.h **** * The I2S/Left Justified data formats always contains two data channels.
  69:Generated_Source\PSoC6\pdl\drivers\peripheral\i2s/cy_i2s.h **** * They are ordered one-by-one in the FIFOs, left always goes first.
  70:Generated_Source\PSoC6\pdl\drivers\peripheral\i2s/cy_i2s.h **** * So in case of mono audio stream transmission, each sample can be put twice
  71:Generated_Source\PSoC6\pdl\drivers\peripheral\i2s/cy_i2s.h **** * into the TX FIFO (in this case both channels will sound the same),
  72:Generated_Source\PSoC6\pdl\drivers\peripheral\i2s/cy_i2s.h **** * or combined with zeroes: sample1-zero-sample2-zero (in this case only the
  73:Generated_Source\PSoC6\pdl\drivers\peripheral\i2s/cy_i2s.h **** * left channel will finally sound, for right-only case zero should go first).
  74:Generated_Source\PSoC6\pdl\drivers\peripheral\i2s/cy_i2s.h **** * The TDM frame word order in FIFOs is similar, one-by-one.
  75:Generated_Source\PSoC6\pdl\drivers\peripheral\i2s/cy_i2s.h **** * 
  76:Generated_Source\PSoC6\pdl\drivers\peripheral\i2s/cy_i2s.h **** * If a DMA is used and the DMA channel is properly configured - no CPU activity
  77:Generated_Source\PSoC6\pdl\drivers\peripheral\i2s/cy_i2s.h **** * (or any application code) is needed for I2S operation.
  78:Generated_Source\PSoC6\pdl\drivers\peripheral\i2s/cy_i2s.h **** *
  79:Generated_Source\PSoC6\pdl\drivers\peripheral\i2s/cy_i2s.h **** * The I2S frame appears as:
  80:Generated_Source\PSoC6\pdl\drivers\peripheral\i2s/cy_i2s.h **** * \image html i2s_frame.png
  81:Generated_Source\PSoC6\pdl\drivers\peripheral\i2s/cy_i2s.h **** * This is an example for the channel length = 32. A similar is for all the rest
  82:Generated_Source\PSoC6\pdl\drivers\peripheral\i2s/cy_i2s.h **** * channel lengths, with one limitation: the word length could be less or equal
  83:Generated_Source\PSoC6\pdl\drivers\peripheral\i2s/cy_i2s.h **** * to the channel length. See the device Technical Reference Manual (TRM)
  84:Generated_Source\PSoC6\pdl\drivers\peripheral\i2s/cy_i2s.h **** * for more details.
  85:Generated_Source\PSoC6\pdl\drivers\peripheral\i2s/cy_i2s.h **** *
  86:Generated_Source\PSoC6\pdl\drivers\peripheral\i2s/cy_i2s.h **** * \section group_i2s_more_information More Information
  87:Generated_Source\PSoC6\pdl\drivers\peripheral\i2s/cy_i2s.h **** * See: the the I2S chapter of the device technical reference manual (TRM);
ARM GAS  C:\Users\ikomb\AppData\Local\Temp\cchnbsea.s 			page 3


  88:Generated_Source\PSoC6\pdl\drivers\peripheral\i2s/cy_i2s.h **** *      I2S_PDL Component datasheet;
  89:Generated_Source\PSoC6\pdl\drivers\peripheral\i2s/cy_i2s.h **** *      CE218636 - PSOC 6 MCU INTER-IC SOUND (I2S) EXAMPLE.
  90:Generated_Source\PSoC6\pdl\drivers\peripheral\i2s/cy_i2s.h **** *
  91:Generated_Source\PSoC6\pdl\drivers\peripheral\i2s/cy_i2s.h **** * \section group_i2s_MISRA MISRA-C Compliance
  92:Generated_Source\PSoC6\pdl\drivers\peripheral\i2s/cy_i2s.h **** * The I2S driver has the following specific deviations:
  93:Generated_Source\PSoC6\pdl\drivers\peripheral\i2s/cy_i2s.h **** * <table class="doxtable">
  94:Generated_Source\PSoC6\pdl\drivers\peripheral\i2s/cy_i2s.h **** *   <tr>
  95:Generated_Source\PSoC6\pdl\drivers\peripheral\i2s/cy_i2s.h **** *     <th>MISRA Rule</th>
  96:Generated_Source\PSoC6\pdl\drivers\peripheral\i2s/cy_i2s.h **** *     <th>Rule Class (Required/Advisory)</th>
  97:Generated_Source\PSoC6\pdl\drivers\peripheral\i2s/cy_i2s.h **** *     <th>Rule Description</th>
  98:Generated_Source\PSoC6\pdl\drivers\peripheral\i2s/cy_i2s.h **** *     <th>Description of Deviation(s)</th>
  99:Generated_Source\PSoC6\pdl\drivers\peripheral\i2s/cy_i2s.h **** *   </tr>
 100:Generated_Source\PSoC6\pdl\drivers\peripheral\i2s/cy_i2s.h **** *   <tr>
 101:Generated_Source\PSoC6\pdl\drivers\peripheral\i2s/cy_i2s.h **** *     <td>11.4</td>
 102:Generated_Source\PSoC6\pdl\drivers\peripheral\i2s/cy_i2s.h **** *     <td>A</td>
 103:Generated_Source\PSoC6\pdl\drivers\peripheral\i2s/cy_i2s.h **** *     <td>A cast should not be performed between a pointer to the object type and
 104:Generated_Source\PSoC6\pdl\drivers\peripheral\i2s/cy_i2s.h **** *         a different pointer to the object type.</td>
 105:Generated_Source\PSoC6\pdl\drivers\peripheral\i2s/cy_i2s.h **** *     <td>The function \ref Cy_I2S_DeepSleepCallback is a callback of
 106:Generated_Source\PSoC6\pdl\drivers\peripheral\i2s/cy_i2s.h **** *         \ref cy_en_syspm_status_t type. The cast operation safety in this
 107:Generated_Source\PSoC6\pdl\drivers\peripheral\i2s/cy_i2s.h **** *         function becomes the user responsibility because the pointer is
 108:Generated_Source\PSoC6\pdl\drivers\peripheral\i2s/cy_i2s.h **** *         initialized when a callback is registered in the SysPm driver.</td>
 109:Generated_Source\PSoC6\pdl\drivers\peripheral\i2s/cy_i2s.h **** *   </tr>
 110:Generated_Source\PSoC6\pdl\drivers\peripheral\i2s/cy_i2s.h **** * </table>
 111:Generated_Source\PSoC6\pdl\drivers\peripheral\i2s/cy_i2s.h **** *
 112:Generated_Source\PSoC6\pdl\drivers\peripheral\i2s/cy_i2s.h **** * \section group_i2s_changelog Changelog
 113:Generated_Source\PSoC6\pdl\drivers\peripheral\i2s/cy_i2s.h **** * <table class="doxtable">
 114:Generated_Source\PSoC6\pdl\drivers\peripheral\i2s/cy_i2s.h **** *   <tr><th>Version</th><th>Changes</th><th>Reason for Change</th></tr>
 115:Generated_Source\PSoC6\pdl\drivers\peripheral\i2s/cy_i2s.h **** *   <tr>
 116:Generated_Source\PSoC6\pdl\drivers\peripheral\i2s/cy_i2s.h **** *     <td>2.0.1</td>
 117:Generated_Source\PSoC6\pdl\drivers\peripheral\i2s/cy_i2s.h **** *     <td>Added Low Power Callback section</td>
 118:Generated_Source\PSoC6\pdl\drivers\peripheral\i2s/cy_i2s.h **** *     <td>Documentation update and clarification</td>
 119:Generated_Source\PSoC6\pdl\drivers\peripheral\i2s/cy_i2s.h **** *   </tr>
 120:Generated_Source\PSoC6\pdl\drivers\peripheral\i2s/cy_i2s.h **** *   <tr>
 121:Generated_Source\PSoC6\pdl\drivers\peripheral\i2s/cy_i2s.h **** *     <td>2.0</td>
 122:Generated_Source\PSoC6\pdl\drivers\peripheral\i2s/cy_i2s.h **** *     <td>The slave operation is added, Left Justified and TDM modes are added</td>
 123:Generated_Source\PSoC6\pdl\drivers\peripheral\i2s/cy_i2s.h **** *     <td></td>
 124:Generated_Source\PSoC6\pdl\drivers\peripheral\i2s/cy_i2s.h **** *   </tr>
 125:Generated_Source\PSoC6\pdl\drivers\peripheral\i2s/cy_i2s.h **** *   <tr>
 126:Generated_Source\PSoC6\pdl\drivers\peripheral\i2s/cy_i2s.h **** *     <td>1.0</td>
 127:Generated_Source\PSoC6\pdl\drivers\peripheral\i2s/cy_i2s.h **** *     <td>Initial version</td>
 128:Generated_Source\PSoC6\pdl\drivers\peripheral\i2s/cy_i2s.h **** *     <td></td>
 129:Generated_Source\PSoC6\pdl\drivers\peripheral\i2s/cy_i2s.h **** *   </tr>
 130:Generated_Source\PSoC6\pdl\drivers\peripheral\i2s/cy_i2s.h **** * </table>
 131:Generated_Source\PSoC6\pdl\drivers\peripheral\i2s/cy_i2s.h **** *
 132:Generated_Source\PSoC6\pdl\drivers\peripheral\i2s/cy_i2s.h **** * \defgroup group_i2s_macros Macros
 133:Generated_Source\PSoC6\pdl\drivers\peripheral\i2s/cy_i2s.h **** * \defgroup group_i2s_functions Functions
 134:Generated_Source\PSoC6\pdl\drivers\peripheral\i2s/cy_i2s.h **** *   \{
 135:Generated_Source\PSoC6\pdl\drivers\peripheral\i2s/cy_i2s.h **** *       \defgroup group_i2s_functions_syspm_callback  Low Power Callback
 136:Generated_Source\PSoC6\pdl\drivers\peripheral\i2s/cy_i2s.h **** *   \}
 137:Generated_Source\PSoC6\pdl\drivers\peripheral\i2s/cy_i2s.h **** * \defgroup group_i2s_data_structures Data Structures
 138:Generated_Source\PSoC6\pdl\drivers\peripheral\i2s/cy_i2s.h **** * \defgroup group_i2s_enums Enumerated Types
 139:Generated_Source\PSoC6\pdl\drivers\peripheral\i2s/cy_i2s.h **** */
 140:Generated_Source\PSoC6\pdl\drivers\peripheral\i2s/cy_i2s.h **** 
 141:Generated_Source\PSoC6\pdl\drivers\peripheral\i2s/cy_i2s.h **** 
 142:Generated_Source\PSoC6\pdl\drivers\peripheral\i2s/cy_i2s.h **** #if !defined CY_I2S_H
 143:Generated_Source\PSoC6\pdl\drivers\peripheral\i2s/cy_i2s.h **** #define CY_I2S_H
 144:Generated_Source\PSoC6\pdl\drivers\peripheral\i2s/cy_i2s.h **** 
ARM GAS  C:\Users\ikomb\AppData\Local\Temp\cchnbsea.s 			page 4


 145:Generated_Source\PSoC6\pdl\drivers\peripheral\i2s/cy_i2s.h **** #include <stddef.h>
 146:Generated_Source\PSoC6\pdl\drivers\peripheral\i2s/cy_i2s.h **** #include <stdbool.h>
 147:Generated_Source\PSoC6\pdl\drivers\peripheral\i2s/cy_i2s.h **** #include "syslib/cy_syslib.h"
 148:Generated_Source\PSoC6\pdl\drivers\peripheral\i2s/cy_i2s.h **** #include "syspm/cy_syspm.h"
 149:Generated_Source\PSoC6\pdl\drivers\peripheral\i2s/cy_i2s.h **** 
 150:Generated_Source\PSoC6\pdl\drivers\peripheral\i2s/cy_i2s.h **** #ifndef CY_IP_MXAUDIOSS
 151:Generated_Source\PSoC6\pdl\drivers\peripheral\i2s/cy_i2s.h ****     #error "The I2S driver is not supported on this device"
 152:Generated_Source\PSoC6\pdl\drivers\peripheral\i2s/cy_i2s.h **** #endif
 153:Generated_Source\PSoC6\pdl\drivers\peripheral\i2s/cy_i2s.h **** 
 154:Generated_Source\PSoC6\pdl\drivers\peripheral\i2s/cy_i2s.h **** #ifdef __cplusplus
 155:Generated_Source\PSoC6\pdl\drivers\peripheral\i2s/cy_i2s.h **** extern "C" {
 156:Generated_Source\PSoC6\pdl\drivers\peripheral\i2s/cy_i2s.h **** #endif
 157:Generated_Source\PSoC6\pdl\drivers\peripheral\i2s/cy_i2s.h **** 
 158:Generated_Source\PSoC6\pdl\drivers\peripheral\i2s/cy_i2s.h **** /** \addtogroup group_i2s_macros
 159:Generated_Source\PSoC6\pdl\drivers\peripheral\i2s/cy_i2s.h **** * \{
 160:Generated_Source\PSoC6\pdl\drivers\peripheral\i2s/cy_i2s.h **** */
 161:Generated_Source\PSoC6\pdl\drivers\peripheral\i2s/cy_i2s.h **** 
 162:Generated_Source\PSoC6\pdl\drivers\peripheral\i2s/cy_i2s.h **** /** The driver major version */
 163:Generated_Source\PSoC6\pdl\drivers\peripheral\i2s/cy_i2s.h **** #define CY_I2S_DRV_VERSION_MAJOR       2
 164:Generated_Source\PSoC6\pdl\drivers\peripheral\i2s/cy_i2s.h **** 
 165:Generated_Source\PSoC6\pdl\drivers\peripheral\i2s/cy_i2s.h **** /** The driver minor version */
 166:Generated_Source\PSoC6\pdl\drivers\peripheral\i2s/cy_i2s.h **** #define CY_I2S_DRV_VERSION_MINOR       0
 167:Generated_Source\PSoC6\pdl\drivers\peripheral\i2s/cy_i2s.h **** 
 168:Generated_Source\PSoC6\pdl\drivers\peripheral\i2s/cy_i2s.h **** /** The I2S driver identifier */
 169:Generated_Source\PSoC6\pdl\drivers\peripheral\i2s/cy_i2s.h **** #define CY_I2S_ID                      (CY_PDL_DRV_ID(0x20U))
 170:Generated_Source\PSoC6\pdl\drivers\peripheral\i2s/cy_i2s.h **** 
 171:Generated_Source\PSoC6\pdl\drivers\peripheral\i2s/cy_i2s.h **** /**
 172:Generated_Source\PSoC6\pdl\drivers\peripheral\i2s/cy_i2s.h **** * \defgroup group_i2s_macros_intrerrupt_masks Interrupt Masks
 173:Generated_Source\PSoC6\pdl\drivers\peripheral\i2s/cy_i2s.h **** * \{
 174:Generated_Source\PSoC6\pdl\drivers\peripheral\i2s/cy_i2s.h **** */
 175:Generated_Source\PSoC6\pdl\drivers\peripheral\i2s/cy_i2s.h **** 
 176:Generated_Source\PSoC6\pdl\drivers\peripheral\i2s/cy_i2s.h **** /** Bit 0: Less entries in the TX FIFO than specified by Trigger Level. */
 177:Generated_Source\PSoC6\pdl\drivers\peripheral\i2s/cy_i2s.h **** #define CY_I2S_INTR_TX_TRIGGER         (I2S_INTR_TX_TRIGGER_Msk)
 178:Generated_Source\PSoC6\pdl\drivers\peripheral\i2s/cy_i2s.h **** /** Bit 1: TX FIFO is not full. */
 179:Generated_Source\PSoC6\pdl\drivers\peripheral\i2s/cy_i2s.h **** #define CY_I2S_INTR_TX_NOT_FULL        (I2S_INTR_TX_NOT_FULL_Msk)
 180:Generated_Source\PSoC6\pdl\drivers\peripheral\i2s/cy_i2s.h **** /** Bit 4: TX FIFO is empty, i.e. it has 0 entries. */
 181:Generated_Source\PSoC6\pdl\drivers\peripheral\i2s/cy_i2s.h **** #define CY_I2S_INTR_TX_EMPTY           (I2S_INTR_TX_EMPTY_Msk)
 182:Generated_Source\PSoC6\pdl\drivers\peripheral\i2s/cy_i2s.h **** /** Bit 5: Attempt to write to a full TX FIFO. */
 183:Generated_Source\PSoC6\pdl\drivers\peripheral\i2s/cy_i2s.h **** #define CY_I2S_INTR_TX_OVERFLOW        (I2S_INTR_TX_OVERFLOW_Msk)
 184:Generated_Source\PSoC6\pdl\drivers\peripheral\i2s/cy_i2s.h **** /** Bit 6: Attempt to read from an empty TX FIFO.
 185:Generated_Source\PSoC6\pdl\drivers\peripheral\i2s/cy_i2s.h **** * This happens when the IP is ready to transfer data and TX_EMPTY is '1'. */
 186:Generated_Source\PSoC6\pdl\drivers\peripheral\i2s/cy_i2s.h **** #define CY_I2S_INTR_TX_UNDERFLOW       (I2S_INTR_TX_UNDERFLOW_Msk)
 187:Generated_Source\PSoC6\pdl\drivers\peripheral\i2s/cy_i2s.h **** /** Bit 8: Tx watchdog event occurs. */
 188:Generated_Source\PSoC6\pdl\drivers\peripheral\i2s/cy_i2s.h **** #define CY_I2S_INTR_TX_WD              (I2S_INTR_TX_WD_Msk)
 189:Generated_Source\PSoC6\pdl\drivers\peripheral\i2s/cy_i2s.h **** /** Bit 16: More entries in the RX FIFO than specified by Trigger Level. */
 190:Generated_Source\PSoC6\pdl\drivers\peripheral\i2s/cy_i2s.h **** #define CY_I2S_INTR_RX_TRIGGER         (I2S_INTR_RX_TRIGGER_Msk)
 191:Generated_Source\PSoC6\pdl\drivers\peripheral\i2s/cy_i2s.h **** /** Bit 18: RX FIFO is not empty. */
 192:Generated_Source\PSoC6\pdl\drivers\peripheral\i2s/cy_i2s.h **** #define CY_I2S_INTR_RX_NOT_EMPTY       (I2S_INTR_RX_NOT_EMPTY_Msk)
 193:Generated_Source\PSoC6\pdl\drivers\peripheral\i2s/cy_i2s.h **** /** Bit 19: RX FIFO is full. */
 194:Generated_Source\PSoC6\pdl\drivers\peripheral\i2s/cy_i2s.h **** #define CY_I2S_INTR_RX_FULL            (I2S_INTR_RX_FULL_Msk)
 195:Generated_Source\PSoC6\pdl\drivers\peripheral\i2s/cy_i2s.h **** /** Bit 21: Attempt to write to a full RX FIFO. */
 196:Generated_Source\PSoC6\pdl\drivers\peripheral\i2s/cy_i2s.h **** #define CY_I2S_INTR_RX_OVERFLOW        (I2S_INTR_RX_OVERFLOW_Msk)
 197:Generated_Source\PSoC6\pdl\drivers\peripheral\i2s/cy_i2s.h **** /** Bit 22: Attempt to read from an empty RX FIFO. */
 198:Generated_Source\PSoC6\pdl\drivers\peripheral\i2s/cy_i2s.h **** #define CY_I2S_INTR_RX_UNDERFLOW       (I2S_INTR_RX_UNDERFLOW_Msk)
 199:Generated_Source\PSoC6\pdl\drivers\peripheral\i2s/cy_i2s.h **** /** Bit 24: Rx watchdog event occurs. */
 200:Generated_Source\PSoC6\pdl\drivers\peripheral\i2s/cy_i2s.h **** #define CY_I2S_INTR_RX_WD              (I2S_INTR_RX_WD_Msk)
 201:Generated_Source\PSoC6\pdl\drivers\peripheral\i2s/cy_i2s.h **** 
ARM GAS  C:\Users\ikomb\AppData\Local\Temp\cchnbsea.s 			page 5


 202:Generated_Source\PSoC6\pdl\drivers\peripheral\i2s/cy_i2s.h **** /** \} group_i2s_macros_intrerrupt_masks */
 203:Generated_Source\PSoC6\pdl\drivers\peripheral\i2s/cy_i2s.h **** 
 204:Generated_Source\PSoC6\pdl\drivers\peripheral\i2s/cy_i2s.h **** 
 205:Generated_Source\PSoC6\pdl\drivers\peripheral\i2s/cy_i2s.h **** /**
 206:Generated_Source\PSoC6\pdl\drivers\peripheral\i2s/cy_i2s.h **** * \defgroup group_i2s_macros_current_state Current State
 207:Generated_Source\PSoC6\pdl\drivers\peripheral\i2s/cy_i2s.h **** * \{
 208:Generated_Source\PSoC6\pdl\drivers\peripheral\i2s/cy_i2s.h **** */
 209:Generated_Source\PSoC6\pdl\drivers\peripheral\i2s/cy_i2s.h **** 
 210:Generated_Source\PSoC6\pdl\drivers\peripheral\i2s/cy_i2s.h **** /** Transmission is active */ 
 211:Generated_Source\PSoC6\pdl\drivers\peripheral\i2s/cy_i2s.h **** #define CY_I2S_TX_START                (I2S_CMD_TX_START_Msk)
 212:Generated_Source\PSoC6\pdl\drivers\peripheral\i2s/cy_i2s.h **** /** Transmission is paused */
 213:Generated_Source\PSoC6\pdl\drivers\peripheral\i2s/cy_i2s.h **** #define CY_I2S_TX_PAUSE                (I2S_CMD_TX_PAUSE_Msk)
 214:Generated_Source\PSoC6\pdl\drivers\peripheral\i2s/cy_i2s.h **** /** Reception is active */
 215:Generated_Source\PSoC6\pdl\drivers\peripheral\i2s/cy_i2s.h **** #define CY_I2S_RX_START                (I2S_CMD_RX_START_Msk)
 216:Generated_Source\PSoC6\pdl\drivers\peripheral\i2s/cy_i2s.h **** 
 217:Generated_Source\PSoC6\pdl\drivers\peripheral\i2s/cy_i2s.h **** /** \} group_i2s_macros_current_state */
 218:Generated_Source\PSoC6\pdl\drivers\peripheral\i2s/cy_i2s.h **** 
 219:Generated_Source\PSoC6\pdl\drivers\peripheral\i2s/cy_i2s.h **** /** \} group_i2s_macros */
 220:Generated_Source\PSoC6\pdl\drivers\peripheral\i2s/cy_i2s.h **** 
 221:Generated_Source\PSoC6\pdl\drivers\peripheral\i2s/cy_i2s.h **** /**
 222:Generated_Source\PSoC6\pdl\drivers\peripheral\i2s/cy_i2s.h **** * \addtogroup group_i2s_enums
 223:Generated_Source\PSoC6\pdl\drivers\peripheral\i2s/cy_i2s.h **** * \{
 224:Generated_Source\PSoC6\pdl\drivers\peripheral\i2s/cy_i2s.h **** */
 225:Generated_Source\PSoC6\pdl\drivers\peripheral\i2s/cy_i2s.h **** 
 226:Generated_Source\PSoC6\pdl\drivers\peripheral\i2s/cy_i2s.h **** /**
 227:Generated_Source\PSoC6\pdl\drivers\peripheral\i2s/cy_i2s.h **** * I2S status definitions.
 228:Generated_Source\PSoC6\pdl\drivers\peripheral\i2s/cy_i2s.h **** */
 229:Generated_Source\PSoC6\pdl\drivers\peripheral\i2s/cy_i2s.h **** 
 230:Generated_Source\PSoC6\pdl\drivers\peripheral\i2s/cy_i2s.h **** typedef enum 
 231:Generated_Source\PSoC6\pdl\drivers\peripheral\i2s/cy_i2s.h **** {
 232:Generated_Source\PSoC6\pdl\drivers\peripheral\i2s/cy_i2s.h ****     CY_I2S_SUCCESS   = 0x00UL, /**< Successful. */
 233:Generated_Source\PSoC6\pdl\drivers\peripheral\i2s/cy_i2s.h ****     CY_I2S_BAD_PARAM = CY_I2S_ID | CY_PDL_STATUS_ERROR | 0x01UL /**< One or more invalid parameters
 234:Generated_Source\PSoC6\pdl\drivers\peripheral\i2s/cy_i2s.h **** } cy_en_i2s_status_t;
 235:Generated_Source\PSoC6\pdl\drivers\peripheral\i2s/cy_i2s.h **** 
 236:Generated_Source\PSoC6\pdl\drivers\peripheral\i2s/cy_i2s.h **** 
 237:Generated_Source\PSoC6\pdl\drivers\peripheral\i2s/cy_i2s.h **** /**
 238:Generated_Source\PSoC6\pdl\drivers\peripheral\i2s/cy_i2s.h **** * I2S data alignment.
 239:Generated_Source\PSoC6\pdl\drivers\peripheral\i2s/cy_i2s.h **** */
 240:Generated_Source\PSoC6\pdl\drivers\peripheral\i2s/cy_i2s.h **** typedef enum
 241:Generated_Source\PSoC6\pdl\drivers\peripheral\i2s/cy_i2s.h **** {
 242:Generated_Source\PSoC6\pdl\drivers\peripheral\i2s/cy_i2s.h ****     CY_I2S_LEFT_JUSTIFIED = 0U, /**< Left justified. */
 243:Generated_Source\PSoC6\pdl\drivers\peripheral\i2s/cy_i2s.h ****     CY_I2S_I2S_MODE       = 1U, /**< I2S mode. */
 244:Generated_Source\PSoC6\pdl\drivers\peripheral\i2s/cy_i2s.h ****     CY_I2S_TDM_MODE_A     = 2U, /**< TDM mode A. */
 245:Generated_Source\PSoC6\pdl\drivers\peripheral\i2s/cy_i2s.h ****     CY_I2S_TDM_MODE_B     = 3U  /**< TDM mode B. */
 246:Generated_Source\PSoC6\pdl\drivers\peripheral\i2s/cy_i2s.h **** } cy_en_i2s_alignment_t;
 247:Generated_Source\PSoC6\pdl\drivers\peripheral\i2s/cy_i2s.h **** 
 248:Generated_Source\PSoC6\pdl\drivers\peripheral\i2s/cy_i2s.h **** /**
 249:Generated_Source\PSoC6\pdl\drivers\peripheral\i2s/cy_i2s.h **** * I2S channel/word length.
 250:Generated_Source\PSoC6\pdl\drivers\peripheral\i2s/cy_i2s.h **** */
 251:Generated_Source\PSoC6\pdl\drivers\peripheral\i2s/cy_i2s.h **** typedef enum
 252:Generated_Source\PSoC6\pdl\drivers\peripheral\i2s/cy_i2s.h **** {
 253:Generated_Source\PSoC6\pdl\drivers\peripheral\i2s/cy_i2s.h ****     CY_I2S_LEN8  = 0U, /**< Channel/word length:  8 bit. */
 254:Generated_Source\PSoC6\pdl\drivers\peripheral\i2s/cy_i2s.h ****     CY_I2S_LEN16 = 1U, /**< Channel/Word length: 16 bit. */
 255:Generated_Source\PSoC6\pdl\drivers\peripheral\i2s/cy_i2s.h ****     CY_I2S_LEN18 = 2U, /**< Channel/Word length: 18 bit. */
 256:Generated_Source\PSoC6\pdl\drivers\peripheral\i2s/cy_i2s.h ****     CY_I2S_LEN20 = 3U, /**< Channel/Word length: 20 bit. */
 257:Generated_Source\PSoC6\pdl\drivers\peripheral\i2s/cy_i2s.h ****     CY_I2S_LEN24 = 4U, /**< Channel/Word length: 24 bit. */
 258:Generated_Source\PSoC6\pdl\drivers\peripheral\i2s/cy_i2s.h ****     CY_I2S_LEN32 = 5U  /**< Channel/Word length: 32 bit. */
ARM GAS  C:\Users\ikomb\AppData\Local\Temp\cchnbsea.s 			page 6


 259:Generated_Source\PSoC6\pdl\drivers\peripheral\i2s/cy_i2s.h **** } cy_en_i2s_len_t;
 260:Generated_Source\PSoC6\pdl\drivers\peripheral\i2s/cy_i2s.h **** 
 261:Generated_Source\PSoC6\pdl\drivers\peripheral\i2s/cy_i2s.h **** /**
 262:Generated_Source\PSoC6\pdl\drivers\peripheral\i2s/cy_i2s.h **** * I2S TX overhead value.
 263:Generated_Source\PSoC6\pdl\drivers\peripheral\i2s/cy_i2s.h **** */
 264:Generated_Source\PSoC6\pdl\drivers\peripheral\i2s/cy_i2s.h **** typedef enum
 265:Generated_Source\PSoC6\pdl\drivers\peripheral\i2s/cy_i2s.h **** {
 266:Generated_Source\PSoC6\pdl\drivers\peripheral\i2s/cy_i2s.h ****     CY_I2S_OVHDATA_ZERO = 0U, /**< Fill overhead bits by zeroes. */
 267:Generated_Source\PSoC6\pdl\drivers\peripheral\i2s/cy_i2s.h ****     CY_I2S_OVHDATA_ONE  = 1U, /**< Fill overhead bits by ones. */
 268:Generated_Source\PSoC6\pdl\drivers\peripheral\i2s/cy_i2s.h **** } cy_en_i2s_overhead_t;
 269:Generated_Source\PSoC6\pdl\drivers\peripheral\i2s/cy_i2s.h **** 
 270:Generated_Source\PSoC6\pdl\drivers\peripheral\i2s/cy_i2s.h **** /**
 271:Generated_Source\PSoC6\pdl\drivers\peripheral\i2s/cy_i2s.h **** * I2S WS pulse width.
 272:Generated_Source\PSoC6\pdl\drivers\peripheral\i2s/cy_i2s.h **** */
 273:Generated_Source\PSoC6\pdl\drivers\peripheral\i2s/cy_i2s.h **** typedef enum
 274:Generated_Source\PSoC6\pdl\drivers\peripheral\i2s/cy_i2s.h **** {
 275:Generated_Source\PSoC6\pdl\drivers\peripheral\i2s/cy_i2s.h ****     CY_I2S_WS_ONE_SCK_CYCLE      = 0U, /**< WS pulse width is one SCK cycle. */
 276:Generated_Source\PSoC6\pdl\drivers\peripheral\i2s/cy_i2s.h ****     CY_I2S_WS_ONE_CHANNEL_LENGTH = 1U, /**< WS pulse width is one channel length. */
 277:Generated_Source\PSoC6\pdl\drivers\peripheral\i2s/cy_i2s.h **** } cy_en_i2s_ws_pw_t;
 278:Generated_Source\PSoC6\pdl\drivers\peripheral\i2s/cy_i2s.h **** 
 279:Generated_Source\PSoC6\pdl\drivers\peripheral\i2s/cy_i2s.h **** /** \} group_i2s_enums */
 280:Generated_Source\PSoC6\pdl\drivers\peripheral\i2s/cy_i2s.h **** 
 281:Generated_Source\PSoC6\pdl\drivers\peripheral\i2s/cy_i2s.h **** /**
 282:Generated_Source\PSoC6\pdl\drivers\peripheral\i2s/cy_i2s.h **** * \addtogroup group_i2s_data_structures
 283:Generated_Source\PSoC6\pdl\drivers\peripheral\i2s/cy_i2s.h **** * \{
 284:Generated_Source\PSoC6\pdl\drivers\peripheral\i2s/cy_i2s.h **** */
 285:Generated_Source\PSoC6\pdl\drivers\peripheral\i2s/cy_i2s.h **** 
 286:Generated_Source\PSoC6\pdl\drivers\peripheral\i2s/cy_i2s.h **** /**
 287:Generated_Source\PSoC6\pdl\drivers\peripheral\i2s/cy_i2s.h **** * I2S initialization configuration.
 288:Generated_Source\PSoC6\pdl\drivers\peripheral\i2s/cy_i2s.h **** */
 289:Generated_Source\PSoC6\pdl\drivers\peripheral\i2s/cy_i2s.h **** typedef struct
 290:Generated_Source\PSoC6\pdl\drivers\peripheral\i2s/cy_i2s.h **** {
 291:Generated_Source\PSoC6\pdl\drivers\peripheral\i2s/cy_i2s.h ****     bool                  txEnabled;          /**< Enables the I2S TX component: 'false': disabled.
 292:Generated_Source\PSoC6\pdl\drivers\peripheral\i2s/cy_i2s.h ****     bool                  rxEnabled;          /**< Enables the I2S RX component: 'false': disabled.
 293:Generated_Source\PSoC6\pdl\drivers\peripheral\i2s/cy_i2s.h ****     bool                  txDmaTrigger;       /**< 'false': TX DMA trigger disable, 'true': TX DMA 
 294:Generated_Source\PSoC6\pdl\drivers\peripheral\i2s/cy_i2s.h ****     bool                  rxDmaTrigger;       /**< 'false': RX DMA trigger disable, 'true': RX DMA 
 295:Generated_Source\PSoC6\pdl\drivers\peripheral\i2s/cy_i2s.h ****     uint8_t               clkDiv;             /**< CLK_SEL divider: 1: Bypass, 2: 1/2, 3: 1/3, ...,
 296:Generated_Source\PSoC6\pdl\drivers\peripheral\i2s/cy_i2s.h ****     bool                  extClk;             /**< 'false': internal clock, 'true': external clock.
 297:Generated_Source\PSoC6\pdl\drivers\peripheral\i2s/cy_i2s.h ****     bool                  txMasterMode;       /**< 'false': TX in slave mode, 'true': TX in master 
 298:Generated_Source\PSoC6\pdl\drivers\peripheral\i2s/cy_i2s.h ****     cy_en_i2s_alignment_t txAlignment;        /**< TX data alignment, see: #cy_en_i2s_alignment_t. 
 299:Generated_Source\PSoC6\pdl\drivers\peripheral\i2s/cy_i2s.h ****     cy_en_i2s_ws_pw_t     txWsPulseWidth;     /**< TX Word Select pulse width.
 300:Generated_Source\PSoC6\pdl\drivers\peripheral\i2s/cy_i2s.h ****                                                    The value of this parameter is ignored in I2S an
 301:Generated_Source\PSoC6\pdl\drivers\peripheral\i2s/cy_i2s.h ****                                                    the WS pulse width is always "one channel length
 302:Generated_Source\PSoC6\pdl\drivers\peripheral\i2s/cy_i2s.h ****     bool                  txWatchdogEnable;   /**< 'false': TX watchdog disabled, 'true': TX watchd
 303:Generated_Source\PSoC6\pdl\drivers\peripheral\i2s/cy_i2s.h ****     uint32_t              txWatchdogValue;    /**< TX watchdog counter value (32 bit). */
 304:Generated_Source\PSoC6\pdl\drivers\peripheral\i2s/cy_i2s.h ****     bool                  txSdoLatchingTime;  /**< 'false': SDO bit starts at falling edge (accordi
 305:Generated_Source\PSoC6\pdl\drivers\peripheral\i2s/cy_i2s.h ****                                                    Standard, if txSckoInversion is false),
 306:Generated_Source\PSoC6\pdl\drivers\peripheral\i2s/cy_i2s.h ****                                                    'true': SDO bit starts at rising edge which goes
 307:Generated_Source\PSoC6\pdl\drivers\peripheral\i2s/cy_i2s.h ****                                                    mentioned falling edge, i.e. the SDO signal is a
 308:Generated_Source\PSoC6\pdl\drivers\peripheral\i2s/cy_i2s.h ****                                                    period (if txSckoInversion is false).
 309:Generated_Source\PSoC6\pdl\drivers\peripheral\i2s/cy_i2s.h ****                                                    If txSckoInversion is true - the rising/falling 
 310:Generated_Source\PSoC6\pdl\drivers\peripheral\i2s/cy_i2s.h ****                                                    in above explanations.
 311:Generated_Source\PSoC6\pdl\drivers\peripheral\i2s/cy_i2s.h ****                                                    Effective only in slave mode, must be false in m
 312:Generated_Source\PSoC6\pdl\drivers\peripheral\i2s/cy_i2s.h ****     bool                  txSckoInversion;    /**< TX SCKO polarity:
 313:Generated_Source\PSoC6\pdl\drivers\peripheral\i2s/cy_i2s.h ****                                                    'false': When transmitter is in master mode, ser
 314:Generated_Source\PSoC6\pdl\drivers\peripheral\i2s/cy_i2s.h ****                                                             transmitted off the falling bit clock e
 315:Generated_Source\PSoC6\pdl\drivers\peripheral\i2s/cy_i2s.h ****                                                             the I2S Standard);
ARM GAS  C:\Users\ikomb\AppData\Local\Temp\cchnbsea.s 			page 7


 316:Generated_Source\PSoC6\pdl\drivers\peripheral\i2s/cy_i2s.h ****                                                    'true':  When transmitter is in master mode, ser
 317:Generated_Source\PSoC6\pdl\drivers\peripheral\i2s/cy_i2s.h ****                                                             transmitted off the rising bit clock ed
 318:Generated_Source\PSoC6\pdl\drivers\peripheral\i2s/cy_i2s.h ****                                                    Effective only in master mode. */
 319:Generated_Source\PSoC6\pdl\drivers\peripheral\i2s/cy_i2s.h ****     bool                  txSckiInversion;    /**< TX SCKI polarity:
 320:Generated_Source\PSoC6\pdl\drivers\peripheral\i2s/cy_i2s.h ****                                                    'false': When transmitter is in slave mode, seri
 321:Generated_Source\PSoC6\pdl\drivers\peripheral\i2s/cy_i2s.h ****                                                             transmitted off the falling bit clock e
 322:Generated_Source\PSoC6\pdl\drivers\peripheral\i2s/cy_i2s.h ****                                                             the I2S Standard);
 323:Generated_Source\PSoC6\pdl\drivers\peripheral\i2s/cy_i2s.h ****                                                    'true':  When transmitter is in slave mode, seri
 324:Generated_Source\PSoC6\pdl\drivers\peripheral\i2s/cy_i2s.h ****                                                             transmitted off the rising bit clock ed
 325:Generated_Source\PSoC6\pdl\drivers\peripheral\i2s/cy_i2s.h ****                                                    Effective only in slave mode. */
 326:Generated_Source\PSoC6\pdl\drivers\peripheral\i2s/cy_i2s.h ****     uint8_t               txChannels;         /**< Number of TX channels, valid range is 1...8 for 
 327:Generated_Source\PSoC6\pdl\drivers\peripheral\i2s/cy_i2s.h ****                                                    In the I2S and Left Justified modes the value of
 328:Generated_Source\PSoC6\pdl\drivers\peripheral\i2s/cy_i2s.h ****                                                    ignored - the real number of channels is always 
 329:Generated_Source\PSoC6\pdl\drivers\peripheral\i2s/cy_i2s.h ****     cy_en_i2s_len_t       txChannelLength;    /**< TX channel length, see #cy_en_i2s_len_t,
 330:Generated_Source\PSoC6\pdl\drivers\peripheral\i2s/cy_i2s.h ****                                                    the value of this parameter is ignored in TDM mo
 331:Generated_Source\PSoC6\pdl\drivers\peripheral\i2s/cy_i2s.h ****                                                    channel length is 32 bit in these modes. */
 332:Generated_Source\PSoC6\pdl\drivers\peripheral\i2s/cy_i2s.h ****     cy_en_i2s_len_t       txWordLength;       /**< TX word length, see #cy_en_i2s_len_t,
 333:Generated_Source\PSoC6\pdl\drivers\peripheral\i2s/cy_i2s.h ****                                                    must be less or equal to txChannelLength. */
 334:Generated_Source\PSoC6\pdl\drivers\peripheral\i2s/cy_i2s.h ****     cy_en_i2s_overhead_t  txOverheadValue;    /**< TX overhead bits value
 335:Generated_Source\PSoC6\pdl\drivers\peripheral\i2s/cy_i2s.h ****                                                    when the word length is less than the channel le
 336:Generated_Source\PSoC6\pdl\drivers\peripheral\i2s/cy_i2s.h ****     uint8_t               txFifoTriggerLevel; /**< TX FIFO interrupt trigger level (0, 1, ..., 255)
 337:Generated_Source\PSoC6\pdl\drivers\peripheral\i2s/cy_i2s.h ****     bool                  rxMasterMode;       /**< 'false': RX in slave mode, 'true': RX in master 
 338:Generated_Source\PSoC6\pdl\drivers\peripheral\i2s/cy_i2s.h ****     cy_en_i2s_alignment_t rxAlignment;        /**< RX data alignment, see: #cy_en_i2s_alignment_t. 
 339:Generated_Source\PSoC6\pdl\drivers\peripheral\i2s/cy_i2s.h ****     cy_en_i2s_ws_pw_t     rxWsPulseWidth;     /**< RX Word Select pulse width.
 340:Generated_Source\PSoC6\pdl\drivers\peripheral\i2s/cy_i2s.h ****                                                    The value of this parameter is ignored in I2S an
 341:Generated_Source\PSoC6\pdl\drivers\peripheral\i2s/cy_i2s.h ****                                                    the WS pulse width is always "one channel length
 342:Generated_Source\PSoC6\pdl\drivers\peripheral\i2s/cy_i2s.h ****     bool                  rxWatchdogEnable;   /**< 'false': RX watchdog disabled, 'true': RX watchd
 343:Generated_Source\PSoC6\pdl\drivers\peripheral\i2s/cy_i2s.h ****     uint32_t              rxWatchdogValue;    /**< RX watchdog counter value (32 bit). */
 344:Generated_Source\PSoC6\pdl\drivers\peripheral\i2s/cy_i2s.h ****     bool                  rxSdiLatchingTime;  /**< 'false': SDI bit starts at falling edge (accordi
 345:Generated_Source\PSoC6\pdl\drivers\peripheral\i2s/cy_i2s.h ****                                                    Standard if rxSckoInversion is false),
 346:Generated_Source\PSoC6\pdl\drivers\peripheral\i2s/cy_i2s.h ****                                                    'true': SDI bit starts at rising edge which goes
 347:Generated_Source\PSoC6\pdl\drivers\peripheral\i2s/cy_i2s.h ****                                                    mentioned falling edge, i.e. the SDI signal is d
 348:Generated_Source\PSoC6\pdl\drivers\peripheral\i2s/cy_i2s.h ****                                                    period (if rxSckoInversion is false).
 349:Generated_Source\PSoC6\pdl\drivers\peripheral\i2s/cy_i2s.h ****                                                    If rxSckoInversion is true - the rising/falling 
 350:Generated_Source\PSoC6\pdl\drivers\peripheral\i2s/cy_i2s.h ****                                                    in above explanations.
 351:Generated_Source\PSoC6\pdl\drivers\peripheral\i2s/cy_i2s.h ****                                                    Effective only in master mode, must be false in 
 352:Generated_Source\PSoC6\pdl\drivers\peripheral\i2s/cy_i2s.h ****     bool                  rxSckoInversion;    /**< RX SCKO polarity:
 353:Generated_Source\PSoC6\pdl\drivers\peripheral\i2s/cy_i2s.h ****                                                    'false': When receiver is in master mode, serial
 354:Generated_Source\PSoC6\pdl\drivers\peripheral\i2s/cy_i2s.h ****                                                             captured by the rising bit clock edge (
 355:Generated_Source\PSoC6\pdl\drivers\peripheral\i2s/cy_i2s.h ****                                                             I2S Standard);
 356:Generated_Source\PSoC6\pdl\drivers\peripheral\i2s/cy_i2s.h ****                                                    'true':  When receiver is in master mode, serial
 357:Generated_Source\PSoC6\pdl\drivers\peripheral\i2s/cy_i2s.h ****                                                             captured by the falling bit clock edge.
 358:Generated_Source\PSoC6\pdl\drivers\peripheral\i2s/cy_i2s.h ****                                                    Effective only in master mode. */
 359:Generated_Source\PSoC6\pdl\drivers\peripheral\i2s/cy_i2s.h ****     bool                  rxSckiInversion;    /**< RX SCKI polarity:
 360:Generated_Source\PSoC6\pdl\drivers\peripheral\i2s/cy_i2s.h ****                                                    'false': When receiver is in slave mode, serial 
 361:Generated_Source\PSoC6\pdl\drivers\peripheral\i2s/cy_i2s.h ****                                                             captured by the rising bit clock edge (
 362:Generated_Source\PSoC6\pdl\drivers\peripheral\i2s/cy_i2s.h ****                                                             I2S Standard);
 363:Generated_Source\PSoC6\pdl\drivers\peripheral\i2s/cy_i2s.h ****                                                    'true':  When receiver is in slave mode, serial 
 364:Generated_Source\PSoC6\pdl\drivers\peripheral\i2s/cy_i2s.h ****                                                             captured by the falling bit clock edge.
 365:Generated_Source\PSoC6\pdl\drivers\peripheral\i2s/cy_i2s.h ****                                                    Effective only in slave mode. */
 366:Generated_Source\PSoC6\pdl\drivers\peripheral\i2s/cy_i2s.h ****     uint8_t               rxChannels;         /**< Number of RX channels, valid range is 1...8 for 
 367:Generated_Source\PSoC6\pdl\drivers\peripheral\i2s/cy_i2s.h ****                                                    In the I2S and Left Justified modes the value of
 368:Generated_Source\PSoC6\pdl\drivers\peripheral\i2s/cy_i2s.h ****                                                    ignored - the real number of channels is always 
 369:Generated_Source\PSoC6\pdl\drivers\peripheral\i2s/cy_i2s.h ****     cy_en_i2s_len_t       rxChannelLength;    /**< RX channel length, see #cy_en_i2s_len_t,
 370:Generated_Source\PSoC6\pdl\drivers\peripheral\i2s/cy_i2s.h ****                                                    the value of this parameter is ignored in TDM mo
 371:Generated_Source\PSoC6\pdl\drivers\peripheral\i2s/cy_i2s.h ****                                                    channel length is 32 bit in these modes. */
 372:Generated_Source\PSoC6\pdl\drivers\peripheral\i2s/cy_i2s.h ****     cy_en_i2s_len_t       rxWordLength;       /**< RX word length, see #cy_en_i2s_len_t,
ARM GAS  C:\Users\ikomb\AppData\Local\Temp\cchnbsea.s 			page 8


 373:Generated_Source\PSoC6\pdl\drivers\peripheral\i2s/cy_i2s.h ****                                                    must be less or equal to rxChannelLength. */
 374:Generated_Source\PSoC6\pdl\drivers\peripheral\i2s/cy_i2s.h ****     bool                  rxSignExtension;    /**< RX value sign extension (when the word length is
 375:Generated_Source\PSoC6\pdl\drivers\peripheral\i2s/cy_i2s.h ****                                                    'false': all MSB are filled by zeroes, 
 376:Generated_Source\PSoC6\pdl\drivers\peripheral\i2s/cy_i2s.h ****                                                    'true': all MSB are filled by the original sign 
 377:Generated_Source\PSoC6\pdl\drivers\peripheral\i2s/cy_i2s.h ****     uint8_t               rxFifoTriggerLevel; /**< RX FIFO interrupt trigger level
 378:Generated_Source\PSoC6\pdl\drivers\peripheral\i2s/cy_i2s.h ****                                                    (0, 1, ..., (255 - (number of channels))). */
 379:Generated_Source\PSoC6\pdl\drivers\peripheral\i2s/cy_i2s.h **** } cy_stc_i2s_config_t;
 380:Generated_Source\PSoC6\pdl\drivers\peripheral\i2s/cy_i2s.h **** 
 381:Generated_Source\PSoC6\pdl\drivers\peripheral\i2s/cy_i2s.h **** 
 382:Generated_Source\PSoC6\pdl\drivers\peripheral\i2s/cy_i2s.h **** /**
 383:Generated_Source\PSoC6\pdl\drivers\peripheral\i2s/cy_i2s.h ****  * The I2S backup structure type to be used for the SysPm callback.
 384:Generated_Source\PSoC6\pdl\drivers\peripheral\i2s/cy_i2s.h ****  * \ref Cy_I2S_DeepSleepCallback context definition.
 385:Generated_Source\PSoC6\pdl\drivers\peripheral\i2s/cy_i2s.h ****  *
 386:Generated_Source\PSoC6\pdl\drivers\peripheral\i2s/cy_i2s.h ****  * \cond Also can be used for other purposes to store the current Tx/Rx
 387:Generated_Source\PSoC6\pdl\drivers\peripheral\i2s/cy_i2s.h ****  * operation state and interrupt settings - the factors that are usually
 388:Generated_Source\PSoC6\pdl\drivers\peripheral\i2s/cy_i2s.h ****  * changed on the fly. \endcond
 389:Generated_Source\PSoC6\pdl\drivers\peripheral\i2s/cy_i2s.h ****  */
 390:Generated_Source\PSoC6\pdl\drivers\peripheral\i2s/cy_i2s.h **** typedef struct
 391:Generated_Source\PSoC6\pdl\drivers\peripheral\i2s/cy_i2s.h **** {
 392:Generated_Source\PSoC6\pdl\drivers\peripheral\i2s/cy_i2s.h ****     uint32_t enableState;            /**< Stores the I2S state */
 393:Generated_Source\PSoC6\pdl\drivers\peripheral\i2s/cy_i2s.h ****     uint32_t interruptMask;          /**< Stores the I2S interrupt mask */
 394:Generated_Source\PSoC6\pdl\drivers\peripheral\i2s/cy_i2s.h **** } cy_stc_i2s_context_t;
 395:Generated_Source\PSoC6\pdl\drivers\peripheral\i2s/cy_i2s.h **** 
 396:Generated_Source\PSoC6\pdl\drivers\peripheral\i2s/cy_i2s.h **** /** \} group_i2s_data_structures */
 397:Generated_Source\PSoC6\pdl\drivers\peripheral\i2s/cy_i2s.h **** 
 398:Generated_Source\PSoC6\pdl\drivers\peripheral\i2s/cy_i2s.h **** /** \cond INTERNAL */
 399:Generated_Source\PSoC6\pdl\drivers\peripheral\i2s/cy_i2s.h **** /******************************************************************************
 400:Generated_Source\PSoC6\pdl\drivers\peripheral\i2s/cy_i2s.h ****  * Local definitions
 401:Generated_Source\PSoC6\pdl\drivers\peripheral\i2s/cy_i2s.h **** *******************************************************************************/
 402:Generated_Source\PSoC6\pdl\drivers\peripheral\i2s/cy_i2s.h **** 
 403:Generated_Source\PSoC6\pdl\drivers\peripheral\i2s/cy_i2s.h **** #define CY_I2S_INTR_MASK           (CY_I2S_INTR_TX_TRIGGER   | \
 404:Generated_Source\PSoC6\pdl\drivers\peripheral\i2s/cy_i2s.h ****                                     CY_I2S_INTR_TX_NOT_FULL  | \
 405:Generated_Source\PSoC6\pdl\drivers\peripheral\i2s/cy_i2s.h ****                                     CY_I2S_INTR_TX_EMPTY     | \
 406:Generated_Source\PSoC6\pdl\drivers\peripheral\i2s/cy_i2s.h ****                                     CY_I2S_INTR_TX_OVERFLOW  | \
 407:Generated_Source\PSoC6\pdl\drivers\peripheral\i2s/cy_i2s.h ****                                     CY_I2S_INTR_TX_UNDERFLOW | \
 408:Generated_Source\PSoC6\pdl\drivers\peripheral\i2s/cy_i2s.h ****                                     CY_I2S_INTR_TX_WD        | \
 409:Generated_Source\PSoC6\pdl\drivers\peripheral\i2s/cy_i2s.h ****                                     CY_I2S_INTR_RX_TRIGGER   | \
 410:Generated_Source\PSoC6\pdl\drivers\peripheral\i2s/cy_i2s.h ****                                     CY_I2S_INTR_RX_NOT_EMPTY | \
 411:Generated_Source\PSoC6\pdl\drivers\peripheral\i2s/cy_i2s.h ****                                     CY_I2S_INTR_RX_FULL      | \
 412:Generated_Source\PSoC6\pdl\drivers\peripheral\i2s/cy_i2s.h ****                                     CY_I2S_INTR_RX_OVERFLOW  | \
 413:Generated_Source\PSoC6\pdl\drivers\peripheral\i2s/cy_i2s.h ****                                     CY_I2S_INTR_RX_UNDERFLOW | \
 414:Generated_Source\PSoC6\pdl\drivers\peripheral\i2s/cy_i2s.h ****                                     CY_I2S_INTR_RX_WD)
 415:Generated_Source\PSoC6\pdl\drivers\peripheral\i2s/cy_i2s.h **** 
 416:Generated_Source\PSoC6\pdl\drivers\peripheral\i2s/cy_i2s.h **** /* Non-zero default values */
 417:Generated_Source\PSoC6\pdl\drivers\peripheral\i2s/cy_i2s.h **** #define CY_I2S_TX_CTL_CH_NR_DEFAULT    (0x1U)
 418:Generated_Source\PSoC6\pdl\drivers\peripheral\i2s/cy_i2s.h **** #define CY_I2S_TX_CTL_I2S_MODE_DEFAULT (0x2U)
 419:Generated_Source\PSoC6\pdl\drivers\peripheral\i2s/cy_i2s.h **** #define CY_I2S_TX_CTL_WS_PULSE_DEFAULT (0x1U)
 420:Generated_Source\PSoC6\pdl\drivers\peripheral\i2s/cy_i2s.h **** #define CY_I2S_TX_CTL_CH_LEN_DEFAULT   (0x4U)
 421:Generated_Source\PSoC6\pdl\drivers\peripheral\i2s/cy_i2s.h **** #define CY_I2S_TX_CTL_WORD_LEN_DEFAULT (0x4U)
 422:Generated_Source\PSoC6\pdl\drivers\peripheral\i2s/cy_i2s.h **** 
 423:Generated_Source\PSoC6\pdl\drivers\peripheral\i2s/cy_i2s.h **** #define CY_I2S_TX_CTL_DEFAULT (_VAL2FLD(I2S_TX_CTL_CH_NR,    CY_I2S_TX_CTL_CH_NR_DEFAULT)    | \
 424:Generated_Source\PSoC6\pdl\drivers\peripheral\i2s/cy_i2s.h ****                                _VAL2FLD(I2S_TX_CTL_I2S_MODE, CY_I2S_TX_CTL_I2S_MODE_DEFAULT) | \
 425:Generated_Source\PSoC6\pdl\drivers\peripheral\i2s/cy_i2s.h ****                                _VAL2FLD(I2S_TX_CTL_WS_PULSE, CY_I2S_TX_CTL_WS_PULSE_DEFAULT) | \
 426:Generated_Source\PSoC6\pdl\drivers\peripheral\i2s/cy_i2s.h ****                                _VAL2FLD(I2S_TX_CTL_CH_LEN,   CY_I2S_TX_CTL_CH_LEN_DEFAULT)   | \
 427:Generated_Source\PSoC6\pdl\drivers\peripheral\i2s/cy_i2s.h ****                                _VAL2FLD(I2S_TX_CTL_WORD_LEN, CY_I2S_TX_CTL_WORD_LEN_DEFAULT))
 428:Generated_Source\PSoC6\pdl\drivers\peripheral\i2s/cy_i2s.h **** 
 429:Generated_Source\PSoC6\pdl\drivers\peripheral\i2s/cy_i2s.h **** #define CY_I2S_RX_CTL_CH_NR_DEFAULT    (0x1U)
ARM GAS  C:\Users\ikomb\AppData\Local\Temp\cchnbsea.s 			page 9


 430:Generated_Source\PSoC6\pdl\drivers\peripheral\i2s/cy_i2s.h **** #define CY_I2S_RX_CTL_I2S_MODE_DEFAULT (0x2U)
 431:Generated_Source\PSoC6\pdl\drivers\peripheral\i2s/cy_i2s.h **** #define CY_I2S_RX_CTL_WS_PULSE_DEFAULT (0x1U)
 432:Generated_Source\PSoC6\pdl\drivers\peripheral\i2s/cy_i2s.h **** #define CY_I2S_RX_CTL_CH_LEN_DEFAULT   (0x4U)
 433:Generated_Source\PSoC6\pdl\drivers\peripheral\i2s/cy_i2s.h **** #define CY_I2S_RX_CTL_WORD_LEN_DEFAULT (0x4U)
 434:Generated_Source\PSoC6\pdl\drivers\peripheral\i2s/cy_i2s.h **** 
 435:Generated_Source\PSoC6\pdl\drivers\peripheral\i2s/cy_i2s.h **** #define CY_I2S_RX_CTL_DEFAULT (_VAL2FLD(I2S_RX_CTL_CH_NR,    CY_I2S_RX_CTL_CH_NR_DEFAULT)    | \
 436:Generated_Source\PSoC6\pdl\drivers\peripheral\i2s/cy_i2s.h ****                                _VAL2FLD(I2S_RX_CTL_I2S_MODE, CY_I2S_RX_CTL_I2S_MODE_DEFAULT) | \
 437:Generated_Source\PSoC6\pdl\drivers\peripheral\i2s/cy_i2s.h ****                                _VAL2FLD(I2S_RX_CTL_WS_PULSE, CY_I2S_RX_CTL_WS_PULSE_DEFAULT) | \
 438:Generated_Source\PSoC6\pdl\drivers\peripheral\i2s/cy_i2s.h ****                                _VAL2FLD(I2S_RX_CTL_CH_LEN,   CY_I2S_RX_CTL_CH_LEN_DEFAULT)   | \
 439:Generated_Source\PSoC6\pdl\drivers\peripheral\i2s/cy_i2s.h ****                                _VAL2FLD(I2S_RX_CTL_WORD_LEN, CY_I2S_RX_CTL_WORD_LEN_DEFAULT))
 440:Generated_Source\PSoC6\pdl\drivers\peripheral\i2s/cy_i2s.h **** 
 441:Generated_Source\PSoC6\pdl\drivers\peripheral\i2s/cy_i2s.h **** /* Macros for conditions used by CY_ASSERT calls */
 442:Generated_Source\PSoC6\pdl\drivers\peripheral\i2s/cy_i2s.h **** #define CY_I2S_IS_ALIGNMENT_VALID(alignment) ((CY_I2S_LEFT_JUSTIFIED == (alignment)) || \
 443:Generated_Source\PSoC6\pdl\drivers\peripheral\i2s/cy_i2s.h ****                                               (CY_I2S_I2S_MODE       == (alignment)) || \
 444:Generated_Source\PSoC6\pdl\drivers\peripheral\i2s/cy_i2s.h ****                                               (CY_I2S_TDM_MODE_A     == (alignment)) || \
 445:Generated_Source\PSoC6\pdl\drivers\peripheral\i2s/cy_i2s.h ****                                               (CY_I2S_TDM_MODE_B     == (alignment)))
 446:Generated_Source\PSoC6\pdl\drivers\peripheral\i2s/cy_i2s.h **** 
 447:Generated_Source\PSoC6\pdl\drivers\peripheral\i2s/cy_i2s.h **** #define CY_I2S_IS_LEN_VALID(length)          ((CY_I2S_LEN8  == (length)) || \
 448:Generated_Source\PSoC6\pdl\drivers\peripheral\i2s/cy_i2s.h ****                                               (CY_I2S_LEN16 == (length)) || \
 449:Generated_Source\PSoC6\pdl\drivers\peripheral\i2s/cy_i2s.h ****                                               (CY_I2S_LEN18 == (length)) || \
 450:Generated_Source\PSoC6\pdl\drivers\peripheral\i2s/cy_i2s.h ****                                               (CY_I2S_LEN20 == (length)) || \
 451:Generated_Source\PSoC6\pdl\drivers\peripheral\i2s/cy_i2s.h ****                                               (CY_I2S_LEN24 == (length)) || \
 452:Generated_Source\PSoC6\pdl\drivers\peripheral\i2s/cy_i2s.h ****                                               (CY_I2S_LEN32 == (length)))
 453:Generated_Source\PSoC6\pdl\drivers\peripheral\i2s/cy_i2s.h **** 
 454:Generated_Source\PSoC6\pdl\drivers\peripheral\i2s/cy_i2s.h **** #define CY_I2S_IS_OVHDATA_VALID(overhead)    ((CY_I2S_OVHDATA_ZERO == (overhead)) || \
 455:Generated_Source\PSoC6\pdl\drivers\peripheral\i2s/cy_i2s.h ****                                               (CY_I2S_OVHDATA_ONE  == (overhead)))
 456:Generated_Source\PSoC6\pdl\drivers\peripheral\i2s/cy_i2s.h **** 
 457:Generated_Source\PSoC6\pdl\drivers\peripheral\i2s/cy_i2s.h **** #define CY_I2S_IS_WSPULSE_VALID(wsPulse)     ((CY_I2S_WS_ONE_SCK_CYCLE      == (wsPulse)) || \
 458:Generated_Source\PSoC6\pdl\drivers\peripheral\i2s/cy_i2s.h ****                                               (CY_I2S_WS_ONE_CHANNEL_LENGTH == (wsPulse)))
 459:Generated_Source\PSoC6\pdl\drivers\peripheral\i2s/cy_i2s.h **** 
 460:Generated_Source\PSoC6\pdl\drivers\peripheral\i2s/cy_i2s.h **** #define CY_I2S_IS_CLK_DIV_VALID(clkDiv)      ((clkDiv) <= 63U)
 461:Generated_Source\PSoC6\pdl\drivers\peripheral\i2s/cy_i2s.h **** #define CY_I2S_IS_CHANNELS_VALID(channels)   ((channels) <= 7UL)
 462:Generated_Source\PSoC6\pdl\drivers\peripheral\i2s/cy_i2s.h **** #define CY_I2S_IS_INTR_MASK_VALID(interrupt) (0UL == ((interrupt) & ((uint32_t) ~CY_I2S_INTR_MASK))
 463:Generated_Source\PSoC6\pdl\drivers\peripheral\i2s/cy_i2s.h **** 
 464:Generated_Source\PSoC6\pdl\drivers\peripheral\i2s/cy_i2s.h **** #define CY_I2S_IS_CHAN_WORD_VALID(channel, word)        ((CY_I2S_IS_LEN_VALID(channel)) && \
 465:Generated_Source\PSoC6\pdl\drivers\peripheral\i2s/cy_i2s.h ****                                                          (CY_I2S_IS_LEN_VALID(word))    && \
 466:Generated_Source\PSoC6\pdl\drivers\peripheral\i2s/cy_i2s.h ****                                                          ((channel) >= (word)))
 467:Generated_Source\PSoC6\pdl\drivers\peripheral\i2s/cy_i2s.h **** #define CY_I2S_IS_TRIG_LEVEL_VALID(trigLevel, channels) ((trigLevel) <= (255U - (channels)))
 468:Generated_Source\PSoC6\pdl\drivers\peripheral\i2s/cy_i2s.h **** 
 469:Generated_Source\PSoC6\pdl\drivers\peripheral\i2s/cy_i2s.h **** /** \endcond */
 470:Generated_Source\PSoC6\pdl\drivers\peripheral\i2s/cy_i2s.h **** 
 471:Generated_Source\PSoC6\pdl\drivers\peripheral\i2s/cy_i2s.h **** 
 472:Generated_Source\PSoC6\pdl\drivers\peripheral\i2s/cy_i2s.h **** /**
 473:Generated_Source\PSoC6\pdl\drivers\peripheral\i2s/cy_i2s.h **** * \addtogroup group_i2s_functions
 474:Generated_Source\PSoC6\pdl\drivers\peripheral\i2s/cy_i2s.h **** * \{
 475:Generated_Source\PSoC6\pdl\drivers\peripheral\i2s/cy_i2s.h **** */
 476:Generated_Source\PSoC6\pdl\drivers\peripheral\i2s/cy_i2s.h **** 
 477:Generated_Source\PSoC6\pdl\drivers\peripheral\i2s/cy_i2s.h ****   cy_en_i2s_status_t     Cy_I2S_Init(I2S_Type * base, cy_stc_i2s_config_t const * config);
 478:Generated_Source\PSoC6\pdl\drivers\peripheral\i2s/cy_i2s.h ****                 void     Cy_I2S_DeInit(I2S_Type * base);
 479:Generated_Source\PSoC6\pdl\drivers\peripheral\i2s/cy_i2s.h ****                 
 480:Generated_Source\PSoC6\pdl\drivers\peripheral\i2s/cy_i2s.h **** /** \addtogroup group_i2s_functions_syspm_callback
 481:Generated_Source\PSoC6\pdl\drivers\peripheral\i2s/cy_i2s.h **** * The driver supports SysPm callback for Deep Sleep transition.
 482:Generated_Source\PSoC6\pdl\drivers\peripheral\i2s/cy_i2s.h **** * \{
 483:Generated_Source\PSoC6\pdl\drivers\peripheral\i2s/cy_i2s.h **** */
 484:Generated_Source\PSoC6\pdl\drivers\peripheral\i2s/cy_i2s.h **** cy_en_syspm_status_t     Cy_I2S_DeepSleepCallback(cy_stc_syspm_callback_params_t * callbackParams);
 485:Generated_Source\PSoC6\pdl\drivers\peripheral\i2s/cy_i2s.h **** /** \} */
 486:Generated_Source\PSoC6\pdl\drivers\peripheral\i2s/cy_i2s.h **** 
ARM GAS  C:\Users\ikomb\AppData\Local\Temp\cchnbsea.s 			page 10


 487:Generated_Source\PSoC6\pdl\drivers\peripheral\i2s/cy_i2s.h **** __STATIC_INLINE void     Cy_I2S_EnableTx(I2S_Type * base);
 488:Generated_Source\PSoC6\pdl\drivers\peripheral\i2s/cy_i2s.h **** __STATIC_INLINE void     Cy_I2S_PauseTx(I2S_Type * base);
 489:Generated_Source\PSoC6\pdl\drivers\peripheral\i2s/cy_i2s.h **** __STATIC_INLINE void     Cy_I2S_ResumeTx(I2S_Type * base);
 490:Generated_Source\PSoC6\pdl\drivers\peripheral\i2s/cy_i2s.h **** __STATIC_INLINE void     Cy_I2S_DisableTx(I2S_Type * base);
 491:Generated_Source\PSoC6\pdl\drivers\peripheral\i2s/cy_i2s.h **** __STATIC_INLINE void     Cy_I2S_EnableRx(I2S_Type * base);
 492:Generated_Source\PSoC6\pdl\drivers\peripheral\i2s/cy_i2s.h **** __STATIC_INLINE void     Cy_I2S_DisableRx(I2S_Type * base);
 493:Generated_Source\PSoC6\pdl\drivers\peripheral\i2s/cy_i2s.h **** __STATIC_INLINE uint32_t Cy_I2S_GetCurrentState(I2S_Type const * base);
 494:Generated_Source\PSoC6\pdl\drivers\peripheral\i2s/cy_i2s.h **** 
 495:Generated_Source\PSoC6\pdl\drivers\peripheral\i2s/cy_i2s.h **** __STATIC_INLINE void     Cy_I2S_ClearTxFifo(I2S_Type * base);
 496:Generated_Source\PSoC6\pdl\drivers\peripheral\i2s/cy_i2s.h **** __STATIC_INLINE uint32_t Cy_I2S_GetNumInTxFifo(I2S_Type const * base);
 497:Generated_Source\PSoC6\pdl\drivers\peripheral\i2s/cy_i2s.h **** __STATIC_INLINE void     Cy_I2S_WriteTxData(I2S_Type * base, uint32_t data);
 498:Generated_Source\PSoC6\pdl\drivers\peripheral\i2s/cy_i2s.h **** __STATIC_INLINE uint8_t  Cy_I2S_GetTxReadPointer(I2S_Type const * base);
 499:Generated_Source\PSoC6\pdl\drivers\peripheral\i2s/cy_i2s.h **** __STATIC_INLINE uint8_t  Cy_I2S_GetTxWritePointer(I2S_Type const * base);
 500:Generated_Source\PSoC6\pdl\drivers\peripheral\i2s/cy_i2s.h **** __STATIC_INLINE void     Cy_I2S_FreezeTxFifo(I2S_Type * base);
 501:Generated_Source\PSoC6\pdl\drivers\peripheral\i2s/cy_i2s.h **** __STATIC_INLINE void     Cy_I2S_UnfreezeTxFifo(I2S_Type * base);
 502:Generated_Source\PSoC6\pdl\drivers\peripheral\i2s/cy_i2s.h **** 
 503:Generated_Source\PSoC6\pdl\drivers\peripheral\i2s/cy_i2s.h **** __STATIC_INLINE void     Cy_I2S_ClearRxFifo(I2S_Type * base);
 504:Generated_Source\PSoC6\pdl\drivers\peripheral\i2s/cy_i2s.h **** __STATIC_INLINE uint32_t Cy_I2S_GetNumInRxFifo(I2S_Type const * base);
 505:Generated_Source\PSoC6\pdl\drivers\peripheral\i2s/cy_i2s.h **** __STATIC_INLINE uint32_t Cy_I2S_ReadRxData(I2S_Type const * base);
 506:Generated_Source\PSoC6\pdl\drivers\peripheral\i2s/cy_i2s.h **** __STATIC_INLINE uint32_t Cy_I2S_ReadRxDataSilent(I2S_Type const * base);
 507:Generated_Source\PSoC6\pdl\drivers\peripheral\i2s/cy_i2s.h **** __STATIC_INLINE uint8_t  Cy_I2S_GetRxReadPointer(I2S_Type const * base);
 508:Generated_Source\PSoC6\pdl\drivers\peripheral\i2s/cy_i2s.h **** __STATIC_INLINE uint8_t  Cy_I2S_GetRxWritePointer(I2S_Type const * base);
 509:Generated_Source\PSoC6\pdl\drivers\peripheral\i2s/cy_i2s.h **** __STATIC_INLINE void     Cy_I2S_FreezeRxFifo(I2S_Type * base);
 510:Generated_Source\PSoC6\pdl\drivers\peripheral\i2s/cy_i2s.h **** __STATIC_INLINE void     Cy_I2S_UnfreezeRxFifo(I2S_Type * base);
 511:Generated_Source\PSoC6\pdl\drivers\peripheral\i2s/cy_i2s.h **** 
 512:Generated_Source\PSoC6\pdl\drivers\peripheral\i2s/cy_i2s.h **** __STATIC_INLINE uint32_t Cy_I2S_GetInterruptStatus(I2S_Type const * base);
 513:Generated_Source\PSoC6\pdl\drivers\peripheral\i2s/cy_i2s.h **** __STATIC_INLINE void     Cy_I2S_ClearInterrupt(I2S_Type * base, uint32_t interrupt);
 514:Generated_Source\PSoC6\pdl\drivers\peripheral\i2s/cy_i2s.h **** __STATIC_INLINE void     Cy_I2S_SetInterrupt(I2S_Type * base, uint32_t interrupt);
 515:Generated_Source\PSoC6\pdl\drivers\peripheral\i2s/cy_i2s.h **** __STATIC_INLINE uint32_t Cy_I2S_GetInterruptMask(I2S_Type const * base);
 516:Generated_Source\PSoC6\pdl\drivers\peripheral\i2s/cy_i2s.h **** __STATIC_INLINE void     Cy_I2S_SetInterruptMask(I2S_Type * base, uint32_t interrupt);
 517:Generated_Source\PSoC6\pdl\drivers\peripheral\i2s/cy_i2s.h **** __STATIC_INLINE uint32_t Cy_I2S_GetInterruptStatusMasked(I2S_Type const * base);
 518:Generated_Source\PSoC6\pdl\drivers\peripheral\i2s/cy_i2s.h **** 
 519:Generated_Source\PSoC6\pdl\drivers\peripheral\i2s/cy_i2s.h **** /*******************************************************************************
 520:Generated_Source\PSoC6\pdl\drivers\peripheral\i2s/cy_i2s.h **** * Function Name: Cy_I2S_EnableTx
 521:Generated_Source\PSoC6\pdl\drivers\peripheral\i2s/cy_i2s.h **** ****************************************************************************//**
 522:Generated_Source\PSoC6\pdl\drivers\peripheral\i2s/cy_i2s.h **** *
 523:Generated_Source\PSoC6\pdl\drivers\peripheral\i2s/cy_i2s.h **** * Starts an I2S transmission. Interrupts enabling (by the 
 524:Generated_Source\PSoC6\pdl\drivers\peripheral\i2s/cy_i2s.h **** * \ref Cy_I2S_SetInterruptMask) is required after this function call, in case
 525:Generated_Source\PSoC6\pdl\drivers\peripheral\i2s/cy_i2s.h **** * if any I2S interrupts are used in the application.
 526:Generated_Source\PSoC6\pdl\drivers\peripheral\i2s/cy_i2s.h **** *
 527:Generated_Source\PSoC6\pdl\drivers\peripheral\i2s/cy_i2s.h **** * \pre Cy_I2S_Init() must be called before.
 528:Generated_Source\PSoC6\pdl\drivers\peripheral\i2s/cy_i2s.h **** *
 529:Generated_Source\PSoC6\pdl\drivers\peripheral\i2s/cy_i2s.h **** * \param base The pointer to the I2S instance address.
 530:Generated_Source\PSoC6\pdl\drivers\peripheral\i2s/cy_i2s.h **** *
 531:Generated_Source\PSoC6\pdl\drivers\peripheral\i2s/cy_i2s.h **** * \funcusage
 532:Generated_Source\PSoC6\pdl\drivers\peripheral\i2s/cy_i2s.h **** * \snippet i2s/i2s_v2_0_sut_00.cydsn/main_cm4.c snippet_Cy_I2S_EnableTx
 533:Generated_Source\PSoC6\pdl\drivers\peripheral\i2s/cy_i2s.h **** *
 534:Generated_Source\PSoC6\pdl\drivers\peripheral\i2s/cy_i2s.h **** *******************************************************************************/
 535:Generated_Source\PSoC6\pdl\drivers\peripheral\i2s/cy_i2s.h **** __STATIC_INLINE void Cy_I2S_EnableTx(I2S_Type * base)
 536:Generated_Source\PSoC6\pdl\drivers\peripheral\i2s/cy_i2s.h **** {
  28              		.loc 1 536 0
  29              		.cfi_startproc
  30              		@ args = 0, pretend = 0, frame = 8
  31              		@ frame_needed = 1, uses_anonymous_args = 0
  32              		@ link register save eliminated.
  33 0000 80B4     		push	{r7}
  34              		.cfi_def_cfa_offset 4
ARM GAS  C:\Users\ikomb\AppData\Local\Temp\cchnbsea.s 			page 11


  35              		.cfi_offset 7, -4
  36 0002 83B0     		sub	sp, sp, #12
  37              		.cfi_def_cfa_offset 16
  38 0004 00AF     		add	r7, sp, #0
  39              		.cfi_def_cfa_register 7
  40 0006 7860     		str	r0, [r7, #4]
 537:Generated_Source\PSoC6\pdl\drivers\peripheral\i2s/cy_i2s.h ****     base->CMD |= I2S_CMD_TX_START_Msk;
  41              		.loc 1 537 0
  42 0008 7B68     		ldr	r3, [r7, #4]
  43 000a 1B6A     		ldr	r3, [r3, #32]
  44 000c 43F00102 		orr	r2, r3, #1
  45 0010 7B68     		ldr	r3, [r7, #4]
  46 0012 1A62     		str	r2, [r3, #32]
 538:Generated_Source\PSoC6\pdl\drivers\peripheral\i2s/cy_i2s.h **** }
  47              		.loc 1 538 0
  48 0014 00BF     		nop
  49 0016 0C37     		adds	r7, r7, #12
  50              		.cfi_def_cfa_offset 4
  51 0018 BD46     		mov	sp, r7
  52              		.cfi_def_cfa_register 13
  53              		@ sp needed
  54 001a 5DF8047B 		ldr	r7, [sp], #4
  55              		.cfi_restore 7
  56              		.cfi_def_cfa_offset 0
  57 001e 7047     		bx	lr
  58              		.cfi_endproc
  59              	.LFE158:
  60              		.size	Cy_I2S_EnableTx, .-Cy_I2S_EnableTx
  61              		.section	.text.Cy_I2S_PauseTx,"ax",%progbits
  62              		.align	2
  63              		.thumb
  64              		.thumb_func
  65              		.type	Cy_I2S_PauseTx, %function
  66              	Cy_I2S_PauseTx:
  67              	.LFB159:
 539:Generated_Source\PSoC6\pdl\drivers\peripheral\i2s/cy_i2s.h **** 
 540:Generated_Source\PSoC6\pdl\drivers\peripheral\i2s/cy_i2s.h **** 
 541:Generated_Source\PSoC6\pdl\drivers\peripheral\i2s/cy_i2s.h **** /*******************************************************************************
 542:Generated_Source\PSoC6\pdl\drivers\peripheral\i2s/cy_i2s.h **** * Function Name: Cy_I2S_PauseTx
 543:Generated_Source\PSoC6\pdl\drivers\peripheral\i2s/cy_i2s.h **** ****************************************************************************//**
 544:Generated_Source\PSoC6\pdl\drivers\peripheral\i2s/cy_i2s.h **** *
 545:Generated_Source\PSoC6\pdl\drivers\peripheral\i2s/cy_i2s.h **** * Pauses an I2S transmission.
 546:Generated_Source\PSoC6\pdl\drivers\peripheral\i2s/cy_i2s.h **** *
 547:Generated_Source\PSoC6\pdl\drivers\peripheral\i2s/cy_i2s.h **** * \param base The pointer to the I2S instance address.
 548:Generated_Source\PSoC6\pdl\drivers\peripheral\i2s/cy_i2s.h **** *
 549:Generated_Source\PSoC6\pdl\drivers\peripheral\i2s/cy_i2s.h **** * \funcusage
 550:Generated_Source\PSoC6\pdl\drivers\peripheral\i2s/cy_i2s.h **** * \snippet i2s/i2s_v2_0_sut_00.cydsn/main_cm4.c snippet_Cy_I2S_PauseTx
 551:Generated_Source\PSoC6\pdl\drivers\peripheral\i2s/cy_i2s.h **** *
 552:Generated_Source\PSoC6\pdl\drivers\peripheral\i2s/cy_i2s.h **** *******************************************************************************/
 553:Generated_Source\PSoC6\pdl\drivers\peripheral\i2s/cy_i2s.h **** __STATIC_INLINE void Cy_I2S_PauseTx(I2S_Type * base)
 554:Generated_Source\PSoC6\pdl\drivers\peripheral\i2s/cy_i2s.h **** {
  68              		.loc 1 554 0
  69              		.cfi_startproc
  70              		@ args = 0, pretend = 0, frame = 8
  71              		@ frame_needed = 1, uses_anonymous_args = 0
  72              		@ link register save eliminated.
  73 0000 80B4     		push	{r7}
ARM GAS  C:\Users\ikomb\AppData\Local\Temp\cchnbsea.s 			page 12


  74              		.cfi_def_cfa_offset 4
  75              		.cfi_offset 7, -4
  76 0002 83B0     		sub	sp, sp, #12
  77              		.cfi_def_cfa_offset 16
  78 0004 00AF     		add	r7, sp, #0
  79              		.cfi_def_cfa_register 7
  80 0006 7860     		str	r0, [r7, #4]
 555:Generated_Source\PSoC6\pdl\drivers\peripheral\i2s/cy_i2s.h ****     base->CMD |= I2S_CMD_TX_PAUSE_Msk;
  81              		.loc 1 555 0
  82 0008 7B68     		ldr	r3, [r7, #4]
  83 000a 1B6A     		ldr	r3, [r3, #32]
  84 000c 43F48072 		orr	r2, r3, #256
  85 0010 7B68     		ldr	r3, [r7, #4]
  86 0012 1A62     		str	r2, [r3, #32]
 556:Generated_Source\PSoC6\pdl\drivers\peripheral\i2s/cy_i2s.h **** }
  87              		.loc 1 556 0
  88 0014 00BF     		nop
  89 0016 0C37     		adds	r7, r7, #12
  90              		.cfi_def_cfa_offset 4
  91 0018 BD46     		mov	sp, r7
  92              		.cfi_def_cfa_register 13
  93              		@ sp needed
  94 001a 5DF8047B 		ldr	r7, [sp], #4
  95              		.cfi_restore 7
  96              		.cfi_def_cfa_offset 0
  97 001e 7047     		bx	lr
  98              		.cfi_endproc
  99              	.LFE159:
 100              		.size	Cy_I2S_PauseTx, .-Cy_I2S_PauseTx
 101              		.section	.text.Cy_I2S_DisableTx,"ax",%progbits
 102              		.align	2
 103              		.thumb
 104              		.thumb_func
 105              		.type	Cy_I2S_DisableTx, %function
 106              	Cy_I2S_DisableTx:
 107              	.LFB161:
 557:Generated_Source\PSoC6\pdl\drivers\peripheral\i2s/cy_i2s.h **** 
 558:Generated_Source\PSoC6\pdl\drivers\peripheral\i2s/cy_i2s.h **** 
 559:Generated_Source\PSoC6\pdl\drivers\peripheral\i2s/cy_i2s.h **** /*******************************************************************************
 560:Generated_Source\PSoC6\pdl\drivers\peripheral\i2s/cy_i2s.h **** * Function Name: Cy_I2S_ResumeTx
 561:Generated_Source\PSoC6\pdl\drivers\peripheral\i2s/cy_i2s.h **** ****************************************************************************//**
 562:Generated_Source\PSoC6\pdl\drivers\peripheral\i2s/cy_i2s.h **** *
 563:Generated_Source\PSoC6\pdl\drivers\peripheral\i2s/cy_i2s.h **** * Resumes an I2S transmission.
 564:Generated_Source\PSoC6\pdl\drivers\peripheral\i2s/cy_i2s.h **** *
 565:Generated_Source\PSoC6\pdl\drivers\peripheral\i2s/cy_i2s.h **** * \param base The pointer to the I2S instance address.
 566:Generated_Source\PSoC6\pdl\drivers\peripheral\i2s/cy_i2s.h **** *
 567:Generated_Source\PSoC6\pdl\drivers\peripheral\i2s/cy_i2s.h **** * \funcusage
 568:Generated_Source\PSoC6\pdl\drivers\peripheral\i2s/cy_i2s.h **** * \snippet i2s/i2s_v2_0_sut_00.cydsn/main_cm4.c snippet_Cy_I2S_ResumeTx
 569:Generated_Source\PSoC6\pdl\drivers\peripheral\i2s/cy_i2s.h **** *
 570:Generated_Source\PSoC6\pdl\drivers\peripheral\i2s/cy_i2s.h **** *******************************************************************************/
 571:Generated_Source\PSoC6\pdl\drivers\peripheral\i2s/cy_i2s.h **** __STATIC_INLINE void Cy_I2S_ResumeTx(I2S_Type * base)
 572:Generated_Source\PSoC6\pdl\drivers\peripheral\i2s/cy_i2s.h **** {
 573:Generated_Source\PSoC6\pdl\drivers\peripheral\i2s/cy_i2s.h ****     base->CMD &= (uint32_t) ~I2S_CMD_TX_PAUSE_Msk;
 574:Generated_Source\PSoC6\pdl\drivers\peripheral\i2s/cy_i2s.h **** }
 575:Generated_Source\PSoC6\pdl\drivers\peripheral\i2s/cy_i2s.h **** 
 576:Generated_Source\PSoC6\pdl\drivers\peripheral\i2s/cy_i2s.h **** 
 577:Generated_Source\PSoC6\pdl\drivers\peripheral\i2s/cy_i2s.h **** /*******************************************************************************
ARM GAS  C:\Users\ikomb\AppData\Local\Temp\cchnbsea.s 			page 13


 578:Generated_Source\PSoC6\pdl\drivers\peripheral\i2s/cy_i2s.h **** * Function Name: Cy_I2S_DisableTx
 579:Generated_Source\PSoC6\pdl\drivers\peripheral\i2s/cy_i2s.h **** ****************************************************************************//**
 580:Generated_Source\PSoC6\pdl\drivers\peripheral\i2s/cy_i2s.h **** *
 581:Generated_Source\PSoC6\pdl\drivers\peripheral\i2s/cy_i2s.h **** * Stops an I2S transmission. 
 582:Generated_Source\PSoC6\pdl\drivers\peripheral\i2s/cy_i2s.h **** *
 583:Generated_Source\PSoC6\pdl\drivers\peripheral\i2s/cy_i2s.h **** * \pre TX interrupts disabling (by the \ref Cy_I2S_SetInterruptMask) is required
 584:Generated_Source\PSoC6\pdl\drivers\peripheral\i2s/cy_i2s.h **** * prior to this function call, in case if any TX I2S interrupts are used.
 585:Generated_Source\PSoC6\pdl\drivers\peripheral\i2s/cy_i2s.h **** *
 586:Generated_Source\PSoC6\pdl\drivers\peripheral\i2s/cy_i2s.h **** * \param base The pointer to the I2S instance address.
 587:Generated_Source\PSoC6\pdl\drivers\peripheral\i2s/cy_i2s.h **** *
 588:Generated_Source\PSoC6\pdl\drivers\peripheral\i2s/cy_i2s.h **** * \funcusage
 589:Generated_Source\PSoC6\pdl\drivers\peripheral\i2s/cy_i2s.h **** * \snippet i2s/i2s_v2_0_sut_00.cydsn/main_cm4.c snippet_Cy_I2S_DisableTx
 590:Generated_Source\PSoC6\pdl\drivers\peripheral\i2s/cy_i2s.h **** *
 591:Generated_Source\PSoC6\pdl\drivers\peripheral\i2s/cy_i2s.h **** *******************************************************************************/
 592:Generated_Source\PSoC6\pdl\drivers\peripheral\i2s/cy_i2s.h **** __STATIC_INLINE void Cy_I2S_DisableTx(I2S_Type * base)
 593:Generated_Source\PSoC6\pdl\drivers\peripheral\i2s/cy_i2s.h **** {
 108              		.loc 1 593 0
 109              		.cfi_startproc
 110              		@ args = 0, pretend = 0, frame = 8
 111              		@ frame_needed = 1, uses_anonymous_args = 0
 112              		@ link register save eliminated.
 113 0000 80B4     		push	{r7}
 114              		.cfi_def_cfa_offset 4
 115              		.cfi_offset 7, -4
 116 0002 83B0     		sub	sp, sp, #12
 117              		.cfi_def_cfa_offset 16
 118 0004 00AF     		add	r7, sp, #0
 119              		.cfi_def_cfa_register 7
 120 0006 7860     		str	r0, [r7, #4]
 594:Generated_Source\PSoC6\pdl\drivers\peripheral\i2s/cy_i2s.h ****     base->CMD &= (uint32_t) ~I2S_CMD_TX_START_Msk;
 121              		.loc 1 594 0
 122 0008 7B68     		ldr	r3, [r7, #4]
 123 000a 1B6A     		ldr	r3, [r3, #32]
 124 000c 23F00102 		bic	r2, r3, #1
 125 0010 7B68     		ldr	r3, [r7, #4]
 126 0012 1A62     		str	r2, [r3, #32]
 595:Generated_Source\PSoC6\pdl\drivers\peripheral\i2s/cy_i2s.h **** }
 127              		.loc 1 595 0
 128 0014 00BF     		nop
 129 0016 0C37     		adds	r7, r7, #12
 130              		.cfi_def_cfa_offset 4
 131 0018 BD46     		mov	sp, r7
 132              		.cfi_def_cfa_register 13
 133              		@ sp needed
 134 001a 5DF8047B 		ldr	r7, [sp], #4
 135              		.cfi_restore 7
 136              		.cfi_def_cfa_offset 0
 137 001e 7047     		bx	lr
 138              		.cfi_endproc
 139              	.LFE161:
 140              		.size	Cy_I2S_DisableTx, .-Cy_I2S_DisableTx
 141              		.section	.text.Cy_I2S_EnableRx,"ax",%progbits
 142              		.align	2
 143              		.thumb
 144              		.thumb_func
 145              		.type	Cy_I2S_EnableRx, %function
 146              	Cy_I2S_EnableRx:
ARM GAS  C:\Users\ikomb\AppData\Local\Temp\cchnbsea.s 			page 14


 147              	.LFB162:
 596:Generated_Source\PSoC6\pdl\drivers\peripheral\i2s/cy_i2s.h **** 
 597:Generated_Source\PSoC6\pdl\drivers\peripheral\i2s/cy_i2s.h **** 
 598:Generated_Source\PSoC6\pdl\drivers\peripheral\i2s/cy_i2s.h **** /*******************************************************************************
 599:Generated_Source\PSoC6\pdl\drivers\peripheral\i2s/cy_i2s.h **** * Function Name: Cy_I2S_EnableRx
 600:Generated_Source\PSoC6\pdl\drivers\peripheral\i2s/cy_i2s.h **** ****************************************************************************//**
 601:Generated_Source\PSoC6\pdl\drivers\peripheral\i2s/cy_i2s.h **** *
 602:Generated_Source\PSoC6\pdl\drivers\peripheral\i2s/cy_i2s.h **** * Starts an I2S reception. Interrupts enabling (by the 
 603:Generated_Source\PSoC6\pdl\drivers\peripheral\i2s/cy_i2s.h **** * \ref Cy_I2S_SetInterruptMask) is required after this function call, in case
 604:Generated_Source\PSoC6\pdl\drivers\peripheral\i2s/cy_i2s.h **** * if any I2S interrupts are used in the application.
 605:Generated_Source\PSoC6\pdl\drivers\peripheral\i2s/cy_i2s.h **** *
 606:Generated_Source\PSoC6\pdl\drivers\peripheral\i2s/cy_i2s.h **** * \pre \ref Cy_I2S_Init() must be called before.
 607:Generated_Source\PSoC6\pdl\drivers\peripheral\i2s/cy_i2s.h **** *
 608:Generated_Source\PSoC6\pdl\drivers\peripheral\i2s/cy_i2s.h **** * \param base The pointer to the I2S instance address.
 609:Generated_Source\PSoC6\pdl\drivers\peripheral\i2s/cy_i2s.h **** *
 610:Generated_Source\PSoC6\pdl\drivers\peripheral\i2s/cy_i2s.h **** * \funcusage
 611:Generated_Source\PSoC6\pdl\drivers\peripheral\i2s/cy_i2s.h **** * \snippet i2s/i2s_v2_0_sut_00.cydsn/main_cm4.c snippet_Cy_I2S_EnableRx
 612:Generated_Source\PSoC6\pdl\drivers\peripheral\i2s/cy_i2s.h **** *
 613:Generated_Source\PSoC6\pdl\drivers\peripheral\i2s/cy_i2s.h **** *******************************************************************************/
 614:Generated_Source\PSoC6\pdl\drivers\peripheral\i2s/cy_i2s.h **** __STATIC_INLINE void Cy_I2S_EnableRx(I2S_Type * base)
 615:Generated_Source\PSoC6\pdl\drivers\peripheral\i2s/cy_i2s.h **** {
 148              		.loc 1 615 0
 149              		.cfi_startproc
 150              		@ args = 0, pretend = 0, frame = 8
 151              		@ frame_needed = 1, uses_anonymous_args = 0
 152              		@ link register save eliminated.
 153 0000 80B4     		push	{r7}
 154              		.cfi_def_cfa_offset 4
 155              		.cfi_offset 7, -4
 156 0002 83B0     		sub	sp, sp, #12
 157              		.cfi_def_cfa_offset 16
 158 0004 00AF     		add	r7, sp, #0
 159              		.cfi_def_cfa_register 7
 160 0006 7860     		str	r0, [r7, #4]
 616:Generated_Source\PSoC6\pdl\drivers\peripheral\i2s/cy_i2s.h ****     base->CMD |= I2S_CMD_RX_START_Msk;
 161              		.loc 1 616 0
 162 0008 7B68     		ldr	r3, [r7, #4]
 163 000a 1B6A     		ldr	r3, [r3, #32]
 164 000c 43F48032 		orr	r2, r3, #65536
 165 0010 7B68     		ldr	r3, [r7, #4]
 166 0012 1A62     		str	r2, [r3, #32]
 617:Generated_Source\PSoC6\pdl\drivers\peripheral\i2s/cy_i2s.h **** }
 167              		.loc 1 617 0
 168 0014 00BF     		nop
 169 0016 0C37     		adds	r7, r7, #12
 170              		.cfi_def_cfa_offset 4
 171 0018 BD46     		mov	sp, r7
 172              		.cfi_def_cfa_register 13
 173              		@ sp needed
 174 001a 5DF8047B 		ldr	r7, [sp], #4
 175              		.cfi_restore 7
 176              		.cfi_def_cfa_offset 0
 177 001e 7047     		bx	lr
 178              		.cfi_endproc
 179              	.LFE162:
 180              		.size	Cy_I2S_EnableRx, .-Cy_I2S_EnableRx
 181              		.section	.text.Cy_I2S_DisableRx,"ax",%progbits
ARM GAS  C:\Users\ikomb\AppData\Local\Temp\cchnbsea.s 			page 15


 182              		.align	2
 183              		.thumb
 184              		.thumb_func
 185              		.type	Cy_I2S_DisableRx, %function
 186              	Cy_I2S_DisableRx:
 187              	.LFB163:
 618:Generated_Source\PSoC6\pdl\drivers\peripheral\i2s/cy_i2s.h **** 
 619:Generated_Source\PSoC6\pdl\drivers\peripheral\i2s/cy_i2s.h **** 
 620:Generated_Source\PSoC6\pdl\drivers\peripheral\i2s/cy_i2s.h **** /*******************************************************************************
 621:Generated_Source\PSoC6\pdl\drivers\peripheral\i2s/cy_i2s.h **** * Function Name: Cy_I2S_DisableRx
 622:Generated_Source\PSoC6\pdl\drivers\peripheral\i2s/cy_i2s.h **** ****************************************************************************//**
 623:Generated_Source\PSoC6\pdl\drivers\peripheral\i2s/cy_i2s.h **** *
 624:Generated_Source\PSoC6\pdl\drivers\peripheral\i2s/cy_i2s.h **** * Stops an I2S reception.
 625:Generated_Source\PSoC6\pdl\drivers\peripheral\i2s/cy_i2s.h **** *
 626:Generated_Source\PSoC6\pdl\drivers\peripheral\i2s/cy_i2s.h **** * \pre RX interrupts disabling (by the \ref Cy_I2S_SetInterruptMask) is required
 627:Generated_Source\PSoC6\pdl\drivers\peripheral\i2s/cy_i2s.h **** * prior to this function call, in case if any RX I2S interrupts are used.
 628:Generated_Source\PSoC6\pdl\drivers\peripheral\i2s/cy_i2s.h **** *
 629:Generated_Source\PSoC6\pdl\drivers\peripheral\i2s/cy_i2s.h **** * \param base The pointer to the I2S instance address.
 630:Generated_Source\PSoC6\pdl\drivers\peripheral\i2s/cy_i2s.h **** *
 631:Generated_Source\PSoC6\pdl\drivers\peripheral\i2s/cy_i2s.h **** * \funcusage
 632:Generated_Source\PSoC6\pdl\drivers\peripheral\i2s/cy_i2s.h **** * \snippet i2s/i2s_v2_0_sut_00.cydsn/main_cm4.c snippet_Cy_I2S_DisableRx
 633:Generated_Source\PSoC6\pdl\drivers\peripheral\i2s/cy_i2s.h **** *
 634:Generated_Source\PSoC6\pdl\drivers\peripheral\i2s/cy_i2s.h **** *******************************************************************************/
 635:Generated_Source\PSoC6\pdl\drivers\peripheral\i2s/cy_i2s.h **** __STATIC_INLINE void Cy_I2S_DisableRx(I2S_Type * base)
 636:Generated_Source\PSoC6\pdl\drivers\peripheral\i2s/cy_i2s.h **** {
 188              		.loc 1 636 0
 189              		.cfi_startproc
 190              		@ args = 0, pretend = 0, frame = 8
 191              		@ frame_needed = 1, uses_anonymous_args = 0
 192              		@ link register save eliminated.
 193 0000 80B4     		push	{r7}
 194              		.cfi_def_cfa_offset 4
 195              		.cfi_offset 7, -4
 196 0002 83B0     		sub	sp, sp, #12
 197              		.cfi_def_cfa_offset 16
 198 0004 00AF     		add	r7, sp, #0
 199              		.cfi_def_cfa_register 7
 200 0006 7860     		str	r0, [r7, #4]
 637:Generated_Source\PSoC6\pdl\drivers\peripheral\i2s/cy_i2s.h ****     base->CMD &= (uint32_t) ~I2S_CMD_RX_START_Msk;
 201              		.loc 1 637 0
 202 0008 7B68     		ldr	r3, [r7, #4]
 203 000a 1B6A     		ldr	r3, [r3, #32]
 204 000c 23F48032 		bic	r2, r3, #65536
 205 0010 7B68     		ldr	r3, [r7, #4]
 206 0012 1A62     		str	r2, [r3, #32]
 638:Generated_Source\PSoC6\pdl\drivers\peripheral\i2s/cy_i2s.h **** }
 207              		.loc 1 638 0
 208 0014 00BF     		nop
 209 0016 0C37     		adds	r7, r7, #12
 210              		.cfi_def_cfa_offset 4
 211 0018 BD46     		mov	sp, r7
 212              		.cfi_def_cfa_register 13
 213              		@ sp needed
 214 001a 5DF8047B 		ldr	r7, [sp], #4
 215              		.cfi_restore 7
 216              		.cfi_def_cfa_offset 0
 217 001e 7047     		bx	lr
ARM GAS  C:\Users\ikomb\AppData\Local\Temp\cchnbsea.s 			page 16


 218              		.cfi_endproc
 219              	.LFE163:
 220              		.size	Cy_I2S_DisableRx, .-Cy_I2S_DisableRx
 221              		.section	.text.Cy_I2S_GetCurrentState,"ax",%progbits
 222              		.align	2
 223              		.thumb
 224              		.thumb_func
 225              		.type	Cy_I2S_GetCurrentState, %function
 226              	Cy_I2S_GetCurrentState:
 227              	.LFB164:
 639:Generated_Source\PSoC6\pdl\drivers\peripheral\i2s/cy_i2s.h **** 
 640:Generated_Source\PSoC6\pdl\drivers\peripheral\i2s/cy_i2s.h **** 
 641:Generated_Source\PSoC6\pdl\drivers\peripheral\i2s/cy_i2s.h **** /*******************************************************************************
 642:Generated_Source\PSoC6\pdl\drivers\peripheral\i2s/cy_i2s.h **** * Function Name: Cy_I2S_GetCurrentState
 643:Generated_Source\PSoC6\pdl\drivers\peripheral\i2s/cy_i2s.h **** ****************************************************************************//**
 644:Generated_Source\PSoC6\pdl\drivers\peripheral\i2s/cy_i2s.h **** *
 645:Generated_Source\PSoC6\pdl\drivers\peripheral\i2s/cy_i2s.h **** * Returns the current I2S state (TX/RX running/paused/stopped).
 646:Generated_Source\PSoC6\pdl\drivers\peripheral\i2s/cy_i2s.h **** *
 647:Generated_Source\PSoC6\pdl\drivers\peripheral\i2s/cy_i2s.h **** * \param base The pointer to the I2S instance address.
 648:Generated_Source\PSoC6\pdl\drivers\peripheral\i2s/cy_i2s.h **** *
 649:Generated_Source\PSoC6\pdl\drivers\peripheral\i2s/cy_i2s.h **** * \return The current state \ref group_i2s_macros_current_state.
 650:Generated_Source\PSoC6\pdl\drivers\peripheral\i2s/cy_i2s.h **** *
 651:Generated_Source\PSoC6\pdl\drivers\peripheral\i2s/cy_i2s.h **** * \funcusage
 652:Generated_Source\PSoC6\pdl\drivers\peripheral\i2s/cy_i2s.h **** * \snippet i2s/i2s_v2_0_sut_00.cydsn/main_cm4.c snippet_Cy_I2S_GetCurrentState
 653:Generated_Source\PSoC6\pdl\drivers\peripheral\i2s/cy_i2s.h **** *
 654:Generated_Source\PSoC6\pdl\drivers\peripheral\i2s/cy_i2s.h **** *******************************************************************************/
 655:Generated_Source\PSoC6\pdl\drivers\peripheral\i2s/cy_i2s.h **** __STATIC_INLINE uint32_t Cy_I2S_GetCurrentState(I2S_Type const * base)
 656:Generated_Source\PSoC6\pdl\drivers\peripheral\i2s/cy_i2s.h **** {
 228              		.loc 1 656 0
 229              		.cfi_startproc
 230              		@ args = 0, pretend = 0, frame = 8
 231              		@ frame_needed = 1, uses_anonymous_args = 0
 232              		@ link register save eliminated.
 233 0000 80B4     		push	{r7}
 234              		.cfi_def_cfa_offset 4
 235              		.cfi_offset 7, -4
 236 0002 83B0     		sub	sp, sp, #12
 237              		.cfi_def_cfa_offset 16
 238 0004 00AF     		add	r7, sp, #0
 239              		.cfi_def_cfa_register 7
 240 0006 7860     		str	r0, [r7, #4]
 657:Generated_Source\PSoC6\pdl\drivers\peripheral\i2s/cy_i2s.h ****     return (base->CMD & (I2S_CMD_TX_START_Msk | I2S_CMD_TX_PAUSE_Msk | I2S_CMD_RX_START_Msk));
 241              		.loc 1 657 0
 242 0008 7B68     		ldr	r3, [r7, #4]
 243 000a 1B6A     		ldr	r3, [r3, #32]
 244 000c 03F00133 		and	r3, r3, #16843009
 245 0010 23F08073 		bic	r3, r3, #16777216
 658:Generated_Source\PSoC6\pdl\drivers\peripheral\i2s/cy_i2s.h **** }
 246              		.loc 1 658 0
 247 0014 1846     		mov	r0, r3
 248 0016 0C37     		adds	r7, r7, #12
 249              		.cfi_def_cfa_offset 4
 250 0018 BD46     		mov	sp, r7
 251              		.cfi_def_cfa_register 13
 252              		@ sp needed
 253 001a 5DF8047B 		ldr	r7, [sp], #4
 254              		.cfi_restore 7
ARM GAS  C:\Users\ikomb\AppData\Local\Temp\cchnbsea.s 			page 17


 255              		.cfi_def_cfa_offset 0
 256 001e 7047     		bx	lr
 257              		.cfi_endproc
 258              	.LFE164:
 259              		.size	Cy_I2S_GetCurrentState, .-Cy_I2S_GetCurrentState
 260              		.section	.text.Cy_I2S_ClearTxFifo,"ax",%progbits
 261              		.align	2
 262              		.thumb
 263              		.thumb_func
 264              		.type	Cy_I2S_ClearTxFifo, %function
 265              	Cy_I2S_ClearTxFifo:
 266              	.LFB165:
 659:Generated_Source\PSoC6\pdl\drivers\peripheral\i2s/cy_i2s.h **** 
 660:Generated_Source\PSoC6\pdl\drivers\peripheral\i2s/cy_i2s.h **** 
 661:Generated_Source\PSoC6\pdl\drivers\peripheral\i2s/cy_i2s.h **** /*******************************************************************************
 662:Generated_Source\PSoC6\pdl\drivers\peripheral\i2s/cy_i2s.h **** * Function Name: Cy_I2S_ClearTxFifo
 663:Generated_Source\PSoC6\pdl\drivers\peripheral\i2s/cy_i2s.h **** ****************************************************************************//**
 664:Generated_Source\PSoC6\pdl\drivers\peripheral\i2s/cy_i2s.h **** *
 665:Generated_Source\PSoC6\pdl\drivers\peripheral\i2s/cy_i2s.h **** * Clears the TX FIFO (resets the Read/Write FIFO pointers).
 666:Generated_Source\PSoC6\pdl\drivers\peripheral\i2s/cy_i2s.h **** *
 667:Generated_Source\PSoC6\pdl\drivers\peripheral\i2s/cy_i2s.h **** * \param base The pointer to the I2S instance address.
 668:Generated_Source\PSoC6\pdl\drivers\peripheral\i2s/cy_i2s.h **** *
 669:Generated_Source\PSoC6\pdl\drivers\peripheral\i2s/cy_i2s.h **** * \funcusage
 670:Generated_Source\PSoC6\pdl\drivers\peripheral\i2s/cy_i2s.h **** * \snippet i2s/i2s_v2_0_sut_00.cydsn/main_cm4.c snippet_Cy_I2S_ClearTxFifo
 671:Generated_Source\PSoC6\pdl\drivers\peripheral\i2s/cy_i2s.h **** *
 672:Generated_Source\PSoC6\pdl\drivers\peripheral\i2s/cy_i2s.h **** *******************************************************************************/
 673:Generated_Source\PSoC6\pdl\drivers\peripheral\i2s/cy_i2s.h **** __STATIC_INLINE void Cy_I2S_ClearTxFifo(I2S_Type * base)
 674:Generated_Source\PSoC6\pdl\drivers\peripheral\i2s/cy_i2s.h **** {
 267              		.loc 1 674 0
 268              		.cfi_startproc
 269              		@ args = 0, pretend = 0, frame = 8
 270              		@ frame_needed = 1, uses_anonymous_args = 0
 271              		@ link register save eliminated.
 272 0000 80B4     		push	{r7}
 273              		.cfi_def_cfa_offset 4
 274              		.cfi_offset 7, -4
 275 0002 83B0     		sub	sp, sp, #12
 276              		.cfi_def_cfa_offset 16
 277 0004 00AF     		add	r7, sp, #0
 278              		.cfi_def_cfa_register 7
 279 0006 7860     		str	r0, [r7, #4]
 675:Generated_Source\PSoC6\pdl\drivers\peripheral\i2s/cy_i2s.h ****     base->TX_FIFO_CTL |= I2S_TX_FIFO_CTL_CLEAR_Msk;
 280              		.loc 1 675 0
 281 0008 7B68     		ldr	r3, [r7, #4]
 282 000a D3F80032 		ldr	r3, [r3, #512]
 283 000e 43F48032 		orr	r2, r3, #65536
 284 0012 7B68     		ldr	r3, [r7, #4]
 285 0014 C3F80022 		str	r2, [r3, #512]
 676:Generated_Source\PSoC6\pdl\drivers\peripheral\i2s/cy_i2s.h ****     base->TX_FIFO_CTL &= (uint32_t) ~I2S_TX_FIFO_CTL_CLEAR_Msk;
 286              		.loc 1 676 0
 287 0018 7B68     		ldr	r3, [r7, #4]
 288 001a D3F80032 		ldr	r3, [r3, #512]
 289 001e 23F48032 		bic	r2, r3, #65536
 290 0022 7B68     		ldr	r3, [r7, #4]
 291 0024 C3F80022 		str	r2, [r3, #512]
 677:Generated_Source\PSoC6\pdl\drivers\peripheral\i2s/cy_i2s.h ****     (void) base->TX_FIFO_CTL;
 292              		.loc 1 677 0
ARM GAS  C:\Users\ikomb\AppData\Local\Temp\cchnbsea.s 			page 18


 293 0028 7B68     		ldr	r3, [r7, #4]
 294 002a D3F80032 		ldr	r3, [r3, #512]
 678:Generated_Source\PSoC6\pdl\drivers\peripheral\i2s/cy_i2s.h **** }
 295              		.loc 1 678 0
 296 002e 00BF     		nop
 297 0030 0C37     		adds	r7, r7, #12
 298              		.cfi_def_cfa_offset 4
 299 0032 BD46     		mov	sp, r7
 300              		.cfi_def_cfa_register 13
 301              		@ sp needed
 302 0034 5DF8047B 		ldr	r7, [sp], #4
 303              		.cfi_restore 7
 304              		.cfi_def_cfa_offset 0
 305 0038 7047     		bx	lr
 306              		.cfi_endproc
 307              	.LFE165:
 308              		.size	Cy_I2S_ClearTxFifo, .-Cy_I2S_ClearTxFifo
 309 003a 00BF     		.section	.text.Cy_I2S_WriteTxData,"ax",%progbits
 310              		.align	2
 311              		.thumb
 312              		.thumb_func
 313              		.type	Cy_I2S_WriteTxData, %function
 314              	Cy_I2S_WriteTxData:
 315              	.LFB167:
 679:Generated_Source\PSoC6\pdl\drivers\peripheral\i2s/cy_i2s.h **** 
 680:Generated_Source\PSoC6\pdl\drivers\peripheral\i2s/cy_i2s.h **** 
 681:Generated_Source\PSoC6\pdl\drivers\peripheral\i2s/cy_i2s.h **** /*******************************************************************************
 682:Generated_Source\PSoC6\pdl\drivers\peripheral\i2s/cy_i2s.h **** * Function Name: Cy_I2S_GetNumInTxFifo
 683:Generated_Source\PSoC6\pdl\drivers\peripheral\i2s/cy_i2s.h **** ****************************************************************************//**
 684:Generated_Source\PSoC6\pdl\drivers\peripheral\i2s/cy_i2s.h **** *
 685:Generated_Source\PSoC6\pdl\drivers\peripheral\i2s/cy_i2s.h **** * Gets the number of used words in the TX FIFO.
 686:Generated_Source\PSoC6\pdl\drivers\peripheral\i2s/cy_i2s.h **** *
 687:Generated_Source\PSoC6\pdl\drivers\peripheral\i2s/cy_i2s.h **** * \param base The pointer to the I2S instance address.
 688:Generated_Source\PSoC6\pdl\drivers\peripheral\i2s/cy_i2s.h **** *
 689:Generated_Source\PSoC6\pdl\drivers\peripheral\i2s/cy_i2s.h **** * \return The current number of used words in the TX FIFO.
 690:Generated_Source\PSoC6\pdl\drivers\peripheral\i2s/cy_i2s.h **** *
 691:Generated_Source\PSoC6\pdl\drivers\peripheral\i2s/cy_i2s.h **** * \funcusage
 692:Generated_Source\PSoC6\pdl\drivers\peripheral\i2s/cy_i2s.h **** * \snippet i2s/i2s_v2_0_sut_00.cydsn/main_cm4.c snippet_Cy_I2S_GetNumInTxFifo
 693:Generated_Source\PSoC6\pdl\drivers\peripheral\i2s/cy_i2s.h **** *
 694:Generated_Source\PSoC6\pdl\drivers\peripheral\i2s/cy_i2s.h **** *******************************************************************************/
 695:Generated_Source\PSoC6\pdl\drivers\peripheral\i2s/cy_i2s.h **** __STATIC_INLINE uint32_t Cy_I2S_GetNumInTxFifo(I2S_Type const * base)
 696:Generated_Source\PSoC6\pdl\drivers\peripheral\i2s/cy_i2s.h **** {   
 697:Generated_Source\PSoC6\pdl\drivers\peripheral\i2s/cy_i2s.h ****     return (_FLD2VAL(I2S_TX_FIFO_STATUS_USED, base->TX_FIFO_STATUS));
 698:Generated_Source\PSoC6\pdl\drivers\peripheral\i2s/cy_i2s.h **** }
 699:Generated_Source\PSoC6\pdl\drivers\peripheral\i2s/cy_i2s.h **** 
 700:Generated_Source\PSoC6\pdl\drivers\peripheral\i2s/cy_i2s.h **** 
 701:Generated_Source\PSoC6\pdl\drivers\peripheral\i2s/cy_i2s.h **** /*******************************************************************************
 702:Generated_Source\PSoC6\pdl\drivers\peripheral\i2s/cy_i2s.h **** * Function Name: Cy_I2S_WriteTxData
 703:Generated_Source\PSoC6\pdl\drivers\peripheral\i2s/cy_i2s.h **** ****************************************************************************//**
 704:Generated_Source\PSoC6\pdl\drivers\peripheral\i2s/cy_i2s.h **** *
 705:Generated_Source\PSoC6\pdl\drivers\peripheral\i2s/cy_i2s.h **** * Writes data to the TX FIFO. Increases the TX FIFO level.
 706:Generated_Source\PSoC6\pdl\drivers\peripheral\i2s/cy_i2s.h **** *
 707:Generated_Source\PSoC6\pdl\drivers\peripheral\i2s/cy_i2s.h **** * \param base The pointer to the I2S instance address.
 708:Generated_Source\PSoC6\pdl\drivers\peripheral\i2s/cy_i2s.h **** *
 709:Generated_Source\PSoC6\pdl\drivers\peripheral\i2s/cy_i2s.h **** * \param data Data to be written to the TX FIFO.
 710:Generated_Source\PSoC6\pdl\drivers\peripheral\i2s/cy_i2s.h **** *
 711:Generated_Source\PSoC6\pdl\drivers\peripheral\i2s/cy_i2s.h **** * \funcusage
ARM GAS  C:\Users\ikomb\AppData\Local\Temp\cchnbsea.s 			page 19


 712:Generated_Source\PSoC6\pdl\drivers\peripheral\i2s/cy_i2s.h **** * \snippet i2s/i2s_v2_0_sut_00.cydsn/main_cm4.c snippet_Cy_I2S_WriteTxData
 713:Generated_Source\PSoC6\pdl\drivers\peripheral\i2s/cy_i2s.h **** *
 714:Generated_Source\PSoC6\pdl\drivers\peripheral\i2s/cy_i2s.h **** *******************************************************************************/
 715:Generated_Source\PSoC6\pdl\drivers\peripheral\i2s/cy_i2s.h **** __STATIC_INLINE void Cy_I2S_WriteTxData(I2S_Type * base, uint32_t data)
 716:Generated_Source\PSoC6\pdl\drivers\peripheral\i2s/cy_i2s.h **** {
 316              		.loc 1 716 0
 317              		.cfi_startproc
 318              		@ args = 0, pretend = 0, frame = 8
 319              		@ frame_needed = 1, uses_anonymous_args = 0
 320              		@ link register save eliminated.
 321 0000 80B4     		push	{r7}
 322              		.cfi_def_cfa_offset 4
 323              		.cfi_offset 7, -4
 324 0002 83B0     		sub	sp, sp, #12
 325              		.cfi_def_cfa_offset 16
 326 0004 00AF     		add	r7, sp, #0
 327              		.cfi_def_cfa_register 7
 328 0006 7860     		str	r0, [r7, #4]
 329 0008 3960     		str	r1, [r7]
 717:Generated_Source\PSoC6\pdl\drivers\peripheral\i2s/cy_i2s.h ****     base->TX_FIFO_WR = data;
 330              		.loc 1 717 0
 331 000a 7B68     		ldr	r3, [r7, #4]
 332 000c 3A68     		ldr	r2, [r7]
 333 000e C3F80822 		str	r2, [r3, #520]
 718:Generated_Source\PSoC6\pdl\drivers\peripheral\i2s/cy_i2s.h **** }
 334              		.loc 1 718 0
 335 0012 00BF     		nop
 336 0014 0C37     		adds	r7, r7, #12
 337              		.cfi_def_cfa_offset 4
 338 0016 BD46     		mov	sp, r7
 339              		.cfi_def_cfa_register 13
 340              		@ sp needed
 341 0018 5DF8047B 		ldr	r7, [sp], #4
 342              		.cfi_restore 7
 343              		.cfi_def_cfa_offset 0
 344 001c 7047     		bx	lr
 345              		.cfi_endproc
 346              	.LFE167:
 347              		.size	Cy_I2S_WriteTxData, .-Cy_I2S_WriteTxData
 348 001e 00BF     		.section	.text.Cy_I2S_ClearRxFifo,"ax",%progbits
 349              		.align	2
 350              		.thumb
 351              		.thumb_func
 352              		.type	Cy_I2S_ClearRxFifo, %function
 353              	Cy_I2S_ClearRxFifo:
 354              	.LFB172:
 719:Generated_Source\PSoC6\pdl\drivers\peripheral\i2s/cy_i2s.h **** 
 720:Generated_Source\PSoC6\pdl\drivers\peripheral\i2s/cy_i2s.h **** 
 721:Generated_Source\PSoC6\pdl\drivers\peripheral\i2s/cy_i2s.h **** /*******************************************************************************
 722:Generated_Source\PSoC6\pdl\drivers\peripheral\i2s/cy_i2s.h **** * Function Name: Cy_I2S_GetTxReadPointer
 723:Generated_Source\PSoC6\pdl\drivers\peripheral\i2s/cy_i2s.h **** ****************************************************************************//**
 724:Generated_Source\PSoC6\pdl\drivers\peripheral\i2s/cy_i2s.h **** *
 725:Generated_Source\PSoC6\pdl\drivers\peripheral\i2s/cy_i2s.h **** * Gets the TX FIFO Read pointer. This function is rather for debug purposes.
 726:Generated_Source\PSoC6\pdl\drivers\peripheral\i2s/cy_i2s.h **** *
 727:Generated_Source\PSoC6\pdl\drivers\peripheral\i2s/cy_i2s.h **** * \param base The pointer to the I2S instance address.
 728:Generated_Source\PSoC6\pdl\drivers\peripheral\i2s/cy_i2s.h **** *
 729:Generated_Source\PSoC6\pdl\drivers\peripheral\i2s/cy_i2s.h **** * \return The current TX Read pointer value.
ARM GAS  C:\Users\ikomb\AppData\Local\Temp\cchnbsea.s 			page 20


 730:Generated_Source\PSoC6\pdl\drivers\peripheral\i2s/cy_i2s.h **** *
 731:Generated_Source\PSoC6\pdl\drivers\peripheral\i2s/cy_i2s.h **** * \funcusage
 732:Generated_Source\PSoC6\pdl\drivers\peripheral\i2s/cy_i2s.h **** * \snippet i2s/i2s_v2_0_sut_00.cydsn/main_cm4.c snippet_Cy_I2S_GetTxReadPointer
 733:Generated_Source\PSoC6\pdl\drivers\peripheral\i2s/cy_i2s.h **** *
 734:Generated_Source\PSoC6\pdl\drivers\peripheral\i2s/cy_i2s.h **** *******************************************************************************/
 735:Generated_Source\PSoC6\pdl\drivers\peripheral\i2s/cy_i2s.h **** __STATIC_INLINE uint8_t Cy_I2S_GetTxReadPointer(I2S_Type const * base)
 736:Generated_Source\PSoC6\pdl\drivers\peripheral\i2s/cy_i2s.h **** {
 737:Generated_Source\PSoC6\pdl\drivers\peripheral\i2s/cy_i2s.h ****     return ((uint8_t) _FLD2VAL(I2S_TX_FIFO_STATUS_RD_PTR, base->TX_FIFO_STATUS));
 738:Generated_Source\PSoC6\pdl\drivers\peripheral\i2s/cy_i2s.h **** }
 739:Generated_Source\PSoC6\pdl\drivers\peripheral\i2s/cy_i2s.h **** 
 740:Generated_Source\PSoC6\pdl\drivers\peripheral\i2s/cy_i2s.h **** 
 741:Generated_Source\PSoC6\pdl\drivers\peripheral\i2s/cy_i2s.h **** /*******************************************************************************
 742:Generated_Source\PSoC6\pdl\drivers\peripheral\i2s/cy_i2s.h **** * Function Name: Cy_I2S_GetTxWritePointer
 743:Generated_Source\PSoC6\pdl\drivers\peripheral\i2s/cy_i2s.h **** ****************************************************************************//**
 744:Generated_Source\PSoC6\pdl\drivers\peripheral\i2s/cy_i2s.h **** *
 745:Generated_Source\PSoC6\pdl\drivers\peripheral\i2s/cy_i2s.h **** * Gets the TX FIFO Write pointer. This function is rather for debug purposes.
 746:Generated_Source\PSoC6\pdl\drivers\peripheral\i2s/cy_i2s.h **** *
 747:Generated_Source\PSoC6\pdl\drivers\peripheral\i2s/cy_i2s.h **** * \param base The pointer to the I2S instance address.
 748:Generated_Source\PSoC6\pdl\drivers\peripheral\i2s/cy_i2s.h **** *
 749:Generated_Source\PSoC6\pdl\drivers\peripheral\i2s/cy_i2s.h **** * \return The current TX Write pointer value.
 750:Generated_Source\PSoC6\pdl\drivers\peripheral\i2s/cy_i2s.h **** *
 751:Generated_Source\PSoC6\pdl\drivers\peripheral\i2s/cy_i2s.h **** * \funcusage
 752:Generated_Source\PSoC6\pdl\drivers\peripheral\i2s/cy_i2s.h **** * \snippet i2s/i2s_v2_0_sut_00.cydsn/main_cm4.c snippet_Cy_I2S_GetTxWritePointer
 753:Generated_Source\PSoC6\pdl\drivers\peripheral\i2s/cy_i2s.h **** *
 754:Generated_Source\PSoC6\pdl\drivers\peripheral\i2s/cy_i2s.h **** *******************************************************************************/
 755:Generated_Source\PSoC6\pdl\drivers\peripheral\i2s/cy_i2s.h **** __STATIC_INLINE uint8_t Cy_I2S_GetTxWritePointer(I2S_Type const * base)
 756:Generated_Source\PSoC6\pdl\drivers\peripheral\i2s/cy_i2s.h **** {
 757:Generated_Source\PSoC6\pdl\drivers\peripheral\i2s/cy_i2s.h ****     return ((uint8_t) _FLD2VAL(I2S_TX_FIFO_STATUS_WR_PTR, base->TX_FIFO_STATUS));
 758:Generated_Source\PSoC6\pdl\drivers\peripheral\i2s/cy_i2s.h **** }
 759:Generated_Source\PSoC6\pdl\drivers\peripheral\i2s/cy_i2s.h **** 
 760:Generated_Source\PSoC6\pdl\drivers\peripheral\i2s/cy_i2s.h **** 
 761:Generated_Source\PSoC6\pdl\drivers\peripheral\i2s/cy_i2s.h **** /*******************************************************************************
 762:Generated_Source\PSoC6\pdl\drivers\peripheral\i2s/cy_i2s.h **** * Function Name: Cy_I2S_FreezeTxFifo
 763:Generated_Source\PSoC6\pdl\drivers\peripheral\i2s/cy_i2s.h **** ****************************************************************************//**
 764:Generated_Source\PSoC6\pdl\drivers\peripheral\i2s/cy_i2s.h **** *
 765:Generated_Source\PSoC6\pdl\drivers\peripheral\i2s/cy_i2s.h **** * Freezes the TX FIFO. This function is rather for debug purposes.
 766:Generated_Source\PSoC6\pdl\drivers\peripheral\i2s/cy_i2s.h **** *
 767:Generated_Source\PSoC6\pdl\drivers\peripheral\i2s/cy_i2s.h **** * \param base The pointer to the I2S instance address.
 768:Generated_Source\PSoC6\pdl\drivers\peripheral\i2s/cy_i2s.h **** *
 769:Generated_Source\PSoC6\pdl\drivers\peripheral\i2s/cy_i2s.h **** * \funcusage
 770:Generated_Source\PSoC6\pdl\drivers\peripheral\i2s/cy_i2s.h **** * \snippet i2s/i2s_v2_0_sut_00.cydsn/main_cm4.c snippet_Cy_I2S_FreezeTxFifo
 771:Generated_Source\PSoC6\pdl\drivers\peripheral\i2s/cy_i2s.h **** *
 772:Generated_Source\PSoC6\pdl\drivers\peripheral\i2s/cy_i2s.h **** *******************************************************************************/
 773:Generated_Source\PSoC6\pdl\drivers\peripheral\i2s/cy_i2s.h **** __STATIC_INLINE void Cy_I2S_FreezeTxFifo(I2S_Type * base)
 774:Generated_Source\PSoC6\pdl\drivers\peripheral\i2s/cy_i2s.h **** {
 775:Generated_Source\PSoC6\pdl\drivers\peripheral\i2s/cy_i2s.h ****     base->TX_FIFO_CTL |= I2S_TX_FIFO_CTL_FREEZE_Msk;
 776:Generated_Source\PSoC6\pdl\drivers\peripheral\i2s/cy_i2s.h **** }
 777:Generated_Source\PSoC6\pdl\drivers\peripheral\i2s/cy_i2s.h **** 
 778:Generated_Source\PSoC6\pdl\drivers\peripheral\i2s/cy_i2s.h **** 
 779:Generated_Source\PSoC6\pdl\drivers\peripheral\i2s/cy_i2s.h **** /*******************************************************************************
 780:Generated_Source\PSoC6\pdl\drivers\peripheral\i2s/cy_i2s.h **** * Function Name: Cy_I2S_UnfreezeTxFifo
 781:Generated_Source\PSoC6\pdl\drivers\peripheral\i2s/cy_i2s.h **** ****************************************************************************//**
 782:Generated_Source\PSoC6\pdl\drivers\peripheral\i2s/cy_i2s.h **** *
 783:Generated_Source\PSoC6\pdl\drivers\peripheral\i2s/cy_i2s.h **** * Unfreezes the TX FIFO. This function is rather for debug purposes.
 784:Generated_Source\PSoC6\pdl\drivers\peripheral\i2s/cy_i2s.h **** *
 785:Generated_Source\PSoC6\pdl\drivers\peripheral\i2s/cy_i2s.h **** * \param base The pointer to the I2S instance address.
 786:Generated_Source\PSoC6\pdl\drivers\peripheral\i2s/cy_i2s.h **** *
ARM GAS  C:\Users\ikomb\AppData\Local\Temp\cchnbsea.s 			page 21


 787:Generated_Source\PSoC6\pdl\drivers\peripheral\i2s/cy_i2s.h **** * \funcusage
 788:Generated_Source\PSoC6\pdl\drivers\peripheral\i2s/cy_i2s.h **** * \snippet i2s/i2s_v2_0_sut_00.cydsn/main_cm4.c snippet_Cy_I2S_UnfreezeTxFifo
 789:Generated_Source\PSoC6\pdl\drivers\peripheral\i2s/cy_i2s.h **** *
 790:Generated_Source\PSoC6\pdl\drivers\peripheral\i2s/cy_i2s.h **** *******************************************************************************/
 791:Generated_Source\PSoC6\pdl\drivers\peripheral\i2s/cy_i2s.h **** __STATIC_INLINE void Cy_I2S_UnfreezeTxFifo(I2S_Type * base)
 792:Generated_Source\PSoC6\pdl\drivers\peripheral\i2s/cy_i2s.h **** {
 793:Generated_Source\PSoC6\pdl\drivers\peripheral\i2s/cy_i2s.h ****     base->TX_FIFO_CTL &= (uint32_t) ~I2S_TX_FIFO_CTL_FREEZE_Msk;
 794:Generated_Source\PSoC6\pdl\drivers\peripheral\i2s/cy_i2s.h **** }
 795:Generated_Source\PSoC6\pdl\drivers\peripheral\i2s/cy_i2s.h **** 
 796:Generated_Source\PSoC6\pdl\drivers\peripheral\i2s/cy_i2s.h **** 
 797:Generated_Source\PSoC6\pdl\drivers\peripheral\i2s/cy_i2s.h **** /*******************************************************************************
 798:Generated_Source\PSoC6\pdl\drivers\peripheral\i2s/cy_i2s.h **** * Function Name: Cy_I2S_ClearRxFifo
 799:Generated_Source\PSoC6\pdl\drivers\peripheral\i2s/cy_i2s.h **** ****************************************************************************//**
 800:Generated_Source\PSoC6\pdl\drivers\peripheral\i2s/cy_i2s.h **** *
 801:Generated_Source\PSoC6\pdl\drivers\peripheral\i2s/cy_i2s.h **** * Clears the RX FIFO (resets the Read/Write FIFO pointers).
 802:Generated_Source\PSoC6\pdl\drivers\peripheral\i2s/cy_i2s.h **** *
 803:Generated_Source\PSoC6\pdl\drivers\peripheral\i2s/cy_i2s.h **** * \param base The pointer to the I2S instance address.
 804:Generated_Source\PSoC6\pdl\drivers\peripheral\i2s/cy_i2s.h **** *
 805:Generated_Source\PSoC6\pdl\drivers\peripheral\i2s/cy_i2s.h **** * \funcusage
 806:Generated_Source\PSoC6\pdl\drivers\peripheral\i2s/cy_i2s.h **** * \snippet i2s/i2s_v2_0_sut_00.cydsn/main_cm4.c snippet_Cy_I2S_ClearRxFifo
 807:Generated_Source\PSoC6\pdl\drivers\peripheral\i2s/cy_i2s.h **** *
 808:Generated_Source\PSoC6\pdl\drivers\peripheral\i2s/cy_i2s.h **** *******************************************************************************/
 809:Generated_Source\PSoC6\pdl\drivers\peripheral\i2s/cy_i2s.h **** __STATIC_INLINE void Cy_I2S_ClearRxFifo(I2S_Type * base)
 810:Generated_Source\PSoC6\pdl\drivers\peripheral\i2s/cy_i2s.h **** {
 355              		.loc 1 810 0
 356              		.cfi_startproc
 357              		@ args = 0, pretend = 0, frame = 8
 358              		@ frame_needed = 1, uses_anonymous_args = 0
 359              		@ link register save eliminated.
 360 0000 80B4     		push	{r7}
 361              		.cfi_def_cfa_offset 4
 362              		.cfi_offset 7, -4
 363 0002 83B0     		sub	sp, sp, #12
 364              		.cfi_def_cfa_offset 16
 365 0004 00AF     		add	r7, sp, #0
 366              		.cfi_def_cfa_register 7
 367 0006 7860     		str	r0, [r7, #4]
 811:Generated_Source\PSoC6\pdl\drivers\peripheral\i2s/cy_i2s.h ****     base->RX_FIFO_CTL |= I2S_RX_FIFO_CTL_CLEAR_Msk;
 368              		.loc 1 811 0
 369 0008 7B68     		ldr	r3, [r7, #4]
 370 000a D3F80033 		ldr	r3, [r3, #768]
 371 000e 43F48032 		orr	r2, r3, #65536
 372 0012 7B68     		ldr	r3, [r7, #4]
 373 0014 C3F80023 		str	r2, [r3, #768]
 812:Generated_Source\PSoC6\pdl\drivers\peripheral\i2s/cy_i2s.h ****     base->RX_FIFO_CTL &= (uint32_t) ~I2S_RX_FIFO_CTL_CLEAR_Msk;
 374              		.loc 1 812 0
 375 0018 7B68     		ldr	r3, [r7, #4]
 376 001a D3F80033 		ldr	r3, [r3, #768]
 377 001e 23F48032 		bic	r2, r3, #65536
 378 0022 7B68     		ldr	r3, [r7, #4]
 379 0024 C3F80023 		str	r2, [r3, #768]
 813:Generated_Source\PSoC6\pdl\drivers\peripheral\i2s/cy_i2s.h ****     (void) base->RX_FIFO_CTL;
 380              		.loc 1 813 0
 381 0028 7B68     		ldr	r3, [r7, #4]
 382 002a D3F80033 		ldr	r3, [r3, #768]
 814:Generated_Source\PSoC6\pdl\drivers\peripheral\i2s/cy_i2s.h **** }
 383              		.loc 1 814 0
ARM GAS  C:\Users\ikomb\AppData\Local\Temp\cchnbsea.s 			page 22


 384 002e 00BF     		nop
 385 0030 0C37     		adds	r7, r7, #12
 386              		.cfi_def_cfa_offset 4
 387 0032 BD46     		mov	sp, r7
 388              		.cfi_def_cfa_register 13
 389              		@ sp needed
 390 0034 5DF8047B 		ldr	r7, [sp], #4
 391              		.cfi_restore 7
 392              		.cfi_def_cfa_offset 0
 393 0038 7047     		bx	lr
 394              		.cfi_endproc
 395              	.LFE172:
 396              		.size	Cy_I2S_ClearRxFifo, .-Cy_I2S_ClearRxFifo
 397 003a 00BF     		.section	.rodata
 398              		.align	2
 399              	.LC0:
 400 0000 47656E65 		.ascii	"Generated_Source\\PSoC6\\pdl\\drivers\\peripheral\\"
 400      72617465 
 400      645F536F 
 400      75726365 
 400      5C50536F 
 401 002e 6932735C 		.ascii	"i2s\\cy_i2s.h\000"
 401      63795F69 
 401      32732E68 
 401      00
 402              		.section	.text.Cy_I2S_ClearInterrupt,"ax",%progbits
 403              		.align	2
 404              		.thumb
 405              		.thumb_func
 406              		.type	Cy_I2S_ClearInterrupt, %function
 407              	Cy_I2S_ClearInterrupt:
 408              	.LFB181:
 815:Generated_Source\PSoC6\pdl\drivers\peripheral\i2s/cy_i2s.h **** 
 816:Generated_Source\PSoC6\pdl\drivers\peripheral\i2s/cy_i2s.h **** 
 817:Generated_Source\PSoC6\pdl\drivers\peripheral\i2s/cy_i2s.h **** /*******************************************************************************
 818:Generated_Source\PSoC6\pdl\drivers\peripheral\i2s/cy_i2s.h **** * Function Name: Cy_I2S_GetNumInRxFifo
 819:Generated_Source\PSoC6\pdl\drivers\peripheral\i2s/cy_i2s.h **** ****************************************************************************//**
 820:Generated_Source\PSoC6\pdl\drivers\peripheral\i2s/cy_i2s.h **** *
 821:Generated_Source\PSoC6\pdl\drivers\peripheral\i2s/cy_i2s.h **** * Gets the number of used words in the RX FIFO.
 822:Generated_Source\PSoC6\pdl\drivers\peripheral\i2s/cy_i2s.h **** *
 823:Generated_Source\PSoC6\pdl\drivers\peripheral\i2s/cy_i2s.h **** * \param base The pointer to the I2S instance address.
 824:Generated_Source\PSoC6\pdl\drivers\peripheral\i2s/cy_i2s.h **** *
 825:Generated_Source\PSoC6\pdl\drivers\peripheral\i2s/cy_i2s.h **** * \return The current number of used words in rge RX FIFO.
 826:Generated_Source\PSoC6\pdl\drivers\peripheral\i2s/cy_i2s.h **** *
 827:Generated_Source\PSoC6\pdl\drivers\peripheral\i2s/cy_i2s.h **** * \funcusage
 828:Generated_Source\PSoC6\pdl\drivers\peripheral\i2s/cy_i2s.h **** * \snippet i2s/i2s_v2_0_sut_00.cydsn/main_cm4.c snippet_Cy_I2S_GetNumInRxFifo
 829:Generated_Source\PSoC6\pdl\drivers\peripheral\i2s/cy_i2s.h **** *
 830:Generated_Source\PSoC6\pdl\drivers\peripheral\i2s/cy_i2s.h **** *******************************************************************************/
 831:Generated_Source\PSoC6\pdl\drivers\peripheral\i2s/cy_i2s.h **** __STATIC_INLINE uint32_t Cy_I2S_GetNumInRxFifo(I2S_Type const * base)
 832:Generated_Source\PSoC6\pdl\drivers\peripheral\i2s/cy_i2s.h **** {
 833:Generated_Source\PSoC6\pdl\drivers\peripheral\i2s/cy_i2s.h ****     return (_FLD2VAL(I2S_RX_FIFO_STATUS_USED, base->RX_FIFO_STATUS));
 834:Generated_Source\PSoC6\pdl\drivers\peripheral\i2s/cy_i2s.h **** }
 835:Generated_Source\PSoC6\pdl\drivers\peripheral\i2s/cy_i2s.h **** 
 836:Generated_Source\PSoC6\pdl\drivers\peripheral\i2s/cy_i2s.h **** 
 837:Generated_Source\PSoC6\pdl\drivers\peripheral\i2s/cy_i2s.h **** /*******************************************************************************
 838:Generated_Source\PSoC6\pdl\drivers\peripheral\i2s/cy_i2s.h **** * Function Name: Cy_I2S_ReadRxData
 839:Generated_Source\PSoC6\pdl\drivers\peripheral\i2s/cy_i2s.h **** ****************************************************************************//**
ARM GAS  C:\Users\ikomb\AppData\Local\Temp\cchnbsea.s 			page 23


 840:Generated_Source\PSoC6\pdl\drivers\peripheral\i2s/cy_i2s.h **** *
 841:Generated_Source\PSoC6\pdl\drivers\peripheral\i2s/cy_i2s.h **** * Reads data from the RX FIFO. Decreases the RX FIFO level.
 842:Generated_Source\PSoC6\pdl\drivers\peripheral\i2s/cy_i2s.h **** *
 843:Generated_Source\PSoC6\pdl\drivers\peripheral\i2s/cy_i2s.h **** * \param base The pointer to the I2S instance address.
 844:Generated_Source\PSoC6\pdl\drivers\peripheral\i2s/cy_i2s.h **** *
 845:Generated_Source\PSoC6\pdl\drivers\peripheral\i2s/cy_i2s.h **** * \return The read data.
 846:Generated_Source\PSoC6\pdl\drivers\peripheral\i2s/cy_i2s.h **** *
 847:Generated_Source\PSoC6\pdl\drivers\peripheral\i2s/cy_i2s.h **** * \funcusage
 848:Generated_Source\PSoC6\pdl\drivers\peripheral\i2s/cy_i2s.h **** * \snippet i2s/i2s_v2_0_sut_00.cydsn/main_cm4.c snippet_Cy_I2S_ReadRxData
 849:Generated_Source\PSoC6\pdl\drivers\peripheral\i2s/cy_i2s.h **** *
 850:Generated_Source\PSoC6\pdl\drivers\peripheral\i2s/cy_i2s.h **** *******************************************************************************/
 851:Generated_Source\PSoC6\pdl\drivers\peripheral\i2s/cy_i2s.h **** __STATIC_INLINE uint32_t Cy_I2S_ReadRxData(I2S_Type const * base)
 852:Generated_Source\PSoC6\pdl\drivers\peripheral\i2s/cy_i2s.h **** {
 853:Generated_Source\PSoC6\pdl\drivers\peripheral\i2s/cy_i2s.h ****     return (base->RX_FIFO_RD);
 854:Generated_Source\PSoC6\pdl\drivers\peripheral\i2s/cy_i2s.h **** }
 855:Generated_Source\PSoC6\pdl\drivers\peripheral\i2s/cy_i2s.h **** 
 856:Generated_Source\PSoC6\pdl\drivers\peripheral\i2s/cy_i2s.h **** 
 857:Generated_Source\PSoC6\pdl\drivers\peripheral\i2s/cy_i2s.h **** /*******************************************************************************
 858:Generated_Source\PSoC6\pdl\drivers\peripheral\i2s/cy_i2s.h **** * Function Name: Cy_I2S_ReadRxDataSilent
 859:Generated_Source\PSoC6\pdl\drivers\peripheral\i2s/cy_i2s.h **** ****************************************************************************//**
 860:Generated_Source\PSoC6\pdl\drivers\peripheral\i2s/cy_i2s.h **** *
 861:Generated_Source\PSoC6\pdl\drivers\peripheral\i2s/cy_i2s.h **** * Reads data from the RX FIFO without updating the RX FIFO read pointer.
 862:Generated_Source\PSoC6\pdl\drivers\peripheral\i2s/cy_i2s.h **** * This function is rather for debug purposes.
 863:Generated_Source\PSoC6\pdl\drivers\peripheral\i2s/cy_i2s.h **** *
 864:Generated_Source\PSoC6\pdl\drivers\peripheral\i2s/cy_i2s.h **** * \param base The pointer to the I2S instance address.
 865:Generated_Source\PSoC6\pdl\drivers\peripheral\i2s/cy_i2s.h **** *
 866:Generated_Source\PSoC6\pdl\drivers\peripheral\i2s/cy_i2s.h **** * \return The read data.
 867:Generated_Source\PSoC6\pdl\drivers\peripheral\i2s/cy_i2s.h **** *
 868:Generated_Source\PSoC6\pdl\drivers\peripheral\i2s/cy_i2s.h **** * \funcusage
 869:Generated_Source\PSoC6\pdl\drivers\peripheral\i2s/cy_i2s.h **** * \snippet i2s/i2s_v2_0_sut_00.cydsn/main_cm4.c snippet_Cy_I2S_ReadRxDataSilent
 870:Generated_Source\PSoC6\pdl\drivers\peripheral\i2s/cy_i2s.h **** *
 871:Generated_Source\PSoC6\pdl\drivers\peripheral\i2s/cy_i2s.h **** *******************************************************************************/
 872:Generated_Source\PSoC6\pdl\drivers\peripheral\i2s/cy_i2s.h **** __STATIC_INLINE uint32_t Cy_I2S_ReadRxDataSilent(I2S_Type const * base)
 873:Generated_Source\PSoC6\pdl\drivers\peripheral\i2s/cy_i2s.h **** {
 874:Generated_Source\PSoC6\pdl\drivers\peripheral\i2s/cy_i2s.h ****     return (base->RX_FIFO_RD_SILENT);
 875:Generated_Source\PSoC6\pdl\drivers\peripheral\i2s/cy_i2s.h **** }
 876:Generated_Source\PSoC6\pdl\drivers\peripheral\i2s/cy_i2s.h **** 
 877:Generated_Source\PSoC6\pdl\drivers\peripheral\i2s/cy_i2s.h **** 
 878:Generated_Source\PSoC6\pdl\drivers\peripheral\i2s/cy_i2s.h **** /*******************************************************************************
 879:Generated_Source\PSoC6\pdl\drivers\peripheral\i2s/cy_i2s.h **** * Function Name: Cy_I2S_GetRxReadPointer
 880:Generated_Source\PSoC6\pdl\drivers\peripheral\i2s/cy_i2s.h **** ****************************************************************************//**
 881:Generated_Source\PSoC6\pdl\drivers\peripheral\i2s/cy_i2s.h **** *
 882:Generated_Source\PSoC6\pdl\drivers\peripheral\i2s/cy_i2s.h **** * Gets the RX FIFO Read pointer. This function is rather for debug purposes.
 883:Generated_Source\PSoC6\pdl\drivers\peripheral\i2s/cy_i2s.h **** *
 884:Generated_Source\PSoC6\pdl\drivers\peripheral\i2s/cy_i2s.h **** * \param base The pointer to the I2S instance address.
 885:Generated_Source\PSoC6\pdl\drivers\peripheral\i2s/cy_i2s.h **** *
 886:Generated_Source\PSoC6\pdl\drivers\peripheral\i2s/cy_i2s.h **** * \return The current RX Read pointer value.
 887:Generated_Source\PSoC6\pdl\drivers\peripheral\i2s/cy_i2s.h **** *
 888:Generated_Source\PSoC6\pdl\drivers\peripheral\i2s/cy_i2s.h **** * \funcusage
 889:Generated_Source\PSoC6\pdl\drivers\peripheral\i2s/cy_i2s.h **** * \snippet i2s/i2s_v2_0_sut_00.cydsn/main_cm4.c snippet_Cy_I2S_GetRxReadPointer
 890:Generated_Source\PSoC6\pdl\drivers\peripheral\i2s/cy_i2s.h **** *
 891:Generated_Source\PSoC6\pdl\drivers\peripheral\i2s/cy_i2s.h **** *******************************************************************************/
 892:Generated_Source\PSoC6\pdl\drivers\peripheral\i2s/cy_i2s.h **** __STATIC_INLINE uint8_t Cy_I2S_GetRxReadPointer(I2S_Type const * base)
 893:Generated_Source\PSoC6\pdl\drivers\peripheral\i2s/cy_i2s.h **** {
 894:Generated_Source\PSoC6\pdl\drivers\peripheral\i2s/cy_i2s.h ****     return ((uint8_t) _FLD2VAL(I2S_RX_FIFO_STATUS_RD_PTR, base->RX_FIFO_STATUS));
 895:Generated_Source\PSoC6\pdl\drivers\peripheral\i2s/cy_i2s.h **** }
 896:Generated_Source\PSoC6\pdl\drivers\peripheral\i2s/cy_i2s.h **** 
ARM GAS  C:\Users\ikomb\AppData\Local\Temp\cchnbsea.s 			page 24


 897:Generated_Source\PSoC6\pdl\drivers\peripheral\i2s/cy_i2s.h **** 
 898:Generated_Source\PSoC6\pdl\drivers\peripheral\i2s/cy_i2s.h **** /*******************************************************************************
 899:Generated_Source\PSoC6\pdl\drivers\peripheral\i2s/cy_i2s.h **** * Function Name: Cy_I2S_GetRxWritePointer
 900:Generated_Source\PSoC6\pdl\drivers\peripheral\i2s/cy_i2s.h **** ****************************************************************************//**
 901:Generated_Source\PSoC6\pdl\drivers\peripheral\i2s/cy_i2s.h **** *
 902:Generated_Source\PSoC6\pdl\drivers\peripheral\i2s/cy_i2s.h **** * Gets the RX FIFO Write pointer. This function is rather for debug purposes.
 903:Generated_Source\PSoC6\pdl\drivers\peripheral\i2s/cy_i2s.h **** *
 904:Generated_Source\PSoC6\pdl\drivers\peripheral\i2s/cy_i2s.h **** * \param base The pointer to the I2S instance address.
 905:Generated_Source\PSoC6\pdl\drivers\peripheral\i2s/cy_i2s.h **** *
 906:Generated_Source\PSoC6\pdl\drivers\peripheral\i2s/cy_i2s.h **** * \return The current RX Write pointer value.
 907:Generated_Source\PSoC6\pdl\drivers\peripheral\i2s/cy_i2s.h **** *
 908:Generated_Source\PSoC6\pdl\drivers\peripheral\i2s/cy_i2s.h **** * \funcusage
 909:Generated_Source\PSoC6\pdl\drivers\peripheral\i2s/cy_i2s.h **** * \snippet i2s/i2s_v2_0_sut_00.cydsn/main_cm4.c snippet_Cy_I2S_GetRxWritePointer
 910:Generated_Source\PSoC6\pdl\drivers\peripheral\i2s/cy_i2s.h **** *
 911:Generated_Source\PSoC6\pdl\drivers\peripheral\i2s/cy_i2s.h **** *******************************************************************************/
 912:Generated_Source\PSoC6\pdl\drivers\peripheral\i2s/cy_i2s.h **** __STATIC_INLINE uint8_t Cy_I2S_GetRxWritePointer(I2S_Type const * base)
 913:Generated_Source\PSoC6\pdl\drivers\peripheral\i2s/cy_i2s.h **** {
 914:Generated_Source\PSoC6\pdl\drivers\peripheral\i2s/cy_i2s.h ****     return ((uint8_t) _FLD2VAL(I2S_RX_FIFO_STATUS_WR_PTR, base->RX_FIFO_STATUS));
 915:Generated_Source\PSoC6\pdl\drivers\peripheral\i2s/cy_i2s.h **** }
 916:Generated_Source\PSoC6\pdl\drivers\peripheral\i2s/cy_i2s.h **** 
 917:Generated_Source\PSoC6\pdl\drivers\peripheral\i2s/cy_i2s.h **** 
 918:Generated_Source\PSoC6\pdl\drivers\peripheral\i2s/cy_i2s.h **** /*******************************************************************************
 919:Generated_Source\PSoC6\pdl\drivers\peripheral\i2s/cy_i2s.h **** * Function Name: Cy_I2S_FreezeRxFifo
 920:Generated_Source\PSoC6\pdl\drivers\peripheral\i2s/cy_i2s.h **** ****************************************************************************//**
 921:Generated_Source\PSoC6\pdl\drivers\peripheral\i2s/cy_i2s.h **** *
 922:Generated_Source\PSoC6\pdl\drivers\peripheral\i2s/cy_i2s.h **** * Freezes the RX FIFO. This function is rather for debug purposes.
 923:Generated_Source\PSoC6\pdl\drivers\peripheral\i2s/cy_i2s.h **** *
 924:Generated_Source\PSoC6\pdl\drivers\peripheral\i2s/cy_i2s.h **** * \param base The pointer to the I2S instance address.
 925:Generated_Source\PSoC6\pdl\drivers\peripheral\i2s/cy_i2s.h **** *
 926:Generated_Source\PSoC6\pdl\drivers\peripheral\i2s/cy_i2s.h **** * \funcusage
 927:Generated_Source\PSoC6\pdl\drivers\peripheral\i2s/cy_i2s.h **** * \snippet i2s/i2s_v2_0_sut_00.cydsn/main_cm4.c snippet_Cy_I2S_FreezeRxFifo
 928:Generated_Source\PSoC6\pdl\drivers\peripheral\i2s/cy_i2s.h **** *
 929:Generated_Source\PSoC6\pdl\drivers\peripheral\i2s/cy_i2s.h **** *******************************************************************************/
 930:Generated_Source\PSoC6\pdl\drivers\peripheral\i2s/cy_i2s.h **** __STATIC_INLINE void Cy_I2S_FreezeRxFifo(I2S_Type * base)
 931:Generated_Source\PSoC6\pdl\drivers\peripheral\i2s/cy_i2s.h **** {
 932:Generated_Source\PSoC6\pdl\drivers\peripheral\i2s/cy_i2s.h ****     base->RX_FIFO_CTL |= I2S_RX_FIFO_CTL_FREEZE_Msk;
 933:Generated_Source\PSoC6\pdl\drivers\peripheral\i2s/cy_i2s.h **** }
 934:Generated_Source\PSoC6\pdl\drivers\peripheral\i2s/cy_i2s.h **** 
 935:Generated_Source\PSoC6\pdl\drivers\peripheral\i2s/cy_i2s.h **** 
 936:Generated_Source\PSoC6\pdl\drivers\peripheral\i2s/cy_i2s.h **** /*******************************************************************************
 937:Generated_Source\PSoC6\pdl\drivers\peripheral\i2s/cy_i2s.h **** * Function Name: Cy_I2S_UnfreezeRxFifo
 938:Generated_Source\PSoC6\pdl\drivers\peripheral\i2s/cy_i2s.h **** ****************************************************************************//**
 939:Generated_Source\PSoC6\pdl\drivers\peripheral\i2s/cy_i2s.h **** *
 940:Generated_Source\PSoC6\pdl\drivers\peripheral\i2s/cy_i2s.h **** * Unfreezes the RX FIFO. This function is rather for debug purposes.
 941:Generated_Source\PSoC6\pdl\drivers\peripheral\i2s/cy_i2s.h **** *
 942:Generated_Source\PSoC6\pdl\drivers\peripheral\i2s/cy_i2s.h **** * \param base The pointer to the I2S instance address.
 943:Generated_Source\PSoC6\pdl\drivers\peripheral\i2s/cy_i2s.h **** *
 944:Generated_Source\PSoC6\pdl\drivers\peripheral\i2s/cy_i2s.h **** * \funcusage
 945:Generated_Source\PSoC6\pdl\drivers\peripheral\i2s/cy_i2s.h **** * \snippet i2s/i2s_v2_0_sut_00.cydsn/main_cm4.c snippet_Cy_I2S_UnfreezeRxFifo
 946:Generated_Source\PSoC6\pdl\drivers\peripheral\i2s/cy_i2s.h **** *
 947:Generated_Source\PSoC6\pdl\drivers\peripheral\i2s/cy_i2s.h **** *******************************************************************************/
 948:Generated_Source\PSoC6\pdl\drivers\peripheral\i2s/cy_i2s.h **** __STATIC_INLINE void Cy_I2S_UnfreezeRxFifo(I2S_Type * base)
 949:Generated_Source\PSoC6\pdl\drivers\peripheral\i2s/cy_i2s.h **** {
 950:Generated_Source\PSoC6\pdl\drivers\peripheral\i2s/cy_i2s.h ****     base->RX_FIFO_CTL &= (uint32_t) ~I2S_RX_FIFO_CTL_FREEZE_Msk;
 951:Generated_Source\PSoC6\pdl\drivers\peripheral\i2s/cy_i2s.h **** }
 952:Generated_Source\PSoC6\pdl\drivers\peripheral\i2s/cy_i2s.h **** 
 953:Generated_Source\PSoC6\pdl\drivers\peripheral\i2s/cy_i2s.h **** 
ARM GAS  C:\Users\ikomb\AppData\Local\Temp\cchnbsea.s 			page 25


 954:Generated_Source\PSoC6\pdl\drivers\peripheral\i2s/cy_i2s.h **** /*******************************************************************************
 955:Generated_Source\PSoC6\pdl\drivers\peripheral\i2s/cy_i2s.h **** * Function Name: Cy_I2S_GetInterruptStatus
 956:Generated_Source\PSoC6\pdl\drivers\peripheral\i2s/cy_i2s.h **** ****************************************************************************//**
 957:Generated_Source\PSoC6\pdl\drivers\peripheral\i2s/cy_i2s.h **** *
 958:Generated_Source\PSoC6\pdl\drivers\peripheral\i2s/cy_i2s.h **** * Gets an interrupt status (returns a content of the INTR register).
 959:Generated_Source\PSoC6\pdl\drivers\peripheral\i2s/cy_i2s.h **** *
 960:Generated_Source\PSoC6\pdl\drivers\peripheral\i2s/cy_i2s.h **** * \param base The pointer to the I2S instance address.
 961:Generated_Source\PSoC6\pdl\drivers\peripheral\i2s/cy_i2s.h **** *
 962:Generated_Source\PSoC6\pdl\drivers\peripheral\i2s/cy_i2s.h **** * \return The interrupt bit mask \ref group_i2s_macros_intrerrupt_masks.
 963:Generated_Source\PSoC6\pdl\drivers\peripheral\i2s/cy_i2s.h **** *
 964:Generated_Source\PSoC6\pdl\drivers\peripheral\i2s/cy_i2s.h **** * \funcusage
 965:Generated_Source\PSoC6\pdl\drivers\peripheral\i2s/cy_i2s.h **** * \snippet i2s/i2s_v2_0_sut_00.cydsn/main_cm4.c snippet_Cy_I2S_GetInterruptStatus
 966:Generated_Source\PSoC6\pdl\drivers\peripheral\i2s/cy_i2s.h **** *
 967:Generated_Source\PSoC6\pdl\drivers\peripheral\i2s/cy_i2s.h **** *******************************************************************************/
 968:Generated_Source\PSoC6\pdl\drivers\peripheral\i2s/cy_i2s.h **** __STATIC_INLINE uint32_t Cy_I2S_GetInterruptStatus(I2S_Type const * base)
 969:Generated_Source\PSoC6\pdl\drivers\peripheral\i2s/cy_i2s.h **** {
 970:Generated_Source\PSoC6\pdl\drivers\peripheral\i2s/cy_i2s.h ****     return (base->INTR);
 971:Generated_Source\PSoC6\pdl\drivers\peripheral\i2s/cy_i2s.h **** }
 972:Generated_Source\PSoC6\pdl\drivers\peripheral\i2s/cy_i2s.h **** 
 973:Generated_Source\PSoC6\pdl\drivers\peripheral\i2s/cy_i2s.h **** 
 974:Generated_Source\PSoC6\pdl\drivers\peripheral\i2s/cy_i2s.h **** /*******************************************************************************
 975:Generated_Source\PSoC6\pdl\drivers\peripheral\i2s/cy_i2s.h **** * Function Name: Cy_I2S_ClearInterrupt
 976:Generated_Source\PSoC6\pdl\drivers\peripheral\i2s/cy_i2s.h **** ****************************************************************************//**
 977:Generated_Source\PSoC6\pdl\drivers\peripheral\i2s/cy_i2s.h **** *
 978:Generated_Source\PSoC6\pdl\drivers\peripheral\i2s/cy_i2s.h **** * Clears one or more interrupt factors (sets the INTR register).
 979:Generated_Source\PSoC6\pdl\drivers\peripheral\i2s/cy_i2s.h **** *
 980:Generated_Source\PSoC6\pdl\drivers\peripheral\i2s/cy_i2s.h **** * \param base      The pointer to the I2S instance address.
 981:Generated_Source\PSoC6\pdl\drivers\peripheral\i2s/cy_i2s.h **** *
 982:Generated_Source\PSoC6\pdl\drivers\peripheral\i2s/cy_i2s.h **** * \param interrupt Interrupt bit mask \ref group_i2s_macros_intrerrupt_masks.
 983:Generated_Source\PSoC6\pdl\drivers\peripheral\i2s/cy_i2s.h **** *
 984:Generated_Source\PSoC6\pdl\drivers\peripheral\i2s/cy_i2s.h **** * \funcusage
 985:Generated_Source\PSoC6\pdl\drivers\peripheral\i2s/cy_i2s.h **** * \snippet i2s/i2s_v2_0_sut_00.cydsn/main_cm4.c snippet_Cy_I2S_ClearInterrupt
 986:Generated_Source\PSoC6\pdl\drivers\peripheral\i2s/cy_i2s.h **** *
 987:Generated_Source\PSoC6\pdl\drivers\peripheral\i2s/cy_i2s.h **** *******************************************************************************/
 988:Generated_Source\PSoC6\pdl\drivers\peripheral\i2s/cy_i2s.h **** __STATIC_INLINE void Cy_I2S_ClearInterrupt(I2S_Type * base, uint32_t interrupt)
 989:Generated_Source\PSoC6\pdl\drivers\peripheral\i2s/cy_i2s.h **** {
 409              		.loc 1 989 0
 410              		.cfi_startproc
 411              		@ args = 0, pretend = 0, frame = 8
 412              		@ frame_needed = 1, uses_anonymous_args = 0
 413 0000 80B5     		push	{r7, lr}
 414              		.cfi_def_cfa_offset 8
 415              		.cfi_offset 7, -8
 416              		.cfi_offset 14, -4
 417 0002 82B0     		sub	sp, sp, #8
 418              		.cfi_def_cfa_offset 16
 419 0004 00AF     		add	r7, sp, #0
 420              		.cfi_def_cfa_register 7
 421 0006 7860     		str	r0, [r7, #4]
 422 0008 3960     		str	r1, [r7]
 990:Generated_Source\PSoC6\pdl\drivers\peripheral\i2s/cy_i2s.h ****     CY_ASSERT_L2(CY_I2S_IS_INTR_MASK_VALID(interrupt));
 423              		.loc 1 990 0
 424 000a 3A68     		ldr	r2, [r7]
 425 000c 094B     		ldr	r3, .L13
 426 000e 1340     		ands	r3, r3, r2
 427 0010 002B     		cmp	r3, #0
 428 0012 04D0     		beq	.L12
ARM GAS  C:\Users\ikomb\AppData\Local\Temp\cchnbsea.s 			page 26


 429              		.loc 1 990 0 is_stmt 0 discriminator 1
 430 0014 40F2DE31 		movw	r1, #990
 431 0018 0748     		ldr	r0, .L13+4
 432 001a FFF7FEFF 		bl	Cy_SysLib_AssertFailed
 433              	.L12:
 991:Generated_Source\PSoC6\pdl\drivers\peripheral\i2s/cy_i2s.h ****     base->INTR = interrupt;
 434              		.loc 1 991 0 is_stmt 1
 435 001e 7B68     		ldr	r3, [r7, #4]
 436 0020 3A68     		ldr	r2, [r7]
 437 0022 C3F8002F 		str	r2, [r3, #3840]
 992:Generated_Source\PSoC6\pdl\drivers\peripheral\i2s/cy_i2s.h ****     (void) base->INTR;
 438              		.loc 1 992 0
 439 0026 7B68     		ldr	r3, [r7, #4]
 440 0028 D3F8003F 		ldr	r3, [r3, #3840]
 993:Generated_Source\PSoC6\pdl\drivers\peripheral\i2s/cy_i2s.h **** }
 441              		.loc 1 993 0
 442 002c 00BF     		nop
 443 002e 0837     		adds	r7, r7, #8
 444              		.cfi_def_cfa_offset 8
 445 0030 BD46     		mov	sp, r7
 446              		.cfi_def_cfa_register 13
 447              		@ sp needed
 448 0032 80BD     		pop	{r7, pc}
 449              	.L14:
 450              		.align	2
 451              	.L13:
 452 0034 8CFE92FE 		.word	-23921012
 453 0038 00000000 		.word	.LC0
 454              		.cfi_endproc
 455              	.LFE181:
 456              		.size	Cy_I2S_ClearInterrupt, .-Cy_I2S_ClearInterrupt
 457              		.section	.text.Cy_I2S_GetInterruptMask,"ax",%progbits
 458              		.align	2
 459              		.thumb
 460              		.thumb_func
 461              		.type	Cy_I2S_GetInterruptMask, %function
 462              	Cy_I2S_GetInterruptMask:
 463              	.LFB183:
 994:Generated_Source\PSoC6\pdl\drivers\peripheral\i2s/cy_i2s.h **** 
 995:Generated_Source\PSoC6\pdl\drivers\peripheral\i2s/cy_i2s.h **** 
 996:Generated_Source\PSoC6\pdl\drivers\peripheral\i2s/cy_i2s.h **** /*******************************************************************************
 997:Generated_Source\PSoC6\pdl\drivers\peripheral\i2s/cy_i2s.h **** * Function Name: Cy_I2S_SetInterrupt
 998:Generated_Source\PSoC6\pdl\drivers\peripheral\i2s/cy_i2s.h **** ****************************************************************************//**
 999:Generated_Source\PSoC6\pdl\drivers\peripheral\i2s/cy_i2s.h **** *
1000:Generated_Source\PSoC6\pdl\drivers\peripheral\i2s/cy_i2s.h **** * Sets one or more interrupt factors (sets the INTR_SET register).
1001:Generated_Source\PSoC6\pdl\drivers\peripheral\i2s/cy_i2s.h **** *
1002:Generated_Source\PSoC6\pdl\drivers\peripheral\i2s/cy_i2s.h **** * \param base      The pointer to the I2S instance address.
1003:Generated_Source\PSoC6\pdl\drivers\peripheral\i2s/cy_i2s.h **** *
1004:Generated_Source\PSoC6\pdl\drivers\peripheral\i2s/cy_i2s.h **** * \param interrupt Interrupt bit mask \ref group_i2s_macros_intrerrupt_masks.
1005:Generated_Source\PSoC6\pdl\drivers\peripheral\i2s/cy_i2s.h **** *
1006:Generated_Source\PSoC6\pdl\drivers\peripheral\i2s/cy_i2s.h **** * \funcusage
1007:Generated_Source\PSoC6\pdl\drivers\peripheral\i2s/cy_i2s.h **** * \snippet i2s/i2s_v2_0_sut_00.cydsn/main_cm4.c snippet_Cy_I2S_SetInterrupt
1008:Generated_Source\PSoC6\pdl\drivers\peripheral\i2s/cy_i2s.h **** *
1009:Generated_Source\PSoC6\pdl\drivers\peripheral\i2s/cy_i2s.h **** *******************************************************************************/
1010:Generated_Source\PSoC6\pdl\drivers\peripheral\i2s/cy_i2s.h **** __STATIC_INLINE void Cy_I2S_SetInterrupt(I2S_Type * base, uint32_t interrupt)
1011:Generated_Source\PSoC6\pdl\drivers\peripheral\i2s/cy_i2s.h **** {
1012:Generated_Source\PSoC6\pdl\drivers\peripheral\i2s/cy_i2s.h ****     CY_ASSERT_L2(CY_I2S_IS_INTR_MASK_VALID(interrupt));
ARM GAS  C:\Users\ikomb\AppData\Local\Temp\cchnbsea.s 			page 27


1013:Generated_Source\PSoC6\pdl\drivers\peripheral\i2s/cy_i2s.h ****     base->INTR_SET = interrupt;
1014:Generated_Source\PSoC6\pdl\drivers\peripheral\i2s/cy_i2s.h **** }
1015:Generated_Source\PSoC6\pdl\drivers\peripheral\i2s/cy_i2s.h **** 
1016:Generated_Source\PSoC6\pdl\drivers\peripheral\i2s/cy_i2s.h **** 
1017:Generated_Source\PSoC6\pdl\drivers\peripheral\i2s/cy_i2s.h **** /*******************************************************************************
1018:Generated_Source\PSoC6\pdl\drivers\peripheral\i2s/cy_i2s.h **** * Function Name: Cy_I2S_GetInterruptMask
1019:Generated_Source\PSoC6\pdl\drivers\peripheral\i2s/cy_i2s.h **** ****************************************************************************//**
1020:Generated_Source\PSoC6\pdl\drivers\peripheral\i2s/cy_i2s.h **** *
1021:Generated_Source\PSoC6\pdl\drivers\peripheral\i2s/cy_i2s.h **** * Returns the interrupt mask (a content of the INTR_MASK register).
1022:Generated_Source\PSoC6\pdl\drivers\peripheral\i2s/cy_i2s.h **** *
1023:Generated_Source\PSoC6\pdl\drivers\peripheral\i2s/cy_i2s.h **** * \param base The pointer to the I2S instance address.
1024:Generated_Source\PSoC6\pdl\drivers\peripheral\i2s/cy_i2s.h **** *
1025:Generated_Source\PSoC6\pdl\drivers\peripheral\i2s/cy_i2s.h **** * \return The interrupt bit mask \ref group_i2s_macros_intrerrupt_masks.
1026:Generated_Source\PSoC6\pdl\drivers\peripheral\i2s/cy_i2s.h **** *
1027:Generated_Source\PSoC6\pdl\drivers\peripheral\i2s/cy_i2s.h **** * \funcusage
1028:Generated_Source\PSoC6\pdl\drivers\peripheral\i2s/cy_i2s.h **** * \snippet i2s/i2s_v2_0_sut_00.cydsn/main_cm4.c snippet_Cy_I2S_GetInterruptMask
1029:Generated_Source\PSoC6\pdl\drivers\peripheral\i2s/cy_i2s.h **** *
1030:Generated_Source\PSoC6\pdl\drivers\peripheral\i2s/cy_i2s.h **** *******************************************************************************/
1031:Generated_Source\PSoC6\pdl\drivers\peripheral\i2s/cy_i2s.h **** __STATIC_INLINE uint32_t Cy_I2S_GetInterruptMask(I2S_Type const * base)
1032:Generated_Source\PSoC6\pdl\drivers\peripheral\i2s/cy_i2s.h **** {
 464              		.loc 1 1032 0
 465              		.cfi_startproc
 466              		@ args = 0, pretend = 0, frame = 8
 467              		@ frame_needed = 1, uses_anonymous_args = 0
 468              		@ link register save eliminated.
 469 0000 80B4     		push	{r7}
 470              		.cfi_def_cfa_offset 4
 471              		.cfi_offset 7, -4
 472 0002 83B0     		sub	sp, sp, #12
 473              		.cfi_def_cfa_offset 16
 474 0004 00AF     		add	r7, sp, #0
 475              		.cfi_def_cfa_register 7
 476 0006 7860     		str	r0, [r7, #4]
1033:Generated_Source\PSoC6\pdl\drivers\peripheral\i2s/cy_i2s.h ****     return (base->INTR_MASK);
 477              		.loc 1 1033 0
 478 0008 7B68     		ldr	r3, [r7, #4]
 479 000a D3F8083F 		ldr	r3, [r3, #3848]
1034:Generated_Source\PSoC6\pdl\drivers\peripheral\i2s/cy_i2s.h **** }
 480              		.loc 1 1034 0
 481 000e 1846     		mov	r0, r3
 482 0010 0C37     		adds	r7, r7, #12
 483              		.cfi_def_cfa_offset 4
 484 0012 BD46     		mov	sp, r7
 485              		.cfi_def_cfa_register 13
 486              		@ sp needed
 487 0014 5DF8047B 		ldr	r7, [sp], #4
 488              		.cfi_restore 7
 489              		.cfi_def_cfa_offset 0
 490 0018 7047     		bx	lr
 491              		.cfi_endproc
 492              	.LFE183:
 493              		.size	Cy_I2S_GetInterruptMask, .-Cy_I2S_GetInterruptMask
 494 001a 00BF     		.section	.text.Cy_I2S_SetInterruptMask,"ax",%progbits
 495              		.align	2
 496              		.thumb
 497              		.thumb_func
 498              		.type	Cy_I2S_SetInterruptMask, %function
ARM GAS  C:\Users\ikomb\AppData\Local\Temp\cchnbsea.s 			page 28


 499              	Cy_I2S_SetInterruptMask:
 500              	.LFB184:
1035:Generated_Source\PSoC6\pdl\drivers\peripheral\i2s/cy_i2s.h **** 
1036:Generated_Source\PSoC6\pdl\drivers\peripheral\i2s/cy_i2s.h **** 
1037:Generated_Source\PSoC6\pdl\drivers\peripheral\i2s/cy_i2s.h **** /*******************************************************************************
1038:Generated_Source\PSoC6\pdl\drivers\peripheral\i2s/cy_i2s.h **** * Function Name: Cy_I2S_SetInterruptMask
1039:Generated_Source\PSoC6\pdl\drivers\peripheral\i2s/cy_i2s.h **** ****************************************************************************//**
1040:Generated_Source\PSoC6\pdl\drivers\peripheral\i2s/cy_i2s.h **** *
1041:Generated_Source\PSoC6\pdl\drivers\peripheral\i2s/cy_i2s.h **** * Sets one or more interrupt factor masks (the INTR_MASK register).
1042:Generated_Source\PSoC6\pdl\drivers\peripheral\i2s/cy_i2s.h **** *
1043:Generated_Source\PSoC6\pdl\drivers\peripheral\i2s/cy_i2s.h **** * \param base      The pointer to the I2S instance address.
1044:Generated_Source\PSoC6\pdl\drivers\peripheral\i2s/cy_i2s.h **** *
1045:Generated_Source\PSoC6\pdl\drivers\peripheral\i2s/cy_i2s.h **** * \param interrupt Interrupt bit mask \ref group_i2s_macros_intrerrupt_masks.
1046:Generated_Source\PSoC6\pdl\drivers\peripheral\i2s/cy_i2s.h **** *
1047:Generated_Source\PSoC6\pdl\drivers\peripheral\i2s/cy_i2s.h **** * \funcusage
1048:Generated_Source\PSoC6\pdl\drivers\peripheral\i2s/cy_i2s.h **** * \snippet i2s/i2s_v2_0_sut_00.cydsn/main_cm4.c snippet_Cy_I2S_SetInterruptMask
1049:Generated_Source\PSoC6\pdl\drivers\peripheral\i2s/cy_i2s.h **** *
1050:Generated_Source\PSoC6\pdl\drivers\peripheral\i2s/cy_i2s.h **** *******************************************************************************/
1051:Generated_Source\PSoC6\pdl\drivers\peripheral\i2s/cy_i2s.h **** __STATIC_INLINE void Cy_I2S_SetInterruptMask(I2S_Type * base, uint32_t interrupt)
1052:Generated_Source\PSoC6\pdl\drivers\peripheral\i2s/cy_i2s.h **** {
 501              		.loc 1 1052 0
 502              		.cfi_startproc
 503              		@ args = 0, pretend = 0, frame = 8
 504              		@ frame_needed = 1, uses_anonymous_args = 0
 505 0000 80B5     		push	{r7, lr}
 506              		.cfi_def_cfa_offset 8
 507              		.cfi_offset 7, -8
 508              		.cfi_offset 14, -4
 509 0002 82B0     		sub	sp, sp, #8
 510              		.cfi_def_cfa_offset 16
 511 0004 00AF     		add	r7, sp, #0
 512              		.cfi_def_cfa_register 7
 513 0006 7860     		str	r0, [r7, #4]
 514 0008 3960     		str	r1, [r7]
1053:Generated_Source\PSoC6\pdl\drivers\peripheral\i2s/cy_i2s.h ****     CY_ASSERT_L2(CY_I2S_IS_INTR_MASK_VALID(interrupt));
 515              		.loc 1 1053 0
 516 000a 3A68     		ldr	r2, [r7]
 517 000c 084B     		ldr	r3, .L19
 518 000e 1340     		ands	r3, r3, r2
 519 0010 002B     		cmp	r3, #0
 520 0012 04D0     		beq	.L18
 521              		.loc 1 1053 0 is_stmt 0 discriminator 1
 522 0014 40F21D41 		movw	r1, #1053
 523 0018 0648     		ldr	r0, .L19+4
 524 001a FFF7FEFF 		bl	Cy_SysLib_AssertFailed
 525              	.L18:
1054:Generated_Source\PSoC6\pdl\drivers\peripheral\i2s/cy_i2s.h ****     base->INTR_MASK = interrupt;
 526              		.loc 1 1054 0 is_stmt 1
 527 001e 7B68     		ldr	r3, [r7, #4]
 528 0020 3A68     		ldr	r2, [r7]
 529 0022 C3F8082F 		str	r2, [r3, #3848]
1055:Generated_Source\PSoC6\pdl\drivers\peripheral\i2s/cy_i2s.h **** }
 530              		.loc 1 1055 0
 531 0026 00BF     		nop
 532 0028 0837     		adds	r7, r7, #8
 533              		.cfi_def_cfa_offset 8
 534 002a BD46     		mov	sp, r7
ARM GAS  C:\Users\ikomb\AppData\Local\Temp\cchnbsea.s 			page 29


 535              		.cfi_def_cfa_register 13
 536              		@ sp needed
 537 002c 80BD     		pop	{r7, pc}
 538              	.L20:
 539 002e 00BF     		.align	2
 540              	.L19:
 541 0030 8CFE92FE 		.word	-23921012
 542 0034 00000000 		.word	.LC0
 543              		.cfi_endproc
 544              	.LFE184:
 545              		.size	Cy_I2S_SetInterruptMask, .-Cy_I2S_SetInterruptMask
 546              		.section	.rodata
 547 003b 00       		.align	2
 548              	.LC1:
 549 003c 47656E65 		.ascii	"Generated_Source\\PSoC6\\pdl\\drivers\\peripheral\\"
 549      72617465 
 549      645F536F 
 549      75726365 
 549      5C50536F 
 550 006a 6932735C 		.ascii	"i2s\\cy_i2s.c\000"
 550      63795F69 
 550      32732E63 
 550      00
 551              		.section	.text.Cy_I2S_Init,"ax",%progbits
 552              		.align	2
 553              		.global	Cy_I2S_Init
 554              		.thumb
 555              		.thumb_func
 556              		.type	Cy_I2S_Init, %function
 557              	Cy_I2S_Init:
 558              	.LFB186:
 559              		.file 2 "Generated_Source\\PSoC6\\pdl\\drivers\\peripheral\\i2s\\cy_i2s.c"
   1:Generated_Source\PSoC6\pdl\drivers\peripheral\i2s/cy_i2s.c **** /***************************************************************************//**
   2:Generated_Source\PSoC6\pdl\drivers\peripheral\i2s/cy_i2s.c **** * \file cy_i2s.c
   3:Generated_Source\PSoC6\pdl\drivers\peripheral\i2s/cy_i2s.c **** * \version 2.0.1
   4:Generated_Source\PSoC6\pdl\drivers\peripheral\i2s/cy_i2s.c **** *
   5:Generated_Source\PSoC6\pdl\drivers\peripheral\i2s/cy_i2s.c **** * The source code file for the I2S driver.
   6:Generated_Source\PSoC6\pdl\drivers\peripheral\i2s/cy_i2s.c **** *
   7:Generated_Source\PSoC6\pdl\drivers\peripheral\i2s/cy_i2s.c **** ********************************************************************************
   8:Generated_Source\PSoC6\pdl\drivers\peripheral\i2s/cy_i2s.c **** * \copyright
   9:Generated_Source\PSoC6\pdl\drivers\peripheral\i2s/cy_i2s.c **** * Copyright 2016-2018, Cypress Semiconductor Corporation. All rights reserved.
  10:Generated_Source\PSoC6\pdl\drivers\peripheral\i2s/cy_i2s.c **** * You may use this file only in accordance with the license, terms, conditions,
  11:Generated_Source\PSoC6\pdl\drivers\peripheral\i2s/cy_i2s.c **** * disclaimers, and limitations in the end user license agreement accompanying
  12:Generated_Source\PSoC6\pdl\drivers\peripheral\i2s/cy_i2s.c **** * the software package with which this file was provided.
  13:Generated_Source\PSoC6\pdl\drivers\peripheral\i2s/cy_i2s.c **** *******************************************************************************/
  14:Generated_Source\PSoC6\pdl\drivers\peripheral\i2s/cy_i2s.c **** 
  15:Generated_Source\PSoC6\pdl\drivers\peripheral\i2s/cy_i2s.c **** #include "cy_i2s.h"
  16:Generated_Source\PSoC6\pdl\drivers\peripheral\i2s/cy_i2s.c **** 
  17:Generated_Source\PSoC6\pdl\drivers\peripheral\i2s/cy_i2s.c **** #ifdef __cplusplus
  18:Generated_Source\PSoC6\pdl\drivers\peripheral\i2s/cy_i2s.c **** extern "C" {
  19:Generated_Source\PSoC6\pdl\drivers\peripheral\i2s/cy_i2s.c **** #endif
  20:Generated_Source\PSoC6\pdl\drivers\peripheral\i2s/cy_i2s.c **** 
  21:Generated_Source\PSoC6\pdl\drivers\peripheral\i2s/cy_i2s.c **** 
  22:Generated_Source\PSoC6\pdl\drivers\peripheral\i2s/cy_i2s.c **** /*******************************************************************************
  23:Generated_Source\PSoC6\pdl\drivers\peripheral\i2s/cy_i2s.c **** * Function Name: Cy_I2S_Init
  24:Generated_Source\PSoC6\pdl\drivers\peripheral\i2s/cy_i2s.c **** ****************************************************************************//**
  25:Generated_Source\PSoC6\pdl\drivers\peripheral\i2s/cy_i2s.c **** *
ARM GAS  C:\Users\ikomb\AppData\Local\Temp\cchnbsea.s 			page 30


  26:Generated_Source\PSoC6\pdl\drivers\peripheral\i2s/cy_i2s.c **** * Initializes the I2S module in accordance with a configuration structure.
  27:Generated_Source\PSoC6\pdl\drivers\peripheral\i2s/cy_i2s.c **** *
  28:Generated_Source\PSoC6\pdl\drivers\peripheral\i2s/cy_i2s.c **** * \pre If the I2S module is initialized previously, the \ref Cy_I2S_DeInit()
  29:Generated_Source\PSoC6\pdl\drivers\peripheral\i2s/cy_i2s.c **** * must be called before calling this function.
  30:Generated_Source\PSoC6\pdl\drivers\peripheral\i2s/cy_i2s.c **** *
  31:Generated_Source\PSoC6\pdl\drivers\peripheral\i2s/cy_i2s.c **** * \param base      The pointer to the I2S instance address.
  32:Generated_Source\PSoC6\pdl\drivers\peripheral\i2s/cy_i2s.c **** *
  33:Generated_Source\PSoC6\pdl\drivers\peripheral\i2s/cy_i2s.c **** * \param config    The pointer to a configuration structure.
  34:Generated_Source\PSoC6\pdl\drivers\peripheral\i2s/cy_i2s.c **** *
  35:Generated_Source\PSoC6\pdl\drivers\peripheral\i2s/cy_i2s.c **** * \return error / status code. See \ref cy_en_i2s_status_t.
  36:Generated_Source\PSoC6\pdl\drivers\peripheral\i2s/cy_i2s.c **** *
  37:Generated_Source\PSoC6\pdl\drivers\peripheral\i2s/cy_i2s.c **** * \funcusage
  38:Generated_Source\PSoC6\pdl\drivers\peripheral\i2s/cy_i2s.c **** * \snippet i2s/i2s_v2_0_sut_00.cydsn/main_cm4.c snippet_Cy_I2S_Init
  39:Generated_Source\PSoC6\pdl\drivers\peripheral\i2s/cy_i2s.c **** *
  40:Generated_Source\PSoC6\pdl\drivers\peripheral\i2s/cy_i2s.c **** *******************************************************************************/
  41:Generated_Source\PSoC6\pdl\drivers\peripheral\i2s/cy_i2s.c **** cy_en_i2s_status_t Cy_I2S_Init(I2S_Type * base, cy_stc_i2s_config_t const * config)
  42:Generated_Source\PSoC6\pdl\drivers\peripheral\i2s/cy_i2s.c **** {
 560              		.loc 2 42 0
 561              		.cfi_startproc
 562              		@ args = 0, pretend = 0, frame = 24
 563              		@ frame_needed = 1, uses_anonymous_args = 0
 564 0000 80B5     		push	{r7, lr}
 565              		.cfi_def_cfa_offset 8
 566              		.cfi_offset 7, -8
 567              		.cfi_offset 14, -4
 568 0002 86B0     		sub	sp, sp, #24
 569              		.cfi_def_cfa_offset 32
 570 0004 00AF     		add	r7, sp, #0
 571              		.cfi_def_cfa_register 7
 572 0006 7860     		str	r0, [r7, #4]
 573 0008 3960     		str	r1, [r7]
  43:Generated_Source\PSoC6\pdl\drivers\peripheral\i2s/cy_i2s.c ****     cy_en_i2s_status_t ret = CY_I2S_BAD_PARAM;
 574              		.loc 2 43 0
 575 000a 864B     		ldr	r3, .L84
 576 000c 7B61     		str	r3, [r7, #20]
  44:Generated_Source\PSoC6\pdl\drivers\peripheral\i2s/cy_i2s.c ****     
  45:Generated_Source\PSoC6\pdl\drivers\peripheral\i2s/cy_i2s.c ****     if((NULL != base) && (NULL != config))
 577              		.loc 2 45 0
 578 000e 7B68     		ldr	r3, [r7, #4]
 579 0010 002B     		cmp	r3, #0
 580 0012 00F07082 		beq	.L22
 581              		.loc 2 45 0 is_stmt 0 discriminator 1
 582 0016 3B68     		ldr	r3, [r7]
 583 0018 002B     		cmp	r3, #0
 584 001a 00F06C82 		beq	.L22
 585              	.LBB2:
  46:Generated_Source\PSoC6\pdl\drivers\peripheral\i2s/cy_i2s.c ****     {
  47:Generated_Source\PSoC6\pdl\drivers\peripheral\i2s/cy_i2s.c ****         cy_en_i2s_ws_pw_t wsPulseWidth;
  48:Generated_Source\PSoC6\pdl\drivers\peripheral\i2s/cy_i2s.c ****         cy_en_i2s_len_t channelLength;
  49:Generated_Source\PSoC6\pdl\drivers\peripheral\i2s/cy_i2s.c ****         uint32_t channels;
  50:Generated_Source\PSoC6\pdl\drivers\peripheral\i2s/cy_i2s.c ****         uint32_t clockDiv = (uint32_t)config->clkDiv - 1U;
 586              		.loc 2 50 0 is_stmt 1
 587 001e 3B68     		ldr	r3, [r7]
 588 0020 1B79     		ldrb	r3, [r3, #4]	@ zero_extendqisi2
 589 0022 013B     		subs	r3, r3, #1
 590 0024 BB60     		str	r3, [r7, #8]
  51:Generated_Source\PSoC6\pdl\drivers\peripheral\i2s/cy_i2s.c ****         
ARM GAS  C:\Users\ikomb\AppData\Local\Temp\cchnbsea.s 			page 31


  52:Generated_Source\PSoC6\pdl\drivers\peripheral\i2s/cy_i2s.c ****         CY_ASSERT_L2(CY_I2S_IS_CLK_DIV_VALID(clockDiv));
 591              		.loc 2 52 0
 592 0026 BB68     		ldr	r3, [r7, #8]
 593 0028 3F2B     		cmp	r3, #63
 594 002a 03D9     		bls	.L23
 595              		.loc 2 52 0 is_stmt 0 discriminator 1
 596 002c 3421     		movs	r1, #52
 597 002e 7E48     		ldr	r0, .L84+4
 598 0030 FFF7FEFF 		bl	Cy_SysLib_AssertFailed
 599              	.L23:
  53:Generated_Source\PSoC6\pdl\drivers\peripheral\i2s/cy_i2s.c ****         
  54:Generated_Source\PSoC6\pdl\drivers\peripheral\i2s/cy_i2s.c ****         /* The clock setting */
  55:Generated_Source\PSoC6\pdl\drivers\peripheral\i2s/cy_i2s.c ****         base->CLOCK_CTL = _VAL2FLD(I2S_CLOCK_CTL_CLOCK_DIV, clockDiv) |
 600              		.loc 2 55 0 is_stmt 1
 601 0034 BB68     		ldr	r3, [r7, #8]
 602 0036 03F03F02 		and	r2, r3, #63
  56:Generated_Source\PSoC6\pdl\drivers\peripheral\i2s/cy_i2s.c ****                           _BOOL2FLD(I2S_CLOCK_CTL_CLOCK_SEL, config->extClk);
 603              		.loc 2 56 0
 604 003a 3B68     		ldr	r3, [r7]
 605 003c 5B79     		ldrb	r3, [r3, #5]	@ zero_extendqisi2
 606 003e 002B     		cmp	r3, #0
 607 0040 02D0     		beq	.L24
 608              		.loc 2 56 0 is_stmt 0 discriminator 1
 609 0042 4FF48073 		mov	r3, #256
 610 0046 00E0     		b	.L25
 611              	.L24:
 612              		.loc 2 56 0 discriminator 2
 613 0048 0023     		movs	r3, #0
 614              	.L25:
  55:Generated_Source\PSoC6\pdl\drivers\peripheral\i2s/cy_i2s.c ****                           _BOOL2FLD(I2S_CLOCK_CTL_CLOCK_SEL, config->extClk);
 615              		.loc 2 55 0 is_stmt 1
 616 004a 1A43     		orrs	r2, r2, r3
 617 004c 7B68     		ldr	r3, [r7, #4]
 618 004e 1A61     		str	r2, [r3, #16]
  57:Generated_Source\PSoC6\pdl\drivers\peripheral\i2s/cy_i2s.c **** 
  58:Generated_Source\PSoC6\pdl\drivers\peripheral\i2s/cy_i2s.c ****         /* The Tx setting */
  59:Generated_Source\PSoC6\pdl\drivers\peripheral\i2s/cy_i2s.c ****         if (config->txEnabled)
 619              		.loc 2 59 0
 620 0050 3B68     		ldr	r3, [r7]
 621 0052 1B78     		ldrb	r3, [r3]	@ zero_extendqisi2
 622 0054 002B     		cmp	r3, #0
 623 0056 00F0FF80 		beq	.L26
  60:Generated_Source\PSoC6\pdl\drivers\peripheral\i2s/cy_i2s.c ****         {
  61:Generated_Source\PSoC6\pdl\drivers\peripheral\i2s/cy_i2s.c ****             CY_ASSERT_L3(CY_I2S_IS_ALIGNMENT_VALID(config->txAlignment));
 624              		.loc 2 61 0
 625 005a 3B68     		ldr	r3, [r7]
 626 005c DB79     		ldrb	r3, [r3, #7]	@ zero_extendqisi2
 627 005e 002B     		cmp	r3, #0
 628 0060 0FD0     		beq	.L27
 629              		.loc 2 61 0 is_stmt 0 discriminator 1
 630 0062 3B68     		ldr	r3, [r7]
 631 0064 DB79     		ldrb	r3, [r3, #7]	@ zero_extendqisi2
 632 0066 012B     		cmp	r3, #1
 633 0068 0BD0     		beq	.L27
 634              		.loc 2 61 0 discriminator 2
 635 006a 3B68     		ldr	r3, [r7]
 636 006c DB79     		ldrb	r3, [r3, #7]	@ zero_extendqisi2
ARM GAS  C:\Users\ikomb\AppData\Local\Temp\cchnbsea.s 			page 32


 637 006e 022B     		cmp	r3, #2
 638 0070 07D0     		beq	.L27
 639              		.loc 2 61 0 discriminator 3
 640 0072 3B68     		ldr	r3, [r7]
 641 0074 DB79     		ldrb	r3, [r3, #7]	@ zero_extendqisi2
 642 0076 032B     		cmp	r3, #3
 643 0078 03D0     		beq	.L27
 644              		.loc 2 61 0 discriminator 4
 645 007a 3D21     		movs	r1, #61
 646 007c 6A48     		ldr	r0, .L84+4
 647 007e FFF7FEFF 		bl	Cy_SysLib_AssertFailed
 648              	.L27:
  62:Generated_Source\PSoC6\pdl\drivers\peripheral\i2s/cy_i2s.c ****             CY_ASSERT_L3(CY_I2S_IS_OVHDATA_VALID(config->txOverheadValue));
 649              		.loc 2 62 0 is_stmt 1
 650 0082 3B68     		ldr	r3, [r7]
 651 0084 9B7D     		ldrb	r3, [r3, #22]	@ zero_extendqisi2
 652 0086 002B     		cmp	r3, #0
 653 0088 07D0     		beq	.L28
 654              		.loc 2 62 0 is_stmt 0 discriminator 1
 655 008a 3B68     		ldr	r3, [r7]
 656 008c 9B7D     		ldrb	r3, [r3, #22]	@ zero_extendqisi2
 657 008e 012B     		cmp	r3, #1
 658 0090 03D0     		beq	.L28
 659              		.loc 2 62 0 discriminator 2
 660 0092 3E21     		movs	r1, #62
 661 0094 6448     		ldr	r0, .L84+4
 662 0096 FFF7FEFF 		bl	Cy_SysLib_AssertFailed
 663              	.L28:
  63:Generated_Source\PSoC6\pdl\drivers\peripheral\i2s/cy_i2s.c ****             
  64:Generated_Source\PSoC6\pdl\drivers\peripheral\i2s/cy_i2s.c ****             if ((CY_I2S_TDM_MODE_A == config->txAlignment) || (CY_I2S_TDM_MODE_B == config->txAlign
 664              		.loc 2 64 0 is_stmt 1
 665 009a 3B68     		ldr	r3, [r7]
 666 009c DB79     		ldrb	r3, [r3, #7]	@ zero_extendqisi2
 667 009e 022B     		cmp	r3, #2
 668 00a0 03D0     		beq	.L29
 669              		.loc 2 64 0 is_stmt 0 discriminator 1
 670 00a2 3B68     		ldr	r3, [r7]
 671 00a4 DB79     		ldrb	r3, [r3, #7]	@ zero_extendqisi2
 672 00a6 032B     		cmp	r3, #3
 673 00a8 36D1     		bne	.L30
 674              	.L29:
  65:Generated_Source\PSoC6\pdl\drivers\peripheral\i2s/cy_i2s.c ****             {
  66:Generated_Source\PSoC6\pdl\drivers\peripheral\i2s/cy_i2s.c ****                 channels = (uint32_t)config->txChannels - 1UL;
 675              		.loc 2 66 0 is_stmt 1
 676 00aa 3B68     		ldr	r3, [r7]
 677 00ac DB7C     		ldrb	r3, [r3, #19]	@ zero_extendqisi2
 678 00ae 013B     		subs	r3, r3, #1
 679 00b0 FB60     		str	r3, [r7, #12]
  67:Generated_Source\PSoC6\pdl\drivers\peripheral\i2s/cy_i2s.c ****                 wsPulseWidth = config->txWsPulseWidth;
 680              		.loc 2 67 0
 681 00b2 3B68     		ldr	r3, [r7]
 682 00b4 1B7A     		ldrb	r3, [r3, #8]
 683 00b6 FB74     		strb	r3, [r7, #19]
  68:Generated_Source\PSoC6\pdl\drivers\peripheral\i2s/cy_i2s.c ****                 channelLength = CY_I2S_LEN32;
 684              		.loc 2 68 0
 685 00b8 0523     		movs	r3, #5
 686 00ba BB74     		strb	r3, [r7, #18]
ARM GAS  C:\Users\ikomb\AppData\Local\Temp\cchnbsea.s 			page 33


  69:Generated_Source\PSoC6\pdl\drivers\peripheral\i2s/cy_i2s.c ****                 
  70:Generated_Source\PSoC6\pdl\drivers\peripheral\i2s/cy_i2s.c ****                 CY_ASSERT_L2(CY_I2S_IS_CHANNELS_VALID(channels));
 687              		.loc 2 70 0
 688 00bc FB68     		ldr	r3, [r7, #12]
 689 00be 072B     		cmp	r3, #7
 690 00c0 03D9     		bls	.L31
 691              		.loc 2 70 0 is_stmt 0 discriminator 1
 692 00c2 4621     		movs	r1, #70
 693 00c4 5848     		ldr	r0, .L84+4
 694 00c6 FFF7FEFF 		bl	Cy_SysLib_AssertFailed
 695              	.L31:
  71:Generated_Source\PSoC6\pdl\drivers\peripheral\i2s/cy_i2s.c ****                 CY_ASSERT_L3(CY_I2S_IS_WSPULSE_VALID(wsPulseWidth));
 696              		.loc 2 71 0 is_stmt 1
 697 00ca FB7C     		ldrb	r3, [r7, #19]	@ zero_extendqisi2
 698 00cc 002B     		cmp	r3, #0
 699 00ce 06D0     		beq	.L32
 700              		.loc 2 71 0 is_stmt 0 discriminator 1
 701 00d0 FB7C     		ldrb	r3, [r7, #19]	@ zero_extendqisi2
 702 00d2 012B     		cmp	r3, #1
 703 00d4 03D0     		beq	.L32
 704              		.loc 2 71 0 discriminator 2
 705 00d6 4721     		movs	r1, #71
 706 00d8 5348     		ldr	r0, .L84+4
 707 00da FFF7FEFF 		bl	Cy_SysLib_AssertFailed
 708              	.L32:
  72:Generated_Source\PSoC6\pdl\drivers\peripheral\i2s/cy_i2s.c ****                 CY_ASSERT_L3(CY_I2S_IS_LEN_VALID(config->txWordLength));
 709              		.loc 2 72 0 is_stmt 1
 710 00de 3B68     		ldr	r3, [r7]
 711 00e0 5B7D     		ldrb	r3, [r3, #21]	@ zero_extendqisi2
 712 00e2 002B     		cmp	r3, #0
 713 00e4 53D0     		beq	.L82
 714              		.loc 2 72 0 is_stmt 0 discriminator 1
 715 00e6 3B68     		ldr	r3, [r7]
 716 00e8 5B7D     		ldrb	r3, [r3, #21]	@ zero_extendqisi2
 717 00ea 012B     		cmp	r3, #1
 718 00ec 4FD0     		beq	.L82
 719              		.loc 2 72 0 discriminator 2
 720 00ee 3B68     		ldr	r3, [r7]
 721 00f0 5B7D     		ldrb	r3, [r3, #21]	@ zero_extendqisi2
 722 00f2 022B     		cmp	r3, #2
 723 00f4 4BD0     		beq	.L82
 724              		.loc 2 72 0 discriminator 3
 725 00f6 3B68     		ldr	r3, [r7]
 726 00f8 5B7D     		ldrb	r3, [r3, #21]	@ zero_extendqisi2
 727 00fa 032B     		cmp	r3, #3
 728 00fc 47D0     		beq	.L82
 729              		.loc 2 72 0 discriminator 4
 730 00fe 3B68     		ldr	r3, [r7]
 731 0100 5B7D     		ldrb	r3, [r3, #21]	@ zero_extendqisi2
 732 0102 042B     		cmp	r3, #4
 733 0104 43D0     		beq	.L82
 734              		.loc 2 72 0 discriminator 5
 735 0106 3B68     		ldr	r3, [r7]
 736 0108 5B7D     		ldrb	r3, [r3, #21]	@ zero_extendqisi2
 737 010a 052B     		cmp	r3, #5
 738 010c 3FD0     		beq	.L82
 739              		.loc 2 72 0 discriminator 6
ARM GAS  C:\Users\ikomb\AppData\Local\Temp\cchnbsea.s 			page 34


 740 010e 4821     		movs	r1, #72
 741 0110 4548     		ldr	r0, .L84+4
 742 0112 FFF7FEFF 		bl	Cy_SysLib_AssertFailed
 743 0116 3AE0     		b	.L82
 744              	.L30:
  73:Generated_Source\PSoC6\pdl\drivers\peripheral\i2s/cy_i2s.c ****             }
  74:Generated_Source\PSoC6\pdl\drivers\peripheral\i2s/cy_i2s.c ****             else
  75:Generated_Source\PSoC6\pdl\drivers\peripheral\i2s/cy_i2s.c ****             {
  76:Generated_Source\PSoC6\pdl\drivers\peripheral\i2s/cy_i2s.c ****                 channels = 1UL;
 745              		.loc 2 76 0 is_stmt 1
 746 0118 0123     		movs	r3, #1
 747 011a FB60     		str	r3, [r7, #12]
  77:Generated_Source\PSoC6\pdl\drivers\peripheral\i2s/cy_i2s.c ****                 wsPulseWidth = CY_I2S_WS_ONE_CHANNEL_LENGTH;
 748              		.loc 2 77 0
 749 011c 0123     		movs	r3, #1
 750 011e FB74     		strb	r3, [r7, #19]
  78:Generated_Source\PSoC6\pdl\drivers\peripheral\i2s/cy_i2s.c ****                 channelLength = config->txChannelLength;
 751              		.loc 2 78 0
 752 0120 3B68     		ldr	r3, [r7]
 753 0122 1B7D     		ldrb	r3, [r3, #20]
 754 0124 BB74     		strb	r3, [r7, #18]
  79:Generated_Source\PSoC6\pdl\drivers\peripheral\i2s/cy_i2s.c ****                 
  80:Generated_Source\PSoC6\pdl\drivers\peripheral\i2s/cy_i2s.c ****                 CY_ASSERT_L3(CY_I2S_IS_CHAN_WORD_VALID(channelLength, config->txWordLength));
 755              		.loc 2 80 0
 756 0126 BB7C     		ldrb	r3, [r7, #18]	@ zero_extendqisi2
 757 0128 002B     		cmp	r3, #0
 758 012a 0ED0     		beq	.L35
 759              		.loc 2 80 0 is_stmt 0 discriminator 1
 760 012c BB7C     		ldrb	r3, [r7, #18]	@ zero_extendqisi2
 761 012e 012B     		cmp	r3, #1
 762 0130 0BD0     		beq	.L35
 763              		.loc 2 80 0 discriminator 3
 764 0132 BB7C     		ldrb	r3, [r7, #18]	@ zero_extendqisi2
 765 0134 022B     		cmp	r3, #2
 766 0136 08D0     		beq	.L35
 767              		.loc 2 80 0 discriminator 5
 768 0138 BB7C     		ldrb	r3, [r7, #18]	@ zero_extendqisi2
 769 013a 032B     		cmp	r3, #3
 770 013c 05D0     		beq	.L35
 771              		.loc 2 80 0 discriminator 7
 772 013e BB7C     		ldrb	r3, [r7, #18]	@ zero_extendqisi2
 773 0140 042B     		cmp	r3, #4
 774 0142 02D0     		beq	.L35
 775              		.loc 2 80 0 discriminator 9
 776 0144 BB7C     		ldrb	r3, [r7, #18]	@ zero_extendqisi2
 777 0146 052B     		cmp	r3, #5
 778 0148 1CD1     		bne	.L36
 779              	.L35:
 780              		.loc 2 80 0 discriminator 12
 781 014a 3B68     		ldr	r3, [r7]
 782 014c 5B7D     		ldrb	r3, [r3, #21]	@ zero_extendqisi2
 783 014e 002B     		cmp	r3, #0
 784 0150 13D0     		beq	.L37
 785              		.loc 2 80 0 discriminator 13
 786 0152 3B68     		ldr	r3, [r7]
 787 0154 5B7D     		ldrb	r3, [r3, #21]	@ zero_extendqisi2
 788 0156 012B     		cmp	r3, #1
ARM GAS  C:\Users\ikomb\AppData\Local\Temp\cchnbsea.s 			page 35


 789 0158 0FD0     		beq	.L37
 790              		.loc 2 80 0 discriminator 15
 791 015a 3B68     		ldr	r3, [r7]
 792 015c 5B7D     		ldrb	r3, [r3, #21]	@ zero_extendqisi2
 793 015e 022B     		cmp	r3, #2
 794 0160 0BD0     		beq	.L37
 795              		.loc 2 80 0 discriminator 17
 796 0162 3B68     		ldr	r3, [r7]
 797 0164 5B7D     		ldrb	r3, [r3, #21]	@ zero_extendqisi2
 798 0166 032B     		cmp	r3, #3
 799 0168 07D0     		beq	.L37
 800              		.loc 2 80 0 discriminator 19
 801 016a 3B68     		ldr	r3, [r7]
 802 016c 5B7D     		ldrb	r3, [r3, #21]	@ zero_extendqisi2
 803 016e 042B     		cmp	r3, #4
 804 0170 03D0     		beq	.L37
 805              		.loc 2 80 0 discriminator 21
 806 0172 3B68     		ldr	r3, [r7]
 807 0174 5B7D     		ldrb	r3, [r3, #21]	@ zero_extendqisi2
 808 0176 052B     		cmp	r3, #5
 809 0178 04D1     		bne	.L36
 810              	.L37:
 811              		.loc 2 80 0 discriminator 24
 812 017a 3B68     		ldr	r3, [r7]
 813 017c 5B7D     		ldrb	r3, [r3, #21]	@ zero_extendqisi2
 814 017e BA7C     		ldrb	r2, [r7, #18]	@ zero_extendqisi2
 815 0180 9A42     		cmp	r2, r3
 816 0182 05D2     		bcs	.L34
 817              	.L36:
 818              		.loc 2 80 0 discriminator 25
 819 0184 5021     		movs	r1, #80
 820 0186 2848     		ldr	r0, .L84+4
 821 0188 FFF7FEFF 		bl	Cy_SysLib_AssertFailed
 822 018c 00E0     		b	.L34
 823              	.L82:
  72:Generated_Source\PSoC6\pdl\drivers\peripheral\i2s/cy_i2s.c ****             }
 824              		.loc 2 72 0 is_stmt 1
 825 018e 00BF     		nop
 826              	.L34:
  81:Generated_Source\PSoC6\pdl\drivers\peripheral\i2s/cy_i2s.c ****             }
  82:Generated_Source\PSoC6\pdl\drivers\peripheral\i2s/cy_i2s.c ****             
  83:Generated_Source\PSoC6\pdl\drivers\peripheral\i2s/cy_i2s.c ****             CY_ASSERT_L2(CY_I2S_IS_TRIG_LEVEL_VALID(config->txFifoTriggerLevel, channels));
 827              		.loc 2 83 0
 828 0190 3B68     		ldr	r3, [r7]
 829 0192 DB7D     		ldrb	r3, [r3, #23]	@ zero_extendqisi2
 830 0194 1A46     		mov	r2, r3
 831 0196 FB68     		ldr	r3, [r7, #12]
 832 0198 C3F1FF03 		rsb	r3, r3, #255
 833 019c 9A42     		cmp	r2, r3
 834 019e 03D9     		bls	.L38
 835              		.loc 2 83 0 is_stmt 0 discriminator 1
 836 01a0 5321     		movs	r1, #83
 837 01a2 2148     		ldr	r0, .L84+4
 838 01a4 FFF7FEFF 		bl	Cy_SysLib_AssertFailed
 839              	.L38:
  84:Generated_Source\PSoC6\pdl\drivers\peripheral\i2s/cy_i2s.c ****             
  85:Generated_Source\PSoC6\pdl\drivers\peripheral\i2s/cy_i2s.c ****             base->TX_WATCHDOG = config->txWatchdogValue;
ARM GAS  C:\Users\ikomb\AppData\Local\Temp\cchnbsea.s 			page 36


 840              		.loc 2 85 0 is_stmt 1
 841 01a8 3B68     		ldr	r3, [r7]
 842 01aa DA68     		ldr	r2, [r3, #12]
 843 01ac 7B68     		ldr	r3, [r7, #4]
 844 01ae C3F88420 		str	r2, [r3, #132]
  86:Generated_Source\PSoC6\pdl\drivers\peripheral\i2s/cy_i2s.c **** 
  87:Generated_Source\PSoC6\pdl\drivers\peripheral\i2s/cy_i2s.c ****             base->TX_CTL = _VAL2FLD(I2S_TX_CTL_I2S_MODE, config->txAlignment) |
 845              		.loc 2 87 0
 846 01b2 3B68     		ldr	r3, [r7]
 847 01b4 DB79     		ldrb	r3, [r3, #7]	@ zero_extendqisi2
 848 01b6 1B02     		lsls	r3, r3, #8
 849 01b8 03F44072 		and	r2, r3, #768
  88:Generated_Source\PSoC6\pdl\drivers\peripheral\i2s/cy_i2s.c ****                            _BOOL2FLD(I2S_TX_CTL_B_CLOCK_INV, config->txSdoLatchingTime) |
 850              		.loc 2 88 0
 851 01bc 3B68     		ldr	r3, [r7]
 852 01be 1B7C     		ldrb	r3, [r3, #16]	@ zero_extendqisi2
 853 01c0 002B     		cmp	r3, #0
 854 01c2 01D0     		beq	.L39
 855              		.loc 2 88 0 is_stmt 0 discriminator 1
 856 01c4 0823     		movs	r3, #8
 857 01c6 00E0     		b	.L40
 858              	.L39:
 859              		.loc 2 88 0 discriminator 2
 860 01c8 0023     		movs	r3, #0
 861              	.L40:
  87:Generated_Source\PSoC6\pdl\drivers\peripheral\i2s/cy_i2s.c ****                            _BOOL2FLD(I2S_TX_CTL_B_CLOCK_INV, config->txSdoLatchingTime) |
 862              		.loc 2 87 0 is_stmt 1
 863 01ca 1A43     		orrs	r2, r2, r3
  89:Generated_Source\PSoC6\pdl\drivers\peripheral\i2s/cy_i2s.c ****                            _VAL2FLD(I2S_TX_CTL_CH_NR, channels) |
 864              		.loc 2 89 0
 865 01cc FB68     		ldr	r3, [r7, #12]
 866 01ce 1B01     		lsls	r3, r3, #4
 867 01d0 03F07003 		and	r3, r3, #112
  88:Generated_Source\PSoC6\pdl\drivers\peripheral\i2s/cy_i2s.c ****                            _BOOL2FLD(I2S_TX_CTL_B_CLOCK_INV, config->txSdoLatchingTime) |
 868              		.loc 2 88 0
 869 01d4 1A43     		orrs	r2, r2, r3
  90:Generated_Source\PSoC6\pdl\drivers\peripheral\i2s/cy_i2s.c ****                            _BOOL2FLD(I2S_TX_CTL_MS, config->txMasterMode) |
 870              		.loc 2 90 0
 871 01d6 3B68     		ldr	r3, [r7]
 872 01d8 9B79     		ldrb	r3, [r3, #6]	@ zero_extendqisi2
 873 01da 002B     		cmp	r3, #0
 874 01dc 01D0     		beq	.L41
 875              		.loc 2 90 0 is_stmt 0 discriminator 1
 876 01de 8023     		movs	r3, #128
 877 01e0 00E0     		b	.L42
 878              	.L41:
 879              		.loc 2 90 0 discriminator 2
 880 01e2 0023     		movs	r3, #0
 881              	.L42:
  89:Generated_Source\PSoC6\pdl\drivers\peripheral\i2s/cy_i2s.c ****                            _VAL2FLD(I2S_TX_CTL_CH_NR, channels) |
 882              		.loc 2 89 0 is_stmt 1
 883 01e4 1A43     		orrs	r2, r2, r3
  91:Generated_Source\PSoC6\pdl\drivers\peripheral\i2s/cy_i2s.c ****                            _VAL2FLD(I2S_TX_CTL_WS_PULSE, wsPulseWidth) |
 884              		.loc 2 91 0
 885 01e6 FB7C     		ldrb	r3, [r7, #19]	@ zero_extendqisi2
 886 01e8 9B02     		lsls	r3, r3, #10
 887 01ea 03F48063 		and	r3, r3, #1024
ARM GAS  C:\Users\ikomb\AppData\Local\Temp\cchnbsea.s 			page 37


  90:Generated_Source\PSoC6\pdl\drivers\peripheral\i2s/cy_i2s.c ****                            _BOOL2FLD(I2S_TX_CTL_MS, config->txMasterMode) |
 888              		.loc 2 90 0
 889 01ee 1A43     		orrs	r2, r2, r3
  92:Generated_Source\PSoC6\pdl\drivers\peripheral\i2s/cy_i2s.c ****                            _BOOL2FLD(I2S_TX_CTL_WD_EN, config->txWatchdogEnable) |
 890              		.loc 2 92 0
 891 01f0 3B68     		ldr	r3, [r7]
 892 01f2 5B7A     		ldrb	r3, [r3, #9]	@ zero_extendqisi2
 893 01f4 002B     		cmp	r3, #0
 894 01f6 02D0     		beq	.L43
 895              		.loc 2 92 0 is_stmt 0 discriminator 1
 896 01f8 4FF40053 		mov	r3, #8192
 897 01fc 00E0     		b	.L44
 898              	.L43:
 899              		.loc 2 92 0 discriminator 2
 900 01fe 0023     		movs	r3, #0
 901              	.L44:
  91:Generated_Source\PSoC6\pdl\drivers\peripheral\i2s/cy_i2s.c ****                            _VAL2FLD(I2S_TX_CTL_WS_PULSE, wsPulseWidth) |
 902              		.loc 2 91 0 is_stmt 1
 903 0200 1A43     		orrs	r2, r2, r3
  93:Generated_Source\PSoC6\pdl\drivers\peripheral\i2s/cy_i2s.c ****                            _BOOL2FLD(I2S_TX_CTL_SCKO_POL, config->txSckoInversion) |
 904              		.loc 2 93 0
 905 0202 3B68     		ldr	r3, [r7]
 906 0204 5B7C     		ldrb	r3, [r3, #17]	@ zero_extendqisi2
 907 0206 002B     		cmp	r3, #0
 908 0208 02D0     		beq	.L45
 909              		.loc 2 93 0 is_stmt 0 discriminator 1
 910 020a 4FF08073 		mov	r3, #16777216
 911 020e 00E0     		b	.L46
 912              	.L45:
 913              		.loc 2 93 0 discriminator 2
 914 0210 0023     		movs	r3, #0
 915              	.L46:
  92:Generated_Source\PSoC6\pdl\drivers\peripheral\i2s/cy_i2s.c ****                            _BOOL2FLD(I2S_TX_CTL_WD_EN, config->txWatchdogEnable) |
 916              		.loc 2 92 0 is_stmt 1
 917 0212 1A43     		orrs	r2, r2, r3
  94:Generated_Source\PSoC6\pdl\drivers\peripheral\i2s/cy_i2s.c ****                            _BOOL2FLD(I2S_TX_CTL_SCKI_POL, config->txSckiInversion) |
 918              		.loc 2 94 0
 919 0214 3B68     		ldr	r3, [r7]
 920 0216 9B7C     		ldrb	r3, [r3, #18]	@ zero_extendqisi2
 921 0218 002B     		cmp	r3, #0
 922 021a 07D0     		beq	.L47
 923              		.loc 2 94 0 is_stmt 0 discriminator 1
 924 021c 4FF00073 		mov	r3, #33554432
 925 0220 05E0     		b	.L48
 926              	.L85:
 927 0222 00BF     		.align	2
 928              	.L84:
 929 0224 01008200 		.word	8519681
 930 0228 3C000000 		.word	.LC1
 931              	.L47:
 932              		.loc 2 94 0 discriminator 2
 933 022c 0023     		movs	r3, #0
 934              	.L48:
  93:Generated_Source\PSoC6\pdl\drivers\peripheral\i2s/cy_i2s.c ****                            _BOOL2FLD(I2S_TX_CTL_SCKO_POL, config->txSckoInversion) |
 935              		.loc 2 93 0 is_stmt 1
 936 022e 1A43     		orrs	r2, r2, r3
  95:Generated_Source\PSoC6\pdl\drivers\peripheral\i2s/cy_i2s.c ****                            _VAL2FLD(I2S_TX_CTL_CH_LEN, channelLength) |
ARM GAS  C:\Users\ikomb\AppData\Local\Temp\cchnbsea.s 			page 38


 937              		.loc 2 95 0
 938 0230 BB7C     		ldrb	r3, [r7, #18]	@ zero_extendqisi2
 939 0232 1B04     		lsls	r3, r3, #16
 940 0234 03F4E023 		and	r3, r3, #458752
  94:Generated_Source\PSoC6\pdl\drivers\peripheral\i2s/cy_i2s.c ****                            _BOOL2FLD(I2S_TX_CTL_SCKI_POL, config->txSckiInversion) |
 941              		.loc 2 94 0
 942 0238 1A43     		orrs	r2, r2, r3
  96:Generated_Source\PSoC6\pdl\drivers\peripheral\i2s/cy_i2s.c ****                            _VAL2FLD(I2S_TX_CTL_WORD_LEN, config->txWordLength) |
 943              		.loc 2 96 0
 944 023a 3B68     		ldr	r3, [r7]
 945 023c 5B7D     		ldrb	r3, [r3, #21]	@ zero_extendqisi2
 946 023e 1B05     		lsls	r3, r3, #20
 947 0240 03F4E003 		and	r3, r3, #7340032
  95:Generated_Source\PSoC6\pdl\drivers\peripheral\i2s/cy_i2s.c ****                            _VAL2FLD(I2S_TX_CTL_CH_LEN, channelLength) |
 948              		.loc 2 95 0
 949 0244 1A43     		orrs	r2, r2, r3
  97:Generated_Source\PSoC6\pdl\drivers\peripheral\i2s/cy_i2s.c ****                            _VAL2FLD(I2S_TX_CTL_OVHDATA, config->txOverheadValue);
 950              		.loc 2 97 0
 951 0246 3B68     		ldr	r3, [r7]
 952 0248 9B7D     		ldrb	r3, [r3, #22]	@ zero_extendqisi2
 953 024a 1B03     		lsls	r3, r3, #12
 954 024c 03F48053 		and	r3, r3, #4096
  96:Generated_Source\PSoC6\pdl\drivers\peripheral\i2s/cy_i2s.c ****                            _VAL2FLD(I2S_TX_CTL_WORD_LEN, config->txWordLength) |
 955              		.loc 2 96 0
 956 0250 1A43     		orrs	r2, r2, r3
  87:Generated_Source\PSoC6\pdl\drivers\peripheral\i2s/cy_i2s.c ****                            _BOOL2FLD(I2S_TX_CTL_B_CLOCK_INV, config->txSdoLatchingTime) |
 957              		.loc 2 87 0
 958 0252 7B68     		ldr	r3, [r7, #4]
 959 0254 C3F88020 		str	r2, [r3, #128]
 960              	.L26:
  98:Generated_Source\PSoC6\pdl\drivers\peripheral\i2s/cy_i2s.c ****         }
  99:Generated_Source\PSoC6\pdl\drivers\peripheral\i2s/cy_i2s.c **** 
 100:Generated_Source\PSoC6\pdl\drivers\peripheral\i2s/cy_i2s.c ****         /* The Rx setting */
 101:Generated_Source\PSoC6\pdl\drivers\peripheral\i2s/cy_i2s.c ****         if (config->rxEnabled)
 961              		.loc 2 101 0
 962 0258 3B68     		ldr	r3, [r7]
 963 025a 5B78     		ldrb	r3, [r3, #1]	@ zero_extendqisi2
 964 025c 002B     		cmp	r3, #0
 965 025e 00F00681 		beq	.L49
 102:Generated_Source\PSoC6\pdl\drivers\peripheral\i2s/cy_i2s.c ****         {
 103:Generated_Source\PSoC6\pdl\drivers\peripheral\i2s/cy_i2s.c ****             CY_ASSERT_L3(CY_I2S_IS_ALIGNMENT_VALID(config->rxAlignment));
 966              		.loc 2 103 0
 967 0262 3B68     		ldr	r3, [r7]
 968 0264 5B7E     		ldrb	r3, [r3, #25]	@ zero_extendqisi2
 969 0266 002B     		cmp	r3, #0
 970 0268 0FD0     		beq	.L50
 971              		.loc 2 103 0 is_stmt 0 discriminator 1
 972 026a 3B68     		ldr	r3, [r7]
 973 026c 5B7E     		ldrb	r3, [r3, #25]	@ zero_extendqisi2
 974 026e 012B     		cmp	r3, #1
 975 0270 0BD0     		beq	.L50
 976              		.loc 2 103 0 discriminator 2
 977 0272 3B68     		ldr	r3, [r7]
 978 0274 5B7E     		ldrb	r3, [r3, #25]	@ zero_extendqisi2
 979 0276 022B     		cmp	r3, #2
 980 0278 07D0     		beq	.L50
 981              		.loc 2 103 0 discriminator 3
ARM GAS  C:\Users\ikomb\AppData\Local\Temp\cchnbsea.s 			page 39


 982 027a 3B68     		ldr	r3, [r7]
 983 027c 5B7E     		ldrb	r3, [r3, #25]	@ zero_extendqisi2
 984 027e 032B     		cmp	r3, #3
 985 0280 03D0     		beq	.L50
 986              		.loc 2 103 0 discriminator 4
 987 0282 6721     		movs	r1, #103
 988 0284 9E48     		ldr	r0, .L86
 989 0286 FFF7FEFF 		bl	Cy_SysLib_AssertFailed
 990              	.L50:
 104:Generated_Source\PSoC6\pdl\drivers\peripheral\i2s/cy_i2s.c ****             
 105:Generated_Source\PSoC6\pdl\drivers\peripheral\i2s/cy_i2s.c ****             if ((CY_I2S_TDM_MODE_A == config->rxAlignment) || (CY_I2S_TDM_MODE_B == config->rxAlign
 991              		.loc 2 105 0 is_stmt 1
 992 028a 3B68     		ldr	r3, [r7]
 993 028c 5B7E     		ldrb	r3, [r3, #25]	@ zero_extendqisi2
 994 028e 022B     		cmp	r3, #2
 995 0290 03D0     		beq	.L51
 996              		.loc 2 105 0 is_stmt 0 discriminator 1
 997 0292 3B68     		ldr	r3, [r7]
 998 0294 5B7E     		ldrb	r3, [r3, #25]	@ zero_extendqisi2
 999 0296 032B     		cmp	r3, #3
 1000 0298 3DD1     		bne	.L52
 1001              	.L51:
 106:Generated_Source\PSoC6\pdl\drivers\peripheral\i2s/cy_i2s.c ****             {
 107:Generated_Source\PSoC6\pdl\drivers\peripheral\i2s/cy_i2s.c ****                 channels = (uint32_t)config->rxChannels - 1UL;
 1002              		.loc 2 107 0 is_stmt 1
 1003 029a 3B68     		ldr	r3, [r7]
 1004 029c 93F82330 		ldrb	r3, [r3, #35]	@ zero_extendqisi2
 1005 02a0 013B     		subs	r3, r3, #1
 1006 02a2 FB60     		str	r3, [r7, #12]
 108:Generated_Source\PSoC6\pdl\drivers\peripheral\i2s/cy_i2s.c ****                 wsPulseWidth = config->rxWsPulseWidth;
 1007              		.loc 2 108 0
 1008 02a4 3B68     		ldr	r3, [r7]
 1009 02a6 9B7E     		ldrb	r3, [r3, #26]
 1010 02a8 FB74     		strb	r3, [r7, #19]
 109:Generated_Source\PSoC6\pdl\drivers\peripheral\i2s/cy_i2s.c ****                 channelLength = CY_I2S_LEN32;
 1011              		.loc 2 109 0
 1012 02aa 0523     		movs	r3, #5
 1013 02ac BB74     		strb	r3, [r7, #18]
 110:Generated_Source\PSoC6\pdl\drivers\peripheral\i2s/cy_i2s.c ****                 
 111:Generated_Source\PSoC6\pdl\drivers\peripheral\i2s/cy_i2s.c ****                 CY_ASSERT_L2(CY_I2S_IS_CHANNELS_VALID(channels));
 1014              		.loc 2 111 0
 1015 02ae FB68     		ldr	r3, [r7, #12]
 1016 02b0 072B     		cmp	r3, #7
 1017 02b2 03D9     		bls	.L53
 1018              		.loc 2 111 0 is_stmt 0 discriminator 1
 1019 02b4 6F21     		movs	r1, #111
 1020 02b6 9248     		ldr	r0, .L86
 1021 02b8 FFF7FEFF 		bl	Cy_SysLib_AssertFailed
 1022              	.L53:
 112:Generated_Source\PSoC6\pdl\drivers\peripheral\i2s/cy_i2s.c ****                 CY_ASSERT_L3(CY_I2S_IS_WSPULSE_VALID(wsPulseWidth));
 1023              		.loc 2 112 0 is_stmt 1
 1024 02bc FB7C     		ldrb	r3, [r7, #19]	@ zero_extendqisi2
 1025 02be 002B     		cmp	r3, #0
 1026 02c0 06D0     		beq	.L54
 1027              		.loc 2 112 0 is_stmt 0 discriminator 1
 1028 02c2 FB7C     		ldrb	r3, [r7, #19]	@ zero_extendqisi2
 1029 02c4 012B     		cmp	r3, #1
ARM GAS  C:\Users\ikomb\AppData\Local\Temp\cchnbsea.s 			page 40


 1030 02c6 03D0     		beq	.L54
 1031              		.loc 2 112 0 discriminator 2
 1032 02c8 7021     		movs	r1, #112
 1033 02ca 8D48     		ldr	r0, .L86
 1034 02cc FFF7FEFF 		bl	Cy_SysLib_AssertFailed
 1035              	.L54:
 113:Generated_Source\PSoC6\pdl\drivers\peripheral\i2s/cy_i2s.c ****                 CY_ASSERT_L3(CY_I2S_IS_LEN_VALID(config->rxWordLength));
 1036              		.loc 2 113 0 is_stmt 1
 1037 02d0 3B68     		ldr	r3, [r7]
 1038 02d2 93F82530 		ldrb	r3, [r3, #37]	@ zero_extendqisi2
 1039 02d6 002B     		cmp	r3, #0
 1040 02d8 60D0     		beq	.L83
 1041              		.loc 2 113 0 is_stmt 0 discriminator 1
 1042 02da 3B68     		ldr	r3, [r7]
 1043 02dc 93F82530 		ldrb	r3, [r3, #37]	@ zero_extendqisi2
 1044 02e0 012B     		cmp	r3, #1
 1045 02e2 5BD0     		beq	.L83
 1046              		.loc 2 113 0 discriminator 2
 1047 02e4 3B68     		ldr	r3, [r7]
 1048 02e6 93F82530 		ldrb	r3, [r3, #37]	@ zero_extendqisi2
 1049 02ea 022B     		cmp	r3, #2
 1050 02ec 56D0     		beq	.L83
 1051              		.loc 2 113 0 discriminator 3
 1052 02ee 3B68     		ldr	r3, [r7]
 1053 02f0 93F82530 		ldrb	r3, [r3, #37]	@ zero_extendqisi2
 1054 02f4 032B     		cmp	r3, #3
 1055 02f6 51D0     		beq	.L83
 1056              		.loc 2 113 0 discriminator 4
 1057 02f8 3B68     		ldr	r3, [r7]
 1058 02fa 93F82530 		ldrb	r3, [r3, #37]	@ zero_extendqisi2
 1059 02fe 042B     		cmp	r3, #4
 1060 0300 4CD0     		beq	.L83
 1061              		.loc 2 113 0 discriminator 5
 1062 0302 3B68     		ldr	r3, [r7]
 1063 0304 93F82530 		ldrb	r3, [r3, #37]	@ zero_extendqisi2
 1064 0308 052B     		cmp	r3, #5
 1065 030a 47D0     		beq	.L83
 1066              		.loc 2 113 0 discriminator 6
 1067 030c 7121     		movs	r1, #113
 1068 030e 7C48     		ldr	r0, .L86
 1069 0310 FFF7FEFF 		bl	Cy_SysLib_AssertFailed
 1070 0314 42E0     		b	.L83
 1071              	.L52:
 114:Generated_Source\PSoC6\pdl\drivers\peripheral\i2s/cy_i2s.c ****             }
 115:Generated_Source\PSoC6\pdl\drivers\peripheral\i2s/cy_i2s.c ****             else
 116:Generated_Source\PSoC6\pdl\drivers\peripheral\i2s/cy_i2s.c ****             {
 117:Generated_Source\PSoC6\pdl\drivers\peripheral\i2s/cy_i2s.c ****                 channels = 1UL;
 1072              		.loc 2 117 0 is_stmt 1
 1073 0316 0123     		movs	r3, #1
 1074 0318 FB60     		str	r3, [r7, #12]
 118:Generated_Source\PSoC6\pdl\drivers\peripheral\i2s/cy_i2s.c ****                 wsPulseWidth = CY_I2S_WS_ONE_CHANNEL_LENGTH;
 1075              		.loc 2 118 0
 1076 031a 0123     		movs	r3, #1
 1077 031c FB74     		strb	r3, [r7, #19]
 119:Generated_Source\PSoC6\pdl\drivers\peripheral\i2s/cy_i2s.c ****                 channelLength = config->rxChannelLength;
 1078              		.loc 2 119 0
 1079 031e 3B68     		ldr	r3, [r7]
ARM GAS  C:\Users\ikomb\AppData\Local\Temp\cchnbsea.s 			page 41


 1080 0320 93F82430 		ldrb	r3, [r3, #36]
 1081 0324 BB74     		strb	r3, [r7, #18]
 120:Generated_Source\PSoC6\pdl\drivers\peripheral\i2s/cy_i2s.c ****                 
 121:Generated_Source\PSoC6\pdl\drivers\peripheral\i2s/cy_i2s.c ****                 CY_ASSERT_L3(CY_I2S_IS_CHAN_WORD_VALID(channelLength, config->rxWordLength));
 1082              		.loc 2 121 0
 1083 0326 BB7C     		ldrb	r3, [r7, #18]	@ zero_extendqisi2
 1084 0328 002B     		cmp	r3, #0
 1085 032a 0ED0     		beq	.L57
 1086              		.loc 2 121 0 is_stmt 0 discriminator 1
 1087 032c BB7C     		ldrb	r3, [r7, #18]	@ zero_extendqisi2
 1088 032e 012B     		cmp	r3, #1
 1089 0330 0BD0     		beq	.L57
 1090              		.loc 2 121 0 discriminator 3
 1091 0332 BB7C     		ldrb	r3, [r7, #18]	@ zero_extendqisi2
 1092 0334 022B     		cmp	r3, #2
 1093 0336 08D0     		beq	.L57
 1094              		.loc 2 121 0 discriminator 5
 1095 0338 BB7C     		ldrb	r3, [r7, #18]	@ zero_extendqisi2
 1096 033a 032B     		cmp	r3, #3
 1097 033c 05D0     		beq	.L57
 1098              		.loc 2 121 0 discriminator 7
 1099 033e BB7C     		ldrb	r3, [r7, #18]	@ zero_extendqisi2
 1100 0340 042B     		cmp	r3, #4
 1101 0342 02D0     		beq	.L57
 1102              		.loc 2 121 0 discriminator 9
 1103 0344 BB7C     		ldrb	r3, [r7, #18]	@ zero_extendqisi2
 1104 0346 052B     		cmp	r3, #5
 1105 0348 23D1     		bne	.L58
 1106              	.L57:
 1107              		.loc 2 121 0 discriminator 12
 1108 034a 3B68     		ldr	r3, [r7]
 1109 034c 93F82530 		ldrb	r3, [r3, #37]	@ zero_extendqisi2
 1110 0350 002B     		cmp	r3, #0
 1111 0352 18D0     		beq	.L59
 1112              		.loc 2 121 0 discriminator 13
 1113 0354 3B68     		ldr	r3, [r7]
 1114 0356 93F82530 		ldrb	r3, [r3, #37]	@ zero_extendqisi2
 1115 035a 012B     		cmp	r3, #1
 1116 035c 13D0     		beq	.L59
 1117              		.loc 2 121 0 discriminator 15
 1118 035e 3B68     		ldr	r3, [r7]
 1119 0360 93F82530 		ldrb	r3, [r3, #37]	@ zero_extendqisi2
 1120 0364 022B     		cmp	r3, #2
 1121 0366 0ED0     		beq	.L59
 1122              		.loc 2 121 0 discriminator 17
 1123 0368 3B68     		ldr	r3, [r7]
 1124 036a 93F82530 		ldrb	r3, [r3, #37]	@ zero_extendqisi2
 1125 036e 032B     		cmp	r3, #3
 1126 0370 09D0     		beq	.L59
 1127              		.loc 2 121 0 discriminator 19
 1128 0372 3B68     		ldr	r3, [r7]
 1129 0374 93F82530 		ldrb	r3, [r3, #37]	@ zero_extendqisi2
 1130 0378 042B     		cmp	r3, #4
 1131 037a 04D0     		beq	.L59
 1132              		.loc 2 121 0 discriminator 21
 1133 037c 3B68     		ldr	r3, [r7]
 1134 037e 93F82530 		ldrb	r3, [r3, #37]	@ zero_extendqisi2
ARM GAS  C:\Users\ikomb\AppData\Local\Temp\cchnbsea.s 			page 42


 1135 0382 052B     		cmp	r3, #5
 1136 0384 05D1     		bne	.L58
 1137              	.L59:
 1138              		.loc 2 121 0 discriminator 24
 1139 0386 3B68     		ldr	r3, [r7]
 1140 0388 93F82530 		ldrb	r3, [r3, #37]	@ zero_extendqisi2
 1141 038c BA7C     		ldrb	r2, [r7, #18]	@ zero_extendqisi2
 1142 038e 9A42     		cmp	r2, r3
 1143 0390 05D2     		bcs	.L56
 1144              	.L58:
 1145              		.loc 2 121 0 discriminator 25
 1146 0392 7921     		movs	r1, #121
 1147 0394 5A48     		ldr	r0, .L86
 1148 0396 FFF7FEFF 		bl	Cy_SysLib_AssertFailed
 1149 039a 00E0     		b	.L56
 1150              	.L83:
 113:Generated_Source\PSoC6\pdl\drivers\peripheral\i2s/cy_i2s.c ****             }
 1151              		.loc 2 113 0 is_stmt 1
 1152 039c 00BF     		nop
 1153              	.L56:
 122:Generated_Source\PSoC6\pdl\drivers\peripheral\i2s/cy_i2s.c ****             }
 123:Generated_Source\PSoC6\pdl\drivers\peripheral\i2s/cy_i2s.c ****             
 124:Generated_Source\PSoC6\pdl\drivers\peripheral\i2s/cy_i2s.c ****             CY_ASSERT_L2(CY_I2S_IS_TRIG_LEVEL_VALID(config->rxFifoTriggerLevel, channels));
 1154              		.loc 2 124 0
 1155 039e 3B68     		ldr	r3, [r7]
 1156 03a0 93F82730 		ldrb	r3, [r3, #39]	@ zero_extendqisi2
 1157 03a4 1A46     		mov	r2, r3
 1158 03a6 FB68     		ldr	r3, [r7, #12]
 1159 03a8 C3F1FF03 		rsb	r3, r3, #255
 1160 03ac 9A42     		cmp	r2, r3
 1161 03ae 03D9     		bls	.L60
 1162              		.loc 2 124 0 is_stmt 0 discriminator 1
 1163 03b0 7C21     		movs	r1, #124
 1164 03b2 5348     		ldr	r0, .L86
 1165 03b4 FFF7FEFF 		bl	Cy_SysLib_AssertFailed
 1166              	.L60:
 125:Generated_Source\PSoC6\pdl\drivers\peripheral\i2s/cy_i2s.c **** 
 126:Generated_Source\PSoC6\pdl\drivers\peripheral\i2s/cy_i2s.c ****             base->RX_WATCHDOG = config->rxWatchdogValue;
 1167              		.loc 2 126 0 is_stmt 1
 1168 03b8 3B68     		ldr	r3, [r7]
 1169 03ba DA69     		ldr	r2, [r3, #28]
 1170 03bc 7B68     		ldr	r3, [r7, #4]
 1171 03be C3F8A420 		str	r2, [r3, #164]
 127:Generated_Source\PSoC6\pdl\drivers\peripheral\i2s/cy_i2s.c **** 
 128:Generated_Source\PSoC6\pdl\drivers\peripheral\i2s/cy_i2s.c ****             base->RX_CTL = _VAL2FLD(I2S_RX_CTL_I2S_MODE, config->rxAlignment) |
 1172              		.loc 2 128 0
 1173 03c2 3B68     		ldr	r3, [r7]
 1174 03c4 5B7E     		ldrb	r3, [r3, #25]	@ zero_extendqisi2
 1175 03c6 1B02     		lsls	r3, r3, #8
 1176 03c8 03F44072 		and	r2, r3, #768
 129:Generated_Source\PSoC6\pdl\drivers\peripheral\i2s/cy_i2s.c ****                            _BOOL2FLD(I2S_RX_CTL_B_CLOCK_INV, config->rxSdiLatchingTime) |
 1177              		.loc 2 129 0
 1178 03cc 3B68     		ldr	r3, [r7]
 1179 03ce 93F82030 		ldrb	r3, [r3, #32]	@ zero_extendqisi2
 1180 03d2 002B     		cmp	r3, #0
 1181 03d4 01D0     		beq	.L61
 1182              		.loc 2 129 0 is_stmt 0 discriminator 1
ARM GAS  C:\Users\ikomb\AppData\Local\Temp\cchnbsea.s 			page 43


 1183 03d6 0823     		movs	r3, #8
 1184 03d8 00E0     		b	.L62
 1185              	.L61:
 1186              		.loc 2 129 0 discriminator 2
 1187 03da 0023     		movs	r3, #0
 1188              	.L62:
 128:Generated_Source\PSoC6\pdl\drivers\peripheral\i2s/cy_i2s.c ****                            _BOOL2FLD(I2S_RX_CTL_B_CLOCK_INV, config->rxSdiLatchingTime) |
 1189              		.loc 2 128 0 is_stmt 1
 1190 03dc 1A43     		orrs	r2, r2, r3
 130:Generated_Source\PSoC6\pdl\drivers\peripheral\i2s/cy_i2s.c ****                            _VAL2FLD(I2S_RX_CTL_CH_NR, channels) |
 1191              		.loc 2 130 0
 1192 03de FB68     		ldr	r3, [r7, #12]
 1193 03e0 1B01     		lsls	r3, r3, #4
 1194 03e2 03F07003 		and	r3, r3, #112
 129:Generated_Source\PSoC6\pdl\drivers\peripheral\i2s/cy_i2s.c ****                            _BOOL2FLD(I2S_RX_CTL_B_CLOCK_INV, config->rxSdiLatchingTime) |
 1195              		.loc 2 129 0
 1196 03e6 1A43     		orrs	r2, r2, r3
 131:Generated_Source\PSoC6\pdl\drivers\peripheral\i2s/cy_i2s.c ****                            _BOOL2FLD(I2S_RX_CTL_MS, config->rxMasterMode) |
 1197              		.loc 2 131 0
 1198 03e8 3B68     		ldr	r3, [r7]
 1199 03ea 1B7E     		ldrb	r3, [r3, #24]	@ zero_extendqisi2
 1200 03ec 002B     		cmp	r3, #0
 1201 03ee 01D0     		beq	.L63
 1202              		.loc 2 131 0 is_stmt 0 discriminator 1
 1203 03f0 8023     		movs	r3, #128
 1204 03f2 00E0     		b	.L64
 1205              	.L63:
 1206              		.loc 2 131 0 discriminator 2
 1207 03f4 0023     		movs	r3, #0
 1208              	.L64:
 130:Generated_Source\PSoC6\pdl\drivers\peripheral\i2s/cy_i2s.c ****                            _VAL2FLD(I2S_RX_CTL_CH_NR, channels) |
 1209              		.loc 2 130 0 is_stmt 1
 1210 03f6 1A43     		orrs	r2, r2, r3
 132:Generated_Source\PSoC6\pdl\drivers\peripheral\i2s/cy_i2s.c ****                            _VAL2FLD(I2S_RX_CTL_WS_PULSE, wsPulseWidth) |
 1211              		.loc 2 132 0
 1212 03f8 FB7C     		ldrb	r3, [r7, #19]	@ zero_extendqisi2
 1213 03fa 9B02     		lsls	r3, r3, #10
 1214 03fc 03F48063 		and	r3, r3, #1024
 131:Generated_Source\PSoC6\pdl\drivers\peripheral\i2s/cy_i2s.c ****                            _BOOL2FLD(I2S_RX_CTL_MS, config->rxMasterMode) |
 1215              		.loc 2 131 0
 1216 0400 1A43     		orrs	r2, r2, r3
 133:Generated_Source\PSoC6\pdl\drivers\peripheral\i2s/cy_i2s.c ****                            _BOOL2FLD(I2S_RX_CTL_WD_EN, config->rxWatchdogEnable) |
 1217              		.loc 2 133 0
 1218 0402 3B68     		ldr	r3, [r7]
 1219 0404 DB7E     		ldrb	r3, [r3, #27]	@ zero_extendqisi2
 1220 0406 002B     		cmp	r3, #0
 1221 0408 02D0     		beq	.L65
 1222              		.loc 2 133 0 is_stmt 0 discriminator 1
 1223 040a 4FF40053 		mov	r3, #8192
 1224 040e 00E0     		b	.L66
 1225              	.L65:
 1226              		.loc 2 133 0 discriminator 2
 1227 0410 0023     		movs	r3, #0
 1228              	.L66:
 132:Generated_Source\PSoC6\pdl\drivers\peripheral\i2s/cy_i2s.c ****                            _VAL2FLD(I2S_RX_CTL_WS_PULSE, wsPulseWidth) |
 1229              		.loc 2 132 0 is_stmt 1
 1230 0412 1A43     		orrs	r2, r2, r3
ARM GAS  C:\Users\ikomb\AppData\Local\Temp\cchnbsea.s 			page 44


 134:Generated_Source\PSoC6\pdl\drivers\peripheral\i2s/cy_i2s.c ****                            _BOOL2FLD(I2S_RX_CTL_SCKO_POL, config->rxSckoInversion) |
 1231              		.loc 2 134 0
 1232 0414 3B68     		ldr	r3, [r7]
 1233 0416 93F82130 		ldrb	r3, [r3, #33]	@ zero_extendqisi2
 1234 041a 002B     		cmp	r3, #0
 1235 041c 02D0     		beq	.L67
 1236              		.loc 2 134 0 is_stmt 0 discriminator 1
 1237 041e 4FF08073 		mov	r3, #16777216
 1238 0422 00E0     		b	.L68
 1239              	.L67:
 1240              		.loc 2 134 0 discriminator 2
 1241 0424 0023     		movs	r3, #0
 1242              	.L68:
 133:Generated_Source\PSoC6\pdl\drivers\peripheral\i2s/cy_i2s.c ****                            _BOOL2FLD(I2S_RX_CTL_WD_EN, config->rxWatchdogEnable) |
 1243              		.loc 2 133 0 is_stmt 1
 1244 0426 1A43     		orrs	r2, r2, r3
 135:Generated_Source\PSoC6\pdl\drivers\peripheral\i2s/cy_i2s.c ****                            _BOOL2FLD(I2S_RX_CTL_SCKI_POL, config->rxSckiInversion) |
 1245              		.loc 2 135 0
 1246 0428 3B68     		ldr	r3, [r7]
 1247 042a 93F82230 		ldrb	r3, [r3, #34]	@ zero_extendqisi2
 1248 042e 002B     		cmp	r3, #0
 1249 0430 02D0     		beq	.L69
 1250              		.loc 2 135 0 is_stmt 0 discriminator 1
 1251 0432 4FF00073 		mov	r3, #33554432
 1252 0436 00E0     		b	.L70
 1253              	.L69:
 1254              		.loc 2 135 0 discriminator 2
 1255 0438 0023     		movs	r3, #0
 1256              	.L70:
 134:Generated_Source\PSoC6\pdl\drivers\peripheral\i2s/cy_i2s.c ****                            _BOOL2FLD(I2S_RX_CTL_SCKO_POL, config->rxSckoInversion) |
 1257              		.loc 2 134 0 is_stmt 1
 1258 043a 1A43     		orrs	r2, r2, r3
 136:Generated_Source\PSoC6\pdl\drivers\peripheral\i2s/cy_i2s.c ****                            _VAL2FLD(I2S_RX_CTL_CH_LEN, channelLength) |
 1259              		.loc 2 136 0
 1260 043c BB7C     		ldrb	r3, [r7, #18]	@ zero_extendqisi2
 1261 043e 1B04     		lsls	r3, r3, #16
 1262 0440 03F4E023 		and	r3, r3, #458752
 135:Generated_Source\PSoC6\pdl\drivers\peripheral\i2s/cy_i2s.c ****                            _BOOL2FLD(I2S_RX_CTL_SCKI_POL, config->rxSckiInversion) |
 1263              		.loc 2 135 0
 1264 0444 1A43     		orrs	r2, r2, r3
 137:Generated_Source\PSoC6\pdl\drivers\peripheral\i2s/cy_i2s.c ****                            _VAL2FLD(I2S_RX_CTL_WORD_LEN, config->rxWordLength) |
 1265              		.loc 2 137 0
 1266 0446 3B68     		ldr	r3, [r7]
 1267 0448 93F82530 		ldrb	r3, [r3, #37]	@ zero_extendqisi2
 1268 044c 1B05     		lsls	r3, r3, #20
 1269 044e 03F4E003 		and	r3, r3, #7340032
 136:Generated_Source\PSoC6\pdl\drivers\peripheral\i2s/cy_i2s.c ****                            _VAL2FLD(I2S_RX_CTL_CH_LEN, channelLength) |
 1270              		.loc 2 136 0
 1271 0452 1A43     		orrs	r2, r2, r3
 138:Generated_Source\PSoC6\pdl\drivers\peripheral\i2s/cy_i2s.c ****                            _BOOL2FLD(I2S_RX_CTL_BIT_EXTENSION, config->rxSignExtension);
 1272              		.loc 2 138 0
 1273 0454 3B68     		ldr	r3, [r7]
 1274 0456 93F82630 		ldrb	r3, [r3, #38]	@ zero_extendqisi2
 1275 045a 002B     		cmp	r3, #0
 1276 045c 02D0     		beq	.L71
 1277              		.loc 2 138 0 is_stmt 0 discriminator 1
 1278 045e 4FF40003 		mov	r3, #8388608
ARM GAS  C:\Users\ikomb\AppData\Local\Temp\cchnbsea.s 			page 45


 1279 0462 00E0     		b	.L72
 1280              	.L71:
 1281              		.loc 2 138 0 discriminator 2
 1282 0464 0023     		movs	r3, #0
 1283              	.L72:
 137:Generated_Source\PSoC6\pdl\drivers\peripheral\i2s/cy_i2s.c ****                            _VAL2FLD(I2S_RX_CTL_WORD_LEN, config->rxWordLength) |
 1284              		.loc 2 137 0 is_stmt 1
 1285 0466 1A43     		orrs	r2, r2, r3
 128:Generated_Source\PSoC6\pdl\drivers\peripheral\i2s/cy_i2s.c ****                            _BOOL2FLD(I2S_RX_CTL_B_CLOCK_INV, config->rxSdiLatchingTime) |
 1286              		.loc 2 128 0
 1287 0468 7B68     		ldr	r3, [r7, #4]
 1288 046a C3F8A020 		str	r2, [r3, #160]
 1289              	.L49:
 139:Generated_Source\PSoC6\pdl\drivers\peripheral\i2s/cy_i2s.c ****         }
 140:Generated_Source\PSoC6\pdl\drivers\peripheral\i2s/cy_i2s.c **** 
 141:Generated_Source\PSoC6\pdl\drivers\peripheral\i2s/cy_i2s.c ****         /* The I2S enable setting */
 142:Generated_Source\PSoC6\pdl\drivers\peripheral\i2s/cy_i2s.c ****         if (config->txEnabled)
 1290              		.loc 2 142 0
 1291 046e 3B68     		ldr	r3, [r7]
 1292 0470 1B78     		ldrb	r3, [r3]	@ zero_extendqisi2
 1293 0472 002B     		cmp	r3, #0
 1294 0474 05D0     		beq	.L73
 143:Generated_Source\PSoC6\pdl\drivers\peripheral\i2s/cy_i2s.c ****         {
 144:Generated_Source\PSoC6\pdl\drivers\peripheral\i2s/cy_i2s.c ****             base->CTL |= I2S_CTL_TX_ENABLED_Msk;
 1295              		.loc 2 144 0
 1296 0476 7B68     		ldr	r3, [r7, #4]
 1297 0478 1B68     		ldr	r3, [r3]
 1298 047a 43F08042 		orr	r2, r3, #1073741824
 1299 047e 7B68     		ldr	r3, [r7, #4]
 1300 0480 1A60     		str	r2, [r3]
 1301              	.L73:
 145:Generated_Source\PSoC6\pdl\drivers\peripheral\i2s/cy_i2s.c ****         }
 146:Generated_Source\PSoC6\pdl\drivers\peripheral\i2s/cy_i2s.c **** 
 147:Generated_Source\PSoC6\pdl\drivers\peripheral\i2s/cy_i2s.c ****         if (config->rxEnabled)
 1302              		.loc 2 147 0
 1303 0482 3B68     		ldr	r3, [r7]
 1304 0484 5B78     		ldrb	r3, [r3, #1]	@ zero_extendqisi2
 1305 0486 002B     		cmp	r3, #0
 1306 0488 05D0     		beq	.L74
 148:Generated_Source\PSoC6\pdl\drivers\peripheral\i2s/cy_i2s.c ****         {
 149:Generated_Source\PSoC6\pdl\drivers\peripheral\i2s/cy_i2s.c ****             base->CTL |= I2S_CTL_RX_ENABLED_Msk;
 1307              		.loc 2 149 0
 1308 048a 7B68     		ldr	r3, [r7, #4]
 1309 048c 1B68     		ldr	r3, [r3]
 1310 048e 43F00042 		orr	r2, r3, #-2147483648
 1311 0492 7B68     		ldr	r3, [r7, #4]
 1312 0494 1A60     		str	r2, [r3]
 1313              	.L74:
 150:Generated_Source\PSoC6\pdl\drivers\peripheral\i2s/cy_i2s.c ****         }
 151:Generated_Source\PSoC6\pdl\drivers\peripheral\i2s/cy_i2s.c **** 
 152:Generated_Source\PSoC6\pdl\drivers\peripheral\i2s/cy_i2s.c ****         /* The FIFO setting */
 153:Generated_Source\PSoC6\pdl\drivers\peripheral\i2s/cy_i2s.c ****         if (config->txEnabled)
 1314              		.loc 2 153 0
 1315 0496 3B68     		ldr	r3, [r7]
 1316 0498 1B78     		ldrb	r3, [r3]	@ zero_extendqisi2
 1317 049a 002B     		cmp	r3, #0
 1318 049c 11D0     		beq	.L75
ARM GAS  C:\Users\ikomb\AppData\Local\Temp\cchnbsea.s 			page 46


 154:Generated_Source\PSoC6\pdl\drivers\peripheral\i2s/cy_i2s.c ****         {
 155:Generated_Source\PSoC6\pdl\drivers\peripheral\i2s/cy_i2s.c ****             base->TX_FIFO_CTL = _VAL2FLD(I2S_TX_FIFO_CTL_TRIGGER_LEVEL, config->txFifoTriggerLevel)
 1319              		.loc 2 155 0
 1320 049e 3B68     		ldr	r3, [r7]
 1321 04a0 DB7D     		ldrb	r3, [r3, #23]	@ zero_extendqisi2
 1322 04a2 1A46     		mov	r2, r3
 1323 04a4 7B68     		ldr	r3, [r7, #4]
 1324 04a6 C3F80022 		str	r2, [r3, #512]
 156:Generated_Source\PSoC6\pdl\drivers\peripheral\i2s/cy_i2s.c **** 
 157:Generated_Source\PSoC6\pdl\drivers\peripheral\i2s/cy_i2s.c ****             base->TR_CTL |= _BOOL2FLD(I2S_TR_CTL_TX_REQ_EN, config->txDmaTrigger);
 1325              		.loc 2 157 0
 1326 04aa 7B68     		ldr	r3, [r7, #4]
 1327 04ac 1A6C     		ldr	r2, [r3, #64]
 1328 04ae 3B68     		ldr	r3, [r7]
 1329 04b0 9B78     		ldrb	r3, [r3, #2]	@ zero_extendqisi2
 1330 04b2 002B     		cmp	r3, #0
 1331 04b4 01D0     		beq	.L76
 1332              		.loc 2 157 0 is_stmt 0 discriminator 1
 1333 04b6 0123     		movs	r3, #1
 1334 04b8 00E0     		b	.L77
 1335              	.L76:
 1336              		.loc 2 157 0 discriminator 2
 1337 04ba 0023     		movs	r3, #0
 1338              	.L77:
 1339              		.loc 2 157 0 discriminator 4
 1340 04bc 1A43     		orrs	r2, r2, r3
 1341 04be 7B68     		ldr	r3, [r7, #4]
 1342 04c0 1A64     		str	r2, [r3, #64]
 1343              	.L75:
 158:Generated_Source\PSoC6\pdl\drivers\peripheral\i2s/cy_i2s.c ****         }
 159:Generated_Source\PSoC6\pdl\drivers\peripheral\i2s/cy_i2s.c **** 
 160:Generated_Source\PSoC6\pdl\drivers\peripheral\i2s/cy_i2s.c ****         if (config->rxEnabled)
 1344              		.loc 2 160 0 is_stmt 1
 1345 04c2 3B68     		ldr	r3, [r7]
 1346 04c4 5B78     		ldrb	r3, [r3, #1]	@ zero_extendqisi2
 1347 04c6 002B     		cmp	r3, #0
 1348 04c8 13D0     		beq	.L78
 161:Generated_Source\PSoC6\pdl\drivers\peripheral\i2s/cy_i2s.c ****         {
 162:Generated_Source\PSoC6\pdl\drivers\peripheral\i2s/cy_i2s.c ****             base->RX_FIFO_CTL = _VAL2FLD(I2S_RX_FIFO_CTL_TRIGGER_LEVEL, config->rxFifoTriggerLevel)
 1349              		.loc 2 162 0
 1350 04ca 3B68     		ldr	r3, [r7]
 1351 04cc 93F82730 		ldrb	r3, [r3, #39]	@ zero_extendqisi2
 1352 04d0 1A46     		mov	r2, r3
 1353 04d2 7B68     		ldr	r3, [r7, #4]
 1354 04d4 C3F80023 		str	r2, [r3, #768]
 163:Generated_Source\PSoC6\pdl\drivers\peripheral\i2s/cy_i2s.c **** 
 164:Generated_Source\PSoC6\pdl\drivers\peripheral\i2s/cy_i2s.c ****             base->TR_CTL |= _BOOL2FLD(I2S_TR_CTL_RX_REQ_EN, config->rxDmaTrigger);
 1355              		.loc 2 164 0
 1356 04d8 7B68     		ldr	r3, [r7, #4]
 1357 04da 1A6C     		ldr	r2, [r3, #64]
 1358 04dc 3B68     		ldr	r3, [r7]
 1359 04de DB78     		ldrb	r3, [r3, #3]	@ zero_extendqisi2
 1360 04e0 002B     		cmp	r3, #0
 1361 04e2 02D0     		beq	.L79
 1362              		.loc 2 164 0 is_stmt 0 discriminator 1
 1363 04e4 4FF48033 		mov	r3, #65536
 1364 04e8 00E0     		b	.L80
ARM GAS  C:\Users\ikomb\AppData\Local\Temp\cchnbsea.s 			page 47


 1365              	.L79:
 1366              		.loc 2 164 0 discriminator 2
 1367 04ea 0023     		movs	r3, #0
 1368              	.L80:
 1369              		.loc 2 164 0 discriminator 4
 1370 04ec 1A43     		orrs	r2, r2, r3
 1371 04ee 7B68     		ldr	r3, [r7, #4]
 1372 04f0 1A64     		str	r2, [r3, #64]
 1373              	.L78:
 165:Generated_Source\PSoC6\pdl\drivers\peripheral\i2s/cy_i2s.c ****         }
 166:Generated_Source\PSoC6\pdl\drivers\peripheral\i2s/cy_i2s.c ****         
 167:Generated_Source\PSoC6\pdl\drivers\peripheral\i2s/cy_i2s.c ****         ret = CY_I2S_SUCCESS;
 1374              		.loc 2 167 0 is_stmt 1
 1375 04f2 0023     		movs	r3, #0
 1376 04f4 7B61     		str	r3, [r7, #20]
 1377              	.L22:
 1378              	.LBE2:
 168:Generated_Source\PSoC6\pdl\drivers\peripheral\i2s/cy_i2s.c ****     }
 169:Generated_Source\PSoC6\pdl\drivers\peripheral\i2s/cy_i2s.c **** 
 170:Generated_Source\PSoC6\pdl\drivers\peripheral\i2s/cy_i2s.c ****     return (ret);
 1379              		.loc 2 170 0
 1380 04f6 7B69     		ldr	r3, [r7, #20]
 171:Generated_Source\PSoC6\pdl\drivers\peripheral\i2s/cy_i2s.c **** }
 1381              		.loc 2 171 0
 1382 04f8 1846     		mov	r0, r3
 1383 04fa 1837     		adds	r7, r7, #24
 1384              		.cfi_def_cfa_offset 8
 1385 04fc BD46     		mov	sp, r7
 1386              		.cfi_def_cfa_register 13
 1387              		@ sp needed
 1388 04fe 80BD     		pop	{r7, pc}
 1389              	.L87:
 1390              		.align	2
 1391              	.L86:
 1392 0500 3C000000 		.word	.LC1
 1393              		.cfi_endproc
 1394              	.LFE186:
 1395              		.size	Cy_I2S_Init, .-Cy_I2S_Init
 1396              		.section	.text.Cy_I2S_DeInit,"ax",%progbits
 1397              		.align	2
 1398              		.global	Cy_I2S_DeInit
 1399              		.thumb
 1400              		.thumb_func
 1401              		.type	Cy_I2S_DeInit, %function
 1402              	Cy_I2S_DeInit:
 1403              	.LFB187:
 172:Generated_Source\PSoC6\pdl\drivers\peripheral\i2s/cy_i2s.c **** 
 173:Generated_Source\PSoC6\pdl\drivers\peripheral\i2s/cy_i2s.c **** 
 174:Generated_Source\PSoC6\pdl\drivers\peripheral\i2s/cy_i2s.c **** /*******************************************************************************
 175:Generated_Source\PSoC6\pdl\drivers\peripheral\i2s/cy_i2s.c **** * Function Name: Cy_I2S_DeInit
 176:Generated_Source\PSoC6\pdl\drivers\peripheral\i2s/cy_i2s.c **** ****************************************************************************//**
 177:Generated_Source\PSoC6\pdl\drivers\peripheral\i2s/cy_i2s.c **** *
 178:Generated_Source\PSoC6\pdl\drivers\peripheral\i2s/cy_i2s.c **** * Uninitializes the I2S module (reverts default register values).
 179:Generated_Source\PSoC6\pdl\drivers\peripheral\i2s/cy_i2s.c **** *
 180:Generated_Source\PSoC6\pdl\drivers\peripheral\i2s/cy_i2s.c **** * \param base The pointer to the I2S instance address.
 181:Generated_Source\PSoC6\pdl\drivers\peripheral\i2s/cy_i2s.c **** *
 182:Generated_Source\PSoC6\pdl\drivers\peripheral\i2s/cy_i2s.c **** * \funcusage
ARM GAS  C:\Users\ikomb\AppData\Local\Temp\cchnbsea.s 			page 48


 183:Generated_Source\PSoC6\pdl\drivers\peripheral\i2s/cy_i2s.c **** * \snippet i2s/i2s_v2_0_sut_00.cydsn/main_cm4.c snippet_Cy_I2S_DeInit
 184:Generated_Source\PSoC6\pdl\drivers\peripheral\i2s/cy_i2s.c **** *
 185:Generated_Source\PSoC6\pdl\drivers\peripheral\i2s/cy_i2s.c **** *******************************************************************************/
 186:Generated_Source\PSoC6\pdl\drivers\peripheral\i2s/cy_i2s.c **** void Cy_I2S_DeInit(I2S_Type * base)
 187:Generated_Source\PSoC6\pdl\drivers\peripheral\i2s/cy_i2s.c **** {
 1404              		.loc 2 187 0
 1405              		.cfi_startproc
 1406              		@ args = 0, pretend = 0, frame = 8
 1407              		@ frame_needed = 1, uses_anonymous_args = 0
 1408              		@ link register save eliminated.
 1409 0000 80B4     		push	{r7}
 1410              		.cfi_def_cfa_offset 4
 1411              		.cfi_offset 7, -4
 1412 0002 83B0     		sub	sp, sp, #12
 1413              		.cfi_def_cfa_offset 16
 1414 0004 00AF     		add	r7, sp, #0
 1415              		.cfi_def_cfa_register 7
 1416 0006 7860     		str	r0, [r7, #4]
 188:Generated_Source\PSoC6\pdl\drivers\peripheral\i2s/cy_i2s.c ****     base->INTR_MASK = 0UL; /* Disable interrupts prior to stopping the operation */
 1417              		.loc 2 188 0
 1418 0008 7B68     		ldr	r3, [r7, #4]
 1419 000a 0022     		movs	r2, #0
 1420 000c C3F8082F 		str	r2, [r3, #3848]
 189:Generated_Source\PSoC6\pdl\drivers\peripheral\i2s/cy_i2s.c ****     base->CMD = 0UL;
 1421              		.loc 2 189 0
 1422 0010 7B68     		ldr	r3, [r7, #4]
 1423 0012 0022     		movs	r2, #0
 1424 0014 1A62     		str	r2, [r3, #32]
 190:Generated_Source\PSoC6\pdl\drivers\peripheral\i2s/cy_i2s.c ****     base->TR_CTL = 0UL;
 1425              		.loc 2 190 0
 1426 0016 7B68     		ldr	r3, [r7, #4]
 1427 0018 0022     		movs	r2, #0
 1428 001a 1A64     		str	r2, [r3, #64]
 191:Generated_Source\PSoC6\pdl\drivers\peripheral\i2s/cy_i2s.c ****     base->TX_FIFO_CTL = 0UL;
 1429              		.loc 2 191 0
 1430 001c 7B68     		ldr	r3, [r7, #4]
 1431 001e 0022     		movs	r2, #0
 1432 0020 C3F80022 		str	r2, [r3, #512]
 192:Generated_Source\PSoC6\pdl\drivers\peripheral\i2s/cy_i2s.c ****     base->RX_FIFO_CTL = 0UL;
 1433              		.loc 2 192 0
 1434 0024 7B68     		ldr	r3, [r7, #4]
 1435 0026 0022     		movs	r2, #0
 1436 0028 C3F80023 		str	r2, [r3, #768]
 193:Generated_Source\PSoC6\pdl\drivers\peripheral\i2s/cy_i2s.c ****     base->CTL = 0UL;
 1437              		.loc 2 193 0
 1438 002c 7B68     		ldr	r3, [r7, #4]
 1439 002e 0022     		movs	r2, #0
 1440 0030 1A60     		str	r2, [r3]
 194:Generated_Source\PSoC6\pdl\drivers\peripheral\i2s/cy_i2s.c ****     base->TX_CTL = CY_I2S_TX_CTL_DEFAULT;
 1441              		.loc 2 194 0
 1442 0032 7B68     		ldr	r3, [r7, #4]
 1443 0034 0B4A     		ldr	r2, .L89
 1444 0036 C3F88020 		str	r2, [r3, #128]
 195:Generated_Source\PSoC6\pdl\drivers\peripheral\i2s/cy_i2s.c ****     base->RX_CTL = CY_I2S_RX_CTL_DEFAULT;
 1445              		.loc 2 195 0
 1446 003a 7B68     		ldr	r3, [r7, #4]
 1447 003c 094A     		ldr	r2, .L89
ARM GAS  C:\Users\ikomb\AppData\Local\Temp\cchnbsea.s 			page 49


 1448 003e C3F8A020 		str	r2, [r3, #160]
 196:Generated_Source\PSoC6\pdl\drivers\peripheral\i2s/cy_i2s.c ****     base->TX_WATCHDOG = 0UL;
 1449              		.loc 2 196 0
 1450 0042 7B68     		ldr	r3, [r7, #4]
 1451 0044 0022     		movs	r2, #0
 1452 0046 C3F88420 		str	r2, [r3, #132]
 197:Generated_Source\PSoC6\pdl\drivers\peripheral\i2s/cy_i2s.c ****     base->RX_WATCHDOG = 0UL;
 1453              		.loc 2 197 0
 1454 004a 7B68     		ldr	r3, [r7, #4]
 1455 004c 0022     		movs	r2, #0
 1456 004e C3F8A420 		str	r2, [r3, #164]
 198:Generated_Source\PSoC6\pdl\drivers\peripheral\i2s/cy_i2s.c ****     base->CLOCK_CTL = 0UL;
 1457              		.loc 2 198 0
 1458 0052 7B68     		ldr	r3, [r7, #4]
 1459 0054 0022     		movs	r2, #0
 1460 0056 1A61     		str	r2, [r3, #16]
 199:Generated_Source\PSoC6\pdl\drivers\peripheral\i2s/cy_i2s.c **** }
 1461              		.loc 2 199 0
 1462 0058 00BF     		nop
 1463 005a 0C37     		adds	r7, r7, #12
 1464              		.cfi_def_cfa_offset 4
 1465 005c BD46     		mov	sp, r7
 1466              		.cfi_def_cfa_register 13
 1467              		@ sp needed
 1468 005e 5DF8047B 		ldr	r7, [sp], #4
 1469              		.cfi_restore 7
 1470              		.cfi_def_cfa_offset 0
 1471 0062 7047     		bx	lr
 1472              	.L90:
 1473              		.align	2
 1474              	.L89:
 1475 0064 10064400 		.word	4458000
 1476              		.cfi_endproc
 1477              	.LFE187:
 1478              		.size	Cy_I2S_DeInit, .-Cy_I2S_DeInit
 1479              		.section	.text.Cy_I2S_DeepSleepCallback,"ax",%progbits
 1480              		.align	2
 1481              		.global	Cy_I2S_DeepSleepCallback
 1482              		.thumb
 1483              		.thumb_func
 1484              		.type	Cy_I2S_DeepSleepCallback, %function
 1485              	Cy_I2S_DeepSleepCallback:
 1486              	.LFB188:
 200:Generated_Source\PSoC6\pdl\drivers\peripheral\i2s/cy_i2s.c **** 
 201:Generated_Source\PSoC6\pdl\drivers\peripheral\i2s/cy_i2s.c **** 
 202:Generated_Source\PSoC6\pdl\drivers\peripheral\i2s/cy_i2s.c **** /*******************************************************************************
 203:Generated_Source\PSoC6\pdl\drivers\peripheral\i2s/cy_i2s.c **** * Function Name: Cy_I2S_DeepSleepCallback
 204:Generated_Source\PSoC6\pdl\drivers\peripheral\i2s/cy_i2s.c **** ****************************************************************************//**
 205:Generated_Source\PSoC6\pdl\drivers\peripheral\i2s/cy_i2s.c **** *
 206:Generated_Source\PSoC6\pdl\drivers\peripheral\i2s/cy_i2s.c **** * This is a callback function to be used at the application layer to
 207:Generated_Source\PSoC6\pdl\drivers\peripheral\i2s/cy_i2s.c **** * manage an I2S operation during the Deep-Sleep cycle. It stores the I2S state 
 208:Generated_Source\PSoC6\pdl\drivers\peripheral\i2s/cy_i2s.c **** * (Tx/Rx enabled/disabled/paused) into the context structure and stops the 
 209:Generated_Source\PSoC6\pdl\drivers\peripheral\i2s/cy_i2s.c **** * communication before entering into Deep-Sleep power mode and restores the I2S
 210:Generated_Source\PSoC6\pdl\drivers\peripheral\i2s/cy_i2s.c **** * state after waking up.
 211:Generated_Source\PSoC6\pdl\drivers\peripheral\i2s/cy_i2s.c **** *
 212:Generated_Source\PSoC6\pdl\drivers\peripheral\i2s/cy_i2s.c **** * \param 
 213:Generated_Source\PSoC6\pdl\drivers\peripheral\i2s/cy_i2s.c **** * callbackParams - The pointer to the callback parameters structure, 
ARM GAS  C:\Users\ikomb\AppData\Local\Temp\cchnbsea.s 			page 50


 214:Generated_Source\PSoC6\pdl\drivers\peripheral\i2s/cy_i2s.c **** * see \ref cy_stc_syspm_callback_params_t.
 215:Generated_Source\PSoC6\pdl\drivers\peripheral\i2s/cy_i2s.c **** *
 216:Generated_Source\PSoC6\pdl\drivers\peripheral\i2s/cy_i2s.c **** * \return the SysPm callback status \ref cy_en_syspm_status_t.
 217:Generated_Source\PSoC6\pdl\drivers\peripheral\i2s/cy_i2s.c **** *
 218:Generated_Source\PSoC6\pdl\drivers\peripheral\i2s/cy_i2s.c **** * \note Use the \ref cy_stc_i2s_context_t data type for definition of the 
 219:Generated_Source\PSoC6\pdl\drivers\peripheral\i2s/cy_i2s.c **** * *context element of the \ref cy_stc_syspm_callback_params_t strusture.
 220:Generated_Source\PSoC6\pdl\drivers\peripheral\i2s/cy_i2s.c **** *
 221:Generated_Source\PSoC6\pdl\drivers\peripheral\i2s/cy_i2s.c **** * \funcusage
 222:Generated_Source\PSoC6\pdl\drivers\peripheral\i2s/cy_i2s.c **** * \snippet i2s/i2s_v2_0_sut_00.cydsn/main_cm4.c snippet_Cy_I2S_DeepSleepCallback
 223:Generated_Source\PSoC6\pdl\drivers\peripheral\i2s/cy_i2s.c **** *
 224:Generated_Source\PSoC6\pdl\drivers\peripheral\i2s/cy_i2s.c **** *******************************************************************************/
 225:Generated_Source\PSoC6\pdl\drivers\peripheral\i2s/cy_i2s.c **** cy_en_syspm_status_t Cy_I2S_DeepSleepCallback(cy_stc_syspm_callback_params_t * callbackParams)
 226:Generated_Source\PSoC6\pdl\drivers\peripheral\i2s/cy_i2s.c **** {
 1487              		.loc 2 226 0
 1488              		.cfi_startproc
 1489              		@ args = 0, pretend = 0, frame = 24
 1490              		@ frame_needed = 1, uses_anonymous_args = 0
 1491 0000 80B5     		push	{r7, lr}
 1492              		.cfi_def_cfa_offset 8
 1493              		.cfi_offset 7, -8
 1494              		.cfi_offset 14, -4
 1495 0002 86B0     		sub	sp, sp, #24
 1496              		.cfi_def_cfa_offset 32
 1497 0004 00AF     		add	r7, sp, #0
 1498              		.cfi_def_cfa_register 7
 1499 0006 7860     		str	r0, [r7, #4]
 227:Generated_Source\PSoC6\pdl\drivers\peripheral\i2s/cy_i2s.c ****     cy_en_syspm_status_t ret = CY_SYSPM_SUCCESS;
 1500              		.loc 2 227 0
 1501 0008 0023     		movs	r3, #0
 1502 000a 7B61     		str	r3, [r7, #20]
 228:Generated_Source\PSoC6\pdl\drivers\peripheral\i2s/cy_i2s.c ****     CY_ASSERT_L1(NULL != callbackParams->context);
 1503              		.loc 2 228 0
 1504 000c 7B68     		ldr	r3, [r7, #4]
 1505 000e 9B68     		ldr	r3, [r3, #8]
 1506 0010 002B     		cmp	r3, #0
 1507 0012 03D1     		bne	.L92
 1508              		.loc 2 228 0 is_stmt 0 discriminator 1
 1509 0014 E421     		movs	r1, #228
 1510 0016 4348     		ldr	r0, .L106
 1511 0018 FFF7FEFF 		bl	Cy_SysLib_AssertFailed
 1512              	.L92:
 229:Generated_Source\PSoC6\pdl\drivers\peripheral\i2s/cy_i2s.c ****     I2S_Type * locBase = (I2S_Type*) callbackParams->base;
 1513              		.loc 2 229 0 is_stmt 1
 1514 001c 7B68     		ldr	r3, [r7, #4]
 1515 001e 5B68     		ldr	r3, [r3, #4]
 1516 0020 3B61     		str	r3, [r7, #16]
 230:Generated_Source\PSoC6\pdl\drivers\peripheral\i2s/cy_i2s.c ****     uint32_t * locInterruptMask = (uint32_t*) &(((cy_stc_i2s_context_t*)(callbackParams->context))-
 1517              		.loc 2 230 0
 1518 0022 7B68     		ldr	r3, [r7, #4]
 1519 0024 9B68     		ldr	r3, [r3, #8]
 1520 0026 0433     		adds	r3, r3, #4
 1521 0028 FB60     		str	r3, [r7, #12]
 231:Generated_Source\PSoC6\pdl\drivers\peripheral\i2s/cy_i2s.c ****     uint32_t * locState = (uint32_t*) &(((cy_stc_i2s_context_t*)(callbackParams->context))->enableS
 1522              		.loc 2 231 0
 1523 002a 7B68     		ldr	r3, [r7, #4]
 1524 002c 9B68     		ldr	r3, [r3, #8]
 1525 002e BB60     		str	r3, [r7, #8]
ARM GAS  C:\Users\ikomb\AppData\Local\Temp\cchnbsea.s 			page 51


 232:Generated_Source\PSoC6\pdl\drivers\peripheral\i2s/cy_i2s.c ****     
 233:Generated_Source\PSoC6\pdl\drivers\peripheral\i2s/cy_i2s.c ****     switch(callbackParams->mode)
 1526              		.loc 2 233 0
 1527 0030 7B68     		ldr	r3, [r7, #4]
 1528 0032 1B78     		ldrb	r3, [r3]	@ zero_extendqisi2
 1529 0034 013B     		subs	r3, r3, #1
 1530 0036 072B     		cmp	r3, #7
 1531 0038 6BD8     		bhi	.L93
 1532 003a 01A2     		adr	r2, .L95
 1533 003c 52F823F0 		ldr	pc, [r2, r3, lsl #2]
 1534              		.p2align 2
 1535              	.L95:
 1536 0040 19010000 		.word	.L105+1
 1537 0044 19010000 		.word	.L105+1
 1538 0048 13010000 		.word	.L93+1
 1539 004c 61000000 		.word	.L96+1
 1540 0050 13010000 		.word	.L93+1
 1541 0054 13010000 		.word	.L93+1
 1542 0058 13010000 		.word	.L93+1
 1543 005c A7000000 		.word	.L97+1
 1544              		.p2align 1
 1545              	.L96:
 234:Generated_Source\PSoC6\pdl\drivers\peripheral\i2s/cy_i2s.c ****     {
 235:Generated_Source\PSoC6\pdl\drivers\peripheral\i2s/cy_i2s.c ****         case CY_SYSPM_CHECK_READY:            
 236:Generated_Source\PSoC6\pdl\drivers\peripheral\i2s/cy_i2s.c ****         case CY_SYSPM_CHECK_FAIL:
 237:Generated_Source\PSoC6\pdl\drivers\peripheral\i2s/cy_i2s.c ****             break;
 238:Generated_Source\PSoC6\pdl\drivers\peripheral\i2s/cy_i2s.c ****         
 239:Generated_Source\PSoC6\pdl\drivers\peripheral\i2s/cy_i2s.c ****         case CY_SYSPM_BEFORE_TRANSITION:
 240:Generated_Source\PSoC6\pdl\drivers\peripheral\i2s/cy_i2s.c ****             *locInterruptMask = Cy_I2S_GetInterruptMask(locBase); /* Store I2S interrupts */
 1546              		.loc 2 240 0
 1547 0060 3869     		ldr	r0, [r7, #16]
 1548 0062 FFF7FEFF 		bl	Cy_I2S_GetInterruptMask
 1549 0066 0246     		mov	r2, r0
 1550 0068 FB68     		ldr	r3, [r7, #12]
 1551 006a 1A60     		str	r2, [r3]
 241:Generated_Source\PSoC6\pdl\drivers\peripheral\i2s/cy_i2s.c ****             *locState = Cy_I2S_GetCurrentState(locBase); /* Store I2S state */
 1552              		.loc 2 241 0
 1553 006c 3869     		ldr	r0, [r7, #16]
 1554 006e FFF7FEFF 		bl	Cy_I2S_GetCurrentState
 1555 0072 0246     		mov	r2, r0
 1556 0074 BB68     		ldr	r3, [r7, #8]
 1557 0076 1A60     		str	r2, [r3]
 242:Generated_Source\PSoC6\pdl\drivers\peripheral\i2s/cy_i2s.c ****             if (0UL != (*locState & I2S_CMD_TX_START_Msk))
 1558              		.loc 2 242 0
 1559 0078 BB68     		ldr	r3, [r7, #8]
 1560 007a 1B68     		ldr	r3, [r3]
 1561 007c 03F00103 		and	r3, r3, #1
 1562 0080 002B     		cmp	r3, #0
 1563 0082 02D0     		beq	.L99
 243:Generated_Source\PSoC6\pdl\drivers\peripheral\i2s/cy_i2s.c ****             {
 244:Generated_Source\PSoC6\pdl\drivers\peripheral\i2s/cy_i2s.c ****                 Cy_I2S_DisableTx(locBase); /* Stop TX operation */
 1564              		.loc 2 244 0
 1565 0084 3869     		ldr	r0, [r7, #16]
 1566 0086 FFF7FEFF 		bl	Cy_I2S_DisableTx
 1567              	.L99:
 245:Generated_Source\PSoC6\pdl\drivers\peripheral\i2s/cy_i2s.c ****             }
 246:Generated_Source\PSoC6\pdl\drivers\peripheral\i2s/cy_i2s.c ****             if (0UL != (*locState & I2S_CMD_RX_START_Msk))
ARM GAS  C:\Users\ikomb\AppData\Local\Temp\cchnbsea.s 			page 52


 1568              		.loc 2 246 0
 1569 008a BB68     		ldr	r3, [r7, #8]
 1570 008c 1B68     		ldr	r3, [r3]
 1571 008e 03F48033 		and	r3, r3, #65536
 1572 0092 002B     		cmp	r3, #0
 1573 0094 02D0     		beq	.L100
 247:Generated_Source\PSoC6\pdl\drivers\peripheral\i2s/cy_i2s.c ****             {
 248:Generated_Source\PSoC6\pdl\drivers\peripheral\i2s/cy_i2s.c ****                 Cy_I2S_DisableRx(locBase); /* Stop RX operation */
 1574              		.loc 2 248 0
 1575 0096 3869     		ldr	r0, [r7, #16]
 1576 0098 FFF7FEFF 		bl	Cy_I2S_DisableRx
 1577              	.L100:
 249:Generated_Source\PSoC6\pdl\drivers\peripheral\i2s/cy_i2s.c ****             }
 250:Generated_Source\PSoC6\pdl\drivers\peripheral\i2s/cy_i2s.c ****             Cy_I2S_SetInterruptMask(locBase, 0UL); /* Disable I2S interrupts */
 1578              		.loc 2 250 0
 1579 009c 0021     		movs	r1, #0
 1580 009e 3869     		ldr	r0, [r7, #16]
 1581 00a0 FFF7FEFF 		bl	Cy_I2S_SetInterruptMask
 251:Generated_Source\PSoC6\pdl\drivers\peripheral\i2s/cy_i2s.c ****             /* Unload FIFOs in order not to lose data (if needed) */
 252:Generated_Source\PSoC6\pdl\drivers\peripheral\i2s/cy_i2s.c ****             break;
 1582              		.loc 2 252 0
 1583 00a4 39E0     		b	.L98
 1584              	.L97:
 253:Generated_Source\PSoC6\pdl\drivers\peripheral\i2s/cy_i2s.c ****             
 254:Generated_Source\PSoC6\pdl\drivers\peripheral\i2s/cy_i2s.c ****         case CY_SYSPM_AFTER_TRANSITION:
 255:Generated_Source\PSoC6\pdl\drivers\peripheral\i2s/cy_i2s.c ****             if (0UL != (*locState & I2S_CMD_RX_START_Msk))
 1585              		.loc 2 255 0
 1586 00a6 BB68     		ldr	r3, [r7, #8]
 1587 00a8 1B68     		ldr	r3, [r3]
 1588 00aa 03F48033 		and	r3, r3, #65536
 1589 00ae 002B     		cmp	r3, #0
 1590 00b0 05D0     		beq	.L101
 256:Generated_Source\PSoC6\pdl\drivers\peripheral\i2s/cy_i2s.c ****             {
 257:Generated_Source\PSoC6\pdl\drivers\peripheral\i2s/cy_i2s.c ****                 Cy_I2S_ClearRxFifo(locBase); /* Clear the RX FIFO */
 1591              		.loc 2 257 0
 1592 00b2 3869     		ldr	r0, [r7, #16]
 1593 00b4 FFF7FEFF 		bl	Cy_I2S_ClearRxFifo
 258:Generated_Source\PSoC6\pdl\drivers\peripheral\i2s/cy_i2s.c ****                 Cy_I2S_EnableRx(locBase); /* Start RX operation */
 1594              		.loc 2 258 0
 1595 00b8 3869     		ldr	r0, [r7, #16]
 1596 00ba FFF7FEFF 		bl	Cy_I2S_EnableRx
 1597              	.L101:
 259:Generated_Source\PSoC6\pdl\drivers\peripheral\i2s/cy_i2s.c ****             }
 260:Generated_Source\PSoC6\pdl\drivers\peripheral\i2s/cy_i2s.c ****             if (0UL != (*locState & I2S_CMD_TX_START_Msk))
 1598              		.loc 2 260 0
 1599 00be BB68     		ldr	r3, [r7, #8]
 1600 00c0 1B68     		ldr	r3, [r3]
 1601 00c2 03F00103 		and	r3, r3, #1
 1602 00c6 002B     		cmp	r3, #0
 1603 00c8 16D0     		beq	.L102
 261:Generated_Source\PSoC6\pdl\drivers\peripheral\i2s/cy_i2s.c ****             {
 262:Generated_Source\PSoC6\pdl\drivers\peripheral\i2s/cy_i2s.c ****                 Cy_I2S_ClearTxFifo(locBase); /* Clear the TX FIFO */
 1604              		.loc 2 262 0
 1605 00ca 3869     		ldr	r0, [r7, #16]
 1606 00cc FFF7FEFF 		bl	Cy_I2S_ClearTxFifo
 263:Generated_Source\PSoC6\pdl\drivers\peripheral\i2s/cy_i2s.c ****                 Cy_I2S_WriteTxData(locBase, 0UL); /* Fill at least one TX frame */
 1607              		.loc 2 263 0
ARM GAS  C:\Users\ikomb\AppData\Local\Temp\cchnbsea.s 			page 53


 1608 00d0 0021     		movs	r1, #0
 1609 00d2 3869     		ldr	r0, [r7, #16]
 1610 00d4 FFF7FEFF 		bl	Cy_I2S_WriteTxData
 264:Generated_Source\PSoC6\pdl\drivers\peripheral\i2s/cy_i2s.c ****                 Cy_I2S_WriteTxData(locBase, 0UL);
 1611              		.loc 2 264 0
 1612 00d8 0021     		movs	r1, #0
 1613 00da 3869     		ldr	r0, [r7, #16]
 1614 00dc FFF7FEFF 		bl	Cy_I2S_WriteTxData
 265:Generated_Source\PSoC6\pdl\drivers\peripheral\i2s/cy_i2s.c ****                 if (0UL != (*locState & I2S_CMD_TX_PAUSE_Msk))
 1615              		.loc 2 265 0
 1616 00e0 BB68     		ldr	r3, [r7, #8]
 1617 00e2 1B68     		ldr	r3, [r3]
 1618 00e4 03F48073 		and	r3, r3, #256
 1619 00e8 002B     		cmp	r3, #0
 1620 00ea 02D0     		beq	.L103
 266:Generated_Source\PSoC6\pdl\drivers\peripheral\i2s/cy_i2s.c ****                 {
 267:Generated_Source\PSoC6\pdl\drivers\peripheral\i2s/cy_i2s.c ****                     Cy_I2S_PauseTx(locBase); /* Restore the TX paused state */
 1621              		.loc 2 267 0
 1622 00ec 3869     		ldr	r0, [r7, #16]
 1623 00ee FFF7FEFF 		bl	Cy_I2S_PauseTx
 1624              	.L103:
 268:Generated_Source\PSoC6\pdl\drivers\peripheral\i2s/cy_i2s.c ****                 }
 269:Generated_Source\PSoC6\pdl\drivers\peripheral\i2s/cy_i2s.c ****                 Cy_I2S_EnableTx(locBase); /* Start TX operation */
 1625              		.loc 2 269 0
 1626 00f2 3869     		ldr	r0, [r7, #16]
 1627 00f4 FFF7FEFF 		bl	Cy_I2S_EnableTx
 1628              	.L102:
 270:Generated_Source\PSoC6\pdl\drivers\peripheral\i2s/cy_i2s.c ****             }
 271:Generated_Source\PSoC6\pdl\drivers\peripheral\i2s/cy_i2s.c ****             Cy_I2S_ClearInterrupt(locBase, *locInterruptMask); /* Clear possible pending I2S interr
 1629              		.loc 2 271 0
 1630 00f8 FB68     		ldr	r3, [r7, #12]
 1631 00fa 1B68     		ldr	r3, [r3]
 1632 00fc 1946     		mov	r1, r3
 1633 00fe 3869     		ldr	r0, [r7, #16]
 1634 0100 FFF7FEFF 		bl	Cy_I2S_ClearInterrupt
 272:Generated_Source\PSoC6\pdl\drivers\peripheral\i2s/cy_i2s.c ****             Cy_I2S_SetInterruptMask(locBase, *locInterruptMask); /* Restore I2S interrupts */
 1635              		.loc 2 272 0
 1636 0104 FB68     		ldr	r3, [r7, #12]
 1637 0106 1B68     		ldr	r3, [r3]
 1638 0108 1946     		mov	r1, r3
 1639 010a 3869     		ldr	r0, [r7, #16]
 1640 010c FFF7FEFF 		bl	Cy_I2S_SetInterruptMask
 273:Generated_Source\PSoC6\pdl\drivers\peripheral\i2s/cy_i2s.c ****             break;
 1641              		.loc 2 273 0
 1642 0110 03E0     		b	.L98
 1643              	.L93:
 274:Generated_Source\PSoC6\pdl\drivers\peripheral\i2s/cy_i2s.c ****         
 275:Generated_Source\PSoC6\pdl\drivers\peripheral\i2s/cy_i2s.c ****         default:
 276:Generated_Source\PSoC6\pdl\drivers\peripheral\i2s/cy_i2s.c ****             ret = CY_SYSPM_FAIL;
 1644              		.loc 2 276 0
 1645 0112 054B     		ldr	r3, .L106+4
 1646 0114 7B61     		str	r3, [r7, #20]
 277:Generated_Source\PSoC6\pdl\drivers\peripheral\i2s/cy_i2s.c ****             break;
 1647              		.loc 2 277 0
 1648 0116 00E0     		b	.L98
 1649              	.L105:
 237:Generated_Source\PSoC6\pdl\drivers\peripheral\i2s/cy_i2s.c ****         
ARM GAS  C:\Users\ikomb\AppData\Local\Temp\cchnbsea.s 			page 54


 1650              		.loc 2 237 0
 1651 0118 00BF     		nop
 1652              	.L98:
 278:Generated_Source\PSoC6\pdl\drivers\peripheral\i2s/cy_i2s.c ****     }
 279:Generated_Source\PSoC6\pdl\drivers\peripheral\i2s/cy_i2s.c ****         
 280:Generated_Source\PSoC6\pdl\drivers\peripheral\i2s/cy_i2s.c ****     return(ret);
 1653              		.loc 2 280 0
 1654 011a 7B69     		ldr	r3, [r7, #20]
 281:Generated_Source\PSoC6\pdl\drivers\peripheral\i2s/cy_i2s.c **** }
 1655              		.loc 2 281 0
 1656 011c 1846     		mov	r0, r3
 1657 011e 1837     		adds	r7, r7, #24
 1658              		.cfi_def_cfa_offset 8
 1659 0120 BD46     		mov	sp, r7
 1660              		.cfi_def_cfa_register 13
 1661              		@ sp needed
 1662 0122 80BD     		pop	{r7, pc}
 1663              	.L107:
 1664              		.align	2
 1665              	.L106:
 1666 0124 3C000000 		.word	.LC1
 1667 0128 FF004200 		.word	4325631
 1668              		.cfi_endproc
 1669              	.LFE188:
 1670              		.size	Cy_I2S_DeepSleepCallback, .-Cy_I2S_DeepSleepCallback
 1671              		.text
 1672              	.Letext0:
 1673              		.file 3 "c:\\program files (x86)\\cypress\\psoc creator\\4.4\\psoc creator\\import\\gnu\\arm\\5.4.
 1674              		.file 4 "c:\\program files (x86)\\cypress\\psoc creator\\4.4\\psoc creator\\import\\gnu\\arm\\5.4.
 1675              		.file 5 "Generated_Source\\PSoC6\\pdl\\devices/psoc6/ip/cyip_i2s.h"
 1676              		.file 6 "Generated_Source\\PSoC6\\pdl\\drivers/peripheral/syslib/cy_syslib.h"
 1677              		.file 7 "Generated_Source\\PSoC6\\pdl\\drivers/peripheral/syspm/cy_syspm.h"
 1678              		.file 8 "Generated_Source\\PSoC6\\pdl\\cmsis/include/core_cm4.h"