ARM GAS  C:\Users\ikomb\AppData\Local\Temp\ccmrmnRc.s 			page 1


   1              		.syntax unified
   2              		.cpu cortex-m4
   3              		.eabi_attribute 27, 1
   4              		.fpu fpv4-sp-d16
   5              		.eabi_attribute 20, 1
   6              		.eabi_attribute 21, 1
   7              		.eabi_attribute 23, 3
   8              		.eabi_attribute 24, 1
   9              		.eabi_attribute 25, 1
  10              		.eabi_attribute 26, 1
  11              		.eabi_attribute 30, 6
  12              		.eabi_attribute 34, 1
  13              		.eabi_attribute 18, 4
  14              		.thumb
  15              		.syntax unified
  16              		.file	"cy_pdm_pcm.c"
  17              		.text
  18              	.Ltext0:
  19              		.cfi_sections	.debug_frame
  20              		.section	.text.Cy_PDM_PCM_Enable,"ax",%progbits
  21              		.align	2
  22              		.thumb
  23              		.thumb_func
  24              		.type	Cy_PDM_PCM_Enable, %function
  25              	Cy_PDM_PCM_Enable:
  26              	.LFB158:
  27              		.file 1 "Generated_Source\\PSoC6\\pdl\\drivers\\peripheral\\pdm_pcm\\cy_pdm_pcm.h"
   1:Generated_Source\PSoC6\pdl\drivers\peripheral\pdm_pcm/cy_pdm_pcm.h **** /***************************************************************************//**
   2:Generated_Source\PSoC6\pdl\drivers\peripheral\pdm_pcm/cy_pdm_pcm.h **** * \file cy_pdm_pcm.h
   3:Generated_Source\PSoC6\pdl\drivers\peripheral\pdm_pcm/cy_pdm_pcm.h **** * \version 2.10
   4:Generated_Source\PSoC6\pdl\drivers\peripheral\pdm_pcm/cy_pdm_pcm.h **** *
   5:Generated_Source\PSoC6\pdl\drivers\peripheral\pdm_pcm/cy_pdm_pcm.h **** * The header file of the PDM_PCM driver.
   6:Generated_Source\PSoC6\pdl\drivers\peripheral\pdm_pcm/cy_pdm_pcm.h **** *
   7:Generated_Source\PSoC6\pdl\drivers\peripheral\pdm_pcm/cy_pdm_pcm.h **** ********************************************************************************
   8:Generated_Source\PSoC6\pdl\drivers\peripheral\pdm_pcm/cy_pdm_pcm.h **** * \copyright
   9:Generated_Source\PSoC6\pdl\drivers\peripheral\pdm_pcm/cy_pdm_pcm.h **** * Copyright 2016-2018, Cypress Semiconductor Corporation. All rights reserved.
  10:Generated_Source\PSoC6\pdl\drivers\peripheral\pdm_pcm/cy_pdm_pcm.h **** * You may use this file only in accordance with the license, terms, conditions,
  11:Generated_Source\PSoC6\pdl\drivers\peripheral\pdm_pcm/cy_pdm_pcm.h **** * disclaimers, and limitations in the end user license agreement accompanying
  12:Generated_Source\PSoC6\pdl\drivers\peripheral\pdm_pcm/cy_pdm_pcm.h **** * the software package with which this file was provided.
  13:Generated_Source\PSoC6\pdl\drivers\peripheral\pdm_pcm/cy_pdm_pcm.h **** *******************************************************************************/
  14:Generated_Source\PSoC6\pdl\drivers\peripheral\pdm_pcm/cy_pdm_pcm.h **** 
  15:Generated_Source\PSoC6\pdl\drivers\peripheral\pdm_pcm/cy_pdm_pcm.h **** /**
  16:Generated_Source\PSoC6\pdl\drivers\peripheral\pdm_pcm/cy_pdm_pcm.h **** * \defgroup group_pdm_pcm PDM-PCM Converter (PDM_PCM)
  17:Generated_Source\PSoC6\pdl\drivers\peripheral\pdm_pcm/cy_pdm_pcm.h **** * \{
  18:Generated_Source\PSoC6\pdl\drivers\peripheral\pdm_pcm/cy_pdm_pcm.h **** *
  19:Generated_Source\PSoC6\pdl\drivers\peripheral\pdm_pcm/cy_pdm_pcm.h **** * The pulse-density modulation to pulse-code modulation (PDM-PCM) driver provides an
  20:Generated_Source\PSoC6\pdl\drivers\peripheral\pdm_pcm/cy_pdm_pcm.h **** * API to manage PDM-PCM conversion. A PDM-PCM converter is used
  21:Generated_Source\PSoC6\pdl\drivers\peripheral\pdm_pcm/cy_pdm_pcm.h **** * to convert 1-bit digital audio streaming data to PCM data.
  22:Generated_Source\PSoC6\pdl\drivers\peripheral\pdm_pcm/cy_pdm_pcm.h **** *
  23:Generated_Source\PSoC6\pdl\drivers\peripheral\pdm_pcm/cy_pdm_pcm.h **** * Features:
  24:Generated_Source\PSoC6\pdl\drivers\peripheral\pdm_pcm/cy_pdm_pcm.h **** * * Supports FIFO buffer for Incoming Data
  25:Generated_Source\PSoC6\pdl\drivers\peripheral\pdm_pcm/cy_pdm_pcm.h **** * * Supports Software Mute Mode
  26:Generated_Source\PSoC6\pdl\drivers\peripheral\pdm_pcm/cy_pdm_pcm.h **** * * Programmable Gain Settings
  27:Generated_Source\PSoC6\pdl\drivers\peripheral\pdm_pcm/cy_pdm_pcm.h **** * * Programmable Word Length
  28:Generated_Source\PSoC6\pdl\drivers\peripheral\pdm_pcm/cy_pdm_pcm.h **** *
  29:Generated_Source\PSoC6\pdl\drivers\peripheral\pdm_pcm/cy_pdm_pcm.h **** * Pulse-density modulation, or PDM, represents
  30:Generated_Source\PSoC6\pdl\drivers\peripheral\pdm_pcm/cy_pdm_pcm.h **** * an analog signal with a binary signal. In a PDM signal, specific amplitude values
ARM GAS  C:\Users\ikomb\AppData\Local\Temp\ccmrmnRc.s 			page 2


  31:Generated_Source\PSoC6\pdl\drivers\peripheral\pdm_pcm/cy_pdm_pcm.h **** * are not encoded into codewords of pulses of different weight as they would be
  32:Generated_Source\PSoC6\pdl\drivers\peripheral\pdm_pcm/cy_pdm_pcm.h **** * in pulse-code modulation (PCM); rather, the relative density of the pulses corresponds
  33:Generated_Source\PSoC6\pdl\drivers\peripheral\pdm_pcm/cy_pdm_pcm.h **** * to the analog signal's amplitude. The output of a 1-bit DAC is the same
  34:Generated_Source\PSoC6\pdl\drivers\peripheral\pdm_pcm/cy_pdm_pcm.h **** * as the PDM encoding of the signal.
  35:Generated_Source\PSoC6\pdl\drivers\peripheral\pdm_pcm/cy_pdm_pcm.h **** *
  36:Generated_Source\PSoC6\pdl\drivers\peripheral\pdm_pcm/cy_pdm_pcm.h **** * Pulse-code modulation (PCM) is the method used to digitally represent sampled analog signals.
  37:Generated_Source\PSoC6\pdl\drivers\peripheral\pdm_pcm/cy_pdm_pcm.h **** * It is the standard form of digital audio in computers, compact discs, digital telephony,
  38:Generated_Source\PSoC6\pdl\drivers\peripheral\pdm_pcm/cy_pdm_pcm.h **** * and other digital audio applications. In a PCM stream, the amplitude of the analog signal
  39:Generated_Source\PSoC6\pdl\drivers\peripheral\pdm_pcm/cy_pdm_pcm.h **** * is sampled regularly at uniform intervals, and each sample is quantized
  40:Generated_Source\PSoC6\pdl\drivers\peripheral\pdm_pcm/cy_pdm_pcm.h **** * to the nearest value within a range of digital steps.
  41:Generated_Source\PSoC6\pdl\drivers\peripheral\pdm_pcm/cy_pdm_pcm.h **** *
  42:Generated_Source\PSoC6\pdl\drivers\peripheral\pdm_pcm/cy_pdm_pcm.h **** * \section group_pdm_pcm_configuration_considerations Configuration Considerations
  43:Generated_Source\PSoC6\pdl\drivers\peripheral\pdm_pcm/cy_pdm_pcm.h **** *
  44:Generated_Source\PSoC6\pdl\drivers\peripheral\pdm_pcm/cy_pdm_pcm.h **** * To set up a PDM-PCM, provide the configuration parameters in the
  45:Generated_Source\PSoC6\pdl\drivers\peripheral\pdm_pcm/cy_pdm_pcm.h **** * \ref cy_stc_pdm_pcm_config_t structure.
  46:Generated_Source\PSoC6\pdl\drivers\peripheral\pdm_pcm/cy_pdm_pcm.h **** *
  47:Generated_Source\PSoC6\pdl\drivers\peripheral\pdm_pcm/cy_pdm_pcm.h **** * For example, set dataStreamingEnable to true, configure rxFifoTriggerLevel,
  48:Generated_Source\PSoC6\pdl\drivers\peripheral\pdm_pcm/cy_pdm_pcm.h **** * dmaTriggerEnable (depending on whether DMA is going to be used),
  49:Generated_Source\PSoC6\pdl\drivers\peripheral\pdm_pcm/cy_pdm_pcm.h **** * provide clock settings (clkDiv, mclkDiv and ckoDiv), set sincDecRate
  50:Generated_Source\PSoC6\pdl\drivers\peripheral\pdm_pcm/cy_pdm_pcm.h **** * to the appropriate decimation rate, wordLen, and wordBitExtension.
  51:Generated_Source\PSoC6\pdl\drivers\peripheral\pdm_pcm/cy_pdm_pcm.h **** * No other parameters are necessary for this example.
  52:Generated_Source\PSoC6\pdl\drivers\peripheral\pdm_pcm/cy_pdm_pcm.h **** *
  53:Generated_Source\PSoC6\pdl\drivers\peripheral\pdm_pcm/cy_pdm_pcm.h **** * To initialize the PDM-PCM block, call the \ref Cy_PDM_PCM_Init function, providing the
  54:Generated_Source\PSoC6\pdl\drivers\peripheral\pdm_pcm/cy_pdm_pcm.h **** * filled \ref cy_stc_pdm_pcm_config_t structure.
  55:Generated_Source\PSoC6\pdl\drivers\peripheral\pdm_pcm/cy_pdm_pcm.h **** *
  56:Generated_Source\PSoC6\pdl\drivers\peripheral\pdm_pcm/cy_pdm_pcm.h **** * If you use a DMA, the DMA channel should be previously configured. PDM-PCM interrupts
  57:Generated_Source\PSoC6\pdl\drivers\peripheral\pdm_pcm/cy_pdm_pcm.h **** * (if applicable) can be enabled by calling \ref Cy_PDM_PCM_SetInterruptMask.
  58:Generated_Source\PSoC6\pdl\drivers\peripheral\pdm_pcm/cy_pdm_pcm.h **** *
  59:Generated_Source\PSoC6\pdl\drivers\peripheral\pdm_pcm/cy_pdm_pcm.h **** * For example, if the trigger interrupt is used during operation, the ISR
  60:Generated_Source\PSoC6\pdl\drivers\peripheral\pdm_pcm/cy_pdm_pcm.h **** * should call the \ref Cy_PDM_PCM_ReadFifo as many times as required for your
  61:Generated_Source\PSoC6\pdl\drivers\peripheral\pdm_pcm/cy_pdm_pcm.h **** * FIFO payload. Then call \ref Cy_PDM_PCM_ClearInterrupt with appropriate parameters.
  62:Generated_Source\PSoC6\pdl\drivers\peripheral\pdm_pcm/cy_pdm_pcm.h **** *
  63:Generated_Source\PSoC6\pdl\drivers\peripheral\pdm_pcm/cy_pdm_pcm.h **** * If a DMA is used and the DMA channel is properly configured, no CPU activity
  64:Generated_Source\PSoC6\pdl\drivers\peripheral\pdm_pcm/cy_pdm_pcm.h **** * (or application code) is needed for PDM-PCM operation.
  65:Generated_Source\PSoC6\pdl\drivers\peripheral\pdm_pcm/cy_pdm_pcm.h **** *
  66:Generated_Source\PSoC6\pdl\drivers\peripheral\pdm_pcm/cy_pdm_pcm.h **** * \section group_pdm_pcm_more_information More Information
  67:Generated_Source\PSoC6\pdl\drivers\peripheral\pdm_pcm/cy_pdm_pcm.h **** * See: the PDM-PCM chapter of the device technical reference manual (TRM);
  68:Generated_Source\PSoC6\pdl\drivers\peripheral\pdm_pcm/cy_pdm_pcm.h **** *      the PDM_PCM_PDL Component datasheet;
  69:Generated_Source\PSoC6\pdl\drivers\peripheral\pdm_pcm/cy_pdm_pcm.h **** *      CE219431 - PSOC 6 MCU PDM-TO-PCM EXAMPLE.
  70:Generated_Source\PSoC6\pdl\drivers\peripheral\pdm_pcm/cy_pdm_pcm.h **** *
  71:Generated_Source\PSoC6\pdl\drivers\peripheral\pdm_pcm/cy_pdm_pcm.h **** * \section group_pdm_pcm_MISRA MISRA-C Compliance
  72:Generated_Source\PSoC6\pdl\drivers\peripheral\pdm_pcm/cy_pdm_pcm.h **** * The PDM-PCM driver has the following specific deviations:
  73:Generated_Source\PSoC6\pdl\drivers\peripheral\pdm_pcm/cy_pdm_pcm.h **** * <table class="doxtable">
  74:Generated_Source\PSoC6\pdl\drivers\peripheral\pdm_pcm/cy_pdm_pcm.h **** *   <tr>
  75:Generated_Source\PSoC6\pdl\drivers\peripheral\pdm_pcm/cy_pdm_pcm.h **** *     <th>MISRA Rule</th>
  76:Generated_Source\PSoC6\pdl\drivers\peripheral\pdm_pcm/cy_pdm_pcm.h **** *     <th>Rule Class (Required/Advisory)</th>
  77:Generated_Source\PSoC6\pdl\drivers\peripheral\pdm_pcm/cy_pdm_pcm.h **** *     <th>Rule Description</th>
  78:Generated_Source\PSoC6\pdl\drivers\peripheral\pdm_pcm/cy_pdm_pcm.h **** *     <th>Description of Deviation(s)</th>
  79:Generated_Source\PSoC6\pdl\drivers\peripheral\pdm_pcm/cy_pdm_pcm.h **** *   </tr>
  80:Generated_Source\PSoC6\pdl\drivers\peripheral\pdm_pcm/cy_pdm_pcm.h **** *   <tr>
  81:Generated_Source\PSoC6\pdl\drivers\peripheral\pdm_pcm/cy_pdm_pcm.h **** *     <td>10.3</td>
  82:Generated_Source\PSoC6\pdl\drivers\peripheral\pdm_pcm/cy_pdm_pcm.h **** *     <td>R</td>
  83:Generated_Source\PSoC6\pdl\drivers\peripheral\pdm_pcm/cy_pdm_pcm.h **** *     <td>A composite expression of the "essentially unsigned" type is
  84:Generated_Source\PSoC6\pdl\drivers\peripheral\pdm_pcm/cy_pdm_pcm.h **** *         cast to a different type category.</td>
  85:Generated_Source\PSoC6\pdl\drivers\peripheral\pdm_pcm/cy_pdm_pcm.h **** *     <td>The value got from the bitfield physically can't exceed the enumeration
  86:Generated_Source\PSoC6\pdl\drivers\peripheral\pdm_pcm/cy_pdm_pcm.h **** *         that describes this bitfield. So the code is safe by design.</td>
  87:Generated_Source\PSoC6\pdl\drivers\peripheral\pdm_pcm/cy_pdm_pcm.h **** *   </tr>
ARM GAS  C:\Users\ikomb\AppData\Local\Temp\ccmrmnRc.s 			page 3


  88:Generated_Source\PSoC6\pdl\drivers\peripheral\pdm_pcm/cy_pdm_pcm.h **** *   <tr>
  89:Generated_Source\PSoC6\pdl\drivers\peripheral\pdm_pcm/cy_pdm_pcm.h **** *     <td>11.4</td>
  90:Generated_Source\PSoC6\pdl\drivers\peripheral\pdm_pcm/cy_pdm_pcm.h **** *     <td>A</td>
  91:Generated_Source\PSoC6\pdl\drivers\peripheral\pdm_pcm/cy_pdm_pcm.h **** *     <td>A cast should not be performed between a pointer to the object type and
  92:Generated_Source\PSoC6\pdl\drivers\peripheral\pdm_pcm/cy_pdm_pcm.h **** *         a different pointer to the object type.</td>
  93:Generated_Source\PSoC6\pdl\drivers\peripheral\pdm_pcm/cy_pdm_pcm.h **** *     <td>The function \ref Cy_I2S_DeepSleepCallback is a callback of
  94:Generated_Source\PSoC6\pdl\drivers\peripheral\pdm_pcm/cy_pdm_pcm.h **** *         \ref cy_en_syspm_status_t type. The cast operation safety in this
  95:Generated_Source\PSoC6\pdl\drivers\peripheral\pdm_pcm/cy_pdm_pcm.h **** *         function becomes the user responsibility because the pointer is
  96:Generated_Source\PSoC6\pdl\drivers\peripheral\pdm_pcm/cy_pdm_pcm.h **** *         initialized when a callback is registered in SysPm driver.</td>
  97:Generated_Source\PSoC6\pdl\drivers\peripheral\pdm_pcm/cy_pdm_pcm.h **** *   </tr>
  98:Generated_Source\PSoC6\pdl\drivers\peripheral\pdm_pcm/cy_pdm_pcm.h **** * </table>
  99:Generated_Source\PSoC6\pdl\drivers\peripheral\pdm_pcm/cy_pdm_pcm.h **** *
 100:Generated_Source\PSoC6\pdl\drivers\peripheral\pdm_pcm/cy_pdm_pcm.h **** * \section group_pdm_pcm_changelog Changelog
 101:Generated_Source\PSoC6\pdl\drivers\peripheral\pdm_pcm/cy_pdm_pcm.h **** * <table class="doxtable">
 102:Generated_Source\PSoC6\pdl\drivers\peripheral\pdm_pcm/cy_pdm_pcm.h **** *   <tr><th>Version</th><th>Changes</th><th>Reason for Change</th></tr>
 103:Generated_Source\PSoC6\pdl\drivers\peripheral\pdm_pcm/cy_pdm_pcm.h **** *   <tr>
 104:Generated_Source\PSoC6\pdl\drivers\peripheral\pdm_pcm/cy_pdm_pcm.h **** *     <td>2.10</td>
 105:Generated_Source\PSoC6\pdl\drivers\peripheral\pdm_pcm/cy_pdm_pcm.h **** *     <td>The gain values in range +4.5...+10.5dB (5 items) of /ref cy_en_pdm_pcm_gain_t are correc
 106:Generated_Source\PSoC6\pdl\drivers\peripheral\pdm_pcm/cy_pdm_pcm.h **** *         Added Low Power Callback section.</td>
 107:Generated_Source\PSoC6\pdl\drivers\peripheral\pdm_pcm/cy_pdm_pcm.h **** *     <td>Incorrect setting of gain values in limited range.
 108:Generated_Source\PSoC6\pdl\drivers\peripheral\pdm_pcm/cy_pdm_pcm.h **** *         Documentation update and clarification.</td>
 109:Generated_Source\PSoC6\pdl\drivers\peripheral\pdm_pcm/cy_pdm_pcm.h **** *   </tr>
 110:Generated_Source\PSoC6\pdl\drivers\peripheral\pdm_pcm/cy_pdm_pcm.h **** *   <tr>
 111:Generated_Source\PSoC6\pdl\drivers\peripheral\pdm_pcm/cy_pdm_pcm.h **** *     <td>2.0</td>
 112:Generated_Source\PSoC6\pdl\drivers\peripheral\pdm_pcm/cy_pdm_pcm.h **** *     <td>Enumeration types for gain and soft mute cycles are added.<br>
 113:Generated_Source\PSoC6\pdl\drivers\peripheral\pdm_pcm/cy_pdm_pcm.h **** *         Function parameter checks are added.<br>        
 114:Generated_Source\PSoC6\pdl\drivers\peripheral\pdm_pcm/cy_pdm_pcm.h **** *         The next functions are removed:
 115:Generated_Source\PSoC6\pdl\drivers\peripheral\pdm_pcm/cy_pdm_pcm.h **** *         * Cy_PDM_PCM_EnterLowPowerCallback
 116:Generated_Source\PSoC6\pdl\drivers\peripheral\pdm_pcm/cy_pdm_pcm.h **** *         * Cy_PDM_PCM_ExitLowPowerCallback
 117:Generated_Source\PSoC6\pdl\drivers\peripheral\pdm_pcm/cy_pdm_pcm.h **** *         * Cy_PDM_PCM_EnableDataStream
 118:Generated_Source\PSoC6\pdl\drivers\peripheral\pdm_pcm/cy_pdm_pcm.h **** *         * Cy_PDM_PCM_DisableDataStream
 119:Generated_Source\PSoC6\pdl\drivers\peripheral\pdm_pcm/cy_pdm_pcm.h **** *         * Cy_PDM_PCM_SetFifoLevel
 120:Generated_Source\PSoC6\pdl\drivers\peripheral\pdm_pcm/cy_pdm_pcm.h **** *         * Cy_PDM_PCM_GetFifoLevel
 121:Generated_Source\PSoC6\pdl\drivers\peripheral\pdm_pcm/cy_pdm_pcm.h **** *         * Cy_PDM_PCM_EnableDmaRequest
 122:Generated_Source\PSoC6\pdl\drivers\peripheral\pdm_pcm/cy_pdm_pcm.h **** *         * Cy_PDM_PCM_DisableDmaRequest
 123:Generated_Source\PSoC6\pdl\drivers\peripheral\pdm_pcm/cy_pdm_pcm.h **** *
 124:Generated_Source\PSoC6\pdl\drivers\peripheral\pdm_pcm/cy_pdm_pcm.h **** *         The next functions behaviour are modified:
 125:Generated_Source\PSoC6\pdl\drivers\peripheral\pdm_pcm/cy_pdm_pcm.h **** *         * Cy_PDM_PCM_Enable
 126:Generated_Source\PSoC6\pdl\drivers\peripheral\pdm_pcm/cy_pdm_pcm.h **** *         * Cy_PDM_PCM_Disable
 127:Generated_Source\PSoC6\pdl\drivers\peripheral\pdm_pcm/cy_pdm_pcm.h **** *         * Cy_PDM_PCM_SetInterruptMask
 128:Generated_Source\PSoC6\pdl\drivers\peripheral\pdm_pcm/cy_pdm_pcm.h **** *         * Cy_PDM_PCM_GetInterruptMask
 129:Generated_Source\PSoC6\pdl\drivers\peripheral\pdm_pcm/cy_pdm_pcm.h **** *         * Cy_PDM_PCM_GetInterruptStatusMasked
 130:Generated_Source\PSoC6\pdl\drivers\peripheral\pdm_pcm/cy_pdm_pcm.h **** *         * Cy_PDM_PCM_GetInterruptStatus
 131:Generated_Source\PSoC6\pdl\drivers\peripheral\pdm_pcm/cy_pdm_pcm.h **** *         * Cy_PDM_PCM_ClearInterrupt
 132:Generated_Source\PSoC6\pdl\drivers\peripheral\pdm_pcm/cy_pdm_pcm.h **** *         * Cy_PDM_PCM_SetInterrupt
 133:Generated_Source\PSoC6\pdl\drivers\peripheral\pdm_pcm/cy_pdm_pcm.h **** *
 134:Generated_Source\PSoC6\pdl\drivers\peripheral\pdm_pcm/cy_pdm_pcm.h **** *         The Cy_PDM_PCM_GetFifoNumWords function is renamed to Cy_PDM_PCM_GetNumInFifo.<br>
 135:Generated_Source\PSoC6\pdl\drivers\peripheral\pdm_pcm/cy_pdm_pcm.h **** *         The Cy_PDM_PCM_GetCurrentState function is added.
 136:Generated_Source\PSoC6\pdl\drivers\peripheral\pdm_pcm/cy_pdm_pcm.h **** *     </td>
 137:Generated_Source\PSoC6\pdl\drivers\peripheral\pdm_pcm/cy_pdm_pcm.h **** *     <td>Improvements based on usability feedbacks.<br>
 138:Generated_Source\PSoC6\pdl\drivers\peripheral\pdm_pcm/cy_pdm_pcm.h **** *         API is reworked for consistency within the PDL.
 139:Generated_Source\PSoC6\pdl\drivers\peripheral\pdm_pcm/cy_pdm_pcm.h **** *     </td>
 140:Generated_Source\PSoC6\pdl\drivers\peripheral\pdm_pcm/cy_pdm_pcm.h **** *   </tr>
 141:Generated_Source\PSoC6\pdl\drivers\peripheral\pdm_pcm/cy_pdm_pcm.h **** *   <tr>
 142:Generated_Source\PSoC6\pdl\drivers\peripheral\pdm_pcm/cy_pdm_pcm.h **** *     <td>1.0</td>
 143:Generated_Source\PSoC6\pdl\drivers\peripheral\pdm_pcm/cy_pdm_pcm.h **** *     <td>Initial version</td>
 144:Generated_Source\PSoC6\pdl\drivers\peripheral\pdm_pcm/cy_pdm_pcm.h **** *     <td></td>
ARM GAS  C:\Users\ikomb\AppData\Local\Temp\ccmrmnRc.s 			page 4


 145:Generated_Source\PSoC6\pdl\drivers\peripheral\pdm_pcm/cy_pdm_pcm.h **** *   </tr>
 146:Generated_Source\PSoC6\pdl\drivers\peripheral\pdm_pcm/cy_pdm_pcm.h **** * </table>
 147:Generated_Source\PSoC6\pdl\drivers\peripheral\pdm_pcm/cy_pdm_pcm.h **** *
 148:Generated_Source\PSoC6\pdl\drivers\peripheral\pdm_pcm/cy_pdm_pcm.h **** * \defgroup group_pdm_pcm_macros Macros
 149:Generated_Source\PSoC6\pdl\drivers\peripheral\pdm_pcm/cy_pdm_pcm.h **** * \defgroup group_pdm_pcm_functions Functions
 150:Generated_Source\PSoC6\pdl\drivers\peripheral\pdm_pcm/cy_pdm_pcm.h **** *   \{
 151:Generated_Source\PSoC6\pdl\drivers\peripheral\pdm_pcm/cy_pdm_pcm.h **** *       \defgroup group_pdm_pcm_functions_syspm_callback  Low Power Callback
 152:Generated_Source\PSoC6\pdl\drivers\peripheral\pdm_pcm/cy_pdm_pcm.h **** *   \}
 153:Generated_Source\PSoC6\pdl\drivers\peripheral\pdm_pcm/cy_pdm_pcm.h **** * \defgroup group_pdm_pcm_data_structures Data Structures
 154:Generated_Source\PSoC6\pdl\drivers\peripheral\pdm_pcm/cy_pdm_pcm.h **** * \defgroup group_pdm_pcm_enums Enumerated Types
 155:Generated_Source\PSoC6\pdl\drivers\peripheral\pdm_pcm/cy_pdm_pcm.h **** *
 156:Generated_Source\PSoC6\pdl\drivers\peripheral\pdm_pcm/cy_pdm_pcm.h **** */
 157:Generated_Source\PSoC6\pdl\drivers\peripheral\pdm_pcm/cy_pdm_pcm.h **** 
 158:Generated_Source\PSoC6\pdl\drivers\peripheral\pdm_pcm/cy_pdm_pcm.h **** #if !defined(CY_PDM_PCM_H__)
 159:Generated_Source\PSoC6\pdl\drivers\peripheral\pdm_pcm/cy_pdm_pcm.h **** #define CY_PDM_PCM_H__
 160:Generated_Source\PSoC6\pdl\drivers\peripheral\pdm_pcm/cy_pdm_pcm.h **** 
 161:Generated_Source\PSoC6\pdl\drivers\peripheral\pdm_pcm/cy_pdm_pcm.h **** /******************************************************************************/
 162:Generated_Source\PSoC6\pdl\drivers\peripheral\pdm_pcm/cy_pdm_pcm.h **** /* Include files                                                              */
 163:Generated_Source\PSoC6\pdl\drivers\peripheral\pdm_pcm/cy_pdm_pcm.h **** /******************************************************************************/
 164:Generated_Source\PSoC6\pdl\drivers\peripheral\pdm_pcm/cy_pdm_pcm.h **** 
 165:Generated_Source\PSoC6\pdl\drivers\peripheral\pdm_pcm/cy_pdm_pcm.h **** #include "cy_device_headers.h"
 166:Generated_Source\PSoC6\pdl\drivers\peripheral\pdm_pcm/cy_pdm_pcm.h **** #include "syslib/cy_syslib.h"
 167:Generated_Source\PSoC6\pdl\drivers\peripheral\pdm_pcm/cy_pdm_pcm.h **** #include "syspm/cy_syspm.h"
 168:Generated_Source\PSoC6\pdl\drivers\peripheral\pdm_pcm/cy_pdm_pcm.h **** #include <stddef.h>
 169:Generated_Source\PSoC6\pdl\drivers\peripheral\pdm_pcm/cy_pdm_pcm.h **** #include <stdbool.h>
 170:Generated_Source\PSoC6\pdl\drivers\peripheral\pdm_pcm/cy_pdm_pcm.h **** 
 171:Generated_Source\PSoC6\pdl\drivers\peripheral\pdm_pcm/cy_pdm_pcm.h **** #ifndef CY_IP_MXAUDIOSS
 172:Generated_Source\PSoC6\pdl\drivers\peripheral\pdm_pcm/cy_pdm_pcm.h ****     #error "The PDM-PCM driver is not supported on this device"
 173:Generated_Source\PSoC6\pdl\drivers\peripheral\pdm_pcm/cy_pdm_pcm.h **** #endif
 174:Generated_Source\PSoC6\pdl\drivers\peripheral\pdm_pcm/cy_pdm_pcm.h **** 
 175:Generated_Source\PSoC6\pdl\drivers\peripheral\pdm_pcm/cy_pdm_pcm.h **** /* The C binding of definitions if building with the C++ compiler */
 176:Generated_Source\PSoC6\pdl\drivers\peripheral\pdm_pcm/cy_pdm_pcm.h **** #ifdef __cplusplus
 177:Generated_Source\PSoC6\pdl\drivers\peripheral\pdm_pcm/cy_pdm_pcm.h **** extern "C"
 178:Generated_Source\PSoC6\pdl\drivers\peripheral\pdm_pcm/cy_pdm_pcm.h **** {
 179:Generated_Source\PSoC6\pdl\drivers\peripheral\pdm_pcm/cy_pdm_pcm.h **** #endif
 180:Generated_Source\PSoC6\pdl\drivers\peripheral\pdm_pcm/cy_pdm_pcm.h **** 
 181:Generated_Source\PSoC6\pdl\drivers\peripheral\pdm_pcm/cy_pdm_pcm.h **** /******************************************************************************
 182:Generated_Source\PSoC6\pdl\drivers\peripheral\pdm_pcm/cy_pdm_pcm.h ****  * Global definitions
 183:Generated_Source\PSoC6\pdl\drivers\peripheral\pdm_pcm/cy_pdm_pcm.h ****  ******************************************************************************/
 184:Generated_Source\PSoC6\pdl\drivers\peripheral\pdm_pcm/cy_pdm_pcm.h **** 
 185:Generated_Source\PSoC6\pdl\drivers\peripheral\pdm_pcm/cy_pdm_pcm.h **** /* Macros */
 186:Generated_Source\PSoC6\pdl\drivers\peripheral\pdm_pcm/cy_pdm_pcm.h **** /**
 187:Generated_Source\PSoC6\pdl\drivers\peripheral\pdm_pcm/cy_pdm_pcm.h **** * \addtogroup group_pdm_pcm_macros
 188:Generated_Source\PSoC6\pdl\drivers\peripheral\pdm_pcm/cy_pdm_pcm.h **** * \{
 189:Generated_Source\PSoC6\pdl\drivers\peripheral\pdm_pcm/cy_pdm_pcm.h **** */
 190:Generated_Source\PSoC6\pdl\drivers\peripheral\pdm_pcm/cy_pdm_pcm.h **** 
 191:Generated_Source\PSoC6\pdl\drivers\peripheral\pdm_pcm/cy_pdm_pcm.h **** /** The driver major version */
 192:Generated_Source\PSoC6\pdl\drivers\peripheral\pdm_pcm/cy_pdm_pcm.h **** #define CY_PDM_PCM_DRV_VERSION_MAJOR       2
 193:Generated_Source\PSoC6\pdl\drivers\peripheral\pdm_pcm/cy_pdm_pcm.h **** 
 194:Generated_Source\PSoC6\pdl\drivers\peripheral\pdm_pcm/cy_pdm_pcm.h **** /** The driver minor version */
 195:Generated_Source\PSoC6\pdl\drivers\peripheral\pdm_pcm/cy_pdm_pcm.h **** #define CY_PDM_PCM_DRV_VERSION_MINOR       10
 196:Generated_Source\PSoC6\pdl\drivers\peripheral\pdm_pcm/cy_pdm_pcm.h **** 
 197:Generated_Source\PSoC6\pdl\drivers\peripheral\pdm_pcm/cy_pdm_pcm.h **** /** The PDM-PCM driver identifier */
 198:Generated_Source\PSoC6\pdl\drivers\peripheral\pdm_pcm/cy_pdm_pcm.h **** #define CY_PDM_PCM_ID                       CY_PDL_DRV_ID(0x26u)
 199:Generated_Source\PSoC6\pdl\drivers\peripheral\pdm_pcm/cy_pdm_pcm.h **** 
 200:Generated_Source\PSoC6\pdl\drivers\peripheral\pdm_pcm/cy_pdm_pcm.h **** /**
 201:Generated_Source\PSoC6\pdl\drivers\peripheral\pdm_pcm/cy_pdm_pcm.h **** * \defgroup group_pdm_pcm_macros_intrerrupt_masks Interrupt Masks
ARM GAS  C:\Users\ikomb\AppData\Local\Temp\ccmrmnRc.s 			page 5


 202:Generated_Source\PSoC6\pdl\drivers\peripheral\pdm_pcm/cy_pdm_pcm.h **** * \{
 203:Generated_Source\PSoC6\pdl\drivers\peripheral\pdm_pcm/cy_pdm_pcm.h **** */
 204:Generated_Source\PSoC6\pdl\drivers\peripheral\pdm_pcm/cy_pdm_pcm.h **** 
 205:Generated_Source\PSoC6\pdl\drivers\peripheral\pdm_pcm/cy_pdm_pcm.h **** /** Bit 16: More entries in the RX FIFO than specified by Trigger Level. */
 206:Generated_Source\PSoC6\pdl\drivers\peripheral\pdm_pcm/cy_pdm_pcm.h **** #define CY_PDM_PCM_INTR_RX_TRIGGER         (PDM_INTR_RX_TRIGGER_Msk)
 207:Generated_Source\PSoC6\pdl\drivers\peripheral\pdm_pcm/cy_pdm_pcm.h **** /** Bit 18: RX FIFO is not empty. */
 208:Generated_Source\PSoC6\pdl\drivers\peripheral\pdm_pcm/cy_pdm_pcm.h **** #define CY_PDM_PCM_INTR_RX_NOT_EMPTY       (PDM_INTR_RX_NOT_EMPTY_Msk)
 209:Generated_Source\PSoC6\pdl\drivers\peripheral\pdm_pcm/cy_pdm_pcm.h **** /** Bit 21: Attempt to write to a full RX FIFO. */
 210:Generated_Source\PSoC6\pdl\drivers\peripheral\pdm_pcm/cy_pdm_pcm.h **** #define CY_PDM_PCM_INTR_RX_OVERFLOW        (PDM_INTR_RX_OVERFLOW_Msk)
 211:Generated_Source\PSoC6\pdl\drivers\peripheral\pdm_pcm/cy_pdm_pcm.h **** /** Bit 22: Attempt to read from an empty RX FIFO. */
 212:Generated_Source\PSoC6\pdl\drivers\peripheral\pdm_pcm/cy_pdm_pcm.h **** #define CY_PDM_PCM_INTR_RX_UNDERFLOW       (PDM_INTR_RX_UNDERFLOW_Msk)
 213:Generated_Source\PSoC6\pdl\drivers\peripheral\pdm_pcm/cy_pdm_pcm.h **** 
 214:Generated_Source\PSoC6\pdl\drivers\peripheral\pdm_pcm/cy_pdm_pcm.h **** /** \} group_pdm_pcm_macros_intrerrupt_masks */
 215:Generated_Source\PSoC6\pdl\drivers\peripheral\pdm_pcm/cy_pdm_pcm.h **** 
 216:Generated_Source\PSoC6\pdl\drivers\peripheral\pdm_pcm/cy_pdm_pcm.h **** /** \} group_pdm_pcm_macros */
 217:Generated_Source\PSoC6\pdl\drivers\peripheral\pdm_pcm/cy_pdm_pcm.h **** 
 218:Generated_Source\PSoC6\pdl\drivers\peripheral\pdm_pcm/cy_pdm_pcm.h **** /**
 219:Generated_Source\PSoC6\pdl\drivers\peripheral\pdm_pcm/cy_pdm_pcm.h **** * \addtogroup group_pdm_pcm_enums
 220:Generated_Source\PSoC6\pdl\drivers\peripheral\pdm_pcm/cy_pdm_pcm.h **** * \{
 221:Generated_Source\PSoC6\pdl\drivers\peripheral\pdm_pcm/cy_pdm_pcm.h **** */
 222:Generated_Source\PSoC6\pdl\drivers\peripheral\pdm_pcm/cy_pdm_pcm.h **** 
 223:Generated_Source\PSoC6\pdl\drivers\peripheral\pdm_pcm/cy_pdm_pcm.h **** /** PDM Word Length. */
 224:Generated_Source\PSoC6\pdl\drivers\peripheral\pdm_pcm/cy_pdm_pcm.h **** typedef enum
 225:Generated_Source\PSoC6\pdl\drivers\peripheral\pdm_pcm/cy_pdm_pcm.h **** {
 226:Generated_Source\PSoC6\pdl\drivers\peripheral\pdm_pcm/cy_pdm_pcm.h ****     CY_PDM_PCM_WLEN_16_BIT     = 0U,         /**< Word length: 16 bit. */
 227:Generated_Source\PSoC6\pdl\drivers\peripheral\pdm_pcm/cy_pdm_pcm.h ****     CY_PDM_PCM_WLEN_18_BIT     = 1U,         /**< Word length: 18 bit. */
 228:Generated_Source\PSoC6\pdl\drivers\peripheral\pdm_pcm/cy_pdm_pcm.h ****     CY_PDM_PCM_WLEN_20_BIT     = 2U,         /**< Word length: 20 bit. */
 229:Generated_Source\PSoC6\pdl\drivers\peripheral\pdm_pcm/cy_pdm_pcm.h ****     CY_PDM_PCM_WLEN_24_BIT     = 3U          /**< Word length: 24 bit. */
 230:Generated_Source\PSoC6\pdl\drivers\peripheral\pdm_pcm/cy_pdm_pcm.h **** } cy_en_pdm_pcm_word_len_t;
 231:Generated_Source\PSoC6\pdl\drivers\peripheral\pdm_pcm/cy_pdm_pcm.h **** 
 232:Generated_Source\PSoC6\pdl\drivers\peripheral\pdm_pcm/cy_pdm_pcm.h **** /** PDM Clock Divider. */
 233:Generated_Source\PSoC6\pdl\drivers\peripheral\pdm_pcm/cy_pdm_pcm.h **** typedef enum
 234:Generated_Source\PSoC6\pdl\drivers\peripheral\pdm_pcm/cy_pdm_pcm.h **** {
 235:Generated_Source\PSoC6\pdl\drivers\peripheral\pdm_pcm/cy_pdm_pcm.h ****     CY_PDM_PCM_CLK_DIV_BYPASS  = 0U,         /**< Clock 1/1. */
 236:Generated_Source\PSoC6\pdl\drivers\peripheral\pdm_pcm/cy_pdm_pcm.h ****     CY_PDM_PCM_CLK_DIV_1_2     = 1U,         /**< Clock 1/2 (no 50% duty cycle). */
 237:Generated_Source\PSoC6\pdl\drivers\peripheral\pdm_pcm/cy_pdm_pcm.h ****     CY_PDM_PCM_CLK_DIV_1_3     = 2U,         /**< Clock 1/3 (no 50% duty cycle). */
 238:Generated_Source\PSoC6\pdl\drivers\peripheral\pdm_pcm/cy_pdm_pcm.h ****     CY_PDM_PCM_CLK_DIV_1_4     = 3U          /**< Clock 1/4 (no 50% duty cycle). */
 239:Generated_Source\PSoC6\pdl\drivers\peripheral\pdm_pcm/cy_pdm_pcm.h **** } cy_en_pdm_pcm_clk_div_t;
 240:Generated_Source\PSoC6\pdl\drivers\peripheral\pdm_pcm/cy_pdm_pcm.h **** 
 241:Generated_Source\PSoC6\pdl\drivers\peripheral\pdm_pcm/cy_pdm_pcm.h **** /** PDM Output Mode. */
 242:Generated_Source\PSoC6\pdl\drivers\peripheral\pdm_pcm/cy_pdm_pcm.h **** typedef enum
 243:Generated_Source\PSoC6\pdl\drivers\peripheral\pdm_pcm/cy_pdm_pcm.h **** {
 244:Generated_Source\PSoC6\pdl\drivers\peripheral\pdm_pcm/cy_pdm_pcm.h ****     CY_PDM_PCM_OUT_CHAN_LEFT   = 1U,         /**< Channel mono left. */
 245:Generated_Source\PSoC6\pdl\drivers\peripheral\pdm_pcm/cy_pdm_pcm.h ****     CY_PDM_PCM_OUT_CHAN_RIGHT  = 2U,         /**< Channel mono right. */
 246:Generated_Source\PSoC6\pdl\drivers\peripheral\pdm_pcm/cy_pdm_pcm.h ****     CY_PDM_PCM_OUT_STEREO      = 3U          /**< Channel stereo. */
 247:Generated_Source\PSoC6\pdl\drivers\peripheral\pdm_pcm/cy_pdm_pcm.h **** } cy_en_pdm_pcm_out_t;
 248:Generated_Source\PSoC6\pdl\drivers\peripheral\pdm_pcm/cy_pdm_pcm.h **** 
 249:Generated_Source\PSoC6\pdl\drivers\peripheral\pdm_pcm/cy_pdm_pcm.h **** /** PDM Channel selector. */
 250:Generated_Source\PSoC6\pdl\drivers\peripheral\pdm_pcm/cy_pdm_pcm.h **** typedef enum
 251:Generated_Source\PSoC6\pdl\drivers\peripheral\pdm_pcm/cy_pdm_pcm.h **** {
 252:Generated_Source\PSoC6\pdl\drivers\peripheral\pdm_pcm/cy_pdm_pcm.h ****     CY_PDM_PCM_CHAN_LEFT       = 0U,         /**< Channel left. */
 253:Generated_Source\PSoC6\pdl\drivers\peripheral\pdm_pcm/cy_pdm_pcm.h ****     CY_PDM_PCM_CHAN_RIGHT      = 1U          /**< Channel right. */
 254:Generated_Source\PSoC6\pdl\drivers\peripheral\pdm_pcm/cy_pdm_pcm.h **** } cy_en_pdm_pcm_chan_select_t;
 255:Generated_Source\PSoC6\pdl\drivers\peripheral\pdm_pcm/cy_pdm_pcm.h **** 
 256:Generated_Source\PSoC6\pdl\drivers\peripheral\pdm_pcm/cy_pdm_pcm.h **** /** PDM Gain. */
 257:Generated_Source\PSoC6\pdl\drivers\peripheral\pdm_pcm/cy_pdm_pcm.h **** typedef enum
 258:Generated_Source\PSoC6\pdl\drivers\peripheral\pdm_pcm/cy_pdm_pcm.h **** {
ARM GAS  C:\Users\ikomb\AppData\Local\Temp\ccmrmnRc.s 			page 6


 259:Generated_Source\PSoC6\pdl\drivers\peripheral\pdm_pcm/cy_pdm_pcm.h ****     CY_PDM_PCM_ATTN_12_DB      = 0U,         /**< -12 dB (attenuation). */
 260:Generated_Source\PSoC6\pdl\drivers\peripheral\pdm_pcm/cy_pdm_pcm.h ****     CY_PDM_PCM_ATTN_10_5_DB    = 1U,         /**< -10.5 dB (attenuation). */
 261:Generated_Source\PSoC6\pdl\drivers\peripheral\pdm_pcm/cy_pdm_pcm.h ****     CY_PDM_PCM_ATTN_9_DB       = 2U,         /**< -9 dB (attenuation). */
 262:Generated_Source\PSoC6\pdl\drivers\peripheral\pdm_pcm/cy_pdm_pcm.h ****     CY_PDM_PCM_ATTN_7_5_DB     = 3U,         /**< -7.5 dB (attenuation). */
 263:Generated_Source\PSoC6\pdl\drivers\peripheral\pdm_pcm/cy_pdm_pcm.h ****     CY_PDM_PCM_ATTN_6_DB       = 4U,         /**< -6 dB (attenuation). */
 264:Generated_Source\PSoC6\pdl\drivers\peripheral\pdm_pcm/cy_pdm_pcm.h ****     CY_PDM_PCM_ATTN_4_5_DB     = 5U,         /**< -4.5 dB (attenuation). */
 265:Generated_Source\PSoC6\pdl\drivers\peripheral\pdm_pcm/cy_pdm_pcm.h ****     CY_PDM_PCM_ATTN_3_DB       = 6U,         /**< -3 dB (attenuation). */
 266:Generated_Source\PSoC6\pdl\drivers\peripheral\pdm_pcm/cy_pdm_pcm.h ****     CY_PDM_PCM_ATTN_1_5_DB     = 7U,         /**< -1.5 dB (attenuation). */
 267:Generated_Source\PSoC6\pdl\drivers\peripheral\pdm_pcm/cy_pdm_pcm.h ****     CY_PDM_PCM_BYPASS          = 8U,         /**< 0 dB (bypass). */
 268:Generated_Source\PSoC6\pdl\drivers\peripheral\pdm_pcm/cy_pdm_pcm.h ****     CY_PDM_PCM_GAIN_1_5_DB     = 9U,         /**< +1.5 dB (amplification). */
 269:Generated_Source\PSoC6\pdl\drivers\peripheral\pdm_pcm/cy_pdm_pcm.h ****     CY_PDM_PCM_GAIN_3_DB       = 10U,        /**< +3 dB (amplification). */
 270:Generated_Source\PSoC6\pdl\drivers\peripheral\pdm_pcm/cy_pdm_pcm.h ****     CY_PDM_PCM_GAIN_4_5_DB     = 11U,        /**< +4.5 dB (amplification). */
 271:Generated_Source\PSoC6\pdl\drivers\peripheral\pdm_pcm/cy_pdm_pcm.h ****     CY_PDM_PCM_GAIN_6_DB       = 12U,        /**< +6 dB (amplification). */
 272:Generated_Source\PSoC6\pdl\drivers\peripheral\pdm_pcm/cy_pdm_pcm.h ****     CY_PDM_PCM_GAIN_7_5_DB     = 13U,        /**< +7.5 dB (amplification). */
 273:Generated_Source\PSoC6\pdl\drivers\peripheral\pdm_pcm/cy_pdm_pcm.h ****     CY_PDM_PCM_GAIN_9_DB       = 14U,        /**< +9 dB (amplification). */
 274:Generated_Source\PSoC6\pdl\drivers\peripheral\pdm_pcm/cy_pdm_pcm.h ****     CY_PDM_PCM_GAIN_10_5_DB    = 15U         /**< +10.5 dB (amplification). */
 275:Generated_Source\PSoC6\pdl\drivers\peripheral\pdm_pcm/cy_pdm_pcm.h **** } cy_en_pdm_pcm_gain_t;
 276:Generated_Source\PSoC6\pdl\drivers\peripheral\pdm_pcm/cy_pdm_pcm.h **** 
 277:Generated_Source\PSoC6\pdl\drivers\peripheral\pdm_pcm/cy_pdm_pcm.h **** 
 278:Generated_Source\PSoC6\pdl\drivers\peripheral\pdm_pcm/cy_pdm_pcm.h **** /** The time step for gain change during PGA or soft mute operation in
 279:Generated_Source\PSoC6\pdl\drivers\peripheral\pdm_pcm/cy_pdm_pcm.h ****  *  number of 1/a sampling rate. */
 280:Generated_Source\PSoC6\pdl\drivers\peripheral\pdm_pcm/cy_pdm_pcm.h **** typedef enum
 281:Generated_Source\PSoC6\pdl\drivers\peripheral\pdm_pcm/cy_pdm_pcm.h **** {
 282:Generated_Source\PSoC6\pdl\drivers\peripheral\pdm_pcm/cy_pdm_pcm.h ****     CY_PDM_PCM_SOFT_MUTE_CYCLES_64  = 0U,    /**< 64 steps. */
 283:Generated_Source\PSoC6\pdl\drivers\peripheral\pdm_pcm/cy_pdm_pcm.h ****     CY_PDM_PCM_SOFT_MUTE_CYCLES_96  = 1U,    /**< 96 steps. */
 284:Generated_Source\PSoC6\pdl\drivers\peripheral\pdm_pcm/cy_pdm_pcm.h ****     CY_PDM_PCM_SOFT_MUTE_CYCLES_128 = 2U,    /**< 128 steps. */
 285:Generated_Source\PSoC6\pdl\drivers\peripheral\pdm_pcm/cy_pdm_pcm.h ****     CY_PDM_PCM_SOFT_MUTE_CYCLES_160 = 3U,    /**< 160 steps. */
 286:Generated_Source\PSoC6\pdl\drivers\peripheral\pdm_pcm/cy_pdm_pcm.h ****     CY_PDM_PCM_SOFT_MUTE_CYCLES_192 = 4U,    /**< 192 steps. */
 287:Generated_Source\PSoC6\pdl\drivers\peripheral\pdm_pcm/cy_pdm_pcm.h ****     CY_PDM_PCM_SOFT_MUTE_CYCLES_256 = 5U,    /**< 256 steps. */
 288:Generated_Source\PSoC6\pdl\drivers\peripheral\pdm_pcm/cy_pdm_pcm.h ****     CY_PDM_PCM_SOFT_MUTE_CYCLES_384 = 6U,    /**< 384 steps. */
 289:Generated_Source\PSoC6\pdl\drivers\peripheral\pdm_pcm/cy_pdm_pcm.h ****     CY_PDM_PCM_SOFT_MUTE_CYCLES_512 = 7U     /**< 512 steps. */
 290:Generated_Source\PSoC6\pdl\drivers\peripheral\pdm_pcm/cy_pdm_pcm.h **** } cy_en_pdm_pcm_s_cycles_t;
 291:Generated_Source\PSoC6\pdl\drivers\peripheral\pdm_pcm/cy_pdm_pcm.h **** 
 292:Generated_Source\PSoC6\pdl\drivers\peripheral\pdm_pcm/cy_pdm_pcm.h **** /** The PDM-PCM status codes. */
 293:Generated_Source\PSoC6\pdl\drivers\peripheral\pdm_pcm/cy_pdm_pcm.h **** typedef enum
 294:Generated_Source\PSoC6\pdl\drivers\peripheral\pdm_pcm/cy_pdm_pcm.h **** {
 295:Generated_Source\PSoC6\pdl\drivers\peripheral\pdm_pcm/cy_pdm_pcm.h ****     CY_PDM_PCM_SUCCESS         = 0x00UL,    /**< Success status code */
 296:Generated_Source\PSoC6\pdl\drivers\peripheral\pdm_pcm/cy_pdm_pcm.h ****     CY_PDM_PCM_BAD_PARAM       = CY_PDM_PCM_ID | CY_PDL_STATUS_ERROR | 0x01UL /**< Bad parameter st
 297:Generated_Source\PSoC6\pdl\drivers\peripheral\pdm_pcm/cy_pdm_pcm.h **** } cy_en_pdm_pcm_status_t;
 298:Generated_Source\PSoC6\pdl\drivers\peripheral\pdm_pcm/cy_pdm_pcm.h **** 
 299:Generated_Source\PSoC6\pdl\drivers\peripheral\pdm_pcm/cy_pdm_pcm.h **** /** \} group_pdm_pcm_enums */
 300:Generated_Source\PSoC6\pdl\drivers\peripheral\pdm_pcm/cy_pdm_pcm.h **** 
 301:Generated_Source\PSoC6\pdl\drivers\peripheral\pdm_pcm/cy_pdm_pcm.h **** 
 302:Generated_Source\PSoC6\pdl\drivers\peripheral\pdm_pcm/cy_pdm_pcm.h **** /**
 303:Generated_Source\PSoC6\pdl\drivers\peripheral\pdm_pcm/cy_pdm_pcm.h **** * \addtogroup group_pdm_pcm_data_structures
 304:Generated_Source\PSoC6\pdl\drivers\peripheral\pdm_pcm/cy_pdm_pcm.h **** * \{
 305:Generated_Source\PSoC6\pdl\drivers\peripheral\pdm_pcm/cy_pdm_pcm.h **** */
 306:Generated_Source\PSoC6\pdl\drivers\peripheral\pdm_pcm/cy_pdm_pcm.h **** 
 307:Generated_Source\PSoC6\pdl\drivers\peripheral\pdm_pcm/cy_pdm_pcm.h **** /******************************************************************************
 308:Generated_Source\PSoC6\pdl\drivers\peripheral\pdm_pcm/cy_pdm_pcm.h ****  * Global type definitions
 309:Generated_Source\PSoC6\pdl\drivers\peripheral\pdm_pcm/cy_pdm_pcm.h ****  ******************************************************************************/
 310:Generated_Source\PSoC6\pdl\drivers\peripheral\pdm_pcm/cy_pdm_pcm.h **** 
 311:Generated_Source\PSoC6\pdl\drivers\peripheral\pdm_pcm/cy_pdm_pcm.h **** /** PDM-PCM initialization configuration */
 312:Generated_Source\PSoC6\pdl\drivers\peripheral\pdm_pcm/cy_pdm_pcm.h **** typedef struct
 313:Generated_Source\PSoC6\pdl\drivers\peripheral\pdm_pcm/cy_pdm_pcm.h **** {
 314:Generated_Source\PSoC6\pdl\drivers\peripheral\pdm_pcm/cy_pdm_pcm.h ****     cy_en_pdm_pcm_clk_div_t  clkDiv;              /**< PDM Clock Divider (1st divider), see #cy_en_
 315:Generated_Source\PSoC6\pdl\drivers\peripheral\pdm_pcm/cy_pdm_pcm.h ****                                                     This configures a frequency of PDM CLK. The con
ARM GAS  C:\Users\ikomb\AppData\Local\Temp\ccmrmnRc.s 			page 7


 316:Generated_Source\PSoC6\pdl\drivers\peripheral\pdm_pcm/cy_pdm_pcm.h ****                                                     is used to operate PDM core. I.e. the frequency
 317:Generated_Source\PSoC6\pdl\drivers\peripheral\pdm_pcm/cy_pdm_pcm.h ****                                                     MCLKQ_CLOCK_DIV register. */
 318:Generated_Source\PSoC6\pdl\drivers\peripheral\pdm_pcm/cy_pdm_pcm.h ****     cy_en_pdm_pcm_clk_div_t  mclkDiv;             /**< MCLKQ divider (2nd divider), see #cy_en_pdm_
 319:Generated_Source\PSoC6\pdl\drivers\peripheral\pdm_pcm/cy_pdm_pcm.h ****     uint8_t                  ckoDiv;              /**< PDM CKO (FPDM_CKO) clock divider (3rd divide
 320:Generated_Source\PSoC6\pdl\drivers\peripheral\pdm_pcm/cy_pdm_pcm.h ****                                                     - if CKO_CLOCK_DIV >= 1 - *F(PDM_CKO) = F(PDM_C
 321:Generated_Source\PSoC6\pdl\drivers\peripheral\pdm_pcm/cy_pdm_pcm.h ****                                                     - if CKO_CLOCK_DIV  = 0 - *F(PDM_CKO) = MCLKQ /
 322:Generated_Source\PSoC6\pdl\drivers\peripheral\pdm_pcm/cy_pdm_pcm.h ****     uint8_t                  ckoDelay;            /**< Extra PDM_CKO delay to internal sampler:
 323:Generated_Source\PSoC6\pdl\drivers\peripheral\pdm_pcm/cy_pdm_pcm.h ****                                                     - 0: Three extra PDM_CLK period advance
 324:Generated_Source\PSoC6\pdl\drivers\peripheral\pdm_pcm/cy_pdm_pcm.h ****                                                     - 1: Two extra PDM_CLK period advance
 325:Generated_Source\PSoC6\pdl\drivers\peripheral\pdm_pcm/cy_pdm_pcm.h ****                                                     - 2: One extra PDM_CLK period advance
 326:Generated_Source\PSoC6\pdl\drivers\peripheral\pdm_pcm/cy_pdm_pcm.h ****                                                     - 3: No delay
 327:Generated_Source\PSoC6\pdl\drivers\peripheral\pdm_pcm/cy_pdm_pcm.h ****                                                     - 4: One extra PDM_CLK period delay
 328:Generated_Source\PSoC6\pdl\drivers\peripheral\pdm_pcm/cy_pdm_pcm.h ****                                                     - 5: Two extra PDM_CLK period delay
 329:Generated_Source\PSoC6\pdl\drivers\peripheral\pdm_pcm/cy_pdm_pcm.h ****                                                     - 6: Three extra PDM_CLK period delay
 330:Generated_Source\PSoC6\pdl\drivers\peripheral\pdm_pcm/cy_pdm_pcm.h ****                                                     - 7: Four extra PDM_CLK clock delay */
 331:Generated_Source\PSoC6\pdl\drivers\peripheral\pdm_pcm/cy_pdm_pcm.h ****     uint8_t                  sincDecRate;         /**< F(MCLK_L_R) = Fs * 2 * sincDecRate * mclkDiv
 332:Generated_Source\PSoC6\pdl\drivers\peripheral\pdm_pcm/cy_pdm_pcm.h ****                                                     Fs is a sampling frequency, 8kHz - 48kHz */
 333:Generated_Source\PSoC6\pdl\drivers\peripheral\pdm_pcm/cy_pdm_pcm.h ****     cy_en_pdm_pcm_out_t      chanSelect;          /**< see #cy_en_pdm_pcm_out_t */
 334:Generated_Source\PSoC6\pdl\drivers\peripheral\pdm_pcm/cy_pdm_pcm.h ****     bool                     chanSwapEnable;      /**< Audio channels swapping */
 335:Generated_Source\PSoC6\pdl\drivers\peripheral\pdm_pcm/cy_pdm_pcm.h ****     uint8_t                  highPassFilterGain;  /**< High pass filter gain:
 336:Generated_Source\PSoC6\pdl\drivers\peripheral\pdm_pcm/cy_pdm_pcm.h ****                                                     H(Z) = (1 - Z^-1) / (1 - (1 - 2^highPassFilterG
 337:Generated_Source\PSoC6\pdl\drivers\peripheral\pdm_pcm/cy_pdm_pcm.h ****     bool                     highPassDisable;     /**< High pass filter disable */
 338:Generated_Source\PSoC6\pdl\drivers\peripheral\pdm_pcm/cy_pdm_pcm.h ****     cy_en_pdm_pcm_s_cycles_t softMuteCycles;      /**< The time step for gain change during PGA or 
 339:Generated_Source\PSoC6\pdl\drivers\peripheral\pdm_pcm/cy_pdm_pcm.h ****                                                     number of 1/a sampling rate, see #cy_en_pdm_pcm
 340:Generated_Source\PSoC6\pdl\drivers\peripheral\pdm_pcm/cy_pdm_pcm.h ****     uint32_t                 softMuteFineGain;    /**< Soft mute fine gain: 0 = 0.13dB, 1 = 0.26dB 
 341:Generated_Source\PSoC6\pdl\drivers\peripheral\pdm_pcm/cy_pdm_pcm.h ****     bool                     softMuteEnable;      /**< Soft mute enable */
 342:Generated_Source\PSoC6\pdl\drivers\peripheral\pdm_pcm/cy_pdm_pcm.h ****     cy_en_pdm_pcm_word_len_t wordLen;             /**< see #cy_en_pdm_pcm_word_len_t */
 343:Generated_Source\PSoC6\pdl\drivers\peripheral\pdm_pcm/cy_pdm_pcm.h ****     bool                     signExtension;       /**< Word extension type:
 344:Generated_Source\PSoC6\pdl\drivers\peripheral\pdm_pcm/cy_pdm_pcm.h ****                                                     - 0: extension by zero
 345:Generated_Source\PSoC6\pdl\drivers\peripheral\pdm_pcm/cy_pdm_pcm.h ****                                                     - 1: extension by sign bits */
 346:Generated_Source\PSoC6\pdl\drivers\peripheral\pdm_pcm/cy_pdm_pcm.h ****     cy_en_pdm_pcm_gain_t     gainLeft;            /**< Gain for left channel, see #cy_en_pdm_pcm_ga
 347:Generated_Source\PSoC6\pdl\drivers\peripheral\pdm_pcm/cy_pdm_pcm.h ****     cy_en_pdm_pcm_gain_t     gainRight;           /**< Gain for right channel, see #cy_en_pdm_pcm_g
 348:Generated_Source\PSoC6\pdl\drivers\peripheral\pdm_pcm/cy_pdm_pcm.h ****     uint8_t                  rxFifoTriggerLevel;  /**< Fifo interrupt trigger level (in words), 
 349:Generated_Source\PSoC6\pdl\drivers\peripheral\pdm_pcm/cy_pdm_pcm.h ****                                                     range: 0 - 253 for stereo and 0 - 254 for mono 
 350:Generated_Source\PSoC6\pdl\drivers\peripheral\pdm_pcm/cy_pdm_pcm.h ****     bool                     dmaTriggerEnable;    /**< DMA trigger enable */
 351:Generated_Source\PSoC6\pdl\drivers\peripheral\pdm_pcm/cy_pdm_pcm.h ****     uint32_t                 interruptMask;       /**< Interrupts enable mask */
 352:Generated_Source\PSoC6\pdl\drivers\peripheral\pdm_pcm/cy_pdm_pcm.h **** } cy_stc_pdm_pcm_config_t;
 353:Generated_Source\PSoC6\pdl\drivers\peripheral\pdm_pcm/cy_pdm_pcm.h **** 
 354:Generated_Source\PSoC6\pdl\drivers\peripheral\pdm_pcm/cy_pdm_pcm.h **** /** \} group_pdm_pcm_data_structures */
 355:Generated_Source\PSoC6\pdl\drivers\peripheral\pdm_pcm/cy_pdm_pcm.h **** 
 356:Generated_Source\PSoC6\pdl\drivers\peripheral\pdm_pcm/cy_pdm_pcm.h **** 
 357:Generated_Source\PSoC6\pdl\drivers\peripheral\pdm_pcm/cy_pdm_pcm.h **** /** \cond INTERNAL */
 358:Generated_Source\PSoC6\pdl\drivers\peripheral\pdm_pcm/cy_pdm_pcm.h **** /******************************************************************************
 359:Generated_Source\PSoC6\pdl\drivers\peripheral\pdm_pcm/cy_pdm_pcm.h ****  * Local definitions
 360:Generated_Source\PSoC6\pdl\drivers\peripheral\pdm_pcm/cy_pdm_pcm.h **** *******************************************************************************/
 361:Generated_Source\PSoC6\pdl\drivers\peripheral\pdm_pcm/cy_pdm_pcm.h **** /** Define bit mask for all available interrupt sources */
 362:Generated_Source\PSoC6\pdl\drivers\peripheral\pdm_pcm/cy_pdm_pcm.h **** #define CY_PDM_PCM_INTR_MASK        (CY_PDM_PCM_INTR_RX_TRIGGER   | \
 363:Generated_Source\PSoC6\pdl\drivers\peripheral\pdm_pcm/cy_pdm_pcm.h ****                                      CY_PDM_PCM_INTR_RX_NOT_EMPTY | \
 364:Generated_Source\PSoC6\pdl\drivers\peripheral\pdm_pcm/cy_pdm_pcm.h ****                                      CY_PDM_PCM_INTR_RX_OVERFLOW  | \
 365:Generated_Source\PSoC6\pdl\drivers\peripheral\pdm_pcm/cy_pdm_pcm.h ****                                      CY_PDM_PCM_INTR_RX_UNDERFLOW)
 366:Generated_Source\PSoC6\pdl\drivers\peripheral\pdm_pcm/cy_pdm_pcm.h **** 
 367:Generated_Source\PSoC6\pdl\drivers\peripheral\pdm_pcm/cy_pdm_pcm.h **** /* Non-zero default values */
 368:Generated_Source\PSoC6\pdl\drivers\peripheral\pdm_pcm/cy_pdm_pcm.h **** #define CY_PDM_PCM_CTL_PGA_R_DEFAULT    (0x8U)
 369:Generated_Source\PSoC6\pdl\drivers\peripheral\pdm_pcm/cy_pdm_pcm.h **** #define CY_PDM_PCM_CTL_PGA_L_DEFAULT    (0x8U)
 370:Generated_Source\PSoC6\pdl\drivers\peripheral\pdm_pcm/cy_pdm_pcm.h **** #define CY_PDM_PCM_CTL_STEP_SEL_DEFAULT (0x1U)
 371:Generated_Source\PSoC6\pdl\drivers\peripheral\pdm_pcm/cy_pdm_pcm.h **** 
 372:Generated_Source\PSoC6\pdl\drivers\peripheral\pdm_pcm/cy_pdm_pcm.h **** #define CY_PDM_PCM_CTL_DEFAULT (_VAL2FLD(PDM_CTL_PGA_R, CY_PDM_PCM_CTL_PGA_R_DEFAULT) | \
ARM GAS  C:\Users\ikomb\AppData\Local\Temp\ccmrmnRc.s 			page 8


 373:Generated_Source\PSoC6\pdl\drivers\peripheral\pdm_pcm/cy_pdm_pcm.h ****                                 _VAL2FLD(PDM_CTL_PGA_L, CY_PDM_PCM_CTL_PGA_L_DEFAULT) | \
 374:Generated_Source\PSoC6\pdl\drivers\peripheral\pdm_pcm/cy_pdm_pcm.h ****                                 _VAL2FLD(PDM_CTL_STEP_SEL, CY_PDM_PCM_CTL_STEP_SEL_DEFAULT))
 375:Generated_Source\PSoC6\pdl\drivers\peripheral\pdm_pcm/cy_pdm_pcm.h **** 
 376:Generated_Source\PSoC6\pdl\drivers\peripheral\pdm_pcm/cy_pdm_pcm.h **** #define CY_PDM_PCM_CLOCK_CTL_MCLKQ_CLOCK_DIV_DEFAULT (0x1U)
 377:Generated_Source\PSoC6\pdl\drivers\peripheral\pdm_pcm/cy_pdm_pcm.h **** #define CY_PDM_PCM_CLOCK_CTL_CKO_CLOCK_DIV_DEFAULT   (0x3U)
 378:Generated_Source\PSoC6\pdl\drivers\peripheral\pdm_pcm/cy_pdm_pcm.h **** #define CY_PDM_PCM_CLOCK_CTL_SINC_RATE_DEFAULT       (0x20U)
 379:Generated_Source\PSoC6\pdl\drivers\peripheral\pdm_pcm/cy_pdm_pcm.h **** 
 380:Generated_Source\PSoC6\pdl\drivers\peripheral\pdm_pcm/cy_pdm_pcm.h **** #define CY_PDM_PCM_CLOCK_CTL_DEFAULT (_VAL2FLD(PDM_CLOCK_CTL_MCLKQ_CLOCK_DIV, CY_PDM_PCM_CLOCK_CTL_
 381:Generated_Source\PSoC6\pdl\drivers\peripheral\pdm_pcm/cy_pdm_pcm.h ****                                       _VAL2FLD(PDM_CLOCK_CTL_CKO_CLOCK_DIV, CY_PDM_PCM_CLOCK_CTL_CK
 382:Generated_Source\PSoC6\pdl\drivers\peripheral\pdm_pcm/cy_pdm_pcm.h ****                                       _VAL2FLD(PDM_CLOCK_CTL_SINC_RATE, CY_PDM_PCM_CLOCK_CTL_SINC_R
 383:Generated_Source\PSoC6\pdl\drivers\peripheral\pdm_pcm/cy_pdm_pcm.h **** 
 384:Generated_Source\PSoC6\pdl\drivers\peripheral\pdm_pcm/cy_pdm_pcm.h **** #define CY_PDM_PCM_MODE_CTL_PCM_CH_SET_DEFAULT (0x3U)
 385:Generated_Source\PSoC6\pdl\drivers\peripheral\pdm_pcm/cy_pdm_pcm.h **** #define CY_PDM_PCM_MODE_CTL_S_CYCLES_DEFAULT   (0x1U)
 386:Generated_Source\PSoC6\pdl\drivers\peripheral\pdm_pcm/cy_pdm_pcm.h **** #define CY_PDM_PCM_MODE_CTL_HPF_GAIN_DEFAULT   (0xBU)
 387:Generated_Source\PSoC6\pdl\drivers\peripheral\pdm_pcm/cy_pdm_pcm.h **** #define CY_PDM_PCM_MODE_CTL_HPF_EN_N_DEFAULT   (0x1U)
 388:Generated_Source\PSoC6\pdl\drivers\peripheral\pdm_pcm/cy_pdm_pcm.h **** 
 389:Generated_Source\PSoC6\pdl\drivers\peripheral\pdm_pcm/cy_pdm_pcm.h **** #define CY_PDM_PCM_MODE_CTL_DEFAULT (_VAL2FLD(PDM_MODE_CTL_PCM_CH_SET, CY_PDM_PCM_MODE_CTL_PCM_CH_S
 390:Generated_Source\PSoC6\pdl\drivers\peripheral\pdm_pcm/cy_pdm_pcm.h ****                                      _VAL2FLD(PDM_MODE_CTL_S_CYCLES, CY_PDM_PCM_MODE_CTL_S_CYCLES_D
 391:Generated_Source\PSoC6\pdl\drivers\peripheral\pdm_pcm/cy_pdm_pcm.h ****                                      _VAL2FLD(PDM_MODE_CTL_HPF_GAIN, CY_PDM_PCM_MODE_CTL_HPF_GAIN_D
 392:Generated_Source\PSoC6\pdl\drivers\peripheral\pdm_pcm/cy_pdm_pcm.h ****                                      _VAL2FLD(PDM_MODE_CTL_HPF_EN_N, CY_PDM_PCM_MODE_CTL_HPF_EN_N_D
 393:Generated_Source\PSoC6\pdl\drivers\peripheral\pdm_pcm/cy_pdm_pcm.h **** 
 394:Generated_Source\PSoC6\pdl\drivers\peripheral\pdm_pcm/cy_pdm_pcm.h **** /* Macros for conditions used by CY_ASSERT calls */
 395:Generated_Source\PSoC6\pdl\drivers\peripheral\pdm_pcm/cy_pdm_pcm.h **** #define CY_PDM_PCM_IS_CLK_DIV_VALID(clkDiv)    (((clkDiv) == CY_PDM_PCM_CLK_DIV_BYPASS) || \
 396:Generated_Source\PSoC6\pdl\drivers\peripheral\pdm_pcm/cy_pdm_pcm.h ****                                                 ((clkDiv) == CY_PDM_PCM_CLK_DIV_1_2)    || \
 397:Generated_Source\PSoC6\pdl\drivers\peripheral\pdm_pcm/cy_pdm_pcm.h ****                                                 ((clkDiv) == CY_PDM_PCM_CLK_DIV_1_3)    || \
 398:Generated_Source\PSoC6\pdl\drivers\peripheral\pdm_pcm/cy_pdm_pcm.h ****                                                 ((clkDiv) == CY_PDM_PCM_CLK_DIV_1_4))
 399:Generated_Source\PSoC6\pdl\drivers\peripheral\pdm_pcm/cy_pdm_pcm.h **** 
 400:Generated_Source\PSoC6\pdl\drivers\peripheral\pdm_pcm/cy_pdm_pcm.h **** #define CY_PDM_PCM_IS_CH_SET_VALID(chanSelect) (((chanSelect) == CY_PDM_PCM_OUT_CHAN_LEFT)  || \
 401:Generated_Source\PSoC6\pdl\drivers\peripheral\pdm_pcm/cy_pdm_pcm.h ****                                                 ((chanSelect) == CY_PDM_PCM_OUT_CHAN_RIGHT) || \
 402:Generated_Source\PSoC6\pdl\drivers\peripheral\pdm_pcm/cy_pdm_pcm.h ****                                                 ((chanSelect) == CY_PDM_PCM_OUT_STEREO))
 403:Generated_Source\PSoC6\pdl\drivers\peripheral\pdm_pcm/cy_pdm_pcm.h **** 
 404:Generated_Source\PSoC6\pdl\drivers\peripheral\pdm_pcm/cy_pdm_pcm.h **** #define CY_PDM_PCM_IS_GAIN_VALID(gain)         (((gain) == CY_PDM_PCM_ATTN_12_DB)   || \
 405:Generated_Source\PSoC6\pdl\drivers\peripheral\pdm_pcm/cy_pdm_pcm.h ****                                                 ((gain) == CY_PDM_PCM_ATTN_10_5_DB) || \
 406:Generated_Source\PSoC6\pdl\drivers\peripheral\pdm_pcm/cy_pdm_pcm.h ****                                                 ((gain) == CY_PDM_PCM_ATTN_9_DB)    || \
 407:Generated_Source\PSoC6\pdl\drivers\peripheral\pdm_pcm/cy_pdm_pcm.h ****                                                 ((gain) == CY_PDM_PCM_ATTN_7_5_DB)  || \
 408:Generated_Source\PSoC6\pdl\drivers\peripheral\pdm_pcm/cy_pdm_pcm.h ****                                                 ((gain) == CY_PDM_PCM_ATTN_6_DB)    || \
 409:Generated_Source\PSoC6\pdl\drivers\peripheral\pdm_pcm/cy_pdm_pcm.h ****                                                 ((gain) == CY_PDM_PCM_ATTN_4_5_DB)  || \
 410:Generated_Source\PSoC6\pdl\drivers\peripheral\pdm_pcm/cy_pdm_pcm.h ****                                                 ((gain) == CY_PDM_PCM_ATTN_3_DB)    || \
 411:Generated_Source\PSoC6\pdl\drivers\peripheral\pdm_pcm/cy_pdm_pcm.h ****                                                 ((gain) == CY_PDM_PCM_ATTN_1_5_DB)  || \
 412:Generated_Source\PSoC6\pdl\drivers\peripheral\pdm_pcm/cy_pdm_pcm.h ****                                                 ((gain) == CY_PDM_PCM_BYPASS)       || \
 413:Generated_Source\PSoC6\pdl\drivers\peripheral\pdm_pcm/cy_pdm_pcm.h ****                                                 ((gain) == CY_PDM_PCM_GAIN_1_5_DB)  || \
 414:Generated_Source\PSoC6\pdl\drivers\peripheral\pdm_pcm/cy_pdm_pcm.h ****                                                 ((gain) == CY_PDM_PCM_GAIN_3_DB)    || \
 415:Generated_Source\PSoC6\pdl\drivers\peripheral\pdm_pcm/cy_pdm_pcm.h ****                                                 ((gain) == CY_PDM_PCM_GAIN_4_5_DB)  || \
 416:Generated_Source\PSoC6\pdl\drivers\peripheral\pdm_pcm/cy_pdm_pcm.h ****                                                 ((gain) == CY_PDM_PCM_GAIN_6_DB)    || \
 417:Generated_Source\PSoC6\pdl\drivers\peripheral\pdm_pcm/cy_pdm_pcm.h ****                                                 ((gain) == CY_PDM_PCM_GAIN_7_5_DB)  || \
 418:Generated_Source\PSoC6\pdl\drivers\peripheral\pdm_pcm/cy_pdm_pcm.h ****                                                 ((gain) == CY_PDM_PCM_GAIN_9_DB)    || \
 419:Generated_Source\PSoC6\pdl\drivers\peripheral\pdm_pcm/cy_pdm_pcm.h ****                                                 ((gain) == CY_PDM_PCM_GAIN_10_5_DB))
 420:Generated_Source\PSoC6\pdl\drivers\peripheral\pdm_pcm/cy_pdm_pcm.h **** 
 421:Generated_Source\PSoC6\pdl\drivers\peripheral\pdm_pcm/cy_pdm_pcm.h **** #define CY_PDM_PCM_IS_WORD_LEN_VALID(wordLen)  (((wordLen) == CY_PDM_PCM_WLEN_16_BIT) || \
 422:Generated_Source\PSoC6\pdl\drivers\peripheral\pdm_pcm/cy_pdm_pcm.h ****                                                 ((wordLen) == CY_PDM_PCM_WLEN_18_BIT) || \
 423:Generated_Source\PSoC6\pdl\drivers\peripheral\pdm_pcm/cy_pdm_pcm.h ****                                                 ((wordLen) == CY_PDM_PCM_WLEN_20_BIT) || \
 424:Generated_Source\PSoC6\pdl\drivers\peripheral\pdm_pcm/cy_pdm_pcm.h ****                                                 ((wordLen) == CY_PDM_PCM_WLEN_24_BIT))
 425:Generated_Source\PSoC6\pdl\drivers\peripheral\pdm_pcm/cy_pdm_pcm.h **** 
 426:Generated_Source\PSoC6\pdl\drivers\peripheral\pdm_pcm/cy_pdm_pcm.h **** #define CY_PDM_PCM_IS_CHAN_VALID(chan)         (((chan) == CY_PDM_PCM_CHAN_LEFT) || \
 427:Generated_Source\PSoC6\pdl\drivers\peripheral\pdm_pcm/cy_pdm_pcm.h ****                                                 ((chan) == CY_PDM_PCM_CHAN_RIGHT))
 428:Generated_Source\PSoC6\pdl\drivers\peripheral\pdm_pcm/cy_pdm_pcm.h ****                                                 
 429:Generated_Source\PSoC6\pdl\drivers\peripheral\pdm_pcm/cy_pdm_pcm.h **** #define CY_PDM_PCM_IS_S_CYCLES_VALID(sCycles)  (((sCycles) == CY_PDM_PCM_SOFT_MUTE_CYCLES_64)  || \
ARM GAS  C:\Users\ikomb\AppData\Local\Temp\ccmrmnRc.s 			page 9


 430:Generated_Source\PSoC6\pdl\drivers\peripheral\pdm_pcm/cy_pdm_pcm.h ****                                                 ((sCycles) == CY_PDM_PCM_SOFT_MUTE_CYCLES_96)  || \
 431:Generated_Source\PSoC6\pdl\drivers\peripheral\pdm_pcm/cy_pdm_pcm.h ****                                                 ((sCycles) == CY_PDM_PCM_SOFT_MUTE_CYCLES_128) || \
 432:Generated_Source\PSoC6\pdl\drivers\peripheral\pdm_pcm/cy_pdm_pcm.h ****                                                 ((sCycles) == CY_PDM_PCM_SOFT_MUTE_CYCLES_160) || \
 433:Generated_Source\PSoC6\pdl\drivers\peripheral\pdm_pcm/cy_pdm_pcm.h ****                                                 ((sCycles) == CY_PDM_PCM_SOFT_MUTE_CYCLES_192) || \
 434:Generated_Source\PSoC6\pdl\drivers\peripheral\pdm_pcm/cy_pdm_pcm.h ****                                                 ((sCycles) == CY_PDM_PCM_SOFT_MUTE_CYCLES_256) || \
 435:Generated_Source\PSoC6\pdl\drivers\peripheral\pdm_pcm/cy_pdm_pcm.h ****                                                 ((sCycles) == CY_PDM_PCM_SOFT_MUTE_CYCLES_384) || \
 436:Generated_Source\PSoC6\pdl\drivers\peripheral\pdm_pcm/cy_pdm_pcm.h ****                                                 ((sCycles) == CY_PDM_PCM_SOFT_MUTE_CYCLES_512))
 437:Generated_Source\PSoC6\pdl\drivers\peripheral\pdm_pcm/cy_pdm_pcm.h ****                                                 
 438:Generated_Source\PSoC6\pdl\drivers\peripheral\pdm_pcm/cy_pdm_pcm.h **** #define CY_PDM_PCM_IS_INTR_MASK_VALID(interrupt)  (0UL == ((interrupt) & ((uint32_t) ~CY_PDM_PCM_IN
 439:Generated_Source\PSoC6\pdl\drivers\peripheral\pdm_pcm/cy_pdm_pcm.h **** #define CY_PDM_PCM_IS_SINC_RATE_VALID(sincRate)   ((sincRate) <= 127U)
 440:Generated_Source\PSoC6\pdl\drivers\peripheral\pdm_pcm/cy_pdm_pcm.h **** #define CY_PDM_PCM_IS_STEP_SEL_VALID(stepSel)     ((stepSel)  <= 1UL)
 441:Generated_Source\PSoC6\pdl\drivers\peripheral\pdm_pcm/cy_pdm_pcm.h **** #define CY_PDM_PCM_IS_CKO_DELAY_VALID(ckoDelay)   ((ckoDelay) <= 7U)
 442:Generated_Source\PSoC6\pdl\drivers\peripheral\pdm_pcm/cy_pdm_pcm.h **** #define CY_PDM_PCM_IS_HPF_GAIN_VALID(hpfGain)     ((hpfGain)  <= 15U)
 443:Generated_Source\PSoC6\pdl\drivers\peripheral\pdm_pcm/cy_pdm_pcm.h **** #define CY_PDM_PCM_IS_CKO_CLOCK_DIV_VALID(ckoDiv) (((ckoDiv)  >= 1U) && ((ckoDiv) <= 15U))
 444:Generated_Source\PSoC6\pdl\drivers\peripheral\pdm_pcm/cy_pdm_pcm.h **** #define CY_PDM_PCM_IS_TRIG_LEVEL(trigLevel, chanSelect) ((trigLevel) <= (((chanSelect) == CY_PDM_PC
 445:Generated_Source\PSoC6\pdl\drivers\peripheral\pdm_pcm/cy_pdm_pcm.h **** /** \endcond */
 446:Generated_Source\PSoC6\pdl\drivers\peripheral\pdm_pcm/cy_pdm_pcm.h **** 
 447:Generated_Source\PSoC6\pdl\drivers\peripheral\pdm_pcm/cy_pdm_pcm.h **** /**
 448:Generated_Source\PSoC6\pdl\drivers\peripheral\pdm_pcm/cy_pdm_pcm.h **** * \addtogroup group_pdm_pcm_functions
 449:Generated_Source\PSoC6\pdl\drivers\peripheral\pdm_pcm/cy_pdm_pcm.h **** * \{
 450:Generated_Source\PSoC6\pdl\drivers\peripheral\pdm_pcm/cy_pdm_pcm.h **** */
 451:Generated_Source\PSoC6\pdl\drivers\peripheral\pdm_pcm/cy_pdm_pcm.h **** 
 452:Generated_Source\PSoC6\pdl\drivers\peripheral\pdm_pcm/cy_pdm_pcm.h **** cy_en_pdm_pcm_status_t   Cy_PDM_PCM_Init(PDM_Type * base, cy_stc_pdm_pcm_config_t const * config);
 453:Generated_Source\PSoC6\pdl\drivers\peripheral\pdm_pcm/cy_pdm_pcm.h ****                 void     Cy_PDM_PCM_DeInit(PDM_Type * base);
 454:Generated_Source\PSoC6\pdl\drivers\peripheral\pdm_pcm/cy_pdm_pcm.h ****                 void     Cy_PDM_PCM_SetGain(PDM_Type * base, cy_en_pdm_pcm_chan_select_t chan, cy_e
 455:Generated_Source\PSoC6\pdl\drivers\peripheral\pdm_pcm/cy_pdm_pcm.h **** cy_en_pdm_pcm_gain_t     Cy_PDM_PCM_GetGain(PDM_Type const * base, cy_en_pdm_pcm_chan_select_t chan
 456:Generated_Source\PSoC6\pdl\drivers\peripheral\pdm_pcm/cy_pdm_pcm.h **** 
 457:Generated_Source\PSoC6\pdl\drivers\peripheral\pdm_pcm/cy_pdm_pcm.h **** /** \addtogroup group_pdm_pcm_functions_syspm_callback
 458:Generated_Source\PSoC6\pdl\drivers\peripheral\pdm_pcm/cy_pdm_pcm.h **** * The driver supports SysPm callback for Deep Sleep transition.
 459:Generated_Source\PSoC6\pdl\drivers\peripheral\pdm_pcm/cy_pdm_pcm.h **** * \{
 460:Generated_Source\PSoC6\pdl\drivers\peripheral\pdm_pcm/cy_pdm_pcm.h **** */
 461:Generated_Source\PSoC6\pdl\drivers\peripheral\pdm_pcm/cy_pdm_pcm.h **** cy_en_syspm_status_t     Cy_PDM_PCM_DeepSleepCallback(cy_stc_syspm_callback_params_t * callbackPara
 462:Generated_Source\PSoC6\pdl\drivers\peripheral\pdm_pcm/cy_pdm_pcm.h **** /** \} */
 463:Generated_Source\PSoC6\pdl\drivers\peripheral\pdm_pcm/cy_pdm_pcm.h **** 
 464:Generated_Source\PSoC6\pdl\drivers\peripheral\pdm_pcm/cy_pdm_pcm.h **** __STATIC_INLINE void     Cy_PDM_PCM_Enable(PDM_Type * base);
 465:Generated_Source\PSoC6\pdl\drivers\peripheral\pdm_pcm/cy_pdm_pcm.h **** __STATIC_INLINE void     Cy_PDM_PCM_Disable(PDM_Type * base);
 466:Generated_Source\PSoC6\pdl\drivers\peripheral\pdm_pcm/cy_pdm_pcm.h **** __STATIC_INLINE void     Cy_PDM_PCM_SetInterruptMask(PDM_Type * base, uint32_t interrupt);
 467:Generated_Source\PSoC6\pdl\drivers\peripheral\pdm_pcm/cy_pdm_pcm.h **** __STATIC_INLINE uint32_t Cy_PDM_PCM_GetInterruptMask(PDM_Type const * base);
 468:Generated_Source\PSoC6\pdl\drivers\peripheral\pdm_pcm/cy_pdm_pcm.h **** __STATIC_INLINE uint32_t Cy_PDM_PCM_GetInterruptStatusMasked(PDM_Type const * base);
 469:Generated_Source\PSoC6\pdl\drivers\peripheral\pdm_pcm/cy_pdm_pcm.h **** __STATIC_INLINE uint32_t Cy_PDM_PCM_GetInterruptStatus(PDM_Type const * base);
 470:Generated_Source\PSoC6\pdl\drivers\peripheral\pdm_pcm/cy_pdm_pcm.h **** __STATIC_INLINE void     Cy_PDM_PCM_ClearInterrupt(PDM_Type * base, uint32_t interrupt);
 471:Generated_Source\PSoC6\pdl\drivers\peripheral\pdm_pcm/cy_pdm_pcm.h **** __STATIC_INLINE void     Cy_PDM_PCM_SetInterrupt(PDM_Type * base, uint32_t interrupt);
 472:Generated_Source\PSoC6\pdl\drivers\peripheral\pdm_pcm/cy_pdm_pcm.h **** __STATIC_INLINE uint8_t  Cy_PDM_PCM_GetNumInFifo(PDM_Type const * base);
 473:Generated_Source\PSoC6\pdl\drivers\peripheral\pdm_pcm/cy_pdm_pcm.h **** __STATIC_INLINE void     Cy_PDM_PCM_ClearFifo(PDM_Type * base);
 474:Generated_Source\PSoC6\pdl\drivers\peripheral\pdm_pcm/cy_pdm_pcm.h **** __STATIC_INLINE uint32_t Cy_PDM_PCM_ReadFifo(PDM_Type const * base);
 475:Generated_Source\PSoC6\pdl\drivers\peripheral\pdm_pcm/cy_pdm_pcm.h **** __STATIC_INLINE void     Cy_PDM_PCM_EnableSoftMute(PDM_Type * base);
 476:Generated_Source\PSoC6\pdl\drivers\peripheral\pdm_pcm/cy_pdm_pcm.h **** __STATIC_INLINE void     Cy_PDM_PCM_DisableSoftMute(PDM_Type * base);
 477:Generated_Source\PSoC6\pdl\drivers\peripheral\pdm_pcm/cy_pdm_pcm.h **** __STATIC_INLINE void     Cy_PDM_PCM_FreezeFifo(PDM_Type * base);
 478:Generated_Source\PSoC6\pdl\drivers\peripheral\pdm_pcm/cy_pdm_pcm.h **** __STATIC_INLINE void     Cy_PDM_PCM_UnfreezeFifo(PDM_Type * base);
 479:Generated_Source\PSoC6\pdl\drivers\peripheral\pdm_pcm/cy_pdm_pcm.h **** __STATIC_INLINE uint32_t Cy_PDM_PCM_ReadFifoSilent(PDM_Type const * base);
 480:Generated_Source\PSoC6\pdl\drivers\peripheral\pdm_pcm/cy_pdm_pcm.h **** 
 481:Generated_Source\PSoC6\pdl\drivers\peripheral\pdm_pcm/cy_pdm_pcm.h **** 
 482:Generated_Source\PSoC6\pdl\drivers\peripheral\pdm_pcm/cy_pdm_pcm.h **** /** \} group_pdm_pcm_functions */
 483:Generated_Source\PSoC6\pdl\drivers\peripheral\pdm_pcm/cy_pdm_pcm.h **** 
 484:Generated_Source\PSoC6\pdl\drivers\peripheral\pdm_pcm/cy_pdm_pcm.h **** /**
 485:Generated_Source\PSoC6\pdl\drivers\peripheral\pdm_pcm/cy_pdm_pcm.h **** * \addtogroup group_pdm_pcm_functions
 486:Generated_Source\PSoC6\pdl\drivers\peripheral\pdm_pcm/cy_pdm_pcm.h **** * \{
ARM GAS  C:\Users\ikomb\AppData\Local\Temp\ccmrmnRc.s 			page 10


 487:Generated_Source\PSoC6\pdl\drivers\peripheral\pdm_pcm/cy_pdm_pcm.h **** */
 488:Generated_Source\PSoC6\pdl\drivers\peripheral\pdm_pcm/cy_pdm_pcm.h **** 
 489:Generated_Source\PSoC6\pdl\drivers\peripheral\pdm_pcm/cy_pdm_pcm.h **** /******************************************************************************
 490:Generated_Source\PSoC6\pdl\drivers\peripheral\pdm_pcm/cy_pdm_pcm.h **** * Function Name: Cy_PDM_PCM_Enable
 491:Generated_Source\PSoC6\pdl\drivers\peripheral\pdm_pcm/cy_pdm_pcm.h **** ***************************************************************************//**
 492:Generated_Source\PSoC6\pdl\drivers\peripheral\pdm_pcm/cy_pdm_pcm.h **** *
 493:Generated_Source\PSoC6\pdl\drivers\peripheral\pdm_pcm/cy_pdm_pcm.h **** * Enables the PDM-PCM data conversion.
 494:Generated_Source\PSoC6\pdl\drivers\peripheral\pdm_pcm/cy_pdm_pcm.h **** *
 495:Generated_Source\PSoC6\pdl\drivers\peripheral\pdm_pcm/cy_pdm_pcm.h **** * \param base The pointer to the  PDM-PCM instance address.
 496:Generated_Source\PSoC6\pdl\drivers\peripheral\pdm_pcm/cy_pdm_pcm.h **** *
 497:Generated_Source\PSoC6\pdl\drivers\peripheral\pdm_pcm/cy_pdm_pcm.h **** ******************************************************************************/
 498:Generated_Source\PSoC6\pdl\drivers\peripheral\pdm_pcm/cy_pdm_pcm.h **** __STATIC_INLINE void Cy_PDM_PCM_Enable(PDM_Type * base)
 499:Generated_Source\PSoC6\pdl\drivers\peripheral\pdm_pcm/cy_pdm_pcm.h **** {
  28              		.loc 1 499 0
  29              		.cfi_startproc
  30              		@ args = 0, pretend = 0, frame = 8
  31              		@ frame_needed = 1, uses_anonymous_args = 0
  32              		@ link register save eliminated.
  33 0000 80B4     		push	{r7}
  34              		.cfi_def_cfa_offset 4
  35              		.cfi_offset 7, -4
  36 0002 83B0     		sub	sp, sp, #12
  37              		.cfi_def_cfa_offset 16
  38 0004 00AF     		add	r7, sp, #0
  39              		.cfi_def_cfa_register 7
  40 0006 7860     		str	r0, [r7, #4]
 500:Generated_Source\PSoC6\pdl\drivers\peripheral\pdm_pcm/cy_pdm_pcm.h ****     base->CMD |= PDM_CMD_STREAM_EN_Msk;
  41              		.loc 1 500 0
  42 0008 7B68     		ldr	r3, [r7, #4]
  43 000a 1B6A     		ldr	r3, [r3, #32]
  44 000c 43F00102 		orr	r2, r3, #1
  45 0010 7B68     		ldr	r3, [r7, #4]
  46 0012 1A62     		str	r2, [r3, #32]
 501:Generated_Source\PSoC6\pdl\drivers\peripheral\pdm_pcm/cy_pdm_pcm.h **** }
  47              		.loc 1 501 0
  48 0014 00BF     		nop
  49 0016 0C37     		adds	r7, r7, #12
  50              		.cfi_def_cfa_offset 4
  51 0018 BD46     		mov	sp, r7
  52              		.cfi_def_cfa_register 13
  53              		@ sp needed
  54 001a 5DF8047B 		ldr	r7, [sp], #4
  55              		.cfi_restore 7
  56              		.cfi_def_cfa_offset 0
  57 001e 7047     		bx	lr
  58              		.cfi_endproc
  59              	.LFE158:
  60              		.size	Cy_PDM_PCM_Enable, .-Cy_PDM_PCM_Enable
  61              		.section	.text.Cy_PDM_PCM_Disable,"ax",%progbits
  62              		.align	2
  63              		.thumb
  64              		.thumb_func
  65              		.type	Cy_PDM_PCM_Disable, %function
  66              	Cy_PDM_PCM_Disable:
  67              	.LFB159:
 502:Generated_Source\PSoC6\pdl\drivers\peripheral\pdm_pcm/cy_pdm_pcm.h **** 
 503:Generated_Source\PSoC6\pdl\drivers\peripheral\pdm_pcm/cy_pdm_pcm.h **** /******************************************************************************
ARM GAS  C:\Users\ikomb\AppData\Local\Temp\ccmrmnRc.s 			page 11


 504:Generated_Source\PSoC6\pdl\drivers\peripheral\pdm_pcm/cy_pdm_pcm.h **** * Function Name: Cy_PDM_PCM_Disable
 505:Generated_Source\PSoC6\pdl\drivers\peripheral\pdm_pcm/cy_pdm_pcm.h **** ***************************************************************************//**
 506:Generated_Source\PSoC6\pdl\drivers\peripheral\pdm_pcm/cy_pdm_pcm.h **** *
 507:Generated_Source\PSoC6\pdl\drivers\peripheral\pdm_pcm/cy_pdm_pcm.h **** * Disables the PDM-PCM data conversion.
 508:Generated_Source\PSoC6\pdl\drivers\peripheral\pdm_pcm/cy_pdm_pcm.h **** *
 509:Generated_Source\PSoC6\pdl\drivers\peripheral\pdm_pcm/cy_pdm_pcm.h **** * \param base The pointer to the PDM-PCM instance address.
 510:Generated_Source\PSoC6\pdl\drivers\peripheral\pdm_pcm/cy_pdm_pcm.h **** *
 511:Generated_Source\PSoC6\pdl\drivers\peripheral\pdm_pcm/cy_pdm_pcm.h **** ******************************************************************************/
 512:Generated_Source\PSoC6\pdl\drivers\peripheral\pdm_pcm/cy_pdm_pcm.h **** __STATIC_INLINE void Cy_PDM_PCM_Disable(PDM_Type * base)
 513:Generated_Source\PSoC6\pdl\drivers\peripheral\pdm_pcm/cy_pdm_pcm.h **** {
  68              		.loc 1 513 0
  69              		.cfi_startproc
  70              		@ args = 0, pretend = 0, frame = 8
  71              		@ frame_needed = 1, uses_anonymous_args = 0
  72              		@ link register save eliminated.
  73 0000 80B4     		push	{r7}
  74              		.cfi_def_cfa_offset 4
  75              		.cfi_offset 7, -4
  76 0002 83B0     		sub	sp, sp, #12
  77              		.cfi_def_cfa_offset 16
  78 0004 00AF     		add	r7, sp, #0
  79              		.cfi_def_cfa_register 7
  80 0006 7860     		str	r0, [r7, #4]
 514:Generated_Source\PSoC6\pdl\drivers\peripheral\pdm_pcm/cy_pdm_pcm.h ****     base->CMD &= (uint32_t) ~PDM_CMD_STREAM_EN_Msk;
  81              		.loc 1 514 0
  82 0008 7B68     		ldr	r3, [r7, #4]
  83 000a 1B6A     		ldr	r3, [r3, #32]
  84 000c 23F00102 		bic	r2, r3, #1
  85 0010 7B68     		ldr	r3, [r7, #4]
  86 0012 1A62     		str	r2, [r3, #32]
 515:Generated_Source\PSoC6\pdl\drivers\peripheral\pdm_pcm/cy_pdm_pcm.h **** }
  87              		.loc 1 515 0
  88 0014 00BF     		nop
  89 0016 0C37     		adds	r7, r7, #12
  90              		.cfi_def_cfa_offset 4
  91 0018 BD46     		mov	sp, r7
  92              		.cfi_def_cfa_register 13
  93              		@ sp needed
  94 001a 5DF8047B 		ldr	r7, [sp], #4
  95              		.cfi_restore 7
  96              		.cfi_def_cfa_offset 0
  97 001e 7047     		bx	lr
  98              		.cfi_endproc
  99              	.LFE159:
 100              		.size	Cy_PDM_PCM_Disable, .-Cy_PDM_PCM_Disable
 101              		.section	.rodata
 102              		.align	2
 103              	.LC0:
 104 0000 47656E65 		.ascii	"Generated_Source\\PSoC6\\pdl\\drivers\\peripheral\\"
 104      72617465 
 104      645F536F 
 104      75726365 
 104      5C50536F 
 105 002e 70646D5F 		.ascii	"pdm_pcm\\cy_pdm_pcm.h\000"
 105      70636D5C 
 105      63795F70 
 105      646D5F70 
ARM GAS  C:\Users\ikomb\AppData\Local\Temp\ccmrmnRc.s 			page 12


 105      636D2E68 
 106              		.section	.text.Cy_PDM_PCM_SetInterruptMask,"ax",%progbits
 107              		.align	2
 108              		.thumb
 109              		.thumb_func
 110              		.type	Cy_PDM_PCM_SetInterruptMask, %function
 111              	Cy_PDM_PCM_SetInterruptMask:
 112              	.LFB161:
 516:Generated_Source\PSoC6\pdl\drivers\peripheral\pdm_pcm/cy_pdm_pcm.h **** 
 517:Generated_Source\PSoC6\pdl\drivers\peripheral\pdm_pcm/cy_pdm_pcm.h **** 
 518:Generated_Source\PSoC6\pdl\drivers\peripheral\pdm_pcm/cy_pdm_pcm.h **** /******************************************************************************
 519:Generated_Source\PSoC6\pdl\drivers\peripheral\pdm_pcm/cy_pdm_pcm.h **** * Function Name: Cy_PDM_PCM_GetCurrentState
 520:Generated_Source\PSoC6\pdl\drivers\peripheral\pdm_pcm/cy_pdm_pcm.h **** ***************************************************************************//**
 521:Generated_Source\PSoC6\pdl\drivers\peripheral\pdm_pcm/cy_pdm_pcm.h **** *
 522:Generated_Source\PSoC6\pdl\drivers\peripheral\pdm_pcm/cy_pdm_pcm.h **** * Returns the current PDM-PCM state (running/stopped).
 523:Generated_Source\PSoC6\pdl\drivers\peripheral\pdm_pcm/cy_pdm_pcm.h **** *
 524:Generated_Source\PSoC6\pdl\drivers\peripheral\pdm_pcm/cy_pdm_pcm.h **** * \param base The pointer to the PDM-PCM instance address.
 525:Generated_Source\PSoC6\pdl\drivers\peripheral\pdm_pcm/cy_pdm_pcm.h **** * \return The current state (CMD register).
 526:Generated_Source\PSoC6\pdl\drivers\peripheral\pdm_pcm/cy_pdm_pcm.h **** *
 527:Generated_Source\PSoC6\pdl\drivers\peripheral\pdm_pcm/cy_pdm_pcm.h **** ******************************************************************************/
 528:Generated_Source\PSoC6\pdl\drivers\peripheral\pdm_pcm/cy_pdm_pcm.h **** __STATIC_INLINE uint32_t Cy_PDM_PCM_GetCurrentState(PDM_Type const * base)
 529:Generated_Source\PSoC6\pdl\drivers\peripheral\pdm_pcm/cy_pdm_pcm.h **** {
 530:Generated_Source\PSoC6\pdl\drivers\peripheral\pdm_pcm/cy_pdm_pcm.h ****     return (base->CMD);
 531:Generated_Source\PSoC6\pdl\drivers\peripheral\pdm_pcm/cy_pdm_pcm.h **** }
 532:Generated_Source\PSoC6\pdl\drivers\peripheral\pdm_pcm/cy_pdm_pcm.h **** 
 533:Generated_Source\PSoC6\pdl\drivers\peripheral\pdm_pcm/cy_pdm_pcm.h **** 
 534:Generated_Source\PSoC6\pdl\drivers\peripheral\pdm_pcm/cy_pdm_pcm.h **** /******************************************************************************
 535:Generated_Source\PSoC6\pdl\drivers\peripheral\pdm_pcm/cy_pdm_pcm.h **** * Function Name: Cy_PDM_PCM_SetInterruptMask
 536:Generated_Source\PSoC6\pdl\drivers\peripheral\pdm_pcm/cy_pdm_pcm.h **** ***************************************************************************//**
 537:Generated_Source\PSoC6\pdl\drivers\peripheral\pdm_pcm/cy_pdm_pcm.h **** *
 538:Generated_Source\PSoC6\pdl\drivers\peripheral\pdm_pcm/cy_pdm_pcm.h **** * Sets one or more PDM-PCM interrupt factor bits (sets the INTR_MASK register).
 539:Generated_Source\PSoC6\pdl\drivers\peripheral\pdm_pcm/cy_pdm_pcm.h **** *
 540:Generated_Source\PSoC6\pdl\drivers\peripheral\pdm_pcm/cy_pdm_pcm.h **** * \param base The pointer to the PDM-PCM instance address
 541:Generated_Source\PSoC6\pdl\drivers\peripheral\pdm_pcm/cy_pdm_pcm.h **** * \param interrupt Interrupt bit mask \ref group_pdm_pcm_macros_intrerrupt_masks.
 542:Generated_Source\PSoC6\pdl\drivers\peripheral\pdm_pcm/cy_pdm_pcm.h **** *
 543:Generated_Source\PSoC6\pdl\drivers\peripheral\pdm_pcm/cy_pdm_pcm.h **** ******************************************************************************/
 544:Generated_Source\PSoC6\pdl\drivers\peripheral\pdm_pcm/cy_pdm_pcm.h **** __STATIC_INLINE void Cy_PDM_PCM_SetInterruptMask(PDM_Type * base, uint32_t interrupt)
 545:Generated_Source\PSoC6\pdl\drivers\peripheral\pdm_pcm/cy_pdm_pcm.h **** {
 113              		.loc 1 545 0
 114              		.cfi_startproc
 115              		@ args = 0, pretend = 0, frame = 8
 116              		@ frame_needed = 1, uses_anonymous_args = 0
 117 0000 80B5     		push	{r7, lr}
 118              		.cfi_def_cfa_offset 8
 119              		.cfi_offset 7, -8
 120              		.cfi_offset 14, -4
 121 0002 82B0     		sub	sp, sp, #8
 122              		.cfi_def_cfa_offset 16
 123 0004 00AF     		add	r7, sp, #0
 124              		.cfi_def_cfa_register 7
 125 0006 7860     		str	r0, [r7, #4]
 126 0008 3960     		str	r1, [r7]
 546:Generated_Source\PSoC6\pdl\drivers\peripheral\pdm_pcm/cy_pdm_pcm.h ****     CY_ASSERT_L2(CY_PDM_PCM_IS_INTR_MASK_VALID(interrupt));
 127              		.loc 1 546 0
 128 000a 3B68     		ldr	r3, [r7]
 129 000c 23F4CA03 		bic	r3, r3, #6619136
 130 0010 002B     		cmp	r3, #0
ARM GAS  C:\Users\ikomb\AppData\Local\Temp\ccmrmnRc.s 			page 13


 131 0012 04D0     		beq	.L4
 132              		.loc 1 546 0 is_stmt 0 discriminator 1
 133 0014 40F22221 		movw	r1, #546
 134 0018 0548     		ldr	r0, .L5
 135 001a FFF7FEFF 		bl	Cy_SysLib_AssertFailed
 136              	.L4:
 547:Generated_Source\PSoC6\pdl\drivers\peripheral\pdm_pcm/cy_pdm_pcm.h ****     base->INTR_MASK = interrupt;
 137              		.loc 1 547 0 is_stmt 1
 138 001e 7B68     		ldr	r3, [r7, #4]
 139 0020 3A68     		ldr	r2, [r7]
 140 0022 C3F8082F 		str	r2, [r3, #3848]
 548:Generated_Source\PSoC6\pdl\drivers\peripheral\pdm_pcm/cy_pdm_pcm.h **** }
 141              		.loc 1 548 0
 142 0026 00BF     		nop
 143 0028 0837     		adds	r7, r7, #8
 144              		.cfi_def_cfa_offset 8
 145 002a BD46     		mov	sp, r7
 146              		.cfi_def_cfa_register 13
 147              		@ sp needed
 148 002c 80BD     		pop	{r7, pc}
 149              	.L6:
 150 002e 00BF     		.align	2
 151              	.L5:
 152 0030 00000000 		.word	.LC0
 153              		.cfi_endproc
 154              	.LFE161:
 155              		.size	Cy_PDM_PCM_SetInterruptMask, .-Cy_PDM_PCM_SetInterruptMask
 156              		.section	.text.Cy_PDM_PCM_ClearFifo,"ax",%progbits
 157              		.align	2
 158              		.thumb
 159              		.thumb_func
 160              		.type	Cy_PDM_PCM_ClearFifo, %function
 161              	Cy_PDM_PCM_ClearFifo:
 162              	.LFB168:
 549:Generated_Source\PSoC6\pdl\drivers\peripheral\pdm_pcm/cy_pdm_pcm.h **** 
 550:Generated_Source\PSoC6\pdl\drivers\peripheral\pdm_pcm/cy_pdm_pcm.h **** 
 551:Generated_Source\PSoC6\pdl\drivers\peripheral\pdm_pcm/cy_pdm_pcm.h **** /******************************************************************************
 552:Generated_Source\PSoC6\pdl\drivers\peripheral\pdm_pcm/cy_pdm_pcm.h **** * Function Name: Cy_PDM_PCM_GetInterruptMask
 553:Generated_Source\PSoC6\pdl\drivers\peripheral\pdm_pcm/cy_pdm_pcm.h **** ***************************************************************************//**
 554:Generated_Source\PSoC6\pdl\drivers\peripheral\pdm_pcm/cy_pdm_pcm.h **** *
 555:Generated_Source\PSoC6\pdl\drivers\peripheral\pdm_pcm/cy_pdm_pcm.h **** * Returns the PDM-PCM interrupt mask (a content of the INTR_MASK register).
 556:Generated_Source\PSoC6\pdl\drivers\peripheral\pdm_pcm/cy_pdm_pcm.h **** *
 557:Generated_Source\PSoC6\pdl\drivers\peripheral\pdm_pcm/cy_pdm_pcm.h **** * \param base The pointer to the PDM-PCM instance address.
 558:Generated_Source\PSoC6\pdl\drivers\peripheral\pdm_pcm/cy_pdm_pcm.h **** * \return The interrupt bit mask \ref group_pdm_pcm_macros_intrerrupt_masks.
 559:Generated_Source\PSoC6\pdl\drivers\peripheral\pdm_pcm/cy_pdm_pcm.h **** *
 560:Generated_Source\PSoC6\pdl\drivers\peripheral\pdm_pcm/cy_pdm_pcm.h **** ******************************************************************************/
 561:Generated_Source\PSoC6\pdl\drivers\peripheral\pdm_pcm/cy_pdm_pcm.h **** __STATIC_INLINE uint32_t Cy_PDM_PCM_GetInterruptMask(PDM_Type const * base)
 562:Generated_Source\PSoC6\pdl\drivers\peripheral\pdm_pcm/cy_pdm_pcm.h **** {
 563:Generated_Source\PSoC6\pdl\drivers\peripheral\pdm_pcm/cy_pdm_pcm.h ****     return (base->INTR_MASK);
 564:Generated_Source\PSoC6\pdl\drivers\peripheral\pdm_pcm/cy_pdm_pcm.h **** }
 565:Generated_Source\PSoC6\pdl\drivers\peripheral\pdm_pcm/cy_pdm_pcm.h **** 
 566:Generated_Source\PSoC6\pdl\drivers\peripheral\pdm_pcm/cy_pdm_pcm.h **** 
 567:Generated_Source\PSoC6\pdl\drivers\peripheral\pdm_pcm/cy_pdm_pcm.h **** /******************************************************************************
 568:Generated_Source\PSoC6\pdl\drivers\peripheral\pdm_pcm/cy_pdm_pcm.h **** * Function Name: Cy_PDM_PCM_GetInterruptStatusMasked
 569:Generated_Source\PSoC6\pdl\drivers\peripheral\pdm_pcm/cy_pdm_pcm.h **** ***************************************************************************//**
 570:Generated_Source\PSoC6\pdl\drivers\peripheral\pdm_pcm/cy_pdm_pcm.h **** *
 571:Generated_Source\PSoC6\pdl\drivers\peripheral\pdm_pcm/cy_pdm_pcm.h **** * Reports the status of enabled (masked) PDM-PCM interrupt sources.
ARM GAS  C:\Users\ikomb\AppData\Local\Temp\ccmrmnRc.s 			page 14


 572:Generated_Source\PSoC6\pdl\drivers\peripheral\pdm_pcm/cy_pdm_pcm.h **** * (an INTR_MASKED register).
 573:Generated_Source\PSoC6\pdl\drivers\peripheral\pdm_pcm/cy_pdm_pcm.h **** *
 574:Generated_Source\PSoC6\pdl\drivers\peripheral\pdm_pcm/cy_pdm_pcm.h **** * \param base The pointer to the PDM-PCM instance address.
 575:Generated_Source\PSoC6\pdl\drivers\peripheral\pdm_pcm/cy_pdm_pcm.h **** * \return The interrupt bit mask \ref group_pdm_pcm_macros_intrerrupt_masks.
 576:Generated_Source\PSoC6\pdl\drivers\peripheral\pdm_pcm/cy_pdm_pcm.h **** *
 577:Generated_Source\PSoC6\pdl\drivers\peripheral\pdm_pcm/cy_pdm_pcm.h **** *****************************************************************************/
 578:Generated_Source\PSoC6\pdl\drivers\peripheral\pdm_pcm/cy_pdm_pcm.h **** __STATIC_INLINE uint32_t Cy_PDM_PCM_GetInterruptStatusMasked(PDM_Type const * base)
 579:Generated_Source\PSoC6\pdl\drivers\peripheral\pdm_pcm/cy_pdm_pcm.h **** {
 580:Generated_Source\PSoC6\pdl\drivers\peripheral\pdm_pcm/cy_pdm_pcm.h ****     return (base->INTR_MASKED);
 581:Generated_Source\PSoC6\pdl\drivers\peripheral\pdm_pcm/cy_pdm_pcm.h **** }
 582:Generated_Source\PSoC6\pdl\drivers\peripheral\pdm_pcm/cy_pdm_pcm.h **** 
 583:Generated_Source\PSoC6\pdl\drivers\peripheral\pdm_pcm/cy_pdm_pcm.h **** 
 584:Generated_Source\PSoC6\pdl\drivers\peripheral\pdm_pcm/cy_pdm_pcm.h **** /******************************************************************************
 585:Generated_Source\PSoC6\pdl\drivers\peripheral\pdm_pcm/cy_pdm_pcm.h **** * Function Name: Cy_PDM_PCM_GetInterruptStatus
 586:Generated_Source\PSoC6\pdl\drivers\peripheral\pdm_pcm/cy_pdm_pcm.h **** ***************************************************************************//**
 587:Generated_Source\PSoC6\pdl\drivers\peripheral\pdm_pcm/cy_pdm_pcm.h **** *
 588:Generated_Source\PSoC6\pdl\drivers\peripheral\pdm_pcm/cy_pdm_pcm.h **** * Reports the status of PDM-PCM interrupt sources (an INTR register).
 589:Generated_Source\PSoC6\pdl\drivers\peripheral\pdm_pcm/cy_pdm_pcm.h **** *
 590:Generated_Source\PSoC6\pdl\drivers\peripheral\pdm_pcm/cy_pdm_pcm.h **** * \param base The pointer to the PDM-PCM instance address.
 591:Generated_Source\PSoC6\pdl\drivers\peripheral\pdm_pcm/cy_pdm_pcm.h **** * \return The interrupt bit mask \ref group_pdm_pcm_macros_intrerrupt_masks.
 592:Generated_Source\PSoC6\pdl\drivers\peripheral\pdm_pcm/cy_pdm_pcm.h **** *
 593:Generated_Source\PSoC6\pdl\drivers\peripheral\pdm_pcm/cy_pdm_pcm.h **** ******************************************************************************/
 594:Generated_Source\PSoC6\pdl\drivers\peripheral\pdm_pcm/cy_pdm_pcm.h **** __STATIC_INLINE uint32_t Cy_PDM_PCM_GetInterruptStatus(PDM_Type const * base)
 595:Generated_Source\PSoC6\pdl\drivers\peripheral\pdm_pcm/cy_pdm_pcm.h **** {
 596:Generated_Source\PSoC6\pdl\drivers\peripheral\pdm_pcm/cy_pdm_pcm.h ****     return (base->INTR);
 597:Generated_Source\PSoC6\pdl\drivers\peripheral\pdm_pcm/cy_pdm_pcm.h **** }
 598:Generated_Source\PSoC6\pdl\drivers\peripheral\pdm_pcm/cy_pdm_pcm.h **** 
 599:Generated_Source\PSoC6\pdl\drivers\peripheral\pdm_pcm/cy_pdm_pcm.h **** 
 600:Generated_Source\PSoC6\pdl\drivers\peripheral\pdm_pcm/cy_pdm_pcm.h **** /******************************************************************************
 601:Generated_Source\PSoC6\pdl\drivers\peripheral\pdm_pcm/cy_pdm_pcm.h **** * Function Name: Cy_PDM_PCM_ClearInterrupt
 602:Generated_Source\PSoC6\pdl\drivers\peripheral\pdm_pcm/cy_pdm_pcm.h **** ***************************************************************************//**
 603:Generated_Source\PSoC6\pdl\drivers\peripheral\pdm_pcm/cy_pdm_pcm.h **** *
 604:Generated_Source\PSoC6\pdl\drivers\peripheral\pdm_pcm/cy_pdm_pcm.h **** * Clears one or more PDM-PCM interrupt statuses (sets an INTR register's bits).
 605:Generated_Source\PSoC6\pdl\drivers\peripheral\pdm_pcm/cy_pdm_pcm.h **** *
 606:Generated_Source\PSoC6\pdl\drivers\peripheral\pdm_pcm/cy_pdm_pcm.h **** * \param base The pointer to the PDM-PCM instance address
 607:Generated_Source\PSoC6\pdl\drivers\peripheral\pdm_pcm/cy_pdm_pcm.h **** * \param interrupt 
 608:Generated_Source\PSoC6\pdl\drivers\peripheral\pdm_pcm/cy_pdm_pcm.h **** *  The interrupt bit mask \ref group_pdm_pcm_macros_intrerrupt_masks.
 609:Generated_Source\PSoC6\pdl\drivers\peripheral\pdm_pcm/cy_pdm_pcm.h **** *
 610:Generated_Source\PSoC6\pdl\drivers\peripheral\pdm_pcm/cy_pdm_pcm.h **** ******************************************************************************/
 611:Generated_Source\PSoC6\pdl\drivers\peripheral\pdm_pcm/cy_pdm_pcm.h **** __STATIC_INLINE void Cy_PDM_PCM_ClearInterrupt(PDM_Type * base, uint32_t interrupt)
 612:Generated_Source\PSoC6\pdl\drivers\peripheral\pdm_pcm/cy_pdm_pcm.h **** {
 613:Generated_Source\PSoC6\pdl\drivers\peripheral\pdm_pcm/cy_pdm_pcm.h ****     CY_ASSERT_L2(CY_PDM_PCM_IS_INTR_MASK_VALID(interrupt));
 614:Generated_Source\PSoC6\pdl\drivers\peripheral\pdm_pcm/cy_pdm_pcm.h ****     base->INTR = interrupt;
 615:Generated_Source\PSoC6\pdl\drivers\peripheral\pdm_pcm/cy_pdm_pcm.h ****     (void) base->INTR;
 616:Generated_Source\PSoC6\pdl\drivers\peripheral\pdm_pcm/cy_pdm_pcm.h **** }
 617:Generated_Source\PSoC6\pdl\drivers\peripheral\pdm_pcm/cy_pdm_pcm.h **** 
 618:Generated_Source\PSoC6\pdl\drivers\peripheral\pdm_pcm/cy_pdm_pcm.h **** 
 619:Generated_Source\PSoC6\pdl\drivers\peripheral\pdm_pcm/cy_pdm_pcm.h **** /******************************************************************************
 620:Generated_Source\PSoC6\pdl\drivers\peripheral\pdm_pcm/cy_pdm_pcm.h **** * Function Name: Cy_PDM_PCM_SetInterrupt
 621:Generated_Source\PSoC6\pdl\drivers\peripheral\pdm_pcm/cy_pdm_pcm.h **** ***************************************************************************//**
 622:Generated_Source\PSoC6\pdl\drivers\peripheral\pdm_pcm/cy_pdm_pcm.h **** *
 623:Generated_Source\PSoC6\pdl\drivers\peripheral\pdm_pcm/cy_pdm_pcm.h **** * Sets one or more interrupt source statuses (sets an INTR_SET register).
 624:Generated_Source\PSoC6\pdl\drivers\peripheral\pdm_pcm/cy_pdm_pcm.h **** *
 625:Generated_Source\PSoC6\pdl\drivers\peripheral\pdm_pcm/cy_pdm_pcm.h **** * \param base The pointer to the PDM-PCM instance address.
 626:Generated_Source\PSoC6\pdl\drivers\peripheral\pdm_pcm/cy_pdm_pcm.h **** * \param interrupt
 627:Generated_Source\PSoC6\pdl\drivers\peripheral\pdm_pcm/cy_pdm_pcm.h **** *  The interrupt bit mask \ref group_pdm_pcm_macros_intrerrupt_masks.
 628:Generated_Source\PSoC6\pdl\drivers\peripheral\pdm_pcm/cy_pdm_pcm.h **** *
ARM GAS  C:\Users\ikomb\AppData\Local\Temp\ccmrmnRc.s 			page 15


 629:Generated_Source\PSoC6\pdl\drivers\peripheral\pdm_pcm/cy_pdm_pcm.h **** ******************************************************************************/
 630:Generated_Source\PSoC6\pdl\drivers\peripheral\pdm_pcm/cy_pdm_pcm.h **** __STATIC_INLINE void Cy_PDM_PCM_SetInterrupt(PDM_Type * base, uint32_t interrupt)
 631:Generated_Source\PSoC6\pdl\drivers\peripheral\pdm_pcm/cy_pdm_pcm.h **** {
 632:Generated_Source\PSoC6\pdl\drivers\peripheral\pdm_pcm/cy_pdm_pcm.h ****     CY_ASSERT_L2(CY_PDM_PCM_IS_INTR_MASK_VALID(interrupt));
 633:Generated_Source\PSoC6\pdl\drivers\peripheral\pdm_pcm/cy_pdm_pcm.h ****     base->INTR_SET = interrupt;
 634:Generated_Source\PSoC6\pdl\drivers\peripheral\pdm_pcm/cy_pdm_pcm.h **** }
 635:Generated_Source\PSoC6\pdl\drivers\peripheral\pdm_pcm/cy_pdm_pcm.h **** 
 636:Generated_Source\PSoC6\pdl\drivers\peripheral\pdm_pcm/cy_pdm_pcm.h **** 
 637:Generated_Source\PSoC6\pdl\drivers\peripheral\pdm_pcm/cy_pdm_pcm.h **** /******************************************************************************
 638:Generated_Source\PSoC6\pdl\drivers\peripheral\pdm_pcm/cy_pdm_pcm.h **** * Function Name: Cy_PDM_PCM_GetNumInFifo
 639:Generated_Source\PSoC6\pdl\drivers\peripheral\pdm_pcm/cy_pdm_pcm.h **** ***************************************************************************//**
 640:Generated_Source\PSoC6\pdl\drivers\peripheral\pdm_pcm/cy_pdm_pcm.h **** *
 641:Generated_Source\PSoC6\pdl\drivers\peripheral\pdm_pcm/cy_pdm_pcm.h **** * Reports the current number of used words in the output data FIFO.
 642:Generated_Source\PSoC6\pdl\drivers\peripheral\pdm_pcm/cy_pdm_pcm.h **** *
 643:Generated_Source\PSoC6\pdl\drivers\peripheral\pdm_pcm/cy_pdm_pcm.h **** * \param base The pointer to the PDM-PCM instance address.
 644:Generated_Source\PSoC6\pdl\drivers\peripheral\pdm_pcm/cy_pdm_pcm.h **** * \return The current number of used FIFO words (range is 0 - 254).
 645:Generated_Source\PSoC6\pdl\drivers\peripheral\pdm_pcm/cy_pdm_pcm.h **** *
 646:Generated_Source\PSoC6\pdl\drivers\peripheral\pdm_pcm/cy_pdm_pcm.h **** ******************************************************************************/
 647:Generated_Source\PSoC6\pdl\drivers\peripheral\pdm_pcm/cy_pdm_pcm.h **** __STATIC_INLINE uint8_t Cy_PDM_PCM_GetNumInFifo(PDM_Type const * base)
 648:Generated_Source\PSoC6\pdl\drivers\peripheral\pdm_pcm/cy_pdm_pcm.h **** {
 649:Generated_Source\PSoC6\pdl\drivers\peripheral\pdm_pcm/cy_pdm_pcm.h ****     return (uint8_t) (_FLD2VAL(PDM_RX_FIFO_STATUS_USED, base->RX_FIFO_STATUS));
 650:Generated_Source\PSoC6\pdl\drivers\peripheral\pdm_pcm/cy_pdm_pcm.h **** }
 651:Generated_Source\PSoC6\pdl\drivers\peripheral\pdm_pcm/cy_pdm_pcm.h **** 
 652:Generated_Source\PSoC6\pdl\drivers\peripheral\pdm_pcm/cy_pdm_pcm.h **** 
 653:Generated_Source\PSoC6\pdl\drivers\peripheral\pdm_pcm/cy_pdm_pcm.h **** /******************************************************************************
 654:Generated_Source\PSoC6\pdl\drivers\peripheral\pdm_pcm/cy_pdm_pcm.h **** * Function Name: Cy_PDM_PCM_ClearFifo
 655:Generated_Source\PSoC6\pdl\drivers\peripheral\pdm_pcm/cy_pdm_pcm.h **** ***************************************************************************//**
 656:Generated_Source\PSoC6\pdl\drivers\peripheral\pdm_pcm/cy_pdm_pcm.h **** *
 657:Generated_Source\PSoC6\pdl\drivers\peripheral\pdm_pcm/cy_pdm_pcm.h **** * Resets the output data FIFO, removing all data words from the FIFO.
 658:Generated_Source\PSoC6\pdl\drivers\peripheral\pdm_pcm/cy_pdm_pcm.h **** *
 659:Generated_Source\PSoC6\pdl\drivers\peripheral\pdm_pcm/cy_pdm_pcm.h **** * \param base The pointer to the PDM-PCM instance address.
 660:Generated_Source\PSoC6\pdl\drivers\peripheral\pdm_pcm/cy_pdm_pcm.h **** *
 661:Generated_Source\PSoC6\pdl\drivers\peripheral\pdm_pcm/cy_pdm_pcm.h **** ******************************************************************************/
 662:Generated_Source\PSoC6\pdl\drivers\peripheral\pdm_pcm/cy_pdm_pcm.h **** __STATIC_INLINE void Cy_PDM_PCM_ClearFifo(PDM_Type * base)
 663:Generated_Source\PSoC6\pdl\drivers\peripheral\pdm_pcm/cy_pdm_pcm.h **** {
 163              		.loc 1 663 0
 164              		.cfi_startproc
 165              		@ args = 0, pretend = 0, frame = 8
 166              		@ frame_needed = 1, uses_anonymous_args = 0
 167              		@ link register save eliminated.
 168 0000 80B4     		push	{r7}
 169              		.cfi_def_cfa_offset 4
 170              		.cfi_offset 7, -4
 171 0002 83B0     		sub	sp, sp, #12
 172              		.cfi_def_cfa_offset 16
 173 0004 00AF     		add	r7, sp, #0
 174              		.cfi_def_cfa_register 7
 175 0006 7860     		str	r0, [r7, #4]
 664:Generated_Source\PSoC6\pdl\drivers\peripheral\pdm_pcm/cy_pdm_pcm.h ****     base->RX_FIFO_CTL |= PDM_RX_FIFO_CTL_CLEAR_Msk; /* clear FIFO and disable it */
 176              		.loc 1 664 0
 177 0008 7B68     		ldr	r3, [r7, #4]
 178 000a D3F80033 		ldr	r3, [r3, #768]
 179 000e 43F48032 		orr	r2, r3, #65536
 180 0012 7B68     		ldr	r3, [r7, #4]
 181 0014 C3F80023 		str	r2, [r3, #768]
 665:Generated_Source\PSoC6\pdl\drivers\peripheral\pdm_pcm/cy_pdm_pcm.h ****     base->RX_FIFO_CTL &= (uint32_t) ~PDM_RX_FIFO_CTL_CLEAR_Msk; /* enable FIFO */
 182              		.loc 1 665 0
ARM GAS  C:\Users\ikomb\AppData\Local\Temp\ccmrmnRc.s 			page 16


 183 0018 7B68     		ldr	r3, [r7, #4]
 184 001a D3F80033 		ldr	r3, [r3, #768]
 185 001e 23F48032 		bic	r2, r3, #65536
 186 0022 7B68     		ldr	r3, [r7, #4]
 187 0024 C3F80023 		str	r2, [r3, #768]
 666:Generated_Source\PSoC6\pdl\drivers\peripheral\pdm_pcm/cy_pdm_pcm.h **** }
 188              		.loc 1 666 0
 189 0028 00BF     		nop
 190 002a 0C37     		adds	r7, r7, #12
 191              		.cfi_def_cfa_offset 4
 192 002c BD46     		mov	sp, r7
 193              		.cfi_def_cfa_register 13
 194              		@ sp needed
 195 002e 5DF8047B 		ldr	r7, [sp], #4
 196              		.cfi_restore 7
 197              		.cfi_def_cfa_offset 0
 198 0032 7047     		bx	lr
 199              		.cfi_endproc
 200              	.LFE168:
 201              		.size	Cy_PDM_PCM_ClearFifo, .-Cy_PDM_PCM_ClearFifo
 202              		.section	.rodata
 203 0043 00       		.align	2
 204              	.LC1:
 205 0044 47656E65 		.ascii	"Generated_Source\\PSoC6\\pdl\\drivers\\peripheral\\"
 205      72617465 
 205      645F536F 
 205      75726365 
 205      5C50536F 
 206 0072 70646D5F 		.ascii	"pdm_pcm\\cy_pdm_pcm.c\000"
 206      70636D5C 
 206      63795F70 
 206      646D5F70 
 206      636D2E63 
 207              		.section	.text.Cy_PDM_PCM_Init,"ax",%progbits
 208              		.align	2
 209              		.global	Cy_PDM_PCM_Init
 210              		.thumb
 211              		.thumb_func
 212              		.type	Cy_PDM_PCM_Init, %function
 213              	Cy_PDM_PCM_Init:
 214              	.LFB175:
 215              		.file 2 "Generated_Source\\PSoC6\\pdl\\drivers\\peripheral\\pdm_pcm\\cy_pdm_pcm.c"
   1:Generated_Source\PSoC6\pdl\drivers\peripheral\pdm_pcm/cy_pdm_pcm.c **** /***************************************************************************//**
   2:Generated_Source\PSoC6\pdl\drivers\peripheral\pdm_pcm/cy_pdm_pcm.c **** * \file cy_pdm_pcm.c
   3:Generated_Source\PSoC6\pdl\drivers\peripheral\pdm_pcm/cy_pdm_pcm.c **** * \version 2.10
   4:Generated_Source\PSoC6\pdl\drivers\peripheral\pdm_pcm/cy_pdm_pcm.c **** *
   5:Generated_Source\PSoC6\pdl\drivers\peripheral\pdm_pcm/cy_pdm_pcm.c **** * The source code file for the PDM_PCM driver.
   6:Generated_Source\PSoC6\pdl\drivers\peripheral\pdm_pcm/cy_pdm_pcm.c **** *
   7:Generated_Source\PSoC6\pdl\drivers\peripheral\pdm_pcm/cy_pdm_pcm.c **** ********************************************************************************
   8:Generated_Source\PSoC6\pdl\drivers\peripheral\pdm_pcm/cy_pdm_pcm.c **** * \copyright
   9:Generated_Source\PSoC6\pdl\drivers\peripheral\pdm_pcm/cy_pdm_pcm.c **** * Copyright 2016-2018, Cypress Semiconductor Corporation. All rights reserved.
  10:Generated_Source\PSoC6\pdl\drivers\peripheral\pdm_pcm/cy_pdm_pcm.c **** * You may use this file only in accordance with the license, terms, conditions,
  11:Generated_Source\PSoC6\pdl\drivers\peripheral\pdm_pcm/cy_pdm_pcm.c **** * disclaimers, and limitations in the end user license agreement accompanying
  12:Generated_Source\PSoC6\pdl\drivers\peripheral\pdm_pcm/cy_pdm_pcm.c **** * the software package with which this file was provided.
  13:Generated_Source\PSoC6\pdl\drivers\peripheral\pdm_pcm/cy_pdm_pcm.c **** *******************************************************************************/
  14:Generated_Source\PSoC6\pdl\drivers\peripheral\pdm_pcm/cy_pdm_pcm.c **** 
  15:Generated_Source\PSoC6\pdl\drivers\peripheral\pdm_pcm/cy_pdm_pcm.c **** #include "cy_pdm_pcm.h"
ARM GAS  C:\Users\ikomb\AppData\Local\Temp\ccmrmnRc.s 			page 17


  16:Generated_Source\PSoC6\pdl\drivers\peripheral\pdm_pcm/cy_pdm_pcm.c **** 
  17:Generated_Source\PSoC6\pdl\drivers\peripheral\pdm_pcm/cy_pdm_pcm.c **** /* The C binding of definitions if building with the C++ compiler */
  18:Generated_Source\PSoC6\pdl\drivers\peripheral\pdm_pcm/cy_pdm_pcm.c **** #ifdef __cplusplus
  19:Generated_Source\PSoC6\pdl\drivers\peripheral\pdm_pcm/cy_pdm_pcm.c **** extern "C"
  20:Generated_Source\PSoC6\pdl\drivers\peripheral\pdm_pcm/cy_pdm_pcm.c **** {
  21:Generated_Source\PSoC6\pdl\drivers\peripheral\pdm_pcm/cy_pdm_pcm.c **** #endif
  22:Generated_Source\PSoC6\pdl\drivers\peripheral\pdm_pcm/cy_pdm_pcm.c **** 
  23:Generated_Source\PSoC6\pdl\drivers\peripheral\pdm_pcm/cy_pdm_pcm.c **** /**
  24:Generated_Source\PSoC6\pdl\drivers\peripheral\pdm_pcm/cy_pdm_pcm.c **** * \addtogroup group_pdm_pcm_functions
  25:Generated_Source\PSoC6\pdl\drivers\peripheral\pdm_pcm/cy_pdm_pcm.c **** * \{
  26:Generated_Source\PSoC6\pdl\drivers\peripheral\pdm_pcm/cy_pdm_pcm.c **** */
  27:Generated_Source\PSoC6\pdl\drivers\peripheral\pdm_pcm/cy_pdm_pcm.c **** 
  28:Generated_Source\PSoC6\pdl\drivers\peripheral\pdm_pcm/cy_pdm_pcm.c **** /******************************************************************************
  29:Generated_Source\PSoC6\pdl\drivers\peripheral\pdm_pcm/cy_pdm_pcm.c **** * Function Name: Cy_PDM_PCM_Init
  30:Generated_Source\PSoC6\pdl\drivers\peripheral\pdm_pcm/cy_pdm_pcm.c **** ***************************************************************************//**
  31:Generated_Source\PSoC6\pdl\drivers\peripheral\pdm_pcm/cy_pdm_pcm.c **** *
  32:Generated_Source\PSoC6\pdl\drivers\peripheral\pdm_pcm/cy_pdm_pcm.c **** * Initialize the PDM-PCM module
  33:Generated_Source\PSoC6\pdl\drivers\peripheral\pdm_pcm/cy_pdm_pcm.c **** *
  34:Generated_Source\PSoC6\pdl\drivers\peripheral\pdm_pcm/cy_pdm_pcm.c **** * \pre If the PDM-PCM module is initialized previously, the
  35:Generated_Source\PSoC6\pdl\drivers\peripheral\pdm_pcm/cy_pdm_pcm.c **** * \ref Cy_PDM_PCM_DeInit() must be called before calling this function.
  36:Generated_Source\PSoC6\pdl\drivers\peripheral\pdm_pcm/cy_pdm_pcm.c **** *
  37:Generated_Source\PSoC6\pdl\drivers\peripheral\pdm_pcm/cy_pdm_pcm.c **** * \param  base The pointer to the PDM-PCM instance address
  38:Generated_Source\PSoC6\pdl\drivers\peripheral\pdm_pcm/cy_pdm_pcm.c **** * \param  config The pointer to a configuration structure.
  39:Generated_Source\PSoC6\pdl\drivers\peripheral\pdm_pcm/cy_pdm_pcm.c **** * \return error / status code. See \ref cy_en_pdm_pcm_status_t.
  40:Generated_Source\PSoC6\pdl\drivers\peripheral\pdm_pcm/cy_pdm_pcm.c **** *
  41:Generated_Source\PSoC6\pdl\drivers\peripheral\pdm_pcm/cy_pdm_pcm.c **** * An example of a configuration structure:
  42:Generated_Source\PSoC6\pdl\drivers\peripheral\pdm_pcm/cy_pdm_pcm.c **** * \snippet PDM_PCM_PDL_sut_00.cydsn/main_cm4.c PDM_PCM Configuration
  43:Generated_Source\PSoC6\pdl\drivers\peripheral\pdm_pcm/cy_pdm_pcm.c **** *
  44:Generated_Source\PSoC6\pdl\drivers\peripheral\pdm_pcm/cy_pdm_pcm.c **** *******************************************************************************/
  45:Generated_Source\PSoC6\pdl\drivers\peripheral\pdm_pcm/cy_pdm_pcm.c **** cy_en_pdm_pcm_status_t Cy_PDM_PCM_Init(PDM_Type * base, cy_stc_pdm_pcm_config_t const * config)
  46:Generated_Source\PSoC6\pdl\drivers\peripheral\pdm_pcm/cy_pdm_pcm.c **** {
 216              		.loc 2 46 0
 217              		.cfi_startproc
 218              		@ args = 0, pretend = 0, frame = 16
 219              		@ frame_needed = 1, uses_anonymous_args = 0
 220 0000 80B5     		push	{r7, lr}
 221              		.cfi_def_cfa_offset 8
 222              		.cfi_offset 7, -8
 223              		.cfi_offset 14, -4
 224 0002 84B0     		sub	sp, sp, #16
 225              		.cfi_def_cfa_offset 24
 226 0004 00AF     		add	r7, sp, #0
 227              		.cfi_def_cfa_register 7
 228 0006 7860     		str	r0, [r7, #4]
 229 0008 3960     		str	r1, [r7]
  47:Generated_Source\PSoC6\pdl\drivers\peripheral\pdm_pcm/cy_pdm_pcm.c ****     cy_en_pdm_pcm_status_t ret = CY_PDM_PCM_BAD_PARAM;
 230              		.loc 2 47 0
 231 000a 984B     		ldr	r3, .L37
 232 000c FB60     		str	r3, [r7, #12]
  48:Generated_Source\PSoC6\pdl\drivers\peripheral\pdm_pcm/cy_pdm_pcm.c **** 
  49:Generated_Source\PSoC6\pdl\drivers\peripheral\pdm_pcm/cy_pdm_pcm.c ****     if((NULL != base) && (NULL != config))
 233              		.loc 2 49 0
 234 000e 7B68     		ldr	r3, [r7, #4]
 235 0010 002B     		cmp	r3, #0
 236 0012 00F0CA81 		beq	.L9
 237              		.loc 2 49 0 is_stmt 0 discriminator 1
 238 0016 3B68     		ldr	r3, [r7]
ARM GAS  C:\Users\ikomb\AppData\Local\Temp\ccmrmnRc.s 			page 18


 239 0018 002B     		cmp	r3, #0
 240 001a 00F0C681 		beq	.L9
  50:Generated_Source\PSoC6\pdl\drivers\peripheral\pdm_pcm/cy_pdm_pcm.c ****     {
  51:Generated_Source\PSoC6\pdl\drivers\peripheral\pdm_pcm/cy_pdm_pcm.c ****         CY_ASSERT_L3(CY_PDM_PCM_IS_CLK_DIV_VALID(config->clkDiv));
 241              		.loc 2 51 0 is_stmt 1
 242 001e 3B68     		ldr	r3, [r7]
 243 0020 1B78     		ldrb	r3, [r3]	@ zero_extendqisi2
 244 0022 002B     		cmp	r3, #0
 245 0024 0FD0     		beq	.L10
 246              		.loc 2 51 0 is_stmt 0 discriminator 1
 247 0026 3B68     		ldr	r3, [r7]
 248 0028 1B78     		ldrb	r3, [r3]	@ zero_extendqisi2
 249 002a 012B     		cmp	r3, #1
 250 002c 0BD0     		beq	.L10
 251              		.loc 2 51 0 discriminator 2
 252 002e 3B68     		ldr	r3, [r7]
 253 0030 1B78     		ldrb	r3, [r3]	@ zero_extendqisi2
 254 0032 022B     		cmp	r3, #2
 255 0034 07D0     		beq	.L10
 256              		.loc 2 51 0 discriminator 3
 257 0036 3B68     		ldr	r3, [r7]
 258 0038 1B78     		ldrb	r3, [r3]	@ zero_extendqisi2
 259 003a 032B     		cmp	r3, #3
 260 003c 03D0     		beq	.L10
 261              		.loc 2 51 0 discriminator 4
 262 003e 3321     		movs	r1, #51
 263 0040 8B48     		ldr	r0, .L37+4
 264 0042 FFF7FEFF 		bl	Cy_SysLib_AssertFailed
 265              	.L10:
  52:Generated_Source\PSoC6\pdl\drivers\peripheral\pdm_pcm/cy_pdm_pcm.c ****         CY_ASSERT_L3(CY_PDM_PCM_IS_CLK_DIV_VALID(config->mclkDiv));
 266              		.loc 2 52 0 is_stmt 1
 267 0046 3B68     		ldr	r3, [r7]
 268 0048 5B78     		ldrb	r3, [r3, #1]	@ zero_extendqisi2
 269 004a 002B     		cmp	r3, #0
 270 004c 0FD0     		beq	.L11
 271              		.loc 2 52 0 is_stmt 0 discriminator 1
 272 004e 3B68     		ldr	r3, [r7]
 273 0050 5B78     		ldrb	r3, [r3, #1]	@ zero_extendqisi2
 274 0052 012B     		cmp	r3, #1
 275 0054 0BD0     		beq	.L11
 276              		.loc 2 52 0 discriminator 2
 277 0056 3B68     		ldr	r3, [r7]
 278 0058 5B78     		ldrb	r3, [r3, #1]	@ zero_extendqisi2
 279 005a 022B     		cmp	r3, #2
 280 005c 07D0     		beq	.L11
 281              		.loc 2 52 0 discriminator 3
 282 005e 3B68     		ldr	r3, [r7]
 283 0060 5B78     		ldrb	r3, [r3, #1]	@ zero_extendqisi2
 284 0062 032B     		cmp	r3, #3
 285 0064 03D0     		beq	.L11
 286              		.loc 2 52 0 discriminator 4
 287 0066 3421     		movs	r1, #52
 288 0068 8148     		ldr	r0, .L37+4
 289 006a FFF7FEFF 		bl	Cy_SysLib_AssertFailed
 290              	.L11:
  53:Generated_Source\PSoC6\pdl\drivers\peripheral\pdm_pcm/cy_pdm_pcm.c ****         CY_ASSERT_L3(CY_PDM_PCM_IS_CKO_CLOCK_DIV_VALID(config->ckoDiv));
 291              		.loc 2 53 0 is_stmt 1
ARM GAS  C:\Users\ikomb\AppData\Local\Temp\ccmrmnRc.s 			page 19


 292 006e 3B68     		ldr	r3, [r7]
 293 0070 9B78     		ldrb	r3, [r3, #2]	@ zero_extendqisi2
 294 0072 002B     		cmp	r3, #0
 295 0074 03D0     		beq	.L12
 296              		.loc 2 53 0 is_stmt 0 discriminator 2
 297 0076 3B68     		ldr	r3, [r7]
 298 0078 9B78     		ldrb	r3, [r3, #2]	@ zero_extendqisi2
 299 007a 0F2B     		cmp	r3, #15
 300 007c 03D9     		bls	.L13
 301              	.L12:
 302              		.loc 2 53 0 discriminator 3
 303 007e 3521     		movs	r1, #53
 304 0080 7B48     		ldr	r0, .L37+4
 305 0082 FFF7FEFF 		bl	Cy_SysLib_AssertFailed
 306              	.L13:
  54:Generated_Source\PSoC6\pdl\drivers\peripheral\pdm_pcm/cy_pdm_pcm.c ****         CY_ASSERT_L3(CY_PDM_PCM_IS_SINC_RATE_VALID(config->sincDecRate));
 307              		.loc 2 54 0 is_stmt 1
 308 0086 3B68     		ldr	r3, [r7]
 309 0088 1B79     		ldrb	r3, [r3, #4]	@ zero_extendqisi2
 310 008a 5BB2     		sxtb	r3, r3
 311 008c 002B     		cmp	r3, #0
 312 008e 03DA     		bge	.L14
 313              		.loc 2 54 0 is_stmt 0 discriminator 1
 314 0090 3621     		movs	r1, #54
 315 0092 7748     		ldr	r0, .L37+4
 316 0094 FFF7FEFF 		bl	Cy_SysLib_AssertFailed
 317              	.L14:
  55:Generated_Source\PSoC6\pdl\drivers\peripheral\pdm_pcm/cy_pdm_pcm.c ****         CY_ASSERT_L3(CY_PDM_PCM_IS_GAIN_VALID(config->gainRight));
 318              		.loc 2 55 0 is_stmt 1
 319 0098 3B68     		ldr	r3, [r7]
 320 009a 1B7D     		ldrb	r3, [r3, #20]	@ zero_extendqisi2
 321 009c 002B     		cmp	r3, #0
 322 009e 3FD0     		beq	.L15
 323              		.loc 2 55 0 is_stmt 0 discriminator 1
 324 00a0 3B68     		ldr	r3, [r7]
 325 00a2 1B7D     		ldrb	r3, [r3, #20]	@ zero_extendqisi2
 326 00a4 012B     		cmp	r3, #1
 327 00a6 3BD0     		beq	.L15
 328              		.loc 2 55 0 discriminator 2
 329 00a8 3B68     		ldr	r3, [r7]
 330 00aa 1B7D     		ldrb	r3, [r3, #20]	@ zero_extendqisi2
 331 00ac 022B     		cmp	r3, #2
 332 00ae 37D0     		beq	.L15
 333              		.loc 2 55 0 discriminator 3
 334 00b0 3B68     		ldr	r3, [r7]
 335 00b2 1B7D     		ldrb	r3, [r3, #20]	@ zero_extendqisi2
 336 00b4 032B     		cmp	r3, #3
 337 00b6 33D0     		beq	.L15
 338              		.loc 2 55 0 discriminator 4
 339 00b8 3B68     		ldr	r3, [r7]
 340 00ba 1B7D     		ldrb	r3, [r3, #20]	@ zero_extendqisi2
 341 00bc 042B     		cmp	r3, #4
 342 00be 2FD0     		beq	.L15
 343              		.loc 2 55 0 discriminator 5
 344 00c0 3B68     		ldr	r3, [r7]
 345 00c2 1B7D     		ldrb	r3, [r3, #20]	@ zero_extendqisi2
 346 00c4 052B     		cmp	r3, #5
ARM GAS  C:\Users\ikomb\AppData\Local\Temp\ccmrmnRc.s 			page 20


 347 00c6 2BD0     		beq	.L15
 348              		.loc 2 55 0 discriminator 6
 349 00c8 3B68     		ldr	r3, [r7]
 350 00ca 1B7D     		ldrb	r3, [r3, #20]	@ zero_extendqisi2
 351 00cc 062B     		cmp	r3, #6
 352 00ce 27D0     		beq	.L15
 353              		.loc 2 55 0 discriminator 7
 354 00d0 3B68     		ldr	r3, [r7]
 355 00d2 1B7D     		ldrb	r3, [r3, #20]	@ zero_extendqisi2
 356 00d4 072B     		cmp	r3, #7
 357 00d6 23D0     		beq	.L15
 358              		.loc 2 55 0 discriminator 8
 359 00d8 3B68     		ldr	r3, [r7]
 360 00da 1B7D     		ldrb	r3, [r3, #20]	@ zero_extendqisi2
 361 00dc 082B     		cmp	r3, #8
 362 00de 1FD0     		beq	.L15
 363              		.loc 2 55 0 discriminator 9
 364 00e0 3B68     		ldr	r3, [r7]
 365 00e2 1B7D     		ldrb	r3, [r3, #20]	@ zero_extendqisi2
 366 00e4 092B     		cmp	r3, #9
 367 00e6 1BD0     		beq	.L15
 368              		.loc 2 55 0 discriminator 10
 369 00e8 3B68     		ldr	r3, [r7]
 370 00ea 1B7D     		ldrb	r3, [r3, #20]	@ zero_extendqisi2
 371 00ec 0A2B     		cmp	r3, #10
 372 00ee 17D0     		beq	.L15
 373              		.loc 2 55 0 discriminator 11
 374 00f0 3B68     		ldr	r3, [r7]
 375 00f2 1B7D     		ldrb	r3, [r3, #20]	@ zero_extendqisi2
 376 00f4 0B2B     		cmp	r3, #11
 377 00f6 13D0     		beq	.L15
 378              		.loc 2 55 0 discriminator 12
 379 00f8 3B68     		ldr	r3, [r7]
 380 00fa 1B7D     		ldrb	r3, [r3, #20]	@ zero_extendqisi2
 381 00fc 0C2B     		cmp	r3, #12
 382 00fe 0FD0     		beq	.L15
 383              		.loc 2 55 0 discriminator 13
 384 0100 3B68     		ldr	r3, [r7]
 385 0102 1B7D     		ldrb	r3, [r3, #20]	@ zero_extendqisi2
 386 0104 0D2B     		cmp	r3, #13
 387 0106 0BD0     		beq	.L15
 388              		.loc 2 55 0 discriminator 14
 389 0108 3B68     		ldr	r3, [r7]
 390 010a 1B7D     		ldrb	r3, [r3, #20]	@ zero_extendqisi2
 391 010c 0E2B     		cmp	r3, #14
 392 010e 07D0     		beq	.L15
 393              		.loc 2 55 0 discriminator 15
 394 0110 3B68     		ldr	r3, [r7]
 395 0112 1B7D     		ldrb	r3, [r3, #20]	@ zero_extendqisi2
 396 0114 0F2B     		cmp	r3, #15
 397 0116 03D0     		beq	.L15
 398              		.loc 2 55 0 discriminator 16
 399 0118 3721     		movs	r1, #55
 400 011a 5548     		ldr	r0, .L37+4
 401 011c FFF7FEFF 		bl	Cy_SysLib_AssertFailed
 402              	.L15:
  56:Generated_Source\PSoC6\pdl\drivers\peripheral\pdm_pcm/cy_pdm_pcm.c ****         CY_ASSERT_L3(CY_PDM_PCM_IS_GAIN_VALID(config->gainLeft));
ARM GAS  C:\Users\ikomb\AppData\Local\Temp\ccmrmnRc.s 			page 21


 403              		.loc 2 56 0 is_stmt 1
 404 0120 3B68     		ldr	r3, [r7]
 405 0122 DB7C     		ldrb	r3, [r3, #19]	@ zero_extendqisi2
 406 0124 002B     		cmp	r3, #0
 407 0126 3FD0     		beq	.L16
 408              		.loc 2 56 0 is_stmt 0 discriminator 1
 409 0128 3B68     		ldr	r3, [r7]
 410 012a DB7C     		ldrb	r3, [r3, #19]	@ zero_extendqisi2
 411 012c 012B     		cmp	r3, #1
 412 012e 3BD0     		beq	.L16
 413              		.loc 2 56 0 discriminator 2
 414 0130 3B68     		ldr	r3, [r7]
 415 0132 DB7C     		ldrb	r3, [r3, #19]	@ zero_extendqisi2
 416 0134 022B     		cmp	r3, #2
 417 0136 37D0     		beq	.L16
 418              		.loc 2 56 0 discriminator 3
 419 0138 3B68     		ldr	r3, [r7]
 420 013a DB7C     		ldrb	r3, [r3, #19]	@ zero_extendqisi2
 421 013c 032B     		cmp	r3, #3
 422 013e 33D0     		beq	.L16
 423              		.loc 2 56 0 discriminator 4
 424 0140 3B68     		ldr	r3, [r7]
 425 0142 DB7C     		ldrb	r3, [r3, #19]	@ zero_extendqisi2
 426 0144 042B     		cmp	r3, #4
 427 0146 2FD0     		beq	.L16
 428              		.loc 2 56 0 discriminator 5
 429 0148 3B68     		ldr	r3, [r7]
 430 014a DB7C     		ldrb	r3, [r3, #19]	@ zero_extendqisi2
 431 014c 052B     		cmp	r3, #5
 432 014e 2BD0     		beq	.L16
 433              		.loc 2 56 0 discriminator 6
 434 0150 3B68     		ldr	r3, [r7]
 435 0152 DB7C     		ldrb	r3, [r3, #19]	@ zero_extendqisi2
 436 0154 062B     		cmp	r3, #6
 437 0156 27D0     		beq	.L16
 438              		.loc 2 56 0 discriminator 7
 439 0158 3B68     		ldr	r3, [r7]
 440 015a DB7C     		ldrb	r3, [r3, #19]	@ zero_extendqisi2
 441 015c 072B     		cmp	r3, #7
 442 015e 23D0     		beq	.L16
 443              		.loc 2 56 0 discriminator 8
 444 0160 3B68     		ldr	r3, [r7]
 445 0162 DB7C     		ldrb	r3, [r3, #19]	@ zero_extendqisi2
 446 0164 082B     		cmp	r3, #8
 447 0166 1FD0     		beq	.L16
 448              		.loc 2 56 0 discriminator 9
 449 0168 3B68     		ldr	r3, [r7]
 450 016a DB7C     		ldrb	r3, [r3, #19]	@ zero_extendqisi2
 451 016c 092B     		cmp	r3, #9
 452 016e 1BD0     		beq	.L16
 453              		.loc 2 56 0 discriminator 10
 454 0170 3B68     		ldr	r3, [r7]
 455 0172 DB7C     		ldrb	r3, [r3, #19]	@ zero_extendqisi2
 456 0174 0A2B     		cmp	r3, #10
 457 0176 17D0     		beq	.L16
 458              		.loc 2 56 0 discriminator 11
 459 0178 3B68     		ldr	r3, [r7]
ARM GAS  C:\Users\ikomb\AppData\Local\Temp\ccmrmnRc.s 			page 22


 460 017a DB7C     		ldrb	r3, [r3, #19]	@ zero_extendqisi2
 461 017c 0B2B     		cmp	r3, #11
 462 017e 13D0     		beq	.L16
 463              		.loc 2 56 0 discriminator 12
 464 0180 3B68     		ldr	r3, [r7]
 465 0182 DB7C     		ldrb	r3, [r3, #19]	@ zero_extendqisi2
 466 0184 0C2B     		cmp	r3, #12
 467 0186 0FD0     		beq	.L16
 468              		.loc 2 56 0 discriminator 13
 469 0188 3B68     		ldr	r3, [r7]
 470 018a DB7C     		ldrb	r3, [r3, #19]	@ zero_extendqisi2
 471 018c 0D2B     		cmp	r3, #13
 472 018e 0BD0     		beq	.L16
 473              		.loc 2 56 0 discriminator 14
 474 0190 3B68     		ldr	r3, [r7]
 475 0192 DB7C     		ldrb	r3, [r3, #19]	@ zero_extendqisi2
 476 0194 0E2B     		cmp	r3, #14
 477 0196 07D0     		beq	.L16
 478              		.loc 2 56 0 discriminator 15
 479 0198 3B68     		ldr	r3, [r7]
 480 019a DB7C     		ldrb	r3, [r3, #19]	@ zero_extendqisi2
 481 019c 0F2B     		cmp	r3, #15
 482 019e 03D0     		beq	.L16
 483              		.loc 2 56 0 discriminator 16
 484 01a0 3821     		movs	r1, #56
 485 01a2 3348     		ldr	r0, .L37+4
 486 01a4 FFF7FEFF 		bl	Cy_SysLib_AssertFailed
 487              	.L16:
  57:Generated_Source\PSoC6\pdl\drivers\peripheral\pdm_pcm/cy_pdm_pcm.c ****         CY_ASSERT_L3(CY_PDM_PCM_IS_STEP_SEL_VALID(config->softMuteFineGain));
 488              		.loc 2 57 0 is_stmt 1
 489 01a8 3B68     		ldr	r3, [r7]
 490 01aa DB68     		ldr	r3, [r3, #12]
 491 01ac 012B     		cmp	r3, #1
 492 01ae 03D9     		bls	.L17
 493              		.loc 2 57 0 is_stmt 0 discriminator 1
 494 01b0 3921     		movs	r1, #57
 495 01b2 2F48     		ldr	r0, .L37+4
 496 01b4 FFF7FEFF 		bl	Cy_SysLib_AssertFailed
 497              	.L17:
  58:Generated_Source\PSoC6\pdl\drivers\peripheral\pdm_pcm/cy_pdm_pcm.c ****         CY_ASSERT_L3(CY_PDM_PCM_IS_CH_SET_VALID(config->chanSelect));
 498              		.loc 2 58 0 is_stmt 1
 499 01b8 3B68     		ldr	r3, [r7]
 500 01ba 5B79     		ldrb	r3, [r3, #5]	@ zero_extendqisi2
 501 01bc 012B     		cmp	r3, #1
 502 01be 0BD0     		beq	.L18
 503              		.loc 2 58 0 is_stmt 0 discriminator 1
 504 01c0 3B68     		ldr	r3, [r7]
 505 01c2 5B79     		ldrb	r3, [r3, #5]	@ zero_extendqisi2
 506 01c4 022B     		cmp	r3, #2
 507 01c6 07D0     		beq	.L18
 508              		.loc 2 58 0 discriminator 2
 509 01c8 3B68     		ldr	r3, [r7]
 510 01ca 5B79     		ldrb	r3, [r3, #5]	@ zero_extendqisi2
 511 01cc 032B     		cmp	r3, #3
 512 01ce 03D0     		beq	.L18
 513              		.loc 2 58 0 discriminator 3
 514 01d0 3A21     		movs	r1, #58
ARM GAS  C:\Users\ikomb\AppData\Local\Temp\ccmrmnRc.s 			page 23


 515 01d2 2748     		ldr	r0, .L37+4
 516 01d4 FFF7FEFF 		bl	Cy_SysLib_AssertFailed
 517              	.L18:
  59:Generated_Source\PSoC6\pdl\drivers\peripheral\pdm_pcm/cy_pdm_pcm.c ****         CY_ASSERT_L3(CY_PDM_PCM_IS_S_CYCLES_VALID(config->softMuteCycles));
 518              		.loc 2 59 0 is_stmt 1
 519 01d8 3B68     		ldr	r3, [r7]
 520 01da 5B7A     		ldrb	r3, [r3, #9]	@ zero_extendqisi2
 521 01dc 002B     		cmp	r3, #0
 522 01de 1FD0     		beq	.L19
 523              		.loc 2 59 0 is_stmt 0 discriminator 1
 524 01e0 3B68     		ldr	r3, [r7]
 525 01e2 5B7A     		ldrb	r3, [r3, #9]	@ zero_extendqisi2
 526 01e4 012B     		cmp	r3, #1
 527 01e6 1BD0     		beq	.L19
 528              		.loc 2 59 0 discriminator 2
 529 01e8 3B68     		ldr	r3, [r7]
 530 01ea 5B7A     		ldrb	r3, [r3, #9]	@ zero_extendqisi2
 531 01ec 022B     		cmp	r3, #2
 532 01ee 17D0     		beq	.L19
 533              		.loc 2 59 0 discriminator 3
 534 01f0 3B68     		ldr	r3, [r7]
 535 01f2 5B7A     		ldrb	r3, [r3, #9]	@ zero_extendqisi2
 536 01f4 032B     		cmp	r3, #3
 537 01f6 13D0     		beq	.L19
 538              		.loc 2 59 0 discriminator 4
 539 01f8 3B68     		ldr	r3, [r7]
 540 01fa 5B7A     		ldrb	r3, [r3, #9]	@ zero_extendqisi2
 541 01fc 042B     		cmp	r3, #4
 542 01fe 0FD0     		beq	.L19
 543              		.loc 2 59 0 discriminator 5
 544 0200 3B68     		ldr	r3, [r7]
 545 0202 5B7A     		ldrb	r3, [r3, #9]	@ zero_extendqisi2
 546 0204 052B     		cmp	r3, #5
 547 0206 0BD0     		beq	.L19
 548              		.loc 2 59 0 discriminator 6
 549 0208 3B68     		ldr	r3, [r7]
 550 020a 5B7A     		ldrb	r3, [r3, #9]	@ zero_extendqisi2
 551 020c 062B     		cmp	r3, #6
 552 020e 07D0     		beq	.L19
 553              		.loc 2 59 0 discriminator 7
 554 0210 3B68     		ldr	r3, [r7]
 555 0212 5B7A     		ldrb	r3, [r3, #9]	@ zero_extendqisi2
 556 0214 072B     		cmp	r3, #7
 557 0216 03D0     		beq	.L19
 558              		.loc 2 59 0 discriminator 8
 559 0218 3B21     		movs	r1, #59
 560 021a 1548     		ldr	r0, .L37+4
 561 021c FFF7FEFF 		bl	Cy_SysLib_AssertFailed
 562              	.L19:
  60:Generated_Source\PSoC6\pdl\drivers\peripheral\pdm_pcm/cy_pdm_pcm.c ****         CY_ASSERT_L3(CY_PDM_PCM_IS_CKO_DELAY_VALID(config->ckoDelay));
 563              		.loc 2 60 0 is_stmt 1
 564 0220 3B68     		ldr	r3, [r7]
 565 0222 DB78     		ldrb	r3, [r3, #3]	@ zero_extendqisi2
 566 0224 072B     		cmp	r3, #7
 567 0226 03D9     		bls	.L20
 568              		.loc 2 60 0 is_stmt 0 discriminator 1
 569 0228 3C21     		movs	r1, #60
ARM GAS  C:\Users\ikomb\AppData\Local\Temp\ccmrmnRc.s 			page 24


 570 022a 1148     		ldr	r0, .L37+4
 571 022c FFF7FEFF 		bl	Cy_SysLib_AssertFailed
 572              	.L20:
  61:Generated_Source\PSoC6\pdl\drivers\peripheral\pdm_pcm/cy_pdm_pcm.c ****         CY_ASSERT_L3(CY_PDM_PCM_IS_HPF_GAIN_VALID(config->highPassFilterGain));
 573              		.loc 2 61 0 is_stmt 1
 574 0230 3B68     		ldr	r3, [r7]
 575 0232 DB79     		ldrb	r3, [r3, #7]	@ zero_extendqisi2
 576 0234 0F2B     		cmp	r3, #15
 577 0236 03D9     		bls	.L21
 578              		.loc 2 61 0 is_stmt 0 discriminator 1
 579 0238 3D21     		movs	r1, #61
 580 023a 0D48     		ldr	r0, .L37+4
 581 023c FFF7FEFF 		bl	Cy_SysLib_AssertFailed
 582              	.L21:
  62:Generated_Source\PSoC6\pdl\drivers\peripheral\pdm_pcm/cy_pdm_pcm.c ****         CY_ASSERT_L3(CY_PDM_PCM_IS_WORD_LEN_VALID(config->wordLen));
 583              		.loc 2 62 0 is_stmt 1
 584 0240 3B68     		ldr	r3, [r7]
 585 0242 5B7C     		ldrb	r3, [r3, #17]	@ zero_extendqisi2
 586 0244 002B     		cmp	r3, #0
 587 0246 15D0     		beq	.L22
 588              		.loc 2 62 0 is_stmt 0 discriminator 1
 589 0248 3B68     		ldr	r3, [r7]
 590 024a 5B7C     		ldrb	r3, [r3, #17]	@ zero_extendqisi2
 591 024c 012B     		cmp	r3, #1
 592 024e 11D0     		beq	.L22
 593              		.loc 2 62 0 discriminator 2
 594 0250 3B68     		ldr	r3, [r7]
 595 0252 5B7C     		ldrb	r3, [r3, #17]	@ zero_extendqisi2
 596 0254 022B     		cmp	r3, #2
 597 0256 0DD0     		beq	.L22
 598              		.loc 2 62 0 discriminator 3
 599 0258 3B68     		ldr	r3, [r7]
 600 025a 5B7C     		ldrb	r3, [r3, #17]	@ zero_extendqisi2
 601 025c 032B     		cmp	r3, #3
 602 025e 09D0     		beq	.L22
 603              		.loc 2 62 0 discriminator 4
 604 0260 3E21     		movs	r1, #62
 605 0262 0348     		ldr	r0, .L37+4
 606 0264 FFF7FEFF 		bl	Cy_SysLib_AssertFailed
 607 0268 04E0     		b	.L38
 608              	.L39:
 609 026a 00BF     		.align	2
 610              	.L37:
 611 026c 01009A00 		.word	10092545
 612 0270 44000000 		.word	.LC1
 613              	.L38:
 614              	.L22:
  63:Generated_Source\PSoC6\pdl\drivers\peripheral\pdm_pcm/cy_pdm_pcm.c ****         CY_ASSERT_L3(CY_PDM_PCM_IS_TRIG_LEVEL(config->rxFifoTriggerLevel, config->chanSelect));
 615              		.loc 2 63 0 is_stmt 1
 616 0274 3B68     		ldr	r3, [r7]
 617 0276 5B7D     		ldrb	r3, [r3, #21]	@ zero_extendqisi2
 618 0278 1A46     		mov	r2, r3
 619 027a 3B68     		ldr	r3, [r7]
 620 027c 5B79     		ldrb	r3, [r3, #5]	@ zero_extendqisi2
 621 027e 032B     		cmp	r3, #3
 622 0280 01D1     		bne	.L23
 623              		.loc 2 63 0 is_stmt 0 discriminator 1
ARM GAS  C:\Users\ikomb\AppData\Local\Temp\ccmrmnRc.s 			page 25


 624 0282 FD23     		movs	r3, #253
 625 0284 00E0     		b	.L24
 626              	.L23:
 627              		.loc 2 63 0 discriminator 2
 628 0286 FE23     		movs	r3, #254
 629              	.L24:
 630              		.loc 2 63 0 discriminator 4
 631 0288 9A42     		cmp	r2, r3
 632 028a 03D9     		bls	.L25
 633              		.loc 2 63 0 discriminator 5
 634 028c 3F21     		movs	r1, #63
 635 028e 4948     		ldr	r0, .L40
 636 0290 FFF7FEFF 		bl	Cy_SysLib_AssertFailed
 637              	.L25:
  64:Generated_Source\PSoC6\pdl\drivers\peripheral\pdm_pcm/cy_pdm_pcm.c ****         
  65:Generated_Source\PSoC6\pdl\drivers\peripheral\pdm_pcm/cy_pdm_pcm.c ****         ret = CY_PDM_PCM_SUCCESS;
 638              		.loc 2 65 0 is_stmt 1
 639 0294 0023     		movs	r3, #0
 640 0296 FB60     		str	r3, [r7, #12]
  66:Generated_Source\PSoC6\pdl\drivers\peripheral\pdm_pcm/cy_pdm_pcm.c **** 
  67:Generated_Source\PSoC6\pdl\drivers\peripheral\pdm_pcm/cy_pdm_pcm.c ****         base->CTL &= (uint32_t) ~PDM_CTL_ENABLED_Msk; /* Disable the PDM_PCM block */
 641              		.loc 2 67 0
 642 0298 7B68     		ldr	r3, [r7, #4]
 643 029a 1B68     		ldr	r3, [r3]
 644 029c 23F00042 		bic	r2, r3, #-2147483648
 645 02a0 7B68     		ldr	r3, [r7, #4]
 646 02a2 1A60     		str	r2, [r3]
  68:Generated_Source\PSoC6\pdl\drivers\peripheral\pdm_pcm/cy_pdm_pcm.c ****         
  69:Generated_Source\PSoC6\pdl\drivers\peripheral\pdm_pcm/cy_pdm_pcm.c ****         /* The clock setting */
  70:Generated_Source\PSoC6\pdl\drivers\peripheral\pdm_pcm/cy_pdm_pcm.c ****         base->CLOCK_CTL = _VAL2FLD(PDM_CLOCK_CTL_CLK_CLOCK_DIV,     config->clkDiv) |
 647              		.loc 2 70 0
 648 02a4 3B68     		ldr	r3, [r7]
 649 02a6 1B78     		ldrb	r3, [r3]	@ zero_extendqisi2
 650 02a8 03F00302 		and	r2, r3, #3
  71:Generated_Source\PSoC6\pdl\drivers\peripheral\pdm_pcm/cy_pdm_pcm.c ****                           _VAL2FLD(PDM_CLOCK_CTL_MCLKQ_CLOCK_DIV,   config->mclkDiv) |
 651              		.loc 2 71 0
 652 02ac 3B68     		ldr	r3, [r7]
 653 02ae 5B78     		ldrb	r3, [r3, #1]	@ zero_extendqisi2
 654 02b0 1B01     		lsls	r3, r3, #4
 655 02b2 03F03003 		and	r3, r3, #48
  70:Generated_Source\PSoC6\pdl\drivers\peripheral\pdm_pcm/cy_pdm_pcm.c ****                           _VAL2FLD(PDM_CLOCK_CTL_MCLKQ_CLOCK_DIV,   config->mclkDiv) |
 656              		.loc 2 70 0
 657 02b6 1A43     		orrs	r2, r2, r3
  72:Generated_Source\PSoC6\pdl\drivers\peripheral\pdm_pcm/cy_pdm_pcm.c ****                           _VAL2FLD(PDM_CLOCK_CTL_CKO_CLOCK_DIV,     config->ckoDiv) |
 658              		.loc 2 72 0
 659 02b8 3B68     		ldr	r3, [r7]
 660 02ba 9B78     		ldrb	r3, [r3, #2]	@ zero_extendqisi2
 661 02bc 1B02     		lsls	r3, r3, #8
 662 02be 03F47063 		and	r3, r3, #3840
  71:Generated_Source\PSoC6\pdl\drivers\peripheral\pdm_pcm/cy_pdm_pcm.c ****                           _VAL2FLD(PDM_CLOCK_CTL_MCLKQ_CLOCK_DIV,   config->mclkDiv) |
 663              		.loc 2 71 0
 664 02c2 1A43     		orrs	r2, r2, r3
  73:Generated_Source\PSoC6\pdl\drivers\peripheral\pdm_pcm/cy_pdm_pcm.c ****                           _VAL2FLD(PDM_CLOCK_CTL_SINC_RATE,         config->sincDecRate);
 665              		.loc 2 73 0
 666 02c4 3B68     		ldr	r3, [r7]
 667 02c6 1B79     		ldrb	r3, [r3, #4]	@ zero_extendqisi2
 668 02c8 1B04     		lsls	r3, r3, #16
ARM GAS  C:\Users\ikomb\AppData\Local\Temp\ccmrmnRc.s 			page 26


 669 02ca 03F4FE03 		and	r3, r3, #8323072
  72:Generated_Source\PSoC6\pdl\drivers\peripheral\pdm_pcm/cy_pdm_pcm.c ****                           _VAL2FLD(PDM_CLOCK_CTL_CKO_CLOCK_DIV,     config->ckoDiv) |
 670              		.loc 2 72 0
 671 02ce 1A43     		orrs	r2, r2, r3
  70:Generated_Source\PSoC6\pdl\drivers\peripheral\pdm_pcm/cy_pdm_pcm.c ****                           _VAL2FLD(PDM_CLOCK_CTL_MCLKQ_CLOCK_DIV,   config->mclkDiv) |
 672              		.loc 2 70 0
 673 02d0 7B68     		ldr	r3, [r7, #4]
 674 02d2 1A61     		str	r2, [r3, #16]
  74:Generated_Source\PSoC6\pdl\drivers\peripheral\pdm_pcm/cy_pdm_pcm.c **** 
  75:Generated_Source\PSoC6\pdl\drivers\peripheral\pdm_pcm/cy_pdm_pcm.c ****         /* Enable the PDM-PCM block */
  76:Generated_Source\PSoC6\pdl\drivers\peripheral\pdm_pcm/cy_pdm_pcm.c ****         base->CTL = _VAL2FLD(PDM_CTL_PGA_R,                         config->gainRight) |
 675              		.loc 2 76 0
 676 02d4 3B68     		ldr	r3, [r7]
 677 02d6 1B7D     		ldrb	r3, [r3, #20]	@ zero_extendqisi2
 678 02d8 03F00F02 		and	r2, r3, #15
  77:Generated_Source\PSoC6\pdl\drivers\peripheral\pdm_pcm/cy_pdm_pcm.c ****                     _VAL2FLD(PDM_CTL_PGA_L,                         config->gainLeft) |
 679              		.loc 2 77 0
 680 02dc 3B68     		ldr	r3, [r7]
 681 02de DB7C     		ldrb	r3, [r3, #19]	@ zero_extendqisi2
 682 02e0 1B02     		lsls	r3, r3, #8
 683 02e2 03F47063 		and	r3, r3, #3840
  76:Generated_Source\PSoC6\pdl\drivers\peripheral\pdm_pcm/cy_pdm_pcm.c ****                     _VAL2FLD(PDM_CTL_PGA_L,                         config->gainLeft) |
 684              		.loc 2 76 0
 685 02e6 1A43     		orrs	r2, r2, r3
  78:Generated_Source\PSoC6\pdl\drivers\peripheral\pdm_pcm/cy_pdm_pcm.c ****                     _VAL2FLD(PDM_CTL_STEP_SEL,                      config->softMuteFineGain) |
 686              		.loc 2 78 0
 687 02e8 3B68     		ldr	r3, [r7]
 688 02ea DB68     		ldr	r3, [r3, #12]
 689 02ec 5B04     		lsls	r3, r3, #17
 690 02ee 03F40033 		and	r3, r3, #131072
  77:Generated_Source\PSoC6\pdl\drivers\peripheral\pdm_pcm/cy_pdm_pcm.c ****                     _VAL2FLD(PDM_CTL_PGA_L,                         config->gainLeft) |
 691              		.loc 2 77 0
 692 02f2 1A43     		orrs	r2, r2, r3
  79:Generated_Source\PSoC6\pdl\drivers\peripheral\pdm_pcm/cy_pdm_pcm.c ****                     _BOOL2FLD(PDM_CTL_SOFT_MUTE,                    config->softMuteEnable) |
 693              		.loc 2 79 0
 694 02f4 3B68     		ldr	r3, [r7]
 695 02f6 1B7C     		ldrb	r3, [r3, #16]	@ zero_extendqisi2
 696 02f8 002B     		cmp	r3, #0
 697 02fa 02D0     		beq	.L26
 698              		.loc 2 79 0 is_stmt 0 discriminator 1
 699 02fc 4FF48033 		mov	r3, #65536
 700 0300 00E0     		b	.L27
 701              	.L26:
 702              		.loc 2 79 0 discriminator 2
 703 0302 0023     		movs	r3, #0
 704              	.L27:
  78:Generated_Source\PSoC6\pdl\drivers\peripheral\pdm_pcm/cy_pdm_pcm.c ****                     _VAL2FLD(PDM_CTL_STEP_SEL,                      config->softMuteFineGain) |
 705              		.loc 2 78 0 is_stmt 1
 706 0304 1343     		orrs	r3, r3, r2
 707              		.loc 2 79 0
 708 0306 43F00042 		orr	r2, r3, #-2147483648
  76:Generated_Source\PSoC6\pdl\drivers\peripheral\pdm_pcm/cy_pdm_pcm.c ****                     _VAL2FLD(PDM_CTL_PGA_L,                         config->gainLeft) |
 709              		.loc 2 76 0
 710 030a 7B68     		ldr	r3, [r7, #4]
 711 030c 1A60     		str	r2, [r3]
  80:Generated_Source\PSoC6\pdl\drivers\peripheral\pdm_pcm/cy_pdm_pcm.c ****                     _BOOL2FLD(PDM_CTL_ENABLED,                      true);
  81:Generated_Source\PSoC6\pdl\drivers\peripheral\pdm_pcm/cy_pdm_pcm.c **** 
ARM GAS  C:\Users\ikomb\AppData\Local\Temp\ccmrmnRc.s 			page 27


  82:Generated_Source\PSoC6\pdl\drivers\peripheral\pdm_pcm/cy_pdm_pcm.c ****         base->MODE_CTL = _VAL2FLD(PDM_MODE_CTL_PCM_CH_SET,          config->chanSelect) |
 712              		.loc 2 82 0
 713 030e 3B68     		ldr	r3, [r7]
 714 0310 5B79     		ldrb	r3, [r3, #5]	@ zero_extendqisi2
 715 0312 03F00302 		and	r2, r3, #3
  83:Generated_Source\PSoC6\pdl\drivers\peripheral\pdm_pcm/cy_pdm_pcm.c ****                          _BOOL2FLD(PDM_MODE_CTL_SWAP_LR,            config->chanSwapEnable) |
 716              		.loc 2 83 0
 717 0316 3B68     		ldr	r3, [r7]
 718 0318 9B79     		ldrb	r3, [r3, #6]	@ zero_extendqisi2
 719 031a 002B     		cmp	r3, #0
 720 031c 01D0     		beq	.L28
 721              		.loc 2 83 0 is_stmt 0 discriminator 1
 722 031e 0423     		movs	r3, #4
 723 0320 00E0     		b	.L29
 724              	.L28:
 725              		.loc 2 83 0 discriminator 2
 726 0322 0023     		movs	r3, #0
 727              	.L29:
  82:Generated_Source\PSoC6\pdl\drivers\peripheral\pdm_pcm/cy_pdm_pcm.c ****                          _BOOL2FLD(PDM_MODE_CTL_SWAP_LR,            config->chanSwapEnable) |
 728              		.loc 2 82 0 is_stmt 1
 729 0324 1A43     		orrs	r2, r2, r3
  84:Generated_Source\PSoC6\pdl\drivers\peripheral\pdm_pcm/cy_pdm_pcm.c ****                          _VAL2FLD(PDM_MODE_CTL_S_CYCLES,            config->softMuteCycles) |
 730              		.loc 2 84 0
 731 0326 3B68     		ldr	r3, [r7]
 732 0328 5B7A     		ldrb	r3, [r3, #9]	@ zero_extendqisi2
 733 032a 1B02     		lsls	r3, r3, #8
 734 032c 03F4E063 		and	r3, r3, #1792
  83:Generated_Source\PSoC6\pdl\drivers\peripheral\pdm_pcm/cy_pdm_pcm.c ****                          _BOOL2FLD(PDM_MODE_CTL_SWAP_LR,            config->chanSwapEnable) |
 735              		.loc 2 83 0
 736 0330 1A43     		orrs	r2, r2, r3
  85:Generated_Source\PSoC6\pdl\drivers\peripheral\pdm_pcm/cy_pdm_pcm.c ****                          _VAL2FLD(PDM_MODE_CTL_CKO_DELAY,           config->ckoDelay) |
 737              		.loc 2 85 0
 738 0332 3B68     		ldr	r3, [r7]
 739 0334 DB78     		ldrb	r3, [r3, #3]	@ zero_extendqisi2
 740 0336 1B04     		lsls	r3, r3, #16
 741 0338 03F4E023 		and	r3, r3, #458752
  84:Generated_Source\PSoC6\pdl\drivers\peripheral\pdm_pcm/cy_pdm_pcm.c ****                          _VAL2FLD(PDM_MODE_CTL_S_CYCLES,            config->softMuteCycles) |
 742              		.loc 2 84 0
 743 033c 1A43     		orrs	r2, r2, r3
  86:Generated_Source\PSoC6\pdl\drivers\peripheral\pdm_pcm/cy_pdm_pcm.c ****                          _VAL2FLD(PDM_MODE_CTL_HPF_GAIN,            config->highPassFilterGain) |
 744              		.loc 2 86 0
 745 033e 3B68     		ldr	r3, [r7]
 746 0340 DB79     		ldrb	r3, [r3, #7]	@ zero_extendqisi2
 747 0342 1B06     		lsls	r3, r3, #24
 748 0344 03F07063 		and	r3, r3, #251658240
  85:Generated_Source\PSoC6\pdl\drivers\peripheral\pdm_pcm/cy_pdm_pcm.c ****                          _VAL2FLD(PDM_MODE_CTL_CKO_DELAY,           config->ckoDelay) |
 749              		.loc 2 85 0
 750 0348 1A43     		orrs	r2, r2, r3
  87:Generated_Source\PSoC6\pdl\drivers\peripheral\pdm_pcm/cy_pdm_pcm.c ****                          _BOOL2FLD(PDM_MODE_CTL_HPF_EN_N,           config->highPassDisable);
 751              		.loc 2 87 0
 752 034a 3B68     		ldr	r3, [r7]
 753 034c 1B7A     		ldrb	r3, [r3, #8]	@ zero_extendqisi2
 754 034e 002B     		cmp	r3, #0
 755 0350 02D0     		beq	.L30
 756              		.loc 2 87 0 is_stmt 0 discriminator 1
 757 0352 4FF08053 		mov	r3, #268435456
 758 0356 00E0     		b	.L31
ARM GAS  C:\Users\ikomb\AppData\Local\Temp\ccmrmnRc.s 			page 28


 759              	.L30:
 760              		.loc 2 87 0 discriminator 2
 761 0358 0023     		movs	r3, #0
 762              	.L31:
  86:Generated_Source\PSoC6\pdl\drivers\peripheral\pdm_pcm/cy_pdm_pcm.c ****                          _VAL2FLD(PDM_MODE_CTL_HPF_GAIN,            config->highPassFilterGain) |
 763              		.loc 2 86 0 is_stmt 1
 764 035a 1A43     		orrs	r2, r2, r3
  82:Generated_Source\PSoC6\pdl\drivers\peripheral\pdm_pcm/cy_pdm_pcm.c ****                          _BOOL2FLD(PDM_MODE_CTL_SWAP_LR,            config->chanSwapEnable) |
 765              		.loc 2 82 0
 766 035c 7B68     		ldr	r3, [r7, #4]
 767 035e 5A61     		str	r2, [r3, #20]
  88:Generated_Source\PSoC6\pdl\drivers\peripheral\pdm_pcm/cy_pdm_pcm.c **** 
  89:Generated_Source\PSoC6\pdl\drivers\peripheral\pdm_pcm/cy_pdm_pcm.c ****         base->DATA_CTL = _VAL2FLD(PDM_DATA_CTL_WORD_LEN,            config->wordLen) |
 768              		.loc 2 89 0
 769 0360 3B68     		ldr	r3, [r7]
 770 0362 5B7C     		ldrb	r3, [r3, #17]	@ zero_extendqisi2
 771 0364 03F00302 		and	r2, r3, #3
  90:Generated_Source\PSoC6\pdl\drivers\peripheral\pdm_pcm/cy_pdm_pcm.c ****                          _BOOL2FLD(PDM_DATA_CTL_BIT_EXTENSION,      config->signExtension);
 772              		.loc 2 90 0
 773 0368 3B68     		ldr	r3, [r7]
 774 036a 9B7C     		ldrb	r3, [r3, #18]	@ zero_extendqisi2
 775 036c 002B     		cmp	r3, #0
 776 036e 02D0     		beq	.L32
 777              		.loc 2 90 0 is_stmt 0 discriminator 1
 778 0370 4FF48073 		mov	r3, #256
 779 0374 00E0     		b	.L33
 780              	.L32:
 781              		.loc 2 90 0 discriminator 2
 782 0376 0023     		movs	r3, #0
 783              	.L33:
  89:Generated_Source\PSoC6\pdl\drivers\peripheral\pdm_pcm/cy_pdm_pcm.c ****                          _BOOL2FLD(PDM_DATA_CTL_BIT_EXTENSION,      config->signExtension);
 784              		.loc 2 89 0 is_stmt 1
 785 0378 1A43     		orrs	r2, r2, r3
 786 037a 7B68     		ldr	r3, [r7, #4]
 787 037c 9A61     		str	r2, [r3, #24]
  91:Generated_Source\PSoC6\pdl\drivers\peripheral\pdm_pcm/cy_pdm_pcm.c **** 
  92:Generated_Source\PSoC6\pdl\drivers\peripheral\pdm_pcm/cy_pdm_pcm.c ****         base->RX_FIFO_CTL = _VAL2FLD(PDM_RX_FIFO_CTL_TRIGGER_LEVEL, config->rxFifoTriggerLevel);
 788              		.loc 2 92 0
 789 037e 3B68     		ldr	r3, [r7]
 790 0380 5B7D     		ldrb	r3, [r3, #21]	@ zero_extendqisi2
 791 0382 1A46     		mov	r2, r3
 792 0384 7B68     		ldr	r3, [r7, #4]
 793 0386 C3F80023 		str	r2, [r3, #768]
  93:Generated_Source\PSoC6\pdl\drivers\peripheral\pdm_pcm/cy_pdm_pcm.c **** 
  94:Generated_Source\PSoC6\pdl\drivers\peripheral\pdm_pcm/cy_pdm_pcm.c ****         base->TR_CTL = _BOOL2FLD(PDM_TR_CTL_RX_REQ_EN,              config->dmaTriggerEnable);
 794              		.loc 2 94 0
 795 038a 3B68     		ldr	r3, [r7]
 796 038c 9B7D     		ldrb	r3, [r3, #22]	@ zero_extendqisi2
 797 038e 002B     		cmp	r3, #0
 798 0390 02D0     		beq	.L34
 799              		.loc 2 94 0 is_stmt 0 discriminator 1
 800 0392 4FF48032 		mov	r2, #65536
 801 0396 00E0     		b	.L35
 802              	.L34:
 803              		.loc 2 94 0 discriminator 2
 804 0398 0022     		movs	r2, #0
 805              	.L35:
ARM GAS  C:\Users\ikomb\AppData\Local\Temp\ccmrmnRc.s 			page 29


 806              		.loc 2 94 0 discriminator 4
 807 039a 7B68     		ldr	r3, [r7, #4]
 808 039c 1A64     		str	r2, [r3, #64]
  95:Generated_Source\PSoC6\pdl\drivers\peripheral\pdm_pcm/cy_pdm_pcm.c **** 
  96:Generated_Source\PSoC6\pdl\drivers\peripheral\pdm_pcm/cy_pdm_pcm.c ****         Cy_PDM_PCM_SetInterruptMask(base, config->interruptMask);
 809              		.loc 2 96 0 is_stmt 1 discriminator 4
 810 039e 3B68     		ldr	r3, [r7]
 811 03a0 9B69     		ldr	r3, [r3, #24]
 812 03a2 1946     		mov	r1, r3
 813 03a4 7868     		ldr	r0, [r7, #4]
 814 03a6 FFF7FEFF 		bl	Cy_PDM_PCM_SetInterruptMask
 815              	.L9:
  97:Generated_Source\PSoC6\pdl\drivers\peripheral\pdm_pcm/cy_pdm_pcm.c ****     }
  98:Generated_Source\PSoC6\pdl\drivers\peripheral\pdm_pcm/cy_pdm_pcm.c **** 
  99:Generated_Source\PSoC6\pdl\drivers\peripheral\pdm_pcm/cy_pdm_pcm.c ****     return (ret);
 816              		.loc 2 99 0
 817 03aa FB68     		ldr	r3, [r7, #12]
 100:Generated_Source\PSoC6\pdl\drivers\peripheral\pdm_pcm/cy_pdm_pcm.c **** }
 818              		.loc 2 100 0
 819 03ac 1846     		mov	r0, r3
 820 03ae 1037     		adds	r7, r7, #16
 821              		.cfi_def_cfa_offset 8
 822 03b0 BD46     		mov	sp, r7
 823              		.cfi_def_cfa_register 13
 824              		@ sp needed
 825 03b2 80BD     		pop	{r7, pc}
 826              	.L41:
 827              		.align	2
 828              	.L40:
 829 03b4 44000000 		.word	.LC1
 830              		.cfi_endproc
 831              	.LFE175:
 832              		.size	Cy_PDM_PCM_Init, .-Cy_PDM_PCM_Init
 833              		.section	.text.Cy_PDM_PCM_DeInit,"ax",%progbits
 834              		.align	2
 835              		.global	Cy_PDM_PCM_DeInit
 836              		.thumb
 837              		.thumb_func
 838              		.type	Cy_PDM_PCM_DeInit, %function
 839              	Cy_PDM_PCM_DeInit:
 840              	.LFB176:
 101:Generated_Source\PSoC6\pdl\drivers\peripheral\pdm_pcm/cy_pdm_pcm.c **** 
 102:Generated_Source\PSoC6\pdl\drivers\peripheral\pdm_pcm/cy_pdm_pcm.c **** 
 103:Generated_Source\PSoC6\pdl\drivers\peripheral\pdm_pcm/cy_pdm_pcm.c **** /*******************************************************************************
 104:Generated_Source\PSoC6\pdl\drivers\peripheral\pdm_pcm/cy_pdm_pcm.c **** * Function Name: Cy_PDM_PCM_DeInit
 105:Generated_Source\PSoC6\pdl\drivers\peripheral\pdm_pcm/cy_pdm_pcm.c **** ****************************************************************************//**
 106:Generated_Source\PSoC6\pdl\drivers\peripheral\pdm_pcm/cy_pdm_pcm.c **** *
 107:Generated_Source\PSoC6\pdl\drivers\peripheral\pdm_pcm/cy_pdm_pcm.c **** * Uninitializes the PDM-PCM module.
 108:Generated_Source\PSoC6\pdl\drivers\peripheral\pdm_pcm/cy_pdm_pcm.c **** *
 109:Generated_Source\PSoC6\pdl\drivers\peripheral\pdm_pcm/cy_pdm_pcm.c **** * \param base The pointer to the PDM-PCM instance address.
 110:Generated_Source\PSoC6\pdl\drivers\peripheral\pdm_pcm/cy_pdm_pcm.c **** *
 111:Generated_Source\PSoC6\pdl\drivers\peripheral\pdm_pcm/cy_pdm_pcm.c **** *******************************************************************************/
 112:Generated_Source\PSoC6\pdl\drivers\peripheral\pdm_pcm/cy_pdm_pcm.c **** void Cy_PDM_PCM_DeInit(PDM_Type * base)
 113:Generated_Source\PSoC6\pdl\drivers\peripheral\pdm_pcm/cy_pdm_pcm.c **** {
 841              		.loc 2 113 0
 842              		.cfi_startproc
 843              		@ args = 0, pretend = 0, frame = 8
ARM GAS  C:\Users\ikomb\AppData\Local\Temp\ccmrmnRc.s 			page 30


 844              		@ frame_needed = 1, uses_anonymous_args = 0
 845              		@ link register save eliminated.
 846 0000 80B4     		push	{r7}
 847              		.cfi_def_cfa_offset 4
 848              		.cfi_offset 7, -4
 849 0002 83B0     		sub	sp, sp, #12
 850              		.cfi_def_cfa_offset 16
 851 0004 00AF     		add	r7, sp, #0
 852              		.cfi_def_cfa_register 7
 853 0006 7860     		str	r0, [r7, #4]
 114:Generated_Source\PSoC6\pdl\drivers\peripheral\pdm_pcm/cy_pdm_pcm.c ****     base->CMD = 0UL; /* Stop PDM-PCM operation */
 854              		.loc 2 114 0
 855 0008 7B68     		ldr	r3, [r7, #4]
 856 000a 0022     		movs	r2, #0
 857 000c 1A62     		str	r2, [r3, #32]
 115:Generated_Source\PSoC6\pdl\drivers\peripheral\pdm_pcm/cy_pdm_pcm.c ****     base->INTR_MASK = 0UL; /* Disable interrupts */
 858              		.loc 2 115 0
 859 000e 7B68     		ldr	r3, [r7, #4]
 860 0010 0022     		movs	r2, #0
 861 0012 C3F8082F 		str	r2, [r3, #3848]
 116:Generated_Source\PSoC6\pdl\drivers\peripheral\pdm_pcm/cy_pdm_pcm.c ****     base->RX_FIFO_CTL = 0UL;
 862              		.loc 2 116 0
 863 0016 7B68     		ldr	r3, [r7, #4]
 864 0018 0022     		movs	r2, #0
 865 001a C3F80023 		str	r2, [r3, #768]
 117:Generated_Source\PSoC6\pdl\drivers\peripheral\pdm_pcm/cy_pdm_pcm.c ****     base->TR_CTL = 0UL;
 866              		.loc 2 117 0
 867 001e 7B68     		ldr	r3, [r7, #4]
 868 0020 0022     		movs	r2, #0
 869 0022 1A64     		str	r2, [r3, #64]
 118:Generated_Source\PSoC6\pdl\drivers\peripheral\pdm_pcm/cy_pdm_pcm.c ****     base->DATA_CTL = 0UL;
 870              		.loc 2 118 0
 871 0024 7B68     		ldr	r3, [r7, #4]
 872 0026 0022     		movs	r2, #0
 873 0028 9A61     		str	r2, [r3, #24]
 119:Generated_Source\PSoC6\pdl\drivers\peripheral\pdm_pcm/cy_pdm_pcm.c ****     base->MODE_CTL = CY_PDM_PCM_MODE_CTL_DEFAULT;
 874              		.loc 2 119 0
 875 002a 7B68     		ldr	r3, [r7, #4]
 876 002c 064A     		ldr	r2, .L43
 877 002e 5A61     		str	r2, [r3, #20]
 120:Generated_Source\PSoC6\pdl\drivers\peripheral\pdm_pcm/cy_pdm_pcm.c ****     base->CTL = CY_PDM_PCM_CTL_DEFAULT; /* Disable the PDM_PCM IP block */
 878              		.loc 2 120 0
 879 0030 7B68     		ldr	r3, [r7, #4]
 880 0032 064A     		ldr	r2, .L43+4
 881 0034 1A60     		str	r2, [r3]
 121:Generated_Source\PSoC6\pdl\drivers\peripheral\pdm_pcm/cy_pdm_pcm.c ****     base->CLOCK_CTL = CY_PDM_PCM_CLOCK_CTL_DEFAULT; /* The default clock settings */
 882              		.loc 2 121 0
 883 0036 7B68     		ldr	r3, [r7, #4]
 884 0038 054A     		ldr	r2, .L43+8
 885 003a 1A61     		str	r2, [r3, #16]
 122:Generated_Source\PSoC6\pdl\drivers\peripheral\pdm_pcm/cy_pdm_pcm.c **** }
 886              		.loc 2 122 0
 887 003c 00BF     		nop
 888 003e 0C37     		adds	r7, r7, #12
 889              		.cfi_def_cfa_offset 4
 890 0040 BD46     		mov	sp, r7
 891              		.cfi_def_cfa_register 13
ARM GAS  C:\Users\ikomb\AppData\Local\Temp\ccmrmnRc.s 			page 31


 892              		@ sp needed
 893 0042 5DF8047B 		ldr	r7, [sp], #4
 894              		.cfi_restore 7
 895              		.cfi_def_cfa_offset 0
 896 0046 7047     		bx	lr
 897              	.L44:
 898              		.align	2
 899              	.L43:
 900 0048 0301001B 		.word	452985091
 901 004c 08080200 		.word	133128
 902 0050 10032000 		.word	2097936
 903              		.cfi_endproc
 904              	.LFE176:
 905              		.size	Cy_PDM_PCM_DeInit, .-Cy_PDM_PCM_DeInit
 906              		.section	.text.Cy_PDM_PCM_SetGain,"ax",%progbits
 907              		.align	2
 908              		.global	Cy_PDM_PCM_SetGain
 909              		.thumb
 910              		.thumb_func
 911              		.type	Cy_PDM_PCM_SetGain, %function
 912              	Cy_PDM_PCM_SetGain:
 913              	.LFB177:
 123:Generated_Source\PSoC6\pdl\drivers\peripheral\pdm_pcm/cy_pdm_pcm.c **** 
 124:Generated_Source\PSoC6\pdl\drivers\peripheral\pdm_pcm/cy_pdm_pcm.c **** /******************************************************************************
 125:Generated_Source\PSoC6\pdl\drivers\peripheral\pdm_pcm/cy_pdm_pcm.c **** * Function Name: Cy_PDM_PCM_SetGain
 126:Generated_Source\PSoC6\pdl\drivers\peripheral\pdm_pcm/cy_pdm_pcm.c **** ***************************************************************************//**
 127:Generated_Source\PSoC6\pdl\drivers\peripheral\pdm_pcm/cy_pdm_pcm.c **** *
 128:Generated_Source\PSoC6\pdl\drivers\peripheral\pdm_pcm/cy_pdm_pcm.c **** * Sets the gain factor to the left or right channel.
 129:Generated_Source\PSoC6\pdl\drivers\peripheral\pdm_pcm/cy_pdm_pcm.c **** *
 130:Generated_Source\PSoC6\pdl\drivers\peripheral\pdm_pcm/cy_pdm_pcm.c **** * \param base
 131:Generated_Source\PSoC6\pdl\drivers\peripheral\pdm_pcm/cy_pdm_pcm.c **** * The pointer to the PDM-PCM instance address.
 132:Generated_Source\PSoC6\pdl\drivers\peripheral\pdm_pcm/cy_pdm_pcm.c **** *
 133:Generated_Source\PSoC6\pdl\drivers\peripheral\pdm_pcm/cy_pdm_pcm.c **** * \param chan
 134:Generated_Source\PSoC6\pdl\drivers\peripheral\pdm_pcm/cy_pdm_pcm.c **** * The channel selector for gain setting \ref cy_en_pdm_pcm_chan_select_t.
 135:Generated_Source\PSoC6\pdl\drivers\peripheral\pdm_pcm/cy_pdm_pcm.c **** *
 136:Generated_Source\PSoC6\pdl\drivers\peripheral\pdm_pcm/cy_pdm_pcm.c **** * \param gain
 137:Generated_Source\PSoC6\pdl\drivers\peripheral\pdm_pcm/cy_pdm_pcm.c **** * Gain for the selected channel \ref cy_en_pdm_pcm_gain_t.
 138:Generated_Source\PSoC6\pdl\drivers\peripheral\pdm_pcm/cy_pdm_pcm.c **** *
 139:Generated_Source\PSoC6\pdl\drivers\peripheral\pdm_pcm/cy_pdm_pcm.c **** ******************************************************************************/
 140:Generated_Source\PSoC6\pdl\drivers\peripheral\pdm_pcm/cy_pdm_pcm.c **** void Cy_PDM_PCM_SetGain(PDM_Type * base, cy_en_pdm_pcm_chan_select_t chan, cy_en_pdm_pcm_gain_t gai
 141:Generated_Source\PSoC6\pdl\drivers\peripheral\pdm_pcm/cy_pdm_pcm.c **** {
 914              		.loc 2 141 0
 915              		.cfi_startproc
 916              		@ args = 0, pretend = 0, frame = 8
 917              		@ frame_needed = 1, uses_anonymous_args = 0
 918 0000 80B5     		push	{r7, lr}
 919              		.cfi_def_cfa_offset 8
 920              		.cfi_offset 7, -8
 921              		.cfi_offset 14, -4
 922 0002 82B0     		sub	sp, sp, #8
 923              		.cfi_def_cfa_offset 16
 924 0004 00AF     		add	r7, sp, #0
 925              		.cfi_def_cfa_register 7
 926 0006 7860     		str	r0, [r7, #4]
 927 0008 0B46     		mov	r3, r1
 928 000a FB70     		strb	r3, [r7, #3]
 929 000c 1346     		mov	r3, r2
ARM GAS  C:\Users\ikomb\AppData\Local\Temp\ccmrmnRc.s 			page 32


 930 000e BB70     		strb	r3, [r7, #2]
 142:Generated_Source\PSoC6\pdl\drivers\peripheral\pdm_pcm/cy_pdm_pcm.c ****     CY_ASSERT_L3(CY_PDM_PCM_IS_CHAN_VALID(chan));
 931              		.loc 2 142 0
 932 0010 FB78     		ldrb	r3, [r7, #3]	@ zero_extendqisi2
 933 0012 002B     		cmp	r3, #0
 934 0014 06D0     		beq	.L46
 935              		.loc 2 142 0 is_stmt 0 discriminator 1
 936 0016 FB78     		ldrb	r3, [r7, #3]	@ zero_extendqisi2
 937 0018 012B     		cmp	r3, #1
 938 001a 03D0     		beq	.L46
 939              		.loc 2 142 0 discriminator 2
 940 001c 8E21     		movs	r1, #142
 941 001e 2A48     		ldr	r0, .L51
 942 0020 FFF7FEFF 		bl	Cy_SysLib_AssertFailed
 943              	.L46:
 143:Generated_Source\PSoC6\pdl\drivers\peripheral\pdm_pcm/cy_pdm_pcm.c ****     CY_ASSERT_L3(CY_PDM_PCM_IS_GAIN_VALID(gain));
 944              		.loc 2 143 0 is_stmt 1
 945 0024 BB78     		ldrb	r3, [r7, #2]	@ zero_extendqisi2
 946 0026 002B     		cmp	r3, #0
 947 0028 30D0     		beq	.L47
 948              		.loc 2 143 0 is_stmt 0 discriminator 1
 949 002a BB78     		ldrb	r3, [r7, #2]	@ zero_extendqisi2
 950 002c 012B     		cmp	r3, #1
 951 002e 2DD0     		beq	.L47
 952              		.loc 2 143 0 discriminator 2
 953 0030 BB78     		ldrb	r3, [r7, #2]	@ zero_extendqisi2
 954 0032 022B     		cmp	r3, #2
 955 0034 2AD0     		beq	.L47
 956              		.loc 2 143 0 discriminator 3
 957 0036 BB78     		ldrb	r3, [r7, #2]	@ zero_extendqisi2
 958 0038 032B     		cmp	r3, #3
 959 003a 27D0     		beq	.L47
 960              		.loc 2 143 0 discriminator 4
 961 003c BB78     		ldrb	r3, [r7, #2]	@ zero_extendqisi2
 962 003e 042B     		cmp	r3, #4
 963 0040 24D0     		beq	.L47
 964              		.loc 2 143 0 discriminator 5
 965 0042 BB78     		ldrb	r3, [r7, #2]	@ zero_extendqisi2
 966 0044 052B     		cmp	r3, #5
 967 0046 21D0     		beq	.L47
 968              		.loc 2 143 0 discriminator 6
 969 0048 BB78     		ldrb	r3, [r7, #2]	@ zero_extendqisi2
 970 004a 062B     		cmp	r3, #6
 971 004c 1ED0     		beq	.L47
 972              		.loc 2 143 0 discriminator 7
 973 004e BB78     		ldrb	r3, [r7, #2]	@ zero_extendqisi2
 974 0050 072B     		cmp	r3, #7
 975 0052 1BD0     		beq	.L47
 976              		.loc 2 143 0 discriminator 8
 977 0054 BB78     		ldrb	r3, [r7, #2]	@ zero_extendqisi2
 978 0056 082B     		cmp	r3, #8
 979 0058 18D0     		beq	.L47
 980              		.loc 2 143 0 discriminator 9
 981 005a BB78     		ldrb	r3, [r7, #2]	@ zero_extendqisi2
 982 005c 092B     		cmp	r3, #9
 983 005e 15D0     		beq	.L47
 984              		.loc 2 143 0 discriminator 10
ARM GAS  C:\Users\ikomb\AppData\Local\Temp\ccmrmnRc.s 			page 33


 985 0060 BB78     		ldrb	r3, [r7, #2]	@ zero_extendqisi2
 986 0062 0A2B     		cmp	r3, #10
 987 0064 12D0     		beq	.L47
 988              		.loc 2 143 0 discriminator 11
 989 0066 BB78     		ldrb	r3, [r7, #2]	@ zero_extendqisi2
 990 0068 0B2B     		cmp	r3, #11
 991 006a 0FD0     		beq	.L47
 992              		.loc 2 143 0 discriminator 12
 993 006c BB78     		ldrb	r3, [r7, #2]	@ zero_extendqisi2
 994 006e 0C2B     		cmp	r3, #12
 995 0070 0CD0     		beq	.L47
 996              		.loc 2 143 0 discriminator 13
 997 0072 BB78     		ldrb	r3, [r7, #2]	@ zero_extendqisi2
 998 0074 0D2B     		cmp	r3, #13
 999 0076 09D0     		beq	.L47
 1000              		.loc 2 143 0 discriminator 14
 1001 0078 BB78     		ldrb	r3, [r7, #2]	@ zero_extendqisi2
 1002 007a 0E2B     		cmp	r3, #14
 1003 007c 06D0     		beq	.L47
 1004              		.loc 2 143 0 discriminator 15
 1005 007e BB78     		ldrb	r3, [r7, #2]	@ zero_extendqisi2
 1006 0080 0F2B     		cmp	r3, #15
 1007 0082 03D0     		beq	.L47
 1008              		.loc 2 143 0 discriminator 16
 1009 0084 8F21     		movs	r1, #143
 1010 0086 1048     		ldr	r0, .L51
 1011 0088 FFF7FEFF 		bl	Cy_SysLib_AssertFailed
 1012              	.L47:
 144:Generated_Source\PSoC6\pdl\drivers\peripheral\pdm_pcm/cy_pdm_pcm.c ****     
 145:Generated_Source\PSoC6\pdl\drivers\peripheral\pdm_pcm/cy_pdm_pcm.c ****     if (chan == CY_PDM_PCM_CHAN_LEFT)
 1013              		.loc 2 145 0 is_stmt 1
 1014 008c FB78     		ldrb	r3, [r7, #3]	@ zero_extendqisi2
 1015 008e 002B     		cmp	r3, #0
 1016 0090 0BD1     		bne	.L48
 146:Generated_Source\PSoC6\pdl\drivers\peripheral\pdm_pcm/cy_pdm_pcm.c ****     {
 147:Generated_Source\PSoC6\pdl\drivers\peripheral\pdm_pcm/cy_pdm_pcm.c ****         base->CTL = _CLR_SET_FLD32U(base->CTL, PDM_CTL_PGA_L, ((uint32_t) gain));
 1017              		.loc 2 147 0
 1018 0092 7B68     		ldr	r3, [r7, #4]
 1019 0094 1B68     		ldr	r3, [r3]
 1020 0096 23F47062 		bic	r2, r3, #3840
 1021 009a BB78     		ldrb	r3, [r7, #2]	@ zero_extendqisi2
 1022 009c 1B02     		lsls	r3, r3, #8
 1023 009e 03F47063 		and	r3, r3, #3840
 1024 00a2 1A43     		orrs	r2, r2, r3
 1025 00a4 7B68     		ldr	r3, [r7, #4]
 1026 00a6 1A60     		str	r2, [r3]
 148:Generated_Source\PSoC6\pdl\drivers\peripheral\pdm_pcm/cy_pdm_pcm.c ****     }
 149:Generated_Source\PSoC6\pdl\drivers\peripheral\pdm_pcm/cy_pdm_pcm.c ****     else
 150:Generated_Source\PSoC6\pdl\drivers\peripheral\pdm_pcm/cy_pdm_pcm.c ****     {
 151:Generated_Source\PSoC6\pdl\drivers\peripheral\pdm_pcm/cy_pdm_pcm.c ****         base->CTL = _CLR_SET_FLD32U(base->CTL, PDM_CTL_PGA_R, ((uint32_t) gain));
 152:Generated_Source\PSoC6\pdl\drivers\peripheral\pdm_pcm/cy_pdm_pcm.c ****     }
 153:Generated_Source\PSoC6\pdl\drivers\peripheral\pdm_pcm/cy_pdm_pcm.c **** }
 1027              		.loc 2 153 0
 1028 00a8 09E0     		b	.L50
 1029              	.L48:
 151:Generated_Source\PSoC6\pdl\drivers\peripheral\pdm_pcm/cy_pdm_pcm.c ****     }
 1030              		.loc 2 151 0
ARM GAS  C:\Users\ikomb\AppData\Local\Temp\ccmrmnRc.s 			page 34


 1031 00aa 7B68     		ldr	r3, [r7, #4]
 1032 00ac 1B68     		ldr	r3, [r3]
 1033 00ae 23F00F02 		bic	r2, r3, #15
 1034 00b2 BB78     		ldrb	r3, [r7, #2]	@ zero_extendqisi2
 1035 00b4 03F00F03 		and	r3, r3, #15
 1036 00b8 1A43     		orrs	r2, r2, r3
 1037 00ba 7B68     		ldr	r3, [r7, #4]
 1038 00bc 1A60     		str	r2, [r3]
 1039              	.L50:
 1040              		.loc 2 153 0
 1041 00be 00BF     		nop
 1042 00c0 0837     		adds	r7, r7, #8
 1043              		.cfi_def_cfa_offset 8
 1044 00c2 BD46     		mov	sp, r7
 1045              		.cfi_def_cfa_register 13
 1046              		@ sp needed
 1047 00c4 80BD     		pop	{r7, pc}
 1048              	.L52:
 1049 00c6 00BF     		.align	2
 1050              	.L51:
 1051 00c8 44000000 		.word	.LC1
 1052              		.cfi_endproc
 1053              	.LFE177:
 1054              		.size	Cy_PDM_PCM_SetGain, .-Cy_PDM_PCM_SetGain
 1055              		.section	.text.Cy_PDM_PCM_GetGain,"ax",%progbits
 1056              		.align	2
 1057              		.global	Cy_PDM_PCM_GetGain
 1058              		.thumb
 1059              		.thumb_func
 1060              		.type	Cy_PDM_PCM_GetGain, %function
 1061              	Cy_PDM_PCM_GetGain:
 1062              	.LFB178:
 154:Generated_Source\PSoC6\pdl\drivers\peripheral\pdm_pcm/cy_pdm_pcm.c **** 
 155:Generated_Source\PSoC6\pdl\drivers\peripheral\pdm_pcm/cy_pdm_pcm.c **** /******************************************************************************
 156:Generated_Source\PSoC6\pdl\drivers\peripheral\pdm_pcm/cy_pdm_pcm.c **** * Function Name: Cy_PDM_PCM_GetGain
 157:Generated_Source\PSoC6\pdl\drivers\peripheral\pdm_pcm/cy_pdm_pcm.c **** ***************************************************************************//**
 158:Generated_Source\PSoC6\pdl\drivers\peripheral\pdm_pcm/cy_pdm_pcm.c **** *
 159:Generated_Source\PSoC6\pdl\drivers\peripheral\pdm_pcm/cy_pdm_pcm.c **** * Retrieves the current gain factor of the left or right channel.
 160:Generated_Source\PSoC6\pdl\drivers\peripheral\pdm_pcm/cy_pdm_pcm.c **** *
 161:Generated_Source\PSoC6\pdl\drivers\peripheral\pdm_pcm/cy_pdm_pcm.c **** * \param base
 162:Generated_Source\PSoC6\pdl\drivers\peripheral\pdm_pcm/cy_pdm_pcm.c **** * the pointer to the PDM-PCM instance address.
 163:Generated_Source\PSoC6\pdl\drivers\peripheral\pdm_pcm/cy_pdm_pcm.c **** *
 164:Generated_Source\PSoC6\pdl\drivers\peripheral\pdm_pcm/cy_pdm_pcm.c **** * \param chan
 165:Generated_Source\PSoC6\pdl\drivers\peripheral\pdm_pcm/cy_pdm_pcm.c **** * The channel selector for gain setting \ref cy_en_pdm_pcm_chan_select_t.
 166:Generated_Source\PSoC6\pdl\drivers\peripheral\pdm_pcm/cy_pdm_pcm.c **** *
 167:Generated_Source\PSoC6\pdl\drivers\peripheral\pdm_pcm/cy_pdm_pcm.c **** * \return
 168:Generated_Source\PSoC6\pdl\drivers\peripheral\pdm_pcm/cy_pdm_pcm.c **** * Gain of the selected channel \ref cy_en_pdm_pcm_gain_t.
 169:Generated_Source\PSoC6\pdl\drivers\peripheral\pdm_pcm/cy_pdm_pcm.c **** *
 170:Generated_Source\PSoC6\pdl\drivers\peripheral\pdm_pcm/cy_pdm_pcm.c **** ******************************************************************************/
 171:Generated_Source\PSoC6\pdl\drivers\peripheral\pdm_pcm/cy_pdm_pcm.c **** cy_en_pdm_pcm_gain_t Cy_PDM_PCM_GetGain(PDM_Type const * base, cy_en_pdm_pcm_chan_select_t chan)
 172:Generated_Source\PSoC6\pdl\drivers\peripheral\pdm_pcm/cy_pdm_pcm.c **** {
 1063              		.loc 2 172 0
 1064              		.cfi_startproc
 1065              		@ args = 0, pretend = 0, frame = 16
 1066              		@ frame_needed = 1, uses_anonymous_args = 0
 1067 0000 80B5     		push	{r7, lr}
 1068              		.cfi_def_cfa_offset 8
ARM GAS  C:\Users\ikomb\AppData\Local\Temp\ccmrmnRc.s 			page 35


 1069              		.cfi_offset 7, -8
 1070              		.cfi_offset 14, -4
 1071 0002 84B0     		sub	sp, sp, #16
 1072              		.cfi_def_cfa_offset 24
 1073 0004 00AF     		add	r7, sp, #0
 1074              		.cfi_def_cfa_register 7
 1075 0006 7860     		str	r0, [r7, #4]
 1076 0008 0B46     		mov	r3, r1
 1077 000a FB70     		strb	r3, [r7, #3]
 173:Generated_Source\PSoC6\pdl\drivers\peripheral\pdm_pcm/cy_pdm_pcm.c ****     cy_en_pdm_pcm_gain_t ret;
 174:Generated_Source\PSoC6\pdl\drivers\peripheral\pdm_pcm/cy_pdm_pcm.c ****     
 175:Generated_Source\PSoC6\pdl\drivers\peripheral\pdm_pcm/cy_pdm_pcm.c ****     CY_ASSERT_L3(CY_PDM_PCM_IS_CHAN_VALID(chan));
 1078              		.loc 2 175 0
 1079 000c FB78     		ldrb	r3, [r7, #3]	@ zero_extendqisi2
 1080 000e 002B     		cmp	r3, #0
 1081 0010 06D0     		beq	.L54
 1082              		.loc 2 175 0 is_stmt 0 discriminator 1
 1083 0012 FB78     		ldrb	r3, [r7, #3]	@ zero_extendqisi2
 1084 0014 012B     		cmp	r3, #1
 1085 0016 03D0     		beq	.L54
 1086              		.loc 2 175 0 discriminator 2
 1087 0018 AF21     		movs	r1, #175
 1088 001a 0C48     		ldr	r0, .L58
 1089 001c FFF7FEFF 		bl	Cy_SysLib_AssertFailed
 1090              	.L54:
 176:Generated_Source\PSoC6\pdl\drivers\peripheral\pdm_pcm/cy_pdm_pcm.c **** 
 177:Generated_Source\PSoC6\pdl\drivers\peripheral\pdm_pcm/cy_pdm_pcm.c ****     if (chan == CY_PDM_PCM_CHAN_LEFT)
 1091              		.loc 2 177 0 is_stmt 1
 1092 0020 FB78     		ldrb	r3, [r7, #3]	@ zero_extendqisi2
 1093 0022 002B     		cmp	r3, #0
 1094 0024 06D1     		bne	.L55
 178:Generated_Source\PSoC6\pdl\drivers\peripheral\pdm_pcm/cy_pdm_pcm.c ****     {
 179:Generated_Source\PSoC6\pdl\drivers\peripheral\pdm_pcm/cy_pdm_pcm.c ****         ret = (cy_en_pdm_pcm_gain_t) (_FLD2VAL(PDM_CTL_PGA_L, base->CTL));
 1095              		.loc 2 179 0
 1096 0026 7B68     		ldr	r3, [r7, #4]
 1097 0028 1B68     		ldr	r3, [r3]
 1098 002a 03F47063 		and	r3, r3, #3840
 1099 002e 1B0A     		lsrs	r3, r3, #8
 1100 0030 FB73     		strb	r3, [r7, #15]
 1101 0032 05E0     		b	.L56
 1102              	.L55:
 180:Generated_Source\PSoC6\pdl\drivers\peripheral\pdm_pcm/cy_pdm_pcm.c ****     }
 181:Generated_Source\PSoC6\pdl\drivers\peripheral\pdm_pcm/cy_pdm_pcm.c ****     else
 182:Generated_Source\PSoC6\pdl\drivers\peripheral\pdm_pcm/cy_pdm_pcm.c ****     {
 183:Generated_Source\PSoC6\pdl\drivers\peripheral\pdm_pcm/cy_pdm_pcm.c ****         ret = (cy_en_pdm_pcm_gain_t) (_FLD2VAL(PDM_CTL_PGA_R, base->CTL));
 1103              		.loc 2 183 0
 1104 0034 7B68     		ldr	r3, [r7, #4]
 1105 0036 1B68     		ldr	r3, [r3]
 1106 0038 DBB2     		uxtb	r3, r3
 1107 003a 03F00F03 		and	r3, r3, #15
 1108 003e FB73     		strb	r3, [r7, #15]
 1109              	.L56:
 184:Generated_Source\PSoC6\pdl\drivers\peripheral\pdm_pcm/cy_pdm_pcm.c ****     }
 185:Generated_Source\PSoC6\pdl\drivers\peripheral\pdm_pcm/cy_pdm_pcm.c **** 
 186:Generated_Source\PSoC6\pdl\drivers\peripheral\pdm_pcm/cy_pdm_pcm.c ****     return (ret);
 1110              		.loc 2 186 0
 1111 0040 FB7B     		ldrb	r3, [r7, #15]	@ zero_extendqisi2
ARM GAS  C:\Users\ikomb\AppData\Local\Temp\ccmrmnRc.s 			page 36


 187:Generated_Source\PSoC6\pdl\drivers\peripheral\pdm_pcm/cy_pdm_pcm.c **** }
 1112              		.loc 2 187 0
 1113 0042 1846     		mov	r0, r3
 1114 0044 1037     		adds	r7, r7, #16
 1115              		.cfi_def_cfa_offset 8
 1116 0046 BD46     		mov	sp, r7
 1117              		.cfi_def_cfa_register 13
 1118              		@ sp needed
 1119 0048 80BD     		pop	{r7, pc}
 1120              	.L59:
 1121 004a 00BF     		.align	2
 1122              	.L58:
 1123 004c 44000000 		.word	.LC1
 1124              		.cfi_endproc
 1125              	.LFE178:
 1126              		.size	Cy_PDM_PCM_GetGain, .-Cy_PDM_PCM_GetGain
 1127              		.section	.text.Cy_PDM_PCM_DeepSleepCallback,"ax",%progbits
 1128              		.align	2
 1129              		.global	Cy_PDM_PCM_DeepSleepCallback
 1130              		.thumb
 1131              		.thumb_func
 1132              		.type	Cy_PDM_PCM_DeepSleepCallback, %function
 1133              	Cy_PDM_PCM_DeepSleepCallback:
 1134              	.LFB179:
 188:Generated_Source\PSoC6\pdl\drivers\peripheral\pdm_pcm/cy_pdm_pcm.c **** 
 189:Generated_Source\PSoC6\pdl\drivers\peripheral\pdm_pcm/cy_pdm_pcm.c **** 
 190:Generated_Source\PSoC6\pdl\drivers\peripheral\pdm_pcm/cy_pdm_pcm.c **** /*******************************************************************************
 191:Generated_Source\PSoC6\pdl\drivers\peripheral\pdm_pcm/cy_pdm_pcm.c **** * Function Name: Cy_PDM_PCM_DeepSleepCallback
 192:Generated_Source\PSoC6\pdl\drivers\peripheral\pdm_pcm/cy_pdm_pcm.c **** ****************************************************************************//**
 193:Generated_Source\PSoC6\pdl\drivers\peripheral\pdm_pcm/cy_pdm_pcm.c **** *
 194:Generated_Source\PSoC6\pdl\drivers\peripheral\pdm_pcm/cy_pdm_pcm.c **** * This is an example callback function that can be used at the application layer to
 195:Generated_Source\PSoC6\pdl\drivers\peripheral\pdm_pcm/cy_pdm_pcm.c **** * manage the PDM-PCM operation before entering and after exiting Deep-Sleep mode.
 196:Generated_Source\PSoC6\pdl\drivers\peripheral\pdm_pcm/cy_pdm_pcm.c **** *
 197:Generated_Source\PSoC6\pdl\drivers\peripheral\pdm_pcm/cy_pdm_pcm.c **** * \param callbackParams
 198:Generated_Source\PSoC6\pdl\drivers\peripheral\pdm_pcm/cy_pdm_pcm.c **** * The structure with the syspm callback parameters,
 199:Generated_Source\PSoC6\pdl\drivers\peripheral\pdm_pcm/cy_pdm_pcm.c **** * see \ref cy_stc_syspm_callback_params_t.
 200:Generated_Source\PSoC6\pdl\drivers\peripheral\pdm_pcm/cy_pdm_pcm.c **** *
 201:Generated_Source\PSoC6\pdl\drivers\peripheral\pdm_pcm/cy_pdm_pcm.c **** * \return
 202:Generated_Source\PSoC6\pdl\drivers\peripheral\pdm_pcm/cy_pdm_pcm.c **** * syspm return status, see \ref cy_en_syspm_status_t
 203:Generated_Source\PSoC6\pdl\drivers\peripheral\pdm_pcm/cy_pdm_pcm.c **** *
 204:Generated_Source\PSoC6\pdl\drivers\peripheral\pdm_pcm/cy_pdm_pcm.c **** *******************************************************************************/
 205:Generated_Source\PSoC6\pdl\drivers\peripheral\pdm_pcm/cy_pdm_pcm.c **** cy_en_syspm_status_t Cy_PDM_PCM_DeepSleepCallback(cy_stc_syspm_callback_params_t * callbackParams)
 206:Generated_Source\PSoC6\pdl\drivers\peripheral\pdm_pcm/cy_pdm_pcm.c **** {
 1135              		.loc 2 206 0
 1136              		.cfi_startproc
 1137              		@ args = 0, pretend = 0, frame = 16
 1138              		@ frame_needed = 1, uses_anonymous_args = 0
 1139 0000 80B5     		push	{r7, lr}
 1140              		.cfi_def_cfa_offset 8
 1141              		.cfi_offset 7, -8
 1142              		.cfi_offset 14, -4
 1143 0002 84B0     		sub	sp, sp, #16
 1144              		.cfi_def_cfa_offset 24
 1145 0004 00AF     		add	r7, sp, #0
 1146              		.cfi_def_cfa_register 7
 1147 0006 7860     		str	r0, [r7, #4]
 207:Generated_Source\PSoC6\pdl\drivers\peripheral\pdm_pcm/cy_pdm_pcm.c ****     cy_en_syspm_status_t ret = CY_SYSPM_SUCCESS;
ARM GAS  C:\Users\ikomb\AppData\Local\Temp\ccmrmnRc.s 			page 37


 1148              		.loc 2 207 0
 1149 0008 0023     		movs	r3, #0
 1150 000a FB60     		str	r3, [r7, #12]
 208:Generated_Source\PSoC6\pdl\drivers\peripheral\pdm_pcm/cy_pdm_pcm.c **** 
 209:Generated_Source\PSoC6\pdl\drivers\peripheral\pdm_pcm/cy_pdm_pcm.c ****     switch(callbackParams->mode)
 1151              		.loc 2 209 0
 1152 000c 7B68     		ldr	r3, [r7, #4]
 1153 000e 1B78     		ldrb	r3, [r3]	@ zero_extendqisi2
 1154 0010 013B     		subs	r3, r3, #1
 1155 0012 072B     		cmp	r3, #7
 1156 0014 23D8     		bhi	.L61
 1157 0016 01A2     		adr	r2, .L63
 1158 0018 52F823F0 		ldr	pc, [r2, r3, lsl #2]
 1159              		.p2align 2
 1160              	.L63:
 1161 001c 65000000 		.word	.L68+1
 1162 0020 65000000 		.word	.L68+1
 1163 0024 5F000000 		.word	.L61+1
 1164 0028 3D000000 		.word	.L64+1
 1165 002c 5F000000 		.word	.L61+1
 1166 0030 5F000000 		.word	.L61+1
 1167 0034 5F000000 		.word	.L61+1
 1168 0038 49000000 		.word	.L65+1
 1169              		.p2align 1
 1170              	.L64:
 210:Generated_Source\PSoC6\pdl\drivers\peripheral\pdm_pcm/cy_pdm_pcm.c ****     {
 211:Generated_Source\PSoC6\pdl\drivers\peripheral\pdm_pcm/cy_pdm_pcm.c ****         case CY_SYSPM_CHECK_READY:
 212:Generated_Source\PSoC6\pdl\drivers\peripheral\pdm_pcm/cy_pdm_pcm.c ****         case CY_SYSPM_CHECK_FAIL:
 213:Generated_Source\PSoC6\pdl\drivers\peripheral\pdm_pcm/cy_pdm_pcm.c ****             break;
 214:Generated_Source\PSoC6\pdl\drivers\peripheral\pdm_pcm/cy_pdm_pcm.c **** 
 215:Generated_Source\PSoC6\pdl\drivers\peripheral\pdm_pcm/cy_pdm_pcm.c ****         case CY_SYSPM_BEFORE_TRANSITION:
 216:Generated_Source\PSoC6\pdl\drivers\peripheral\pdm_pcm/cy_pdm_pcm.c ****             Cy_PDM_PCM_Disable((PDM_Type*) callbackParams->base); /* Stop PDM-PCM operation */
 1171              		.loc 2 216 0
 1172 003c 7B68     		ldr	r3, [r7, #4]
 1173 003e 5B68     		ldr	r3, [r3, #4]
 1174 0040 1846     		mov	r0, r3
 1175 0042 FFF7FEFF 		bl	Cy_PDM_PCM_Disable
 217:Generated_Source\PSoC6\pdl\drivers\peripheral\pdm_pcm/cy_pdm_pcm.c ****             /* Unload FIFO to do not lost any data (if needed) */
 218:Generated_Source\PSoC6\pdl\drivers\peripheral\pdm_pcm/cy_pdm_pcm.c ****             break;
 1176              		.loc 2 218 0
 1177 0046 0EE0     		b	.L66
 1178              	.L65:
 219:Generated_Source\PSoC6\pdl\drivers\peripheral\pdm_pcm/cy_pdm_pcm.c **** 
 220:Generated_Source\PSoC6\pdl\drivers\peripheral\pdm_pcm/cy_pdm_pcm.c ****         case CY_SYSPM_AFTER_TRANSITION:
 221:Generated_Source\PSoC6\pdl\drivers\peripheral\pdm_pcm/cy_pdm_pcm.c ****             Cy_PDM_PCM_ClearFifo((PDM_Type*) callbackParams->base); /* Clear FIFO */
 1179              		.loc 2 221 0
 1180 0048 7B68     		ldr	r3, [r7, #4]
 1181 004a 5B68     		ldr	r3, [r3, #4]
 1182 004c 1846     		mov	r0, r3
 1183 004e FFF7FEFF 		bl	Cy_PDM_PCM_ClearFifo
 222:Generated_Source\PSoC6\pdl\drivers\peripheral\pdm_pcm/cy_pdm_pcm.c ****             Cy_PDM_PCM_Enable((PDM_Type*) callbackParams->base); /* Start PDM-PCM operation */
 1184              		.loc 2 222 0
 1185 0052 7B68     		ldr	r3, [r7, #4]
 1186 0054 5B68     		ldr	r3, [r3, #4]
 1187 0056 1846     		mov	r0, r3
 1188 0058 FFF7FEFF 		bl	Cy_PDM_PCM_Enable
 223:Generated_Source\PSoC6\pdl\drivers\peripheral\pdm_pcm/cy_pdm_pcm.c ****             break;
ARM GAS  C:\Users\ikomb\AppData\Local\Temp\ccmrmnRc.s 			page 38


 1189              		.loc 2 223 0
 1190 005c 03E0     		b	.L66
 1191              	.L61:
 224:Generated_Source\PSoC6\pdl\drivers\peripheral\pdm_pcm/cy_pdm_pcm.c **** 
 225:Generated_Source\PSoC6\pdl\drivers\peripheral\pdm_pcm/cy_pdm_pcm.c ****         default:
 226:Generated_Source\PSoC6\pdl\drivers\peripheral\pdm_pcm/cy_pdm_pcm.c ****             ret = CY_SYSPM_FAIL;
 1192              		.loc 2 226 0
 1193 005e 044B     		ldr	r3, .L69
 1194 0060 FB60     		str	r3, [r7, #12]
 227:Generated_Source\PSoC6\pdl\drivers\peripheral\pdm_pcm/cy_pdm_pcm.c ****             break;
 1195              		.loc 2 227 0
 1196 0062 00E0     		b	.L66
 1197              	.L68:
 213:Generated_Source\PSoC6\pdl\drivers\peripheral\pdm_pcm/cy_pdm_pcm.c **** 
 1198              		.loc 2 213 0
 1199 0064 00BF     		nop
 1200              	.L66:
 228:Generated_Source\PSoC6\pdl\drivers\peripheral\pdm_pcm/cy_pdm_pcm.c ****     }
 229:Generated_Source\PSoC6\pdl\drivers\peripheral\pdm_pcm/cy_pdm_pcm.c **** 
 230:Generated_Source\PSoC6\pdl\drivers\peripheral\pdm_pcm/cy_pdm_pcm.c ****     return(ret);
 1201              		.loc 2 230 0
 1202 0066 FB68     		ldr	r3, [r7, #12]
 231:Generated_Source\PSoC6\pdl\drivers\peripheral\pdm_pcm/cy_pdm_pcm.c **** }
 1203              		.loc 2 231 0
 1204 0068 1846     		mov	r0, r3
 1205 006a 1037     		adds	r7, r7, #16
 1206              		.cfi_def_cfa_offset 8
 1207 006c BD46     		mov	sp, r7
 1208              		.cfi_def_cfa_register 13
 1209              		@ sp needed
 1210 006e 80BD     		pop	{r7, pc}
 1211              	.L70:
 1212              		.align	2
 1213              	.L69:
 1214 0070 FF004200 		.word	4325631
 1215              		.cfi_endproc
 1216              	.LFE179:
 1217              		.size	Cy_PDM_PCM_DeepSleepCallback, .-Cy_PDM_PCM_DeepSleepCallback
 1218              		.text
 1219              	.Letext0:
 1220              		.file 3 "c:\\program files (x86)\\cypress\\psoc creator\\4.4\\psoc creator\\import\\gnu\\arm\\5.4.
 1221              		.file 4 "c:\\program files (x86)\\cypress\\psoc creator\\4.4\\psoc creator\\import\\gnu\\arm\\5.4.
 1222              		.file 5 "Generated_Source\\PSoC6\\pdl\\devices/psoc6/ip/cyip_pdm.h"
 1223              		.file 6 "Generated_Source\\PSoC6\\pdl\\drivers/peripheral/syslib/cy_syslib.h"
 1224              		.file 7 "Generated_Source\\PSoC6\\pdl\\drivers/peripheral/syspm/cy_syspm.h"
 1225              		.file 8 "Generated_Source\\PSoC6\\pdl\\cmsis/include/core_cm4.h"
 1226              		.section	.debug_info,"",%progbits
 1227              	.Ldebug_info0:
 1228 0000 AE070000 		.4byte	0x7ae
 1229 0004 0400     		.2byte	0x4
 1230 0006 00000000 		.4byte	.Ldebug_abbrev0
 1231 000a 04       		.byte	0x4
 1232 000b 01       		.uleb128 0x1
 1233 000c 91000000 		.4byte	.LASF135
 1234 0010 0C       		.byte	0xc
 1235 0011 23090000 		.4byte	.LASF136
 1236 0015 69050000 		.4byte	.LASF137
ARM GAS  C:\Users\ikomb\AppData\Local\Temp\ccmrmnRc.s 			page 39


 1237 0019 00000000 		.4byte	.Ldebug_ranges0+0
 1238 001d 00000000 		.4byte	0
 1239 0021 00000000 		.4byte	.Ldebug_line0
 1240 0025 02       		.uleb128 0x2
 1241 0026 02       		.byte	0x2
 1242 0027 05       		.byte	0x5
 1243 0028 33070000 		.4byte	.LASF0
 1244 002c 02       		.uleb128 0x2
 1245 002d 01       		.byte	0x1
 1246 002e 06       		.byte	0x6
 1247 002f 16020000 		.4byte	.LASF1
 1248 0033 03       		.uleb128 0x3
 1249 0034 87000000 		.4byte	.LASF4
 1250 0038 03       		.byte	0x3
 1251 0039 1D       		.byte	0x1d
 1252 003a 3E000000 		.4byte	0x3e
 1253 003e 02       		.uleb128 0x2
 1254 003f 01       		.byte	0x1
 1255 0040 08       		.byte	0x8
 1256 0041 ED060000 		.4byte	.LASF2
 1257 0045 02       		.uleb128 0x2
 1258 0046 02       		.byte	0x2
 1259 0047 07       		.byte	0x7
 1260 0048 57040000 		.4byte	.LASF3
 1261 004c 03       		.uleb128 0x3
 1262 004d 75080000 		.4byte	.LASF5
 1263 0051 03       		.byte	0x3
 1264 0052 3F       		.byte	0x3f
 1265 0053 57000000 		.4byte	0x57
 1266 0057 02       		.uleb128 0x2
 1267 0058 04       		.byte	0x4
 1268 0059 05       		.byte	0x5
 1269 005a 7F020000 		.4byte	.LASF6
 1270 005e 03       		.uleb128 0x3
 1271 005f 1A030000 		.4byte	.LASF7
 1272 0063 03       		.byte	0x3
 1273 0064 41       		.byte	0x41
 1274 0065 69000000 		.4byte	0x69
 1275 0069 02       		.uleb128 0x2
 1276 006a 04       		.byte	0x4
 1277 006b 07       		.byte	0x7
 1278 006c EB030000 		.4byte	.LASF8
 1279 0070 02       		.uleb128 0x2
 1280 0071 08       		.byte	0x8
 1281 0072 05       		.byte	0x5
 1282 0073 08020000 		.4byte	.LASF9
 1283 0077 02       		.uleb128 0x2
 1284 0078 08       		.byte	0x8
 1285 0079 07       		.byte	0x7
 1286 007a A8010000 		.4byte	.LASF10
 1287 007e 04       		.uleb128 0x4
 1288 007f 04       		.byte	0x4
 1289 0080 05       		.byte	0x5
 1290 0081 696E7400 		.ascii	"int\000"
 1291 0085 02       		.uleb128 0x2
 1292 0086 04       		.byte	0x4
 1293 0087 07       		.byte	0x7
ARM GAS  C:\Users\ikomb\AppData\Local\Temp\ccmrmnRc.s 			page 40


 1294 0088 BF010000 		.4byte	.LASF11
 1295 008c 03       		.uleb128 0x3
 1296 008d 7D090000 		.4byte	.LASF12
 1297 0091 04       		.byte	0x4
 1298 0092 18       		.byte	0x18
 1299 0093 33000000 		.4byte	0x33
 1300 0097 03       		.uleb128 0x3
 1301 0098 E5060000 		.4byte	.LASF13
 1302 009c 04       		.byte	0x4
 1303 009d 2C       		.byte	0x2c
 1304 009e 4C000000 		.4byte	0x4c
 1305 00a2 03       		.uleb128 0x3
 1306 00a3 D7070000 		.4byte	.LASF14
 1307 00a7 04       		.byte	0x4
 1308 00a8 30       		.byte	0x30
 1309 00a9 5E000000 		.4byte	0x5e
 1310 00ad 02       		.uleb128 0x2
 1311 00ae 04       		.byte	0x4
 1312 00af 07       		.byte	0x7
 1313 00b0 60050000 		.4byte	.LASF15
 1314 00b4 05       		.uleb128 0x5
 1315 00b5 A2000000 		.4byte	0xa2
 1316 00b9 06       		.uleb128 0x6
 1317 00ba B4000000 		.4byte	0xb4
 1318 00be 07       		.uleb128 0x7
 1319 00bf B9000000 		.4byte	0xb9
 1320 00c3 CE000000 		.4byte	0xce
 1321 00c7 08       		.uleb128 0x8
 1322 00c8 AD000000 		.4byte	0xad
 1323 00cc 06       		.byte	0x6
 1324 00cd 00       		.byte	0
 1325 00ce 07       		.uleb128 0x7
 1326 00cf B9000000 		.4byte	0xb9
 1327 00d3 DE000000 		.4byte	0xde
 1328 00d7 08       		.uleb128 0x8
 1329 00d8 AD000000 		.4byte	0xad
 1330 00dc 02       		.byte	0x2
 1331 00dd 00       		.byte	0
 1332 00de 07       		.uleb128 0x7
 1333 00df B9000000 		.4byte	0xb9
 1334 00e3 EF000000 		.4byte	0xef
 1335 00e7 09       		.uleb128 0x9
 1336 00e8 AD000000 		.4byte	0xad
 1337 00ec FB02     		.2byte	0x2fb
 1338 00ee 00       		.byte	0
 1339 00ef 0A       		.uleb128 0xa
 1340 00f0 100F     		.2byte	0xf10
 1341 00f2 05       		.byte	0x5
 1342 00f3 21       		.byte	0x21
 1343 00f4 E6010000 		.4byte	0x1e6
 1344 00f8 0B       		.uleb128 0xb
 1345 00f9 43544C00 		.ascii	"CTL\000"
 1346 00fd 05       		.byte	0x5
 1347 00fe 22       		.byte	0x22
 1348 00ff B4000000 		.4byte	0xb4
 1349 0103 00       		.byte	0
 1350 0104 0C       		.uleb128 0xc
ARM GAS  C:\Users\ikomb\AppData\Local\Temp\ccmrmnRc.s 			page 41


 1351 0105 60070000 		.4byte	.LASF16
 1352 0109 05       		.byte	0x5
 1353 010a 23       		.byte	0x23
 1354 010b EB010000 		.4byte	0x1eb
 1355 010f 04       		.byte	0x4
 1356 0110 0C       		.uleb128 0xc
 1357 0111 9E010000 		.4byte	.LASF17
 1358 0115 05       		.byte	0x5
 1359 0116 24       		.byte	0x24
 1360 0117 B4000000 		.4byte	0xb4
 1361 011b 10       		.byte	0x10
 1362 011c 0C       		.uleb128 0xc
 1363 011d 3D030000 		.4byte	.LASF18
 1364 0121 05       		.byte	0x5
 1365 0122 25       		.byte	0x25
 1366 0123 B4000000 		.4byte	0xb4
 1367 0127 14       		.byte	0x14
 1368 0128 0C       		.uleb128 0xc
 1369 0129 22020000 		.4byte	.LASF19
 1370 012d 05       		.byte	0x5
 1371 012e 26       		.byte	0x26
 1372 012f B4000000 		.4byte	0xb4
 1373 0133 18       		.byte	0x18
 1374 0134 0C       		.uleb128 0xc
 1375 0135 73060000 		.4byte	.LASF20
 1376 0139 05       		.byte	0x5
 1377 013a 27       		.byte	0x27
 1378 013b B9000000 		.4byte	0xb9
 1379 013f 1C       		.byte	0x1c
 1380 0140 0B       		.uleb128 0xb
 1381 0141 434D4400 		.ascii	"CMD\000"
 1382 0145 05       		.byte	0x5
 1383 0146 28       		.byte	0x28
 1384 0147 B4000000 		.4byte	0xb4
 1385 014b 20       		.byte	0x20
 1386 014c 0C       		.uleb128 0xc
 1387 014d 7D060000 		.4byte	.LASF21
 1388 0151 05       		.byte	0x5
 1389 0152 29       		.byte	0x29
 1390 0153 F5010000 		.4byte	0x1f5
 1391 0157 24       		.byte	0x24
 1392 0158 0C       		.uleb128 0xc
 1393 0159 87030000 		.4byte	.LASF22
 1394 015d 05       		.byte	0x5
 1395 015e 2A       		.byte	0x2a
 1396 015f B4000000 		.4byte	0xb4
 1397 0163 40       		.byte	0x40
 1398 0164 0C       		.uleb128 0xc
 1399 0165 87060000 		.4byte	.LASF23
 1400 0169 05       		.byte	0x5
 1401 016a 2B       		.byte	0x2b
 1402 016b 0F020000 		.4byte	0x20f
 1403 016f 44       		.byte	0x44
 1404 0170 0D       		.uleb128 0xd
 1405 0171 3F080000 		.4byte	.LASF24
 1406 0175 05       		.byte	0x5
 1407 0176 2C       		.byte	0x2c
ARM GAS  C:\Users\ikomb\AppData\Local\Temp\ccmrmnRc.s 			page 42


 1408 0177 B4000000 		.4byte	0xb4
 1409 017b 0003     		.2byte	0x300
 1410 017d 0D       		.uleb128 0xd
 1411 017e 7F080000 		.4byte	.LASF25
 1412 0182 05       		.byte	0x5
 1413 0183 2D       		.byte	0x2d
 1414 0184 B9000000 		.4byte	0xb9
 1415 0188 0403     		.2byte	0x304
 1416 018a 0D       		.uleb128 0xd
 1417 018b 27050000 		.4byte	.LASF26
 1418 018f 05       		.byte	0x5
 1419 0190 2E       		.byte	0x2e
 1420 0191 B9000000 		.4byte	0xb9
 1421 0195 0803     		.2byte	0x308
 1422 0197 0D       		.uleb128 0xd
 1423 0198 FD030000 		.4byte	.LASF27
 1424 019c 05       		.byte	0x5
 1425 019d 2F       		.byte	0x2f
 1426 019e B9000000 		.4byte	0xb9
 1427 01a2 0C03     		.2byte	0x30c
 1428 01a4 0D       		.uleb128 0xd
 1429 01a5 91060000 		.4byte	.LASF28
 1430 01a9 05       		.byte	0x5
 1431 01aa 30       		.byte	0x30
 1432 01ab 19020000 		.4byte	0x219
 1433 01af 1003     		.2byte	0x310
 1434 01b1 0D       		.uleb128 0xd
 1435 01b2 F8050000 		.4byte	.LASF29
 1436 01b6 05       		.byte	0x5
 1437 01b7 31       		.byte	0x31
 1438 01b8 B4000000 		.4byte	0xb4
 1439 01bc 000F     		.2byte	0xf00
 1440 01be 0D       		.uleb128 0xd
 1441 01bf 19050000 		.4byte	.LASF30
 1442 01c3 05       		.byte	0x5
 1443 01c4 32       		.byte	0x32
 1444 01c5 B4000000 		.4byte	0xb4
 1445 01c9 040F     		.2byte	0xf04
 1446 01cb 0D       		.uleb128 0xd
 1447 01cc 98090000 		.4byte	.LASF31
 1448 01d0 05       		.byte	0x5
 1449 01d1 33       		.byte	0x33
 1450 01d2 B4000000 		.4byte	0xb4
 1451 01d6 080F     		.2byte	0xf08
 1452 01d8 0D       		.uleb128 0xd
 1453 01d9 61060000 		.4byte	.LASF32
 1454 01dd 05       		.byte	0x5
 1455 01de 34       		.byte	0x34
 1456 01df B9000000 		.4byte	0xb9
 1457 01e3 0C0F     		.2byte	0xf0c
 1458 01e5 00       		.byte	0
 1459 01e6 05       		.uleb128 0x5
 1460 01e7 CE000000 		.4byte	0xce
 1461 01eb 06       		.uleb128 0x6
 1462 01ec E6010000 		.4byte	0x1e6
 1463 01f0 05       		.uleb128 0x5
 1464 01f1 BE000000 		.4byte	0xbe
ARM GAS  C:\Users\ikomb\AppData\Local\Temp\ccmrmnRc.s 			page 43


 1465 01f5 06       		.uleb128 0x6
 1466 01f6 F0010000 		.4byte	0x1f0
 1467 01fa 07       		.uleb128 0x7
 1468 01fb B9000000 		.4byte	0xb9
 1469 01ff 0A020000 		.4byte	0x20a
 1470 0203 08       		.uleb128 0x8
 1471 0204 AD000000 		.4byte	0xad
 1472 0208 AE       		.byte	0xae
 1473 0209 00       		.byte	0
 1474 020a 05       		.uleb128 0x5
 1475 020b FA010000 		.4byte	0x1fa
 1476 020f 06       		.uleb128 0x6
 1477 0210 0A020000 		.4byte	0x20a
 1478 0214 05       		.uleb128 0x5
 1479 0215 DE000000 		.4byte	0xde
 1480 0219 06       		.uleb128 0x6
 1481 021a 14020000 		.4byte	0x214
 1482 021e 03       		.uleb128 0x3
 1483 021f 180A0000 		.4byte	.LASF33
 1484 0223 05       		.byte	0x5
 1485 0224 35       		.byte	0x35
 1486 0225 EF000000 		.4byte	0xef
 1487 0229 0E       		.uleb128 0xe
 1488 022a BA030000 		.4byte	.LASF34
 1489 022e 06       		.byte	0x6
 1490 022f C401     		.2byte	0x1c4
 1491 0231 35020000 		.4byte	0x235
 1492 0235 02       		.uleb128 0x2
 1493 0236 01       		.byte	0x1
 1494 0237 08       		.byte	0x8
 1495 0238 35080000 		.4byte	.LASF35
 1496 023c 02       		.uleb128 0x2
 1497 023d 04       		.byte	0x4
 1498 023e 04       		.byte	0x4
 1499 023f 6D060000 		.4byte	.LASF36
 1500 0243 02       		.uleb128 0x2
 1501 0244 08       		.byte	0x8
 1502 0245 04       		.byte	0x4
 1503 0246 A8020000 		.4byte	.LASF37
 1504 024a 02       		.uleb128 0x2
 1505 024b 08       		.byte	0x8
 1506 024c 04       		.byte	0x4
 1507 024d 29080000 		.4byte	.LASF38
 1508 0251 0F       		.uleb128 0xf
 1509 0252 04       		.byte	0x4
 1510 0253 85000000 		.4byte	0x85
 1511 0257 07       		.byte	0x7
 1512 0258 9703     		.2byte	0x397
 1513 025a 89020000 		.4byte	0x289
 1514 025e 10       		.uleb128 0x10
 1515 025f A2090000 		.4byte	.LASF39
 1516 0263 00       		.byte	0
 1517 0264 11       		.uleb128 0x11
 1518 0265 39000000 		.4byte	.LASF40
 1519 0269 01004200 		.4byte	0x420001
 1520 026d 11       		.uleb128 0x11
 1521 026e 28000000 		.4byte	.LASF41
ARM GAS  C:\Users\ikomb\AppData\Local\Temp\ccmrmnRc.s 			page 44


 1522 0272 02004200 		.4byte	0x420002
 1523 0276 11       		.uleb128 0x11
 1524 0277 70030000 		.4byte	.LASF42
 1525 027b 03004200 		.4byte	0x420003
 1526 027f 11       		.uleb128 0x11
 1527 0280 C9080000 		.4byte	.LASF43
 1528 0284 FF004200 		.4byte	0x4200ff
 1529 0288 00       		.byte	0
 1530 0289 0E       		.uleb128 0xe
 1531 028a 030A0000 		.4byte	.LASF44
 1532 028e 07       		.byte	0x7
 1533 028f 9E03     		.2byte	0x39e
 1534 0291 51020000 		.4byte	0x251
 1535 0295 0F       		.uleb128 0xf
 1536 0296 01       		.byte	0x1
 1537 0297 3E000000 		.4byte	0x3e
 1538 029b 07       		.byte	0x7
 1539 029c 3704     		.2byte	0x437
 1540 029e BB020000 		.4byte	0x2bb
 1541 02a2 10       		.uleb128 0x10
 1542 02a3 B3090000 		.4byte	.LASF45
 1543 02a7 01       		.byte	0x1
 1544 02a8 10       		.uleb128 0x10
 1545 02a9 8E080000 		.4byte	.LASF46
 1546 02ad 02       		.byte	0x2
 1547 02ae 10       		.uleb128 0x10
 1548 02af FD050000 		.4byte	.LASF47
 1549 02b3 04       		.byte	0x4
 1550 02b4 10       		.uleb128 0x10
 1551 02b5 E7040000 		.4byte	.LASF48
 1552 02b9 08       		.byte	0x8
 1553 02ba 00       		.byte	0
 1554 02bb 0E       		.uleb128 0xe
 1555 02bc 45060000 		.4byte	.LASF49
 1556 02c0 07       		.byte	0x7
 1557 02c1 4104     		.2byte	0x441
 1558 02c3 95020000 		.4byte	0x295
 1559 02c7 12       		.uleb128 0x12
 1560 02c8 0C       		.byte	0xc
 1561 02c9 07       		.byte	0x7
 1562 02ca 5D04     		.2byte	0x45d
 1563 02cc F8020000 		.4byte	0x2f8
 1564 02d0 13       		.uleb128 0x13
 1565 02d1 3A080000 		.4byte	.LASF50
 1566 02d5 07       		.byte	0x7
 1567 02d6 5F04     		.2byte	0x45f
 1568 02d8 BB020000 		.4byte	0x2bb
 1569 02dc 00       		.byte	0
 1570 02dd 13       		.uleb128 0x13
 1571 02de 22050000 		.4byte	.LASF51
 1572 02e2 07       		.byte	0x7
 1573 02e3 6304     		.2byte	0x463
 1574 02e5 F8020000 		.4byte	0x2f8
 1575 02e9 04       		.byte	0x4
 1576 02ea 13       		.uleb128 0x13
 1577 02eb A2080000 		.4byte	.LASF52
 1578 02ef 07       		.byte	0x7
ARM GAS  C:\Users\ikomb\AppData\Local\Temp\ccmrmnRc.s 			page 45


 1579 02f0 6504     		.2byte	0x465
 1580 02f2 F8020000 		.4byte	0x2f8
 1581 02f6 08       		.byte	0x8
 1582 02f7 00       		.byte	0
 1583 02f8 14       		.uleb128 0x14
 1584 02f9 04       		.byte	0x4
 1585 02fa 0E       		.uleb128 0xe
 1586 02fb C4020000 		.4byte	.LASF53
 1587 02ff 07       		.byte	0x7
 1588 0300 6804     		.2byte	0x468
 1589 0302 C7020000 		.4byte	0x2c7
 1590 0306 15       		.uleb128 0x15
 1591 0307 04       		.byte	0x4
 1592 0308 FA020000 		.4byte	0x2fa
 1593 030c 16       		.uleb128 0x16
 1594 030d 01       		.byte	0x1
 1595 030e 3E000000 		.4byte	0x3e
 1596 0312 01       		.byte	0x1
 1597 0313 E1       		.byte	0xe1
 1598 0314 31030000 		.4byte	0x331
 1599 0318 10       		.uleb128 0x10
 1600 0319 9B060000 		.4byte	.LASF54
 1601 031d 00       		.byte	0
 1602 031e 10       		.uleb128 0x10
 1603 031f D7080000 		.4byte	.LASF55
 1604 0323 01       		.byte	0x1
 1605 0324 10       		.uleb128 0x10
 1606 0325 03030000 		.4byte	.LASF56
 1607 0329 02       		.byte	0x2
 1608 032a 10       		.uleb128 0x10
 1609 032b 5E080000 		.4byte	.LASF57
 1610 032f 03       		.byte	0x3
 1611 0330 00       		.byte	0
 1612 0331 03       		.uleb128 0x3
 1613 0332 3D070000 		.4byte	.LASF58
 1614 0336 01       		.byte	0x1
 1615 0337 E6       		.byte	0xe6
 1616 0338 0C030000 		.4byte	0x30c
 1617 033c 16       		.uleb128 0x16
 1618 033d 01       		.byte	0x1
 1619 033e 3E000000 		.4byte	0x3e
 1620 0342 01       		.byte	0x1
 1621 0343 EA       		.byte	0xea
 1622 0344 61030000 		.4byte	0x361
 1623 0348 10       		.uleb128 0x10
 1624 0349 77070000 		.4byte	.LASF59
 1625 034d 00       		.byte	0
 1626 034e 10       		.uleb128 0x10
 1627 034f 44010000 		.4byte	.LASF60
 1628 0353 01       		.byte	0x1
 1629 0354 10       		.uleb128 0x10
 1630 0355 5B010000 		.4byte	.LASF61
 1631 0359 02       		.byte	0x2
 1632 035a 10       		.uleb128 0x10
 1633 035b 72010000 		.4byte	.LASF62
 1634 035f 03       		.byte	0x3
 1635 0360 00       		.byte	0
ARM GAS  C:\Users\ikomb\AppData\Local\Temp\ccmrmnRc.s 			page 46


 1636 0361 03       		.uleb128 0x3
 1637 0362 01050000 		.4byte	.LASF63
 1638 0366 01       		.byte	0x1
 1639 0367 EF       		.byte	0xef
 1640 0368 3C030000 		.4byte	0x33c
 1641 036c 16       		.uleb128 0x16
 1642 036d 01       		.byte	0x1
 1643 036e 3E000000 		.4byte	0x3e
 1644 0372 01       		.byte	0x1
 1645 0373 F3       		.byte	0xf3
 1646 0374 8B030000 		.4byte	0x38b
 1647 0378 10       		.uleb128 0x10
 1648 0379 0F040000 		.4byte	.LASF64
 1649 037d 01       		.byte	0x1
 1650 037e 10       		.uleb128 0x10
 1651 037f 6A040000 		.4byte	.LASF65
 1652 0383 02       		.byte	0x2
 1653 0384 10       		.uleb128 0x10
 1654 0385 18060000 		.4byte	.LASF66
 1655 0389 03       		.byte	0x3
 1656 038a 00       		.byte	0
 1657 038b 03       		.uleb128 0x3
 1658 038c 3A020000 		.4byte	.LASF67
 1659 0390 01       		.byte	0x1
 1660 0391 F7       		.byte	0xf7
 1661 0392 6C030000 		.4byte	0x36c
 1662 0396 16       		.uleb128 0x16
 1663 0397 01       		.byte	0x1
 1664 0398 3E000000 		.4byte	0x3e
 1665 039c 01       		.byte	0x1
 1666 039d FB       		.byte	0xfb
 1667 039e AF030000 		.4byte	0x3af
 1668 03a2 10       		.uleb128 0x10
 1669 03a3 32050000 		.4byte	.LASF68
 1670 03a7 00       		.byte	0
 1671 03a8 10       		.uleb128 0x10
 1672 03a9 8E030000 		.4byte	.LASF69
 1673 03ad 01       		.byte	0x1
 1674 03ae 00       		.byte	0
 1675 03af 03       		.uleb128 0x3
 1676 03b0 540A0000 		.4byte	.LASF70
 1677 03b4 01       		.byte	0x1
 1678 03b5 FE       		.byte	0xfe
 1679 03b6 96030000 		.4byte	0x396
 1680 03ba 0F       		.uleb128 0xf
 1681 03bb 01       		.byte	0x1
 1682 03bc 3E000000 		.4byte	0x3e
 1683 03c0 01       		.byte	0x1
 1684 03c1 0201     		.2byte	0x102
 1685 03c3 28040000 		.4byte	0x428
 1686 03c7 10       		.uleb128 0x10
 1687 03c8 B3080000 		.4byte	.LASF71
 1688 03cc 00       		.byte	0
 1689 03cd 10       		.uleb128 0x10
 1690 03ce 25030000 		.4byte	.LASF72
 1691 03d2 01       		.byte	0x1
 1692 03d3 10       		.uleb128 0x10
ARM GAS  C:\Users\ikomb\AppData\Local\Temp\ccmrmnRc.s 			page 47


 1693 03d4 C1030000 		.4byte	.LASF73
 1694 03d8 02       		.byte	0x2
 1695 03d9 10       		.uleb128 0x10
 1696 03da AE070000 		.4byte	.LASF74
 1697 03de 03       		.byte	0x3
 1698 03df 10       		.uleb128 0x10
 1699 03e0 CA060000 		.4byte	.LASF75
 1700 03e4 04       		.byte	0x4
 1701 03e5 10       		.uleb128 0x10
 1702 03e6 5E000000 		.4byte	.LASF76
 1703 03ea 05       		.byte	0x5
 1704 03eb 10       		.uleb128 0x10
 1705 03ec 00000000 		.4byte	.LASF77
 1706 03f0 06       		.byte	0x6
 1707 03f1 10       		.uleb128 0x10
 1708 03f2 39040000 		.4byte	.LASF78
 1709 03f6 07       		.byte	0x7
 1710 03f7 10       		.uleb128 0x10
 1711 03f8 4C000000 		.4byte	.LASF79
 1712 03fc 08       		.byte	0x8
 1713 03fd 10       		.uleb128 0x10
 1714 03fe 2E060000 		.4byte	.LASF80
 1715 0402 09       		.byte	0x9
 1716 0403 10       		.uleb128 0x10
 1717 0404 89010000 		.4byte	.LASF81
 1718 0408 0A       		.byte	0xa
 1719 0409 10       		.uleb128 0x10
 1720 040a 91020000 		.4byte	.LASF82
 1721 040e 0B       		.byte	0xb
 1722 040f 10       		.uleb128 0x10
 1723 0410 F4070000 		.4byte	.LASF83
 1724 0414 0C       		.byte	0xc
 1725 0415 10       		.uleb128 0x10
 1726 0416 66090000 		.4byte	.LASF84
 1727 041a 0D       		.byte	0xd
 1728 041b 10       		.uleb128 0x10
 1729 041c B0040000 		.4byte	.LASF85
 1730 0420 0E       		.byte	0xe
 1731 0421 10       		.uleb128 0x10
 1732 0422 D9010000 		.4byte	.LASF86
 1733 0426 0F       		.byte	0xf
 1734 0427 00       		.byte	0
 1735 0428 0E       		.uleb128 0xe
 1736 0429 99070000 		.4byte	.LASF87
 1737 042d 01       		.byte	0x1
 1738 042e 1301     		.2byte	0x113
 1739 0430 BA030000 		.4byte	0x3ba
 1740 0434 0F       		.uleb128 0xf
 1741 0435 01       		.byte	0x1
 1742 0436 3E000000 		.4byte	0x3e
 1743 043a 01       		.byte	0x1
 1744 043b 1901     		.2byte	0x119
 1745 043d 72040000 		.4byte	0x472
 1746 0441 10       		.uleb128 0x10
 1747 0442 D9050000 		.4byte	.LASF88
 1748 0446 00       		.byte	0
 1749 0447 10       		.uleb128 0x10
ARM GAS  C:\Users\ikomb\AppData\Local\Temp\ccmrmnRc.s 			page 48


 1750 0448 C8090000 		.4byte	.LASF89
 1751 044c 01       		.byte	0x1
 1752 044d 10       		.uleb128 0x10
 1753 044e 09080000 		.4byte	.LASF90
 1754 0452 02       		.byte	0x2
 1755 0453 10       		.uleb128 0x10
 1756 0454 E3020000 		.4byte	.LASF91
 1757 0458 03       		.byte	0x3
 1758 0459 10       		.uleb128 0x10
 1759 045a 13070000 		.4byte	.LASF92
 1760 045e 04       		.byte	0x4
 1761 045f 10       		.uleb128 0x10
 1762 0460 210A0000 		.4byte	.LASF93
 1763 0464 05       		.byte	0x5
 1764 0465 10       		.uleb128 0x10
 1765 0466 4E020000 		.4byte	.LASF94
 1766 046a 06       		.byte	0x6
 1767 046b 10       		.uleb128 0x10
 1768 046c 03090000 		.4byte	.LASF95
 1769 0470 07       		.byte	0x7
 1770 0471 00       		.byte	0
 1771 0472 0E       		.uleb128 0xe
 1772 0473 47050000 		.4byte	.LASF96
 1773 0477 01       		.byte	0x1
 1774 0478 2201     		.2byte	0x122
 1775 047a 34040000 		.4byte	0x434
 1776 047e 0F       		.uleb128 0xf
 1777 047f 04       		.byte	0x4
 1778 0480 85000000 		.4byte	0x85
 1779 0484 01       		.byte	0x1
 1780 0485 2601     		.2byte	0x126
 1781 0487 9B040000 		.4byte	0x49b
 1782 048b 10       		.uleb128 0x10
 1783 048c 56030000 		.4byte	.LASF97
 1784 0490 00       		.byte	0
 1785 0491 11       		.uleb128 0x11
 1786 0492 D6030000 		.4byte	.LASF98
 1787 0496 01009A00 		.4byte	0x9a0001
 1788 049a 00       		.byte	0
 1789 049b 0E       		.uleb128 0xe
 1790 049c F1010000 		.4byte	.LASF99
 1791 04a0 01       		.byte	0x1
 1792 04a1 2901     		.2byte	0x129
 1793 04a3 7E040000 		.4byte	0x47e
 1794 04a7 12       		.uleb128 0x12
 1795 04a8 1C       		.byte	0x1c
 1796 04a9 01       		.byte	0x1
 1797 04aa 3801     		.2byte	0x138
 1798 04ac A8050000 		.4byte	0x5a8
 1799 04b0 13       		.uleb128 0x13
 1800 04b1 50040000 		.4byte	.LASF100
 1801 04b5 01       		.byte	0x1
 1802 04b6 3A01     		.2byte	0x13a
 1803 04b8 61030000 		.4byte	0x361
 1804 04bc 00       		.byte	0
 1805 04bd 13       		.uleb128 0x13
 1806 04be A4030000 		.4byte	.LASF101
ARM GAS  C:\Users\ikomb\AppData\Local\Temp\ccmrmnRc.s 			page 49


 1807 04c2 01       		.byte	0x1
 1808 04c3 3E01     		.2byte	0x13e
 1809 04c5 61030000 		.4byte	0x361
 1810 04c9 01       		.byte	0x1
 1811 04ca 13       		.uleb128 0x13
 1812 04cb 69030000 		.4byte	.LASF102
 1813 04cf 01       		.byte	0x1
 1814 04d0 3F01     		.2byte	0x13f
 1815 04d2 8C000000 		.4byte	0x8c
 1816 04d6 02       		.byte	0x2
 1817 04d7 13       		.uleb128 0x13
 1818 04d8 AA080000 		.4byte	.LASF103
 1819 04dc 01       		.byte	0x1
 1820 04dd 4201     		.2byte	0x142
 1821 04df 8C000000 		.4byte	0x8c
 1822 04e3 03       		.byte	0x3
 1823 04e4 13       		.uleb128 0x13
 1824 04e5 52080000 		.4byte	.LASF104
 1825 04e9 01       		.byte	0x1
 1826 04ea 4B01     		.2byte	0x14b
 1827 04ec 8C000000 		.4byte	0x8c
 1828 04f0 04       		.byte	0x4
 1829 04f1 13       		.uleb128 0x13
 1830 04f2 AF020000 		.4byte	.LASF105
 1831 04f6 01       		.byte	0x1
 1832 04f7 4D01     		.2byte	0x14d
 1833 04f9 8B030000 		.4byte	0x38b
 1834 04fd 05       		.byte	0x5
 1835 04fe 13       		.uleb128 0x13
 1836 04ff E5070000 		.4byte	.LASF106
 1837 0503 01       		.byte	0x1
 1838 0504 4E01     		.2byte	0x14e
 1839 0506 A8050000 		.4byte	0x5a8
 1840 050a 06       		.byte	0x6
 1841 050b 13       		.uleb128 0x13
 1842 050c B2060000 		.4byte	.LASF107
 1843 0510 01       		.byte	0x1
 1844 0511 4F01     		.2byte	0x14f
 1845 0513 8C000000 		.4byte	0x8c
 1846 0517 07       		.byte	0x7
 1847 0518 13       		.uleb128 0x13
 1848 0519 46030000 		.4byte	.LASF108
 1849 051d 01       		.byte	0x1
 1850 051e 5101     		.2byte	0x151
 1851 0520 A8050000 		.4byte	0x5a8
 1852 0524 08       		.byte	0x8
 1853 0525 13       		.uleb128 0x13
 1854 0526 2B020000 		.4byte	.LASF109
 1855 052a 01       		.byte	0x1
 1856 052b 5201     		.2byte	0x152
 1857 052d 72040000 		.4byte	0x472
 1858 0531 09       		.byte	0x9
 1859 0532 13       		.uleb128 0x13
 1860 0533 6E020000 		.4byte	.LASF110
 1861 0537 01       		.byte	0x1
 1862 0538 5401     		.2byte	0x154
 1863 053a A2000000 		.4byte	0xa2
ARM GAS  C:\Users\ikomb\AppData\Local\Temp\ccmrmnRc.s 			page 50


 1864 053e 0C       		.byte	0xc
 1865 053f 13       		.uleb128 0x13
 1866 0540 A1040000 		.4byte	.LASF111
 1867 0544 01       		.byte	0x1
 1868 0545 5501     		.2byte	0x155
 1869 0547 A8050000 		.4byte	0x5a8
 1870 054b 10       		.byte	0x10
 1871 054c 13       		.uleb128 0x13
 1872 054d 91070000 		.4byte	.LASF112
 1873 0551 01       		.byte	0x1
 1874 0552 5601     		.2byte	0x156
 1875 0554 31030000 		.4byte	0x331
 1876 0558 11       		.byte	0x11
 1877 0559 13       		.uleb128 0x13
 1878 055a AC030000 		.4byte	.LASF113
 1879 055e 01       		.byte	0x1
 1880 055f 5701     		.2byte	0x157
 1881 0561 A8050000 		.4byte	0x5a8
 1882 0565 12       		.byte	0x12
 1883 0566 13       		.uleb128 0x13
 1884 0567 88020000 		.4byte	.LASF114
 1885 056b 01       		.byte	0x1
 1886 056c 5A01     		.2byte	0x15a
 1887 056e 28040000 		.4byte	0x428
 1888 0572 13       		.byte	0x13
 1889 0573 13       		.uleb128 0x13
 1890 0574 56070000 		.4byte	.LASF115
 1891 0578 01       		.byte	0x1
 1892 0579 5B01     		.2byte	0x15b
 1893 057b 28040000 		.4byte	0x428
 1894 057f 14       		.byte	0x14
 1895 0580 13       		.uleb128 0x13
 1896 0581 15000000 		.4byte	.LASF116
 1897 0585 01       		.byte	0x1
 1898 0586 5C01     		.2byte	0x15c
 1899 0588 8C000000 		.4byte	0x8c
 1900 058c 15       		.byte	0x15
 1901 058d 13       		.uleb128 0x13
 1902 058e 28040000 		.4byte	.LASF117
 1903 0592 01       		.byte	0x1
 1904 0593 5E01     		.2byte	0x15e
 1905 0595 A8050000 		.4byte	0x5a8
 1906 0599 16       		.byte	0x16
 1907 059a 13       		.uleb128 0x13
 1908 059b 69070000 		.4byte	.LASF118
 1909 059f 01       		.byte	0x1
 1910 05a0 5F01     		.2byte	0x15f
 1911 05a2 A2000000 		.4byte	0xa2
 1912 05a6 18       		.byte	0x18
 1913 05a7 00       		.byte	0
 1914 05a8 02       		.uleb128 0x2
 1915 05a9 01       		.byte	0x1
 1916 05aa 02       		.byte	0x2
 1917 05ab DF060000 		.4byte	.LASF119
 1918 05af 0E       		.uleb128 0xe
 1919 05b0 FB060000 		.4byte	.LASF120
 1920 05b4 01       		.byte	0x1
ARM GAS  C:\Users\ikomb\AppData\Local\Temp\ccmrmnRc.s 			page 51


 1921 05b5 6001     		.2byte	0x160
 1922 05b7 A7040000 		.4byte	0x4a7
 1923 05bb 17       		.uleb128 0x17
 1924 05bc C5070000 		.4byte	.LASF121
 1925 05c0 01       		.byte	0x1
 1926 05c1 F201     		.2byte	0x1f2
 1927 05c3 00000000 		.4byte	.LFB158
 1928 05c7 20000000 		.4byte	.LFE158-.LFB158
 1929 05cb 01       		.uleb128 0x1
 1930 05cc 9C       		.byte	0x9c
 1931 05cd E1050000 		.4byte	0x5e1
 1932 05d1 18       		.uleb128 0x18
 1933 05d2 22050000 		.4byte	.LASF51
 1934 05d6 01       		.byte	0x1
 1935 05d7 F201     		.2byte	0x1f2
 1936 05d9 E1050000 		.4byte	0x5e1
 1937 05dd 02       		.uleb128 0x2
 1938 05de 91       		.byte	0x91
 1939 05df 74       		.sleb128 -12
 1940 05e0 00       		.byte	0
 1941 05e1 15       		.uleb128 0x15
 1942 05e2 04       		.byte	0x4
 1943 05e3 1E020000 		.4byte	0x21e
 1944 05e7 17       		.uleb128 0x17
 1945 05e8 85090000 		.4byte	.LASF122
 1946 05ec 01       		.byte	0x1
 1947 05ed 0002     		.2byte	0x200
 1948 05ef 00000000 		.4byte	.LFB159
 1949 05f3 20000000 		.4byte	.LFE159-.LFB159
 1950 05f7 01       		.uleb128 0x1
 1951 05f8 9C       		.byte	0x9c
 1952 05f9 0D060000 		.4byte	0x60d
 1953 05fd 18       		.uleb128 0x18
 1954 05fe 22050000 		.4byte	.LASF51
 1955 0602 01       		.byte	0x1
 1956 0603 0002     		.2byte	0x200
 1957 0605 E1050000 		.4byte	0x5e1
 1958 0609 02       		.uleb128 0x2
 1959 060a 91       		.byte	0x91
 1960 060b 74       		.sleb128 -12
 1961 060c 00       		.byte	0
 1962 060d 19       		.uleb128 0x19
 1963 060e E7090000 		.4byte	.LASF123
 1964 0612 01       		.byte	0x1
 1965 0613 2002     		.2byte	0x220
 1966 0615 00000000 		.4byte	.LFB161
 1967 0619 34000000 		.4byte	.LFE161-.LFB161
 1968 061d 01       		.uleb128 0x1
 1969 061e 9C       		.byte	0x9c
 1970 061f 42060000 		.4byte	0x642
 1971 0623 18       		.uleb128 0x18
 1972 0624 22050000 		.4byte	.LASF51
 1973 0628 01       		.byte	0x1
 1974 0629 2002     		.2byte	0x220
 1975 062b E1050000 		.4byte	0x5e1
 1976 062f 02       		.uleb128 0x2
 1977 0630 91       		.byte	0x91
ARM GAS  C:\Users\ikomb\AppData\Local\Temp\ccmrmnRc.s 			page 52


 1978 0631 74       		.sleb128 -12
 1979 0632 18       		.uleb128 0x18
 1980 0633 BA020000 		.4byte	.LASF124
 1981 0637 01       		.byte	0x1
 1982 0638 2002     		.2byte	0x220
 1983 063a A2000000 		.4byte	0xa2
 1984 063e 02       		.uleb128 0x2
 1985 063f 91       		.byte	0x91
 1986 0640 70       		.sleb128 -16
 1987 0641 00       		.byte	0
 1988 0642 17       		.uleb128 0x17
 1989 0643 EE080000 		.4byte	.LASF125
 1990 0647 01       		.byte	0x1
 1991 0648 9602     		.2byte	0x296
 1992 064a 00000000 		.4byte	.LFB168
 1993 064e 34000000 		.4byte	.LFE168-.LFB168
 1994 0652 01       		.uleb128 0x1
 1995 0653 9C       		.byte	0x9c
 1996 0654 68060000 		.4byte	0x668
 1997 0658 18       		.uleb128 0x18
 1998 0659 22050000 		.4byte	.LASF51
 1999 065d 01       		.byte	0x1
 2000 065e 9602     		.2byte	0x296
 2001 0660 E1050000 		.4byte	0x5e1
 2002 0664 02       		.uleb128 0x2
 2003 0665 91       		.byte	0x91
 2004 0666 74       		.sleb128 -12
 2005 0667 00       		.byte	0
 2006 0668 1A       		.uleb128 0x1a
 2007 0669 C9050000 		.4byte	.LASF131
 2008 066d 02       		.byte	0x2
 2009 066e 2D       		.byte	0x2d
 2010 066f 9B040000 		.4byte	0x49b
 2011 0673 00000000 		.4byte	.LFB175
 2012 0677 B8030000 		.4byte	.LFE175-.LFB175
 2013 067b 01       		.uleb128 0x1
 2014 067c 9C       		.byte	0x9c
 2015 067d AC060000 		.4byte	0x6ac
 2016 0681 1B       		.uleb128 0x1b
 2017 0682 22050000 		.4byte	.LASF51
 2018 0686 02       		.byte	0x2
 2019 0687 2D       		.byte	0x2d
 2020 0688 E1050000 		.4byte	0x5e1
 2021 068c 02       		.uleb128 0x2
 2022 068d 91       		.byte	0x91
 2023 068e 6C       		.sleb128 -20
 2024 068f 1B       		.uleb128 0x1b
 2025 0690 4B080000 		.4byte	.LASF126
 2026 0694 02       		.byte	0x2
 2027 0695 2D       		.byte	0x2d
 2028 0696 AC060000 		.4byte	0x6ac
 2029 069a 02       		.uleb128 0x2
 2030 069b 91       		.byte	0x91
 2031 069c 68       		.sleb128 -24
 2032 069d 1C       		.uleb128 0x1c
 2033 069e 72657400 		.ascii	"ret\000"
 2034 06a2 02       		.byte	0x2
ARM GAS  C:\Users\ikomb\AppData\Local\Temp\ccmrmnRc.s 			page 53


 2035 06a3 2F       		.byte	0x2f
 2036 06a4 9B040000 		.4byte	0x49b
 2037 06a8 02       		.uleb128 0x2
 2038 06a9 91       		.byte	0x91
 2039 06aa 74       		.sleb128 -12
 2040 06ab 00       		.byte	0
 2041 06ac 15       		.uleb128 0x15
 2042 06ad 04       		.byte	0x4
 2043 06ae B2060000 		.4byte	0x6b2
 2044 06b2 06       		.uleb128 0x6
 2045 06b3 AF050000 		.4byte	0x5af
 2046 06b7 1D       		.uleb128 0x1d
 2047 06b8 75000000 		.4byte	.LASF127
 2048 06bc 02       		.byte	0x2
 2049 06bd 70       		.byte	0x70
 2050 06be 00000000 		.4byte	.LFB176
 2051 06c2 54000000 		.4byte	.LFE176-.LFB176
 2052 06c6 01       		.uleb128 0x1
 2053 06c7 9C       		.byte	0x9c
 2054 06c8 DB060000 		.4byte	0x6db
 2055 06cc 1B       		.uleb128 0x1b
 2056 06cd 22050000 		.4byte	.LASF51
 2057 06d1 02       		.byte	0x2
 2058 06d2 70       		.byte	0x70
 2059 06d3 E1050000 		.4byte	0x5e1
 2060 06d7 02       		.uleb128 0x2
 2061 06d8 91       		.byte	0x91
 2062 06d9 74       		.sleb128 -12
 2063 06da 00       		.byte	0
 2064 06db 1E       		.uleb128 0x1e
 2065 06dc C5040000 		.4byte	.LASF128
 2066 06e0 02       		.byte	0x2
 2067 06e1 8C       		.byte	0x8c
 2068 06e2 00000000 		.4byte	.LFB177
 2069 06e6 CC000000 		.4byte	.LFE177-.LFB177
 2070 06ea 01       		.uleb128 0x1
 2071 06eb 9C       		.byte	0x9c
 2072 06ec 1B070000 		.4byte	0x71b
 2073 06f0 1B       		.uleb128 0x1b
 2074 06f1 22050000 		.4byte	.LASF51
 2075 06f5 02       		.byte	0x2
 2076 06f6 8C       		.byte	0x8c
 2077 06f7 E1050000 		.4byte	0x5e1
 2078 06fb 02       		.uleb128 0x2
 2079 06fc 91       		.byte	0x91
 2080 06fd 74       		.sleb128 -12
 2081 06fe 1B       		.uleb128 0x1b
 2082 06ff E0070000 		.4byte	.LASF129
 2083 0703 02       		.byte	0x2
 2084 0704 8C       		.byte	0x8c
 2085 0705 AF030000 		.4byte	0x3af
 2086 0709 02       		.uleb128 0x2
 2087 070a 91       		.byte	0x91
 2088 070b 73       		.sleb128 -13
 2089 070c 1B       		.uleb128 0x1b
 2090 070d C5060000 		.4byte	.LASF130
 2091 0711 02       		.byte	0x2
ARM GAS  C:\Users\ikomb\AppData\Local\Temp\ccmrmnRc.s 			page 54


 2092 0712 8C       		.byte	0x8c
 2093 0713 28040000 		.4byte	0x428
 2094 0717 02       		.uleb128 0x2
 2095 0718 91       		.byte	0x91
 2096 0719 72       		.sleb128 -14
 2097 071a 00       		.byte	0
 2098 071b 1A       		.uleb128 0x1a
 2099 071c 410A0000 		.4byte	.LASF132
 2100 0720 02       		.byte	0x2
 2101 0721 AB       		.byte	0xab
 2102 0722 28040000 		.4byte	0x428
 2103 0726 00000000 		.4byte	.LFB178
 2104 072a 50000000 		.4byte	.LFE178-.LFB178
 2105 072e 01       		.uleb128 0x1
 2106 072f 9C       		.byte	0x9c
 2107 0730 5F070000 		.4byte	0x75f
 2108 0734 1B       		.uleb128 0x1b
 2109 0735 22050000 		.4byte	.LASF51
 2110 0739 02       		.byte	0x2
 2111 073a AB       		.byte	0xab
 2112 073b 5F070000 		.4byte	0x75f
 2113 073f 02       		.uleb128 0x2
 2114 0740 91       		.byte	0x91
 2115 0741 6C       		.sleb128 -20
 2116 0742 1B       		.uleb128 0x1b
 2117 0743 E0070000 		.4byte	.LASF129
 2118 0747 02       		.byte	0x2
 2119 0748 AB       		.byte	0xab
 2120 0749 AF030000 		.4byte	0x3af
 2121 074d 02       		.uleb128 0x2
 2122 074e 91       		.byte	0x91
 2123 074f 6B       		.sleb128 -21
 2124 0750 1C       		.uleb128 0x1c
 2125 0751 72657400 		.ascii	"ret\000"
 2126 0755 02       		.byte	0x2
 2127 0756 AD       		.byte	0xad
 2128 0757 28040000 		.4byte	0x428
 2129 075b 02       		.uleb128 0x2
 2130 075c 91       		.byte	0x91
 2131 075d 77       		.sleb128 -9
 2132 075e 00       		.byte	0
 2133 075f 15       		.uleb128 0x15
 2134 0760 04       		.byte	0x4
 2135 0761 65070000 		.4byte	0x765
 2136 0765 06       		.uleb128 0x6
 2137 0766 1E020000 		.4byte	0x21e
 2138 076a 1A       		.uleb128 0x1a
 2139 076b 84040000 		.4byte	.LASF133
 2140 076f 02       		.byte	0x2
 2141 0770 CD       		.byte	0xcd
 2142 0771 89020000 		.4byte	0x289
 2143 0775 00000000 		.4byte	.LFB179
 2144 0779 74000000 		.4byte	.LFE179-.LFB179
 2145 077d 01       		.uleb128 0x1
 2146 077e 9C       		.byte	0x9c
 2147 077f A0070000 		.4byte	0x7a0
 2148 0783 1B       		.uleb128 0x1b
ARM GAS  C:\Users\ikomb\AppData\Local\Temp\ccmrmnRc.s 			page 55


 2149 0784 D8040000 		.4byte	.LASF134
 2150 0788 02       		.byte	0x2
 2151 0789 CD       		.byte	0xcd
 2152 078a 06030000 		.4byte	0x306
 2153 078e 02       		.uleb128 0x2
 2154 078f 91       		.byte	0x91
 2155 0790 6C       		.sleb128 -20
 2156 0791 1C       		.uleb128 0x1c
 2157 0792 72657400 		.ascii	"ret\000"
 2158 0796 02       		.byte	0x2
 2159 0797 CF       		.byte	0xcf
 2160 0798 89020000 		.4byte	0x289
 2161 079c 02       		.uleb128 0x2
 2162 079d 91       		.byte	0x91
 2163 079e 74       		.sleb128 -12
 2164 079f 00       		.byte	0
 2165 07a0 1F       		.uleb128 0x1f
 2166 07a1 CC010000 		.4byte	.LASF138
 2167 07a5 08       		.byte	0x8
 2168 07a6 EA07     		.2byte	0x7ea
 2169 07a8 AC070000 		.4byte	0x7ac
 2170 07ac 05       		.uleb128 0x5
 2171 07ad 97000000 		.4byte	0x97
 2172 07b1 00       		.byte	0
 2173              		.section	.debug_abbrev,"",%progbits
 2174              	.Ldebug_abbrev0:
 2175 0000 01       		.uleb128 0x1
 2176 0001 11       		.uleb128 0x11
 2177 0002 01       		.byte	0x1
 2178 0003 25       		.uleb128 0x25
 2179 0004 0E       		.uleb128 0xe
 2180 0005 13       		.uleb128 0x13
 2181 0006 0B       		.uleb128 0xb
 2182 0007 03       		.uleb128 0x3
 2183 0008 0E       		.uleb128 0xe
 2184 0009 1B       		.uleb128 0x1b
 2185 000a 0E       		.uleb128 0xe
 2186 000b 55       		.uleb128 0x55
 2187 000c 17       		.uleb128 0x17
 2188 000d 11       		.uleb128 0x11
 2189 000e 01       		.uleb128 0x1
 2190 000f 10       		.uleb128 0x10
 2191 0010 17       		.uleb128 0x17
 2192 0011 00       		.byte	0
 2193 0012 00       		.byte	0
 2194 0013 02       		.uleb128 0x2
 2195 0014 24       		.uleb128 0x24
 2196 0015 00       		.byte	0
 2197 0016 0B       		.uleb128 0xb
 2198 0017 0B       		.uleb128 0xb
 2199 0018 3E       		.uleb128 0x3e
 2200 0019 0B       		.uleb128 0xb
 2201 001a 03       		.uleb128 0x3
 2202 001b 0E       		.uleb128 0xe
 2203 001c 00       		.byte	0
 2204 001d 00       		.byte	0
 2205 001e 03       		.uleb128 0x3
ARM GAS  C:\Users\ikomb\AppData\Local\Temp\ccmrmnRc.s 			page 56


 2206 001f 16       		.uleb128 0x16
 2207 0020 00       		.byte	0
 2208 0021 03       		.uleb128 0x3
 2209 0022 0E       		.uleb128 0xe
 2210 0023 3A       		.uleb128 0x3a
 2211 0024 0B       		.uleb128 0xb
 2212 0025 3B       		.uleb128 0x3b
 2213 0026 0B       		.uleb128 0xb
 2214 0027 49       		.uleb128 0x49
 2215 0028 13       		.uleb128 0x13
 2216 0029 00       		.byte	0
 2217 002a 00       		.byte	0
 2218 002b 04       		.uleb128 0x4
 2219 002c 24       		.uleb128 0x24
 2220 002d 00       		.byte	0
 2221 002e 0B       		.uleb128 0xb
 2222 002f 0B       		.uleb128 0xb
 2223 0030 3E       		.uleb128 0x3e
 2224 0031 0B       		.uleb128 0xb
 2225 0032 03       		.uleb128 0x3
 2226 0033 08       		.uleb128 0x8
 2227 0034 00       		.byte	0
 2228 0035 00       		.byte	0
 2229 0036 05       		.uleb128 0x5
 2230 0037 35       		.uleb128 0x35
 2231 0038 00       		.byte	0
 2232 0039 49       		.uleb128 0x49
 2233 003a 13       		.uleb128 0x13
 2234 003b 00       		.byte	0
 2235 003c 00       		.byte	0
 2236 003d 06       		.uleb128 0x6
 2237 003e 26       		.uleb128 0x26
 2238 003f 00       		.byte	0
 2239 0040 49       		.uleb128 0x49
 2240 0041 13       		.uleb128 0x13
 2241 0042 00       		.byte	0
 2242 0043 00       		.byte	0
 2243 0044 07       		.uleb128 0x7
 2244 0045 01       		.uleb128 0x1
 2245 0046 01       		.byte	0x1
 2246 0047 49       		.uleb128 0x49
 2247 0048 13       		.uleb128 0x13
 2248 0049 01       		.uleb128 0x1
 2249 004a 13       		.uleb128 0x13
 2250 004b 00       		.byte	0
 2251 004c 00       		.byte	0
 2252 004d 08       		.uleb128 0x8
 2253 004e 21       		.uleb128 0x21
 2254 004f 00       		.byte	0
 2255 0050 49       		.uleb128 0x49
 2256 0051 13       		.uleb128 0x13
 2257 0052 2F       		.uleb128 0x2f
 2258 0053 0B       		.uleb128 0xb
 2259 0054 00       		.byte	0
 2260 0055 00       		.byte	0
 2261 0056 09       		.uleb128 0x9
 2262 0057 21       		.uleb128 0x21
ARM GAS  C:\Users\ikomb\AppData\Local\Temp\ccmrmnRc.s 			page 57


 2263 0058 00       		.byte	0
 2264 0059 49       		.uleb128 0x49
 2265 005a 13       		.uleb128 0x13
 2266 005b 2F       		.uleb128 0x2f
 2267 005c 05       		.uleb128 0x5
 2268 005d 00       		.byte	0
 2269 005e 00       		.byte	0
 2270 005f 0A       		.uleb128 0xa
 2271 0060 13       		.uleb128 0x13
 2272 0061 01       		.byte	0x1
 2273 0062 0B       		.uleb128 0xb
 2274 0063 05       		.uleb128 0x5
 2275 0064 3A       		.uleb128 0x3a
 2276 0065 0B       		.uleb128 0xb
 2277 0066 3B       		.uleb128 0x3b
 2278 0067 0B       		.uleb128 0xb
 2279 0068 01       		.uleb128 0x1
 2280 0069 13       		.uleb128 0x13
 2281 006a 00       		.byte	0
 2282 006b 00       		.byte	0
 2283 006c 0B       		.uleb128 0xb
 2284 006d 0D       		.uleb128 0xd
 2285 006e 00       		.byte	0
 2286 006f 03       		.uleb128 0x3
 2287 0070 08       		.uleb128 0x8
 2288 0071 3A       		.uleb128 0x3a
 2289 0072 0B       		.uleb128 0xb
 2290 0073 3B       		.uleb128 0x3b
 2291 0074 0B       		.uleb128 0xb
 2292 0075 49       		.uleb128 0x49
 2293 0076 13       		.uleb128 0x13
 2294 0077 38       		.uleb128 0x38
 2295 0078 0B       		.uleb128 0xb
 2296 0079 00       		.byte	0
 2297 007a 00       		.byte	0
 2298 007b 0C       		.uleb128 0xc
 2299 007c 0D       		.uleb128 0xd
 2300 007d 00       		.byte	0
 2301 007e 03       		.uleb128 0x3
 2302 007f 0E       		.uleb128 0xe
 2303 0080 3A       		.uleb128 0x3a
 2304 0081 0B       		.uleb128 0xb
 2305 0082 3B       		.uleb128 0x3b
 2306 0083 0B       		.uleb128 0xb
 2307 0084 49       		.uleb128 0x49
 2308 0085 13       		.uleb128 0x13
 2309 0086 38       		.uleb128 0x38
 2310 0087 0B       		.uleb128 0xb
 2311 0088 00       		.byte	0
 2312 0089 00       		.byte	0
 2313 008a 0D       		.uleb128 0xd
 2314 008b 0D       		.uleb128 0xd
 2315 008c 00       		.byte	0
 2316 008d 03       		.uleb128 0x3
 2317 008e 0E       		.uleb128 0xe
 2318 008f 3A       		.uleb128 0x3a
 2319 0090 0B       		.uleb128 0xb
ARM GAS  C:\Users\ikomb\AppData\Local\Temp\ccmrmnRc.s 			page 58


 2320 0091 3B       		.uleb128 0x3b
 2321 0092 0B       		.uleb128 0xb
 2322 0093 49       		.uleb128 0x49
 2323 0094 13       		.uleb128 0x13
 2324 0095 38       		.uleb128 0x38
 2325 0096 05       		.uleb128 0x5
 2326 0097 00       		.byte	0
 2327 0098 00       		.byte	0
 2328 0099 0E       		.uleb128 0xe
 2329 009a 16       		.uleb128 0x16
 2330 009b 00       		.byte	0
 2331 009c 03       		.uleb128 0x3
 2332 009d 0E       		.uleb128 0xe
 2333 009e 3A       		.uleb128 0x3a
 2334 009f 0B       		.uleb128 0xb
 2335 00a0 3B       		.uleb128 0x3b
 2336 00a1 05       		.uleb128 0x5
 2337 00a2 49       		.uleb128 0x49
 2338 00a3 13       		.uleb128 0x13
 2339 00a4 00       		.byte	0
 2340 00a5 00       		.byte	0
 2341 00a6 0F       		.uleb128 0xf
 2342 00a7 04       		.uleb128 0x4
 2343 00a8 01       		.byte	0x1
 2344 00a9 0B       		.uleb128 0xb
 2345 00aa 0B       		.uleb128 0xb
 2346 00ab 49       		.uleb128 0x49
 2347 00ac 13       		.uleb128 0x13
 2348 00ad 3A       		.uleb128 0x3a
 2349 00ae 0B       		.uleb128 0xb
 2350 00af 3B       		.uleb128 0x3b
 2351 00b0 05       		.uleb128 0x5
 2352 00b1 01       		.uleb128 0x1
 2353 00b2 13       		.uleb128 0x13
 2354 00b3 00       		.byte	0
 2355 00b4 00       		.byte	0
 2356 00b5 10       		.uleb128 0x10
 2357 00b6 28       		.uleb128 0x28
 2358 00b7 00       		.byte	0
 2359 00b8 03       		.uleb128 0x3
 2360 00b9 0E       		.uleb128 0xe
 2361 00ba 1C       		.uleb128 0x1c
 2362 00bb 0B       		.uleb128 0xb
 2363 00bc 00       		.byte	0
 2364 00bd 00       		.byte	0
 2365 00be 11       		.uleb128 0x11
 2366 00bf 28       		.uleb128 0x28
 2367 00c0 00       		.byte	0
 2368 00c1 03       		.uleb128 0x3
 2369 00c2 0E       		.uleb128 0xe
 2370 00c3 1C       		.uleb128 0x1c
 2371 00c4 06       		.uleb128 0x6
 2372 00c5 00       		.byte	0
 2373 00c6 00       		.byte	0
 2374 00c7 12       		.uleb128 0x12
 2375 00c8 13       		.uleb128 0x13
 2376 00c9 01       		.byte	0x1
ARM GAS  C:\Users\ikomb\AppData\Local\Temp\ccmrmnRc.s 			page 59


 2377 00ca 0B       		.uleb128 0xb
 2378 00cb 0B       		.uleb128 0xb
 2379 00cc 3A       		.uleb128 0x3a
 2380 00cd 0B       		.uleb128 0xb
 2381 00ce 3B       		.uleb128 0x3b
 2382 00cf 05       		.uleb128 0x5
 2383 00d0 01       		.uleb128 0x1
 2384 00d1 13       		.uleb128 0x13
 2385 00d2 00       		.byte	0
 2386 00d3 00       		.byte	0
 2387 00d4 13       		.uleb128 0x13
 2388 00d5 0D       		.uleb128 0xd
 2389 00d6 00       		.byte	0
 2390 00d7 03       		.uleb128 0x3
 2391 00d8 0E       		.uleb128 0xe
 2392 00d9 3A       		.uleb128 0x3a
 2393 00da 0B       		.uleb128 0xb
 2394 00db 3B       		.uleb128 0x3b
 2395 00dc 05       		.uleb128 0x5
 2396 00dd 49       		.uleb128 0x49
 2397 00de 13       		.uleb128 0x13
 2398 00df 38       		.uleb128 0x38
 2399 00e0 0B       		.uleb128 0xb
 2400 00e1 00       		.byte	0
 2401 00e2 00       		.byte	0
 2402 00e3 14       		.uleb128 0x14
 2403 00e4 0F       		.uleb128 0xf
 2404 00e5 00       		.byte	0
 2405 00e6 0B       		.uleb128 0xb
 2406 00e7 0B       		.uleb128 0xb
 2407 00e8 00       		.byte	0
 2408 00e9 00       		.byte	0
 2409 00ea 15       		.uleb128 0x15
 2410 00eb 0F       		.uleb128 0xf
 2411 00ec 00       		.byte	0
 2412 00ed 0B       		.uleb128 0xb
 2413 00ee 0B       		.uleb128 0xb
 2414 00ef 49       		.uleb128 0x49
 2415 00f0 13       		.uleb128 0x13
 2416 00f1 00       		.byte	0
 2417 00f2 00       		.byte	0
 2418 00f3 16       		.uleb128 0x16
 2419 00f4 04       		.uleb128 0x4
 2420 00f5 01       		.byte	0x1
 2421 00f6 0B       		.uleb128 0xb
 2422 00f7 0B       		.uleb128 0xb
 2423 00f8 49       		.uleb128 0x49
 2424 00f9 13       		.uleb128 0x13
 2425 00fa 3A       		.uleb128 0x3a
 2426 00fb 0B       		.uleb128 0xb
 2427 00fc 3B       		.uleb128 0x3b
 2428 00fd 0B       		.uleb128 0xb
 2429 00fe 01       		.uleb128 0x1
 2430 00ff 13       		.uleb128 0x13
 2431 0100 00       		.byte	0
 2432 0101 00       		.byte	0
 2433 0102 17       		.uleb128 0x17
ARM GAS  C:\Users\ikomb\AppData\Local\Temp\ccmrmnRc.s 			page 60


 2434 0103 2E       		.uleb128 0x2e
 2435 0104 01       		.byte	0x1
 2436 0105 03       		.uleb128 0x3
 2437 0106 0E       		.uleb128 0xe
 2438 0107 3A       		.uleb128 0x3a
 2439 0108 0B       		.uleb128 0xb
 2440 0109 3B       		.uleb128 0x3b
 2441 010a 05       		.uleb128 0x5
 2442 010b 27       		.uleb128 0x27
 2443 010c 19       		.uleb128 0x19
 2444 010d 11       		.uleb128 0x11
 2445 010e 01       		.uleb128 0x1
 2446 010f 12       		.uleb128 0x12
 2447 0110 06       		.uleb128 0x6
 2448 0111 40       		.uleb128 0x40
 2449 0112 18       		.uleb128 0x18
 2450 0113 9742     		.uleb128 0x2117
 2451 0115 19       		.uleb128 0x19
 2452 0116 01       		.uleb128 0x1
 2453 0117 13       		.uleb128 0x13
 2454 0118 00       		.byte	0
 2455 0119 00       		.byte	0
 2456 011a 18       		.uleb128 0x18
 2457 011b 05       		.uleb128 0x5
 2458 011c 00       		.byte	0
 2459 011d 03       		.uleb128 0x3
 2460 011e 0E       		.uleb128 0xe
 2461 011f 3A       		.uleb128 0x3a
 2462 0120 0B       		.uleb128 0xb
 2463 0121 3B       		.uleb128 0x3b
 2464 0122 05       		.uleb128 0x5
 2465 0123 49       		.uleb128 0x49
 2466 0124 13       		.uleb128 0x13
 2467 0125 02       		.uleb128 0x2
 2468 0126 18       		.uleb128 0x18
 2469 0127 00       		.byte	0
 2470 0128 00       		.byte	0
 2471 0129 19       		.uleb128 0x19
 2472 012a 2E       		.uleb128 0x2e
 2473 012b 01       		.byte	0x1
 2474 012c 03       		.uleb128 0x3
 2475 012d 0E       		.uleb128 0xe
 2476 012e 3A       		.uleb128 0x3a
 2477 012f 0B       		.uleb128 0xb
 2478 0130 3B       		.uleb128 0x3b
 2479 0131 05       		.uleb128 0x5
 2480 0132 27       		.uleb128 0x27
 2481 0133 19       		.uleb128 0x19
 2482 0134 11       		.uleb128 0x11
 2483 0135 01       		.uleb128 0x1
 2484 0136 12       		.uleb128 0x12
 2485 0137 06       		.uleb128 0x6
 2486 0138 40       		.uleb128 0x40
 2487 0139 18       		.uleb128 0x18
 2488 013a 9642     		.uleb128 0x2116
 2489 013c 19       		.uleb128 0x19
 2490 013d 01       		.uleb128 0x1
ARM GAS  C:\Users\ikomb\AppData\Local\Temp\ccmrmnRc.s 			page 61


 2491 013e 13       		.uleb128 0x13
 2492 013f 00       		.byte	0
 2493 0140 00       		.byte	0
 2494 0141 1A       		.uleb128 0x1a
 2495 0142 2E       		.uleb128 0x2e
 2496 0143 01       		.byte	0x1
 2497 0144 3F       		.uleb128 0x3f
 2498 0145 19       		.uleb128 0x19
 2499 0146 03       		.uleb128 0x3
 2500 0147 0E       		.uleb128 0xe
 2501 0148 3A       		.uleb128 0x3a
 2502 0149 0B       		.uleb128 0xb
 2503 014a 3B       		.uleb128 0x3b
 2504 014b 0B       		.uleb128 0xb
 2505 014c 27       		.uleb128 0x27
 2506 014d 19       		.uleb128 0x19
 2507 014e 49       		.uleb128 0x49
 2508 014f 13       		.uleb128 0x13
 2509 0150 11       		.uleb128 0x11
 2510 0151 01       		.uleb128 0x1
 2511 0152 12       		.uleb128 0x12
 2512 0153 06       		.uleb128 0x6
 2513 0154 40       		.uleb128 0x40
 2514 0155 18       		.uleb128 0x18
 2515 0156 9642     		.uleb128 0x2116
 2516 0158 19       		.uleb128 0x19
 2517 0159 01       		.uleb128 0x1
 2518 015a 13       		.uleb128 0x13
 2519 015b 00       		.byte	0
 2520 015c 00       		.byte	0
 2521 015d 1B       		.uleb128 0x1b
 2522 015e 05       		.uleb128 0x5
 2523 015f 00       		.byte	0
 2524 0160 03       		.uleb128 0x3
 2525 0161 0E       		.uleb128 0xe
 2526 0162 3A       		.uleb128 0x3a
 2527 0163 0B       		.uleb128 0xb
 2528 0164 3B       		.uleb128 0x3b
 2529 0165 0B       		.uleb128 0xb
 2530 0166 49       		.uleb128 0x49
 2531 0167 13       		.uleb128 0x13
 2532 0168 02       		.uleb128 0x2
 2533 0169 18       		.uleb128 0x18
 2534 016a 00       		.byte	0
 2535 016b 00       		.byte	0
 2536 016c 1C       		.uleb128 0x1c
 2537 016d 34       		.uleb128 0x34
 2538 016e 00       		.byte	0
 2539 016f 03       		.uleb128 0x3
 2540 0170 08       		.uleb128 0x8
 2541 0171 3A       		.uleb128 0x3a
 2542 0172 0B       		.uleb128 0xb
 2543 0173 3B       		.uleb128 0x3b
 2544 0174 0B       		.uleb128 0xb
 2545 0175 49       		.uleb128 0x49
 2546 0176 13       		.uleb128 0x13
 2547 0177 02       		.uleb128 0x2
ARM GAS  C:\Users\ikomb\AppData\Local\Temp\ccmrmnRc.s 			page 62


 2548 0178 18       		.uleb128 0x18
 2549 0179 00       		.byte	0
 2550 017a 00       		.byte	0
 2551 017b 1D       		.uleb128 0x1d
 2552 017c 2E       		.uleb128 0x2e
 2553 017d 01       		.byte	0x1
 2554 017e 3F       		.uleb128 0x3f
 2555 017f 19       		.uleb128 0x19
 2556 0180 03       		.uleb128 0x3
 2557 0181 0E       		.uleb128 0xe
 2558 0182 3A       		.uleb128 0x3a
 2559 0183 0B       		.uleb128 0xb
 2560 0184 3B       		.uleb128 0x3b
 2561 0185 0B       		.uleb128 0xb
 2562 0186 27       		.uleb128 0x27
 2563 0187 19       		.uleb128 0x19
 2564 0188 11       		.uleb128 0x11
 2565 0189 01       		.uleb128 0x1
 2566 018a 12       		.uleb128 0x12
 2567 018b 06       		.uleb128 0x6
 2568 018c 40       		.uleb128 0x40
 2569 018d 18       		.uleb128 0x18
 2570 018e 9742     		.uleb128 0x2117
 2571 0190 19       		.uleb128 0x19
 2572 0191 01       		.uleb128 0x1
 2573 0192 13       		.uleb128 0x13
 2574 0193 00       		.byte	0
 2575 0194 00       		.byte	0
 2576 0195 1E       		.uleb128 0x1e
 2577 0196 2E       		.uleb128 0x2e
 2578 0197 01       		.byte	0x1
 2579 0198 3F       		.uleb128 0x3f
 2580 0199 19       		.uleb128 0x19
 2581 019a 03       		.uleb128 0x3
 2582 019b 0E       		.uleb128 0xe
 2583 019c 3A       		.uleb128 0x3a
 2584 019d 0B       		.uleb128 0xb
 2585 019e 3B       		.uleb128 0x3b
 2586 019f 0B       		.uleb128 0xb
 2587 01a0 27       		.uleb128 0x27
 2588 01a1 19       		.uleb128 0x19
 2589 01a2 11       		.uleb128 0x11
 2590 01a3 01       		.uleb128 0x1
 2591 01a4 12       		.uleb128 0x12
 2592 01a5 06       		.uleb128 0x6
 2593 01a6 40       		.uleb128 0x40
 2594 01a7 18       		.uleb128 0x18
 2595 01a8 9642     		.uleb128 0x2116
 2596 01aa 19       		.uleb128 0x19
 2597 01ab 01       		.uleb128 0x1
 2598 01ac 13       		.uleb128 0x13
 2599 01ad 00       		.byte	0
 2600 01ae 00       		.byte	0
 2601 01af 1F       		.uleb128 0x1f
 2602 01b0 34       		.uleb128 0x34
 2603 01b1 00       		.byte	0
 2604 01b2 03       		.uleb128 0x3
ARM GAS  C:\Users\ikomb\AppData\Local\Temp\ccmrmnRc.s 			page 63


 2605 01b3 0E       		.uleb128 0xe
 2606 01b4 3A       		.uleb128 0x3a
 2607 01b5 0B       		.uleb128 0xb
 2608 01b6 3B       		.uleb128 0x3b
 2609 01b7 05       		.uleb128 0x5
 2610 01b8 49       		.uleb128 0x49
 2611 01b9 13       		.uleb128 0x13
 2612 01ba 3F       		.uleb128 0x3f
 2613 01bb 19       		.uleb128 0x19
 2614 01bc 3C       		.uleb128 0x3c
 2615 01bd 19       		.uleb128 0x19
 2616 01be 00       		.byte	0
 2617 01bf 00       		.byte	0
 2618 01c0 00       		.byte	0
 2619              		.section	.debug_aranges,"",%progbits
 2620 0000 5C000000 		.4byte	0x5c
 2621 0004 0200     		.2byte	0x2
 2622 0006 00000000 		.4byte	.Ldebug_info0
 2623 000a 04       		.byte	0x4
 2624 000b 00       		.byte	0
 2625 000c 0000     		.2byte	0
 2626 000e 0000     		.2byte	0
 2627 0010 00000000 		.4byte	.LFB158
 2628 0014 20000000 		.4byte	.LFE158-.LFB158
 2629 0018 00000000 		.4byte	.LFB159
 2630 001c 20000000 		.4byte	.LFE159-.LFB159
 2631 0020 00000000 		.4byte	.LFB161
 2632 0024 34000000 		.4byte	.LFE161-.LFB161
 2633 0028 00000000 		.4byte	.LFB168
 2634 002c 34000000 		.4byte	.LFE168-.LFB168
 2635 0030 00000000 		.4byte	.LFB175
 2636 0034 B8030000 		.4byte	.LFE175-.LFB175
 2637 0038 00000000 		.4byte	.LFB176
 2638 003c 54000000 		.4byte	.LFE176-.LFB176
 2639 0040 00000000 		.4byte	.LFB177
 2640 0044 CC000000 		.4byte	.LFE177-.LFB177
 2641 0048 00000000 		.4byte	.LFB178
 2642 004c 50000000 		.4byte	.LFE178-.LFB178
 2643 0050 00000000 		.4byte	.LFB179
 2644 0054 74000000 		.4byte	.LFE179-.LFB179
 2645 0058 00000000 		.4byte	0
 2646 005c 00000000 		.4byte	0
 2647              		.section	.debug_ranges,"",%progbits
 2648              	.Ldebug_ranges0:
 2649 0000 00000000 		.4byte	.LFB158
 2650 0004 20000000 		.4byte	.LFE158
 2651 0008 00000000 		.4byte	.LFB159
 2652 000c 20000000 		.4byte	.LFE159
 2653 0010 00000000 		.4byte	.LFB161
 2654 0014 34000000 		.4byte	.LFE161
 2655 0018 00000000 		.4byte	.LFB168
 2656 001c 34000000 		.4byte	.LFE168
 2657 0020 00000000 		.4byte	.LFB175
 2658 0024 B8030000 		.4byte	.LFE175
 2659 0028 00000000 		.4byte	.LFB176
 2660 002c 54000000 		.4byte	.LFE176
 2661 0030 00000000 		.4byte	.LFB177
ARM GAS  C:\Users\ikomb\AppData\Local\Temp\ccmrmnRc.s 			page 64


 2662 0034 CC000000 		.4byte	.LFE177
 2663 0038 00000000 		.4byte	.LFB178
 2664 003c 50000000 		.4byte	.LFE178
 2665 0040 00000000 		.4byte	.LFB179
 2666 0044 74000000 		.4byte	.LFE179
 2667 0048 00000000 		.4byte	0
 2668 004c 00000000 		.4byte	0
 2669              		.section	.debug_line,"",%progbits
 2670              	.Ldebug_line0:
 2671 0000 7F050000 		.section	.debug_str,"MS",%progbits,1
 2671      02005D02 
 2671      00000201 
 2671      FB0E0D00 
 2671      01010101 
 2672              	.LASF77:
 2673 0000 43595F50 		.ascii	"CY_PDM_PCM_ATTN_3_DB\000"
 2673      444D5F50 
 2673      434D5F41 
 2673      54544E5F 
 2673      335F4442 
 2674              	.LASF116:
 2675 0015 72784669 		.ascii	"rxFifoTriggerLevel\000"
 2675      666F5472 
 2675      69676765 
 2675      724C6576 
 2675      656C00
 2676              	.LASF41:
 2677 0028 43595F53 		.ascii	"CY_SYSPM_TIMEOUT\000"
 2677      5953504D 
 2677      5F54494D 
 2677      454F5554 
 2677      00
 2678              	.LASF40:
 2679 0039 43595F53 		.ascii	"CY_SYSPM_BAD_PARAM\000"
 2679      5953504D 
 2679      5F424144 
 2679      5F504152 
 2679      414D00
 2680              	.LASF79:
 2681 004c 43595F50 		.ascii	"CY_PDM_PCM_BYPASS\000"
 2681      444D5F50 
 2681      434D5F42 
 2681      59504153 
 2681      5300
 2682              	.LASF76:
 2683 005e 43595F50 		.ascii	"CY_PDM_PCM_ATTN_4_5_DB\000"
 2683      444D5F50 
 2683      434D5F41 
 2683      54544E5F 
 2683      345F355F 
 2684              	.LASF127:
 2685 0075 43795F50 		.ascii	"Cy_PDM_PCM_DeInit\000"
 2685      444D5F50 
 2685      434D5F44 
 2685      65496E69 
 2685      7400
 2686              	.LASF4:
ARM GAS  C:\Users\ikomb\AppData\Local\Temp\ccmrmnRc.s 			page 65


 2687 0087 5F5F7569 		.ascii	"__uint8_t\000"
 2687      6E74385F 
 2687      7400
 2688              	.LASF135:
 2689 0091 474E5520 		.ascii	"GNU C11 5.4.1 20160609 (release) [ARM/embedded-5-br"
 2689      43313120 
 2689      352E342E 
 2689      31203230 
 2689      31363036 
 2690 00c4 616E6368 		.ascii	"anch revision 237715] -mcpu=cortex-m4 -mfloat-abi=s"
 2690      20726576 
 2690      6973696F 
 2690      6E203233 
 2690      37373135 
 2691 00f7 6F667466 		.ascii	"oftfp -mfpu=fpv4-sp-d16 -mthumb -g -O0 -ffunction-s"
 2691      70202D6D 
 2691      6670753D 
 2691      66707634 
 2691      2D73702D 
 2692 012a 65637469 		.ascii	"ections -ffat-lto-objects\000"
 2692      6F6E7320 
 2692      2D666661 
 2692      742D6C74 
 2692      6F2D6F62 
 2693              	.LASF60:
 2694 0144 43595F50 		.ascii	"CY_PDM_PCM_CLK_DIV_1_2\000"
 2694      444D5F50 
 2694      434D5F43 
 2694      4C4B5F44 
 2694      49565F31 
 2695              	.LASF61:
 2696 015b 43595F50 		.ascii	"CY_PDM_PCM_CLK_DIV_1_3\000"
 2696      444D5F50 
 2696      434D5F43 
 2696      4C4B5F44 
 2696      49565F31 
 2697              	.LASF62:
 2698 0172 43595F50 		.ascii	"CY_PDM_PCM_CLK_DIV_1_4\000"
 2698      444D5F50 
 2698      434D5F43 
 2698      4C4B5F44 
 2698      49565F31 
 2699              	.LASF81:
 2700 0189 43595F50 		.ascii	"CY_PDM_PCM_GAIN_3_DB\000"
 2700      444D5F50 
 2700      434D5F47 
 2700      41494E5F 
 2700      335F4442 
 2701              	.LASF17:
 2702 019e 434C4F43 		.ascii	"CLOCK_CTL\000"
 2702      4B5F4354 
 2702      4C00
 2703              	.LASF10:
 2704 01a8 6C6F6E67 		.ascii	"long long unsigned int\000"
 2704      206C6F6E 
 2704      6720756E 
 2704      7369676E 
ARM GAS  C:\Users\ikomb\AppData\Local\Temp\ccmrmnRc.s 			page 66


 2704      65642069 
 2705              	.LASF11:
 2706 01bf 756E7369 		.ascii	"unsigned int\000"
 2706      676E6564 
 2706      20696E74 
 2706      00
 2707              	.LASF138:
 2708 01cc 49544D5F 		.ascii	"ITM_RxBuffer\000"
 2708      52784275 
 2708      66666572 
 2708      00
 2709              	.LASF86:
 2710 01d9 43595F50 		.ascii	"CY_PDM_PCM_GAIN_10_5_DB\000"
 2710      444D5F50 
 2710      434D5F47 
 2710      41494E5F 
 2710      31305F35 
 2711              	.LASF99:
 2712 01f1 63795F65 		.ascii	"cy_en_pdm_pcm_status_t\000"
 2712      6E5F7064 
 2712      6D5F7063 
 2712      6D5F7374 
 2712      61747573 
 2713              	.LASF9:
 2714 0208 6C6F6E67 		.ascii	"long long int\000"
 2714      206C6F6E 
 2714      6720696E 
 2714      7400
 2715              	.LASF1:
 2716 0216 7369676E 		.ascii	"signed char\000"
 2716      65642063 
 2716      68617200 
 2717              	.LASF19:
 2718 0222 44415441 		.ascii	"DATA_CTL\000"
 2718      5F43544C 
 2718      00
 2719              	.LASF109:
 2720 022b 736F6674 		.ascii	"softMuteCycles\000"
 2720      4D757465 
 2720      4379636C 
 2720      657300
 2721              	.LASF67:
 2722 023a 63795F65 		.ascii	"cy_en_pdm_pcm_out_t\000"
 2722      6E5F7064 
 2722      6D5F7063 
 2722      6D5F6F75 
 2722      745F7400 
 2723              	.LASF94:
 2724 024e 43595F50 		.ascii	"CY_PDM_PCM_SOFT_MUTE_CYCLES_384\000"
 2724      444D5F50 
 2724      434D5F53 
 2724      4F46545F 
 2724      4D555445 
 2725              	.LASF110:
 2726 026e 736F6674 		.ascii	"softMuteFineGain\000"
 2726      4D757465 
 2726      46696E65 
ARM GAS  C:\Users\ikomb\AppData\Local\Temp\ccmrmnRc.s 			page 67


 2726      4761696E 
 2726      00
 2727              	.LASF6:
 2728 027f 6C6F6E67 		.ascii	"long int\000"
 2728      20696E74 
 2728      00
 2729              	.LASF114:
 2730 0288 6761696E 		.ascii	"gainLeft\000"
 2730      4C656674 
 2730      00
 2731              	.LASF82:
 2732 0291 43595F50 		.ascii	"CY_PDM_PCM_GAIN_4_5_DB\000"
 2732      444D5F50 
 2732      434D5F47 
 2732      41494E5F 
 2732      345F355F 
 2733              	.LASF37:
 2734 02a8 646F7562 		.ascii	"double\000"
 2734      6C6500
 2735              	.LASF105:
 2736 02af 6368616E 		.ascii	"chanSelect\000"
 2736      53656C65 
 2736      637400
 2737              	.LASF124:
 2738 02ba 696E7465 		.ascii	"interrupt\000"
 2738      72727570 
 2738      7400
 2739              	.LASF53:
 2740 02c4 63795F73 		.ascii	"cy_stc_syspm_callback_params_t\000"
 2740      74635F73 
 2740      7973706D 
 2740      5F63616C 
 2740      6C626163 
 2741              	.LASF91:
 2742 02e3 43595F50 		.ascii	"CY_PDM_PCM_SOFT_MUTE_CYCLES_160\000"
 2742      444D5F50 
 2742      434D5F53 
 2742      4F46545F 
 2742      4D555445 
 2743              	.LASF56:
 2744 0303 43595F50 		.ascii	"CY_PDM_PCM_WLEN_20_BIT\000"
 2744      444D5F50 
 2744      434D5F57 
 2744      4C454E5F 
 2744      32305F42 
 2745              	.LASF7:
 2746 031a 5F5F7569 		.ascii	"__uint32_t\000"
 2746      6E743332 
 2746      5F7400
 2747              	.LASF72:
 2748 0325 43595F50 		.ascii	"CY_PDM_PCM_ATTN_10_5_DB\000"
 2748      444D5F50 
 2748      434D5F41 
 2748      54544E5F 
 2748      31305F35 
 2749              	.LASF18:
 2750 033d 4D4F4445 		.ascii	"MODE_CTL\000"
ARM GAS  C:\Users\ikomb\AppData\Local\Temp\ccmrmnRc.s 			page 68


 2750      5F43544C 
 2750      00
 2751              	.LASF108:
 2752 0346 68696768 		.ascii	"highPassDisable\000"
 2752      50617373 
 2752      44697361 
 2752      626C6500 
 2753              	.LASF97:
 2754 0356 43595F50 		.ascii	"CY_PDM_PCM_SUCCESS\000"
 2754      444D5F50 
 2754      434D5F53 
 2754      55434345 
 2754      535300
 2755              	.LASF102:
 2756 0369 636B6F44 		.ascii	"ckoDiv\000"
 2756      697600
 2757              	.LASF42:
 2758 0370 43595F53 		.ascii	"CY_SYSPM_INVALID_STATE\000"
 2758      5953504D 
 2758      5F494E56 
 2758      414C4944 
 2758      5F535441 
 2759              	.LASF22:
 2760 0387 54525F43 		.ascii	"TR_CTL\000"
 2760      544C00
 2761              	.LASF69:
 2762 038e 43595F50 		.ascii	"CY_PDM_PCM_CHAN_RIGHT\000"
 2762      444D5F50 
 2762      434D5F43 
 2762      48414E5F 
 2762      52494748 
 2763              	.LASF101:
 2764 03a4 6D636C6B 		.ascii	"mclkDiv\000"
 2764      44697600 
 2765              	.LASF113:
 2766 03ac 7369676E 		.ascii	"signExtension\000"
 2766      45787465 
 2766      6E73696F 
 2766      6E00
 2767              	.LASF34:
 2768 03ba 63686172 		.ascii	"char_t\000"
 2768      5F7400
 2769              	.LASF73:
 2770 03c1 43595F50 		.ascii	"CY_PDM_PCM_ATTN_9_DB\000"
 2770      444D5F50 
 2770      434D5F41 
 2770      54544E5F 
 2770      395F4442 
 2771              	.LASF98:
 2772 03d6 43595F50 		.ascii	"CY_PDM_PCM_BAD_PARAM\000"
 2772      444D5F50 
 2772      434D5F42 
 2772      41445F50 
 2772      4152414D 
 2773              	.LASF8:
 2774 03eb 6C6F6E67 		.ascii	"long unsigned int\000"
 2774      20756E73 
ARM GAS  C:\Users\ikomb\AppData\Local\Temp\ccmrmnRc.s 			page 69


 2774      69676E65 
 2774      6420696E 
 2774      7400
 2775              	.LASF27:
 2776 03fd 52585F46 		.ascii	"RX_FIFO_RD_SILENT\000"
 2776      49464F5F 
 2776      52445F53 
 2776      494C454E 
 2776      5400
 2777              	.LASF64:
 2778 040f 43595F50 		.ascii	"CY_PDM_PCM_OUT_CHAN_LEFT\000"
 2778      444D5F50 
 2778      434D5F4F 
 2778      55545F43 
 2778      48414E5F 
 2779              	.LASF117:
 2780 0428 646D6154 		.ascii	"dmaTriggerEnable\000"
 2780      72696767 
 2780      6572456E 
 2780      61626C65 
 2780      00
 2781              	.LASF78:
 2782 0439 43595F50 		.ascii	"CY_PDM_PCM_ATTN_1_5_DB\000"
 2782      444D5F50 
 2782      434D5F41 
 2782      54544E5F 
 2782      315F355F 
 2783              	.LASF100:
 2784 0450 636C6B44 		.ascii	"clkDiv\000"
 2784      697600
 2785              	.LASF3:
 2786 0457 73686F72 		.ascii	"short unsigned int\000"
 2786      7420756E 
 2786      7369676E 
 2786      65642069 
 2786      6E7400
 2787              	.LASF65:
 2788 046a 43595F50 		.ascii	"CY_PDM_PCM_OUT_CHAN_RIGHT\000"
 2788      444D5F50 
 2788      434D5F4F 
 2788      55545F43 
 2788      48414E5F 
 2789              	.LASF133:
 2790 0484 43795F50 		.ascii	"Cy_PDM_PCM_DeepSleepCallback\000"
 2790      444D5F50 
 2790      434D5F44 
 2790      65657053 
 2790      6C656570 
 2791              	.LASF111:
 2792 04a1 736F6674 		.ascii	"softMuteEnable\000"
 2792      4D757465 
 2792      456E6162 
 2792      6C6500
 2793              	.LASF85:
 2794 04b0 43595F50 		.ascii	"CY_PDM_PCM_GAIN_9_DB\000"
 2794      444D5F50 
 2794      434D5F47 
ARM GAS  C:\Users\ikomb\AppData\Local\Temp\ccmrmnRc.s 			page 70


 2794      41494E5F 
 2794      395F4442 
 2795              	.LASF128:
 2796 04c5 43795F50 		.ascii	"Cy_PDM_PCM_SetGain\000"
 2796      444D5F50 
 2796      434D5F53 
 2796      65744761 
 2796      696E00
 2797              	.LASF134:
 2798 04d8 63616C6C 		.ascii	"callbackParams\000"
 2798      6261636B 
 2798      50617261 
 2798      6D7300
 2799              	.LASF48:
 2800 04e7 43595F53 		.ascii	"CY_SYSPM_AFTER_TRANSITION\000"
 2800      5953504D 
 2800      5F414654 
 2800      45525F54 
 2800      52414E53 
 2801              	.LASF63:
 2802 0501 63795F65 		.ascii	"cy_en_pdm_pcm_clk_div_t\000"
 2802      6E5F7064 
 2802      6D5F7063 
 2802      6D5F636C 
 2802      6B5F6469 
 2803              	.LASF30:
 2804 0519 494E5452 		.ascii	"INTR_SET\000"
 2804      5F534554 
 2804      00
 2805              	.LASF51:
 2806 0522 62617365 		.ascii	"base\000"
 2806      00
 2807              	.LASF26:
 2808 0527 52585F46 		.ascii	"RX_FIFO_RD\000"
 2808      49464F5F 
 2808      524400
 2809              	.LASF68:
 2810 0532 43595F50 		.ascii	"CY_PDM_PCM_CHAN_LEFT\000"
 2810      444D5F50 
 2810      434D5F43 
 2810      48414E5F 
 2810      4C454654 
 2811              	.LASF96:
 2812 0547 63795F65 		.ascii	"cy_en_pdm_pcm_s_cycles_t\000"
 2812      6E5F7064 
 2812      6D5F7063 
 2812      6D5F735F 
 2812      6379636C 
 2813              	.LASF15:
 2814 0560 73697A65 		.ascii	"sizetype\000"
 2814      74797065 
 2814      00
 2815              	.LASF137:
 2816 0569 433A5C55 		.ascii	"C:\\Users\\ikomb\\Documents\\PSoC Creator\\CE222221"
 2816      73657273 
 2816      5C696B6F 
 2816      6D625C44 
ARM GAS  C:\Users\ikomb\AppData\Local\Temp\ccmrmnRc.s 			page 71


 2816      6F63756D 
 2817 0597 5F566F69 		.ascii	"_Voice_Recorder01\\CE222221_Voice_Recorder01.cydsn\000"
 2817      63655F52 
 2817      65636F72 
 2817      64657230 
 2817      315C4345 
 2818              	.LASF131:
 2819 05c9 43795F50 		.ascii	"Cy_PDM_PCM_Init\000"
 2819      444D5F50 
 2819      434D5F49 
 2819      6E697400 
 2820              	.LASF88:
 2821 05d9 43595F50 		.ascii	"CY_PDM_PCM_SOFT_MUTE_CYCLES_64\000"
 2821      444D5F50 
 2821      434D5F53 
 2821      4F46545F 
 2821      4D555445 
 2822              	.LASF29:
 2823 05f8 494E5452 		.ascii	"INTR\000"
 2823      00
 2824              	.LASF47:
 2825 05fd 43595F53 		.ascii	"CY_SYSPM_BEFORE_TRANSITION\000"
 2825      5953504D 
 2825      5F424546 
 2825      4F52455F 
 2825      5452414E 
 2826              	.LASF66:
 2827 0618 43595F50 		.ascii	"CY_PDM_PCM_OUT_STEREO\000"
 2827      444D5F50 
 2827      434D5F4F 
 2827      55545F53 
 2827      54455245 
 2828              	.LASF80:
 2829 062e 43595F50 		.ascii	"CY_PDM_PCM_GAIN_1_5_DB\000"
 2829      444D5F50 
 2829      434D5F47 
 2829      41494E5F 
 2829      315F355F 
 2830              	.LASF49:
 2831 0645 63795F65 		.ascii	"cy_en_syspm_callback_mode_t\000"
 2831      6E5F7379 
 2831      73706D5F 
 2831      63616C6C 
 2831      6261636B 
 2832              	.LASF32:
 2833 0661 494E5452 		.ascii	"INTR_MASKED\000"
 2833      5F4D4153 
 2833      4B454400 
 2834              	.LASF36:
 2835 066d 666C6F61 		.ascii	"float\000"
 2835      7400
 2836              	.LASF20:
 2837 0673 52455345 		.ascii	"RESERVED1\000"
 2837      52564544 
 2837      3100
 2838              	.LASF21:
 2839 067d 52455345 		.ascii	"RESERVED2\000"
ARM GAS  C:\Users\ikomb\AppData\Local\Temp\ccmrmnRc.s 			page 72


 2839      52564544 
 2839      3200
 2840              	.LASF23:
 2841 0687 52455345 		.ascii	"RESERVED3\000"
 2841      52564544 
 2841      3300
 2842              	.LASF28:
 2843 0691 52455345 		.ascii	"RESERVED4\000"
 2843      52564544 
 2843      3400
 2844              	.LASF54:
 2845 069b 43595F50 		.ascii	"CY_PDM_PCM_WLEN_16_BIT\000"
 2845      444D5F50 
 2845      434D5F57 
 2845      4C454E5F 
 2845      31365F42 
 2846              	.LASF107:
 2847 06b2 68696768 		.ascii	"highPassFilterGain\000"
 2847      50617373 
 2847      46696C74 
 2847      65724761 
 2847      696E00
 2848              	.LASF130:
 2849 06c5 6761696E 		.ascii	"gain\000"
 2849      00
 2850              	.LASF75:
 2851 06ca 43595F50 		.ascii	"CY_PDM_PCM_ATTN_6_DB\000"
 2851      444D5F50 
 2851      434D5F41 
 2851      54544E5F 
 2851      365F4442 
 2852              	.LASF119:
 2853 06df 5F426F6F 		.ascii	"_Bool\000"
 2853      6C00
 2854              	.LASF13:
 2855 06e5 696E7433 		.ascii	"int32_t\000"
 2855      325F7400 
 2856              	.LASF2:
 2857 06ed 756E7369 		.ascii	"unsigned char\000"
 2857      676E6564 
 2857      20636861 
 2857      7200
 2858              	.LASF120:
 2859 06fb 63795F73 		.ascii	"cy_stc_pdm_pcm_config_t\000"
 2859      74635F70 
 2859      646D5F70 
 2859      636D5F63 
 2859      6F6E6669 
 2860              	.LASF92:
 2861 0713 43595F50 		.ascii	"CY_PDM_PCM_SOFT_MUTE_CYCLES_192\000"
 2861      444D5F50 
 2861      434D5F53 
 2861      4F46545F 
 2861      4D555445 
 2862              	.LASF0:
 2863 0733 73686F72 		.ascii	"short int\000"
 2863      7420696E 
ARM GAS  C:\Users\ikomb\AppData\Local\Temp\ccmrmnRc.s 			page 73


 2863      7400
 2864              	.LASF58:
 2865 073d 63795F65 		.ascii	"cy_en_pdm_pcm_word_len_t\000"
 2865      6E5F7064 
 2865      6D5F7063 
 2865      6D5F776F 
 2865      72645F6C 
 2866              	.LASF115:
 2867 0756 6761696E 		.ascii	"gainRight\000"
 2867      52696768 
 2867      7400
 2868              	.LASF16:
 2869 0760 52455345 		.ascii	"RESERVED\000"
 2869      52564544 
 2869      00
 2870              	.LASF118:
 2871 0769 696E7465 		.ascii	"interruptMask\000"
 2871      72727570 
 2871      744D6173 
 2871      6B00
 2872              	.LASF59:
 2873 0777 43595F50 		.ascii	"CY_PDM_PCM_CLK_DIV_BYPASS\000"
 2873      444D5F50 
 2873      434D5F43 
 2873      4C4B5F44 
 2873      49565F42 
 2874              	.LASF112:
 2875 0791 776F7264 		.ascii	"wordLen\000"
 2875      4C656E00 
 2876              	.LASF87:
 2877 0799 63795F65 		.ascii	"cy_en_pdm_pcm_gain_t\000"
 2877      6E5F7064 
 2877      6D5F7063 
 2877      6D5F6761 
 2877      696E5F74 
 2878              	.LASF74:
 2879 07ae 43595F50 		.ascii	"CY_PDM_PCM_ATTN_7_5_DB\000"
 2879      444D5F50 
 2879      434D5F41 
 2879      54544E5F 
 2879      375F355F 
 2880              	.LASF121:
 2881 07c5 43795F50 		.ascii	"Cy_PDM_PCM_Enable\000"
 2881      444D5F50 
 2881      434D5F45 
 2881      6E61626C 
 2881      6500
 2882              	.LASF14:
 2883 07d7 75696E74 		.ascii	"uint32_t\000"
 2883      33325F74 
 2883      00
 2884              	.LASF129:
 2885 07e0 6368616E 		.ascii	"chan\000"
 2885      00
 2886              	.LASF106:
 2887 07e5 6368616E 		.ascii	"chanSwapEnable\000"
 2887      53776170 
ARM GAS  C:\Users\ikomb\AppData\Local\Temp\ccmrmnRc.s 			page 74


 2887      456E6162 
 2887      6C6500
 2888              	.LASF83:
 2889 07f4 43595F50 		.ascii	"CY_PDM_PCM_GAIN_6_DB\000"
 2889      444D5F50 
 2889      434D5F47 
 2889      41494E5F 
 2889      365F4442 
 2890              	.LASF90:
 2891 0809 43595F50 		.ascii	"CY_PDM_PCM_SOFT_MUTE_CYCLES_128\000"
 2891      444D5F50 
 2891      434D5F53 
 2891      4F46545F 
 2891      4D555445 
 2892              	.LASF38:
 2893 0829 6C6F6E67 		.ascii	"long double\000"
 2893      20646F75 
 2893      626C6500 
 2894              	.LASF35:
 2895 0835 63686172 		.ascii	"char\000"
 2895      00
 2896              	.LASF50:
 2897 083a 6D6F6465 		.ascii	"mode\000"
 2897      00
 2898              	.LASF24:
 2899 083f 52585F46 		.ascii	"RX_FIFO_CTL\000"
 2899      49464F5F 
 2899      43544C00 
 2900              	.LASF126:
 2901 084b 636F6E66 		.ascii	"config\000"
 2901      696700
 2902              	.LASF104:
 2903 0852 73696E63 		.ascii	"sincDecRate\000"
 2903      44656352 
 2903      61746500 
 2904              	.LASF57:
 2905 085e 43595F50 		.ascii	"CY_PDM_PCM_WLEN_24_BIT\000"
 2905      444D5F50 
 2905      434D5F57 
 2905      4C454E5F 
 2905      32345F42 
 2906              	.LASF5:
 2907 0875 5F5F696E 		.ascii	"__int32_t\000"
 2907      7433325F 
 2907      7400
 2908              	.LASF25:
 2909 087f 52585F46 		.ascii	"RX_FIFO_STATUS\000"
 2909      49464F5F 
 2909      53544154 
 2909      555300
 2910              	.LASF46:
 2911 088e 43595F53 		.ascii	"CY_SYSPM_CHECK_FAIL\000"
 2911      5953504D 
 2911      5F434845 
 2911      434B5F46 
 2911      41494C00 
 2912              	.LASF52:
ARM GAS  C:\Users\ikomb\AppData\Local\Temp\ccmrmnRc.s 			page 75


 2913 08a2 636F6E74 		.ascii	"context\000"
 2913      65787400 
 2914              	.LASF103:
 2915 08aa 636B6F44 		.ascii	"ckoDelay\000"
 2915      656C6179 
 2915      00
 2916              	.LASF71:
 2917 08b3 43595F50 		.ascii	"CY_PDM_PCM_ATTN_12_DB\000"
 2917      444D5F50 
 2917      434D5F41 
 2917      54544E5F 
 2917      31325F44 
 2918              	.LASF43:
 2919 08c9 43595F53 		.ascii	"CY_SYSPM_FAIL\000"
 2919      5953504D 
 2919      5F464149 
 2919      4C00
 2920              	.LASF55:
 2921 08d7 43595F50 		.ascii	"CY_PDM_PCM_WLEN_18_BIT\000"
 2921      444D5F50 
 2921      434D5F57 
 2921      4C454E5F 
 2921      31385F42 
 2922              	.LASF125:
 2923 08ee 43795F50 		.ascii	"Cy_PDM_PCM_ClearFifo\000"
 2923      444D5F50 
 2923      434D5F43 
 2923      6C656172 
 2923      4669666F 
 2924              	.LASF95:
 2925 0903 43595F50 		.ascii	"CY_PDM_PCM_SOFT_MUTE_CYCLES_512\000"
 2925      444D5F50 
 2925      434D5F53 
 2925      4F46545F 
 2925      4D555445 
 2926              	.LASF136:
 2927 0923 47656E65 		.ascii	"Generated_Source\\PSoC6\\pdl\\drivers\\peripheral\\"
 2927      72617465 
 2927      645F536F 
 2927      75726365 
 2927      5C50536F 
 2928 0951 70646D5F 		.ascii	"pdm_pcm\\cy_pdm_pcm.c\000"
 2928      70636D5C 
 2928      63795F70 
 2928      646D5F70 
 2928      636D2E63 
 2929              	.LASF84:
 2930 0966 43595F50 		.ascii	"CY_PDM_PCM_GAIN_7_5_DB\000"
 2930      444D5F50 
 2930      434D5F47 
 2930      41494E5F 
 2930      375F355F 
 2931              	.LASF12:
 2932 097d 75696E74 		.ascii	"uint8_t\000"
 2932      385F7400 
 2933              	.LASF122:
 2934 0985 43795F50 		.ascii	"Cy_PDM_PCM_Disable\000"
ARM GAS  C:\Users\ikomb\AppData\Local\Temp\ccmrmnRc.s 			page 76


 2934      444D5F50 
 2934      434D5F44 
 2934      69736162 
 2934      6C6500
 2935              	.LASF31:
 2936 0998 494E5452 		.ascii	"INTR_MASK\000"
 2936      5F4D4153 
 2936      4B00
 2937              	.LASF39:
 2938 09a2 43595F53 		.ascii	"CY_SYSPM_SUCCESS\000"
 2938      5953504D 
 2938      5F535543 
 2938      43455353 
 2938      00
 2939              	.LASF45:
 2940 09b3 43595F53 		.ascii	"CY_SYSPM_CHECK_READY\000"
 2940      5953504D 
 2940      5F434845 
 2940      434B5F52 
 2940      45414459 
 2941              	.LASF89:
 2942 09c8 43595F50 		.ascii	"CY_PDM_PCM_SOFT_MUTE_CYCLES_96\000"
 2942      444D5F50 
 2942      434D5F53 
 2942      4F46545F 
 2942      4D555445 
 2943              	.LASF123:
 2944 09e7 43795F50 		.ascii	"Cy_PDM_PCM_SetInterruptMask\000"
 2944      444D5F50 
 2944      434D5F53 
 2944      6574496E 
 2944      74657272 
 2945              	.LASF44:
 2946 0a03 63795F65 		.ascii	"cy_en_syspm_status_t\000"
 2946      6E5F7379 
 2946      73706D5F 
 2946      73746174 
 2946      75735F74 
 2947              	.LASF33:
 2948 0a18 50444D5F 		.ascii	"PDM_Type\000"
 2948      54797065 
 2948      00
 2949              	.LASF93:
 2950 0a21 43595F50 		.ascii	"CY_PDM_PCM_SOFT_MUTE_CYCLES_256\000"
 2950      444D5F50 
 2950      434D5F53 
 2950      4F46545F 
 2950      4D555445 
 2951              	.LASF132:
 2952 0a41 43795F50 		.ascii	"Cy_PDM_PCM_GetGain\000"
 2952      444D5F50 
 2952      434D5F47 
 2952      65744761 
 2952      696E00
 2953              	.LASF70:
 2954 0a54 63795F65 		.ascii	"cy_en_pdm_pcm_chan_select_t\000"
 2954      6E5F7064 
ARM GAS  C:\Users\ikomb\AppData\Local\Temp\ccmrmnRc.s 			page 77


 2954      6D5F7063 
 2954      6D5F6368 
 2954      616E5F73 
 2955              		.ident	"GCC: (GNU Tools for ARM Embedded Processors) 5.4.1 20160609 (release) [ARM/embedded-5-bran
