ARM GAS  C:\Users\ikomb\AppData\Local\Temp\ccmrmnRc.s 			page 1


   1              		.syntax unified
   2              		.cpu cortex-m4
   3              		.eabi_attribute 27, 1
   4              		.fpu fpv4-sp-d16
   5              		.eabi_attribute 20, 1
   6              		.eabi_attribute 21, 1
   7              		.eabi_attribute 23, 3
   8              		.eabi_attribute 24, 1
   9              		.eabi_attribute 25, 1
  10              		.eabi_attribute 26, 1
  11              		.eabi_attribute 30, 6
  12              		.eabi_attribute 34, 1
  13              		.eabi_attribute 18, 4
  14              		.thumb
  15              		.syntax unified
  16              		.file	"cy_pdm_pcm.c"
  17              		.text
  18              	.Ltext0:
  19              		.cfi_sections	.debug_frame
  20              		.section	.text.Cy_PDM_PCM_Enable,"ax",%progbits
  21              		.align	2
  22              		.thumb
  23              		.thumb_func
  24              		.type	Cy_PDM_PCM_Enable, %function
  25              	Cy_PDM_PCM_Enable:
  26              	.LFB158:
  27              		.file 1 "Generated_Source\\PSoC6\\pdl\\drivers\\peripheral\\pdm_pcm\\cy_pdm_pcm.h"
   1:Generated_Source\PSoC6\pdl\drivers\peripheral\pdm_pcm/cy_pdm_pcm.h **** /***************************************************************************//**
   2:Generated_Source\PSoC6\pdl\drivers\peripheral\pdm_pcm/cy_pdm_pcm.h **** * \file cy_pdm_pcm.h
   3:Generated_Source\PSoC6\pdl\drivers\peripheral\pdm_pcm/cy_pdm_pcm.h **** * \version 2.10
   4:Generated_Source\PSoC6\pdl\drivers\peripheral\pdm_pcm/cy_pdm_pcm.h **** *
   5:Generated_Source\PSoC6\pdl\drivers\peripheral\pdm_pcm/cy_pdm_pcm.h **** * The header file of the PDM_PCM driver.
   6:Generated_Source\PSoC6\pdl\drivers\peripheral\pdm_pcm/cy_pdm_pcm.h **** *
   7:Generated_Source\PSoC6\pdl\drivers\peripheral\pdm_pcm/cy_pdm_pcm.h **** ********************************************************************************
   8:Generated_Source\PSoC6\pdl\drivers\peripheral\pdm_pcm/cy_pdm_pcm.h **** * \copyright
   9:Generated_Source\PSoC6\pdl\drivers\peripheral\pdm_pcm/cy_pdm_pcm.h **** * Copyright 2016-2018, Cypress Semiconductor Corporation. All rights reserved.
  10:Generated_Source\PSoC6\pdl\drivers\peripheral\pdm_pcm/cy_pdm_pcm.h **** * You may use this file only in accordance with the license, terms, conditions,
  11:Generated_Source\PSoC6\pdl\drivers\peripheral\pdm_pcm/cy_pdm_pcm.h **** * disclaimers, and limitations in the end user license agreement accompanying
  12:Generated_Source\PSoC6\pdl\drivers\peripheral\pdm_pcm/cy_pdm_pcm.h **** * the software package with which this file was provided.
  13:Generated_Source\PSoC6\pdl\drivers\peripheral\pdm_pcm/cy_pdm_pcm.h **** *******************************************************************************/
  14:Generated_Source\PSoC6\pdl\drivers\peripheral\pdm_pcm/cy_pdm_pcm.h **** 
  15:Generated_Source\PSoC6\pdl\drivers\peripheral\pdm_pcm/cy_pdm_pcm.h **** /**
  16:Generated_Source\PSoC6\pdl\drivers\peripheral\pdm_pcm/cy_pdm_pcm.h **** * \defgroup group_pdm_pcm PDM-PCM Converter (PDM_PCM)
  17:Generated_Source\PSoC6\pdl\drivers\peripheral\pdm_pcm/cy_pdm_pcm.h **** * \{
  18:Generated_Source\PSoC6\pdl\drivers\peripheral\pdm_pcm/cy_pdm_pcm.h **** *
  19:Generated_Source\PSoC6\pdl\drivers\peripheral\pdm_pcm/cy_pdm_pcm.h **** * The pulse-density modulation to pulse-code modulation (PDM-PCM) driver provides an
  20:Generated_Source\PSoC6\pdl\drivers\peripheral\pdm_pcm/cy_pdm_pcm.h **** * API to manage PDM-PCM conversion. A PDM-PCM converter is used
  21:Generated_Source\PSoC6\pdl\drivers\peripheral\pdm_pcm/cy_pdm_pcm.h **** * to convert 1-bit digital audio streaming data to PCM data.
  22:Generated_Source\PSoC6\pdl\drivers\peripheral\pdm_pcm/cy_pdm_pcm.h **** *
  23:Generated_Source\PSoC6\pdl\drivers\peripheral\pdm_pcm/cy_pdm_pcm.h **** * Features:
  24:Generated_Source\PSoC6\pdl\drivers\peripheral\pdm_pcm/cy_pdm_pcm.h **** * * Supports FIFO buffer for Incoming Data
  25:Generated_Source\PSoC6\pdl\drivers\peripheral\pdm_pcm/cy_pdm_pcm.h **** * * Supports Software Mute Mode
  26:Generated_Source\PSoC6\pdl\drivers\peripheral\pdm_pcm/cy_pdm_pcm.h **** * * Programmable Gain Settings
  27:Generated_Source\PSoC6\pdl\drivers\peripheral\pdm_pcm/cy_pdm_pcm.h **** * * Programmable Word Length
  28:Generated_Source\PSoC6\pdl\drivers\peripheral\pdm_pcm/cy_pdm_pcm.h **** *
  29:Generated_Source\PSoC6\pdl\drivers\peripheral\pdm_pcm/cy_pdm_pcm.h **** * Pulse-density modulation, or PDM, represents
  30:Generated_Source\PSoC6\pdl\drivers\peripheral\pdm_pcm/cy_pdm_pcm.h **** * an analog signal with a binary signal. In a PDM signal, specific amplitude values
ARM GAS  C:\Users\ikomb\AppData\Local\Temp\ccmrmnRc.s 			page 2


  31:Generated_Source\PSoC6\pdl\drivers\peripheral\pdm_pcm/cy_pdm_pcm.h **** * are not encoded into codewords of pulses of different weight as they would be
  32:Generated_Source\PSoC6\pdl\drivers\peripheral\pdm_pcm/cy_pdm_pcm.h **** * in pulse-code modulation (PCM); rather, the relative density of the pulses corresponds
  33:Generated_Source\PSoC6\pdl\drivers\peripheral\pdm_pcm/cy_pdm_pcm.h **** * to the analog signal's amplitude. The output of a 1-bit DAC is the same
  34:Generated_Source\PSoC6\pdl\drivers\peripheral\pdm_pcm/cy_pdm_pcm.h **** * as the PDM encoding of the signal.
  35:Generated_Source\PSoC6\pdl\drivers\peripheral\pdm_pcm/cy_pdm_pcm.h **** *
  36:Generated_Source\PSoC6\pdl\drivers\peripheral\pdm_pcm/cy_pdm_pcm.h **** * Pulse-code modulation (PCM) is the method used to digitally represent sampled analog signals.
  37:Generated_Source\PSoC6\pdl\drivers\peripheral\pdm_pcm/cy_pdm_pcm.h **** * It is the standard form of digital audio in computers, compact discs, digital telephony,
  38:Generated_Source\PSoC6\pdl\drivers\peripheral\pdm_pcm/cy_pdm_pcm.h **** * and other digital audio applications. In a PCM stream, the amplitude of the analog signal
  39:Generated_Source\PSoC6\pdl\drivers\peripheral\pdm_pcm/cy_pdm_pcm.h **** * is sampled regularly at uniform intervals, and each sample is quantized
  40:Generated_Source\PSoC6\pdl\drivers\peripheral\pdm_pcm/cy_pdm_pcm.h **** * to the nearest value within a range of digital steps.
  41:Generated_Source\PSoC6\pdl\drivers\peripheral\pdm_pcm/cy_pdm_pcm.h **** *
  42:Generated_Source\PSoC6\pdl\drivers\peripheral\pdm_pcm/cy_pdm_pcm.h **** * \section group_pdm_pcm_configuration_considerations Configuration Considerations
  43:Generated_Source\PSoC6\pdl\drivers\peripheral\pdm_pcm/cy_pdm_pcm.h **** *
  44:Generated_Source\PSoC6\pdl\drivers\peripheral\pdm_pcm/cy_pdm_pcm.h **** * To set up a PDM-PCM, provide the configuration parameters in the
  45:Generated_Source\PSoC6\pdl\drivers\peripheral\pdm_pcm/cy_pdm_pcm.h **** * \ref cy_stc_pdm_pcm_config_t structure.
  46:Generated_Source\PSoC6\pdl\drivers\peripheral\pdm_pcm/cy_pdm_pcm.h **** *
  47:Generated_Source\PSoC6\pdl\drivers\peripheral\pdm_pcm/cy_pdm_pcm.h **** * For example, set dataStreamingEnable to true, configure rxFifoTriggerLevel,
  48:Generated_Source\PSoC6\pdl\drivers\peripheral\pdm_pcm/cy_pdm_pcm.h **** * dmaTriggerEnable (depending on whether DMA is going to be used),
  49:Generated_Source\PSoC6\pdl\drivers\peripheral\pdm_pcm/cy_pdm_pcm.h **** * provide clock settings (clkDiv, mclkDiv and ckoDiv), set sincDecRate
  50:Generated_Source\PSoC6\pdl\drivers\peripheral\pdm_pcm/cy_pdm_pcm.h **** * to the appropriate decimation rate, wordLen, and wordBitExtension.
  51:Generated_Source\PSoC6\pdl\drivers\peripheral\pdm_pcm/cy_pdm_pcm.h **** * No other parameters are necessary for this example.
  52:Generated_Source\PSoC6\pdl\drivers\peripheral\pdm_pcm/cy_pdm_pcm.h **** *
  53:Generated_Source\PSoC6\pdl\drivers\peripheral\pdm_pcm/cy_pdm_pcm.h **** * To initialize the PDM-PCM block, call the \ref Cy_PDM_PCM_Init function, providing the
  54:Generated_Source\PSoC6\pdl\drivers\peripheral\pdm_pcm/cy_pdm_pcm.h **** * filled \ref cy_stc_pdm_pcm_config_t structure.
  55:Generated_Source\PSoC6\pdl\drivers\peripheral\pdm_pcm/cy_pdm_pcm.h **** *
  56:Generated_Source\PSoC6\pdl\drivers\peripheral\pdm_pcm/cy_pdm_pcm.h **** * If you use a DMA, the DMA channel should be previously configured. PDM-PCM interrupts
  57:Generated_Source\PSoC6\pdl\drivers\peripheral\pdm_pcm/cy_pdm_pcm.h **** * (if applicable) can be enabled by calling \ref Cy_PDM_PCM_SetInterruptMask.
  58:Generated_Source\PSoC6\pdl\drivers\peripheral\pdm_pcm/cy_pdm_pcm.h **** *
  59:Generated_Source\PSoC6\pdl\drivers\peripheral\pdm_pcm/cy_pdm_pcm.h **** * For example, if the trigger interrupt is used during operation, the ISR
  60:Generated_Source\PSoC6\pdl\drivers\peripheral\pdm_pcm/cy_pdm_pcm.h **** * should call the \ref Cy_PDM_PCM_ReadFifo as many times as required for your
  61:Generated_Source\PSoC6\pdl\drivers\peripheral\pdm_pcm/cy_pdm_pcm.h **** * FIFO payload. Then call \ref Cy_PDM_PCM_ClearInterrupt with appropriate parameters.
  62:Generated_Source\PSoC6\pdl\drivers\peripheral\pdm_pcm/cy_pdm_pcm.h **** *
  63:Generated_Source\PSoC6\pdl\drivers\peripheral\pdm_pcm/cy_pdm_pcm.h **** * If a DMA is used and the DMA channel is properly configured, no CPU activity
  64:Generated_Source\PSoC6\pdl\drivers\peripheral\pdm_pcm/cy_pdm_pcm.h **** * (or application code) is needed for PDM-PCM operation.
  65:Generated_Source\PSoC6\pdl\drivers\peripheral\pdm_pcm/cy_pdm_pcm.h **** *
  66:Generated_Source\PSoC6\pdl\drivers\peripheral\pdm_pcm/cy_pdm_pcm.h **** * \section group_pdm_pcm_more_information More Information
  67:Generated_Source\PSoC6\pdl\drivers\peripheral\pdm_pcm/cy_pdm_pcm.h **** * See: the PDM-PCM chapter of the device technical reference manual (TRM);
  68:Generated_Source\PSoC6\pdl\drivers\peripheral\pdm_pcm/cy_pdm_pcm.h **** *      the PDM_PCM_PDL Component datasheet;
  69:Generated_Source\PSoC6\pdl\drivers\peripheral\pdm_pcm/cy_pdm_pcm.h **** *      CE219431 - PSOC 6 MCU PDM-TO-PCM EXAMPLE.
  70:Generated_Source\PSoC6\pdl\drivers\peripheral\pdm_pcm/cy_pdm_pcm.h **** *
  71:Generated_Source\PSoC6\pdl\drivers\peripheral\pdm_pcm/cy_pdm_pcm.h **** * \section group_pdm_pcm_MISRA MISRA-C Compliance
  72:Generated_Source\PSoC6\pdl\drivers\peripheral\pdm_pcm/cy_pdm_pcm.h **** * The PDM-PCM driver has the following specific deviations:
  73:Generated_Source\PSoC6\pdl\drivers\peripheral\pdm_pcm/cy_pdm_pcm.h **** * <table class="doxtable">
  74:Generated_Source\PSoC6\pdl\drivers\peripheral\pdm_pcm/cy_pdm_pcm.h **** *   <tr>
  75:Generated_Source\PSoC6\pdl\drivers\peripheral\pdm_pcm/cy_pdm_pcm.h **** *     <th>MISRA Rule</th>
  76:Generated_Source\PSoC6\pdl\drivers\peripheral\pdm_pcm/cy_pdm_pcm.h **** *     <th>Rule Class (Required/Advisory)</th>
  77:Generated_Source\PSoC6\pdl\drivers\peripheral\pdm_pcm/cy_pdm_pcm.h **** *     <th>Rule Description</th>
  78:Generated_Source\PSoC6\pdl\drivers\peripheral\pdm_pcm/cy_pdm_pcm.h **** *     <th>Description of Deviation(s)</th>
  79:Generated_Source\PSoC6\pdl\drivers\peripheral\pdm_pcm/cy_pdm_pcm.h **** *   </tr>
  80:Generated_Source\PSoC6\pdl\drivers\peripheral\pdm_pcm/cy_pdm_pcm.h **** *   <tr>
  81:Generated_Source\PSoC6\pdl\drivers\peripheral\pdm_pcm/cy_pdm_pcm.h **** *     <td>10.3</td>
  82:Generated_Source\PSoC6\pdl\drivers\peripheral\pdm_pcm/cy_pdm_pcm.h **** *     <td>R</td>
  83:Generated_Source\PSoC6\pdl\drivers\peripheral\pdm_pcm/cy_pdm_pcm.h **** *     <td>A composite expression of the "essentially unsigned" type is
  84:Generated_Source\PSoC6\pdl\drivers\peripheral\pdm_pcm/cy_pdm_pcm.h **** *         cast to a different type category.</td>
  85:Generated_Source\PSoC6\pdl\drivers\peripheral\pdm_pcm/cy_pdm_pcm.h **** *     <td>The value got from the bitfield physically can't exceed the enumeration
  86:Generated_Source\PSoC6\pdl\drivers\peripheral\pdm_pcm/cy_pdm_pcm.h **** *         that describes this bitfield. So the code is safe by design.</td>
  87:Generated_Source\PSoC6\pdl\drivers\peripheral\pdm_pcm/cy_pdm_pcm.h **** *   </tr>
ARM GAS  C:\Users\ikomb\AppData\Local\Temp\ccmrmnRc.s 			page 3


  88:Generated_Source\PSoC6\pdl\drivers\peripheral\pdm_pcm/cy_pdm_pcm.h **** *   <tr>
  89:Generated_Source\PSoC6\pdl\drivers\peripheral\pdm_pcm/cy_pdm_pcm.h **** *     <td>11.4</td>
  90:Generated_Source\PSoC6\pdl\drivers\peripheral\pdm_pcm/cy_pdm_pcm.h **** *     <td>A</td>
  91:Generated_Source\PSoC6\pdl\drivers\peripheral\pdm_pcm/cy_pdm_pcm.h **** *     <td>A cast should not be performed between a pointer to the object type and
  92:Generated_Source\PSoC6\pdl\drivers\peripheral\pdm_pcm/cy_pdm_pcm.h **** *         a different pointer to the object type.</td>
  93:Generated_Source\PSoC6\pdl\drivers\peripheral\pdm_pcm/cy_pdm_pcm.h **** *     <td>The function \ref Cy_I2S_DeepSleepCallback is a callback of
  94:Generated_Source\PSoC6\pdl\drivers\peripheral\pdm_pcm/cy_pdm_pcm.h **** *         \ref cy_en_syspm_status_t type. The cast operation safety in this
  95:Generated_Source\PSoC6\pdl\drivers\peripheral\pdm_pcm/cy_pdm_pcm.h **** *         function becomes the user responsibility because the pointer is
  96:Generated_Source\PSoC6\pdl\drivers\peripheral\pdm_pcm/cy_pdm_pcm.h **** *         initialized when a callback is registered in SysPm driver.</td>
  97:Generated_Source\PSoC6\pdl\drivers\peripheral\pdm_pcm/cy_pdm_pcm.h **** *   </tr>
  98:Generated_Source\PSoC6\pdl\drivers\peripheral\pdm_pcm/cy_pdm_pcm.h **** * </table>
  99:Generated_Source\PSoC6\pdl\drivers\peripheral\pdm_pcm/cy_pdm_pcm.h **** *
 100:Generated_Source\PSoC6\pdl\drivers\peripheral\pdm_pcm/cy_pdm_pcm.h **** * \section group_pdm_pcm_changelog Changelog
 101:Generated_Source\PSoC6\pdl\drivers\peripheral\pdm_pcm/cy_pdm_pcm.h **** * <table class="doxtable">
 102:Generated_Source\PSoC6\pdl\drivers\peripheral\pdm_pcm/cy_pdm_pcm.h **** *   <tr><th>Version</th><th>Changes</th><th>Reason for Change</th></tr>
 103:Generated_Source\PSoC6\pdl\drivers\peripheral\pdm_pcm/cy_pdm_pcm.h **** *   <tr>
 104:Generated_Source\PSoC6\pdl\drivers\peripheral\pdm_pcm/cy_pdm_pcm.h **** *     <td>2.10</td>
 105:Generated_Source\PSoC6\pdl\drivers\peripheral\pdm_pcm/cy_pdm_pcm.h **** *     <td>The gain values in range +4.5...+10.5dB (5 items) of /ref cy_en_pdm_pcm_gain_t are correc
 106:Generated_Source\PSoC6\pdl\drivers\peripheral\pdm_pcm/cy_pdm_pcm.h **** *         Added Low Power Callback section.</td>
 107:Generated_Source\PSoC6\pdl\drivers\peripheral\pdm_pcm/cy_pdm_pcm.h **** *     <td>Incorrect setting of gain values in limited range.
 108:Generated_Source\PSoC6\pdl\drivers\peripheral\pdm_pcm/cy_pdm_pcm.h **** *         Documentation update and clarification.</td>
 109:Generated_Source\PSoC6\pdl\drivers\peripheral\pdm_pcm/cy_pdm_pcm.h **** *   </tr>
 110:Generated_Source\PSoC6\pdl\drivers\peripheral\pdm_pcm/cy_pdm_pcm.h **** *   <tr>
 111:Generated_Source\PSoC6\pdl\drivers\peripheral\pdm_pcm/cy_pdm_pcm.h **** *     <td>2.0</td>
 112:Generated_Source\PSoC6\pdl\drivers\peripheral\pdm_pcm/cy_pdm_pcm.h **** *     <td>Enumeration types for gain and soft mute cycles are added.<br>
 113:Generated_Source\PSoC6\pdl\drivers\peripheral\pdm_pcm/cy_pdm_pcm.h **** *         Function parameter checks are added.<br>        
 114:Generated_Source\PSoC6\pdl\drivers\peripheral\pdm_pcm/cy_pdm_pcm.h **** *         The next functions are removed:
 115:Generated_Source\PSoC6\pdl\drivers\peripheral\pdm_pcm/cy_pdm_pcm.h **** *         * Cy_PDM_PCM_EnterLowPowerCallback
 116:Generated_Source\PSoC6\pdl\drivers\peripheral\pdm_pcm/cy_pdm_pcm.h **** *         * Cy_PDM_PCM_ExitLowPowerCallback
 117:Generated_Source\PSoC6\pdl\drivers\peripheral\pdm_pcm/cy_pdm_pcm.h **** *         * Cy_PDM_PCM_EnableDataStream
 118:Generated_Source\PSoC6\pdl\drivers\peripheral\pdm_pcm/cy_pdm_pcm.h **** *         * Cy_PDM_PCM_DisableDataStream
 119:Generated_Source\PSoC6\pdl\drivers\peripheral\pdm_pcm/cy_pdm_pcm.h **** *         * Cy_PDM_PCM_SetFifoLevel
 120:Generated_Source\PSoC6\pdl\drivers\peripheral\pdm_pcm/cy_pdm_pcm.h **** *         * Cy_PDM_PCM_GetFifoLevel
 121:Generated_Source\PSoC6\pdl\drivers\peripheral\pdm_pcm/cy_pdm_pcm.h **** *         * Cy_PDM_PCM_EnableDmaRequest
 122:Generated_Source\PSoC6\pdl\drivers\peripheral\pdm_pcm/cy_pdm_pcm.h **** *         * Cy_PDM_PCM_DisableDmaRequest
 123:Generated_Source\PSoC6\pdl\drivers\peripheral\pdm_pcm/cy_pdm_pcm.h **** *
 124:Generated_Source\PSoC6\pdl\drivers\peripheral\pdm_pcm/cy_pdm_pcm.h **** *         The next functions behaviour are modified:
 125:Generated_Source\PSoC6\pdl\drivers\peripheral\pdm_pcm/cy_pdm_pcm.h **** *         * Cy_PDM_PCM_Enable
 126:Generated_Source\PSoC6\pdl\drivers\peripheral\pdm_pcm/cy_pdm_pcm.h **** *         * Cy_PDM_PCM_Disable
 127:Generated_Source\PSoC6\pdl\drivers\peripheral\pdm_pcm/cy_pdm_pcm.h **** *         * Cy_PDM_PCM_SetInterruptMask
 128:Generated_Source\PSoC6\pdl\drivers\peripheral\pdm_pcm/cy_pdm_pcm.h **** *         * Cy_PDM_PCM_GetInterruptMask
 129:Generated_Source\PSoC6\pdl\drivers\peripheral\pdm_pcm/cy_pdm_pcm.h **** *         * Cy_PDM_PCM_GetInterruptStatusMasked
 130:Generated_Source\PSoC6\pdl\drivers\peripheral\pdm_pcm/cy_pdm_pcm.h **** *         * Cy_PDM_PCM_GetInterruptStatus
 131:Generated_Source\PSoC6\pdl\drivers\peripheral\pdm_pcm/cy_pdm_pcm.h **** *         * Cy_PDM_PCM_ClearInterrupt
 132:Generated_Source\PSoC6\pdl\drivers\peripheral\pdm_pcm/cy_pdm_pcm.h **** *         * Cy_PDM_PCM_SetInterrupt
 133:Generated_Source\PSoC6\pdl\drivers\peripheral\pdm_pcm/cy_pdm_pcm.h **** *
 134:Generated_Source\PSoC6\pdl\drivers\peripheral\pdm_pcm/cy_pdm_pcm.h **** *         The Cy_PDM_PCM_GetFifoNumWords function is renamed to Cy_PDM_PCM_GetNumInFifo.<br>
 135:Generated_Source\PSoC6\pdl\drivers\peripheral\pdm_pcm/cy_pdm_pcm.h **** *         The Cy_PDM_PCM_GetCurrentState function is added.
 136:Generated_Source\PSoC6\pdl\drivers\peripheral\pdm_pcm/cy_pdm_pcm.h **** *     </td>
 137:Generated_Source\PSoC6\pdl\drivers\peripheral\pdm_pcm/cy_pdm_pcm.h **** *     <td>Improvements based on usability feedbacks.<br>
 138:Generated_Source\PSoC6\pdl\drivers\peripheral\pdm_pcm/cy_pdm_pcm.h **** *         API is reworked for consistency within the PDL.
 139:Generated_Source\PSoC6\pdl\drivers\peripheral\pdm_pcm/cy_pdm_pcm.h **** *     </td>
 140:Generated_Source\PSoC6\pdl\drivers\peripheral\pdm_pcm/cy_pdm_pcm.h **** *   </tr>
 141:Generated_Source\PSoC6\pdl\drivers\peripheral\pdm_pcm/cy_pdm_pcm.h **** *   <tr>
 142:Generated_Source\PSoC6\pdl\drivers\peripheral\pdm_pcm/cy_pdm_pcm.h **** *     <td>1.0</td>
 143:Generated_Source\PSoC6\pdl\drivers\peripheral\pdm_pcm/cy_pdm_pcm.h **** *     <td>Initial version</td>
 144:Generated_Source\PSoC6\pdl\drivers\peripheral\pdm_pcm/cy_pdm_pcm.h **** *     <td></td>
ARM GAS  C:\Users\ikomb\AppData\Local\Temp\ccmrmnRc.s 			page 4


 145:Generated_Source\PSoC6\pdl\drivers\peripheral\pdm_pcm/cy_pdm_pcm.h **** *   </tr>
 146:Generated_Source\PSoC6\pdl\drivers\peripheral\pdm_pcm/cy_pdm_pcm.h **** * </table>
 147:Generated_Source\PSoC6\pdl\drivers\peripheral\pdm_pcm/cy_pdm_pcm.h **** *
 148:Generated_Source\PSoC6\pdl\drivers\peripheral\pdm_pcm/cy_pdm_pcm.h **** * \defgroup group_pdm_pcm_macros Macros
 149:Generated_Source\PSoC6\pdl\drivers\peripheral\pdm_pcm/cy_pdm_pcm.h **** * \defgroup group_pdm_pcm_functions Functions
 150:Generated_Source\PSoC6\pdl\drivers\peripheral\pdm_pcm/cy_pdm_pcm.h **** *   \{
 151:Generated_Source\PSoC6\pdl\drivers\peripheral\pdm_pcm/cy_pdm_pcm.h **** *       \defgroup group_pdm_pcm_functions_syspm_callback  Low Power Callback
 152:Generated_Source\PSoC6\pdl\drivers\peripheral\pdm_pcm/cy_pdm_pcm.h **** *   \}
 153:Generated_Source\PSoC6\pdl\drivers\peripheral\pdm_pcm/cy_pdm_pcm.h **** * \defgroup group_pdm_pcm_data_structures Data Structures
 154:Generated_Source\PSoC6\pdl\drivers\peripheral\pdm_pcm/cy_pdm_pcm.h **** * \defgroup group_pdm_pcm_enums Enumerated Types
 155:Generated_Source\PSoC6\pdl\drivers\peripheral\pdm_pcm/cy_pdm_pcm.h **** *
 156:Generated_Source\PSoC6\pdl\drivers\peripheral\pdm_pcm/cy_pdm_pcm.h **** */
 157:Generated_Source\PSoC6\pdl\drivers\peripheral\pdm_pcm/cy_pdm_pcm.h **** 
 158:Generated_Source\PSoC6\pdl\drivers\peripheral\pdm_pcm/cy_pdm_pcm.h **** #if !defined(CY_PDM_PCM_H__)
 159:Generated_Source\PSoC6\pdl\drivers\peripheral\pdm_pcm/cy_pdm_pcm.h **** #define CY_PDM_PCM_H__
 160:Generated_Source\PSoC6\pdl\drivers\peripheral\pdm_pcm/cy_pdm_pcm.h **** 
 161:Generated_Source\PSoC6\pdl\drivers\peripheral\pdm_pcm/cy_pdm_pcm.h **** /******************************************************************************/
 162:Generated_Source\PSoC6\pdl\drivers\peripheral\pdm_pcm/cy_pdm_pcm.h **** /* Include files                                                              */
 163:Generated_Source\PSoC6\pdl\drivers\peripheral\pdm_pcm/cy_pdm_pcm.h **** /******************************************************************************/
 164:Generated_Source\PSoC6\pdl\drivers\peripheral\pdm_pcm/cy_pdm_pcm.h **** 
 165:Generated_Source\PSoC6\pdl\drivers\peripheral\pdm_pcm/cy_pdm_pcm.h **** #include "cy_device_headers.h"
 166:Generated_Source\PSoC6\pdl\drivers\peripheral\pdm_pcm/cy_pdm_pcm.h **** #include "syslib/cy_syslib.h"
 167:Generated_Source\PSoC6\pdl\drivers\peripheral\pdm_pcm/cy_pdm_pcm.h **** #include "syspm/cy_syspm.h"
 168:Generated_Source\PSoC6\pdl\drivers\peripheral\pdm_pcm/cy_pdm_pcm.h **** #include <stddef.h>
 169:Generated_Source\PSoC6\pdl\drivers\peripheral\pdm_pcm/cy_pdm_pcm.h **** #include <stdbool.h>
 170:Generated_Source\PSoC6\pdl\drivers\peripheral\pdm_pcm/cy_pdm_pcm.h **** 
 171:Generated_Source\PSoC6\pdl\drivers\peripheral\pdm_pcm/cy_pdm_pcm.h **** #ifndef CY_IP_MXAUDIOSS
 172:Generated_Source\PSoC6\pdl\drivers\peripheral\pdm_pcm/cy_pdm_pcm.h ****     #error "The PDM-PCM driver is not supported on this device"
 173:Generated_Source\PSoC6\pdl\drivers\peripheral\pdm_pcm/cy_pdm_pcm.h **** #endif
 174:Generated_Source\PSoC6\pdl\drivers\peripheral\pdm_pcm/cy_pdm_pcm.h **** 
 175:Generated_Source\PSoC6\pdl\drivers\peripheral\pdm_pcm/cy_pdm_pcm.h **** /* The C binding of definitions if building with the C++ compiler */
 176:Generated_Source\PSoC6\pdl\drivers\peripheral\pdm_pcm/cy_pdm_pcm.h **** #ifdef __cplusplus
 177:Generated_Source\PSoC6\pdl\drivers\peripheral\pdm_pcm/cy_pdm_pcm.h **** extern "C"
 178:Generated_Source\PSoC6\pdl\drivers\peripheral\pdm_pcm/cy_pdm_pcm.h **** {
 179:Generated_Source\PSoC6\pdl\drivers\peripheral\pdm_pcm/cy_pdm_pcm.h **** #endif
 180:Generated_Source\PSoC6\pdl\drivers\peripheral\pdm_pcm/cy_pdm_pcm.h **** 
 181:Generated_Source\PSoC6\pdl\drivers\peripheral\pdm_pcm/cy_pdm_pcm.h **** /******************************************************************************
 182:Generated_Source\PSoC6\pdl\drivers\peripheral\pdm_pcm/cy_pdm_pcm.h ****  * Global definitions
 183:Generated_Source\PSoC6\pdl\drivers\peripheral\pdm_pcm/cy_pdm_pcm.h ****  ******************************************************************************/
 184:Generated_Source\PSoC6\pdl\drivers\peripheral\pdm_pcm/cy_pdm_pcm.h **** 
 185:Generated_Source\PSoC6\pdl\drivers\peripheral\pdm_pcm/cy_pdm_pcm.h **** /* Macros */
 186:Generated_Source\PSoC6\pdl\drivers\peripheral\pdm_pcm/cy_pdm_pcm.h **** /**
 187:Generated_Source\PSoC6\pdl\drivers\peripheral\pdm_pcm/cy_pdm_pcm.h **** * \addtogroup group_pdm_pcm_macros
 188:Generated_Source\PSoC6\pdl\drivers\peripheral\pdm_pcm/cy_pdm_pcm.h **** * \{
 189:Generated_Source\PSoC6\pdl\drivers\peripheral\pdm_pcm/cy_pdm_pcm.h **** */
 190:Generated_Source\PSoC6\pdl\drivers\peripheral\pdm_pcm/cy_pdm_pcm.h **** 
 191:Generated_Source\PSoC6\pdl\drivers\peripheral\pdm_pcm/cy_pdm_pcm.h **** /** The driver major version */
 192:Generated_Source\PSoC6\pdl\drivers\peripheral\pdm_pcm/cy_pdm_pcm.h **** #define CY_PDM_PCM_DRV_VERSION_MAJOR       2
 193:Generated_Source\PSoC6\pdl\drivers\peripheral\pdm_pcm/cy_pdm_pcm.h **** 
 194:Generated_Source\PSoC6\pdl\drivers\peripheral\pdm_pcm/cy_pdm_pcm.h **** /** The driver minor version */
 195:Generated_Source\PSoC6\pdl\drivers\peripheral\pdm_pcm/cy_pdm_pcm.h **** #define CY_PDM_PCM_DRV_VERSION_MINOR       10
 196:Generated_Source\PSoC6\pdl\drivers\peripheral\pdm_pcm/cy_pdm_pcm.h **** 
 197:Generated_Source\PSoC6\pdl\drivers\peripheral\pdm_pcm/cy_pdm_pcm.h **** /** The PDM-PCM driver identifier */
 198:Generated_Source\PSoC6\pdl\drivers\peripheral\pdm_pcm/cy_pdm_pcm.h **** #define CY_PDM_PCM_ID                       CY_PDL_DRV_ID(0x26u)
 199:Generated_Source\PSoC6\pdl\drivers\peripheral\pdm_pcm/cy_pdm_pcm.h **** 
 200:Generated_Source\PSoC6\pdl\drivers\peripheral\pdm_pcm/cy_pdm_pcm.h **** /**
 201:Generated_Source\PSoC6\pdl\drivers\peripheral\pdm_pcm/cy_pdm_pcm.h **** * \defgroup group_pdm_pcm_macros_intrerrupt_masks Interrupt Masks
ARM GAS  C:\Users\ikomb\AppData\Local\Temp\ccmrmnRc.s 			page 5


 202:Generated_Source\PSoC6\pdl\drivers\peripheral\pdm_pcm/cy_pdm_pcm.h **** * \{
 203:Generated_Source\PSoC6\pdl\drivers\peripheral\pdm_pcm/cy_pdm_pcm.h **** */
 204:Generated_Source\PSoC6\pdl\drivers\peripheral\pdm_pcm/cy_pdm_pcm.h **** 
 205:Generated_Source\PSoC6\pdl\drivers\peripheral\pdm_pcm/cy_pdm_pcm.h **** /** Bit 16: More entries in the RX FIFO than specified by Trigger Level. */
 206:Generated_Source\PSoC6\pdl\drivers\peripheral\pdm_pcm/cy_pdm_pcm.h **** #define CY_PDM_PCM_INTR_RX_TRIGGER         (PDM_INTR_RX_TRIGGER_Msk)
 207:Generated_Source\PSoC6\pdl\drivers\peripheral\pdm_pcm/cy_pdm_pcm.h **** /** Bit 18: RX FIFO is not empty. */
 208:Generated_Source\PSoC6\pdl\drivers\peripheral\pdm_pcm/cy_pdm_pcm.h **** #define CY_PDM_PCM_INTR_RX_NOT_EMPTY       (PDM_INTR_RX_NOT_EMPTY_Msk)
 209:Generated_Source\PSoC6\pdl\drivers\peripheral\pdm_pcm/cy_pdm_pcm.h **** /** Bit 21: Attempt to write to a full RX FIFO. */
 210:Generated_Source\PSoC6\pdl\drivers\peripheral\pdm_pcm/cy_pdm_pcm.h **** #define CY_PDM_PCM_INTR_RX_OVERFLOW        (PDM_INTR_RX_OVERFLOW_Msk)
 211:Generated_Source\PSoC6\pdl\drivers\peripheral\pdm_pcm/cy_pdm_pcm.h **** /** Bit 22: Attempt to read from an empty RX FIFO. */
 212:Generated_Source\PSoC6\pdl\drivers\peripheral\pdm_pcm/cy_pdm_pcm.h **** #define CY_PDM_PCM_INTR_RX_UNDERFLOW       (PDM_INTR_RX_UNDERFLOW_Msk)
 213:Generated_Source\PSoC6\pdl\drivers\peripheral\pdm_pcm/cy_pdm_pcm.h **** 
 214:Generated_Source\PSoC6\pdl\drivers\peripheral\pdm_pcm/cy_pdm_pcm.h **** /** \} group_pdm_pcm_macros_intrerrupt_masks */
 215:Generated_Source\PSoC6\pdl\drivers\peripheral\pdm_pcm/cy_pdm_pcm.h **** 
 216:Generated_Source\PSoC6\pdl\drivers\peripheral\pdm_pcm/cy_pdm_pcm.h **** /** \} group_pdm_pcm_macros */
 217:Generated_Source\PSoC6\pdl\drivers\peripheral\pdm_pcm/cy_pdm_pcm.h **** 
 218:Generated_Source\PSoC6\pdl\drivers\peripheral\pdm_pcm/cy_pdm_pcm.h **** /**
 219:Generated_Source\PSoC6\pdl\drivers\peripheral\pdm_pcm/cy_pdm_pcm.h **** * \addtogroup group_pdm_pcm_enums
 220:Generated_Source\PSoC6\pdl\drivers\peripheral\pdm_pcm/cy_pdm_pcm.h **** * \{
 221:Generated_Source\PSoC6\pdl\drivers\peripheral\pdm_pcm/cy_pdm_pcm.h **** */
 222:Generated_Source\PSoC6\pdl\drivers\peripheral\pdm_pcm/cy_pdm_pcm.h **** 
 223:Generated_Source\PSoC6\pdl\drivers\peripheral\pdm_pcm/cy_pdm_pcm.h **** /** PDM Word Length. */
 224:Generated_Source\PSoC6\pdl\drivers\peripheral\pdm_pcm/cy_pdm_pcm.h **** typedef enum
 225:Generated_Source\PSoC6\pdl\drivers\peripheral\pdm_pcm/cy_pdm_pcm.h **** {
 226:Generated_Source\PSoC6\pdl\drivers\peripheral\pdm_pcm/cy_pdm_pcm.h ****     CY_PDM_PCM_WLEN_16_BIT     = 0U,         /**< Word length: 16 bit. */
 227:Generated_Source\PSoC6\pdl\drivers\peripheral\pdm_pcm/cy_pdm_pcm.h ****     CY_PDM_PCM_WLEN_18_BIT     = 1U,         /**< Word length: 18 bit. */
 228:Generated_Source\PSoC6\pdl\drivers\peripheral\pdm_pcm/cy_pdm_pcm.h ****     CY_PDM_PCM_WLEN_20_BIT     = 2U,         /**< Word length: 20 bit. */
 229:Generated_Source\PSoC6\pdl\drivers\peripheral\pdm_pcm/cy_pdm_pcm.h ****     CY_PDM_PCM_WLEN_24_BIT     = 3U          /**< Word length: 24 bit. */
 230:Generated_Source\PSoC6\pdl\drivers\peripheral\pdm_pcm/cy_pdm_pcm.h **** } cy_en_pdm_pcm_word_len_t;
 231:Generated_Source\PSoC6\pdl\drivers\peripheral\pdm_pcm/cy_pdm_pcm.h **** 
 232:Generated_Source\PSoC6\pdl\drivers\peripheral\pdm_pcm/cy_pdm_pcm.h **** /** PDM Clock Divider. */
 233:Generated_Source\PSoC6\pdl\drivers\peripheral\pdm_pcm/cy_pdm_pcm.h **** typedef enum
 234:Generated_Source\PSoC6\pdl\drivers\peripheral\pdm_pcm/cy_pdm_pcm.h **** {
 235:Generated_Source\PSoC6\pdl\drivers\peripheral\pdm_pcm/cy_pdm_pcm.h ****     CY_PDM_PCM_CLK_DIV_BYPASS  = 0U,         /**< Clock 1/1. */
 236:Generated_Source\PSoC6\pdl\drivers\peripheral\pdm_pcm/cy_pdm_pcm.h ****     CY_PDM_PCM_CLK_DIV_1_2     = 1U,         /**< Clock 1/2 (no 50% duty cycle). */
 237:Generated_Source\PSoC6\pdl\drivers\peripheral\pdm_pcm/cy_pdm_pcm.h ****     CY_PDM_PCM_CLK_DIV_1_3     = 2U,         /**< Clock 1/3 (no 50% duty cycle). */
 238:Generated_Source\PSoC6\pdl\drivers\peripheral\pdm_pcm/cy_pdm_pcm.h ****     CY_PDM_PCM_CLK_DIV_1_4     = 3U          /**< Clock 1/4 (no 50% duty cycle). */
 239:Generated_Source\PSoC6\pdl\drivers\peripheral\pdm_pcm/cy_pdm_pcm.h **** } cy_en_pdm_pcm_clk_div_t;
 240:Generated_Source\PSoC6\pdl\drivers\peripheral\pdm_pcm/cy_pdm_pcm.h **** 
 241:Generated_Source\PSoC6\pdl\drivers\peripheral\pdm_pcm/cy_pdm_pcm.h **** /** PDM Output Mode. */
 242:Generated_Source\PSoC6\pdl\drivers\peripheral\pdm_pcm/cy_pdm_pcm.h **** typedef enum
 243:Generated_Source\PSoC6\pdl\drivers\peripheral\pdm_pcm/cy_pdm_pcm.h **** {
 244:Generated_Source\PSoC6\pdl\drivers\peripheral\pdm_pcm/cy_pdm_pcm.h ****     CY_PDM_PCM_OUT_CHAN_LEFT   = 1U,         /**< Channel mono left. */
 245:Generated_Source\PSoC6\pdl\drivers\peripheral\pdm_pcm/cy_pdm_pcm.h ****     CY_PDM_PCM_OUT_CHAN_RIGHT  = 2U,         /**< Channel mono right. */
 246:Generated_Source\PSoC6\pdl\drivers\peripheral\pdm_pcm/cy_pdm_pcm.h ****     CY_PDM_PCM_OUT_STEREO      = 3U          /**< Channel stereo. */
 247:Generated_Source\PSoC6\pdl\drivers\peripheral\pdm_pcm/cy_pdm_pcm.h **** } cy_en_pdm_pcm_out_t;
 248:Generated_Source\PSoC6\pdl\drivers\peripheral\pdm_pcm/cy_pdm_pcm.h **** 
 249:Generated_Source\PSoC6\pdl\drivers\peripheral\pdm_pcm/cy_pdm_pcm.h **** /** PDM Channel selector. */
 250:Generated_Source\PSoC6\pdl\drivers\peripheral\pdm_pcm/cy_pdm_pcm.h **** typedef enum
 251:Generated_Source\PSoC6\pdl\drivers\peripheral\pdm_pcm/cy_pdm_pcm.h **** {
 252:Generated_Source\PSoC6\pdl\drivers\peripheral\pdm_pcm/cy_pdm_pcm.h ****     CY_PDM_PCM_CHAN_LEFT       = 0U,         /**< Channel left. */
 253:Generated_Source\PSoC6\pdl\drivers\peripheral\pdm_pcm/cy_pdm_pcm.h ****     CY_PDM_PCM_CHAN_RIGHT      = 1U          /**< Channel right. */
 254:Generated_Source\PSoC6\pdl\drivers\peripheral\pdm_pcm/cy_pdm_pcm.h **** } cy_en_pdm_pcm_chan_select_t;
 255:Generated_Source\PSoC6\pdl\drivers\peripheral\pdm_pcm/cy_pdm_pcm.h **** 
 256:Generated_Source\PSoC6\pdl\drivers\peripheral\pdm_pcm/cy_pdm_pcm.h **** /** PDM Gain. */
 257:Generated_Source\PSoC6\pdl\drivers\peripheral\pdm_pcm/cy_pdm_pcm.h **** typedef enum
 258:Generated_Source\PSoC6\pdl\drivers\peripheral\pdm_pcm/cy_pdm_pcm.h **** {
ARM GAS  C:\Users\ikomb\AppData\Local\Temp\ccmrmnRc.s 			page 6


 259:Generated_Source\PSoC6\pdl\drivers\peripheral\pdm_pcm/cy_pdm_pcm.h ****     CY_PDM_PCM_ATTN_12_DB      = 0U,         /**< -12 dB (attenuation). */
 260:Generated_Source\PSoC6\pdl\drivers\peripheral\pdm_pcm/cy_pdm_pcm.h ****     CY_PDM_PCM_ATTN_10_5_DB    = 1U,         /**< -10.5 dB (attenuation). */
 261:Generated_Source\PSoC6\pdl\drivers\peripheral\pdm_pcm/cy_pdm_pcm.h ****     CY_PDM_PCM_ATTN_9_DB       = 2U,         /**< -9 dB (attenuation). */
 262:Generated_Source\PSoC6\pdl\drivers\peripheral\pdm_pcm/cy_pdm_pcm.h ****     CY_PDM_PCM_ATTN_7_5_DB     = 3U,         /**< -7.5 dB (attenuation). */
 263:Generated_Source\PSoC6\pdl\drivers\peripheral\pdm_pcm/cy_pdm_pcm.h ****     CY_PDM_PCM_ATTN_6_DB       = 4U,         /**< -6 dB (attenuation). */
 264:Generated_Source\PSoC6\pdl\drivers\peripheral\pdm_pcm/cy_pdm_pcm.h ****     CY_PDM_PCM_ATTN_4_5_DB     = 5U,         /**< -4.5 dB (attenuation). */
 265:Generated_Source\PSoC6\pdl\drivers\peripheral\pdm_pcm/cy_pdm_pcm.h ****     CY_PDM_PCM_ATTN_3_DB       = 6U,         /**< -3 dB (attenuation). */
 266:Generated_Source\PSoC6\pdl\drivers\peripheral\pdm_pcm/cy_pdm_pcm.h ****     CY_PDM_PCM_ATTN_1_5_DB     = 7U,         /**< -1.5 dB (attenuation). */
 267:Generated_Source\PSoC6\pdl\drivers\peripheral\pdm_pcm/cy_pdm_pcm.h ****     CY_PDM_PCM_BYPASS          = 8U,         /**< 0 dB (bypass). */
 268:Generated_Source\PSoC6\pdl\drivers\peripheral\pdm_pcm/cy_pdm_pcm.h ****     CY_PDM_PCM_GAIN_1_5_DB     = 9U,         /**< +1.5 dB (amplification). */
 269:Generated_Source\PSoC6\pdl\drivers\peripheral\pdm_pcm/cy_pdm_pcm.h ****     CY_PDM_PCM_GAIN_3_DB       = 10U,        /**< +3 dB (amplification). */
 270:Generated_Source\PSoC6\pdl\drivers\peripheral\pdm_pcm/cy_pdm_pcm.h ****     CY_PDM_PCM_GAIN_4_5_DB     = 11U,        /**< +4.5 dB (amplification). */
 271:Generated_Source\PSoC6\pdl\drivers\peripheral\pdm_pcm/cy_pdm_pcm.h ****     CY_PDM_PCM_GAIN_6_DB       = 12U,        /**< +6 dB (amplification). */
 272:Generated_Source\PSoC6\pdl\drivers\peripheral\pdm_pcm/cy_pdm_pcm.h ****     CY_PDM_PCM_GAIN_7_5_DB     = 13U,        /**< +7.5 dB (amplification). */
 273:Generated_Source\PSoC6\pdl\drivers\peripheral\pdm_pcm/cy_pdm_pcm.h ****     CY_PDM_PCM_GAIN_9_DB       = 14U,        /**< +9 dB (amplification). */
 274:Generated_Source\PSoC6\pdl\drivers\peripheral\pdm_pcm/cy_pdm_pcm.h ****     CY_PDM_PCM_GAIN_10_5_DB    = 15U         /**< +10.5 dB (amplification). */
 275:Generated_Source\PSoC6\pdl\drivers\peripheral\pdm_pcm/cy_pdm_pcm.h **** } cy_en_pdm_pcm_gain_t;
 276:Generated_Source\PSoC6\pdl\drivers\peripheral\pdm_pcm/cy_pdm_pcm.h **** 
 277:Generated_Source\PSoC6\pdl\drivers\peripheral\pdm_pcm/cy_pdm_pcm.h **** 
 278:Generated_Source\PSoC6\pdl\drivers\peripheral\pdm_pcm/cy_pdm_pcm.h **** /** The time step for gain change during PGA or soft mute operation in
 279:Generated_Source\PSoC6\pdl\drivers\peripheral\pdm_pcm/cy_pdm_pcm.h ****  *  number of 1/a sampling rate. */
 280:Generated_Source\PSoC6\pdl\drivers\peripheral\pdm_pcm/cy_pdm_pcm.h **** typedef enum
 281:Generated_Source\PSoC6\pdl\drivers\peripheral\pdm_pcm/cy_pdm_pcm.h **** {
 282:Generated_Source\PSoC6\pdl\drivers\peripheral\pdm_pcm/cy_pdm_pcm.h ****     CY_PDM_PCM_SOFT_MUTE_CYCLES_64  = 0U,    /**< 64 steps. */
 283:Generated_Source\PSoC6\pdl\drivers\peripheral\pdm_pcm/cy_pdm_pcm.h ****     CY_PDM_PCM_SOFT_MUTE_CYCLES_96  = 1U,    /**< 96 steps. */
 284:Generated_Source\PSoC6\pdl\drivers\peripheral\pdm_pcm/cy_pdm_pcm.h ****     CY_PDM_PCM_SOFT_MUTE_CYCLES_128 = 2U,    /**< 128 steps. */
 285:Generated_Source\PSoC6\pdl\drivers\peripheral\pdm_pcm/cy_pdm_pcm.h ****     CY_PDM_PCM_SOFT_MUTE_CYCLES_160 = 3U,    /**< 160 steps. */
 286:Generated_Source\PSoC6\pdl\drivers\peripheral\pdm_pcm/cy_pdm_pcm.h ****     CY_PDM_PCM_SOFT_MUTE_CYCLES_192 = 4U,    /**< 192 steps. */
 287:Generated_Source\PSoC6\pdl\drivers\peripheral\pdm_pcm/cy_pdm_pcm.h ****     CY_PDM_PCM_SOFT_MUTE_CYCLES_256 = 5U,    /**< 256 steps. */
 288:Generated_Source\PSoC6\pdl\drivers\peripheral\pdm_pcm/cy_pdm_pcm.h ****     CY_PDM_PCM_SOFT_MUTE_CYCLES_384 = 6U,    /**< 384 steps. */
 289:Generated_Source\PSoC6\pdl\drivers\peripheral\pdm_pcm/cy_pdm_pcm.h ****     CY_PDM_PCM_SOFT_MUTE_CYCLES_512 = 7U     /**< 512 steps. */
 290:Generated_Source\PSoC6\pdl\drivers\peripheral\pdm_pcm/cy_pdm_pcm.h **** } cy_en_pdm_pcm_s_cycles_t;
 291:Generated_Source\PSoC6\pdl\drivers\peripheral\pdm_pcm/cy_pdm_pcm.h **** 
 292:Generated_Source\PSoC6\pdl\drivers\peripheral\pdm_pcm/cy_pdm_pcm.h **** /** The PDM-PCM status codes. */
 293:Generated_Source\PSoC6\pdl\drivers\peripheral\pdm_pcm/cy_pdm_pcm.h **** typedef enum
 294:Generated_Source\PSoC6\pdl\drivers\peripheral\pdm_pcm/cy_pdm_pcm.h **** {
 295:Generated_Source\PSoC6\pdl\drivers\peripheral\pdm_pcm/cy_pdm_pcm.h ****     CY_PDM_PCM_SUCCESS         = 0x00UL,    /**< Success status code */
 296:Generated_Source\PSoC6\pdl\drivers\peripheral\pdm_pcm/cy_pdm_pcm.h ****     CY_PDM_PCM_BAD_PARAM       = CY_PDM_PCM_ID | CY_PDL_STATUS_ERROR | 0x01UL /**< Bad parameter st
 297:Generated_Source\PSoC6\pdl\drivers\peripheral\pdm_pcm/cy_pdm_pcm.h **** } cy_en_pdm_pcm_status_t;
 298:Generated_Source\PSoC6\pdl\drivers\peripheral\pdm_pcm/cy_pdm_pcm.h **** 
 299:Generated_Source\PSoC6\pdl\drivers\peripheral\pdm_pcm/cy_pdm_pcm.h **** /** \} group_pdm_pcm_enums */
 300:Generated_Source\PSoC6\pdl\drivers\peripheral\pdm_pcm/cy_pdm_pcm.h **** 
 301:Generated_Source\PSoC6\pdl\drivers\peripheral\pdm_pcm/cy_pdm_pcm.h **** 
 302:Generated_Source\PSoC6\pdl\drivers\peripheral\pdm_pcm/cy_pdm_pcm.h **** /**
 303:Generated_Source\PSoC6\pdl\drivers\peripheral\pdm_pcm/cy_pdm_pcm.h **** * \addtogroup group_pdm_pcm_data_structures
 304:Generated_Source\PSoC6\pdl\drivers\peripheral\pdm_pcm/cy_pdm_pcm.h **** * \{
 305:Generated_Source\PSoC6\pdl\drivers\peripheral\pdm_pcm/cy_pdm_pcm.h **** */
 306:Generated_Source\PSoC6\pdl\drivers\peripheral\pdm_pcm/cy_pdm_pcm.h **** 
 307:Generated_Source\PSoC6\pdl\drivers\peripheral\pdm_pcm/cy_pdm_pcm.h **** /******************************************************************************
 308:Generated_Source\PSoC6\pdl\drivers\peripheral\pdm_pcm/cy_pdm_pcm.h ****  * Global type definitions
 309:Generated_Source\PSoC6\pdl\drivers\peripheral\pdm_pcm/cy_pdm_pcm.h ****  ******************************************************************************/
 310:Generated_Source\PSoC6\pdl\drivers\peripheral\pdm_pcm/cy_pdm_pcm.h **** 
 311:Generated_Source\PSoC6\pdl\drivers\peripheral\pdm_pcm/cy_pdm_pcm.h **** /** PDM-PCM initialization configuration */
 312:Generated_Source\PSoC6\pdl\drivers\peripheral\pdm_pcm/cy_pdm_pcm.h **** typedef struct
 313:Generated_Source\PSoC6\pdl\drivers\peripheral\pdm_pcm/cy_pdm_pcm.h **** {
 314:Generated_Source\PSoC6\pdl\drivers\peripheral\pdm_pcm/cy_pdm_pcm.h ****     cy_en_pdm_pcm_clk_div_t  clkDiv;              /**< PDM Clock Divider (1st divider), see #cy_en_
 315:Generated_Source\PSoC6\pdl\drivers\peripheral\pdm_pcm/cy_pdm_pcm.h ****                                                     This configures a frequency of PDM CLK. The con
ARM GAS  C:\Users\ikomb\AppData\Local\Temp\ccmrmnRc.s 			page 7


 316:Generated_Source\PSoC6\pdl\drivers\peripheral\pdm_pcm/cy_pdm_pcm.h ****                                                     is used to operate PDM core. I.e. the frequency
 317:Generated_Source\PSoC6\pdl\drivers\peripheral\pdm_pcm/cy_pdm_pcm.h ****                                                     MCLKQ_CLOCK_DIV register. */
 318:Generated_Source\PSoC6\pdl\drivers\peripheral\pdm_pcm/cy_pdm_pcm.h ****     cy_en_pdm_pcm_clk_div_t  mclkDiv;             /**< MCLKQ divider (2nd divider), see #cy_en_pdm_
 319:Generated_Source\PSoC6\pdl\drivers\peripheral\pdm_pcm/cy_pdm_pcm.h ****     uint8_t                  ckoDiv;              /**< PDM CKO (FPDM_CKO) clock divider (3rd divide
 320:Generated_Source\PSoC6\pdl\drivers\peripheral\pdm_pcm/cy_pdm_pcm.h ****                                                     - if CKO_CLOCK_DIV >= 1 - *F(PDM_CKO) = F(PDM_C
 321:Generated_Source\PSoC6\pdl\drivers\peripheral\pdm_pcm/cy_pdm_pcm.h ****                                                     - if CKO_CLOCK_DIV  = 0 - *F(PDM_CKO) = MCLKQ /
 322:Generated_Source\PSoC6\pdl\drivers\peripheral\pdm_pcm/cy_pdm_pcm.h ****     uint8_t                  ckoDelay;            /**< Extra PDM_CKO delay to internal sampler:
 323:Generated_Source\PSoC6\pdl\drivers\peripheral\pdm_pcm/cy_pdm_pcm.h ****                                                     - 0: Three extra PDM_CLK period advance
 324:Generated_Source\PSoC6\pdl\drivers\peripheral\pdm_pcm/cy_pdm_pcm.h ****                                                     - 1: Two extra PDM_CLK period advance
 325:Generated_Source\PSoC6\pdl\drivers\peripheral\pdm_pcm/cy_pdm_pcm.h ****                                                     - 2: One extra PDM_CLK period advance
 326:Generated_Source\PSoC6\pdl\drivers\peripheral\pdm_pcm/cy_pdm_pcm.h ****                                                     - 3: No delay
 327:Generated_Source\PSoC6\pdl\drivers\peripheral\pdm_pcm/cy_pdm_pcm.h ****                                                     - 4: One extra PDM_CLK period delay
 328:Generated_Source\PSoC6\pdl\drivers\peripheral\pdm_pcm/cy_pdm_pcm.h ****                                                     - 5: Two extra PDM_CLK period delay
 329:Generated_Source\PSoC6\pdl\drivers\peripheral\pdm_pcm/cy_pdm_pcm.h ****                                                     - 6: Three extra PDM_CLK period delay
 330:Generated_Source\PSoC6\pdl\drivers\peripheral\pdm_pcm/cy_pdm_pcm.h ****                                                     - 7: Four extra PDM_CLK clock delay */
 331:Generated_Source\PSoC6\pdl\drivers\peripheral\pdm_pcm/cy_pdm_pcm.h ****     uint8_t                  sincDecRate;         /**< F(MCLK_L_R) = Fs * 2 * sincDecRate * mclkDiv
 332:Generated_Source\PSoC6\pdl\drivers\peripheral\pdm_pcm/cy_pdm_pcm.h ****                                                     Fs is a sampling frequency, 8kHz - 48kHz */
 333:Generated_Source\PSoC6\pdl\drivers\peripheral\pdm_pcm/cy_pdm_pcm.h ****     cy_en_pdm_pcm_out_t      chanSelect;          /**< see #cy_en_pdm_pcm_out_t */
 334:Generated_Source\PSoC6\pdl\drivers\peripheral\pdm_pcm/cy_pdm_pcm.h ****     bool                     chanSwapEnable;      /**< Audio channels swapping */
 335:Generated_Source\PSoC6\pdl\drivers\peripheral\pdm_pcm/cy_pdm_pcm.h ****     uint8_t                  highPassFilterGain;  /**< High pass filter gain:
 336:Generated_Source\PSoC6\pdl\drivers\peripheral\pdm_pcm/cy_pdm_pcm.h ****                                                     H(Z) = (1 - Z^-1) / (1 - (1 - 2^highPassFilterG
 337:Generated_Source\PSoC6\pdl\drivers\peripheral\pdm_pcm/cy_pdm_pcm.h ****     bool                     highPassDisable;     /**< High pass filter disable */
 338:Generated_Source\PSoC6\pdl\drivers\peripheral\pdm_pcm/cy_pdm_pcm.h ****     cy_en_pdm_pcm_s_cycles_t softMuteCycles;      /**< The time step for gain change during PGA or 
 339:Generated_Source\PSoC6\pdl\drivers\peripheral\pdm_pcm/cy_pdm_pcm.h ****                                                     number of 1/a sampling rate, see #cy_en_pdm_pcm
 340:Generated_Source\PSoC6\pdl\drivers\peripheral\pdm_pcm/cy_pdm_pcm.h ****     uint32_t                 softMuteFineGain;    /**< Soft mute fine gain: 0 = 0.13dB, 1 = 0.26dB 
 341:Generated_Source\PSoC6\pdl\drivers\peripheral\pdm_pcm/cy_pdm_pcm.h ****     bool                     softMuteEnable;      /**< Soft mute enable */
 342:Generated_Source\PSoC6\pdl\drivers\peripheral\pdm_pcm/cy_pdm_pcm.h ****     cy_en_pdm_pcm_word_len_t wordLen;             /**< see #cy_en_pdm_pcm_word_len_t */
 343:Generated_Source\PSoC6\pdl\drivers\peripheral\pdm_pcm/cy_pdm_pcm.h ****     bool                     signExtension;       /**< Word extension type:
 344:Generated_Source\PSoC6\pdl\drivers\peripheral\pdm_pcm/cy_pdm_pcm.h ****                                                     - 0: extension by zero
 345:Generated_Source\PSoC6\pdl\drivers\peripheral\pdm_pcm/cy_pdm_pcm.h ****                                                     - 1: extension by sign bits */
 346:Generated_Source\PSoC6\pdl\drivers\peripheral\pdm_pcm/cy_pdm_pcm.h ****     cy_en_pdm_pcm_gain_t     gainLeft;            /**< Gain for left channel, see #cy_en_pdm_pcm_ga
 347:Generated_Source\PSoC6\pdl\drivers\peripheral\pdm_pcm/cy_pdm_pcm.h ****     cy_en_pdm_pcm_gain_t     gainRight;           /**< Gain for right channel, see #cy_en_pdm_pcm_g
 348:Generated_Source\PSoC6\pdl\drivers\peripheral\pdm_pcm/cy_pdm_pcm.h ****     uint8_t                  rxFifoTriggerLevel;  /**< Fifo interrupt trigger level (in words), 
 349:Generated_Source\PSoC6\pdl\drivers\peripheral\pdm_pcm/cy_pdm_pcm.h ****                                                     range: 0 - 253 for stereo and 0 - 254 for mono 
 350:Generated_Source\PSoC6\pdl\drivers\peripheral\pdm_pcm/cy_pdm_pcm.h ****     bool                     dmaTriggerEnable;    /**< DMA trigger enable */
 351:Generated_Source\PSoC6\pdl\drivers\peripheral\pdm_pcm/cy_pdm_pcm.h ****     uint32_t                 interruptMask;       /**< Interrupts enable mask */
 352:Generated_Source\PSoC6\pdl\drivers\peripheral\pdm_pcm/cy_pdm_pcm.h **** } cy_stc_pdm_pcm_config_t;
 353:Generated_Source\PSoC6\pdl\drivers\peripheral\pdm_pcm/cy_pdm_pcm.h **** 
 354:Generated_Source\PSoC6\pdl\drivers\peripheral\pdm_pcm/cy_pdm_pcm.h **** /** \} group_pdm_pcm_data_structures */
 355:Generated_Source\PSoC6\pdl\drivers\peripheral\pdm_pcm/cy_pdm_pcm.h **** 
 356:Generated_Source\PSoC6\pdl\drivers\peripheral\pdm_pcm/cy_pdm_pcm.h **** 
 357:Generated_Source\PSoC6\pdl\drivers\peripheral\pdm_pcm/cy_pdm_pcm.h **** /** \cond INTERNAL */
 358:Generated_Source\PSoC6\pdl\drivers\peripheral\pdm_pcm/cy_pdm_pcm.h **** /******************************************************************************
 359:Generated_Source\PSoC6\pdl\drivers\peripheral\pdm_pcm/cy_pdm_pcm.h ****  * Local definitions
 360:Generated_Source\PSoC6\pdl\drivers\peripheral\pdm_pcm/cy_pdm_pcm.h **** *******************************************************************************/
 361:Generated_Source\PSoC6\pdl\drivers\peripheral\pdm_pcm/cy_pdm_pcm.h **** /** Define bit mask for all available interrupt sources */
 362:Generated_Source\PSoC6\pdl\drivers\peripheral\pdm_pcm/cy_pdm_pcm.h **** #define CY_PDM_PCM_INTR_MASK        (CY_PDM_PCM_INTR_RX_TRIGGER   | \
 363:Generated_Source\PSoC6\pdl\drivers\peripheral\pdm_pcm/cy_pdm_pcm.h ****                                      CY_PDM_PCM_INTR_RX_NOT_EMPTY | \
 364:Generated_Source\PSoC6\pdl\drivers\peripheral\pdm_pcm/cy_pdm_pcm.h ****                                      CY_PDM_PCM_INTR_RX_OVERFLOW  | \
 365:Generated_Source\PSoC6\pdl\drivers\peripheral\pdm_pcm/cy_pdm_pcm.h ****                                      CY_PDM_PCM_INTR_RX_UNDERFLOW)
 366:Generated_Source\PSoC6\pdl\drivers\peripheral\pdm_pcm/cy_pdm_pcm.h **** 
 367:Generated_Source\PSoC6\pdl\drivers\peripheral\pdm_pcm/cy_pdm_pcm.h **** /* Non-zero default values */
 368:Generated_Source\PSoC6\pdl\drivers\peripheral\pdm_pcm/cy_pdm_pcm.h **** #define CY_PDM_PCM_CTL_PGA_R_DEFAULT    (0x8U)
 369:Generated_Source\PSoC6\pdl\drivers\peripheral\pdm_pcm/cy_pdm_pcm.h **** #define CY_PDM_PCM_CTL_PGA_L_DEFAULT    (0x8U)
 370:Generated_Source\PSoC6\pdl\drivers\peripheral\pdm_pcm/cy_pdm_pcm.h **** #define CY_PDM_PCM_CTL_STEP_SEL_DEFAULT (0x1U)
 371:Generated_Source\PSoC6\pdl\drivers\peripheral\pdm_pcm/cy_pdm_pcm.h **** 
 372:Generated_Source\PSoC6\pdl\drivers\peripheral\pdm_pcm/cy_pdm_pcm.h **** #define CY_PDM_PCM_CTL_DEFAULT (_VAL2FLD(PDM_CTL_PGA_R, CY_PDM_PCM_CTL_PGA_R_DEFAULT) | \
ARM GAS  C:\Users\ikomb\AppData\Local\Temp\ccmrmnRc.s 			page 8


 373:Generated_Source\PSoC6\pdl\drivers\peripheral\pdm_pcm/cy_pdm_pcm.h ****                                 _VAL2FLD(PDM_CTL_PGA_L, CY_PDM_PCM_CTL_PGA_L_DEFAULT) | \
 374:Generated_Source\PSoC6\pdl\drivers\peripheral\pdm_pcm/cy_pdm_pcm.h ****                                 _VAL2FLD(PDM_CTL_STEP_SEL, CY_PDM_PCM_CTL_STEP_SEL_DEFAULT))
 375:Generated_Source\PSoC6\pdl\drivers\peripheral\pdm_pcm/cy_pdm_pcm.h **** 
 376:Generated_Source\PSoC6\pdl\drivers\peripheral\pdm_pcm/cy_pdm_pcm.h **** #define CY_PDM_PCM_CLOCK_CTL_MCLKQ_CLOCK_DIV_DEFAULT (0x1U)
 377:Generated_Source\PSoC6\pdl\drivers\peripheral\pdm_pcm/cy_pdm_pcm.h **** #define CY_PDM_PCM_CLOCK_CTL_CKO_CLOCK_DIV_DEFAULT   (0x3U)
 378:Generated_Source\PSoC6\pdl\drivers\peripheral\pdm_pcm/cy_pdm_pcm.h **** #define CY_PDM_PCM_CLOCK_CTL_SINC_RATE_DEFAULT       (0x20U)
 379:Generated_Source\PSoC6\pdl\drivers\peripheral\pdm_pcm/cy_pdm_pcm.h **** 
 380:Generated_Source\PSoC6\pdl\drivers\peripheral\pdm_pcm/cy_pdm_pcm.h **** #define CY_PDM_PCM_CLOCK_CTL_DEFAULT (_VAL2FLD(PDM_CLOCK_CTL_MCLKQ_CLOCK_DIV, CY_PDM_PCM_CLOCK_CTL_
 381:Generated_Source\PSoC6\pdl\drivers\peripheral\pdm_pcm/cy_pdm_pcm.h ****                                       _VAL2FLD(PDM_CLOCK_CTL_CKO_CLOCK_DIV, CY_PDM_PCM_CLOCK_CTL_CK
 382:Generated_Source\PSoC6\pdl\drivers\peripheral\pdm_pcm/cy_pdm_pcm.h ****                                       _VAL2FLD(PDM_CLOCK_CTL_SINC_RATE, CY_PDM_PCM_CLOCK_CTL_SINC_R
 383:Generated_Source\PSoC6\pdl\drivers\peripheral\pdm_pcm/cy_pdm_pcm.h **** 
 384:Generated_Source\PSoC6\pdl\drivers\peripheral\pdm_pcm/cy_pdm_pcm.h **** #define CY_PDM_PCM_MODE_CTL_PCM_CH_SET_DEFAULT (0x3U)
 385:Generated_Source\PSoC6\pdl\drivers\peripheral\pdm_pcm/cy_pdm_pcm.h **** #define CY_PDM_PCM_MODE_CTL_S_CYCLES_DEFAULT   (0x1U)
 386:Generated_Source\PSoC6\pdl\drivers\peripheral\pdm_pcm/cy_pdm_pcm.h **** #define CY_PDM_PCM_MODE_CTL_HPF_GAIN_DEFAULT   (0xBU)
 387:Generated_Source\PSoC6\pdl\drivers\peripheral\pdm_pcm/cy_pdm_pcm.h **** #define CY_PDM_PCM_MODE_CTL_HPF_EN_N_DEFAULT   (0x1U)
 388:Generated_Source\PSoC6\pdl\drivers\peripheral\pdm_pcm/cy_pdm_pcm.h **** 
 389:Generated_Source\PSoC6\pdl\drivers\peripheral\pdm_pcm/cy_pdm_pcm.h **** #define CY_PDM_PCM_MODE_CTL_DEFAULT (_VAL2FLD(PDM_MODE_CTL_PCM_CH_SET, CY_PDM_PCM_MODE_CTL_PCM_CH_S
 390:Generated_Source\PSoC6\pdl\drivers\peripheral\pdm_pcm/cy_pdm_pcm.h ****                                      _VAL2FLD(PDM_MODE_CTL_S_CYCLES, CY_PDM_PCM_MODE_CTL_S_CYCLES_D
 391:Generated_Source\PSoC6\pdl\drivers\peripheral\pdm_pcm/cy_pdm_pcm.h ****                                      _VAL2FLD(PDM_MODE_CTL_HPF_GAIN, CY_PDM_PCM_MODE_CTL_HPF_GAIN_D
 392:Generated_Source\PSoC6\pdl\drivers\peripheral\pdm_pcm/cy_pdm_pcm.h ****                                      _VAL2FLD(PDM_MODE_CTL_HPF_EN_N, CY_PDM_PCM_MODE_CTL_HPF_EN_N_D
 393:Generated_Source\PSoC6\pdl\drivers\peripheral\pdm_pcm/cy_pdm_pcm.h **** 
 394:Generated_Source\PSoC6\pdl\drivers\peripheral\pdm_pcm/cy_pdm_pcm.h **** /* Macros for conditions used by CY_ASSERT calls */
 395:Generated_Source\PSoC6\pdl\drivers\peripheral\pdm_pcm/cy_pdm_pcm.h **** #define CY_PDM_PCM_IS_CLK_DIV_VALID(clkDiv)    (((clkDiv) == CY_PDM_PCM_CLK_DIV_BYPASS) || \
 396:Generated_Source\PSoC6\pdl\drivers\peripheral\pdm_pcm/cy_pdm_pcm.h ****                                                 ((clkDiv) == CY_PDM_PCM_CLK_DIV_1_2)    || \
 397:Generated_Source\PSoC6\pdl\drivers\peripheral\pdm_pcm/cy_pdm_pcm.h ****                                                 ((clkDiv) == CY_PDM_PCM_CLK_DIV_1_3)    || \
 398:Generated_Source\PSoC6\pdl\drivers\peripheral\pdm_pcm/cy_pdm_pcm.h ****                                                 ((clkDiv) == CY_PDM_PCM_CLK_DIV_1_4))
 399:Generated_Source\PSoC6\pdl\drivers\peripheral\pdm_pcm/cy_pdm_pcm.h **** 
 400:Generated_Source\PSoC6\pdl\drivers\peripheral\pdm_pcm/cy_pdm_pcm.h **** #define CY_PDM_PCM_IS_CH_SET_VALID(chanSelect) (((chanSelect) == CY_PDM_PCM_OUT_CHAN_LEFT)  || \
 401:Generated_Source\PSoC6\pdl\drivers\peripheral\pdm_pcm/cy_pdm_pcm.h ****                                                 ((chanSelect) == CY_PDM_PCM_OUT_CHAN_RIGHT) || \
 402:Generated_Source\PSoC6\pdl\drivers\peripheral\pdm_pcm/cy_pdm_pcm.h ****                                                 ((chanSelect) == CY_PDM_PCM_OUT_STEREO))
 403:Generated_Source\PSoC6\pdl\drivers\peripheral\pdm_pcm/cy_pdm_pcm.h **** 
 404:Generated_Source\PSoC6\pdl\drivers\peripheral\pdm_pcm/cy_pdm_pcm.h **** #define CY_PDM_PCM_IS_GAIN_VALID(gain)         (((gain) == CY_PDM_PCM_ATTN_12_DB)   || \
 405:Generated_Source\PSoC6\pdl\drivers\peripheral\pdm_pcm/cy_pdm_pcm.h ****                                                 ((gain) == CY_PDM_PCM_ATTN_10_5_DB) || \
 406:Generated_Source\PSoC6\pdl\drivers\peripheral\pdm_pcm/cy_pdm_pcm.h ****                                                 ((gain) == CY_PDM_PCM_ATTN_9_DB)    || \
 407:Generated_Source\PSoC6\pdl\drivers\peripheral\pdm_pcm/cy_pdm_pcm.h ****                                                 ((gain) == CY_PDM_PCM_ATTN_7_5_DB)  || \
 408:Generated_Source\PSoC6\pdl\drivers\peripheral\pdm_pcm/cy_pdm_pcm.h ****                                                 ((gain) == CY_PDM_PCM_ATTN_6_DB)    || \
 409:Generated_Source\PSoC6\pdl\drivers\peripheral\pdm_pcm/cy_pdm_pcm.h ****                                                 ((gain) == CY_PDM_PCM_ATTN_4_5_DB)  || \
 410:Generated_Source\PSoC6\pdl\drivers\peripheral\pdm_pcm/cy_pdm_pcm.h ****                                                 ((gain) == CY_PDM_PCM_ATTN_3_DB)    || \
 411:Generated_Source\PSoC6\pdl\drivers\peripheral\pdm_pcm/cy_pdm_pcm.h ****                                                 ((gain) == CY_PDM_PCM_ATTN_1_5_DB)  || \
 412:Generated_Source\PSoC6\pdl\drivers\peripheral\pdm_pcm/cy_pdm_pcm.h ****                                                 ((gain) == CY_PDM_PCM_BYPASS)       || \
 413:Generated_Source\PSoC6\pdl\drivers\peripheral\pdm_pcm/cy_pdm_pcm.h ****                                                 ((gain) == CY_PDM_PCM_GAIN_1_5_DB)  || \
 414:Generated_Source\PSoC6\pdl\drivers\peripheral\pdm_pcm/cy_pdm_pcm.h ****                                                 ((gain) == CY_PDM_PCM_GAIN_3_DB)    || \
 415:Generated_Source\PSoC6\pdl\drivers\peripheral\pdm_pcm/cy_pdm_pcm.h ****                                                 ((gain) == CY_PDM_PCM_GAIN_4_5_DB)  || \
 416:Generated_Source\PSoC6\pdl\drivers\peripheral\pdm_pcm/cy_pdm_pcm.h ****                                                 ((gain) == CY_PDM_PCM_GAIN_6_DB)    || \
 417:Generated_Source\PSoC6\pdl\drivers\peripheral\pdm_pcm/cy_pdm_pcm.h ****                                                 ((gain) == CY_PDM_PCM_GAIN_7_5_DB)  || \
 418:Generated_Source\PSoC6\pdl\drivers\peripheral\pdm_pcm/cy_pdm_pcm.h ****                                                 ((gain) == CY_PDM_PCM_GAIN_9_DB)    || \
 419:Generated_Source\PSoC6\pdl\drivers\peripheral\pdm_pcm/cy_pdm_pcm.h ****                                                 ((gain) == CY_PDM_PCM_GAIN_10_5_DB))
 420:Generated_Source\PSoC6\pdl\drivers\peripheral\pdm_pcm/cy_pdm_pcm.h **** 
 421:Generated_Source\PSoC6\pdl\drivers\peripheral\pdm_pcm/cy_pdm_pcm.h **** #define CY_PDM_PCM_IS_WORD_LEN_VALID(wordLen)  (((wordLen) == CY_PDM_PCM_WLEN_16_BIT) || \
 422:Generated_Source\PSoC6\pdl\drivers\peripheral\pdm_pcm/cy_pdm_pcm.h ****                                                 ((wordLen) == CY_PDM_PCM_WLEN_18_BIT) || \
 423:Generated_Source\PSoC6\pdl\drivers\peripheral\pdm_pcm/cy_pdm_pcm.h ****                                                 ((wordLen) == CY_PDM_PCM_WLEN_20_BIT) || \
 424:Generated_Source\PSoC6\pdl\drivers\peripheral\pdm_pcm/cy_pdm_pcm.h ****                                                 ((wordLen) == CY_PDM_PCM_WLEN_24_BIT))
 425:Generated_Source\PSoC6\pdl\drivers\peripheral\pdm_pcm/cy_pdm_pcm.h **** 
 426:Generated_Source\PSoC6\pdl\drivers\peripheral\pdm_pcm/cy_pdm_pcm.h **** #define CY_PDM_PCM_IS_CHAN_VALID(chan)         (((chan) == CY_PDM_PCM_CHAN_LEFT) || \
 427:Generated_Source\PSoC6\pdl\drivers\peripheral\pdm_pcm/cy_pdm_pcm.h ****                                                 ((chan) == CY_PDM_PCM_CHAN_RIGHT))
 428:Generated_Source\PSoC6\pdl\drivers\peripheral\pdm_pcm/cy_pdm_pcm.h ****                                                 
 429:Generated_Source\PSoC6\pdl\drivers\peripheral\pdm_pcm/cy_pdm_pcm.h **** #define CY_PDM_PCM_IS_S_CYCLES_VALID(sCycles)  (((sCycles) == CY_PDM_PCM_SOFT_MUTE_CYCLES_64)  || \
ARM GAS  C:\Users\ikomb\AppData\Local\Temp\ccmrmnRc.s 			page 9


 430:Generated_Source\PSoC6\pdl\drivers\peripheral\pdm_pcm/cy_pdm_pcm.h ****                                                 ((sCycles) == CY_PDM_PCM_SOFT_MUTE_CYCLES_96)  || \
 431:Generated_Source\PSoC6\pdl\drivers\peripheral\pdm_pcm/cy_pdm_pcm.h ****                                                 ((sCycles) == CY_PDM_PCM_SOFT_MUTE_CYCLES_128) || \
 432:Generated_Source\PSoC6\pdl\drivers\peripheral\pdm_pcm/cy_pdm_pcm.h ****                                                 ((sCycles) == CY_PDM_PCM_SOFT_MUTE_CYCLES_160) || \
 433:Generated_Source\PSoC6\pdl\drivers\peripheral\pdm_pcm/cy_pdm_pcm.h ****                                                 ((sCycles) == CY_PDM_PCM_SOFT_MUTE_CYCLES_192) || \
 434:Generated_Source\PSoC6\pdl\drivers\peripheral\pdm_pcm/cy_pdm_pcm.h ****                                                 ((sCycles) == CY_PDM_PCM_SOFT_MUTE_CYCLES_256) || \
 435:Generated_Source\PSoC6\pdl\drivers\peripheral\pdm_pcm/cy_pdm_pcm.h ****                                                 ((sCycles) == CY_PDM_PCM_SOFT_MUTE_CYCLES_384) || \
 436:Generated_Source\PSoC6\pdl\drivers\peripheral\pdm_pcm/cy_pdm_pcm.h ****                                                 ((sCycles) == CY_PDM_PCM_SOFT_MUTE_CYCLES_512))
 437:Generated_Source\PSoC6\pdl\drivers\peripheral\pdm_pcm/cy_pdm_pcm.h ****                                                 
 438:Generated_Source\PSoC6\pdl\drivers\peripheral\pdm_pcm/cy_pdm_pcm.h **** #define CY_PDM_PCM_IS_INTR_MASK_VALID(interrupt)  (0UL == ((interrupt) & ((uint32_t) ~CY_PDM_PCM_IN
 439:Generated_Source\PSoC6\pdl\drivers\peripheral\pdm_pcm/cy_pdm_pcm.h **** #define CY_PDM_PCM_IS_SINC_RATE_VALID(sincRate)   ((sincRate) <= 127U)
 440:Generated_Source\PSoC6\pdl\drivers\peripheral\pdm_pcm/cy_pdm_pcm.h **** #define CY_PDM_PCM_IS_STEP_SEL_VALID(stepSel)     ((stepSel)  <= 1UL)
 441:Generated_Source\PSoC6\pdl\drivers\peripheral\pdm_pcm/cy_pdm_pcm.h **** #define CY_PDM_PCM_IS_CKO_DELAY_VALID(ckoDelay)   ((ckoDelay) <= 7U)
 442:Generated_Source\PSoC6\pdl\drivers\peripheral\pdm_pcm/cy_pdm_pcm.h **** #define CY_PDM_PCM_IS_HPF_GAIN_VALID(hpfGain)     ((hpfGain)  <= 15U)
 443:Generated_Source\PSoC6\pdl\drivers\peripheral\pdm_pcm/cy_pdm_pcm.h **** #define CY_PDM_PCM_IS_CKO_CLOCK_DIV_VALID(ckoDiv) (((ckoDiv)  >= 1U) && ((ckoDiv) <= 15U))
 444:Generated_Source\PSoC6\pdl\drivers\peripheral\pdm_pcm/cy_pdm_pcm.h **** #define CY_PDM_PCM_IS_TRIG_LEVEL(trigLevel, chanSelect) ((trigLevel) <= (((chanSelect) == CY_PDM_PC
 445:Generated_Source\PSoC6\pdl\drivers\peripheral\pdm_pcm/cy_pdm_pcm.h **** /** \endcond */
 446:Generated_Source\PSoC6\pdl\drivers\peripheral\pdm_pcm/cy_pdm_pcm.h **** 
 447:Generated_Source\PSoC6\pdl\drivers\peripheral\pdm_pcm/cy_pdm_pcm.h **** /**
 448:Generated_Source\PSoC6\pdl\drivers\peripheral\pdm_pcm/cy_pdm_pcm.h **** * \addtogroup group_pdm_pcm_functions
 449:Generated_Source\PSoC6\pdl\drivers\peripheral\pdm_pcm/cy_pdm_pcm.h **** * \{
 450:Generated_Source\PSoC6\pdl\drivers\peripheral\pdm_pcm/cy_pdm_pcm.h **** */
 451:Generated_Source\PSoC6\pdl\drivers\peripheral\pdm_pcm/cy_pdm_pcm.h **** 
 452:Generated_Source\PSoC6\pdl\drivers\peripheral\pdm_pcm/cy_pdm_pcm.h **** cy_en_pdm_pcm_status_t   Cy_PDM_PCM_Init(PDM_Type * base, cy_stc_pdm_pcm_config_t const * config);
 453:Generated_Source\PSoC6\pdl\drivers\peripheral\pdm_pcm/cy_pdm_pcm.h ****                 void     Cy_PDM_PCM_DeInit(PDM_Type * base);
 454:Generated_Source\PSoC6\pdl\drivers\peripheral\pdm_pcm/cy_pdm_pcm.h ****                 void     Cy_PDM_PCM_SetGain(PDM_Type * base, cy_en_pdm_pcm_chan_select_t chan, cy_e
 455:Generated_Source\PSoC6\pdl\drivers\peripheral\pdm_pcm/cy_pdm_pcm.h **** cy_en_pdm_pcm_gain_t     Cy_PDM_PCM_GetGain(PDM_Type const * base, cy_en_pdm_pcm_chan_select_t chan
 456:Generated_Source\PSoC6\pdl\drivers\peripheral\pdm_pcm/cy_pdm_pcm.h **** 
 457:Generated_Source\PSoC6\pdl\drivers\peripheral\pdm_pcm/cy_pdm_pcm.h **** /** \addtogroup group_pdm_pcm_functions_syspm_callback
 458:Generated_Source\PSoC6\pdl\drivers\peripheral\pdm_pcm/cy_pdm_pcm.h **** * The driver supports SysPm callback for Deep Sleep transition.
 459:Generated_Source\PSoC6\pdl\drivers\peripheral\pdm_pcm/cy_pdm_pcm.h **** * \{
 460:Generated_Source\PSoC6\pdl\drivers\peripheral\pdm_pcm/cy_pdm_pcm.h **** */
 461:Generated_Source\PSoC6\pdl\drivers\peripheral\pdm_pcm/cy_pdm_pcm.h **** cy_en_syspm_status_t     Cy_PDM_PCM_DeepSleepCallback(cy_stc_syspm_callback_params_t * callbackPara
 462:Generated_Source\PSoC6\pdl\drivers\peripheral\pdm_pcm/cy_pdm_pcm.h **** /** \} */
 463:Generated_Source\PSoC6\pdl\drivers\peripheral\pdm_pcm/cy_pdm_pcm.h **** 
 464:Generated_Source\PSoC6\pdl\drivers\peripheral\pdm_pcm/cy_pdm_pcm.h **** __STATIC_INLINE void     Cy_PDM_PCM_Enable(PDM_Type * base);
 465:Generated_Source\PSoC6\pdl\drivers\peripheral\pdm_pcm/cy_pdm_pcm.h **** __STATIC_INLINE void     Cy_PDM_PCM_Disable(PDM_Type * base);
 466:Generated_Source\PSoC6\pdl\drivers\peripheral\pdm_pcm/cy_pdm_pcm.h **** __STATIC_INLINE void     Cy_PDM_PCM_SetInterruptMask(PDM_Type * base, uint32_t interrupt);
 467:Generated_Source\PSoC6\pdl\drivers\peripheral\pdm_pcm/cy_pdm_pcm.h **** __STATIC_INLINE uint32_t Cy_PDM_PCM_GetInterruptMask(PDM_Type const * base);
 468:Generated_Source\PSoC6\pdl\drivers\peripheral\pdm_pcm/cy_pdm_pcm.h **** __STATIC_INLINE uint32_t Cy_PDM_PCM_GetInterruptStatusMasked(PDM_Type const * base);
 469:Generated_Source\PSoC6\pdl\drivers\peripheral\pdm_pcm/cy_pdm_pcm.h **** __STATIC_INLINE uint32_t Cy_PDM_PCM_GetInterruptStatus(PDM_Type const * base);
 470:Generated_Source\PSoC6\pdl\drivers\peripheral\pdm_pcm/cy_pdm_pcm.h **** __STATIC_INLINE void     Cy_PDM_PCM_ClearInterrupt(PDM_Type * base, uint32_t interrupt);
 471:Generated_Source\PSoC6\pdl\drivers\peripheral\pdm_pcm/cy_pdm_pcm.h **** __STATIC_INLINE void     Cy_PDM_PCM_SetInterrupt(PDM_Type * base, uint32_t interrupt);
 472:Generated_Source\PSoC6\pdl\drivers\peripheral\pdm_pcm/cy_pdm_pcm.h **** __STATIC_INLINE uint8_t  Cy_PDM_PCM_GetNumInFifo(PDM_Type const * base);
 473:Generated_Source\PSoC6\pdl\drivers\peripheral\pdm_pcm/cy_pdm_pcm.h **** __STATIC_INLINE void     Cy_PDM_PCM_ClearFifo(PDM_Type * base);
 474:Generated_Source\PSoC6\pdl\drivers\peripheral\pdm_pcm/cy_pdm_pcm.h **** __STATIC_INLINE uint32_t Cy_PDM_PCM_ReadFifo(PDM_Type const * base);
 475:Generated_Source\PSoC6\pdl\drivers\peripheral\pdm_pcm/cy_pdm_pcm.h **** __STATIC_INLINE void     Cy_PDM_PCM_EnableSoftMute(PDM_Type * base);
 476:Generated_Source\PSoC6\pdl\drivers\peripheral\pdm_pcm/cy_pdm_pcm.h **** __STATIC_INLINE void     Cy_PDM_PCM_DisableSoftMute(PDM_Type * base);
 477:Generated_Source\PSoC6\pdl\drivers\peripheral\pdm_pcm/cy_pdm_pcm.h **** __STATIC_INLINE void     Cy_PDM_PCM_FreezeFifo(PDM_Type * base);
 478:Generated_Source\PSoC6\pdl\drivers\peripheral\pdm_pcm/cy_pdm_pcm.h **** __STATIC_INLINE void     Cy_PDM_PCM_UnfreezeFifo(PDM_Type * base);
 479:Generated_Source\PSoC6\pdl\drivers\peripheral\pdm_pcm/cy_pdm_pcm.h **** __STATIC_INLINE uint32_t Cy_PDM_PCM_ReadFifoSilent(PDM_Type const * base);
 480:Generated_Source\PSoC6\pdl\drivers\peripheral\pdm_pcm/cy_pdm_pcm.h **** 
 481:Generated_Source\PSoC6\pdl\drivers\peripheral\pdm_pcm/cy_pdm_pcm.h **** 
 482:Generated_Source\PSoC6\pdl\drivers\peripheral\pdm_pcm/cy_pdm_pcm.h **** /** \} group_pdm_pcm_functions */
 483:Generated_Source\PSoC6\pdl\drivers\peripheral\pdm_pcm/cy_pdm_pcm.h **** 
 484:Generated_Source\PSoC6\pdl\drivers\peripheral\pdm_pcm/cy_pdm_pcm.h **** /**
 485:Generated_Source\PSoC6\pdl\drivers\peripheral\pdm_pcm/cy_pdm_pcm.h **** * \addtogroup group_pdm_pcm_functions
 486:Generated_Source\PSoC6\pdl\drivers\peripheral\pdm_pcm/cy_pdm_pcm.h **** * \{
ARM GAS  C:\Users\ikomb\AppData\Local\Temp\ccmrmnRc.s 			page 10


 487:Generated_Source\PSoC6\pdl\drivers\peripheral\pdm_pcm/cy_pdm_pcm.h **** */
 488:Generated_Source\PSoC6\pdl\drivers\peripheral\pdm_pcm/cy_pdm_pcm.h **** 
 489:Generated_Source\PSoC6\pdl\drivers\peripheral\pdm_pcm/cy_pdm_pcm.h **** /******************************************************************************
 490:Generated_Source\PSoC6\pdl\drivers\peripheral\pdm_pcm/cy_pdm_pcm.h **** * Function Name: Cy_PDM_PCM_Enable
 491:Generated_Source\PSoC6\pdl\drivers\peripheral\pdm_pcm/cy_pdm_pcm.h **** ***************************************************************************//**
 492:Generated_Source\PSoC6\pdl\drivers\peripheral\pdm_pcm/cy_pdm_pcm.h **** *
 493:Generated_Source\PSoC6\pdl\drivers\peripheral\pdm_pcm/cy_pdm_pcm.h **** * Enables the PDM-PCM data conversion.
 494:Generated_Source\PSoC6\pdl\drivers\peripheral\pdm_pcm/cy_pdm_pcm.h **** *
 495:Generated_Source\PSoC6\pdl\drivers\peripheral\pdm_pcm/cy_pdm_pcm.h **** * \param base The pointer to the  PDM-PCM instance address.
 496:Generated_Source\PSoC6\pdl\drivers\peripheral\pdm_pcm/cy_pdm_pcm.h **** *
 497:Generated_Source\PSoC6\pdl\drivers\peripheral\pdm_pcm/cy_pdm_pcm.h **** ******************************************************************************/
 498:Generated_Source\PSoC6\pdl\drivers\peripheral\pdm_pcm/cy_pdm_pcm.h **** __STATIC_INLINE void Cy_PDM_PCM_Enable(PDM_Type * base)
 499:Generated_Source\PSoC6\pdl\drivers\peripheral\pdm_pcm/cy_pdm_pcm.h **** {
  28              		.loc 1 499 0
  29              		.cfi_startproc
  30              		@ args = 0, pretend = 0, frame = 8
  31              		@ frame_needed = 1, uses_anonymous_args = 0
  32              		@ link register save eliminated.
  33 0000 80B4     		push	{r7}
  34              		.cfi_def_cfa_offset 4
  35              		.cfi_offset 7, -4
  36 0002 83B0     		sub	sp, sp, #12
  37              		.cfi_def_cfa_offset 16
  38 0004 00AF     		add	r7, sp, #0
  39              		.cfi_def_cfa_register 7
  40 0006 7860     		str	r0, [r7, #4]
 500:Generated_Source\PSoC6\pdl\drivers\peripheral\pdm_pcm/cy_pdm_pcm.h ****     base->CMD |= PDM_CMD_STREAM_EN_Msk;
  41              		.loc 1 500 0
  42 0008 7B68     		ldr	r3, [r7, #4]
  43 000a 1B6A     		ldr	r3, [r3, #32]
  44 000c 43F00102 		orr	r2, r3, #1
  45 0010 7B68     		ldr	r3, [r7, #4]
  46 0012 1A62     		str	r2, [r3, #32]
 501:Generated_Source\PSoC6\pdl\drivers\peripheral\pdm_pcm/cy_pdm_pcm.h **** }
  47              		.loc 1 501 0
  48 0014 00BF     		nop
  49 0016 0C37     		adds	r7, r7, #12
  50              		.cfi_def_cfa_offset 4
  51 0018 BD46     		mov	sp, r7
  52              		.cfi_def_cfa_register 13
  53              		@ sp needed
  54 001a 5DF8047B 		ldr	r7, [sp], #4
  55              		.cfi_restore 7
  56              		.cfi_def_cfa_offset 0
  57 001e 7047     		bx	lr
  58              		.cfi_endproc
  59              	.LFE158:
  60              		.size	Cy_PDM_PCM_Enable, .-Cy_PDM_PCM_Enable
  61              		.section	.text.Cy_PDM_PCM_Disable,"ax",%progbits
  62              		.align	2
  63              		.thumb
  64              		.thumb_func
  65              		.type	Cy_PDM_PCM_Disable, %function
  66              	Cy_PDM_PCM_Disable:
  67              	.LFB159:
 502:Generated_Source\PSoC6\pdl\drivers\peripheral\pdm_pcm/cy_pdm_pcm.h **** 
 503:Generated_Source\PSoC6\pdl\drivers\peripheral\pdm_pcm/cy_pdm_pcm.h **** /******************************************************************************
ARM GAS  C:\Users\ikomb\AppData\Local\Temp\ccmrmnRc.s 			page 11


 504:Generated_Source\PSoC6\pdl\drivers\peripheral\pdm_pcm/cy_pdm_pcm.h **** * Function Name: Cy_PDM_PCM_Disable
 505:Generated_Source\PSoC6\pdl\drivers\peripheral\pdm_pcm/cy_pdm_pcm.h **** ***************************************************************************//**
 506:Generated_Source\PSoC6\pdl\drivers\peripheral\pdm_pcm/cy_pdm_pcm.h **** *
 507:Generated_Source\PSoC6\pdl\drivers\peripheral\pdm_pcm/cy_pdm_pcm.h **** * Disables the PDM-PCM data conversion.
 508:Generated_Source\PSoC6\pdl\drivers\peripheral\pdm_pcm/cy_pdm_pcm.h **** *
 509:Generated_Source\PSoC6\pdl\drivers\peripheral\pdm_pcm/cy_pdm_pcm.h **** * \param base The pointer to the PDM-PCM instance address.
 510:Generated_Source\PSoC6\pdl\drivers\peripheral\pdm_pcm/cy_pdm_pcm.h **** *
 511:Generated_Source\PSoC6\pdl\drivers\peripheral\pdm_pcm/cy_pdm_pcm.h **** ******************************************************************************/
 512:Generated_Source\PSoC6\pdl\drivers\peripheral\pdm_pcm/cy_pdm_pcm.h **** __STATIC_INLINE void Cy_PDM_PCM_Disable(PDM_Type * base)
 513:Generated_Source\PSoC6\pdl\drivers\peripheral\pdm_pcm/cy_pdm_pcm.h **** {
  68              		.loc 1 513 0
  69              		.cfi_startproc
  70              		@ args = 0, pretend = 0, frame = 8
  71              		@ frame_needed = 1, uses_anonymous_args = 0
  72              		@ link register save eliminated.
  73 0000 80B4     		push	{r7}
  74              		.cfi_def_cfa_offset 4
  75              		.cfi_offset 7, -4
  76 0002 83B0     		sub	sp, sp, #12
  77              		.cfi_def_cfa_offset 16
  78 0004 00AF     		add	r7, sp, #0
  79              		.cfi_def_cfa_register 7
  80 0006 7860     		str	r0, [r7, #4]
 514:Generated_Source\PSoC6\pdl\drivers\peripheral\pdm_pcm/cy_pdm_pcm.h ****     base->CMD &= (uint32_t) ~PDM_CMD_STREAM_EN_Msk;
  81              		.loc 1 514 0
  82 0008 7B68     		ldr	r3, [r7, #4]
  83 000a 1B6A     		ldr	r3, [r3, #32]
  84 000c 23F00102 		bic	r2, r3, #1
  85 0010 7B68     		ldr	r3, [r7, #4]
  86 0012 1A62     		str	r2, [r3, #32]
 515:Generated_Source\PSoC6\pdl\drivers\peripheral\pdm_pcm/cy_pdm_pcm.h **** }
  87              		.loc 1 515 0
  88 0014 00BF     		nop
  89 0016 0C37     		adds	r7, r7, #12
  90              		.cfi_def_cfa_offset 4
  91 0018 BD46     		mov	sp, r7
  92              		.cfi_def_cfa_register 13
  93              		@ sp needed
  94 001a 5DF8047B 		ldr	r7, [sp], #4
  95              		.cfi_restore 7
  96              		.cfi_def_cfa_offset 0
  97 001e 7047     		bx	lr
  98              		.cfi_endproc
  99              	.LFE159:
 100              		.size	Cy_PDM_PCM_Disable, .-Cy_PDM_PCM_Disable
 101              		.section	.rodata
 102              		.align	2
 103              	.LC0:
 104 0000 47656E65 		.ascii	"Generated_Source\\PSoC6\\pdl\\drivers\\peripheral\\"
 104      72617465 
 104      645F536F 
 104      75726365 
 104      5C50536F 
 105 002e 70646D5F 		.ascii	"pdm_pcm\\cy_pdm_pcm.h\000"
 105      70636D5C 
 105      63795F70 
 105      646D5F70 
ARM GAS  C:\Users\ikomb\AppData\Local\Temp\ccmrmnRc.s 			page 12


 105      636D2E68 
 106              		.section	.text.Cy_PDM_PCM_SetInterruptMask,"ax",%progbits
 107              		.align	2
 108              		.thumb
 109              		.thumb_func
 110              		.type	Cy_PDM_PCM_SetInterruptMask, %function
 111              	Cy_PDM_PCM_SetInterruptMask:
 112              	.LFB161:
 516:Generated_Source\PSoC6\pdl\drivers\peripheral\pdm_pcm/cy_pdm_pcm.h **** 
 517:Generated_Source\PSoC6\pdl\drivers\peripheral\pdm_pcm/cy_pdm_pcm.h **** 
 518:Generated_Source\PSoC6\pdl\drivers\peripheral\pdm_pcm/cy_pdm_pcm.h **** /******************************************************************************
 519:Generated_Source\PSoC6\pdl\drivers\peripheral\pdm_pcm/cy_pdm_pcm.h **** * Function Name: Cy_PDM_PCM_GetCurrentState
 520:Generated_Source\PSoC6\pdl\drivers\peripheral\pdm_pcm/cy_pdm_pcm.h **** ***************************************************************************//**
 521:Generated_Source\PSoC6\pdl\drivers\peripheral\pdm_pcm/cy_pdm_pcm.h **** *
 522:Generated_Source\PSoC6\pdl\drivers\peripheral\pdm_pcm/cy_pdm_pcm.h **** * Returns the current PDM-PCM state (running/stopped).
 523:Generated_Source\PSoC6\pdl\drivers\peripheral\pdm_pcm/cy_pdm_pcm.h **** *
 524:Generated_Source\PSoC6\pdl\drivers\peripheral\pdm_pcm/cy_pdm_pcm.h **** * \param base The pointer to the PDM-PCM instance address.
 525:Generated_Source\PSoC6\pdl\drivers\peripheral\pdm_pcm/cy_pdm_pcm.h **** * \return The current state (CMD register).
 526:Generated_Source\PSoC6\pdl\drivers\peripheral\pdm_pcm/cy_pdm_pcm.h **** *
 527:Generated_Source\PSoC6\pdl\drivers\peripheral\pdm_pcm/cy_pdm_pcm.h **** ******************************************************************************/
 528:Generated_Source\PSoC6\pdl\drivers\peripheral\pdm_pcm/cy_pdm_pcm.h **** __STATIC_INLINE uint32_t Cy_PDM_PCM_GetCurrentState(PDM_Type const * base)
 529:Generated_Source\PSoC6\pdl\drivers\peripheral\pdm_pcm/cy_pdm_pcm.h **** {
 530:Generated_Source\PSoC6\pdl\drivers\peripheral\pdm_pcm/cy_pdm_pcm.h ****     return (base->CMD);
 531:Generated_Source\PSoC6\pdl\drivers\peripheral\pdm_pcm/cy_pdm_pcm.h **** }
 532:Generated_Source\PSoC6\pdl\drivers\peripheral\pdm_pcm/cy_pdm_pcm.h **** 
 533:Generated_Source\PSoC6\pdl\drivers\peripheral\pdm_pcm/cy_pdm_pcm.h **** 
 534:Generated_Source\PSoC6\pdl\drivers\peripheral\pdm_pcm/cy_pdm_pcm.h **** /******************************************************************************
 535:Generated_Source\PSoC6\pdl\drivers\peripheral\pdm_pcm/cy_pdm_pcm.h **** * Function Name: Cy_PDM_PCM_SetInterruptMask
 536:Generated_Source\PSoC6\pdl\drivers\peripheral\pdm_pcm/cy_pdm_pcm.h **** ***************************************************************************//**
 537:Generated_Source\PSoC6\pdl\drivers\peripheral\pdm_pcm/cy_pdm_pcm.h **** *
 538:Generated_Source\PSoC6\pdl\drivers\peripheral\pdm_pcm/cy_pdm_pcm.h **** * Sets one or more PDM-PCM interrupt factor bits (sets the INTR_MASK register).
 539:Generated_Source\PSoC6\pdl\drivers\peripheral\pdm_pcm/cy_pdm_pcm.h **** *
 540:Generated_Source\PSoC6\pdl\drivers\peripheral\pdm_pcm/cy_pdm_pcm.h **** * \param base The pointer to the PDM-PCM instance address
 541:Generated_Source\PSoC6\pdl\drivers\peripheral\pdm_pcm/cy_pdm_pcm.h **** * \param interrupt Interrupt bit mask \ref group_pdm_pcm_macros_intrerrupt_masks.
 542:Generated_Source\PSoC6\pdl\drivers\peripheral\pdm_pcm/cy_pdm_pcm.h **** *
 543:Generated_Source\PSoC6\pdl\drivers\peripheral\pdm_pcm/cy_pdm_pcm.h **** ******************************************************************************/
 544:Generated_Source\PSoC6\pdl\drivers\peripheral\pdm_pcm/cy_pdm_pcm.h **** __STATIC_INLINE void Cy_PDM_PCM_SetInterruptMask(PDM_Type * base, uint32_t interrupt)
 545:Generated_Source\PSoC6\pdl\drivers\peripheral\pdm_pcm/cy_pdm_pcm.h **** {
 113              		.loc 1 545 0
 114              		.cfi_startproc
 115              		@ args = 0, pretend = 0, frame = 8
 116              		@ frame_needed = 1, uses_anonymous_args = 0
 117 0000 80B5     		push	{r7, lr}
 118              		.cfi_def_cfa_offset 8
 119              		.cfi_offset 7, -8
 120              		.cfi_offset 14, -4
 121 0002 82B0     		sub	sp, sp, #8
 122              		.cfi_def_cfa_offset 16
 123 0004 00AF     		add	r7, sp, #0
 124              		.cfi_def_cfa_register 7
 125 0006 7860     		str	r0, [r7, #4]
 126 0008 3960     		str	r1, [r7]
 546:Generated_Source\PSoC6\pdl\drivers\peripheral\pdm_pcm/cy_pdm_pcm.h ****     CY_ASSERT_L2(CY_PDM_PCM_IS_INTR_MASK_VALID(interrupt));
 127              		.loc 1 546 0
 128 000a 3B68     		ldr	r3, [r7]
 129 000c 23F4CA03 		bic	r3, r3, #6619136
 130 0010 002B     		cmp	r3, #0
ARM GAS  C:\Users\ikomb\AppData\Local\Temp\ccmrmnRc.s 			page 13


 131 0012 04D0     		beq	.L4
 132              		.loc 1 546 0 is_stmt 0 discriminator 1
 133 0014 40F22221 		movw	r1, #546
 134 0018 0548     		ldr	r0, .L5
 135 001a FFF7FEFF 		bl	Cy_SysLib_AssertFailed
 136              	.L4:
 547:Generated_Source\PSoC6\pdl\drivers\peripheral\pdm_pcm/cy_pdm_pcm.h ****     base->INTR_MASK = interrupt;
 137              		.loc 1 547 0 is_stmt 1
 138 001e 7B68     		ldr	r3, [r7, #4]
 139 0020 3A68     		ldr	r2, [r7]
 140 0022 C3F8082F 		str	r2, [r3, #3848]
 548:Generated_Source\PSoC6\pdl\drivers\peripheral\pdm_pcm/cy_pdm_pcm.h **** }
 141              		.loc 1 548 0
 142 0026 00BF     		nop
 143 0028 0837     		adds	r7, r7, #8
 144              		.cfi_def_cfa_offset 8
 145 002a BD46     		mov	sp, r7
 146              		.cfi_def_cfa_register 13
 147              		@ sp needed
 148 002c 80BD     		pop	{r7, pc}
 149              	.L6:
 150 002e 00BF     		.align	2
 151              	.L5:
 152 0030 00000000 		.word	.LC0
 153              		.cfi_endproc
 154              	.LFE161:
 155              		.size	Cy_PDM_PCM_SetInterruptMask, .-Cy_PDM_PCM_SetInterruptMask
 156              		.section	.text.Cy_PDM_PCM_ClearFifo,"ax",%progbits
 157              		.align	2
 158              		.thumb
 159              		.thumb_func
 160              		.type	Cy_PDM_PCM_ClearFifo, %function
 161              	Cy_PDM_PCM_ClearFifo:
 162              	.LFB168:
 549:Generated_Source\PSoC6\pdl\drivers\peripheral\pdm_pcm/cy_pdm_pcm.h **** 
 550:Generated_Source\PSoC6\pdl\drivers\peripheral\pdm_pcm/cy_pdm_pcm.h **** 
 551:Generated_Source\PSoC6\pdl\drivers\peripheral\pdm_pcm/cy_pdm_pcm.h **** /******************************************************************************
 552:Generated_Source\PSoC6\pdl\drivers\peripheral\pdm_pcm/cy_pdm_pcm.h **** * Function Name: Cy_PDM_PCM_GetInterruptMask
 553:Generated_Source\PSoC6\pdl\drivers\peripheral\pdm_pcm/cy_pdm_pcm.h **** ***************************************************************************//**
 554:Generated_Source\PSoC6\pdl\drivers\peripheral\pdm_pcm/cy_pdm_pcm.h **** *
 555:Generated_Source\PSoC6\pdl\drivers\peripheral\pdm_pcm/cy_pdm_pcm.h **** * Returns the PDM-PCM interrupt mask (a content of the INTR_MASK register).
 556:Generated_Source\PSoC6\pdl\drivers\peripheral\pdm_pcm/cy_pdm_pcm.h **** *
 557:Generated_Source\PSoC6\pdl\drivers\peripheral\pdm_pcm/cy_pdm_pcm.h **** * \param base The pointer to the PDM-PCM instance address.
 558:Generated_Source\PSoC6\pdl\drivers\peripheral\pdm_pcm/cy_pdm_pcm.h **** * \return The interrupt bit mask \ref group_pdm_pcm_macros_intrerrupt_masks.
 559:Generated_Source\PSoC6\pdl\drivers\peripheral\pdm_pcm/cy_pdm_pcm.h **** *
 560:Generated_Source\PSoC6\pdl\drivers\peripheral\pdm_pcm/cy_pdm_pcm.h **** ******************************************************************************/
 561:Generated_Source\PSoC6\pdl\drivers\peripheral\pdm_pcm/cy_pdm_pcm.h **** __STATIC_INLINE uint32_t Cy_PDM_PCM_GetInterruptMask(PDM_Type const * base)
 562:Generated_Source\PSoC6\pdl\drivers\peripheral\pdm_pcm/cy_pdm_pcm.h **** {
 563:Generated_Source\PSoC6\pdl\drivers\peripheral\pdm_pcm/cy_pdm_pcm.h ****     return (base->INTR_MASK);
 564:Generated_Source\PSoC6\pdl\drivers\peripheral\pdm_pcm/cy_pdm_pcm.h **** }
 565:Generated_Source\PSoC6\pdl\drivers\peripheral\pdm_pcm/cy_pdm_pcm.h **** 
 566:Generated_Source\PSoC6\pdl\drivers\peripheral\pdm_pcm/cy_pdm_pcm.h **** 
 567:Generated_Source\PSoC6\pdl\drivers\peripheral\pdm_pcm/cy_pdm_pcm.h **** /******************************************************************************
 568:Generated_Source\PSoC6\pdl\drivers\peripheral\pdm_pcm/cy_pdm_pcm.h **** * Function Name: Cy_PDM_PCM_GetInterruptStatusMasked
 569:Generated_Source\PSoC6\pdl\drivers\peripheral\pdm_pcm/cy_pdm_pcm.h **** ***************************************************************************//**
 570:Generated_Source\PSoC6\pdl\drivers\peripheral\pdm_pcm/cy_pdm_pcm.h **** *
 571:Generated_Source\PSoC6\pdl\drivers\peripheral\pdm_pcm/cy_pdm_pcm.h **** * Reports the status of enabled (masked) PDM-PCM interrupt sources.
ARM GAS  C:\Users\ikomb\AppData\Local\Temp\ccmrmnRc.s 			page 14


 572:Generated_Source\PSoC6\pdl\drivers\peripheral\pdm_pcm/cy_pdm_pcm.h **** * (an INTR_MASKED register).
 573:Generated_Source\PSoC6\pdl\drivers\peripheral\pdm_pcm/cy_pdm_pcm.h **** *
 574:Generated_Source\PSoC6\pdl\drivers\peripheral\pdm_pcm/cy_pdm_pcm.h **** * \param base The pointer to the PDM-PCM instance address.
 575:Generated_Source\PSoC6\pdl\drivers\peripheral\pdm_pcm/cy_pdm_pcm.h **** * \return The interrupt bit mask \ref group_pdm_pcm_macros_intrerrupt_masks.
 576:Generated_Source\PSoC6\pdl\drivers\peripheral\pdm_pcm/cy_pdm_pcm.h **** *
 577:Generated_Source\PSoC6\pdl\drivers\peripheral\pdm_pcm/cy_pdm_pcm.h **** *****************************************************************************/
 578:Generated_Source\PSoC6\pdl\drivers\peripheral\pdm_pcm/cy_pdm_pcm.h **** __STATIC_INLINE uint32_t Cy_PDM_PCM_GetInterruptStatusMasked(PDM_Type const * base)
 579:Generated_Source\PSoC6\pdl\drivers\peripheral\pdm_pcm/cy_pdm_pcm.h **** {
 580:Generated_Source\PSoC6\pdl\drivers\peripheral\pdm_pcm/cy_pdm_pcm.h ****     return (base->INTR_MASKED);
 581:Generated_Source\PSoC6\pdl\drivers\peripheral\pdm_pcm/cy_pdm_pcm.h **** }
 582:Generated_Source\PSoC6\pdl\drivers\peripheral\pdm_pcm/cy_pdm_pcm.h **** 
 583:Generated_Source\PSoC6\pdl\drivers\peripheral\pdm_pcm/cy_pdm_pcm.h **** 
 584:Generated_Source\PSoC6\pdl\drivers\peripheral\pdm_pcm/cy_pdm_pcm.h **** /******************************************************************************
 585:Generated_Source\PSoC6\pdl\drivers\peripheral\pdm_pcm/cy_pdm_pcm.h **** * Function Name: Cy_PDM_PCM_GetInterruptStatus
 586:Generated_Source\PSoC6\pdl\drivers\peripheral\pdm_pcm/cy_pdm_pcm.h **** ***************************************************************************//**
 587:Generated_Source\PSoC6\pdl\drivers\peripheral\pdm_pcm/cy_pdm_pcm.h **** *
 588:Generated_Source\PSoC6\pdl\drivers\peripheral\pdm_pcm/cy_pdm_pcm.h **** * Reports the status of PDM-PCM interrupt sources (an INTR register).
 589:Generated_Source\PSoC6\pdl\drivers\peripheral\pdm_pcm/cy_pdm_pcm.h **** *
 590:Generated_Source\PSoC6\pdl\drivers\peripheral\pdm_pcm/cy_pdm_pcm.h **** * \param base The pointer to the PDM-PCM instance address.
 591:Generated_Source\PSoC6\pdl\drivers\peripheral\pdm_pcm/cy_pdm_pcm.h **** * \return The interrupt bit mask \ref group_pdm_pcm_macros_intrerrupt_masks.
 592:Generated_Source\PSoC6\pdl\drivers\peripheral\pdm_pcm/cy_pdm_pcm.h **** *
 593:Generated_Source\PSoC6\pdl\drivers\peripheral\pdm_pcm/cy_pdm_pcm.h **** ******************************************************************************/
 594:Generated_Source\PSoC6\pdl\drivers\peripheral\pdm_pcm/cy_pdm_pcm.h **** __STATIC_INLINE uint32_t Cy_PDM_PCM_GetInterruptStatus(PDM_Type const * base)
 595:Generated_Source\PSoC6\pdl\drivers\peripheral\pdm_pcm/cy_pdm_pcm.h **** {
 596:Generated_Source\PSoC6\pdl\drivers\peripheral\pdm_pcm/cy_pdm_pcm.h ****     return (base->INTR);
 597:Generated_Source\PSoC6\pdl\drivers\peripheral\pdm_pcm/cy_pdm_pcm.h **** }
 598:Generated_Source\PSoC6\pdl\drivers\peripheral\pdm_pcm/cy_pdm_pcm.h **** 
 599:Generated_Source\PSoC6\pdl\drivers\peripheral\pdm_pcm/cy_pdm_pcm.h **** 
 600:Generated_Source\PSoC6\pdl\drivers\peripheral\pdm_pcm/cy_pdm_pcm.h **** /******************************************************************************
 601:Generated_Source\PSoC6\pdl\drivers\peripheral\pdm_pcm/cy_pdm_pcm.h **** * Function Name: Cy_PDM_PCM_ClearInterrupt
 602:Generated_Source\PSoC6\pdl\drivers\peripheral\pdm_pcm/cy_pdm_pcm.h **** ***************************************************************************//**
 603:Generated_Source\PSoC6\pdl\drivers\peripheral\pdm_pcm/cy_pdm_pcm.h **** *
 604:Generated_Source\PSoC6\pdl\drivers\peripheral\pdm_pcm/cy_pdm_pcm.h **** * Clears one or more PDM-PCM interrupt statuses (sets an INTR register's bits).
 605:Generated_Source\PSoC6\pdl\drivers\peripheral\pdm_pcm/cy_pdm_pcm.h **** *
 606:Generated_Source\PSoC6\pdl\drivers\peripheral\pdm_pcm/cy_pdm_pcm.h **** * \param base The pointer to the PDM-PCM instance address
 607:Generated_Source\PSoC6\pdl\drivers\peripheral\pdm_pcm/cy_pdm_pcm.h **** * \param interrupt 
 608:Generated_Source\PSoC6\pdl\drivers\peripheral\pdm_pcm/cy_pdm_pcm.h **** *  The interrupt bit mask \ref group_pdm_pcm_macros_intrerrupt_masks.
 609:Generated_Source\PSoC6\pdl\drivers\peripheral\pdm_pcm/cy_pdm_pcm.h **** *
 610:Generated_Source\PSoC6\pdl\drivers\peripheral\pdm_pcm/cy_pdm_pcm.h **** ******************************************************************************/
 611:Generated_Source\PSoC6\pdl\drivers\peripheral\pdm_pcm/cy_pdm_pcm.h **** __STATIC_INLINE void Cy_PDM_PCM_ClearInterrupt(PDM_Type * base, uint32_t interrupt)
 612:Generated_Source\PSoC6\pdl\drivers\peripheral\pdm_pcm/cy_pdm_pcm.h **** {
 613:Generated_Source\PSoC6\pdl\drivers\peripheral\pdm_pcm/cy_pdm_pcm.h ****     CY_ASSERT_L2(CY_PDM_PCM_IS_INTR_MASK_VALID(interrupt));
 614:Generated_Source\PSoC6\pdl\drivers\peripheral\pdm_pcm/cy_pdm_pcm.h ****     base->INTR = interrupt;
 615:Generated_Source\PSoC6\pdl\drivers\peripheral\pdm_pcm/cy_pdm_pcm.h ****     (void) base->INTR;
 616:Generated_Source\PSoC6\pdl\drivers\peripheral\pdm_pcm/cy_pdm_pcm.h **** }
 617:Generated_Source\PSoC6\pdl\drivers\peripheral\pdm_pcm/cy_pdm_pcm.h **** 
 618:Generated_Source\PSoC6\pdl\drivers\peripheral\pdm_pcm/cy_pdm_pcm.h **** 
 619:Generated_Source\PSoC6\pdl\drivers\peripheral\pdm_pcm/cy_pdm_pcm.h **** /******************************************************************************
 620:Generated_Source\PSoC6\pdl\drivers\peripheral\pdm_pcm/cy_pdm_pcm.h **** * Function Name: Cy_PDM_PCM_SetInterrupt
 621:Generated_Source\PSoC6\pdl\drivers\peripheral\pdm_pcm/cy_pdm_pcm.h **** ***************************************************************************//**
 622:Generated_Source\PSoC6\pdl\drivers\peripheral\pdm_pcm/cy_pdm_pcm.h **** *
 623:Generated_Source\PSoC6\pdl\drivers\peripheral\pdm_pcm/cy_pdm_pcm.h **** * Sets one or more interrupt source statuses (sets an INTR_SET register).
 624:Generated_Source\PSoC6\pdl\drivers\peripheral\pdm_pcm/cy_pdm_pcm.h **** *
 625:Generated_Source\PSoC6\pdl\drivers\peripheral\pdm_pcm/cy_pdm_pcm.h **** * \param base The pointer to the PDM-PCM instance address.
 626:Generated_Source\PSoC6\pdl\drivers\peripheral\pdm_pcm/cy_pdm_pcm.h **** * \param interrupt
 627:Generated_Source\PSoC6\pdl\drivers\peripheral\pdm_pcm/cy_pdm_pcm.h **** *  The interrupt bit mask \ref group_pdm_pcm_macros_intrerrupt_masks.
 628:Generated_Source\PSoC6\pdl\drivers\peripheral\pdm_pcm/cy_pdm_pcm.h **** *
ARM GAS  C:\Users\ikomb\AppData\Local\Temp\ccmrmnRc.s 			page 15


 629:Generated_Source\PSoC6\pdl\drivers\peripheral\pdm_pcm/cy_pdm_pcm.h **** ******************************************************************************/
 630:Generated_Source\PSoC6\pdl\drivers\peripheral\pdm_pcm/cy_pdm_pcm.h **** __STATIC_INLINE void Cy_PDM_PCM_SetInterrupt(PDM_Type * base, uint32_t interrupt)
 631:Generated_Source\PSoC6\pdl\drivers\peripheral\pdm_pcm/cy_pdm_pcm.h **** {
 632:Generated_Source\PSoC6\pdl\drivers\peripheral\pdm_pcm/cy_pdm_pcm.h ****     CY_ASSERT_L2(CY_PDM_PCM_IS_INTR_MASK_VALID(interrupt));
 633:Generated_Source\PSoC6\pdl\drivers\peripheral\pdm_pcm/cy_pdm_pcm.h ****     base->INTR_SET = interrupt;
 634:Generated_Source\PSoC6\pdl\drivers\peripheral\pdm_pcm/cy_pdm_pcm.h **** }
 635:Generated_Source\PSoC6\pdl\drivers\peripheral\pdm_pcm/cy_pdm_pcm.h **** 
 636:Generated_Source\PSoC6\pdl\drivers\peripheral\pdm_pcm/cy_pdm_pcm.h **** 
 637:Generated_Source\PSoC6\pdl\drivers\peripheral\pdm_pcm/cy_pdm_pcm.h **** /******************************************************************************
 638:Generated_Source\PSoC6\pdl\drivers\peripheral\pdm_pcm/cy_pdm_pcm.h **** * Function Name: Cy_PDM_PCM_GetNumInFifo
 639:Generated_Source\PSoC6\pdl\drivers\peripheral\pdm_pcm/cy_pdm_pcm.h **** ***************************************************************************//**
 640:Generated_Source\PSoC6\pdl\drivers\peripheral\pdm_pcm/cy_pdm_pcm.h **** *
 641:Generated_Source\PSoC6\pdl\drivers\peripheral\pdm_pcm/cy_pdm_pcm.h **** * Reports the current number of used words in the output data FIFO.
 642:Generated_Source\PSoC6\pdl\drivers\peripheral\pdm_pcm/cy_pdm_pcm.h **** *
 643:Generated_Source\PSoC6\pdl\drivers\peripheral\pdm_pcm/cy_pdm_pcm.h **** * \param base The pointer to the PDM-PCM instance address.
 644:Generated_Source\PSoC6\pdl\drivers\peripheral\pdm_pcm/cy_pdm_pcm.h **** * \return The current number of used FIFO words (range is 0 - 254).
 645:Generated_Source\PSoC6\pdl\drivers\peripheral\pdm_pcm/cy_pdm_pcm.h **** *
 646:Generated_Source\PSoC6\pdl\drivers\peripheral\pdm_pcm/cy_pdm_pcm.h **** ******************************************************************************/
 647:Generated_Source\PSoC6\pdl\drivers\peripheral\pdm_pcm/cy_pdm_pcm.h **** __STATIC_INLINE uint8_t Cy_PDM_PCM_GetNumInFifo(PDM_Type const * base)
 648:Generated_Source\PSoC6\pdl\drivers\peripheral\pdm_pcm/cy_pdm_pcm.h **** {
 649:Generated_Source\PSoC6\pdl\drivers\peripheral\pdm_pcm/cy_pdm_pcm.h ****     return (uint8_t) (_FLD2VAL(PDM_RX_FIFO_STATUS_USED, base->RX_FIFO_STATUS));
 650:Generated_Source\PSoC6\pdl\drivers\peripheral\pdm_pcm/cy_pdm_pcm.h **** }
 651:Generated_Source\PSoC6\pdl\drivers\peripheral\pdm_pcm/cy_pdm_pcm.h **** 
 652:Generated_Source\PSoC6\pdl\drivers\peripheral\pdm_pcm/cy_pdm_pcm.h **** 
 653:Generated_Source\PSoC6\pdl\drivers\peripheral\pdm_pcm/cy_pdm_pcm.h **** /******************************************************************************
 654:Generated_Source\PSoC6\pdl\drivers\peripheral\pdm_pcm/cy_pdm_pcm.h **** * Function Name: Cy_PDM_PCM_ClearFifo
 655:Generated_Source\PSoC6\pdl\drivers\peripheral\pdm_pcm/cy_pdm_pcm.h **** ***************************************************************************//**
 656:Generated_Source\PSoC6\pdl\drivers\peripheral\pdm_pcm/cy_pdm_pcm.h **** *
 657:Generated_Source\PSoC6\pdl\drivers\peripheral\pdm_pcm/cy_pdm_pcm.h **** * Resets the output data FIFO, removing all data words from the FIFO.
 658:Generated_Source\PSoC6\pdl\drivers\peripheral\pdm_pcm/cy_pdm_pcm.h **** *
 659:Generated_Source\PSoC6\pdl\drivers\peripheral\pdm_pcm/cy_pdm_pcm.h **** * \param base The pointer to the PDM-PCM instance address.
 660:Generated_Source\PSoC6\pdl\drivers\peripheral\pdm_pcm/cy_pdm_pcm.h **** *
 661:Generated_Source\PSoC6\pdl\drivers\peripheral\pdm_pcm/cy_pdm_pcm.h **** ******************************************************************************/
 662:Generated_Source\PSoC6\pdl\drivers\peripheral\pdm_pcm/cy_pdm_pcm.h **** __STATIC_INLINE void Cy_PDM_PCM_ClearFifo(PDM_Type * base)
 663:Generated_Source\PSoC6\pdl\drivers\peripheral\pdm_pcm/cy_pdm_pcm.h **** {
 163              		.loc 1 663 0
 164              		.cfi_startproc
 165              		@ args = 0, pretend = 0, frame = 8
 166              		@ frame_needed = 1, uses_anonymous_args = 0
 167              		@ link register save eliminated.
 168 0000 80B4     		push	{r7}
 169              		.cfi_def_cfa_offset 4
 170              		.cfi_offset 7, -4
 171 0002 83B0     		sub	sp, sp, #12
 172              		.cfi_def_cfa_offset 16
 173 0004 00AF     		add	r7, sp, #0
 174              		.cfi_def_cfa_register 7
 175 0006 7860     		str	r0, [r7, #4]
 664:Generated_Source\PSoC6\pdl\drivers\peripheral\pdm_pcm/cy_pdm_pcm.h ****     base->RX_FIFO_CTL |= PDM_RX_FIFO_CTL_CLEAR_Msk; /* clear FIFO and disable it */
 176              		.loc 1 664 0
 177 0008 7B68     		ldr	r3, [r7, #4]
 178 000a D3F80033 		ldr	r3, [r3, #768]
 179 000e 43F48032 		orr	r2, r3, #65536
 180 0012 7B68     		ldr	r3, [r7, #4]
 181 0014 C3F80023 		str	r2, [r3, #768]
 665:Generated_Source\PSoC6\pdl\drivers\peripheral\pdm_pcm/cy_pdm_pcm.h ****     base->RX_FIFO_CTL &= (uint32_t) ~PDM_RX_FIFO_CTL_CLEAR_Msk; /* enable FIFO */
 182              		.loc 1 665 0
ARM GAS  C:\Users\ikomb\AppData\Local\Temp\ccmrmnRc.s 			page 16


 183 0018 7B68     		ldr	r3, [r7, #4]
 184 001a D3F80033 		ldr	r3, [r3, #768]
 185 001e 23F48032 		bic	r2, r3, #65536
 186 0022 7B68     		ldr	r3, [r7, #4]
 187 0024 C3F80023 		str	r2, [r3, #768]
 666:Generated_Source\PSoC6\pdl\drivers\peripheral\pdm_pcm/cy_pdm_pcm.h **** }
 188              		.loc 1 666 0
 189 0028 00BF     		nop
 190 002a 0C37     		adds	r7, r7, #12
 191              		.cfi_def_cfa_offset 4
 192 002c BD46     		mov	sp, r7
 193              		.cfi_def_cfa_register 13
 194              		@ sp needed
 195 002e 5DF8047B 		ldr	r7, [sp], #4
 196              		.cfi_restore 7
 197              		.cfi_def_cfa_offset 0
 198 0032 7047     		bx	lr
 199              		.cfi_endproc
 200              	.LFE168:
 201              		.size	Cy_PDM_PCM_ClearFifo, .-Cy_PDM_PCM_ClearFifo
 202              		.section	.rodata
 203 0043 00       		.align	2
 204              	.LC1:
 205 0044 47656E65 		.ascii	"Generated_Source\\PSoC6\\pdl\\drivers\\peripheral\\"
 205      72617465 
 205      645F536F 
 205      75726365 
 205      5C50536F 
 206 0072 70646D5F 		.ascii	"pdm_pcm\\cy_pdm_pcm.c\000"
 206      70636D5C 
 206      63795F70 
 206      646D5F70 
 206      636D2E63 
 207              		.section	.text.Cy_PDM_PCM_Init,"ax",%progbits
 208              		.align	2
 209              		.global	Cy_PDM_PCM_Init
 210              		.thumb
 211              		.thumb_func
 212              		.type	Cy_PDM_PCM_Init, %function
 213              	Cy_PDM_PCM_Init:
 214              	.LFB175:
 215              		.file 2 "Generated_Source\\PSoC6\\pdl\\drivers\\peripheral\\pdm_pcm\\cy_pdm_pcm.c"
   1:Generated_Source\PSoC6\pdl\drivers\peripheral\pdm_pcm/cy_pdm_pcm.c **** /***************************************************************************//**
   2:Generated_Source\PSoC6\pdl\drivers\peripheral\pdm_pcm/cy_pdm_pcm.c **** * \file cy_pdm_pcm.c
   3:Generated_Source\PSoC6\pdl\drivers\peripheral\pdm_pcm/cy_pdm_pcm.c **** * \version 2.10
   4:Generated_Source\PSoC6\pdl\drivers\peripheral\pdm_pcm/cy_pdm_pcm.c **** *
   5:Generated_Source\PSoC6\pdl\drivers\peripheral\pdm_pcm/cy_pdm_pcm.c **** * The source code file for the PDM_PCM driver.
   6:Generated_Source\PSoC6\pdl\drivers\peripheral\pdm_pcm/cy_pdm_pcm.c **** *
   7:Generated_Source\PSoC6\pdl\drivers\peripheral\pdm_pcm/cy_pdm_pcm.c **** ********************************************************************************
   8:Generated_Source\PSoC6\pdl\drivers\peripheral\pdm_pcm/cy_pdm_pcm.c **** * \copyright
   9:Generated_Source\PSoC6\pdl\drivers\peripheral\pdm_pcm/cy_pdm_pcm.c **** * Copyright 2016-2018, Cypress Semiconductor Corporation. All rights reserved.
  10:Generated_Source\PSoC6\pdl\drivers\peripheral\pdm_pcm/cy_pdm_pcm.c **** * You may use this file only in accordance with the license, terms, conditions,
  11:Generated_Source\PSoC6\pdl\drivers\peripheral\pdm_pcm/cy_pdm_pcm.c **** * disclaimers, and limitations in the end user license agreement accompanying
  12:Generated_Source\PSoC6\pdl\drivers\peripheral\pdm_pcm/cy_pdm_pcm.c **** * the software package with which this file was provided.
  13:Generated_Source\PSoC6\pdl\drivers\peripheral\pdm_pcm/cy_pdm_pcm.c **** *******************************************************************************/
  14:Generated_Source\PSoC6\pdl\drivers\peripheral\pdm_pcm/cy_pdm_pcm.c **** 
  15:Generated_Source\PSoC6\pdl\drivers\peripheral\pdm_pcm/cy_pdm_pcm.c **** #include "cy_pdm_pcm.h"
ARM GAS  C:\Users\ikomb\AppData\Local\Temp\ccmrmnRc.s 			page 17


  16:Generated_Source\PSoC6\pdl\drivers\peripheral\pdm_pcm/cy_pdm_pcm.c **** 
  17:Generated_Source\PSoC6\pdl\drivers\peripheral\pdm_pcm/cy_pdm_pcm.c **** /* The C binding of definitions if building with the C++ compiler */
  18:Generated_Source\PSoC6\pdl\drivers\peripheral\pdm_pcm/cy_pdm_pcm.c **** #ifdef __cplusplus
  19:Generated_Source\PSoC6\pdl\drivers\peripheral\pdm_pcm/cy_pdm_pcm.c **** extern "C"
  20:Generated_Source\PSoC6\pdl\drivers\peripheral\pdm_pcm/cy_pdm_pcm.c **** {
  21:Generated_Source\PSoC6\pdl\drivers\peripheral\pdm_pcm/cy_pdm_pcm.c **** #endif
  22:Generated_Source\PSoC6\pdl\drivers\peripheral\pdm_pcm/cy_pdm_pcm.c **** 
  23:Generated_Source\PSoC6\pdl\drivers\peripheral\pdm_pcm/cy_pdm_pcm.c **** /**
  24:Generated_Source\PSoC6\pdl\drivers\peripheral\pdm_pcm/cy_pdm_pcm.c **** * \addtogroup group_pdm_pcm_functions
  25:Generated_Source\PSoC6\pdl\drivers\peripheral\pdm_pcm/cy_pdm_pcm.c **** * \{
  26:Generated_Source\PSoC6\pdl\drivers\peripheral\pdm_pcm/cy_pdm_pcm.c **** */
  27:Generated_Source\PSoC6\pdl\drivers\peripheral\pdm_pcm/cy_pdm_pcm.c **** 
  28:Generated_Source\PSoC6\pdl\drivers\peripheral\pdm_pcm/cy_pdm_pcm.c **** /******************************************************************************
  29:Generated_Source\PSoC6\pdl\drivers\peripheral\pdm_pcm/cy_pdm_pcm.c **** * Function Name: Cy_PDM_PCM_Init
  30:Generated_Source\PSoC6\pdl\drivers\peripheral\pdm_pcm/cy_pdm_pcm.c **** ***************************************************************************//**
  31:Generated_Source\PSoC6\pdl\drivers\peripheral\pdm_pcm/cy_pdm_pcm.c **** *
  32:Generated_Source\PSoC6\pdl\drivers\peripheral\pdm_pcm/cy_pdm_pcm.c **** * Initialize the PDM-PCM module
  33:Generated_Source\PSoC6\pdl\drivers\peripheral\pdm_pcm/cy_pdm_pcm.c **** *
  34:Generated_Source\PSoC6\pdl\drivers\peripheral\pdm_pcm/cy_pdm_pcm.c **** * \pre If the PDM-PCM module is initialized previously, the
  35:Generated_Source\PSoC6\pdl\drivers\peripheral\pdm_pcm/cy_pdm_pcm.c **** * \ref Cy_PDM_PCM_DeInit() must be called before calling this function.
  36:Generated_Source\PSoC6\pdl\drivers\peripheral\pdm_pcm/cy_pdm_pcm.c **** *
  37:Generated_Source\PSoC6\pdl\drivers\peripheral\pdm_pcm/cy_pdm_pcm.c **** * \param  base The pointer to the PDM-PCM instance address
  38:Generated_Source\PSoC6\pdl\drivers\peripheral\pdm_pcm/cy_pdm_pcm.c **** * \param  config The pointer to a configuration structure.
  39:Generated_Source\PSoC6\pdl\drivers\peripheral\pdm_pcm/cy_pdm_pcm.c **** * \return error / status code. See \ref cy_en_pdm_pcm_status_t.
  40:Generated_Source\PSoC6\pdl\drivers\peripheral\pdm_pcm/cy_pdm_pcm.c **** *
  41:Generated_Source\PSoC6\pdl\drivers\peripheral\pdm_pcm/cy_pdm_pcm.c **** * An example of a configuration structure:
  42:Generated_Source\PSoC6\pdl\drivers\peripheral\pdm_pcm/cy_pdm_pcm.c **** * \snippet PDM_PCM_PDL_sut_00.cydsn/main_cm4.c PDM_PCM Configuration
  43:Generated_Source\PSoC6\pdl\drivers\peripheral\pdm_pcm/cy_pdm_pcm.c **** *
  44:Generated_Source\PSoC6\pdl\drivers\peripheral\pdm_pcm/cy_pdm_pcm.c **** *******************************************************************************/
  45:Generated_Source\PSoC6\pdl\drivers\peripheral\pdm_pcm/cy_pdm_pcm.c **** cy_en_pdm_pcm_status_t Cy_PDM_PCM_Init(PDM_Type * base, cy_stc_pdm_pcm_config_t const * config)
  46:Generated_Source\PSoC6\pdl\drivers\peripheral\pdm_pcm/cy_pdm_pcm.c **** {
 216              		.loc 2 46 0
 217              		.cfi_startproc
 218              		@ args = 0, pretend = 0, frame = 16
 219              		@ frame_needed = 1, uses_anonymous_args = 0
 220 0000 80B5     		push	{r7, lr}
 221              		.cfi_def_cfa_offset 8
 222              		.cfi_offset 7, -8
 223              		.cfi_offset 14, -4
 224 0002 84B0     		sub	sp, sp, #16
 225              		.cfi_def_cfa_offset 24
 226 0004 00AF     		add	r7, sp, #0
 227              		.cfi_def_cfa_register 7
 228 0006 7860     		str	r0, [r7, #4]
 229 0008 3960     		str	r1, [r7]
  47:Generated_Source\PSoC6\pdl\drivers\peripheral\pdm_pcm/cy_pdm_pcm.c ****     cy_en_pdm_pcm_status_t ret = CY_PDM_PCM_BAD_PARAM;
 230              		.loc 2 47 0
 231 000a 984B     		ldr	r3, .L37
 232 000c FB60     		str	r3, [r7, #12]
  48:Generated_Source\PSoC6\pdl\drivers\peripheral\pdm_pcm/cy_pdm_pcm.c **** 
  49:Generated_Source\PSoC6\pdl\drivers\peripheral\pdm_pcm/cy_pdm_pcm.c ****     if((NULL != base) && (NULL != config))
 233              		.loc 2 49 0
 234 000e 7B68     		ldr	r3, [r7, #4]
 235 0010 002B     		cmp	r3, #0
 236 0012 00F0CA81 		beq	.L9
 237              		.loc 2 49 0 is_stmt 0 discriminator 1
 238 0016 3B68     		ldr	r3, [r7]
ARM GAS  C:\Users\ikomb\AppData\Local\Temp\ccmrmnRc.s 			page 18


 239 0018 002B     		cmp	r3, #0
 240 001a 00F0C681 		beq	.L9
  50:Generated_Source\PSoC6\pdl\drivers\peripheral\pdm_pcm/cy_pdm_pcm.c ****     {
  51:Generated_Source\PSoC6\pdl\drivers\peripheral\pdm_pcm/cy_pdm_pcm.c ****         CY_ASSERT_L3(CY_PDM_PCM_IS_CLK_DIV_VALID(config->clkDiv));
 241              		.loc 2 51 0 is_stmt 1
 242 001e 3B68     		ldr	r3, [r7]
 243 0020 1B78     		ldrb	r3, [r3]	@ zero_extendqisi2
 244 0022 002B     		cmp	r3, #0
 245 0024 0FD0     		beq	.L10
 246              		.loc 2 51 0 is_stmt 0 discriminator 1
 247 0026 3B68     		ldr	r3, [r7]
 248 0028 1B78     		ldrb	r3, [r3]	@ zero_extendqisi2
 249 002a 012B     		cmp	r3, #1
 250 002c 0BD0     		beq	.L10
 251              		.loc 2 51 0 discriminator 2
 252 002e 3B68     		ldr	r3, [r7]
 253 0030 1B78     		ldrb	r3, [r3]	@ zero_extendqisi2
 254 0032 022B     		cmp	r3, #2
 255 0034 07D0     		beq	.L10
 256              		.loc 2 51 0 discriminator 3
 257 0036 3B68     		ldr	r3, [r7]
 258 0038 1B78     		ldrb	r3, [r3]	@ zero_extendqisi2
 259 003a 032B     		cmp	r3, #3
 260 003c 03D0     		beq	.L10
 261              		.loc 2 51 0 discriminator 4
 262 003e 3321     		movs	r1, #51
 263 0040 8B48     		ldr	r0, .L37+4
 264 0042 FFF7FEFF 		bl	Cy_SysLib_AssertFailed
 265              	.L10:
  52:Generated_Source\PSoC6\pdl\drivers\peripheral\pdm_pcm/cy_pdm_pcm.c ****         CY_ASSERT_L3(CY_PDM_PCM_IS_CLK_DIV_VALID(config->mclkDiv));
 266              		.loc 2 52 0 is_stmt 1
 267 0046 3B68     		ldr	r3, [r7]
 268 0048 5B78     		ldrb	r3, [r3, #1]	@ zero_extendqisi2
 269 004a 002B     		cmp	r3, #0
 270 004c 0FD0     		beq	.L11
 271              		.loc 2 52 0 is_stmt 0 discriminator 1
 272 004e 3B68     		ldr	r3, [r7]
 273 0050 5B78     		ldrb	r3, [r3, #1]	@ zero_extendqisi2
 274 0052 012B     		cmp	r3, #1
 275 0054 0BD0     		beq	.L11
 276              		.loc 2 52 0 discriminator 2
 277 0056 3B68     		ldr	r3, [r7]
 278 0058 5B78     		ldrb	r3, [r3, #1]	@ zero_extendqisi2
 279 005a 022B     		cmp	r3, #2
 280 005c 07D0     		beq	.L11
 281              		.loc 2 52 0 discriminator 3
 282 005e 3B68     		ldr	r3, [r7]
 283 0060 5B78     		ldrb	r3, [r3, #1]	@ zero_extendqisi2
 284 0062 032B     		cmp	r3, #3
 285 0064 03D0     		beq	.L11
 286              		.loc 2 52 0 discriminator 4
 287 0066 3421     		movs	r1, #52
 288 0068 8148     		ldr	r0, .L37+4
 289 006a FFF7FEFF 		bl	Cy_SysLib_AssertFailed
 290              	.L11:
  53:Generated_Source\PSoC6\pdl\drivers\peripheral\pdm_pcm/cy_pdm_pcm.c ****         CY_ASSERT_L3(CY_PDM_PCM_IS_CKO_CLOCK_DIV_VALID(config->ckoDiv));
 291              		.loc 2 53 0 is_stmt 1
ARM GAS  C:\Users\ikomb\AppData\Local\Temp\ccmrmnRc.s 			page 19


 292 006e 3B68     		ldr	r3, [r7]
 293 0070 9B78     		ldrb	r3, [r3, #2]	@ zero_extendqisi2
 294 0072 002B     		cmp	r3, #0
 295 0074 03D0     		beq	.L12
 296              		.loc 2 53 0 is_stmt 0 discriminator 2
 297 0076 3B68     		ldr	r3, [r7]
 298 0078 9B78     		ldrb	r3, [r3, #2]	@ zero_extendqisi2
 299 007a 0F2B     		cmp	r3, #15
 300 007c 03D9     		bls	.L13
 301              	.L12:
 302              		.loc 2 53 0 discriminator 3
 303 007e 3521     		movs	r1, #53
 304 0080 7B48     		ldr	r0, .L37+4
 305 0082 FFF7FEFF 		bl	Cy_SysLib_AssertFailed
 306              	.L13:
  54:Generated_Source\PSoC6\pdl\drivers\peripheral\pdm_pcm/cy_pdm_pcm.c ****         CY_ASSERT_L3(CY_PDM_PCM_IS_SINC_RATE_VALID(config->sincDecRate));
 307              		.loc 2 54 0 is_stmt 1
 308 0086 3B68     		ldr	r3, [r7]
 309 0088 1B79     		ldrb	r3, [r3, #4]	@ zero_extendqisi2
 310 008a 5BB2     		sxtb	r3, r3
 311 008c 002B     		cmp	r3, #0
 312 008e 03DA     		bge	.L14
 313              		.loc 2 54 0 is_stmt 0 discriminator 1
 314 0090 3621     		movs	r1, #54
 315 0092 7748     		ldr	r0, .L37+4
 316 0094 FFF7FEFF 		bl	Cy_SysLib_AssertFailed
 317              	.L14:
  55:Generated_Source\PSoC6\pdl\drivers\peripheral\pdm_pcm/cy_pdm_pcm.c ****         CY_ASSERT_L3(CY_PDM_PCM_IS_GAIN_VALID(config->gainRight));
 318              		.loc 2 55 0 is_stmt 1
 319 0098 3B68     		ldr	r3, [r7]
 320 009a 1B7D     		ldrb	r3, [r3, #20]	@ zero_extendqisi2
 321 009c 002B     		cmp	r3, #0
 322 009e 3FD0     		beq	.L15
 323              		.loc 2 55 0 is_stmt 0 discriminator 1
 324 00a0 3B68     		ldr	r3, [r7]
 325 00a2 1B7D     		ldrb	r3, [r3, #20]	@ zero_extendqisi2
 326 00a4 012B     		cmp	r3, #1
 327 00a6 3BD0     		beq	.L15
 328              		.loc 2 55 0 discriminator 2
 329 00a8 3B68     		ldr	r3, [r7]
 330 00aa 1B7D     		ldrb	r3, [r3, #20]	@ zero_extendqisi2
 331 00ac 022B     		cmp	r3, #2
 332 00ae 37D0     		beq	.L15
 333              		.loc 2 55 0 discriminator 3
 334 00b0 3B68     		ldr	r3, [r7]
 335 00b2 1B7D     		ldrb	r3, [r3, #20]	@ zero_extendqisi2
 336 00b4 032B     		cmp	r3, #3
 337 00b6 33D0     		beq	.L15
 338              		.loc 2 55 0 discriminator 4
 339 00b8 3B68     		ldr	r3, [r7]
 340 00ba 1B7D     		ldrb	r3, [r3, #20]	@ zero_extendqisi2
 341 00bc 042B     		cmp	r3, #4
 342 00be 2FD0     		beq	.L15
 343              		.loc 2 55 0 discriminator 5
 344 00c0 3B68     		ldr	r3, [r7]
 345 00c2 1B7D     		ldrb	r3, [r3, #20]	@ zero_extendqisi2
 346 00c4 052B     		cmp	r3, #5
ARM GAS  C:\Users\ikomb\AppData\Local\Temp\ccmrmnRc.s 			page 20


 347 00c6 2BD0     		beq	.L15
 348              		.loc 2 55 0 discriminator 6
 349 00c8 3B68     		ldr	r3, [r7]
 350 00ca 1B7D     		ldrb	r3, [r3, #20]	@ zero_extendqisi2
 351 00cc 062B     		cmp	r3, #6
 352 00ce 27D0     		beq	.L15
 353              		.loc 2 55 0 discriminator 7
 354 00d0 3B68     		ldr	r3, [r7]
 355 00d2 1B7D     		ldrb	r3, [r3, #20]	@ zero_extendqisi2
 356 00d4 072B     		cmp	r3, #7
 357 00d6 23D0     		beq	.L15
 358              		.loc 2 55 0 discriminator 8
 359 00d8 3B68     		ldr	r3, [r7]
 360 00da 1B7D     		ldrb	r3, [r3, #20]	@ zero_extendqisi2
 361 00dc 082B     		cmp	r3, #8
 362 00de 1FD0     		beq	.L15
 363              		.loc 2 55 0 discriminator 9
 364 00e0 3B68     		ldr	r3, [r7]
 365 00e2 1B7D     		ldrb	r3, [r3, #20]	@ zero_extendqisi2
 366 00e4 092B     		cmp	r3, #9
 367 00e6 1BD0     		beq	.L15
 368              		.loc 2 55 0 discriminator 10
 369 00e8 3B68     		ldr	r3, [r7]
 370 00ea 1B7D     		ldrb	r3, [r3, #20]	@ zero_extendqisi2
 371 00ec 0A2B     		cmp	r3, #10
 372 00ee 17D0     		beq	.L15
 373              		.loc 2 55 0 discriminator 11
 374 00f0 3B68     		ldr	r3, [r7]
 375 00f2 1B7D     		ldrb	r3, [r3, #20]	@ zero_extendqisi2
 376 00f4 0B2B     		cmp	r3, #11
 377 00f6 13D0     		beq	.L15
 378              		.loc 2 55 0 discriminator 12
 379 00f8 3B68     		ldr	r3, [r7]
 380 00fa 1B7D     		ldrb	r3, [r3, #20]	@ zero_extendqisi2
 381 00fc 0C2B     		cmp	r3, #12
 382 00fe 0FD0     		beq	.L15
 383              		.loc 2 55 0 discriminator 13
 384 0100 3B68     		ldr	r3, [r7]
 385 0102 1B7D     		ldrb	r3, [r3, #20]	@ zero_extendqisi2
 386 0104 0D2B     		cmp	r3, #13
 387 0106 0BD0     		beq	.L15
 388              		.loc 2 55 0 discriminator 14
 389 0108 3B68     		ldr	r3, [r7]
 390 010a 1B7D     		ldrb	r3, [r3, #20]	@ zero_extendqisi2
 391 010c 0E2B     		cmp	r3, #14
 392 010e 07D0     		beq	.L15
 393              		.loc 2 55 0 discriminator 15
 394 0110 3B68     		ldr	r3, [r7]
 395 0112 1B7D     		ldrb	r3, [r3, #20]	@ zero_extendqisi2
 396 0114 0F2B     		cmp	r3, #15
 397 0116 03D0     		beq	.L15
 398              		.loc 2 55 0 discriminator 16
 399 0118 3721     		movs	r1, #55
 400 011a 5548     		ldr	r0, .L37+4
 401 011c FFF7FEFF 		bl	Cy_SysLib_AssertFailed
 402              	.L15:
  56:Generated_Source\PSoC6\pdl\drivers\peripheral\pdm_pcm/cy_pdm_pcm.c ****         CY_ASSERT_L3(CY_PDM_PCM_IS_GAIN_VALID(config->gainLeft));
ARM GAS  C:\Users\ikomb\AppData\Local\Temp\ccmrmnRc.s 			page 21


 403              		.loc 2 56 0 is_stmt 1
 404 0120 3B68     		ldr	r3, [r7]
 405 0122 DB7C     		ldrb	r3, [r3, #19]	@ zero_extendqisi2
 406 0124 002B     		cmp	r3, #0
 407 0126 3FD0     		beq	.L16
 408              		.loc 2 56 0 is_stmt 0 discriminator 1
 409 0128 3B68     		ldr	r3, [r7]
 410 012a DB7C     		ldrb	r3, [r3, #19]	@ zero_extendqisi2
 411 012c 012B     		cmp	r3, #1
 412 012e 3BD0     		beq	.L16
 413              		.loc 2 56 0 discriminator 2
 414 0130 3B68     		ldr	r3, [r7]
 415 0132 DB7C     		ldrb	r3, [r3, #19]	@ zero_extendqisi2
 416 0134 022B     		cmp	r3, #2
 417 0136 37D0     		beq	.L16
 418              		.loc 2 56 0 discriminator 3
 419 0138 3B68     		ldr	r3, [r7]
 420 013a DB7C     		ldrb	r3, [r3, #19]	@ zero_extendqisi2
 421 013c 032B     		cmp	r3, #3
 422 013e 33D0     		beq	.L16
 423              		.loc 2 56 0 discriminator 4
 424 0140 3B68     		ldr	r3, [r7]
 425 0142 DB7C     		ldrb	r3, [r3, #19]	@ zero_extendqisi2
 426 0144 042B     		cmp	r3, #4
 427 0146 2FD0     		beq	.L16
 428              		.loc 2 56 0 discriminator 5
 429 0148 3B68     		ldr	r3, [r7]
 430 014a DB7C     		ldrb	r3, [r3, #19]	@ zero_extendqisi2
 431 014c 052B     		cmp	r3, #5
 432 014e 2BD0     		beq	.L16
 433              		.loc 2 56 0 discriminator 6
 434 0150 3B68     		ldr	r3, [r7]
 435 0152 DB7C     		ldrb	r3, [r3, #19]	@ zero_extendqisi2
 436 0154 062B     		cmp	r3, #6
 437 0156 27D0     		beq	.L16
 438              		.loc 2 56 0 discriminator 7
 439 0158 3B68     		ldr	r3, [r7]
 440 015a DB7C     		ldrb	r3, [r3, #19]	@ zero_extendqisi2
 441 015c 072B     		cmp	r3, #7
 442 015e 23D0     		beq	.L16
 443              		.loc 2 56 0 discriminator 8
 444 0160 3B68     		ldr	r3, [r7]
 445 0162 DB7C     		ldrb	r3, [r3, #19]	@ zero_extendqisi2
 446 0164 082B     		cmp	r3, #8
 447 0166 1FD0     		beq	.L16
 448              		.loc 2 56 0 discriminator 9
 449 0168 3B68     		ldr	r3, [r7]
 450 016a DB7C     		ldrb	r3, [r3, #19]	@ zero_extendqisi2
 451 016c 092B     		cmp	r3, #9
 452 016e 1BD0     		beq	.L16
 453              		.loc 2 56 0 discriminator 10
 454 0170 3B68     		ldr	r3, [r7]
 455 0172 DB7C     		ldrb	r3, [r3, #19]	@ zero_extendqisi2
 456 0174 0A2B     		cmp	r3, #10
 457 0176 17D0     		beq	.L16
 458              		.loc 2 56 0 discriminator 11
 459 0178 3B68     		ldr	r3, [r7]
ARM GAS  C:\Users\ikomb\AppData\Local\Temp\ccmrmnRc.s 			page 22


 460 017a DB7C     		ldrb	r3, [r3, #19]	@ zero_extendqisi2
 461 017c 0B2B     		cmp	r3, #11
 462 017e 13D0     		beq	.L16
 463              		.loc 2 56 0 discriminator 12
 464 0180 3B68     		ldr	r3, [r7]
 465 0182 DB7C     		ldrb	r3, [r3, #19]	@ zero_extendqisi2
 466 0184 0C2B     		cmp	r3, #12
 467 0186 0FD0     		beq	.L16
 468              		.loc 2 56 0 discriminator 13
 469 0188 3B68     		ldr	r3, [r7]
 470 018a DB7C     		ldrb	r3, [r3, #19]	@ zero_extendqisi2
 471 018c 0D2B     		cmp	r3, #13
 472 018e 0BD0     		beq	.L16
 473              		.loc 2 56 0 discriminator 14
 474 0190 3B68     		ldr	r3, [r7]
 475 0192 DB7C     		ldrb	r3, [r3, #19]	@ zero_extendqisi2
 476 0194 0E2B     		cmp	r3, #14
 477 0196 07D0     		beq	.L16
 478              		.loc 2 56 0 discriminator 15
 479 0198 3B68     		ldr	r3, [r7]
 480 019a DB7C     		ldrb	r3, [r3, #19]	@ zero_extendqisi2
 481 019c 0F2B     		cmp	r3, #15
 482 019e 03D0     		beq	.L16
 483              		.loc 2 56 0 discriminator 16
 484 01a0 3821     		movs	r1, #56
 485 01a2 3348     		ldr	r0, .L37+4
 486 01a4 FFF7FEFF 		bl	Cy_SysLib_AssertFailed
 487              	.L16:
  57:Generated_Source\PSoC6\pdl\drivers\peripheral\pdm_pcm/cy_pdm_pcm.c ****         CY_ASSERT_L3(CY_PDM_PCM_IS_STEP_SEL_VALID(config->softMuteFineGain));
 488              		.loc 2 57 0 is_stmt 1
 489 01a8 3B68     		ldr	r3, [r7]
 490 01aa DB68     		ldr	r3, [r3, #12]
 491 01ac 012B     		cmp	r3, #1
 492 01ae 03D9     		bls	.L17
 493              		.loc 2 57 0 is_stmt 0 discriminator 1
 494 01b0 3921     		movs	r1, #57
 495 01b2 2F48     		ldr	r0, .L37+4
 496 01b4 FFF7FEFF 		bl	Cy_SysLib_AssertFailed
 497              	.L17:
  58:Generated_Source\PSoC6\pdl\drivers\peripheral\pdm_pcm/cy_pdm_pcm.c ****         CY_ASSERT_L3(CY_PDM_PCM_IS_CH_SET_VALID(config->chanSelect));
 498              		.loc 2 58 0 is_stmt 1
 499 01b8 3B68     		ldr	r3, [r7]
 500 01ba 5B79     		ldrb	r3, [r3, #5]	@ zero_extendqisi2
 501 01bc 012B     		cmp	r3, #1
 502 01be 0BD0     		beq	.L18
 503              		.loc 2 58 0 is_stmt 0 discriminator 1
 504 01c0 3B68     		ldr	r3, [r7]
 505 01c2 5B79     		ldrb	r3, [r3, #5]	@ zero_extendqisi2
 506 01c4 022B     		cmp	r3, #2
 507 01c6 07D0     		beq	.L18
 508              		.loc 2 58 0 discriminator 2
 509 01c8 3B68     		ldr	r3, [r7]
 510 01ca 5B79     		ldrb	r3, [r3, #5]	@ zero_extendqisi2
 511 01cc 032B     		cmp	r3, #3
 512 01ce 03D0     		beq	.L18
 513              		.loc 2 58 0 discriminator 3
 514 01d0 3A21     		movs	r1, #58
ARM GAS  C:\Users\ikomb\AppData\Local\Temp\ccmrmnRc.s 			page 23


 515 01d2 2748     		ldr	r0, .L37+4
 516 01d4 FFF7FEFF 		bl	Cy_SysLib_AssertFailed
 517              	.L18:
  59:Generated_Source\PSoC6\pdl\drivers\peripheral\pdm_pcm/cy_pdm_pcm.c ****         CY_ASSERT_L3(CY_PDM_PCM_IS_S_CYCLES_VALID(config->softMuteCycles));
 518              		.loc 2 59 0 is_stmt 1
 519 01d8 3B68     		ldr	r3, [r7]
 520 01da 5B7A     		ldrb	r3, [r3, #9]	@ zero_extendqisi2
 521 01dc 002B     		cmp	r3, #0
 522 01de 1FD0     		beq	.L19
 523              		.loc 2 59 0 is_stmt 0 discriminator 1
 524 01e0 3B68     		ldr	r3, [r7]
 525 01e2 5B7A     		ldrb	r3, [r3, #9]	@ zero_extendqisi2
 526 01e4 012B     		cmp	r3, #1
 527 01e6 1BD0     		beq	.L19
 528              		.loc 2 59 0 discriminator 2
 529 01e8 3B68     		ldr	r3, [r7]
 530 01ea 5B7A     		ldrb	r3, [r3, #9]	@ zero_extendqisi2
 531 01ec 022B     		cmp	r3, #2
 532 01ee 17D0     		beq	.L19
 533              		.loc 2 59 0 discriminator 3
 534 01f0 3B68     		ldr	r3, [r7]
 535 01f2 5B7A     		ldrb	r3, [r3, #9]	@ zero_extendqisi2
 536 01f4 032B     		cmp	r3, #3
 537 01f6 13D0     		beq	.L19
 538              		.loc 2 59 0 discriminator 4
 539 01f8 3B68     		ldr	r3, [r7]
 540 01fa 5B7A     		ldrb	r3, [r3, #9]	@ zero_extendqisi2
 541 01fc 042B     		cmp	r3, #4
 542 01fe 0FD0     		beq	.L19
 543              		.loc 2 59 0 discriminator 5
 544 0200 3B68     		ldr	r3, [r7]
 545 0202 5B7A     		ldrb	r3, [r3, #9]	@ zero_extendqisi2
 546 0204 052B     		cmp	r3, #5
 547 0206 0BD0     		beq	.L19
 548              		.loc 2 59 0 discriminator 6
 549 0208 3B68     		ldr	r3, [r7]
 550 020a 5B7A     		ldrb	r3, [r3, #9]	@ zero_extendqisi2
 551 020c 062B     		cmp	r3, #6
 552 020e 07D0     		beq	.L19
 553              		.loc 2 59 0 discriminator 7
 554 0210 3B68     		ldr	r3, [r7]
 555 0212 5B7A     		ldrb	r3, [r3, #9]	@ zero_extendqisi2
 556 0214 072B     		cmp	r3, #7
 557 0216 03D0     		beq	.L19
 558              		.loc 2 59 0 discriminator 8
 559 0218 3B21     		movs	r1, #59
 560 021a 1548     		ldr	r0, .L37+4
 561 021c FFF7FEFF 		bl	Cy_SysLib_AssertFailed
 562              	.L19:
  60:Generated_Source\PSoC6\pdl\drivers\peripheral\pdm_pcm/cy_pdm_pcm.c ****         CY_ASSERT_L3(CY_PDM_PCM_IS_CKO_DELAY_VALID(config->ckoDelay));
 563              		.loc 2 60 0 is_stmt 1
 564 0220 3B68     		ldr	r3, [r7]
 565 0222 DB78     		ldrb	r3, [r3, #3]	@ zero_extendqisi2
 566 0224 072B     		cmp	r3, #7
 567 0226 03D9     		bls	.L20
 568              		.loc 2 60 0 is_stmt 0 discriminator 1
 569 0228 3C21     		movs	r1, #60
ARM GAS  C:\Users\ikomb\AppData\Local\Temp\ccmrmnRc.s 			page 24


 570 022a 1148     		ldr	r0, .L37+4
 571 022c FFF7FEFF 		bl	Cy_SysLib_AssertFailed
 572              	.L20:
  61:Generated_Source\PSoC6\pdl\drivers\peripheral\pdm_pcm/cy_pdm_pcm.c ****         CY_ASSERT_L3(CY_PDM_PCM_IS_HPF_GAIN_VALID(config->highPassFilterGain));
 573              		.loc 2 61 0 is_stmt 1
 574 0230 3B68     		ldr	r3, [r7]
 575 0232 DB79     		ldrb	r3, [r3, #7]	@ zero_extendqisi2
 576 0234 0F2B     		cmp	r3, #15
 577 0236 03D9     		bls	.L21
 578              		.loc 2 61 0 is_stmt 0 discriminator 1
 579 0238 3D21     		movs	r1, #61
 580 023a 0D48     		ldr	r0, .L37+4
 581 023c FFF7FEFF 		bl	Cy_SysLib_AssertFailed
 582              	.L21:
  62:Generated_Source\PSoC6\pdl\drivers\peripheral\pdm_pcm/cy_pdm_pcm.c ****         CY_ASSERT_L3(CY_PDM_PCM_IS_WORD_LEN_VALID(config->wordLen));
 583              		.loc 2 62 0 is_stmt 1
 584 0240 3B68     		ldr	r3, [r7]
 585 0242 5B7C     		ldrb	r3, [r3, #17]	@ zero_extendqisi2
 586 0244 002B     		cmp	r3, #0
 587 0246 15D0     		beq	.L22
 588              		.loc 2 62 0 is_stmt 0 discriminator 1
 589 0248 3B68     		ldr	r3, [r7]
 590 024a 5B7C     		ldrb	r3, [r3, #17]	@ zero_extendqisi2
 591 024c 012B     		cmp	r3, #1
 592 024e 11D0     		beq	.L22
 593              		.loc 2 62 0 discriminator 2
 594 0250 3B68     		ldr	r3, [r7]
 595 0252 5B7C     		ldrb	r3, [r3, #17]	@ zero_extendqisi2
 596 0254 022B     		cmp	r3, #2
 597 0256 0DD0     		beq	.L22
 598              		.loc 2 62 0 discriminator 3
 599 0258 3B68     		ldr	r3, [r7]
 600 025a 5B7C     		ldrb	r3, [r3, #17]	@ zero_extendqisi2
 601 025c 032B     		cmp	r3, #3
 602 025e 09D0     		beq	.L22
 603              		.loc 2 62 0 discriminator 4
 604 0260 3E21     		movs	r1, #62
 605 0262 0348     		ldr	r0, .L37+4
 606 0264 FFF7FEFF 		bl	Cy_SysLib_AssertFailed
 607 0268 04E0     		b	.L38
 608              	.L39:
 609 026a 00BF     		.align	2
 610              	.L37:
 611 026c 01009A00 		.word	10092545
 612 0270 44000000 		.word	.LC1
 613              	.L38:
 614              	.L22:
  63:Generated_Source\PSoC6\pdl\drivers\peripheral\pdm_pcm/cy_pdm_pcm.c ****         CY_ASSERT_L3(CY_PDM_PCM_IS_TRIG_LEVEL(config->rxFifoTriggerLevel, config->chanSelect));
 615              		.loc 2 63 0 is_stmt 1
 616 0274 3B68     		ldr	r3, [r7]
 617 0276 5B7D     		ldrb	r3, [r3, #21]	@ zero_extendqisi2
 618 0278 1A46     		mov	r2, r3
 619 027a 3B68     		ldr	r3, [r7]
 620 027c 5B79     		ldrb	r3, [r3, #5]	@ zero_extendqisi2
 621 027e 032B     		cmp	r3, #3
 622 0280 01D1     		bne	.L23
 623              		.loc 2 63 0 is_stmt 0 discriminator 1
ARM GAS  C:\Users\ikomb\AppData\Local\Temp\ccmrmnRc.s 			page 25


 624 0282 FD23     		movs	r3, #253
 625 0284 00E0     		b	.L24
 626              	.L23:
 627              		.loc 2 63 0 discriminator 2
 628 0286 FE23     		movs	r3, #254
 629              	.L24:
 630              		.loc 2 63 0 discriminator 4
 631 0288 9A42     		cmp	r2, r3
 632 028a 03D9     		bls	.L25
 633              		.loc 2 63 0 discriminator 5
 634 028c 3F21     		movs	r1, #63
 635 028e 4948     		ldr	r0, .L40
 636 0290 FFF7FEFF 		bl	Cy_SysLib_AssertFailed
 637              	.L25:
  64:Generated_Source\PSoC6\pdl\drivers\peripheral\pdm_pcm/cy_pdm_pcm.c ****         
  65:Generated_Source\PSoC6\pdl\drivers\peripheral\pdm_pcm/cy_pdm_pcm.c ****         ret = CY_PDM_PCM_SUCCESS;
 638              		.loc 2 65 0 is_stmt 1
 639 0294 0023     		movs	r3, #0
 640 0296 FB60     		str	r3, [r7, #12]
  66:Generated_Source\PSoC6\pdl\drivers\peripheral\pdm_pcm/cy_pdm_pcm.c **** 
  67:Generated_Source\PSoC6\pdl\drivers\peripheral\pdm_pcm/cy_pdm_pcm.c ****         base->CTL &= (uint32_t) ~PDM_CTL_ENABLED_Msk; /* Disable the PDM_PCM block */
 641              		.loc 2 67 0
 642 0298 7B68     		ldr	r3, [r7, #4]
 643 029a 1B68     		ldr	r3, [r3]
 644 029c 23F00042 		bic	r2, r3, #-2147483648
 645 02a0 7B68     		ldr	r3, [r7, #4]
 646 02a2 1A60     		str	r2, [r3]
  68:Generated_Source\PSoC6\pdl\drivers\peripheral\pdm_pcm/cy_pdm_pcm.c ****         
  69:Generated_Source\PSoC6\pdl\drivers\peripheral\pdm_pcm/cy_pdm_pcm.c ****         /* The clock setting */
  70:Generated_Source\PSoC6\pdl\drivers\peripheral\pdm_pcm/cy_pdm_pcm.c ****         base->CLOCK_CTL = _VAL2FLD(PDM_CLOCK_CTL_CLK_CLOCK_DIV,     config->clkDiv) |
 647              		.loc 2 70 0
 648 02a4 3B68     		ldr	r3, [r7]
 649 02a6 1B78     		ldrb	r3, [r3]	@ zero_extendqisi2
 650 02a8 03F00302 		and	r2, r3, #3
  71:Generated_Source\PSoC6\pdl\drivers\peripheral\pdm_pcm/cy_pdm_pcm.c ****                           _VAL2FLD(PDM_CLOCK_CTL_MCLKQ_CLOCK_DIV,   config->mclkDiv) |
 651              		.loc 2 71 0
 652 02ac 3B68     		ldr	r3, [r7]
 653 02ae 5B78     		ldrb	r3, [r3, #1]	@ zero_extendqisi2
 654 02b0 1B01     		lsls	r3, r3, #4
 655 02b2 03F03003 		and	r3, r3, #48
  70:Generated_Source\PSoC6\pdl\drivers\peripheral\pdm_pcm/cy_pdm_pcm.c ****                           _VAL2FLD(PDM_CLOCK_CTL_MCLKQ_CLOCK_DIV,   config->mclkDiv) |
 656              		.loc 2 70 0
 657 02b6 1A43     		orrs	r2, r2, r3
  72:Generated_Source\PSoC6\pdl\drivers\peripheral\pdm_pcm/cy_pdm_pcm.c ****                           _VAL2FLD(PDM_CLOCK_CTL_CKO_CLOCK_DIV,     config->ckoDiv) |
 658              		.loc 2 72 0
 659 02b8 3B68     		ldr	r3, [r7]
 660 02ba 9B78     		ldrb	r3, [r3, #2]	@ zero_extendqisi2
 661 02bc 1B02     		lsls	r3, r3, #8
 662 02be 03F47063 		and	r3, r3, #3840
  71:Generated_Source\PSoC6\pdl\drivers\peripheral\pdm_pcm/cy_pdm_pcm.c ****                           _VAL2FLD(PDM_CLOCK_CTL_MCLKQ_CLOCK_DIV,   config->mclkDiv) |
 663              		.loc 2 71 0
 664 02c2 1A43     		orrs	r2, r2, r3
  73:Generated_Source\PSoC6\pdl\drivers\peripheral\pdm_pcm/cy_pdm_pcm.c ****                           _VAL2FLD(PDM_CLOCK_CTL_SINC_RATE,         config->sincDecRate);
 665              		.loc 2 73 0
 666 02c4 3B68     		ldr	r3, [r7]
 667 02c6 1B79     		ldrb	r3, [r3, #4]	@ zero_extendqisi2
 668 02c8 1B04     		lsls	r3, r3, #16
ARM GAS  C:\Users\ikomb\AppData\Local\Temp\ccmrmnRc.s 			page 26


 669 02ca 03F4FE03 		and	r3, r3, #8323072
  72:Generated_Source\PSoC6\pdl\drivers\peripheral\pdm_pcm/cy_pdm_pcm.c ****                           _VAL2FLD(PDM_CLOCK_CTL_CKO_CLOCK_DIV,     config->ckoDiv) |
 670              		.loc 2 72 0
 671 02ce 1A43     		orrs	r2, r2, r3
  70:Generated_Source\PSoC6\pdl\drivers\peripheral\pdm_pcm/cy_pdm_pcm.c ****                           _VAL2FLD(PDM_CLOCK_CTL_MCLKQ_CLOCK_DIV,   config->mclkDiv) |
 672              		.loc 2 70 0
 673 02d0 7B68     		ldr	r3, [r7, #4]
 674 02d2 1A61     		str	r2, [r3, #16]
  74:Generated_Source\PSoC6\pdl\drivers\peripheral\pdm_pcm/cy_pdm_pcm.c **** 
  75:Generated_Source\PSoC6\pdl\drivers\peripheral\pdm_pcm/cy_pdm_pcm.c ****         /* Enable the PDM-PCM block */
  76:Generated_Source\PSoC6\pdl\drivers\peripheral\pdm_pcm/cy_pdm_pcm.c ****         base->CTL = _VAL2FLD(PDM_CTL_PGA_R,                         config->gainRight) |
 675              		.loc 2 76 0
 676 02d4 3B68     		ldr	r3, [r7]
 677 02d6 1B7D     		ldrb	r3, [r3, #20]	@ zero_extendqisi2
 678 02d8 03F00F02 		and	r2, r3, #15
  77:Generated_Source\PSoC6\pdl\drivers\peripheral\pdm_pcm/cy_pdm_pcm.c ****                     _VAL2FLD(PDM_CTL_PGA_L,                         config->gainLeft) |
 679              		.loc 2 77 0
 680 02dc 3B68     		ldr	r3, [r7]
 681 02de DB7C     		ldrb	r3, [r3, #19]	@ zero_extendqisi2
 682 02e0 1B02     		lsls	r3, r3, #8
 683 02e2 03F47063 		and	r3, r3, #3840
  76:Generated_Source\PSoC6\pdl\drivers\peripheral\pdm_pcm/cy_pdm_pcm.c ****                     _VAL2FLD(PDM_CTL_PGA_L,                         config->gainLeft) |
 684              		.loc 2 76 0
 685 02e6 1A43     		orrs	r2, r2, r3
  78:Generated_Source\PSoC6\pdl\drivers\peripheral\pdm_pcm/cy_pdm_pcm.c ****                     _VAL2FLD(PDM_CTL_STEP_SEL,                      config->softMuteFineGain) |
 686              		.loc 2 78 0
 687 02e8 3B68     		ldr	r3, [r7]
 688 02ea DB68     		ldr	r3, [r3, #12]
 689 02ec 5B04     		lsls	r3, r3, #17
 690 02ee 03F40033 		and	r3, r3, #131072
  77:Generated_Source\PSoC6\pdl\drivers\peripheral\pdm_pcm/cy_pdm_pcm.c ****                     _VAL2FLD(PDM_CTL_PGA_L,                         config->gainLeft) |
 691              		.loc 2 77 0
 692 02f2 1A43     		orrs	r2, r2, r3
  79:Generated_Source\PSoC6\pdl\drivers\peripheral\pdm_pcm/cy_pdm_pcm.c ****                     _BOOL2FLD(PDM_CTL_SOFT_MUTE,                    config->softMuteEnable) |
 693              		.loc 2 79 0
 694 02f4 3B68     		ldr	r3, [r7]
 695 02f6 1B7C     		ldrb	r3, [r3, #16]	@ zero_extendqisi2
 696 02f8 002B     		cmp	r3, #0
 697 02fa 02D0     		beq	.L26
 698              		.loc 2 79 0 is_stmt 0 discriminator 1
 699 02fc 4FF48033 		mov	r3, #65536
 700 0300 00E0     		b	.L27
 701              	.L26:
 702              		.loc 2 79 0 discriminator 2
 703 0302 0023     		movs	r3, #0
 704              	.L27:
  78:Generated_Source\PSoC6\pdl\drivers\peripheral\pdm_pcm/cy_pdm_pcm.c ****                     _VAL2FLD(PDM_CTL_STEP_SEL,                      config->softMuteFineGain) |
 705              		.loc 2 78 0 is_stmt 1
 706 0304 1343     		orrs	r3, r3, r2
 707              		.loc 2 79 0
 708 0306 43F00042 		orr	r2, r3, #-2147483648
  76:Generated_Source\PSoC6\pdl\drivers\peripheral\pdm_pcm/cy_pdm_pcm.c ****                     _VAL2FLD(PDM_CTL_PGA_L,                         config->gainLeft) |
 709              		.loc 2 76 0
 710 030a 7B68     		ldr	r3, [r7, #4]
 711 030c 1A60     		str	r2, [r3]
  80:Generated_Source\PSoC6\pdl\drivers\peripheral\pdm_pcm/cy_pdm_pcm.c ****                     _BOOL2FLD(PDM_CTL_ENABLED,                      true);
  81:Generated_Source\PSoC6\pdl\drivers\peripheral\pdm_pcm/cy_pdm_pcm.c **** 
ARM GAS  C:\Users\ikomb\AppData\Local\Temp\ccmrmnRc.s 			page 27


  82:Generated_Source\PSoC6\pdl\drivers\peripheral\pdm_pcm/cy_pdm_pcm.c ****         base->MODE_CTL = _VAL2FLD(PDM_MODE_CTL_PCM_CH_SET,          config->chanSelect) |
 712              		.loc 2 82 0
 713 030e 3B68     		ldr	r3, [r7]
 714 0310 5B79     		ldrb	r3, [r3, #5]	@ zero_extendqisi2
 715 0312 03F00302 		and	r2, r3, #3
  83:Generated_Source\PSoC6\pdl\drivers\peripheral\pdm_pcm/cy_pdm_pcm.c ****                          _BOOL2FLD(PDM_MODE_CTL_SWAP_LR,            config->chanSwapEnable) |
 716              		.loc 2 83 0
 717 0316 3B68     		ldr	r3, [r7]
 718 0318 9B79     		ldrb	r3, [r3, #6]	@ zero_extendqisi2
 719 031a 002B     		cmp	r3, #0
 720 031c 01D0     		beq	.L28
 721              		.loc 2 83 0 is_stmt 0 discriminator 1
 722 031e 0423     		movs	r3, #4
 723 0320 00E0     		b	.L29
 724              	.L28:
 725              		.loc 2 83 0 discriminator 2
 726 0322 0023     		movs	r3, #0
 727              	.L29:
  82:Generated_Source\PSoC6\pdl\drivers\peripheral\pdm_pcm/cy_pdm_pcm.c ****                          _BOOL2FLD(PDM_MODE_CTL_SWAP_LR,            config->chanSwapEnable) |
 728              		.loc 2 82 0 is_stmt 1
 729 0324 1A43     		orrs	r2, r2, r3
  84:Generated_Source\PSoC6\pdl\drivers\peripheral\pdm_pcm/cy_pdm_pcm.c ****                          _VAL2FLD(PDM_MODE_CTL_S_CYCLES,            config->softMuteCycles) |
 730              		.loc 2 84 0
 731 0326 3B68     		ldr	r3, [r7]
 732 0328 5B7A     		ldrb	r3, [r3, #9]	@ zero_extendqisi2
 733 032a 1B02     		lsls	r3, r3, #8
 734 032c 03F4E063 		and	r3, r3, #1792
  83:Generated_Source\PSoC6\pdl\drivers\peripheral\pdm_pcm/cy_pdm_pcm.c ****                          _BOOL2FLD(PDM_MODE_CTL_SWAP_LR,            config->chanSwapEnable) |
 735              		.loc 2 83 0
 736 0330 1A43     		orrs	r2, r2, r3
  85:Generated_Source\PSoC6\pdl\drivers\peripheral\pdm_pcm/cy_pdm_pcm.c ****                          _VAL2FLD(PDM_MODE_CTL_CKO_DELAY,           config->ckoDelay) |
 737              		.loc 2 85 0
 738 0332 3B68     		ldr	r3, [r7]
 739 0334 DB78     		ldrb	r3, [r3, #3]	@ zero_extendqisi2
 740 0336 1B04     		lsls	r3, r3, #16
 741 0338 03F4E023 		and	r3, r3, #458752
  84:Generated_Source\PSoC6\pdl\drivers\peripheral\pdm_pcm/cy_pdm_pcm.c ****                          _VAL2FLD(PDM_MODE_CTL_S_CYCLES,            config->softMuteCycles) |
 742              		.loc 2 84 0
 743 033c 1A43     		orrs	r2, r2, r3
  86:Generated_Source\PSoC6\pdl\drivers\peripheral\pdm_pcm/cy_pdm_pcm.c ****                          _VAL2FLD(PDM_MODE_CTL_HPF_GAIN,            config->highPassFilterGain) |
 744              		.loc 2 86 0
 745 033e 3B68     		ldr	r3, [r7]
 746 0340 DB79     		ldrb	r3, [r3, #7]	@ zero_extendqisi2
 747 0342 1B06     		lsls	r3, r3, #24
 748 0344 03F07063 		and	r3, r3, #251658240
  85:Generated_Source\PSoC6\pdl\drivers\peripheral\pdm_pcm/cy_pdm_pcm.c ****                          _VAL2FLD(PDM_MODE_CTL_CKO_DELAY,           config->ckoDelay) |
 749              		.loc 2 85 0
 750 0348 1A43     		orrs	r2, r2, r3
  87:Generated_Source\PSoC6\pdl\drivers\peripheral\pdm_pcm/cy_pdm_pcm.c ****                          _BOOL2FLD(PDM_MODE_CTL_HPF_EN_N,           config->highPassDisable);
 751              		.loc 2 87 0
 752 034a 3B68     		ldr	r3, [r7]
 753 034c 1B7A     		ldrb	r3, [r3, #8]	@ zero_extendqisi2
 754 034e 002B     		cmp	r3, #0
 755 0350 02D0     		beq	.L30
 756              		.loc 2 87 0 is_stmt 0 discriminator 1
 757 0352 4FF08053 		mov	r3, #268435456
 758 0356 00E0     		b	.L31
ARM GAS  C:\Users\ikomb\AppData\Local\Temp\ccmrmnRc.s 			page 28


 759              	.L30:
 760              		.loc 2 87 0 discriminator 2
 761 0358 0023     		movs	r3, #0
 762              	.L31:
  86:Generated_Source\PSoC6\pdl\drivers\peripheral\pdm_pcm/cy_pdm_pcm.c ****                          _VAL2FLD(PDM_MODE_CTL_HPF_GAIN,            config->highPassFilterGain) |
 763              		.loc 2 86 0 is_stmt 1
 764 035a 1A43     		orrs	r2, r2, r3
  82:Generated_Source\PSoC6\pdl\drivers\peripheral\pdm_pcm/cy_pdm_pcm.c ****                          _BOOL2FLD(PDM_MODE_CTL_SWAP_LR,            config->chanSwapEnable) |
 765              		.loc 2 82 0
 766 035c 7B68     		ldr	r3, [r7, #4]
 767 035e 5A61     		str	r2, [r3, #20]
  88:Generated_Source\PSoC6\pdl\drivers\peripheral\pdm_pcm/cy_pdm_pcm.c **** 
  89:Generated_Source\PSoC6\pdl\drivers\peripheral\pdm_pcm/cy_pdm_pcm.c ****         base->DATA_CTL = _VAL2FLD(PDM_DATA_CTL_WORD_LEN,            config->wordLen) |
 768              		.loc 2 89 0
 769 0360 3B68     		ldr	r3, [r7]
 770 0362 5B7C     		ldrb	r3, [r3, #17]	@ zero_extendqisi2
 771 0364 03F00302 		and	r2, r3, #3
  90:Generated_Source\PSoC6\pdl\drivers\peripheral\pdm_pcm/cy_pdm_pcm.c ****                          _BOOL2FLD(PDM_DATA_CTL_BIT_EXTENSION,      config->signExtension);
 772              		.loc 2 90 0
 773 0368 3B68     		ldr	r3, [r7]
 774 036a 9B7C     		ldrb	r3, [r3, #18]	@ zero_extendqisi2
 775 036c 002B     		cmp	r3, #0
 776 036e 02D0     		beq	.L32
 777              		.loc 2 90 0 is_stmt 0 discriminator 1
 778 0370 4FF48073 		mov	r3, #256
 779 0374 00E0     		b	.L33
 780              	.L32:
 781              		.loc 2 90 0 discriminator 2
 782 0376 0023     		movs	r3, #0
 783              	.L33:
  89:Generated_Source\PSoC6\pdl\drivers\peripheral\pdm_pcm/cy_pdm_pcm.c ****                          _BOOL2FLD(PDM_DATA_CTL_BIT_EXTENSION,      config->signExtension);
 784              		.loc 2 89 0 is_stmt 1
 785 0378 1A43     		orrs	r2, r2, r3
 786 037a 7B68     		ldr	r3, [r7, #4]
 787 037c 9A61     		str	r2, [r3, #24]
  91:Generated_Source\PSoC6\pdl\drivers\peripheral\pdm_pcm/cy_pdm_pcm.c **** 
  92:Generated_Source\PSoC6\pdl\drivers\peripheral\pdm_pcm/cy_pdm_pcm.c ****         base->RX_FIFO_CTL = _VAL2FLD(PDM_RX_FIFO_CTL_TRIGGER_LEVEL, config->rxFifoTriggerLevel);
 788              		.loc 2 92 0
 789 037e 3B68     		ldr	r3, [r7]
 790 0380 5B7D     		ldrb	r3, [r3, #21]	@ zero_extendqisi2
 791 0382 1A46     		mov	r2, r3
 792 0384 7B68     		ldr	r3, [r7, #4]
 793 0386 C3F80023 		str	r2, [r3, #768]
  93:Generated_Source\PSoC6\pdl\drivers\peripheral\pdm_pcm/cy_pdm_pcm.c **** 
  94:Generated_Source\PSoC6\pdl\drivers\peripheral\pdm_pcm/cy_pdm_pcm.c ****         base->TR_CTL = _BOOL2FLD(PDM_TR_CTL_RX_REQ_EN,              config->dmaTriggerEnable);
 794              		.loc 2 94 0
 795 038a 3B68     		ldr	r3, [r7]
 796 038c 9B7D     		ldrb	r3, [r3, #22]	@ zero_extendqisi2
 797 038e 002B     		cmp	r3, #0
 798 0390 02D0     		beq	.L34
 799              		.loc 2 94 0 is_stmt 0 discriminator 1
 800 0392 4FF48032 		mov	r2, #65536
 801 0396 00E0     		b	.L35
 802              	.L34:
 803              		.loc 2 94 0 discriminator 2
 804 0398 0022     		movs	r2, #0
 805              	.L35:
ARM GAS  C:\Users\ikomb\AppData\Local\Temp\ccmrmnRc.s 			page 29


 806              		.loc 2 94 0 discriminator 4
 807 039a 7B68     		ldr	r3, [r7, #4]
 808 039c 1A64     		str	r2, [r3, #64]
  95:Generated_Source\PSoC6\pdl\drivers\peripheral\pdm_pcm/cy_pdm_pcm.c **** 
  96:Generated_Source\PSoC6\pdl\drivers\peripheral\pdm_pcm/cy_pdm_pcm.c ****         Cy_PDM_PCM_SetInterruptMask(base, config->interruptMask);
 809              		.loc 2 96 0 is_stmt 1 discriminator 4
 810 039e 3B68     		ldr	r3, [r7]
 811 03a0 9B69     		ldr	r3, [r3, #24]
 812 03a2 1946     		mov	r1, r3
 813 03a4 7868     		ldr	r0, [r7, #4]
 814 03a6 FFF7FEFF 		bl	Cy_PDM_PCM_SetInterruptMask
 815              	.L9:
  97:Generated_Source\PSoC6\pdl\drivers\peripheral\pdm_pcm/cy_pdm_pcm.c ****     }
  98:Generated_Source\PSoC6\pdl\drivers\peripheral\pdm_pcm/cy_pdm_pcm.c **** 
  99:Generated_Source\PSoC6\pdl\drivers\peripheral\pdm_pcm/cy_pdm_pcm.c ****     return (ret);
 816              		.loc 2 99 0
 817 03aa FB68     		ldr	r3, [r7, #12]
 100:Generated_Source\PSoC6\pdl\drivers\peripheral\pdm_pcm/cy_pdm_pcm.c **** }
 818              		.loc 2 100 0
 819 03ac 1846     		mov	r0, r3
 820 03ae 1037     		adds	r7, r7, #16
 821              		.cfi_def_cfa_offset 8
 822 03b0 BD46     		mov	sp, r7
 823              		.cfi_def_cfa_register 13
 824              		@ sp needed
 825 03b2 80BD     		pop	{r7, pc}
 826              	.L41:
 827              		.align	2
 828              	.L40:
 829 03b4 44000000 		.word	.LC1
 830              		.cfi_endproc
 831              	.LFE175:
 832              		.size	Cy_PDM_PCM_Init, .-Cy_PDM_PCM_Init
 833              		.section	.text.Cy_PDM_PCM_DeInit,"ax",%progbits
 834              		.align	2
 835              		.global	Cy_PDM_PCM_DeInit
 836              		.thumb
 837              		.thumb_func
 838              		.type	Cy_PDM_PCM_DeInit, %function
 839              	Cy_PDM_PCM_DeInit:
 840              	.LFB176:
 101:Generated_Source\PSoC6\pdl\drivers\peripheral\pdm_pcm/cy_pdm_pcm.c **** 
 102:Generated_Source\PSoC6\pdl\drivers\peripheral\pdm_pcm/cy_pdm_pcm.c **** 
 103:Generated_Source\PSoC6\pdl\drivers\peripheral\pdm_pcm/cy_pdm_pcm.c **** /*******************************************************************************
 104:Generated_Source\PSoC6\pdl\drivers\peripheral\pdm_pcm/cy_pdm_pcm.c **** * Function Name: Cy_PDM_PCM_DeInit
 105:Generated_Source\PSoC6\pdl\drivers\peripheral\pdm_pcm/cy_pdm_pcm.c **** ****************************************************************************//**
 106:Generated_Source\PSoC6\pdl\drivers\peripheral\pdm_pcm/cy_pdm_pcm.c **** *
 107:Generated_Source\PSoC6\pdl\drivers\peripheral\pdm_pcm/cy_pdm_pcm.c **** * Uninitializes the PDM-PCM module.
 108:Generated_Source\PSoC6\pdl\drivers\peripheral\pdm_pcm/cy_pdm_pcm.c **** *
 109:Generated_Source\PSoC6\pdl\drivers\peripheral\pdm_pcm/cy_pdm_pcm.c **** * \param base The pointer to the PDM-PCM instance address.
 110:Generated_Source\PSoC6\pdl\drivers\peripheral\pdm_pcm/cy_pdm_pcm.c **** *
 111:Generated_Source\PSoC6\pdl\drivers\peripheral\pdm_pcm/cy_pdm_pcm.c **** *******************************************************************************/
 112:Generated_Source\PSoC6\pdl\drivers\peripheral\pdm_pcm/cy_pdm_pcm.c **** void Cy_PDM_PCM_DeInit(PDM_Type * base)
 113:Generated_Source\PSoC6\pdl\drivers\peripheral\pdm_pcm/cy_pdm_pcm.c **** {
 841              		.loc 2 113 0
 842              		.cfi_startproc
 843              		@ args = 0, pretend = 0, frame = 8
ARM GAS  C:\Users\ikomb\AppData\Local\Temp\ccmrmnRc.s 			page 30


 844              		@ frame_needed = 1, uses_anonymous_args = 0
 845              		@ link register save eliminated.
 846 0000 80B4     		push	{r7}
 847              		.cfi_def_cfa_offset 4
 848              		.cfi_offset 7, -4
 849 0002 83B0     		sub	sp, sp, #12
 850              		.cfi_def_cfa_offset 16
 851 0004 00AF     		add	r7, sp, #0
 852              		.cfi_def_cfa_register 7
 853 0006 7860     		str	r0, [r7, #4]
 114:Generated_Source\PSoC6\pdl\drivers\peripheral\pdm_pcm/cy_pdm_pcm.c ****     base->CMD = 0UL; /* Stop PDM-PCM operation */
 854              		.loc 2 114 0
 855 0008 7B68     		ldr	r3, [r7, #4]
 856 000a 0022     		movs	r2, #0
 857 000c 1A62     		str	r2, [r3, #32]
 115:Generated_Source\PSoC6\pdl\drivers\peripheral\pdm_pcm/cy_pdm_pcm.c ****     base->INTR_MASK = 0UL; /* Disable interrupts */
 858              		.loc 2 115 0
 859 000e 7B68     		ldr	r3, [r7, #4]
 860 0010 0022     		movs	r2, #0
 861 0012 C3F8082F 		str	r2, [r3, #3848]
 116:Generated_Source\PSoC6\pdl\drivers\peripheral\pdm_pcm/cy_pdm_pcm.c ****     base->RX_FIFO_CTL = 0UL;
 862              		.loc 2 116 0
 863 0016 7B68     		ldr	r3, [r7, #4]
 864 0018 0022     		movs	r2, #0
 865 001a C3F80023 		str	r2, [r3, #768]
 117:Generated_Source\PSoC6\pdl\drivers\peripheral\pdm_pcm/cy_pdm_pcm.c ****     base->TR_CTL = 0UL;
 866              		.loc 2 117 0
 867 001e 7B68     		ldr	r3, [r7, #4]
 868 0020 0022     		movs	r2, #0
 869 0022 1A64     		str	r2, [r3, #64]
 118:Generated_Source\PSoC6\pdl\drivers\peripheral\pdm_pcm/cy_pdm_pcm.c ****     base->DATA_CTL = 0UL;
 870              		.loc 2 118 0
 871 0024 7B68     		ldr	r3, [r7, #4]
 872 0026 0022     		movs	r2, #0
 873 0028 9A61     		str	r2, [r3, #24]
 119:Generated_Source\PSoC6\pdl\drivers\peripheral\pdm_pcm/cy_pdm_pcm.c ****     base->MODE_CTL = CY_PDM_PCM_MODE_CTL_DEFAULT;
 874              		.loc 2 119 0
 875 002a 7B68     		ldr	r3, [r7, #4]
 876 002c 064A     		ldr	r2, .L43
 877 002e 5A61     		str	r2, [r3, #20]
 120:Generated_Source\PSoC6\pdl\drivers\peripheral\pdm_pcm/cy_pdm_pcm.c ****     base->CTL = CY_PDM_PCM_CTL_DEFAULT; /* Disable the PDM_PCM IP block */
 878              		.loc 2 120 0
 879 0030 7B68     		ldr	r3, [r7, #4]
 880 0032 064A     		ldr	r2, .L43+4
 881 0034 1A60     		str	r2, [r3]
 121:Generated_Source\PSoC6\pdl\drivers\peripheral\pdm_pcm/cy_pdm_pcm.c ****     base->CLOCK_CTL = CY_PDM_PCM_CLOCK_CTL_DEFAULT; /* The default clock settings */
 882              		.loc 2 121 0
 883 0036 7B68     		ldr	r3, [r7, #4]
 884 0038 054A     		ldr	r2, .L43+8
 885 003a 1A61     		str	r2, [r3, #16]
 122:Generated_Source\PSoC6\pdl\drivers\peripheral\pdm_pcm/cy_pdm_pcm.c **** }
 886              		.loc 2 122 0
 887 003c 00BF     		nop
 888 003e 0C37     		adds	r7, r7, #12
 889              		.cfi_def_cfa_offset 4
 890 0040 BD46     		mov	sp, r7
 891              		.cfi_def_cfa_register 13
ARM GAS  C:\Users\ikomb\AppData\Local\Temp\ccmrmnRc.s 			page 31


 892              		@ sp needed
 893 0042 5DF8047B 		ldr	r7, [sp], #4
 894              		.cfi_restore 7
 895              		.cfi_def_cfa_offset 0
 896 0046 7047     		bx	lr
 897              	.L44:
 898              		.align	2
 899              	.L43:
 900 0048 0301001B 		.word	452985091
 901 004c 08080200 		.word	133128
 902 0050 10032000 		.word	2097936
 903              		.cfi_endproc
 904              	.LFE176:
 905              		.size	Cy_PDM_PCM_DeInit, .-Cy_PDM_PCM_DeInit
 906              		.section	.text.Cy_PDM_PCM_SetGain,"ax",%progbits
 907              		.align	2
 908              		.global	Cy_PDM_PCM_SetGain
 909              		.thumb
 910              		.thumb_func
 911              		.type	Cy_PDM_PCM_SetGain, %function
 912              	Cy_PDM_PCM_SetGain:
 913              	.LFB177:
 123:Generated_Source\PSoC6\pdl\drivers\peripheral\pdm_pcm/cy_pdm_pcm.c **** 
 124:Generated_Source\PSoC6\pdl\drivers\peripheral\pdm_pcm/cy_pdm_pcm.c **** /******************************************************************************
 125:Generated_Source\PSoC6\pdl\drivers\peripheral\pdm_pcm/cy_pdm_pcm.c **** * Function Name: Cy_PDM_PCM_SetGain
 126:Generated_Source\PSoC6\pdl\drivers\peripheral\pdm_pcm/cy_pdm_pcm.c **** ***************************************************************************//**
 127:Generated_Source\PSoC6\pdl\drivers\peripheral\pdm_pcm/cy_pdm_pcm.c **** *
 128:Generated_Source\PSoC6\pdl\drivers\peripheral\pdm_pcm/cy_pdm_pcm.c **** * Sets the gain factor to the left or right channel.
 129:Generated_Source\PSoC6\pdl\drivers\peripheral\pdm_pcm/cy_pdm_pcm.c **** *
 130:Generated_Source\PSoC6\pdl\drivers\peripheral\pdm_pcm/cy_pdm_pcm.c **** * \param base
 131:Generated_Source\PSoC6\pdl\drivers\peripheral\pdm_pcm/cy_pdm_pcm.c **** * The pointer to the PDM-PCM instance address.
 132:Generated_Source\PSoC6\pdl\drivers\peripheral\pdm_pcm/cy_pdm_pcm.c **** *
 133:Generated_Source\PSoC6\pdl\drivers\peripheral\pdm_pcm/cy_pdm_pcm.c **** * \param chan
 134:Generated_Source\PSoC6\pdl\drivers\peripheral\pdm_pcm/cy_pdm_pcm.c **** * The channel selector for gain setting \ref cy_en_pdm_pcm_chan_select_t.
 135:Generated_Source\PSoC6\pdl\drivers\peripheral\pdm_pcm/cy_pdm_pcm.c **** *
 136:Generated_Source\PSoC6\pdl\drivers\peripheral\pdm_pcm/cy_pdm_pcm.c **** * \param gain
 137:Generated_Source\PSoC6\pdl\drivers\peripheral\pdm_pcm/cy_pdm_pcm.c **** * Gain for the selected channel \ref cy_en_pdm_pcm_gain_t.
 138:Generated_Source\PSoC6\pdl\drivers\peripheral\pdm_pcm/cy_pdm_pcm.c **** *
 139:Generated_Source\PSoC6\pdl\drivers\peripheral\pdm_pcm/cy_pdm_pcm.c **** ******************************************************************************/
 140:Generated_Source\PSoC6\pdl\drivers\peripheral\pdm_pcm/cy_pdm_pcm.c **** void Cy_PDM_PCM_SetGain(PDM_Type * base, cy_en_pdm_pcm_chan_select_t chan, cy_en_pdm_pcm_gain_t gai
 141:Generated_Source\PSoC6\pdl\drivers\peripheral\pdm_pcm/cy_pdm_pcm.c **** {
 914              		.loc 2 141 0
 915              		.cfi_startproc
 916              		@ args = 0, pretend = 0, frame = 8
 917              		@ frame_needed = 1, uses_anonymous_args = 0
 918 0000 80B5     		push	{r7, lr}
 919              		.cfi_def_cfa_offset 8
 920              		.cfi_offset 7, -8
 921              		.cfi_offset 14, -4
 922 0002 82B0     		sub	sp, sp, #8
 923              		.cfi_def_cfa_offset 16
 924 0004 00AF     		add	r7, sp, #0
 925              		.cfi_def_cfa_register 7
 926 0006 7860     		str	r0, [r7, #4]
 927 0008 0B46     		mov	r3, r1
 928 000a FB70     		strb	r3, [r7, #3]
 929 000c 1346     		mov	r3, r2
ARM GAS  C:\Users\ikomb\AppData\Local\Temp\ccmrmnRc.s 			page 32


 930 000e BB70     		strb	r3, [r7, #2]
 142:Generated_Source\PSoC6\pdl\drivers\peripheral\pdm_pcm/cy_pdm_pcm.c ****     CY_ASSERT_L3(CY_PDM_PCM_IS_CHAN_VALID(chan));
 931              		.loc 2 142 0
 932 0010 FB78     		ldrb	r3, [r7, #3]	@ zero_extendqisi2
 933 0012 002B     		cmp	r3, #0
 934 0014 06D0     		beq	.L46
 935              		.loc 2 142 0 is_stmt 0 discriminator 1
 936 0016 FB78     		ldrb	r3, [r7, #3]	@ zero_extendqisi2
 937 0018 012B     		cmp	r3, #1
 938 001a 03D0     		beq	.L46
 939              		.loc 2 142 0 discriminator 2
 940 001c 8E21     		movs	r1, #142
 941 001e 2A48     		ldr	r0, .L51
 942 0020 FFF7FEFF 		bl	Cy_SysLib_AssertFailed
 943              	.L46:
 143:Generated_Source\PSoC6\pdl\drivers\peripheral\pdm_pcm/cy_pdm_pcm.c ****     CY_ASSERT_L3(CY_PDM_PCM_IS_GAIN_VALID(gain));
 944              		.loc 2 143 0 is_stmt 1
 945 0024 BB78     		ldrb	r3, [r7, #2]	@ zero_extendqisi2
 946 0026 002B     		cmp	r3, #0
 947 0028 30D0     		beq	.L47
 948              		.loc 2 143 0 is_stmt 0 discriminator 1
 949 002a BB78     		ldrb	r3, [r7, #2]	@ zero_extendqisi2
 950 002c 012B     		cmp	r3, #1
 951 002e 2DD0     		beq	.L47
 952              		.loc 2 143 0 discriminator 2
 953 0030 BB78     		ldrb	r3, [r7, #2]	@ zero_extendqisi2
 954 0032 022B     		cmp	r3, #2
 955 0034 2AD0     		beq	.L47
 956              		.loc 2 143 0 discriminator 3
 957 0036 BB78     		ldrb	r3, [r7, #2]	@ zero_extendqisi2
 958 0038 032B     		cmp	r3, #3
 959 003a 27D0     		beq	.L47
 960              		.loc 2 143 0 discriminator 4
 961 003c BB78     		ldrb	r3, [r7, #2]	@ zero_extendqisi2
 962 003e 042B     		cmp	r3, #4
 963 0040 24D0     		beq	.L47
 964              		.loc 2 143 0 discriminator 5
 965 0042 BB78     		ldrb	r3, [r7, #2]	@ zero_extendqisi2
 966 0044 052B     		cmp	r3, #5
 967 0046 21D0     		beq	.L47
 968              		.loc 2 143 0 discriminator 6
 969 0048 BB78     		ldrb	r3, [r7, #2]	@ zero_extendqisi2
 970 004a 062B     		cmp	r3, #6
 971 004c 1ED0     		beq	.L47
 972              		.loc 2 143 0 discriminator 7
 973 004e BB78     		ldrb	r3, [r7, #2]	@ zero_extendqisi2
 974 0050 072B     		cmp	r3, #7
 975 0052 1BD0     		beq	.L47
 976              		.loc 2 143 0 discriminator 8
 977 0054 BB78     		ldrb	r3, [r7, #2]	@ zero_extendqisi2
 978 0056 082B     		cmp	r3, #8
 979 0058 18D0     		beq	.L47
 980              		.loc 2 143 0 discriminator 9
 981 005a BB78     		ldrb	r3, [r7, #2]	@ zero_extendqisi2
 982 005c 092B     		cmp	r3, #9
 983 005e 15D0     		beq	.L47
 984              		.loc 2 143 0 discriminator 10
ARM GAS  C:\Users\ikomb\AppData\Local\Temp\ccmrmnRc.s 			page 33


 985 0060 BB78     		ldrb	r3, [r7, #2]	@ zero_extendqisi2
 986 0062 0A2B     		cmp	r3, #10
 987 0064 12D0     		beq	.L47
 988              		.loc 2 143 0 discriminator 11
 989 0066 BB78     		ldrb	r3, [r7, #2]	@ zero_extendqisi2
 990 0068 0B2B     		cmp	r3, #11
 991 006a 0FD0     		beq	.L47
 992              		.loc 2 143 0 discriminator 12
 993 006c BB78     		ldrb	r3, [r7, #2]	@ zero_extendqisi2
 994 006e 0C2B     		cmp	r3, #12
 995 0070 0CD0     		beq	.L47
 996              		.loc 2 143 0 discriminator 13
 997 0072 BB78     		ldrb	r3, [r7, #2]	@ zero_extendqisi2
 998 0074 0D2B     		cmp	r3, #13
 999 0076 09D0     		beq	.L47
 1000              		.loc 2 143 0 discriminator 14
 1001 0078 BB78     		ldrb	r3, [r7, #2]	@ zero_extendqisi2
 1002 007a 0E2B     		cmp	r3, #14
 1003 007c 06D0     		beq	.L47
 1004              		.loc 2 143 0 discriminator 15
 1005 007e BB78     		ldrb	r3, [r7, #2]	@ zero_extendqisi2
 1006 0080 0F2B     		cmp	r3, #15
 1007 0082 03D0     		beq	.L47
 1008              		.loc 2 143 0 discriminator 16
 1009 0084 8F21     		movs	r1, #143
 1010 0086 1048     		ldr	r0, .L51
 1011 0088 FFF7FEFF 		bl	Cy_SysLib_AssertFailed
 1012              	.L47:
 144:Generated_Source\PSoC6\pdl\drivers\peripheral\pdm_pcm/cy_pdm_pcm.c ****     
 145:Generated_Source\PSoC6\pdl\drivers\peripheral\pdm_pcm/cy_pdm_pcm.c ****     if (chan == CY_PDM_PCM_CHAN_LEFT)
 1013              		.loc 2 145 0 is_stmt 1
 1014 008c FB78     		ldrb	r3, [r7, #3]	@ zero_extendqisi2
 1015 008e 002B     		cmp	r3, #0
 1016 0090 0BD1     		bne	.L48
 146:Generated_Source\PSoC6\pdl\drivers\peripheral\pdm_pcm/cy_pdm_pcm.c ****     {
 147:Generated_Source\PSoC6\pdl\drivers\peripheral\pdm_pcm/cy_pdm_pcm.c ****         base->CTL = _CLR_SET_FLD32U(base->CTL, PDM_CTL_PGA_L, ((uint32_t) gain));
 1017              		.loc 2 147 0
 1018 0092 7B68     		ldr	r3, [r7, #4]
 1019 0094 1B68     		ldr	r3, [r3]
 1020 0096 23F47062 		bic	r2, r3, #3840
 1021 009a BB78     		ldrb	r3, [r7, #2]	@ zero_extendqisi2
 1022 009c 1B02     		lsls	r3, r3, #8
 1023 009e 03F47063 		and	r3, r3, #3840
 1024 00a2 1A43     		orrs	r2, r2, r3
 1025 00a4 7B68     		ldr	r3, [r7, #4]
 1026 00a6 1A60     		str	r2, [r3]
 148:Generated_Source\PSoC6\pdl\drivers\peripheral\pdm_pcm/cy_pdm_pcm.c ****     }
 149:Generated_Source\PSoC6\pdl\drivers\peripheral\pdm_pcm/cy_pdm_pcm.c ****     else
 150:Generated_Source\PSoC6\pdl\drivers\peripheral\pdm_pcm/cy_pdm_pcm.c ****     {
 151:Generated_Source\PSoC6\pdl\drivers\peripheral\pdm_pcm/cy_pdm_pcm.c ****         base->CTL = _CLR_SET_FLD32U(base->CTL, PDM_CTL_PGA_R, ((uint32_t) gain));
 152:Generated_Source\PSoC6\pdl\drivers\peripheral\pdm_pcm/cy_pdm_pcm.c ****     }
 153:Generated_Source\PSoC6\pdl\drivers\peripheral\pdm_pcm/cy_pdm_pcm.c **** }
 1027              		.loc 2 153 0
 1028 00a8 09E0     		b	.L50
 1029              	.L48:
 151:Generated_Source\PSoC6\pdl\drivers\peripheral\pdm_pcm/cy_pdm_pcm.c ****     }
 1030              		.loc 2 151 0
ARM GAS  C:\Users\ikomb\AppData\Local\Temp\ccmrmnRc.s 			page 34


 1031 00aa 7B68     		ldr	r3, [r7, #4]
 1032 00ac 1B68     		ldr	r3, [r3]
 1033 00ae 23F00F02 		bic	r2, r3, #15
 1034 00b2 BB78     		ldrb	r3, [r7, #2]	@ zero_extendqisi2
 1035 00b4 03F00F03 		and	r3, r3, #15
 1036 00b8 1A43     		orrs	r2, r2, r3
 1037 00ba 7B68     		ldr	r3, [r7, #4]
 1038 00bc 1A60     		str	r2, [r3]
 1039              	.L50:
 1040              		.loc 2 153 0
 1041 00be 00BF     		nop
 1042 00c0 0837     		adds	r7, r7, #8
 1043              		.cfi_def_cfa_offset 8
 1044 00c2 BD46     		mov	sp, r7
 1045              		.cfi_def_cfa_register 13
 1046              		@ sp needed
 1047 00c4 80BD     		pop	{r7, pc}
 1048              	.L52:
 1049 00c6 00BF     		.align	2
 1050              	.L51:
 1051 00c8 44000000 		.word	.LC1
 1052              		.cfi_endproc
 1053              	.LFE177:
 1054              		.size	Cy_PDM_PCM_SetGain, .-Cy_PDM_PCM_SetGain
 1055              		.section	.text.Cy_PDM_PCM_GetGain,"ax",%progbits
 1056              		.align	2
 1057              		.global	Cy_PDM_PCM_GetGain
 1058              		.thumb
 1059              		.thumb_func
 1060              		.type	Cy_PDM_PCM_GetGain, %function
 1061              	Cy_PDM_PCM_GetGain:
 1062              	.LFB178:
 154:Generated_Source\PSoC6\pdl\drivers\peripheral\pdm_pcm/cy_pdm_pcm.c **** 
 155:Generated_Source\PSoC6\pdl\drivers\peripheral\pdm_pcm/cy_pdm_pcm.c **** /******************************************************************************
 156:Generated_Source\PSoC6\pdl\drivers\peripheral\pdm_pcm/cy_pdm_pcm.c **** * Function Name: Cy_PDM_PCM_GetGain
 157:Generated_Source\PSoC6\pdl\drivers\peripheral\pdm_pcm/cy_pdm_pcm.c **** ***************************************************************************//**
 158:Generated_Source\PSoC6\pdl\drivers\peripheral\pdm_pcm/cy_pdm_pcm.c **** *
 159:Generated_Source\PSoC6\pdl\drivers\peripheral\pdm_pcm/cy_pdm_pcm.c **** * Retrieves the current gain factor of the left or right channel.
 160:Generated_Source\PSoC6\pdl\drivers\peripheral\pdm_pcm/cy_pdm_pcm.c **** *
 161:Generated_Source\PSoC6\pdl\drivers\peripheral\pdm_pcm/cy_pdm_pcm.c **** * \param base
 162:Generated_Source\PSoC6\pdl\drivers\peripheral\pdm_pcm/cy_pdm_pcm.c **** * the pointer to the PDM-PCM instance address.
 163:Generated_Source\PSoC6\pdl\drivers\peripheral\pdm_pcm/cy_pdm_pcm.c **** *
 164:Generated_Source\PSoC6\pdl\drivers\peripheral\pdm_pcm/cy_pdm_pcm.c **** * \param chan
 165:Generated_Source\PSoC6\pdl\drivers\peripheral\pdm_pcm/cy_pdm_pcm.c **** * The channel selector for gain setting \ref cy_en_pdm_pcm_chan_select_t.
 166:Generated_Source\PSoC6\pdl\drivers\peripheral\pdm_pcm/cy_pdm_pcm.c **** *
 167:Generated_Source\PSoC6\pdl\drivers\peripheral\pdm_pcm/cy_pdm_pcm.c **** * \return
 168:Generated_Source\PSoC6\pdl\drivers\peripheral\pdm_pcm/cy_pdm_pcm.c **** * Gain of the selected channel \ref cy_en_pdm_pcm_gain_t.
 169:Generated_Source\PSoC6\pdl\drivers\peripheral\pdm_pcm/cy_pdm_pcm.c **** *
 170:Generated_Source\PSoC6\pdl\drivers\peripheral\pdm_pcm/cy_pdm_pcm.c **** ******************************************************************************/
 171:Generated_Source\PSoC6\pdl\drivers\peripheral\pdm_pcm/cy_pdm_pcm.c **** cy_en_pdm_pcm_gain_t Cy_PDM_PCM_GetGain(PDM_Type const * base, cy_en_pdm_pcm_chan_select_t chan)
 172:Generated_Source\PSoC6\pdl\drivers\peripheral\pdm_pcm/cy_pdm_pcm.c **** {
 1063              		.loc 2 172 0
 1064              		.cfi_startproc
 1065              		@ args = 0, pretend = 0, frame = 16
 1066              		@ frame_needed = 1, uses_anonymous_args = 0
 1067 0000 80B5     		push	{r7, lr}
 1068              		.cfi_def_cfa_offset 8
ARM GAS  C:\Users\ikomb\AppData\Local\Temp\ccmrmnRc.s 			page 35


 1069              		.cfi_offset 7, -8
 1070              		.cfi_offset 14, -4
 1071 0002 84B0     		sub	sp, sp, #16
 1072              		.cfi_def_cfa_offset 24
 1073 0004 00AF     		add	r7, sp, #0
 1074              		.cfi_def_cfa_register 7
 1075 0006 7860     		str	r0, [r7, #4]
 1076 0008 0B46     		mov	r3, r1
 1077 000a FB70     		strb	r3, [r7, #3]
 173:Generated_Source\PSoC6\pdl\drivers\peripheral\pdm_pcm/cy_pdm_pcm.c ****     cy_en_pdm_pcm_gain_t ret;
 174:Generated_Source\PSoC6\pdl\drivers\peripheral\pdm_pcm/cy_pdm_pcm.c ****     
 175:Generated_Source\PSoC6\pdl\drivers\peripheral\pdm_pcm/cy_pdm_pcm.c ****     CY_ASSERT_L3(CY_PDM_PCM_IS_CHAN_VALID(chan));
 1078              		.loc 2 175 0
 1079 000c FB78     		ldrb	r3, [r7, #3]	@ zero_extendqisi2
 1080 000e 002B     		cmp	r3, #0
 1081 0010 06D0     		beq	.L54
 1082              		.loc 2 175 0 is_stmt 0 discriminator 1
 1083 0012 FB78     		ldrb	r3, [r7, #3]	@ zero_extendqisi2
 1084 0014 012B     		cmp	r3, #1
 1085 0016 03D0     		beq	.L54
 1086              		.loc 2 175 0 discriminator 2
 1087 0018 AF21     		movs	r1, #175
 1088 001a 0C48     		ldr	r0, .L58
 1089 001c FFF7FEFF 		bl	Cy_SysLib_AssertFailed
 1090              	.L54:
 176:Generated_Source\PSoC6\pdl\drivers\peripheral\pdm_pcm/cy_pdm_pcm.c **** 
 177:Generated_Source\PSoC6\pdl\drivers\peripheral\pdm_pcm/cy_pdm_pcm.c ****     if (chan == CY_PDM_PCM_CHAN_LEFT)
 1091              		.loc 2 177 0 is_stmt 1
 1092 0020 FB78     		ldrb	r3, [r7, #3]	@ zero_extendqisi2
 1093 0022 002B     		cmp	r3, #0
 1094 0024 06D1     		bne	.L55
 178:Generated_Source\PSoC6\pdl\drivers\peripheral\pdm_pcm/cy_pdm_pcm.c ****     {
 179:Generated_Source\PSoC6\pdl\drivers\peripheral\pdm_pcm/cy_pdm_pcm.c ****         ret = (cy_en_pdm_pcm_gain_t) (_FLD2VAL(PDM_CTL_PGA_L, base->CTL));
 1095              		.loc 2 179 0
 1096 0026 7B68     		ldr	r3, [r7, #4]
 1097 0028 1B68     		ldr	r3, [r3]
 1098 002a 03F47063 		and	r3, r3, #3840
 1099 002e 1B0A     		lsrs	r3, r3, #8
 1100 0030 FB73     		strb	r3, [r7, #15]
 1101 0032 05E0     		b	.L56
 1102              	.L55:
 180:Generated_Source\PSoC6\pdl\drivers\peripheral\pdm_pcm/cy_pdm_pcm.c ****     }
 181:Generated_Source\PSoC6\pdl\drivers\peripheral\pdm_pcm/cy_pdm_pcm.c ****     else
 182:Generated_Source\PSoC6\pdl\drivers\peripheral\pdm_pcm/cy_pdm_pcm.c ****     {
 183:Generated_Source\PSoC6\pdl\drivers\peripheral\pdm_pcm/cy_pdm_pcm.c ****         ret = (cy_en_pdm_pcm_gain_t) (_FLD2VAL(PDM_CTL_PGA_R, base->CTL));
 1103              		.loc 2 183 0
 1104 0034 7B68     		ldr	r3, [r7, #4]
 1105 0036 1B68     		ldr	r3, [r3]
 1106 0038 DBB2     		uxtb	r3, r3
 1107 003a 03F00F03 		and	r3, r3, #15
 1108 003e FB73     		strb	r3, [r7, #15]
 1109              	.L56:
 184:Generated_Source\PSoC6\pdl\drivers\peripheral\pdm_pcm/cy_pdm_pcm.c ****     }
 185:Generated_Source\PSoC6\pdl\drivers\peripheral\pdm_pcm/cy_pdm_pcm.c **** 
 186:Generated_Source\PSoC6\pdl\drivers\peripheral\pdm_pcm/cy_pdm_pcm.c ****     return (ret);
 1110              		.loc 2 186 0
 1111 0040 FB7B     		ldrb	r3, [r7, #15]	@ zero_extendqisi2
ARM GAS  C:\Users\ikomb\AppData\Local\Temp\ccmrmnRc.s 			page 36


 187:Generated_Source\PSoC6\pdl\drivers\peripheral\pdm_pcm/cy_pdm_pcm.c **** }
 1112              		.loc 2 187 0
 1113 0042 1846     		mov	r0, r3
 1114 0044 1037     		adds	r7, r7, #16
 1115              		.cfi_def_cfa_offset 8
 1116 0046 BD46     		mov	sp, r7
 1117              		.cfi_def_cfa_register 13
 1118              		@ sp needed
 1119 0048 80BD     		pop	{r7, pc}
 1120              	.L59:
 1121 004a 00BF     		.align	2
 1122              	.L58:
 1123 004c 44000000 		.word	.LC1
 1124              		.cfi_endproc
 1125              	.LFE178:
 1126              		.size	Cy_PDM_PCM_GetGain, .-Cy_PDM_PCM_GetGain
 1127              		.section	.text.Cy_PDM_PCM_DeepSleepCallback,"ax",%progbits
 1128              		.align	2
 1129              		.global	Cy_PDM_PCM_DeepSleepCallback
 1130              		.thumb
 1131              		.thumb_func
 1132              		.type	Cy_PDM_PCM_DeepSleepCallback, %function
 1133              	Cy_PDM_PCM_DeepSleepCallback:
 1134              	.LFB179:
 188:Generated_Source\PSoC6\pdl\drivers\peripheral\pdm_pcm/cy_pdm_pcm.c **** 
 189:Generated_Source\PSoC6\pdl\drivers\peripheral\pdm_pcm/cy_pdm_pcm.c **** 
 190:Generated_Source\PSoC6\pdl\drivers\peripheral\pdm_pcm/cy_pdm_pcm.c **** /*******************************************************************************
 191:Generated_Source\PSoC6\pdl\drivers\peripheral\pdm_pcm/cy_pdm_pcm.c **** * Function Name: Cy_PDM_PCM_DeepSleepCallback
 192:Generated_Source\PSoC6\pdl\drivers\peripheral\pdm_pcm/cy_pdm_pcm.c **** ****************************************************************************//**
 193:Generated_Source\PSoC6\pdl\drivers\peripheral\pdm_pcm/cy_pdm_pcm.c **** *
 194:Generated_Source\PSoC6\pdl\drivers\peripheral\pdm_pcm/cy_pdm_pcm.c **** * This is an example callback function that can be used at the application layer to
 195:Generated_Source\PSoC6\pdl\drivers\peripheral\pdm_pcm/cy_pdm_pcm.c **** * manage the PDM-PCM operation before entering and after exiting Deep-Sleep mode.
 196:Generated_Source\PSoC6\pdl\drivers\peripheral\pdm_pcm/cy_pdm_pcm.c **** *
 197:Generated_Source\PSoC6\pdl\drivers\peripheral\pdm_pcm/cy_pdm_pcm.c **** * \param callbackParams
 198:Generated_Source\PSoC6\pdl\drivers\peripheral\pdm_pcm/cy_pdm_pcm.c **** * The structure with the syspm callback parameters,
 199:Generated_Source\PSoC6\pdl\drivers\peripheral\pdm_pcm/cy_pdm_pcm.c **** * see \ref cy_stc_syspm_callback_params_t.
 200:Generated_Source\PSoC6\pdl\drivers\peripheral\pdm_pcm/cy_pdm_pcm.c **** *
 201:Generated_Source\PSoC6\pdl\drivers\peripheral\pdm_pcm/cy_pdm_pcm.c **** * \return
 202:Generated_Source\PSoC6\pdl\drivers\peripheral\pdm_pcm/cy_pdm_pcm.c **** * syspm return status, see \ref cy_en_syspm_status_t
 203:Generated_Source\PSoC6\pdl\drivers\peripheral\pdm_pcm/cy_pdm_pcm.c **** *
 204:Generated_Source\PSoC6\pdl\drivers\peripheral\pdm_pcm/cy_pdm_pcm.c **** *******************************************************************************/
 205:Generated_Source\PSoC6\pdl\drivers\peripheral\pdm_pcm/cy_pdm_pcm.c **** cy_en_syspm_status_t Cy_PDM_PCM_DeepSleepCallback(cy_stc_syspm_callback_params_t * callbackParams)
 206:Generated_Source\PSoC6\pdl\drivers\peripheral\pdm_pcm/cy_pdm_pcm.c **** {
 1135              		.loc 2 206 0
 1136              		.cfi_startproc
 1137              		@ args = 0, pretend = 0, frame = 16
 1138              		@ frame_needed = 1, uses_anonymous_args = 0
 1139 0000 80B5     		push	{r7, lr}
 1140              		.cfi_def_cfa_offset 8
 1141              		.cfi_offset 7, -8
 1142              		.cfi_offset 14, -4
 1143 0002 84B0     		sub	sp, sp, #16
 1144              		.cfi_def_cfa_offset 24
 1145 0004 00AF     		add	r7, sp, #0
 1146              		.cfi_def_cfa_register 7
 1147 0006 7860     		str	r0, [r7, #4]
 207:Generated_Source\PSoC6\pdl\drivers\peripheral\pdm_pcm/cy_pdm_pcm.c ****     cy_en_syspm_status_t ret = CY_SYSPM_SUCCESS;
ARM GAS  C:\Users\ikomb\AppData\Local\Temp\ccmrmnRc.s 			page 37


 1148              		.loc 2 207 0
 1149 0008 0023     		movs	r3, #0
 1150 000a FB60     		str	r3, [r7, #12]
 208:Generated_Source\PSoC6\pdl\drivers\peripheral\pdm_pcm/cy_pdm_pcm.c **** 
 209:Generated_Source\PSoC6\pdl\drivers\peripheral\pdm_pcm/cy_pdm_pcm.c ****     switch(callbackParams->mode)
 1151              		.loc 2 209 0
 1152 000c 7B68     		ldr	r3, [r7, #4]
 1153 000e 1B78     		ldrb	r3, [r3]	@ zero_extendqisi2
 1154 0010 013B     		subs	r3, r3, #1
 1155 0012 072B     		cmp	r3, #7
 1156 0014 23D8     		bhi	.L61
 1157 0016 01A2     		adr	r2, .L63
 1158 0018 52F823F0 		ldr	pc, [r2, r3, lsl #2]
 1159              		.p2align 2
 1160              	.L63:
 1161 001c 65000000 		.word	.L68+1
 1162 0020 65000000 		.word	.L68+1
 1163 0024 5F000000 		.word	.L61+1
 1164 0028 3D000000 		.word	.L64+1
 1165 002c 5F000000 		.word	.L61+1
 1166 0030 5F000000 		.word	.L61+1
 1167 0034 5F000000 		.word	.L61+1
 1168 0038 49000000 		.word	.L65+1
 1169              		.p2align 1
 1170              	.L64:
 210:Generated_Source\PSoC6\pdl\drivers\peripheral\pdm_pcm/cy_pdm_pcm.c ****     {
 211:Generated_Source\PSoC6\pdl\drivers\peripheral\pdm_pcm/cy_pdm_pcm.c ****         case CY_SYSPM_CHECK_READY:
 212:Generated_Source\PSoC6\pdl\drivers\peripheral\pdm_pcm/cy_pdm_pcm.c ****         case CY_SYSPM_CHECK_FAIL:
 213:Generated_Source\PSoC6\pdl\drivers\peripheral\pdm_pcm/cy_pdm_pcm.c ****             break;
 214:Generated_Source\PSoC6\pdl\drivers\peripheral\pdm_pcm/cy_pdm_pcm.c **** 
 215:Generated_Source\PSoC6\pdl\drivers\peripheral\pdm_pcm/cy_pdm_pcm.c ****         case CY_SYSPM_BEFORE_TRANSITION:
 216:Generated_Source\PSoC6\pdl\drivers\peripheral\pdm_pcm/cy_pdm_pcm.c ****             Cy_PDM_PCM_Disable((PDM_Type*) callbackParams->base); /* Stop PDM-PCM operation */
 1171              		.loc 2 216 0
 1172 003c 7B68     		ldr	r3, [r7, #4]
 1173 003e 5B68     		ldr	r3, [r3, #4]
 1174 0040 1846     		mov	r0, r3
 1175 0042 FFF7FEFF 		bl	Cy_PDM_PCM_Disable
 217:Generated_Source\PSoC6\pdl\drivers\peripheral\pdm_pcm/cy_pdm_pcm.c ****             /* Unload FIFO to do not lost any data (if needed) */
 218:Generated_Source\PSoC6\pdl\drivers\peripheral\pdm_pcm/cy_pdm_pcm.c ****             break;
 1176              		.loc 2 218 0
 1177 0046 0EE0     		b	.L66
 1178              	.L65:
 219:Generated_Source\PSoC6\pdl\drivers\peripheral\pdm_pcm/cy_pdm_pcm.c **** 
 220:Generated_Source\PSoC6\pdl\drivers\peripheral\pdm_pcm/cy_pdm_pcm.c ****         case CY_SYSPM_AFTER_TRANSITION:
 221:Generated_Source\PSoC6\pdl\drivers\peripheral\pdm_pcm/cy_pdm_pcm.c ****             Cy_PDM_PCM_ClearFifo((PDM_Type*) callbackParams->base); /* Clear FIFO */
 1179              		.loc 2 221 0
 1180 0048 7B68     		ldr	r3, [r7, #4]
 1181 004a 5B68     		ldr	r3, [r3, #4]
 1182 004c 1846     		mov	r0, r3
 1183 004e FFF7FEFF 		bl	Cy_PDM_PCM_ClearFifo
 222:Generated_Source\PSoC6\pdl\drivers\peripheral\pdm_pcm/cy_pdm_pcm.c ****             Cy_PDM_PCM_Enable((PDM_Type*) callbackParams->base); /* Start PDM-PCM operation */
 1184              		.loc 2 222 0
 1185 0052 7B68     		ldr	r3, [r7, #4]
 1186 0054 5B68     		ldr	r3, [r3, #4]
 1187 0056 1846     		mov	r0, r3
 1188 0058 FFF7FEFF 		bl	Cy_PDM_PCM_Enable
 223:Generated_Source\PSoC6\pdl\drivers\peripheral\pdm_pcm/cy_pdm_pcm.c ****             break;
ARM GAS  C:\Users\ikomb\AppData\Local\Temp\ccmrmnRc.s 			page 38


 1189              		.loc 2 223 0
 1190 005c 03E0     		b	.L66
 1191              	.L61:
 224:Generated_Source\PSoC6\pdl\drivers\peripheral\pdm_pcm/cy_pdm_pcm.c **** 
 225:Generated_Source\PSoC6\pdl\drivers\peripheral\pdm_pcm/cy_pdm_pcm.c ****         default:
 226:Generated_Source\PSoC6\pdl\drivers\peripheral\pdm_pcm/cy_pdm_pcm.c ****             ret = CY_SYSPM_FAIL;
 1192              		.loc 2 226 0
 1193 005e 044B     		ldr	r3, .L69
 1194 0060 FB60     		str	r3, [r7, #12]
 227:Generated_Source\PSoC6\pdl\drivers\peripheral\pdm_pcm/cy_pdm_pcm.c ****             break;
 1195              		.loc 2 227 0
 1196 0062 00E0     		b	.L66
 1197              	.L68:
 213:Generated_Source\PSoC6\pdl\drivers\peripheral\pdm_pcm/cy_pdm_pcm.c **** 
 1198              		.loc 2 213 0
 1199 0064 00BF     		nop
 1200              	.L66:
 228:Generated_Source\PSoC6\pdl\drivers\peripheral\pdm_pcm/cy_pdm_pcm.c ****     }
 229:Generated_Source\PSoC6\pdl\drivers\peripheral\pdm_pcm/cy_pdm_pcm.c **** 
 230:Generated_Source\PSoC6\pdl\drivers\peripheral\pdm_pcm/cy_pdm_pcm.c ****     return(ret);
 1201              		.loc 2 230 0
 1202 0066 FB68     		ldr	r3, [r7, #12]
 231:Generated_Source\PSoC6\pdl\drivers\peripheral\pdm_pcm/cy_pdm_pcm.c **** }
 1203              		.loc 2 231 0
 1204 0068 1846     		mov	r0, r3
 1205 006a 1037     		adds	r7, r7, #16
 1206              		.cfi_def_cfa_offset 8
 1207 006c BD46     		mov	sp, r7
 1208              		.cfi_def_cfa_register 13
 1209              		@ sp needed
 1210 006e 80BD     		pop	{r7, pc}
 1211              	.L70:
 1212              		.align	2
 1213              	.L69:
 1214 0070 FF004200 		.word	4325631
 1215              		.cfi_endproc
 1216              	.LFE179:
 1217              		.size	Cy_PDM_PCM_DeepSleepCallback, .-Cy_PDM_PCM_DeepSleepCallback
 1218              		.text
 1219              	.Letext0:
 1220              		.file 3 "c:\\program files (x86)\\cypress\\psoc creator\\4.4\\psoc creator\\import\\gnu\\arm\\5.4.
 1221              		.file 4 "c:\\program files (x86)\\cypress\\psoc creator\\4.4\\psoc creator\\import\\gnu\\arm\\5.4.
 1222              		.file 5 "Generated_Source\\PSoC6\\pdl\\devices/psoc6/ip/cyip_pdm.h"
 1223              		.file 6 "Generated_Source\\PSoC6\\pdl\\drivers/peripheral/syslib/cy_syslib.h"
 1224              		.file 7 "Generated_Source\\PSoC6\\pdl\\drivers/peripheral/syspm/cy_syspm.h"
 1225              		.file 8 "Generated_Source\\PSoC6\\pdl\\cmsis/include/core_cm4.h"