ARM GAS  C:\Users\ikomb\AppData\Local\Temp\ccEKz2Td.s 			page 1


   1              		.syntax unified
   2              		.cpu cortex-m4
   3              		.eabi_attribute 27, 1
   4              		.fpu fpv4-sp-d16
   5              		.eabi_attribute 20, 1
   6              		.eabi_attribute 21, 1
   7              		.eabi_attribute 23, 3
   8              		.eabi_attribute 24, 1
   9              		.eabi_attribute 25, 1
  10              		.eabi_attribute 26, 1
  11              		.eabi_attribute 30, 6
  12              		.eabi_attribute 34, 1
  13              		.eabi_attribute 18, 4
  14              		.thumb
  15              		.syntax unified
  16              		.file	"cy_smif.c"
  17              		.text
  18              	.Ltext0:
  19              		.cfi_sections	.debug_frame
  20              		.section	.text.Cy_SMIF_Disable,"ax",%progbits
  21              		.align	2
  22              		.thumb
  23              		.thumb_func
  24              		.type	Cy_SMIF_Disable, %function
  25              	Cy_SMIF_Disable:
  26              	.LFB158:
  27              		.file 1 "Generated_Source\\PSoC6\\pdl\\drivers\\peripheral\\smif\\cy_smif.h"
   1:Generated_Source\PSoC6\pdl\drivers\peripheral\smif/cy_smif.h **** /***************************************************************************//**
   2:Generated_Source\PSoC6\pdl\drivers\peripheral\smif/cy_smif.h **** * \file cy_smif.h
   3:Generated_Source\PSoC6\pdl\drivers\peripheral\smif/cy_smif.h **** * \version 1.10.1
   4:Generated_Source\PSoC6\pdl\drivers\peripheral\smif/cy_smif.h **** *
   5:Generated_Source\PSoC6\pdl\drivers\peripheral\smif/cy_smif.h **** * Provides an API declaration of the Cypress SMIF driver.
   6:Generated_Source\PSoC6\pdl\drivers\peripheral\smif/cy_smif.h **** *
   7:Generated_Source\PSoC6\pdl\drivers\peripheral\smif/cy_smif.h **** ********************************************************************************
   8:Generated_Source\PSoC6\pdl\drivers\peripheral\smif/cy_smif.h **** * \copyright
   9:Generated_Source\PSoC6\pdl\drivers\peripheral\smif/cy_smif.h **** * Copyright 2016-2018, Cypress Semiconductor Corporation.  All rights reserved.
  10:Generated_Source\PSoC6\pdl\drivers\peripheral\smif/cy_smif.h **** * You may use this file only in accordance with the license, terms, conditions,
  11:Generated_Source\PSoC6\pdl\drivers\peripheral\smif/cy_smif.h **** * disclaimers, and limitations in the end user license agreement accompanying
  12:Generated_Source\PSoC6\pdl\drivers\peripheral\smif/cy_smif.h **** * the software package with which this file was provided.
  13:Generated_Source\PSoC6\pdl\drivers\peripheral\smif/cy_smif.h **** *******************************************************************************/
  14:Generated_Source\PSoC6\pdl\drivers\peripheral\smif/cy_smif.h **** 
  15:Generated_Source\PSoC6\pdl\drivers\peripheral\smif/cy_smif.h **** /**
  16:Generated_Source\PSoC6\pdl\drivers\peripheral\smif/cy_smif.h **** * \defgroup group_smif Serial Memory Interface (SMIF)
  17:Generated_Source\PSoC6\pdl\drivers\peripheral\smif/cy_smif.h **** * \{
  18:Generated_Source\PSoC6\pdl\drivers\peripheral\smif/cy_smif.h **** * The SPI-based communication interface for external memory devices.
  19:Generated_Source\PSoC6\pdl\drivers\peripheral\smif/cy_smif.h **** *
  20:Generated_Source\PSoC6\pdl\drivers\peripheral\smif/cy_smif.h **** * SMIF: Serial Memory Interface: This IP block implements an SPI-based
  21:Generated_Source\PSoC6\pdl\drivers\peripheral\smif/cy_smif.h **** * communication interface for interfacing external memory devices to PSoC. The SMIF
  22:Generated_Source\PSoC6\pdl\drivers\peripheral\smif/cy_smif.h **** * supports Octal-SPI, Dual Quad-SPI, Quad-SPI, DSPI, and SPI.
  23:Generated_Source\PSoC6\pdl\drivers\peripheral\smif/cy_smif.h **** *
  24:Generated_Source\PSoC6\pdl\drivers\peripheral\smif/cy_smif.h **** * Features
  25:Generated_Source\PSoC6\pdl\drivers\peripheral\smif/cy_smif.h **** *   - Standard SPI Master interface
  26:Generated_Source\PSoC6\pdl\drivers\peripheral\smif/cy_smif.h **** *   - Supports Single/Dual/Quad/Octal SPI Memories
  27:Generated_Source\PSoC6\pdl\drivers\peripheral\smif/cy_smif.h **** *   - Supports Dual-Quad SPI mode
  28:Generated_Source\PSoC6\pdl\drivers\peripheral\smif/cy_smif.h **** *   - Design-time configurable support for multiple (up to 4) external serial
  29:Generated_Source\PSoC6\pdl\drivers\peripheral\smif/cy_smif.h **** *   memory devices
  30:Generated_Source\PSoC6\pdl\drivers\peripheral\smif/cy_smif.h **** *   - eXecute-In-Place (XIP) operation mode for both read and write accesses
ARM GAS  C:\Users\ikomb\AppData\Local\Temp\ccEKz2Td.s 			page 2


  31:Generated_Source\PSoC6\pdl\drivers\peripheral\smif/cy_smif.h **** *   with 4KB XIP read cache and on-the-fly encryption and decryption
  32:Generated_Source\PSoC6\pdl\drivers\peripheral\smif/cy_smif.h **** *   - Supports external serial memory initialization via Serial Flash
  33:Generated_Source\PSoC6\pdl\drivers\peripheral\smif/cy_smif.h **** *   Discoverable Parameters (SFDP) standard
  34:Generated_Source\PSoC6\pdl\drivers\peripheral\smif/cy_smif.h **** *   - Support for SPI clock frequencies up to 80 MHz
  35:Generated_Source\PSoC6\pdl\drivers\peripheral\smif/cy_smif.h **** *
  36:Generated_Source\PSoC6\pdl\drivers\peripheral\smif/cy_smif.h **** *
  37:Generated_Source\PSoC6\pdl\drivers\peripheral\smif/cy_smif.h **** * The primary usage model for the SMIF is that of an external memory interface.
  38:Generated_Source\PSoC6\pdl\drivers\peripheral\smif/cy_smif.h **** * The SMIF is capable of interfacing with different types of memory, up to four
  39:Generated_Source\PSoC6\pdl\drivers\peripheral\smif/cy_smif.h **** * types.
  40:Generated_Source\PSoC6\pdl\drivers\peripheral\smif/cy_smif.h **** *
  41:Generated_Source\PSoC6\pdl\drivers\peripheral\smif/cy_smif.h **** * \b SMIF driver is divided in next layers
  42:Generated_Source\PSoC6\pdl\drivers\peripheral\smif/cy_smif.h **** *   - cy_smif.h API
  43:Generated_Source\PSoC6\pdl\drivers\peripheral\smif/cy_smif.h **** *   - cy_smif_memslot.h API
  44:Generated_Source\PSoC6\pdl\drivers\peripheral\smif/cy_smif.h **** *   - SMIF configuration structures
  45:Generated_Source\PSoC6\pdl\drivers\peripheral\smif/cy_smif.h **** *
  46:Generated_Source\PSoC6\pdl\drivers\peripheral\smif/cy_smif.h **** * The SMIF API is divided into the low-level functions and memory-slot functions. Use
  47:Generated_Source\PSoC6\pdl\drivers\peripheral\smif/cy_smif.h **** * the low level API for the SMIF block initialization and for implementing a generic 
  48:Generated_Source\PSoC6\pdl\drivers\peripheral\smif/cy_smif.h **** * SPI communication interface using the SMIF block.
  49:Generated_Source\PSoC6\pdl\drivers\peripheral\smif/cy_smif.h **** *
  50:Generated_Source\PSoC6\pdl\drivers\peripheral\smif/cy_smif.h **** * The memory slot API has functions to implement the basic memory operations such as 
  51:Generated_Source\PSoC6\pdl\drivers\peripheral\smif/cy_smif.h **** * program, read, erase etc. These functions are implemented using the memory 
  52:Generated_Source\PSoC6\pdl\drivers\peripheral\smif/cy_smif.h **** * parameters in the memory device configuration data structure. The memory-slot
  53:Generated_Source\PSoC6\pdl\drivers\peripheral\smif/cy_smif.h **** * initialization API initializes all the memory slots based on the settings in the
  54:Generated_Source\PSoC6\pdl\drivers\peripheral\smif/cy_smif.h **** * array.
  55:Generated_Source\PSoC6\pdl\drivers\peripheral\smif/cy_smif.h **** *
  56:Generated_Source\PSoC6\pdl\drivers\peripheral\smif/cy_smif.h **** * \image html smif_1_0_p01_layers.png
  57:Generated_Source\PSoC6\pdl\drivers\peripheral\smif/cy_smif.h **** *
  58:Generated_Source\PSoC6\pdl\drivers\peripheral\smif/cy_smif.h **** * SMIF Configuration Tool is a stand-alone application, which is a part of PDL
  59:Generated_Source\PSoC6\pdl\drivers\peripheral\smif/cy_smif.h **** * and could be found in \<PDL_DIR\>/tools/\<OS_DIR\>/SMIFConfigurationTool
  60:Generated_Source\PSoC6\pdl\drivers\peripheral\smif/cy_smif.h **** * (e.g. for PDL 3.0.0 and Windows OS PDL/3.0.0/tools/win/SMIFConfigurationTool). Tool
  61:Generated_Source\PSoC6\pdl\drivers\peripheral\smif/cy_smif.h **** * generates *.c and *.h file with configuration structures. These configuration
  62:Generated_Source\PSoC6\pdl\drivers\peripheral\smif/cy_smif.h **** * structures are input parameters for cy_smif_memslot API level
  63:Generated_Source\PSoC6\pdl\drivers\peripheral\smif/cy_smif.h **** *
  64:Generated_Source\PSoC6\pdl\drivers\peripheral\smif/cy_smif.h **** * \warning The driver is not responsible for external memory persistence. You cannot edit
  65:Generated_Source\PSoC6\pdl\drivers\peripheral\smif/cy_smif.h **** * a buffer during the Read/Write operations. If there is a memory error, the SMIF ip block 
  66:Generated_Source\PSoC6\pdl\drivers\peripheral\smif/cy_smif.h **** * can require a reset. To determine if this has happened, check the SMIF 
  67:Generated_Source\PSoC6\pdl\drivers\peripheral\smif/cy_smif.h **** * busy status using Cy_SMIF_BusyCheck() and implement a timeout. Reset the SMIF 
  68:Generated_Source\PSoC6\pdl\drivers\peripheral\smif/cy_smif.h **** * block by toggling CTL.ENABLED. Then reconfigure the SMIF block.
  69:Generated_Source\PSoC6\pdl\drivers\peripheral\smif/cy_smif.h **** *
  70:Generated_Source\PSoC6\pdl\drivers\peripheral\smif/cy_smif.h **** * For the Write operation, check that the SMIF driver has completed 
  71:Generated_Source\PSoC6\pdl\drivers\peripheral\smif/cy_smif.h **** * transferring by calling Cy_SMIF_BusyCheck(). Also, check that the memory is 
  72:Generated_Source\PSoC6\pdl\drivers\peripheral\smif/cy_smif.h **** * available with Cy_SMIF_Memslot_IsBusy() before proceeding. 
  73:Generated_Source\PSoC6\pdl\drivers\peripheral\smif/cy_smif.h **** *
  74:Generated_Source\PSoC6\pdl\drivers\peripheral\smif/cy_smif.h **** * Simple example of external flash memory programming using low level SMIF API.
  75:Generated_Source\PSoC6\pdl\drivers\peripheral\smif/cy_smif.h **** * All steps mentioned in example below are incorporated in
  76:Generated_Source\PSoC6\pdl\drivers\peripheral\smif/cy_smif.h **** * \ref Cy_SMIF_Memslot_CmdWriteEnable(), \ref Cy_SMIF_Memslot_CmdProgram(), and
  77:Generated_Source\PSoC6\pdl\drivers\peripheral\smif/cy_smif.h **** * \ref Cy_SMIF_Memslot_IsBusy() of the
  78:Generated_Source\PSoC6\pdl\drivers\peripheral\smif/cy_smif.h **** * \ref group_smif_mem_slot_functions "memory slot level API".
  79:Generated_Source\PSoC6\pdl\drivers\peripheral\smif/cy_smif.h **** * \warning Example is simplified, without checks of error conditions.
  80:Generated_Source\PSoC6\pdl\drivers\peripheral\smif/cy_smif.h **** * \note Flash memories need erase operation before programming. Refer to
  81:Generated_Source\PSoC6\pdl\drivers\peripheral\smif/cy_smif.h **** * external memory datasheet for specific memory commands.
  82:Generated_Source\PSoC6\pdl\drivers\peripheral\smif/cy_smif.h **** *
  83:Generated_Source\PSoC6\pdl\drivers\peripheral\smif/cy_smif.h **** * \snippet smif/smif_sut_01.cydsn/main_cm4.c SMIF_API: Write example
  84:Generated_Source\PSoC6\pdl\drivers\peripheral\smif/cy_smif.h **** *
  85:Generated_Source\PSoC6\pdl\drivers\peripheral\smif/cy_smif.h **** * For the Read operation, before accessing the read buffer, check that it is ready
  86:Generated_Source\PSoC6\pdl\drivers\peripheral\smif/cy_smif.h **** * by calling Cy_SMIF_GetTxFifoStatus().
  87:Generated_Source\PSoC6\pdl\drivers\peripheral\smif/cy_smif.h **** *
ARM GAS  C:\Users\ikomb\AppData\Local\Temp\ccEKz2Td.s 			page 3


  88:Generated_Source\PSoC6\pdl\drivers\peripheral\smif/cy_smif.h **** * Simple example of external flash memory read using low level SMIF API. All
  89:Generated_Source\PSoC6\pdl\drivers\peripheral\smif/cy_smif.h **** * steps mentioned in example below are incorporated in
  90:Generated_Source\PSoC6\pdl\drivers\peripheral\smif/cy_smif.h **** * \ref Cy_SMIF_Memslot_CmdRead() of the
  91:Generated_Source\PSoC6\pdl\drivers\peripheral\smif/cy_smif.h **** * \ref group_smif_mem_slot_functions "memory slot level API".
  92:Generated_Source\PSoC6\pdl\drivers\peripheral\smif/cy_smif.h **** * \warning Example is simplified, without checks of error conditions.
  93:Generated_Source\PSoC6\pdl\drivers\peripheral\smif/cy_smif.h **** * \note Refer to external memory datasheet for specific memory commands.
  94:Generated_Source\PSoC6\pdl\drivers\peripheral\smif/cy_smif.h **** *
  95:Generated_Source\PSoC6\pdl\drivers\peripheral\smif/cy_smif.h **** * \snippet smif/smif_sut_01.cydsn/main_cm4.c SMIF_API: Read example
  96:Generated_Source\PSoC6\pdl\drivers\peripheral\smif/cy_smif.h **** *
  97:Generated_Source\PSoC6\pdl\drivers\peripheral\smif/cy_smif.h **** * The user should invalidate the cache by calling Cy_SMIF_CacheInvalidate() when 
  98:Generated_Source\PSoC6\pdl\drivers\peripheral\smif/cy_smif.h **** * switching from the MMIO mode to XIP mode.
  99:Generated_Source\PSoC6\pdl\drivers\peripheral\smif/cy_smif.h **** *
 100:Generated_Source\PSoC6\pdl\drivers\peripheral\smif/cy_smif.h **** * \section group_smif_configuration Configuration Considerations
 101:Generated_Source\PSoC6\pdl\drivers\peripheral\smif/cy_smif.h **** *
 102:Generated_Source\PSoC6\pdl\drivers\peripheral\smif/cy_smif.h **** * PDL API has common parameters: base, context, config described in
 103:Generated_Source\PSoC6\pdl\drivers\peripheral\smif/cy_smif.h **** * \ref page_getting_started_pdl_design "PDL Design" section.
 104:Generated_Source\PSoC6\pdl\drivers\peripheral\smif/cy_smif.h **** *
 105:Generated_Source\PSoC6\pdl\drivers\peripheral\smif/cy_smif.h **** * See the documentation for Cy_SMIF_Init() and Cy_SMIF_Memslot_Init() for details
 106:Generated_Source\PSoC6\pdl\drivers\peripheral\smif/cy_smif.h **** * on the required configuration structures and other initialization topics. 
 107:Generated_Source\PSoC6\pdl\drivers\peripheral\smif/cy_smif.h **** *
 108:Generated_Source\PSoC6\pdl\drivers\peripheral\smif/cy_smif.h **** * The normal (MMIO) mode is used for implementing a generic SPI/DSPI/QSPI/Dual
 109:Generated_Source\PSoC6\pdl\drivers\peripheral\smif/cy_smif.h **** * Quad-SPI/Octal-SPI communication interface using the SMIF block. This
 110:Generated_Source\PSoC6\pdl\drivers\peripheral\smif/cy_smif.h **** * interface can be used to implement special commands like Program/Erase of
 111:Generated_Source\PSoC6\pdl\drivers\peripheral\smif/cy_smif.h **** * flash, memory device configuration, sleep mode entry for memory devices or
 112:Generated_Source\PSoC6\pdl\drivers\peripheral\smif/cy_smif.h **** * other special commands specific to the memory device. The transfer width
 113:Generated_Source\PSoC6\pdl\drivers\peripheral\smif/cy_smif.h **** * (SPI/DSP/Quad-SPI/Octal-SPI) of a transmission is a parameter set for each
 114:Generated_Source\PSoC6\pdl\drivers\peripheral\smif/cy_smif.h **** * transmit/receive operation. So these can be changed at run time.
 115:Generated_Source\PSoC6\pdl\drivers\peripheral\smif/cy_smif.h **** *
 116:Generated_Source\PSoC6\pdl\drivers\peripheral\smif/cy_smif.h **** * In a typical memory interface with flash memory, the SMIF is used in the
 117:Generated_Source\PSoC6\pdl\drivers\peripheral\smif/cy_smif.h **** * memory mode when reading from the memory and it switches to the normal mode when
 118:Generated_Source\PSoC6\pdl\drivers\peripheral\smif/cy_smif.h **** * writing to flash memory.
 119:Generated_Source\PSoC6\pdl\drivers\peripheral\smif/cy_smif.h **** * A typical memory device has multiple types of commands.
 120:Generated_Source\PSoC6\pdl\drivers\peripheral\smif/cy_smif.h **** *
 121:Generated_Source\PSoC6\pdl\drivers\peripheral\smif/cy_smif.h **** * The SMIF interface can be used to transmit different types of commands. Each
 122:Generated_Source\PSoC6\pdl\drivers\peripheral\smif/cy_smif.h **** * command has different phases: command, dummy cycles, and transmit and receive
 123:Generated_Source\PSoC6\pdl\drivers\peripheral\smif/cy_smif.h **** * data which require separate APIs.
 124:Generated_Source\PSoC6\pdl\drivers\peripheral\smif/cy_smif.h **** *
 125:Generated_Source\PSoC6\pdl\drivers\peripheral\smif/cy_smif.h **** * \subsection group_smif_init SMIF Initialization
 126:Generated_Source\PSoC6\pdl\drivers\peripheral\smif/cy_smif.h **** * Create interrupt function and allocate memory for SMIF context
 127:Generated_Source\PSoC6\pdl\drivers\peripheral\smif/cy_smif.h **** * structure
 128:Generated_Source\PSoC6\pdl\drivers\peripheral\smif/cy_smif.h **** * \snippet smif/smif_sut_01.cydsn/main_cm4.c SMIF_INIT: context and interrupt
 129:Generated_Source\PSoC6\pdl\drivers\peripheral\smif/cy_smif.h **** * SMIF driver initialization for low level API usage (cysmif.h)
 130:Generated_Source\PSoC6\pdl\drivers\peripheral\smif/cy_smif.h **** * \snippet smif/smif_sut_01.cydsn/main_cm4.c SMIF_INIT: low level
 131:Generated_Source\PSoC6\pdl\drivers\peripheral\smif/cy_smif.h **** * Additional steps to initialize SMIF driver for memory slot level API usage
 132:Generated_Source\PSoC6\pdl\drivers\peripheral\smif/cy_smif.h **** * (cy_smif_memslot.h).
 133:Generated_Source\PSoC6\pdl\drivers\peripheral\smif/cy_smif.h **** * \snippet smif/smif_sut_01.cydsn/main_cm4.c SMIF_INIT: memslot level
 134:Generated_Source\PSoC6\pdl\drivers\peripheral\smif/cy_smif.h **** * \note Example does not include initialization of all needed configuration
 135:Generated_Source\PSoC6\pdl\drivers\peripheral\smif/cy_smif.h **** * structures (\ref cy_stc_smif_mem_device_cfg_t, \ref cy_stc_smif_mem_cmd_t).
 136:Generated_Source\PSoC6\pdl\drivers\peripheral\smif/cy_smif.h **** * SMIF Configuration tool generates all configuration structures needed for
 137:Generated_Source\PSoC6\pdl\drivers\peripheral\smif/cy_smif.h **** * memslot level API usage.
 138:Generated_Source\PSoC6\pdl\drivers\peripheral\smif/cy_smif.h **** *
 139:Generated_Source\PSoC6\pdl\drivers\peripheral\smif/cy_smif.h **** * \subsection group_smif_xip_init SMIF XIP Initialization
 140:Generated_Source\PSoC6\pdl\drivers\peripheral\smif/cy_smif.h **** * The eXecute In Place (XIP) is a mode of operation where read or write commands 
 141:Generated_Source\PSoC6\pdl\drivers\peripheral\smif/cy_smif.h **** * to the memory device are directed through the SMIF without any use of API 
 142:Generated_Source\PSoC6\pdl\drivers\peripheral\smif/cy_smif.h **** * function calls. In this mode the SMIF block maps the AHB bus-accesses to 
 143:Generated_Source\PSoC6\pdl\drivers\peripheral\smif/cy_smif.h **** * external memory device addresses to make it behave similar to internal memory. 
 144:Generated_Source\PSoC6\pdl\drivers\peripheral\smif/cy_smif.h **** * This allows the CPU to execute code directly from external memory. This mode 
ARM GAS  C:\Users\ikomb\AppData\Local\Temp\ccEKz2Td.s 			page 4


 145:Generated_Source\PSoC6\pdl\drivers\peripheral\smif/cy_smif.h **** * is not limited to code and is suitable also for data read and write accesses. 
 146:Generated_Source\PSoC6\pdl\drivers\peripheral\smif/cy_smif.h **** * \snippet smif/smif_sut_01.cydsn/main_cm4.c SMIF_INIT: XIP
 147:Generated_Source\PSoC6\pdl\drivers\peripheral\smif/cy_smif.h **** * \note Example of input parameters initialization is in \ref group_smif_init 
 148:Generated_Source\PSoC6\pdl\drivers\peripheral\smif/cy_smif.h **** * section.
 149:Generated_Source\PSoC6\pdl\drivers\peripheral\smif/cy_smif.h **** * \warning Functions that called from external memory should be declared with 
 150:Generated_Source\PSoC6\pdl\drivers\peripheral\smif/cy_smif.h **** * long call attribute.     
 151:Generated_Source\PSoC6\pdl\drivers\peripheral\smif/cy_smif.h **** *
 152:Generated_Source\PSoC6\pdl\drivers\peripheral\smif/cy_smif.h **** * \section group_smif_more_information More Information
 153:Generated_Source\PSoC6\pdl\drivers\peripheral\smif/cy_smif.h **** *
 154:Generated_Source\PSoC6\pdl\drivers\peripheral\smif/cy_smif.h **** * More information regarding the Serial Memory Interface can be found in the component 
 155:Generated_Source\PSoC6\pdl\drivers\peripheral\smif/cy_smif.h **** * datasheet and the Technical Reference Manual (TRM).
 156:Generated_Source\PSoC6\pdl\drivers\peripheral\smif/cy_smif.h **** * More information regarding the SMIF Configuration Tool are in SMIF
 157:Generated_Source\PSoC6\pdl\drivers\peripheral\smif/cy_smif.h **** * Configuration Tool User Guide located in \<PDL_DIR\>/tools/\<OS_DIR\>/SMIFConfigurationTool/
 158:Generated_Source\PSoC6\pdl\drivers\peripheral\smif/cy_smif.h **** * folder
 159:Generated_Source\PSoC6\pdl\drivers\peripheral\smif/cy_smif.h **** *
 160:Generated_Source\PSoC6\pdl\drivers\peripheral\smif/cy_smif.h **** * \section group_smif_MISRA MISRA-C Compliance]
 161:Generated_Source\PSoC6\pdl\drivers\peripheral\smif/cy_smif.h **** * <table class="doxtable">
 162:Generated_Source\PSoC6\pdl\drivers\peripheral\smif/cy_smif.h **** *   <tr>
 163:Generated_Source\PSoC6\pdl\drivers\peripheral\smif/cy_smif.h **** *     <th>MISRA rule</th>
 164:Generated_Source\PSoC6\pdl\drivers\peripheral\smif/cy_smif.h **** *     <th>Rule Class (Required/Advisory)</th>
 165:Generated_Source\PSoC6\pdl\drivers\peripheral\smif/cy_smif.h **** *     <th>Rule Description</th>
 166:Generated_Source\PSoC6\pdl\drivers\peripheral\smif/cy_smif.h **** *     <th>Description of Deviation(s)</th>
 167:Generated_Source\PSoC6\pdl\drivers\peripheral\smif/cy_smif.h **** *   </tr>
 168:Generated_Source\PSoC6\pdl\drivers\peripheral\smif/cy_smif.h **** *   <tr>
 169:Generated_Source\PSoC6\pdl\drivers\peripheral\smif/cy_smif.h **** *     <td>11.4</td>
 170:Generated_Source\PSoC6\pdl\drivers\peripheral\smif/cy_smif.h **** *     <td>A</td>
 171:Generated_Source\PSoC6\pdl\drivers\peripheral\smif/cy_smif.h **** *     <td>The cast is be performed between a pointer to the object type and a different pointer to 
 172:Generated_Source\PSoC6\pdl\drivers\peripheral\smif/cy_smif.h **** *     <td>The cast from the pointer to void to the pointer to an unsigned integer does not have any
 173:Generated_Source\PSoC6\pdl\drivers\peripheral\smif/cy_smif.h **** *         it is a consequence of the definition of a structure based on hardware registers.</td>
 174:Generated_Source\PSoC6\pdl\drivers\peripheral\smif/cy_smif.h **** *   </tr>
 175:Generated_Source\PSoC6\pdl\drivers\peripheral\smif/cy_smif.h **** *   <tr>
 176:Generated_Source\PSoC6\pdl\drivers\peripheral\smif/cy_smif.h **** *     <td>11.5</td>
 177:Generated_Source\PSoC6\pdl\drivers\peripheral\smif/cy_smif.h **** *     <td>R</td>
 178:Generated_Source\PSoC6\pdl\drivers\peripheral\smif/cy_smif.h **** *     <td>Not performed, the cast that removes any const or volatile qualification from the type ad
 179:Generated_Source\PSoC6\pdl\drivers\peripheral\smif/cy_smif.h **** *     <td>The removal of the volatile qualification inside the function has no side effects.</td>
 180:Generated_Source\PSoC6\pdl\drivers\peripheral\smif/cy_smif.h **** *   </tr>
 181:Generated_Source\PSoC6\pdl\drivers\peripheral\smif/cy_smif.h **** *   <tr>
 182:Generated_Source\PSoC6\pdl\drivers\peripheral\smif/cy_smif.h **** *     <td>14.2</td>
 183:Generated_Source\PSoC6\pdl\drivers\peripheral\smif/cy_smif.h **** *     <td>R</td>
 184:Generated_Source\PSoC6\pdl\drivers\peripheral\smif/cy_smif.h **** *     <td>All non-null statements will either:
 185:Generated_Source\PSoC6\pdl\drivers\peripheral\smif/cy_smif.h **** *       a) have at least one-side effect however executed, or
 186:Generated_Source\PSoC6\pdl\drivers\peripheral\smif/cy_smif.h **** *       b) cause control flow to change</td>
 187:Generated_Source\PSoC6\pdl\drivers\peripheral\smif/cy_smif.h **** *     <td>The readback of the register is required by the hardware.</td>
 188:Generated_Source\PSoC6\pdl\drivers\peripheral\smif/cy_smif.h **** *   </tr>
 189:Generated_Source\PSoC6\pdl\drivers\peripheral\smif/cy_smif.h **** * </table>
 190:Generated_Source\PSoC6\pdl\drivers\peripheral\smif/cy_smif.h **** *
 191:Generated_Source\PSoC6\pdl\drivers\peripheral\smif/cy_smif.h **** * \section group_smif_changelog Changelog
 192:Generated_Source\PSoC6\pdl\drivers\peripheral\smif/cy_smif.h **** * <table class="doxtable">
 193:Generated_Source\PSoC6\pdl\drivers\peripheral\smif/cy_smif.h **** *   <tr><th>Version</th><th>Changes</th><th>Reason for Change</th></tr>
 194:Generated_Source\PSoC6\pdl\drivers\peripheral\smif/cy_smif.h **** *   <tr>
 195:Generated_Source\PSoC6\pdl\drivers\peripheral\smif/cy_smif.h **** *     <td>1.10.1</td>
 196:Generated_Source\PSoC6\pdl\drivers\peripheral\smif/cy_smif.h **** *     <td>Added Low Power Callback section</td>
 197:Generated_Source\PSoC6\pdl\drivers\peripheral\smif/cy_smif.h **** *     <td>Documentation update and clarification</td>
 198:Generated_Source\PSoC6\pdl\drivers\peripheral\smif/cy_smif.h **** *   </tr>
 199:Generated_Source\PSoC6\pdl\drivers\peripheral\smif/cy_smif.h **** *   <tr>
 200:Generated_Source\PSoC6\pdl\drivers\peripheral\smif/cy_smif.h **** *     <td>1.10</td>
 201:Generated_Source\PSoC6\pdl\drivers\peripheral\smif/cy_smif.h **** *     <td>Fix write to external memory from CM0+ core. Add checks of API input parameters. 
ARM GAS  C:\Users\ikomb\AppData\Local\Temp\ccEKz2Td.s 			page 5


 202:Generated_Source\PSoC6\pdl\drivers\peripheral\smif/cy_smif.h **** *         Minor documentation updates</td>
 203:Generated_Source\PSoC6\pdl\drivers\peripheral\smif/cy_smif.h **** *     <td></td>
 204:Generated_Source\PSoC6\pdl\drivers\peripheral\smif/cy_smif.h **** *   </tr>
 205:Generated_Source\PSoC6\pdl\drivers\peripheral\smif/cy_smif.h **** *   <tr>
 206:Generated_Source\PSoC6\pdl\drivers\peripheral\smif/cy_smif.h **** *     <td>1.0</td>
 207:Generated_Source\PSoC6\pdl\drivers\peripheral\smif/cy_smif.h **** *     <td>Initial version</td>
 208:Generated_Source\PSoC6\pdl\drivers\peripheral\smif/cy_smif.h **** *     <td></td>
 209:Generated_Source\PSoC6\pdl\drivers\peripheral\smif/cy_smif.h **** *   </tr>
 210:Generated_Source\PSoC6\pdl\drivers\peripheral\smif/cy_smif.h **** * </table>
 211:Generated_Source\PSoC6\pdl\drivers\peripheral\smif/cy_smif.h **** *
 212:Generated_Source\PSoC6\pdl\drivers\peripheral\smif/cy_smif.h **** * \defgroup group_smif_macros Macros
 213:Generated_Source\PSoC6\pdl\drivers\peripheral\smif/cy_smif.h **** * \{
 214:Generated_Source\PSoC6\pdl\drivers\peripheral\smif/cy_smif.h **** * \defgroup group_smif_macros_status Status Macros
 215:Generated_Source\PSoC6\pdl\drivers\peripheral\smif/cy_smif.h **** * \defgroup group_smif_macros_cmd Command Macros
 216:Generated_Source\PSoC6\pdl\drivers\peripheral\smif/cy_smif.h **** * \defgroup group_smif_macros_flags External Memory Flags
 217:Generated_Source\PSoC6\pdl\drivers\peripheral\smif/cy_smif.h **** * \defgroup group_smif_macros_sfdp SFDP Macros
 218:Generated_Source\PSoC6\pdl\drivers\peripheral\smif/cy_smif.h **** * \defgroup group_smif_macros_isr Interrupt Macros
 219:Generated_Source\PSoC6\pdl\drivers\peripheral\smif/cy_smif.h **** * \}
 220:Generated_Source\PSoC6\pdl\drivers\peripheral\smif/cy_smif.h **** * \defgroup group_smif_functions Functions
 221:Generated_Source\PSoC6\pdl\drivers\peripheral\smif/cy_smif.h **** * \{
 222:Generated_Source\PSoC6\pdl\drivers\peripheral\smif/cy_smif.h **** * \defgroup group_smif_low_level_functions Low Level Functions
 223:Generated_Source\PSoC6\pdl\drivers\peripheral\smif/cy_smif.h **** * \{
 224:Generated_Source\PSoC6\pdl\drivers\peripheral\smif/cy_smif.h **** * Basic flow for read/write commands using \ref Cy_SMIF_TransmitCommand
 225:Generated_Source\PSoC6\pdl\drivers\peripheral\smif/cy_smif.h **** * \ref Cy_SMIF_TransmitData \ref Cy_SMIF_ReceiveData
 226:Generated_Source\PSoC6\pdl\drivers\peripheral\smif/cy_smif.h **** * \ref Cy_SMIF_SendDummyCycles
 227:Generated_Source\PSoC6\pdl\drivers\peripheral\smif/cy_smif.h **** *
 228:Generated_Source\PSoC6\pdl\drivers\peripheral\smif/cy_smif.h **** *  \image html smif_1_0_p03_rw_cmd.png
 229:Generated_Source\PSoC6\pdl\drivers\peripheral\smif/cy_smif.h **** *
 230:Generated_Source\PSoC6\pdl\drivers\peripheral\smif/cy_smif.h **** * \}
 231:Generated_Source\PSoC6\pdl\drivers\peripheral\smif/cy_smif.h **** * \defgroup group_smif_mem_slot_functions Memory Slot Functions
 232:Generated_Source\PSoC6\pdl\drivers\peripheral\smif/cy_smif.h **** * \defgroup group_smif_functions_syspm_callback  Low Power Callback
 233:Generated_Source\PSoC6\pdl\drivers\peripheral\smif/cy_smif.h **** * \}
 234:Generated_Source\PSoC6\pdl\drivers\peripheral\smif/cy_smif.h **** * \defgroup group_smif_data_structures Data Structures
 235:Generated_Source\PSoC6\pdl\drivers\peripheral\smif/cy_smif.h **** * \{
 236:Generated_Source\PSoC6\pdl\drivers\peripheral\smif/cy_smif.h **** * \defgroup group_smif_data_structures_memslot SMIF Memory Description Structures
 237:Generated_Source\PSoC6\pdl\drivers\peripheral\smif/cy_smif.h **** * General hierarchy of memory structures are:
 238:Generated_Source\PSoC6\pdl\drivers\peripheral\smif/cy_smif.h **** * \image html smif_1_0_p02_memslot_stc.png
 239:Generated_Source\PSoC6\pdl\drivers\peripheral\smif/cy_smif.h **** * Top structure is \ref cy_stc_smif_block_config_t, which could have links up to
 240:Generated_Source\PSoC6\pdl\drivers\peripheral\smif/cy_smif.h **** * 4 \ref cy_stc_smif_mem_config_t which describes each connected to the SMIF
 241:Generated_Source\PSoC6\pdl\drivers\peripheral\smif/cy_smif.h **** * external memory.
 242:Generated_Source\PSoC6\pdl\drivers\peripheral\smif/cy_smif.h **** * \}
 243:Generated_Source\PSoC6\pdl\drivers\peripheral\smif/cy_smif.h **** * \defgroup group_smif_enums Enumerated Types
 244:Generated_Source\PSoC6\pdl\drivers\peripheral\smif/cy_smif.h **** */
 245:Generated_Source\PSoC6\pdl\drivers\peripheral\smif/cy_smif.h **** 
 246:Generated_Source\PSoC6\pdl\drivers\peripheral\smif/cy_smif.h **** #if !defined(CY_SMIF_H)
 247:Generated_Source\PSoC6\pdl\drivers\peripheral\smif/cy_smif.h **** #define CY_SMIF_H
 248:Generated_Source\PSoC6\pdl\drivers\peripheral\smif/cy_smif.h **** 
 249:Generated_Source\PSoC6\pdl\drivers\peripheral\smif/cy_smif.h **** #include <stdint.h>
 250:Generated_Source\PSoC6\pdl\drivers\peripheral\smif/cy_smif.h **** #include <stdbool.h>
 251:Generated_Source\PSoC6\pdl\drivers\peripheral\smif/cy_smif.h **** #include <stddef.h>
 252:Generated_Source\PSoC6\pdl\drivers\peripheral\smif/cy_smif.h **** #include "syslib/cy_syslib.h"
 253:Generated_Source\PSoC6\pdl\drivers\peripheral\smif/cy_smif.h **** #include "syspm/cy_syspm.h"
 254:Generated_Source\PSoC6\pdl\drivers\peripheral\smif/cy_smif.h **** #include "cy_device_headers.h"
 255:Generated_Source\PSoC6\pdl\drivers\peripheral\smif/cy_smif.h **** 
 256:Generated_Source\PSoC6\pdl\drivers\peripheral\smif/cy_smif.h **** #ifndef CY_IP_MXSMIF
 257:Generated_Source\PSoC6\pdl\drivers\peripheral\smif/cy_smif.h ****     #error "The SMIF driver is not supported on this device"
 258:Generated_Source\PSoC6\pdl\drivers\peripheral\smif/cy_smif.h **** #endif
ARM GAS  C:\Users\ikomb\AppData\Local\Temp\ccEKz2Td.s 			page 6


 259:Generated_Source\PSoC6\pdl\drivers\peripheral\smif/cy_smif.h **** 
 260:Generated_Source\PSoC6\pdl\drivers\peripheral\smif/cy_smif.h **** #if defined(__cplusplus)
 261:Generated_Source\PSoC6\pdl\drivers\peripheral\smif/cy_smif.h **** extern "C" {
 262:Generated_Source\PSoC6\pdl\drivers\peripheral\smif/cy_smif.h **** #endif
 263:Generated_Source\PSoC6\pdl\drivers\peripheral\smif/cy_smif.h **** 
 264:Generated_Source\PSoC6\pdl\drivers\peripheral\smif/cy_smif.h **** /***************************************
 265:Generated_Source\PSoC6\pdl\drivers\peripheral\smif/cy_smif.h **** *            Constants
 266:Generated_Source\PSoC6\pdl\drivers\peripheral\smif/cy_smif.h **** ****************************************/
 267:Generated_Source\PSoC6\pdl\drivers\peripheral\smif/cy_smif.h **** 
 268:Generated_Source\PSoC6\pdl\drivers\peripheral\smif/cy_smif.h **** /**
 269:Generated_Source\PSoC6\pdl\drivers\peripheral\smif/cy_smif.h **** * \addtogroup group_smif_macros
 270:Generated_Source\PSoC6\pdl\drivers\peripheral\smif/cy_smif.h **** * \{
 271:Generated_Source\PSoC6\pdl\drivers\peripheral\smif/cy_smif.h **** */
 272:Generated_Source\PSoC6\pdl\drivers\peripheral\smif/cy_smif.h **** 
 273:Generated_Source\PSoC6\pdl\drivers\peripheral\smif/cy_smif.h **** /** The driver major version */
 274:Generated_Source\PSoC6\pdl\drivers\peripheral\smif/cy_smif.h **** #define CY_SMIF_DRV_VERSION_MAJOR       1
 275:Generated_Source\PSoC6\pdl\drivers\peripheral\smif/cy_smif.h **** 
 276:Generated_Source\PSoC6\pdl\drivers\peripheral\smif/cy_smif.h **** /** The driver minor version */
 277:Generated_Source\PSoC6\pdl\drivers\peripheral\smif/cy_smif.h **** #define CY_SMIF_DRV_VERSION_MINOR       10
 278:Generated_Source\PSoC6\pdl\drivers\peripheral\smif/cy_smif.h **** 
 279:Generated_Source\PSoC6\pdl\drivers\peripheral\smif/cy_smif.h **** /** One microsecond timeout for Cy_SMIF_TimeoutRun() */
 280:Generated_Source\PSoC6\pdl\drivers\peripheral\smif/cy_smif.h **** #define CY_SMIF_WAIT_1_UNIT        (1U)
 281:Generated_Source\PSoC6\pdl\drivers\peripheral\smif/cy_smif.h **** 
 282:Generated_Source\PSoC6\pdl\drivers\peripheral\smif/cy_smif.h **** /** The SMIF driver ID, reported as part of an unsuccessful API return status
 283:Generated_Source\PSoC6\pdl\drivers\peripheral\smif/cy_smif.h ****  * \ref cy_en_smif_status_t */
 284:Generated_Source\PSoC6\pdl\drivers\peripheral\smif/cy_smif.h **** #define CY_SMIF_ID CY_PDL_DRV_ID(0x2CU)
 285:Generated_Source\PSoC6\pdl\drivers\peripheral\smif/cy_smif.h **** 
 286:Generated_Source\PSoC6\pdl\drivers\peripheral\smif/cy_smif.h **** 
 287:Generated_Source\PSoC6\pdl\drivers\peripheral\smif/cy_smif.h **** /**
 288:Generated_Source\PSoC6\pdl\drivers\peripheral\smif/cy_smif.h **** * \addtogroup group_smif_macros_isr
 289:Generated_Source\PSoC6\pdl\drivers\peripheral\smif/cy_smif.h **** * \{
 290:Generated_Source\PSoC6\pdl\drivers\peripheral\smif/cy_smif.h **** */
 291:Generated_Source\PSoC6\pdl\drivers\peripheral\smif/cy_smif.h **** 
 292:Generated_Source\PSoC6\pdl\drivers\peripheral\smif/cy_smif.h **** /** Enable XIP_ALIGNMENT_ERROR interrupt see TRM for details */
 293:Generated_Source\PSoC6\pdl\drivers\peripheral\smif/cy_smif.h **** #define CY_SMIF_ALIGNMENT_ERROR                 (SMIF_INTR_XIP_ALIGNMENT_ERROR_Msk)
 294:Generated_Source\PSoC6\pdl\drivers\peripheral\smif/cy_smif.h **** /** Enable RX_DATA_FIFO_UNDERFLOW interrupt see TRM for details */
 295:Generated_Source\PSoC6\pdl\drivers\peripheral\smif/cy_smif.h **** #define CY_SMIF_RX_DATA_FIFO_UNDERFLOW          (SMIF_INTR_RX_DATA_FIFO_UNDERFLOW_Msk)
 296:Generated_Source\PSoC6\pdl\drivers\peripheral\smif/cy_smif.h **** /** Enable TX_DATA_FIFO_OVERFLOW interrupt see TRM for details */
 297:Generated_Source\PSoC6\pdl\drivers\peripheral\smif/cy_smif.h **** #define CY_SMIF_TX_DATA_FIFO_OVERFLOW           (SMIF_INTR_TX_DATA_FIFO_OVERFLOW_Msk)
 298:Generated_Source\PSoC6\pdl\drivers\peripheral\smif/cy_smif.h **** /** Enable TX_CMD_FIFO_OVERFLOW interrupt see TRM for details */
 299:Generated_Source\PSoC6\pdl\drivers\peripheral\smif/cy_smif.h **** #define CY_SMIF_TX_COMMAND_FIFO_OVERFLOW         (SMIF_INTR_TX_CMD_FIFO_OVERFLOW_Msk)
 300:Generated_Source\PSoC6\pdl\drivers\peripheral\smif/cy_smif.h **** /** Enable TR_TX_REQ interrupt see TRM for details */
 301:Generated_Source\PSoC6\pdl\drivers\peripheral\smif/cy_smif.h **** #define CY_SMIF_TX_DATA_FIFO_LEVEL_TRIGGER      (SMIF_INTR_TR_TX_REQ_Msk)
 302:Generated_Source\PSoC6\pdl\drivers\peripheral\smif/cy_smif.h **** /** Enable TR_RX_REQ interrupt see TRM for details */
 303:Generated_Source\PSoC6\pdl\drivers\peripheral\smif/cy_smif.h **** #define CY_SMIF_RX_DATA_FIFO_LEVEL_TRIGGER      (SMIF_INTR_TR_RX_REQ_Msk)
 304:Generated_Source\PSoC6\pdl\drivers\peripheral\smif/cy_smif.h **** 
 305:Generated_Source\PSoC6\pdl\drivers\peripheral\smif/cy_smif.h **** /** \} group_smif_macros_isr */
 306:Generated_Source\PSoC6\pdl\drivers\peripheral\smif/cy_smif.h **** 
 307:Generated_Source\PSoC6\pdl\drivers\peripheral\smif/cy_smif.h **** /** \cond INTERNAL */
 308:Generated_Source\PSoC6\pdl\drivers\peripheral\smif/cy_smif.h **** 
 309:Generated_Source\PSoC6\pdl\drivers\peripheral\smif/cy_smif.h **** #define CY_SMIF_CMD_FIFO_TX_MODE           (0UL)
 310:Generated_Source\PSoC6\pdl\drivers\peripheral\smif/cy_smif.h **** #define CY_SMIF_CMD_FIFO_TX_COUNT_MODE     (1UL)
 311:Generated_Source\PSoC6\pdl\drivers\peripheral\smif/cy_smif.h **** #define CY_SMIF_CMD_FIFO_RX_COUNT_MODE     (2UL)
 312:Generated_Source\PSoC6\pdl\drivers\peripheral\smif/cy_smif.h **** #define CY_SMIF_CMD_FIFO_DUMMY_COUNT_MODE  (3UL)
 313:Generated_Source\PSoC6\pdl\drivers\peripheral\smif/cy_smif.h **** 
 314:Generated_Source\PSoC6\pdl\drivers\peripheral\smif/cy_smif.h **** #define CY_SMIF_TX_CMD_FIFO_STATUS_RANGE   (4U)
 315:Generated_Source\PSoC6\pdl\drivers\peripheral\smif/cy_smif.h **** #define CY_SMIF_TX_DATA_FIFO_STATUS_RANGE  (8U)
ARM GAS  C:\Users\ikomb\AppData\Local\Temp\ccEKz2Td.s 			page 7


 316:Generated_Source\PSoC6\pdl\drivers\peripheral\smif/cy_smif.h **** #define CY_SMIF_RX_DATA_FIFO_STATUS_RANGE  (8U)
 317:Generated_Source\PSoC6\pdl\drivers\peripheral\smif/cy_smif.h **** 
 318:Generated_Source\PSoC6\pdl\drivers\peripheral\smif/cy_smif.h **** #define CY_SMIF_ONE_BYTE                   (1U)
 319:Generated_Source\PSoC6\pdl\drivers\peripheral\smif/cy_smif.h **** #define CY_SMIF_TWO_BYTES                  (2U)
 320:Generated_Source\PSoC6\pdl\drivers\peripheral\smif/cy_smif.h **** #define CY_SMIF_THREE_BYTES                (3U)
 321:Generated_Source\PSoC6\pdl\drivers\peripheral\smif/cy_smif.h **** #define CY_SMIF_FOUR_BYTES                 (4U)
 322:Generated_Source\PSoC6\pdl\drivers\peripheral\smif/cy_smif.h **** #define CY_SMIF_FIVE_BYTES                 (5U)
 323:Generated_Source\PSoC6\pdl\drivers\peripheral\smif/cy_smif.h **** #define CY_SMIF_SIX_BYTES                  (6U)
 324:Generated_Source\PSoC6\pdl\drivers\peripheral\smif/cy_smif.h **** #define CY_SMIF_SEVEN_BYTES                (7U)
 325:Generated_Source\PSoC6\pdl\drivers\peripheral\smif/cy_smif.h **** #define CY_SMIF_EIGHT_BYTES                (8U)
 326:Generated_Source\PSoC6\pdl\drivers\peripheral\smif/cy_smif.h **** 
 327:Generated_Source\PSoC6\pdl\drivers\peripheral\smif/cy_smif.h **** #define CY_SMIF_CRYPTO_FIRST_WORD          (0U)
 328:Generated_Source\PSoC6\pdl\drivers\peripheral\smif/cy_smif.h **** #define CY_SMIF_CRYPTO_SECOND_WORD         (4U)
 329:Generated_Source\PSoC6\pdl\drivers\peripheral\smif/cy_smif.h **** #define CY_SMIF_CRYPTO_THIRD_WORD          (8U)
 330:Generated_Source\PSoC6\pdl\drivers\peripheral\smif/cy_smif.h **** #define CY_SMIF_CRYPTO_FOURTH_WORD         (12U)
 331:Generated_Source\PSoC6\pdl\drivers\peripheral\smif/cy_smif.h **** 
 332:Generated_Source\PSoC6\pdl\drivers\peripheral\smif/cy_smif.h **** #define CY_SMIF_CRYPTO_START               (1UL)
 333:Generated_Source\PSoC6\pdl\drivers\peripheral\smif/cy_smif.h **** #define CY_SMIF_CRYPTO_COMPLETED           (0UL)
 334:Generated_Source\PSoC6\pdl\drivers\peripheral\smif/cy_smif.h **** #define CY_SMIF_CRYPTO_ADDR_MASK           (0xFFFFFFF0UL)
 335:Generated_Source\PSoC6\pdl\drivers\peripheral\smif/cy_smif.h **** #define CY_SMIF_AES128_BYTES               (16U)
 336:Generated_Source\PSoC6\pdl\drivers\peripheral\smif/cy_smif.h **** 
 337:Generated_Source\PSoC6\pdl\drivers\peripheral\smif/cy_smif.h **** #define CY_SMIF_CTL_REG_DEFAULT  (0x00000300U) /* 3 - [13:12] CLOCK_IF_RX_SEL  */
 338:Generated_Source\PSoC6\pdl\drivers\peripheral\smif/cy_smif.h **** 
 339:Generated_Source\PSoC6\pdl\drivers\peripheral\smif/cy_smif.h **** #define CY_SMIF_SFDP_FAIL           (0x08U)
 340:Generated_Source\PSoC6\pdl\drivers\peripheral\smif/cy_smif.h **** #define CY_SMIF_SFDP_FAIL_SS0_POS   (0x00U)
 341:Generated_Source\PSoC6\pdl\drivers\peripheral\smif/cy_smif.h **** #define CY_SMIF_SFDP_FAIL_SS1_POS   (0x01U)
 342:Generated_Source\PSoC6\pdl\drivers\peripheral\smif/cy_smif.h **** #define CY_SMIF_SFDP_FAIL_SS2_POS   (0x02U)
 343:Generated_Source\PSoC6\pdl\drivers\peripheral\smif/cy_smif.h **** #define CY_SMIF_SFDP_FAIL_SS3_POS   (0x03U)
 344:Generated_Source\PSoC6\pdl\drivers\peripheral\smif/cy_smif.h **** 
 345:Generated_Source\PSoC6\pdl\drivers\peripheral\smif/cy_smif.h **** #define CY_SMIF_MAX_DESELECT_DELAY      (7U)
 346:Generated_Source\PSoC6\pdl\drivers\peripheral\smif/cy_smif.h **** #define CY_SMIF_MAX_TX_TR_LEVEL         (8U)
 347:Generated_Source\PSoC6\pdl\drivers\peripheral\smif/cy_smif.h **** #define CY_SMIF_MAX_RX_TR_LEVEL         (8U)
 348:Generated_Source\PSoC6\pdl\drivers\peripheral\smif/cy_smif.h **** 
 349:Generated_Source\PSoC6\pdl\drivers\peripheral\smif/cy_smif.h **** #define CY_SMIF_MODE_VALID(mode)    ((CY_SMIF_NORMAL == (cy_en_smif_mode_t)(mode)) || \
 350:Generated_Source\PSoC6\pdl\drivers\peripheral\smif/cy_smif.h ****                                      (CY_SMIF_MEMORY == (cy_en_smif_mode_t)(mode)))
 351:Generated_Source\PSoC6\pdl\drivers\peripheral\smif/cy_smif.h **** #define CY_SMIF_BLOCK_EVENT_VALID(event)    ((CY_SMIF_BUS_ERROR == (cy_en_smif_error_event_t)(event
 352:Generated_Source\PSoC6\pdl\drivers\peripheral\smif/cy_smif.h ****                                              (CY_SMIF_WAIT_STATES == (cy_en_smif_error_event_t)(eve
 353:Generated_Source\PSoC6\pdl\drivers\peripheral\smif/cy_smif.h **** #define CY_SMIF_CLOCK_SEL_VALID(clkSel)     ((CY_SMIF_SEL_INTERNAL_CLK == (cy_en_smif_clk_select_t)
 354:Generated_Source\PSoC6\pdl\drivers\peripheral\smif/cy_smif.h ****                                              (CY_SMIF_SEL_INV_INTERNAL_CLK == (cy_en_smif_clk_selec
 355:Generated_Source\PSoC6\pdl\drivers\peripheral\smif/cy_smif.h ****                                              (CY_SMIF_SEL_FEEDBACK_CLK == (cy_en_smif_clk_select_t)
 356:Generated_Source\PSoC6\pdl\drivers\peripheral\smif/cy_smif.h ****                                              (CY_SMIF_SEL_INV_FEEDBACK_CLK == (cy_en_smif_clk_selec
 357:Generated_Source\PSoC6\pdl\drivers\peripheral\smif/cy_smif.h ****                                              
 358:Generated_Source\PSoC6\pdl\drivers\peripheral\smif/cy_smif.h **** #define CY_SMIF_DESELECT_DELAY_VALID(delay)     ((delay) <= CY_SMIF_MAX_DESELECT_DELAY)
 359:Generated_Source\PSoC6\pdl\drivers\peripheral\smif/cy_smif.h **** #define CY_SMIF_SLAVE_SEL_VALID(ss)     ((CY_SMIF_SLAVE_SELECT_0 == (ss)) || \
 360:Generated_Source\PSoC6\pdl\drivers\peripheral\smif/cy_smif.h ****                                          (CY_SMIF_SLAVE_SELECT_1 == (ss)) || \
 361:Generated_Source\PSoC6\pdl\drivers\peripheral\smif/cy_smif.h ****                                          (CY_SMIF_SLAVE_SELECT_2 == (ss)) || \
 362:Generated_Source\PSoC6\pdl\drivers\peripheral\smif/cy_smif.h ****                                          (CY_SMIF_SLAVE_SELECT_3 == (ss)))
 363:Generated_Source\PSoC6\pdl\drivers\peripheral\smif/cy_smif.h **** #define CY_SMIF_DATA_SEL_VALID(ss)     ((CY_SMIF_DATA_SEL0 == (ss)) || \
 364:Generated_Source\PSoC6\pdl\drivers\peripheral\smif/cy_smif.h ****                                          (CY_SMIF_DATA_SEL1 == (ss)) || \
 365:Generated_Source\PSoC6\pdl\drivers\peripheral\smif/cy_smif.h ****                                          (CY_SMIF_DATA_SEL2 == (ss)) || \
 366:Generated_Source\PSoC6\pdl\drivers\peripheral\smif/cy_smif.h ****                                          (CY_SMIF_DATA_SEL3 == (ss)))
 367:Generated_Source\PSoC6\pdl\drivers\peripheral\smif/cy_smif.h **** #define CY_SMIF_TXFR_WIDTH_VALID(width)     ((CY_SMIF_WIDTH_SINGLE == (width)) || \
 368:Generated_Source\PSoC6\pdl\drivers\peripheral\smif/cy_smif.h ****                                             (CY_SMIF_WIDTH_DUAL == (width)) || \
 369:Generated_Source\PSoC6\pdl\drivers\peripheral\smif/cy_smif.h ****                                             (CY_SMIF_WIDTH_QUAD == (width)) || \
 370:Generated_Source\PSoC6\pdl\drivers\peripheral\smif/cy_smif.h ****                                             (CY_SMIF_WIDTH_OCTAL == (width)))
 371:Generated_Source\PSoC6\pdl\drivers\peripheral\smif/cy_smif.h **** #define CY_SMIF_CMD_PARAM_VALID(param, paramSize)     (((paramSize) > 0U)? (NULL != (param)) : (tru
 372:Generated_Source\PSoC6\pdl\drivers\peripheral\smif/cy_smif.h **** 
ARM GAS  C:\Users\ikomb\AppData\Local\Temp\ccEKz2Td.s 			page 8


 373:Generated_Source\PSoC6\pdl\drivers\peripheral\smif/cy_smif.h **** /***************************************
 374:Generated_Source\PSoC6\pdl\drivers\peripheral\smif/cy_smif.h **** *        Command FIFO Register
 375:Generated_Source\PSoC6\pdl\drivers\peripheral\smif/cy_smif.h **** ***************************************/
 376:Generated_Source\PSoC6\pdl\drivers\peripheral\smif/cy_smif.h **** 
 377:Generated_Source\PSoC6\pdl\drivers\peripheral\smif/cy_smif.h **** /* SMIF->TX_CMD_FIFO_WR  */
 378:Generated_Source\PSoC6\pdl\drivers\peripheral\smif/cy_smif.h **** #define CY_SMIF_TX_CMD_FIFO_WR_MODE_POS         (18U)   /* [19:18]  Command data mode */
 379:Generated_Source\PSoC6\pdl\drivers\peripheral\smif/cy_smif.h **** #define CY_SMIF_TX_CMD_FIFO_WR_WIDTH_POS        (16U)   /* [17:16]  Transfer width    */
 380:Generated_Source\PSoC6\pdl\drivers\peripheral\smif/cy_smif.h **** #define CY_SMIF_TX_CMD_FIFO_WR_LAST_BYTE_POS    (15U)   /* [15]     Last byte      */
 381:Generated_Source\PSoC6\pdl\drivers\peripheral\smif/cy_smif.h **** #define CY_SMIF_TX_CMD_FIFO_WR_SS_POS           (8U)    /* [11:8]   Slave select      */
 382:Generated_Source\PSoC6\pdl\drivers\peripheral\smif/cy_smif.h **** #define CY_SMIF_TX_CMD_FIFO_WR_TXDATA_POS       (0U)    /* [0]      Transmitted byte  */
 383:Generated_Source\PSoC6\pdl\drivers\peripheral\smif/cy_smif.h **** #define CY_SMIF_TX_CMD_FIFO_WR_DUMMY_POS        (0U)    /* [0]      Dummy count       */
 384:Generated_Source\PSoC6\pdl\drivers\peripheral\smif/cy_smif.h **** #define CY_SMIF_TX_CMD_FIFO_WR_TX_COUNT_POS     (0U)    /* [0]      TX count          */
 385:Generated_Source\PSoC6\pdl\drivers\peripheral\smif/cy_smif.h **** #define CY_SMIF_TX_CMD_FIFO_WR_RX_COUNT_POS     (0U)    /* [0]      RX count          */
 386:Generated_Source\PSoC6\pdl\drivers\peripheral\smif/cy_smif.h **** 
 387:Generated_Source\PSoC6\pdl\drivers\peripheral\smif/cy_smif.h **** /* SMIF->TX_CMD_FIFO_WR Commands Fields */
 388:Generated_Source\PSoC6\pdl\drivers\peripheral\smif/cy_smif.h **** #define CY_SMIF_CMD_FIFO_WR_MODE_Pos            (18UL)           /* [19:18]         Command data mo
 389:Generated_Source\PSoC6\pdl\drivers\peripheral\smif/cy_smif.h **** #define CY_SMIF_CMD_FIFO_WR_MODE_Msk            (0x000C0000UL)   /* DATA[19:18]       Command data 
 390:Generated_Source\PSoC6\pdl\drivers\peripheral\smif/cy_smif.h **** 
 391:Generated_Source\PSoC6\pdl\drivers\peripheral\smif/cy_smif.h **** #define CY_SMIF_CMD_FIFO_WR_WIDTH_Pos           (16UL)           /* [17:16]         Transfer width 
 392:Generated_Source\PSoC6\pdl\drivers\peripheral\smif/cy_smif.h **** #define CY_SMIF_CMD_FIFO_WR_WIDTH_Msk           (0x00030000UL)   /* DATA[17:16]     Transfer width 
 393:Generated_Source\PSoC6\pdl\drivers\peripheral\smif/cy_smif.h **** 
 394:Generated_Source\PSoC6\pdl\drivers\peripheral\smif/cy_smif.h **** #define CY_SMIF_CMD_FIFO_WR_LAST_BYTE_Pos       (15UL)           /* [15]            Last byte      
 395:Generated_Source\PSoC6\pdl\drivers\peripheral\smif/cy_smif.h **** #define CY_SMIF_CMD_FIFO_WR_LAST_BYTE_Msk       (0x00008000UL)   /* DATA[15]        Last byte      
 396:Generated_Source\PSoC6\pdl\drivers\peripheral\smif/cy_smif.h **** 
 397:Generated_Source\PSoC6\pdl\drivers\peripheral\smif/cy_smif.h **** #define CY_SMIF_CMD_FIFO_WR_SS_Pos              (8UL)            /* [11:8]          Slave select   
 398:Generated_Source\PSoC6\pdl\drivers\peripheral\smif/cy_smif.h **** #define CY_SMIF_CMD_FIFO_WR_SS_Msk              (0x00000F00UL)   /* DATA[11:8]      Slave select   
 399:Generated_Source\PSoC6\pdl\drivers\peripheral\smif/cy_smif.h ****    
 400:Generated_Source\PSoC6\pdl\drivers\peripheral\smif/cy_smif.h **** #define CY_SMIF_CMD_FIFO_WR_TXDATA_Pos          (0UL)            /* [0]             Transmitted byt
 401:Generated_Source\PSoC6\pdl\drivers\peripheral\smif/cy_smif.h **** #define CY_SMIF_CMD_FIFO_WR_TXDATA_Msk          (0x000000FFUL)   /* DATA[7:0]         Transmitted b
 402:Generated_Source\PSoC6\pdl\drivers\peripheral\smif/cy_smif.h **** #define CY_SMIF_CMD_FIFO_WR_DUMMY_Pos           (0UL)            /* [0]             Dummy count    
 403:Generated_Source\PSoC6\pdl\drivers\peripheral\smif/cy_smif.h **** #define CY_SMIF_CMD_FIFO_WR_DUMMY_Msk           (0x0000FFFFUL)   /* DATA[15:0]      Dummy count    
 404:Generated_Source\PSoC6\pdl\drivers\peripheral\smif/cy_smif.h **** #define CY_SMIF_CMD_FIFO_WR_TX_COUNT_Msk        (0x0000FFFFUL)   /* DATA[15:0]      TX count       
 405:Generated_Source\PSoC6\pdl\drivers\peripheral\smif/cy_smif.h **** #define CY_SMIF_CMD_FIFO_WR_TX_COUNT_Pos        (0UL)            /* [0]             TX count       
 406:Generated_Source\PSoC6\pdl\drivers\peripheral\smif/cy_smif.h **** #define CY_SMIF_CMD_FIFO_WR_RX_COUNT_Msk        (0x0003FFFFUL)   /* DATA[17:0]      RX count       
 407:Generated_Source\PSoC6\pdl\drivers\peripheral\smif/cy_smif.h **** #define CY_SMIF_CMD_FIFO_WR_RX_COUNT_Pos        (0UL)            /* [0]             RX count       
 408:Generated_Source\PSoC6\pdl\drivers\peripheral\smif/cy_smif.h **** 
 409:Generated_Source\PSoC6\pdl\drivers\peripheral\smif/cy_smif.h **** /** \endcond*/
 410:Generated_Source\PSoC6\pdl\drivers\peripheral\smif/cy_smif.h **** /** \} group_smif_macros */
 411:Generated_Source\PSoC6\pdl\drivers\peripheral\smif/cy_smif.h **** 
 412:Generated_Source\PSoC6\pdl\drivers\peripheral\smif/cy_smif.h **** 
 413:Generated_Source\PSoC6\pdl\drivers\peripheral\smif/cy_smif.h **** /**
 414:Generated_Source\PSoC6\pdl\drivers\peripheral\smif/cy_smif.h **** * \addtogroup group_smif_enums
 415:Generated_Source\PSoC6\pdl\drivers\peripheral\smif/cy_smif.h **** * \{
 416:Generated_Source\PSoC6\pdl\drivers\peripheral\smif/cy_smif.h **** */
 417:Generated_Source\PSoC6\pdl\drivers\peripheral\smif/cy_smif.h **** 
 418:Generated_Source\PSoC6\pdl\drivers\peripheral\smif/cy_smif.h **** /** The Transfer width options for the command, data, the address and the mode. */
 419:Generated_Source\PSoC6\pdl\drivers\peripheral\smif/cy_smif.h **** typedef enum
 420:Generated_Source\PSoC6\pdl\drivers\peripheral\smif/cy_smif.h **** {
 421:Generated_Source\PSoC6\pdl\drivers\peripheral\smif/cy_smif.h ****     CY_SMIF_WIDTH_SINGLE   = 0U,    /**< Normal SPI mode. */
 422:Generated_Source\PSoC6\pdl\drivers\peripheral\smif/cy_smif.h ****     CY_SMIF_WIDTH_DUAL     = 1U,    /**< Dual SPI mode. */
 423:Generated_Source\PSoC6\pdl\drivers\peripheral\smif/cy_smif.h ****     CY_SMIF_WIDTH_QUAD     = 2U,    /**< Quad SPI mode. */
 424:Generated_Source\PSoC6\pdl\drivers\peripheral\smif/cy_smif.h ****     CY_SMIF_WIDTH_OCTAL    = 3U     /**< Octal SPI mode. */
 425:Generated_Source\PSoC6\pdl\drivers\peripheral\smif/cy_smif.h **** } cy_en_smif_txfr_width_t;
 426:Generated_Source\PSoC6\pdl\drivers\peripheral\smif/cy_smif.h **** 
 427:Generated_Source\PSoC6\pdl\drivers\peripheral\smif/cy_smif.h **** /** The SMIF error-event selection. */
 428:Generated_Source\PSoC6\pdl\drivers\peripheral\smif/cy_smif.h **** typedef enum
 429:Generated_Source\PSoC6\pdl\drivers\peripheral\smif/cy_smif.h **** {
ARM GAS  C:\Users\ikomb\AppData\Local\Temp\ccEKz2Td.s 			page 9


 430:Generated_Source\PSoC6\pdl\drivers\peripheral\smif/cy_smif.h ****     /**< Generates a bus error. */
 431:Generated_Source\PSoC6\pdl\drivers\peripheral\smif/cy_smif.h ****     CY_SMIF_BUS_ERROR           = 0UL,
 432:Generated_Source\PSoC6\pdl\drivers\peripheral\smif/cy_smif.h ****     /** Stalls the bus with the wait states. This option will increase the 
 433:Generated_Source\PSoC6\pdl\drivers\peripheral\smif/cy_smif.h ****      * interrupt latency. 
 434:Generated_Source\PSoC6\pdl\drivers\peripheral\smif/cy_smif.h ****      */
 435:Generated_Source\PSoC6\pdl\drivers\peripheral\smif/cy_smif.h ****     CY_SMIF_WAIT_STATES         = 1UL
 436:Generated_Source\PSoC6\pdl\drivers\peripheral\smif/cy_smif.h **** } cy_en_smif_error_event_t;
 437:Generated_Source\PSoC6\pdl\drivers\peripheral\smif/cy_smif.h **** 
 438:Generated_Source\PSoC6\pdl\drivers\peripheral\smif/cy_smif.h **** /** The data line-selection options for a slave device. */
 439:Generated_Source\PSoC6\pdl\drivers\peripheral\smif/cy_smif.h **** typedef enum
 440:Generated_Source\PSoC6\pdl\drivers\peripheral\smif/cy_smif.h **** {
 441:Generated_Source\PSoC6\pdl\drivers\peripheral\smif/cy_smif.h ****     /**
 442:Generated_Source\PSoC6\pdl\drivers\peripheral\smif/cy_smif.h ****     * smif.spi_data[0] = DATA0, smif.spi_data[1] = DATA1, ..., smif.spi_data[7] = DATA7.
 443:Generated_Source\PSoC6\pdl\drivers\peripheral\smif/cy_smif.h ****     * This value is allowed for the SPI, DSPI, quad-SPI, dual quad-SPI, and octal-SPI modes.
 444:Generated_Source\PSoC6\pdl\drivers\peripheral\smif/cy_smif.h ****     */
 445:Generated_Source\PSoC6\pdl\drivers\peripheral\smif/cy_smif.h ****     CY_SMIF_DATA_SEL0      = 0,
 446:Generated_Source\PSoC6\pdl\drivers\peripheral\smif/cy_smif.h ****     /**
 447:Generated_Source\PSoC6\pdl\drivers\peripheral\smif/cy_smif.h ****     * smif.spi_data[2] = DATA0, smif.spi_data[3] = DATA1.
 448:Generated_Source\PSoC6\pdl\drivers\peripheral\smif/cy_smif.h ****     * This value is only allowed for the SPI and DSPI modes.
 449:Generated_Source\PSoC6\pdl\drivers\peripheral\smif/cy_smif.h ****     */
 450:Generated_Source\PSoC6\pdl\drivers\peripheral\smif/cy_smif.h ****     CY_SMIF_DATA_SEL1      = 1,
 451:Generated_Source\PSoC6\pdl\drivers\peripheral\smif/cy_smif.h ****     /**
 452:Generated_Source\PSoC6\pdl\drivers\peripheral\smif/cy_smif.h ****     * smif.spi_data[4] = DATA0, smif.spi_data[5] = DATA1, ..., smif.spi_data[7] = DATA3.
 453:Generated_Source\PSoC6\pdl\drivers\peripheral\smif/cy_smif.h ****     * This value is only allowed for the SPI, DSPI, quad-SPI and dual quad-SPI modes.
 454:Generated_Source\PSoC6\pdl\drivers\peripheral\smif/cy_smif.h ****     */
 455:Generated_Source\PSoC6\pdl\drivers\peripheral\smif/cy_smif.h ****     CY_SMIF_DATA_SEL2      = 2,
 456:Generated_Source\PSoC6\pdl\drivers\peripheral\smif/cy_smif.h ****     /**
 457:Generated_Source\PSoC6\pdl\drivers\peripheral\smif/cy_smif.h ****     * smif.spi_data[6] = DATA0, smif.spi_data[7] = DATA1.
 458:Generated_Source\PSoC6\pdl\drivers\peripheral\smif/cy_smif.h ****     * This value is only allowed for the SPI and DSPI modes.
 459:Generated_Source\PSoC6\pdl\drivers\peripheral\smif/cy_smif.h ****     */
 460:Generated_Source\PSoC6\pdl\drivers\peripheral\smif/cy_smif.h ****     CY_SMIF_DATA_SEL3      = 3
 461:Generated_Source\PSoC6\pdl\drivers\peripheral\smif/cy_smif.h **** } cy_en_smif_data_select_t;
 462:Generated_Source\PSoC6\pdl\drivers\peripheral\smif/cy_smif.h **** 
 463:Generated_Source\PSoC6\pdl\drivers\peripheral\smif/cy_smif.h **** /** The SMIF modes to work with an external memory. */
 464:Generated_Source\PSoC6\pdl\drivers\peripheral\smif/cy_smif.h **** typedef enum
 465:Generated_Source\PSoC6\pdl\drivers\peripheral\smif/cy_smif.h **** {
 466:Generated_Source\PSoC6\pdl\drivers\peripheral\smif/cy_smif.h ****     CY_SMIF_NORMAL,         /**< Command mode (MMIO mode). */
 467:Generated_Source\PSoC6\pdl\drivers\peripheral\smif/cy_smif.h ****     CY_SMIF_MEMORY          /**< XIP (eXecute In Place) mode. */
 468:Generated_Source\PSoC6\pdl\drivers\peripheral\smif/cy_smif.h **** } cy_en_smif_mode_t;
 469:Generated_Source\PSoC6\pdl\drivers\peripheral\smif/cy_smif.h **** 
 470:Generated_Source\PSoC6\pdl\drivers\peripheral\smif/cy_smif.h **** /** The SMIF transfer status return values. */
 471:Generated_Source\PSoC6\pdl\drivers\peripheral\smif/cy_smif.h **** typedef enum
 472:Generated_Source\PSoC6\pdl\drivers\peripheral\smif/cy_smif.h **** {
 473:Generated_Source\PSoC6\pdl\drivers\peripheral\smif/cy_smif.h ****     CY_SMIF_STARTED,       /**< The SMIF started. */
 474:Generated_Source\PSoC6\pdl\drivers\peripheral\smif/cy_smif.h ****     CY_SMIF_SEND_CMPLT,    /**< The data transmission is complete. */
 475:Generated_Source\PSoC6\pdl\drivers\peripheral\smif/cy_smif.h ****     CY_SMIF_SEND_BUSY,     /**< The data transmission is in progress. */
 476:Generated_Source\PSoC6\pdl\drivers\peripheral\smif/cy_smif.h ****     CY_SMIF_REC_CMPLT,     /**< The data reception is completed. */
 477:Generated_Source\PSoC6\pdl\drivers\peripheral\smif/cy_smif.h ****     CY_SMIF_REC_BUSY,      /**< The data reception is in progress. */
 478:Generated_Source\PSoC6\pdl\drivers\peripheral\smif/cy_smif.h ****     CY_SMIF_XIP_ERROR,     /**< An XIP alignment error. */
 479:Generated_Source\PSoC6\pdl\drivers\peripheral\smif/cy_smif.h ****     CY_SMIF_CMD_ERROR,     /**< A TX CMD FIFO overflow. */
 480:Generated_Source\PSoC6\pdl\drivers\peripheral\smif/cy_smif.h ****     CY_SMIF_TX_ERROR,      /**< A TX DATA FIFO overflow. */
 481:Generated_Source\PSoC6\pdl\drivers\peripheral\smif/cy_smif.h ****     CY_SMIF_RX_ERROR       /**< An RX DATA FIFO underflow. */
 482:Generated_Source\PSoC6\pdl\drivers\peripheral\smif/cy_smif.h **** 
 483:Generated_Source\PSoC6\pdl\drivers\peripheral\smif/cy_smif.h **** } cy_en_smif_txfr_status_t;
 484:Generated_Source\PSoC6\pdl\drivers\peripheral\smif/cy_smif.h **** 
 485:Generated_Source\PSoC6\pdl\drivers\peripheral\smif/cy_smif.h **** /** The SMIF API return values. */
 486:Generated_Source\PSoC6\pdl\drivers\peripheral\smif/cy_smif.h **** typedef enum
ARM GAS  C:\Users\ikomb\AppData\Local\Temp\ccEKz2Td.s 			page 10


 487:Generated_Source\PSoC6\pdl\drivers\peripheral\smif/cy_smif.h **** {
 488:Generated_Source\PSoC6\pdl\drivers\peripheral\smif/cy_smif.h ****     CY_SMIF_SUCCESS = 0x00U,           /**< Successful SMIF operation. */
 489:Generated_Source\PSoC6\pdl\drivers\peripheral\smif/cy_smif.h ****     CY_SMIF_CMD_FIFO_FULL   = CY_SMIF_ID |CY_PDL_STATUS_ERROR | 0x01U,     /**< The command is canc
 490:Generated_Source\PSoC6\pdl\drivers\peripheral\smif/cy_smif.h ****     CY_SMIF_EXCEED_TIMEOUT  = CY_SMIF_ID |CY_PDL_STATUS_ERROR | 0x02U,    /**< The SMIF operation t
 491:Generated_Source\PSoC6\pdl\drivers\peripheral\smif/cy_smif.h ****     /**
 492:Generated_Source\PSoC6\pdl\drivers\peripheral\smif/cy_smif.h ****     * The device does not have a QE bit. The device detects
 493:Generated_Source\PSoC6\pdl\drivers\peripheral\smif/cy_smif.h ****     * 1-1-4 and 1-4-4 Reads based on the instruction.
 494:Generated_Source\PSoC6\pdl\drivers\peripheral\smif/cy_smif.h ****     */
 495:Generated_Source\PSoC6\pdl\drivers\peripheral\smif/cy_smif.h ****     CY_SMIF_NO_QE_BIT       = CY_SMIF_ID |CY_PDL_STATUS_ERROR | 0x03U,
 496:Generated_Source\PSoC6\pdl\drivers\peripheral\smif/cy_smif.h ****     CY_SMIF_BAD_PARAM       = CY_SMIF_ID |CY_PDL_STATUS_ERROR | 0x04U,   /**< The SMIF API received
 497:Generated_Source\PSoC6\pdl\drivers\peripheral\smif/cy_smif.h ****     CY_SMIF_NO_SFDP_SUPPORT = CY_SMIF_ID |CY_PDL_STATUS_ERROR | 0x05U,   /**< The external memory d
 498:Generated_Source\PSoC6\pdl\drivers\peripheral\smif/cy_smif.h ****     /** Failed to initialize the slave select 0 external memory by auto detection (SFDP). */
 499:Generated_Source\PSoC6\pdl\drivers\peripheral\smif/cy_smif.h ****     CY_SMIF_SFDP_SS0_FAILED = CY_SMIF_ID |CY_PDL_STATUS_ERROR |
 500:Generated_Source\PSoC6\pdl\drivers\peripheral\smif/cy_smif.h ****                             ((uint32_t)CY_SMIF_SFDP_FAIL << CY_SMIF_SFDP_FAIL_SS0_POS),
 501:Generated_Source\PSoC6\pdl\drivers\peripheral\smif/cy_smif.h ****     /** Failed to initialize the slave select 1 external memory by auto detection (SFDP). */
 502:Generated_Source\PSoC6\pdl\drivers\peripheral\smif/cy_smif.h ****     CY_SMIF_SFDP_SS1_FAILED = CY_SMIF_ID | CY_PDL_STATUS_ERROR |
 503:Generated_Source\PSoC6\pdl\drivers\peripheral\smif/cy_smif.h ****                             ((uint32_t)CY_SMIF_SFDP_FAIL << CY_SMIF_SFDP_FAIL_SS1_POS),
 504:Generated_Source\PSoC6\pdl\drivers\peripheral\smif/cy_smif.h ****     /** Failed to initialize the slave select 2 external memory by auto detection (SFDP). */
 505:Generated_Source\PSoC6\pdl\drivers\peripheral\smif/cy_smif.h ****     CY_SMIF_SFDP_SS2_FAILED = CY_SMIF_ID |CY_PDL_STATUS_ERROR |
 506:Generated_Source\PSoC6\pdl\drivers\peripheral\smif/cy_smif.h ****                             ((uint32_t)CY_SMIF_SFDP_FAIL << CY_SMIF_SFDP_FAIL_SS2_POS),
 507:Generated_Source\PSoC6\pdl\drivers\peripheral\smif/cy_smif.h ****     /** Failed to initialize the slave select 3 external memory by auto detection (SFDP). */
 508:Generated_Source\PSoC6\pdl\drivers\peripheral\smif/cy_smif.h ****     CY_SMIF_SFDP_SS3_FAILED = CY_SMIF_ID |CY_PDL_STATUS_ERROR |
 509:Generated_Source\PSoC6\pdl\drivers\peripheral\smif/cy_smif.h ****                             ((uint32_t)CY_SMIF_SFDP_FAIL << CY_SMIF_SFDP_FAIL_SS3_POS)
 510:Generated_Source\PSoC6\pdl\drivers\peripheral\smif/cy_smif.h **** 
 511:Generated_Source\PSoC6\pdl\drivers\peripheral\smif/cy_smif.h **** } cy_en_smif_status_t;
 512:Generated_Source\PSoC6\pdl\drivers\peripheral\smif/cy_smif.h **** 
 513:Generated_Source\PSoC6\pdl\drivers\peripheral\smif/cy_smif.h **** /** The SMIF slave select definitions for the driver API. Each slave select is
 514:Generated_Source\PSoC6\pdl\drivers\peripheral\smif/cy_smif.h ****  * represented by an enumeration that has the bit corresponding to the slave 
 515:Generated_Source\PSoC6\pdl\drivers\peripheral\smif/cy_smif.h ****  * select number set. */
 516:Generated_Source\PSoC6\pdl\drivers\peripheral\smif/cy_smif.h **** typedef enum
 517:Generated_Source\PSoC6\pdl\drivers\peripheral\smif/cy_smif.h **** {
 518:Generated_Source\PSoC6\pdl\drivers\peripheral\smif/cy_smif.h ****    CY_SMIF_SLAVE_SELECT_0 = 1U,  /**< The SMIF slave select 0  */
 519:Generated_Source\PSoC6\pdl\drivers\peripheral\smif/cy_smif.h ****    CY_SMIF_SLAVE_SELECT_1 = 2U,  /**< The SMIF slave select 1  */
 520:Generated_Source\PSoC6\pdl\drivers\peripheral\smif/cy_smif.h ****    CY_SMIF_SLAVE_SELECT_2 = 4U,  /**< The SMIF slave select 2  */
 521:Generated_Source\PSoC6\pdl\drivers\peripheral\smif/cy_smif.h ****    CY_SMIF_SLAVE_SELECT_3 = 8U   /**< The SMIF slave select 3  */
 522:Generated_Source\PSoC6\pdl\drivers\peripheral\smif/cy_smif.h **** } cy_en_smif_slave_select_t;
 523:Generated_Source\PSoC6\pdl\drivers\peripheral\smif/cy_smif.h **** 
 524:Generated_Source\PSoC6\pdl\drivers\peripheral\smif/cy_smif.h **** /** Specifies the clock source for the receiver clock. */
 525:Generated_Source\PSoC6\pdl\drivers\peripheral\smif/cy_smif.h **** typedef enum
 526:Generated_Source\PSoC6\pdl\drivers\peripheral\smif/cy_smif.h **** {
 527:Generated_Source\PSoC6\pdl\drivers\peripheral\smif/cy_smif.h ****    CY_SMIF_SEL_INTERNAL_CLK     = 0U,  /**< The SMIF internal clock */
 528:Generated_Source\PSoC6\pdl\drivers\peripheral\smif/cy_smif.h ****    CY_SMIF_SEL_INV_INTERNAL_CLK = 1U,  /**< The SMIF internal inverted clock */
 529:Generated_Source\PSoC6\pdl\drivers\peripheral\smif/cy_smif.h ****    CY_SMIF_SEL_FEEDBACK_CLK     = 2U,  /**< The SMIF feedback clock */
 530:Generated_Source\PSoC6\pdl\drivers\peripheral\smif/cy_smif.h ****    CY_SMIF_SEL_INV_FEEDBACK_CLK = 3U   /**< The SMIF feedback inverted clock */
 531:Generated_Source\PSoC6\pdl\drivers\peripheral\smif/cy_smif.h **** } cy_en_smif_clk_select_t;
 532:Generated_Source\PSoC6\pdl\drivers\peripheral\smif/cy_smif.h **** 
 533:Generated_Source\PSoC6\pdl\drivers\peripheral\smif/cy_smif.h **** /** Specifies enabled type of SMIF cache. */
 534:Generated_Source\PSoC6\pdl\drivers\peripheral\smif/cy_smif.h **** typedef enum
 535:Generated_Source\PSoC6\pdl\drivers\peripheral\smif/cy_smif.h **** {
 536:Generated_Source\PSoC6\pdl\drivers\peripheral\smif/cy_smif.h ****     CY_SMIF_CACHE_SLOW      = 1U,   /**< The SMIF slow cache (in the clk_slow domain) see TRM for d
 537:Generated_Source\PSoC6\pdl\drivers\peripheral\smif/cy_smif.h ****     CY_SMIF_CACHE_FAST      = 2U,   /**< The SMIF fast cache  (in the clk_fast domain) see TRM for 
 538:Generated_Source\PSoC6\pdl\drivers\peripheral\smif/cy_smif.h ****     CY_SMIF_CACHE_BOTH      = 3U    /**< The SMIF both caches */
 539:Generated_Source\PSoC6\pdl\drivers\peripheral\smif/cy_smif.h **** } cy_en_smif_cache_en_t;
 540:Generated_Source\PSoC6\pdl\drivers\peripheral\smif/cy_smif.h **** 
 541:Generated_Source\PSoC6\pdl\drivers\peripheral\smif/cy_smif.h **** /** \} group_smif_enums */
 542:Generated_Source\PSoC6\pdl\drivers\peripheral\smif/cy_smif.h **** 
 543:Generated_Source\PSoC6\pdl\drivers\peripheral\smif/cy_smif.h **** 
ARM GAS  C:\Users\ikomb\AppData\Local\Temp\ccEKz2Td.s 			page 11


 544:Generated_Source\PSoC6\pdl\drivers\peripheral\smif/cy_smif.h **** /**
 545:Generated_Source\PSoC6\pdl\drivers\peripheral\smif/cy_smif.h **** * \addtogroup group_smif_data_structures
 546:Generated_Source\PSoC6\pdl\drivers\peripheral\smif/cy_smif.h **** * \{
 547:Generated_Source\PSoC6\pdl\drivers\peripheral\smif/cy_smif.h **** */
 548:Generated_Source\PSoC6\pdl\drivers\peripheral\smif/cy_smif.h **** 
 549:Generated_Source\PSoC6\pdl\drivers\peripheral\smif/cy_smif.h **** /***************************************************************************//**
 550:Generated_Source\PSoC6\pdl\drivers\peripheral\smif/cy_smif.h **** *
 551:Generated_Source\PSoC6\pdl\drivers\peripheral\smif/cy_smif.h **** * The SMIF user callback function type called at the end of a transfer.
 552:Generated_Source\PSoC6\pdl\drivers\peripheral\smif/cy_smif.h **** *
 553:Generated_Source\PSoC6\pdl\drivers\peripheral\smif/cy_smif.h **** * \param event
 554:Generated_Source\PSoC6\pdl\drivers\peripheral\smif/cy_smif.h **** * The event which caused a callback call.
 555:Generated_Source\PSoC6\pdl\drivers\peripheral\smif/cy_smif.h **** *
 556:Generated_Source\PSoC6\pdl\drivers\peripheral\smif/cy_smif.h **** *******************************************************************************/
 557:Generated_Source\PSoC6\pdl\drivers\peripheral\smif/cy_smif.h **** typedef void (*cy_smif_event_cb_t)(uint32_t event);
 558:Generated_Source\PSoC6\pdl\drivers\peripheral\smif/cy_smif.h **** 
 559:Generated_Source\PSoC6\pdl\drivers\peripheral\smif/cy_smif.h **** 
 560:Generated_Source\PSoC6\pdl\drivers\peripheral\smif/cy_smif.h **** /** The SMIF configuration structure. */
 561:Generated_Source\PSoC6\pdl\drivers\peripheral\smif/cy_smif.h **** typedef struct
 562:Generated_Source\PSoC6\pdl\drivers\peripheral\smif/cy_smif.h **** {
 563:Generated_Source\PSoC6\pdl\drivers\peripheral\smif/cy_smif.h ****     uint32_t mode;              /**<  Specifies the mode of operation \ref cy_en_smif_mode_t. */
 564:Generated_Source\PSoC6\pdl\drivers\peripheral\smif/cy_smif.h ****     uint32_t deselectDelay;     /**<  Specifies the minimum duration of SPI de-selection between SP
 565:Generated_Source\PSoC6\pdl\drivers\peripheral\smif/cy_smif.h ****                                 *   - "0": 1 clock cycle.
 566:Generated_Source\PSoC6\pdl\drivers\peripheral\smif/cy_smif.h ****                                 *   - "1": 2 clock cycles.
 567:Generated_Source\PSoC6\pdl\drivers\peripheral\smif/cy_smif.h ****                                 *   - "2": 3 clock cycles.
 568:Generated_Source\PSoC6\pdl\drivers\peripheral\smif/cy_smif.h ****                                 *   - "3": 4 clock cycles.
 569:Generated_Source\PSoC6\pdl\drivers\peripheral\smif/cy_smif.h ****                                 *   - "4": 5 clock cycles.
 570:Generated_Source\PSoC6\pdl\drivers\peripheral\smif/cy_smif.h ****                                 *   - "5": 6 clock cycles.
 571:Generated_Source\PSoC6\pdl\drivers\peripheral\smif/cy_smif.h ****                                 *   - "6": 7 clock cycles.
 572:Generated_Source\PSoC6\pdl\drivers\peripheral\smif/cy_smif.h ****                                 *   - "7": 8 clock cycles. */
 573:Generated_Source\PSoC6\pdl\drivers\peripheral\smif/cy_smif.h ****     uint32_t rxClockSel;        /**< Specifies the clock source for the receiver 
 574:Generated_Source\PSoC6\pdl\drivers\peripheral\smif/cy_smif.h ****                                 *  clock \ref cy_en_smif_clk_select_t. */
 575:Generated_Source\PSoC6\pdl\drivers\peripheral\smif/cy_smif.h ****     uint32_t blockEvent;        /**< Specifies what happens when there is a Read  
 576:Generated_Source\PSoC6\pdl\drivers\peripheral\smif/cy_smif.h ****                                 * from an empty RX FIFO or a Write to a full 
 577:Generated_Source\PSoC6\pdl\drivers\peripheral\smif/cy_smif.h ****                                 * TX FIFO. \ref cy_en_smif_error_event_t. */
 578:Generated_Source\PSoC6\pdl\drivers\peripheral\smif/cy_smif.h **** } cy_stc_smif_config_t;
 579:Generated_Source\PSoC6\pdl\drivers\peripheral\smif/cy_smif.h **** 
 580:Generated_Source\PSoC6\pdl\drivers\peripheral\smif/cy_smif.h **** /** The SMIF internal context data. The user must not modify it. */
 581:Generated_Source\PSoC6\pdl\drivers\peripheral\smif/cy_smif.h **** typedef struct
 582:Generated_Source\PSoC6\pdl\drivers\peripheral\smif/cy_smif.h **** {
 583:Generated_Source\PSoC6\pdl\drivers\peripheral\smif/cy_smif.h ****     uint8_t volatile * volatile txBufferAddress;    /**<  The pointer to the data to transfer */
 584:Generated_Source\PSoC6\pdl\drivers\peripheral\smif/cy_smif.h ****     uint32_t txBufferSize;                          /**<  The size of the data to transmit in bytes
 585:Generated_Source\PSoC6\pdl\drivers\peripheral\smif/cy_smif.h ****     /**
 586:Generated_Source\PSoC6\pdl\drivers\peripheral\smif/cy_smif.h ****     * The transfer counter. The number of the transmitted bytes = txBufferSize - txBufferCounter
 587:Generated_Source\PSoC6\pdl\drivers\peripheral\smif/cy_smif.h ****     */
 588:Generated_Source\PSoC6\pdl\drivers\peripheral\smif/cy_smif.h ****     uint32_t volatile txBufferCounter;
 589:Generated_Source\PSoC6\pdl\drivers\peripheral\smif/cy_smif.h ****     uint8_t volatile * volatile rxBufferAddress;    /**<  The pointer to the variable where the rec
 590:Generated_Source\PSoC6\pdl\drivers\peripheral\smif/cy_smif.h ****     uint32_t rxBufferSize;                          /**<  The size of the data to be received in by
 591:Generated_Source\PSoC6\pdl\drivers\peripheral\smif/cy_smif.h ****     /**
 592:Generated_Source\PSoC6\pdl\drivers\peripheral\smif/cy_smif.h ****     * The transfer counter. The number of the received bytes = rxBufferSize - rxBufferCounter
 593:Generated_Source\PSoC6\pdl\drivers\peripheral\smif/cy_smif.h ****     */
 594:Generated_Source\PSoC6\pdl\drivers\peripheral\smif/cy_smif.h ****     uint32_t volatile rxBufferCounter;
 595:Generated_Source\PSoC6\pdl\drivers\peripheral\smif/cy_smif.h ****     /**
 596:Generated_Source\PSoC6\pdl\drivers\peripheral\smif/cy_smif.h ****     * The status of the transfer. The transmitting / receiving is completed / in progress
 597:Generated_Source\PSoC6\pdl\drivers\peripheral\smif/cy_smif.h ****     */
 598:Generated_Source\PSoC6\pdl\drivers\peripheral\smif/cy_smif.h ****     uint32_t volatile transferStatus;
 599:Generated_Source\PSoC6\pdl\drivers\peripheral\smif/cy_smif.h ****     cy_smif_event_cb_t volatile txCmpltCb;          /**< The user-defined callback executed at the 
 600:Generated_Source\PSoC6\pdl\drivers\peripheral\smif/cy_smif.h ****     cy_smif_event_cb_t volatile rxCmpltCb;          /**< The user-defined callback executed at the 
ARM GAS  C:\Users\ikomb\AppData\Local\Temp\ccEKz2Td.s 			page 12


 601:Generated_Source\PSoC6\pdl\drivers\peripheral\smif/cy_smif.h ****     /**
 602:Generated_Source\PSoC6\pdl\drivers\peripheral\smif/cy_smif.h ****     * The timeout in microseconds for the blocking functions. This timeout value applies to all blo
 603:Generated_Source\PSoC6\pdl\drivers\peripheral\smif/cy_smif.h ****     */
 604:Generated_Source\PSoC6\pdl\drivers\peripheral\smif/cy_smif.h ****     uint32_t timeout;
 605:Generated_Source\PSoC6\pdl\drivers\peripheral\smif/cy_smif.h **** } cy_stc_smif_context_t;
 606:Generated_Source\PSoC6\pdl\drivers\peripheral\smif/cy_smif.h **** 
 607:Generated_Source\PSoC6\pdl\drivers\peripheral\smif/cy_smif.h **** /** \} group_smif_data_structures */
 608:Generated_Source\PSoC6\pdl\drivers\peripheral\smif/cy_smif.h **** 
 609:Generated_Source\PSoC6\pdl\drivers\peripheral\smif/cy_smif.h **** 
 610:Generated_Source\PSoC6\pdl\drivers\peripheral\smif/cy_smif.h **** /**
 611:Generated_Source\PSoC6\pdl\drivers\peripheral\smif/cy_smif.h **** * \addtogroup group_smif_low_level_functions
 612:Generated_Source\PSoC6\pdl\drivers\peripheral\smif/cy_smif.h **** * \{
 613:Generated_Source\PSoC6\pdl\drivers\peripheral\smif/cy_smif.h **** */
 614:Generated_Source\PSoC6\pdl\drivers\peripheral\smif/cy_smif.h **** 
 615:Generated_Source\PSoC6\pdl\drivers\peripheral\smif/cy_smif.h **** cy_en_smif_status_t Cy_SMIF_Init(SMIF_Type *base, cy_stc_smif_config_t const *config,
 616:Generated_Source\PSoC6\pdl\drivers\peripheral\smif/cy_smif.h ****                                 uint32_t timeout,
 617:Generated_Source\PSoC6\pdl\drivers\peripheral\smif/cy_smif.h ****                                 cy_stc_smif_context_t *context);
 618:Generated_Source\PSoC6\pdl\drivers\peripheral\smif/cy_smif.h **** void Cy_SMIF_DeInit(SMIF_Type *base);
 619:Generated_Source\PSoC6\pdl\drivers\peripheral\smif/cy_smif.h **** void Cy_SMIF_SetDataSelect(SMIF_Type *base, cy_en_smif_slave_select_t slaveSelect,
 620:Generated_Source\PSoC6\pdl\drivers\peripheral\smif/cy_smif.h ****                                 cy_en_smif_data_select_t dataSelect);
 621:Generated_Source\PSoC6\pdl\drivers\peripheral\smif/cy_smif.h **** void Cy_SMIF_SetMode(SMIF_Type *base, cy_en_smif_mode_t mode);
 622:Generated_Source\PSoC6\pdl\drivers\peripheral\smif/cy_smif.h **** cy_en_smif_mode_t Cy_SMIF_GetMode(SMIF_Type const *base);
 623:Generated_Source\PSoC6\pdl\drivers\peripheral\smif/cy_smif.h **** cy_en_smif_status_t Cy_SMIF_TransmitCommand(SMIF_Type *base,
 624:Generated_Source\PSoC6\pdl\drivers\peripheral\smif/cy_smif.h ****                                 uint8_t cmd,
 625:Generated_Source\PSoC6\pdl\drivers\peripheral\smif/cy_smif.h ****                                 cy_en_smif_txfr_width_t cmdTxfrWidth,
 626:Generated_Source\PSoC6\pdl\drivers\peripheral\smif/cy_smif.h ****                                 uint8_t const cmdParam[], uint32_t paramSize,
 627:Generated_Source\PSoC6\pdl\drivers\peripheral\smif/cy_smif.h ****                                 cy_en_smif_txfr_width_t paramTxfrWidth,
 628:Generated_Source\PSoC6\pdl\drivers\peripheral\smif/cy_smif.h ****                                 cy_en_smif_slave_select_t slaveSelect, uint32_t cmpltTxfr,
 629:Generated_Source\PSoC6\pdl\drivers\peripheral\smif/cy_smif.h ****                                 cy_stc_smif_context_t const *context);
 630:Generated_Source\PSoC6\pdl\drivers\peripheral\smif/cy_smif.h **** cy_en_smif_status_t Cy_SMIF_TransmitData(SMIF_Type *base,
 631:Generated_Source\PSoC6\pdl\drivers\peripheral\smif/cy_smif.h ****                                 uint8_t *txBuffer, uint32_t size,
 632:Generated_Source\PSoC6\pdl\drivers\peripheral\smif/cy_smif.h ****                                 cy_en_smif_txfr_width_t transferWidth,
 633:Generated_Source\PSoC6\pdl\drivers\peripheral\smif/cy_smif.h ****                                 cy_smif_event_cb_t TxCmpltCb,
 634:Generated_Source\PSoC6\pdl\drivers\peripheral\smif/cy_smif.h ****                                 cy_stc_smif_context_t *context);
 635:Generated_Source\PSoC6\pdl\drivers\peripheral\smif/cy_smif.h **** cy_en_smif_status_t  Cy_SMIF_TransmitDataBlocking(SMIF_Type *base,
 636:Generated_Source\PSoC6\pdl\drivers\peripheral\smif/cy_smif.h ****                                 uint8_t *txBuffer,
 637:Generated_Source\PSoC6\pdl\drivers\peripheral\smif/cy_smif.h ****                                 uint32_t size,
 638:Generated_Source\PSoC6\pdl\drivers\peripheral\smif/cy_smif.h ****                                 cy_en_smif_txfr_width_t transferWidth,
 639:Generated_Source\PSoC6\pdl\drivers\peripheral\smif/cy_smif.h ****                                 cy_stc_smif_context_t const *context);
 640:Generated_Source\PSoC6\pdl\drivers\peripheral\smif/cy_smif.h **** cy_en_smif_status_t Cy_SMIF_ReceiveData(SMIF_Type *base,
 641:Generated_Source\PSoC6\pdl\drivers\peripheral\smif/cy_smif.h ****                                 uint8_t *rxBuffer, uint32_t size,
 642:Generated_Source\PSoC6\pdl\drivers\peripheral\smif/cy_smif.h ****                                 cy_en_smif_txfr_width_t transferWidth,
 643:Generated_Source\PSoC6\pdl\drivers\peripheral\smif/cy_smif.h ****                                 cy_smif_event_cb_t RxCmpltCb,
 644:Generated_Source\PSoC6\pdl\drivers\peripheral\smif/cy_smif.h ****                                 cy_stc_smif_context_t *context);
 645:Generated_Source\PSoC6\pdl\drivers\peripheral\smif/cy_smif.h **** cy_en_smif_status_t  Cy_SMIF_ReceiveDataBlocking(SMIF_Type *base,
 646:Generated_Source\PSoC6\pdl\drivers\peripheral\smif/cy_smif.h ****                                 uint8_t *rxBuffer,
 647:Generated_Source\PSoC6\pdl\drivers\peripheral\smif/cy_smif.h ****                                 uint32_t size,
 648:Generated_Source\PSoC6\pdl\drivers\peripheral\smif/cy_smif.h ****                                 cy_en_smif_txfr_width_t transferWidth,
 649:Generated_Source\PSoC6\pdl\drivers\peripheral\smif/cy_smif.h ****                                 cy_stc_smif_context_t const *context);
 650:Generated_Source\PSoC6\pdl\drivers\peripheral\smif/cy_smif.h **** cy_en_smif_status_t Cy_SMIF_SendDummyCycles(SMIF_Type *base, uint32_t cycles);
 651:Generated_Source\PSoC6\pdl\drivers\peripheral\smif/cy_smif.h **** uint32_t Cy_SMIF_GetTxfrStatus(SMIF_Type *base, cy_stc_smif_context_t const *context);
 652:Generated_Source\PSoC6\pdl\drivers\peripheral\smif/cy_smif.h **** void Cy_SMIF_Enable(SMIF_Type *base, cy_stc_smif_context_t *context);
 653:Generated_Source\PSoC6\pdl\drivers\peripheral\smif/cy_smif.h **** __STATIC_INLINE void Cy_SMIF_Disable(SMIF_Type *base);
 654:Generated_Source\PSoC6\pdl\drivers\peripheral\smif/cy_smif.h **** __STATIC_INLINE void  Cy_SMIF_SetInterruptMask(SMIF_Type *base, uint32_t interrupt);
 655:Generated_Source\PSoC6\pdl\drivers\peripheral\smif/cy_smif.h **** __STATIC_INLINE uint32_t  Cy_SMIF_GetInterruptMask(SMIF_Type const *base);
 656:Generated_Source\PSoC6\pdl\drivers\peripheral\smif/cy_smif.h **** __STATIC_INLINE uint32_t  Cy_SMIF_GetInterruptStatusMasked(SMIF_Type const *base);
 657:Generated_Source\PSoC6\pdl\drivers\peripheral\smif/cy_smif.h **** __STATIC_INLINE uint32_t  Cy_SMIF_GetInterruptStatus(SMIF_Type const *base);
ARM GAS  C:\Users\ikomb\AppData\Local\Temp\ccEKz2Td.s 			page 13


 658:Generated_Source\PSoC6\pdl\drivers\peripheral\smif/cy_smif.h **** __STATIC_INLINE void  Cy_SMIF_SetInterrupt(SMIF_Type *base, uint32_t interrupt);
 659:Generated_Source\PSoC6\pdl\drivers\peripheral\smif/cy_smif.h **** __STATIC_INLINE void  Cy_SMIF_ClearInterrupt(SMIF_Type *base, uint32_t interrupt);
 660:Generated_Source\PSoC6\pdl\drivers\peripheral\smif/cy_smif.h **** __STATIC_INLINE void  Cy_SMIF_SetTxFifoTriggerLevel(SMIF_Type *base, uint32_t level);
 661:Generated_Source\PSoC6\pdl\drivers\peripheral\smif/cy_smif.h **** __STATIC_INLINE void  Cy_SMIF_SetRxFifoTriggerLevel(SMIF_Type *base, uint32_t level);
 662:Generated_Source\PSoC6\pdl\drivers\peripheral\smif/cy_smif.h **** __STATIC_INLINE uint32_t  Cy_SMIF_GetCmdFifoStatus(SMIF_Type const *base);
 663:Generated_Source\PSoC6\pdl\drivers\peripheral\smif/cy_smif.h **** __STATIC_INLINE uint32_t  Cy_SMIF_GetTxFifoStatus(SMIF_Type const *base);
 664:Generated_Source\PSoC6\pdl\drivers\peripheral\smif/cy_smif.h **** __STATIC_INLINE uint32_t  Cy_SMIF_GetRxFifoStatus(SMIF_Type const *base);
 665:Generated_Source\PSoC6\pdl\drivers\peripheral\smif/cy_smif.h **** cy_en_smif_status_t  Cy_SMIF_Encrypt(SMIF_Type *base,
 666:Generated_Source\PSoC6\pdl\drivers\peripheral\smif/cy_smif.h ****                                 uint32_t address,
 667:Generated_Source\PSoC6\pdl\drivers\peripheral\smif/cy_smif.h ****                                 uint8_t data[],
 668:Generated_Source\PSoC6\pdl\drivers\peripheral\smif/cy_smif.h ****                                 uint32_t size,
 669:Generated_Source\PSoC6\pdl\drivers\peripheral\smif/cy_smif.h ****                                 cy_stc_smif_context_t const *context);
 670:Generated_Source\PSoC6\pdl\drivers\peripheral\smif/cy_smif.h **** __STATIC_INLINE bool Cy_SMIF_BusyCheck(SMIF_Type const *base);
 671:Generated_Source\PSoC6\pdl\drivers\peripheral\smif/cy_smif.h **** __STATIC_INLINE void Cy_SMIF_Interrupt(SMIF_Type *base, cy_stc_smif_context_t *context);
 672:Generated_Source\PSoC6\pdl\drivers\peripheral\smif/cy_smif.h **** cy_en_smif_status_t Cy_SMIF_CacheEnable(SMIF_Type *base, cy_en_smif_cache_en_t cacheType);
 673:Generated_Source\PSoC6\pdl\drivers\peripheral\smif/cy_smif.h **** cy_en_smif_status_t Cy_SMIF_CacheDisable(SMIF_Type *base, cy_en_smif_cache_en_t cacheType);
 674:Generated_Source\PSoC6\pdl\drivers\peripheral\smif/cy_smif.h **** cy_en_smif_status_t Cy_SMIF_CachePrefetchingEnable(SMIF_Type *base, cy_en_smif_cache_en_t cacheType
 675:Generated_Source\PSoC6\pdl\drivers\peripheral\smif/cy_smif.h **** cy_en_smif_status_t Cy_SMIF_CachePrefetchingDisable(SMIF_Type *base, cy_en_smif_cache_en_t cacheTyp
 676:Generated_Source\PSoC6\pdl\drivers\peripheral\smif/cy_smif.h **** cy_en_smif_status_t Cy_SMIF_CacheInvalidate(SMIF_Type *base, cy_en_smif_cache_en_t cacheType);
 677:Generated_Source\PSoC6\pdl\drivers\peripheral\smif/cy_smif.h **** 
 678:Generated_Source\PSoC6\pdl\drivers\peripheral\smif/cy_smif.h **** /** \addtogroup group_smif_functions_syspm_callback
 679:Generated_Source\PSoC6\pdl\drivers\peripheral\smif/cy_smif.h **** * The driver supports SysPm callback for Deep Sleep and Hibernate transition.
 680:Generated_Source\PSoC6\pdl\drivers\peripheral\smif/cy_smif.h **** * \{
 681:Generated_Source\PSoC6\pdl\drivers\peripheral\smif/cy_smif.h **** */
 682:Generated_Source\PSoC6\pdl\drivers\peripheral\smif/cy_smif.h **** cy_en_syspm_status_t Cy_SMIF_DeepSleepCallback(cy_stc_syspm_callback_params_t *callbackParams);
 683:Generated_Source\PSoC6\pdl\drivers\peripheral\smif/cy_smif.h **** cy_en_syspm_status_t Cy_SMIF_HibernateCallback(cy_stc_syspm_callback_params_t *callbackParams);
 684:Generated_Source\PSoC6\pdl\drivers\peripheral\smif/cy_smif.h **** /** \} */
 685:Generated_Source\PSoC6\pdl\drivers\peripheral\smif/cy_smif.h **** 
 686:Generated_Source\PSoC6\pdl\drivers\peripheral\smif/cy_smif.h **** 
 687:Generated_Source\PSoC6\pdl\drivers\peripheral\smif/cy_smif.h **** /***************************************
 688:Generated_Source\PSoC6\pdl\drivers\peripheral\smif/cy_smif.h **** *  Internal SMIF function declarations
 689:Generated_Source\PSoC6\pdl\drivers\peripheral\smif/cy_smif.h **** ****************************************/
 690:Generated_Source\PSoC6\pdl\drivers\peripheral\smif/cy_smif.h **** /** \cond INTERNAL */
 691:Generated_Source\PSoC6\pdl\drivers\peripheral\smif/cy_smif.h **** __STATIC_INLINE void Cy_SMIF_PushTxFifo(SMIF_Type *baseaddr, cy_stc_smif_context_t *context);      
 692:Generated_Source\PSoC6\pdl\drivers\peripheral\smif/cy_smif.h **** __STATIC_INLINE void Cy_SMIF_PopRxFifo(SMIF_Type *baseaddr, cy_stc_smif_context_t *context);       
 693:Generated_Source\PSoC6\pdl\drivers\peripheral\smif/cy_smif.h **** __STATIC_INLINE uint32_t Cy_SMIF_PackBytesArray(uint8_t const buff[], bool fourBytes);
 694:Generated_Source\PSoC6\pdl\drivers\peripheral\smif/cy_smif.h **** __STATIC_INLINE void Cy_SMIF_UnPackByteArray(uint32_t inValue, uint8_t outBuff[], bool fourBytes);
 695:Generated_Source\PSoC6\pdl\drivers\peripheral\smif/cy_smif.h **** __STATIC_INLINE cy_en_smif_status_t Cy_SMIF_TimeoutRun(uint32_t *timeoutUnits);
 696:Generated_Source\PSoC6\pdl\drivers\peripheral\smif/cy_smif.h **** __STATIC_INLINE SMIF_DEVICE_Type volatile * Cy_SMIF_GetDeviceBySlot(SMIF_Type *base,
 697:Generated_Source\PSoC6\pdl\drivers\peripheral\smif/cy_smif.h ****                                 cy_en_smif_slave_select_t slaveSelect);
 698:Generated_Source\PSoC6\pdl\drivers\peripheral\smif/cy_smif.h **** /** \endcond*/
 699:Generated_Source\PSoC6\pdl\drivers\peripheral\smif/cy_smif.h **** 
 700:Generated_Source\PSoC6\pdl\drivers\peripheral\smif/cy_smif.h **** /** \} group_smif_low_level_functions */
 701:Generated_Source\PSoC6\pdl\drivers\peripheral\smif/cy_smif.h **** 
 702:Generated_Source\PSoC6\pdl\drivers\peripheral\smif/cy_smif.h **** 
 703:Generated_Source\PSoC6\pdl\drivers\peripheral\smif/cy_smif.h **** /**
 704:Generated_Source\PSoC6\pdl\drivers\peripheral\smif/cy_smif.h **** * \addtogroup group_smif_low_level_functions
 705:Generated_Source\PSoC6\pdl\drivers\peripheral\smif/cy_smif.h **** * \{
 706:Generated_Source\PSoC6\pdl\drivers\peripheral\smif/cy_smif.h **** */
 707:Generated_Source\PSoC6\pdl\drivers\peripheral\smif/cy_smif.h **** 
 708:Generated_Source\PSoC6\pdl\drivers\peripheral\smif/cy_smif.h **** /*******************************************************************************
 709:Generated_Source\PSoC6\pdl\drivers\peripheral\smif/cy_smif.h **** * Function Name: Cy_SMIF_Disable
 710:Generated_Source\PSoC6\pdl\drivers\peripheral\smif/cy_smif.h **** ****************************************************************************//**
 711:Generated_Source\PSoC6\pdl\drivers\peripheral\smif/cy_smif.h **** *
 712:Generated_Source\PSoC6\pdl\drivers\peripheral\smif/cy_smif.h **** * Disables the operation of the SMIF block. The SMIF block can be disabled only
 713:Generated_Source\PSoC6\pdl\drivers\peripheral\smif/cy_smif.h **** * when it is not in the active state. Use the Cy_SMIF_BusyCheck() API to check
 714:Generated_Source\PSoC6\pdl\drivers\peripheral\smif/cy_smif.h **** * it before calling this API.
ARM GAS  C:\Users\ikomb\AppData\Local\Temp\ccEKz2Td.s 			page 14


 715:Generated_Source\PSoC6\pdl\drivers\peripheral\smif/cy_smif.h **** *
 716:Generated_Source\PSoC6\pdl\drivers\peripheral\smif/cy_smif.h **** * \param base
 717:Generated_Source\PSoC6\pdl\drivers\peripheral\smif/cy_smif.h **** * Holds the base address of the SMIF block registers.
 718:Generated_Source\PSoC6\pdl\drivers\peripheral\smif/cy_smif.h **** *
 719:Generated_Source\PSoC6\pdl\drivers\peripheral\smif/cy_smif.h **** *******************************************************************************/
 720:Generated_Source\PSoC6\pdl\drivers\peripheral\smif/cy_smif.h **** __STATIC_INLINE void Cy_SMIF_Disable(SMIF_Type *base)
 721:Generated_Source\PSoC6\pdl\drivers\peripheral\smif/cy_smif.h **** {
  28              		.loc 1 721 0
  29              		.cfi_startproc
  30              		@ args = 0, pretend = 0, frame = 8
  31              		@ frame_needed = 1, uses_anonymous_args = 0
  32              		@ link register save eliminated.
  33 0000 80B4     		push	{r7}
  34              		.cfi_def_cfa_offset 4
  35              		.cfi_offset 7, -4
  36 0002 83B0     		sub	sp, sp, #12
  37              		.cfi_def_cfa_offset 16
  38 0004 00AF     		add	r7, sp, #0
  39              		.cfi_def_cfa_register 7
  40 0006 7860     		str	r0, [r7, #4]
 722:Generated_Source\PSoC6\pdl\drivers\peripheral\smif/cy_smif.h ****     base->CTL &= ~SMIF_CTL_ENABLED_Msk;
  41              		.loc 1 722 0
  42 0008 7B68     		ldr	r3, [r7, #4]
  43 000a 1B68     		ldr	r3, [r3]
  44 000c 23F00042 		bic	r2, r3, #-2147483648
  45 0010 7B68     		ldr	r3, [r7, #4]
  46 0012 1A60     		str	r2, [r3]
 723:Generated_Source\PSoC6\pdl\drivers\peripheral\smif/cy_smif.h **** 
 724:Generated_Source\PSoC6\pdl\drivers\peripheral\smif/cy_smif.h ****     /* The void Read of the CTL register to handle buffering */
 725:Generated_Source\PSoC6\pdl\drivers\peripheral\smif/cy_smif.h ****     (void) base->CTL;
  47              		.loc 1 725 0
  48 0014 7B68     		ldr	r3, [r7, #4]
  49 0016 1B68     		ldr	r3, [r3]
 726:Generated_Source\PSoC6\pdl\drivers\peripheral\smif/cy_smif.h **** }
  50              		.loc 1 726 0
  51 0018 00BF     		nop
  52 001a 0C37     		adds	r7, r7, #12
  53              		.cfi_def_cfa_offset 4
  54 001c BD46     		mov	sp, r7
  55              		.cfi_def_cfa_register 13
  56              		@ sp needed
  57 001e 5DF8047B 		ldr	r7, [sp], #4
  58              		.cfi_restore 7
  59              		.cfi_def_cfa_offset 0
  60 0022 7047     		bx	lr
  61              		.cfi_endproc
  62              	.LFE158:
  63              		.size	Cy_SMIF_Disable, .-Cy_SMIF_Disable
  64              		.section	.text.Cy_SMIF_SetInterruptMask,"ax",%progbits
  65              		.align	2
  66              		.thumb
  67              		.thumb_func
  68              		.type	Cy_SMIF_SetInterruptMask, %function
  69              	Cy_SMIF_SetInterruptMask:
  70              	.LFB159:
 727:Generated_Source\PSoC6\pdl\drivers\peripheral\smif/cy_smif.h **** 
 728:Generated_Source\PSoC6\pdl\drivers\peripheral\smif/cy_smif.h **** 
ARM GAS  C:\Users\ikomb\AppData\Local\Temp\ccEKz2Td.s 			page 15


 729:Generated_Source\PSoC6\pdl\drivers\peripheral\smif/cy_smif.h **** /*******************************************************************************
 730:Generated_Source\PSoC6\pdl\drivers\peripheral\smif/cy_smif.h **** * Function Name: Cy_SMIF_SetInterruptMask
 731:Generated_Source\PSoC6\pdl\drivers\peripheral\smif/cy_smif.h **** ****************************************************************************//**
 732:Generated_Source\PSoC6\pdl\drivers\peripheral\smif/cy_smif.h **** *
 733:Generated_Source\PSoC6\pdl\drivers\peripheral\smif/cy_smif.h **** * This function is used to set an interrupt mask for the SMIF Interrupt.
 734:Generated_Source\PSoC6\pdl\drivers\peripheral\smif/cy_smif.h **** *
 735:Generated_Source\PSoC6\pdl\drivers\peripheral\smif/cy_smif.h **** * \param base
 736:Generated_Source\PSoC6\pdl\drivers\peripheral\smif/cy_smif.h **** * Holds the base address of the SMIF block registers.
 737:Generated_Source\PSoC6\pdl\drivers\peripheral\smif/cy_smif.h **** *
 738:Generated_Source\PSoC6\pdl\drivers\peripheral\smif/cy_smif.h **** * \param interrupt
 739:Generated_Source\PSoC6\pdl\drivers\peripheral\smif/cy_smif.h **** * This is the mask for different source options that can be masked. See
 740:Generated_Source\PSoC6\pdl\drivers\peripheral\smif/cy_smif.h **** * \ref group_smif_macros_isr "Interrupt Macros" for possible values.
 741:Generated_Source\PSoC6\pdl\drivers\peripheral\smif/cy_smif.h **** *
 742:Generated_Source\PSoC6\pdl\drivers\peripheral\smif/cy_smif.h **** *******************************************************************************/
 743:Generated_Source\PSoC6\pdl\drivers\peripheral\smif/cy_smif.h **** __STATIC_INLINE void  Cy_SMIF_SetInterruptMask(SMIF_Type *base, uint32_t interrupt)
 744:Generated_Source\PSoC6\pdl\drivers\peripheral\smif/cy_smif.h **** {
  71              		.loc 1 744 0
  72              		.cfi_startproc
  73              		@ args = 0, pretend = 0, frame = 8
  74              		@ frame_needed = 1, uses_anonymous_args = 0
  75              		@ link register save eliminated.
  76 0000 80B4     		push	{r7}
  77              		.cfi_def_cfa_offset 4
  78              		.cfi_offset 7, -4
  79 0002 83B0     		sub	sp, sp, #12
  80              		.cfi_def_cfa_offset 16
  81 0004 00AF     		add	r7, sp, #0
  82              		.cfi_def_cfa_register 7
  83 0006 7860     		str	r0, [r7, #4]
  84 0008 3960     		str	r1, [r7]
 745:Generated_Source\PSoC6\pdl\drivers\peripheral\smif/cy_smif.h ****     base->INTR_MASK = interrupt;
  85              		.loc 1 745 0
  86 000a 7B68     		ldr	r3, [r7, #4]
  87 000c 3A68     		ldr	r2, [r7]
  88 000e C3F8C827 		str	r2, [r3, #1992]
 746:Generated_Source\PSoC6\pdl\drivers\peripheral\smif/cy_smif.h **** }
  89              		.loc 1 746 0
  90 0012 00BF     		nop
  91 0014 0C37     		adds	r7, r7, #12
  92              		.cfi_def_cfa_offset 4
  93 0016 BD46     		mov	sp, r7
  94              		.cfi_def_cfa_register 13
  95              		@ sp needed
  96 0018 5DF8047B 		ldr	r7, [sp], #4
  97              		.cfi_restore 7
  98              		.cfi_def_cfa_offset 0
  99 001c 7047     		bx	lr
 100              		.cfi_endproc
 101              	.LFE159:
 102              		.size	Cy_SMIF_SetInterruptMask, .-Cy_SMIF_SetInterruptMask
 103 001e 00BF     		.section	.text.Cy_SMIF_GetInterruptMask,"ax",%progbits
 104              		.align	2
 105              		.thumb
 106              		.thumb_func
 107              		.type	Cy_SMIF_GetInterruptMask, %function
 108              	Cy_SMIF_GetInterruptMask:
 109              	.LFB160:
ARM GAS  C:\Users\ikomb\AppData\Local\Temp\ccEKz2Td.s 			page 16


 747:Generated_Source\PSoC6\pdl\drivers\peripheral\smif/cy_smif.h **** 
 748:Generated_Source\PSoC6\pdl\drivers\peripheral\smif/cy_smif.h **** 
 749:Generated_Source\PSoC6\pdl\drivers\peripheral\smif/cy_smif.h **** /*******************************************************************************
 750:Generated_Source\PSoC6\pdl\drivers\peripheral\smif/cy_smif.h **** * Function Name: Cy_SMIF_GetInterruptMask
 751:Generated_Source\PSoC6\pdl\drivers\peripheral\smif/cy_smif.h **** ****************************************************************************//**
 752:Generated_Source\PSoC6\pdl\drivers\peripheral\smif/cy_smif.h **** *
 753:Generated_Source\PSoC6\pdl\drivers\peripheral\smif/cy_smif.h **** * This function is used to read an interrupt mask for the SMIF Interrupt.
 754:Generated_Source\PSoC6\pdl\drivers\peripheral\smif/cy_smif.h **** *
 755:Generated_Source\PSoC6\pdl\drivers\peripheral\smif/cy_smif.h **** * \param base
 756:Generated_Source\PSoC6\pdl\drivers\peripheral\smif/cy_smif.h **** * Holds the base address of the SMIF block registers.
 757:Generated_Source\PSoC6\pdl\drivers\peripheral\smif/cy_smif.h **** *
 758:Generated_Source\PSoC6\pdl\drivers\peripheral\smif/cy_smif.h **** * \return Returns the mask set for the SMIF interrupt.
 759:Generated_Source\PSoC6\pdl\drivers\peripheral\smif/cy_smif.h **** *
 760:Generated_Source\PSoC6\pdl\drivers\peripheral\smif/cy_smif.h **** *******************************************************************************/
 761:Generated_Source\PSoC6\pdl\drivers\peripheral\smif/cy_smif.h **** __STATIC_INLINE uint32_t  Cy_SMIF_GetInterruptMask(SMIF_Type const *base)
 762:Generated_Source\PSoC6\pdl\drivers\peripheral\smif/cy_smif.h **** {
 110              		.loc 1 762 0
 111              		.cfi_startproc
 112              		@ args = 0, pretend = 0, frame = 8
 113              		@ frame_needed = 1, uses_anonymous_args = 0
 114              		@ link register save eliminated.
 115 0000 80B4     		push	{r7}
 116              		.cfi_def_cfa_offset 4
 117              		.cfi_offset 7, -4
 118 0002 83B0     		sub	sp, sp, #12
 119              		.cfi_def_cfa_offset 16
 120 0004 00AF     		add	r7, sp, #0
 121              		.cfi_def_cfa_register 7
 122 0006 7860     		str	r0, [r7, #4]
 763:Generated_Source\PSoC6\pdl\drivers\peripheral\smif/cy_smif.h ****   return (base->INTR_MASK);
 123              		.loc 1 763 0
 124 0008 7B68     		ldr	r3, [r7, #4]
 125 000a D3F8C837 		ldr	r3, [r3, #1992]
 764:Generated_Source\PSoC6\pdl\drivers\peripheral\smif/cy_smif.h **** }
 126              		.loc 1 764 0
 127 000e 1846     		mov	r0, r3
 128 0010 0C37     		adds	r7, r7, #12
 129              		.cfi_def_cfa_offset 4
 130 0012 BD46     		mov	sp, r7
 131              		.cfi_def_cfa_register 13
 132              		@ sp needed
 133 0014 5DF8047B 		ldr	r7, [sp], #4
 134              		.cfi_restore 7
 135              		.cfi_def_cfa_offset 0
 136 0018 7047     		bx	lr
 137              		.cfi_endproc
 138              	.LFE160:
 139              		.size	Cy_SMIF_GetInterruptMask, .-Cy_SMIF_GetInterruptMask
 140 001a 00BF     		.section	.text.Cy_SMIF_GetCmdFifoStatus,"ax",%progbits
 141              		.align	2
 142              		.thumb
 143              		.thumb_func
 144              		.type	Cy_SMIF_GetCmdFifoStatus, %function
 145              	Cy_SMIF_GetCmdFifoStatus:
 146              	.LFB167:
 765:Generated_Source\PSoC6\pdl\drivers\peripheral\smif/cy_smif.h **** 
 766:Generated_Source\PSoC6\pdl\drivers\peripheral\smif/cy_smif.h **** 
ARM GAS  C:\Users\ikomb\AppData\Local\Temp\ccEKz2Td.s 			page 17


 767:Generated_Source\PSoC6\pdl\drivers\peripheral\smif/cy_smif.h **** /*******************************************************************************
 768:Generated_Source\PSoC6\pdl\drivers\peripheral\smif/cy_smif.h **** * Function Name: Cy_SMIF_GetInterruptStatusMasked
 769:Generated_Source\PSoC6\pdl\drivers\peripheral\smif/cy_smif.h **** ****************************************************************************//**
 770:Generated_Source\PSoC6\pdl\drivers\peripheral\smif/cy_smif.h **** *
 771:Generated_Source\PSoC6\pdl\drivers\peripheral\smif/cy_smif.h **** * This function is used to read an active masked interrupt. This function can
 772:Generated_Source\PSoC6\pdl\drivers\peripheral\smif/cy_smif.h **** * be used in the interrupt service-routine to find which source triggered the
 773:Generated_Source\PSoC6\pdl\drivers\peripheral\smif/cy_smif.h **** * interrupt.
 774:Generated_Source\PSoC6\pdl\drivers\peripheral\smif/cy_smif.h **** *
 775:Generated_Source\PSoC6\pdl\drivers\peripheral\smif/cy_smif.h **** * \param base
 776:Generated_Source\PSoC6\pdl\drivers\peripheral\smif/cy_smif.h **** * Holds the base address of the SMIF block registers.
 777:Generated_Source\PSoC6\pdl\drivers\peripheral\smif/cy_smif.h **** *
 778:Generated_Source\PSoC6\pdl\drivers\peripheral\smif/cy_smif.h **** * \return Returns a word with bits set at positions corresponding to the
 779:Generated_Source\PSoC6\pdl\drivers\peripheral\smif/cy_smif.h **** * interrupts triggered in the system.
 780:Generated_Source\PSoC6\pdl\drivers\peripheral\smif/cy_smif.h **** *
 781:Generated_Source\PSoC6\pdl\drivers\peripheral\smif/cy_smif.h **** *******************************************************************************/
 782:Generated_Source\PSoC6\pdl\drivers\peripheral\smif/cy_smif.h **** __STATIC_INLINE uint32_t  Cy_SMIF_GetInterruptStatusMasked(SMIF_Type const *base)
 783:Generated_Source\PSoC6\pdl\drivers\peripheral\smif/cy_smif.h **** {
 784:Generated_Source\PSoC6\pdl\drivers\peripheral\smif/cy_smif.h ****   return (base->INTR_MASKED);
 785:Generated_Source\PSoC6\pdl\drivers\peripheral\smif/cy_smif.h **** }
 786:Generated_Source\PSoC6\pdl\drivers\peripheral\smif/cy_smif.h **** 
 787:Generated_Source\PSoC6\pdl\drivers\peripheral\smif/cy_smif.h **** 
 788:Generated_Source\PSoC6\pdl\drivers\peripheral\smif/cy_smif.h **** /*******************************************************************************
 789:Generated_Source\PSoC6\pdl\drivers\peripheral\smif/cy_smif.h **** * Function Name: Cy_SMIF_GetInterruptStatus
 790:Generated_Source\PSoC6\pdl\drivers\peripheral\smif/cy_smif.h **** ****************************************************************************//**
 791:Generated_Source\PSoC6\pdl\drivers\peripheral\smif/cy_smif.h **** *
 792:Generated_Source\PSoC6\pdl\drivers\peripheral\smif/cy_smif.h **** * This function is used to read an active interrupt. This status is the unmasked
 793:Generated_Source\PSoC6\pdl\drivers\peripheral\smif/cy_smif.h **** * result, so will also show interrupts that will not generate active interrupts.
 794:Generated_Source\PSoC6\pdl\drivers\peripheral\smif/cy_smif.h **** *
 795:Generated_Source\PSoC6\pdl\drivers\peripheral\smif/cy_smif.h **** * \param base
 796:Generated_Source\PSoC6\pdl\drivers\peripheral\smif/cy_smif.h **** * Holds the base address of the SMIF block registers.
 797:Generated_Source\PSoC6\pdl\drivers\peripheral\smif/cy_smif.h **** *
 798:Generated_Source\PSoC6\pdl\drivers\peripheral\smif/cy_smif.h **** * \return Returns a word with bits set at positions corresponding to the
 799:Generated_Source\PSoC6\pdl\drivers\peripheral\smif/cy_smif.h **** * interrupts triggered in the system.
 800:Generated_Source\PSoC6\pdl\drivers\peripheral\smif/cy_smif.h **** *
 801:Generated_Source\PSoC6\pdl\drivers\peripheral\smif/cy_smif.h **** *******************************************************************************/
 802:Generated_Source\PSoC6\pdl\drivers\peripheral\smif/cy_smif.h **** __STATIC_INLINE uint32_t  Cy_SMIF_GetInterruptStatus(SMIF_Type const *base)
 803:Generated_Source\PSoC6\pdl\drivers\peripheral\smif/cy_smif.h **** {
 804:Generated_Source\PSoC6\pdl\drivers\peripheral\smif/cy_smif.h ****   return (base->INTR);
 805:Generated_Source\PSoC6\pdl\drivers\peripheral\smif/cy_smif.h **** }
 806:Generated_Source\PSoC6\pdl\drivers\peripheral\smif/cy_smif.h **** 
 807:Generated_Source\PSoC6\pdl\drivers\peripheral\smif/cy_smif.h **** 
 808:Generated_Source\PSoC6\pdl\drivers\peripheral\smif/cy_smif.h **** /*******************************************************************************
 809:Generated_Source\PSoC6\pdl\drivers\peripheral\smif/cy_smif.h **** * Function Name: Cy_SMIF_SetInterrupt
 810:Generated_Source\PSoC6\pdl\drivers\peripheral\smif/cy_smif.h **** ****************************************************************************//**
 811:Generated_Source\PSoC6\pdl\drivers\peripheral\smif/cy_smif.h **** *
 812:Generated_Source\PSoC6\pdl\drivers\peripheral\smif/cy_smif.h **** * This function is used to set an interrupt source. This function can be used
 813:Generated_Source\PSoC6\pdl\drivers\peripheral\smif/cy_smif.h **** * to activate interrupts through the software.
 814:Generated_Source\PSoC6\pdl\drivers\peripheral\smif/cy_smif.h **** *
 815:Generated_Source\PSoC6\pdl\drivers\peripheral\smif/cy_smif.h **** * \note Interrupt sources set using this interrupt will generate interrupts only
 816:Generated_Source\PSoC6\pdl\drivers\peripheral\smif/cy_smif.h **** * if they are not masked.
 817:Generated_Source\PSoC6\pdl\drivers\peripheral\smif/cy_smif.h **** *
 818:Generated_Source\PSoC6\pdl\drivers\peripheral\smif/cy_smif.h **** * \param base
 819:Generated_Source\PSoC6\pdl\drivers\peripheral\smif/cy_smif.h **** * Holds the base address of the SMIF block registers.
 820:Generated_Source\PSoC6\pdl\drivers\peripheral\smif/cy_smif.h **** *
 821:Generated_Source\PSoC6\pdl\drivers\peripheral\smif/cy_smif.h **** * \param interrupt
 822:Generated_Source\PSoC6\pdl\drivers\peripheral\smif/cy_smif.h **** * An encoded integer with a bit set corresponding to the interrupt to be
 823:Generated_Source\PSoC6\pdl\drivers\peripheral\smif/cy_smif.h **** * triggered. See \ref group_smif_macros_isr "Interrupt Macros" for possible
ARM GAS  C:\Users\ikomb\AppData\Local\Temp\ccEKz2Td.s 			page 18


 824:Generated_Source\PSoC6\pdl\drivers\peripheral\smif/cy_smif.h **** * values.
 825:Generated_Source\PSoC6\pdl\drivers\peripheral\smif/cy_smif.h **** *
 826:Generated_Source\PSoC6\pdl\drivers\peripheral\smif/cy_smif.h **** *******************************************************************************/
 827:Generated_Source\PSoC6\pdl\drivers\peripheral\smif/cy_smif.h **** __STATIC_INLINE void  Cy_SMIF_SetInterrupt(SMIF_Type *base, uint32_t interrupt)
 828:Generated_Source\PSoC6\pdl\drivers\peripheral\smif/cy_smif.h **** {
 829:Generated_Source\PSoC6\pdl\drivers\peripheral\smif/cy_smif.h ****     base->INTR_SET = interrupt;
 830:Generated_Source\PSoC6\pdl\drivers\peripheral\smif/cy_smif.h **** }
 831:Generated_Source\PSoC6\pdl\drivers\peripheral\smif/cy_smif.h **** 
 832:Generated_Source\PSoC6\pdl\drivers\peripheral\smif/cy_smif.h **** 
 833:Generated_Source\PSoC6\pdl\drivers\peripheral\smif/cy_smif.h **** /*******************************************************************************
 834:Generated_Source\PSoC6\pdl\drivers\peripheral\smif/cy_smif.h **** * Function Name: Cy_SMIF_ClearInterrupt
 835:Generated_Source\PSoC6\pdl\drivers\peripheral\smif/cy_smif.h **** ****************************************************************************//**
 836:Generated_Source\PSoC6\pdl\drivers\peripheral\smif/cy_smif.h **** *
 837:Generated_Source\PSoC6\pdl\drivers\peripheral\smif/cy_smif.h **** * This function is used to clear an interrupt source. This function can be used
 838:Generated_Source\PSoC6\pdl\drivers\peripheral\smif/cy_smif.h **** * in the user code to clear all pending interrupts.
 839:Generated_Source\PSoC6\pdl\drivers\peripheral\smif/cy_smif.h **** *
 840:Generated_Source\PSoC6\pdl\drivers\peripheral\smif/cy_smif.h **** * \param base
 841:Generated_Source\PSoC6\pdl\drivers\peripheral\smif/cy_smif.h **** * Holds the base address of the SMIF block registers.
 842:Generated_Source\PSoC6\pdl\drivers\peripheral\smif/cy_smif.h **** *
 843:Generated_Source\PSoC6\pdl\drivers\peripheral\smif/cy_smif.h **** * \param interrupt
 844:Generated_Source\PSoC6\pdl\drivers\peripheral\smif/cy_smif.h **** * An encoded integer with a bit set corresponding to the interrupt that must
 845:Generated_Source\PSoC6\pdl\drivers\peripheral\smif/cy_smif.h **** * be cleared. See \ref group_smif_macros_isr "Interrupt Macros" for possible
 846:Generated_Source\PSoC6\pdl\drivers\peripheral\smif/cy_smif.h **** * values.
 847:Generated_Source\PSoC6\pdl\drivers\peripheral\smif/cy_smif.h **** *
 848:Generated_Source\PSoC6\pdl\drivers\peripheral\smif/cy_smif.h **** *******************************************************************************/
 849:Generated_Source\PSoC6\pdl\drivers\peripheral\smif/cy_smif.h **** __STATIC_INLINE void  Cy_SMIF_ClearInterrupt(SMIF_Type *base, uint32_t interrupt)
 850:Generated_Source\PSoC6\pdl\drivers\peripheral\smif/cy_smif.h **** {
 851:Generated_Source\PSoC6\pdl\drivers\peripheral\smif/cy_smif.h ****     base->INTR = interrupt;
 852:Generated_Source\PSoC6\pdl\drivers\peripheral\smif/cy_smif.h ****     /* Ensure that the initial Write has been flushed out to the hardware. */
 853:Generated_Source\PSoC6\pdl\drivers\peripheral\smif/cy_smif.h ****     interrupt = base->INTR;
 854:Generated_Source\PSoC6\pdl\drivers\peripheral\smif/cy_smif.h **** }
 855:Generated_Source\PSoC6\pdl\drivers\peripheral\smif/cy_smif.h **** 
 856:Generated_Source\PSoC6\pdl\drivers\peripheral\smif/cy_smif.h **** 
 857:Generated_Source\PSoC6\pdl\drivers\peripheral\smif/cy_smif.h **** /*******************************************************************************
 858:Generated_Source\PSoC6\pdl\drivers\peripheral\smif/cy_smif.h **** * Function Name: Cy_SMIF_SetTxFifoTriggerLevel()
 859:Generated_Source\PSoC6\pdl\drivers\peripheral\smif/cy_smif.h **** ****************************************************************************//**
 860:Generated_Source\PSoC6\pdl\drivers\peripheral\smif/cy_smif.h **** *
 861:Generated_Source\PSoC6\pdl\drivers\peripheral\smif/cy_smif.h **** * This function is used to set a trigger level for the TX FIFO. This value must
 862:Generated_Source\PSoC6\pdl\drivers\peripheral\smif/cy_smif.h **** * be an integer between 0 and 7. For the normal mode only.
 863:Generated_Source\PSoC6\pdl\drivers\peripheral\smif/cy_smif.h **** * The triggering is active when TX_DATA_FIFO_STATUS <= level.
 864:Generated_Source\PSoC6\pdl\drivers\peripheral\smif/cy_smif.h **** *
 865:Generated_Source\PSoC6\pdl\drivers\peripheral\smif/cy_smif.h **** * \param base
 866:Generated_Source\PSoC6\pdl\drivers\peripheral\smif/cy_smif.h **** * Holds the base address of the SMIF block registers.
 867:Generated_Source\PSoC6\pdl\drivers\peripheral\smif/cy_smif.h **** *
 868:Generated_Source\PSoC6\pdl\drivers\peripheral\smif/cy_smif.h **** * \param level
 869:Generated_Source\PSoC6\pdl\drivers\peripheral\smif/cy_smif.h **** * The trigger level to set (0-8).
 870:Generated_Source\PSoC6\pdl\drivers\peripheral\smif/cy_smif.h **** *
 871:Generated_Source\PSoC6\pdl\drivers\peripheral\smif/cy_smif.h **** *******************************************************************************/
 872:Generated_Source\PSoC6\pdl\drivers\peripheral\smif/cy_smif.h **** __STATIC_INLINE void  Cy_SMIF_SetTxFifoTriggerLevel(SMIF_Type *base, uint32_t level)
 873:Generated_Source\PSoC6\pdl\drivers\peripheral\smif/cy_smif.h **** {
 874:Generated_Source\PSoC6\pdl\drivers\peripheral\smif/cy_smif.h ****     CY_ASSERT_L2(level <= CY_SMIF_MAX_TX_TR_LEVEL);
 875:Generated_Source\PSoC6\pdl\drivers\peripheral\smif/cy_smif.h ****     base->TX_DATA_FIFO_CTL = level;
 876:Generated_Source\PSoC6\pdl\drivers\peripheral\smif/cy_smif.h **** }
 877:Generated_Source\PSoC6\pdl\drivers\peripheral\smif/cy_smif.h **** 
 878:Generated_Source\PSoC6\pdl\drivers\peripheral\smif/cy_smif.h **** 
 879:Generated_Source\PSoC6\pdl\drivers\peripheral\smif/cy_smif.h **** /*******************************************************************************
 880:Generated_Source\PSoC6\pdl\drivers\peripheral\smif/cy_smif.h **** * Function Name: Cy_SMIF_SetRxFifoTriggerLevel()
ARM GAS  C:\Users\ikomb\AppData\Local\Temp\ccEKz2Td.s 			page 19


 881:Generated_Source\PSoC6\pdl\drivers\peripheral\smif/cy_smif.h **** ****************************************************************************//**
 882:Generated_Source\PSoC6\pdl\drivers\peripheral\smif/cy_smif.h **** *
 883:Generated_Source\PSoC6\pdl\drivers\peripheral\smif/cy_smif.h **** * This function is used to set a trigger level for the RX FIFO. This value must
 884:Generated_Source\PSoC6\pdl\drivers\peripheral\smif/cy_smif.h **** * be an integer between 0 and 7. For the normal mode only.
 885:Generated_Source\PSoC6\pdl\drivers\peripheral\smif/cy_smif.h **** * The triggering is active when RX_DATA_FIFOSTATUS > level.
 886:Generated_Source\PSoC6\pdl\drivers\peripheral\smif/cy_smif.h **** *
 887:Generated_Source\PSoC6\pdl\drivers\peripheral\smif/cy_smif.h **** * \param base
 888:Generated_Source\PSoC6\pdl\drivers\peripheral\smif/cy_smif.h **** * Holds the base address of the SMIF block registers.
 889:Generated_Source\PSoC6\pdl\drivers\peripheral\smif/cy_smif.h **** *
 890:Generated_Source\PSoC6\pdl\drivers\peripheral\smif/cy_smif.h **** * \param level
 891:Generated_Source\PSoC6\pdl\drivers\peripheral\smif/cy_smif.h **** * The trigger level to set(0-8).
 892:Generated_Source\PSoC6\pdl\drivers\peripheral\smif/cy_smif.h **** *
 893:Generated_Source\PSoC6\pdl\drivers\peripheral\smif/cy_smif.h **** *******************************************************************************/
 894:Generated_Source\PSoC6\pdl\drivers\peripheral\smif/cy_smif.h **** __STATIC_INLINE void  Cy_SMIF_SetRxFifoTriggerLevel(SMIF_Type *base, uint32_t level)
 895:Generated_Source\PSoC6\pdl\drivers\peripheral\smif/cy_smif.h **** {
 896:Generated_Source\PSoC6\pdl\drivers\peripheral\smif/cy_smif.h ****     CY_ASSERT_L2(level <= CY_SMIF_MAX_RX_TR_LEVEL);
 897:Generated_Source\PSoC6\pdl\drivers\peripheral\smif/cy_smif.h ****     base->RX_DATA_FIFO_CTL = level;
 898:Generated_Source\PSoC6\pdl\drivers\peripheral\smif/cy_smif.h **** }
 899:Generated_Source\PSoC6\pdl\drivers\peripheral\smif/cy_smif.h **** 
 900:Generated_Source\PSoC6\pdl\drivers\peripheral\smif/cy_smif.h **** 
 901:Generated_Source\PSoC6\pdl\drivers\peripheral\smif/cy_smif.h **** /*******************************************************************************
 902:Generated_Source\PSoC6\pdl\drivers\peripheral\smif/cy_smif.h **** * Function Name: Cy_SMIF_GetCmdFifoStatus()
 903:Generated_Source\PSoC6\pdl\drivers\peripheral\smif/cy_smif.h **** ****************************************************************************//**
 904:Generated_Source\PSoC6\pdl\drivers\peripheral\smif/cy_smif.h **** *
 905:Generated_Source\PSoC6\pdl\drivers\peripheral\smif/cy_smif.h **** * This function is used to read the status of the CMD FIFO.
 906:Generated_Source\PSoC6\pdl\drivers\peripheral\smif/cy_smif.h **** *
 907:Generated_Source\PSoC6\pdl\drivers\peripheral\smif/cy_smif.h **** * \param base
 908:Generated_Source\PSoC6\pdl\drivers\peripheral\smif/cy_smif.h **** * Holds the base address of the SMIF block registers.
 909:Generated_Source\PSoC6\pdl\drivers\peripheral\smif/cy_smif.h **** *
 910:Generated_Source\PSoC6\pdl\drivers\peripheral\smif/cy_smif.h **** * \return Returns the number of the entries in the CMD FIFO.
 911:Generated_Source\PSoC6\pdl\drivers\peripheral\smif/cy_smif.h **** *
 912:Generated_Source\PSoC6\pdl\drivers\peripheral\smif/cy_smif.h **** *******************************************************************************/
 913:Generated_Source\PSoC6\pdl\drivers\peripheral\smif/cy_smif.h **** __STATIC_INLINE uint32_t  Cy_SMIF_GetCmdFifoStatus(SMIF_Type const *base)
 914:Generated_Source\PSoC6\pdl\drivers\peripheral\smif/cy_smif.h **** {
 147              		.loc 1 914 0
 148              		.cfi_startproc
 149              		@ args = 0, pretend = 0, frame = 8
 150              		@ frame_needed = 1, uses_anonymous_args = 0
 151              		@ link register save eliminated.
 152 0000 80B4     		push	{r7}
 153              		.cfi_def_cfa_offset 4
 154              		.cfi_offset 7, -4
 155 0002 83B0     		sub	sp, sp, #12
 156              		.cfi_def_cfa_offset 16
 157 0004 00AF     		add	r7, sp, #0
 158              		.cfi_def_cfa_register 7
 159 0006 7860     		str	r0, [r7, #4]
 915:Generated_Source\PSoC6\pdl\drivers\peripheral\smif/cy_smif.h ****   return (_FLD2VAL(SMIF_TX_CMD_FIFO_STATUS_USED3, base->TX_CMD_FIFO_STATUS));
 160              		.loc 1 915 0
 161 0008 7B68     		ldr	r3, [r7, #4]
 162 000a 5B6C     		ldr	r3, [r3, #68]
 163 000c 03F00703 		and	r3, r3, #7
 916:Generated_Source\PSoC6\pdl\drivers\peripheral\smif/cy_smif.h **** }
 164              		.loc 1 916 0
 165 0010 1846     		mov	r0, r3
 166 0012 0C37     		adds	r7, r7, #12
 167              		.cfi_def_cfa_offset 4
ARM GAS  C:\Users\ikomb\AppData\Local\Temp\ccEKz2Td.s 			page 20


 168 0014 BD46     		mov	sp, r7
 169              		.cfi_def_cfa_register 13
 170              		@ sp needed
 171 0016 5DF8047B 		ldr	r7, [sp], #4
 172              		.cfi_restore 7
 173              		.cfi_def_cfa_offset 0
 174 001a 7047     		bx	lr
 175              		.cfi_endproc
 176              	.LFE167:
 177              		.size	Cy_SMIF_GetCmdFifoStatus, .-Cy_SMIF_GetCmdFifoStatus
 178              		.section	.text.Cy_SMIF_GetTxFifoStatus,"ax",%progbits
 179              		.align	2
 180              		.thumb
 181              		.thumb_func
 182              		.type	Cy_SMIF_GetTxFifoStatus, %function
 183              	Cy_SMIF_GetTxFifoStatus:
 184              	.LFB168:
 917:Generated_Source\PSoC6\pdl\drivers\peripheral\smif/cy_smif.h **** 
 918:Generated_Source\PSoC6\pdl\drivers\peripheral\smif/cy_smif.h **** 
 919:Generated_Source\PSoC6\pdl\drivers\peripheral\smif/cy_smif.h **** /*******************************************************************************
 920:Generated_Source\PSoC6\pdl\drivers\peripheral\smif/cy_smif.h **** * Function Name: Cy_SMIF_GetTxFifoStatus()
 921:Generated_Source\PSoC6\pdl\drivers\peripheral\smif/cy_smif.h **** ****************************************************************************//**
 922:Generated_Source\PSoC6\pdl\drivers\peripheral\smif/cy_smif.h **** *
 923:Generated_Source\PSoC6\pdl\drivers\peripheral\smif/cy_smif.h **** * This function is used to read the status of the TX FIFO.
 924:Generated_Source\PSoC6\pdl\drivers\peripheral\smif/cy_smif.h **** *
 925:Generated_Source\PSoC6\pdl\drivers\peripheral\smif/cy_smif.h **** * \param base
 926:Generated_Source\PSoC6\pdl\drivers\peripheral\smif/cy_smif.h **** * Holds the base address of the SMIF block registers.
 927:Generated_Source\PSoC6\pdl\drivers\peripheral\smif/cy_smif.h **** *
 928:Generated_Source\PSoC6\pdl\drivers\peripheral\smif/cy_smif.h **** * \return Returns the number of the entries in the TX FIFO.
 929:Generated_Source\PSoC6\pdl\drivers\peripheral\smif/cy_smif.h **** *
 930:Generated_Source\PSoC6\pdl\drivers\peripheral\smif/cy_smif.h **** *******************************************************************************/
 931:Generated_Source\PSoC6\pdl\drivers\peripheral\smif/cy_smif.h **** __STATIC_INLINE uint32_t  Cy_SMIF_GetTxFifoStatus(SMIF_Type const *base)
 932:Generated_Source\PSoC6\pdl\drivers\peripheral\smif/cy_smif.h **** {
 185              		.loc 1 932 0
 186              		.cfi_startproc
 187              		@ args = 0, pretend = 0, frame = 8
 188              		@ frame_needed = 1, uses_anonymous_args = 0
 189              		@ link register save eliminated.
 190 0000 80B4     		push	{r7}
 191              		.cfi_def_cfa_offset 4
 192              		.cfi_offset 7, -4
 193 0002 83B0     		sub	sp, sp, #12
 194              		.cfi_def_cfa_offset 16
 195 0004 00AF     		add	r7, sp, #0
 196              		.cfi_def_cfa_register 7
 197 0006 7860     		str	r0, [r7, #4]
 933:Generated_Source\PSoC6\pdl\drivers\peripheral\smif/cy_smif.h ****   return (_FLD2VAL(SMIF_TX_DATA_FIFO_STATUS_USED4, base->TX_DATA_FIFO_STATUS));
 198              		.loc 1 933 0
 199 0008 7B68     		ldr	r3, [r7, #4]
 200 000a D3F88430 		ldr	r3, [r3, #132]
 201 000e 03F00F03 		and	r3, r3, #15
 934:Generated_Source\PSoC6\pdl\drivers\peripheral\smif/cy_smif.h **** }
 202              		.loc 1 934 0
 203 0012 1846     		mov	r0, r3
 204 0014 0C37     		adds	r7, r7, #12
 205              		.cfi_def_cfa_offset 4
 206 0016 BD46     		mov	sp, r7
ARM GAS  C:\Users\ikomb\AppData\Local\Temp\ccEKz2Td.s 			page 21


 207              		.cfi_def_cfa_register 13
 208              		@ sp needed
 209 0018 5DF8047B 		ldr	r7, [sp], #4
 210              		.cfi_restore 7
 211              		.cfi_def_cfa_offset 0
 212 001c 7047     		bx	lr
 213              		.cfi_endproc
 214              	.LFE168:
 215              		.size	Cy_SMIF_GetTxFifoStatus, .-Cy_SMIF_GetTxFifoStatus
 216 001e 00BF     		.section	.text.Cy_SMIF_GetRxFifoStatus,"ax",%progbits
 217              		.align	2
 218              		.thumb
 219              		.thumb_func
 220              		.type	Cy_SMIF_GetRxFifoStatus, %function
 221              	Cy_SMIF_GetRxFifoStatus:
 222              	.LFB169:
 935:Generated_Source\PSoC6\pdl\drivers\peripheral\smif/cy_smif.h **** 
 936:Generated_Source\PSoC6\pdl\drivers\peripheral\smif/cy_smif.h **** 
 937:Generated_Source\PSoC6\pdl\drivers\peripheral\smif/cy_smif.h **** /*******************************************************************************
 938:Generated_Source\PSoC6\pdl\drivers\peripheral\smif/cy_smif.h **** * Function Name: Cy_SMIF_GetRxFifoStatus()
 939:Generated_Source\PSoC6\pdl\drivers\peripheral\smif/cy_smif.h **** ****************************************************************************//**
 940:Generated_Source\PSoC6\pdl\drivers\peripheral\smif/cy_smif.h **** *
 941:Generated_Source\PSoC6\pdl\drivers\peripheral\smif/cy_smif.h **** * This function is used to read the status of the RX FIFO.
 942:Generated_Source\PSoC6\pdl\drivers\peripheral\smif/cy_smif.h **** *
 943:Generated_Source\PSoC6\pdl\drivers\peripheral\smif/cy_smif.h **** * \param base
 944:Generated_Source\PSoC6\pdl\drivers\peripheral\smif/cy_smif.h **** * Holds the base address of the SMIF block registers.
 945:Generated_Source\PSoC6\pdl\drivers\peripheral\smif/cy_smif.h **** *
 946:Generated_Source\PSoC6\pdl\drivers\peripheral\smif/cy_smif.h **** * \return Returns the number of the entries in the RX FIFO.
 947:Generated_Source\PSoC6\pdl\drivers\peripheral\smif/cy_smif.h **** *
 948:Generated_Source\PSoC6\pdl\drivers\peripheral\smif/cy_smif.h **** *******************************************************************************/
 949:Generated_Source\PSoC6\pdl\drivers\peripheral\smif/cy_smif.h **** __STATIC_INLINE uint32_t  Cy_SMIF_GetRxFifoStatus(SMIF_Type const *base)
 950:Generated_Source\PSoC6\pdl\drivers\peripheral\smif/cy_smif.h **** {
 223              		.loc 1 950 0
 224              		.cfi_startproc
 225              		@ args = 0, pretend = 0, frame = 8
 226              		@ frame_needed = 1, uses_anonymous_args = 0
 227              		@ link register save eliminated.
 228 0000 80B4     		push	{r7}
 229              		.cfi_def_cfa_offset 4
 230              		.cfi_offset 7, -4
 231 0002 83B0     		sub	sp, sp, #12
 232              		.cfi_def_cfa_offset 16
 233 0004 00AF     		add	r7, sp, #0
 234              		.cfi_def_cfa_register 7
 235 0006 7860     		str	r0, [r7, #4]
 951:Generated_Source\PSoC6\pdl\drivers\peripheral\smif/cy_smif.h ****   return (_FLD2VAL(SMIF_RX_DATA_FIFO_STATUS_USED4, base->RX_DATA_FIFO_STATUS));
 236              		.loc 1 951 0
 237 0008 7B68     		ldr	r3, [r7, #4]
 238 000a D3F8C430 		ldr	r3, [r3, #196]
 239 000e 03F00F03 		and	r3, r3, #15
 952:Generated_Source\PSoC6\pdl\drivers\peripheral\smif/cy_smif.h **** }
 240              		.loc 1 952 0
 241 0012 1846     		mov	r0, r3
 242 0014 0C37     		adds	r7, r7, #12
 243              		.cfi_def_cfa_offset 4
 244 0016 BD46     		mov	sp, r7
 245              		.cfi_def_cfa_register 13
ARM GAS  C:\Users\ikomb\AppData\Local\Temp\ccEKz2Td.s 			page 22


 246              		@ sp needed
 247 0018 5DF8047B 		ldr	r7, [sp], #4
 248              		.cfi_restore 7
 249              		.cfi_def_cfa_offset 0
 250 001c 7047     		bx	lr
 251              		.cfi_endproc
 252              	.LFE169:
 253              		.size	Cy_SMIF_GetRxFifoStatus, .-Cy_SMIF_GetRxFifoStatus
 254 001e 00BF     		.section	.text.Cy_SMIF_BusyCheck,"ax",%progbits
 255              		.align	2
 256              		.thumb
 257              		.thumb_func
 258              		.type	Cy_SMIF_BusyCheck, %function
 259              	Cy_SMIF_BusyCheck:
 260              	.LFB170:
 953:Generated_Source\PSoC6\pdl\drivers\peripheral\smif/cy_smif.h **** 
 954:Generated_Source\PSoC6\pdl\drivers\peripheral\smif/cy_smif.h **** 
 955:Generated_Source\PSoC6\pdl\drivers\peripheral\smif/cy_smif.h **** /*******************************************************************************
 956:Generated_Source\PSoC6\pdl\drivers\peripheral\smif/cy_smif.h **** * Function Name: Cy_SMIF_BusyCheck
 957:Generated_Source\PSoC6\pdl\drivers\peripheral\smif/cy_smif.h **** ****************************************************************************//**
 958:Generated_Source\PSoC6\pdl\drivers\peripheral\smif/cy_smif.h **** *
 959:Generated_Source\PSoC6\pdl\drivers\peripheral\smif/cy_smif.h **** * This function provides the status of the IP block (False - not busy,
 960:Generated_Source\PSoC6\pdl\drivers\peripheral\smif/cy_smif.h **** * True - busy).
 961:Generated_Source\PSoC6\pdl\drivers\peripheral\smif/cy_smif.h **** *
 962:Generated_Source\PSoC6\pdl\drivers\peripheral\smif/cy_smif.h **** * \param base
 963:Generated_Source\PSoC6\pdl\drivers\peripheral\smif/cy_smif.h **** * Holds the base address of the SMIF block registers.
 964:Generated_Source\PSoC6\pdl\drivers\peripheral\smif/cy_smif.h **** *
 965:Generated_Source\PSoC6\pdl\drivers\peripheral\smif/cy_smif.h **** * \return Returns an IP block status.
 966:Generated_Source\PSoC6\pdl\drivers\peripheral\smif/cy_smif.h **** *
 967:Generated_Source\PSoC6\pdl\drivers\peripheral\smif/cy_smif.h **** *******************************************************************************/
 968:Generated_Source\PSoC6\pdl\drivers\peripheral\smif/cy_smif.h **** __STATIC_INLINE bool Cy_SMIF_BusyCheck(SMIF_Type const *base)
 969:Generated_Source\PSoC6\pdl\drivers\peripheral\smif/cy_smif.h **** {
 261              		.loc 1 969 0
 262              		.cfi_startproc
 263              		@ args = 0, pretend = 0, frame = 8
 264              		@ frame_needed = 1, uses_anonymous_args = 0
 265              		@ link register save eliminated.
 266 0000 80B4     		push	{r7}
 267              		.cfi_def_cfa_offset 4
 268              		.cfi_offset 7, -4
 269 0002 83B0     		sub	sp, sp, #12
 270              		.cfi_def_cfa_offset 16
 271 0004 00AF     		add	r7, sp, #0
 272              		.cfi_def_cfa_register 7
 273 0006 7860     		str	r0, [r7, #4]
 970:Generated_Source\PSoC6\pdl\drivers\peripheral\smif/cy_smif.h ****   return (1ul == _FLD2VAL(SMIF_STATUS_BUSY, base->STATUS));
 274              		.loc 1 970 0
 275 0008 7B68     		ldr	r3, [r7, #4]
 276 000a 5B68     		ldr	r3, [r3, #4]
 277 000c 03F00043 		and	r3, r3, #-2147483648
 278 0010 DB0F     		lsrs	r3, r3, #31
 279 0012 012B     		cmp	r3, #1
 280 0014 0CBF     		ite	eq
 281 0016 0123     		moveq	r3, #1
 282 0018 0023     		movne	r3, #0
 283 001a DBB2     		uxtb	r3, r3
 971:Generated_Source\PSoC6\pdl\drivers\peripheral\smif/cy_smif.h **** }
ARM GAS  C:\Users\ikomb\AppData\Local\Temp\ccEKz2Td.s 			page 23


 284              		.loc 1 971 0
 285 001c 1846     		mov	r0, r3
 286 001e 0C37     		adds	r7, r7, #12
 287              		.cfi_def_cfa_offset 4
 288 0020 BD46     		mov	sp, r7
 289              		.cfi_def_cfa_register 13
 290              		@ sp needed
 291 0022 5DF8047B 		ldr	r7, [sp], #4
 292              		.cfi_restore 7
 293              		.cfi_def_cfa_offset 0
 294 0026 7047     		bx	lr
 295              		.cfi_endproc
 296              	.LFE170:
 297              		.size	Cy_SMIF_BusyCheck, .-Cy_SMIF_BusyCheck
 298              		.section	.text.Cy_SMIF_PushTxFifo,"ax",%progbits
 299              		.align	2
 300              		.thumb
 301              		.thumb_func
 302              		.type	Cy_SMIF_PushTxFifo, %function
 303              	Cy_SMIF_PushTxFifo:
 304              	.LFB172:
 972:Generated_Source\PSoC6\pdl\drivers\peripheral\smif/cy_smif.h **** 
 973:Generated_Source\PSoC6\pdl\drivers\peripheral\smif/cy_smif.h **** 
 974:Generated_Source\PSoC6\pdl\drivers\peripheral\smif/cy_smif.h **** /*******************************************************************************
 975:Generated_Source\PSoC6\pdl\drivers\peripheral\smif/cy_smif.h **** * Function Name: Cy_SMIF_Interrupt
 976:Generated_Source\PSoC6\pdl\drivers\peripheral\smif/cy_smif.h **** ****************************************************************************//**
 977:Generated_Source\PSoC6\pdl\drivers\peripheral\smif/cy_smif.h **** *
 978:Generated_Source\PSoC6\pdl\drivers\peripheral\smif/cy_smif.h **** * The Interrupt Service Routine for the SMIF. The interrupt code will be
 979:Generated_Source\PSoC6\pdl\drivers\peripheral\smif/cy_smif.h **** * responsible for the FIFO operations on FIFO interrupts during ongoing transfers.
 980:Generated_Source\PSoC6\pdl\drivers\peripheral\smif/cy_smif.h **** * The user must place a call to this interrupt function in the interrupt
 981:Generated_Source\PSoC6\pdl\drivers\peripheral\smif/cy_smif.h **** * routine corresponding to the interrupt attached to the SMIF. If the
 982:Generated_Source\PSoC6\pdl\drivers\peripheral\smif/cy_smif.h **** * user does not do this, will break: the functionality of all the API functions in
 983:Generated_Source\PSoC6\pdl\drivers\peripheral\smif/cy_smif.h **** * the SMIF driver that use SMIF interrupts to affect transfers.
 984:Generated_Source\PSoC6\pdl\drivers\peripheral\smif/cy_smif.h **** *
 985:Generated_Source\PSoC6\pdl\drivers\peripheral\smif/cy_smif.h **** * \param base
 986:Generated_Source\PSoC6\pdl\drivers\peripheral\smif/cy_smif.h **** * Holds the base address of the SMIF block registers.
 987:Generated_Source\PSoC6\pdl\drivers\peripheral\smif/cy_smif.h **** *
 988:Generated_Source\PSoC6\pdl\drivers\peripheral\smif/cy_smif.h **** * \param context
 989:Generated_Source\PSoC6\pdl\drivers\peripheral\smif/cy_smif.h **** * Passes a configuration structure that contains the transfer parameters of the
 990:Generated_Source\PSoC6\pdl\drivers\peripheral\smif/cy_smif.h **** * SMIF block.
 991:Generated_Source\PSoC6\pdl\drivers\peripheral\smif/cy_smif.h **** *
 992:Generated_Source\PSoC6\pdl\drivers\peripheral\smif/cy_smif.h **** * \globalvars
 993:Generated_Source\PSoC6\pdl\drivers\peripheral\smif/cy_smif.h **** *  - context->txBufferAddress - The pointer to the data to be transferred.
 994:Generated_Source\PSoC6\pdl\drivers\peripheral\smif/cy_smif.h **** *
 995:Generated_Source\PSoC6\pdl\drivers\peripheral\smif/cy_smif.h **** *  - context->txBufferSize - The size of txBuffer.
 996:Generated_Source\PSoC6\pdl\drivers\peripheral\smif/cy_smif.h **** *
 997:Generated_Source\PSoC6\pdl\drivers\peripheral\smif/cy_smif.h **** *  - context->txBufferCounter - The number of data entries left to be transferred.
 998:Generated_Source\PSoC6\pdl\drivers\peripheral\smif/cy_smif.h **** *
 999:Generated_Source\PSoC6\pdl\drivers\peripheral\smif/cy_smif.h **** * All the Global variables described above are used when the Software Buffer is
1000:Generated_Source\PSoC6\pdl\drivers\peripheral\smif/cy_smif.h **** * used.
1001:Generated_Source\PSoC6\pdl\drivers\peripheral\smif/cy_smif.h **** *
1002:Generated_Source\PSoC6\pdl\drivers\peripheral\smif/cy_smif.h **** *******************************************************************************/
1003:Generated_Source\PSoC6\pdl\drivers\peripheral\smif/cy_smif.h **** __STATIC_INLINE void Cy_SMIF_Interrupt(SMIF_Type *base, cy_stc_smif_context_t *context)
1004:Generated_Source\PSoC6\pdl\drivers\peripheral\smif/cy_smif.h **** {
1005:Generated_Source\PSoC6\pdl\drivers\peripheral\smif/cy_smif.h ****     uint32_t interruptStatus = Cy_SMIF_GetInterruptStatusMasked(base);
1006:Generated_Source\PSoC6\pdl\drivers\peripheral\smif/cy_smif.h **** 
1007:Generated_Source\PSoC6\pdl\drivers\peripheral\smif/cy_smif.h ****     /* Check which interrupt occurred */
ARM GAS  C:\Users\ikomb\AppData\Local\Temp\ccEKz2Td.s 			page 24


1008:Generated_Source\PSoC6\pdl\drivers\peripheral\smif/cy_smif.h ****     if (0U != (interruptStatus & SMIF_INTR_TR_TX_REQ_Msk))
1009:Generated_Source\PSoC6\pdl\drivers\peripheral\smif/cy_smif.h ****     {
1010:Generated_Source\PSoC6\pdl\drivers\peripheral\smif/cy_smif.h ****         /* Send data */
1011:Generated_Source\PSoC6\pdl\drivers\peripheral\smif/cy_smif.h ****         Cy_SMIF_PushTxFifo(base, context);
1012:Generated_Source\PSoC6\pdl\drivers\peripheral\smif/cy_smif.h **** 
1013:Generated_Source\PSoC6\pdl\drivers\peripheral\smif/cy_smif.h ****         Cy_SMIF_ClearInterrupt(base, SMIF_INTR_TR_TX_REQ_Msk);
1014:Generated_Source\PSoC6\pdl\drivers\peripheral\smif/cy_smif.h ****     }
1015:Generated_Source\PSoC6\pdl\drivers\peripheral\smif/cy_smif.h ****     else if (0U != (interruptStatus & SMIF_INTR_TR_RX_REQ_Msk))
1016:Generated_Source\PSoC6\pdl\drivers\peripheral\smif/cy_smif.h ****     {
1017:Generated_Source\PSoC6\pdl\drivers\peripheral\smif/cy_smif.h ****         /* Receive data */
1018:Generated_Source\PSoC6\pdl\drivers\peripheral\smif/cy_smif.h ****         Cy_SMIF_PopRxFifo(base, context);
1019:Generated_Source\PSoC6\pdl\drivers\peripheral\smif/cy_smif.h **** 
1020:Generated_Source\PSoC6\pdl\drivers\peripheral\smif/cy_smif.h ****         Cy_SMIF_ClearInterrupt(base, SMIF_INTR_TR_RX_REQ_Msk);
1021:Generated_Source\PSoC6\pdl\drivers\peripheral\smif/cy_smif.h ****     }
1022:Generated_Source\PSoC6\pdl\drivers\peripheral\smif/cy_smif.h ****     else if (0U != (interruptStatus & SMIF_INTR_XIP_ALIGNMENT_ERROR_Msk))
1023:Generated_Source\PSoC6\pdl\drivers\peripheral\smif/cy_smif.h ****     {
1024:Generated_Source\PSoC6\pdl\drivers\peripheral\smif/cy_smif.h ****         /* An XIP alignment error */
1025:Generated_Source\PSoC6\pdl\drivers\peripheral\smif/cy_smif.h ****         context->transferStatus = (uint32_t) CY_SMIF_XIP_ERROR;
1026:Generated_Source\PSoC6\pdl\drivers\peripheral\smif/cy_smif.h **** 
1027:Generated_Source\PSoC6\pdl\drivers\peripheral\smif/cy_smif.h ****         Cy_SMIF_ClearInterrupt(base, SMIF_INTR_XIP_ALIGNMENT_ERROR_Msk);
1028:Generated_Source\PSoC6\pdl\drivers\peripheral\smif/cy_smif.h ****     }
1029:Generated_Source\PSoC6\pdl\drivers\peripheral\smif/cy_smif.h **** 
1030:Generated_Source\PSoC6\pdl\drivers\peripheral\smif/cy_smif.h ****     else if (0U != (interruptStatus & SMIF_INTR_TX_CMD_FIFO_OVERFLOW_Msk))
1031:Generated_Source\PSoC6\pdl\drivers\peripheral\smif/cy_smif.h ****     {
1032:Generated_Source\PSoC6\pdl\drivers\peripheral\smif/cy_smif.h ****         /* TX CMD FIFO overflow */
1033:Generated_Source\PSoC6\pdl\drivers\peripheral\smif/cy_smif.h ****         context->transferStatus = (uint32_t) CY_SMIF_CMD_ERROR;
1034:Generated_Source\PSoC6\pdl\drivers\peripheral\smif/cy_smif.h **** 
1035:Generated_Source\PSoC6\pdl\drivers\peripheral\smif/cy_smif.h ****         Cy_SMIF_ClearInterrupt(base, SMIF_INTR_TX_CMD_FIFO_OVERFLOW_Msk);
1036:Generated_Source\PSoC6\pdl\drivers\peripheral\smif/cy_smif.h ****     }
1037:Generated_Source\PSoC6\pdl\drivers\peripheral\smif/cy_smif.h **** 
1038:Generated_Source\PSoC6\pdl\drivers\peripheral\smif/cy_smif.h ****     else if (0U != (interruptStatus & SMIF_INTR_TX_DATA_FIFO_OVERFLOW_Msk))
1039:Generated_Source\PSoC6\pdl\drivers\peripheral\smif/cy_smif.h ****     {
1040:Generated_Source\PSoC6\pdl\drivers\peripheral\smif/cy_smif.h ****         /* A TX DATA FIFO overflow */
1041:Generated_Source\PSoC6\pdl\drivers\peripheral\smif/cy_smif.h ****         context->transferStatus = (uint32_t) CY_SMIF_TX_ERROR;
1042:Generated_Source\PSoC6\pdl\drivers\peripheral\smif/cy_smif.h **** 
1043:Generated_Source\PSoC6\pdl\drivers\peripheral\smif/cy_smif.h ****         Cy_SMIF_ClearInterrupt(base, SMIF_INTR_TX_DATA_FIFO_OVERFLOW_Msk);
1044:Generated_Source\PSoC6\pdl\drivers\peripheral\smif/cy_smif.h ****     }
1045:Generated_Source\PSoC6\pdl\drivers\peripheral\smif/cy_smif.h **** 
1046:Generated_Source\PSoC6\pdl\drivers\peripheral\smif/cy_smif.h ****     else if (0U != (interruptStatus & SMIF_INTR_RX_DATA_FIFO_UNDERFLOW_Msk))
1047:Generated_Source\PSoC6\pdl\drivers\peripheral\smif/cy_smif.h ****     {
1048:Generated_Source\PSoC6\pdl\drivers\peripheral\smif/cy_smif.h ****         /* RX DATA FIFO underflow */
1049:Generated_Source\PSoC6\pdl\drivers\peripheral\smif/cy_smif.h ****         context->transferStatus = (uint32_t) CY_SMIF_RX_ERROR;
1050:Generated_Source\PSoC6\pdl\drivers\peripheral\smif/cy_smif.h **** 
1051:Generated_Source\PSoC6\pdl\drivers\peripheral\smif/cy_smif.h ****         Cy_SMIF_ClearInterrupt(base, SMIF_INTR_RX_DATA_FIFO_UNDERFLOW_Msk);
1052:Generated_Source\PSoC6\pdl\drivers\peripheral\smif/cy_smif.h ****     }
1053:Generated_Source\PSoC6\pdl\drivers\peripheral\smif/cy_smif.h ****     else
1054:Generated_Source\PSoC6\pdl\drivers\peripheral\smif/cy_smif.h ****     {
1055:Generated_Source\PSoC6\pdl\drivers\peripheral\smif/cy_smif.h ****         /* Processing of errors */
1056:Generated_Source\PSoC6\pdl\drivers\peripheral\smif/cy_smif.h ****     }
1057:Generated_Source\PSoC6\pdl\drivers\peripheral\smif/cy_smif.h **** }
1058:Generated_Source\PSoC6\pdl\drivers\peripheral\smif/cy_smif.h **** 
1059:Generated_Source\PSoC6\pdl\drivers\peripheral\smif/cy_smif.h **** 
1060:Generated_Source\PSoC6\pdl\drivers\peripheral\smif/cy_smif.h **** /***************************************
1061:Generated_Source\PSoC6\pdl\drivers\peripheral\smif/cy_smif.h **** *  Internal SMIF in-line functions
1062:Generated_Source\PSoC6\pdl\drivers\peripheral\smif/cy_smif.h **** ****************************************/
1063:Generated_Source\PSoC6\pdl\drivers\peripheral\smif/cy_smif.h **** 
1064:Generated_Source\PSoC6\pdl\drivers\peripheral\smif/cy_smif.h **** /** \cond INTERNAL */
ARM GAS  C:\Users\ikomb\AppData\Local\Temp\ccEKz2Td.s 			page 25


1065:Generated_Source\PSoC6\pdl\drivers\peripheral\smif/cy_smif.h **** 
1066:Generated_Source\PSoC6\pdl\drivers\peripheral\smif/cy_smif.h **** /*******************************************************************************
1067:Generated_Source\PSoC6\pdl\drivers\peripheral\smif/cy_smif.h **** * Function Name: Cy_SMIF_PushTxFifo
1068:Generated_Source\PSoC6\pdl\drivers\peripheral\smif/cy_smif.h **** ***************************************************************************//***
1069:Generated_Source\PSoC6\pdl\drivers\peripheral\smif/cy_smif.h **** *
1070:Generated_Source\PSoC6\pdl\drivers\peripheral\smif/cy_smif.h **** * \internal
1071:Generated_Source\PSoC6\pdl\drivers\peripheral\smif/cy_smif.h **** *
1072:Generated_Source\PSoC6\pdl\drivers\peripheral\smif/cy_smif.h **** * \param baseaddr
1073:Generated_Source\PSoC6\pdl\drivers\peripheral\smif/cy_smif.h **** * Holds the base address of the SMIF block registers.
1074:Generated_Source\PSoC6\pdl\drivers\peripheral\smif/cy_smif.h **** *
1075:Generated_Source\PSoC6\pdl\drivers\peripheral\smif/cy_smif.h **** * \param context
1076:Generated_Source\PSoC6\pdl\drivers\peripheral\smif/cy_smif.h **** * Passes a configuration structure that contains the transfer parameters of the
1077:Generated_Source\PSoC6\pdl\drivers\peripheral\smif/cy_smif.h **** * SMIF block.
1078:Generated_Source\PSoC6\pdl\drivers\peripheral\smif/cy_smif.h **** *
1079:Generated_Source\PSoC6\pdl\drivers\peripheral\smif/cy_smif.h **** * This function writes data in the TX FIFO SMIF buffer by 4, 2, or 1 bytes based
1080:Generated_Source\PSoC6\pdl\drivers\peripheral\smif/cy_smif.h **** * on the residual number of bytes and the available space in the TX FIFO.
1081:Generated_Source\PSoC6\pdl\drivers\peripheral\smif/cy_smif.h **** *
1082:Generated_Source\PSoC6\pdl\drivers\peripheral\smif/cy_smif.h **** *******************************************************************************/
1083:Generated_Source\PSoC6\pdl\drivers\peripheral\smif/cy_smif.h **** __STATIC_INLINE void Cy_SMIF_PushTxFifo(SMIF_Type *baseaddr, cy_stc_smif_context_t *context)
1084:Generated_Source\PSoC6\pdl\drivers\peripheral\smif/cy_smif.h **** {
 305              		.loc 1 1084 0
 306              		.cfi_startproc
 307              		@ args = 0, pretend = 0, frame = 24
 308              		@ frame_needed = 1, uses_anonymous_args = 0
 309 0000 80B5     		push	{r7, lr}
 310              		.cfi_def_cfa_offset 8
 311              		.cfi_offset 7, -8
 312              		.cfi_offset 14, -4
 313 0002 86B0     		sub	sp, sp, #24
 314              		.cfi_def_cfa_offset 32
 315 0004 00AF     		add	r7, sp, #0
 316              		.cfi_def_cfa_register 7
 317 0006 7860     		str	r0, [r7, #4]
 318 0008 3960     		str	r1, [r7]
1085:Generated_Source\PSoC6\pdl\drivers\peripheral\smif/cy_smif.h ****     /* The variable that shows which is smaller: the free FIFO size or amount of bytes to be sent *
1086:Generated_Source\PSoC6\pdl\drivers\peripheral\smif/cy_smif.h ****     uint32_t writeBytes;
1087:Generated_Source\PSoC6\pdl\drivers\peripheral\smif/cy_smif.h ****     uint32_t freeFifoBytes;
1088:Generated_Source\PSoC6\pdl\drivers\peripheral\smif/cy_smif.h ****     uint32_t buffCounter = context->txBufferCounter;
 319              		.loc 1 1088 0
 320 000a 3B68     		ldr	r3, [r7]
 321 000c 9B68     		ldr	r3, [r3, #8]
 322 000e 3B61     		str	r3, [r7, #16]
1089:Generated_Source\PSoC6\pdl\drivers\peripheral\smif/cy_smif.h ****     uint8_t *buff = (uint8_t*) context->txBufferAddress;
 323              		.loc 1 1089 0
 324 0010 3B68     		ldr	r3, [r7]
 325 0012 1B68     		ldr	r3, [r3]
 326 0014 FB60     		str	r3, [r7, #12]
1090:Generated_Source\PSoC6\pdl\drivers\peripheral\smif/cy_smif.h **** 
1091:Generated_Source\PSoC6\pdl\drivers\peripheral\smif/cy_smif.h ****     freeFifoBytes = CY_SMIF_TX_DATA_FIFO_STATUS_RANGE - Cy_SMIF_GetTxFifoStatus(baseaddr);
 327              		.loc 1 1091 0
 328 0016 7868     		ldr	r0, [r7, #4]
 329 0018 FFF7FEFF 		bl	Cy_SMIF_GetTxFifoStatus
 330 001c 0346     		mov	r3, r0
 331 001e C3F10803 		rsb	r3, r3, #8
 332 0022 BB60     		str	r3, [r7, #8]
1092:Generated_Source\PSoC6\pdl\drivers\peripheral\smif/cy_smif.h ****     writeBytes = (freeFifoBytes > buffCounter)? buffCounter: freeFifoBytes;
 333              		.loc 1 1092 0
ARM GAS  C:\Users\ikomb\AppData\Local\Temp\ccEKz2Td.s 			page 26


 334 0024 BA68     		ldr	r2, [r7, #8]
 335 0026 3B69     		ldr	r3, [r7, #16]
 336 0028 9342     		cmp	r3, r2
 337 002a 28BF     		it	cs
 338 002c 1346     		movcs	r3, r2
 339 002e 7B61     		str	r3, [r7, #20]
1093:Generated_Source\PSoC6\pdl\drivers\peripheral\smif/cy_smif.h **** 
1094:Generated_Source\PSoC6\pdl\drivers\peripheral\smif/cy_smif.h ****     /* Check that after a FIFO Write, no data/FIFO space remains */
1095:Generated_Source\PSoC6\pdl\drivers\peripheral\smif/cy_smif.h ****     while (0U != writeBytes)
 340              		.loc 1 1095 0
 341 0030 B9E0     		b	.L14
 342              	.L24:
1096:Generated_Source\PSoC6\pdl\drivers\peripheral\smif/cy_smif.h ****     {
1097:Generated_Source\PSoC6\pdl\drivers\peripheral\smif/cy_smif.h ****         /* The first main use case for long transfers */
1098:Generated_Source\PSoC6\pdl\drivers\peripheral\smif/cy_smif.h ****         if (writeBytes == CY_SMIF_EIGHT_BYTES)
 343              		.loc 1 1098 0
 344 0032 7B69     		ldr	r3, [r7, #20]
 345 0034 082B     		cmp	r3, #8
 346 0036 12D1     		bne	.L15
1099:Generated_Source\PSoC6\pdl\drivers\peripheral\smif/cy_smif.h ****         {
1100:Generated_Source\PSoC6\pdl\drivers\peripheral\smif/cy_smif.h ****             baseaddr->TX_DATA_FIFO_WR4 = Cy_SMIF_PackBytesArray(&buff[0U], true);
 347              		.loc 1 1100 0
 348 0038 0121     		movs	r1, #1
 349 003a F868     		ldr	r0, [r7, #12]
 350 003c FFF7FEFF 		bl	Cy_SMIF_PackBytesArray
 351 0040 0246     		mov	r2, r0
 352 0042 7B68     		ldr	r3, [r7, #4]
 353 0044 C3F89820 		str	r2, [r3, #152]
1101:Generated_Source\PSoC6\pdl\drivers\peripheral\smif/cy_smif.h ****             baseaddr->TX_DATA_FIFO_WR4 = Cy_SMIF_PackBytesArray(&buff[4U], true);
 354              		.loc 1 1101 0
 355 0048 FB68     		ldr	r3, [r7, #12]
 356 004a 0433     		adds	r3, r3, #4
 357 004c 0121     		movs	r1, #1
 358 004e 1846     		mov	r0, r3
 359 0050 FFF7FEFF 		bl	Cy_SMIF_PackBytesArray
 360 0054 0246     		mov	r2, r0
 361 0056 7B68     		ldr	r3, [r7, #4]
 362 0058 C3F89820 		str	r2, [r3, #152]
 363 005c 8EE0     		b	.L16
 364              	.L15:
1102:Generated_Source\PSoC6\pdl\drivers\peripheral\smif/cy_smif.h ****         }
1103:Generated_Source\PSoC6\pdl\drivers\peripheral\smif/cy_smif.h ****         /* The second main use case for short transfers */
1104:Generated_Source\PSoC6\pdl\drivers\peripheral\smif/cy_smif.h ****         else if(writeBytes == CY_SMIF_ONE_BYTE)
 365              		.loc 1 1104 0
 366 005e 7B69     		ldr	r3, [r7, #20]
 367 0060 012B     		cmp	r3, #1
 368 0062 06D1     		bne	.L17
1105:Generated_Source\PSoC6\pdl\drivers\peripheral\smif/cy_smif.h ****         {
1106:Generated_Source\PSoC6\pdl\drivers\peripheral\smif/cy_smif.h ****             baseaddr->TX_DATA_FIFO_WR1 = buff[0U];
 369              		.loc 1 1106 0
 370 0064 FB68     		ldr	r3, [r7, #12]
 371 0066 1B78     		ldrb	r3, [r3]	@ zero_extendqisi2
 372 0068 1A46     		mov	r2, r3
 373 006a 7B68     		ldr	r3, [r7, #4]
 374 006c C3F89020 		str	r2, [r3, #144]
 375 0070 84E0     		b	.L16
 376              	.L17:
ARM GAS  C:\Users\ikomb\AppData\Local\Temp\ccEKz2Td.s 			page 27


1107:Generated_Source\PSoC6\pdl\drivers\peripheral\smif/cy_smif.h ****         }
1108:Generated_Source\PSoC6\pdl\drivers\peripheral\smif/cy_smif.h ****         else if(writeBytes == CY_SMIF_TWO_BYTES)
 377              		.loc 1 1108 0
 378 0072 7B69     		ldr	r3, [r7, #20]
 379 0074 022B     		cmp	r3, #2
 380 0076 08D1     		bne	.L18
1109:Generated_Source\PSoC6\pdl\drivers\peripheral\smif/cy_smif.h ****         {
1110:Generated_Source\PSoC6\pdl\drivers\peripheral\smif/cy_smif.h ****             baseaddr->TX_DATA_FIFO_WR2 = Cy_SMIF_PackBytesArray(&buff[0U], false);
 381              		.loc 1 1110 0
 382 0078 0021     		movs	r1, #0
 383 007a F868     		ldr	r0, [r7, #12]
 384 007c FFF7FEFF 		bl	Cy_SMIF_PackBytesArray
 385 0080 0246     		mov	r2, r0
 386 0082 7B68     		ldr	r3, [r7, #4]
 387 0084 C3F89420 		str	r2, [r3, #148]
 388 0088 78E0     		b	.L16
 389              	.L18:
1111:Generated_Source\PSoC6\pdl\drivers\peripheral\smif/cy_smif.h ****         }
1112:Generated_Source\PSoC6\pdl\drivers\peripheral\smif/cy_smif.h ****         else if(writeBytes == CY_SMIF_THREE_BYTES)
 390              		.loc 1 1112 0
 391 008a 7B69     		ldr	r3, [r7, #20]
 392 008c 032B     		cmp	r3, #3
 393 008e 0FD1     		bne	.L19
1113:Generated_Source\PSoC6\pdl\drivers\peripheral\smif/cy_smif.h ****         {
1114:Generated_Source\PSoC6\pdl\drivers\peripheral\smif/cy_smif.h ****             baseaddr->TX_DATA_FIFO_WR2 = Cy_SMIF_PackBytesArray(&buff[0U], false);
 394              		.loc 1 1114 0
 395 0090 0021     		movs	r1, #0
 396 0092 F868     		ldr	r0, [r7, #12]
 397 0094 FFF7FEFF 		bl	Cy_SMIF_PackBytesArray
 398 0098 0246     		mov	r2, r0
 399 009a 7B68     		ldr	r3, [r7, #4]
 400 009c C3F89420 		str	r2, [r3, #148]
1115:Generated_Source\PSoC6\pdl\drivers\peripheral\smif/cy_smif.h ****             baseaddr->TX_DATA_FIFO_WR1 = buff[2U];
 401              		.loc 1 1115 0
 402 00a0 FB68     		ldr	r3, [r7, #12]
 403 00a2 0233     		adds	r3, r3, #2
 404 00a4 1B78     		ldrb	r3, [r3]	@ zero_extendqisi2
 405 00a6 1A46     		mov	r2, r3
 406 00a8 7B68     		ldr	r3, [r7, #4]
 407 00aa C3F89020 		str	r2, [r3, #144]
 408 00ae 65E0     		b	.L16
 409              	.L19:
1116:Generated_Source\PSoC6\pdl\drivers\peripheral\smif/cy_smif.h ****         }
1117:Generated_Source\PSoC6\pdl\drivers\peripheral\smif/cy_smif.h ****         else if(writeBytes == CY_SMIF_FOUR_BYTES)
 410              		.loc 1 1117 0
 411 00b0 7B69     		ldr	r3, [r7, #20]
 412 00b2 042B     		cmp	r3, #4
 413 00b4 08D1     		bne	.L20
1118:Generated_Source\PSoC6\pdl\drivers\peripheral\smif/cy_smif.h ****         {
1119:Generated_Source\PSoC6\pdl\drivers\peripheral\smif/cy_smif.h ****             baseaddr->TX_DATA_FIFO_WR4 = Cy_SMIF_PackBytesArray(&buff[0U], true);
 414              		.loc 1 1119 0
 415 00b6 0121     		movs	r1, #1
 416 00b8 F868     		ldr	r0, [r7, #12]
 417 00ba FFF7FEFF 		bl	Cy_SMIF_PackBytesArray
 418 00be 0246     		mov	r2, r0
 419 00c0 7B68     		ldr	r3, [r7, #4]
 420 00c2 C3F89820 		str	r2, [r3, #152]
ARM GAS  C:\Users\ikomb\AppData\Local\Temp\ccEKz2Td.s 			page 28


 421 00c6 59E0     		b	.L16
 422              	.L20:
1120:Generated_Source\PSoC6\pdl\drivers\peripheral\smif/cy_smif.h ****         }
1121:Generated_Source\PSoC6\pdl\drivers\peripheral\smif/cy_smif.h ****         else if(writeBytes == CY_SMIF_FIVE_BYTES)
 423              		.loc 1 1121 0
 424 00c8 7B69     		ldr	r3, [r7, #20]
 425 00ca 052B     		cmp	r3, #5
 426 00cc 0FD1     		bne	.L21
1122:Generated_Source\PSoC6\pdl\drivers\peripheral\smif/cy_smif.h ****         {
1123:Generated_Source\PSoC6\pdl\drivers\peripheral\smif/cy_smif.h ****             baseaddr->TX_DATA_FIFO_WR4 = Cy_SMIF_PackBytesArray(&buff[0U], true);
 427              		.loc 1 1123 0
 428 00ce 0121     		movs	r1, #1
 429 00d0 F868     		ldr	r0, [r7, #12]
 430 00d2 FFF7FEFF 		bl	Cy_SMIF_PackBytesArray
 431 00d6 0246     		mov	r2, r0
 432 00d8 7B68     		ldr	r3, [r7, #4]
 433 00da C3F89820 		str	r2, [r3, #152]
1124:Generated_Source\PSoC6\pdl\drivers\peripheral\smif/cy_smif.h ****             baseaddr->TX_DATA_FIFO_WR1 = buff[4U];
 434              		.loc 1 1124 0
 435 00de FB68     		ldr	r3, [r7, #12]
 436 00e0 0433     		adds	r3, r3, #4
 437 00e2 1B78     		ldrb	r3, [r3]	@ zero_extendqisi2
 438 00e4 1A46     		mov	r2, r3
 439 00e6 7B68     		ldr	r3, [r7, #4]
 440 00e8 C3F89020 		str	r2, [r3, #144]
 441 00ec 46E0     		b	.L16
 442              	.L21:
1125:Generated_Source\PSoC6\pdl\drivers\peripheral\smif/cy_smif.h ****         }
1126:Generated_Source\PSoC6\pdl\drivers\peripheral\smif/cy_smif.h ****         else if(writeBytes == CY_SMIF_SIX_BYTES)
 443              		.loc 1 1126 0
 444 00ee 7B69     		ldr	r3, [r7, #20]
 445 00f0 062B     		cmp	r3, #6
 446 00f2 12D1     		bne	.L22
1127:Generated_Source\PSoC6\pdl\drivers\peripheral\smif/cy_smif.h ****         {
1128:Generated_Source\PSoC6\pdl\drivers\peripheral\smif/cy_smif.h ****             baseaddr->TX_DATA_FIFO_WR4 = Cy_SMIF_PackBytesArray(&buff[0U], true);
 447              		.loc 1 1128 0
 448 00f4 0121     		movs	r1, #1
 449 00f6 F868     		ldr	r0, [r7, #12]
 450 00f8 FFF7FEFF 		bl	Cy_SMIF_PackBytesArray
 451 00fc 0246     		mov	r2, r0
 452 00fe 7B68     		ldr	r3, [r7, #4]
 453 0100 C3F89820 		str	r2, [r3, #152]
1129:Generated_Source\PSoC6\pdl\drivers\peripheral\smif/cy_smif.h ****             baseaddr->TX_DATA_FIFO_WR2 = Cy_SMIF_PackBytesArray(&buff[4U], false);
 454              		.loc 1 1129 0
 455 0104 FB68     		ldr	r3, [r7, #12]
 456 0106 0433     		adds	r3, r3, #4
 457 0108 0021     		movs	r1, #0
 458 010a 1846     		mov	r0, r3
 459 010c FFF7FEFF 		bl	Cy_SMIF_PackBytesArray
 460 0110 0246     		mov	r2, r0
 461 0112 7B68     		ldr	r3, [r7, #4]
 462 0114 C3F89420 		str	r2, [r3, #148]
 463 0118 30E0     		b	.L16
 464              	.L22:
1130:Generated_Source\PSoC6\pdl\drivers\peripheral\smif/cy_smif.h ****         }
1131:Generated_Source\PSoC6\pdl\drivers\peripheral\smif/cy_smif.h ****         else if(writeBytes == CY_SMIF_SEVEN_BYTES)
 465              		.loc 1 1131 0
ARM GAS  C:\Users\ikomb\AppData\Local\Temp\ccEKz2Td.s 			page 29


 466 011a 7B69     		ldr	r3, [r7, #20]
 467 011c 072B     		cmp	r3, #7
 468 011e 19D1     		bne	.L23
1132:Generated_Source\PSoC6\pdl\drivers\peripheral\smif/cy_smif.h ****         {
1133:Generated_Source\PSoC6\pdl\drivers\peripheral\smif/cy_smif.h ****             baseaddr->TX_DATA_FIFO_WR4 = Cy_SMIF_PackBytesArray(&buff[0U], true);
 469              		.loc 1 1133 0
 470 0120 0121     		movs	r1, #1
 471 0122 F868     		ldr	r0, [r7, #12]
 472 0124 FFF7FEFF 		bl	Cy_SMIF_PackBytesArray
 473 0128 0246     		mov	r2, r0
 474 012a 7B68     		ldr	r3, [r7, #4]
 475 012c C3F89820 		str	r2, [r3, #152]
1134:Generated_Source\PSoC6\pdl\drivers\peripheral\smif/cy_smif.h ****             baseaddr->TX_DATA_FIFO_WR2 = Cy_SMIF_PackBytesArray(&buff[4U], false);
 476              		.loc 1 1134 0
 477 0130 FB68     		ldr	r3, [r7, #12]
 478 0132 0433     		adds	r3, r3, #4
 479 0134 0021     		movs	r1, #0
 480 0136 1846     		mov	r0, r3
 481 0138 FFF7FEFF 		bl	Cy_SMIF_PackBytesArray
 482 013c 0246     		mov	r2, r0
 483 013e 7B68     		ldr	r3, [r7, #4]
 484 0140 C3F89420 		str	r2, [r3, #148]
1135:Generated_Source\PSoC6\pdl\drivers\peripheral\smif/cy_smif.h ****             baseaddr->TX_DATA_FIFO_WR1 = buff[6U];
 485              		.loc 1 1135 0
 486 0144 FB68     		ldr	r3, [r7, #12]
 487 0146 0633     		adds	r3, r3, #6
 488 0148 1B78     		ldrb	r3, [r3]	@ zero_extendqisi2
 489 014a 1A46     		mov	r2, r3
 490 014c 7B68     		ldr	r3, [r7, #4]
 491 014e C3F89020 		str	r2, [r3, #144]
 492 0152 13E0     		b	.L16
 493              	.L23:
1136:Generated_Source\PSoC6\pdl\drivers\peripheral\smif/cy_smif.h ****         }
1137:Generated_Source\PSoC6\pdl\drivers\peripheral\smif/cy_smif.h ****         else /* The  future IP block with FIFO > 8*/
1138:Generated_Source\PSoC6\pdl\drivers\peripheral\smif/cy_smif.h ****         {
1139:Generated_Source\PSoC6\pdl\drivers\peripheral\smif/cy_smif.h ****             baseaddr->TX_DATA_FIFO_WR4 = Cy_SMIF_PackBytesArray(&buff[0U], true);
 494              		.loc 1 1139 0
 495 0154 0121     		movs	r1, #1
 496 0156 F868     		ldr	r0, [r7, #12]
 497 0158 FFF7FEFF 		bl	Cy_SMIF_PackBytesArray
 498 015c 0246     		mov	r2, r0
 499 015e 7B68     		ldr	r3, [r7, #4]
 500 0160 C3F89820 		str	r2, [r3, #152]
1140:Generated_Source\PSoC6\pdl\drivers\peripheral\smif/cy_smif.h ****             baseaddr->TX_DATA_FIFO_WR4 = Cy_SMIF_PackBytesArray(&buff[4U], true);
 501              		.loc 1 1140 0
 502 0164 FB68     		ldr	r3, [r7, #12]
 503 0166 0433     		adds	r3, r3, #4
 504 0168 0121     		movs	r1, #1
 505 016a 1846     		mov	r0, r3
 506 016c FFF7FEFF 		bl	Cy_SMIF_PackBytesArray
 507 0170 0246     		mov	r2, r0
 508 0172 7B68     		ldr	r3, [r7, #4]
 509 0174 C3F89820 		str	r2, [r3, #152]
1141:Generated_Source\PSoC6\pdl\drivers\peripheral\smif/cy_smif.h ****             writeBytes = CY_SMIF_EIGHT_BYTES;
 510              		.loc 1 1141 0
 511 0178 0823     		movs	r3, #8
 512 017a 7B61     		str	r3, [r7, #20]
ARM GAS  C:\Users\ikomb\AppData\Local\Temp\ccEKz2Td.s 			page 30


 513              	.L16:
1142:Generated_Source\PSoC6\pdl\drivers\peripheral\smif/cy_smif.h ****         }
1143:Generated_Source\PSoC6\pdl\drivers\peripheral\smif/cy_smif.h ****         buff = &buff[writeBytes];
 514              		.loc 1 1143 0
 515 017c FA68     		ldr	r2, [r7, #12]
 516 017e 7B69     		ldr	r3, [r7, #20]
 517 0180 1344     		add	r3, r3, r2
 518 0182 FB60     		str	r3, [r7, #12]
1144:Generated_Source\PSoC6\pdl\drivers\peripheral\smif/cy_smif.h ****         buffCounter -= writeBytes;
 519              		.loc 1 1144 0
 520 0184 3A69     		ldr	r2, [r7, #16]
 521 0186 7B69     		ldr	r3, [r7, #20]
 522 0188 D31A     		subs	r3, r2, r3
 523 018a 3B61     		str	r3, [r7, #16]
1145:Generated_Source\PSoC6\pdl\drivers\peripheral\smif/cy_smif.h ****         /* Check if we already got new data in TX_FIFO*/
1146:Generated_Source\PSoC6\pdl\drivers\peripheral\smif/cy_smif.h ****         freeFifoBytes = CY_SMIF_TX_DATA_FIFO_STATUS_RANGE - Cy_SMIF_GetTxFifoStatus(baseaddr);
 524              		.loc 1 1146 0
 525 018c 7868     		ldr	r0, [r7, #4]
 526 018e FFF7FEFF 		bl	Cy_SMIF_GetTxFifoStatus
 527 0192 0346     		mov	r3, r0
 528 0194 C3F10803 		rsb	r3, r3, #8
 529 0198 BB60     		str	r3, [r7, #8]
1147:Generated_Source\PSoC6\pdl\drivers\peripheral\smif/cy_smif.h ****         writeBytes = (freeFifoBytes > buffCounter)? buffCounter: freeFifoBytes;
 530              		.loc 1 1147 0
 531 019a BA68     		ldr	r2, [r7, #8]
 532 019c 3B69     		ldr	r3, [r7, #16]
 533 019e 9342     		cmp	r3, r2
 534 01a0 28BF     		it	cs
 535 01a2 1346     		movcs	r3, r2
 536 01a4 7B61     		str	r3, [r7, #20]
 537              	.L14:
1095:Generated_Source\PSoC6\pdl\drivers\peripheral\smif/cy_smif.h ****     {
 538              		.loc 1 1095 0
 539 01a6 7B69     		ldr	r3, [r7, #20]
 540 01a8 002B     		cmp	r3, #0
 541 01aa 7FF442AF 		bne	.L24
1148:Generated_Source\PSoC6\pdl\drivers\peripheral\smif/cy_smif.h ****     }
1149:Generated_Source\PSoC6\pdl\drivers\peripheral\smif/cy_smif.h **** 
1150:Generated_Source\PSoC6\pdl\drivers\peripheral\smif/cy_smif.h ****     /* Save changes in the context */
1151:Generated_Source\PSoC6\pdl\drivers\peripheral\smif/cy_smif.h ****     context->rxBufferAddress = buff;
 542              		.loc 1 1151 0
 543 01ae 3B68     		ldr	r3, [r7]
 544 01b0 FA68     		ldr	r2, [r7, #12]
 545 01b2 DA60     		str	r2, [r3, #12]
1152:Generated_Source\PSoC6\pdl\drivers\peripheral\smif/cy_smif.h ****     context->rxBufferCounter = buffCounter;
 546              		.loc 1 1152 0
 547 01b4 3B68     		ldr	r3, [r7]
 548 01b6 3A69     		ldr	r2, [r7, #16]
 549 01b8 5A61     		str	r2, [r3, #20]
1153:Generated_Source\PSoC6\pdl\drivers\peripheral\smif/cy_smif.h **** 
1154:Generated_Source\PSoC6\pdl\drivers\peripheral\smif/cy_smif.h ****     /* Check if all bytes are sent */
1155:Generated_Source\PSoC6\pdl\drivers\peripheral\smif/cy_smif.h ****     if (0u == buffCounter)
 550              		.loc 1 1155 0
 551 01ba 3B69     		ldr	r3, [r7, #16]
 552 01bc 002B     		cmp	r3, #0
 553 01be 14D1     		bne	.L26
1156:Generated_Source\PSoC6\pdl\drivers\peripheral\smif/cy_smif.h ****     {
ARM GAS  C:\Users\ikomb\AppData\Local\Temp\ccEKz2Td.s 			page 31


1157:Generated_Source\PSoC6\pdl\drivers\peripheral\smif/cy_smif.h ****         /* Disable the TR_TX_REQ interrupt */
1158:Generated_Source\PSoC6\pdl\drivers\peripheral\smif/cy_smif.h ****         Cy_SMIF_SetInterruptMask(baseaddr,
1159:Generated_Source\PSoC6\pdl\drivers\peripheral\smif/cy_smif.h ****             Cy_SMIF_GetInterruptMask(baseaddr) & ~SMIF_INTR_TR_TX_REQ_Msk);
 554              		.loc 1 1159 0
 555 01c0 7868     		ldr	r0, [r7, #4]
 556 01c2 FFF7FEFF 		bl	Cy_SMIF_GetInterruptMask
 557 01c6 0346     		mov	r3, r0
1158:Generated_Source\PSoC6\pdl\drivers\peripheral\smif/cy_smif.h ****             Cy_SMIF_GetInterruptMask(baseaddr) & ~SMIF_INTR_TR_TX_REQ_Msk);
 558              		.loc 1 1158 0
 559 01c8 23F00103 		bic	r3, r3, #1
 560 01cc 1946     		mov	r1, r3
 561 01ce 7868     		ldr	r0, [r7, #4]
 562 01d0 FFF7FEFF 		bl	Cy_SMIF_SetInterruptMask
1160:Generated_Source\PSoC6\pdl\drivers\peripheral\smif/cy_smif.h **** 
1161:Generated_Source\PSoC6\pdl\drivers\peripheral\smif/cy_smif.h ****         context->transferStatus = (uint32_t) CY_SMIF_SEND_CMPLT;
 563              		.loc 1 1161 0
 564 01d4 3B68     		ldr	r3, [r7]
 565 01d6 0122     		movs	r2, #1
 566 01d8 9A61     		str	r2, [r3, #24]
1162:Generated_Source\PSoC6\pdl\drivers\peripheral\smif/cy_smif.h ****         if (NULL != context->txCmpltCb)
 567              		.loc 1 1162 0
 568 01da 3B68     		ldr	r3, [r7]
 569 01dc DB69     		ldr	r3, [r3, #28]
 570 01de 002B     		cmp	r3, #0
 571 01e0 03D0     		beq	.L26
1163:Generated_Source\PSoC6\pdl\drivers\peripheral\smif/cy_smif.h ****         {
1164:Generated_Source\PSoC6\pdl\drivers\peripheral\smif/cy_smif.h ****             context->txCmpltCb((uint32_t) CY_SMIF_SEND_CMPLT);
 572              		.loc 1 1164 0
 573 01e2 3B68     		ldr	r3, [r7]
 574 01e4 DB69     		ldr	r3, [r3, #28]
 575 01e6 0120     		movs	r0, #1
 576 01e8 9847     		blx	r3
 577              	.L26:
1165:Generated_Source\PSoC6\pdl\drivers\peripheral\smif/cy_smif.h ****         }
1166:Generated_Source\PSoC6\pdl\drivers\peripheral\smif/cy_smif.h ****     }
1167:Generated_Source\PSoC6\pdl\drivers\peripheral\smif/cy_smif.h **** }
 578              		.loc 1 1167 0
 579 01ea 00BF     		nop
 580 01ec 1837     		adds	r7, r7, #24
 581              		.cfi_def_cfa_offset 8
 582 01ee BD46     		mov	sp, r7
 583              		.cfi_def_cfa_register 13
 584              		@ sp needed
 585 01f0 80BD     		pop	{r7, pc}
 586              		.cfi_endproc
 587              	.LFE172:
 588              		.size	Cy_SMIF_PushTxFifo, .-Cy_SMIF_PushTxFifo
 589 01f2 00BF     		.section	.text.Cy_SMIF_PopRxFifo,"ax",%progbits
 590              		.align	2
 591              		.thumb
 592              		.thumb_func
 593              		.type	Cy_SMIF_PopRxFifo, %function
 594              	Cy_SMIF_PopRxFifo:
 595              	.LFB173:
1168:Generated_Source\PSoC6\pdl\drivers\peripheral\smif/cy_smif.h **** 
1169:Generated_Source\PSoC6\pdl\drivers\peripheral\smif/cy_smif.h **** 
1170:Generated_Source\PSoC6\pdl\drivers\peripheral\smif/cy_smif.h **** /*******************************************************************************
ARM GAS  C:\Users\ikomb\AppData\Local\Temp\ccEKz2Td.s 			page 32


1171:Generated_Source\PSoC6\pdl\drivers\peripheral\smif/cy_smif.h **** * Function Name: Cy_SMIF_PopRxFifo
1172:Generated_Source\PSoC6\pdl\drivers\peripheral\smif/cy_smif.h **** ***************************************************************************//***
1173:Generated_Source\PSoC6\pdl\drivers\peripheral\smif/cy_smif.h **** *
1174:Generated_Source\PSoC6\pdl\drivers\peripheral\smif/cy_smif.h **** * \internal
1175:Generated_Source\PSoC6\pdl\drivers\peripheral\smif/cy_smif.h **** *
1176:Generated_Source\PSoC6\pdl\drivers\peripheral\smif/cy_smif.h **** * \param baseaddr
1177:Generated_Source\PSoC6\pdl\drivers\peripheral\smif/cy_smif.h **** * Holds the base address of the SMIF block registers.
1178:Generated_Source\PSoC6\pdl\drivers\peripheral\smif/cy_smif.h **** *
1179:Generated_Source\PSoC6\pdl\drivers\peripheral\smif/cy_smif.h **** * \param context
1180:Generated_Source\PSoC6\pdl\drivers\peripheral\smif/cy_smif.h **** * Passes a configuration structure that contains the transfer parameters of the
1181:Generated_Source\PSoC6\pdl\drivers\peripheral\smif/cy_smif.h **** * SMIF block.
1182:Generated_Source\PSoC6\pdl\drivers\peripheral\smif/cy_smif.h **** *
1183:Generated_Source\PSoC6\pdl\drivers\peripheral\smif/cy_smif.h **** * This function reads data from the RX FIFO SMIF buffer by 4, 2, or 1 bytes
1184:Generated_Source\PSoC6\pdl\drivers\peripheral\smif/cy_smif.h **** * based on the data availability in the RX FIFO and amount of bytes to be
1185:Generated_Source\PSoC6\pdl\drivers\peripheral\smif/cy_smif.h **** * received.
1186:Generated_Source\PSoC6\pdl\drivers\peripheral\smif/cy_smif.h **** *
1187:Generated_Source\PSoC6\pdl\drivers\peripheral\smif/cy_smif.h **** *******************************************************************************/
1188:Generated_Source\PSoC6\pdl\drivers\peripheral\smif/cy_smif.h **** __STATIC_INLINE void Cy_SMIF_PopRxFifo(SMIF_Type *baseaddr, cy_stc_smif_context_t *context)
1189:Generated_Source\PSoC6\pdl\drivers\peripheral\smif/cy_smif.h **** {
 596              		.loc 1 1189 0
 597              		.cfi_startproc
 598              		@ args = 0, pretend = 0, frame = 24
 599              		@ frame_needed = 1, uses_anonymous_args = 0
 600 0000 80B5     		push	{r7, lr}
 601              		.cfi_def_cfa_offset 8
 602              		.cfi_offset 7, -8
 603              		.cfi_offset 14, -4
 604 0002 86B0     		sub	sp, sp, #24
 605              		.cfi_def_cfa_offset 32
 606 0004 00AF     		add	r7, sp, #0
 607              		.cfi_def_cfa_register 7
 608 0006 7860     		str	r0, [r7, #4]
 609 0008 3960     		str	r1, [r7]
1190:Generated_Source\PSoC6\pdl\drivers\peripheral\smif/cy_smif.h ****     /* The variable that shows which is smaller: the free FIFO size or amount of bytes to be receiv
1191:Generated_Source\PSoC6\pdl\drivers\peripheral\smif/cy_smif.h ****     uint32_t readBytes;
1192:Generated_Source\PSoC6\pdl\drivers\peripheral\smif/cy_smif.h ****     uint32_t loadedFifoBytes;
1193:Generated_Source\PSoC6\pdl\drivers\peripheral\smif/cy_smif.h ****     uint32_t buffCounter = context->rxBufferCounter;
 610              		.loc 1 1193 0
 611 000a 3B68     		ldr	r3, [r7]
 612 000c 5B69     		ldr	r3, [r3, #20]
 613 000e 3B61     		str	r3, [r7, #16]
1194:Generated_Source\PSoC6\pdl\drivers\peripheral\smif/cy_smif.h ****     uint8_t *buff = (uint8_t*) context->rxBufferAddress;
 614              		.loc 1 1194 0
 615 0010 3B68     		ldr	r3, [r7]
 616 0012 DB68     		ldr	r3, [r3, #12]
 617 0014 FB60     		str	r3, [r7, #12]
1195:Generated_Source\PSoC6\pdl\drivers\peripheral\smif/cy_smif.h **** 
1196:Generated_Source\PSoC6\pdl\drivers\peripheral\smif/cy_smif.h ****     loadedFifoBytes = Cy_SMIF_GetRxFifoStatus(baseaddr);
 618              		.loc 1 1196 0
 619 0016 7868     		ldr	r0, [r7, #4]
 620 0018 FFF7FEFF 		bl	Cy_SMIF_GetRxFifoStatus
 621 001c B860     		str	r0, [r7, #8]
1197:Generated_Source\PSoC6\pdl\drivers\peripheral\smif/cy_smif.h ****     readBytes = (loadedFifoBytes > buffCounter)? buffCounter: loadedFifoBytes;
 622              		.loc 1 1197 0
 623 001e BA68     		ldr	r2, [r7, #8]
 624 0020 3B69     		ldr	r3, [r7, #16]
 625 0022 9342     		cmp	r3, r2
ARM GAS  C:\Users\ikomb\AppData\Local\Temp\ccEKz2Td.s 			page 33


 626 0024 28BF     		it	cs
 627 0026 1346     		movcs	r3, r2
 628 0028 7B61     		str	r3, [r7, #20]
1198:Generated_Source\PSoC6\pdl\drivers\peripheral\smif/cy_smif.h **** 
1199:Generated_Source\PSoC6\pdl\drivers\peripheral\smif/cy_smif.h ****     /* Check that after a FIFO Read, no new data is available */
1200:Generated_Source\PSoC6\pdl\drivers\peripheral\smif/cy_smif.h ****     while (0U != readBytes)
 629              		.loc 1 1200 0
 630 002a B2E0     		b	.L28
 631              	.L38:
1201:Generated_Source\PSoC6\pdl\drivers\peripheral\smif/cy_smif.h ****     {
1202:Generated_Source\PSoC6\pdl\drivers\peripheral\smif/cy_smif.h ****         if (readBytes == CY_SMIF_EIGHT_BYTES)
 632              		.loc 1 1202 0
 633 002c 7B69     		ldr	r3, [r7, #20]
 634 002e 082B     		cmp	r3, #8
 635 0030 11D1     		bne	.L29
1203:Generated_Source\PSoC6\pdl\drivers\peripheral\smif/cy_smif.h ****         {
1204:Generated_Source\PSoC6\pdl\drivers\peripheral\smif/cy_smif.h ****             Cy_SMIF_UnPackByteArray(baseaddr->RX_DATA_FIFO_RD4, &buff[0U], true);
 636              		.loc 1 1204 0
 637 0032 7B68     		ldr	r3, [r7, #4]
 638 0034 D3F8D830 		ldr	r3, [r3, #216]
 639 0038 0122     		movs	r2, #1
 640 003a F968     		ldr	r1, [r7, #12]
 641 003c 1846     		mov	r0, r3
 642 003e FFF7FEFF 		bl	Cy_SMIF_UnPackByteArray
1205:Generated_Source\PSoC6\pdl\drivers\peripheral\smif/cy_smif.h ****             Cy_SMIF_UnPackByteArray(baseaddr->RX_DATA_FIFO_RD4, &buff[4U], true);
 643              		.loc 1 1205 0
 644 0042 7B68     		ldr	r3, [r7, #4]
 645 0044 D3F8D800 		ldr	r0, [r3, #216]
 646 0048 FB68     		ldr	r3, [r7, #12]
 647 004a 0433     		adds	r3, r3, #4
 648 004c 0122     		movs	r2, #1
 649 004e 1946     		mov	r1, r3
 650 0050 FFF7FEFF 		bl	Cy_SMIF_UnPackByteArray
 651 0054 8BE0     		b	.L30
 652              	.L29:
1206:Generated_Source\PSoC6\pdl\drivers\peripheral\smif/cy_smif.h ****         }
1207:Generated_Source\PSoC6\pdl\drivers\peripheral\smif/cy_smif.h ****         else if(readBytes == CY_SMIF_ONE_BYTE)
 653              		.loc 1 1207 0
 654 0056 7B69     		ldr	r3, [r7, #20]
 655 0058 012B     		cmp	r3, #1
 656 005a 06D1     		bne	.L31
1208:Generated_Source\PSoC6\pdl\drivers\peripheral\smif/cy_smif.h ****         {
1209:Generated_Source\PSoC6\pdl\drivers\peripheral\smif/cy_smif.h ****             buff[0U] = (uint8_t)baseaddr->RX_DATA_FIFO_RD1;
 657              		.loc 1 1209 0
 658 005c 7B68     		ldr	r3, [r7, #4]
 659 005e D3F8D030 		ldr	r3, [r3, #208]
 660 0062 DAB2     		uxtb	r2, r3
 661 0064 FB68     		ldr	r3, [r7, #12]
 662 0066 1A70     		strb	r2, [r3]
 663 0068 81E0     		b	.L30
 664              	.L31:
1210:Generated_Source\PSoC6\pdl\drivers\peripheral\smif/cy_smif.h ****         }
1211:Generated_Source\PSoC6\pdl\drivers\peripheral\smif/cy_smif.h ****         else if(readBytes == CY_SMIF_TWO_BYTES)
 665              		.loc 1 1211 0
 666 006a 7B69     		ldr	r3, [r7, #20]
 667 006c 022B     		cmp	r3, #2
 668 006e 08D1     		bne	.L32
ARM GAS  C:\Users\ikomb\AppData\Local\Temp\ccEKz2Td.s 			page 34


1212:Generated_Source\PSoC6\pdl\drivers\peripheral\smif/cy_smif.h ****         {
1213:Generated_Source\PSoC6\pdl\drivers\peripheral\smif/cy_smif.h ****             Cy_SMIF_UnPackByteArray(baseaddr->RX_DATA_FIFO_RD2, &buff[0U], false);
 669              		.loc 1 1213 0
 670 0070 7B68     		ldr	r3, [r7, #4]
 671 0072 D3F8D430 		ldr	r3, [r3, #212]
 672 0076 0022     		movs	r2, #0
 673 0078 F968     		ldr	r1, [r7, #12]
 674 007a 1846     		mov	r0, r3
 675 007c FFF7FEFF 		bl	Cy_SMIF_UnPackByteArray
 676 0080 75E0     		b	.L30
 677              	.L32:
1214:Generated_Source\PSoC6\pdl\drivers\peripheral\smif/cy_smif.h ****         }
1215:Generated_Source\PSoC6\pdl\drivers\peripheral\smif/cy_smif.h ****         else if(readBytes == CY_SMIF_THREE_BYTES)
 678              		.loc 1 1215 0
 679 0082 7B69     		ldr	r3, [r7, #20]
 680 0084 032B     		cmp	r3, #3
 681 0086 0FD1     		bne	.L33
1216:Generated_Source\PSoC6\pdl\drivers\peripheral\smif/cy_smif.h ****         {
1217:Generated_Source\PSoC6\pdl\drivers\peripheral\smif/cy_smif.h ****             Cy_SMIF_UnPackByteArray(baseaddr->RX_DATA_FIFO_RD2, &buff[0U], false);
 682              		.loc 1 1217 0
 683 0088 7B68     		ldr	r3, [r7, #4]
 684 008a D3F8D430 		ldr	r3, [r3, #212]
 685 008e 0022     		movs	r2, #0
 686 0090 F968     		ldr	r1, [r7, #12]
 687 0092 1846     		mov	r0, r3
 688 0094 FFF7FEFF 		bl	Cy_SMIF_UnPackByteArray
1218:Generated_Source\PSoC6\pdl\drivers\peripheral\smif/cy_smif.h ****             buff[2U] = (uint8_t)baseaddr->RX_DATA_FIFO_RD1;
 689              		.loc 1 1218 0
 690 0098 FB68     		ldr	r3, [r7, #12]
 691 009a 0233     		adds	r3, r3, #2
 692 009c 7A68     		ldr	r2, [r7, #4]
 693 009e D2F8D020 		ldr	r2, [r2, #208]
 694 00a2 D2B2     		uxtb	r2, r2
 695 00a4 1A70     		strb	r2, [r3]
 696 00a6 62E0     		b	.L30
 697              	.L33:
1219:Generated_Source\PSoC6\pdl\drivers\peripheral\smif/cy_smif.h ****         }
1220:Generated_Source\PSoC6\pdl\drivers\peripheral\smif/cy_smif.h ****         else if(readBytes == CY_SMIF_FOUR_BYTES)
 698              		.loc 1 1220 0
 699 00a8 7B69     		ldr	r3, [r7, #20]
 700 00aa 042B     		cmp	r3, #4
 701 00ac 08D1     		bne	.L34
1221:Generated_Source\PSoC6\pdl\drivers\peripheral\smif/cy_smif.h ****         {
1222:Generated_Source\PSoC6\pdl\drivers\peripheral\smif/cy_smif.h ****             Cy_SMIF_UnPackByteArray(baseaddr->RX_DATA_FIFO_RD4, &buff[0U], true);
 702              		.loc 1 1222 0
 703 00ae 7B68     		ldr	r3, [r7, #4]
 704 00b0 D3F8D830 		ldr	r3, [r3, #216]
 705 00b4 0122     		movs	r2, #1
 706 00b6 F968     		ldr	r1, [r7, #12]
 707 00b8 1846     		mov	r0, r3
 708 00ba FFF7FEFF 		bl	Cy_SMIF_UnPackByteArray
 709 00be 56E0     		b	.L30
 710              	.L34:
1223:Generated_Source\PSoC6\pdl\drivers\peripheral\smif/cy_smif.h ****         }
1224:Generated_Source\PSoC6\pdl\drivers\peripheral\smif/cy_smif.h ****         else if(readBytes == CY_SMIF_FIVE_BYTES)
 711              		.loc 1 1224 0
 712 00c0 7B69     		ldr	r3, [r7, #20]
ARM GAS  C:\Users\ikomb\AppData\Local\Temp\ccEKz2Td.s 			page 35


 713 00c2 052B     		cmp	r3, #5
 714 00c4 0FD1     		bne	.L35
1225:Generated_Source\PSoC6\pdl\drivers\peripheral\smif/cy_smif.h ****         {
1226:Generated_Source\PSoC6\pdl\drivers\peripheral\smif/cy_smif.h ****             Cy_SMIF_UnPackByteArray(baseaddr->RX_DATA_FIFO_RD4, &buff[0U], true);
 715              		.loc 1 1226 0
 716 00c6 7B68     		ldr	r3, [r7, #4]
 717 00c8 D3F8D830 		ldr	r3, [r3, #216]
 718 00cc 0122     		movs	r2, #1
 719 00ce F968     		ldr	r1, [r7, #12]
 720 00d0 1846     		mov	r0, r3
 721 00d2 FFF7FEFF 		bl	Cy_SMIF_UnPackByteArray
1227:Generated_Source\PSoC6\pdl\drivers\peripheral\smif/cy_smif.h ****             buff[4U] = (uint8_t)baseaddr->RX_DATA_FIFO_RD1;
 722              		.loc 1 1227 0
 723 00d6 FB68     		ldr	r3, [r7, #12]
 724 00d8 0433     		adds	r3, r3, #4
 725 00da 7A68     		ldr	r2, [r7, #4]
 726 00dc D2F8D020 		ldr	r2, [r2, #208]
 727 00e0 D2B2     		uxtb	r2, r2
 728 00e2 1A70     		strb	r2, [r3]
 729 00e4 43E0     		b	.L30
 730              	.L35:
1228:Generated_Source\PSoC6\pdl\drivers\peripheral\smif/cy_smif.h ****         }
1229:Generated_Source\PSoC6\pdl\drivers\peripheral\smif/cy_smif.h ****         else if(readBytes == CY_SMIF_SIX_BYTES)
 731              		.loc 1 1229 0
 732 00e6 7B69     		ldr	r3, [r7, #20]
 733 00e8 062B     		cmp	r3, #6
 734 00ea 11D1     		bne	.L36
1230:Generated_Source\PSoC6\pdl\drivers\peripheral\smif/cy_smif.h ****         {
1231:Generated_Source\PSoC6\pdl\drivers\peripheral\smif/cy_smif.h ****             Cy_SMIF_UnPackByteArray(baseaddr->RX_DATA_FIFO_RD4, &buff[0U], true);
 735              		.loc 1 1231 0
 736 00ec 7B68     		ldr	r3, [r7, #4]
 737 00ee D3F8D830 		ldr	r3, [r3, #216]
 738 00f2 0122     		movs	r2, #1
 739 00f4 F968     		ldr	r1, [r7, #12]
 740 00f6 1846     		mov	r0, r3
 741 00f8 FFF7FEFF 		bl	Cy_SMIF_UnPackByteArray
1232:Generated_Source\PSoC6\pdl\drivers\peripheral\smif/cy_smif.h ****             Cy_SMIF_UnPackByteArray(baseaddr->RX_DATA_FIFO_RD2, &buff[4U], false);
 742              		.loc 1 1232 0
 743 00fc 7B68     		ldr	r3, [r7, #4]
 744 00fe D3F8D400 		ldr	r0, [r3, #212]
 745 0102 FB68     		ldr	r3, [r7, #12]
 746 0104 0433     		adds	r3, r3, #4
 747 0106 0022     		movs	r2, #0
 748 0108 1946     		mov	r1, r3
 749 010a FFF7FEFF 		bl	Cy_SMIF_UnPackByteArray
 750 010e 2EE0     		b	.L30
 751              	.L36:
1233:Generated_Source\PSoC6\pdl\drivers\peripheral\smif/cy_smif.h ****         }
1234:Generated_Source\PSoC6\pdl\drivers\peripheral\smif/cy_smif.h ****         else if(readBytes == CY_SMIF_SEVEN_BYTES)
 752              		.loc 1 1234 0
 753 0110 7B69     		ldr	r3, [r7, #20]
 754 0112 072B     		cmp	r3, #7
 755 0114 18D1     		bne	.L37
1235:Generated_Source\PSoC6\pdl\drivers\peripheral\smif/cy_smif.h ****         {
1236:Generated_Source\PSoC6\pdl\drivers\peripheral\smif/cy_smif.h ****             Cy_SMIF_UnPackByteArray(baseaddr->RX_DATA_FIFO_RD4, &buff[0U], true);
 756              		.loc 1 1236 0
 757 0116 7B68     		ldr	r3, [r7, #4]
ARM GAS  C:\Users\ikomb\AppData\Local\Temp\ccEKz2Td.s 			page 36


 758 0118 D3F8D830 		ldr	r3, [r3, #216]
 759 011c 0122     		movs	r2, #1
 760 011e F968     		ldr	r1, [r7, #12]
 761 0120 1846     		mov	r0, r3
 762 0122 FFF7FEFF 		bl	Cy_SMIF_UnPackByteArray
1237:Generated_Source\PSoC6\pdl\drivers\peripheral\smif/cy_smif.h ****             Cy_SMIF_UnPackByteArray(baseaddr->RX_DATA_FIFO_RD2, &buff[4U], false);
 763              		.loc 1 1237 0
 764 0126 7B68     		ldr	r3, [r7, #4]
 765 0128 D3F8D400 		ldr	r0, [r3, #212]
 766 012c FB68     		ldr	r3, [r7, #12]
 767 012e 0433     		adds	r3, r3, #4
 768 0130 0022     		movs	r2, #0
 769 0132 1946     		mov	r1, r3
 770 0134 FFF7FEFF 		bl	Cy_SMIF_UnPackByteArray
1238:Generated_Source\PSoC6\pdl\drivers\peripheral\smif/cy_smif.h ****             buff[6U] = (uint8_t)baseaddr->RX_DATA_FIFO_RD1;
 771              		.loc 1 1238 0
 772 0138 FB68     		ldr	r3, [r7, #12]
 773 013a 0633     		adds	r3, r3, #6
 774 013c 7A68     		ldr	r2, [r7, #4]
 775 013e D2F8D020 		ldr	r2, [r2, #208]
 776 0142 D2B2     		uxtb	r2, r2
 777 0144 1A70     		strb	r2, [r3]
 778 0146 12E0     		b	.L30
 779              	.L37:
1239:Generated_Source\PSoC6\pdl\drivers\peripheral\smif/cy_smif.h ****         }
1240:Generated_Source\PSoC6\pdl\drivers\peripheral\smif/cy_smif.h ****         else /* The IP block FIFO > 8*/
1241:Generated_Source\PSoC6\pdl\drivers\peripheral\smif/cy_smif.h ****         {
1242:Generated_Source\PSoC6\pdl\drivers\peripheral\smif/cy_smif.h ****             Cy_SMIF_UnPackByteArray(baseaddr->RX_DATA_FIFO_RD4, &buff[0U], true);
 780              		.loc 1 1242 0
 781 0148 7B68     		ldr	r3, [r7, #4]
 782 014a D3F8D830 		ldr	r3, [r3, #216]
 783 014e 0122     		movs	r2, #1
 784 0150 F968     		ldr	r1, [r7, #12]
 785 0152 1846     		mov	r0, r3
 786 0154 FFF7FEFF 		bl	Cy_SMIF_UnPackByteArray
1243:Generated_Source\PSoC6\pdl\drivers\peripheral\smif/cy_smif.h ****             Cy_SMIF_UnPackByteArray(baseaddr->RX_DATA_FIFO_RD4, &buff[4U], true);
 787              		.loc 1 1243 0
 788 0158 7B68     		ldr	r3, [r7, #4]
 789 015a D3F8D800 		ldr	r0, [r3, #216]
 790 015e FB68     		ldr	r3, [r7, #12]
 791 0160 0433     		adds	r3, r3, #4
 792 0162 0122     		movs	r2, #1
 793 0164 1946     		mov	r1, r3
 794 0166 FFF7FEFF 		bl	Cy_SMIF_UnPackByteArray
1244:Generated_Source\PSoC6\pdl\drivers\peripheral\smif/cy_smif.h ****             readBytes = CY_SMIF_EIGHT_BYTES;
 795              		.loc 1 1244 0
 796 016a 0823     		movs	r3, #8
 797 016c 7B61     		str	r3, [r7, #20]
 798              	.L30:
1245:Generated_Source\PSoC6\pdl\drivers\peripheral\smif/cy_smif.h ****         }
1246:Generated_Source\PSoC6\pdl\drivers\peripheral\smif/cy_smif.h **** 
1247:Generated_Source\PSoC6\pdl\drivers\peripheral\smif/cy_smif.h ****         buff = &buff[readBytes];
 799              		.loc 1 1247 0
 800 016e FA68     		ldr	r2, [r7, #12]
 801 0170 7B69     		ldr	r3, [r7, #20]
 802 0172 1344     		add	r3, r3, r2
 803 0174 FB60     		str	r3, [r7, #12]
ARM GAS  C:\Users\ikomb\AppData\Local\Temp\ccEKz2Td.s 			page 37


1248:Generated_Source\PSoC6\pdl\drivers\peripheral\smif/cy_smif.h ****         buffCounter -= readBytes;
 804              		.loc 1 1248 0
 805 0176 3A69     		ldr	r2, [r7, #16]
 806 0178 7B69     		ldr	r3, [r7, #20]
 807 017a D31A     		subs	r3, r2, r3
 808 017c 3B61     		str	r3, [r7, #16]
1249:Generated_Source\PSoC6\pdl\drivers\peripheral\smif/cy_smif.h ****         /* Check if we already got new data in RX_FIFO*/
1250:Generated_Source\PSoC6\pdl\drivers\peripheral\smif/cy_smif.h ****         loadedFifoBytes = Cy_SMIF_GetRxFifoStatus(baseaddr);
 809              		.loc 1 1250 0
 810 017e 7868     		ldr	r0, [r7, #4]
 811 0180 FFF7FEFF 		bl	Cy_SMIF_GetRxFifoStatus
 812 0184 B860     		str	r0, [r7, #8]
1251:Generated_Source\PSoC6\pdl\drivers\peripheral\smif/cy_smif.h ****         readBytes = (loadedFifoBytes > buffCounter)? buffCounter: loadedFifoBytes;
 813              		.loc 1 1251 0
 814 0186 BA68     		ldr	r2, [r7, #8]
 815 0188 3B69     		ldr	r3, [r7, #16]
 816 018a 9342     		cmp	r3, r2
 817 018c 28BF     		it	cs
 818 018e 1346     		movcs	r3, r2
 819 0190 7B61     		str	r3, [r7, #20]
 820              	.L28:
1200:Generated_Source\PSoC6\pdl\drivers\peripheral\smif/cy_smif.h ****     {
 821              		.loc 1 1200 0
 822 0192 7B69     		ldr	r3, [r7, #20]
 823 0194 002B     		cmp	r3, #0
 824 0196 7FF449AF 		bne	.L38
1252:Generated_Source\PSoC6\pdl\drivers\peripheral\smif/cy_smif.h ****     }
1253:Generated_Source\PSoC6\pdl\drivers\peripheral\smif/cy_smif.h **** 
1254:Generated_Source\PSoC6\pdl\drivers\peripheral\smif/cy_smif.h ****     /* Save changes in the context */
1255:Generated_Source\PSoC6\pdl\drivers\peripheral\smif/cy_smif.h ****     context->rxBufferAddress = buff;
 825              		.loc 1 1255 0
 826 019a 3B68     		ldr	r3, [r7]
 827 019c FA68     		ldr	r2, [r7, #12]
 828 019e DA60     		str	r2, [r3, #12]
1256:Generated_Source\PSoC6\pdl\drivers\peripheral\smif/cy_smif.h ****     context->rxBufferCounter = buffCounter;
 829              		.loc 1 1256 0
 830 01a0 3B68     		ldr	r3, [r7]
 831 01a2 3A69     		ldr	r2, [r7, #16]
 832 01a4 5A61     		str	r2, [r3, #20]
1257:Generated_Source\PSoC6\pdl\drivers\peripheral\smif/cy_smif.h **** 
1258:Generated_Source\PSoC6\pdl\drivers\peripheral\smif/cy_smif.h ****     /* Check if all bytes are received */
1259:Generated_Source\PSoC6\pdl\drivers\peripheral\smif/cy_smif.h ****     if (0UL == buffCounter)
 833              		.loc 1 1259 0
 834 01a6 3B69     		ldr	r3, [r7, #16]
 835 01a8 002B     		cmp	r3, #0
 836 01aa 14D1     		bne	.L39
1260:Generated_Source\PSoC6\pdl\drivers\peripheral\smif/cy_smif.h ****     {
1261:Generated_Source\PSoC6\pdl\drivers\peripheral\smif/cy_smif.h ****         /* Disable the TR_RX_REQ interrupt */
1262:Generated_Source\PSoC6\pdl\drivers\peripheral\smif/cy_smif.h ****         Cy_SMIF_SetInterruptMask(baseaddr,
1263:Generated_Source\PSoC6\pdl\drivers\peripheral\smif/cy_smif.h ****             Cy_SMIF_GetInterruptMask(baseaddr) & ~SMIF_INTR_TR_RX_REQ_Msk);
 837              		.loc 1 1263 0
 838 01ac 7868     		ldr	r0, [r7, #4]
 839 01ae FFF7FEFF 		bl	Cy_SMIF_GetInterruptMask
 840 01b2 0346     		mov	r3, r0
1262:Generated_Source\PSoC6\pdl\drivers\peripheral\smif/cy_smif.h ****             Cy_SMIF_GetInterruptMask(baseaddr) & ~SMIF_INTR_TR_RX_REQ_Msk);
 841              		.loc 1 1262 0
 842 01b4 23F00203 		bic	r3, r3, #2
ARM GAS  C:\Users\ikomb\AppData\Local\Temp\ccEKz2Td.s 			page 38


 843 01b8 1946     		mov	r1, r3
 844 01ba 7868     		ldr	r0, [r7, #4]
 845 01bc FFF7FEFF 		bl	Cy_SMIF_SetInterruptMask
1264:Generated_Source\PSoC6\pdl\drivers\peripheral\smif/cy_smif.h ****         context->transferStatus = (uint32_t) CY_SMIF_REC_CMPLT;
 846              		.loc 1 1264 0
 847 01c0 3B68     		ldr	r3, [r7]
 848 01c2 0322     		movs	r2, #3
 849 01c4 9A61     		str	r2, [r3, #24]
1265:Generated_Source\PSoC6\pdl\drivers\peripheral\smif/cy_smif.h ****         if (NULL != context->rxCmpltCb)
 850              		.loc 1 1265 0
 851 01c6 3B68     		ldr	r3, [r7]
 852 01c8 1B6A     		ldr	r3, [r3, #32]
 853 01ca 002B     		cmp	r3, #0
 854 01cc 03D0     		beq	.L39
1266:Generated_Source\PSoC6\pdl\drivers\peripheral\smif/cy_smif.h ****         {
1267:Generated_Source\PSoC6\pdl\drivers\peripheral\smif/cy_smif.h ****             context->rxCmpltCb((uint32_t) CY_SMIF_REC_CMPLT);
 855              		.loc 1 1267 0
 856 01ce 3B68     		ldr	r3, [r7]
 857 01d0 1B6A     		ldr	r3, [r3, #32]
 858 01d2 0320     		movs	r0, #3
 859 01d4 9847     		blx	r3
 860              	.L39:
1268:Generated_Source\PSoC6\pdl\drivers\peripheral\smif/cy_smif.h ****         }
1269:Generated_Source\PSoC6\pdl\drivers\peripheral\smif/cy_smif.h ****     }
1270:Generated_Source\PSoC6\pdl\drivers\peripheral\smif/cy_smif.h **** 
1271:Generated_Source\PSoC6\pdl\drivers\peripheral\smif/cy_smif.h ****     context->rxBufferCounter = buffCounter;
 861              		.loc 1 1271 0
 862 01d6 3B68     		ldr	r3, [r7]
 863 01d8 3A69     		ldr	r2, [r7, #16]
 864 01da 5A61     		str	r2, [r3, #20]
1272:Generated_Source\PSoC6\pdl\drivers\peripheral\smif/cy_smif.h **** }
 865              		.loc 1 1272 0
 866 01dc 00BF     		nop
 867 01de 1837     		adds	r7, r7, #24
 868              		.cfi_def_cfa_offset 8
 869 01e0 BD46     		mov	sp, r7
 870              		.cfi_def_cfa_register 13
 871              		@ sp needed
 872 01e2 80BD     		pop	{r7, pc}
 873              		.cfi_endproc
 874              	.LFE173:
 875              		.size	Cy_SMIF_PopRxFifo, .-Cy_SMIF_PopRxFifo
 876              		.section	.text.Cy_SMIF_PackBytesArray,"ax",%progbits
 877              		.align	2
 878              		.thumb
 879              		.thumb_func
 880              		.type	Cy_SMIF_PackBytesArray, %function
 881              	Cy_SMIF_PackBytesArray:
 882              	.LFB174:
1273:Generated_Source\PSoC6\pdl\drivers\peripheral\smif/cy_smif.h **** 
1274:Generated_Source\PSoC6\pdl\drivers\peripheral\smif/cy_smif.h **** 
1275:Generated_Source\PSoC6\pdl\drivers\peripheral\smif/cy_smif.h **** /*******************************************************************************
1276:Generated_Source\PSoC6\pdl\drivers\peripheral\smif/cy_smif.h **** * Function Name: Cy_SMIF_PackBytesArray
1277:Generated_Source\PSoC6\pdl\drivers\peripheral\smif/cy_smif.h **** ***************************************************************************//***
1278:Generated_Source\PSoC6\pdl\drivers\peripheral\smif/cy_smif.h **** *
1279:Generated_Source\PSoC6\pdl\drivers\peripheral\smif/cy_smif.h **** * \internal
1280:Generated_Source\PSoC6\pdl\drivers\peripheral\smif/cy_smif.h **** *
ARM GAS  C:\Users\ikomb\AppData\Local\Temp\ccEKz2Td.s 			page 39


1281:Generated_Source\PSoC6\pdl\drivers\peripheral\smif/cy_smif.h **** * This function packs 0-numBytes of the buff byte array into a 4-byte value.
1282:Generated_Source\PSoC6\pdl\drivers\peripheral\smif/cy_smif.h **** *
1283:Generated_Source\PSoC6\pdl\drivers\peripheral\smif/cy_smif.h **** * \param buff
1284:Generated_Source\PSoC6\pdl\drivers\peripheral\smif/cy_smif.h **** * The byte array to pack.
1285:Generated_Source\PSoC6\pdl\drivers\peripheral\smif/cy_smif.h **** *
1286:Generated_Source\PSoC6\pdl\drivers\peripheral\smif/cy_smif.h **** * \param fourBytes
1287:Generated_Source\PSoC6\pdl\drivers\peripheral\smif/cy_smif.h **** *  - The True pack is for a 32-bit value.
1288:Generated_Source\PSoC6\pdl\drivers\peripheral\smif/cy_smif.h **** *  - The False pack is for a 16-bit value.
1289:Generated_Source\PSoC6\pdl\drivers\peripheral\smif/cy_smif.h **** *
1290:Generated_Source\PSoC6\pdl\drivers\peripheral\smif/cy_smif.h **** * \return
1291:Generated_Source\PSoC6\pdl\drivers\peripheral\smif/cy_smif.h **** *  The 4-byte value packed from the byte array.
1292:Generated_Source\PSoC6\pdl\drivers\peripheral\smif/cy_smif.h **** *
1293:Generated_Source\PSoC6\pdl\drivers\peripheral\smif/cy_smif.h **** *******************************************************************************/
1294:Generated_Source\PSoC6\pdl\drivers\peripheral\smif/cy_smif.h **** __STATIC_INLINE uint32_t Cy_SMIF_PackBytesArray(uint8_t const buff[], bool fourBytes)
1295:Generated_Source\PSoC6\pdl\drivers\peripheral\smif/cy_smif.h **** {
 883              		.loc 1 1295 0
 884              		.cfi_startproc
 885              		@ args = 0, pretend = 0, frame = 16
 886              		@ frame_needed = 1, uses_anonymous_args = 0
 887              		@ link register save eliminated.
 888 0000 80B4     		push	{r7}
 889              		.cfi_def_cfa_offset 4
 890              		.cfi_offset 7, -4
 891 0002 85B0     		sub	sp, sp, #20
 892              		.cfi_def_cfa_offset 24
 893 0004 00AF     		add	r7, sp, #0
 894              		.cfi_def_cfa_register 7
 895 0006 7860     		str	r0, [r7, #4]
 896 0008 0B46     		mov	r3, r1
 897 000a FB70     		strb	r3, [r7, #3]
1296:Generated_Source\PSoC6\pdl\drivers\peripheral\smif/cy_smif.h ****     uint32_t result = 0UL;
 898              		.loc 1 1296 0
 899 000c 0023     		movs	r3, #0
 900 000e FB60     		str	r3, [r7, #12]
1297:Generated_Source\PSoC6\pdl\drivers\peripheral\smif/cy_smif.h **** 
1298:Generated_Source\PSoC6\pdl\drivers\peripheral\smif/cy_smif.h ****     result = ((uint32_t)buff[1UL] << 8UL) | (uint32_t)buff[0UL];
 901              		.loc 1 1298 0
 902 0010 7B68     		ldr	r3, [r7, #4]
 903 0012 0133     		adds	r3, r3, #1
 904 0014 1B78     		ldrb	r3, [r3]	@ zero_extendqisi2
 905 0016 1B02     		lsls	r3, r3, #8
 906 0018 7A68     		ldr	r2, [r7, #4]
 907 001a 1278     		ldrb	r2, [r2]	@ zero_extendqisi2
 908 001c 1343     		orrs	r3, r3, r2
 909 001e FB60     		str	r3, [r7, #12]
1299:Generated_Source\PSoC6\pdl\drivers\peripheral\smif/cy_smif.h **** 
1300:Generated_Source\PSoC6\pdl\drivers\peripheral\smif/cy_smif.h ****     if(fourBytes)
 910              		.loc 1 1300 0
 911 0020 FB78     		ldrb	r3, [r7, #3]	@ zero_extendqisi2
 912 0022 002B     		cmp	r3, #0
 913 0024 0BD0     		beq	.L41
1301:Generated_Source\PSoC6\pdl\drivers\peripheral\smif/cy_smif.h ****     {
1302:Generated_Source\PSoC6\pdl\drivers\peripheral\smif/cy_smif.h ****         result |= ((uint32_t)buff[3UL] << 24UL) | ((uint32_t)buff[2UL] << 16UL);
 914              		.loc 1 1302 0
 915 0026 7B68     		ldr	r3, [r7, #4]
 916 0028 0333     		adds	r3, r3, #3
 917 002a 1B78     		ldrb	r3, [r3]	@ zero_extendqisi2
ARM GAS  C:\Users\ikomb\AppData\Local\Temp\ccEKz2Td.s 			page 40


 918 002c 1A06     		lsls	r2, r3, #24
 919 002e 7B68     		ldr	r3, [r7, #4]
 920 0030 0233     		adds	r3, r3, #2
 921 0032 1B78     		ldrb	r3, [r3]	@ zero_extendqisi2
 922 0034 1B04     		lsls	r3, r3, #16
 923 0036 1343     		orrs	r3, r3, r2
 924 0038 FA68     		ldr	r2, [r7, #12]
 925 003a 1343     		orrs	r3, r3, r2
 926 003c FB60     		str	r3, [r7, #12]
 927              	.L41:
1303:Generated_Source\PSoC6\pdl\drivers\peripheral\smif/cy_smif.h ****     }
1304:Generated_Source\PSoC6\pdl\drivers\peripheral\smif/cy_smif.h **** 
1305:Generated_Source\PSoC6\pdl\drivers\peripheral\smif/cy_smif.h ****     return result;
 928              		.loc 1 1305 0
 929 003e FB68     		ldr	r3, [r7, #12]
1306:Generated_Source\PSoC6\pdl\drivers\peripheral\smif/cy_smif.h **** }
 930              		.loc 1 1306 0
 931 0040 1846     		mov	r0, r3
 932 0042 1437     		adds	r7, r7, #20
 933              		.cfi_def_cfa_offset 4
 934 0044 BD46     		mov	sp, r7
 935              		.cfi_def_cfa_register 13
 936              		@ sp needed
 937 0046 5DF8047B 		ldr	r7, [sp], #4
 938              		.cfi_restore 7
 939              		.cfi_def_cfa_offset 0
 940 004a 7047     		bx	lr
 941              		.cfi_endproc
 942              	.LFE174:
 943              		.size	Cy_SMIF_PackBytesArray, .-Cy_SMIF_PackBytesArray
 944              		.section	.text.Cy_SMIF_UnPackByteArray,"ax",%progbits
 945              		.align	2
 946              		.thumb
 947              		.thumb_func
 948              		.type	Cy_SMIF_UnPackByteArray, %function
 949              	Cy_SMIF_UnPackByteArray:
 950              	.LFB175:
1307:Generated_Source\PSoC6\pdl\drivers\peripheral\smif/cy_smif.h **** 
1308:Generated_Source\PSoC6\pdl\drivers\peripheral\smif/cy_smif.h **** 
1309:Generated_Source\PSoC6\pdl\drivers\peripheral\smif/cy_smif.h **** /*******************************************************************************
1310:Generated_Source\PSoC6\pdl\drivers\peripheral\smif/cy_smif.h **** * Function Name: Cy_SMIF_UnPackByteArray
1311:Generated_Source\PSoC6\pdl\drivers\peripheral\smif/cy_smif.h **** ***************************************************************************//***
1312:Generated_Source\PSoC6\pdl\drivers\peripheral\smif/cy_smif.h **** *
1313:Generated_Source\PSoC6\pdl\drivers\peripheral\smif/cy_smif.h **** * \internal
1314:Generated_Source\PSoC6\pdl\drivers\peripheral\smif/cy_smif.h **** *
1315:Generated_Source\PSoC6\pdl\drivers\peripheral\smif/cy_smif.h **** * This function unpacks 0-numBytes from a 4-byte value into the byte array outBuff.
1316:Generated_Source\PSoC6\pdl\drivers\peripheral\smif/cy_smif.h **** *
1317:Generated_Source\PSoC6\pdl\drivers\peripheral\smif/cy_smif.h **** * \param smifReg
1318:Generated_Source\PSoC6\pdl\drivers\peripheral\smif/cy_smif.h **** *  The 4-byte value to unpack.
1319:Generated_Source\PSoC6\pdl\drivers\peripheral\smif/cy_smif.h **** *
1320:Generated_Source\PSoC6\pdl\drivers\peripheral\smif/cy_smif.h **** * \param outBuff
1321:Generated_Source\PSoC6\pdl\drivers\peripheral\smif/cy_smif.h **** * The byte array to fill.
1322:Generated_Source\PSoC6\pdl\drivers\peripheral\smif/cy_smif.h **** *
1323:Generated_Source\PSoC6\pdl\drivers\peripheral\smif/cy_smif.h **** * \param fourBytes
1324:Generated_Source\PSoC6\pdl\drivers\peripheral\smif/cy_smif.h **** *  - The True unpack is for a 32-bit value.
1325:Generated_Source\PSoC6\pdl\drivers\peripheral\smif/cy_smif.h **** *  - The False unpack is for a 16-bit value.
1326:Generated_Source\PSoC6\pdl\drivers\peripheral\smif/cy_smif.h **** *
ARM GAS  C:\Users\ikomb\AppData\Local\Temp\ccEKz2Td.s 			page 41


1327:Generated_Source\PSoC6\pdl\drivers\peripheral\smif/cy_smif.h **** *******************************************************************************/
1328:Generated_Source\PSoC6\pdl\drivers\peripheral\smif/cy_smif.h **** __STATIC_INLINE void Cy_SMIF_UnPackByteArray(uint32_t inValue, uint8_t outBuff[], bool fourBytes)
1329:Generated_Source\PSoC6\pdl\drivers\peripheral\smif/cy_smif.h **** {
 951              		.loc 1 1329 0
 952              		.cfi_startproc
 953              		@ args = 0, pretend = 0, frame = 16
 954              		@ frame_needed = 1, uses_anonymous_args = 0
 955              		@ link register save eliminated.
 956 0000 80B4     		push	{r7}
 957              		.cfi_def_cfa_offset 4
 958              		.cfi_offset 7, -4
 959 0002 85B0     		sub	sp, sp, #20
 960              		.cfi_def_cfa_offset 24
 961 0004 00AF     		add	r7, sp, #0
 962              		.cfi_def_cfa_register 7
 963 0006 F860     		str	r0, [r7, #12]
 964 0008 B960     		str	r1, [r7, #8]
 965 000a 1346     		mov	r3, r2
 966 000c FB71     		strb	r3, [r7, #7]
1330:Generated_Source\PSoC6\pdl\drivers\peripheral\smif/cy_smif.h ****     outBuff[0UL] = (uint8_t)(inValue & 0xFFUL);
 967              		.loc 1 1330 0
 968 000e FB68     		ldr	r3, [r7, #12]
 969 0010 DAB2     		uxtb	r2, r3
 970 0012 BB68     		ldr	r3, [r7, #8]
 971 0014 1A70     		strb	r2, [r3]
1331:Generated_Source\PSoC6\pdl\drivers\peripheral\smif/cy_smif.h ****     outBuff[1UL] = (uint8_t)((inValue >> 8UL ) & 0xFFUL);
 972              		.loc 1 1331 0
 973 0016 BB68     		ldr	r3, [r7, #8]
 974 0018 0133     		adds	r3, r3, #1
 975 001a FA68     		ldr	r2, [r7, #12]
 976 001c 120A     		lsrs	r2, r2, #8
 977 001e D2B2     		uxtb	r2, r2
 978 0020 1A70     		strb	r2, [r3]
1332:Generated_Source\PSoC6\pdl\drivers\peripheral\smif/cy_smif.h **** 
1333:Generated_Source\PSoC6\pdl\drivers\peripheral\smif/cy_smif.h ****     if(fourBytes)
 979              		.loc 1 1333 0
 980 0022 FB79     		ldrb	r3, [r7, #7]	@ zero_extendqisi2
 981 0024 002B     		cmp	r3, #0
 982 0026 0BD0     		beq	.L45
1334:Generated_Source\PSoC6\pdl\drivers\peripheral\smif/cy_smif.h ****     {
1335:Generated_Source\PSoC6\pdl\drivers\peripheral\smif/cy_smif.h ****         outBuff[2UL] = (uint8_t)((inValue >> 16UL) & 0xFFUL);
 983              		.loc 1 1335 0
 984 0028 BB68     		ldr	r3, [r7, #8]
 985 002a 0233     		adds	r3, r3, #2
 986 002c FA68     		ldr	r2, [r7, #12]
 987 002e 120C     		lsrs	r2, r2, #16
 988 0030 D2B2     		uxtb	r2, r2
 989 0032 1A70     		strb	r2, [r3]
1336:Generated_Source\PSoC6\pdl\drivers\peripheral\smif/cy_smif.h ****         outBuff[3UL] = (uint8_t)((inValue >> 24UL) & 0xFFUL);
 990              		.loc 1 1336 0
 991 0034 BB68     		ldr	r3, [r7, #8]
 992 0036 0333     		adds	r3, r3, #3
 993 0038 FA68     		ldr	r2, [r7, #12]
 994 003a 120E     		lsrs	r2, r2, #24
 995 003c D2B2     		uxtb	r2, r2
 996 003e 1A70     		strb	r2, [r3]
 997              	.L45:
ARM GAS  C:\Users\ikomb\AppData\Local\Temp\ccEKz2Td.s 			page 42


1337:Generated_Source\PSoC6\pdl\drivers\peripheral\smif/cy_smif.h ****     }
1338:Generated_Source\PSoC6\pdl\drivers\peripheral\smif/cy_smif.h **** }
 998              		.loc 1 1338 0
 999 0040 00BF     		nop
 1000 0042 1437     		adds	r7, r7, #20
 1001              		.cfi_def_cfa_offset 4
 1002 0044 BD46     		mov	sp, r7
 1003              		.cfi_def_cfa_register 13
 1004              		@ sp needed
 1005 0046 5DF8047B 		ldr	r7, [sp], #4
 1006              		.cfi_restore 7
 1007              		.cfi_def_cfa_offset 0
 1008 004a 7047     		bx	lr
 1009              		.cfi_endproc
 1010              	.LFE175:
 1011              		.size	Cy_SMIF_UnPackByteArray, .-Cy_SMIF_UnPackByteArray
 1012              		.section	.text.Cy_SMIF_TimeoutRun,"ax",%progbits
 1013              		.align	2
 1014              		.thumb
 1015              		.thumb_func
 1016              		.type	Cy_SMIF_TimeoutRun, %function
 1017              	Cy_SMIF_TimeoutRun:
 1018              	.LFB176:
1339:Generated_Source\PSoC6\pdl\drivers\peripheral\smif/cy_smif.h **** 
1340:Generated_Source\PSoC6\pdl\drivers\peripheral\smif/cy_smif.h **** 
1341:Generated_Source\PSoC6\pdl\drivers\peripheral\smif/cy_smif.h **** /*******************************************************************************
1342:Generated_Source\PSoC6\pdl\drivers\peripheral\smif/cy_smif.h **** * Function Name: Cy_SMIF_TimeoutRun
1343:Generated_Source\PSoC6\pdl\drivers\peripheral\smif/cy_smif.h **** ****************************************************************************//**
1344:Generated_Source\PSoC6\pdl\drivers\peripheral\smif/cy_smif.h **** *
1345:Generated_Source\PSoC6\pdl\drivers\peripheral\smif/cy_smif.h **** * \internal
1346:Generated_Source\PSoC6\pdl\drivers\peripheral\smif/cy_smif.h **** *
1347:Generated_Source\PSoC6\pdl\drivers\peripheral\smif/cy_smif.h **** * This function checks if the timeout is expired. Use the Cy_SysLib_DelayUs() function for
1348:Generated_Source\PSoC6\pdl\drivers\peripheral\smif/cy_smif.h **** * implementation.
1349:Generated_Source\PSoC6\pdl\drivers\peripheral\smif/cy_smif.h **** *
1350:Generated_Source\PSoC6\pdl\drivers\peripheral\smif/cy_smif.h **** * \param timeoutUnits
1351:Generated_Source\PSoC6\pdl\drivers\peripheral\smif/cy_smif.h **** *  The pointer to the timeout. The timeout measured in microseconds is multiplied by
1352:Generated_Source\PSoC6\pdl\drivers\peripheral\smif/cy_smif.h **** *  CY_SMIF_WAIT_1_UNIT.
1353:Generated_Source\PSoC6\pdl\drivers\peripheral\smif/cy_smif.h **** *
1354:Generated_Source\PSoC6\pdl\drivers\peripheral\smif/cy_smif.h **** * \return
1355:Generated_Source\PSoC6\pdl\drivers\peripheral\smif/cy_smif.h **** * A timeout status:
1356:Generated_Source\PSoC6\pdl\drivers\peripheral\smif/cy_smif.h **** *     - \ref CY_SMIF_SUCCESS - The timeout has not expired or input timeoutUnits is 0.
1357:Generated_Source\PSoC6\pdl\drivers\peripheral\smif/cy_smif.h **** *     - \ref CY_SMIF_EXCEED_TIMEOUT - The timeout has expired.
1358:Generated_Source\PSoC6\pdl\drivers\peripheral\smif/cy_smif.h **** *
1359:Generated_Source\PSoC6\pdl\drivers\peripheral\smif/cy_smif.h **** *******************************************************************************/
1360:Generated_Source\PSoC6\pdl\drivers\peripheral\smif/cy_smif.h **** __STATIC_INLINE cy_en_smif_status_t Cy_SMIF_TimeoutRun(uint32_t *timeoutUnits)
1361:Generated_Source\PSoC6\pdl\drivers\peripheral\smif/cy_smif.h **** {
 1019              		.loc 1 1361 0
 1020              		.cfi_startproc
 1021              		@ args = 0, pretend = 0, frame = 16
 1022              		@ frame_needed = 1, uses_anonymous_args = 0
 1023 0000 80B5     		push	{r7, lr}
 1024              		.cfi_def_cfa_offset 8
 1025              		.cfi_offset 7, -8
 1026              		.cfi_offset 14, -4
 1027 0002 84B0     		sub	sp, sp, #16
 1028              		.cfi_def_cfa_offset 24
 1029 0004 00AF     		add	r7, sp, #0
ARM GAS  C:\Users\ikomb\AppData\Local\Temp\ccEKz2Td.s 			page 43


 1030              		.cfi_def_cfa_register 7
 1031 0006 7860     		str	r0, [r7, #4]
1362:Generated_Source\PSoC6\pdl\drivers\peripheral\smif/cy_smif.h ****     cy_en_smif_status_t status = CY_SMIF_SUCCESS;
 1032              		.loc 1 1362 0
 1033 0008 0023     		movs	r3, #0
 1034 000a FB60     		str	r3, [r7, #12]
1363:Generated_Source\PSoC6\pdl\drivers\peripheral\smif/cy_smif.h ****     if (*timeoutUnits > 0u)
 1035              		.loc 1 1363 0
 1036 000c 7B68     		ldr	r3, [r7, #4]
 1037 000e 1B68     		ldr	r3, [r3]
 1038 0010 002B     		cmp	r3, #0
 1039 0012 0FD0     		beq	.L47
1364:Generated_Source\PSoC6\pdl\drivers\peripheral\smif/cy_smif.h ****     {
1365:Generated_Source\PSoC6\pdl\drivers\peripheral\smif/cy_smif.h ****         Cy_SysLib_DelayUs(CY_SMIF_WAIT_1_UNIT);
 1040              		.loc 1 1365 0
 1041 0014 0120     		movs	r0, #1
 1042 0016 FFF7FEFF 		bl	Cy_SysLib_DelayUs
1366:Generated_Source\PSoC6\pdl\drivers\peripheral\smif/cy_smif.h ****         --(*timeoutUnits);
 1043              		.loc 1 1366 0
 1044 001a 7B68     		ldr	r3, [r7, #4]
 1045 001c 1B68     		ldr	r3, [r3]
 1046 001e 5A1E     		subs	r2, r3, #1
 1047 0020 7B68     		ldr	r3, [r7, #4]
 1048 0022 1A60     		str	r2, [r3]
1367:Generated_Source\PSoC6\pdl\drivers\peripheral\smif/cy_smif.h ****         status = (0u == (*timeoutUnits))? CY_SMIF_EXCEED_TIMEOUT: CY_SMIF_SUCCESS;
 1049              		.loc 1 1367 0
 1050 0024 7B68     		ldr	r3, [r7, #4]
 1051 0026 1B68     		ldr	r3, [r3]
 1052 0028 002B     		cmp	r3, #0
 1053 002a 01D1     		bne	.L48
 1054              		.loc 1 1367 0 is_stmt 0 discriminator 1
 1055 002c 044B     		ldr	r3, .L51
 1056 002e 00E0     		b	.L49
 1057              	.L48:
 1058              		.loc 1 1367 0 discriminator 2
 1059 0030 0023     		movs	r3, #0
 1060              	.L49:
 1061              		.loc 1 1367 0 discriminator 4
 1062 0032 FB60     		str	r3, [r7, #12]
 1063              	.L47:
1368:Generated_Source\PSoC6\pdl\drivers\peripheral\smif/cy_smif.h ****     }
1369:Generated_Source\PSoC6\pdl\drivers\peripheral\smif/cy_smif.h ****     return status;
 1064              		.loc 1 1369 0 is_stmt 1
 1065 0034 FB68     		ldr	r3, [r7, #12]
1370:Generated_Source\PSoC6\pdl\drivers\peripheral\smif/cy_smif.h **** }
 1066              		.loc 1 1370 0
 1067 0036 1846     		mov	r0, r3
 1068 0038 1037     		adds	r7, r7, #16
 1069              		.cfi_def_cfa_offset 8
 1070 003a BD46     		mov	sp, r7
 1071              		.cfi_def_cfa_register 13
 1072              		@ sp needed
 1073 003c 80BD     		pop	{r7, pc}
 1074              	.L52:
 1075 003e 00BF     		.align	2
 1076              	.L51:
 1077 0040 0200B200 		.word	11665410
ARM GAS  C:\Users\ikomb\AppData\Local\Temp\ccEKz2Td.s 			page 44


 1078              		.cfi_endproc
 1079              	.LFE176:
 1080              		.size	Cy_SMIF_TimeoutRun, .-Cy_SMIF_TimeoutRun
 1081              		.section	.text.Cy_SMIF_GetDeviceBySlot,"ax",%progbits
 1082              		.align	2
 1083              		.thumb
 1084              		.thumb_func
 1085              		.type	Cy_SMIF_GetDeviceBySlot, %function
 1086              	Cy_SMIF_GetDeviceBySlot:
 1087              	.LFB177:
1371:Generated_Source\PSoC6\pdl\drivers\peripheral\smif/cy_smif.h **** 
1372:Generated_Source\PSoC6\pdl\drivers\peripheral\smif/cy_smif.h **** 
1373:Generated_Source\PSoC6\pdl\drivers\peripheral\smif/cy_smif.h **** /*******************************************************************************
1374:Generated_Source\PSoC6\pdl\drivers\peripheral\smif/cy_smif.h **** * Function Name: Cy_SMIF_GetDeviceBySlot
1375:Generated_Source\PSoC6\pdl\drivers\peripheral\smif/cy_smif.h **** ****************************************************************************//**
1376:Generated_Source\PSoC6\pdl\drivers\peripheral\smif/cy_smif.h **** *
1377:Generated_Source\PSoC6\pdl\drivers\peripheral\smif/cy_smif.h **** * \internal
1378:Generated_Source\PSoC6\pdl\drivers\peripheral\smif/cy_smif.h **** * This function returns the address of the SMIF device registers structure by the slave
1379:Generated_Source\PSoC6\pdl\drivers\peripheral\smif/cy_smif.h **** * slot number.
1380:Generated_Source\PSoC6\pdl\drivers\peripheral\smif/cy_smif.h **** *
1381:Generated_Source\PSoC6\pdl\drivers\peripheral\smif/cy_smif.h **** * \param base
1382:Generated_Source\PSoC6\pdl\drivers\peripheral\smif/cy_smif.h **** * Holds the base address of the SMIF block registers.
1383:Generated_Source\PSoC6\pdl\drivers\peripheral\smif/cy_smif.h **** *
1384:Generated_Source\PSoC6\pdl\drivers\peripheral\smif/cy_smif.h **** * \param slaveSlot
1385:Generated_Source\PSoC6\pdl\drivers\peripheral\smif/cy_smif.h **** * The slave device ID. This number is either CY_SMIF_SLAVE_SELECT_0 or
1386:Generated_Source\PSoC6\pdl\drivers\peripheral\smif/cy_smif.h **** * CY_SMIF_SLAVE_SELECT_1 or CY_SMIF_SLAVE_SELECT_2 or CY_SMIF_SLAVE_SELECT_3
1387:Generated_Source\PSoC6\pdl\drivers\peripheral\smif/cy_smif.h **** * (\ref cy_en_smif_slave_select_t). It defines the slave-select line to use
1388:Generated_Source\PSoC6\pdl\drivers\peripheral\smif/cy_smif.h **** * during the transmission.
1389:Generated_Source\PSoC6\pdl\drivers\peripheral\smif/cy_smif.h **** *
1390:Generated_Source\PSoC6\pdl\drivers\peripheral\smif/cy_smif.h **** *******************************************************************************/
1391:Generated_Source\PSoC6\pdl\drivers\peripheral\smif/cy_smif.h **** __STATIC_INLINE SMIF_DEVICE_Type volatile * Cy_SMIF_GetDeviceBySlot(SMIF_Type *base,
1392:Generated_Source\PSoC6\pdl\drivers\peripheral\smif/cy_smif.h ****                                             cy_en_smif_slave_select_t slaveSelect)
1393:Generated_Source\PSoC6\pdl\drivers\peripheral\smif/cy_smif.h **** {
 1088              		.loc 1 1393 0
 1089              		.cfi_startproc
 1090              		@ args = 0, pretend = 0, frame = 16
 1091              		@ frame_needed = 1, uses_anonymous_args = 0
 1092              		@ link register save eliminated.
 1093 0000 80B4     		push	{r7}
 1094              		.cfi_def_cfa_offset 4
 1095              		.cfi_offset 7, -4
 1096 0002 85B0     		sub	sp, sp, #20
 1097              		.cfi_def_cfa_offset 24
 1098 0004 00AF     		add	r7, sp, #0
 1099              		.cfi_def_cfa_register 7
 1100 0006 7860     		str	r0, [r7, #4]
 1101 0008 0B46     		mov	r3, r1
 1102 000a FB70     		strb	r3, [r7, #3]
1394:Generated_Source\PSoC6\pdl\drivers\peripheral\smif/cy_smif.h ****     SMIF_DEVICE_Type volatile *device;
1395:Generated_Source\PSoC6\pdl\drivers\peripheral\smif/cy_smif.h ****     /* Connect the slave to its data lines */
1396:Generated_Source\PSoC6\pdl\drivers\peripheral\smif/cy_smif.h ****     switch (slaveSelect)
 1103              		.loc 1 1396 0
 1104 000c FB78     		ldrb	r3, [r7, #3]	@ zero_extendqisi2
 1105 000e 013B     		subs	r3, r3, #1
 1106 0010 072B     		cmp	r3, #7
 1107 0012 27D8     		bhi	.L54
 1108 0014 01A2     		adr	r2, .L56
ARM GAS  C:\Users\ikomb\AppData\Local\Temp\ccEKz2Td.s 			page 45


 1109 0016 52F823F0 		ldr	pc, [r2, r3, lsl #2]
 1110 001a 00BF     		.p2align 2
 1111              	.L56:
 1112 001c 3D000000 		.word	.L55+1
 1113 0020 47000000 		.word	.L57+1
 1114 0024 65000000 		.word	.L54+1
 1115 0028 51000000 		.word	.L58+1
 1116 002c 65000000 		.word	.L54+1
 1117 0030 65000000 		.word	.L54+1
 1118 0034 65000000 		.word	.L54+1
 1119 0038 5B000000 		.word	.L59+1
 1120              		.p2align 1
 1121              	.L55:
1397:Generated_Source\PSoC6\pdl\drivers\peripheral\smif/cy_smif.h ****     {
1398:Generated_Source\PSoC6\pdl\drivers\peripheral\smif/cy_smif.h ****         case CY_SMIF_SLAVE_SELECT_0:
1399:Generated_Source\PSoC6\pdl\drivers\peripheral\smif/cy_smif.h ****             device = &(base->DEVICE[0]);
 1122              		.loc 1 1399 0
 1123 003c 7B68     		ldr	r3, [r7, #4]
 1124 003e 03F50063 		add	r3, r3, #2048
 1125 0042 FB60     		str	r3, [r7, #12]
1400:Generated_Source\PSoC6\pdl\drivers\peripheral\smif/cy_smif.h ****             break;
 1126              		.loc 1 1400 0
 1127 0044 11E0     		b	.L60
 1128              	.L57:
1401:Generated_Source\PSoC6\pdl\drivers\peripheral\smif/cy_smif.h ****         case CY_SMIF_SLAVE_SELECT_1:
1402:Generated_Source\PSoC6\pdl\drivers\peripheral\smif/cy_smif.h ****             device = &(base->DEVICE[1]);
 1129              		.loc 1 1402 0
 1130 0046 7B68     		ldr	r3, [r7, #4]
 1131 0048 03F50863 		add	r3, r3, #2176
 1132 004c FB60     		str	r3, [r7, #12]
1403:Generated_Source\PSoC6\pdl\drivers\peripheral\smif/cy_smif.h ****             break;
 1133              		.loc 1 1403 0
 1134 004e 0CE0     		b	.L60
 1135              	.L58:
1404:Generated_Source\PSoC6\pdl\drivers\peripheral\smif/cy_smif.h ****         case CY_SMIF_SLAVE_SELECT_2:
1405:Generated_Source\PSoC6\pdl\drivers\peripheral\smif/cy_smif.h ****             device = &(base->DEVICE[2]);
 1136              		.loc 1 1405 0
 1137 0050 7B68     		ldr	r3, [r7, #4]
 1138 0052 03F51063 		add	r3, r3, #2304
 1139 0056 FB60     		str	r3, [r7, #12]
1406:Generated_Source\PSoC6\pdl\drivers\peripheral\smif/cy_smif.h ****             break;
 1140              		.loc 1 1406 0
 1141 0058 07E0     		b	.L60
 1142              	.L59:
1407:Generated_Source\PSoC6\pdl\drivers\peripheral\smif/cy_smif.h ****         case CY_SMIF_SLAVE_SELECT_3:
1408:Generated_Source\PSoC6\pdl\drivers\peripheral\smif/cy_smif.h ****             device = &(base->DEVICE[3]);
 1143              		.loc 1 1408 0
 1144 005a 7B68     		ldr	r3, [r7, #4]
 1145 005c 03F51863 		add	r3, r3, #2432
 1146 0060 FB60     		str	r3, [r7, #12]
1409:Generated_Source\PSoC6\pdl\drivers\peripheral\smif/cy_smif.h ****             break;
 1147              		.loc 1 1409 0
 1148 0062 02E0     		b	.L60
 1149              	.L54:
1410:Generated_Source\PSoC6\pdl\drivers\peripheral\smif/cy_smif.h ****         default:
1411:Generated_Source\PSoC6\pdl\drivers\peripheral\smif/cy_smif.h ****             /* A user error*/
1412:Generated_Source\PSoC6\pdl\drivers\peripheral\smif/cy_smif.h ****             device = NULL;
ARM GAS  C:\Users\ikomb\AppData\Local\Temp\ccEKz2Td.s 			page 46


 1150              		.loc 1 1412 0
 1151 0064 0023     		movs	r3, #0
 1152 0066 FB60     		str	r3, [r7, #12]
1413:Generated_Source\PSoC6\pdl\drivers\peripheral\smif/cy_smif.h ****             break;
 1153              		.loc 1 1413 0
 1154 0068 00BF     		nop
 1155              	.L60:
1414:Generated_Source\PSoC6\pdl\drivers\peripheral\smif/cy_smif.h ****     }
1415:Generated_Source\PSoC6\pdl\drivers\peripheral\smif/cy_smif.h **** 
1416:Generated_Source\PSoC6\pdl\drivers\peripheral\smif/cy_smif.h ****     return device;
 1156              		.loc 1 1416 0
 1157 006a FB68     		ldr	r3, [r7, #12]
1417:Generated_Source\PSoC6\pdl\drivers\peripheral\smif/cy_smif.h **** }
 1158              		.loc 1 1417 0
 1159 006c 1846     		mov	r0, r3
 1160 006e 1437     		adds	r7, r7, #20
 1161              		.cfi_def_cfa_offset 4
 1162 0070 BD46     		mov	sp, r7
 1163              		.cfi_def_cfa_register 13
 1164              		@ sp needed
 1165 0072 5DF8047B 		ldr	r7, [sp], #4
 1166              		.cfi_restore 7
 1167              		.cfi_def_cfa_offset 0
 1168 0076 7047     		bx	lr
 1169              		.cfi_endproc
 1170              	.LFE177:
 1171              		.size	Cy_SMIF_GetDeviceBySlot, .-Cy_SMIF_GetDeviceBySlot
 1172              		.section	.rodata
 1173              		.align	2
 1174              	.LC0:
 1175 0000 47656E65 		.ascii	"Generated_Source\\PSoC6\\pdl\\drivers\\peripheral\\"
 1175      72617465 
 1175      645F536F 
 1175      75726365 
 1175      5C50536F 
 1176 002e 736D6966 		.ascii	"smif\\cy_smif.c\000"
 1176      5C63795F 
 1176      736D6966 
 1176      2E6300
 1177              		.section	.text.Cy_SMIF_Init,"ax",%progbits
 1178              		.align	2
 1179              		.global	Cy_SMIF_Init
 1180              		.thumb
 1181              		.thumb_func
 1182              		.type	Cy_SMIF_Init, %function
 1183              	Cy_SMIF_Init:
 1184              	.LFB178:
 1185              		.file 2 "Generated_Source\\PSoC6\\pdl\\drivers\\peripheral\\smif\\cy_smif.c"
   1:Generated_Source\PSoC6\pdl\drivers\peripheral\smif/cy_smif.c **** /***************************************************************************//**
   2:Generated_Source\PSoC6\pdl\drivers\peripheral\smif/cy_smif.c **** * \file cy_smif.c
   3:Generated_Source\PSoC6\pdl\drivers\peripheral\smif/cy_smif.c **** * \version 1.10.1
   4:Generated_Source\PSoC6\pdl\drivers\peripheral\smif/cy_smif.c **** *
   5:Generated_Source\PSoC6\pdl\drivers\peripheral\smif/cy_smif.c **** * \brief
   6:Generated_Source\PSoC6\pdl\drivers\peripheral\smif/cy_smif.c **** *  This file provides the source code for the SMIF driver APIs.
   7:Generated_Source\PSoC6\pdl\drivers\peripheral\smif/cy_smif.c **** *
   8:Generated_Source\PSoC6\pdl\drivers\peripheral\smif/cy_smif.c **** * Note:
   9:Generated_Source\PSoC6\pdl\drivers\peripheral\smif/cy_smif.c **** *
ARM GAS  C:\Users\ikomb\AppData\Local\Temp\ccEKz2Td.s 			page 47


  10:Generated_Source\PSoC6\pdl\drivers\peripheral\smif/cy_smif.c **** ********************************************************************************
  11:Generated_Source\PSoC6\pdl\drivers\peripheral\smif/cy_smif.c **** * \copyright
  12:Generated_Source\PSoC6\pdl\drivers\peripheral\smif/cy_smif.c **** * Copyright 2016-2018, Cypress Semiconductor Corporation.  All rights reserved.
  13:Generated_Source\PSoC6\pdl\drivers\peripheral\smif/cy_smif.c **** * You may use this file only in accordance with the license, terms, conditions,
  14:Generated_Source\PSoC6\pdl\drivers\peripheral\smif/cy_smif.c **** * disclaimers, and limitations in the end user license agreement accompanying
  15:Generated_Source\PSoC6\pdl\drivers\peripheral\smif/cy_smif.c **** * the software package with which this file was provided.
  16:Generated_Source\PSoC6\pdl\drivers\peripheral\smif/cy_smif.c **** *******************************************************************************/
  17:Generated_Source\PSoC6\pdl\drivers\peripheral\smif/cy_smif.c **** 
  18:Generated_Source\PSoC6\pdl\drivers\peripheral\smif/cy_smif.c **** #include "cy_smif.h"
  19:Generated_Source\PSoC6\pdl\drivers\peripheral\smif/cy_smif.c **** 
  20:Generated_Source\PSoC6\pdl\drivers\peripheral\smif/cy_smif.c **** 
  21:Generated_Source\PSoC6\pdl\drivers\peripheral\smif/cy_smif.c **** #if defined(__cplusplus)
  22:Generated_Source\PSoC6\pdl\drivers\peripheral\smif/cy_smif.c **** extern "C" {
  23:Generated_Source\PSoC6\pdl\drivers\peripheral\smif/cy_smif.c **** #endif
  24:Generated_Source\PSoC6\pdl\drivers\peripheral\smif/cy_smif.c **** 
  25:Generated_Source\PSoC6\pdl\drivers\peripheral\smif/cy_smif.c **** 
  26:Generated_Source\PSoC6\pdl\drivers\peripheral\smif/cy_smif.c **** /*******************************************************************************
  27:Generated_Source\PSoC6\pdl\drivers\peripheral\smif/cy_smif.c **** * Function Name: Cy_SMIF_Init
  28:Generated_Source\PSoC6\pdl\drivers\peripheral\smif/cy_smif.c **** ****************************************************************************//**
  29:Generated_Source\PSoC6\pdl\drivers\peripheral\smif/cy_smif.c **** *
  30:Generated_Source\PSoC6\pdl\drivers\peripheral\smif/cy_smif.c **** * This function initializes the SMIF block as a communication block. The user
  31:Generated_Source\PSoC6\pdl\drivers\peripheral\smif/cy_smif.c **** * must ensure that the SMIF interrupt is disabled while this function
  32:Generated_Source\PSoC6\pdl\drivers\peripheral\smif/cy_smif.c **** * is called. Enabling the interrupts can lead to triggering in the middle
  33:Generated_Source\PSoC6\pdl\drivers\peripheral\smif/cy_smif.c **** * of the initialization operation, which can lead to erroneous initialization.
  34:Generated_Source\PSoC6\pdl\drivers\peripheral\smif/cy_smif.c **** *
  35:Generated_Source\PSoC6\pdl\drivers\peripheral\smif/cy_smif.c **** * As parameters, this function takes the SMIF register base address and a
  36:Generated_Source\PSoC6\pdl\drivers\peripheral\smif/cy_smif.c **** * context structure along with the configuration needed for the SMIF block,
  37:Generated_Source\PSoC6\pdl\drivers\peripheral\smif/cy_smif.c **** * stored in a config
  38:Generated_Source\PSoC6\pdl\drivers\peripheral\smif/cy_smif.c **** *
  39:Generated_Source\PSoC6\pdl\drivers\peripheral\smif/cy_smif.c **** * \param base
  40:Generated_Source\PSoC6\pdl\drivers\peripheral\smif/cy_smif.c **** * Holds the base address of the SMIF block registers.
  41:Generated_Source\PSoC6\pdl\drivers\peripheral\smif/cy_smif.c **** *
  42:Generated_Source\PSoC6\pdl\drivers\peripheral\smif/cy_smif.c **** * \param config
  43:Generated_Source\PSoC6\pdl\drivers\peripheral\smif/cy_smif.c **** * Passes a configuration structure that configures the SMIF block for operation.
  44:Generated_Source\PSoC6\pdl\drivers\peripheral\smif/cy_smif.c **** *
  45:Generated_Source\PSoC6\pdl\drivers\peripheral\smif/cy_smif.c **** * \param context
  46:Generated_Source\PSoC6\pdl\drivers\peripheral\smif/cy_smif.c **** * Passes a configuration structure that contains the transfer parameters of the
  47:Generated_Source\PSoC6\pdl\drivers\peripheral\smif/cy_smif.c **** * SMIF block.
  48:Generated_Source\PSoC6\pdl\drivers\peripheral\smif/cy_smif.c **** *
  49:Generated_Source\PSoC6\pdl\drivers\peripheral\smif/cy_smif.c **** * \param timeout
  50:Generated_Source\PSoC6\pdl\drivers\peripheral\smif/cy_smif.c **** * A timeout in microseconds for blocking APIs in use.
  51:Generated_Source\PSoC6\pdl\drivers\peripheral\smif/cy_smif.c **** *
  52:Generated_Source\PSoC6\pdl\drivers\peripheral\smif/cy_smif.c **** *
  53:Generated_Source\PSoC6\pdl\drivers\peripheral\smif/cy_smif.c **** * \note Make sure that the interrupts are initialized and disabled.
  54:Generated_Source\PSoC6\pdl\drivers\peripheral\smif/cy_smif.c **** *
  55:Generated_Source\PSoC6\pdl\drivers\peripheral\smif/cy_smif.c **** * \return
  56:Generated_Source\PSoC6\pdl\drivers\peripheral\smif/cy_smif.c **** *     - \ref CY_SMIF_BAD_PARAM
  57:Generated_Source\PSoC6\pdl\drivers\peripheral\smif/cy_smif.c **** *     - \ref CY_SMIF_SUCCESS
  58:Generated_Source\PSoC6\pdl\drivers\peripheral\smif/cy_smif.c **** *
  59:Generated_Source\PSoC6\pdl\drivers\peripheral\smif/cy_smif.c **** *******************************************************************************/
  60:Generated_Source\PSoC6\pdl\drivers\peripheral\smif/cy_smif.c **** cy_en_smif_status_t Cy_SMIF_Init(SMIF_Type *base, 
  61:Generated_Source\PSoC6\pdl\drivers\peripheral\smif/cy_smif.c ****                                     cy_stc_smif_config_t const *config,
  62:Generated_Source\PSoC6\pdl\drivers\peripheral\smif/cy_smif.c ****                                     uint32_t timeout,
  63:Generated_Source\PSoC6\pdl\drivers\peripheral\smif/cy_smif.c ****                                     cy_stc_smif_context_t *context)
  64:Generated_Source\PSoC6\pdl\drivers\peripheral\smif/cy_smif.c **** {
 1186              		.loc 2 64 0
 1187              		.cfi_startproc
ARM GAS  C:\Users\ikomb\AppData\Local\Temp\ccEKz2Td.s 			page 48


 1188              		@ args = 0, pretend = 0, frame = 24
 1189              		@ frame_needed = 1, uses_anonymous_args = 0
 1190 0000 80B5     		push	{r7, lr}
 1191              		.cfi_def_cfa_offset 8
 1192              		.cfi_offset 7, -8
 1193              		.cfi_offset 14, -4
 1194 0002 86B0     		sub	sp, sp, #24
 1195              		.cfi_def_cfa_offset 32
 1196 0004 00AF     		add	r7, sp, #0
 1197              		.cfi_def_cfa_register 7
 1198 0006 F860     		str	r0, [r7, #12]
 1199 0008 B960     		str	r1, [r7, #8]
 1200 000a 7A60     		str	r2, [r7, #4]
 1201 000c 3B60     		str	r3, [r7]
  65:Generated_Source\PSoC6\pdl\drivers\peripheral\smif/cy_smif.c ****     cy_en_smif_status_t result = CY_SMIF_BAD_PARAM;
 1202              		.loc 2 65 0
 1203 000e 3A4B     		ldr	r3, .L69
 1204 0010 7B61     		str	r3, [r7, #20]
  66:Generated_Source\PSoC6\pdl\drivers\peripheral\smif/cy_smif.c **** 
  67:Generated_Source\PSoC6\pdl\drivers\peripheral\smif/cy_smif.c ****     if((NULL != base) && (NULL != config) && (NULL != context))
 1205              		.loc 2 67 0
 1206 0012 FB68     		ldr	r3, [r7, #12]
 1207 0014 002B     		cmp	r3, #0
 1208 0016 6AD0     		beq	.L63
 1209              		.loc 2 67 0 is_stmt 0 discriminator 1
 1210 0018 BB68     		ldr	r3, [r7, #8]
 1211 001a 002B     		cmp	r3, #0
 1212 001c 67D0     		beq	.L63
 1213              		.loc 2 67 0 discriminator 2
 1214 001e 3B68     		ldr	r3, [r7]
 1215 0020 002B     		cmp	r3, #0
 1216 0022 64D0     		beq	.L63
  68:Generated_Source\PSoC6\pdl\drivers\peripheral\smif/cy_smif.c ****     {
  69:Generated_Source\PSoC6\pdl\drivers\peripheral\smif/cy_smif.c ****         /* Copy the base address of the SMIF and the SMIF Device block  
  70:Generated_Source\PSoC6\pdl\drivers\peripheral\smif/cy_smif.c ****         * registers to the context. 
  71:Generated_Source\PSoC6\pdl\drivers\peripheral\smif/cy_smif.c ****         */
  72:Generated_Source\PSoC6\pdl\drivers\peripheral\smif/cy_smif.c ****         context->timeout = timeout;
 1217              		.loc 2 72 0 is_stmt 1
 1218 0024 3B68     		ldr	r3, [r7]
 1219 0026 7A68     		ldr	r2, [r7, #4]
 1220 0028 5A62     		str	r2, [r3, #36]
  73:Generated_Source\PSoC6\pdl\drivers\peripheral\smif/cy_smif.c **** 
  74:Generated_Source\PSoC6\pdl\drivers\peripheral\smif/cy_smif.c ****         /* Configure the initial interrupt mask */
  75:Generated_Source\PSoC6\pdl\drivers\peripheral\smif/cy_smif.c ****         /* Disable the TR_TX_REQ and TR_RX_REQ interrupts */
  76:Generated_Source\PSoC6\pdl\drivers\peripheral\smif/cy_smif.c ****         Cy_SMIF_SetInterruptMask(base, Cy_SMIF_GetInterruptMask(base) 
 1221              		.loc 2 76 0
 1222 002a F868     		ldr	r0, [r7, #12]
 1223 002c FFF7FEFF 		bl	Cy_SMIF_GetInterruptMask
 1224 0030 0346     		mov	r3, r0
 1225 0032 23F00303 		bic	r3, r3, #3
 1226 0036 1946     		mov	r1, r3
 1227 0038 F868     		ldr	r0, [r7, #12]
 1228 003a FFF7FEFF 		bl	Cy_SMIF_SetInterruptMask
  77:Generated_Source\PSoC6\pdl\drivers\peripheral\smif/cy_smif.c ****                         & ~(SMIF_INTR_TR_TX_REQ_Msk | SMIF_INTR_TR_RX_REQ_Msk));
  78:Generated_Source\PSoC6\pdl\drivers\peripheral\smif/cy_smif.c **** 
  79:Generated_Source\PSoC6\pdl\drivers\peripheral\smif/cy_smif.c ****         /* Check config structure */
  80:Generated_Source\PSoC6\pdl\drivers\peripheral\smif/cy_smif.c ****         CY_ASSERT_L3(CY_SMIF_MODE_VALID(config->mode));
ARM GAS  C:\Users\ikomb\AppData\Local\Temp\ccEKz2Td.s 			page 49


 1229              		.loc 2 80 0
 1230 003e BB68     		ldr	r3, [r7, #8]
 1231 0040 1B68     		ldr	r3, [r3]
 1232 0042 DBB2     		uxtb	r3, r3
 1233 0044 002B     		cmp	r3, #0
 1234 0046 08D0     		beq	.L64
 1235              		.loc 2 80 0 is_stmt 0 discriminator 1
 1236 0048 BB68     		ldr	r3, [r7, #8]
 1237 004a 1B68     		ldr	r3, [r3]
 1238 004c DBB2     		uxtb	r3, r3
 1239 004e 012B     		cmp	r3, #1
 1240 0050 03D0     		beq	.L64
 1241              		.loc 2 80 0 discriminator 2
 1242 0052 5021     		movs	r1, #80
 1243 0054 2948     		ldr	r0, .L69+4
 1244 0056 FFF7FEFF 		bl	Cy_SysLib_AssertFailed
 1245              	.L64:
  81:Generated_Source\PSoC6\pdl\drivers\peripheral\smif/cy_smif.c ****         CY_ASSERT_L3(CY_SMIF_CLOCK_SEL_VALID(config->rxClockSel));
 1246              		.loc 2 81 0 is_stmt 1
 1247 005a BB68     		ldr	r3, [r7, #8]
 1248 005c 9B68     		ldr	r3, [r3, #8]
 1249 005e DBB2     		uxtb	r3, r3
 1250 0060 002B     		cmp	r3, #0
 1251 0062 12D0     		beq	.L65
 1252              		.loc 2 81 0 is_stmt 0 discriminator 1
 1253 0064 BB68     		ldr	r3, [r7, #8]
 1254 0066 9B68     		ldr	r3, [r3, #8]
 1255 0068 DBB2     		uxtb	r3, r3
 1256 006a 012B     		cmp	r3, #1
 1257 006c 0DD0     		beq	.L65
 1258              		.loc 2 81 0 discriminator 2
 1259 006e BB68     		ldr	r3, [r7, #8]
 1260 0070 9B68     		ldr	r3, [r3, #8]
 1261 0072 DBB2     		uxtb	r3, r3
 1262 0074 022B     		cmp	r3, #2
 1263 0076 08D0     		beq	.L65
 1264              		.loc 2 81 0 discriminator 3
 1265 0078 BB68     		ldr	r3, [r7, #8]
 1266 007a 9B68     		ldr	r3, [r3, #8]
 1267 007c DBB2     		uxtb	r3, r3
 1268 007e 032B     		cmp	r3, #3
 1269 0080 03D0     		beq	.L65
 1270              		.loc 2 81 0 discriminator 4
 1271 0082 5121     		movs	r1, #81
 1272 0084 1D48     		ldr	r0, .L69+4
 1273 0086 FFF7FEFF 		bl	Cy_SysLib_AssertFailed
 1274              	.L65:
  82:Generated_Source\PSoC6\pdl\drivers\peripheral\smif/cy_smif.c ****         CY_ASSERT_L2(CY_SMIF_DESELECT_DELAY_VALID(config->deselectDelay));
 1275              		.loc 2 82 0 is_stmt 1
 1276 008a BB68     		ldr	r3, [r7, #8]
 1277 008c 5B68     		ldr	r3, [r3, #4]
 1278 008e 072B     		cmp	r3, #7
 1279 0090 03D9     		bls	.L66
 1280              		.loc 2 82 0 is_stmt 0 discriminator 1
 1281 0092 5221     		movs	r1, #82
 1282 0094 1948     		ldr	r0, .L69+4
 1283 0096 FFF7FEFF 		bl	Cy_SysLib_AssertFailed
ARM GAS  C:\Users\ikomb\AppData\Local\Temp\ccEKz2Td.s 			page 50


 1284              	.L66:
  83:Generated_Source\PSoC6\pdl\drivers\peripheral\smif/cy_smif.c ****         CY_ASSERT_L3(CY_SMIF_BLOCK_EVENT_VALID(config->blockEvent));
 1285              		.loc 2 83 0 is_stmt 1
 1286 009a BB68     		ldr	r3, [r7, #8]
 1287 009c DB68     		ldr	r3, [r3, #12]
 1288 009e DBB2     		uxtb	r3, r3
 1289 00a0 002B     		cmp	r3, #0
 1290 00a2 08D0     		beq	.L67
 1291              		.loc 2 83 0 is_stmt 0 discriminator 1
 1292 00a4 BB68     		ldr	r3, [r7, #8]
 1293 00a6 DB68     		ldr	r3, [r3, #12]
 1294 00a8 DBB2     		uxtb	r3, r3
 1295 00aa 012B     		cmp	r3, #1
 1296 00ac 03D0     		beq	.L67
 1297              		.loc 2 83 0 discriminator 2
 1298 00ae 5321     		movs	r1, #83
 1299 00b0 1248     		ldr	r0, .L69+4
 1300 00b2 FFF7FEFF 		bl	Cy_SysLib_AssertFailed
 1301              	.L67:
  84:Generated_Source\PSoC6\pdl\drivers\peripheral\smif/cy_smif.c ****         
  85:Generated_Source\PSoC6\pdl\drivers\peripheral\smif/cy_smif.c ****         /* Configure the SMIF interface */
  86:Generated_Source\PSoC6\pdl\drivers\peripheral\smif/cy_smif.c ****         base->CTL = (uint32_t)(_VAL2FLD(SMIF_CTL_XIP_MODE, config->mode) |
 1302              		.loc 2 86 0 is_stmt 1
 1303 00b6 BB68     		ldr	r3, [r7, #8]
 1304 00b8 1B68     		ldr	r3, [r3]
 1305 00ba 03F00102 		and	r2, r3, #1
  87:Generated_Source\PSoC6\pdl\drivers\peripheral\smif/cy_smif.c ****                     _VAL2FLD(SMIF_CTL_CLOCK_IF_RX_SEL, config->rxClockSel) |
 1306              		.loc 2 87 0
 1307 00be BB68     		ldr	r3, [r7, #8]
 1308 00c0 9B68     		ldr	r3, [r3, #8]
 1309 00c2 1B03     		lsls	r3, r3, #12
 1310 00c4 03F44053 		and	r3, r3, #12288
  86:Generated_Source\PSoC6\pdl\drivers\peripheral\smif/cy_smif.c ****                     _VAL2FLD(SMIF_CTL_CLOCK_IF_RX_SEL, config->rxClockSel) |
 1311              		.loc 2 86 0
 1312 00c8 1A43     		orrs	r2, r2, r3
  88:Generated_Source\PSoC6\pdl\drivers\peripheral\smif/cy_smif.c ****                     _VAL2FLD(SMIF_CTL_DESELECT_DELAY, config->deselectDelay) |
 1313              		.loc 2 88 0
 1314 00ca BB68     		ldr	r3, [r7, #8]
 1315 00cc 5B68     		ldr	r3, [r3, #4]
 1316 00ce 1B04     		lsls	r3, r3, #16
 1317 00d0 03F4E023 		and	r3, r3, #458752
  87:Generated_Source\PSoC6\pdl\drivers\peripheral\smif/cy_smif.c ****                     _VAL2FLD(SMIF_CTL_CLOCK_IF_RX_SEL, config->rxClockSel) |
 1318              		.loc 2 87 0
 1319 00d4 1A43     		orrs	r2, r2, r3
  89:Generated_Source\PSoC6\pdl\drivers\peripheral\smif/cy_smif.c ****                     _VAL2FLD(SMIF_CTL_BLOCK, config->blockEvent) );
 1320              		.loc 2 89 0
 1321 00d6 BB68     		ldr	r3, [r7, #8]
 1322 00d8 DB68     		ldr	r3, [r3, #12]
 1323 00da 1B06     		lsls	r3, r3, #24
 1324 00dc 03F08073 		and	r3, r3, #16777216
  86:Generated_Source\PSoC6\pdl\drivers\peripheral\smif/cy_smif.c ****                     _VAL2FLD(SMIF_CTL_CLOCK_IF_RX_SEL, config->rxClockSel) |
 1325              		.loc 2 86 0
 1326 00e0 1A43     		orrs	r2, r2, r3
 1327 00e2 FB68     		ldr	r3, [r7, #12]
 1328 00e4 1A60     		str	r2, [r3]
  90:Generated_Source\PSoC6\pdl\drivers\peripheral\smif/cy_smif.c **** 
  91:Generated_Source\PSoC6\pdl\drivers\peripheral\smif/cy_smif.c ****         /* Read the register to flush the buffer */
ARM GAS  C:\Users\ikomb\AppData\Local\Temp\ccEKz2Td.s 			page 51


  92:Generated_Source\PSoC6\pdl\drivers\peripheral\smif/cy_smif.c ****         (void) base->CTL;
 1329              		.loc 2 92 0
 1330 00e6 FB68     		ldr	r3, [r7, #12]
 1331 00e8 1B68     		ldr	r3, [r3]
  93:Generated_Source\PSoC6\pdl\drivers\peripheral\smif/cy_smif.c **** 
  94:Generated_Source\PSoC6\pdl\drivers\peripheral\smif/cy_smif.c ****         result = CY_SMIF_SUCCESS;
 1332              		.loc 2 94 0
 1333 00ea 0023     		movs	r3, #0
 1334 00ec 7B61     		str	r3, [r7, #20]
 1335              	.L63:
  95:Generated_Source\PSoC6\pdl\drivers\peripheral\smif/cy_smif.c ****     }
  96:Generated_Source\PSoC6\pdl\drivers\peripheral\smif/cy_smif.c **** 
  97:Generated_Source\PSoC6\pdl\drivers\peripheral\smif/cy_smif.c ****     return result;
 1336              		.loc 2 97 0
 1337 00ee 7B69     		ldr	r3, [r7, #20]
  98:Generated_Source\PSoC6\pdl\drivers\peripheral\smif/cy_smif.c **** }
 1338              		.loc 2 98 0
 1339 00f0 1846     		mov	r0, r3
 1340 00f2 1837     		adds	r7, r7, #24
 1341              		.cfi_def_cfa_offset 8
 1342 00f4 BD46     		mov	sp, r7
 1343              		.cfi_def_cfa_register 13
 1344              		@ sp needed
 1345 00f6 80BD     		pop	{r7, pc}
 1346              	.L70:
 1347              		.align	2
 1348              	.L69:
 1349 00f8 0400B200 		.word	11665412
 1350 00fc 00000000 		.word	.LC0
 1351              		.cfi_endproc
 1352              	.LFE178:
 1353              		.size	Cy_SMIF_Init, .-Cy_SMIF_Init
 1354              		.section	.text.Cy_SMIF_DeInit,"ax",%progbits
 1355              		.align	2
 1356              		.global	Cy_SMIF_DeInit
 1357              		.thumb
 1358              		.thumb_func
 1359              		.type	Cy_SMIF_DeInit, %function
 1360              	Cy_SMIF_DeInit:
 1361              	.LFB179:
  99:Generated_Source\PSoC6\pdl\drivers\peripheral\smif/cy_smif.c **** 
 100:Generated_Source\PSoC6\pdl\drivers\peripheral\smif/cy_smif.c **** 
 101:Generated_Source\PSoC6\pdl\drivers\peripheral\smif/cy_smif.c **** /*******************************************************************************
 102:Generated_Source\PSoC6\pdl\drivers\peripheral\smif/cy_smif.c **** * Function Name: Cy_SMIF_DeInit
 103:Generated_Source\PSoC6\pdl\drivers\peripheral\smif/cy_smif.c **** ****************************************************************************//**
 104:Generated_Source\PSoC6\pdl\drivers\peripheral\smif/cy_smif.c **** *
 105:Generated_Source\PSoC6\pdl\drivers\peripheral\smif/cy_smif.c **** * This function de-initializes the SMIF block to default values.
 106:Generated_Source\PSoC6\pdl\drivers\peripheral\smif/cy_smif.c **** *
 107:Generated_Source\PSoC6\pdl\drivers\peripheral\smif/cy_smif.c **** * \param base
 108:Generated_Source\PSoC6\pdl\drivers\peripheral\smif/cy_smif.c **** * Holds the base address of the SMIF block registers.
 109:Generated_Source\PSoC6\pdl\drivers\peripheral\smif/cy_smif.c **** *
 110:Generated_Source\PSoC6\pdl\drivers\peripheral\smif/cy_smif.c **** * \note The SMIF must be disabled before calling the function. Call
 111:Generated_Source\PSoC6\pdl\drivers\peripheral\smif/cy_smif.c **** *  \ref Cy_SMIF_Disable
 112:Generated_Source\PSoC6\pdl\drivers\peripheral\smif/cy_smif.c **** *
 113:Generated_Source\PSoC6\pdl\drivers\peripheral\smif/cy_smif.c **** *******************************************************************************/
 114:Generated_Source\PSoC6\pdl\drivers\peripheral\smif/cy_smif.c **** void Cy_SMIF_DeInit(SMIF_Type *base)
 115:Generated_Source\PSoC6\pdl\drivers\peripheral\smif/cy_smif.c **** {
ARM GAS  C:\Users\ikomb\AppData\Local\Temp\ccEKz2Td.s 			page 52


 1362              		.loc 2 115 0
 1363              		.cfi_startproc
 1364              		@ args = 0, pretend = 0, frame = 16
 1365              		@ frame_needed = 1, uses_anonymous_args = 0
 1366              		@ link register save eliminated.
 1367 0000 80B4     		push	{r7}
 1368              		.cfi_def_cfa_offset 4
 1369              		.cfi_offset 7, -4
 1370 0002 85B0     		sub	sp, sp, #20
 1371              		.cfi_def_cfa_offset 24
 1372 0004 00AF     		add	r7, sp, #0
 1373              		.cfi_def_cfa_register 7
 1374 0006 7860     		str	r0, [r7, #4]
 116:Generated_Source\PSoC6\pdl\drivers\peripheral\smif/cy_smif.c ****     uint32_t idx;
 117:Generated_Source\PSoC6\pdl\drivers\peripheral\smif/cy_smif.c **** 
 118:Generated_Source\PSoC6\pdl\drivers\peripheral\smif/cy_smif.c ****     /* Configure the SMIF interface to default values. 
 119:Generated_Source\PSoC6\pdl\drivers\peripheral\smif/cy_smif.c ****     * The default value is 0. 
 120:Generated_Source\PSoC6\pdl\drivers\peripheral\smif/cy_smif.c ****     */
 121:Generated_Source\PSoC6\pdl\drivers\peripheral\smif/cy_smif.c ****     base->CTL = CY_SMIF_CTL_REG_DEFAULT;
 1375              		.loc 2 121 0
 1376 0008 7B68     		ldr	r3, [r7, #4]
 1377 000a 4FF44072 		mov	r2, #768
 1378 000e 1A60     		str	r2, [r3]
 122:Generated_Source\PSoC6\pdl\drivers\peripheral\smif/cy_smif.c ****     base->TX_DATA_FIFO_CTL = 0U;
 1379              		.loc 2 122 0
 1380 0010 7B68     		ldr	r3, [r7, #4]
 1381 0012 0022     		movs	r2, #0
 1382 0014 C3F88020 		str	r2, [r3, #128]
 123:Generated_Source\PSoC6\pdl\drivers\peripheral\smif/cy_smif.c ****     base->RX_DATA_FIFO_CTL = 0U;
 1383              		.loc 2 123 0
 1384 0018 7B68     		ldr	r3, [r7, #4]
 1385 001a 0022     		movs	r2, #0
 1386 001c C3F8C020 		str	r2, [r3, #192]
 124:Generated_Source\PSoC6\pdl\drivers\peripheral\smif/cy_smif.c ****     base->INTR_MASK = 0U;
 1387              		.loc 2 124 0
 1388 0020 7B68     		ldr	r3, [r7, #4]
 1389 0022 0022     		movs	r2, #0
 1390 0024 C3F8C827 		str	r2, [r3, #1992]
 125:Generated_Source\PSoC6\pdl\drivers\peripheral\smif/cy_smif.c ****     for(idx = 0UL; idx < SMIF_DEVICE_NR; idx++)
 1391              		.loc 2 125 0
 1392 0028 0023     		movs	r3, #0
 1393 002a FB60     		str	r3, [r7, #12]
 1394 002c 0FE0     		b	.L72
 1395              	.L73:
 126:Generated_Source\PSoC6\pdl\drivers\peripheral\smif/cy_smif.c ****     {
 127:Generated_Source\PSoC6\pdl\drivers\peripheral\smif/cy_smif.c ****         base->DEVICE[idx].CTL = 0U;
 1396              		.loc 2 127 0 discriminator 3
 1397 002e 7A68     		ldr	r2, [r7, #4]
 1398 0030 FB68     		ldr	r3, [r7, #12]
 1399 0032 1033     		adds	r3, r3, #16
 1400 0034 DB01     		lsls	r3, r3, #7
 1401 0036 1344     		add	r3, r3, r2
 1402 0038 0022     		movs	r2, #0
 1403 003a 1A60     		str	r2, [r3]
 128:Generated_Source\PSoC6\pdl\drivers\peripheral\smif/cy_smif.c **** 
 129:Generated_Source\PSoC6\pdl\drivers\peripheral\smif/cy_smif.c ****         /* Read the register to flush the buffer */
 130:Generated_Source\PSoC6\pdl\drivers\peripheral\smif/cy_smif.c ****         (void) base->DEVICE[idx].CTL;
ARM GAS  C:\Users\ikomb\AppData\Local\Temp\ccEKz2Td.s 			page 53


 1404              		.loc 2 130 0 discriminator 3
 1405 003c 7A68     		ldr	r2, [r7, #4]
 1406 003e FB68     		ldr	r3, [r7, #12]
 1407 0040 1033     		adds	r3, r3, #16
 1408 0042 DB01     		lsls	r3, r3, #7
 1409 0044 1344     		add	r3, r3, r2
 1410 0046 1B68     		ldr	r3, [r3]
 125:Generated_Source\PSoC6\pdl\drivers\peripheral\smif/cy_smif.c ****     {
 1411              		.loc 2 125 0 discriminator 3
 1412 0048 FB68     		ldr	r3, [r7, #12]
 1413 004a 0133     		adds	r3, r3, #1
 1414 004c FB60     		str	r3, [r7, #12]
 1415              	.L72:
 125:Generated_Source\PSoC6\pdl\drivers\peripheral\smif/cy_smif.c ****     {
 1416              		.loc 2 125 0 is_stmt 0 discriminator 1
 1417 004e FB68     		ldr	r3, [r7, #12]
 1418 0050 032B     		cmp	r3, #3
 1419 0052 ECD9     		bls	.L73
 131:Generated_Source\PSoC6\pdl\drivers\peripheral\smif/cy_smif.c ****     }
 132:Generated_Source\PSoC6\pdl\drivers\peripheral\smif/cy_smif.c **** }
 1420              		.loc 2 132 0 is_stmt 1
 1421 0054 00BF     		nop
 1422 0056 1437     		adds	r7, r7, #20
 1423              		.cfi_def_cfa_offset 4
 1424 0058 BD46     		mov	sp, r7
 1425              		.cfi_def_cfa_register 13
 1426              		@ sp needed
 1427 005a 5DF8047B 		ldr	r7, [sp], #4
 1428              		.cfi_restore 7
 1429              		.cfi_def_cfa_offset 0
 1430 005e 7047     		bx	lr
 1431              		.cfi_endproc
 1432              	.LFE179:
 1433              		.size	Cy_SMIF_DeInit, .-Cy_SMIF_DeInit
 1434              		.section	.text.Cy_SMIF_SetMode,"ax",%progbits
 1435              		.align	2
 1436              		.global	Cy_SMIF_SetMode
 1437              		.thumb
 1438              		.thumb_func
 1439              		.type	Cy_SMIF_SetMode, %function
 1440              	Cy_SMIF_SetMode:
 1441              	.LFB180:
 133:Generated_Source\PSoC6\pdl\drivers\peripheral\smif/cy_smif.c **** 
 134:Generated_Source\PSoC6\pdl\drivers\peripheral\smif/cy_smif.c **** 
 135:Generated_Source\PSoC6\pdl\drivers\peripheral\smif/cy_smif.c **** /*******************************************************************************
 136:Generated_Source\PSoC6\pdl\drivers\peripheral\smif/cy_smif.c **** * Function Name: Cy_SMIF_SetMode
 137:Generated_Source\PSoC6\pdl\drivers\peripheral\smif/cy_smif.c **** ****************************************************************************//**
 138:Generated_Source\PSoC6\pdl\drivers\peripheral\smif/cy_smif.c **** *
 139:Generated_Source\PSoC6\pdl\drivers\peripheral\smif/cy_smif.c **** * Sets the mode of operation for the SMIF. The mode of operation can be the XIP
 140:Generated_Source\PSoC6\pdl\drivers\peripheral\smif/cy_smif.c **** * mode where the slave devices are mapped as memories and are directly accessed
 141:Generated_Source\PSoC6\pdl\drivers\peripheral\smif/cy_smif.c **** * from the PSoC register map. In the MMIO mode, the SMIF block acts as a simple
 142:Generated_Source\PSoC6\pdl\drivers\peripheral\smif/cy_smif.c **** * SPI engine.
 143:Generated_Source\PSoC6\pdl\drivers\peripheral\smif/cy_smif.c **** *
 144:Generated_Source\PSoC6\pdl\drivers\peripheral\smif/cy_smif.c **** * \note Interrupt and triggers and not working in XIP mode, see TRM for details
 145:Generated_Source\PSoC6\pdl\drivers\peripheral\smif/cy_smif.c **** *
 146:Generated_Source\PSoC6\pdl\drivers\peripheral\smif/cy_smif.c **** * \param base
 147:Generated_Source\PSoC6\pdl\drivers\peripheral\smif/cy_smif.c **** * Holds the base address of the SMIF block registers.
ARM GAS  C:\Users\ikomb\AppData\Local\Temp\ccEKz2Td.s 			page 54


 148:Generated_Source\PSoC6\pdl\drivers\peripheral\smif/cy_smif.c **** *
 149:Generated_Source\PSoC6\pdl\drivers\peripheral\smif/cy_smif.c **** * \param mode
 150:Generated_Source\PSoC6\pdl\drivers\peripheral\smif/cy_smif.c **** * The mode of the SMIF operation.
 151:Generated_Source\PSoC6\pdl\drivers\peripheral\smif/cy_smif.c **** *
 152:Generated_Source\PSoC6\pdl\drivers\peripheral\smif/cy_smif.c **** *******************************************************************************/
 153:Generated_Source\PSoC6\pdl\drivers\peripheral\smif/cy_smif.c **** void Cy_SMIF_SetMode(SMIF_Type *base, cy_en_smif_mode_t mode)
 154:Generated_Source\PSoC6\pdl\drivers\peripheral\smif/cy_smif.c **** {
 1442              		.loc 2 154 0
 1443              		.cfi_startproc
 1444              		@ args = 0, pretend = 0, frame = 8
 1445              		@ frame_needed = 1, uses_anonymous_args = 0
 1446 0000 80B5     		push	{r7, lr}
 1447              		.cfi_def_cfa_offset 8
 1448              		.cfi_offset 7, -8
 1449              		.cfi_offset 14, -4
 1450 0002 82B0     		sub	sp, sp, #8
 1451              		.cfi_def_cfa_offset 16
 1452 0004 00AF     		add	r7, sp, #0
 1453              		.cfi_def_cfa_register 7
 1454 0006 7860     		str	r0, [r7, #4]
 1455 0008 0B46     		mov	r3, r1
 1456 000a FB70     		strb	r3, [r7, #3]
 155:Generated_Source\PSoC6\pdl\drivers\peripheral\smif/cy_smif.c ****     CY_ASSERT_L3(CY_SMIF_MODE_VALID(mode));
 1457              		.loc 2 155 0
 1458 000c FB78     		ldrb	r3, [r7, #3]	@ zero_extendqisi2
 1459 000e 002B     		cmp	r3, #0
 1460 0010 06D0     		beq	.L75
 1461              		.loc 2 155 0 is_stmt 0 discriminator 1
 1462 0012 FB78     		ldrb	r3, [r7, #3]	@ zero_extendqisi2
 1463 0014 012B     		cmp	r3, #1
 1464 0016 03D0     		beq	.L75
 1465              		.loc 2 155 0 discriminator 2
 1466 0018 9B21     		movs	r1, #155
 1467 001a 0C48     		ldr	r0, .L78
 1468 001c FFF7FEFF 		bl	Cy_SysLib_AssertFailed
 1469              	.L75:
 156:Generated_Source\PSoC6\pdl\drivers\peripheral\smif/cy_smif.c ****     
 157:Generated_Source\PSoC6\pdl\drivers\peripheral\smif/cy_smif.c ****     /*  Set the register SMIF.CTL.XIP_MODE = TRUE */
 158:Generated_Source\PSoC6\pdl\drivers\peripheral\smif/cy_smif.c ****     if (CY_SMIF_NORMAL == mode)
 1470              		.loc 2 158 0 is_stmt 1
 1471 0020 FB78     		ldrb	r3, [r7, #3]	@ zero_extendqisi2
 1472 0022 002B     		cmp	r3, #0
 1473 0024 06D1     		bne	.L76
 159:Generated_Source\PSoC6\pdl\drivers\peripheral\smif/cy_smif.c ****     {
 160:Generated_Source\PSoC6\pdl\drivers\peripheral\smif/cy_smif.c ****         base->CTL &= ~ SMIF_CTL_XIP_MODE_Msk;
 1474              		.loc 2 160 0
 1475 0026 7B68     		ldr	r3, [r7, #4]
 1476 0028 1B68     		ldr	r3, [r3]
 1477 002a 23F00102 		bic	r2, r3, #1
 1478 002e 7B68     		ldr	r3, [r7, #4]
 1479 0030 1A60     		str	r2, [r3]
 1480 0032 05E0     		b	.L77
 1481              	.L76:
 161:Generated_Source\PSoC6\pdl\drivers\peripheral\smif/cy_smif.c ****     }
 162:Generated_Source\PSoC6\pdl\drivers\peripheral\smif/cy_smif.c ****     else
 163:Generated_Source\PSoC6\pdl\drivers\peripheral\smif/cy_smif.c ****     {
 164:Generated_Source\PSoC6\pdl\drivers\peripheral\smif/cy_smif.c ****         base->CTL |= SMIF_CTL_XIP_MODE_Msk;
ARM GAS  C:\Users\ikomb\AppData\Local\Temp\ccEKz2Td.s 			page 55


 1482              		.loc 2 164 0
 1483 0034 7B68     		ldr	r3, [r7, #4]
 1484 0036 1B68     		ldr	r3, [r3]
 1485 0038 43F00102 		orr	r2, r3, #1
 1486 003c 7B68     		ldr	r3, [r7, #4]
 1487 003e 1A60     		str	r2, [r3]
 1488              	.L77:
 165:Generated_Source\PSoC6\pdl\drivers\peripheral\smif/cy_smif.c ****     }
 166:Generated_Source\PSoC6\pdl\drivers\peripheral\smif/cy_smif.c **** 
 167:Generated_Source\PSoC6\pdl\drivers\peripheral\smif/cy_smif.c ****     /* Read the register to flush the buffer */
 168:Generated_Source\PSoC6\pdl\drivers\peripheral\smif/cy_smif.c ****     (void) base->CTL;
 1489              		.loc 2 168 0
 1490 0040 7B68     		ldr	r3, [r7, #4]
 1491 0042 1B68     		ldr	r3, [r3]
 169:Generated_Source\PSoC6\pdl\drivers\peripheral\smif/cy_smif.c **** }
 1492              		.loc 2 169 0
 1493 0044 00BF     		nop
 1494 0046 0837     		adds	r7, r7, #8
 1495              		.cfi_def_cfa_offset 8
 1496 0048 BD46     		mov	sp, r7
 1497              		.cfi_def_cfa_register 13
 1498              		@ sp needed
 1499 004a 80BD     		pop	{r7, pc}
 1500              	.L79:
 1501              		.align	2
 1502              	.L78:
 1503 004c 00000000 		.word	.LC0
 1504              		.cfi_endproc
 1505              	.LFE180:
 1506              		.size	Cy_SMIF_SetMode, .-Cy_SMIF_SetMode
 1507              		.section	.text.Cy_SMIF_GetMode,"ax",%progbits
 1508              		.align	2
 1509              		.global	Cy_SMIF_GetMode
 1510              		.thumb
 1511              		.thumb_func
 1512              		.type	Cy_SMIF_GetMode, %function
 1513              	Cy_SMIF_GetMode:
 1514              	.LFB181:
 170:Generated_Source\PSoC6\pdl\drivers\peripheral\smif/cy_smif.c **** 
 171:Generated_Source\PSoC6\pdl\drivers\peripheral\smif/cy_smif.c **** 
 172:Generated_Source\PSoC6\pdl\drivers\peripheral\smif/cy_smif.c **** /*******************************************************************************
 173:Generated_Source\PSoC6\pdl\drivers\peripheral\smif/cy_smif.c **** * Function Name: Cy_SMIF_GetMode
 174:Generated_Source\PSoC6\pdl\drivers\peripheral\smif/cy_smif.c **** ****************************************************************************//**
 175:Generated_Source\PSoC6\pdl\drivers\peripheral\smif/cy_smif.c **** *
 176:Generated_Source\PSoC6\pdl\drivers\peripheral\smif/cy_smif.c **** * Reads the mode of operation for the SMIF. The mode of operation can be the
 177:Generated_Source\PSoC6\pdl\drivers\peripheral\smif/cy_smif.c **** * XIP mode where the slave devices are mapped as memories and are directly
 178:Generated_Source\PSoC6\pdl\drivers\peripheral\smif/cy_smif.c **** * accessed from the PSoC register map. In the MMIO mode, the SMIF block acts as
 179:Generated_Source\PSoC6\pdl\drivers\peripheral\smif/cy_smif.c **** * a simple SPI engine.
 180:Generated_Source\PSoC6\pdl\drivers\peripheral\smif/cy_smif.c **** *
 181:Generated_Source\PSoC6\pdl\drivers\peripheral\smif/cy_smif.c **** * \param base
 182:Generated_Source\PSoC6\pdl\drivers\peripheral\smif/cy_smif.c **** * Holds the base address of the SMIF block registers.
 183:Generated_Source\PSoC6\pdl\drivers\peripheral\smif/cy_smif.c **** *
 184:Generated_Source\PSoC6\pdl\drivers\peripheral\smif/cy_smif.c **** * \return The mode of SMIF operation (see \ref cy_en_smif_mode_t).
 185:Generated_Source\PSoC6\pdl\drivers\peripheral\smif/cy_smif.c **** *
 186:Generated_Source\PSoC6\pdl\drivers\peripheral\smif/cy_smif.c **** *******************************************************************************/
 187:Generated_Source\PSoC6\pdl\drivers\peripheral\smif/cy_smif.c **** cy_en_smif_mode_t Cy_SMIF_GetMode(SMIF_Type const *base)
 188:Generated_Source\PSoC6\pdl\drivers\peripheral\smif/cy_smif.c **** {
ARM GAS  C:\Users\ikomb\AppData\Local\Temp\ccEKz2Td.s 			page 56


 1515              		.loc 2 188 0
 1516              		.cfi_startproc
 1517              		@ args = 0, pretend = 0, frame = 16
 1518              		@ frame_needed = 1, uses_anonymous_args = 0
 1519              		@ link register save eliminated.
 1520 0000 80B4     		push	{r7}
 1521              		.cfi_def_cfa_offset 4
 1522              		.cfi_offset 7, -4
 1523 0002 85B0     		sub	sp, sp, #20
 1524              		.cfi_def_cfa_offset 24
 1525 0004 00AF     		add	r7, sp, #0
 1526              		.cfi_def_cfa_register 7
 1527 0006 7860     		str	r0, [r7, #4]
 189:Generated_Source\PSoC6\pdl\drivers\peripheral\smif/cy_smif.c ****     cy_en_smif_mode_t result = CY_SMIF_NORMAL;
 1528              		.loc 2 189 0
 1529 0008 0023     		movs	r3, #0
 1530 000a FB73     		strb	r3, [r7, #15]
 190:Generated_Source\PSoC6\pdl\drivers\peripheral\smif/cy_smif.c **** 
 191:Generated_Source\PSoC6\pdl\drivers\peripheral\smif/cy_smif.c ****     /* Read the register SMIF.CTL.XIP_MODE*/
 192:Generated_Source\PSoC6\pdl\drivers\peripheral\smif/cy_smif.c ****     if (0U != (base->CTL & SMIF_CTL_XIP_MODE_Msk))
 1531              		.loc 2 192 0
 1532 000c 7B68     		ldr	r3, [r7, #4]
 1533 000e 1B68     		ldr	r3, [r3]
 1534 0010 03F00103 		and	r3, r3, #1
 1535 0014 002B     		cmp	r3, #0
 1536 0016 01D0     		beq	.L81
 193:Generated_Source\PSoC6\pdl\drivers\peripheral\smif/cy_smif.c ****     {
 194:Generated_Source\PSoC6\pdl\drivers\peripheral\smif/cy_smif.c ****         result = CY_SMIF_MEMORY;
 1537              		.loc 2 194 0
 1538 0018 0123     		movs	r3, #1
 1539 001a FB73     		strb	r3, [r7, #15]
 1540              	.L81:
 195:Generated_Source\PSoC6\pdl\drivers\peripheral\smif/cy_smif.c ****     }
 196:Generated_Source\PSoC6\pdl\drivers\peripheral\smif/cy_smif.c **** 
 197:Generated_Source\PSoC6\pdl\drivers\peripheral\smif/cy_smif.c ****     return (result);
 1541              		.loc 2 197 0
 1542 001c FB7B     		ldrb	r3, [r7, #15]	@ zero_extendqisi2
 198:Generated_Source\PSoC6\pdl\drivers\peripheral\smif/cy_smif.c **** }
 1543              		.loc 2 198 0
 1544 001e 1846     		mov	r0, r3
 1545 0020 1437     		adds	r7, r7, #20
 1546              		.cfi_def_cfa_offset 4
 1547 0022 BD46     		mov	sp, r7
 1548              		.cfi_def_cfa_register 13
 1549              		@ sp needed
 1550 0024 5DF8047B 		ldr	r7, [sp], #4
 1551              		.cfi_restore 7
 1552              		.cfi_def_cfa_offset 0
 1553 0028 7047     		bx	lr
 1554              		.cfi_endproc
 1555              	.LFE181:
 1556              		.size	Cy_SMIF_GetMode, .-Cy_SMIF_GetMode
 1557 002a 00BF     		.section	.text.Cy_SMIF_SetDataSelect,"ax",%progbits
 1558              		.align	2
 1559              		.global	Cy_SMIF_SetDataSelect
 1560              		.thumb
 1561              		.thumb_func
ARM GAS  C:\Users\ikomb\AppData\Local\Temp\ccEKz2Td.s 			page 57


 1562              		.type	Cy_SMIF_SetDataSelect, %function
 1563              	Cy_SMIF_SetDataSelect:
 1564              	.LFB182:
 199:Generated_Source\PSoC6\pdl\drivers\peripheral\smif/cy_smif.c **** 
 200:Generated_Source\PSoC6\pdl\drivers\peripheral\smif/cy_smif.c **** 
 201:Generated_Source\PSoC6\pdl\drivers\peripheral\smif/cy_smif.c **** /*******************************************************************************
 202:Generated_Source\PSoC6\pdl\drivers\peripheral\smif/cy_smif.c **** * Function Name: Cy_SMIF_SetDataSelect
 203:Generated_Source\PSoC6\pdl\drivers\peripheral\smif/cy_smif.c **** ****************************************************************************//**
 204:Generated_Source\PSoC6\pdl\drivers\peripheral\smif/cy_smif.c **** *
 205:Generated_Source\PSoC6\pdl\drivers\peripheral\smif/cy_smif.c **** * This function configures the data select option for a specific slave. The
 206:Generated_Source\PSoC6\pdl\drivers\peripheral\smif/cy_smif.c **** * selection provides pre-set combinations for connecting the SMIF data lines to
 207:Generated_Source\PSoC6\pdl\drivers\peripheral\smif/cy_smif.c **** * the GPIOs.
 208:Generated_Source\PSoC6\pdl\drivers\peripheral\smif/cy_smif.c **** *
 209:Generated_Source\PSoC6\pdl\drivers\peripheral\smif/cy_smif.c **** * \param base
 210:Generated_Source\PSoC6\pdl\drivers\peripheral\smif/cy_smif.c **** * Holds the base address of the SMIF block registers.
 211:Generated_Source\PSoC6\pdl\drivers\peripheral\smif/cy_smif.c **** *
 212:Generated_Source\PSoC6\pdl\drivers\peripheral\smif/cy_smif.c **** * \param slaveSelect
 213:Generated_Source\PSoC6\pdl\drivers\peripheral\smif/cy_smif.c **** * The slave device ID. This number is either CY_SMIF_SLAVE_SELECT_0 or
 214:Generated_Source\PSoC6\pdl\drivers\peripheral\smif/cy_smif.c **** * CY_SMIF_SLAVE_SELECT_1 or CY_SMIF_SLAVE_SELECT_2 or CY_SMIF_SLAVE_SELECT_3
 215:Generated_Source\PSoC6\pdl\drivers\peripheral\smif/cy_smif.c **** * (\ref cy_en_smif_slave_select_t). It defines the slave select line to be used
 216:Generated_Source\PSoC6\pdl\drivers\peripheral\smif/cy_smif.c **** * during the transmission.
 217:Generated_Source\PSoC6\pdl\drivers\peripheral\smif/cy_smif.c **** *
 218:Generated_Source\PSoC6\pdl\drivers\peripheral\smif/cy_smif.c **** * \param dataSelect
 219:Generated_Source\PSoC6\pdl\drivers\peripheral\smif/cy_smif.c **** * This parameter selects the data select option. \ref cy_en_smif_data_select_t
 220:Generated_Source\PSoC6\pdl\drivers\peripheral\smif/cy_smif.c **** *
 221:Generated_Source\PSoC6\pdl\drivers\peripheral\smif/cy_smif.c **** *******************************************************************************/
 222:Generated_Source\PSoC6\pdl\drivers\peripheral\smif/cy_smif.c **** void Cy_SMIF_SetDataSelect(SMIF_Type *base, cy_en_smif_slave_select_t slaveSelect,
 223:Generated_Source\PSoC6\pdl\drivers\peripheral\smif/cy_smif.c ****                             cy_en_smif_data_select_t dataSelect)
 224:Generated_Source\PSoC6\pdl\drivers\peripheral\smif/cy_smif.c **** {
 1565              		.loc 2 224 0
 1566              		.cfi_startproc
 1567              		@ args = 0, pretend = 0, frame = 16
 1568              		@ frame_needed = 1, uses_anonymous_args = 0
 1569 0000 80B5     		push	{r7, lr}
 1570              		.cfi_def_cfa_offset 8
 1571              		.cfi_offset 7, -8
 1572              		.cfi_offset 14, -4
 1573 0002 84B0     		sub	sp, sp, #16
 1574              		.cfi_def_cfa_offset 24
 1575 0004 00AF     		add	r7, sp, #0
 1576              		.cfi_def_cfa_register 7
 1577 0006 7860     		str	r0, [r7, #4]
 1578 0008 0B46     		mov	r3, r1
 1579 000a FB70     		strb	r3, [r7, #3]
 1580 000c 1346     		mov	r3, r2
 1581 000e BB70     		strb	r3, [r7, #2]
 225:Generated_Source\PSoC6\pdl\drivers\peripheral\smif/cy_smif.c ****     SMIF_DEVICE_Type volatile *device;
 226:Generated_Source\PSoC6\pdl\drivers\peripheral\smif/cy_smif.c ****     
 227:Generated_Source\PSoC6\pdl\drivers\peripheral\smif/cy_smif.c ****     CY_ASSERT_L3(CY_SMIF_SLAVE_SEL_VALID(slaveSelect));
 1582              		.loc 2 227 0
 1583 0010 FB78     		ldrb	r3, [r7, #3]	@ zero_extendqisi2
 1584 0012 012B     		cmp	r3, #1
 1585 0014 0CD0     		beq	.L84
 1586              		.loc 2 227 0 is_stmt 0 discriminator 1
 1587 0016 FB78     		ldrb	r3, [r7, #3]	@ zero_extendqisi2
 1588 0018 022B     		cmp	r3, #2
 1589 001a 09D0     		beq	.L84
ARM GAS  C:\Users\ikomb\AppData\Local\Temp\ccEKz2Td.s 			page 58


 1590              		.loc 2 227 0 discriminator 2
 1591 001c FB78     		ldrb	r3, [r7, #3]	@ zero_extendqisi2
 1592 001e 042B     		cmp	r3, #4
 1593 0020 06D0     		beq	.L84
 1594              		.loc 2 227 0 discriminator 3
 1595 0022 FB78     		ldrb	r3, [r7, #3]	@ zero_extendqisi2
 1596 0024 082B     		cmp	r3, #8
 1597 0026 03D0     		beq	.L84
 1598              		.loc 2 227 0 discriminator 4
 1599 0028 E321     		movs	r1, #227
 1600 002a 1648     		ldr	r0, .L88
 1601 002c FFF7FEFF 		bl	Cy_SysLib_AssertFailed
 1602              	.L84:
 228:Generated_Source\PSoC6\pdl\drivers\peripheral\smif/cy_smif.c ****     CY_ASSERT_L3(CY_SMIF_DATA_SEL_VALID(dataSelect));
 1603              		.loc 2 228 0 is_stmt 1
 1604 0030 BB78     		ldrb	r3, [r7, #2]	@ zero_extendqisi2
 1605 0032 002B     		cmp	r3, #0
 1606 0034 0CD0     		beq	.L85
 1607              		.loc 2 228 0 is_stmt 0 discriminator 1
 1608 0036 BB78     		ldrb	r3, [r7, #2]	@ zero_extendqisi2
 1609 0038 012B     		cmp	r3, #1
 1610 003a 09D0     		beq	.L85
 1611              		.loc 2 228 0 discriminator 2
 1612 003c BB78     		ldrb	r3, [r7, #2]	@ zero_extendqisi2
 1613 003e 022B     		cmp	r3, #2
 1614 0040 06D0     		beq	.L85
 1615              		.loc 2 228 0 discriminator 3
 1616 0042 BB78     		ldrb	r3, [r7, #2]	@ zero_extendqisi2
 1617 0044 032B     		cmp	r3, #3
 1618 0046 03D0     		beq	.L85
 1619              		.loc 2 228 0 discriminator 4
 1620 0048 E421     		movs	r1, #228
 1621 004a 0E48     		ldr	r0, .L88
 1622 004c FFF7FEFF 		bl	Cy_SysLib_AssertFailed
 1623              	.L85:
 229:Generated_Source\PSoC6\pdl\drivers\peripheral\smif/cy_smif.c ****     
 230:Generated_Source\PSoC6\pdl\drivers\peripheral\smif/cy_smif.c ****     /* Connect the slave to its data lines */
 231:Generated_Source\PSoC6\pdl\drivers\peripheral\smif/cy_smif.c ****     device = Cy_SMIF_GetDeviceBySlot(base, slaveSelect);
 1624              		.loc 2 231 0 is_stmt 1
 1625 0050 FB78     		ldrb	r3, [r7, #3]	@ zero_extendqisi2
 1626 0052 1946     		mov	r1, r3
 1627 0054 7868     		ldr	r0, [r7, #4]
 1628 0056 FFF7FEFF 		bl	Cy_SMIF_GetDeviceBySlot
 1629 005a F860     		str	r0, [r7, #12]
 232:Generated_Source\PSoC6\pdl\drivers\peripheral\smif/cy_smif.c **** 
 233:Generated_Source\PSoC6\pdl\drivers\peripheral\smif/cy_smif.c ****     if(NULL != device)
 1630              		.loc 2 233 0
 1631 005c FB68     		ldr	r3, [r7, #12]
 1632 005e 002B     		cmp	r3, #0
 1633 0060 0CD0     		beq	.L87
 234:Generated_Source\PSoC6\pdl\drivers\peripheral\smif/cy_smif.c ****     {
 235:Generated_Source\PSoC6\pdl\drivers\peripheral\smif/cy_smif.c ****         device->CTL = _CLR_SET_FLD32U(device->CTL, SMIF_DEVICE_CTL_DATA_SEL,
 1634              		.loc 2 235 0
 1635 0062 FB68     		ldr	r3, [r7, #12]
 1636 0064 1B68     		ldr	r3, [r3]
 1637 0066 23F44032 		bic	r2, r3, #196608
 1638 006a BB78     		ldrb	r3, [r7, #2]	@ zero_extendqisi2
ARM GAS  C:\Users\ikomb\AppData\Local\Temp\ccEKz2Td.s 			page 59


 1639 006c 1B04     		lsls	r3, r3, #16
 1640 006e 03F44033 		and	r3, r3, #196608
 1641 0072 1A43     		orrs	r2, r2, r3
 1642 0074 FB68     		ldr	r3, [r7, #12]
 1643 0076 1A60     		str	r2, [r3]
 236:Generated_Source\PSoC6\pdl\drivers\peripheral\smif/cy_smif.c ****                                                   (uint32_t)dataSelect);
 237:Generated_Source\PSoC6\pdl\drivers\peripheral\smif/cy_smif.c **** 
 238:Generated_Source\PSoC6\pdl\drivers\peripheral\smif/cy_smif.c ****         /* Read the register to flush the buffer */
 239:Generated_Source\PSoC6\pdl\drivers\peripheral\smif/cy_smif.c ****         (void) device->CTL;
 1644              		.loc 2 239 0
 1645 0078 FB68     		ldr	r3, [r7, #12]
 1646 007a 1B68     		ldr	r3, [r3]
 1647              	.L87:
 240:Generated_Source\PSoC6\pdl\drivers\peripheral\smif/cy_smif.c ****     }
 241:Generated_Source\PSoC6\pdl\drivers\peripheral\smif/cy_smif.c **** }
 1648              		.loc 2 241 0
 1649 007c 00BF     		nop
 1650 007e 1037     		adds	r7, r7, #16
 1651              		.cfi_def_cfa_offset 8
 1652 0080 BD46     		mov	sp, r7
 1653              		.cfi_def_cfa_register 13
 1654              		@ sp needed
 1655 0082 80BD     		pop	{r7, pc}
 1656              	.L89:
 1657              		.align	2
 1658              	.L88:
 1659 0084 00000000 		.word	.LC0
 1660              		.cfi_endproc
 1661              	.LFE182:
 1662              		.size	Cy_SMIF_SetDataSelect, .-Cy_SMIF_SetDataSelect
 1663              		.section	.text.Cy_SMIF_TransmitCommand,"ax",%progbits
 1664              		.align	2
 1665              		.global	Cy_SMIF_TransmitCommand
 1666              		.thumb
 1667              		.thumb_func
 1668              		.type	Cy_SMIF_TransmitCommand, %function
 1669              	Cy_SMIF_TransmitCommand:
 1670              	.LFB183:
 242:Generated_Source\PSoC6\pdl\drivers\peripheral\smif/cy_smif.c **** 
 243:Generated_Source\PSoC6\pdl\drivers\peripheral\smif/cy_smif.c **** 
 244:Generated_Source\PSoC6\pdl\drivers\peripheral\smif/cy_smif.c **** /*******************************************************************************
 245:Generated_Source\PSoC6\pdl\drivers\peripheral\smif/cy_smif.c **** * Function Name: Cy_SMIF_TransmitCommand()
 246:Generated_Source\PSoC6\pdl\drivers\peripheral\smif/cy_smif.c **** ****************************************************************************//**
 247:Generated_Source\PSoC6\pdl\drivers\peripheral\smif/cy_smif.c **** *
 248:Generated_Source\PSoC6\pdl\drivers\peripheral\smif/cy_smif.c **** * This function transmits a command byte followed by a parameter which is
 249:Generated_Source\PSoC6\pdl\drivers\peripheral\smif/cy_smif.c **** * typically an address field. The transfer is implemented using the TX FIFO.
 250:Generated_Source\PSoC6\pdl\drivers\peripheral\smif/cy_smif.c **** * This function also asserts the slave select line.
 251:Generated_Source\PSoC6\pdl\drivers\peripheral\smif/cy_smif.c **** * A command to a memory device generally starts with a command byte
 252:Generated_Source\PSoC6\pdl\drivers\peripheral\smif/cy_smif.c **** * transmission. This function sets up the slave lines for the rest of the
 253:Generated_Source\PSoC6\pdl\drivers\peripheral\smif/cy_smif.c **** * command structure. The \ref Cy_SMIF_TransmitCommand is called before \ref
 254:Generated_Source\PSoC6\pdl\drivers\peripheral\smif/cy_smif.c **** * Cy_SMIF_TransmitData or \ref Cy_SMIF_ReceiveData is called. When enabled, the
 255:Generated_Source\PSoC6\pdl\drivers\peripheral\smif/cy_smif.c **** * cmpltTxfr parameter in the function will de-assert the slave select line at 
 256:Generated_Source\PSoC6\pdl\drivers\peripheral\smif/cy_smif.c **** * the end of the function execution.
 257:Generated_Source\PSoC6\pdl\drivers\peripheral\smif/cy_smif.c **** *
 258:Generated_Source\PSoC6\pdl\drivers\peripheral\smif/cy_smif.c **** * \note This function blocks until all the command and associated parameters
 259:Generated_Source\PSoC6\pdl\drivers\peripheral\smif/cy_smif.c **** * have been transmitted over the SMIF block or timeout expire.
 260:Generated_Source\PSoC6\pdl\drivers\peripheral\smif/cy_smif.c **** *
ARM GAS  C:\Users\ikomb\AppData\Local\Temp\ccEKz2Td.s 			page 60


 261:Generated_Source\PSoC6\pdl\drivers\peripheral\smif/cy_smif.c **** * \param base
 262:Generated_Source\PSoC6\pdl\drivers\peripheral\smif/cy_smif.c **** * Holds the base address of the SMIF block registers.
 263:Generated_Source\PSoC6\pdl\drivers\peripheral\smif/cy_smif.c **** *
 264:Generated_Source\PSoC6\pdl\drivers\peripheral\smif/cy_smif.c **** * \param cmd
 265:Generated_Source\PSoC6\pdl\drivers\peripheral\smif/cy_smif.c **** * The command byte to be transmitted.
 266:Generated_Source\PSoC6\pdl\drivers\peripheral\smif/cy_smif.c **** *
 267:Generated_Source\PSoC6\pdl\drivers\peripheral\smif/cy_smif.c **** * \param cmdTxfrWidth
 268:Generated_Source\PSoC6\pdl\drivers\peripheral\smif/cy_smif.c **** * The width of command byte transfer \ref cy_en_smif_txfr_width_t.
 269:Generated_Source\PSoC6\pdl\drivers\peripheral\smif/cy_smif.c **** *
 270:Generated_Source\PSoC6\pdl\drivers\peripheral\smif/cy_smif.c **** * \param cmdParam
 271:Generated_Source\PSoC6\pdl\drivers\peripheral\smif/cy_smif.c **** * This is the pointer to an array that has bytes to be transmitted
 272:Generated_Source\PSoC6\pdl\drivers\peripheral\smif/cy_smif.c **** * after the command byte. Typically, this field has the address bytes
 273:Generated_Source\PSoC6\pdl\drivers\peripheral\smif/cy_smif.c **** * associated with the memory command.
 274:Generated_Source\PSoC6\pdl\drivers\peripheral\smif/cy_smif.c **** *
 275:Generated_Source\PSoC6\pdl\drivers\peripheral\smif/cy_smif.c **** * \param paramSize
 276:Generated_Source\PSoC6\pdl\drivers\peripheral\smif/cy_smif.c **** * The size of the cmdParam array.
 277:Generated_Source\PSoC6\pdl\drivers\peripheral\smif/cy_smif.c **** *
 278:Generated_Source\PSoC6\pdl\drivers\peripheral\smif/cy_smif.c **** * \param paramTxfrWidth
 279:Generated_Source\PSoC6\pdl\drivers\peripheral\smif/cy_smif.c **** * The width of parameter transfer \ref cy_en_smif_txfr_width_t.
 280:Generated_Source\PSoC6\pdl\drivers\peripheral\smif/cy_smif.c **** *
 281:Generated_Source\PSoC6\pdl\drivers\peripheral\smif/cy_smif.c **** * \param slaveSelect
 282:Generated_Source\PSoC6\pdl\drivers\peripheral\smif/cy_smif.c **** * Denotes the number of the slave device to which the transfer is made.
 283:Generated_Source\PSoC6\pdl\drivers\peripheral\smif/cy_smif.c **** * (0, 1, 2 or 4 - the bit defines which slave to enable) Two-bit enable is
 284:Generated_Source\PSoC6\pdl\drivers\peripheral\smif/cy_smif.c **** * possible only for the Double Quad SPI mode.
 285:Generated_Source\PSoC6\pdl\drivers\peripheral\smif/cy_smif.c **** *
 286:Generated_Source\PSoC6\pdl\drivers\peripheral\smif/cy_smif.c **** * \param cmpltTxfr
 287:Generated_Source\PSoC6\pdl\drivers\peripheral\smif/cy_smif.c **** * Specifies if the slave select line must be de-asserted after transferring
 288:Generated_Source\PSoC6\pdl\drivers\peripheral\smif/cy_smif.c **** * the last byte in the parameter array. Typically, this field is set to 0 when
 289:Generated_Source\PSoC6\pdl\drivers\peripheral\smif/cy_smif.c **** * this function succeed through \ref Cy_SMIF_TransmitData or \ref
 290:Generated_Source\PSoC6\pdl\drivers\peripheral\smif/cy_smif.c **** * Cy_SMIF_ReceiveData.
 291:Generated_Source\PSoC6\pdl\drivers\peripheral\smif/cy_smif.c **** *
 292:Generated_Source\PSoC6\pdl\drivers\peripheral\smif/cy_smif.c **** * \param context
 293:Generated_Source\PSoC6\pdl\drivers\peripheral\smif/cy_smif.c **** * Passes a configuration structure that contains the transfer parameters of the
 294:Generated_Source\PSoC6\pdl\drivers\peripheral\smif/cy_smif.c **** * SMIF block.
 295:Generated_Source\PSoC6\pdl\drivers\peripheral\smif/cy_smif.c **** *
 296:Generated_Source\PSoC6\pdl\drivers\peripheral\smif/cy_smif.c **** * \return A status of the command transmit.
 297:Generated_Source\PSoC6\pdl\drivers\peripheral\smif/cy_smif.c **** *       - \ref CY_SMIF_SUCCESS
 298:Generated_Source\PSoC6\pdl\drivers\peripheral\smif/cy_smif.c **** *       - \ref CY_SMIF_EXCEED_TIMEOUT
 299:Generated_Source\PSoC6\pdl\drivers\peripheral\smif/cy_smif.c **** *
 300:Generated_Source\PSoC6\pdl\drivers\peripheral\smif/cy_smif.c **** *******************************************************************************/
 301:Generated_Source\PSoC6\pdl\drivers\peripheral\smif/cy_smif.c **** cy_en_smif_status_t  Cy_SMIF_TransmitCommand(SMIF_Type *base,
 302:Generated_Source\PSoC6\pdl\drivers\peripheral\smif/cy_smif.c ****                                 uint8_t cmd,
 303:Generated_Source\PSoC6\pdl\drivers\peripheral\smif/cy_smif.c ****                                 cy_en_smif_txfr_width_t cmdTxfrWidth,
 304:Generated_Source\PSoC6\pdl\drivers\peripheral\smif/cy_smif.c ****                                 uint8_t const cmdParam[],
 305:Generated_Source\PSoC6\pdl\drivers\peripheral\smif/cy_smif.c ****                                 uint32_t paramSize,
 306:Generated_Source\PSoC6\pdl\drivers\peripheral\smif/cy_smif.c ****                                 cy_en_smif_txfr_width_t paramTxfrWidth,
 307:Generated_Source\PSoC6\pdl\drivers\peripheral\smif/cy_smif.c ****                                 cy_en_smif_slave_select_t  slaveSelect,
 308:Generated_Source\PSoC6\pdl\drivers\peripheral\smif/cy_smif.c ****                                 uint32_t cmpltTxfr,
 309:Generated_Source\PSoC6\pdl\drivers\peripheral\smif/cy_smif.c ****                                 cy_stc_smif_context_t const *context)
 310:Generated_Source\PSoC6\pdl\drivers\peripheral\smif/cy_smif.c **** {
 1671              		.loc 2 310 0
 1672              		.cfi_startproc
 1673              		@ args = 20, pretend = 0, frame = 32
 1674              		@ frame_needed = 1, uses_anonymous_args = 0
 1675 0000 80B5     		push	{r7, lr}
 1676              		.cfi_def_cfa_offset 8
 1677              		.cfi_offset 7, -8
ARM GAS  C:\Users\ikomb\AppData\Local\Temp\ccEKz2Td.s 			page 61


 1678              		.cfi_offset 14, -4
 1679 0002 88B0     		sub	sp, sp, #32
 1680              		.cfi_def_cfa_offset 40
 1681 0004 00AF     		add	r7, sp, #0
 1682              		.cfi_def_cfa_register 7
 1683 0006 F860     		str	r0, [r7, #12]
 1684 0008 7B60     		str	r3, [r7, #4]
 1685 000a 0B46     		mov	r3, r1
 1686 000c FB72     		strb	r3, [r7, #11]
 1687 000e 1346     		mov	r3, r2
 1688 0010 BB72     		strb	r3, [r7, #10]
 311:Generated_Source\PSoC6\pdl\drivers\peripheral\smif/cy_smif.c ****     /* The return variable */
 312:Generated_Source\PSoC6\pdl\drivers\peripheral\smif/cy_smif.c ****     cy_en_smif_status_t result = CY_SMIF_SUCCESS;
 1689              		.loc 2 312 0
 1690 0012 0023     		movs	r3, #0
 1691 0014 FB61     		str	r3, [r7, #28]
 313:Generated_Source\PSoC6\pdl\drivers\peripheral\smif/cy_smif.c ****     
 314:Generated_Source\PSoC6\pdl\drivers\peripheral\smif/cy_smif.c ****     /* Check input values */
 315:Generated_Source\PSoC6\pdl\drivers\peripheral\smif/cy_smif.c ****     CY_ASSERT_L3(CY_SMIF_TXFR_WIDTH_VALID(cmdTxfrWidth));
 1692              		.loc 2 315 0
 1693 0016 BB7A     		ldrb	r3, [r7, #10]	@ zero_extendqisi2
 1694 0018 002B     		cmp	r3, #0
 1695 001a 0DD0     		beq	.L91
 1696              		.loc 2 315 0 is_stmt 0 discriminator 1
 1697 001c BB7A     		ldrb	r3, [r7, #10]	@ zero_extendqisi2
 1698 001e 012B     		cmp	r3, #1
 1699 0020 0AD0     		beq	.L91
 1700              		.loc 2 315 0 discriminator 2
 1701 0022 BB7A     		ldrb	r3, [r7, #10]	@ zero_extendqisi2
 1702 0024 022B     		cmp	r3, #2
 1703 0026 07D0     		beq	.L91
 1704              		.loc 2 315 0 discriminator 3
 1705 0028 BB7A     		ldrb	r3, [r7, #10]	@ zero_extendqisi2
 1706 002a 032B     		cmp	r3, #3
 1707 002c 04D0     		beq	.L91
 1708              		.loc 2 315 0 discriminator 4
 1709 002e 40F23B11 		movw	r1, #315
 1710 0032 4648     		ldr	r0, .L104
 1711 0034 FFF7FEFF 		bl	Cy_SysLib_AssertFailed
 1712              	.L91:
 316:Generated_Source\PSoC6\pdl\drivers\peripheral\smif/cy_smif.c ****     CY_ASSERT_L3(CY_SMIF_TXFR_WIDTH_VALID(paramTxfrWidth));
 1713              		.loc 2 316 0 is_stmt 1
 1714 0038 97F82C30 		ldrb	r3, [r7, #44]	@ zero_extendqisi2
 1715 003c 002B     		cmp	r3, #0
 1716 003e 10D0     		beq	.L92
 1717              		.loc 2 316 0 is_stmt 0 discriminator 1
 1718 0040 97F82C30 		ldrb	r3, [r7, #44]	@ zero_extendqisi2
 1719 0044 012B     		cmp	r3, #1
 1720 0046 0CD0     		beq	.L92
 1721              		.loc 2 316 0 discriminator 2
 1722 0048 97F82C30 		ldrb	r3, [r7, #44]	@ zero_extendqisi2
 1723 004c 022B     		cmp	r3, #2
 1724 004e 08D0     		beq	.L92
 1725              		.loc 2 316 0 discriminator 3
 1726 0050 97F82C30 		ldrb	r3, [r7, #44]	@ zero_extendqisi2
 1727 0054 032B     		cmp	r3, #3
 1728 0056 04D0     		beq	.L92
ARM GAS  C:\Users\ikomb\AppData\Local\Temp\ccEKz2Td.s 			page 62


 1729              		.loc 2 316 0 discriminator 4
 1730 0058 4FF49E71 		mov	r1, #316
 1731 005c 3B48     		ldr	r0, .L104
 1732 005e FFF7FEFF 		bl	Cy_SysLib_AssertFailed
 1733              	.L92:
 317:Generated_Source\PSoC6\pdl\drivers\peripheral\smif/cy_smif.c ****     CY_ASSERT_L3(CY_SMIF_SLAVE_SEL_VALID(slaveSelect));
 1734              		.loc 2 317 0 is_stmt 1
 1735 0062 97F83030 		ldrb	r3, [r7, #48]	@ zero_extendqisi2
 1736 0066 012B     		cmp	r3, #1
 1737 0068 10D0     		beq	.L93
 1738              		.loc 2 317 0 is_stmt 0 discriminator 1
 1739 006a 97F83030 		ldrb	r3, [r7, #48]	@ zero_extendqisi2
 1740 006e 022B     		cmp	r3, #2
 1741 0070 0CD0     		beq	.L93
 1742              		.loc 2 317 0 discriminator 2
 1743 0072 97F83030 		ldrb	r3, [r7, #48]	@ zero_extendqisi2
 1744 0076 042B     		cmp	r3, #4
 1745 0078 08D0     		beq	.L93
 1746              		.loc 2 317 0 discriminator 3
 1747 007a 97F83030 		ldrb	r3, [r7, #48]	@ zero_extendqisi2
 1748 007e 082B     		cmp	r3, #8
 1749 0080 04D0     		beq	.L93
 1750              		.loc 2 317 0 discriminator 4
 1751 0082 40F23D11 		movw	r1, #317
 1752 0086 3148     		ldr	r0, .L104
 1753 0088 FFF7FEFF 		bl	Cy_SysLib_AssertFailed
 1754              	.L93:
 318:Generated_Source\PSoC6\pdl\drivers\peripheral\smif/cy_smif.c ****     CY_ASSERT_L1(CY_SMIF_CMD_PARAM_VALID(cmdParam, paramSize));
 1755              		.loc 2 318 0 is_stmt 1
 1756 008c BB6A     		ldr	r3, [r7, #40]
 1757 008e 002B     		cmp	r3, #0
 1758 0090 07D0     		beq	.L94
 1759              		.loc 2 318 0 is_stmt 0 discriminator 1
 1760 0092 7B68     		ldr	r3, [r7, #4]
 1761 0094 002B     		cmp	r3, #0
 1762 0096 04D1     		bne	.L94
 1763              		.loc 2 318 0 discriminator 2
 1764 0098 4FF49F71 		mov	r1, #318
 1765 009c 2B48     		ldr	r0, .L104
 1766 009e FFF7FEFF 		bl	Cy_SysLib_AssertFailed
 1767              	.L94:
 319:Generated_Source\PSoC6\pdl\drivers\peripheral\smif/cy_smif.c **** 
 320:Generated_Source\PSoC6\pdl\drivers\peripheral\smif/cy_smif.c ****     uint8_t bufIndex = 0U;
 1768              		.loc 2 320 0 is_stmt 1
 1769 00a2 0023     		movs	r3, #0
 1770 00a4 FB76     		strb	r3, [r7, #27]
 321:Generated_Source\PSoC6\pdl\drivers\peripheral\smif/cy_smif.c ****     /* The common part of a command and parameter transfer */
 322:Generated_Source\PSoC6\pdl\drivers\peripheral\smif/cy_smif.c ****     uint32_t const constCmdPart = (
 323:Generated_Source\PSoC6\pdl\drivers\peripheral\smif/cy_smif.c ****         _VAL2FLD(CY_SMIF_CMD_FIFO_WR_MODE, CY_SMIF_CMD_FIFO_TX_MODE) |
 324:Generated_Source\PSoC6\pdl\drivers\peripheral\smif/cy_smif.c ****         _VAL2FLD(CY_SMIF_CMD_FIFO_WR_SS, slaveSelect));
 1771              		.loc 2 324 0
 1772 00a6 97F83030 		ldrb	r3, [r7, #48]	@ zero_extendqisi2
 1773 00aa 1B02     		lsls	r3, r3, #8
 322:Generated_Source\PSoC6\pdl\drivers\peripheral\smif/cy_smif.c ****         _VAL2FLD(CY_SMIF_CMD_FIFO_WR_MODE, CY_SMIF_CMD_FIFO_TX_MODE) |
 1774              		.loc 2 322 0
 1775 00ac 03F47063 		and	r3, r3, #3840
 1776 00b0 7B61     		str	r3, [r7, #20]
ARM GAS  C:\Users\ikomb\AppData\Local\Temp\ccEKz2Td.s 			page 63


 325:Generated_Source\PSoC6\pdl\drivers\peripheral\smif/cy_smif.c ****     uint32_t timeoutUnits = context->timeout;
 1777              		.loc 2 325 0
 1778 00b2 BB6B     		ldr	r3, [r7, #56]
 1779 00b4 5B6A     		ldr	r3, [r3, #36]
 1780 00b6 3B61     		str	r3, [r7, #16]
 326:Generated_Source\PSoC6\pdl\drivers\peripheral\smif/cy_smif.c **** 
 327:Generated_Source\PSoC6\pdl\drivers\peripheral\smif/cy_smif.c ****     /* Send the command byte */
 328:Generated_Source\PSoC6\pdl\drivers\peripheral\smif/cy_smif.c ****     base->TX_CMD_FIFO_WR = constCmdPart |
 329:Generated_Source\PSoC6\pdl\drivers\peripheral\smif/cy_smif.c ****         _VAL2FLD(CY_SMIF_CMD_FIFO_WR_WIDTH, (uint32_t) cmdTxfrWidth) |
 1781              		.loc 2 329 0
 1782 00b8 BB7A     		ldrb	r3, [r7, #10]	@ zero_extendqisi2
 1783 00ba 1B04     		lsls	r3, r3, #16
 1784 00bc 03F44032 		and	r2, r3, #196608
 328:Generated_Source\PSoC6\pdl\drivers\peripheral\smif/cy_smif.c ****         _VAL2FLD(CY_SMIF_CMD_FIFO_WR_WIDTH, (uint32_t) cmdTxfrWidth) |
 1785              		.loc 2 328 0
 1786 00c0 7B69     		ldr	r3, [r7, #20]
 1787 00c2 1A43     		orrs	r2, r2, r3
 330:Generated_Source\PSoC6\pdl\drivers\peripheral\smif/cy_smif.c ****         _VAL2FLD(CY_SMIF_CMD_FIFO_WR_TXDATA, (uint32_t) cmd) |
 1788              		.loc 2 330 0
 1789 00c4 FB7A     		ldrb	r3, [r7, #11]	@ zero_extendqisi2
 329:Generated_Source\PSoC6\pdl\drivers\peripheral\smif/cy_smif.c ****         _VAL2FLD(CY_SMIF_CMD_FIFO_WR_TXDATA, (uint32_t) cmd) |
 1790              		.loc 2 329 0
 1791 00c6 1A43     		orrs	r2, r2, r3
 331:Generated_Source\PSoC6\pdl\drivers\peripheral\smif/cy_smif.c ****         _VAL2FLD(CY_SMIF_CMD_FIFO_WR_LAST_BYTE,
 1792              		.loc 2 331 0
 1793 00c8 BB6A     		ldr	r3, [r7, #40]
 1794 00ca 002B     		cmp	r3, #0
 1795 00cc 03D1     		bne	.L95
 1796              		.loc 2 331 0 is_stmt 0 discriminator 1
 1797 00ce 7B6B     		ldr	r3, [r7, #52]
 1798 00d0 DB03     		lsls	r3, r3, #15
 1799 00d2 9BB2     		uxth	r3, r3
 1800 00d4 00E0     		b	.L96
 1801              	.L95:
 1802              		.loc 2 331 0 discriminator 2
 1803 00d6 0023     		movs	r3, #0
 1804              	.L96:
 330:Generated_Source\PSoC6\pdl\drivers\peripheral\smif/cy_smif.c ****         _VAL2FLD(CY_SMIF_CMD_FIFO_WR_TXDATA, (uint32_t) cmd) |
 1805              		.loc 2 330 0 is_stmt 1
 1806 00d8 1A43     		orrs	r2, r2, r3
 328:Generated_Source\PSoC6\pdl\drivers\peripheral\smif/cy_smif.c ****         _VAL2FLD(CY_SMIF_CMD_FIFO_WR_WIDTH, (uint32_t) cmdTxfrWidth) |
 1807              		.loc 2 328 0
 1808 00da FB68     		ldr	r3, [r7, #12]
 1809 00dc 1A65     		str	r2, [r3, #80]
 332:Generated_Source\PSoC6\pdl\drivers\peripheral\smif/cy_smif.c ****             ((0UL == paramSize) ? cmpltTxfr : 0UL)) ;
 333:Generated_Source\PSoC6\pdl\drivers\peripheral\smif/cy_smif.c **** 
 334:Generated_Source\PSoC6\pdl\drivers\peripheral\smif/cy_smif.c ****     /* Send the command parameters (usually address) in the blocking mode */
 335:Generated_Source\PSoC6\pdl\drivers\peripheral\smif/cy_smif.c ****     while ((bufIndex < paramSize) && (CY_SMIF_EXCEED_TIMEOUT != result))
 1810              		.loc 2 335 0
 1811 00de 28E0     		b	.L97
 1812              	.L102:
 336:Generated_Source\PSoC6\pdl\drivers\peripheral\smif/cy_smif.c ****     {
 337:Generated_Source\PSoC6\pdl\drivers\peripheral\smif/cy_smif.c ****         /* Check if there is at least one free entry in TX_CMD_FIFO */
 338:Generated_Source\PSoC6\pdl\drivers\peripheral\smif/cy_smif.c ****         if  (Cy_SMIF_GetCmdFifoStatus(base) < CY_SMIF_TX_CMD_FIFO_STATUS_RANGE)
 1813              		.loc 2 338 0
 1814 00e0 F868     		ldr	r0, [r7, #12]
 1815 00e2 FFF7FEFF 		bl	Cy_SMIF_GetCmdFifoStatus
ARM GAS  C:\Users\ikomb\AppData\Local\Temp\ccEKz2Td.s 			page 64


 1816 00e6 0346     		mov	r3, r0
 1817 00e8 032B     		cmp	r3, #3
 1818 00ea 1CD8     		bhi	.L98
 339:Generated_Source\PSoC6\pdl\drivers\peripheral\smif/cy_smif.c ****         {
 340:Generated_Source\PSoC6\pdl\drivers\peripheral\smif/cy_smif.c ****             base->TX_CMD_FIFO_WR = constCmdPart|
 341:Generated_Source\PSoC6\pdl\drivers\peripheral\smif/cy_smif.c ****                 _VAL2FLD(CY_SMIF_CMD_FIFO_WR_TXDATA,
 1819              		.loc 2 341 0
 1820 00ec FB7E     		ldrb	r3, [r7, #27]	@ zero_extendqisi2
 1821 00ee 7A68     		ldr	r2, [r7, #4]
 1822 00f0 1344     		add	r3, r3, r2
 1823 00f2 1B78     		ldrb	r3, [r3]	@ zero_extendqisi2
 1824 00f4 1A46     		mov	r2, r3
 340:Generated_Source\PSoC6\pdl\drivers\peripheral\smif/cy_smif.c ****                 _VAL2FLD(CY_SMIF_CMD_FIFO_WR_TXDATA,
 1825              		.loc 2 340 0
 1826 00f6 7B69     		ldr	r3, [r7, #20]
 1827 00f8 1A43     		orrs	r2, r2, r3
 342:Generated_Source\PSoC6\pdl\drivers\peripheral\smif/cy_smif.c ****                         (uint32_t) cmdParam[bufIndex]) |
 343:Generated_Source\PSoC6\pdl\drivers\peripheral\smif/cy_smif.c ****                 _VAL2FLD(CY_SMIF_CMD_FIFO_WR_WIDTH, 
 1828              		.loc 2 343 0
 1829 00fa 97F82C30 		ldrb	r3, [r7, #44]	@ zero_extendqisi2
 1830 00fe 1B04     		lsls	r3, r3, #16
 1831 0100 03F44033 		and	r3, r3, #196608
 342:Generated_Source\PSoC6\pdl\drivers\peripheral\smif/cy_smif.c ****                         (uint32_t) cmdParam[bufIndex]) |
 1832              		.loc 2 342 0
 1833 0104 1A43     		orrs	r2, r2, r3
 344:Generated_Source\PSoC6\pdl\drivers\peripheral\smif/cy_smif.c ****                         (uint32_t) paramTxfrWidth) |
 345:Generated_Source\PSoC6\pdl\drivers\peripheral\smif/cy_smif.c ****                 _VAL2FLD(CY_SMIF_CMD_FIFO_WR_LAST_BYTE,
 1834              		.loc 2 345 0
 1835 0106 FB7E     		ldrb	r3, [r7, #27]	@ zero_extendqisi2
 1836 0108 591C     		adds	r1, r3, #1
 1837 010a BB6A     		ldr	r3, [r7, #40]
 1838 010c 9942     		cmp	r1, r3
 1839 010e 03D3     		bcc	.L99
 1840              		.loc 2 345 0 is_stmt 0 discriminator 1
 1841 0110 7B6B     		ldr	r3, [r7, #52]
 1842 0112 DB03     		lsls	r3, r3, #15
 1843 0114 9BB2     		uxth	r3, r3
 1844 0116 00E0     		b	.L100
 1845              	.L99:
 1846              		.loc 2 345 0 discriminator 2
 1847 0118 0023     		movs	r3, #0
 1848              	.L100:
 344:Generated_Source\PSoC6\pdl\drivers\peripheral\smif/cy_smif.c ****                         (uint32_t) paramTxfrWidth) |
 1849              		.loc 2 344 0 is_stmt 1
 1850 011a 1A43     		orrs	r2, r2, r3
 340:Generated_Source\PSoC6\pdl\drivers\peripheral\smif/cy_smif.c ****                 _VAL2FLD(CY_SMIF_CMD_FIFO_WR_TXDATA,
 1851              		.loc 2 340 0
 1852 011c FB68     		ldr	r3, [r7, #12]
 1853 011e 1A65     		str	r2, [r3, #80]
 346:Generated_Source\PSoC6\pdl\drivers\peripheral\smif/cy_smif.c ****                             ((((uint32_t)bufIndex + 1UL) < paramSize) ? 
 347:Generated_Source\PSoC6\pdl\drivers\peripheral\smif/cy_smif.c ****                             0UL : cmpltTxfr));
 348:Generated_Source\PSoC6\pdl\drivers\peripheral\smif/cy_smif.c **** 
 349:Generated_Source\PSoC6\pdl\drivers\peripheral\smif/cy_smif.c ****             bufIndex++;
 1854              		.loc 2 349 0
 1855 0120 FB7E     		ldrb	r3, [r7, #27]	@ zero_extendqisi2
 1856 0122 0133     		adds	r3, r3, #1
 1857 0124 FB76     		strb	r3, [r7, #27]
ARM GAS  C:\Users\ikomb\AppData\Local\Temp\ccEKz2Td.s 			page 65


 1858              	.L98:
 350:Generated_Source\PSoC6\pdl\drivers\peripheral\smif/cy_smif.c ****         }
 351:Generated_Source\PSoC6\pdl\drivers\peripheral\smif/cy_smif.c ****         result = Cy_SMIF_TimeoutRun(&timeoutUnits);
 1859              		.loc 2 351 0
 1860 0126 07F11003 		add	r3, r7, #16
 1861 012a 1846     		mov	r0, r3
 1862 012c FFF7FEFF 		bl	Cy_SMIF_TimeoutRun
 1863 0130 F861     		str	r0, [r7, #28]
 1864              	.L97:
 335:Generated_Source\PSoC6\pdl\drivers\peripheral\smif/cy_smif.c ****     {
 1865              		.loc 2 335 0
 1866 0132 FA7E     		ldrb	r2, [r7, #27]	@ zero_extendqisi2
 1867 0134 BB6A     		ldr	r3, [r7, #40]
 1868 0136 9A42     		cmp	r2, r3
 1869 0138 03D2     		bcs	.L101
 335:Generated_Source\PSoC6\pdl\drivers\peripheral\smif/cy_smif.c ****     {
 1870              		.loc 2 335 0 is_stmt 0 discriminator 1
 1871 013a FB69     		ldr	r3, [r7, #28]
 1872 013c 044A     		ldr	r2, .L104+4
 1873 013e 9342     		cmp	r3, r2
 1874 0140 CED1     		bne	.L102
 1875              	.L101:
 352:Generated_Source\PSoC6\pdl\drivers\peripheral\smif/cy_smif.c ****     }
 353:Generated_Source\PSoC6\pdl\drivers\peripheral\smif/cy_smif.c **** 
 354:Generated_Source\PSoC6\pdl\drivers\peripheral\smif/cy_smif.c ****     return (result);
 1876              		.loc 2 354 0 is_stmt 1
 1877 0142 FB69     		ldr	r3, [r7, #28]
 355:Generated_Source\PSoC6\pdl\drivers\peripheral\smif/cy_smif.c **** }
 1878              		.loc 2 355 0
 1879 0144 1846     		mov	r0, r3
 1880 0146 2037     		adds	r7, r7, #32
 1881              		.cfi_def_cfa_offset 8
 1882 0148 BD46     		mov	sp, r7
 1883              		.cfi_def_cfa_register 13
 1884              		@ sp needed
 1885 014a 80BD     		pop	{r7, pc}
 1886              	.L105:
 1887              		.align	2
 1888              	.L104:
 1889 014c 00000000 		.word	.LC0
 1890 0150 0200B200 		.word	11665410
 1891              		.cfi_endproc
 1892              	.LFE183:
 1893              		.size	Cy_SMIF_TransmitCommand, .-Cy_SMIF_TransmitCommand
 1894              		.section	.text.Cy_SMIF_TransmitData,"ax",%progbits
 1895              		.align	2
 1896              		.global	Cy_SMIF_TransmitData
 1897              		.thumb
 1898              		.thumb_func
 1899              		.type	Cy_SMIF_TransmitData, %function
 1900              	Cy_SMIF_TransmitData:
 1901              	.LFB184:
 356:Generated_Source\PSoC6\pdl\drivers\peripheral\smif/cy_smif.c **** 
 357:Generated_Source\PSoC6\pdl\drivers\peripheral\smif/cy_smif.c **** 
 358:Generated_Source\PSoC6\pdl\drivers\peripheral\smif/cy_smif.c **** /*******************************************************************************
 359:Generated_Source\PSoC6\pdl\drivers\peripheral\smif/cy_smif.c **** * Function Name: Cy_SMIF_TransmitData
 360:Generated_Source\PSoC6\pdl\drivers\peripheral\smif/cy_smif.c **** ****************************************************************************//**
ARM GAS  C:\Users\ikomb\AppData\Local\Temp\ccEKz2Td.s 			page 66


 361:Generated_Source\PSoC6\pdl\drivers\peripheral\smif/cy_smif.c **** *
 362:Generated_Source\PSoC6\pdl\drivers\peripheral\smif/cy_smif.c **** * This function is used to transmit data using the SMIF interface. This
 363:Generated_Source\PSoC6\pdl\drivers\peripheral\smif/cy_smif.c **** * function uses the TX Data FIFO to implement the transmit functionality. The
 364:Generated_Source\PSoC6\pdl\drivers\peripheral\smif/cy_smif.c **** * function sets up an interrupt to trigger the TX Data FIFO and uses that
 365:Generated_Source\PSoC6\pdl\drivers\peripheral\smif/cy_smif.c **** * interrupt to fill the TX Data FIFO until all the data is transmitted. At the
 366:Generated_Source\PSoC6\pdl\drivers\peripheral\smif/cy_smif.c **** * end of the transmission, the TxCmpltCb is executed.
 367:Generated_Source\PSoC6\pdl\drivers\peripheral\smif/cy_smif.c **** *
 368:Generated_Source\PSoC6\pdl\drivers\peripheral\smif/cy_smif.c **** * \note  This function is to be preceded by \ref Cy_SMIF_TransmitCommand where
 369:Generated_Source\PSoC6\pdl\drivers\peripheral\smif/cy_smif.c **** * the slave select is selected. The slave is de-asserted at the end of a
 370:Generated_Source\PSoC6\pdl\drivers\peripheral\smif/cy_smif.c **** * transmit. The function triggers the transfer and the transfer itself utilizes
 371:Generated_Source\PSoC6\pdl\drivers\peripheral\smif/cy_smif.c **** * the interrupt for FIFO operations in the background. Thus, frequent
 372:Generated_Source\PSoC6\pdl\drivers\peripheral\smif/cy_smif.c **** * interrupts will be executed after this function is triggered.
 373:Generated_Source\PSoC6\pdl\drivers\peripheral\smif/cy_smif.c **** * Since this API is non-blocking and sets up the interrupt to act on the data
 374:Generated_Source\PSoC6\pdl\drivers\peripheral\smif/cy_smif.c **** * FIFO, ensure there will be no another instance of the function called
 375:Generated_Source\PSoC6\pdl\drivers\peripheral\smif/cy_smif.c **** * before the current instance has completed execution.
 376:Generated_Source\PSoC6\pdl\drivers\peripheral\smif/cy_smif.c **** *
 377:Generated_Source\PSoC6\pdl\drivers\peripheral\smif/cy_smif.c **** * \param base
 378:Generated_Source\PSoC6\pdl\drivers\peripheral\smif/cy_smif.c **** * Holds the base address of the SMIF block registers.
 379:Generated_Source\PSoC6\pdl\drivers\peripheral\smif/cy_smif.c **** *
 380:Generated_Source\PSoC6\pdl\drivers\peripheral\smif/cy_smif.c **** * \param context
 381:Generated_Source\PSoC6\pdl\drivers\peripheral\smif/cy_smif.c **** * Passes a configuration structure that contains the transfer parameters of the
 382:Generated_Source\PSoC6\pdl\drivers\peripheral\smif/cy_smif.c **** * SMIF block.
 383:Generated_Source\PSoC6\pdl\drivers\peripheral\smif/cy_smif.c **** *
 384:Generated_Source\PSoC6\pdl\drivers\peripheral\smif/cy_smif.c **** * \param txBuffer
 385:Generated_Source\PSoC6\pdl\drivers\peripheral\smif/cy_smif.c **** * The pointer to the data to be transferred. If this pointer is a NULL, then the
 386:Generated_Source\PSoC6\pdl\drivers\peripheral\smif/cy_smif.c **** * function does not enable the interrupt. This use case is typically used when 
 387:Generated_Source\PSoC6\pdl\drivers\peripheral\smif/cy_smif.c **** * the FIFO is handled outside the interrupt and is managed in either a 
 388:Generated_Source\PSoC6\pdl\drivers\peripheral\smif/cy_smif.c **** * polling-based code or a DMA. The user would handle the FIFO management in a
 389:Generated_Source\PSoC6\pdl\drivers\peripheral\smif/cy_smif.c **** * DMA or a polling-based code.
 390:Generated_Source\PSoC6\pdl\drivers\peripheral\smif/cy_smif.c **** * 
 391:Generated_Source\PSoC6\pdl\drivers\peripheral\smif/cy_smif.c **** * \note If the user provides a NULL pointer in this function and does not handle
 392:Generated_Source\PSoC6\pdl\drivers\peripheral\smif/cy_smif.c **** * the FIFO transaction, this could either stall or timeout the operation.
 393:Generated_Source\PSoC6\pdl\drivers\peripheral\smif/cy_smif.c **** * The transfer statuses returned by \ref Cy_SMIF_GetTxfrStatus are no longer 
 394:Generated_Source\PSoC6\pdl\drivers\peripheral\smif/cy_smif.c **** * valid.
 395:Generated_Source\PSoC6\pdl\drivers\peripheral\smif/cy_smif.c **** *
 396:Generated_Source\PSoC6\pdl\drivers\peripheral\smif/cy_smif.c **** * \param size
 397:Generated_Source\PSoC6\pdl\drivers\peripheral\smif/cy_smif.c **** * The size of txBuffer. Must be > 0.
 398:Generated_Source\PSoC6\pdl\drivers\peripheral\smif/cy_smif.c **** *
 399:Generated_Source\PSoC6\pdl\drivers\peripheral\smif/cy_smif.c **** * \param transferWidth
 400:Generated_Source\PSoC6\pdl\drivers\peripheral\smif/cy_smif.c **** * The width of transfer \ref cy_en_smif_txfr_width_t.
 401:Generated_Source\PSoC6\pdl\drivers\peripheral\smif/cy_smif.c **** *
 402:Generated_Source\PSoC6\pdl\drivers\peripheral\smif/cy_smif.c **** * \param TxCmpltCb
 403:Generated_Source\PSoC6\pdl\drivers\peripheral\smif/cy_smif.c **** * The callback executed at the end of a transmission. NULL interpreted as no
 404:Generated_Source\PSoC6\pdl\drivers\peripheral\smif/cy_smif.c **** * callback.
 405:Generated_Source\PSoC6\pdl\drivers\peripheral\smif/cy_smif.c **** *
 406:Generated_Source\PSoC6\pdl\drivers\peripheral\smif/cy_smif.c **** * \return A status of a transmission.
 407:Generated_Source\PSoC6\pdl\drivers\peripheral\smif/cy_smif.c **** *       - \ref CY_SMIF_SUCCESS
 408:Generated_Source\PSoC6\pdl\drivers\peripheral\smif/cy_smif.c **** *       - \ref CY_SMIF_CMD_FIFO_FULL
 409:Generated_Source\PSoC6\pdl\drivers\peripheral\smif/cy_smif.c **** *       - \ref CY_SMIF_BAD_PARAM
 410:Generated_Source\PSoC6\pdl\drivers\peripheral\smif/cy_smif.c **** *
 411:Generated_Source\PSoC6\pdl\drivers\peripheral\smif/cy_smif.c **** *******************************************************************************/
 412:Generated_Source\PSoC6\pdl\drivers\peripheral\smif/cy_smif.c **** cy_en_smif_status_t  Cy_SMIF_TransmitData(SMIF_Type *base,
 413:Generated_Source\PSoC6\pdl\drivers\peripheral\smif/cy_smif.c ****                             uint8_t* txBuffer,
 414:Generated_Source\PSoC6\pdl\drivers\peripheral\smif/cy_smif.c ****                             uint32_t size,
 415:Generated_Source\PSoC6\pdl\drivers\peripheral\smif/cy_smif.c ****                             cy_en_smif_txfr_width_t transferWidth,
 416:Generated_Source\PSoC6\pdl\drivers\peripheral\smif/cy_smif.c ****                             cy_smif_event_cb_t TxCmpltCb,
 417:Generated_Source\PSoC6\pdl\drivers\peripheral\smif/cy_smif.c ****                             cy_stc_smif_context_t *context)
ARM GAS  C:\Users\ikomb\AppData\Local\Temp\ccEKz2Td.s 			page 67


 418:Generated_Source\PSoC6\pdl\drivers\peripheral\smif/cy_smif.c **** {
 1902              		.loc 2 418 0
 1903              		.cfi_startproc
 1904              		@ args = 8, pretend = 0, frame = 24
 1905              		@ frame_needed = 1, uses_anonymous_args = 0
 1906 0000 80B5     		push	{r7, lr}
 1907              		.cfi_def_cfa_offset 8
 1908              		.cfi_offset 7, -8
 1909              		.cfi_offset 14, -4
 1910 0002 86B0     		sub	sp, sp, #24
 1911              		.cfi_def_cfa_offset 32
 1912 0004 00AF     		add	r7, sp, #0
 1913              		.cfi_def_cfa_register 7
 1914 0006 F860     		str	r0, [r7, #12]
 1915 0008 B960     		str	r1, [r7, #8]
 1916 000a 7A60     		str	r2, [r7, #4]
 1917 000c FB70     		strb	r3, [r7, #3]
 419:Generated_Source\PSoC6\pdl\drivers\peripheral\smif/cy_smif.c ****     /* The return variable */
 420:Generated_Source\PSoC6\pdl\drivers\peripheral\smif/cy_smif.c ****     cy_en_smif_status_t result = CY_SMIF_BAD_PARAM;
 1918              		.loc 2 420 0
 1919 000e 264B     		ldr	r3, .L111
 1920 0010 7B61     		str	r3, [r7, #20]
 421:Generated_Source\PSoC6\pdl\drivers\peripheral\smif/cy_smif.c ****     
 422:Generated_Source\PSoC6\pdl\drivers\peripheral\smif/cy_smif.c ****     /* Check input values */
 423:Generated_Source\PSoC6\pdl\drivers\peripheral\smif/cy_smif.c ****     CY_ASSERT_L3(CY_SMIF_TXFR_WIDTH_VALID(transferWidth));
 1921              		.loc 2 423 0
 1922 0012 FB78     		ldrb	r3, [r7, #3]	@ zero_extendqisi2
 1923 0014 002B     		cmp	r3, #0
 1924 0016 0DD0     		beq	.L107
 1925              		.loc 2 423 0 is_stmt 0 discriminator 1
 1926 0018 FB78     		ldrb	r3, [r7, #3]	@ zero_extendqisi2
 1927 001a 012B     		cmp	r3, #1
 1928 001c 0AD0     		beq	.L107
 1929              		.loc 2 423 0 discriminator 2
 1930 001e FB78     		ldrb	r3, [r7, #3]	@ zero_extendqisi2
 1931 0020 022B     		cmp	r3, #2
 1932 0022 07D0     		beq	.L107
 1933              		.loc 2 423 0 discriminator 3
 1934 0024 FB78     		ldrb	r3, [r7, #3]	@ zero_extendqisi2
 1935 0026 032B     		cmp	r3, #3
 1936 0028 04D0     		beq	.L107
 1937              		.loc 2 423 0 discriminator 4
 1938 002a 40F2A711 		movw	r1, #423
 1939 002e 1F48     		ldr	r0, .L111+4
 1940 0030 FFF7FEFF 		bl	Cy_SysLib_AssertFailed
 1941              	.L107:
 424:Generated_Source\PSoC6\pdl\drivers\peripheral\smif/cy_smif.c **** 
 425:Generated_Source\PSoC6\pdl\drivers\peripheral\smif/cy_smif.c ****     if(size > 0U)
 1942              		.loc 2 425 0 is_stmt 1
 1943 0034 7B68     		ldr	r3, [r7, #4]
 1944 0036 002B     		cmp	r3, #0
 1945 0038 31D0     		beq	.L108
 426:Generated_Source\PSoC6\pdl\drivers\peripheral\smif/cy_smif.c ****     {
 427:Generated_Source\PSoC6\pdl\drivers\peripheral\smif/cy_smif.c ****         result = CY_SMIF_CMD_FIFO_FULL;
 1946              		.loc 2 427 0
 1947 003a 1D4B     		ldr	r3, .L111+8
 1948 003c 7B61     		str	r3, [r7, #20]
ARM GAS  C:\Users\ikomb\AppData\Local\Temp\ccEKz2Td.s 			page 68


 428:Generated_Source\PSoC6\pdl\drivers\peripheral\smif/cy_smif.c ****         /* Check if there are enough free entries in TX_CMD_FIFO */
 429:Generated_Source\PSoC6\pdl\drivers\peripheral\smif/cy_smif.c ****         if  (Cy_SMIF_GetCmdFifoStatus(base) < CY_SMIF_TX_CMD_FIFO_STATUS_RANGE)
 1949              		.loc 2 429 0
 1950 003e F868     		ldr	r0, [r7, #12]
 1951 0040 FFF7FEFF 		bl	Cy_SMIF_GetCmdFifoStatus
 1952 0044 0346     		mov	r3, r0
 1953 0046 032B     		cmp	r3, #3
 1954 0048 29D8     		bhi	.L108
 430:Generated_Source\PSoC6\pdl\drivers\peripheral\smif/cy_smif.c ****         {
 431:Generated_Source\PSoC6\pdl\drivers\peripheral\smif/cy_smif.c ****             /* Enter the transmitting mode */
 432:Generated_Source\PSoC6\pdl\drivers\peripheral\smif/cy_smif.c ****             base->TX_CMD_FIFO_WR =
 433:Generated_Source\PSoC6\pdl\drivers\peripheral\smif/cy_smif.c ****                 _VAL2FLD(CY_SMIF_CMD_FIFO_WR_MODE, CY_SMIF_CMD_FIFO_TX_COUNT_MODE) |
 434:Generated_Source\PSoC6\pdl\drivers\peripheral\smif/cy_smif.c ****                 _VAL2FLD(CY_SMIF_CMD_FIFO_WR_WIDTH, (uint32_t)transferWidth)    |
 1955              		.loc 2 434 0
 1956 004a FB78     		ldrb	r3, [r7, #3]	@ zero_extendqisi2
 1957 004c 1B04     		lsls	r3, r3, #16
 1958 004e 03F44032 		and	r2, r3, #196608
 435:Generated_Source\PSoC6\pdl\drivers\peripheral\smif/cy_smif.c ****                 _VAL2FLD(CY_SMIF_CMD_FIFO_WR_TX_COUNT, ((uint32_t)(size - 1U)));
 1959              		.loc 2 435 0
 1960 0052 7B68     		ldr	r3, [r7, #4]
 1961 0054 013B     		subs	r3, r3, #1
 1962 0056 9BB2     		uxth	r3, r3
 434:Generated_Source\PSoC6\pdl\drivers\peripheral\smif/cy_smif.c ****                 _VAL2FLD(CY_SMIF_CMD_FIFO_WR_TX_COUNT, ((uint32_t)(size - 1U)));
 1963              		.loc 2 434 0
 1964 0058 1343     		orrs	r3, r3, r2
 1965 005a 43F48022 		orr	r2, r3, #262144
 432:Generated_Source\PSoC6\pdl\drivers\peripheral\smif/cy_smif.c ****                 _VAL2FLD(CY_SMIF_CMD_FIFO_WR_MODE, CY_SMIF_CMD_FIFO_TX_COUNT_MODE) |
 1966              		.loc 2 432 0
 1967 005e FB68     		ldr	r3, [r7, #12]
 1968 0060 1A65     		str	r2, [r3, #80]
 436:Generated_Source\PSoC6\pdl\drivers\peripheral\smif/cy_smif.c **** 
 437:Generated_Source\PSoC6\pdl\drivers\peripheral\smif/cy_smif.c ****             if (NULL != txBuffer)
 1969              		.loc 2 437 0
 1970 0062 BB68     		ldr	r3, [r7, #8]
 1971 0064 002B     		cmp	r3, #0
 1972 0066 18D0     		beq	.L109
 438:Generated_Source\PSoC6\pdl\drivers\peripheral\smif/cy_smif.c ****             {
 439:Generated_Source\PSoC6\pdl\drivers\peripheral\smif/cy_smif.c ****                 /* Move the parameters to the global variables */
 440:Generated_Source\PSoC6\pdl\drivers\peripheral\smif/cy_smif.c ****                 context->txBufferAddress = (uint8_t*)txBuffer;
 1973              		.loc 2 440 0
 1974 0068 7B6A     		ldr	r3, [r7, #36]
 1975 006a BA68     		ldr	r2, [r7, #8]
 1976 006c 1A60     		str	r2, [r3]
 441:Generated_Source\PSoC6\pdl\drivers\peripheral\smif/cy_smif.c ****                 context->txBufferSize = size;
 1977              		.loc 2 441 0
 1978 006e 7B6A     		ldr	r3, [r7, #36]
 1979 0070 7A68     		ldr	r2, [r7, #4]
 1980 0072 5A60     		str	r2, [r3, #4]
 442:Generated_Source\PSoC6\pdl\drivers\peripheral\smif/cy_smif.c ****                 context->txBufferCounter = size;
 1981              		.loc 2 442 0
 1982 0074 7B6A     		ldr	r3, [r7, #36]
 1983 0076 7A68     		ldr	r2, [r7, #4]
 1984 0078 9A60     		str	r2, [r3, #8]
 443:Generated_Source\PSoC6\pdl\drivers\peripheral\smif/cy_smif.c ****                 context->txCmpltCb = TxCmpltCb;
 1985              		.loc 2 443 0
 1986 007a 7B6A     		ldr	r3, [r7, #36]
 1987 007c 3A6A     		ldr	r2, [r7, #32]
ARM GAS  C:\Users\ikomb\AppData\Local\Temp\ccEKz2Td.s 			page 69


 1988 007e DA61     		str	r2, [r3, #28]
 444:Generated_Source\PSoC6\pdl\drivers\peripheral\smif/cy_smif.c ****                 context->transferStatus = (uint32_t) CY_SMIF_SEND_BUSY;
 1989              		.loc 2 444 0
 1990 0080 7B6A     		ldr	r3, [r7, #36]
 1991 0082 0222     		movs	r2, #2
 1992 0084 9A61     		str	r2, [r3, #24]
 445:Generated_Source\PSoC6\pdl\drivers\peripheral\smif/cy_smif.c **** 
 446:Generated_Source\PSoC6\pdl\drivers\peripheral\smif/cy_smif.c ****                 /* Enable the TR_TX_REQ interrupt */
 447:Generated_Source\PSoC6\pdl\drivers\peripheral\smif/cy_smif.c ****                 Cy_SMIF_SetInterruptMask(base,
 448:Generated_Source\PSoC6\pdl\drivers\peripheral\smif/cy_smif.c ****                 Cy_SMIF_GetInterruptMask(base) | SMIF_INTR_TR_TX_REQ_Msk);
 1993              		.loc 2 448 0
 1994 0086 F868     		ldr	r0, [r7, #12]
 1995 0088 FFF7FEFF 		bl	Cy_SMIF_GetInterruptMask
 1996 008c 0346     		mov	r3, r0
 447:Generated_Source\PSoC6\pdl\drivers\peripheral\smif/cy_smif.c ****                 Cy_SMIF_GetInterruptMask(base) | SMIF_INTR_TR_TX_REQ_Msk);
 1997              		.loc 2 447 0
 1998 008e 43F00103 		orr	r3, r3, #1
 1999 0092 1946     		mov	r1, r3
 2000 0094 F868     		ldr	r0, [r7, #12]
 2001 0096 FFF7FEFF 		bl	Cy_SMIF_SetInterruptMask
 2002              	.L109:
 449:Generated_Source\PSoC6\pdl\drivers\peripheral\smif/cy_smif.c ****             }
 450:Generated_Source\PSoC6\pdl\drivers\peripheral\smif/cy_smif.c ****             result = CY_SMIF_SUCCESS;
 2003              		.loc 2 450 0
 2004 009a 0023     		movs	r3, #0
 2005 009c 7B61     		str	r3, [r7, #20]
 2006              	.L108:
 451:Generated_Source\PSoC6\pdl\drivers\peripheral\smif/cy_smif.c ****         }
 452:Generated_Source\PSoC6\pdl\drivers\peripheral\smif/cy_smif.c ****     }
 453:Generated_Source\PSoC6\pdl\drivers\peripheral\smif/cy_smif.c **** 
 454:Generated_Source\PSoC6\pdl\drivers\peripheral\smif/cy_smif.c ****     return (result);
 2007              		.loc 2 454 0
 2008 009e 7B69     		ldr	r3, [r7, #20]
 455:Generated_Source\PSoC6\pdl\drivers\peripheral\smif/cy_smif.c **** }
 2009              		.loc 2 455 0
 2010 00a0 1846     		mov	r0, r3
 2011 00a2 1837     		adds	r7, r7, #24
 2012              		.cfi_def_cfa_offset 8
 2013 00a4 BD46     		mov	sp, r7
 2014              		.cfi_def_cfa_register 13
 2015              		@ sp needed
 2016 00a6 80BD     		pop	{r7, pc}
 2017              	.L112:
 2018              		.align	2
 2019              	.L111:
 2020 00a8 0400B200 		.word	11665412
 2021 00ac 00000000 		.word	.LC0
 2022 00b0 0100B200 		.word	11665409
 2023              		.cfi_endproc
 2024              	.LFE184:
 2025              		.size	Cy_SMIF_TransmitData, .-Cy_SMIF_TransmitData
 2026              		.section	.text.Cy_SMIF_TransmitDataBlocking,"ax",%progbits
 2027              		.align	2
 2028              		.global	Cy_SMIF_TransmitDataBlocking
 2029              		.thumb
 2030              		.thumb_func
 2031              		.type	Cy_SMIF_TransmitDataBlocking, %function
ARM GAS  C:\Users\ikomb\AppData\Local\Temp\ccEKz2Td.s 			page 70


 2032              	Cy_SMIF_TransmitDataBlocking:
 2033              	.LFB185:
 456:Generated_Source\PSoC6\pdl\drivers\peripheral\smif/cy_smif.c **** 
 457:Generated_Source\PSoC6\pdl\drivers\peripheral\smif/cy_smif.c **** 
 458:Generated_Source\PSoC6\pdl\drivers\peripheral\smif/cy_smif.c **** /*******************************************************************************
 459:Generated_Source\PSoC6\pdl\drivers\peripheral\smif/cy_smif.c **** * Function Name: Cy_SMIF_TransmitDataBlocking
 460:Generated_Source\PSoC6\pdl\drivers\peripheral\smif/cy_smif.c **** ****************************************************************************//**
 461:Generated_Source\PSoC6\pdl\drivers\peripheral\smif/cy_smif.c **** *
 462:Generated_Source\PSoC6\pdl\drivers\peripheral\smif/cy_smif.c **** * This function implements the transmit data phase in the memory command. The
 463:Generated_Source\PSoC6\pdl\drivers\peripheral\smif/cy_smif.c **** * data is transmitted using the Tx Data FIFO and the TX_COUNT command. This
 464:Generated_Source\PSoC6\pdl\drivers\peripheral\smif/cy_smif.c **** * function blocks until completion. The function does not use the interrupts and
 465:Generated_Source\PSoC6\pdl\drivers\peripheral\smif/cy_smif.c **** * will use CPU to monitor the FIFO status and move data accordingly. The
 466:Generated_Source\PSoC6\pdl\drivers\peripheral\smif/cy_smif.c **** * function returns only on completion.
 467:Generated_Source\PSoC6\pdl\drivers\peripheral\smif/cy_smif.c **** *
 468:Generated_Source\PSoC6\pdl\drivers\peripheral\smif/cy_smif.c **** * \note  Since this API is blocking, ensure that other transfers finished and it
 469:Generated_Source\PSoC6\pdl\drivers\peripheral\smif/cy_smif.c **** * will not be called during non-blocking transfer.
 470:Generated_Source\PSoC6\pdl\drivers\peripheral\smif/cy_smif.c **** *
 471:Generated_Source\PSoC6\pdl\drivers\peripheral\smif/cy_smif.c **** * \param base
 472:Generated_Source\PSoC6\pdl\drivers\peripheral\smif/cy_smif.c **** * Holds the base address of the SMIF block registers.
 473:Generated_Source\PSoC6\pdl\drivers\peripheral\smif/cy_smif.c **** *
 474:Generated_Source\PSoC6\pdl\drivers\peripheral\smif/cy_smif.c **** * \param context
 475:Generated_Source\PSoC6\pdl\drivers\peripheral\smif/cy_smif.c **** * Passes a configuration structure that contains the transfer parameters of the
 476:Generated_Source\PSoC6\pdl\drivers\peripheral\smif/cy_smif.c **** * SMIF block.
 477:Generated_Source\PSoC6\pdl\drivers\peripheral\smif/cy_smif.c **** *
 478:Generated_Source\PSoC6\pdl\drivers\peripheral\smif/cy_smif.c **** * \param txBuffer
 479:Generated_Source\PSoC6\pdl\drivers\peripheral\smif/cy_smif.c **** * The pointer to the data to be transferred. If this pointer is a NULL, then the
 480:Generated_Source\PSoC6\pdl\drivers\peripheral\smif/cy_smif.c **** * function does not fill TX_FIFO. The user would handle the FIFO management in a
 481:Generated_Source\PSoC6\pdl\drivers\peripheral\smif/cy_smif.c **** * DMA or a polling-based code.
 482:Generated_Source\PSoC6\pdl\drivers\peripheral\smif/cy_smif.c **** *
 483:Generated_Source\PSoC6\pdl\drivers\peripheral\smif/cy_smif.c **** * \note If the user provides a NULL pointer in this function and does not handle
 484:Generated_Source\PSoC6\pdl\drivers\peripheral\smif/cy_smif.c **** * the FIFO transaction, this could either stall or timeout the operation.
 485:Generated_Source\PSoC6\pdl\drivers\peripheral\smif/cy_smif.c **** * The transfer statuses returned by \ref Cy_SMIF_GetTxfrStatus are no longer
 486:Generated_Source\PSoC6\pdl\drivers\peripheral\smif/cy_smif.c **** * valid.
 487:Generated_Source\PSoC6\pdl\drivers\peripheral\smif/cy_smif.c **** *
 488:Generated_Source\PSoC6\pdl\drivers\peripheral\smif/cy_smif.c **** * \param size
 489:Generated_Source\PSoC6\pdl\drivers\peripheral\smif/cy_smif.c **** * The size of txBuffer. Must be > 0.
 490:Generated_Source\PSoC6\pdl\drivers\peripheral\smif/cy_smif.c **** *
 491:Generated_Source\PSoC6\pdl\drivers\peripheral\smif/cy_smif.c **** * \param transferWidth
 492:Generated_Source\PSoC6\pdl\drivers\peripheral\smif/cy_smif.c **** * The width of transfer \ref cy_en_smif_txfr_width_t.
 493:Generated_Source\PSoC6\pdl\drivers\peripheral\smif/cy_smif.c **** *
 494:Generated_Source\PSoC6\pdl\drivers\peripheral\smif/cy_smif.c **** * \return A status of a transmission.
 495:Generated_Source\PSoC6\pdl\drivers\peripheral\smif/cy_smif.c **** *       - \ref CY_SMIF_SUCCESS
 496:Generated_Source\PSoC6\pdl\drivers\peripheral\smif/cy_smif.c **** *       - \ref CY_SMIF_CMD_FIFO_FULL
 497:Generated_Source\PSoC6\pdl\drivers\peripheral\smif/cy_smif.c **** *       - \ref CY_SMIF_EXCEED_TIMEOUT
 498:Generated_Source\PSoC6\pdl\drivers\peripheral\smif/cy_smif.c **** *       - \ref CY_SMIF_BAD_PARAM
 499:Generated_Source\PSoC6\pdl\drivers\peripheral\smif/cy_smif.c **** *
 500:Generated_Source\PSoC6\pdl\drivers\peripheral\smif/cy_smif.c **** *******************************************************************************/
 501:Generated_Source\PSoC6\pdl\drivers\peripheral\smif/cy_smif.c **** cy_en_smif_status_t  Cy_SMIF_TransmitDataBlocking(SMIF_Type *base,
 502:Generated_Source\PSoC6\pdl\drivers\peripheral\smif/cy_smif.c ****                             uint8_t *txBuffer,
 503:Generated_Source\PSoC6\pdl\drivers\peripheral\smif/cy_smif.c ****                             uint32_t size,
 504:Generated_Source\PSoC6\pdl\drivers\peripheral\smif/cy_smif.c ****                             cy_en_smif_txfr_width_t transferWidth,
 505:Generated_Source\PSoC6\pdl\drivers\peripheral\smif/cy_smif.c ****                             cy_stc_smif_context_t const *context)
 506:Generated_Source\PSoC6\pdl\drivers\peripheral\smif/cy_smif.c **** {
 2034              		.loc 2 506 0
 2035              		.cfi_startproc
 2036              		@ args = 4, pretend = 0, frame = 64
 2037              		@ frame_needed = 1, uses_anonymous_args = 0
ARM GAS  C:\Users\ikomb\AppData\Local\Temp\ccEKz2Td.s 			page 71


 2038 0000 80B5     		push	{r7, lr}
 2039              		.cfi_def_cfa_offset 8
 2040              		.cfi_offset 7, -8
 2041              		.cfi_offset 14, -4
 2042 0002 90B0     		sub	sp, sp, #64
 2043              		.cfi_def_cfa_offset 72
 2044 0004 00AF     		add	r7, sp, #0
 2045              		.cfi_def_cfa_register 7
 2046 0006 F860     		str	r0, [r7, #12]
 2047 0008 B960     		str	r1, [r7, #8]
 2048 000a 7A60     		str	r2, [r7, #4]
 2049 000c FB70     		strb	r3, [r7, #3]
 507:Generated_Source\PSoC6\pdl\drivers\peripheral\smif/cy_smif.c ****     /* The return variable */
 508:Generated_Source\PSoC6\pdl\drivers\peripheral\smif/cy_smif.c ****     cy_en_smif_status_t result = CY_SMIF_BAD_PARAM;
 2050              		.loc 2 508 0
 2051 000e 294B     		ldr	r3, .L120
 2052 0010 FB63     		str	r3, [r7, #60]
 509:Generated_Source\PSoC6\pdl\drivers\peripheral\smif/cy_smif.c ****     
 510:Generated_Source\PSoC6\pdl\drivers\peripheral\smif/cy_smif.c ****     /* Check input values */
 511:Generated_Source\PSoC6\pdl\drivers\peripheral\smif/cy_smif.c ****     CY_ASSERT_L3(CY_SMIF_TXFR_WIDTH_VALID(transferWidth));
 2053              		.loc 2 511 0
 2054 0012 FB78     		ldrb	r3, [r7, #3]	@ zero_extendqisi2
 2055 0014 002B     		cmp	r3, #0
 2056 0016 0DD0     		beq	.L114
 2057              		.loc 2 511 0 is_stmt 0 discriminator 1
 2058 0018 FB78     		ldrb	r3, [r7, #3]	@ zero_extendqisi2
 2059 001a 012B     		cmp	r3, #1
 2060 001c 0AD0     		beq	.L114
 2061              		.loc 2 511 0 discriminator 2
 2062 001e FB78     		ldrb	r3, [r7, #3]	@ zero_extendqisi2
 2063 0020 022B     		cmp	r3, #2
 2064 0022 07D0     		beq	.L114
 2065              		.loc 2 511 0 discriminator 3
 2066 0024 FB78     		ldrb	r3, [r7, #3]	@ zero_extendqisi2
 2067 0026 032B     		cmp	r3, #3
 2068 0028 04D0     		beq	.L114
 2069              		.loc 2 511 0 discriminator 4
 2070 002a 40F2FF11 		movw	r1, #511
 2071 002e 2248     		ldr	r0, .L120+4
 2072 0030 FFF7FEFF 		bl	Cy_SysLib_AssertFailed
 2073              	.L114:
 512:Generated_Source\PSoC6\pdl\drivers\peripheral\smif/cy_smif.c **** 
 513:Generated_Source\PSoC6\pdl\drivers\peripheral\smif/cy_smif.c ****     if(size > 0U)
 2074              		.loc 2 513 0 is_stmt 1
 2075 0034 7B68     		ldr	r3, [r7, #4]
 2076 0036 002B     		cmp	r3, #0
 2077 0038 37D0     		beq	.L115
 514:Generated_Source\PSoC6\pdl\drivers\peripheral\smif/cy_smif.c ****     {
 515:Generated_Source\PSoC6\pdl\drivers\peripheral\smif/cy_smif.c ****         result = CY_SMIF_CMD_FIFO_FULL;
 2078              		.loc 2 515 0
 2079 003a 204B     		ldr	r3, .L120+8
 2080 003c FB63     		str	r3, [r7, #60]
 516:Generated_Source\PSoC6\pdl\drivers\peripheral\smif/cy_smif.c ****         /* Check if there are enough free entries in TX_CMD_FIFO */
 517:Generated_Source\PSoC6\pdl\drivers\peripheral\smif/cy_smif.c ****         if  (Cy_SMIF_GetCmdFifoStatus(base) < CY_SMIF_TX_CMD_FIFO_STATUS_RANGE)
 2081              		.loc 2 517 0
 2082 003e F868     		ldr	r0, [r7, #12]
 2083 0040 FFF7FEFF 		bl	Cy_SMIF_GetCmdFifoStatus
ARM GAS  C:\Users\ikomb\AppData\Local\Temp\ccEKz2Td.s 			page 72


 2084 0044 0346     		mov	r3, r0
 2085 0046 032B     		cmp	r3, #3
 2086 0048 2FD8     		bhi	.L115
 518:Generated_Source\PSoC6\pdl\drivers\peripheral\smif/cy_smif.c ****         {
 519:Generated_Source\PSoC6\pdl\drivers\peripheral\smif/cy_smif.c ****             /* Enter the transmitting mode */
 520:Generated_Source\PSoC6\pdl\drivers\peripheral\smif/cy_smif.c ****             base->TX_CMD_FIFO_WR =
 521:Generated_Source\PSoC6\pdl\drivers\peripheral\smif/cy_smif.c ****                 _VAL2FLD(CY_SMIF_CMD_FIFO_WR_MODE, CY_SMIF_CMD_FIFO_TX_COUNT_MODE) |
 522:Generated_Source\PSoC6\pdl\drivers\peripheral\smif/cy_smif.c ****                 _VAL2FLD(CY_SMIF_CMD_FIFO_WR_WIDTH, (uint32_t)transferWidth)    |
 2087              		.loc 2 522 0
 2088 004a FB78     		ldrb	r3, [r7, #3]	@ zero_extendqisi2
 2089 004c 1B04     		lsls	r3, r3, #16
 2090 004e 03F44032 		and	r2, r3, #196608
 523:Generated_Source\PSoC6\pdl\drivers\peripheral\smif/cy_smif.c ****                 _VAL2FLD(CY_SMIF_CMD_FIFO_WR_TX_COUNT, ((uint32_t)(size - 1U)));
 2091              		.loc 2 523 0
 2092 0052 7B68     		ldr	r3, [r7, #4]
 2093 0054 013B     		subs	r3, r3, #1
 2094 0056 9BB2     		uxth	r3, r3
 522:Generated_Source\PSoC6\pdl\drivers\peripheral\smif/cy_smif.c ****                 _VAL2FLD(CY_SMIF_CMD_FIFO_WR_TX_COUNT, ((uint32_t)(size - 1U)));
 2095              		.loc 2 522 0
 2096 0058 1343     		orrs	r3, r3, r2
 2097 005a 43F48022 		orr	r2, r3, #262144
 520:Generated_Source\PSoC6\pdl\drivers\peripheral\smif/cy_smif.c ****                 _VAL2FLD(CY_SMIF_CMD_FIFO_WR_MODE, CY_SMIF_CMD_FIFO_TX_COUNT_MODE) |
 2098              		.loc 2 520 0
 2099 005e FB68     		ldr	r3, [r7, #12]
 2100 0060 1A65     		str	r2, [r3, #80]
 524:Generated_Source\PSoC6\pdl\drivers\peripheral\smif/cy_smif.c **** 
 525:Generated_Source\PSoC6\pdl\drivers\peripheral\smif/cy_smif.c ****             result = CY_SMIF_SUCCESS;
 2101              		.loc 2 525 0
 2102 0062 0023     		movs	r3, #0
 2103 0064 FB63     		str	r3, [r7, #60]
 526:Generated_Source\PSoC6\pdl\drivers\peripheral\smif/cy_smif.c **** 
 527:Generated_Source\PSoC6\pdl\drivers\peripheral\smif/cy_smif.c ****             if (NULL != txBuffer)
 2104              		.loc 2 527 0
 2105 0066 BB68     		ldr	r3, [r7, #8]
 2106 0068 002B     		cmp	r3, #0
 2107 006a 1ED0     		beq	.L115
 2108              	.LBB2:
 528:Generated_Source\PSoC6\pdl\drivers\peripheral\smif/cy_smif.c ****             {
 529:Generated_Source\PSoC6\pdl\drivers\peripheral\smif/cy_smif.c ****                 uint32_t timeoutUnits = context->timeout;
 2109              		.loc 2 529 0
 2110 006c BB6C     		ldr	r3, [r7, #72]
 2111 006e 5B6A     		ldr	r3, [r3, #36]
 2112 0070 BB63     		str	r3, [r7, #56]
 530:Generated_Source\PSoC6\pdl\drivers\peripheral\smif/cy_smif.c ****                 cy_stc_smif_context_t contextLoc;
 531:Generated_Source\PSoC6\pdl\drivers\peripheral\smif/cy_smif.c **** 
 532:Generated_Source\PSoC6\pdl\drivers\peripheral\smif/cy_smif.c ****                 /* initialize parameters for Cy_SMIF_PushTxFifo */
 533:Generated_Source\PSoC6\pdl\drivers\peripheral\smif/cy_smif.c ****                 contextLoc.txBufferAddress = (uint8_t*)txBuffer;
 2113              		.loc 2 533 0
 2114 0072 BB68     		ldr	r3, [r7, #8]
 2115 0074 3B61     		str	r3, [r7, #16]
 534:Generated_Source\PSoC6\pdl\drivers\peripheral\smif/cy_smif.c ****                 contextLoc.txBufferCounter = size;
 2116              		.loc 2 534 0
 2117 0076 7B68     		ldr	r3, [r7, #4]
 2118 0078 BB61     		str	r3, [r7, #24]
 535:Generated_Source\PSoC6\pdl\drivers\peripheral\smif/cy_smif.c ****                 contextLoc.txCmpltCb = NULL;
 2119              		.loc 2 535 0
 2120 007a 0023     		movs	r3, #0
ARM GAS  C:\Users\ikomb\AppData\Local\Temp\ccEKz2Td.s 			page 73


 2121 007c FB62     		str	r3, [r7, #44]
 536:Generated_Source\PSoC6\pdl\drivers\peripheral\smif/cy_smif.c ****                 contextLoc.transferStatus = (uint32_t) CY_SMIF_SEND_BUSY;
 2122              		.loc 2 536 0
 2123 007e 0223     		movs	r3, #2
 2124 0080 BB62     		str	r3, [r7, #40]
 537:Generated_Source\PSoC6\pdl\drivers\peripheral\smif/cy_smif.c **** 
 538:Generated_Source\PSoC6\pdl\drivers\peripheral\smif/cy_smif.c ****                 while (((uint32_t) CY_SMIF_SEND_BUSY == contextLoc.transferStatus) &&
 2125              		.loc 2 538 0
 2126 0082 0BE0     		b	.L116
 2127              	.L118:
 539:Generated_Source\PSoC6\pdl\drivers\peripheral\smif/cy_smif.c ****                         (CY_SMIF_EXCEED_TIMEOUT != result))
 540:Generated_Source\PSoC6\pdl\drivers\peripheral\smif/cy_smif.c ****                 {
 541:Generated_Source\PSoC6\pdl\drivers\peripheral\smif/cy_smif.c ****                     Cy_SMIF_PushTxFifo(base, &contextLoc);
 2128              		.loc 2 541 0
 2129 0084 07F11003 		add	r3, r7, #16
 2130 0088 1946     		mov	r1, r3
 2131 008a F868     		ldr	r0, [r7, #12]
 2132 008c FFF7FEFF 		bl	Cy_SMIF_PushTxFifo
 542:Generated_Source\PSoC6\pdl\drivers\peripheral\smif/cy_smif.c ****                     result = Cy_SMIF_TimeoutRun(&timeoutUnits);
 2133              		.loc 2 542 0
 2134 0090 07F13803 		add	r3, r7, #56
 2135 0094 1846     		mov	r0, r3
 2136 0096 FFF7FEFF 		bl	Cy_SMIF_TimeoutRun
 2137 009a F863     		str	r0, [r7, #60]
 2138              	.L116:
 538:Generated_Source\PSoC6\pdl\drivers\peripheral\smif/cy_smif.c ****                         (CY_SMIF_EXCEED_TIMEOUT != result))
 2139              		.loc 2 538 0
 2140 009c BB6A     		ldr	r3, [r7, #40]
 2141 009e 022B     		cmp	r3, #2
 2142 00a0 03D1     		bne	.L115
 538:Generated_Source\PSoC6\pdl\drivers\peripheral\smif/cy_smif.c ****                         (CY_SMIF_EXCEED_TIMEOUT != result))
 2143              		.loc 2 538 0 is_stmt 0 discriminator 1
 2144 00a2 FB6B     		ldr	r3, [r7, #60]
 2145 00a4 064A     		ldr	r2, .L120+12
 2146 00a6 9342     		cmp	r3, r2
 2147 00a8 ECD1     		bne	.L118
 2148              	.L115:
 2149              	.LBE2:
 543:Generated_Source\PSoC6\pdl\drivers\peripheral\smif/cy_smif.c ****                 }
 544:Generated_Source\PSoC6\pdl\drivers\peripheral\smif/cy_smif.c ****             }
 545:Generated_Source\PSoC6\pdl\drivers\peripheral\smif/cy_smif.c ****         }
 546:Generated_Source\PSoC6\pdl\drivers\peripheral\smif/cy_smif.c ****     }
 547:Generated_Source\PSoC6\pdl\drivers\peripheral\smif/cy_smif.c **** 
 548:Generated_Source\PSoC6\pdl\drivers\peripheral\smif/cy_smif.c ****     return (result);
 2150              		.loc 2 548 0 is_stmt 1
 2151 00aa FB6B     		ldr	r3, [r7, #60]
 549:Generated_Source\PSoC6\pdl\drivers\peripheral\smif/cy_smif.c **** }
 2152              		.loc 2 549 0
 2153 00ac 1846     		mov	r0, r3
 2154 00ae 4037     		adds	r7, r7, #64
 2155              		.cfi_def_cfa_offset 8
 2156 00b0 BD46     		mov	sp, r7
 2157              		.cfi_def_cfa_register 13
 2158              		@ sp needed
 2159 00b2 80BD     		pop	{r7, pc}
 2160              	.L121:
 2161              		.align	2
ARM GAS  C:\Users\ikomb\AppData\Local\Temp\ccEKz2Td.s 			page 74


 2162              	.L120:
 2163 00b4 0400B200 		.word	11665412
 2164 00b8 00000000 		.word	.LC0
 2165 00bc 0100B200 		.word	11665409
 2166 00c0 0200B200 		.word	11665410
 2167              		.cfi_endproc
 2168              	.LFE185:
 2169              		.size	Cy_SMIF_TransmitDataBlocking, .-Cy_SMIF_TransmitDataBlocking
 2170              		.section	.text.Cy_SMIF_ReceiveData,"ax",%progbits
 2171              		.align	2
 2172              		.global	Cy_SMIF_ReceiveData
 2173              		.thumb
 2174              		.thumb_func
 2175              		.type	Cy_SMIF_ReceiveData, %function
 2176              	Cy_SMIF_ReceiveData:
 2177              	.LFB186:
 550:Generated_Source\PSoC6\pdl\drivers\peripheral\smif/cy_smif.c **** 
 551:Generated_Source\PSoC6\pdl\drivers\peripheral\smif/cy_smif.c **** 
 552:Generated_Source\PSoC6\pdl\drivers\peripheral\smif/cy_smif.c **** /*******************************************************************************
 553:Generated_Source\PSoC6\pdl\drivers\peripheral\smif/cy_smif.c **** * Function Name: Cy_SMIF_ReceiveData
 554:Generated_Source\PSoC6\pdl\drivers\peripheral\smif/cy_smif.c **** ****************************************************************************//**
 555:Generated_Source\PSoC6\pdl\drivers\peripheral\smif/cy_smif.c **** *
 556:Generated_Source\PSoC6\pdl\drivers\peripheral\smif/cy_smif.c **** * This function implements the receive data phase in the memory command. The
 557:Generated_Source\PSoC6\pdl\drivers\peripheral\smif/cy_smif.c **** * data is received into the RX Data FIFO using the RX_COUNT command. This
 558:Generated_Source\PSoC6\pdl\drivers\peripheral\smif/cy_smif.c **** * function sets up the interrupt to trigger on the RX Data FIFO level, and the 
 559:Generated_Source\PSoC6\pdl\drivers\peripheral\smif/cy_smif.c **** * data is fetched from the RX Data FIFO to the rxBuffer as it gets filled. This 
 560:Generated_Source\PSoC6\pdl\drivers\peripheral\smif/cy_smif.c **** * function does not block until completion. The completion will trigger the call
 561:Generated_Source\PSoC6\pdl\drivers\peripheral\smif/cy_smif.c **** * back function.
 562:Generated_Source\PSoC6\pdl\drivers\peripheral\smif/cy_smif.c **** *
 563:Generated_Source\PSoC6\pdl\drivers\peripheral\smif/cy_smif.c **** * \note This function is to be preceded by \ref Cy_SMIF_TransmitCommand. The
 564:Generated_Source\PSoC6\pdl\drivers\peripheral\smif/cy_smif.c **** * slave select is de-asserted at the end of the receive.
 565:Generated_Source\PSoC6\pdl\drivers\peripheral\smif/cy_smif.c **** * The function triggers the transfer and the transfer itself utilizes the
 566:Generated_Source\PSoC6\pdl\drivers\peripheral\smif/cy_smif.c **** * interrupt for FIFO operations in the background. Thus, frequent
 567:Generated_Source\PSoC6\pdl\drivers\peripheral\smif/cy_smif.c **** * interrupts will be executed after this function is triggered.
 568:Generated_Source\PSoC6\pdl\drivers\peripheral\smif/cy_smif.c **** * This API is non-blocking and sets up the interrupt to act on the data
 569:Generated_Source\PSoC6\pdl\drivers\peripheral\smif/cy_smif.c **** * FIFO, ensure there will be no another instance of the function called
 570:Generated_Source\PSoC6\pdl\drivers\peripheral\smif/cy_smif.c **** * before the current instance has completed execution.
 571:Generated_Source\PSoC6\pdl\drivers\peripheral\smif/cy_smif.c **** *
 572:Generated_Source\PSoC6\pdl\drivers\peripheral\smif/cy_smif.c **** *
 573:Generated_Source\PSoC6\pdl\drivers\peripheral\smif/cy_smif.c **** * \param base
 574:Generated_Source\PSoC6\pdl\drivers\peripheral\smif/cy_smif.c **** * Holds the base address of the SMIF block registers.
 575:Generated_Source\PSoC6\pdl\drivers\peripheral\smif/cy_smif.c **** *
 576:Generated_Source\PSoC6\pdl\drivers\peripheral\smif/cy_smif.c **** * \param context
 577:Generated_Source\PSoC6\pdl\drivers\peripheral\smif/cy_smif.c **** * Passes a configuration structure that contains the transfer parameters of the
 578:Generated_Source\PSoC6\pdl\drivers\peripheral\smif/cy_smif.c **** * SMIF block.
 579:Generated_Source\PSoC6\pdl\drivers\peripheral\smif/cy_smif.c **** *
 580:Generated_Source\PSoC6\pdl\drivers\peripheral\smif/cy_smif.c **** * \param rxBuffer
 581:Generated_Source\PSoC6\pdl\drivers\peripheral\smif/cy_smif.c **** * The pointer to the variable where the receive data is stored. If this pointer
 582:Generated_Source\PSoC6\pdl\drivers\peripheral\smif/cy_smif.c **** * is a NULL, then the function does not enable the interrupt. This use case is 
 583:Generated_Source\PSoC6\pdl\drivers\peripheral\smif/cy_smif.c **** * typically used when the FIFO is handled outside the interrupt and is managed 
 584:Generated_Source\PSoC6\pdl\drivers\peripheral\smif/cy_smif.c **** * in either a polling-based code or a DMA. The user would handle the FIFO 
 585:Generated_Source\PSoC6\pdl\drivers\peripheral\smif/cy_smif.c **** * management in a DMA or a polling-based code.
 586:Generated_Source\PSoC6\pdl\drivers\peripheral\smif/cy_smif.c **** *
 587:Generated_Source\PSoC6\pdl\drivers\peripheral\smif/cy_smif.c **** * \note If the user provides a NULL pointer in this function and does not handle
 588:Generated_Source\PSoC6\pdl\drivers\peripheral\smif/cy_smif.c **** * the FIFO transaction, this could either stall or timeout the operation.
 589:Generated_Source\PSoC6\pdl\drivers\peripheral\smif/cy_smif.c **** * The transfer statuses returned by \ref Cy_SMIF_GetTxfrStatus are no longer 
 590:Generated_Source\PSoC6\pdl\drivers\peripheral\smif/cy_smif.c **** * valid.
ARM GAS  C:\Users\ikomb\AppData\Local\Temp\ccEKz2Td.s 			page 75


 591:Generated_Source\PSoC6\pdl\drivers\peripheral\smif/cy_smif.c **** *
 592:Generated_Source\PSoC6\pdl\drivers\peripheral\smif/cy_smif.c **** * \param size
 593:Generated_Source\PSoC6\pdl\drivers\peripheral\smif/cy_smif.c **** * The size of data to be received. Must be > 0.
 594:Generated_Source\PSoC6\pdl\drivers\peripheral\smif/cy_smif.c **** *
 595:Generated_Source\PSoC6\pdl\drivers\peripheral\smif/cy_smif.c **** * \param transferWidth
 596:Generated_Source\PSoC6\pdl\drivers\peripheral\smif/cy_smif.c **** * The width of transfer \ref cy_en_smif_txfr_width_t.
 597:Generated_Source\PSoC6\pdl\drivers\peripheral\smif/cy_smif.c **** *
 598:Generated_Source\PSoC6\pdl\drivers\peripheral\smif/cy_smif.c **** * \param RxCmpltCb
 599:Generated_Source\PSoC6\pdl\drivers\peripheral\smif/cy_smif.c **** * The callback executed at the end of a reception. NULL interpreted as no
 600:Generated_Source\PSoC6\pdl\drivers\peripheral\smif/cy_smif.c **** * callback.
 601:Generated_Source\PSoC6\pdl\drivers\peripheral\smif/cy_smif.c **** *
 602:Generated_Source\PSoC6\pdl\drivers\peripheral\smif/cy_smif.c **** * \return A status of a reception.
 603:Generated_Source\PSoC6\pdl\drivers\peripheral\smif/cy_smif.c **** *       - \ref CY_SMIF_SUCCESS
 604:Generated_Source\PSoC6\pdl\drivers\peripheral\smif/cy_smif.c **** *       - \ref CY_SMIF_CMD_FIFO_FULL
 605:Generated_Source\PSoC6\pdl\drivers\peripheral\smif/cy_smif.c **** *       - \ref CY_SMIF_BAD_PARAM
 606:Generated_Source\PSoC6\pdl\drivers\peripheral\smif/cy_smif.c **** *
 607:Generated_Source\PSoC6\pdl\drivers\peripheral\smif/cy_smif.c **** *******************************************************************************/
 608:Generated_Source\PSoC6\pdl\drivers\peripheral\smif/cy_smif.c **** cy_en_smif_status_t  Cy_SMIF_ReceiveData(SMIF_Type *base,
 609:Generated_Source\PSoC6\pdl\drivers\peripheral\smif/cy_smif.c ****                             uint8_t *rxBuffer,
 610:Generated_Source\PSoC6\pdl\drivers\peripheral\smif/cy_smif.c ****                             uint32_t size,
 611:Generated_Source\PSoC6\pdl\drivers\peripheral\smif/cy_smif.c ****                             cy_en_smif_txfr_width_t transferWidth,
 612:Generated_Source\PSoC6\pdl\drivers\peripheral\smif/cy_smif.c ****                             cy_smif_event_cb_t RxCmpltCb,
 613:Generated_Source\PSoC6\pdl\drivers\peripheral\smif/cy_smif.c ****                             cy_stc_smif_context_t *context)
 614:Generated_Source\PSoC6\pdl\drivers\peripheral\smif/cy_smif.c **** {
 2178              		.loc 2 614 0
 2179              		.cfi_startproc
 2180              		@ args = 8, pretend = 0, frame = 24
 2181              		@ frame_needed = 1, uses_anonymous_args = 0
 2182 0000 80B5     		push	{r7, lr}
 2183              		.cfi_def_cfa_offset 8
 2184              		.cfi_offset 7, -8
 2185              		.cfi_offset 14, -4
 2186 0002 86B0     		sub	sp, sp, #24
 2187              		.cfi_def_cfa_offset 32
 2188 0004 00AF     		add	r7, sp, #0
 2189              		.cfi_def_cfa_register 7
 2190 0006 F860     		str	r0, [r7, #12]
 2191 0008 B960     		str	r1, [r7, #8]
 2192 000a 7A60     		str	r2, [r7, #4]
 2193 000c FB70     		strb	r3, [r7, #3]
 615:Generated_Source\PSoC6\pdl\drivers\peripheral\smif/cy_smif.c ****     /* The return variable */
 616:Generated_Source\PSoC6\pdl\drivers\peripheral\smif/cy_smif.c ****     cy_en_smif_status_t result = CY_SMIF_BAD_PARAM;
 2194              		.loc 2 616 0
 2195 000e 274B     		ldr	r3, .L127
 2196 0010 7B61     		str	r3, [r7, #20]
 617:Generated_Source\PSoC6\pdl\drivers\peripheral\smif/cy_smif.c ****     
 618:Generated_Source\PSoC6\pdl\drivers\peripheral\smif/cy_smif.c ****     /* Check input values */
 619:Generated_Source\PSoC6\pdl\drivers\peripheral\smif/cy_smif.c ****     CY_ASSERT_L3(CY_SMIF_TXFR_WIDTH_VALID(transferWidth));
 2197              		.loc 2 619 0
 2198 0012 FB78     		ldrb	r3, [r7, #3]	@ zero_extendqisi2
 2199 0014 002B     		cmp	r3, #0
 2200 0016 0DD0     		beq	.L123
 2201              		.loc 2 619 0 is_stmt 0 discriminator 1
 2202 0018 FB78     		ldrb	r3, [r7, #3]	@ zero_extendqisi2
 2203 001a 012B     		cmp	r3, #1
 2204 001c 0AD0     		beq	.L123
 2205              		.loc 2 619 0 discriminator 2
ARM GAS  C:\Users\ikomb\AppData\Local\Temp\ccEKz2Td.s 			page 76


 2206 001e FB78     		ldrb	r3, [r7, #3]	@ zero_extendqisi2
 2207 0020 022B     		cmp	r3, #2
 2208 0022 07D0     		beq	.L123
 2209              		.loc 2 619 0 discriminator 3
 2210 0024 FB78     		ldrb	r3, [r7, #3]	@ zero_extendqisi2
 2211 0026 032B     		cmp	r3, #3
 2212 0028 04D0     		beq	.L123
 2213              		.loc 2 619 0 discriminator 4
 2214 002a 40F26B21 		movw	r1, #619
 2215 002e 2048     		ldr	r0, .L127+4
 2216 0030 FFF7FEFF 		bl	Cy_SysLib_AssertFailed
 2217              	.L123:
 620:Generated_Source\PSoC6\pdl\drivers\peripheral\smif/cy_smif.c **** 
 621:Generated_Source\PSoC6\pdl\drivers\peripheral\smif/cy_smif.c ****     if(size > 0U)
 2218              		.loc 2 621 0 is_stmt 1
 2219 0034 7B68     		ldr	r3, [r7, #4]
 2220 0036 002B     		cmp	r3, #0
 2221 0038 32D0     		beq	.L124
 622:Generated_Source\PSoC6\pdl\drivers\peripheral\smif/cy_smif.c ****     {
 623:Generated_Source\PSoC6\pdl\drivers\peripheral\smif/cy_smif.c ****         result = CY_SMIF_CMD_FIFO_FULL;
 2222              		.loc 2 623 0
 2223 003a 1E4B     		ldr	r3, .L127+8
 2224 003c 7B61     		str	r3, [r7, #20]
 624:Generated_Source\PSoC6\pdl\drivers\peripheral\smif/cy_smif.c ****         /* Check if there are enough free entries in TX_CMD_FIFO */
 625:Generated_Source\PSoC6\pdl\drivers\peripheral\smif/cy_smif.c ****         if  (Cy_SMIF_GetCmdFifoStatus(base) < CY_SMIF_TX_CMD_FIFO_STATUS_RANGE)
 2225              		.loc 2 625 0
 2226 003e F868     		ldr	r0, [r7, #12]
 2227 0040 FFF7FEFF 		bl	Cy_SMIF_GetCmdFifoStatus
 2228 0044 0346     		mov	r3, r0
 2229 0046 032B     		cmp	r3, #3
 2230 0048 2AD8     		bhi	.L124
 626:Generated_Source\PSoC6\pdl\drivers\peripheral\smif/cy_smif.c ****         {
 627:Generated_Source\PSoC6\pdl\drivers\peripheral\smif/cy_smif.c ****             /* Enter the receiving mode */
 628:Generated_Source\PSoC6\pdl\drivers\peripheral\smif/cy_smif.c ****             base->TX_CMD_FIFO_WR =
 629:Generated_Source\PSoC6\pdl\drivers\peripheral\smif/cy_smif.c ****                 _VAL2FLD(CY_SMIF_CMD_FIFO_WR_MODE, CY_SMIF_CMD_FIFO_RX_COUNT_MODE) |
 630:Generated_Source\PSoC6\pdl\drivers\peripheral\smif/cy_smif.c ****                 _VAL2FLD(CY_SMIF_CMD_FIFO_WR_WIDTH, (uint32_t)transferWidth)    |
 2231              		.loc 2 630 0
 2232 004a FB78     		ldrb	r3, [r7, #3]	@ zero_extendqisi2
 2233 004c 1B04     		lsls	r3, r3, #16
 2234 004e 03F44032 		and	r2, r3, #196608
 631:Generated_Source\PSoC6\pdl\drivers\peripheral\smif/cy_smif.c ****                 _VAL2FLD(CY_SMIF_CMD_FIFO_WR_RX_COUNT, ((uint32_t)(size - 1U)));
 2235              		.loc 2 631 0
 2236 0052 7B68     		ldr	r3, [r7, #4]
 2237 0054 013B     		subs	r3, r3, #1
 2238 0056 C3F31103 		ubfx	r3, r3, #0, #18
 630:Generated_Source\PSoC6\pdl\drivers\peripheral\smif/cy_smif.c ****                 _VAL2FLD(CY_SMIF_CMD_FIFO_WR_RX_COUNT, ((uint32_t)(size - 1U)));
 2239              		.loc 2 630 0
 2240 005a 1343     		orrs	r3, r3, r2
 2241 005c 43F40022 		orr	r2, r3, #524288
 628:Generated_Source\PSoC6\pdl\drivers\peripheral\smif/cy_smif.c ****                 _VAL2FLD(CY_SMIF_CMD_FIFO_WR_MODE, CY_SMIF_CMD_FIFO_RX_COUNT_MODE) |
 2242              		.loc 2 628 0
 2243 0060 FB68     		ldr	r3, [r7, #12]
 2244 0062 1A65     		str	r2, [r3, #80]
 632:Generated_Source\PSoC6\pdl\drivers\peripheral\smif/cy_smif.c **** 
 633:Generated_Source\PSoC6\pdl\drivers\peripheral\smif/cy_smif.c ****             if (NULL != rxBuffer)
 2245              		.loc 2 633 0
 2246 0064 BB68     		ldr	r3, [r7, #8]
ARM GAS  C:\Users\ikomb\AppData\Local\Temp\ccEKz2Td.s 			page 77


 2247 0066 002B     		cmp	r3, #0
 2248 0068 18D0     		beq	.L125
 634:Generated_Source\PSoC6\pdl\drivers\peripheral\smif/cy_smif.c ****             {
 635:Generated_Source\PSoC6\pdl\drivers\peripheral\smif/cy_smif.c ****                 /* Move the parameters to the global variables */
 636:Generated_Source\PSoC6\pdl\drivers\peripheral\smif/cy_smif.c ****                 context->rxBufferAddress = (uint8_t*)rxBuffer;
 2249              		.loc 2 636 0
 2250 006a 7B6A     		ldr	r3, [r7, #36]
 2251 006c BA68     		ldr	r2, [r7, #8]
 2252 006e DA60     		str	r2, [r3, #12]
 637:Generated_Source\PSoC6\pdl\drivers\peripheral\smif/cy_smif.c ****                 context->rxBufferSize = size;
 2253              		.loc 2 637 0
 2254 0070 7B6A     		ldr	r3, [r7, #36]
 2255 0072 7A68     		ldr	r2, [r7, #4]
 2256 0074 1A61     		str	r2, [r3, #16]
 638:Generated_Source\PSoC6\pdl\drivers\peripheral\smif/cy_smif.c ****                 context->rxBufferCounter = size;
 2257              		.loc 2 638 0
 2258 0076 7B6A     		ldr	r3, [r7, #36]
 2259 0078 7A68     		ldr	r2, [r7, #4]
 2260 007a 5A61     		str	r2, [r3, #20]
 639:Generated_Source\PSoC6\pdl\drivers\peripheral\smif/cy_smif.c ****                 context->rxCmpltCb = RxCmpltCb;
 2261              		.loc 2 639 0
 2262 007c 7B6A     		ldr	r3, [r7, #36]
 2263 007e 3A6A     		ldr	r2, [r7, #32]
 2264 0080 1A62     		str	r2, [r3, #32]
 640:Generated_Source\PSoC6\pdl\drivers\peripheral\smif/cy_smif.c ****                 context->transferStatus =  (uint32_t) CY_SMIF_REC_BUSY;
 2265              		.loc 2 640 0
 2266 0082 7B6A     		ldr	r3, [r7, #36]
 2267 0084 0422     		movs	r2, #4
 2268 0086 9A61     		str	r2, [r3, #24]
 641:Generated_Source\PSoC6\pdl\drivers\peripheral\smif/cy_smif.c **** 
 642:Generated_Source\PSoC6\pdl\drivers\peripheral\smif/cy_smif.c ****                 /* Enable the TR_RX_REQ interrupt */
 643:Generated_Source\PSoC6\pdl\drivers\peripheral\smif/cy_smif.c ****                 Cy_SMIF_SetInterruptMask(base,
 644:Generated_Source\PSoC6\pdl\drivers\peripheral\smif/cy_smif.c ****                     Cy_SMIF_GetInterruptMask(base) | SMIF_INTR_TR_RX_REQ_Msk);
 2269              		.loc 2 644 0
 2270 0088 F868     		ldr	r0, [r7, #12]
 2271 008a FFF7FEFF 		bl	Cy_SMIF_GetInterruptMask
 2272 008e 0346     		mov	r3, r0
 643:Generated_Source\PSoC6\pdl\drivers\peripheral\smif/cy_smif.c ****                     Cy_SMIF_GetInterruptMask(base) | SMIF_INTR_TR_RX_REQ_Msk);
 2273              		.loc 2 643 0
 2274 0090 43F00203 		orr	r3, r3, #2
 2275 0094 1946     		mov	r1, r3
 2276 0096 F868     		ldr	r0, [r7, #12]
 2277 0098 FFF7FEFF 		bl	Cy_SMIF_SetInterruptMask
 2278              	.L125:
 645:Generated_Source\PSoC6\pdl\drivers\peripheral\smif/cy_smif.c ****             }
 646:Generated_Source\PSoC6\pdl\drivers\peripheral\smif/cy_smif.c ****             result = CY_SMIF_SUCCESS;
 2279              		.loc 2 646 0
 2280 009c 0023     		movs	r3, #0
 2281 009e 7B61     		str	r3, [r7, #20]
 2282              	.L124:
 647:Generated_Source\PSoC6\pdl\drivers\peripheral\smif/cy_smif.c ****         }
 648:Generated_Source\PSoC6\pdl\drivers\peripheral\smif/cy_smif.c ****     }
 649:Generated_Source\PSoC6\pdl\drivers\peripheral\smif/cy_smif.c **** 
 650:Generated_Source\PSoC6\pdl\drivers\peripheral\smif/cy_smif.c ****     return (result);
 2283              		.loc 2 650 0
 2284 00a0 7B69     		ldr	r3, [r7, #20]
 651:Generated_Source\PSoC6\pdl\drivers\peripheral\smif/cy_smif.c **** }
ARM GAS  C:\Users\ikomb\AppData\Local\Temp\ccEKz2Td.s 			page 78


 2285              		.loc 2 651 0
 2286 00a2 1846     		mov	r0, r3
 2287 00a4 1837     		adds	r7, r7, #24
 2288              		.cfi_def_cfa_offset 8
 2289 00a6 BD46     		mov	sp, r7
 2290              		.cfi_def_cfa_register 13
 2291              		@ sp needed
 2292 00a8 80BD     		pop	{r7, pc}
 2293              	.L128:
 2294 00aa 00BF     		.align	2
 2295              	.L127:
 2296 00ac 0400B200 		.word	11665412
 2297 00b0 00000000 		.word	.LC0
 2298 00b4 0100B200 		.word	11665409
 2299              		.cfi_endproc
 2300              	.LFE186:
 2301              		.size	Cy_SMIF_ReceiveData, .-Cy_SMIF_ReceiveData
 2302              		.section	.text.Cy_SMIF_ReceiveDataBlocking,"ax",%progbits
 2303              		.align	2
 2304              		.global	Cy_SMIF_ReceiveDataBlocking
 2305              		.thumb
 2306              		.thumb_func
 2307              		.type	Cy_SMIF_ReceiveDataBlocking, %function
 2308              	Cy_SMIF_ReceiveDataBlocking:
 2309              	.LFB187:
 652:Generated_Source\PSoC6\pdl\drivers\peripheral\smif/cy_smif.c **** 
 653:Generated_Source\PSoC6\pdl\drivers\peripheral\smif/cy_smif.c **** 
 654:Generated_Source\PSoC6\pdl\drivers\peripheral\smif/cy_smif.c **** /*******************************************************************************
 655:Generated_Source\PSoC6\pdl\drivers\peripheral\smif/cy_smif.c **** * Function Name: Cy_SMIF_ReceiveDataBlocking
 656:Generated_Source\PSoC6\pdl\drivers\peripheral\smif/cy_smif.c **** ****************************************************************************//**
 657:Generated_Source\PSoC6\pdl\drivers\peripheral\smif/cy_smif.c **** *
 658:Generated_Source\PSoC6\pdl\drivers\peripheral\smif/cy_smif.c **** * This function implements the receive data phase in the memory command. The
 659:Generated_Source\PSoC6\pdl\drivers\peripheral\smif/cy_smif.c **** * data is received into the RX Data FIFO using the RX_COUNT command. This
 660:Generated_Source\PSoC6\pdl\drivers\peripheral\smif/cy_smif.c **** * function blocks until completion. The function does not use the interrupts and
 661:Generated_Source\PSoC6\pdl\drivers\peripheral\smif/cy_smif.c **** * will use CPU to monitor the FIFO status and move data accordingly. The
 662:Generated_Source\PSoC6\pdl\drivers\peripheral\smif/cy_smif.c **** * function returns only on completion.
 663:Generated_Source\PSoC6\pdl\drivers\peripheral\smif/cy_smif.c **** *
 664:Generated_Source\PSoC6\pdl\drivers\peripheral\smif/cy_smif.c **** * \note This function is to be preceded by \ref Cy_SMIF_TransmitCommand. The
 665:Generated_Source\PSoC6\pdl\drivers\peripheral\smif/cy_smif.c **** * slave select is de-asserted at the end of the receive. Ensure there is
 666:Generated_Source\PSoC6\pdl\drivers\peripheral\smif/cy_smif.c **** * no another transfers.
 667:Generated_Source\PSoC6\pdl\drivers\peripheral\smif/cy_smif.c **** *
 668:Generated_Source\PSoC6\pdl\drivers\peripheral\smif/cy_smif.c **** * \param base
 669:Generated_Source\PSoC6\pdl\drivers\peripheral\smif/cy_smif.c **** * Holds the base address of the SMIF block registers.
 670:Generated_Source\PSoC6\pdl\drivers\peripheral\smif/cy_smif.c **** *
 671:Generated_Source\PSoC6\pdl\drivers\peripheral\smif/cy_smif.c **** * \param context
 672:Generated_Source\PSoC6\pdl\drivers\peripheral\smif/cy_smif.c **** * Passes a configuration structure that contains the transfer parameters of the
 673:Generated_Source\PSoC6\pdl\drivers\peripheral\smif/cy_smif.c **** * SMIF block.
 674:Generated_Source\PSoC6\pdl\drivers\peripheral\smif/cy_smif.c **** *
 675:Generated_Source\PSoC6\pdl\drivers\peripheral\smif/cy_smif.c **** * \param rxBuffer
 676:Generated_Source\PSoC6\pdl\drivers\peripheral\smif/cy_smif.c **** * The pointer to the variable where the receive data is stored. If this pointer
 677:Generated_Source\PSoC6\pdl\drivers\peripheral\smif/cy_smif.c **** * is a NULL, then the function does not enable the interrupt. This use case is
 678:Generated_Source\PSoC6\pdl\drivers\peripheral\smif/cy_smif.c **** * typically used when the FIFO is handled outside the interrupt and is managed
 679:Generated_Source\PSoC6\pdl\drivers\peripheral\smif/cy_smif.c **** * in either a polling-based code or a DMA. The user would handle the FIFO
 680:Generated_Source\PSoC6\pdl\drivers\peripheral\smif/cy_smif.c **** * management in a DMA or a polling-based code.
 681:Generated_Source\PSoC6\pdl\drivers\peripheral\smif/cy_smif.c **** *
 682:Generated_Source\PSoC6\pdl\drivers\peripheral\smif/cy_smif.c **** * \note If the user provides a NULL pointer in this function and does not handle
 683:Generated_Source\PSoC6\pdl\drivers\peripheral\smif/cy_smif.c **** * the FIFO transaction, this could either stall or timeout the operation.
ARM GAS  C:\Users\ikomb\AppData\Local\Temp\ccEKz2Td.s 			page 79


 684:Generated_Source\PSoC6\pdl\drivers\peripheral\smif/cy_smif.c **** * The transfer statuses returned by \ref Cy_SMIF_GetTxfrStatus are no longer
 685:Generated_Source\PSoC6\pdl\drivers\peripheral\smif/cy_smif.c **** * valid.
 686:Generated_Source\PSoC6\pdl\drivers\peripheral\smif/cy_smif.c **** *
 687:Generated_Source\PSoC6\pdl\drivers\peripheral\smif/cy_smif.c **** * \param size
 688:Generated_Source\PSoC6\pdl\drivers\peripheral\smif/cy_smif.c **** * The size of data to be received. Must be > 0.
 689:Generated_Source\PSoC6\pdl\drivers\peripheral\smif/cy_smif.c **** *
 690:Generated_Source\PSoC6\pdl\drivers\peripheral\smif/cy_smif.c **** * \param transferWidth
 691:Generated_Source\PSoC6\pdl\drivers\peripheral\smif/cy_smif.c **** * The width of transfer \ref cy_en_smif_txfr_width_t.
 692:Generated_Source\PSoC6\pdl\drivers\peripheral\smif/cy_smif.c **** *
 693:Generated_Source\PSoC6\pdl\drivers\peripheral\smif/cy_smif.c **** * \return A status of a reception.
 694:Generated_Source\PSoC6\pdl\drivers\peripheral\smif/cy_smif.c **** *       - \ref CY_SMIF_SUCCESS
 695:Generated_Source\PSoC6\pdl\drivers\peripheral\smif/cy_smif.c **** *       - \ref CY_SMIF_CMD_FIFO_FULL
 696:Generated_Source\PSoC6\pdl\drivers\peripheral\smif/cy_smif.c **** *       - \ref CY_SMIF_EXCEED_TIMEOUT
 697:Generated_Source\PSoC6\pdl\drivers\peripheral\smif/cy_smif.c **** *       - \ref CY_SMIF_BAD_PARAM
 698:Generated_Source\PSoC6\pdl\drivers\peripheral\smif/cy_smif.c **** *
 699:Generated_Source\PSoC6\pdl\drivers\peripheral\smif/cy_smif.c **** *******************************************************************************/
 700:Generated_Source\PSoC6\pdl\drivers\peripheral\smif/cy_smif.c **** cy_en_smif_status_t  Cy_SMIF_ReceiveDataBlocking(SMIF_Type *base,
 701:Generated_Source\PSoC6\pdl\drivers\peripheral\smif/cy_smif.c ****                             uint8_t *rxBuffer,
 702:Generated_Source\PSoC6\pdl\drivers\peripheral\smif/cy_smif.c ****                             uint32_t size,
 703:Generated_Source\PSoC6\pdl\drivers\peripheral\smif/cy_smif.c ****                             cy_en_smif_txfr_width_t transferWidth,
 704:Generated_Source\PSoC6\pdl\drivers\peripheral\smif/cy_smif.c ****                             cy_stc_smif_context_t const *context)
 705:Generated_Source\PSoC6\pdl\drivers\peripheral\smif/cy_smif.c **** {
 2310              		.loc 2 705 0
 2311              		.cfi_startproc
 2312              		@ args = 4, pretend = 0, frame = 64
 2313              		@ frame_needed = 1, uses_anonymous_args = 0
 2314 0000 80B5     		push	{r7, lr}
 2315              		.cfi_def_cfa_offset 8
 2316              		.cfi_offset 7, -8
 2317              		.cfi_offset 14, -4
 2318 0002 90B0     		sub	sp, sp, #64
 2319              		.cfi_def_cfa_offset 72
 2320 0004 00AF     		add	r7, sp, #0
 2321              		.cfi_def_cfa_register 7
 2322 0006 F860     		str	r0, [r7, #12]
 2323 0008 B960     		str	r1, [r7, #8]
 2324 000a 7A60     		str	r2, [r7, #4]
 2325 000c FB70     		strb	r3, [r7, #3]
 706:Generated_Source\PSoC6\pdl\drivers\peripheral\smif/cy_smif.c ****     /* The return variable */
 707:Generated_Source\PSoC6\pdl\drivers\peripheral\smif/cy_smif.c ****     cy_en_smif_status_t result = CY_SMIF_BAD_PARAM;
 2326              		.loc 2 707 0
 2327 000e 2A4B     		ldr	r3, .L136
 2328 0010 FB63     		str	r3, [r7, #60]
 708:Generated_Source\PSoC6\pdl\drivers\peripheral\smif/cy_smif.c ****     
 709:Generated_Source\PSoC6\pdl\drivers\peripheral\smif/cy_smif.c ****     /* Check input values */
 710:Generated_Source\PSoC6\pdl\drivers\peripheral\smif/cy_smif.c ****     CY_ASSERT_L3(CY_SMIF_TXFR_WIDTH_VALID(transferWidth));
 2329              		.loc 2 710 0
 2330 0012 FB78     		ldrb	r3, [r7, #3]	@ zero_extendqisi2
 2331 0014 002B     		cmp	r3, #0
 2332 0016 0DD0     		beq	.L130
 2333              		.loc 2 710 0 is_stmt 0 discriminator 1
 2334 0018 FB78     		ldrb	r3, [r7, #3]	@ zero_extendqisi2
 2335 001a 012B     		cmp	r3, #1
 2336 001c 0AD0     		beq	.L130
 2337              		.loc 2 710 0 discriminator 2
 2338 001e FB78     		ldrb	r3, [r7, #3]	@ zero_extendqisi2
 2339 0020 022B     		cmp	r3, #2
ARM GAS  C:\Users\ikomb\AppData\Local\Temp\ccEKz2Td.s 			page 80


 2340 0022 07D0     		beq	.L130
 2341              		.loc 2 710 0 discriminator 3
 2342 0024 FB78     		ldrb	r3, [r7, #3]	@ zero_extendqisi2
 2343 0026 032B     		cmp	r3, #3
 2344 0028 04D0     		beq	.L130
 2345              		.loc 2 710 0 discriminator 4
 2346 002a 40F2C621 		movw	r1, #710
 2347 002e 2348     		ldr	r0, .L136+4
 2348 0030 FFF7FEFF 		bl	Cy_SysLib_AssertFailed
 2349              	.L130:
 711:Generated_Source\PSoC6\pdl\drivers\peripheral\smif/cy_smif.c **** 
 712:Generated_Source\PSoC6\pdl\drivers\peripheral\smif/cy_smif.c ****     if(size > 0U)
 2350              		.loc 2 712 0 is_stmt 1
 2351 0034 7B68     		ldr	r3, [r7, #4]
 2352 0036 002B     		cmp	r3, #0
 2353 0038 38D0     		beq	.L131
 713:Generated_Source\PSoC6\pdl\drivers\peripheral\smif/cy_smif.c ****     {
 714:Generated_Source\PSoC6\pdl\drivers\peripheral\smif/cy_smif.c ****         result = CY_SMIF_CMD_FIFO_FULL;
 2354              		.loc 2 714 0
 2355 003a 214B     		ldr	r3, .L136+8
 2356 003c FB63     		str	r3, [r7, #60]
 715:Generated_Source\PSoC6\pdl\drivers\peripheral\smif/cy_smif.c ****         /* Check if there are enough free entries in TX_CMD_FIFO */
 716:Generated_Source\PSoC6\pdl\drivers\peripheral\smif/cy_smif.c ****         if  (Cy_SMIF_GetCmdFifoStatus(base) < CY_SMIF_TX_CMD_FIFO_STATUS_RANGE)
 2357              		.loc 2 716 0
 2358 003e F868     		ldr	r0, [r7, #12]
 2359 0040 FFF7FEFF 		bl	Cy_SMIF_GetCmdFifoStatus
 2360 0044 0346     		mov	r3, r0
 2361 0046 032B     		cmp	r3, #3
 2362 0048 30D8     		bhi	.L131
 717:Generated_Source\PSoC6\pdl\drivers\peripheral\smif/cy_smif.c ****         {
 718:Generated_Source\PSoC6\pdl\drivers\peripheral\smif/cy_smif.c ****             /* Enter the receiving mode */
 719:Generated_Source\PSoC6\pdl\drivers\peripheral\smif/cy_smif.c ****             base->TX_CMD_FIFO_WR =
 720:Generated_Source\PSoC6\pdl\drivers\peripheral\smif/cy_smif.c ****                 _VAL2FLD(CY_SMIF_CMD_FIFO_WR_MODE, CY_SMIF_CMD_FIFO_RX_COUNT_MODE) |
 721:Generated_Source\PSoC6\pdl\drivers\peripheral\smif/cy_smif.c ****                 _VAL2FLD(CY_SMIF_CMD_FIFO_WR_WIDTH, (uint32_t)transferWidth)    |
 2363              		.loc 2 721 0
 2364 004a FB78     		ldrb	r3, [r7, #3]	@ zero_extendqisi2
 2365 004c 1B04     		lsls	r3, r3, #16
 2366 004e 03F44032 		and	r2, r3, #196608
 722:Generated_Source\PSoC6\pdl\drivers\peripheral\smif/cy_smif.c ****                 _VAL2FLD(CY_SMIF_CMD_FIFO_WR_RX_COUNT, ((uint32_t)(size - 1U)));
 2367              		.loc 2 722 0
 2368 0052 7B68     		ldr	r3, [r7, #4]
 2369 0054 013B     		subs	r3, r3, #1
 2370 0056 C3F31103 		ubfx	r3, r3, #0, #18
 721:Generated_Source\PSoC6\pdl\drivers\peripheral\smif/cy_smif.c ****                 _VAL2FLD(CY_SMIF_CMD_FIFO_WR_RX_COUNT, ((uint32_t)(size - 1U)));
 2371              		.loc 2 721 0
 2372 005a 1343     		orrs	r3, r3, r2
 2373 005c 43F40022 		orr	r2, r3, #524288
 719:Generated_Source\PSoC6\pdl\drivers\peripheral\smif/cy_smif.c ****                 _VAL2FLD(CY_SMIF_CMD_FIFO_WR_MODE, CY_SMIF_CMD_FIFO_RX_COUNT_MODE) |
 2374              		.loc 2 719 0
 2375 0060 FB68     		ldr	r3, [r7, #12]
 2376 0062 1A65     		str	r2, [r3, #80]
 723:Generated_Source\PSoC6\pdl\drivers\peripheral\smif/cy_smif.c ****             result = CY_SMIF_SUCCESS;
 2377              		.loc 2 723 0
 2378 0064 0023     		movs	r3, #0
 2379 0066 FB63     		str	r3, [r7, #60]
 724:Generated_Source\PSoC6\pdl\drivers\peripheral\smif/cy_smif.c **** 
 725:Generated_Source\PSoC6\pdl\drivers\peripheral\smif/cy_smif.c ****             if (NULL != rxBuffer)
ARM GAS  C:\Users\ikomb\AppData\Local\Temp\ccEKz2Td.s 			page 81


 2380              		.loc 2 725 0
 2381 0068 BB68     		ldr	r3, [r7, #8]
 2382 006a 002B     		cmp	r3, #0
 2383 006c 1ED0     		beq	.L131
 2384              	.LBB3:
 726:Generated_Source\PSoC6\pdl\drivers\peripheral\smif/cy_smif.c ****             {
 727:Generated_Source\PSoC6\pdl\drivers\peripheral\smif/cy_smif.c **** 
 728:Generated_Source\PSoC6\pdl\drivers\peripheral\smif/cy_smif.c ****                 uint32_t timeoutUnits = context->timeout;
 2385              		.loc 2 728 0
 2386 006e BB6C     		ldr	r3, [r7, #72]
 2387 0070 5B6A     		ldr	r3, [r3, #36]
 2388 0072 BB63     		str	r3, [r7, #56]
 729:Generated_Source\PSoC6\pdl\drivers\peripheral\smif/cy_smif.c ****                 cy_stc_smif_context_t contextLoc;
 730:Generated_Source\PSoC6\pdl\drivers\peripheral\smif/cy_smif.c **** 
 731:Generated_Source\PSoC6\pdl\drivers\peripheral\smif/cy_smif.c ****                 /* initialize parameters for Cy_SMIF_PushTxFifo */
 732:Generated_Source\PSoC6\pdl\drivers\peripheral\smif/cy_smif.c ****                 contextLoc.rxBufferAddress = (uint8_t*)rxBuffer;
 2389              		.loc 2 732 0
 2390 0074 BB68     		ldr	r3, [r7, #8]
 2391 0076 FB61     		str	r3, [r7, #28]
 733:Generated_Source\PSoC6\pdl\drivers\peripheral\smif/cy_smif.c ****                 contextLoc.rxBufferCounter = size;
 2392              		.loc 2 733 0
 2393 0078 7B68     		ldr	r3, [r7, #4]
 2394 007a 7B62     		str	r3, [r7, #36]
 734:Generated_Source\PSoC6\pdl\drivers\peripheral\smif/cy_smif.c ****                 contextLoc.rxCmpltCb = NULL;
 2395              		.loc 2 734 0
 2396 007c 0023     		movs	r3, #0
 2397 007e 3B63     		str	r3, [r7, #48]
 735:Generated_Source\PSoC6\pdl\drivers\peripheral\smif/cy_smif.c ****                 contextLoc.transferStatus = (uint32_t) CY_SMIF_REC_BUSY;
 2398              		.loc 2 735 0
 2399 0080 0423     		movs	r3, #4
 2400 0082 BB62     		str	r3, [r7, #40]
 736:Generated_Source\PSoC6\pdl\drivers\peripheral\smif/cy_smif.c **** 
 737:Generated_Source\PSoC6\pdl\drivers\peripheral\smif/cy_smif.c ****                 while (((uint32_t) CY_SMIF_REC_BUSY == contextLoc.transferStatus) &&
 2401              		.loc 2 737 0
 2402 0084 0BE0     		b	.L132
 2403              	.L134:
 738:Generated_Source\PSoC6\pdl\drivers\peripheral\smif/cy_smif.c ****                         (CY_SMIF_EXCEED_TIMEOUT != result))
 739:Generated_Source\PSoC6\pdl\drivers\peripheral\smif/cy_smif.c ****                 {
 740:Generated_Source\PSoC6\pdl\drivers\peripheral\smif/cy_smif.c ****                     Cy_SMIF_PopRxFifo(base, &contextLoc);
 2404              		.loc 2 740 0
 2405 0086 07F11003 		add	r3, r7, #16
 2406 008a 1946     		mov	r1, r3
 2407 008c F868     		ldr	r0, [r7, #12]
 2408 008e FFF7FEFF 		bl	Cy_SMIF_PopRxFifo
 741:Generated_Source\PSoC6\pdl\drivers\peripheral\smif/cy_smif.c ****                     result = Cy_SMIF_TimeoutRun(&timeoutUnits);
 2409              		.loc 2 741 0
 2410 0092 07F13803 		add	r3, r7, #56
 2411 0096 1846     		mov	r0, r3
 2412 0098 FFF7FEFF 		bl	Cy_SMIF_TimeoutRun
 2413 009c F863     		str	r0, [r7, #60]
 2414              	.L132:
 737:Generated_Source\PSoC6\pdl\drivers\peripheral\smif/cy_smif.c ****                         (CY_SMIF_EXCEED_TIMEOUT != result))
 2415              		.loc 2 737 0
 2416 009e BB6A     		ldr	r3, [r7, #40]
 2417 00a0 042B     		cmp	r3, #4
 2418 00a2 03D1     		bne	.L131
 737:Generated_Source\PSoC6\pdl\drivers\peripheral\smif/cy_smif.c ****                         (CY_SMIF_EXCEED_TIMEOUT != result))
ARM GAS  C:\Users\ikomb\AppData\Local\Temp\ccEKz2Td.s 			page 82


 2419              		.loc 2 737 0 is_stmt 0 discriminator 1
 2420 00a4 FB6B     		ldr	r3, [r7, #60]
 2421 00a6 074A     		ldr	r2, .L136+12
 2422 00a8 9342     		cmp	r3, r2
 2423 00aa ECD1     		bne	.L134
 2424              	.L131:
 2425              	.LBE3:
 742:Generated_Source\PSoC6\pdl\drivers\peripheral\smif/cy_smif.c ****                 }
 743:Generated_Source\PSoC6\pdl\drivers\peripheral\smif/cy_smif.c ****             }
 744:Generated_Source\PSoC6\pdl\drivers\peripheral\smif/cy_smif.c ****         }
 745:Generated_Source\PSoC6\pdl\drivers\peripheral\smif/cy_smif.c ****     }
 746:Generated_Source\PSoC6\pdl\drivers\peripheral\smif/cy_smif.c ****     return (result);
 2426              		.loc 2 746 0 is_stmt 1
 2427 00ac FB6B     		ldr	r3, [r7, #60]
 747:Generated_Source\PSoC6\pdl\drivers\peripheral\smif/cy_smif.c **** }
 2428              		.loc 2 747 0
 2429 00ae 1846     		mov	r0, r3
 2430 00b0 4037     		adds	r7, r7, #64
 2431              		.cfi_def_cfa_offset 8
 2432 00b2 BD46     		mov	sp, r7
 2433              		.cfi_def_cfa_register 13
 2434              		@ sp needed
 2435 00b4 80BD     		pop	{r7, pc}
 2436              	.L137:
 2437 00b6 00BF     		.align	2
 2438              	.L136:
 2439 00b8 0400B200 		.word	11665412
 2440 00bc 00000000 		.word	.LC0
 2441 00c0 0100B200 		.word	11665409
 2442 00c4 0200B200 		.word	11665410
 2443              		.cfi_endproc
 2444              	.LFE187:
 2445              		.size	Cy_SMIF_ReceiveDataBlocking, .-Cy_SMIF_ReceiveDataBlocking
 2446              		.section	.text.Cy_SMIF_SendDummyCycles,"ax",%progbits
 2447              		.align	2
 2448              		.global	Cy_SMIF_SendDummyCycles
 2449              		.thumb
 2450              		.thumb_func
 2451              		.type	Cy_SMIF_SendDummyCycles, %function
 2452              	Cy_SMIF_SendDummyCycles:
 2453              	.LFB188:
 748:Generated_Source\PSoC6\pdl\drivers\peripheral\smif/cy_smif.c **** 
 749:Generated_Source\PSoC6\pdl\drivers\peripheral\smif/cy_smif.c **** 
 750:Generated_Source\PSoC6\pdl\drivers\peripheral\smif/cy_smif.c **** /*******************************************************************************
 751:Generated_Source\PSoC6\pdl\drivers\peripheral\smif/cy_smif.c **** * Function Name: Cy_SMIF_SendDummyCycles()
 752:Generated_Source\PSoC6\pdl\drivers\peripheral\smif/cy_smif.c **** ****************************************************************************//**
 753:Generated_Source\PSoC6\pdl\drivers\peripheral\smif/cy_smif.c **** *
 754:Generated_Source\PSoC6\pdl\drivers\peripheral\smif/cy_smif.c **** * This function sends dummy-clock cycles. The data lines are tri-stated during
 755:Generated_Source\PSoC6\pdl\drivers\peripheral\smif/cy_smif.c **** * the dummy cycles.
 756:Generated_Source\PSoC6\pdl\drivers\peripheral\smif/cy_smif.c **** *
 757:Generated_Source\PSoC6\pdl\drivers\peripheral\smif/cy_smif.c **** * \note This function is to be preceded by \ref Cy_SMIF_TransmitCommand.
 758:Generated_Source\PSoC6\pdl\drivers\peripheral\smif/cy_smif.c **** *
 759:Generated_Source\PSoC6\pdl\drivers\peripheral\smif/cy_smif.c **** * \param base
 760:Generated_Source\PSoC6\pdl\drivers\peripheral\smif/cy_smif.c **** * Holds the base address of the SMIF block registers.
 761:Generated_Source\PSoC6\pdl\drivers\peripheral\smif/cy_smif.c **** *
 762:Generated_Source\PSoC6\pdl\drivers\peripheral\smif/cy_smif.c **** * \param cycles
 763:Generated_Source\PSoC6\pdl\drivers\peripheral\smif/cy_smif.c **** * The number of dummy cycles. Must be > 0.
ARM GAS  C:\Users\ikomb\AppData\Local\Temp\ccEKz2Td.s 			page 83


 764:Generated_Source\PSoC6\pdl\drivers\peripheral\smif/cy_smif.c **** *
 765:Generated_Source\PSoC6\pdl\drivers\peripheral\smif/cy_smif.c **** * \return A status of dummy cycles sending.
 766:Generated_Source\PSoC6\pdl\drivers\peripheral\smif/cy_smif.c **** *       - \ref CY_SMIF_SUCCESS
 767:Generated_Source\PSoC6\pdl\drivers\peripheral\smif/cy_smif.c **** *       - \ref CY_SMIF_CMD_FIFO_FULL
 768:Generated_Source\PSoC6\pdl\drivers\peripheral\smif/cy_smif.c **** *       - \ref CY_SMIF_BAD_PARAM
 769:Generated_Source\PSoC6\pdl\drivers\peripheral\smif/cy_smif.c **** *
 770:Generated_Source\PSoC6\pdl\drivers\peripheral\smif/cy_smif.c **** *******************************************************************************/
 771:Generated_Source\PSoC6\pdl\drivers\peripheral\smif/cy_smif.c **** cy_en_smif_status_t  Cy_SMIF_SendDummyCycles(SMIF_Type *base,
 772:Generated_Source\PSoC6\pdl\drivers\peripheral\smif/cy_smif.c ****                                 uint32_t cycles)
 773:Generated_Source\PSoC6\pdl\drivers\peripheral\smif/cy_smif.c **** {
 2454              		.loc 2 773 0
 2455              		.cfi_startproc
 2456              		@ args = 0, pretend = 0, frame = 16
 2457              		@ frame_needed = 1, uses_anonymous_args = 0
 2458 0000 80B5     		push	{r7, lr}
 2459              		.cfi_def_cfa_offset 8
 2460              		.cfi_offset 7, -8
 2461              		.cfi_offset 14, -4
 2462 0002 84B0     		sub	sp, sp, #16
 2463              		.cfi_def_cfa_offset 24
 2464 0004 00AF     		add	r7, sp, #0
 2465              		.cfi_def_cfa_register 7
 2466 0006 7860     		str	r0, [r7, #4]
 2467 0008 3960     		str	r1, [r7]
 774:Generated_Source\PSoC6\pdl\drivers\peripheral\smif/cy_smif.c ****     /* The return variable */
 775:Generated_Source\PSoC6\pdl\drivers\peripheral\smif/cy_smif.c ****     cy_en_smif_status_t result = CY_SMIF_BAD_PARAM;
 2468              		.loc 2 775 0
 2469 000a 0D4B     		ldr	r3, .L141
 2470 000c FB60     		str	r3, [r7, #12]
 776:Generated_Source\PSoC6\pdl\drivers\peripheral\smif/cy_smif.c ****     
 777:Generated_Source\PSoC6\pdl\drivers\peripheral\smif/cy_smif.c ****     if (cycles > 0U)
 2471              		.loc 2 777 0
 2472 000e 3B68     		ldr	r3, [r7]
 2473 0010 002B     		cmp	r3, #0
 2474 0012 10D0     		beq	.L139
 778:Generated_Source\PSoC6\pdl\drivers\peripheral\smif/cy_smif.c ****     {
 779:Generated_Source\PSoC6\pdl\drivers\peripheral\smif/cy_smif.c ****         result = CY_SMIF_CMD_FIFO_FULL;
 2475              		.loc 2 779 0
 2476 0014 0B4B     		ldr	r3, .L141+4
 2477 0016 FB60     		str	r3, [r7, #12]
 780:Generated_Source\PSoC6\pdl\drivers\peripheral\smif/cy_smif.c ****         /* Check if there are enough free entries in TX_CMD_FIFO */
 781:Generated_Source\PSoC6\pdl\drivers\peripheral\smif/cy_smif.c ****         if  (Cy_SMIF_GetCmdFifoStatus(base) < CY_SMIF_TX_CMD_FIFO_STATUS_RANGE)
 2478              		.loc 2 781 0
 2479 0018 7868     		ldr	r0, [r7, #4]
 2480 001a FFF7FEFF 		bl	Cy_SMIF_GetCmdFifoStatus
 2481 001e 0346     		mov	r3, r0
 2482 0020 032B     		cmp	r3, #3
 2483 0022 08D8     		bhi	.L139
 782:Generated_Source\PSoC6\pdl\drivers\peripheral\smif/cy_smif.c ****         {
 783:Generated_Source\PSoC6\pdl\drivers\peripheral\smif/cy_smif.c ****             /* Send the dummy bytes */
 784:Generated_Source\PSoC6\pdl\drivers\peripheral\smif/cy_smif.c ****             base->TX_CMD_FIFO_WR =
 785:Generated_Source\PSoC6\pdl\drivers\peripheral\smif/cy_smif.c ****                 _VAL2FLD(CY_SMIF_CMD_FIFO_WR_MODE, 
 786:Generated_Source\PSoC6\pdl\drivers\peripheral\smif/cy_smif.c ****                             CY_SMIF_CMD_FIFO_DUMMY_COUNT_MODE) |
 787:Generated_Source\PSoC6\pdl\drivers\peripheral\smif/cy_smif.c ****                 _VAL2FLD(CY_SMIF_CMD_FIFO_WR_DUMMY, ((uint32_t)(cycles-1U)));
 2484              		.loc 2 787 0
 2485 0024 3B68     		ldr	r3, [r7]
 2486 0026 013B     		subs	r3, r3, #1
ARM GAS  C:\Users\ikomb\AppData\Local\Temp\ccEKz2Td.s 			page 84


 2487 0028 9BB2     		uxth	r3, r3
 786:Generated_Source\PSoC6\pdl\drivers\peripheral\smif/cy_smif.c ****                 _VAL2FLD(CY_SMIF_CMD_FIFO_WR_DUMMY, ((uint32_t)(cycles-1U)));
 2488              		.loc 2 786 0
 2489 002a 43F44022 		orr	r2, r3, #786432
 784:Generated_Source\PSoC6\pdl\drivers\peripheral\smif/cy_smif.c ****                 _VAL2FLD(CY_SMIF_CMD_FIFO_WR_MODE, 
 2490              		.loc 2 784 0
 2491 002e 7B68     		ldr	r3, [r7, #4]
 2492 0030 1A65     		str	r2, [r3, #80]
 788:Generated_Source\PSoC6\pdl\drivers\peripheral\smif/cy_smif.c **** 
 789:Generated_Source\PSoC6\pdl\drivers\peripheral\smif/cy_smif.c **** 
 790:Generated_Source\PSoC6\pdl\drivers\peripheral\smif/cy_smif.c ****             result = CY_SMIF_SUCCESS;
 2493              		.loc 2 790 0
 2494 0032 0023     		movs	r3, #0
 2495 0034 FB60     		str	r3, [r7, #12]
 2496              	.L139:
 791:Generated_Source\PSoC6\pdl\drivers\peripheral\smif/cy_smif.c ****         }
 792:Generated_Source\PSoC6\pdl\drivers\peripheral\smif/cy_smif.c ****     }
 793:Generated_Source\PSoC6\pdl\drivers\peripheral\smif/cy_smif.c **** 
 794:Generated_Source\PSoC6\pdl\drivers\peripheral\smif/cy_smif.c ****     return (result);
 2497              		.loc 2 794 0
 2498 0036 FB68     		ldr	r3, [r7, #12]
 795:Generated_Source\PSoC6\pdl\drivers\peripheral\smif/cy_smif.c **** }
 2499              		.loc 2 795 0
 2500 0038 1846     		mov	r0, r3
 2501 003a 1037     		adds	r7, r7, #16
 2502              		.cfi_def_cfa_offset 8
 2503 003c BD46     		mov	sp, r7
 2504              		.cfi_def_cfa_register 13
 2505              		@ sp needed
 2506 003e 80BD     		pop	{r7, pc}
 2507              	.L142:
 2508              		.align	2
 2509              	.L141:
 2510 0040 0400B200 		.word	11665412
 2511 0044 0100B200 		.word	11665409
 2512              		.cfi_endproc
 2513              	.LFE188:
 2514              		.size	Cy_SMIF_SendDummyCycles, .-Cy_SMIF_SendDummyCycles
 2515              		.section	.text.Cy_SMIF_GetTxfrStatus,"ax",%progbits
 2516              		.align	2
 2517              		.global	Cy_SMIF_GetTxfrStatus
 2518              		.thumb
 2519              		.thumb_func
 2520              		.type	Cy_SMIF_GetTxfrStatus, %function
 2521              	Cy_SMIF_GetTxfrStatus:
 2522              	.LFB189:
 796:Generated_Source\PSoC6\pdl\drivers\peripheral\smif/cy_smif.c **** 
 797:Generated_Source\PSoC6\pdl\drivers\peripheral\smif/cy_smif.c **** 
 798:Generated_Source\PSoC6\pdl\drivers\peripheral\smif/cy_smif.c **** /*******************************************************************************
 799:Generated_Source\PSoC6\pdl\drivers\peripheral\smif/cy_smif.c **** * Function Name: Cy_SMIF_GetTxfrStatus
 800:Generated_Source\PSoC6\pdl\drivers\peripheral\smif/cy_smif.c **** ****************************************************************************//**
 801:Generated_Source\PSoC6\pdl\drivers\peripheral\smif/cy_smif.c **** *
 802:Generated_Source\PSoC6\pdl\drivers\peripheral\smif/cy_smif.c **** * This function provides the status of the transfer. This function is used to
 803:Generated_Source\PSoC6\pdl\drivers\peripheral\smif/cy_smif.c **** * poll for the status of the TransmitData or receiveData function. When this
 804:Generated_Source\PSoC6\pdl\drivers\peripheral\smif/cy_smif.c **** * function is called to determine the status of ongoing
 805:Generated_Source\PSoC6\pdl\drivers\peripheral\smif/cy_smif.c **** * \ref Cy_SMIF_ReceiveData() or \ref Cy_SMIF_TransmitData(), the returned status
 806:Generated_Source\PSoC6\pdl\drivers\peripheral\smif/cy_smif.c **** * is only valid if the functions passed a non-NULL buffer to transmit or
ARM GAS  C:\Users\ikomb\AppData\Local\Temp\ccEKz2Td.s 			page 85


 807:Generated_Source\PSoC6\pdl\drivers\peripheral\smif/cy_smif.c **** * receive respectively. If the pointer passed to \ref Cy_SMIF_ReceiveData()
 808:Generated_Source\PSoC6\pdl\drivers\peripheral\smif/cy_smif.c **** * or \ref Cy_SMIF_TransmitData() is a NULL, then the code/DMA outside this
 809:Generated_Source\PSoC6\pdl\drivers\peripheral\smif/cy_smif.c **** * driver will take care of the transfer and the Cy_GetTxfrStatus() will return 
 810:Generated_Source\PSoC6\pdl\drivers\peripheral\smif/cy_smif.c **** * an erroneous result.
 811:Generated_Source\PSoC6\pdl\drivers\peripheral\smif/cy_smif.c **** *
 812:Generated_Source\PSoC6\pdl\drivers\peripheral\smif/cy_smif.c **** * \param base
 813:Generated_Source\PSoC6\pdl\drivers\peripheral\smif/cy_smif.c **** * Holds the base address of the SMIF block registers.
 814:Generated_Source\PSoC6\pdl\drivers\peripheral\smif/cy_smif.c **** *
 815:Generated_Source\PSoC6\pdl\drivers\peripheral\smif/cy_smif.c **** * \param context
 816:Generated_Source\PSoC6\pdl\drivers\peripheral\smif/cy_smif.c **** * Passes a configuration structure that contains the transfer parameters of the
 817:Generated_Source\PSoC6\pdl\drivers\peripheral\smif/cy_smif.c **** * SMIF block.
 818:Generated_Source\PSoC6\pdl\drivers\peripheral\smif/cy_smif.c **** *
 819:Generated_Source\PSoC6\pdl\drivers\peripheral\smif/cy_smif.c **** * \return Returns the transfer status. \ref cy_en_smif_txfr_status_t
 820:Generated_Source\PSoC6\pdl\drivers\peripheral\smif/cy_smif.c **** *
 821:Generated_Source\PSoC6\pdl\drivers\peripheral\smif/cy_smif.c **** *******************************************************************************/
 822:Generated_Source\PSoC6\pdl\drivers\peripheral\smif/cy_smif.c **** uint32_t Cy_SMIF_GetTxfrStatus(SMIF_Type *base, 
 823:Generated_Source\PSoC6\pdl\drivers\peripheral\smif/cy_smif.c ****                                 cy_stc_smif_context_t const *context)
 824:Generated_Source\PSoC6\pdl\drivers\peripheral\smif/cy_smif.c **** {
 2523              		.loc 2 824 0
 2524              		.cfi_startproc
 2525              		@ args = 0, pretend = 0, frame = 8
 2526              		@ frame_needed = 1, uses_anonymous_args = 0
 2527              		@ link register save eliminated.
 2528 0000 80B4     		push	{r7}
 2529              		.cfi_def_cfa_offset 4
 2530              		.cfi_offset 7, -4
 2531 0002 83B0     		sub	sp, sp, #12
 2532              		.cfi_def_cfa_offset 16
 2533 0004 00AF     		add	r7, sp, #0
 2534              		.cfi_def_cfa_register 7
 2535 0006 7860     		str	r0, [r7, #4]
 2536 0008 3960     		str	r1, [r7]
 825:Generated_Source\PSoC6\pdl\drivers\peripheral\smif/cy_smif.c ****     return (context->transferStatus);
 2537              		.loc 2 825 0
 2538 000a 3B68     		ldr	r3, [r7]
 2539 000c 9B69     		ldr	r3, [r3, #24]
 826:Generated_Source\PSoC6\pdl\drivers\peripheral\smif/cy_smif.c **** }
 2540              		.loc 2 826 0
 2541 000e 1846     		mov	r0, r3
 2542 0010 0C37     		adds	r7, r7, #12
 2543              		.cfi_def_cfa_offset 4
 2544 0012 BD46     		mov	sp, r7
 2545              		.cfi_def_cfa_register 13
 2546              		@ sp needed
 2547 0014 5DF8047B 		ldr	r7, [sp], #4
 2548              		.cfi_restore 7
 2549              		.cfi_def_cfa_offset 0
 2550 0018 7047     		bx	lr
 2551              		.cfi_endproc
 2552              	.LFE189:
 2553              		.size	Cy_SMIF_GetTxfrStatus, .-Cy_SMIF_GetTxfrStatus
 2554 001a 00BF     		.section	.text.Cy_SMIF_Enable,"ax",%progbits
 2555              		.align	2
 2556              		.global	Cy_SMIF_Enable
 2557              		.thumb
 2558              		.thumb_func
 2559              		.type	Cy_SMIF_Enable, %function
ARM GAS  C:\Users\ikomb\AppData\Local\Temp\ccEKz2Td.s 			page 86


 2560              	Cy_SMIF_Enable:
 2561              	.LFB190:
 827:Generated_Source\PSoC6\pdl\drivers\peripheral\smif/cy_smif.c **** 
 828:Generated_Source\PSoC6\pdl\drivers\peripheral\smif/cy_smif.c **** 
 829:Generated_Source\PSoC6\pdl\drivers\peripheral\smif/cy_smif.c **** /*******************************************************************************
 830:Generated_Source\PSoC6\pdl\drivers\peripheral\smif/cy_smif.c **** * Function Name: Cy_SMIF_Enable
 831:Generated_Source\PSoC6\pdl\drivers\peripheral\smif/cy_smif.c **** ****************************************************************************//**
 832:Generated_Source\PSoC6\pdl\drivers\peripheral\smif/cy_smif.c **** *
 833:Generated_Source\PSoC6\pdl\drivers\peripheral\smif/cy_smif.c **** * Enables the operation of the SMIF block.
 834:Generated_Source\PSoC6\pdl\drivers\peripheral\smif/cy_smif.c **** *
 835:Generated_Source\PSoC6\pdl\drivers\peripheral\smif/cy_smif.c **** * \note This function only enables the SMIF IP. The interrupts associated with
 836:Generated_Source\PSoC6\pdl\drivers\peripheral\smif/cy_smif.c **** * the SMIF will need to be separately enabled using the interrupt driver.
 837:Generated_Source\PSoC6\pdl\drivers\peripheral\smif/cy_smif.c **** *
 838:Generated_Source\PSoC6\pdl\drivers\peripheral\smif/cy_smif.c **** * \param base
 839:Generated_Source\PSoC6\pdl\drivers\peripheral\smif/cy_smif.c **** * Holds the base address of the SMIF block registers.
 840:Generated_Source\PSoC6\pdl\drivers\peripheral\smif/cy_smif.c **** *
 841:Generated_Source\PSoC6\pdl\drivers\peripheral\smif/cy_smif.c **** * \param context
 842:Generated_Source\PSoC6\pdl\drivers\peripheral\smif/cy_smif.c **** * Passes a configuration structure that contains the transfer parameters of the
 843:Generated_Source\PSoC6\pdl\drivers\peripheral\smif/cy_smif.c **** * SMIF block.
 844:Generated_Source\PSoC6\pdl\drivers\peripheral\smif/cy_smif.c **** *
 845:Generated_Source\PSoC6\pdl\drivers\peripheral\smif/cy_smif.c **** *******************************************************************************/
 846:Generated_Source\PSoC6\pdl\drivers\peripheral\smif/cy_smif.c **** void Cy_SMIF_Enable(SMIF_Type *base, cy_stc_smif_context_t *context)
 847:Generated_Source\PSoC6\pdl\drivers\peripheral\smif/cy_smif.c **** {
 2562              		.loc 2 847 0
 2563              		.cfi_startproc
 2564              		@ args = 0, pretend = 0, frame = 8
 2565              		@ frame_needed = 1, uses_anonymous_args = 0
 2566              		@ link register save eliminated.
 2567 0000 80B4     		push	{r7}
 2568              		.cfi_def_cfa_offset 4
 2569              		.cfi_offset 7, -4
 2570 0002 83B0     		sub	sp, sp, #12
 2571              		.cfi_def_cfa_offset 16
 2572 0004 00AF     		add	r7, sp, #0
 2573              		.cfi_def_cfa_register 7
 2574 0006 7860     		str	r0, [r7, #4]
 2575 0008 3960     		str	r1, [r7]
 848:Generated_Source\PSoC6\pdl\drivers\peripheral\smif/cy_smif.c ****     /* Global variables initialization */
 849:Generated_Source\PSoC6\pdl\drivers\peripheral\smif/cy_smif.c ****     context->txBufferAddress = 0U;
 2576              		.loc 2 849 0
 2577 000a 3B68     		ldr	r3, [r7]
 2578 000c 0022     		movs	r2, #0
 2579 000e 1A60     		str	r2, [r3]
 850:Generated_Source\PSoC6\pdl\drivers\peripheral\smif/cy_smif.c ****     context->txBufferSize = 0U;
 2580              		.loc 2 850 0
 2581 0010 3B68     		ldr	r3, [r7]
 2582 0012 0022     		movs	r2, #0
 2583 0014 5A60     		str	r2, [r3, #4]
 851:Generated_Source\PSoC6\pdl\drivers\peripheral\smif/cy_smif.c ****     context->txBufferCounter = 0U;
 2584              		.loc 2 851 0
 2585 0016 3B68     		ldr	r3, [r7]
 2586 0018 0022     		movs	r2, #0
 2587 001a 9A60     		str	r2, [r3, #8]
 852:Generated_Source\PSoC6\pdl\drivers\peripheral\smif/cy_smif.c ****     context->rxBufferAddress = 0U;
 2588              		.loc 2 852 0
 2589 001c 3B68     		ldr	r3, [r7]
 2590 001e 0022     		movs	r2, #0
ARM GAS  C:\Users\ikomb\AppData\Local\Temp\ccEKz2Td.s 			page 87


 2591 0020 DA60     		str	r2, [r3, #12]
 853:Generated_Source\PSoC6\pdl\drivers\peripheral\smif/cy_smif.c ****     context->rxBufferSize = 0U;
 2592              		.loc 2 853 0
 2593 0022 3B68     		ldr	r3, [r7]
 2594 0024 0022     		movs	r2, #0
 2595 0026 1A61     		str	r2, [r3, #16]
 854:Generated_Source\PSoC6\pdl\drivers\peripheral\smif/cy_smif.c ****     context->rxBufferCounter = 0U;
 2596              		.loc 2 854 0
 2597 0028 3B68     		ldr	r3, [r7]
 2598 002a 0022     		movs	r2, #0
 2599 002c 5A61     		str	r2, [r3, #20]
 855:Generated_Source\PSoC6\pdl\drivers\peripheral\smif/cy_smif.c ****     context->transferStatus = (uint32_t)CY_SMIF_STARTED;
 2600              		.loc 2 855 0
 2601 002e 3B68     		ldr	r3, [r7]
 2602 0030 0022     		movs	r2, #0
 2603 0032 9A61     		str	r2, [r3, #24]
 856:Generated_Source\PSoC6\pdl\drivers\peripheral\smif/cy_smif.c **** 
 857:Generated_Source\PSoC6\pdl\drivers\peripheral\smif/cy_smif.c ****     base->CTL |= SMIF_CTL_ENABLED_Msk;
 2604              		.loc 2 857 0
 2605 0034 7B68     		ldr	r3, [r7, #4]
 2606 0036 1B68     		ldr	r3, [r3]
 2607 0038 43F00042 		orr	r2, r3, #-2147483648
 2608 003c 7B68     		ldr	r3, [r7, #4]
 2609 003e 1A60     		str	r2, [r3]
 858:Generated_Source\PSoC6\pdl\drivers\peripheral\smif/cy_smif.c **** 
 859:Generated_Source\PSoC6\pdl\drivers\peripheral\smif/cy_smif.c ****     /* Read the register to flush the buffer */
 860:Generated_Source\PSoC6\pdl\drivers\peripheral\smif/cy_smif.c ****     (void) base->CTL;
 2610              		.loc 2 860 0
 2611 0040 7B68     		ldr	r3, [r7, #4]
 2612 0042 1B68     		ldr	r3, [r3]
 861:Generated_Source\PSoC6\pdl\drivers\peripheral\smif/cy_smif.c **** }
 2613              		.loc 2 861 0
 2614 0044 00BF     		nop
 2615 0046 0C37     		adds	r7, r7, #12
 2616              		.cfi_def_cfa_offset 4
 2617 0048 BD46     		mov	sp, r7
 2618              		.cfi_def_cfa_register 13
 2619              		@ sp needed
 2620 004a 5DF8047B 		ldr	r7, [sp], #4
 2621              		.cfi_restore 7
 2622              		.cfi_def_cfa_offset 0
 2623 004e 7047     		bx	lr
 2624              		.cfi_endproc
 2625              	.LFE190:
 2626              		.size	Cy_SMIF_Enable, .-Cy_SMIF_Enable
 2627              		.section	.text.Cy_SMIF_Encrypt,"ax",%progbits
 2628              		.align	2
 2629              		.global	Cy_SMIF_Encrypt
 2630              		.thumb
 2631              		.thumb_func
 2632              		.type	Cy_SMIF_Encrypt, %function
 2633              	Cy_SMIF_Encrypt:
 2634              	.LFB191:
 862:Generated_Source\PSoC6\pdl\drivers\peripheral\smif/cy_smif.c **** 
 863:Generated_Source\PSoC6\pdl\drivers\peripheral\smif/cy_smif.c **** 
 864:Generated_Source\PSoC6\pdl\drivers\peripheral\smif/cy_smif.c **** /*******************************************************************************
 865:Generated_Source\PSoC6\pdl\drivers\peripheral\smif/cy_smif.c **** * Function Name: Cy_SMIF_Encrypt()
ARM GAS  C:\Users\ikomb\AppData\Local\Temp\ccEKz2Td.s 			page 88


 866:Generated_Source\PSoC6\pdl\drivers\peripheral\smif/cy_smif.c **** ****************************************************************************//**
 867:Generated_Source\PSoC6\pdl\drivers\peripheral\smif/cy_smif.c **** *
 868:Generated_Source\PSoC6\pdl\drivers\peripheral\smif/cy_smif.c **** * Uses the Encryption engine to create an encrypted result when the input, key
 869:Generated_Source\PSoC6\pdl\drivers\peripheral\smif/cy_smif.c **** * and data arrays are provided. The AES-128 encryption of the address with the
 870:Generated_Source\PSoC6\pdl\drivers\peripheral\smif/cy_smif.c **** * key, fetching the result and XOR with the data array are all done in the
 871:Generated_Source\PSoC6\pdl\drivers\peripheral\smif/cy_smif.c **** * function. The operational scheme is the following:
 872:Generated_Source\PSoC6\pdl\drivers\peripheral\smif/cy_smif.c **** *                   data = XOR(AES128(address, key), data)
 873:Generated_Source\PSoC6\pdl\drivers\peripheral\smif/cy_smif.c **** * Decryption is done using the input data-array identically to the encryption.
 874:Generated_Source\PSoC6\pdl\drivers\peripheral\smif/cy_smif.c **** * In the XIP mode, encryption and decryption are done without calling this
 875:Generated_Source\PSoC6\pdl\drivers\peripheral\smif/cy_smif.c **** * function. The operational scheme in the XIP mode is the same. The address
 876:Generated_Source\PSoC6\pdl\drivers\peripheral\smif/cy_smif.c **** * parameter in the XIP mode equals the actual address in the PSoC memory map.
 877:Generated_Source\PSoC6\pdl\drivers\peripheral\smif/cy_smif.c **** * The SMIF encryption engine is designed for code storage.
 878:Generated_Source\PSoC6\pdl\drivers\peripheral\smif/cy_smif.c **** * For data storage, the encryption key can be changed.
 879:Generated_Source\PSoC6\pdl\drivers\peripheral\smif/cy_smif.c **** * For sensitive data, the Crypto block is used.
 880:Generated_Source\PSoC6\pdl\drivers\peripheral\smif/cy_smif.c **** *
 881:Generated_Source\PSoC6\pdl\drivers\peripheral\smif/cy_smif.c **** * \note The API does not have access to the encryption key. The key must be
 882:Generated_Source\PSoC6\pdl\drivers\peripheral\smif/cy_smif.c **** * placed in the register before calling this API. The crypto routine
 883:Generated_Source\PSoC6\pdl\drivers\peripheral\smif/cy_smif.c **** * that can access the key storage area is recommended. This crypto routine is
 884:Generated_Source\PSoC6\pdl\drivers\peripheral\smif/cy_smif.c **** * typically a protection context 0 function.
 885:Generated_Source\PSoC6\pdl\drivers\peripheral\smif/cy_smif.c **** *
 886:Generated_Source\PSoC6\pdl\drivers\peripheral\smif/cy_smif.c **** * \note This is a blocking API. The API waits for encryption completion. Will
 887:Generated_Source\PSoC6\pdl\drivers\peripheral\smif/cy_smif.c **** * exit if a timeout is set (not equal to 0) and expired.
 888:Generated_Source\PSoC6\pdl\drivers\peripheral\smif/cy_smif.c **** *
 889:Generated_Source\PSoC6\pdl\drivers\peripheral\smif/cy_smif.c **** * \param base
 890:Generated_Source\PSoC6\pdl\drivers\peripheral\smif/cy_smif.c **** * Holds the base address of the SMIF block registers.
 891:Generated_Source\PSoC6\pdl\drivers\peripheral\smif/cy_smif.c **** *
 892:Generated_Source\PSoC6\pdl\drivers\peripheral\smif/cy_smif.c **** * \param context
 893:Generated_Source\PSoC6\pdl\drivers\peripheral\smif/cy_smif.c **** * Passes a configuration structure that contains the transfer parameters of the
 894:Generated_Source\PSoC6\pdl\drivers\peripheral\smif/cy_smif.c **** * SMIF block.
 895:Generated_Source\PSoC6\pdl\drivers\peripheral\smif/cy_smif.c **** *
 896:Generated_Source\PSoC6\pdl\drivers\peripheral\smif/cy_smif.c **** * \param address
 897:Generated_Source\PSoC6\pdl\drivers\peripheral\smif/cy_smif.c **** * The address that gets encrypted is a masked 16-byte block address. The 32-bit
 898:Generated_Source\PSoC6\pdl\drivers\peripheral\smif/cy_smif.c **** * address with the last 4 bits masked is placed as the last 4 bytes in the
 899:Generated_Source\PSoC6\pdl\drivers\peripheral\smif/cy_smif.c **** * 128-bit input. The rest of the higher bit for the 128 bits are padded zeros.
 900:Generated_Source\PSoC6\pdl\drivers\peripheral\smif/cy_smif.c **** * PA[127:0]:
 901:Generated_Source\PSoC6\pdl\drivers\peripheral\smif/cy_smif.c **** * PA[3:0] = 0
 902:Generated_Source\PSoC6\pdl\drivers\peripheral\smif/cy_smif.c **** * PA[7:4] = ADDR[7:4].
 903:Generated_Source\PSoC6\pdl\drivers\peripheral\smif/cy_smif.c **** * PA[15:8] = ADDR[15:8].
 904:Generated_Source\PSoC6\pdl\drivers\peripheral\smif/cy_smif.c **** * PA[23:16] = ADDR[23:16].
 905:Generated_Source\PSoC6\pdl\drivers\peripheral\smif/cy_smif.c **** * PA[31:24] = ADDR[31:24].
 906:Generated_Source\PSoC6\pdl\drivers\peripheral\smif/cy_smif.c **** * The other twelve of the sixteen plain text address bytes of PA[127:0] are "0":
 907:Generated_Source\PSoC6\pdl\drivers\peripheral\smif/cy_smif.c **** * PA[127:32] = "0".
 908:Generated_Source\PSoC6\pdl\drivers\peripheral\smif/cy_smif.c **** *
 909:Generated_Source\PSoC6\pdl\drivers\peripheral\smif/cy_smif.c **** * \param data
 910:Generated_Source\PSoC6\pdl\drivers\peripheral\smif/cy_smif.c **** * This is the location where the input data-array is passed while the function
 911:Generated_Source\PSoC6\pdl\drivers\peripheral\smif/cy_smif.c **** * is called. This array gets populated with the result after encryption is
 912:Generated_Source\PSoC6\pdl\drivers\peripheral\smif/cy_smif.c **** * completed.
 913:Generated_Source\PSoC6\pdl\drivers\peripheral\smif/cy_smif.c **** *
 914:Generated_Source\PSoC6\pdl\drivers\peripheral\smif/cy_smif.c **** * \param size
 915:Generated_Source\PSoC6\pdl\drivers\peripheral\smif/cy_smif.c **** * Provides a size of the array.
 916:Generated_Source\PSoC6\pdl\drivers\peripheral\smif/cy_smif.c **** *
 917:Generated_Source\PSoC6\pdl\drivers\peripheral\smif/cy_smif.c **** * \return A status of the command transmit.
 918:Generated_Source\PSoC6\pdl\drivers\peripheral\smif/cy_smif.c **** *       - \ref CY_SMIF_SUCCESS
 919:Generated_Source\PSoC6\pdl\drivers\peripheral\smif/cy_smif.c **** *       - \ref CY_SMIF_EXCEED_TIMEOUT
 920:Generated_Source\PSoC6\pdl\drivers\peripheral\smif/cy_smif.c **** *       - \ref CY_SMIF_BAD_PARAM
 921:Generated_Source\PSoC6\pdl\drivers\peripheral\smif/cy_smif.c **** *
 922:Generated_Source\PSoC6\pdl\drivers\peripheral\smif/cy_smif.c **** *******************************************************************************/
ARM GAS  C:\Users\ikomb\AppData\Local\Temp\ccEKz2Td.s 			page 89


 923:Generated_Source\PSoC6\pdl\drivers\peripheral\smif/cy_smif.c **** cy_en_smif_status_t  Cy_SMIF_Encrypt(SMIF_Type *base,
 924:Generated_Source\PSoC6\pdl\drivers\peripheral\smif/cy_smif.c ****                                         uint32_t address,
 925:Generated_Source\PSoC6\pdl\drivers\peripheral\smif/cy_smif.c ****                                         uint8_t data[],
 926:Generated_Source\PSoC6\pdl\drivers\peripheral\smif/cy_smif.c ****                                         uint32_t size,
 927:Generated_Source\PSoC6\pdl\drivers\peripheral\smif/cy_smif.c ****                                         cy_stc_smif_context_t const *context)
 928:Generated_Source\PSoC6\pdl\drivers\peripheral\smif/cy_smif.c **** {
 2635              		.loc 2 928 0
 2636              		.cfi_startproc
 2637              		@ args = 4, pretend = 0, frame = 56
 2638              		@ frame_needed = 1, uses_anonymous_args = 0
 2639 0000 80B5     		push	{r7, lr}
 2640              		.cfi_def_cfa_offset 8
 2641              		.cfi_offset 7, -8
 2642              		.cfi_offset 14, -4
 2643 0002 8EB0     		sub	sp, sp, #56
 2644              		.cfi_def_cfa_offset 64
 2645 0004 00AF     		add	r7, sp, #0
 2646              		.cfi_def_cfa_register 7
 2647 0006 F860     		str	r0, [r7, #12]
 2648 0008 B960     		str	r1, [r7, #8]
 2649 000a 7A60     		str	r2, [r7, #4]
 2650 000c 3B60     		str	r3, [r7]
 929:Generated_Source\PSoC6\pdl\drivers\peripheral\smif/cy_smif.c ****     uint32_t bufIndex;
 930:Generated_Source\PSoC6\pdl\drivers\peripheral\smif/cy_smif.c ****     cy_en_smif_status_t status = CY_SMIF_BAD_PARAM;
 2651              		.loc 2 930 0
 2652 000e 4C4B     		ldr	r3, .L159
 2653 0010 3B63     		str	r3, [r7, #48]
 931:Generated_Source\PSoC6\pdl\drivers\peripheral\smif/cy_smif.c ****     uint32_t timeoutUnits = context->timeout;
 2654              		.loc 2 931 0
 2655 0012 3B6C     		ldr	r3, [r7, #64]
 2656 0014 5B6A     		ldr	r3, [r3, #36]
 2657 0016 7B62     		str	r3, [r7, #36]
 932:Generated_Source\PSoC6\pdl\drivers\peripheral\smif/cy_smif.c ****     
 933:Generated_Source\PSoC6\pdl\drivers\peripheral\smif/cy_smif.c ****     CY_ASSERT_L2(size > 0U);
 2658              		.loc 2 933 0
 2659 0018 3B68     		ldr	r3, [r7]
 2660 001a 002B     		cmp	r3, #0
 2661 001c 04D1     		bne	.L147
 2662              		.loc 2 933 0 is_stmt 0 discriminator 1
 2663 001e 40F2A531 		movw	r1, #933
 2664 0022 4848     		ldr	r0, .L159+4
 2665 0024 FFF7FEFF 		bl	Cy_SysLib_AssertFailed
 2666              	.L147:
 934:Generated_Source\PSoC6\pdl\drivers\peripheral\smif/cy_smif.c **** 
 935:Generated_Source\PSoC6\pdl\drivers\peripheral\smif/cy_smif.c ****     if((NULL != data) && ((address & (~CY_SMIF_CRYPTO_ADDR_MASK)) == 0UL) )
 2667              		.loc 2 935 0 is_stmt 1
 2668 0028 7B68     		ldr	r3, [r7, #4]
 2669 002a 002B     		cmp	r3, #0
 2670 002c 00F08380 		beq	.L148
 2671              		.loc 2 935 0 is_stmt 0 discriminator 1
 2672 0030 BB68     		ldr	r3, [r7, #8]
 2673 0032 03F00F03 		and	r3, r3, #15
 2674 0036 002B     		cmp	r3, #0
 2675 0038 7DD1     		bne	.L148
 936:Generated_Source\PSoC6\pdl\drivers\peripheral\smif/cy_smif.c ****     {
 937:Generated_Source\PSoC6\pdl\drivers\peripheral\smif/cy_smif.c ****         status = CY_SMIF_SUCCESS;
 2676              		.loc 2 937 0 is_stmt 1
ARM GAS  C:\Users\ikomb\AppData\Local\Temp\ccEKz2Td.s 			page 90


 2677 003a 0023     		movs	r3, #0
 2678 003c 3B63     		str	r3, [r7, #48]
 938:Generated_Source\PSoC6\pdl\drivers\peripheral\smif/cy_smif.c ****         /* Fill the output array */
 939:Generated_Source\PSoC6\pdl\drivers\peripheral\smif/cy_smif.c ****         for(bufIndex = 0U; bufIndex < (size / CY_SMIF_AES128_BYTES); bufIndex++)
 2679              		.loc 2 939 0
 2680 003e 0023     		movs	r3, #0
 2681 0040 7B63     		str	r3, [r7, #52]
 2682 0042 71E0     		b	.L149
 2683              	.L156:
 2684              	.LBB4:
 940:Generated_Source\PSoC6\pdl\drivers\peripheral\smif/cy_smif.c ****         {
 941:Generated_Source\PSoC6\pdl\drivers\peripheral\smif/cy_smif.c ****             uint32_t dataIndex = bufIndex * CY_SMIF_AES128_BYTES;
 2685              		.loc 2 941 0
 2686 0044 7B6B     		ldr	r3, [r7, #52]
 2687 0046 1B01     		lsls	r3, r3, #4
 2688 0048 BB62     		str	r3, [r7, #40]
 942:Generated_Source\PSoC6\pdl\drivers\peripheral\smif/cy_smif.c ****             uint8_t  cryptoOut[CY_SMIF_AES128_BYTES];
 943:Generated_Source\PSoC6\pdl\drivers\peripheral\smif/cy_smif.c ****             uint32_t  outIndex;
 944:Generated_Source\PSoC6\pdl\drivers\peripheral\smif/cy_smif.c **** 
 945:Generated_Source\PSoC6\pdl\drivers\peripheral\smif/cy_smif.c ****             /* Fill the input field */
 946:Generated_Source\PSoC6\pdl\drivers\peripheral\smif/cy_smif.c ****             base->CRYPTO_INPUT0 = (uint32_t) (address +
 947:Generated_Source\PSoC6\pdl\drivers\peripheral\smif/cy_smif.c ****                 ((bufIndex * CY_SMIF_AES128_BYTES) & CY_SMIF_CRYPTO_ADDR_MASK));
 2689              		.loc 2 947 0
 2690 004a 7B6B     		ldr	r3, [r7, #52]
 2691 004c 1A01     		lsls	r2, r3, #4
 946:Generated_Source\PSoC6\pdl\drivers\peripheral\smif/cy_smif.c ****                 ((bufIndex * CY_SMIF_AES128_BYTES) & CY_SMIF_CRYPTO_ADDR_MASK));
 2692              		.loc 2 946 0
 2693 004e BB68     		ldr	r3, [r7, #8]
 2694 0050 1A44     		add	r2, r2, r3
 2695 0052 FB68     		ldr	r3, [r7, #12]
 2696 0054 C3F82022 		str	r2, [r3, #544]
 948:Generated_Source\PSoC6\pdl\drivers\peripheral\smif/cy_smif.c **** 
 949:Generated_Source\PSoC6\pdl\drivers\peripheral\smif/cy_smif.c ****             /* Start the encryption */
 950:Generated_Source\PSoC6\pdl\drivers\peripheral\smif/cy_smif.c ****             base->CRYPTO_CMD &= ~SMIF_CRYPTO_CMD_START_Msk;
 2697              		.loc 2 950 0
 2698 0058 FB68     		ldr	r3, [r7, #12]
 2699 005a D3F80032 		ldr	r3, [r3, #512]
 2700 005e 23F00102 		bic	r2, r3, #1
 2701 0062 FB68     		ldr	r3, [r7, #12]
 2702 0064 C3F80022 		str	r2, [r3, #512]
 951:Generated_Source\PSoC6\pdl\drivers\peripheral\smif/cy_smif.c ****             base->CRYPTO_CMD = (uint32_t)(_VAL2FLD(SMIF_CRYPTO_CMD_START, 
 2703              		.loc 2 951 0
 2704 0068 FB68     		ldr	r3, [r7, #12]
 2705 006a 0122     		movs	r2, #1
 2706 006c C3F80022 		str	r2, [r3, #512]
 952:Generated_Source\PSoC6\pdl\drivers\peripheral\smif/cy_smif.c ****                                                     CY_SMIF_CRYPTO_START));
 953:Generated_Source\PSoC6\pdl\drivers\peripheral\smif/cy_smif.c **** 
 954:Generated_Source\PSoC6\pdl\drivers\peripheral\smif/cy_smif.c ****             while((CY_SMIF_CRYPTO_COMPLETED != _FLD2VAL(SMIF_CRYPTO_CMD_START, 
 2707              		.loc 2 954 0
 2708 0070 05E0     		b	.L150
 2709              	.L152:
 955:Generated_Source\PSoC6\pdl\drivers\peripheral\smif/cy_smif.c ****                                                     base->CRYPTO_CMD)) &&
 956:Generated_Source\PSoC6\pdl\drivers\peripheral\smif/cy_smif.c ****                                                     (CY_SMIF_EXCEED_TIMEOUT != status))
 957:Generated_Source\PSoC6\pdl\drivers\peripheral\smif/cy_smif.c ****             {
 958:Generated_Source\PSoC6\pdl\drivers\peripheral\smif/cy_smif.c ****                 /* Wait until the encryption is completed and check the 
 959:Generated_Source\PSoC6\pdl\drivers\peripheral\smif/cy_smif.c ****                 * timeout 
 960:Generated_Source\PSoC6\pdl\drivers\peripheral\smif/cy_smif.c ****                 */
ARM GAS  C:\Users\ikomb\AppData\Local\Temp\ccEKz2Td.s 			page 91


 961:Generated_Source\PSoC6\pdl\drivers\peripheral\smif/cy_smif.c ****                 status = Cy_SMIF_TimeoutRun(&timeoutUnits);
 2710              		.loc 2 961 0
 2711 0072 07F12403 		add	r3, r7, #36
 2712 0076 1846     		mov	r0, r3
 2713 0078 FFF7FEFF 		bl	Cy_SMIF_TimeoutRun
 2714 007c 3863     		str	r0, [r7, #48]
 2715              	.L150:
 954:Generated_Source\PSoC6\pdl\drivers\peripheral\smif/cy_smif.c ****                                                     base->CRYPTO_CMD)) &&
 2716              		.loc 2 954 0
 2717 007e FB68     		ldr	r3, [r7, #12]
 2718 0080 D3F80032 		ldr	r3, [r3, #512]
 2719 0084 03F00103 		and	r3, r3, #1
 2720 0088 002B     		cmp	r3, #0
 2721 008a 03D0     		beq	.L151
 955:Generated_Source\PSoC6\pdl\drivers\peripheral\smif/cy_smif.c ****                                                     base->CRYPTO_CMD)) &&
 2722              		.loc 2 955 0
 2723 008c 3B6B     		ldr	r3, [r7, #48]
 2724 008e 2E4A     		ldr	r2, .L159+8
 2725 0090 9342     		cmp	r3, r2
 2726 0092 EED1     		bne	.L152
 2727              	.L151:
 962:Generated_Source\PSoC6\pdl\drivers\peripheral\smif/cy_smif.c ****             }
 963:Generated_Source\PSoC6\pdl\drivers\peripheral\smif/cy_smif.c **** 
 964:Generated_Source\PSoC6\pdl\drivers\peripheral\smif/cy_smif.c ****             if (CY_SMIF_EXCEED_TIMEOUT == status)
 2728              		.loc 2 964 0
 2729 0094 3B6B     		ldr	r3, [r7, #48]
 2730 0096 2C4A     		ldr	r2, .L159+8
 2731 0098 9342     		cmp	r3, r2
 2732 009a 4BD0     		beq	.L158
 965:Generated_Source\PSoC6\pdl\drivers\peripheral\smif/cy_smif.c ****             {
 966:Generated_Source\PSoC6\pdl\drivers\peripheral\smif/cy_smif.c ****                 break;
 967:Generated_Source\PSoC6\pdl\drivers\peripheral\smif/cy_smif.c ****             }
 968:Generated_Source\PSoC6\pdl\drivers\peripheral\smif/cy_smif.c **** 
 969:Generated_Source\PSoC6\pdl\drivers\peripheral\smif/cy_smif.c ****             Cy_SMIF_UnPackByteArray(base->CRYPTO_OUTPUT0, 
 2733              		.loc 2 969 0
 2734 009c FB68     		ldr	r3, [r7, #12]
 2735 009e D3F86032 		ldr	r3, [r3, #608]
 2736 00a2 07F11401 		add	r1, r7, #20
 2737 00a6 0122     		movs	r2, #1
 2738 00a8 1846     		mov	r0, r3
 2739 00aa FFF7FEFF 		bl	Cy_SMIF_UnPackByteArray
 970:Generated_Source\PSoC6\pdl\drivers\peripheral\smif/cy_smif.c ****                                 &cryptoOut[CY_SMIF_CRYPTO_FIRST_WORD] , true);
 971:Generated_Source\PSoC6\pdl\drivers\peripheral\smif/cy_smif.c ****             Cy_SMIF_UnPackByteArray(base->CRYPTO_OUTPUT1, 
 2740              		.loc 2 971 0
 2741 00ae FB68     		ldr	r3, [r7, #12]
 2742 00b0 D3F86402 		ldr	r0, [r3, #612]
 2743 00b4 07F11403 		add	r3, r7, #20
 2744 00b8 0433     		adds	r3, r3, #4
 2745 00ba 0122     		movs	r2, #1
 2746 00bc 1946     		mov	r1, r3
 2747 00be FFF7FEFF 		bl	Cy_SMIF_UnPackByteArray
 972:Generated_Source\PSoC6\pdl\drivers\peripheral\smif/cy_smif.c ****                                 &cryptoOut[CY_SMIF_CRYPTO_SECOND_WORD], true);
 973:Generated_Source\PSoC6\pdl\drivers\peripheral\smif/cy_smif.c ****             Cy_SMIF_UnPackByteArray(base->CRYPTO_OUTPUT2, 
 2748              		.loc 2 973 0
 2749 00c2 FB68     		ldr	r3, [r7, #12]
 2750 00c4 D3F86802 		ldr	r0, [r3, #616]
 2751 00c8 07F11403 		add	r3, r7, #20
ARM GAS  C:\Users\ikomb\AppData\Local\Temp\ccEKz2Td.s 			page 92


 2752 00cc 0833     		adds	r3, r3, #8
 2753 00ce 0122     		movs	r2, #1
 2754 00d0 1946     		mov	r1, r3
 2755 00d2 FFF7FEFF 		bl	Cy_SMIF_UnPackByteArray
 974:Generated_Source\PSoC6\pdl\drivers\peripheral\smif/cy_smif.c ****                                 &cryptoOut[CY_SMIF_CRYPTO_THIRD_WORD] , true);
 975:Generated_Source\PSoC6\pdl\drivers\peripheral\smif/cy_smif.c ****             Cy_SMIF_UnPackByteArray(base->CRYPTO_OUTPUT3, 
 2756              		.loc 2 975 0
 2757 00d6 FB68     		ldr	r3, [r7, #12]
 2758 00d8 D3F86C02 		ldr	r0, [r3, #620]
 2759 00dc 07F11403 		add	r3, r7, #20
 2760 00e0 0C33     		adds	r3, r3, #12
 2761 00e2 0122     		movs	r2, #1
 2762 00e4 1946     		mov	r1, r3
 2763 00e6 FFF7FEFF 		bl	Cy_SMIF_UnPackByteArray
 976:Generated_Source\PSoC6\pdl\drivers\peripheral\smif/cy_smif.c ****                                 &cryptoOut[CY_SMIF_CRYPTO_FOURTH_WORD], true);
 977:Generated_Source\PSoC6\pdl\drivers\peripheral\smif/cy_smif.c **** 
 978:Generated_Source\PSoC6\pdl\drivers\peripheral\smif/cy_smif.c ****             for(outIndex = 0U; outIndex < CY_SMIF_AES128_BYTES; outIndex++)
 2764              		.loc 2 978 0
 2765 00ea 0023     		movs	r3, #0
 2766 00ec FB62     		str	r3, [r7, #44]
 2767 00ee 15E0     		b	.L154
 2768              	.L155:
 979:Generated_Source\PSoC6\pdl\drivers\peripheral\smif/cy_smif.c ****             {
 980:Generated_Source\PSoC6\pdl\drivers\peripheral\smif/cy_smif.c ****                 data[dataIndex + outIndex] ^= cryptoOut[outIndex];
 2769              		.loc 2 980 0 discriminator 3
 2770 00f0 BA6A     		ldr	r2, [r7, #40]
 2771 00f2 FB6A     		ldr	r3, [r7, #44]
 2772 00f4 1344     		add	r3, r3, r2
 2773 00f6 7A68     		ldr	r2, [r7, #4]
 2774 00f8 1344     		add	r3, r3, r2
 2775 00fa B96A     		ldr	r1, [r7, #40]
 2776 00fc FA6A     		ldr	r2, [r7, #44]
 2777 00fe 0A44     		add	r2, r2, r1
 2778 0100 7968     		ldr	r1, [r7, #4]
 2779 0102 0A44     		add	r2, r2, r1
 2780 0104 1178     		ldrb	r1, [r2]	@ zero_extendqisi2
 2781 0106 07F11400 		add	r0, r7, #20
 2782 010a FA6A     		ldr	r2, [r7, #44]
 2783 010c 0244     		add	r2, r2, r0
 2784 010e 1278     		ldrb	r2, [r2]	@ zero_extendqisi2
 2785 0110 4A40     		eors	r2, r2, r1
 2786 0112 D2B2     		uxtb	r2, r2
 2787 0114 1A70     		strb	r2, [r3]
 978:Generated_Source\PSoC6\pdl\drivers\peripheral\smif/cy_smif.c ****             {
 2788              		.loc 2 978 0 discriminator 3
 2789 0116 FB6A     		ldr	r3, [r7, #44]
 2790 0118 0133     		adds	r3, r3, #1
 2791 011a FB62     		str	r3, [r7, #44]
 2792              	.L154:
 978:Generated_Source\PSoC6\pdl\drivers\peripheral\smif/cy_smif.c ****             {
 2793              		.loc 2 978 0 is_stmt 0 discriminator 1
 2794 011c FB6A     		ldr	r3, [r7, #44]
 2795 011e 0F2B     		cmp	r3, #15
 2796 0120 E6D9     		bls	.L155
 2797              	.LBE4:
 939:Generated_Source\PSoC6\pdl\drivers\peripheral\smif/cy_smif.c ****         {
 2798              		.loc 2 939 0 is_stmt 1
ARM GAS  C:\Users\ikomb\AppData\Local\Temp\ccEKz2Td.s 			page 93


 2799 0122 7B6B     		ldr	r3, [r7, #52]
 2800 0124 0133     		adds	r3, r3, #1
 2801 0126 7B63     		str	r3, [r7, #52]
 2802              	.L149:
 939:Generated_Source\PSoC6\pdl\drivers\peripheral\smif/cy_smif.c ****         {
 2803              		.loc 2 939 0 is_stmt 0 discriminator 1
 2804 0128 3B68     		ldr	r3, [r7]
 2805 012a 1A09     		lsrs	r2, r3, #4
 2806 012c 7B6B     		ldr	r3, [r7, #52]
 2807 012e 9A42     		cmp	r2, r3
 2808 0130 88D8     		bhi	.L156
 2809 0132 00E0     		b	.L148
 2810              	.L158:
 2811              	.LBB5:
 966:Generated_Source\PSoC6\pdl\drivers\peripheral\smif/cy_smif.c ****             }
 2812              		.loc 2 966 0 is_stmt 1
 2813 0134 00BF     		nop
 2814              	.L148:
 2815              	.LBE5:
 981:Generated_Source\PSoC6\pdl\drivers\peripheral\smif/cy_smif.c ****             }
 982:Generated_Source\PSoC6\pdl\drivers\peripheral\smif/cy_smif.c ****         }
 983:Generated_Source\PSoC6\pdl\drivers\peripheral\smif/cy_smif.c ****     }
 984:Generated_Source\PSoC6\pdl\drivers\peripheral\smif/cy_smif.c ****     return (status);
 2816              		.loc 2 984 0
 2817 0136 3B6B     		ldr	r3, [r7, #48]
 985:Generated_Source\PSoC6\pdl\drivers\peripheral\smif/cy_smif.c **** }
 2818              		.loc 2 985 0
 2819 0138 1846     		mov	r0, r3
 2820 013a 3837     		adds	r7, r7, #56
 2821              		.cfi_def_cfa_offset 8
 2822 013c BD46     		mov	sp, r7
 2823              		.cfi_def_cfa_register 13
 2824              		@ sp needed
 2825 013e 80BD     		pop	{r7, pc}
 2826              	.L160:
 2827              		.align	2
 2828              	.L159:
 2829 0140 0400B200 		.word	11665412
 2830 0144 00000000 		.word	.LC0
 2831 0148 0200B200 		.word	11665410
 2832              		.cfi_endproc
 2833              	.LFE191:
 2834              		.size	Cy_SMIF_Encrypt, .-Cy_SMIF_Encrypt
 2835              		.section	.text.Cy_SMIF_CacheEnable,"ax",%progbits
 2836              		.align	2
 2837              		.global	Cy_SMIF_CacheEnable
 2838              		.thumb
 2839              		.thumb_func
 2840              		.type	Cy_SMIF_CacheEnable, %function
 2841              	Cy_SMIF_CacheEnable:
 2842              	.LFB192:
 986:Generated_Source\PSoC6\pdl\drivers\peripheral\smif/cy_smif.c **** 
 987:Generated_Source\PSoC6\pdl\drivers\peripheral\smif/cy_smif.c **** 
 988:Generated_Source\PSoC6\pdl\drivers\peripheral\smif/cy_smif.c **** /*******************************************************************************
 989:Generated_Source\PSoC6\pdl\drivers\peripheral\smif/cy_smif.c **** * Function Name: Cy_SMIF_CacheEnable
 990:Generated_Source\PSoC6\pdl\drivers\peripheral\smif/cy_smif.c **** ****************************************************************************//**
 991:Generated_Source\PSoC6\pdl\drivers\peripheral\smif/cy_smif.c **** *
ARM GAS  C:\Users\ikomb\AppData\Local\Temp\ccEKz2Td.s 			page 94


 992:Generated_Source\PSoC6\pdl\drivers\peripheral\smif/cy_smif.c **** * This function is used to enable the fast cache, the slow cache or both.
 993:Generated_Source\PSoC6\pdl\drivers\peripheral\smif/cy_smif.c **** *
 994:Generated_Source\PSoC6\pdl\drivers\peripheral\smif/cy_smif.c **** * \param base
 995:Generated_Source\PSoC6\pdl\drivers\peripheral\smif/cy_smif.c **** * Holds the base address of the SMIF block registers.
 996:Generated_Source\PSoC6\pdl\drivers\peripheral\smif/cy_smif.c **** *
 997:Generated_Source\PSoC6\pdl\drivers\peripheral\smif/cy_smif.c **** * \param cacheType
 998:Generated_Source\PSoC6\pdl\drivers\peripheral\smif/cy_smif.c **** * Holds the type of the cache to be modified. \ref cy_en_smif_cache_en_t
 999:Generated_Source\PSoC6\pdl\drivers\peripheral\smif/cy_smif.c **** *
1000:Generated_Source\PSoC6\pdl\drivers\peripheral\smif/cy_smif.c **** * \return A status of function completion.
1001:Generated_Source\PSoC6\pdl\drivers\peripheral\smif/cy_smif.c **** *       - \ref CY_SMIF_SUCCESS
1002:Generated_Source\PSoC6\pdl\drivers\peripheral\smif/cy_smif.c **** *       - \ref CY_SMIF_BAD_PARAM
1003:Generated_Source\PSoC6\pdl\drivers\peripheral\smif/cy_smif.c **** *
1004:Generated_Source\PSoC6\pdl\drivers\peripheral\smif/cy_smif.c **** *******************************************************************************/
1005:Generated_Source\PSoC6\pdl\drivers\peripheral\smif/cy_smif.c **** cy_en_smif_status_t Cy_SMIF_CacheEnable(SMIF_Type *base, 
1006:Generated_Source\PSoC6\pdl\drivers\peripheral\smif/cy_smif.c ****                                         cy_en_smif_cache_en_t cacheType)
1007:Generated_Source\PSoC6\pdl\drivers\peripheral\smif/cy_smif.c **** {
 2843              		.loc 2 1007 0
 2844              		.cfi_startproc
 2845              		@ args = 0, pretend = 0, frame = 16
 2846              		@ frame_needed = 1, uses_anonymous_args = 0
 2847              		@ link register save eliminated.
 2848 0000 80B4     		push	{r7}
 2849              		.cfi_def_cfa_offset 4
 2850              		.cfi_offset 7, -4
 2851 0002 85B0     		sub	sp, sp, #20
 2852              		.cfi_def_cfa_offset 24
 2853 0004 00AF     		add	r7, sp, #0
 2854              		.cfi_def_cfa_register 7
 2855 0006 7860     		str	r0, [r7, #4]
 2856 0008 0B46     		mov	r3, r1
 2857 000a FB70     		strb	r3, [r7, #3]
1008:Generated_Source\PSoC6\pdl\drivers\peripheral\smif/cy_smif.c ****     cy_en_smif_status_t status = CY_SMIF_SUCCESS;
 2858              		.loc 2 1008 0
 2859 000c 0023     		movs	r3, #0
 2860 000e FB60     		str	r3, [r7, #12]
1009:Generated_Source\PSoC6\pdl\drivers\peripheral\smif/cy_smif.c ****     switch (cacheType)
 2861              		.loc 2 1009 0
 2862 0010 FB78     		ldrb	r3, [r7, #3]	@ zero_extendqisi2
 2863 0012 022B     		cmp	r3, #2
 2864 0014 0CD0     		beq	.L163
 2865 0016 032B     		cmp	r3, #3
 2866 0018 13D0     		beq	.L164
 2867 001a 012B     		cmp	r3, #1
 2868 001c 22D1     		bne	.L168
1010:Generated_Source\PSoC6\pdl\drivers\peripheral\smif/cy_smif.c ****     {
1011:Generated_Source\PSoC6\pdl\drivers\peripheral\smif/cy_smif.c ****         case CY_SMIF_CACHE_SLOW:
1012:Generated_Source\PSoC6\pdl\drivers\peripheral\smif/cy_smif.c ****             base->SLOW_CA_CTL |= SMIF_SLOW_CA_CTL_ENABLED_Msk;
 2869              		.loc 2 1012 0
 2870 001e 7B68     		ldr	r3, [r7, #4]
 2871 0020 D3F80031 		ldr	r3, [r3, #256]
 2872 0024 43F00042 		orr	r2, r3, #-2147483648
 2873 0028 7B68     		ldr	r3, [r7, #4]
 2874 002a C3F80021 		str	r2, [r3, #256]
1013:Generated_Source\PSoC6\pdl\drivers\peripheral\smif/cy_smif.c ****             break;
 2875              		.loc 2 1013 0
 2876 002e 1CE0     		b	.L166
 2877              	.L163:
ARM GAS  C:\Users\ikomb\AppData\Local\Temp\ccEKz2Td.s 			page 95


1014:Generated_Source\PSoC6\pdl\drivers\peripheral\smif/cy_smif.c ****         case CY_SMIF_CACHE_FAST:
1015:Generated_Source\PSoC6\pdl\drivers\peripheral\smif/cy_smif.c ****             base->FAST_CA_CTL |= SMIF_FAST_CA_CTL_ENABLED_Msk;
 2878              		.loc 2 1015 0
 2879 0030 7B68     		ldr	r3, [r7, #4]
 2880 0032 D3F88031 		ldr	r3, [r3, #384]
 2881 0036 43F00042 		orr	r2, r3, #-2147483648
 2882 003a 7B68     		ldr	r3, [r7, #4]
 2883 003c C3F88021 		str	r2, [r3, #384]
1016:Generated_Source\PSoC6\pdl\drivers\peripheral\smif/cy_smif.c ****             break;
 2884              		.loc 2 1016 0
 2885 0040 13E0     		b	.L166
 2886              	.L164:
1017:Generated_Source\PSoC6\pdl\drivers\peripheral\smif/cy_smif.c ****         case CY_SMIF_CACHE_BOTH:
1018:Generated_Source\PSoC6\pdl\drivers\peripheral\smif/cy_smif.c ****             base->SLOW_CA_CTL |= SMIF_SLOW_CA_CTL_ENABLED_Msk;
 2887              		.loc 2 1018 0
 2888 0042 7B68     		ldr	r3, [r7, #4]
 2889 0044 D3F80031 		ldr	r3, [r3, #256]
 2890 0048 43F00042 		orr	r2, r3, #-2147483648
 2891 004c 7B68     		ldr	r3, [r7, #4]
 2892 004e C3F80021 		str	r2, [r3, #256]
1019:Generated_Source\PSoC6\pdl\drivers\peripheral\smif/cy_smif.c ****             base->FAST_CA_CTL |= SMIF_FAST_CA_CTL_ENABLED_Msk;
 2893              		.loc 2 1019 0
 2894 0052 7B68     		ldr	r3, [r7, #4]
 2895 0054 D3F88031 		ldr	r3, [r3, #384]
 2896 0058 43F00042 		orr	r2, r3, #-2147483648
 2897 005c 7B68     		ldr	r3, [r7, #4]
 2898 005e C3F88021 		str	r2, [r3, #384]
1020:Generated_Source\PSoC6\pdl\drivers\peripheral\smif/cy_smif.c ****             break;
 2899              		.loc 2 1020 0
 2900 0062 02E0     		b	.L166
 2901              	.L168:
1021:Generated_Source\PSoC6\pdl\drivers\peripheral\smif/cy_smif.c ****         default:
1022:Generated_Source\PSoC6\pdl\drivers\peripheral\smif/cy_smif.c ****             /* A user error*/
1023:Generated_Source\PSoC6\pdl\drivers\peripheral\smif/cy_smif.c ****             status = CY_SMIF_BAD_PARAM;
 2902              		.loc 2 1023 0
 2903 0064 044B     		ldr	r3, .L169
 2904 0066 FB60     		str	r3, [r7, #12]
1024:Generated_Source\PSoC6\pdl\drivers\peripheral\smif/cy_smif.c ****             break;
 2905              		.loc 2 1024 0
 2906 0068 00BF     		nop
 2907              	.L166:
1025:Generated_Source\PSoC6\pdl\drivers\peripheral\smif/cy_smif.c ****     }   
1026:Generated_Source\PSoC6\pdl\drivers\peripheral\smif/cy_smif.c ****     return (status);
 2908              		.loc 2 1026 0
 2909 006a FB68     		ldr	r3, [r7, #12]
1027:Generated_Source\PSoC6\pdl\drivers\peripheral\smif/cy_smif.c **** }
 2910              		.loc 2 1027 0
 2911 006c 1846     		mov	r0, r3
 2912 006e 1437     		adds	r7, r7, #20
 2913              		.cfi_def_cfa_offset 4
 2914 0070 BD46     		mov	sp, r7
 2915              		.cfi_def_cfa_register 13
 2916              		@ sp needed
 2917 0072 5DF8047B 		ldr	r7, [sp], #4
 2918              		.cfi_restore 7
 2919              		.cfi_def_cfa_offset 0
 2920 0076 7047     		bx	lr
ARM GAS  C:\Users\ikomb\AppData\Local\Temp\ccEKz2Td.s 			page 96


 2921              	.L170:
 2922              		.align	2
 2923              	.L169:
 2924 0078 0400B200 		.word	11665412
 2925              		.cfi_endproc
 2926              	.LFE192:
 2927              		.size	Cy_SMIF_CacheEnable, .-Cy_SMIF_CacheEnable
 2928              		.section	.text.Cy_SMIF_CacheDisable,"ax",%progbits
 2929              		.align	2
 2930              		.global	Cy_SMIF_CacheDisable
 2931              		.thumb
 2932              		.thumb_func
 2933              		.type	Cy_SMIF_CacheDisable, %function
 2934              	Cy_SMIF_CacheDisable:
 2935              	.LFB193:
1028:Generated_Source\PSoC6\pdl\drivers\peripheral\smif/cy_smif.c **** 
1029:Generated_Source\PSoC6\pdl\drivers\peripheral\smif/cy_smif.c **** 
1030:Generated_Source\PSoC6\pdl\drivers\peripheral\smif/cy_smif.c **** /*******************************************************************************
1031:Generated_Source\PSoC6\pdl\drivers\peripheral\smif/cy_smif.c **** * Function Name: Cy_SMIF_CacheDisable
1032:Generated_Source\PSoC6\pdl\drivers\peripheral\smif/cy_smif.c **** ****************************************************************************//**
1033:Generated_Source\PSoC6\pdl\drivers\peripheral\smif/cy_smif.c **** *
1034:Generated_Source\PSoC6\pdl\drivers\peripheral\smif/cy_smif.c **** * This function is used to disable the fast cache, the slow cache or both
1035:Generated_Source\PSoC6\pdl\drivers\peripheral\smif/cy_smif.c **** *
1036:Generated_Source\PSoC6\pdl\drivers\peripheral\smif/cy_smif.c **** * \param base
1037:Generated_Source\PSoC6\pdl\drivers\peripheral\smif/cy_smif.c **** * Holds the base address of the SMIF block registers.
1038:Generated_Source\PSoC6\pdl\drivers\peripheral\smif/cy_smif.c **** *
1039:Generated_Source\PSoC6\pdl\drivers\peripheral\smif/cy_smif.c **** * \param cacheType
1040:Generated_Source\PSoC6\pdl\drivers\peripheral\smif/cy_smif.c **** * Holds the type of the cache to be modified. \ref cy_en_smif_cache_en_t
1041:Generated_Source\PSoC6\pdl\drivers\peripheral\smif/cy_smif.c **** *
1042:Generated_Source\PSoC6\pdl\drivers\peripheral\smif/cy_smif.c **** * \return A status of function completion.
1043:Generated_Source\PSoC6\pdl\drivers\peripheral\smif/cy_smif.c **** *       - \ref CY_SMIF_SUCCESS
1044:Generated_Source\PSoC6\pdl\drivers\peripheral\smif/cy_smif.c **** *       - \ref CY_SMIF_BAD_PARAM
1045:Generated_Source\PSoC6\pdl\drivers\peripheral\smif/cy_smif.c **** *
1046:Generated_Source\PSoC6\pdl\drivers\peripheral\smif/cy_smif.c **** *******************************************************************************/
1047:Generated_Source\PSoC6\pdl\drivers\peripheral\smif/cy_smif.c **** cy_en_smif_status_t Cy_SMIF_CacheDisable(SMIF_Type *base, 
1048:Generated_Source\PSoC6\pdl\drivers\peripheral\smif/cy_smif.c ****                                             cy_en_smif_cache_en_t cacheType)
1049:Generated_Source\PSoC6\pdl\drivers\peripheral\smif/cy_smif.c **** {
 2936              		.loc 2 1049 0
 2937              		.cfi_startproc
 2938              		@ args = 0, pretend = 0, frame = 16
 2939              		@ frame_needed = 1, uses_anonymous_args = 0
 2940              		@ link register save eliminated.
 2941 0000 80B4     		push	{r7}
 2942              		.cfi_def_cfa_offset 4
 2943              		.cfi_offset 7, -4
 2944 0002 85B0     		sub	sp, sp, #20
 2945              		.cfi_def_cfa_offset 24
 2946 0004 00AF     		add	r7, sp, #0
 2947              		.cfi_def_cfa_register 7
 2948 0006 7860     		str	r0, [r7, #4]
 2949 0008 0B46     		mov	r3, r1
 2950 000a FB70     		strb	r3, [r7, #3]
1050:Generated_Source\PSoC6\pdl\drivers\peripheral\smif/cy_smif.c ****     cy_en_smif_status_t status = CY_SMIF_SUCCESS;
 2951              		.loc 2 1050 0
 2952 000c 0023     		movs	r3, #0
 2953 000e FB60     		str	r3, [r7, #12]
1051:Generated_Source\PSoC6\pdl\drivers\peripheral\smif/cy_smif.c ****     switch (cacheType)
ARM GAS  C:\Users\ikomb\AppData\Local\Temp\ccEKz2Td.s 			page 97


 2954              		.loc 2 1051 0
 2955 0010 FB78     		ldrb	r3, [r7, #3]	@ zero_extendqisi2
 2956 0012 022B     		cmp	r3, #2
 2957 0014 0CD0     		beq	.L173
 2958 0016 032B     		cmp	r3, #3
 2959 0018 13D0     		beq	.L174
 2960 001a 012B     		cmp	r3, #1
 2961 001c 22D1     		bne	.L178
1052:Generated_Source\PSoC6\pdl\drivers\peripheral\smif/cy_smif.c ****     {
1053:Generated_Source\PSoC6\pdl\drivers\peripheral\smif/cy_smif.c ****         case CY_SMIF_CACHE_SLOW:
1054:Generated_Source\PSoC6\pdl\drivers\peripheral\smif/cy_smif.c ****             base->SLOW_CA_CTL &= ~SMIF_SLOW_CA_CTL_ENABLED_Msk;
 2962              		.loc 2 1054 0
 2963 001e 7B68     		ldr	r3, [r7, #4]
 2964 0020 D3F80031 		ldr	r3, [r3, #256]
 2965 0024 23F00042 		bic	r2, r3, #-2147483648
 2966 0028 7B68     		ldr	r3, [r7, #4]
 2967 002a C3F80021 		str	r2, [r3, #256]
1055:Generated_Source\PSoC6\pdl\drivers\peripheral\smif/cy_smif.c ****             break;
 2968              		.loc 2 1055 0
 2969 002e 1CE0     		b	.L176
 2970              	.L173:
1056:Generated_Source\PSoC6\pdl\drivers\peripheral\smif/cy_smif.c ****         case CY_SMIF_CACHE_FAST:
1057:Generated_Source\PSoC6\pdl\drivers\peripheral\smif/cy_smif.c ****             base->FAST_CA_CTL &= ~SMIF_FAST_CA_CTL_ENABLED_Msk;
 2971              		.loc 2 1057 0
 2972 0030 7B68     		ldr	r3, [r7, #4]
 2973 0032 D3F88031 		ldr	r3, [r3, #384]
 2974 0036 23F00042 		bic	r2, r3, #-2147483648
 2975 003a 7B68     		ldr	r3, [r7, #4]
 2976 003c C3F88021 		str	r2, [r3, #384]
1058:Generated_Source\PSoC6\pdl\drivers\peripheral\smif/cy_smif.c ****             break;
 2977              		.loc 2 1058 0
 2978 0040 13E0     		b	.L176
 2979              	.L174:
1059:Generated_Source\PSoC6\pdl\drivers\peripheral\smif/cy_smif.c ****         case CY_SMIF_CACHE_BOTH:
1060:Generated_Source\PSoC6\pdl\drivers\peripheral\smif/cy_smif.c ****             base->SLOW_CA_CTL &= ~SMIF_SLOW_CA_CTL_ENABLED_Msk;
 2980              		.loc 2 1060 0
 2981 0042 7B68     		ldr	r3, [r7, #4]
 2982 0044 D3F80031 		ldr	r3, [r3, #256]
 2983 0048 23F00042 		bic	r2, r3, #-2147483648
 2984 004c 7B68     		ldr	r3, [r7, #4]
 2985 004e C3F80021 		str	r2, [r3, #256]
1061:Generated_Source\PSoC6\pdl\drivers\peripheral\smif/cy_smif.c ****             base->FAST_CA_CTL &= ~SMIF_FAST_CA_CTL_ENABLED_Msk;
 2986              		.loc 2 1061 0
 2987 0052 7B68     		ldr	r3, [r7, #4]
 2988 0054 D3F88031 		ldr	r3, [r3, #384]
 2989 0058 23F00042 		bic	r2, r3, #-2147483648
 2990 005c 7B68     		ldr	r3, [r7, #4]
 2991 005e C3F88021 		str	r2, [r3, #384]
1062:Generated_Source\PSoC6\pdl\drivers\peripheral\smif/cy_smif.c ****             break;
 2992              		.loc 2 1062 0
 2993 0062 02E0     		b	.L176
 2994              	.L178:
1063:Generated_Source\PSoC6\pdl\drivers\peripheral\smif/cy_smif.c ****         default:
1064:Generated_Source\PSoC6\pdl\drivers\peripheral\smif/cy_smif.c ****             /* User error*/
1065:Generated_Source\PSoC6\pdl\drivers\peripheral\smif/cy_smif.c ****             status = CY_SMIF_BAD_PARAM;
 2995              		.loc 2 1065 0
 2996 0064 044B     		ldr	r3, .L179
ARM GAS  C:\Users\ikomb\AppData\Local\Temp\ccEKz2Td.s 			page 98


 2997 0066 FB60     		str	r3, [r7, #12]
1066:Generated_Source\PSoC6\pdl\drivers\peripheral\smif/cy_smif.c ****             break;
 2998              		.loc 2 1066 0
 2999 0068 00BF     		nop
 3000              	.L176:
1067:Generated_Source\PSoC6\pdl\drivers\peripheral\smif/cy_smif.c ****     }
1068:Generated_Source\PSoC6\pdl\drivers\peripheral\smif/cy_smif.c ****     return (status);
 3001              		.loc 2 1068 0
 3002 006a FB68     		ldr	r3, [r7, #12]
1069:Generated_Source\PSoC6\pdl\drivers\peripheral\smif/cy_smif.c **** }
 3003              		.loc 2 1069 0
 3004 006c 1846     		mov	r0, r3
 3005 006e 1437     		adds	r7, r7, #20
 3006              		.cfi_def_cfa_offset 4
 3007 0070 BD46     		mov	sp, r7
 3008              		.cfi_def_cfa_register 13
 3009              		@ sp needed
 3010 0072 5DF8047B 		ldr	r7, [sp], #4
 3011              		.cfi_restore 7
 3012              		.cfi_def_cfa_offset 0
 3013 0076 7047     		bx	lr
 3014              	.L180:
 3015              		.align	2
 3016              	.L179:
 3017 0078 0400B200 		.word	11665412
 3018              		.cfi_endproc
 3019              	.LFE193:
 3020              		.size	Cy_SMIF_CacheDisable, .-Cy_SMIF_CacheDisable
 3021              		.section	.text.Cy_SMIF_CachePrefetchingEnable,"ax",%progbits
 3022              		.align	2
 3023              		.global	Cy_SMIF_CachePrefetchingEnable
 3024              		.thumb
 3025              		.thumb_func
 3026              		.type	Cy_SMIF_CachePrefetchingEnable, %function
 3027              	Cy_SMIF_CachePrefetchingEnable:
 3028              	.LFB194:
1070:Generated_Source\PSoC6\pdl\drivers\peripheral\smif/cy_smif.c **** 
1071:Generated_Source\PSoC6\pdl\drivers\peripheral\smif/cy_smif.c **** 
1072:Generated_Source\PSoC6\pdl\drivers\peripheral\smif/cy_smif.c **** /*******************************************************************************
1073:Generated_Source\PSoC6\pdl\drivers\peripheral\smif/cy_smif.c **** * Function Name: Cy_SMIF_CachePrefetchingEnable
1074:Generated_Source\PSoC6\pdl\drivers\peripheral\smif/cy_smif.c **** ****************************************************************************//**
1075:Generated_Source\PSoC6\pdl\drivers\peripheral\smif/cy_smif.c **** *
1076:Generated_Source\PSoC6\pdl\drivers\peripheral\smif/cy_smif.c **** * This function is used to enable pre-fetching for the fast cache, the slow
1077:Generated_Source\PSoC6\pdl\drivers\peripheral\smif/cy_smif.c **** * cache or both.
1078:Generated_Source\PSoC6\pdl\drivers\peripheral\smif/cy_smif.c **** *
1079:Generated_Source\PSoC6\pdl\drivers\peripheral\smif/cy_smif.c **** * \param base
1080:Generated_Source\PSoC6\pdl\drivers\peripheral\smif/cy_smif.c **** * Holds the base address of the SMIF block registers.
1081:Generated_Source\PSoC6\pdl\drivers\peripheral\smif/cy_smif.c **** *
1082:Generated_Source\PSoC6\pdl\drivers\peripheral\smif/cy_smif.c **** * \param cacheType
1083:Generated_Source\PSoC6\pdl\drivers\peripheral\smif/cy_smif.c **** * Holds the type of the cache to be modified. \ref cy_en_smif_cache_en_t
1084:Generated_Source\PSoC6\pdl\drivers\peripheral\smif/cy_smif.c **** *
1085:Generated_Source\PSoC6\pdl\drivers\peripheral\smif/cy_smif.c **** * \return A status of function completion.
1086:Generated_Source\PSoC6\pdl\drivers\peripheral\smif/cy_smif.c **** *       - \ref CY_SMIF_SUCCESS
1087:Generated_Source\PSoC6\pdl\drivers\peripheral\smif/cy_smif.c **** *       - \ref CY_SMIF_BAD_PARAM
1088:Generated_Source\PSoC6\pdl\drivers\peripheral\smif/cy_smif.c **** *
1089:Generated_Source\PSoC6\pdl\drivers\peripheral\smif/cy_smif.c **** *******************************************************************************/
1090:Generated_Source\PSoC6\pdl\drivers\peripheral\smif/cy_smif.c **** cy_en_smif_status_t Cy_SMIF_CachePrefetchingEnable(SMIF_Type *base,
ARM GAS  C:\Users\ikomb\AppData\Local\Temp\ccEKz2Td.s 			page 99


1091:Generated_Source\PSoC6\pdl\drivers\peripheral\smif/cy_smif.c ****                                                     cy_en_smif_cache_en_t cacheType)
1092:Generated_Source\PSoC6\pdl\drivers\peripheral\smif/cy_smif.c **** {
 3029              		.loc 2 1092 0
 3030              		.cfi_startproc
 3031              		@ args = 0, pretend = 0, frame = 16
 3032              		@ frame_needed = 1, uses_anonymous_args = 0
 3033              		@ link register save eliminated.
 3034 0000 80B4     		push	{r7}
 3035              		.cfi_def_cfa_offset 4
 3036              		.cfi_offset 7, -4
 3037 0002 85B0     		sub	sp, sp, #20
 3038              		.cfi_def_cfa_offset 24
 3039 0004 00AF     		add	r7, sp, #0
 3040              		.cfi_def_cfa_register 7
 3041 0006 7860     		str	r0, [r7, #4]
 3042 0008 0B46     		mov	r3, r1
 3043 000a FB70     		strb	r3, [r7, #3]
1093:Generated_Source\PSoC6\pdl\drivers\peripheral\smif/cy_smif.c ****     cy_en_smif_status_t status = CY_SMIF_SUCCESS;
 3044              		.loc 2 1093 0
 3045 000c 0023     		movs	r3, #0
 3046 000e FB60     		str	r3, [r7, #12]
1094:Generated_Source\PSoC6\pdl\drivers\peripheral\smif/cy_smif.c ****     switch (cacheType)
 3047              		.loc 2 1094 0
 3048 0010 FB78     		ldrb	r3, [r7, #3]	@ zero_extendqisi2
 3049 0012 022B     		cmp	r3, #2
 3050 0014 0CD0     		beq	.L183
 3051 0016 032B     		cmp	r3, #3
 3052 0018 13D0     		beq	.L184
 3053 001a 012B     		cmp	r3, #1
 3054 001c 22D1     		bne	.L188
1095:Generated_Source\PSoC6\pdl\drivers\peripheral\smif/cy_smif.c ****     {
1096:Generated_Source\PSoC6\pdl\drivers\peripheral\smif/cy_smif.c ****         case CY_SMIF_CACHE_SLOW:
1097:Generated_Source\PSoC6\pdl\drivers\peripheral\smif/cy_smif.c ****             base->SLOW_CA_CTL |= SMIF_SLOW_CA_CTL_PREF_EN_Msk;
 3055              		.loc 2 1097 0
 3056 001e 7B68     		ldr	r3, [r7, #4]
 3057 0020 D3F80031 		ldr	r3, [r3, #256]
 3058 0024 43F08042 		orr	r2, r3, #1073741824
 3059 0028 7B68     		ldr	r3, [r7, #4]
 3060 002a C3F80021 		str	r2, [r3, #256]
1098:Generated_Source\PSoC6\pdl\drivers\peripheral\smif/cy_smif.c ****             break;
 3061              		.loc 2 1098 0
 3062 002e 1CE0     		b	.L186
 3063              	.L183:
1099:Generated_Source\PSoC6\pdl\drivers\peripheral\smif/cy_smif.c ****         case CY_SMIF_CACHE_FAST:
1100:Generated_Source\PSoC6\pdl\drivers\peripheral\smif/cy_smif.c ****             base->FAST_CA_CTL |= SMIF_FAST_CA_CTL_PREF_EN_Msk;
 3064              		.loc 2 1100 0
 3065 0030 7B68     		ldr	r3, [r7, #4]
 3066 0032 D3F88031 		ldr	r3, [r3, #384]
 3067 0036 43F08042 		orr	r2, r3, #1073741824
 3068 003a 7B68     		ldr	r3, [r7, #4]
 3069 003c C3F88021 		str	r2, [r3, #384]
1101:Generated_Source\PSoC6\pdl\drivers\peripheral\smif/cy_smif.c ****             break;
 3070              		.loc 2 1101 0
 3071 0040 13E0     		b	.L186
 3072              	.L184:
1102:Generated_Source\PSoC6\pdl\drivers\peripheral\smif/cy_smif.c ****         case CY_SMIF_CACHE_BOTH:
1103:Generated_Source\PSoC6\pdl\drivers\peripheral\smif/cy_smif.c ****             base->SLOW_CA_CTL |= SMIF_SLOW_CA_CTL_PREF_EN_Msk;
ARM GAS  C:\Users\ikomb\AppData\Local\Temp\ccEKz2Td.s 			page 100


 3073              		.loc 2 1103 0
 3074 0042 7B68     		ldr	r3, [r7, #4]
 3075 0044 D3F80031 		ldr	r3, [r3, #256]
 3076 0048 43F08042 		orr	r2, r3, #1073741824
 3077 004c 7B68     		ldr	r3, [r7, #4]
 3078 004e C3F80021 		str	r2, [r3, #256]
1104:Generated_Source\PSoC6\pdl\drivers\peripheral\smif/cy_smif.c ****             base->FAST_CA_CTL |= SMIF_FAST_CA_CTL_PREF_EN_Msk;
 3079              		.loc 2 1104 0
 3080 0052 7B68     		ldr	r3, [r7, #4]
 3081 0054 D3F88031 		ldr	r3, [r3, #384]
 3082 0058 43F08042 		orr	r2, r3, #1073741824
 3083 005c 7B68     		ldr	r3, [r7, #4]
 3084 005e C3F88021 		str	r2, [r3, #384]
1105:Generated_Source\PSoC6\pdl\drivers\peripheral\smif/cy_smif.c ****             break;
 3085              		.loc 2 1105 0
 3086 0062 02E0     		b	.L186
 3087              	.L188:
1106:Generated_Source\PSoC6\pdl\drivers\peripheral\smif/cy_smif.c ****         default:
1107:Generated_Source\PSoC6\pdl\drivers\peripheral\smif/cy_smif.c ****             /* A user error*/
1108:Generated_Source\PSoC6\pdl\drivers\peripheral\smif/cy_smif.c ****             status = CY_SMIF_BAD_PARAM;
 3088              		.loc 2 1108 0
 3089 0064 044B     		ldr	r3, .L189
 3090 0066 FB60     		str	r3, [r7, #12]
1109:Generated_Source\PSoC6\pdl\drivers\peripheral\smif/cy_smif.c ****             break;
 3091              		.loc 2 1109 0
 3092 0068 00BF     		nop
 3093              	.L186:
1110:Generated_Source\PSoC6\pdl\drivers\peripheral\smif/cy_smif.c ****     }
1111:Generated_Source\PSoC6\pdl\drivers\peripheral\smif/cy_smif.c ****     return (status);
 3094              		.loc 2 1111 0
 3095 006a FB68     		ldr	r3, [r7, #12]
1112:Generated_Source\PSoC6\pdl\drivers\peripheral\smif/cy_smif.c **** }
 3096              		.loc 2 1112 0
 3097 006c 1846     		mov	r0, r3
 3098 006e 1437     		adds	r7, r7, #20
 3099              		.cfi_def_cfa_offset 4
 3100 0070 BD46     		mov	sp, r7
 3101              		.cfi_def_cfa_register 13
 3102              		@ sp needed
 3103 0072 5DF8047B 		ldr	r7, [sp], #4
 3104              		.cfi_restore 7
 3105              		.cfi_def_cfa_offset 0
 3106 0076 7047     		bx	lr
 3107              	.L190:
 3108              		.align	2
 3109              	.L189:
 3110 0078 0400B200 		.word	11665412
 3111              		.cfi_endproc
 3112              	.LFE194:
 3113              		.size	Cy_SMIF_CachePrefetchingEnable, .-Cy_SMIF_CachePrefetchingEnable
 3114              		.section	.text.Cy_SMIF_CachePrefetchingDisable,"ax",%progbits
 3115              		.align	2
 3116              		.global	Cy_SMIF_CachePrefetchingDisable
 3117              		.thumb
 3118              		.thumb_func
 3119              		.type	Cy_SMIF_CachePrefetchingDisable, %function
 3120              	Cy_SMIF_CachePrefetchingDisable:
ARM GAS  C:\Users\ikomb\AppData\Local\Temp\ccEKz2Td.s 			page 101


 3121              	.LFB195:
1113:Generated_Source\PSoC6\pdl\drivers\peripheral\smif/cy_smif.c **** 
1114:Generated_Source\PSoC6\pdl\drivers\peripheral\smif/cy_smif.c **** 
1115:Generated_Source\PSoC6\pdl\drivers\peripheral\smif/cy_smif.c **** /*******************************************************************************
1116:Generated_Source\PSoC6\pdl\drivers\peripheral\smif/cy_smif.c **** * Function Name: Cy_SMIF_CachePrefetchingDisable
1117:Generated_Source\PSoC6\pdl\drivers\peripheral\smif/cy_smif.c **** ****************************************************************************//**
1118:Generated_Source\PSoC6\pdl\drivers\peripheral\smif/cy_smif.c **** *
1119:Generated_Source\PSoC6\pdl\drivers\peripheral\smif/cy_smif.c **** * This function is used to disable pre-fetching for the fast cache, the slow
1120:Generated_Source\PSoC6\pdl\drivers\peripheral\smif/cy_smif.c **** * cache or both
1121:Generated_Source\PSoC6\pdl\drivers\peripheral\smif/cy_smif.c **** *
1122:Generated_Source\PSoC6\pdl\drivers\peripheral\smif/cy_smif.c **** * \param base
1123:Generated_Source\PSoC6\pdl\drivers\peripheral\smif/cy_smif.c **** * Holds the base address of the SMIF block registers.
1124:Generated_Source\PSoC6\pdl\drivers\peripheral\smif/cy_smif.c **** *
1125:Generated_Source\PSoC6\pdl\drivers\peripheral\smif/cy_smif.c **** * \param cacheType
1126:Generated_Source\PSoC6\pdl\drivers\peripheral\smif/cy_smif.c **** * Holds the type of the cache to be modified. \ref cy_en_smif_cache_en_t
1127:Generated_Source\PSoC6\pdl\drivers\peripheral\smif/cy_smif.c **** *
1128:Generated_Source\PSoC6\pdl\drivers\peripheral\smif/cy_smif.c **** * \return A status of function completion.
1129:Generated_Source\PSoC6\pdl\drivers\peripheral\smif/cy_smif.c **** *       - \ref CY_SMIF_SUCCESS
1130:Generated_Source\PSoC6\pdl\drivers\peripheral\smif/cy_smif.c **** *       - \ref CY_SMIF_BAD_PARAM
1131:Generated_Source\PSoC6\pdl\drivers\peripheral\smif/cy_smif.c **** *
1132:Generated_Source\PSoC6\pdl\drivers\peripheral\smif/cy_smif.c **** *******************************************************************************/
1133:Generated_Source\PSoC6\pdl\drivers\peripheral\smif/cy_smif.c **** cy_en_smif_status_t Cy_SMIF_CachePrefetchingDisable(SMIF_Type *base,  
1134:Generated_Source\PSoC6\pdl\drivers\peripheral\smif/cy_smif.c ****                                                     cy_en_smif_cache_en_t cacheType)
1135:Generated_Source\PSoC6\pdl\drivers\peripheral\smif/cy_smif.c **** {
 3122              		.loc 2 1135 0
 3123              		.cfi_startproc
 3124              		@ args = 0, pretend = 0, frame = 16
 3125              		@ frame_needed = 1, uses_anonymous_args = 0
 3126              		@ link register save eliminated.
 3127 0000 80B4     		push	{r7}
 3128              		.cfi_def_cfa_offset 4
 3129              		.cfi_offset 7, -4
 3130 0002 85B0     		sub	sp, sp, #20
 3131              		.cfi_def_cfa_offset 24
 3132 0004 00AF     		add	r7, sp, #0
 3133              		.cfi_def_cfa_register 7
 3134 0006 7860     		str	r0, [r7, #4]
 3135 0008 0B46     		mov	r3, r1
 3136 000a FB70     		strb	r3, [r7, #3]
1136:Generated_Source\PSoC6\pdl\drivers\peripheral\smif/cy_smif.c ****     cy_en_smif_status_t status = CY_SMIF_SUCCESS;
 3137              		.loc 2 1136 0
 3138 000c 0023     		movs	r3, #0
 3139 000e FB60     		str	r3, [r7, #12]
1137:Generated_Source\PSoC6\pdl\drivers\peripheral\smif/cy_smif.c ****     switch (cacheType)
 3140              		.loc 2 1137 0
 3141 0010 FB78     		ldrb	r3, [r7, #3]	@ zero_extendqisi2
 3142 0012 022B     		cmp	r3, #2
 3143 0014 0CD0     		beq	.L193
 3144 0016 032B     		cmp	r3, #3
 3145 0018 13D0     		beq	.L194
 3146 001a 012B     		cmp	r3, #1
 3147 001c 22D1     		bne	.L198
1138:Generated_Source\PSoC6\pdl\drivers\peripheral\smif/cy_smif.c ****     {
1139:Generated_Source\PSoC6\pdl\drivers\peripheral\smif/cy_smif.c ****         case CY_SMIF_CACHE_SLOW:
1140:Generated_Source\PSoC6\pdl\drivers\peripheral\smif/cy_smif.c ****             base->SLOW_CA_CTL &= ~SMIF_SLOW_CA_CTL_PREF_EN_Msk;
 3148              		.loc 2 1140 0
 3149 001e 7B68     		ldr	r3, [r7, #4]
ARM GAS  C:\Users\ikomb\AppData\Local\Temp\ccEKz2Td.s 			page 102


 3150 0020 D3F80031 		ldr	r3, [r3, #256]
 3151 0024 23F08042 		bic	r2, r3, #1073741824
 3152 0028 7B68     		ldr	r3, [r7, #4]
 3153 002a C3F80021 		str	r2, [r3, #256]
1141:Generated_Source\PSoC6\pdl\drivers\peripheral\smif/cy_smif.c ****             break;
 3154              		.loc 2 1141 0
 3155 002e 1CE0     		b	.L196
 3156              	.L193:
1142:Generated_Source\PSoC6\pdl\drivers\peripheral\smif/cy_smif.c ****         case CY_SMIF_CACHE_FAST:
1143:Generated_Source\PSoC6\pdl\drivers\peripheral\smif/cy_smif.c ****             base->FAST_CA_CTL &= ~SMIF_FAST_CA_CTL_PREF_EN_Msk;
 3157              		.loc 2 1143 0
 3158 0030 7B68     		ldr	r3, [r7, #4]
 3159 0032 D3F88031 		ldr	r3, [r3, #384]
 3160 0036 23F08042 		bic	r2, r3, #1073741824
 3161 003a 7B68     		ldr	r3, [r7, #4]
 3162 003c C3F88021 		str	r2, [r3, #384]
1144:Generated_Source\PSoC6\pdl\drivers\peripheral\smif/cy_smif.c ****             break;
 3163              		.loc 2 1144 0
 3164 0040 13E0     		b	.L196
 3165              	.L194:
1145:Generated_Source\PSoC6\pdl\drivers\peripheral\smif/cy_smif.c ****         case CY_SMIF_CACHE_BOTH:
1146:Generated_Source\PSoC6\pdl\drivers\peripheral\smif/cy_smif.c ****             base->SLOW_CA_CTL &= ~SMIF_SLOW_CA_CTL_PREF_EN_Msk;
 3166              		.loc 2 1146 0
 3167 0042 7B68     		ldr	r3, [r7, #4]
 3168 0044 D3F80031 		ldr	r3, [r3, #256]
 3169 0048 23F08042 		bic	r2, r3, #1073741824
 3170 004c 7B68     		ldr	r3, [r7, #4]
 3171 004e C3F80021 		str	r2, [r3, #256]
1147:Generated_Source\PSoC6\pdl\drivers\peripheral\smif/cy_smif.c ****             base->FAST_CA_CTL &= ~SMIF_FAST_CA_CTL_PREF_EN_Msk;
 3172              		.loc 2 1147 0
 3173 0052 7B68     		ldr	r3, [r7, #4]
 3174 0054 D3F88031 		ldr	r3, [r3, #384]
 3175 0058 23F08042 		bic	r2, r3, #1073741824
 3176 005c 7B68     		ldr	r3, [r7, #4]
 3177 005e C3F88021 		str	r2, [r3, #384]
1148:Generated_Source\PSoC6\pdl\drivers\peripheral\smif/cy_smif.c ****             break;
 3178              		.loc 2 1148 0
 3179 0062 02E0     		b	.L196
 3180              	.L198:
1149:Generated_Source\PSoC6\pdl\drivers\peripheral\smif/cy_smif.c ****         default:
1150:Generated_Source\PSoC6\pdl\drivers\peripheral\smif/cy_smif.c ****             /* A user error*/
1151:Generated_Source\PSoC6\pdl\drivers\peripheral\smif/cy_smif.c ****             status = CY_SMIF_BAD_PARAM;
 3181              		.loc 2 1151 0
 3182 0064 044B     		ldr	r3, .L199
 3183 0066 FB60     		str	r3, [r7, #12]
1152:Generated_Source\PSoC6\pdl\drivers\peripheral\smif/cy_smif.c ****             break;
 3184              		.loc 2 1152 0
 3185 0068 00BF     		nop
 3186              	.L196:
1153:Generated_Source\PSoC6\pdl\drivers\peripheral\smif/cy_smif.c ****     }
1154:Generated_Source\PSoC6\pdl\drivers\peripheral\smif/cy_smif.c ****     return (status);
 3187              		.loc 2 1154 0
 3188 006a FB68     		ldr	r3, [r7, #12]
1155:Generated_Source\PSoC6\pdl\drivers\peripheral\smif/cy_smif.c **** }
 3189              		.loc 2 1155 0
 3190 006c 1846     		mov	r0, r3
 3191 006e 1437     		adds	r7, r7, #20
ARM GAS  C:\Users\ikomb\AppData\Local\Temp\ccEKz2Td.s 			page 103


 3192              		.cfi_def_cfa_offset 4
 3193 0070 BD46     		mov	sp, r7
 3194              		.cfi_def_cfa_register 13
 3195              		@ sp needed
 3196 0072 5DF8047B 		ldr	r7, [sp], #4
 3197              		.cfi_restore 7
 3198              		.cfi_def_cfa_offset 0
 3199 0076 7047     		bx	lr
 3200              	.L200:
 3201              		.align	2
 3202              	.L199:
 3203 0078 0400B200 		.word	11665412
 3204              		.cfi_endproc
 3205              	.LFE195:
 3206              		.size	Cy_SMIF_CachePrefetchingDisable, .-Cy_SMIF_CachePrefetchingDisable
 3207              		.section	.text.Cy_SMIF_CacheInvalidate,"ax",%progbits
 3208              		.align	2
 3209              		.global	Cy_SMIF_CacheInvalidate
 3210              		.thumb
 3211              		.thumb_func
 3212              		.type	Cy_SMIF_CacheInvalidate, %function
 3213              	Cy_SMIF_CacheInvalidate:
 3214              	.LFB196:
1156:Generated_Source\PSoC6\pdl\drivers\peripheral\smif/cy_smif.c **** 
1157:Generated_Source\PSoC6\pdl\drivers\peripheral\smif/cy_smif.c **** 
1158:Generated_Source\PSoC6\pdl\drivers\peripheral\smif/cy_smif.c **** /*******************************************************************************
1159:Generated_Source\PSoC6\pdl\drivers\peripheral\smif/cy_smif.c **** * Function Name: Cy_SMIF_CacheInvalidate
1160:Generated_Source\PSoC6\pdl\drivers\peripheral\smif/cy_smif.c **** ****************************************************************************//**
1161:Generated_Source\PSoC6\pdl\drivers\peripheral\smif/cy_smif.c **** *
1162:Generated_Source\PSoC6\pdl\drivers\peripheral\smif/cy_smif.c **** * This function is used to invalidate/clear the fast cache, the slow cache or
1163:Generated_Source\PSoC6\pdl\drivers\peripheral\smif/cy_smif.c **** * both
1164:Generated_Source\PSoC6\pdl\drivers\peripheral\smif/cy_smif.c **** *
1165:Generated_Source\PSoC6\pdl\drivers\peripheral\smif/cy_smif.c **** * \param base
1166:Generated_Source\PSoC6\pdl\drivers\peripheral\smif/cy_smif.c **** * Holds the base address of the SMIF block registers.
1167:Generated_Source\PSoC6\pdl\drivers\peripheral\smif/cy_smif.c **** *
1168:Generated_Source\PSoC6\pdl\drivers\peripheral\smif/cy_smif.c **** * \param cacheType
1169:Generated_Source\PSoC6\pdl\drivers\peripheral\smif/cy_smif.c **** * Holds the type of the cache to be modified. \ref cy_en_smif_cache_en_t
1170:Generated_Source\PSoC6\pdl\drivers\peripheral\smif/cy_smif.c **** *
1171:Generated_Source\PSoC6\pdl\drivers\peripheral\smif/cy_smif.c **** * \return A status of function completion.
1172:Generated_Source\PSoC6\pdl\drivers\peripheral\smif/cy_smif.c **** *       - \ref CY_SMIF_SUCCESS
1173:Generated_Source\PSoC6\pdl\drivers\peripheral\smif/cy_smif.c **** *       - \ref CY_SMIF_BAD_PARAM
1174:Generated_Source\PSoC6\pdl\drivers\peripheral\smif/cy_smif.c **** *
1175:Generated_Source\PSoC6\pdl\drivers\peripheral\smif/cy_smif.c **** *******************************************************************************/
1176:Generated_Source\PSoC6\pdl\drivers\peripheral\smif/cy_smif.c **** cy_en_smif_status_t Cy_SMIF_CacheInvalidate(SMIF_Type *base, 
1177:Generated_Source\PSoC6\pdl\drivers\peripheral\smif/cy_smif.c ****                                             cy_en_smif_cache_en_t cacheType)
1178:Generated_Source\PSoC6\pdl\drivers\peripheral\smif/cy_smif.c **** {
 3215              		.loc 2 1178 0
 3216              		.cfi_startproc
 3217              		@ args = 0, pretend = 0, frame = 16
 3218              		@ frame_needed = 1, uses_anonymous_args = 0
 3219              		@ link register save eliminated.
 3220 0000 80B4     		push	{r7}
 3221              		.cfi_def_cfa_offset 4
 3222              		.cfi_offset 7, -4
 3223 0002 85B0     		sub	sp, sp, #20
 3224              		.cfi_def_cfa_offset 24
 3225 0004 00AF     		add	r7, sp, #0
ARM GAS  C:\Users\ikomb\AppData\Local\Temp\ccEKz2Td.s 			page 104


 3226              		.cfi_def_cfa_register 7
 3227 0006 7860     		str	r0, [r7, #4]
 3228 0008 0B46     		mov	r3, r1
 3229 000a FB70     		strb	r3, [r7, #3]
1179:Generated_Source\PSoC6\pdl\drivers\peripheral\smif/cy_smif.c ****     cy_en_smif_status_t status = CY_SMIF_SUCCESS;
 3230              		.loc 2 1179 0
 3231 000c 0023     		movs	r3, #0
 3232 000e FB60     		str	r3, [r7, #12]
1180:Generated_Source\PSoC6\pdl\drivers\peripheral\smif/cy_smif.c ****     switch (cacheType)
 3233              		.loc 2 1180 0
 3234 0010 FB78     		ldrb	r3, [r7, #3]	@ zero_extendqisi2
 3235 0012 022B     		cmp	r3, #2
 3236 0014 0CD0     		beq	.L203
 3237 0016 032B     		cmp	r3, #3
 3238 0018 13D0     		beq	.L204
 3239 001a 012B     		cmp	r3, #1
 3240 001c 22D1     		bne	.L208
1181:Generated_Source\PSoC6\pdl\drivers\peripheral\smif/cy_smif.c ****     {
1182:Generated_Source\PSoC6\pdl\drivers\peripheral\smif/cy_smif.c ****         case CY_SMIF_CACHE_SLOW:
1183:Generated_Source\PSoC6\pdl\drivers\peripheral\smif/cy_smif.c ****             base->SLOW_CA_CMD |= SMIF_SLOW_CA_CMD_INV_Msk;
 3241              		.loc 2 1183 0
 3242 001e 7B68     		ldr	r3, [r7, #4]
 3243 0020 D3F80831 		ldr	r3, [r3, #264]
 3244 0024 43F00102 		orr	r2, r3, #1
 3245 0028 7B68     		ldr	r3, [r7, #4]
 3246 002a C3F80821 		str	r2, [r3, #264]
1184:Generated_Source\PSoC6\pdl\drivers\peripheral\smif/cy_smif.c ****             break;
 3247              		.loc 2 1184 0
 3248 002e 1CE0     		b	.L206
 3249              	.L203:
1185:Generated_Source\PSoC6\pdl\drivers\peripheral\smif/cy_smif.c ****         case CY_SMIF_CACHE_FAST:
1186:Generated_Source\PSoC6\pdl\drivers\peripheral\smif/cy_smif.c ****             base->FAST_CA_CMD |= SMIF_FAST_CA_CMD_INV_Msk;
 3250              		.loc 2 1186 0
 3251 0030 7B68     		ldr	r3, [r7, #4]
 3252 0032 D3F88831 		ldr	r3, [r3, #392]
 3253 0036 43F00102 		orr	r2, r3, #1
 3254 003a 7B68     		ldr	r3, [r7, #4]
 3255 003c C3F88821 		str	r2, [r3, #392]
1187:Generated_Source\PSoC6\pdl\drivers\peripheral\smif/cy_smif.c ****             break;
 3256              		.loc 2 1187 0
 3257 0040 13E0     		b	.L206
 3258              	.L204:
1188:Generated_Source\PSoC6\pdl\drivers\peripheral\smif/cy_smif.c ****         case CY_SMIF_CACHE_BOTH:
1189:Generated_Source\PSoC6\pdl\drivers\peripheral\smif/cy_smif.c ****             base->SLOW_CA_CMD |= SMIF_SLOW_CA_CMD_INV_Msk;
 3259              		.loc 2 1189 0
 3260 0042 7B68     		ldr	r3, [r7, #4]
 3261 0044 D3F80831 		ldr	r3, [r3, #264]
 3262 0048 43F00102 		orr	r2, r3, #1
 3263 004c 7B68     		ldr	r3, [r7, #4]
 3264 004e C3F80821 		str	r2, [r3, #264]
1190:Generated_Source\PSoC6\pdl\drivers\peripheral\smif/cy_smif.c ****             base->FAST_CA_CMD |= SMIF_FAST_CA_CMD_INV_Msk;
 3265              		.loc 2 1190 0
 3266 0052 7B68     		ldr	r3, [r7, #4]
 3267 0054 D3F88831 		ldr	r3, [r3, #392]
 3268 0058 43F00102 		orr	r2, r3, #1
 3269 005c 7B68     		ldr	r3, [r7, #4]
 3270 005e C3F88821 		str	r2, [r3, #392]
ARM GAS  C:\Users\ikomb\AppData\Local\Temp\ccEKz2Td.s 			page 105


1191:Generated_Source\PSoC6\pdl\drivers\peripheral\smif/cy_smif.c ****             break;
 3271              		.loc 2 1191 0
 3272 0062 02E0     		b	.L206
 3273              	.L208:
1192:Generated_Source\PSoC6\pdl\drivers\peripheral\smif/cy_smif.c ****         default:
1193:Generated_Source\PSoC6\pdl\drivers\peripheral\smif/cy_smif.c ****             /* A user error*/
1194:Generated_Source\PSoC6\pdl\drivers\peripheral\smif/cy_smif.c ****             status = CY_SMIF_BAD_PARAM;
 3274              		.loc 2 1194 0
 3275 0064 044B     		ldr	r3, .L209
 3276 0066 FB60     		str	r3, [r7, #12]
1195:Generated_Source\PSoC6\pdl\drivers\peripheral\smif/cy_smif.c ****             break;
 3277              		.loc 2 1195 0
 3278 0068 00BF     		nop
 3279              	.L206:
1196:Generated_Source\PSoC6\pdl\drivers\peripheral\smif/cy_smif.c ****     }
1197:Generated_Source\PSoC6\pdl\drivers\peripheral\smif/cy_smif.c ****     return (status);
 3280              		.loc 2 1197 0
 3281 006a FB68     		ldr	r3, [r7, #12]
1198:Generated_Source\PSoC6\pdl\drivers\peripheral\smif/cy_smif.c **** }
 3282              		.loc 2 1198 0
 3283 006c 1846     		mov	r0, r3
 3284 006e 1437     		adds	r7, r7, #20
 3285              		.cfi_def_cfa_offset 4
 3286 0070 BD46     		mov	sp, r7
 3287              		.cfi_def_cfa_register 13
 3288              		@ sp needed
 3289 0072 5DF8047B 		ldr	r7, [sp], #4
 3290              		.cfi_restore 7
 3291              		.cfi_def_cfa_offset 0
 3292 0076 7047     		bx	lr
 3293              	.L210:
 3294              		.align	2
 3295              	.L209:
 3296 0078 0400B200 		.word	11665412
 3297              		.cfi_endproc
 3298              	.LFE196:
 3299              		.size	Cy_SMIF_CacheInvalidate, .-Cy_SMIF_CacheInvalidate
 3300              		.section	.text.Cy_SMIF_DeepSleepCallback,"ax",%progbits
 3301              		.align	2
 3302              		.global	Cy_SMIF_DeepSleepCallback
 3303              		.thumb
 3304              		.thumb_func
 3305              		.type	Cy_SMIF_DeepSleepCallback, %function
 3306              	Cy_SMIF_DeepSleepCallback:
 3307              	.LFB197:
1199:Generated_Source\PSoC6\pdl\drivers\peripheral\smif/cy_smif.c **** 
1200:Generated_Source\PSoC6\pdl\drivers\peripheral\smif/cy_smif.c **** 
1201:Generated_Source\PSoC6\pdl\drivers\peripheral\smif/cy_smif.c **** /*******************************************************************************
1202:Generated_Source\PSoC6\pdl\drivers\peripheral\smif/cy_smif.c **** * Function Name: Cy_SMIF_DeepSleepCallback
1203:Generated_Source\PSoC6\pdl\drivers\peripheral\smif/cy_smif.c **** ****************************************************************************//**
1204:Generated_Source\PSoC6\pdl\drivers\peripheral\smif/cy_smif.c **** *
1205:Generated_Source\PSoC6\pdl\drivers\peripheral\smif/cy_smif.c **** * This function handles the transition of the SMIF into and out of Deep
1206:Generated_Source\PSoC6\pdl\drivers\peripheral\smif/cy_smif.c **** * Sleep mode. It prevents the device from entering DeepSleep if SMIF is actively
1207:Generated_Source\PSoC6\pdl\drivers\peripheral\smif/cy_smif.c **** * communicating, or there is any data in the TX or RX FIFOs, or SMIF is in
1208:Generated_Source\PSoC6\pdl\drivers\peripheral\smif/cy_smif.c **** * memory mode.
1209:Generated_Source\PSoC6\pdl\drivers\peripheral\smif/cy_smif.c **** *
1210:Generated_Source\PSoC6\pdl\drivers\peripheral\smif/cy_smif.c **** * This function should be called while execution of \ref Cy_SysPm_DeepSleep
ARM GAS  C:\Users\ikomb\AppData\Local\Temp\ccEKz2Td.s 			page 106


1211:Generated_Source\PSoC6\pdl\drivers\peripheral\smif/cy_smif.c **** * therefore must be registered as a callback before the call. To register it
1212:Generated_Source\PSoC6\pdl\drivers\peripheral\smif/cy_smif.c **** * call \ref Cy_SysPm_RegisterCallback and specify \ref CY_SYSPM_DEEPSLEEP
1213:Generated_Source\PSoC6\pdl\drivers\peripheral\smif/cy_smif.c **** * as the callback type.
1214:Generated_Source\PSoC6\pdl\drivers\peripheral\smif/cy_smif.c **** *
1215:Generated_Source\PSoC6\pdl\drivers\peripheral\smif/cy_smif.c **** * \note
1216:Generated_Source\PSoC6\pdl\drivers\peripheral\smif/cy_smif.c **** * This API is template and user should add code for external memory enter/exit
1217:Generated_Source\PSoC6\pdl\drivers\peripheral\smif/cy_smif.c **** * low power mode.
1218:Generated_Source\PSoC6\pdl\drivers\peripheral\smif/cy_smif.c **** *
1219:Generated_Source\PSoC6\pdl\drivers\peripheral\smif/cy_smif.c **** * \param callbackParams
1220:Generated_Source\PSoC6\pdl\drivers\peripheral\smif/cy_smif.c **** * The pointer to the structure with SMIF SysPm callback parameters (pointer to
1221:Generated_Source\PSoC6\pdl\drivers\peripheral\smif/cy_smif.c **** * SMIF registers, context and call mode \ref cy_stc_syspm_callback_params_t).
1222:Generated_Source\PSoC6\pdl\drivers\peripheral\smif/cy_smif.c **** *
1223:Generated_Source\PSoC6\pdl\drivers\peripheral\smif/cy_smif.c **** * \return
1224:Generated_Source\PSoC6\pdl\drivers\peripheral\smif/cy_smif.c **** * \ref cy_en_syspm_status_t
1225:Generated_Source\PSoC6\pdl\drivers\peripheral\smif/cy_smif.c **** *
1226:Generated_Source\PSoC6\pdl\drivers\peripheral\smif/cy_smif.c **** * Example setup of SysPM deep sleep and hibernate mode
1227:Generated_Source\PSoC6\pdl\drivers\peripheral\smif/cy_smif.c **** * \snippet smif/smif_sut_01.cydsn/main_cm4.c SMIF SysPM Callback
1228:Generated_Source\PSoC6\pdl\drivers\peripheral\smif/cy_smif.c **** *
1229:Generated_Source\PSoC6\pdl\drivers\peripheral\smif/cy_smif.c **** *******************************************************************************/
1230:Generated_Source\PSoC6\pdl\drivers\peripheral\smif/cy_smif.c **** cy_en_syspm_status_t Cy_SMIF_DeepSleepCallback(cy_stc_syspm_callback_params_t *callbackParams)
1231:Generated_Source\PSoC6\pdl\drivers\peripheral\smif/cy_smif.c **** {
 3308              		.loc 2 1231 0
 3309              		.cfi_startproc
 3310              		@ args = 0, pretend = 0, frame = 24
 3311              		@ frame_needed = 1, uses_anonymous_args = 0
 3312 0000 80B5     		push	{r7, lr}
 3313              		.cfi_def_cfa_offset 8
 3314              		.cfi_offset 7, -8
 3315              		.cfi_offset 14, -4
 3316 0002 86B0     		sub	sp, sp, #24
 3317              		.cfi_def_cfa_offset 32
 3318 0004 00AF     		add	r7, sp, #0
 3319              		.cfi_def_cfa_register 7
 3320 0006 7860     		str	r0, [r7, #4]
1232:Generated_Source\PSoC6\pdl\drivers\peripheral\smif/cy_smif.c ****     cy_en_syspm_status_t retStatus = CY_SYSPM_SUCCESS;
 3321              		.loc 2 1232 0
 3322 0008 0023     		movs	r3, #0
 3323 000a 7B61     		str	r3, [r7, #20]
1233:Generated_Source\PSoC6\pdl\drivers\peripheral\smif/cy_smif.c ****     
1234:Generated_Source\PSoC6\pdl\drivers\peripheral\smif/cy_smif.c ****     CY_ASSERT_L1(NULL != callbackParams);
 3324              		.loc 2 1234 0
 3325 000c 7B68     		ldr	r3, [r7, #4]
 3326 000e 002B     		cmp	r3, #0
 3327 0010 04D1     		bne	.L212
 3328              		.loc 2 1234 0 is_stmt 0 discriminator 1
 3329 0012 40F2D241 		movw	r1, #1234
 3330 0016 3648     		ldr	r0, .L230
 3331 0018 FFF7FEFF 		bl	Cy_SysLib_AssertFailed
 3332              	.L212:
1235:Generated_Source\PSoC6\pdl\drivers\peripheral\smif/cy_smif.c **** 
1236:Generated_Source\PSoC6\pdl\drivers\peripheral\smif/cy_smif.c ****     SMIF_Type *locBase = (SMIF_Type *) callbackParams->base;
 3333              		.loc 2 1236 0 is_stmt 1
 3334 001c 7B68     		ldr	r3, [r7, #4]
 3335 001e 5B68     		ldr	r3, [r3, #4]
 3336 0020 3B61     		str	r3, [r7, #16]
1237:Generated_Source\PSoC6\pdl\drivers\peripheral\smif/cy_smif.c ****     cy_stc_smif_context_t *locContext = (cy_stc_smif_context_t *) callbackParams->context;
 3337              		.loc 2 1237 0
ARM GAS  C:\Users\ikomb\AppData\Local\Temp\ccEKz2Td.s 			page 107


 3338 0022 7B68     		ldr	r3, [r7, #4]
 3339 0024 9B68     		ldr	r3, [r3, #8]
 3340 0026 FB60     		str	r3, [r7, #12]
1238:Generated_Source\PSoC6\pdl\drivers\peripheral\smif/cy_smif.c **** 
1239:Generated_Source\PSoC6\pdl\drivers\peripheral\smif/cy_smif.c ****     switch(callbackParams->mode)
 3341              		.loc 2 1239 0
 3342 0028 7B68     		ldr	r3, [r7, #4]
 3343 002a 1B78     		ldrb	r3, [r3]	@ zero_extendqisi2
 3344 002c 013B     		subs	r3, r3, #1
 3345 002e 072B     		cmp	r3, #7
 3346 0030 55D8     		bhi	.L213
 3347 0032 01A2     		adr	r2, .L215
 3348 0034 52F823F0 		ldr	pc, [r2, r3, lsl #2]
 3349              		.p2align 2
 3350              	.L215:
 3351 0038 59000000 		.word	.L214+1
 3352 003c CB000000 		.word	.L216+1
 3353 0040 DF000000 		.word	.L213+1
 3354 0044 E5000000 		.word	.L229+1
 3355 0048 DF000000 		.word	.L213+1
 3356 004c DF000000 		.word	.L213+1
 3357 0050 DF000000 		.word	.L213+1
 3358 0054 D5000000 		.word	.L218+1
 3359              		.p2align 1
 3360              	.L214:
 3361              	.LBB6:
1240:Generated_Source\PSoC6\pdl\drivers\peripheral\smif/cy_smif.c ****     {
1241:Generated_Source\PSoC6\pdl\drivers\peripheral\smif/cy_smif.c ****         case CY_SYSPM_CHECK_READY:
1242:Generated_Source\PSoC6\pdl\drivers\peripheral\smif/cy_smif.c ****         {
1243:Generated_Source\PSoC6\pdl\drivers\peripheral\smif/cy_smif.c ****             /* Check if API is not busy executing transfer operation */
1244:Generated_Source\PSoC6\pdl\drivers\peripheral\smif/cy_smif.c ****             /* If SPI bus is not busy, all data elements are transferred on
1245:Generated_Source\PSoC6\pdl\drivers\peripheral\smif/cy_smif.c ****                 * the bus from the TX FIFO and shifter and the RX FIFIOs is
1246:Generated_Source\PSoC6\pdl\drivers\peripheral\smif/cy_smif.c ****                 * empty - the SPI is ready enter Deep Sleep.
1247:Generated_Source\PSoC6\pdl\drivers\peripheral\smif/cy_smif.c ****             */
1248:Generated_Source\PSoC6\pdl\drivers\peripheral\smif/cy_smif.c ****             bool checkFail = (CY_SMIF_REC_BUSY == (cy_en_smif_txfr_status_t)
1249:Generated_Source\PSoC6\pdl\drivers\peripheral\smif/cy_smif.c ****                                     Cy_SMIF_GetTxfrStatus(locBase, locContext));
 3362              		.loc 2 1249 0
 3363 0058 F968     		ldr	r1, [r7, #12]
 3364 005a 3869     		ldr	r0, [r7, #16]
 3365 005c FFF7FEFF 		bl	Cy_SMIF_GetTxfrStatus
 3366 0060 0346     		mov	r3, r0
1248:Generated_Source\PSoC6\pdl\drivers\peripheral\smif/cy_smif.c ****                                     Cy_SMIF_GetTxfrStatus(locBase, locContext));
 3367              		.loc 2 1248 0
 3368 0062 DBB2     		uxtb	r3, r3
 3369 0064 042B     		cmp	r3, #4
 3370 0066 0CBF     		ite	eq
 3371 0068 0123     		moveq	r3, #1
 3372 006a 0023     		movne	r3, #0
 3373 006c FB72     		strb	r3, [r7, #11]
1250:Generated_Source\PSoC6\pdl\drivers\peripheral\smif/cy_smif.c ****             checkFail = (Cy_SMIF_BusyCheck(locBase)) || checkFail;
 3374              		.loc 2 1250 0
 3375 006e 3869     		ldr	r0, [r7, #16]
 3376 0070 FFF7FEFF 		bl	Cy_SMIF_BusyCheck
 3377 0074 0346     		mov	r3, r0
 3378 0076 002B     		cmp	r3, #0
 3379 0078 02D1     		bne	.L219
 3380              		.loc 2 1250 0 is_stmt 0 discriminator 2
ARM GAS  C:\Users\ikomb\AppData\Local\Temp\ccEKz2Td.s 			page 108


 3381 007a FB7A     		ldrb	r3, [r7, #11]	@ zero_extendqisi2
 3382 007c 002B     		cmp	r3, #0
 3383 007e 01D0     		beq	.L220
 3384              	.L219:
 3385              		.loc 2 1250 0 discriminator 3
 3386 0080 0123     		movs	r3, #1
 3387 0082 00E0     		b	.L221
 3388              	.L220:
 3389              		.loc 2 1250 0 discriminator 4
 3390 0084 0023     		movs	r3, #0
 3391              	.L221:
 3392              		.loc 2 1250 0 discriminator 6
 3393 0086 FB72     		strb	r3, [r7, #11]
 3394 0088 FB7A     		ldrb	r3, [r7, #11]
 3395 008a 03F00103 		and	r3, r3, #1
 3396 008e FB72     		strb	r3, [r7, #11]
1251:Generated_Source\PSoC6\pdl\drivers\peripheral\smif/cy_smif.c ****             checkFail = (Cy_SMIF_GetMode(locBase) == CY_SMIF_MEMORY) || checkFail;
 3397              		.loc 2 1251 0 is_stmt 1 discriminator 6
 3398 0090 3869     		ldr	r0, [r7, #16]
 3399 0092 FFF7FEFF 		bl	Cy_SMIF_GetMode
 3400 0096 0346     		mov	r3, r0
 3401 0098 012B     		cmp	r3, #1
 3402 009a 02D0     		beq	.L222
 3403              		.loc 2 1251 0 is_stmt 0 discriminator 2
 3404 009c FB7A     		ldrb	r3, [r7, #11]	@ zero_extendqisi2
 3405 009e 002B     		cmp	r3, #0
 3406 00a0 01D0     		beq	.L223
 3407              	.L222:
 3408              		.loc 2 1251 0 discriminator 3
 3409 00a2 0123     		movs	r3, #1
 3410 00a4 00E0     		b	.L224
 3411              	.L223:
 3412              		.loc 2 1251 0 discriminator 4
 3413 00a6 0023     		movs	r3, #0
 3414              	.L224:
 3415              		.loc 2 1251 0 discriminator 6
 3416 00a8 FB72     		strb	r3, [r7, #11]
 3417 00aa FB7A     		ldrb	r3, [r7, #11]
 3418 00ac 03F00103 		and	r3, r3, #1
 3419 00b0 FB72     		strb	r3, [r7, #11]
1252:Generated_Source\PSoC6\pdl\drivers\peripheral\smif/cy_smif.c **** 
1253:Generated_Source\PSoC6\pdl\drivers\peripheral\smif/cy_smif.c ****             if (checkFail)
 3420              		.loc 2 1253 0 is_stmt 1 discriminator 6
 3421 00b2 FB7A     		ldrb	r3, [r7, #11]	@ zero_extendqisi2
 3422 00b4 002B     		cmp	r3, #0
 3423 00b6 02D0     		beq	.L225
1254:Generated_Source\PSoC6\pdl\drivers\peripheral\smif/cy_smif.c ****             {
1255:Generated_Source\PSoC6\pdl\drivers\peripheral\smif/cy_smif.c ****                 retStatus = CY_SYSPM_FAIL;
 3424              		.loc 2 1255 0
 3425 00b8 0E4B     		ldr	r3, .L230+4
 3426 00ba 7B61     		str	r3, [r7, #20]
 3427              	.LBE6:
1256:Generated_Source\PSoC6\pdl\drivers\peripheral\smif/cy_smif.c ****             }
1257:Generated_Source\PSoC6\pdl\drivers\peripheral\smif/cy_smif.c ****             else
1258:Generated_Source\PSoC6\pdl\drivers\peripheral\smif/cy_smif.c ****             {
1259:Generated_Source\PSoC6\pdl\drivers\peripheral\smif/cy_smif.c ****                 Cy_SMIF_Disable(locBase);
1260:Generated_Source\PSoC6\pdl\drivers\peripheral\smif/cy_smif.c ****                 retStatus = CY_SYSPM_SUCCESS;
ARM GAS  C:\Users\ikomb\AppData\Local\Temp\ccEKz2Td.s 			page 109


1261:Generated_Source\PSoC6\pdl\drivers\peripheral\smif/cy_smif.c ****             }
1262:Generated_Source\PSoC6\pdl\drivers\peripheral\smif/cy_smif.c ****             /* Add check memory that memory not in progress */
1263:Generated_Source\PSoC6\pdl\drivers\peripheral\smif/cy_smif.c ****         }
1264:Generated_Source\PSoC6\pdl\drivers\peripheral\smif/cy_smif.c ****         break;
 3428              		.loc 2 1264 0
 3429 00bc 13E0     		b	.L227
 3430              	.L225:
 3431              	.LBB7:
1259:Generated_Source\PSoC6\pdl\drivers\peripheral\smif/cy_smif.c ****                 retStatus = CY_SYSPM_SUCCESS;
 3432              		.loc 2 1259 0
 3433 00be 3869     		ldr	r0, [r7, #16]
 3434 00c0 FFF7FEFF 		bl	Cy_SMIF_Disable
1260:Generated_Source\PSoC6\pdl\drivers\peripheral\smif/cy_smif.c ****             }
 3435              		.loc 2 1260 0
 3436 00c4 0023     		movs	r3, #0
 3437 00c6 7B61     		str	r3, [r7, #20]
 3438              	.LBE7:
 3439              		.loc 2 1264 0
 3440 00c8 0DE0     		b	.L227
 3441              	.L216:
1265:Generated_Source\PSoC6\pdl\drivers\peripheral\smif/cy_smif.c **** 
1266:Generated_Source\PSoC6\pdl\drivers\peripheral\smif/cy_smif.c ****         case CY_SYSPM_CHECK_FAIL:
1267:Generated_Source\PSoC6\pdl\drivers\peripheral\smif/cy_smif.c ****         {
1268:Generated_Source\PSoC6\pdl\drivers\peripheral\smif/cy_smif.c ****             /* Other driver is not ready for Deep Sleep. Restore Active mode
1269:Generated_Source\PSoC6\pdl\drivers\peripheral\smif/cy_smif.c ****             * configuration.
1270:Generated_Source\PSoC6\pdl\drivers\peripheral\smif/cy_smif.c ****             */
1271:Generated_Source\PSoC6\pdl\drivers\peripheral\smif/cy_smif.c ****             Cy_SMIF_Enable(locBase, locContext);
 3442              		.loc 2 1271 0
 3443 00ca F968     		ldr	r1, [r7, #12]
 3444 00cc 3869     		ldr	r0, [r7, #16]
 3445 00ce FFF7FEFF 		bl	Cy_SMIF_Enable
1272:Generated_Source\PSoC6\pdl\drivers\peripheral\smif/cy_smif.c **** 
1273:Generated_Source\PSoC6\pdl\drivers\peripheral\smif/cy_smif.c ****         }
1274:Generated_Source\PSoC6\pdl\drivers\peripheral\smif/cy_smif.c ****         break;
 3446              		.loc 2 1274 0
 3447 00d2 08E0     		b	.L227
 3448              	.L218:
1275:Generated_Source\PSoC6\pdl\drivers\peripheral\smif/cy_smif.c **** 
1276:Generated_Source\PSoC6\pdl\drivers\peripheral\smif/cy_smif.c ****         case CY_SYSPM_BEFORE_TRANSITION:
1277:Generated_Source\PSoC6\pdl\drivers\peripheral\smif/cy_smif.c ****         {
1278:Generated_Source\PSoC6\pdl\drivers\peripheral\smif/cy_smif.c ****             /* This code executes inside critical section and enabling active
1279:Generated_Source\PSoC6\pdl\drivers\peripheral\smif/cy_smif.c ****             * interrupt source makes interrupt pending in the NVIC. However
1280:Generated_Source\PSoC6\pdl\drivers\peripheral\smif/cy_smif.c ****             * interrupt processing is delayed until code exists critical
1281:Generated_Source\PSoC6\pdl\drivers\peripheral\smif/cy_smif.c ****             * section. The pending interrupt force WFI instruction does
1282:Generated_Source\PSoC6\pdl\drivers\peripheral\smif/cy_smif.c ****             * nothing and device remains in the active mode.
1283:Generated_Source\PSoC6\pdl\drivers\peripheral\smif/cy_smif.c ****             */
1284:Generated_Source\PSoC6\pdl\drivers\peripheral\smif/cy_smif.c **** 
1285:Generated_Source\PSoC6\pdl\drivers\peripheral\smif/cy_smif.c ****             /* Put external memory in low power mode */
1286:Generated_Source\PSoC6\pdl\drivers\peripheral\smif/cy_smif.c ****         }
1287:Generated_Source\PSoC6\pdl\drivers\peripheral\smif/cy_smif.c ****         break;
1288:Generated_Source\PSoC6\pdl\drivers\peripheral\smif/cy_smif.c **** 
1289:Generated_Source\PSoC6\pdl\drivers\peripheral\smif/cy_smif.c ****         case CY_SYSPM_AFTER_TRANSITION:
1290:Generated_Source\PSoC6\pdl\drivers\peripheral\smif/cy_smif.c ****         {
1291:Generated_Source\PSoC6\pdl\drivers\peripheral\smif/cy_smif.c ****             /* Put external memory in active mode */
1292:Generated_Source\PSoC6\pdl\drivers\peripheral\smif/cy_smif.c ****             Cy_SMIF_Enable(locBase, locContext);
 3449              		.loc 2 1292 0
 3450 00d4 F968     		ldr	r1, [r7, #12]
ARM GAS  C:\Users\ikomb\AppData\Local\Temp\ccEKz2Td.s 			page 110


 3451 00d6 3869     		ldr	r0, [r7, #16]
 3452 00d8 FFF7FEFF 		bl	Cy_SMIF_Enable
1293:Generated_Source\PSoC6\pdl\drivers\peripheral\smif/cy_smif.c ****         }
1294:Generated_Source\PSoC6\pdl\drivers\peripheral\smif/cy_smif.c ****         break;
 3453              		.loc 2 1294 0
 3454 00dc 03E0     		b	.L227
 3455              	.L213:
1295:Generated_Source\PSoC6\pdl\drivers\peripheral\smif/cy_smif.c **** 
1296:Generated_Source\PSoC6\pdl\drivers\peripheral\smif/cy_smif.c ****         default:
1297:Generated_Source\PSoC6\pdl\drivers\peripheral\smif/cy_smif.c ****             retStatus = CY_SYSPM_FAIL;
 3456              		.loc 2 1297 0
 3457 00de 054B     		ldr	r3, .L230+4
 3458 00e0 7B61     		str	r3, [r7, #20]
1298:Generated_Source\PSoC6\pdl\drivers\peripheral\smif/cy_smif.c ****             break;
 3459              		.loc 2 1298 0
 3460 00e2 00E0     		b	.L227
 3461              	.L229:
1287:Generated_Source\PSoC6\pdl\drivers\peripheral\smif/cy_smif.c **** 
 3462              		.loc 2 1287 0
 3463 00e4 00BF     		nop
 3464              	.L227:
1299:Generated_Source\PSoC6\pdl\drivers\peripheral\smif/cy_smif.c ****     }
1300:Generated_Source\PSoC6\pdl\drivers\peripheral\smif/cy_smif.c **** 
1301:Generated_Source\PSoC6\pdl\drivers\peripheral\smif/cy_smif.c ****     return (retStatus);
 3465              		.loc 2 1301 0
 3466 00e6 7B69     		ldr	r3, [r7, #20]
1302:Generated_Source\PSoC6\pdl\drivers\peripheral\smif/cy_smif.c **** }
 3467              		.loc 2 1302 0
 3468 00e8 1846     		mov	r0, r3
 3469 00ea 1837     		adds	r7, r7, #24
 3470              		.cfi_def_cfa_offset 8
 3471 00ec BD46     		mov	sp, r7
 3472              		.cfi_def_cfa_register 13
 3473              		@ sp needed
 3474 00ee 80BD     		pop	{r7, pc}
 3475              	.L231:
 3476              		.align	2
 3477              	.L230:
 3478 00f0 00000000 		.word	.LC0
 3479 00f4 FF004200 		.word	4325631
 3480              		.cfi_endproc
 3481              	.LFE197:
 3482              		.size	Cy_SMIF_DeepSleepCallback, .-Cy_SMIF_DeepSleepCallback
 3483              		.section	.text.Cy_SMIF_HibernateCallback,"ax",%progbits
 3484              		.align	2
 3485              		.global	Cy_SMIF_HibernateCallback
 3486              		.thumb
 3487              		.thumb_func
 3488              		.type	Cy_SMIF_HibernateCallback, %function
 3489              	Cy_SMIF_HibernateCallback:
 3490              	.LFB198:
1303:Generated_Source\PSoC6\pdl\drivers\peripheral\smif/cy_smif.c **** 
1304:Generated_Source\PSoC6\pdl\drivers\peripheral\smif/cy_smif.c **** 
1305:Generated_Source\PSoC6\pdl\drivers\peripheral\smif/cy_smif.c **** /*******************************************************************************
1306:Generated_Source\PSoC6\pdl\drivers\peripheral\smif/cy_smif.c **** * Function Name: Cy_SMIF_HibernateCallback
1307:Generated_Source\PSoC6\pdl\drivers\peripheral\smif/cy_smif.c **** ****************************************************************************//**
1308:Generated_Source\PSoC6\pdl\drivers\peripheral\smif/cy_smif.c **** *
ARM GAS  C:\Users\ikomb\AppData\Local\Temp\ccEKz2Td.s 			page 111


1309:Generated_Source\PSoC6\pdl\drivers\peripheral\smif/cy_smif.c **** * This function handles the transition of the SMIF into Hibernate mode.
1310:Generated_Source\PSoC6\pdl\drivers\peripheral\smif/cy_smif.c **** * It prevents the device from entering Hibernate if the SMIF
1311:Generated_Source\PSoC6\pdl\drivers\peripheral\smif/cy_smif.c **** * is actively communicating, or there is any data in the TX or RX FIFO, or SMIF
1312:Generated_Source\PSoC6\pdl\drivers\peripheral\smif/cy_smif.c **** * is in memory mode.
1313:Generated_Source\PSoC6\pdl\drivers\peripheral\smif/cy_smif.c **** *
1314:Generated_Source\PSoC6\pdl\drivers\peripheral\smif/cy_smif.c **** * This function should be called during execution of \ref Cy_SysPm_Hibernate
1315:Generated_Source\PSoC6\pdl\drivers\peripheral\smif/cy_smif.c **** * therefore it must be registered as a callback before the call. To register it
1316:Generated_Source\PSoC6\pdl\drivers\peripheral\smif/cy_smif.c **** * call \ref Cy_SysPm_RegisterCallback and specify \ref CY_SYSPM_HIBERNATE
1317:Generated_Source\PSoC6\pdl\drivers\peripheral\smif/cy_smif.c **** * as the callback type.
1318:Generated_Source\PSoC6\pdl\drivers\peripheral\smif/cy_smif.c **** *
1319:Generated_Source\PSoC6\pdl\drivers\peripheral\smif/cy_smif.c **** * \note
1320:Generated_Source\PSoC6\pdl\drivers\peripheral\smif/cy_smif.c **** * This API is template and user should add code for external memory enter/exit
1321:Generated_Source\PSoC6\pdl\drivers\peripheral\smif/cy_smif.c **** * low power mode.
1322:Generated_Source\PSoC6\pdl\drivers\peripheral\smif/cy_smif.c **** *
1323:Generated_Source\PSoC6\pdl\drivers\peripheral\smif/cy_smif.c **** * \param callbackParams
1324:Generated_Source\PSoC6\pdl\drivers\peripheral\smif/cy_smif.c **** * The pointer to the structure with SMIF SysPm callback parameters (pointer to
1325:Generated_Source\PSoC6\pdl\drivers\peripheral\smif/cy_smif.c **** * SMIF registers, context and call mode \ref cy_stc_syspm_callback_params_t).
1326:Generated_Source\PSoC6\pdl\drivers\peripheral\smif/cy_smif.c **** *
1327:Generated_Source\PSoC6\pdl\drivers\peripheral\smif/cy_smif.c **** * \return
1328:Generated_Source\PSoC6\pdl\drivers\peripheral\smif/cy_smif.c **** * \ref cy_en_syspm_status_t
1329:Generated_Source\PSoC6\pdl\drivers\peripheral\smif/cy_smif.c **** *
1330:Generated_Source\PSoC6\pdl\drivers\peripheral\smif/cy_smif.c **** * Example setup of SysPM deep sleep and hibernate mode
1331:Generated_Source\PSoC6\pdl\drivers\peripheral\smif/cy_smif.c **** * \snippet smif/smif_sut_01.cydsn/main_cm4.c SMIF SysPM Callback
1332:Generated_Source\PSoC6\pdl\drivers\peripheral\smif/cy_smif.c **** *
1333:Generated_Source\PSoC6\pdl\drivers\peripheral\smif/cy_smif.c **** *******************************************************************************/
1334:Generated_Source\PSoC6\pdl\drivers\peripheral\smif/cy_smif.c **** cy_en_syspm_status_t Cy_SMIF_HibernateCallback(cy_stc_syspm_callback_params_t *callbackParams)
1335:Generated_Source\PSoC6\pdl\drivers\peripheral\smif/cy_smif.c **** {
 3491              		.loc 2 1335 0
 3492              		.cfi_startproc
 3493              		@ args = 0, pretend = 0, frame = 24
 3494              		@ frame_needed = 1, uses_anonymous_args = 0
 3495 0000 80B5     		push	{r7, lr}
 3496              		.cfi_def_cfa_offset 8
 3497              		.cfi_offset 7, -8
 3498              		.cfi_offset 14, -4
 3499 0002 86B0     		sub	sp, sp, #24
 3500              		.cfi_def_cfa_offset 32
 3501 0004 00AF     		add	r7, sp, #0
 3502              		.cfi_def_cfa_register 7
 3503 0006 7860     		str	r0, [r7, #4]
1336:Generated_Source\PSoC6\pdl\drivers\peripheral\smif/cy_smif.c ****     cy_en_syspm_status_t retStatus = CY_SYSPM_SUCCESS;
 3504              		.loc 2 1336 0
 3505 0008 0023     		movs	r3, #0
 3506 000a 7B61     		str	r3, [r7, #20]
1337:Generated_Source\PSoC6\pdl\drivers\peripheral\smif/cy_smif.c **** 
1338:Generated_Source\PSoC6\pdl\drivers\peripheral\smif/cy_smif.c ****     CY_ASSERT_L1(NULL != callbackParams);
 3507              		.loc 2 1338 0
 3508 000c 7B68     		ldr	r3, [r7, #4]
 3509 000e 002B     		cmp	r3, #0
 3510 0010 04D1     		bne	.L233
 3511              		.loc 2 1338 0 is_stmt 0 discriminator 1
 3512 0012 40F23A51 		movw	r1, #1338
 3513 0016 3648     		ldr	r0, .L251
 3514 0018 FFF7FEFF 		bl	Cy_SysLib_AssertFailed
 3515              	.L233:
1339:Generated_Source\PSoC6\pdl\drivers\peripheral\smif/cy_smif.c ****     
1340:Generated_Source\PSoC6\pdl\drivers\peripheral\smif/cy_smif.c ****     SMIF_Type *locBase = (SMIF_Type *) callbackParams->base;
ARM GAS  C:\Users\ikomb\AppData\Local\Temp\ccEKz2Td.s 			page 112


 3516              		.loc 2 1340 0 is_stmt 1
 3517 001c 7B68     		ldr	r3, [r7, #4]
 3518 001e 5B68     		ldr	r3, [r3, #4]
 3519 0020 3B61     		str	r3, [r7, #16]
1341:Generated_Source\PSoC6\pdl\drivers\peripheral\smif/cy_smif.c ****     cy_stc_smif_context_t *locContext = (cy_stc_smif_context_t *) callbackParams->context;
 3520              		.loc 2 1341 0
 3521 0022 7B68     		ldr	r3, [r7, #4]
 3522 0024 9B68     		ldr	r3, [r3, #8]
 3523 0026 FB60     		str	r3, [r7, #12]
1342:Generated_Source\PSoC6\pdl\drivers\peripheral\smif/cy_smif.c **** 
1343:Generated_Source\PSoC6\pdl\drivers\peripheral\smif/cy_smif.c ****     switch(callbackParams->mode)
 3524              		.loc 2 1343 0
 3525 0028 7B68     		ldr	r3, [r7, #4]
 3526 002a 1B78     		ldrb	r3, [r3]	@ zero_extendqisi2
 3527 002c 013B     		subs	r3, r3, #1
 3528 002e 072B     		cmp	r3, #7
 3529 0030 55D8     		bhi	.L234
 3530 0032 01A2     		adr	r2, .L236
 3531 0034 52F823F0 		ldr	pc, [r2, r3, lsl #2]
 3532              		.p2align 2
 3533              	.L236:
 3534 0038 59000000 		.word	.L235+1
 3535 003c CB000000 		.word	.L237+1
 3536 0040 DF000000 		.word	.L234+1
 3537 0044 E5000000 		.word	.L250+1
 3538 0048 DF000000 		.word	.L234+1
 3539 004c DF000000 		.word	.L234+1
 3540 0050 DF000000 		.word	.L234+1
 3541 0054 D5000000 		.word	.L239+1
 3542              		.p2align 1
 3543              	.L235:
 3544              	.LBB8:
1344:Generated_Source\PSoC6\pdl\drivers\peripheral\smif/cy_smif.c ****     {
1345:Generated_Source\PSoC6\pdl\drivers\peripheral\smif/cy_smif.c ****         case CY_SYSPM_CHECK_READY:
1346:Generated_Source\PSoC6\pdl\drivers\peripheral\smif/cy_smif.c ****         {
1347:Generated_Source\PSoC6\pdl\drivers\peripheral\smif/cy_smif.c ****             /* Check if API is not busy executing transfer operation 
1348:Generated_Source\PSoC6\pdl\drivers\peripheral\smif/cy_smif.c ****             * If SPI bus is not busy, all data elements are transferred on
1349:Generated_Source\PSoC6\pdl\drivers\peripheral\smif/cy_smif.c ****             * the bus from the TX FIFO and shifter and the RX FIFIOs is
1350:Generated_Source\PSoC6\pdl\drivers\peripheral\smif/cy_smif.c ****             * empty - the SPI is ready enter Deep Sleep.
1351:Generated_Source\PSoC6\pdl\drivers\peripheral\smif/cy_smif.c ****             */
1352:Generated_Source\PSoC6\pdl\drivers\peripheral\smif/cy_smif.c ****             bool checkFail = (CY_SMIF_REC_BUSY == (cy_en_smif_txfr_status_t)
1353:Generated_Source\PSoC6\pdl\drivers\peripheral\smif/cy_smif.c ****                                 Cy_SMIF_GetTxfrStatus(locBase, locContext));
 3545              		.loc 2 1353 0
 3546 0058 F968     		ldr	r1, [r7, #12]
 3547 005a 3869     		ldr	r0, [r7, #16]
 3548 005c FFF7FEFF 		bl	Cy_SMIF_GetTxfrStatus
 3549 0060 0346     		mov	r3, r0
1352:Generated_Source\PSoC6\pdl\drivers\peripheral\smif/cy_smif.c ****                                 Cy_SMIF_GetTxfrStatus(locBase, locContext));
 3550              		.loc 2 1352 0
 3551 0062 DBB2     		uxtb	r3, r3
 3552 0064 042B     		cmp	r3, #4
 3553 0066 0CBF     		ite	eq
 3554 0068 0123     		moveq	r3, #1
 3555 006a 0023     		movne	r3, #0
 3556 006c FB72     		strb	r3, [r7, #11]
1354:Generated_Source\PSoC6\pdl\drivers\peripheral\smif/cy_smif.c ****             checkFail = (Cy_SMIF_BusyCheck(locBase)) || checkFail;
 3557              		.loc 2 1354 0
ARM GAS  C:\Users\ikomb\AppData\Local\Temp\ccEKz2Td.s 			page 113


 3558 006e 3869     		ldr	r0, [r7, #16]
 3559 0070 FFF7FEFF 		bl	Cy_SMIF_BusyCheck
 3560 0074 0346     		mov	r3, r0
 3561 0076 002B     		cmp	r3, #0
 3562 0078 02D1     		bne	.L240
 3563              		.loc 2 1354 0 is_stmt 0 discriminator 2
 3564 007a FB7A     		ldrb	r3, [r7, #11]	@ zero_extendqisi2
 3565 007c 002B     		cmp	r3, #0
 3566 007e 01D0     		beq	.L241
 3567              	.L240:
 3568              		.loc 2 1354 0 discriminator 3
 3569 0080 0123     		movs	r3, #1
 3570 0082 00E0     		b	.L242
 3571              	.L241:
 3572              		.loc 2 1354 0 discriminator 4
 3573 0084 0023     		movs	r3, #0
 3574              	.L242:
 3575              		.loc 2 1354 0 discriminator 6
 3576 0086 FB72     		strb	r3, [r7, #11]
 3577 0088 FB7A     		ldrb	r3, [r7, #11]
 3578 008a 03F00103 		and	r3, r3, #1
 3579 008e FB72     		strb	r3, [r7, #11]
1355:Generated_Source\PSoC6\pdl\drivers\peripheral\smif/cy_smif.c ****             checkFail = (Cy_SMIF_GetMode(locBase) == CY_SMIF_MEMORY) || checkFail;
 3580              		.loc 2 1355 0 is_stmt 1 discriminator 6
 3581 0090 3869     		ldr	r0, [r7, #16]
 3582 0092 FFF7FEFF 		bl	Cy_SMIF_GetMode
 3583 0096 0346     		mov	r3, r0
 3584 0098 012B     		cmp	r3, #1
 3585 009a 02D0     		beq	.L243
 3586              		.loc 2 1355 0 is_stmt 0 discriminator 2
 3587 009c FB7A     		ldrb	r3, [r7, #11]	@ zero_extendqisi2
 3588 009e 002B     		cmp	r3, #0
 3589 00a0 01D0     		beq	.L244
 3590              	.L243:
 3591              		.loc 2 1355 0 discriminator 3
 3592 00a2 0123     		movs	r3, #1
 3593 00a4 00E0     		b	.L245
 3594              	.L244:
 3595              		.loc 2 1355 0 discriminator 4
 3596 00a6 0023     		movs	r3, #0
 3597              	.L245:
 3598              		.loc 2 1355 0 discriminator 6
 3599 00a8 FB72     		strb	r3, [r7, #11]
 3600 00aa FB7A     		ldrb	r3, [r7, #11]
 3601 00ac 03F00103 		and	r3, r3, #1
 3602 00b0 FB72     		strb	r3, [r7, #11]
1356:Generated_Source\PSoC6\pdl\drivers\peripheral\smif/cy_smif.c **** 
1357:Generated_Source\PSoC6\pdl\drivers\peripheral\smif/cy_smif.c ****             if (checkFail)
 3603              		.loc 2 1357 0 is_stmt 1 discriminator 6
 3604 00b2 FB7A     		ldrb	r3, [r7, #11]	@ zero_extendqisi2
 3605 00b4 002B     		cmp	r3, #0
 3606 00b6 02D0     		beq	.L246
1358:Generated_Source\PSoC6\pdl\drivers\peripheral\smif/cy_smif.c ****             {
1359:Generated_Source\PSoC6\pdl\drivers\peripheral\smif/cy_smif.c ****                 retStatus = CY_SYSPM_FAIL;
 3607              		.loc 2 1359 0
 3608 00b8 0E4B     		ldr	r3, .L251+4
 3609 00ba 7B61     		str	r3, [r7, #20]
ARM GAS  C:\Users\ikomb\AppData\Local\Temp\ccEKz2Td.s 			page 114


 3610              	.LBE8:
1360:Generated_Source\PSoC6\pdl\drivers\peripheral\smif/cy_smif.c **** 
1361:Generated_Source\PSoC6\pdl\drivers\peripheral\smif/cy_smif.c ****             }
1362:Generated_Source\PSoC6\pdl\drivers\peripheral\smif/cy_smif.c ****             else
1363:Generated_Source\PSoC6\pdl\drivers\peripheral\smif/cy_smif.c ****             {
1364:Generated_Source\PSoC6\pdl\drivers\peripheral\smif/cy_smif.c ****                 retStatus = CY_SYSPM_SUCCESS;
1365:Generated_Source\PSoC6\pdl\drivers\peripheral\smif/cy_smif.c ****                 Cy_SMIF_Disable(locBase);
1366:Generated_Source\PSoC6\pdl\drivers\peripheral\smif/cy_smif.c ****             }
1367:Generated_Source\PSoC6\pdl\drivers\peripheral\smif/cy_smif.c ****             /* Add check memory that memory not in progress */
1368:Generated_Source\PSoC6\pdl\drivers\peripheral\smif/cy_smif.c ****         }
1369:Generated_Source\PSoC6\pdl\drivers\peripheral\smif/cy_smif.c ****         break;
 3611              		.loc 2 1369 0
 3612 00bc 13E0     		b	.L248
 3613              	.L246:
 3614              	.LBB9:
1364:Generated_Source\PSoC6\pdl\drivers\peripheral\smif/cy_smif.c ****                 Cy_SMIF_Disable(locBase);
 3615              		.loc 2 1364 0
 3616 00be 0023     		movs	r3, #0
 3617 00c0 7B61     		str	r3, [r7, #20]
1365:Generated_Source\PSoC6\pdl\drivers\peripheral\smif/cy_smif.c ****             }
 3618              		.loc 2 1365 0
 3619 00c2 3869     		ldr	r0, [r7, #16]
 3620 00c4 FFF7FEFF 		bl	Cy_SMIF_Disable
 3621              	.LBE9:
 3622              		.loc 2 1369 0
 3623 00c8 0DE0     		b	.L248
 3624              	.L237:
1370:Generated_Source\PSoC6\pdl\drivers\peripheral\smif/cy_smif.c **** 
1371:Generated_Source\PSoC6\pdl\drivers\peripheral\smif/cy_smif.c ****         case CY_SYSPM_CHECK_FAIL:
1372:Generated_Source\PSoC6\pdl\drivers\peripheral\smif/cy_smif.c ****         {
1373:Generated_Source\PSoC6\pdl\drivers\peripheral\smif/cy_smif.c ****             /* Other driver is not ready for Deep Sleep. Restore Active mode
1374:Generated_Source\PSoC6\pdl\drivers\peripheral\smif/cy_smif.c ****             * configuration.
1375:Generated_Source\PSoC6\pdl\drivers\peripheral\smif/cy_smif.c ****             */
1376:Generated_Source\PSoC6\pdl\drivers\peripheral\smif/cy_smif.c ****             Cy_SMIF_Enable(locBase, locContext);
 3625              		.loc 2 1376 0
 3626 00ca F968     		ldr	r1, [r7, #12]
 3627 00cc 3869     		ldr	r0, [r7, #16]
 3628 00ce FFF7FEFF 		bl	Cy_SMIF_Enable
1377:Generated_Source\PSoC6\pdl\drivers\peripheral\smif/cy_smif.c **** 
1378:Generated_Source\PSoC6\pdl\drivers\peripheral\smif/cy_smif.c ****         }
1379:Generated_Source\PSoC6\pdl\drivers\peripheral\smif/cy_smif.c ****         break;
 3629              		.loc 2 1379 0
 3630 00d2 08E0     		b	.L248
 3631              	.L239:
1380:Generated_Source\PSoC6\pdl\drivers\peripheral\smif/cy_smif.c **** 
1381:Generated_Source\PSoC6\pdl\drivers\peripheral\smif/cy_smif.c ****         case CY_SYSPM_BEFORE_TRANSITION:
1382:Generated_Source\PSoC6\pdl\drivers\peripheral\smif/cy_smif.c ****         {
1383:Generated_Source\PSoC6\pdl\drivers\peripheral\smif/cy_smif.c ****             /* Put external memory in low power mode */
1384:Generated_Source\PSoC6\pdl\drivers\peripheral\smif/cy_smif.c ****         }
1385:Generated_Source\PSoC6\pdl\drivers\peripheral\smif/cy_smif.c ****         break;
1386:Generated_Source\PSoC6\pdl\drivers\peripheral\smif/cy_smif.c **** 
1387:Generated_Source\PSoC6\pdl\drivers\peripheral\smif/cy_smif.c ****         case CY_SYSPM_AFTER_TRANSITION:
1388:Generated_Source\PSoC6\pdl\drivers\peripheral\smif/cy_smif.c ****         {
1389:Generated_Source\PSoC6\pdl\drivers\peripheral\smif/cy_smif.c ****             Cy_SMIF_Enable(locBase, locContext);
 3632              		.loc 2 1389 0
 3633 00d4 F968     		ldr	r1, [r7, #12]
 3634 00d6 3869     		ldr	r0, [r7, #16]
ARM GAS  C:\Users\ikomb\AppData\Local\Temp\ccEKz2Td.s 			page 115


 3635 00d8 FFF7FEFF 		bl	Cy_SMIF_Enable
1390:Generated_Source\PSoC6\pdl\drivers\peripheral\smif/cy_smif.c ****             /* Put external memory in active mode */
1391:Generated_Source\PSoC6\pdl\drivers\peripheral\smif/cy_smif.c **** 
1392:Generated_Source\PSoC6\pdl\drivers\peripheral\smif/cy_smif.c ****         }
1393:Generated_Source\PSoC6\pdl\drivers\peripheral\smif/cy_smif.c ****         break;
 3636              		.loc 2 1393 0
 3637 00dc 03E0     		b	.L248
 3638              	.L234:
1394:Generated_Source\PSoC6\pdl\drivers\peripheral\smif/cy_smif.c **** 
1395:Generated_Source\PSoC6\pdl\drivers\peripheral\smif/cy_smif.c ****         default:
1396:Generated_Source\PSoC6\pdl\drivers\peripheral\smif/cy_smif.c ****             retStatus = CY_SYSPM_FAIL;
 3639              		.loc 2 1396 0
 3640 00de 054B     		ldr	r3, .L251+4
 3641 00e0 7B61     		str	r3, [r7, #20]
1397:Generated_Source\PSoC6\pdl\drivers\peripheral\smif/cy_smif.c ****         break;
 3642              		.loc 2 1397 0
 3643 00e2 00E0     		b	.L248
 3644              	.L250:
1385:Generated_Source\PSoC6\pdl\drivers\peripheral\smif/cy_smif.c **** 
 3645              		.loc 2 1385 0
 3646 00e4 00BF     		nop
 3647              	.L248:
1398:Generated_Source\PSoC6\pdl\drivers\peripheral\smif/cy_smif.c ****     }
1399:Generated_Source\PSoC6\pdl\drivers\peripheral\smif/cy_smif.c **** 
1400:Generated_Source\PSoC6\pdl\drivers\peripheral\smif/cy_smif.c ****     return (retStatus);
 3648              		.loc 2 1400 0
 3649 00e6 7B69     		ldr	r3, [r7, #20]
1401:Generated_Source\PSoC6\pdl\drivers\peripheral\smif/cy_smif.c **** }
 3650              		.loc 2 1401 0
 3651 00e8 1846     		mov	r0, r3
 3652 00ea 1837     		adds	r7, r7, #24
 3653              		.cfi_def_cfa_offset 8
 3654 00ec BD46     		mov	sp, r7
 3655              		.cfi_def_cfa_register 13
 3656              		@ sp needed
 3657 00ee 80BD     		pop	{r7, pc}
 3658              	.L252:
 3659              		.align	2
 3660              	.L251:
 3661 00f0 00000000 		.word	.LC0
 3662 00f4 FF004200 		.word	4325631
 3663              		.cfi_endproc
 3664              	.LFE198:
 3665              		.size	Cy_SMIF_HibernateCallback, .-Cy_SMIF_HibernateCallback
 3666              		.text
 3667              	.Letext0:
 3668              		.file 3 "c:\\program files (x86)\\cypress\\psoc creator\\4.4\\psoc creator\\import\\gnu\\arm\\5.4.
 3669              		.file 4 "c:\\program files (x86)\\cypress\\psoc creator\\4.4\\psoc creator\\import\\gnu\\arm\\5.4.
 3670              		.file 5 "Generated_Source\\PSoC6\\pdl\\devices/psoc6/ip/cyip_smif.h"
 3671              		.file 6 "Generated_Source\\PSoC6\\pdl\\drivers/peripheral/syslib/cy_syslib.h"
 3672              		.file 7 "Generated_Source\\PSoC6\\pdl\\drivers/peripheral/syspm/cy_syspm.h"
 3673              		.file 8 "Generated_Source\\PSoC6\\pdl\\cmsis/include/core_cm4.h"
 3674              		.section	.debug_info,"",%progbits
 3675              	.Ldebug_info0:
 3676 0000 8C150000 		.4byte	0x158c
 3677 0004 0400     		.2byte	0x4
 3678 0006 00000000 		.4byte	.Ldebug_abbrev0
ARM GAS  C:\Users\ikomb\AppData\Local\Temp\ccEKz2Td.s 			page 116


 3679 000a 04       		.byte	0x4
 3680 000b 01       		.uleb128 0x1
 3681 000c 150F0000 		.4byte	.LASF250
 3682 0010 0C       		.byte	0xc
 3683 0011 C1020000 		.4byte	.LASF251
 3684 0015 46010000 		.4byte	.LASF252
 3685 0019 48000000 		.4byte	.Ldebug_ranges0+0x48
 3686 001d 00000000 		.4byte	0
 3687 0021 00000000 		.4byte	.Ldebug_line0
 3688 0025 02       		.uleb128 0x2
 3689 0026 01       		.byte	0x1
 3690 0027 06       		.byte	0x6
 3691 0028 600E0000 		.4byte	.LASF0
 3692 002c 03       		.uleb128 0x3
 3693 002d F00B0000 		.4byte	.LASF4
 3694 0031 03       		.byte	0x3
 3695 0032 1D       		.byte	0x1d
 3696 0033 37000000 		.4byte	0x37
 3697 0037 02       		.uleb128 0x2
 3698 0038 01       		.byte	0x1
 3699 0039 08       		.byte	0x8
 3700 003a 010D0000 		.4byte	.LASF1
 3701 003e 02       		.uleb128 0x2
 3702 003f 02       		.byte	0x2
 3703 0040 05       		.byte	0x5
 3704 0041 B7020000 		.4byte	.LASF2
 3705 0045 02       		.uleb128 0x2
 3706 0046 02       		.byte	0x2
 3707 0047 07       		.byte	0x7
 3708 0048 6C0E0000 		.4byte	.LASF3
 3709 004c 03       		.uleb128 0x3
 3710 004d E1010000 		.4byte	.LASF5
 3711 0051 03       		.byte	0x3
 3712 0052 3F       		.byte	0x3f
 3713 0053 57000000 		.4byte	0x57
 3714 0057 02       		.uleb128 0x2
 3715 0058 04       		.byte	0x4
 3716 0059 05       		.byte	0x5
 3717 005a 16000000 		.4byte	.LASF6
 3718 005e 03       		.uleb128 0x3
 3719 005f 0F0D0000 		.4byte	.LASF7
 3720 0063 03       		.byte	0x3
 3721 0064 41       		.byte	0x41
 3722 0065 69000000 		.4byte	0x69
 3723 0069 02       		.uleb128 0x2
 3724 006a 04       		.byte	0x4
 3725 006b 07       		.byte	0x7
 3726 006c 550C0000 		.4byte	.LASF8
 3727 0070 02       		.uleb128 0x2
 3728 0071 08       		.byte	0x8
 3729 0072 05       		.byte	0x5
 3730 0073 32080000 		.4byte	.LASF9
 3731 0077 02       		.uleb128 0x2
 3732 0078 08       		.byte	0x8
 3733 0079 07       		.byte	0x7
 3734 007a AC040000 		.4byte	.LASF10
 3735 007e 04       		.uleb128 0x4
ARM GAS  C:\Users\ikomb\AppData\Local\Temp\ccEKz2Td.s 			page 117


 3736 007f 04       		.byte	0x4
 3737 0080 05       		.byte	0x5
 3738 0081 696E7400 		.ascii	"int\000"
 3739 0085 02       		.uleb128 0x2
 3740 0086 04       		.byte	0x4
 3741 0087 07       		.byte	0x7
 3742 0088 D4010000 		.4byte	.LASF11
 3743 008c 03       		.uleb128 0x3
 3744 008d E8070000 		.4byte	.LASF12
 3745 0091 04       		.byte	0x4
 3746 0092 18       		.byte	0x18
 3747 0093 2C000000 		.4byte	0x2c
 3748 0097 03       		.uleb128 0x3
 3749 0098 7E0C0000 		.4byte	.LASF13
 3750 009c 04       		.byte	0x4
 3751 009d 2C       		.byte	0x2c
 3752 009e 4C000000 		.4byte	0x4c
 3753 00a2 03       		.uleb128 0x3
 3754 00a3 2B040000 		.4byte	.LASF14
 3755 00a7 04       		.byte	0x4
 3756 00a8 30       		.byte	0x30
 3757 00a9 5E000000 		.4byte	0x5e
 3758 00ad 02       		.uleb128 0x2
 3759 00ae 08       		.byte	0x8
 3760 00af 04       		.byte	0x4
 3761 00b0 E7090000 		.4byte	.LASF15
 3762 00b4 02       		.uleb128 0x2
 3763 00b5 04       		.byte	0x4
 3764 00b6 07       		.byte	0x7
 3765 00b7 3D0C0000 		.4byte	.LASF16
 3766 00bb 05       		.uleb128 0x5
 3767 00bc A2000000 		.4byte	0xa2
 3768 00c0 05       		.uleb128 0x5
 3769 00c1 8C000000 		.4byte	0x8c
 3770 00c5 06       		.uleb128 0x6
 3771 00c6 BB000000 		.4byte	0xbb
 3772 00ca 07       		.uleb128 0x7
 3773 00cb C5000000 		.4byte	0xc5
 3774 00cf DA000000 		.4byte	0xda
 3775 00d3 08       		.uleb128 0x8
 3776 00d4 B4000000 		.4byte	0xb4
 3777 00d8 01       		.byte	0x1
 3778 00d9 00       		.byte	0
 3779 00da 07       		.uleb128 0x7
 3780 00db C5000000 		.4byte	0xc5
 3781 00df EA000000 		.4byte	0xea
 3782 00e3 08       		.uleb128 0x8
 3783 00e4 B4000000 		.4byte	0xb4
 3784 00e8 03       		.byte	0x3
 3785 00e9 00       		.byte	0
 3786 00ea 07       		.uleb128 0x7
 3787 00eb C5000000 		.4byte	0xc5
 3788 00ef FA000000 		.4byte	0xfa
 3789 00f3 08       		.uleb128 0x8
 3790 00f4 B4000000 		.4byte	0xb4
 3791 00f8 06       		.byte	0x6
 3792 00f9 00       		.byte	0
ARM GAS  C:\Users\ikomb\AppData\Local\Temp\ccEKz2Td.s 			page 118


 3793 00fa 07       		.uleb128 0x7
 3794 00fb C5000000 		.4byte	0xc5
 3795 00ff 0A010000 		.4byte	0x10a
 3796 0103 08       		.uleb128 0x8
 3797 0104 B4000000 		.4byte	0xb4
 3798 0108 02       		.byte	0x2
 3799 0109 00       		.byte	0
 3800 010a 07       		.uleb128 0x7
 3801 010b C5000000 		.4byte	0xc5
 3802 010f 1A010000 		.4byte	0x11a
 3803 0113 08       		.uleb128 0x8
 3804 0114 B4000000 		.4byte	0xb4
 3805 0118 0E       		.byte	0xe
 3806 0119 00       		.byte	0
 3807 011a 07       		.uleb128 0x7
 3808 011b C5000000 		.4byte	0xc5
 3809 011f 2A010000 		.4byte	0x12a
 3810 0123 08       		.uleb128 0x8
 3811 0124 B4000000 		.4byte	0xb4
 3812 0128 0B       		.byte	0xb
 3813 0129 00       		.byte	0
 3814 012a 07       		.uleb128 0x7
 3815 012b C5000000 		.4byte	0xc5
 3816 012f 3A010000 		.4byte	0x13a
 3817 0133 08       		.uleb128 0x8
 3818 0134 B4000000 		.4byte	0xb4
 3819 0138 1C       		.byte	0x1c
 3820 0139 00       		.byte	0
 3821 013a 07       		.uleb128 0x7
 3822 013b C5000000 		.4byte	0xc5
 3823 013f 4A010000 		.4byte	0x14a
 3824 0143 08       		.uleb128 0x8
 3825 0144 B4000000 		.4byte	0xb4
 3826 0148 0A       		.byte	0xa
 3827 0149 00       		.byte	0
 3828 014a 09       		.uleb128 0x9
 3829 014b 80       		.byte	0x80
 3830 014c 05       		.byte	0x5
 3831 014d 22       		.byte	0x22
 3832 014e 37020000 		.4byte	0x237
 3833 0152 0A       		.uleb128 0xa
 3834 0153 43544C00 		.ascii	"CTL\000"
 3835 0157 05       		.byte	0x5
 3836 0158 23       		.byte	0x23
 3837 0159 BB000000 		.4byte	0xbb
 3838 015d 00       		.byte	0
 3839 015e 0B       		.uleb128 0xb
 3840 015f 62030000 		.4byte	.LASF17
 3841 0163 05       		.byte	0x5
 3842 0164 24       		.byte	0x24
 3843 0165 C5000000 		.4byte	0xc5
 3844 0169 04       		.byte	0x4
 3845 016a 0B       		.uleb128 0xb
 3846 016b 8D090000 		.4byte	.LASF18
 3847 016f 05       		.byte	0x5
 3848 0170 25       		.byte	0x25
 3849 0171 BB000000 		.4byte	0xbb
ARM GAS  C:\Users\ikomb\AppData\Local\Temp\ccEKz2Td.s 			page 119


 3850 0175 08       		.byte	0x8
 3851 0176 0B       		.uleb128 0xb
 3852 0177 1D050000 		.4byte	.LASF19
 3853 017b 05       		.byte	0x5
 3854 017c 26       		.byte	0x26
 3855 017d BB000000 		.4byte	0xbb
 3856 0181 0C       		.byte	0xc
 3857 0182 0B       		.uleb128 0xb
 3858 0183 A20A0000 		.4byte	.LASF20
 3859 0187 05       		.byte	0x5
 3860 0188 27       		.byte	0x27
 3861 0189 3C020000 		.4byte	0x23c
 3862 018d 10       		.byte	0x10
 3863 018e 0B       		.uleb128 0xb
 3864 018f D3080000 		.4byte	.LASF21
 3865 0193 05       		.byte	0x5
 3866 0194 28       		.byte	0x28
 3867 0195 BB000000 		.4byte	0xbb
 3868 0199 20       		.byte	0x20
 3869 019a 0B       		.uleb128 0xb
 3870 019b AC0A0000 		.4byte	.LASF22
 3871 019f 05       		.byte	0x5
 3872 01a0 29       		.byte	0x29
 3873 01a1 46020000 		.4byte	0x246
 3874 01a5 24       		.byte	0x24
 3875 01a6 0B       		.uleb128 0xb
 3876 01a7 E10E0000 		.4byte	.LASF23
 3877 01ab 05       		.byte	0x5
 3878 01ac 2A       		.byte	0x2a
 3879 01ad BB000000 		.4byte	0xbb
 3880 01b1 40       		.byte	0x40
 3881 01b2 0B       		.uleb128 0xb
 3882 01b3 56030000 		.4byte	.LASF24
 3883 01b7 05       		.byte	0x5
 3884 01b8 2B       		.byte	0x2b
 3885 01b9 BB000000 		.4byte	0xbb
 3886 01bd 44       		.byte	0x44
 3887 01be 0B       		.uleb128 0xb
 3888 01bf F6030000 		.4byte	.LASF25
 3889 01c3 05       		.byte	0x5
 3890 01c4 2C       		.byte	0x2c
 3891 01c5 BB000000 		.4byte	0xbb
 3892 01c9 48       		.byte	0x48
 3893 01ca 0B       		.uleb128 0xb
 3894 01cb 080B0000 		.4byte	.LASF26
 3895 01cf 05       		.byte	0x5
 3896 01d0 2D       		.byte	0x2d
 3897 01d1 BB000000 		.4byte	0xbb
 3898 01d5 4C       		.byte	0x4c
 3899 01d6 0B       		.uleb128 0xb
 3900 01d7 48040000 		.4byte	.LASF27
 3901 01db 05       		.byte	0x5
 3902 01dc 2E       		.byte	0x2e
 3903 01dd BB000000 		.4byte	0xbb
 3904 01e1 50       		.byte	0x50
 3905 01e2 0B       		.uleb128 0xb
 3906 01e3 B60A0000 		.4byte	.LASF28
ARM GAS  C:\Users\ikomb\AppData\Local\Temp\ccEKz2Td.s 			page 120


 3907 01e7 05       		.byte	0x5
 3908 01e8 2F       		.byte	0x2f
 3909 01e9 50020000 		.4byte	0x250
 3910 01ed 54       		.byte	0x54
 3911 01ee 0B       		.uleb128 0xb
 3912 01ef 54040000 		.4byte	.LASF29
 3913 01f3 05       		.byte	0x5
 3914 01f4 30       		.byte	0x30
 3915 01f5 BB000000 		.4byte	0xbb
 3916 01f9 60       		.byte	0x60
 3917 01fa 0B       		.uleb128 0xb
 3918 01fb 120A0000 		.4byte	.LASF30
 3919 01ff 05       		.byte	0x5
 3920 0200 31       		.byte	0x31
 3921 0201 BB000000 		.4byte	0xbb
 3922 0205 64       		.byte	0x64
 3923 0206 0B       		.uleb128 0xb
 3924 0207 850A0000 		.4byte	.LASF31
 3925 020b 05       		.byte	0x5
 3926 020c 32       		.byte	0x32
 3927 020d BB000000 		.4byte	0xbb
 3928 0211 68       		.byte	0x68
 3929 0212 0B       		.uleb128 0xb
 3930 0213 7F0E0000 		.4byte	.LASF32
 3931 0217 05       		.byte	0x5
 3932 0218 33       		.byte	0x33
 3933 0219 BB000000 		.4byte	0xbb
 3934 021d 6C       		.byte	0x6c
 3935 021e 0B       		.uleb128 0xb
 3936 021f 310B0000 		.4byte	.LASF33
 3937 0223 05       		.byte	0x5
 3938 0224 34       		.byte	0x34
 3939 0225 BB000000 		.4byte	0xbb
 3940 0229 70       		.byte	0x70
 3941 022a 0B       		.uleb128 0xb
 3942 022b C00A0000 		.4byte	.LASF34
 3943 022f 05       		.byte	0x5
 3944 0230 35       		.byte	0x35
 3945 0231 5A020000 		.4byte	0x25a
 3946 0235 74       		.byte	0x74
 3947 0236 00       		.byte	0
 3948 0237 05       		.uleb128 0x5
 3949 0238 DA000000 		.4byte	0xda
 3950 023c 06       		.uleb128 0x6
 3951 023d 37020000 		.4byte	0x237
 3952 0241 05       		.uleb128 0x5
 3953 0242 EA000000 		.4byte	0xea
 3954 0246 06       		.uleb128 0x6
 3955 0247 41020000 		.4byte	0x241
 3956 024b 05       		.uleb128 0x5
 3957 024c FA000000 		.4byte	0xfa
 3958 0250 06       		.uleb128 0x6
 3959 0251 4B020000 		.4byte	0x24b
 3960 0255 05       		.uleb128 0x5
 3961 0256 FA000000 		.4byte	0xfa
 3962 025a 06       		.uleb128 0x6
 3963 025b 55020000 		.4byte	0x255
ARM GAS  C:\Users\ikomb\AppData\Local\Temp\ccEKz2Td.s 			page 121


 3964 025f 03       		.uleb128 0x3
 3965 0260 11080000 		.4byte	.LASF35
 3966 0264 05       		.byte	0x5
 3967 0265 36       		.byte	0x36
 3968 0266 4A010000 		.4byte	0x14a
 3969 026a 0C       		.uleb128 0xc
 3970 026b 000A     		.2byte	0xa00
 3971 026d 05       		.byte	0x5
 3972 026e 3B       		.byte	0x3b
 3973 026f 1B050000 		.4byte	0x51b
 3974 0273 0A       		.uleb128 0xa
 3975 0274 43544C00 		.ascii	"CTL\000"
 3976 0278 05       		.byte	0x5
 3977 0279 3C       		.byte	0x3c
 3978 027a BB000000 		.4byte	0xbb
 3979 027e 00       		.byte	0
 3980 027f 0B       		.uleb128 0xb
 3981 0280 00070000 		.4byte	.LASF36
 3982 0284 05       		.byte	0x5
 3983 0285 3D       		.byte	0x3d
 3984 0286 C5000000 		.4byte	0xc5
 3985 028a 04       		.byte	0x4
 3986 028b 0B       		.uleb128 0xb
 3987 028c 62030000 		.4byte	.LASF17
 3988 0290 05       		.byte	0x5
 3989 0291 3E       		.byte	0x3e
 3990 0292 20050000 		.4byte	0x520
 3991 0296 08       		.byte	0x8
 3992 0297 0B       		.uleb128 0xb
 3993 0298 A8000000 		.4byte	.LASF37
 3994 029c 05       		.byte	0x5
 3995 029d 3F       		.byte	0x3f
 3996 029e C5000000 		.4byte	0xc5
 3997 02a2 44       		.byte	0x44
 3998 02a3 0B       		.uleb128 0xb
 3999 02a4 A20A0000 		.4byte	.LASF20
 4000 02a8 05       		.byte	0x5
 4001 02a9 40       		.byte	0x40
 4002 02aa 2A050000 		.4byte	0x52a
 4003 02ae 48       		.byte	0x48
 4004 02af 0B       		.uleb128 0xb
 4005 02b0 BF050000 		.4byte	.LASF38
 4006 02b4 05       		.byte	0x5
 4007 02b5 41       		.byte	0x41
 4008 02b6 BB000000 		.4byte	0xbb
 4009 02ba 50       		.byte	0x50
 4010 02bb 0B       		.uleb128 0xb
 4011 02bc AC0A0000 		.4byte	.LASF22
 4012 02c0 05       		.byte	0x5
 4013 02c1 42       		.byte	0x42
 4014 02c2 34050000 		.4byte	0x534
 4015 02c6 54       		.byte	0x54
 4016 02c7 0B       		.uleb128 0xb
 4017 02c8 910A0000 		.4byte	.LASF39
 4018 02cc 05       		.byte	0x5
 4019 02cd 43       		.byte	0x43
 4020 02ce BB000000 		.4byte	0xbb
ARM GAS  C:\Users\ikomb\AppData\Local\Temp\ccEKz2Td.s 			page 122


 4021 02d2 80       		.byte	0x80
 4022 02d3 0B       		.uleb128 0xb
 4023 02d4 1D030000 		.4byte	.LASF40
 4024 02d8 05       		.byte	0x5
 4025 02d9 44       		.byte	0x44
 4026 02da C5000000 		.4byte	0xc5
 4027 02de 84       		.byte	0x84
 4028 02df 0B       		.uleb128 0xb
 4029 02e0 B60A0000 		.4byte	.LASF28
 4030 02e4 05       		.byte	0x5
 4031 02e5 45       		.byte	0x45
 4032 02e6 3E050000 		.4byte	0x53e
 4033 02ea 88       		.byte	0x88
 4034 02eb 0B       		.uleb128 0xb
 4035 02ec 82070000 		.4byte	.LASF41
 4036 02f0 05       		.byte	0x5
 4037 02f1 46       		.byte	0x46
 4038 02f2 BB000000 		.4byte	0xbb
 4039 02f6 90       		.byte	0x90
 4040 02f7 0B       		.uleb128 0xb
 4041 02f8 93070000 		.4byte	.LASF42
 4042 02fc 05       		.byte	0x5
 4043 02fd 47       		.byte	0x47
 4044 02fe BB000000 		.4byte	0xbb
 4045 0302 94       		.byte	0x94
 4046 0303 0B       		.uleb128 0xb
 4047 0304 A4070000 		.4byte	.LASF43
 4048 0308 05       		.byte	0x5
 4049 0309 48       		.byte	0x48
 4050 030a BB000000 		.4byte	0xbb
 4051 030e 98       		.byte	0x98
 4052 030f 0B       		.uleb128 0xb
 4053 0310 C00A0000 		.4byte	.LASF34
 4054 0314 05       		.byte	0x5
 4055 0315 49       		.byte	0x49
 4056 0316 58050000 		.4byte	0x558
 4057 031a 9C       		.byte	0x9c
 4058 031b 0B       		.uleb128 0xb
 4059 031c 02040000 		.4byte	.LASF44
 4060 0320 05       		.byte	0x5
 4061 0321 4A       		.byte	0x4a
 4062 0322 BB000000 		.4byte	0xbb
 4063 0326 C0       		.byte	0xc0
 4064 0327 0B       		.uleb128 0xb
 4065 0328 CA070000 		.4byte	.LASF45
 4066 032c 05       		.byte	0x5
 4067 032d 4B       		.byte	0x4b
 4068 032e C5000000 		.4byte	0xc5
 4069 0332 C4       		.byte	0xc4
 4070 0333 0B       		.uleb128 0xb
 4071 0334 0B0F0000 		.4byte	.LASF46
 4072 0338 05       		.byte	0x5
 4073 0339 4C       		.byte	0x4c
 4074 033a 62050000 		.4byte	0x562
 4075 033e C8       		.byte	0xc8
 4076 033f 0B       		.uleb128 0xb
 4077 0340 24010000 		.4byte	.LASF47
ARM GAS  C:\Users\ikomb\AppData\Local\Temp\ccEKz2Td.s 			page 123


 4078 0344 05       		.byte	0x5
 4079 0345 4D       		.byte	0x4d
 4080 0346 C5000000 		.4byte	0xc5
 4081 034a D0       		.byte	0xd0
 4082 034b 0B       		.uleb128 0xb
 4083 034c 35010000 		.4byte	.LASF48
 4084 0350 05       		.byte	0x5
 4085 0351 4E       		.byte	0x4e
 4086 0352 C5000000 		.4byte	0xc5
 4087 0356 D4       		.byte	0xd4
 4088 0357 0B       		.uleb128 0xb
 4089 0358 51090000 		.4byte	.LASF49
 4090 035c 05       		.byte	0x5
 4091 035d 4F       		.byte	0x4f
 4092 035e C5000000 		.4byte	0xc5
 4093 0362 D8       		.byte	0xd8
 4094 0363 0B       		.uleb128 0xb
 4095 0364 E00A0000 		.4byte	.LASF50
 4096 0368 05       		.byte	0x5
 4097 0369 50       		.byte	0x50
 4098 036a C5000000 		.4byte	0xc5
 4099 036e DC       		.byte	0xdc
 4100 036f 0B       		.uleb128 0xb
 4101 0370 C4030000 		.4byte	.LASF51
 4102 0374 05       		.byte	0x5
 4103 0375 51       		.byte	0x51
 4104 0376 C5000000 		.4byte	0xc5
 4105 037a E0       		.byte	0xe0
 4106 037b 0B       		.uleb128 0xb
 4107 037c EA0A0000 		.4byte	.LASF52
 4108 0380 05       		.byte	0x5
 4109 0381 52       		.byte	0x52
 4110 0382 6C050000 		.4byte	0x56c
 4111 0386 E4       		.byte	0xe4
 4112 0387 0D       		.uleb128 0xd
 4113 0388 92090000 		.4byte	.LASF53
 4114 038c 05       		.byte	0x5
 4115 038d 53       		.byte	0x53
 4116 038e BB000000 		.4byte	0xbb
 4117 0392 0001     		.2byte	0x100
 4118 0394 0D       		.uleb128 0xd
 4119 0395 F40A0000 		.4byte	.LASF54
 4120 0399 05       		.byte	0x5
 4121 039a 54       		.byte	0x54
 4122 039b C5000000 		.4byte	0xc5
 4123 039f 0401     		.2byte	0x104
 4124 03a1 0D       		.uleb128 0xd
 4125 03a2 6F040000 		.4byte	.LASF55
 4126 03a6 05       		.byte	0x5
 4127 03a7 55       		.byte	0x55
 4128 03a8 BB000000 		.4byte	0xbb
 4129 03ac 0801     		.2byte	0x108
 4130 03ae 0D       		.uleb128 0xd
 4131 03af FE0A0000 		.4byte	.LASF56
 4132 03b3 05       		.byte	0x5
 4133 03b4 56       		.byte	0x56
 4134 03b5 76050000 		.4byte	0x576
ARM GAS  C:\Users\ikomb\AppData\Local\Temp\ccEKz2Td.s 			page 124


 4135 03b9 0C01     		.2byte	0x10c
 4136 03bb 0D       		.uleb128 0xd
 4137 03bc A9060000 		.4byte	.LASF57
 4138 03c0 05       		.byte	0x5
 4139 03c1 57       		.byte	0x57
 4140 03c2 BB000000 		.4byte	0xbb
 4141 03c6 8001     		.2byte	0x180
 4142 03c8 0D       		.uleb128 0xd
 4143 03c9 790D0000 		.4byte	.LASF58
 4144 03cd 05       		.byte	0x5
 4145 03ce 58       		.byte	0x58
 4146 03cf C5000000 		.4byte	0xc5
 4147 03d3 8401     		.2byte	0x184
 4148 03d5 0D       		.uleb128 0xd
 4149 03d6 450E0000 		.4byte	.LASF59
 4150 03da 05       		.byte	0x5
 4151 03db 59       		.byte	0x59
 4152 03dc BB000000 		.4byte	0xbb
 4153 03e0 8801     		.2byte	0x188
 4154 03e2 0D       		.uleb128 0xd
 4155 03e3 840D0000 		.4byte	.LASF60
 4156 03e7 05       		.byte	0x5
 4157 03e8 5A       		.byte	0x5a
 4158 03e9 80050000 		.4byte	0x580
 4159 03ed 8C01     		.2byte	0x18c
 4160 03ef 0D       		.uleb128 0xd
 4161 03f0 D60E0000 		.4byte	.LASF61
 4162 03f4 05       		.byte	0x5
 4163 03f5 5B       		.byte	0x5b
 4164 03f6 BB000000 		.4byte	0xbb
 4165 03fa 0002     		.2byte	0x200
 4166 03fc 0D       		.uleb128 0xd
 4167 03fd 8F0D0000 		.4byte	.LASF62
 4168 0401 05       		.byte	0x5
 4169 0402 5C       		.byte	0x5c
 4170 0403 8A050000 		.4byte	0x58a
 4171 0407 0402     		.2byte	0x204
 4172 0409 0D       		.uleb128 0xd
 4173 040a 7F020000 		.4byte	.LASF63
 4174 040e 05       		.byte	0x5
 4175 040f 5D       		.byte	0x5d
 4176 0410 BB000000 		.4byte	0xbb
 4177 0414 2002     		.2byte	0x220
 4178 0416 0D       		.uleb128 0xd
 4179 0417 8D020000 		.4byte	.LASF64
 4180 041b 05       		.byte	0x5
 4181 041c 5E       		.byte	0x5e
 4182 041d BB000000 		.4byte	0xbb
 4183 0421 2402     		.2byte	0x224
 4184 0423 0D       		.uleb128 0xd
 4185 0424 9B020000 		.4byte	.LASF65
 4186 0428 05       		.byte	0x5
 4187 0429 5F       		.byte	0x5f
 4188 042a BB000000 		.4byte	0xbb
 4189 042e 2802     		.2byte	0x228
 4190 0430 0D       		.uleb128 0xd
 4191 0431 A9020000 		.4byte	.LASF66
ARM GAS  C:\Users\ikomb\AppData\Local\Temp\ccEKz2Td.s 			page 125


 4192 0435 05       		.byte	0x5
 4193 0436 60       		.byte	0x60
 4194 0437 BB000000 		.4byte	0xbb
 4195 043b 2C02     		.2byte	0x22c
 4196 043d 0D       		.uleb128 0xd
 4197 043e 9A0D0000 		.4byte	.LASF67
 4198 0442 05       		.byte	0x5
 4199 0443 61       		.byte	0x61
 4200 0444 94050000 		.4byte	0x594
 4201 0448 3002     		.2byte	0x230
 4202 044a 0D       		.uleb128 0xd
 4203 044b 52070000 		.4byte	.LASF68
 4204 044f 05       		.byte	0x5
 4205 0450 62       		.byte	0x62
 4206 0451 BB000000 		.4byte	0xbb
 4207 0455 4002     		.2byte	0x240
 4208 0457 0D       		.uleb128 0xd
 4209 0458 5E070000 		.4byte	.LASF69
 4210 045c 05       		.byte	0x5
 4211 045d 63       		.byte	0x63
 4212 045e BB000000 		.4byte	0xbb
 4213 0462 4402     		.2byte	0x244
 4214 0464 0D       		.uleb128 0xd
 4215 0465 6A070000 		.4byte	.LASF70
 4216 0469 05       		.byte	0x5
 4217 046a 64       		.byte	0x64
 4218 046b BB000000 		.4byte	0xbb
 4219 046f 4802     		.2byte	0x248
 4220 0471 0D       		.uleb128 0xd
 4221 0472 76070000 		.4byte	.LASF71
 4222 0476 05       		.byte	0x5
 4223 0477 65       		.byte	0x65
 4224 0478 BB000000 		.4byte	0xbb
 4225 047c 4C02     		.2byte	0x24c
 4226 047e 0D       		.uleb128 0xd
 4227 047f A50D0000 		.4byte	.LASF72
 4228 0483 05       		.byte	0x5
 4229 0484 66       		.byte	0x66
 4230 0485 9E050000 		.4byte	0x59e
 4231 0489 5002     		.2byte	0x250
 4232 048b 0D       		.uleb128 0xd
 4233 048c 460C0000 		.4byte	.LASF73
 4234 0490 05       		.byte	0x5
 4235 0491 67       		.byte	0x67
 4236 0492 BB000000 		.4byte	0xbb
 4237 0496 6002     		.2byte	0x260
 4238 0498 0D       		.uleb128 0xd
 4239 0499 34070000 		.4byte	.LASF74
 4240 049d 05       		.byte	0x5
 4241 049e 68       		.byte	0x68
 4242 049f BB000000 		.4byte	0xbb
 4243 04a3 6402     		.2byte	0x264
 4244 04a5 0D       		.uleb128 0xd
 4245 04a6 670C0000 		.4byte	.LASF75
 4246 04aa 05       		.byte	0x5
 4247 04ab 69       		.byte	0x69
 4248 04ac BB000000 		.4byte	0xbb
ARM GAS  C:\Users\ikomb\AppData\Local\Temp\ccEKz2Td.s 			page 126


 4249 04b0 6802     		.2byte	0x268
 4250 04b2 0D       		.uleb128 0xd
 4251 04b3 43070000 		.4byte	.LASF76
 4252 04b7 05       		.byte	0x5
 4253 04b8 6A       		.byte	0x6a
 4254 04b9 BB000000 		.4byte	0xbb
 4255 04bd 6C02     		.2byte	0x26c
 4256 04bf 0D       		.uleb128 0xd
 4257 04c0 B00D0000 		.4byte	.LASF77
 4258 04c4 05       		.byte	0x5
 4259 04c5 6B       		.byte	0x6b
 4260 04c6 B9050000 		.4byte	0x5b9
 4261 04ca 7002     		.2byte	0x270
 4262 04cc 0D       		.uleb128 0xd
 4263 04cd 5F040000 		.4byte	.LASF78
 4264 04d1 05       		.byte	0x5
 4265 04d2 6C       		.byte	0x6c
 4266 04d3 BB000000 		.4byte	0xbb
 4267 04d7 C007     		.2byte	0x7c0
 4268 04d9 0D       		.uleb128 0xd
 4269 04da 0F030000 		.4byte	.LASF79
 4270 04de 05       		.byte	0x5
 4271 04df 6D       		.byte	0x6d
 4272 04e0 BB000000 		.4byte	0xbb
 4273 04e4 C407     		.2byte	0x7c4
 4274 04e6 0D       		.uleb128 0xd
 4275 04e7 C4060000 		.4byte	.LASF80
 4276 04eb 05       		.byte	0x5
 4277 04ec 6E       		.byte	0x6e
 4278 04ed BB000000 		.4byte	0xbb
 4279 04f1 C807     		.2byte	0x7c8
 4280 04f3 0D       		.uleb128 0xd
 4281 04f4 270C0000 		.4byte	.LASF81
 4282 04f8 05       		.byte	0x5
 4283 04f9 6F       		.byte	0x6f
 4284 04fa C5000000 		.4byte	0xc5
 4285 04fe CC07     		.2byte	0x7cc
 4286 0500 0D       		.uleb128 0xd
 4287 0501 BB0D0000 		.4byte	.LASF82
 4288 0505 05       		.byte	0x5
 4289 0506 70       		.byte	0x70
 4290 0507 C3050000 		.4byte	0x5c3
 4291 050b D007     		.2byte	0x7d0
 4292 050d 0D       		.uleb128 0xd
 4293 050e 4D0B0000 		.4byte	.LASF83
 4294 0512 05       		.byte	0x5
 4295 0513 71       		.byte	0x71
 4296 0514 C8050000 		.4byte	0x5c8
 4297 0518 0008     		.2byte	0x800
 4298 051a 00       		.byte	0
 4299 051b 05       		.uleb128 0x5
 4300 051c 0A010000 		.4byte	0x10a
 4301 0520 06       		.uleb128 0x6
 4302 0521 1B050000 		.4byte	0x51b
 4303 0525 05       		.uleb128 0x5
 4304 0526 CA000000 		.4byte	0xca
 4305 052a 06       		.uleb128 0x6
ARM GAS  C:\Users\ikomb\AppData\Local\Temp\ccEKz2Td.s 			page 127


 4306 052b 25050000 		.4byte	0x525
 4307 052f 05       		.uleb128 0x5
 4308 0530 3A010000 		.4byte	0x13a
 4309 0534 06       		.uleb128 0x6
 4310 0535 2F050000 		.4byte	0x52f
 4311 0539 05       		.uleb128 0x5
 4312 053a CA000000 		.4byte	0xca
 4313 053e 06       		.uleb128 0x6
 4314 053f 39050000 		.4byte	0x539
 4315 0543 07       		.uleb128 0x7
 4316 0544 C5000000 		.4byte	0xc5
 4317 0548 53050000 		.4byte	0x553
 4318 054c 08       		.uleb128 0x8
 4319 054d B4000000 		.4byte	0xb4
 4320 0551 08       		.byte	0x8
 4321 0552 00       		.byte	0
 4322 0553 05       		.uleb128 0x5
 4323 0554 43050000 		.4byte	0x543
 4324 0558 06       		.uleb128 0x6
 4325 0559 53050000 		.4byte	0x553
 4326 055d 05       		.uleb128 0x5
 4327 055e CA000000 		.4byte	0xca
 4328 0562 06       		.uleb128 0x6
 4329 0563 5D050000 		.4byte	0x55d
 4330 0567 05       		.uleb128 0x5
 4331 0568 EA000000 		.4byte	0xea
 4332 056c 06       		.uleb128 0x6
 4333 056d 67050000 		.4byte	0x567
 4334 0571 05       		.uleb128 0x5
 4335 0572 2A010000 		.4byte	0x12a
 4336 0576 06       		.uleb128 0x6
 4337 0577 71050000 		.4byte	0x571
 4338 057b 05       		.uleb128 0x5
 4339 057c 2A010000 		.4byte	0x12a
 4340 0580 06       		.uleb128 0x6
 4341 0581 7B050000 		.4byte	0x57b
 4342 0585 05       		.uleb128 0x5
 4343 0586 EA000000 		.4byte	0xea
 4344 058a 06       		.uleb128 0x6
 4345 058b 85050000 		.4byte	0x585
 4346 058f 05       		.uleb128 0x5
 4347 0590 DA000000 		.4byte	0xda
 4348 0594 06       		.uleb128 0x6
 4349 0595 8F050000 		.4byte	0x58f
 4350 0599 05       		.uleb128 0x5
 4351 059a DA000000 		.4byte	0xda
 4352 059e 06       		.uleb128 0x6
 4353 059f 99050000 		.4byte	0x599
 4354 05a3 07       		.uleb128 0x7
 4355 05a4 C5000000 		.4byte	0xc5
 4356 05a8 B4050000 		.4byte	0x5b4
 4357 05ac 0E       		.uleb128 0xe
 4358 05ad B4000000 		.4byte	0xb4
 4359 05b1 5301     		.2byte	0x153
 4360 05b3 00       		.byte	0
 4361 05b4 05       		.uleb128 0x5
 4362 05b5 A3050000 		.4byte	0x5a3
ARM GAS  C:\Users\ikomb\AppData\Local\Temp\ccEKz2Td.s 			page 128


 4363 05b9 06       		.uleb128 0x6
 4364 05ba B4050000 		.4byte	0x5b4
 4365 05be 05       		.uleb128 0x5
 4366 05bf 1A010000 		.4byte	0x11a
 4367 05c3 06       		.uleb128 0x6
 4368 05c4 BE050000 		.4byte	0x5be
 4369 05c8 07       		.uleb128 0x7
 4370 05c9 5F020000 		.4byte	0x25f
 4371 05cd D8050000 		.4byte	0x5d8
 4372 05d1 08       		.uleb128 0x8
 4373 05d2 B4000000 		.4byte	0xb4
 4374 05d6 03       		.byte	0x3
 4375 05d7 00       		.byte	0
 4376 05d8 03       		.uleb128 0x3
 4377 05d9 C70B0000 		.4byte	.LASF84
 4378 05dd 05       		.byte	0x5
 4379 05de 72       		.byte	0x72
 4380 05df 6A020000 		.4byte	0x26a
 4381 05e3 0F       		.uleb128 0xf
 4382 05e4 B50B0000 		.4byte	.LASF85
 4383 05e8 06       		.byte	0x6
 4384 05e9 C401     		.2byte	0x1c4
 4385 05eb EF050000 		.4byte	0x5ef
 4386 05ef 02       		.uleb128 0x2
 4387 05f0 01       		.byte	0x1
 4388 05f1 08       		.byte	0x8
 4389 05f2 07070000 		.4byte	.LASF86
 4390 05f6 02       		.uleb128 0x2
 4391 05f7 04       		.byte	0x4
 4392 05f8 04       		.byte	0x4
 4393 05f9 64040000 		.4byte	.LASF87
 4394 05fd 02       		.uleb128 0x2
 4395 05fe 08       		.byte	0x8
 4396 05ff 04       		.byte	0x4
 4397 0600 CF0E0000 		.4byte	.LASF88
 4398 0604 10       		.uleb128 0x10
 4399 0605 04       		.byte	0x4
 4400 0606 85000000 		.4byte	0x85
 4401 060a 07       		.byte	0x7
 4402 060b 9703     		.2byte	0x397
 4403 060d 3C060000 		.4byte	0x63c
 4404 0611 11       		.uleb128 0x11
 4405 0612 59050000 		.4byte	.LASF89
 4406 0616 00       		.byte	0
 4407 0617 12       		.uleb128 0x12
 4408 0618 230E0000 		.4byte	.LASF90
 4409 061c 01004200 		.4byte	0x420001
 4410 0620 12       		.uleb128 0x12
 4411 0621 CE060000 		.4byte	.LASF91
 4412 0625 02004200 		.4byte	0x420002
 4413 0629 12       		.uleb128 0x12
 4414 062a E9060000 		.4byte	.LASF92
 4415 062e 03004200 		.4byte	0x420003
 4416 0632 12       		.uleb128 0x12
 4417 0633 F30C0000 		.4byte	.LASF93
 4418 0637 FF004200 		.4byte	0x4200ff
 4419 063b 00       		.byte	0
ARM GAS  C:\Users\ikomb\AppData\Local\Temp\ccEKz2Td.s 			page 129


 4420 063c 0F       		.uleb128 0xf
 4421 063d F9000000 		.4byte	.LASF94
 4422 0641 07       		.byte	0x7
 4423 0642 9E03     		.2byte	0x39e
 4424 0644 04060000 		.4byte	0x604
 4425 0648 10       		.uleb128 0x10
 4426 0649 01       		.byte	0x1
 4427 064a 37000000 		.4byte	0x37
 4428 064e 07       		.byte	0x7
 4429 064f 3704     		.2byte	0x437
 4430 0651 6E060000 		.4byte	0x66e
 4431 0655 11       		.uleb128 0x11
 4432 0656 4C100000 		.4byte	.LASF95
 4433 065a 01       		.byte	0x1
 4434 065b 11       		.uleb128 0x11
 4435 065c 90030000 		.4byte	.LASF96
 4436 0660 02       		.byte	0x2
 4437 0661 11       		.uleb128 0x11
 4438 0662 17100000 		.4byte	.LASF97
 4439 0666 04       		.byte	0x4
 4440 0667 11       		.uleb128 0x11
 4441 0668 32100000 		.4byte	.LASF98
 4442 066c 08       		.byte	0x8
 4443 066d 00       		.byte	0
 4444 066e 0F       		.uleb128 0xf
 4445 066f 150B0000 		.4byte	.LASF99
 4446 0673 07       		.byte	0x7
 4447 0674 4104     		.2byte	0x441
 4448 0676 48060000 		.4byte	0x648
 4449 067a 13       		.uleb128 0x13
 4450 067b 0C       		.byte	0xc
 4451 067c 07       		.byte	0x7
 4452 067d 5D04     		.2byte	0x45d
 4453 067f AB060000 		.4byte	0x6ab
 4454 0683 14       		.uleb128 0x14
 4455 0684 18030000 		.4byte	.LASF100
 4456 0688 07       		.byte	0x7
 4457 0689 5F04     		.2byte	0x45f
 4458 068b 6E060000 		.4byte	0x66e
 4459 068f 00       		.byte	0
 4460 0690 14       		.uleb128 0x14
 4461 0691 6A040000 		.4byte	.LASF101
 4462 0695 07       		.byte	0x7
 4463 0696 6304     		.2byte	0x463
 4464 0698 AB060000 		.4byte	0x6ab
 4465 069c 04       		.byte	0x4
 4466 069d 14       		.uleb128 0x14
 4467 069e 70080000 		.4byte	.LASF102
 4468 06a2 07       		.byte	0x7
 4469 06a3 6504     		.2byte	0x465
 4470 06a5 AB060000 		.4byte	0x6ab
 4471 06a9 08       		.byte	0x8
 4472 06aa 00       		.byte	0
 4473 06ab 15       		.uleb128 0x15
 4474 06ac 04       		.byte	0x4
 4475 06ad 0F       		.uleb128 0xf
 4476 06ae 42000000 		.4byte	.LASF103
ARM GAS  C:\Users\ikomb\AppData\Local\Temp\ccEKz2Td.s 			page 130


 4477 06b2 07       		.byte	0x7
 4478 06b3 6804     		.2byte	0x468
 4479 06b5 7A060000 		.4byte	0x67a
 4480 06b9 16       		.uleb128 0x16
 4481 06ba 04       		.byte	0x4
 4482 06bb AD060000 		.4byte	0x6ad
 4483 06bf 10       		.uleb128 0x10
 4484 06c0 01       		.byte	0x1
 4485 06c1 37000000 		.4byte	0x37
 4486 06c5 01       		.byte	0x1
 4487 06c6 A401     		.2byte	0x1a4
 4488 06c8 E5060000 		.4byte	0x6e5
 4489 06cc 11       		.uleb128 0x11
 4490 06cd A6010000 		.4byte	.LASF104
 4491 06d1 00       		.byte	0
 4492 06d2 11       		.uleb128 0x11
 4493 06d3 31030000 		.4byte	.LASF105
 4494 06d7 01       		.byte	0x1
 4495 06d8 11       		.uleb128 0x11
 4496 06d9 2C0D0000 		.4byte	.LASF106
 4497 06dd 02       		.byte	0x2
 4498 06de 11       		.uleb128 0x11
 4499 06df F1040000 		.4byte	.LASF107
 4500 06e3 03       		.byte	0x3
 4501 06e4 00       		.byte	0
 4502 06e5 0F       		.uleb128 0xf
 4503 06e6 D60D0000 		.4byte	.LASF108
 4504 06ea 01       		.byte	0x1
 4505 06eb A901     		.2byte	0x1a9
 4506 06ed BF060000 		.4byte	0x6bf
 4507 06f1 10       		.uleb128 0x10
 4508 06f2 01       		.byte	0x1
 4509 06f3 37000000 		.4byte	0x37
 4510 06f7 01       		.byte	0x1
 4511 06f8 AD01     		.2byte	0x1ad
 4512 06fa 0B070000 		.4byte	0x70b
 4513 06fe 11       		.uleb128 0x11
 4514 06ff FD050000 		.4byte	.LASF109
 4515 0703 00       		.byte	0
 4516 0704 11       		.uleb128 0x11
 4517 0705 34040000 		.4byte	.LASF110
 4518 0709 01       		.byte	0x1
 4519 070a 00       		.byte	0
 4520 070b 0F       		.uleb128 0xf
 4521 070c 7B0B0000 		.4byte	.LASF111
 4522 0710 01       		.byte	0x1
 4523 0711 B401     		.2byte	0x1b4
 4524 0713 F1060000 		.4byte	0x6f1
 4525 0717 10       		.uleb128 0x10
 4526 0718 01       		.byte	0x1
 4527 0719 37000000 		.4byte	0x37
 4528 071d 01       		.byte	0x1
 4529 071e B801     		.2byte	0x1b8
 4530 0720 3D070000 		.4byte	0x73d
 4531 0724 11       		.uleb128 0x11
 4532 0725 04020000 		.4byte	.LASF112
 4533 0729 00       		.byte	0
ARM GAS  C:\Users\ikomb\AppData\Local\Temp\ccEKz2Td.s 			page 131


 4534 072a 11       		.uleb128 0x11
 4535 072b 16020000 		.4byte	.LASF113
 4536 072f 01       		.byte	0x1
 4537 0730 11       		.uleb128 0x11
 4538 0731 28020000 		.4byte	.LASF114
 4539 0735 02       		.byte	0x2
 4540 0736 11       		.uleb128 0x11
 4541 0737 44030000 		.4byte	.LASF115
 4542 073b 03       		.byte	0x3
 4543 073c 00       		.byte	0
 4544 073d 0F       		.uleb128 0xf
 4545 073e 0A0E0000 		.4byte	.LASF116
 4546 0742 01       		.byte	0x1
 4547 0743 CD01     		.2byte	0x1cd
 4548 0745 17070000 		.4byte	0x717
 4549 0749 10       		.uleb128 0x10
 4550 074a 01       		.byte	0x1
 4551 074b 37000000 		.4byte	0x37
 4552 074f 01       		.byte	0x1
 4553 0750 D101     		.2byte	0x1d1
 4554 0752 63070000 		.4byte	0x763
 4555 0756 11       		.uleb128 0x11
 4556 0757 030A0000 		.4byte	.LASF117
 4557 075b 00       		.byte	0
 4558 075c 11       		.uleb128 0x11
 4559 075d 61080000 		.4byte	.LASF118
 4560 0761 01       		.byte	0x1
 4561 0762 00       		.byte	0
 4562 0763 0F       		.uleb128 0xf
 4563 0764 7E030000 		.4byte	.LASF119
 4564 0768 01       		.byte	0x1
 4565 0769 D401     		.2byte	0x1d4
 4566 076b 49070000 		.4byte	0x749
 4567 076f 10       		.uleb128 0x10
 4568 0770 01       		.byte	0x1
 4569 0771 37000000 		.4byte	0x37
 4570 0775 01       		.byte	0x1
 4571 0776 D801     		.2byte	0x1d8
 4572 0778 B3070000 		.4byte	0x7b3
 4573 077c 11       		.uleb128 0x11
 4574 077d 22080000 		.4byte	.LASF120
 4575 0781 00       		.byte	0
 4576 0782 11       		.uleb128 0x11
 4577 0783 EE0D0000 		.4byte	.LASF121
 4578 0787 01       		.byte	0x1
 4579 0788 11       		.uleb128 0x11
 4580 0789 97060000 		.4byte	.LASF122
 4581 078d 02       		.byte	0x2
 4582 078e 11       		.uleb128 0x11
 4583 078f E7000000 		.4byte	.LASF123
 4584 0793 03       		.byte	0x3
 4585 0794 11       		.uleb128 0x11
 4586 0795 C3040000 		.4byte	.LASF124
 4587 0799 04       		.byte	0x4
 4588 079a 11       		.uleb128 0x11
 4589 079b 20090000 		.4byte	.LASF125
 4590 079f 05       		.byte	0x5
ARM GAS  C:\Users\ikomb\AppData\Local\Temp\ccEKz2Td.s 			page 132


 4591 07a0 11       		.uleb128 0x11
 4592 07a1 F2010000 		.4byte	.LASF126
 4593 07a5 06       		.byte	0x6
 4594 07a6 11       		.uleb128 0x11
 4595 07a7 FE020000 		.4byte	.LASF127
 4596 07ab 07       		.byte	0x7
 4597 07ac 11       		.uleb128 0x11
 4598 07ad D6090000 		.4byte	.LASF128
 4599 07b1 08       		.byte	0x8
 4600 07b2 00       		.byte	0
 4601 07b3 0F       		.uleb128 0xf
 4602 07b4 DA0C0000 		.4byte	.LASF129
 4603 07b8 01       		.byte	0x1
 4604 07b9 E301     		.2byte	0x1e3
 4605 07bb 6F070000 		.4byte	0x76f
 4606 07bf 10       		.uleb128 0x10
 4607 07c0 04       		.byte	0x4
 4608 07c1 85000000 		.4byte	0x85
 4609 07c5 01       		.byte	0x1
 4610 07c6 E701     		.2byte	0x1e7
 4611 07c8 24080000 		.4byte	0x824
 4612 07cc 11       		.uleb128 0x11
 4613 07cd 61000000 		.4byte	.LASF130
 4614 07d1 00       		.byte	0
 4615 07d2 12       		.uleb128 0x12
 4616 07d3 00000000 		.4byte	.LASF131
 4617 07d7 0100B200 		.4byte	0xb20001
 4618 07db 12       		.uleb128 0x12
 4619 07dc BB000000 		.4byte	.LASF132
 4620 07e0 0200B200 		.4byte	0xb20002
 4621 07e4 12       		.uleb128 0x12
 4622 07e5 1F000000 		.4byte	.LASF133
 4623 07e9 0300B200 		.4byte	0xb20003
 4624 07ed 12       		.uleb128 0x12
 4625 07ee 32090000 		.4byte	.LASF134
 4626 07f2 0400B200 		.4byte	0xb20004
 4627 07f6 12       		.uleb128 0x12
 4628 07f7 A7050000 		.4byte	.LASF135
 4629 07fb 0500B200 		.4byte	0xb20005
 4630 07ff 12       		.uleb128 0x12
 4631 0800 75090000 		.4byte	.LASF136
 4632 0804 0800B200 		.4byte	0xb20008
 4633 0808 12       		.uleb128 0x12
 4634 0809 EC0E0000 		.4byte	.LASF137
 4635 080d 1000B200 		.4byte	0xb20010
 4636 0811 12       		.uleb128 0x12
 4637 0812 D8050000 		.4byte	.LASF138
 4638 0816 2000B200 		.4byte	0xb20020
 4639 081a 12       		.uleb128 0x12
 4640 081b 9D0B0000 		.4byte	.LASF139
 4641 081f 4000B200 		.4byte	0xb20040
 4642 0823 00       		.byte	0
 4643 0824 0F       		.uleb128 0xf
 4644 0825 93050000 		.4byte	.LASF140
 4645 0829 01       		.byte	0x1
 4646 082a FF01     		.2byte	0x1ff
 4647 082c BF070000 		.4byte	0x7bf
ARM GAS  C:\Users\ikomb\AppData\Local\Temp\ccEKz2Td.s 			page 133


 4648 0830 10       		.uleb128 0x10
 4649 0831 01       		.byte	0x1
 4650 0832 37000000 		.4byte	0x37
 4651 0836 01       		.byte	0x1
 4652 0837 0502     		.2byte	0x205
 4653 0839 56080000 		.4byte	0x856
 4654 083d 11       		.uleb128 0x11
 4655 083e 36060000 		.4byte	.LASF141
 4656 0842 01       		.byte	0x1
 4657 0843 11       		.uleb128 0x11
 4658 0844 4D060000 		.4byte	.LASF142
 4659 0848 02       		.byte	0x2
 4660 0849 11       		.uleb128 0x11
 4661 084a 64060000 		.4byte	.LASF143
 4662 084e 04       		.byte	0x4
 4663 084f 11       		.uleb128 0x11
 4664 0850 7B060000 		.4byte	.LASF144
 4665 0854 08       		.byte	0x8
 4666 0855 00       		.byte	0
 4667 0856 0F       		.uleb128 0xf
 4668 0857 610B0000 		.4byte	.LASF145
 4669 085b 01       		.byte	0x1
 4670 085c 0A02     		.2byte	0x20a
 4671 085e 30080000 		.4byte	0x830
 4672 0862 10       		.uleb128 0x10
 4673 0863 01       		.byte	0x1
 4674 0864 37000000 		.4byte	0x37
 4675 0868 01       		.byte	0x1
 4676 0869 0E02     		.2byte	0x20e
 4677 086b 88080000 		.4byte	0x888
 4678 086f 11       		.uleb128 0x11
 4679 0870 66020000 		.4byte	.LASF146
 4680 0874 00       		.byte	0
 4681 0875 11       		.uleb128 0x11
 4682 0876 E5080000 		.4byte	.LASF147
 4683 087a 01       		.byte	0x1
 4684 087b 11       		.uleb128 0x11
 4685 087c 7A050000 		.4byte	.LASF148
 4686 0880 02       		.byte	0x2
 4687 0881 11       		.uleb128 0x11
 4688 0882 FA0B0000 		.4byte	.LASF149
 4689 0886 03       		.byte	0x3
 4690 0887 00       		.byte	0
 4691 0888 0F       		.uleb128 0xf
 4692 0889 1C070000 		.4byte	.LASF150
 4693 088d 01       		.byte	0x1
 4694 088e 1302     		.2byte	0x213
 4695 0890 62080000 		.4byte	0x862
 4696 0894 10       		.uleb128 0x10
 4697 0895 01       		.byte	0x1
 4698 0896 37000000 		.4byte	0x37
 4699 089a 01       		.byte	0x1
 4700 089b 1702     		.2byte	0x217
 4701 089d B4080000 		.4byte	0x8b4
 4702 08a1 11       		.uleb128 0x11
 4703 08a2 62090000 		.4byte	.LASF151
 4704 08a6 01       		.byte	0x1
ARM GAS  C:\Users\ikomb\AppData\Local\Temp\ccEKz2Td.s 			page 134


 4705 08a7 11       		.uleb128 0x11
 4706 08a8 C80F0000 		.4byte	.LASF152
 4707 08ac 02       		.byte	0x2
 4708 08ad 11       		.uleb128 0x11
 4709 08ae DE040000 		.4byte	.LASF153
 4710 08b2 03       		.byte	0x3
 4711 08b3 00       		.byte	0
 4712 08b4 0F       		.uleb128 0xf
 4713 08b5 CA0A0000 		.4byte	.LASF154
 4714 08b9 01       		.byte	0x1
 4715 08ba 1B02     		.2byte	0x21b
 4716 08bc 94080000 		.4byte	0x894
 4717 08c0 0F       		.uleb128 0xf
 4718 08c1 6B030000 		.4byte	.LASF155
 4719 08c5 01       		.byte	0x1
 4720 08c6 2D02     		.2byte	0x22d
 4721 08c8 CC080000 		.4byte	0x8cc
 4722 08cc 16       		.uleb128 0x16
 4723 08cd 04       		.byte	0x4
 4724 08ce D2080000 		.4byte	0x8d2
 4725 08d2 17       		.uleb128 0x17
 4726 08d3 DD080000 		.4byte	0x8dd
 4727 08d7 18       		.uleb128 0x18
 4728 08d8 A2000000 		.4byte	0xa2
 4729 08dc 00       		.byte	0
 4730 08dd 13       		.uleb128 0x13
 4731 08de 10       		.byte	0x10
 4732 08df 01       		.byte	0x1
 4733 08e0 3102     		.2byte	0x231
 4734 08e2 1B090000 		.4byte	0x91b
 4735 08e6 14       		.uleb128 0x14
 4736 08e7 18030000 		.4byte	.LASF100
 4737 08eb 01       		.byte	0x1
 4738 08ec 3302     		.2byte	0x233
 4739 08ee A2000000 		.4byte	0xa2
 4740 08f2 00       		.byte	0
 4741 08f3 14       		.uleb128 0x14
 4742 08f4 37050000 		.4byte	.LASF156
 4743 08f8 01       		.byte	0x1
 4744 08f9 3402     		.2byte	0x234
 4745 08fb A2000000 		.4byte	0xa2
 4746 08ff 04       		.byte	0x4
 4747 0900 14       		.uleb128 0x14
 4748 0901 2B060000 		.4byte	.LASF157
 4749 0905 01       		.byte	0x1
 4750 0906 3D02     		.2byte	0x23d
 4751 0908 A2000000 		.4byte	0xa2
 4752 090c 08       		.byte	0x8
 4753 090d 14       		.uleb128 0x14
 4754 090e 3A020000 		.4byte	.LASF158
 4755 0912 01       		.byte	0x1
 4756 0913 3F02     		.2byte	0x23f
 4757 0915 A2000000 		.4byte	0xa2
 4758 0919 0C       		.byte	0xc
 4759 091a 00       		.byte	0
 4760 091b 0F       		.uleb128 0xf
 4761 091c D2000000 		.4byte	.LASF159
ARM GAS  C:\Users\ikomb\AppData\Local\Temp\ccEKz2Td.s 			page 135


 4762 0920 01       		.byte	0x1
 4763 0921 4202     		.2byte	0x242
 4764 0923 DD080000 		.4byte	0x8dd
 4765 0927 13       		.uleb128 0x13
 4766 0928 28       		.byte	0x28
 4767 0929 01       		.byte	0x1
 4768 092a 4502     		.2byte	0x245
 4769 092c B3090000 		.4byte	0x9b3
 4770 0930 14       		.uleb128 0x14
 4771 0931 0C070000 		.4byte	.LASF160
 4772 0935 01       		.byte	0x1
 4773 0936 4702     		.2byte	0x247
 4774 0938 B9090000 		.4byte	0x9b9
 4775 093c 00       		.byte	0
 4776 093d 14       		.uleb128 0x14
 4777 093e F0050000 		.4byte	.LASF161
 4778 0942 01       		.byte	0x1
 4779 0943 4802     		.2byte	0x248
 4780 0945 A2000000 		.4byte	0xa2
 4781 0949 04       		.byte	0x4
 4782 094a 14       		.uleb128 0x14
 4783 094b 3D0B0000 		.4byte	.LASF162
 4784 094f 01       		.byte	0x1
 4785 0950 4C02     		.2byte	0x24c
 4786 0952 BB000000 		.4byte	0xbb
 4787 0956 08       		.byte	0x8
 4788 0957 14       		.uleb128 0x14
 4789 0958 E6030000 		.4byte	.LASF163
 4790 095c 01       		.byte	0x1
 4791 095d 4D02     		.2byte	0x24d
 4792 095f B9090000 		.4byte	0x9b9
 4793 0963 0C       		.byte	0xc
 4794 0964 14       		.uleb128 0x14
 4795 0965 44090000 		.4byte	.LASF164
 4796 0969 01       		.byte	0x1
 4797 096a 4E02     		.2byte	0x24e
 4798 096c A2000000 		.4byte	0xa2
 4799 0970 10       		.byte	0x10
 4800 0971 14       		.uleb128 0x14
 4801 0972 A60C0000 		.4byte	.LASF165
 4802 0976 01       		.byte	0x1
 4803 0977 5202     		.2byte	0x252
 4804 0979 BB000000 		.4byte	0xbb
 4805 097d 14       		.byte	0x14
 4806 097e 14       		.uleb128 0x14
 4807 097f 510E0000 		.4byte	.LASF166
 4808 0983 01       		.byte	0x1
 4809 0984 5602     		.2byte	0x256
 4810 0986 BB000000 		.4byte	0xbb
 4811 098a 18       		.byte	0x18
 4812 098b 14       		.uleb128 0x14
 4813 098c 330C0000 		.4byte	.LASF167
 4814 0990 01       		.byte	0x1
 4815 0991 5702     		.2byte	0x257
 4816 0993 BE090000 		.4byte	0x9be
 4817 0997 1C       		.byte	0x1c
 4818 0998 14       		.uleb128 0x14
ARM GAS  C:\Users\ikomb\AppData\Local\Temp\ccEKz2Td.s 			page 136


 4819 0999 DE070000 		.4byte	.LASF168
 4820 099d 01       		.byte	0x1
 4821 099e 5802     		.2byte	0x258
 4822 09a0 BE090000 		.4byte	0x9be
 4823 09a4 20       		.byte	0x20
 4824 09a5 14       		.uleb128 0x14
 4825 09a6 240D0000 		.4byte	.LASF169
 4826 09aa 01       		.byte	0x1
 4827 09ab 5C02     		.2byte	0x25c
 4828 09ad A2000000 		.4byte	0xa2
 4829 09b1 24       		.byte	0x24
 4830 09b2 00       		.byte	0
 4831 09b3 16       		.uleb128 0x16
 4832 09b4 04       		.byte	0x4
 4833 09b5 C0000000 		.4byte	0xc0
 4834 09b9 05       		.uleb128 0x5
 4835 09ba B3090000 		.4byte	0x9b3
 4836 09be 05       		.uleb128 0x5
 4837 09bf C0080000 		.4byte	0x8c0
 4838 09c3 0F       		.uleb128 0xf
 4839 09c4 860C0000 		.4byte	.LASF170
 4840 09c8 01       		.byte	0x1
 4841 09c9 5D02     		.2byte	0x25d
 4842 09cb 27090000 		.4byte	0x927
 4843 09cf 19       		.uleb128 0x19
 4844 09d0 C60D0000 		.4byte	.LASF171
 4845 09d4 01       		.byte	0x1
 4846 09d5 D002     		.2byte	0x2d0
 4847 09d7 00000000 		.4byte	.LFB158
 4848 09db 24000000 		.4byte	.LFE158-.LFB158
 4849 09df 01       		.uleb128 0x1
 4850 09e0 9C       		.byte	0x9c
 4851 09e1 F5090000 		.4byte	0x9f5
 4852 09e5 1A       		.uleb128 0x1a
 4853 09e6 6A040000 		.4byte	.LASF101
 4854 09ea 01       		.byte	0x1
 4855 09eb D002     		.2byte	0x2d0
 4856 09ed F5090000 		.4byte	0x9f5
 4857 09f1 02       		.uleb128 0x2
 4858 09f2 91       		.byte	0x91
 4859 09f3 74       		.sleb128 -12
 4860 09f4 00       		.byte	0
 4861 09f5 16       		.uleb128 0x16
 4862 09f6 04       		.byte	0x4
 4863 09f7 D8050000 		.4byte	0x5d8
 4864 09fb 19       		.uleb128 0x19
 4865 09fc C10C0000 		.4byte	.LASF172
 4866 0a00 01       		.byte	0x1
 4867 0a01 E702     		.2byte	0x2e7
 4868 0a03 00000000 		.4byte	.LFB159
 4869 0a07 1E000000 		.4byte	.LFE159-.LFB159
 4870 0a0b 01       		.uleb128 0x1
 4871 0a0c 9C       		.byte	0x9c
 4872 0a0d 300A0000 		.4byte	0xa30
 4873 0a11 1A       		.uleb128 0x1a
 4874 0a12 6A040000 		.4byte	.LASF101
 4875 0a16 01       		.byte	0x1
ARM GAS  C:\Users\ikomb\AppData\Local\Temp\ccEKz2Td.s 			page 137


 4876 0a17 E702     		.2byte	0x2e7
 4877 0a19 F5090000 		.4byte	0x9f5
 4878 0a1d 02       		.uleb128 0x2
 4879 0a1e 91       		.byte	0x91
 4880 0a1f 74       		.sleb128 -12
 4881 0a20 1A       		.uleb128 0x1a
 4882 0a21 9B040000 		.4byte	.LASF173
 4883 0a25 01       		.byte	0x1
 4884 0a26 E702     		.2byte	0x2e7
 4885 0a28 A2000000 		.4byte	0xa2
 4886 0a2c 02       		.uleb128 0x2
 4887 0a2d 91       		.byte	0x91
 4888 0a2e 70       		.sleb128 -16
 4889 0a2f 00       		.byte	0
 4890 0a30 1B       		.uleb128 0x1b
 4891 0a31 02090000 		.4byte	.LASF174
 4892 0a35 01       		.byte	0x1
 4893 0a36 F902     		.2byte	0x2f9
 4894 0a38 A2000000 		.4byte	0xa2
 4895 0a3c 00000000 		.4byte	.LFB160
 4896 0a40 1A000000 		.4byte	.LFE160-.LFB160
 4897 0a44 01       		.uleb128 0x1
 4898 0a45 9C       		.byte	0x9c
 4899 0a46 5A0A0000 		.4byte	0xa5a
 4900 0a4a 1A       		.uleb128 0x1a
 4901 0a4b 6A040000 		.4byte	.LASF101
 4902 0a4f 01       		.byte	0x1
 4903 0a50 F902     		.2byte	0x2f9
 4904 0a52 5A0A0000 		.4byte	0xa5a
 4905 0a56 02       		.uleb128 0x2
 4906 0a57 91       		.byte	0x91
 4907 0a58 74       		.sleb128 -12
 4908 0a59 00       		.byte	0
 4909 0a5a 16       		.uleb128 0x16
 4910 0a5b 04       		.byte	0x4
 4911 0a5c 600A0000 		.4byte	0xa60
 4912 0a60 06       		.uleb128 0x6
 4913 0a61 D8050000 		.4byte	0x5d8
 4914 0a65 1B       		.uleb128 0x1b
 4915 0a66 BB010000 		.4byte	.LASF175
 4916 0a6a 01       		.byte	0x1
 4917 0a6b 9103     		.2byte	0x391
 4918 0a6d A2000000 		.4byte	0xa2
 4919 0a71 00000000 		.4byte	.LFB167
 4920 0a75 1C000000 		.4byte	.LFE167-.LFB167
 4921 0a79 01       		.uleb128 0x1
 4922 0a7a 9C       		.byte	0x9c
 4923 0a7b 8F0A0000 		.4byte	0xa8f
 4924 0a7f 1A       		.uleb128 0x1a
 4925 0a80 6A040000 		.4byte	.LASF101
 4926 0a84 01       		.byte	0x1
 4927 0a85 9103     		.2byte	0x391
 4928 0a87 5A0A0000 		.4byte	0xa5a
 4929 0a8b 02       		.uleb128 0x2
 4930 0a8c 91       		.byte	0x91
 4931 0a8d 74       		.sleb128 -12
 4932 0a8e 00       		.byte	0
ARM GAS  C:\Users\ikomb\AppData\Local\Temp\ccEKz2Td.s 			page 138


 4933 0a8f 1B       		.uleb128 0x1b
 4934 0a90 4B0D0000 		.4byte	.LASF176
 4935 0a94 01       		.byte	0x1
 4936 0a95 A303     		.2byte	0x3a3
 4937 0a97 A2000000 		.4byte	0xa2
 4938 0a9b 00000000 		.4byte	.LFB168
 4939 0a9f 1E000000 		.4byte	.LFE168-.LFB168
 4940 0aa3 01       		.uleb128 0x1
 4941 0aa4 9C       		.byte	0x9c
 4942 0aa5 B90A0000 		.4byte	0xab9
 4943 0aa9 1A       		.uleb128 0x1a
 4944 0aaa 6A040000 		.4byte	.LASF101
 4945 0aae 01       		.byte	0x1
 4946 0aaf A303     		.2byte	0x3a3
 4947 0ab1 5A0A0000 		.4byte	0xa5a
 4948 0ab5 02       		.uleb128 0x2
 4949 0ab6 91       		.byte	0x91
 4950 0ab7 74       		.sleb128 -12
 4951 0ab8 00       		.byte	0
 4952 0ab9 1B       		.uleb128 0x1b
 4953 0aba 13040000 		.4byte	.LASF177
 4954 0abe 01       		.byte	0x1
 4955 0abf B503     		.2byte	0x3b5
 4956 0ac1 A2000000 		.4byte	0xa2
 4957 0ac5 00000000 		.4byte	.LFB169
 4958 0ac9 1E000000 		.4byte	.LFE169-.LFB169
 4959 0acd 01       		.uleb128 0x1
 4960 0ace 9C       		.byte	0x9c
 4961 0acf E30A0000 		.4byte	0xae3
 4962 0ad3 1A       		.uleb128 0x1a
 4963 0ad4 6A040000 		.4byte	.LASF101
 4964 0ad8 01       		.byte	0x1
 4965 0ad9 B503     		.2byte	0x3b5
 4966 0adb 5A0A0000 		.4byte	0xa5a
 4967 0adf 02       		.uleb128 0x2
 4968 0ae0 91       		.byte	0x91
 4969 0ae1 74       		.sleb128 -12
 4970 0ae2 00       		.byte	0
 4971 0ae3 1B       		.uleb128 0x1b
 4972 0ae4 40080000 		.4byte	.LASF178
 4973 0ae8 01       		.byte	0x1
 4974 0ae9 C803     		.2byte	0x3c8
 4975 0aeb 0D0B0000 		.4byte	0xb0d
 4976 0aef 00000000 		.4byte	.LFB170
 4977 0af3 28000000 		.4byte	.LFE170-.LFB170
 4978 0af7 01       		.uleb128 0x1
 4979 0af8 9C       		.byte	0x9c
 4980 0af9 0D0B0000 		.4byte	0xb0d
 4981 0afd 1A       		.uleb128 0x1a
 4982 0afe 6A040000 		.4byte	.LASF101
 4983 0b02 01       		.byte	0x1
 4984 0b03 C803     		.2byte	0x3c8
 4985 0b05 5A0A0000 		.4byte	0xa5a
 4986 0b09 02       		.uleb128 0x2
 4987 0b0a 91       		.byte	0x91
 4988 0b0b 74       		.sleb128 -12
 4989 0b0c 00       		.byte	0
ARM GAS  C:\Users\ikomb\AppData\Local\Temp\ccEKz2Td.s 			page 139


 4990 0b0d 02       		.uleb128 0x2
 4991 0b0e 01       		.byte	0x1
 4992 0b0f 02       		.byte	0x2
 4993 0b10 0F060000 		.4byte	.LASF179
 4994 0b14 1C       		.uleb128 0x1c
 4995 0b15 380A0000 		.4byte	.LASF180
 4996 0b19 01       		.byte	0x1
 4997 0b1a 3B04     		.2byte	0x43b
 4998 0b1c 00000000 		.4byte	.LFB172
 4999 0b20 F2010000 		.4byte	.LFE172-.LFB172
 5000 0b24 01       		.uleb128 0x1
 5001 0b25 9C       		.byte	0x9c
 5002 0b26 850B0000 		.4byte	0xb85
 5003 0b2a 1A       		.uleb128 0x1a
 5004 0b2b 010E0000 		.4byte	.LASF181
 5005 0b2f 01       		.byte	0x1
 5006 0b30 3B04     		.2byte	0x43b
 5007 0b32 F5090000 		.4byte	0x9f5
 5008 0b36 02       		.uleb128 0x2
 5009 0b37 91       		.byte	0x91
 5010 0b38 64       		.sleb128 -28
 5011 0b39 1A       		.uleb128 0x1a
 5012 0b3a 70080000 		.4byte	.LASF102
 5013 0b3e 01       		.byte	0x1
 5014 0b3f 3B04     		.2byte	0x43b
 5015 0b41 850B0000 		.4byte	0xb85
 5016 0b45 02       		.uleb128 0x2
 5017 0b46 91       		.byte	0x91
 5018 0b47 60       		.sleb128 -32
 5019 0b48 1D       		.uleb128 0x1d
 5020 0b49 BC0B0000 		.4byte	.LASF182
 5021 0b4d 01       		.byte	0x1
 5022 0b4e 3E04     		.2byte	0x43e
 5023 0b50 A2000000 		.4byte	0xa2
 5024 0b54 02       		.uleb128 0x2
 5025 0b55 91       		.byte	0x91
 5026 0b56 74       		.sleb128 -12
 5027 0b57 1D       		.uleb128 0x1d
 5028 0b58 45020000 		.4byte	.LASF183
 5029 0b5c 01       		.byte	0x1
 5030 0b5d 3F04     		.2byte	0x43f
 5031 0b5f A2000000 		.4byte	0xa2
 5032 0b63 02       		.uleb128 0x2
 5033 0b64 91       		.byte	0x91
 5034 0b65 68       		.sleb128 -24
 5035 0b66 1D       		.uleb128 0x1d
 5036 0b67 3F0D0000 		.4byte	.LASF184
 5037 0b6b 01       		.byte	0x1
 5038 0b6c 4004     		.2byte	0x440
 5039 0b6e A2000000 		.4byte	0xa2
 5040 0b72 02       		.uleb128 0x2
 5041 0b73 91       		.byte	0x91
 5042 0b74 70       		.sleb128 -16
 5043 0b75 1D       		.uleb128 0x1d
 5044 0b76 92060000 		.4byte	.LASF185
 5045 0b7a 01       		.byte	0x1
 5046 0b7b 4104     		.2byte	0x441
ARM GAS  C:\Users\ikomb\AppData\Local\Temp\ccEKz2Td.s 			page 140


 5047 0b7d 8B0B0000 		.4byte	0xb8b
 5048 0b81 02       		.uleb128 0x2
 5049 0b82 91       		.byte	0x91
 5050 0b83 6C       		.sleb128 -20
 5051 0b84 00       		.byte	0
 5052 0b85 16       		.uleb128 0x16
 5053 0b86 04       		.byte	0x4
 5054 0b87 C3090000 		.4byte	0x9c3
 5055 0b8b 16       		.uleb128 0x16
 5056 0b8c 04       		.byte	0x4
 5057 0b8d 8C000000 		.4byte	0x8c
 5058 0b91 1C       		.uleb128 0x1c
 5059 0b92 DE0B0000 		.4byte	.LASF186
 5060 0b96 01       		.byte	0x1
 5061 0b97 A404     		.2byte	0x4a4
 5062 0b99 00000000 		.4byte	.LFB173
 5063 0b9d E4010000 		.4byte	.LFE173-.LFB173
 5064 0ba1 01       		.uleb128 0x1
 5065 0ba2 9C       		.byte	0x9c
 5066 0ba3 020C0000 		.4byte	0xc02
 5067 0ba7 1A       		.uleb128 0x1a
 5068 0ba8 010E0000 		.4byte	.LASF181
 5069 0bac 01       		.byte	0x1
 5070 0bad A404     		.2byte	0x4a4
 5071 0baf F5090000 		.4byte	0x9f5
 5072 0bb3 02       		.uleb128 0x2
 5073 0bb4 91       		.byte	0x91
 5074 0bb5 64       		.sleb128 -28
 5075 0bb6 1A       		.uleb128 0x1a
 5076 0bb7 70080000 		.4byte	.LASF102
 5077 0bbb 01       		.byte	0x1
 5078 0bbc A404     		.2byte	0x4a4
 5079 0bbe 850B0000 		.4byte	0xb85
 5080 0bc2 02       		.uleb128 0x2
 5081 0bc3 91       		.byte	0x91
 5082 0bc4 60       		.sleb128 -32
 5083 0bc5 1D       		.uleb128 0x1d
 5084 0bc6 9E090000 		.4byte	.LASF187
 5085 0bca 01       		.byte	0x1
 5086 0bcb A704     		.2byte	0x4a7
 5087 0bcd A2000000 		.4byte	0xa2
 5088 0bd1 02       		.uleb128 0x2
 5089 0bd2 91       		.byte	0x91
 5090 0bd3 74       		.sleb128 -12
 5091 0bd4 1D       		.uleb128 0x1d
 5092 0bd5 170C0000 		.4byte	.LASF188
 5093 0bd9 01       		.byte	0x1
 5094 0bda A804     		.2byte	0x4a8
 5095 0bdc A2000000 		.4byte	0xa2
 5096 0be0 02       		.uleb128 0x2
 5097 0be1 91       		.byte	0x91
 5098 0be2 68       		.sleb128 -24
 5099 0be3 1D       		.uleb128 0x1d
 5100 0be4 3F0D0000 		.4byte	.LASF184
 5101 0be8 01       		.byte	0x1
 5102 0be9 A904     		.2byte	0x4a9
 5103 0beb A2000000 		.4byte	0xa2
ARM GAS  C:\Users\ikomb\AppData\Local\Temp\ccEKz2Td.s 			page 141


 5104 0bef 02       		.uleb128 0x2
 5105 0bf0 91       		.byte	0x91
 5106 0bf1 70       		.sleb128 -16
 5107 0bf2 1D       		.uleb128 0x1d
 5108 0bf3 92060000 		.4byte	.LASF185
 5109 0bf7 01       		.byte	0x1
 5110 0bf8 AA04     		.2byte	0x4aa
 5111 0bfa 8B0B0000 		.4byte	0xb8b
 5112 0bfe 02       		.uleb128 0x2
 5113 0bff 91       		.byte	0x91
 5114 0c00 6C       		.sleb128 -20
 5115 0c01 00       		.byte	0
 5116 0c02 1B       		.uleb128 0x1b
 5117 0c03 9A080000 		.4byte	.LASF189
 5118 0c07 01       		.byte	0x1
 5119 0c08 0E05     		.2byte	0x50e
 5120 0c0a A2000000 		.4byte	0xa2
 5121 0c0e 00000000 		.4byte	.LFB174
 5122 0c12 4C000000 		.4byte	.LFE174-.LFB174
 5123 0c16 01       		.uleb128 0x1
 5124 0c17 9C       		.byte	0x9c
 5125 0c18 4A0C0000 		.4byte	0xc4a
 5126 0c1c 1A       		.uleb128 0x1a
 5127 0c1d 92060000 		.4byte	.LASF185
 5128 0c21 01       		.byte	0x1
 5129 0c22 0E05     		.2byte	0x50e
 5130 0c24 4A0C0000 		.4byte	0xc4a
 5131 0c28 02       		.uleb128 0x2
 5132 0c29 91       		.byte	0x91
 5133 0c2a 6C       		.sleb128 -20
 5134 0c2b 1A       		.uleb128 0x1a
 5135 0c2c DF060000 		.4byte	.LASF190
 5136 0c30 01       		.byte	0x1
 5137 0c31 0E05     		.2byte	0x50e
 5138 0c33 0D0B0000 		.4byte	0xb0d
 5139 0c37 02       		.uleb128 0x2
 5140 0c38 91       		.byte	0x91
 5141 0c39 6B       		.sleb128 -21
 5142 0c3a 1D       		.uleb128 0x1d
 5143 0c3b A5040000 		.4byte	.LASF191
 5144 0c3f 01       		.byte	0x1
 5145 0c40 1005     		.2byte	0x510
 5146 0c42 A2000000 		.4byte	0xa2
 5147 0c46 02       		.uleb128 0x2
 5148 0c47 91       		.byte	0x91
 5149 0c48 74       		.sleb128 -12
 5150 0c49 00       		.byte	0
 5151 0c4a 16       		.uleb128 0x16
 5152 0c4b 04       		.byte	0x4
 5153 0c4c 500C0000 		.4byte	0xc50
 5154 0c50 06       		.uleb128 0x6
 5155 0c51 8C000000 		.4byte	0x8c
 5156 0c55 19       		.uleb128 0x19
 5157 0c56 71000000 		.4byte	.LASF192
 5158 0c5a 01       		.byte	0x1
 5159 0c5b 3005     		.2byte	0x530
 5160 0c5d 00000000 		.4byte	.LFB175
ARM GAS  C:\Users\ikomb\AppData\Local\Temp\ccEKz2Td.s 			page 142


 5161 0c61 4C000000 		.4byte	.LFE175-.LFB175
 5162 0c65 01       		.uleb128 0x1
 5163 0c66 9C       		.byte	0x9c
 5164 0c67 990C0000 		.4byte	0xc99
 5165 0c6b 1A       		.uleb128 0x1a
 5166 0c6c 7B040000 		.4byte	.LASF193
 5167 0c70 01       		.byte	0x1
 5168 0c71 3005     		.2byte	0x530
 5169 0c73 A2000000 		.4byte	0xa2
 5170 0c77 02       		.uleb128 0x2
 5171 0c78 91       		.byte	0x91
 5172 0c79 74       		.sleb128 -12
 5173 0c7a 1A       		.uleb128 0x1a
 5174 0c7b 3A000000 		.4byte	.LASF194
 5175 0c7f 01       		.byte	0x1
 5176 0c80 3005     		.2byte	0x530
 5177 0c82 8B0B0000 		.4byte	0xb8b
 5178 0c86 02       		.uleb128 0x2
 5179 0c87 91       		.byte	0x91
 5180 0c88 70       		.sleb128 -16
 5181 0c89 1A       		.uleb128 0x1a
 5182 0c8a DF060000 		.4byte	.LASF190
 5183 0c8e 01       		.byte	0x1
 5184 0c8f 3005     		.2byte	0x530
 5185 0c91 0D0B0000 		.4byte	0xb0d
 5186 0c95 02       		.uleb128 0x2
 5187 0c96 91       		.byte	0x91
 5188 0c97 6F       		.sleb128 -17
 5189 0c98 00       		.byte	0
 5190 0c99 1E       		.uleb128 0x1e
 5191 0c9a 53020000 		.4byte	.LASF195
 5192 0c9e 01       		.byte	0x1
 5193 0c9f 5005     		.2byte	0x550
 5194 0ca1 24080000 		.4byte	0x824
 5195 0ca5 00000000 		.4byte	.LFB176
 5196 0ca9 44000000 		.4byte	.LFE176-.LFB176
 5197 0cad 01       		.uleb128 0x1
 5198 0cae 9C       		.byte	0x9c
 5199 0caf D20C0000 		.4byte	0xcd2
 5200 0cb3 1A       		.uleb128 0x1a
 5201 0cb4 F0070000 		.4byte	.LASF196
 5202 0cb8 01       		.byte	0x1
 5203 0cb9 5005     		.2byte	0x550
 5204 0cbb D20C0000 		.4byte	0xcd2
 5205 0cbf 02       		.uleb128 0x2
 5206 0cc0 91       		.byte	0x91
 5207 0cc1 6C       		.sleb128 -20
 5208 0cc2 1D       		.uleb128 0x1d
 5209 0cc3 FD070000 		.4byte	.LASF197
 5210 0cc7 01       		.byte	0x1
 5211 0cc8 5205     		.2byte	0x552
 5212 0cca 24080000 		.4byte	0x824
 5213 0cce 02       		.uleb128 0x2
 5214 0ccf 91       		.byte	0x91
 5215 0cd0 74       		.sleb128 -12
 5216 0cd1 00       		.byte	0
 5217 0cd2 16       		.uleb128 0x16
ARM GAS  C:\Users\ikomb\AppData\Local\Temp\ccEKz2Td.s 			page 143


 5218 0cd3 04       		.byte	0x4
 5219 0cd4 A2000000 		.4byte	0xa2
 5220 0cd8 1B       		.uleb128 0x1b
 5221 0cd9 BB080000 		.4byte	.LASF198
 5222 0cdd 01       		.byte	0x1
 5223 0cde 6F05     		.2byte	0x56f
 5224 0ce0 200D0000 		.4byte	0xd20
 5225 0ce4 00000000 		.4byte	.LFB177
 5226 0ce8 78000000 		.4byte	.LFE177-.LFB177
 5227 0cec 01       		.uleb128 0x1
 5228 0ced 9C       		.byte	0x9c
 5229 0cee 200D0000 		.4byte	0xd20
 5230 0cf2 1A       		.uleb128 0x1a
 5231 0cf3 6A040000 		.4byte	.LASF101
 5232 0cf7 01       		.byte	0x1
 5233 0cf8 6F05     		.2byte	0x56f
 5234 0cfa F5090000 		.4byte	0x9f5
 5235 0cfe 02       		.uleb128 0x2
 5236 0cff 91       		.byte	0x91
 5237 0d00 6C       		.sleb128 -20
 5238 0d01 1A       		.uleb128 0x1a
 5239 0d02 18010000 		.4byte	.LASF199
 5240 0d06 01       		.byte	0x1
 5241 0d07 7005     		.2byte	0x570
 5242 0d09 56080000 		.4byte	0x856
 5243 0d0d 02       		.uleb128 0x2
 5244 0d0e 91       		.byte	0x91
 5245 0d0f 6B       		.sleb128 -21
 5246 0d10 1D       		.uleb128 0x1d
 5247 0d11 EB010000 		.4byte	.LASF200
 5248 0d15 01       		.byte	0x1
 5249 0d16 7205     		.2byte	0x572
 5250 0d18 200D0000 		.4byte	0xd20
 5251 0d1c 02       		.uleb128 0x2
 5252 0d1d 91       		.byte	0x91
 5253 0d1e 74       		.sleb128 -12
 5254 0d1f 00       		.byte	0
 5255 0d20 16       		.uleb128 0x16
 5256 0d21 04       		.byte	0x4
 5257 0d22 260D0000 		.4byte	0xd26
 5258 0d26 05       		.uleb128 0x5
 5259 0d27 5F020000 		.4byte	0x25f
 5260 0d2b 1F       		.uleb128 0x1f
 5261 0d2c D10B0000 		.4byte	.LASF204
 5262 0d30 02       		.byte	0x2
 5263 0d31 3C       		.byte	0x3c
 5264 0d32 24080000 		.4byte	0x824
 5265 0d36 00000000 		.4byte	.LFB178
 5266 0d3a 00010000 		.4byte	.LFE178-.LFB178
 5267 0d3e 01       		.uleb128 0x1
 5268 0d3f 9C       		.byte	0x9c
 5269 0d40 8B0D0000 		.4byte	0xd8b
 5270 0d44 20       		.uleb128 0x20
 5271 0d45 6A040000 		.4byte	.LASF101
 5272 0d49 02       		.byte	0x2
 5273 0d4a 3C       		.byte	0x3c
 5274 0d4b F5090000 		.4byte	0x9f5
ARM GAS  C:\Users\ikomb\AppData\Local\Temp\ccEKz2Td.s 			page 144


 5275 0d4f 02       		.uleb128 0x2
 5276 0d50 91       		.byte	0x91
 5277 0d51 6C       		.sleb128 -20
 5278 0d52 20       		.uleb128 0x20
 5279 0d53 5C0A0000 		.4byte	.LASF201
 5280 0d57 02       		.byte	0x2
 5281 0d58 3D       		.byte	0x3d
 5282 0d59 8B0D0000 		.4byte	0xd8b
 5283 0d5d 02       		.uleb128 0x2
 5284 0d5e 91       		.byte	0x91
 5285 0d5f 68       		.sleb128 -24
 5286 0d60 20       		.uleb128 0x20
 5287 0d61 240D0000 		.4byte	.LASF169
 5288 0d65 02       		.byte	0x2
 5289 0d66 3E       		.byte	0x3e
 5290 0d67 A2000000 		.4byte	0xa2
 5291 0d6b 02       		.uleb128 0x2
 5292 0d6c 91       		.byte	0x91
 5293 0d6d 64       		.sleb128 -28
 5294 0d6e 20       		.uleb128 0x20
 5295 0d6f 70080000 		.4byte	.LASF102
 5296 0d73 02       		.byte	0x2
 5297 0d74 3F       		.byte	0x3f
 5298 0d75 850B0000 		.4byte	0xb85
 5299 0d79 02       		.uleb128 0x2
 5300 0d7a 91       		.byte	0x91
 5301 0d7b 60       		.sleb128 -32
 5302 0d7c 21       		.uleb128 0x21
 5303 0d7d A5040000 		.4byte	.LASF191
 5304 0d81 02       		.byte	0x2
 5305 0d82 41       		.byte	0x41
 5306 0d83 24080000 		.4byte	0x824
 5307 0d87 02       		.uleb128 0x2
 5308 0d88 91       		.byte	0x91
 5309 0d89 74       		.sleb128 -12
 5310 0d8a 00       		.byte	0
 5311 0d8b 16       		.uleb128 0x16
 5312 0d8c 04       		.byte	0x4
 5313 0d8d 910D0000 		.4byte	0xd91
 5314 0d91 06       		.uleb128 0x6
 5315 0d92 1B090000 		.4byte	0x91b
 5316 0d96 22       		.uleb128 0x22
 5317 0d97 B5060000 		.4byte	.LASF202
 5318 0d9b 02       		.byte	0x2
 5319 0d9c 72       		.byte	0x72
 5320 0d9d 00000000 		.4byte	.LFB179
 5321 0da1 60000000 		.4byte	.LFE179-.LFB179
 5322 0da5 01       		.uleb128 0x1
 5323 0da6 9C       		.byte	0x9c
 5324 0da7 C80D0000 		.4byte	0xdc8
 5325 0dab 20       		.uleb128 0x20
 5326 0dac 6A040000 		.4byte	.LASF101
 5327 0db0 02       		.byte	0x2
 5328 0db1 72       		.byte	0x72
 5329 0db2 F5090000 		.4byte	0x9f5
 5330 0db6 02       		.uleb128 0x2
 5331 0db7 91       		.byte	0x91
ARM GAS  C:\Users\ikomb\AppData\Local\Temp\ccEKz2Td.s 			page 145


 5332 0db8 6C       		.sleb128 -20
 5333 0db9 23       		.uleb128 0x23
 5334 0dba 69647800 		.ascii	"idx\000"
 5335 0dbe 02       		.byte	0x2
 5336 0dbf 74       		.byte	0x74
 5337 0dc0 A2000000 		.4byte	0xa2
 5338 0dc4 02       		.uleb128 0x2
 5339 0dc5 91       		.byte	0x91
 5340 0dc6 74       		.sleb128 -12
 5341 0dc7 00       		.byte	0
 5342 0dc8 24       		.uleb128 0x24
 5343 0dc9 F3090000 		.4byte	.LASF203
 5344 0dcd 02       		.byte	0x2
 5345 0dce 99       		.byte	0x99
 5346 0dcf 00000000 		.4byte	.LFB180
 5347 0dd3 50000000 		.4byte	.LFE180-.LFB180
 5348 0dd7 01       		.uleb128 0x1
 5349 0dd8 9C       		.byte	0x9c
 5350 0dd9 FA0D0000 		.4byte	0xdfa
 5351 0ddd 20       		.uleb128 0x20
 5352 0dde 6A040000 		.4byte	.LASF101
 5353 0de2 02       		.byte	0x2
 5354 0de3 99       		.byte	0x99
 5355 0de4 F5090000 		.4byte	0x9f5
 5356 0de8 02       		.uleb128 0x2
 5357 0de9 91       		.byte	0x91
 5358 0dea 74       		.sleb128 -12
 5359 0deb 20       		.uleb128 0x20
 5360 0dec 18030000 		.4byte	.LASF100
 5361 0df0 02       		.byte	0x2
 5362 0df1 99       		.byte	0x99
 5363 0df2 63070000 		.4byte	0x763
 5364 0df6 02       		.uleb128 0x2
 5365 0df7 91       		.byte	0x91
 5366 0df8 73       		.sleb128 -13
 5367 0df9 00       		.byte	0
 5368 0dfa 25       		.uleb128 0x25
 5369 0dfb 9A0E0000 		.4byte	.LASF205
 5370 0dff 02       		.byte	0x2
 5371 0e00 BB       		.byte	0xbb
 5372 0e01 63070000 		.4byte	0x763
 5373 0e05 00000000 		.4byte	.LFB181
 5374 0e09 2A000000 		.4byte	.LFE181-.LFB181
 5375 0e0d 01       		.uleb128 0x1
 5376 0e0e 9C       		.byte	0x9c
 5377 0e0f 300E0000 		.4byte	0xe30
 5378 0e13 20       		.uleb128 0x20
 5379 0e14 6A040000 		.4byte	.LASF101
 5380 0e18 02       		.byte	0x2
 5381 0e19 BB       		.byte	0xbb
 5382 0e1a 5A0A0000 		.4byte	0xa5a
 5383 0e1e 02       		.uleb128 0x2
 5384 0e1f 91       		.byte	0x91
 5385 0e20 6C       		.sleb128 -20
 5386 0e21 21       		.uleb128 0x21
 5387 0e22 A5040000 		.4byte	.LASF191
 5388 0e26 02       		.byte	0x2
ARM GAS  C:\Users\ikomb\AppData\Local\Temp\ccEKz2Td.s 			page 146


 5389 0e27 BD       		.byte	0xbd
 5390 0e28 63070000 		.4byte	0x763
 5391 0e2c 02       		.uleb128 0x2
 5392 0e2d 91       		.byte	0x91
 5393 0e2e 77       		.sleb128 -9
 5394 0e2f 00       		.byte	0
 5395 0e30 24       		.uleb128 0x24
 5396 0e31 15060000 		.4byte	.LASF206
 5397 0e35 02       		.byte	0x2
 5398 0e36 DE       		.byte	0xde
 5399 0e37 00000000 		.4byte	.LFB182
 5400 0e3b 88000000 		.4byte	.LFE182-.LFB182
 5401 0e3f 01       		.uleb128 0x1
 5402 0e40 9C       		.byte	0x9c
 5403 0e41 7E0E0000 		.4byte	0xe7e
 5404 0e45 20       		.uleb128 0x20
 5405 0e46 6A040000 		.4byte	.LASF101
 5406 0e4a 02       		.byte	0x2
 5407 0e4b DE       		.byte	0xde
 5408 0e4c F5090000 		.4byte	0x9f5
 5409 0e50 02       		.uleb128 0x2
 5410 0e51 91       		.byte	0x91
 5411 0e52 6C       		.sleb128 -20
 5412 0e53 20       		.uleb128 0x20
 5413 0e54 18010000 		.4byte	.LASF199
 5414 0e58 02       		.byte	0x2
 5415 0e59 DE       		.byte	0xde
 5416 0e5a 56080000 		.4byte	0x856
 5417 0e5e 02       		.uleb128 0x2
 5418 0e5f 91       		.byte	0x91
 5419 0e60 6B       		.sleb128 -21
 5420 0e61 20       		.uleb128 0x20
 5421 0e62 DB0F0000 		.4byte	.LASF207
 5422 0e66 02       		.byte	0x2
 5423 0e67 DF       		.byte	0xdf
 5424 0e68 3D070000 		.4byte	0x73d
 5425 0e6c 02       		.uleb128 0x2
 5426 0e6d 91       		.byte	0x91
 5427 0e6e 6A       		.sleb128 -22
 5428 0e6f 21       		.uleb128 0x21
 5429 0e70 EB010000 		.4byte	.LASF200
 5430 0e74 02       		.byte	0x2
 5431 0e75 E1       		.byte	0xe1
 5432 0e76 200D0000 		.4byte	0xd20
 5433 0e7a 02       		.uleb128 0x2
 5434 0e7b 91       		.byte	0x91
 5435 0e7c 74       		.sleb128 -12
 5436 0e7d 00       		.byte	0
 5437 0e7e 26       		.uleb128 0x26
 5438 0e7f 630A0000 		.4byte	.LASF208
 5439 0e83 02       		.byte	0x2
 5440 0e84 2D01     		.2byte	0x12d
 5441 0e86 24080000 		.4byte	0x824
 5442 0e8a 00000000 		.4byte	.LFB183
 5443 0e8e 54010000 		.4byte	.LFE183-.LFB183
 5444 0e92 01       		.uleb128 0x1
 5445 0e93 9C       		.byte	0x9c
ARM GAS  C:\Users\ikomb\AppData\Local\Temp\ccEKz2Td.s 			page 147


 5446 0e94 5C0F0000 		.4byte	0xf5c
 5447 0e98 1A       		.uleb128 0x1a
 5448 0e99 6A040000 		.4byte	.LASF101
 5449 0e9d 02       		.byte	0x2
 5450 0e9e 2D01     		.2byte	0x12d
 5451 0ea0 F5090000 		.4byte	0x9f5
 5452 0ea4 02       		.uleb128 0x2
 5453 0ea5 91       		.byte	0x91
 5454 0ea6 64       		.sleb128 -28
 5455 0ea7 27       		.uleb128 0x27
 5456 0ea8 636D6400 		.ascii	"cmd\000"
 5457 0eac 02       		.byte	0x2
 5458 0ead 2E01     		.2byte	0x12e
 5459 0eaf 8C000000 		.4byte	0x8c
 5460 0eb3 02       		.uleb128 0x2
 5461 0eb4 91       		.byte	0x91
 5462 0eb5 63       		.sleb128 -29
 5463 0eb6 1A       		.uleb128 0x1a
 5464 0eb7 04080000 		.4byte	.LASF209
 5465 0ebb 02       		.byte	0x2
 5466 0ebc 2F01     		.2byte	0x12f
 5467 0ebe E5060000 		.4byte	0x6e5
 5468 0ec2 02       		.uleb128 0x2
 5469 0ec3 91       		.byte	0x91
 5470 0ec4 62       		.sleb128 -30
 5471 0ec5 1A       		.uleb128 0x1a
 5472 0ec6 DC080000 		.4byte	.LASF210
 5473 0eca 02       		.byte	0x2
 5474 0ecb 3001     		.2byte	0x130
 5475 0ecd 4A0C0000 		.4byte	0xc4a
 5476 0ed1 02       		.uleb128 0x2
 5477 0ed2 91       		.byte	0x91
 5478 0ed3 5C       		.sleb128 -36
 5479 0ed4 1A       		.uleb128 0x1a
 5480 0ed5 DC030000 		.4byte	.LASF211
 5481 0ed9 02       		.byte	0x2
 5482 0eda 3101     		.2byte	0x131
 5483 0edc A2000000 		.4byte	0xa2
 5484 0ee0 02       		.uleb128 0x2
 5485 0ee1 91       		.byte	0x91
 5486 0ee2 00       		.sleb128 0
 5487 0ee3 1A       		.uleb128 0x1a
 5488 0ee4 52080000 		.4byte	.LASF212
 5489 0ee8 02       		.byte	0x2
 5490 0ee9 3201     		.2byte	0x132
 5491 0eeb E5060000 		.4byte	0x6e5
 5492 0eef 02       		.uleb128 0x2
 5493 0ef0 91       		.byte	0x91
 5494 0ef1 04       		.sleb128 4
 5495 0ef2 1A       		.uleb128 0x1a
 5496 0ef3 18010000 		.4byte	.LASF199
 5497 0ef7 02       		.byte	0x2
 5498 0ef8 3301     		.2byte	0x133
 5499 0efa 56080000 		.4byte	0x856
 5500 0efe 02       		.uleb128 0x2
 5501 0eff 91       		.byte	0x91
 5502 0f00 08       		.sleb128 8
ARM GAS  C:\Users\ikomb\AppData\Local\Temp\ccEKz2Td.s 			page 148


 5503 0f01 1A       		.uleb128 0x1a
 5504 0f02 CE050000 		.4byte	.LASF213
 5505 0f06 02       		.byte	0x2
 5506 0f07 3401     		.2byte	0x134
 5507 0f09 A2000000 		.4byte	0xa2
 5508 0f0d 02       		.uleb128 0x2
 5509 0f0e 91       		.byte	0x91
 5510 0f0f 0C       		.sleb128 12
 5511 0f10 1A       		.uleb128 0x1a
 5512 0f11 70080000 		.4byte	.LASF102
 5513 0f15 02       		.byte	0x2
 5514 0f16 3501     		.2byte	0x135
 5515 0f18 5C0F0000 		.4byte	0xf5c
 5516 0f1c 02       		.uleb128 0x2
 5517 0f1d 91       		.byte	0x91
 5518 0f1e 10       		.sleb128 16
 5519 0f1f 1D       		.uleb128 0x1d
 5520 0f20 A5040000 		.4byte	.LASF191
 5521 0f24 02       		.byte	0x2
 5522 0f25 3801     		.2byte	0x138
 5523 0f27 24080000 		.4byte	0x824
 5524 0f2b 02       		.uleb128 0x2
 5525 0f2c 91       		.byte	0x91
 5526 0f2d 74       		.sleb128 -12
 5527 0f2e 1D       		.uleb128 0x1d
 5528 0f2f 78080000 		.4byte	.LASF214
 5529 0f33 02       		.byte	0x2
 5530 0f34 4001     		.2byte	0x140
 5531 0f36 8C000000 		.4byte	0x8c
 5532 0f3a 02       		.uleb128 0x2
 5533 0f3b 91       		.byte	0x91
 5534 0f3c 73       		.sleb128 -13
 5535 0f3d 1D       		.uleb128 0x1d
 5536 0f3e AD090000 		.4byte	.LASF215
 5537 0f42 02       		.byte	0x2
 5538 0f43 4201     		.2byte	0x142
 5539 0f45 670F0000 		.4byte	0xf67
 5540 0f49 02       		.uleb128 0x2
 5541 0f4a 91       		.byte	0x91
 5542 0f4b 6C       		.sleb128 -20
 5543 0f4c 1D       		.uleb128 0x1d
 5544 0f4d F0070000 		.4byte	.LASF196
 5545 0f51 02       		.byte	0x2
 5546 0f52 4501     		.2byte	0x145
 5547 0f54 A2000000 		.4byte	0xa2
 5548 0f58 02       		.uleb128 0x2
 5549 0f59 91       		.byte	0x91
 5550 0f5a 68       		.sleb128 -24
 5551 0f5b 00       		.byte	0
 5552 0f5c 16       		.uleb128 0x16
 5553 0f5d 04       		.byte	0x4
 5554 0f5e 620F0000 		.4byte	0xf62
 5555 0f62 06       		.uleb128 0x6
 5556 0f63 C3090000 		.4byte	0x9c3
 5557 0f67 06       		.uleb128 0x6
 5558 0f68 A2000000 		.4byte	0xa2
 5559 0f6c 26       		.uleb128 0x26
ARM GAS  C:\Users\ikomb\AppData\Local\Temp\ccEKz2Td.s 			page 149


 5560 0f6d B5070000 		.4byte	.LASF216
 5561 0f71 02       		.byte	0x2
 5562 0f72 9C01     		.2byte	0x19c
 5563 0f74 24080000 		.4byte	0x824
 5564 0f78 00000000 		.4byte	.LFB184
 5565 0f7c B4000000 		.4byte	.LFE184-.LFB184
 5566 0f80 01       		.uleb128 0x1
 5567 0f81 9C       		.byte	0x9c
 5568 0f82 F00F0000 		.4byte	0xff0
 5569 0f86 1A       		.uleb128 0x1a
 5570 0f87 6A040000 		.4byte	.LASF101
 5571 0f8b 02       		.byte	0x2
 5572 0f8c 9C01     		.2byte	0x19c
 5573 0f8e F5090000 		.4byte	0x9f5
 5574 0f92 02       		.uleb128 0x2
 5575 0f93 91       		.byte	0x91
 5576 0f94 6C       		.sleb128 -20
 5577 0f95 1A       		.uleb128 0x1a
 5578 0f96 4B0A0000 		.4byte	.LASF217
 5579 0f9a 02       		.byte	0x2
 5580 0f9b 9D01     		.2byte	0x19d
 5581 0f9d 8B0B0000 		.4byte	0xb8b
 5582 0fa1 02       		.uleb128 0x2
 5583 0fa2 91       		.byte	0x91
 5584 0fa3 68       		.sleb128 -24
 5585 0fa4 1A       		.uleb128 0x1a
 5586 0fa5 1B090000 		.4byte	.LASF218
 5587 0fa9 02       		.byte	0x2
 5588 0faa 9E01     		.2byte	0x19e
 5589 0fac A2000000 		.4byte	0xa2
 5590 0fb0 02       		.uleb128 0x2
 5591 0fb1 91       		.byte	0x91
 5592 0fb2 64       		.sleb128 -28
 5593 0fb3 1A       		.uleb128 0x1a
 5594 0fb4 8C0E0000 		.4byte	.LASF219
 5595 0fb8 02       		.byte	0x2
 5596 0fb9 9F01     		.2byte	0x19f
 5597 0fbb E5060000 		.4byte	0x6e5
 5598 0fbf 02       		.uleb128 0x2
 5599 0fc0 91       		.byte	0x91
 5600 0fc1 63       		.sleb128 -29
 5601 0fc2 1A       		.uleb128 0x1a
 5602 0fc3 1A0D0000 		.4byte	.LASF220
 5603 0fc7 02       		.byte	0x2
 5604 0fc8 A001     		.2byte	0x1a0
 5605 0fca C0080000 		.4byte	0x8c0
 5606 0fce 02       		.uleb128 0x2
 5607 0fcf 91       		.byte	0x91
 5608 0fd0 00       		.sleb128 0
 5609 0fd1 1A       		.uleb128 0x1a
 5610 0fd2 70080000 		.4byte	.LASF102
 5611 0fd6 02       		.byte	0x2
 5612 0fd7 A101     		.2byte	0x1a1
 5613 0fd9 850B0000 		.4byte	0xb85
 5614 0fdd 02       		.uleb128 0x2
 5615 0fde 91       		.byte	0x91
 5616 0fdf 04       		.sleb128 4
ARM GAS  C:\Users\ikomb\AppData\Local\Temp\ccEKz2Td.s 			page 150


 5617 0fe0 1D       		.uleb128 0x1d
 5618 0fe1 A5040000 		.4byte	.LASF191
 5619 0fe5 02       		.byte	0x2
 5620 0fe6 A401     		.2byte	0x1a4
 5621 0fe8 24080000 		.4byte	0x824
 5622 0fec 02       		.uleb128 0x2
 5623 0fed 91       		.byte	0x91
 5624 0fee 74       		.sleb128 -12
 5625 0fef 00       		.byte	0
 5626 0ff0 26       		.uleb128 0x26
 5627 0ff1 E60F0000 		.4byte	.LASF221
 5628 0ff5 02       		.byte	0x2
 5629 0ff6 F501     		.2byte	0x1f5
 5630 0ff8 24080000 		.4byte	0x824
 5631 0ffc 00000000 		.4byte	.LFB185
 5632 1000 C4000000 		.4byte	.LFE185-.LFB185
 5633 1004 01       		.uleb128 0x1
 5634 1005 9C       		.byte	0x9c
 5635 1006 8F100000 		.4byte	0x108f
 5636 100a 1A       		.uleb128 0x1a
 5637 100b 6A040000 		.4byte	.LASF101
 5638 100f 02       		.byte	0x2
 5639 1010 F501     		.2byte	0x1f5
 5640 1012 F5090000 		.4byte	0x9f5
 5641 1016 02       		.uleb128 0x2
 5642 1017 91       		.byte	0x91
 5643 1018 44       		.sleb128 -60
 5644 1019 1A       		.uleb128 0x1a
 5645 101a 4B0A0000 		.4byte	.LASF217
 5646 101e 02       		.byte	0x2
 5647 101f F601     		.2byte	0x1f6
 5648 1021 8B0B0000 		.4byte	0xb8b
 5649 1025 02       		.uleb128 0x2
 5650 1026 91       		.byte	0x91
 5651 1027 40       		.sleb128 -64
 5652 1028 1A       		.uleb128 0x1a
 5653 1029 1B090000 		.4byte	.LASF218
 5654 102d 02       		.byte	0x2
 5655 102e F701     		.2byte	0x1f7
 5656 1030 A2000000 		.4byte	0xa2
 5657 1034 03       		.uleb128 0x3
 5658 1035 91       		.byte	0x91
 5659 1036 BC7F     		.sleb128 -68
 5660 1038 1A       		.uleb128 0x1a
 5661 1039 8C0E0000 		.4byte	.LASF219
 5662 103d 02       		.byte	0x2
 5663 103e F801     		.2byte	0x1f8
 5664 1040 E5060000 		.4byte	0x6e5
 5665 1044 03       		.uleb128 0x3
 5666 1045 91       		.byte	0x91
 5667 1046 BB7F     		.sleb128 -69
 5668 1048 1A       		.uleb128 0x1a
 5669 1049 70080000 		.4byte	.LASF102
 5670 104d 02       		.byte	0x2
 5671 104e F901     		.2byte	0x1f9
 5672 1050 5C0F0000 		.4byte	0xf5c
 5673 1054 02       		.uleb128 0x2
ARM GAS  C:\Users\ikomb\AppData\Local\Temp\ccEKz2Td.s 			page 151


 5674 1055 91       		.byte	0x91
 5675 1056 00       		.sleb128 0
 5676 1057 1D       		.uleb128 0x1d
 5677 1058 A5040000 		.4byte	.LASF191
 5678 105c 02       		.byte	0x2
 5679 105d FC01     		.2byte	0x1fc
 5680 105f 24080000 		.4byte	0x824
 5681 1063 02       		.uleb128 0x2
 5682 1064 91       		.byte	0x91
 5683 1065 74       		.sleb128 -12
 5684 1066 28       		.uleb128 0x28
 5685 1067 6C000000 		.4byte	.LBB2
 5686 106b 3E000000 		.4byte	.LBE2-.LBB2
 5687 106f 1D       		.uleb128 0x1d
 5688 1070 F0070000 		.4byte	.LASF196
 5689 1074 02       		.byte	0x2
 5690 1075 1102     		.2byte	0x211
 5691 1077 A2000000 		.4byte	0xa2
 5692 107b 02       		.uleb128 0x2
 5693 107c 91       		.byte	0x91
 5694 107d 70       		.sleb128 -16
 5695 107e 1D       		.uleb128 0x1d
 5696 107f AA0E0000 		.4byte	.LASF222
 5697 1083 02       		.byte	0x2
 5698 1084 1202     		.2byte	0x212
 5699 1086 C3090000 		.4byte	0x9c3
 5700 108a 02       		.uleb128 0x2
 5701 108b 91       		.byte	0x91
 5702 108c 48       		.sleb128 -56
 5703 108d 00       		.byte	0
 5704 108e 00       		.byte	0
 5705 108f 26       		.uleb128 0x26
 5706 1090 45050000 		.4byte	.LASF223
 5707 1094 02       		.byte	0x2
 5708 1095 6002     		.2byte	0x260
 5709 1097 24080000 		.4byte	0x824
 5710 109b 00000000 		.4byte	.LFB186
 5711 109f B8000000 		.4byte	.LFE186-.LFB186
 5712 10a3 01       		.uleb128 0x1
 5713 10a4 9C       		.byte	0x9c
 5714 10a5 13110000 		.4byte	0x1113
 5715 10a9 1A       		.uleb128 0x1a
 5716 10aa 6A040000 		.4byte	.LASF101
 5717 10ae 02       		.byte	0x2
 5718 10af 6002     		.2byte	0x260
 5719 10b1 F5090000 		.4byte	0x9f5
 5720 10b5 02       		.uleb128 0x2
 5721 10b6 91       		.byte	0x91
 5722 10b7 6C       		.sleb128 -20
 5723 10b8 1A       		.uleb128 0x1a
 5724 10b9 31000000 		.4byte	.LASF224
 5725 10bd 02       		.byte	0x2
 5726 10be 6102     		.2byte	0x261
 5727 10c0 8B0B0000 		.4byte	0xb8b
 5728 10c4 02       		.uleb128 0x2
 5729 10c5 91       		.byte	0x91
 5730 10c6 68       		.sleb128 -24
ARM GAS  C:\Users\ikomb\AppData\Local\Temp\ccEKz2Td.s 			page 152


 5731 10c7 1A       		.uleb128 0x1a
 5732 10c8 1B090000 		.4byte	.LASF218
 5733 10cc 02       		.byte	0x2
 5734 10cd 6202     		.2byte	0x262
 5735 10cf A2000000 		.4byte	0xa2
 5736 10d3 02       		.uleb128 0x2
 5737 10d4 91       		.byte	0x91
 5738 10d5 64       		.sleb128 -28
 5739 10d6 1A       		.uleb128 0x1a
 5740 10d7 8C0E0000 		.4byte	.LASF219
 5741 10db 02       		.byte	0x2
 5742 10dc 6302     		.2byte	0x263
 5743 10de E5060000 		.4byte	0x6e5
 5744 10e2 02       		.uleb128 0x2
 5745 10e3 91       		.byte	0x91
 5746 10e4 63       		.sleb128 -29
 5747 10e5 1A       		.uleb128 0x1a
 5748 10e6 D4040000 		.4byte	.LASF225
 5749 10ea 02       		.byte	0x2
 5750 10eb 6402     		.2byte	0x264
 5751 10ed C0080000 		.4byte	0x8c0
 5752 10f1 02       		.uleb128 0x2
 5753 10f2 91       		.byte	0x91
 5754 10f3 00       		.sleb128 0
 5755 10f4 1A       		.uleb128 0x1a
 5756 10f5 70080000 		.4byte	.LASF102
 5757 10f9 02       		.byte	0x2
 5758 10fa 6502     		.2byte	0x265
 5759 10fc 850B0000 		.4byte	0xb85
 5760 1100 02       		.uleb128 0x2
 5761 1101 91       		.byte	0x91
 5762 1102 04       		.sleb128 4
 5763 1103 1D       		.uleb128 0x1d
 5764 1104 A5040000 		.4byte	.LASF191
 5765 1108 02       		.byte	0x2
 5766 1109 6802     		.2byte	0x268
 5767 110b 24080000 		.4byte	0x824
 5768 110f 02       		.uleb128 0x2
 5769 1110 91       		.byte	0x91
 5770 1111 74       		.sleb128 -12
 5771 1112 00       		.byte	0
 5772 1113 26       		.uleb128 0x26
 5773 1114 BA090000 		.4byte	.LASF226
 5774 1118 02       		.byte	0x2
 5775 1119 BC02     		.2byte	0x2bc
 5776 111b 24080000 		.4byte	0x824
 5777 111f 00000000 		.4byte	.LFB187
 5778 1123 C8000000 		.4byte	.LFE187-.LFB187
 5779 1127 01       		.uleb128 0x1
 5780 1128 9C       		.byte	0x9c
 5781 1129 B2110000 		.4byte	0x11b2
 5782 112d 1A       		.uleb128 0x1a
 5783 112e 6A040000 		.4byte	.LASF101
 5784 1132 02       		.byte	0x2
 5785 1133 BC02     		.2byte	0x2bc
 5786 1135 F5090000 		.4byte	0x9f5
 5787 1139 02       		.uleb128 0x2
ARM GAS  C:\Users\ikomb\AppData\Local\Temp\ccEKz2Td.s 			page 153


 5788 113a 91       		.byte	0x91
 5789 113b 44       		.sleb128 -60
 5790 113c 1A       		.uleb128 0x1a
 5791 113d 31000000 		.4byte	.LASF224
 5792 1141 02       		.byte	0x2
 5793 1142 BD02     		.2byte	0x2bd
 5794 1144 8B0B0000 		.4byte	0xb8b
 5795 1148 02       		.uleb128 0x2
 5796 1149 91       		.byte	0x91
 5797 114a 40       		.sleb128 -64
 5798 114b 1A       		.uleb128 0x1a
 5799 114c 1B090000 		.4byte	.LASF218
 5800 1150 02       		.byte	0x2
 5801 1151 BE02     		.2byte	0x2be
 5802 1153 A2000000 		.4byte	0xa2
 5803 1157 03       		.uleb128 0x3
 5804 1158 91       		.byte	0x91
 5805 1159 BC7F     		.sleb128 -68
 5806 115b 1A       		.uleb128 0x1a
 5807 115c 8C0E0000 		.4byte	.LASF219
 5808 1160 02       		.byte	0x2
 5809 1161 BF02     		.2byte	0x2bf
 5810 1163 E5060000 		.4byte	0x6e5
 5811 1167 03       		.uleb128 0x3
 5812 1168 91       		.byte	0x91
 5813 1169 BB7F     		.sleb128 -69
 5814 116b 1A       		.uleb128 0x1a
 5815 116c 70080000 		.4byte	.LASF102
 5816 1170 02       		.byte	0x2
 5817 1171 C002     		.2byte	0x2c0
 5818 1173 5C0F0000 		.4byte	0xf5c
 5819 1177 02       		.uleb128 0x2
 5820 1178 91       		.byte	0x91
 5821 1179 00       		.sleb128 0
 5822 117a 1D       		.uleb128 0x1d
 5823 117b A5040000 		.4byte	.LASF191
 5824 117f 02       		.byte	0x2
 5825 1180 C302     		.2byte	0x2c3
 5826 1182 24080000 		.4byte	0x824
 5827 1186 02       		.uleb128 0x2
 5828 1187 91       		.byte	0x91
 5829 1188 74       		.sleb128 -12
 5830 1189 28       		.uleb128 0x28
 5831 118a 6E000000 		.4byte	.LBB3
 5832 118e 3E000000 		.4byte	.LBE3-.LBB3
 5833 1192 1D       		.uleb128 0x1d
 5834 1193 F0070000 		.4byte	.LASF196
 5835 1197 02       		.byte	0x2
 5836 1198 D802     		.2byte	0x2d8
 5837 119a A2000000 		.4byte	0xa2
 5838 119e 02       		.uleb128 0x2
 5839 119f 91       		.byte	0x91
 5840 11a0 70       		.sleb128 -16
 5841 11a1 1D       		.uleb128 0x1d
 5842 11a2 AA0E0000 		.4byte	.LASF222
 5843 11a6 02       		.byte	0x2
 5844 11a7 D902     		.2byte	0x2d9
ARM GAS  C:\Users\ikomb\AppData\Local\Temp\ccEKz2Td.s 			page 154


 5845 11a9 C3090000 		.4byte	0x9c3
 5846 11ad 02       		.uleb128 0x2
 5847 11ae 91       		.byte	0x91
 5848 11af 48       		.sleb128 -56
 5849 11b0 00       		.byte	0
 5850 11b1 00       		.byte	0
 5851 11b2 26       		.uleb128 0x26
 5852 11b3 83040000 		.4byte	.LASF227
 5853 11b7 02       		.byte	0x2
 5854 11b8 0303     		.2byte	0x303
 5855 11ba 24080000 		.4byte	0x824
 5856 11be 00000000 		.4byte	.LFB188
 5857 11c2 48000000 		.4byte	.LFE188-.LFB188
 5858 11c6 01       		.uleb128 0x1
 5859 11c7 9C       		.byte	0x9c
 5860 11c8 FA110000 		.4byte	0x11fa
 5861 11cc 1A       		.uleb128 0x1a
 5862 11cd 6A040000 		.4byte	.LASF101
 5863 11d1 02       		.byte	0x2
 5864 11d2 0303     		.2byte	0x303
 5865 11d4 F5090000 		.4byte	0x9f5
 5866 11d8 02       		.uleb128 0x2
 5867 11d9 91       		.byte	0x91
 5868 11da 6C       		.sleb128 -20
 5869 11db 1A       		.uleb128 0x1a
 5870 11dc 040F0000 		.4byte	.LASF228
 5871 11e0 02       		.byte	0x2
 5872 11e1 0403     		.2byte	0x304
 5873 11e3 A2000000 		.4byte	0xa2
 5874 11e7 02       		.uleb128 0x2
 5875 11e8 91       		.byte	0x91
 5876 11e9 68       		.sleb128 -24
 5877 11ea 1D       		.uleb128 0x1d
 5878 11eb A5040000 		.4byte	.LASF191
 5879 11ef 02       		.byte	0x2
 5880 11f0 0703     		.2byte	0x307
 5881 11f2 24080000 		.4byte	0x824
 5882 11f6 02       		.uleb128 0x2
 5883 11f7 91       		.byte	0x91
 5884 11f8 74       		.sleb128 -12
 5885 11f9 00       		.byte	0
 5886 11fa 29       		.uleb128 0x29
 5887 11fb 630D0000 		.4byte	.LASF229
 5888 11ff 02       		.byte	0x2
 5889 1200 3603     		.2byte	0x336
 5890 1202 A2000000 		.4byte	0xa2
 5891 1206 00000000 		.4byte	.LFB189
 5892 120a 1A000000 		.4byte	.LFE189-.LFB189
 5893 120e 01       		.uleb128 0x1
 5894 120f 9C       		.byte	0x9c
 5895 1210 33120000 		.4byte	0x1233
 5896 1214 1A       		.uleb128 0x1a
 5897 1215 6A040000 		.4byte	.LASF101
 5898 1219 02       		.byte	0x2
 5899 121a 3603     		.2byte	0x336
 5900 121c F5090000 		.4byte	0x9f5
 5901 1220 02       		.uleb128 0x2
ARM GAS  C:\Users\ikomb\AppData\Local\Temp\ccEKz2Td.s 			page 155


 5902 1221 91       		.byte	0x91
 5903 1222 74       		.sleb128 -12
 5904 1223 1A       		.uleb128 0x1a
 5905 1224 70080000 		.4byte	.LASF102
 5906 1228 02       		.byte	0x2
 5907 1229 3703     		.2byte	0x337
 5908 122b 5C0F0000 		.4byte	0xf5c
 5909 122f 02       		.uleb128 0x2
 5910 1230 91       		.byte	0x91
 5911 1231 70       		.sleb128 -16
 5912 1232 00       		.byte	0
 5913 1233 2A       		.uleb128 0x2a
 5914 1234 360E0000 		.4byte	.LASF230
 5915 1238 02       		.byte	0x2
 5916 1239 4E03     		.2byte	0x34e
 5917 123b 00000000 		.4byte	.LFB190
 5918 123f 50000000 		.4byte	.LFE190-.LFB190
 5919 1243 01       		.uleb128 0x1
 5920 1244 9C       		.byte	0x9c
 5921 1245 68120000 		.4byte	0x1268
 5922 1249 1A       		.uleb128 0x1a
 5923 124a 6A040000 		.4byte	.LASF101
 5924 124e 02       		.byte	0x2
 5925 124f 4E03     		.2byte	0x34e
 5926 1251 F5090000 		.4byte	0x9f5
 5927 1255 02       		.uleb128 0x2
 5928 1256 91       		.byte	0x91
 5929 1257 74       		.sleb128 -12
 5930 1258 1A       		.uleb128 0x1a
 5931 1259 70080000 		.4byte	.LASF102
 5932 125d 02       		.byte	0x2
 5933 125e 4E03     		.2byte	0x34e
 5934 1260 850B0000 		.4byte	0xb85
 5935 1264 02       		.uleb128 0x2
 5936 1265 91       		.byte	0x91
 5937 1266 70       		.sleb128 -16
 5938 1267 00       		.byte	0
 5939 1268 26       		.uleb128 0x26
 5940 1269 6A050000 		.4byte	.LASF231
 5941 126d 02       		.byte	0x2
 5942 126e 9B03     		.2byte	0x39b
 5943 1270 24080000 		.4byte	0x824
 5944 1274 00000000 		.4byte	.LFB191
 5945 1278 4C010000 		.4byte	.LFE191-.LFB191
 5946 127c 01       		.uleb128 0x1
 5947 127d 9C       		.byte	0x9c
 5948 127e 2E130000 		.4byte	0x132e
 5949 1282 1A       		.uleb128 0x1a
 5950 1283 6A040000 		.4byte	.LASF101
 5951 1287 02       		.byte	0x2
 5952 1288 9B03     		.2byte	0x39b
 5953 128a F5090000 		.4byte	0x9f5
 5954 128e 02       		.uleb128 0x2
 5955 128f 91       		.byte	0x91
 5956 1290 4C       		.sleb128 -52
 5957 1291 1A       		.uleb128 0x1a
 5958 1292 760C0000 		.4byte	.LASF232
ARM GAS  C:\Users\ikomb\AppData\Local\Temp\ccEKz2Td.s 			page 156


 5959 1296 02       		.byte	0x2
 5960 1297 9C03     		.2byte	0x39c
 5961 1299 A2000000 		.4byte	0xa2
 5962 129d 02       		.uleb128 0x2
 5963 129e 91       		.byte	0x91
 5964 129f 48       		.sleb128 -56
 5965 12a0 1A       		.uleb128 0x1a
 5966 12a1 A8090000 		.4byte	.LASF233
 5967 12a5 02       		.byte	0x2
 5968 12a6 9D03     		.2byte	0x39d
 5969 12a8 8B0B0000 		.4byte	0xb8b
 5970 12ac 02       		.uleb128 0x2
 5971 12ad 91       		.byte	0x91
 5972 12ae 44       		.sleb128 -60
 5973 12af 1A       		.uleb128 0x1a
 5974 12b0 1B090000 		.4byte	.LASF218
 5975 12b4 02       		.byte	0x2
 5976 12b5 9E03     		.2byte	0x39e
 5977 12b7 A2000000 		.4byte	0xa2
 5978 12bb 02       		.uleb128 0x2
 5979 12bc 91       		.byte	0x91
 5980 12bd 40       		.sleb128 -64
 5981 12be 1A       		.uleb128 0x1a
 5982 12bf 70080000 		.4byte	.LASF102
 5983 12c3 02       		.byte	0x2
 5984 12c4 9F03     		.2byte	0x39f
 5985 12c6 5C0F0000 		.4byte	0xf5c
 5986 12ca 02       		.uleb128 0x2
 5987 12cb 91       		.byte	0x91
 5988 12cc 00       		.sleb128 0
 5989 12cd 1D       		.uleb128 0x1d
 5990 12ce 78080000 		.4byte	.LASF214
 5991 12d2 02       		.byte	0x2
 5992 12d3 A103     		.2byte	0x3a1
 5993 12d5 A2000000 		.4byte	0xa2
 5994 12d9 02       		.uleb128 0x2
 5995 12da 91       		.byte	0x91
 5996 12db 74       		.sleb128 -12
 5997 12dc 1D       		.uleb128 0x1d
 5998 12dd FD070000 		.4byte	.LASF197
 5999 12e1 02       		.byte	0x2
 6000 12e2 A203     		.2byte	0x3a2
 6001 12e4 24080000 		.4byte	0x824
 6002 12e8 02       		.uleb128 0x2
 6003 12e9 91       		.byte	0x91
 6004 12ea 70       		.sleb128 -16
 6005 12eb 1D       		.uleb128 0x1d
 6006 12ec F0070000 		.4byte	.LASF196
 6007 12f0 02       		.byte	0x2
 6008 12f1 A303     		.2byte	0x3a3
 6009 12f3 A2000000 		.4byte	0xa2
 6010 12f7 02       		.uleb128 0x2
 6011 12f8 91       		.byte	0x91
 6012 12f9 64       		.sleb128 -28
 6013 12fa 2B       		.uleb128 0x2b
 6014 12fb 00000000 		.4byte	.Ldebug_ranges0+0
 6015 12ff 1D       		.uleb128 0x1d
ARM GAS  C:\Users\ikomb\AppData\Local\Temp\ccEKz2Td.s 			page 157


 6016 1300 B1080000 		.4byte	.LASF234
 6017 1304 02       		.byte	0x2
 6018 1305 AD03     		.2byte	0x3ad
 6019 1307 A2000000 		.4byte	0xa2
 6020 130b 02       		.uleb128 0x2
 6021 130c 91       		.byte	0x91
 6022 130d 68       		.sleb128 -24
 6023 130e 1D       		.uleb128 0x1d
 6024 130f 9C0C0000 		.4byte	.LASF235
 6025 1313 02       		.byte	0x2
 6026 1314 AE03     		.2byte	0x3ae
 6027 1316 2E130000 		.4byte	0x132e
 6028 131a 02       		.uleb128 0x2
 6029 131b 91       		.byte	0x91
 6030 131c 54       		.sleb128 -44
 6031 131d 1D       		.uleb128 0x1d
 6032 131e 940B0000 		.4byte	.LASF236
 6033 1322 02       		.byte	0x2
 6034 1323 AF03     		.2byte	0x3af
 6035 1325 A2000000 		.4byte	0xa2
 6036 1329 02       		.uleb128 0x2
 6037 132a 91       		.byte	0x91
 6038 132b 6C       		.sleb128 -20
 6039 132c 00       		.byte	0
 6040 132d 00       		.byte	0
 6041 132e 07       		.uleb128 0x7
 6042 132f 8C000000 		.4byte	0x8c
 6043 1333 3E130000 		.4byte	0x133e
 6044 1337 08       		.uleb128 0x8
 6045 1338 B4000000 		.4byte	0xb4
 6046 133c 0F       		.byte	0xf
 6047 133d 00       		.byte	0
 6048 133e 29       		.uleb128 0x29
 6049 133f 03100000 		.4byte	.LASF237
 6050 1343 02       		.byte	0x2
 6051 1344 ED03     		.2byte	0x3ed
 6052 1346 24080000 		.4byte	0x824
 6053 134a 00000000 		.4byte	.LFB192
 6054 134e 7C000000 		.4byte	.LFE192-.LFB192
 6055 1352 01       		.uleb128 0x1
 6056 1353 9C       		.byte	0x9c
 6057 1354 86130000 		.4byte	0x1386
 6058 1358 1A       		.uleb128 0x1a
 6059 1359 6A040000 		.4byte	.LASF101
 6060 135d 02       		.byte	0x2
 6061 135e ED03     		.2byte	0x3ed
 6062 1360 F5090000 		.4byte	0x9f5
 6063 1364 02       		.uleb128 0x2
 6064 1365 91       		.byte	0x91
 6065 1366 6C       		.sleb128 -20
 6066 1367 1A       		.uleb128 0x1a
 6067 1368 81080000 		.4byte	.LASF238
 6068 136c 02       		.byte	0x2
 6069 136d EE03     		.2byte	0x3ee
 6070 136f B4080000 		.4byte	0x8b4
 6071 1373 02       		.uleb128 0x2
 6072 1374 91       		.byte	0x91
ARM GAS  C:\Users\ikomb\AppData\Local\Temp\ccEKz2Td.s 			page 158


 6073 1375 6B       		.sleb128 -21
 6074 1376 1D       		.uleb128 0x1d
 6075 1377 FD070000 		.4byte	.LASF197
 6076 137b 02       		.byte	0x2
 6077 137c F003     		.2byte	0x3f0
 6078 137e 24080000 		.4byte	0x824
 6079 1382 02       		.uleb128 0x2
 6080 1383 91       		.byte	0x91
 6081 1384 74       		.sleb128 -12
 6082 1385 00       		.byte	0
 6083 1386 29       		.uleb128 0x29
 6084 1387 22050000 		.4byte	.LASF239
 6085 138b 02       		.byte	0x2
 6086 138c 1704     		.2byte	0x417
 6087 138e 24080000 		.4byte	0x824
 6088 1392 00000000 		.4byte	.LFB193
 6089 1396 7C000000 		.4byte	.LFE193-.LFB193
 6090 139a 01       		.uleb128 0x1
 6091 139b 9C       		.byte	0x9c
 6092 139c CE130000 		.4byte	0x13ce
 6093 13a0 1A       		.uleb128 0x1a
 6094 13a1 6A040000 		.4byte	.LASF101
 6095 13a5 02       		.byte	0x2
 6096 13a6 1704     		.2byte	0x417
 6097 13a8 F5090000 		.4byte	0x9f5
 6098 13ac 02       		.uleb128 0x2
 6099 13ad 91       		.byte	0x91
 6100 13ae 6C       		.sleb128 -20
 6101 13af 1A       		.uleb128 0x1a
 6102 13b0 81080000 		.4byte	.LASF238
 6103 13b4 02       		.byte	0x2
 6104 13b5 1804     		.2byte	0x418
 6105 13b7 B4080000 		.4byte	0x8b4
 6106 13bb 02       		.uleb128 0x2
 6107 13bc 91       		.byte	0x91
 6108 13bd 6B       		.sleb128 -21
 6109 13be 1D       		.uleb128 0x1d
 6110 13bf FD070000 		.4byte	.LASF197
 6111 13c3 02       		.byte	0x2
 6112 13c4 1A04     		.2byte	0x41a
 6113 13c6 24080000 		.4byte	0x824
 6114 13ca 02       		.uleb128 0x2
 6115 13cb 91       		.byte	0x91
 6116 13cc 74       		.sleb128 -12
 6117 13cd 00       		.byte	0
 6118 13ce 29       		.uleb128 0x29
 6119 13cf 89000000 		.4byte	.LASF240
 6120 13d3 02       		.byte	0x2
 6121 13d4 4204     		.2byte	0x442
 6122 13d6 24080000 		.4byte	0x824
 6123 13da 00000000 		.4byte	.LFB194
 6124 13de 7C000000 		.4byte	.LFE194-.LFB194
 6125 13e2 01       		.uleb128 0x1
 6126 13e3 9C       		.byte	0x9c
 6127 13e4 16140000 		.4byte	0x1416
 6128 13e8 1A       		.uleb128 0x1a
 6129 13e9 6A040000 		.4byte	.LASF101
ARM GAS  C:\Users\ikomb\AppData\Local\Temp\ccEKz2Td.s 			page 159


 6130 13ed 02       		.byte	0x2
 6131 13ee 4204     		.2byte	0x442
 6132 13f0 F5090000 		.4byte	0x9f5
 6133 13f4 02       		.uleb128 0x2
 6134 13f5 91       		.byte	0x91
 6135 13f6 6C       		.sleb128 -20
 6136 13f7 1A       		.uleb128 0x1a
 6137 13f8 81080000 		.4byte	.LASF238
 6138 13fc 02       		.byte	0x2
 6139 13fd 4304     		.2byte	0x443
 6140 13ff B4080000 		.4byte	0x8b4
 6141 1403 02       		.uleb128 0x2
 6142 1404 91       		.byte	0x91
 6143 1405 6B       		.sleb128 -21
 6144 1406 1D       		.uleb128 0x1d
 6145 1407 FD070000 		.4byte	.LASF197
 6146 140b 02       		.byte	0x2
 6147 140c 4504     		.2byte	0x445
 6148 140e 24080000 		.4byte	0x824
 6149 1412 02       		.uleb128 0x2
 6150 1413 91       		.byte	0x91
 6151 1414 74       		.sleb128 -12
 6152 1415 00       		.byte	0
 6153 1416 29       		.uleb128 0x29
 6154 1417 A4030000 		.4byte	.LASF241
 6155 141b 02       		.byte	0x2
 6156 141c 6D04     		.2byte	0x46d
 6157 141e 24080000 		.4byte	0x824
 6158 1422 00000000 		.4byte	.LFB195
 6159 1426 7C000000 		.4byte	.LFE195-.LFB195
 6160 142a 01       		.uleb128 0x1
 6161 142b 9C       		.byte	0x9c
 6162 142c 5E140000 		.4byte	0x145e
 6163 1430 1A       		.uleb128 0x1a
 6164 1431 6A040000 		.4byte	.LASF101
 6165 1435 02       		.byte	0x2
 6166 1436 6D04     		.2byte	0x46d
 6167 1438 F5090000 		.4byte	0x9f5
 6168 143c 02       		.uleb128 0x2
 6169 143d 91       		.byte	0x91
 6170 143e 6C       		.sleb128 -20
 6171 143f 1A       		.uleb128 0x1a
 6172 1440 81080000 		.4byte	.LASF238
 6173 1444 02       		.byte	0x2
 6174 1445 6E04     		.2byte	0x46e
 6175 1447 B4080000 		.4byte	0x8b4
 6176 144b 02       		.uleb128 0x2
 6177 144c 91       		.byte	0x91
 6178 144d 6B       		.sleb128 -21
 6179 144e 1D       		.uleb128 0x1d
 6180 144f FD070000 		.4byte	.LASF197
 6181 1453 02       		.byte	0x2
 6182 1454 7004     		.2byte	0x470
 6183 1456 24080000 		.4byte	0x824
 6184 145a 02       		.uleb128 0x2
 6185 145b 91       		.byte	0x91
 6186 145c 74       		.sleb128 -12
ARM GAS  C:\Users\ikomb\AppData\Local\Temp\ccEKz2Td.s 			page 160


 6187 145d 00       		.byte	0
 6188 145e 29       		.uleb128 0x29
 6189 145f 05050000 		.4byte	.LASF242
 6190 1463 02       		.byte	0x2
 6191 1464 9804     		.2byte	0x498
 6192 1466 24080000 		.4byte	0x824
 6193 146a 00000000 		.4byte	.LFB196
 6194 146e 7C000000 		.4byte	.LFE196-.LFB196
 6195 1472 01       		.uleb128 0x1
 6196 1473 9C       		.byte	0x9c
 6197 1474 A6140000 		.4byte	0x14a6
 6198 1478 1A       		.uleb128 0x1a
 6199 1479 6A040000 		.4byte	.LASF101
 6200 147d 02       		.byte	0x2
 6201 147e 9804     		.2byte	0x498
 6202 1480 F5090000 		.4byte	0x9f5
 6203 1484 02       		.uleb128 0x2
 6204 1485 91       		.byte	0x91
 6205 1486 6C       		.sleb128 -20
 6206 1487 1A       		.uleb128 0x1a
 6207 1488 81080000 		.4byte	.LASF238
 6208 148c 02       		.byte	0x2
 6209 148d 9904     		.2byte	0x499
 6210 148f B4080000 		.4byte	0x8b4
 6211 1493 02       		.uleb128 0x2
 6212 1494 91       		.byte	0x91
 6213 1495 6B       		.sleb128 -21
 6214 1496 1D       		.uleb128 0x1d
 6215 1497 FD070000 		.4byte	.LASF197
 6216 149b 02       		.byte	0x2
 6217 149c 9B04     		.2byte	0x49b
 6218 149e 24080000 		.4byte	0x824
 6219 14a2 02       		.uleb128 0x2
 6220 14a3 91       		.byte	0x91
 6221 14a4 74       		.sleb128 -12
 6222 14a5 00       		.byte	0
 6223 14a6 26       		.uleb128 0x26
 6224 14a7 1E0A0000 		.4byte	.LASF243
 6225 14ab 02       		.byte	0x2
 6226 14ac CE04     		.2byte	0x4ce
 6227 14ae 3C060000 		.4byte	0x63c
 6228 14b2 00000000 		.4byte	.LFB197
 6229 14b6 F8000000 		.4byte	.LFE197-.LFB197
 6230 14ba 01       		.uleb128 0x1
 6231 14bb 9C       		.byte	0x9c
 6232 14bc 12150000 		.4byte	0x1512
 6233 14c0 1A       		.uleb128 0x1a
 6234 14c1 8B080000 		.4byte	.LASF244
 6235 14c5 02       		.byte	0x2
 6236 14c6 CE04     		.2byte	0x4ce
 6237 14c8 B9060000 		.4byte	0x6b9
 6238 14cc 02       		.uleb128 0x2
 6239 14cd 91       		.byte	0x91
 6240 14ce 64       		.sleb128 -28
 6241 14cf 1D       		.uleb128 0x1d
 6242 14d0 7B0A0000 		.4byte	.LASF245
 6243 14d4 02       		.byte	0x2
ARM GAS  C:\Users\ikomb\AppData\Local\Temp\ccEKz2Td.s 			page 161


 6244 14d5 D004     		.2byte	0x4d0
 6245 14d7 3C060000 		.4byte	0x63c
 6246 14db 02       		.uleb128 0x2
 6247 14dc 91       		.byte	0x91
 6248 14dd 74       		.sleb128 -12
 6249 14de 1D       		.uleb128 0x1d
 6250 14df 540A0000 		.4byte	.LASF246
 6251 14e3 02       		.byte	0x2
 6252 14e4 D404     		.2byte	0x4d4
 6253 14e6 F5090000 		.4byte	0x9f5
 6254 14ea 02       		.uleb128 0x2
 6255 14eb 91       		.byte	0x91
 6256 14ec 70       		.sleb128 -16
 6257 14ed 1D       		.uleb128 0x1d
 6258 14ee B60C0000 		.4byte	.LASF247
 6259 14f2 02       		.byte	0x2
 6260 14f3 D504     		.2byte	0x4d5
 6261 14f5 850B0000 		.4byte	0xb85
 6262 14f9 02       		.uleb128 0x2
 6263 14fa 91       		.byte	0x91
 6264 14fb 6C       		.sleb128 -20
 6265 14fc 2B       		.uleb128 0x2b
 6266 14fd 18000000 		.4byte	.Ldebug_ranges0+0x18
 6267 1501 1D       		.uleb128 0x1d
 6268 1502 0E010000 		.4byte	.LASF248
 6269 1506 02       		.byte	0x2
 6270 1507 E004     		.2byte	0x4e0
 6271 1509 0D0B0000 		.4byte	0xb0d
 6272 150d 02       		.uleb128 0x2
 6273 150e 91       		.byte	0x91
 6274 150f 6B       		.sleb128 -21
 6275 1510 00       		.byte	0
 6276 1511 00       		.byte	0
 6277 1512 26       		.uleb128 0x26
 6278 1513 B50E0000 		.4byte	.LASF249
 6279 1517 02       		.byte	0x2
 6280 1518 3605     		.2byte	0x536
 6281 151a 3C060000 		.4byte	0x63c
 6282 151e 00000000 		.4byte	.LFB198
 6283 1522 F8000000 		.4byte	.LFE198-.LFB198
 6284 1526 01       		.uleb128 0x1
 6285 1527 9C       		.byte	0x9c
 6286 1528 7E150000 		.4byte	0x157e
 6287 152c 1A       		.uleb128 0x1a
 6288 152d 8B080000 		.4byte	.LASF244
 6289 1531 02       		.byte	0x2
 6290 1532 3605     		.2byte	0x536
 6291 1534 B9060000 		.4byte	0x6b9
 6292 1538 02       		.uleb128 0x2
 6293 1539 91       		.byte	0x91
 6294 153a 64       		.sleb128 -28
 6295 153b 1D       		.uleb128 0x1d
 6296 153c 7B0A0000 		.4byte	.LASF245
 6297 1540 02       		.byte	0x2
 6298 1541 3805     		.2byte	0x538
 6299 1543 3C060000 		.4byte	0x63c
 6300 1547 02       		.uleb128 0x2
ARM GAS  C:\Users\ikomb\AppData\Local\Temp\ccEKz2Td.s 			page 162


 6301 1548 91       		.byte	0x91
 6302 1549 74       		.sleb128 -12
 6303 154a 1D       		.uleb128 0x1d
 6304 154b 540A0000 		.4byte	.LASF246
 6305 154f 02       		.byte	0x2
 6306 1550 3C05     		.2byte	0x53c
 6307 1552 F5090000 		.4byte	0x9f5
 6308 1556 02       		.uleb128 0x2
 6309 1557 91       		.byte	0x91
 6310 1558 70       		.sleb128 -16
 6311 1559 1D       		.uleb128 0x1d
 6312 155a B60C0000 		.4byte	.LASF247
 6313 155e 02       		.byte	0x2
 6314 155f 3D05     		.2byte	0x53d
 6315 1561 850B0000 		.4byte	0xb85
 6316 1565 02       		.uleb128 0x2
 6317 1566 91       		.byte	0x91
 6318 1567 6C       		.sleb128 -20
 6319 1568 2B       		.uleb128 0x2b
 6320 1569 30000000 		.4byte	.Ldebug_ranges0+0x30
 6321 156d 1D       		.uleb128 0x1d
 6322 156e 0E010000 		.4byte	.LASF248
 6323 1572 02       		.byte	0x2
 6324 1573 4805     		.2byte	0x548
 6325 1575 0D0B0000 		.4byte	0xb0d
 6326 1579 02       		.uleb128 0x2
 6327 157a 91       		.byte	0x91
 6328 157b 6B       		.sleb128 -21
 6329 157c 00       		.byte	0
 6330 157d 00       		.byte	0
 6331 157e 2C       		.uleb128 0x2c
 6332 157f 540B0000 		.4byte	.LASF253
 6333 1583 08       		.byte	0x8
 6334 1584 EA07     		.2byte	0x7ea
 6335 1586 8A150000 		.4byte	0x158a
 6336 158a 05       		.uleb128 0x5
 6337 158b 97000000 		.4byte	0x97
 6338 158f 00       		.byte	0
 6339              		.section	.debug_abbrev,"",%progbits
 6340              	.Ldebug_abbrev0:
 6341 0000 01       		.uleb128 0x1
 6342 0001 11       		.uleb128 0x11
 6343 0002 01       		.byte	0x1
 6344 0003 25       		.uleb128 0x25
 6345 0004 0E       		.uleb128 0xe
 6346 0005 13       		.uleb128 0x13
 6347 0006 0B       		.uleb128 0xb
 6348 0007 03       		.uleb128 0x3
 6349 0008 0E       		.uleb128 0xe
 6350 0009 1B       		.uleb128 0x1b
 6351 000a 0E       		.uleb128 0xe
 6352 000b 55       		.uleb128 0x55
 6353 000c 17       		.uleb128 0x17
 6354 000d 11       		.uleb128 0x11
 6355 000e 01       		.uleb128 0x1
 6356 000f 10       		.uleb128 0x10
 6357 0010 17       		.uleb128 0x17
ARM GAS  C:\Users\ikomb\AppData\Local\Temp\ccEKz2Td.s 			page 163


 6358 0011 00       		.byte	0
 6359 0012 00       		.byte	0
 6360 0013 02       		.uleb128 0x2
 6361 0014 24       		.uleb128 0x24
 6362 0015 00       		.byte	0
 6363 0016 0B       		.uleb128 0xb
 6364 0017 0B       		.uleb128 0xb
 6365 0018 3E       		.uleb128 0x3e
 6366 0019 0B       		.uleb128 0xb
 6367 001a 03       		.uleb128 0x3
 6368 001b 0E       		.uleb128 0xe
 6369 001c 00       		.byte	0
 6370 001d 00       		.byte	0
 6371 001e 03       		.uleb128 0x3
 6372 001f 16       		.uleb128 0x16
 6373 0020 00       		.byte	0
 6374 0021 03       		.uleb128 0x3
 6375 0022 0E       		.uleb128 0xe
 6376 0023 3A       		.uleb128 0x3a
 6377 0024 0B       		.uleb128 0xb
 6378 0025 3B       		.uleb128 0x3b
 6379 0026 0B       		.uleb128 0xb
 6380 0027 49       		.uleb128 0x49
 6381 0028 13       		.uleb128 0x13
 6382 0029 00       		.byte	0
 6383 002a 00       		.byte	0
 6384 002b 04       		.uleb128 0x4
 6385 002c 24       		.uleb128 0x24
 6386 002d 00       		.byte	0
 6387 002e 0B       		.uleb128 0xb
 6388 002f 0B       		.uleb128 0xb
 6389 0030 3E       		.uleb128 0x3e
 6390 0031 0B       		.uleb128 0xb
 6391 0032 03       		.uleb128 0x3
 6392 0033 08       		.uleb128 0x8
 6393 0034 00       		.byte	0
 6394 0035 00       		.byte	0
 6395 0036 05       		.uleb128 0x5
 6396 0037 35       		.uleb128 0x35
 6397 0038 00       		.byte	0
 6398 0039 49       		.uleb128 0x49
 6399 003a 13       		.uleb128 0x13
 6400 003b 00       		.byte	0
 6401 003c 00       		.byte	0
 6402 003d 06       		.uleb128 0x6
 6403 003e 26       		.uleb128 0x26
 6404 003f 00       		.byte	0
 6405 0040 49       		.uleb128 0x49
 6406 0041 13       		.uleb128 0x13
 6407 0042 00       		.byte	0
 6408 0043 00       		.byte	0
 6409 0044 07       		.uleb128 0x7
 6410 0045 01       		.uleb128 0x1
 6411 0046 01       		.byte	0x1
 6412 0047 49       		.uleb128 0x49
 6413 0048 13       		.uleb128 0x13
 6414 0049 01       		.uleb128 0x1
ARM GAS  C:\Users\ikomb\AppData\Local\Temp\ccEKz2Td.s 			page 164


 6415 004a 13       		.uleb128 0x13
 6416 004b 00       		.byte	0
 6417 004c 00       		.byte	0
 6418 004d 08       		.uleb128 0x8
 6419 004e 21       		.uleb128 0x21
 6420 004f 00       		.byte	0
 6421 0050 49       		.uleb128 0x49
 6422 0051 13       		.uleb128 0x13
 6423 0052 2F       		.uleb128 0x2f
 6424 0053 0B       		.uleb128 0xb
 6425 0054 00       		.byte	0
 6426 0055 00       		.byte	0
 6427 0056 09       		.uleb128 0x9
 6428 0057 13       		.uleb128 0x13
 6429 0058 01       		.byte	0x1
 6430 0059 0B       		.uleb128 0xb
 6431 005a 0B       		.uleb128 0xb
 6432 005b 3A       		.uleb128 0x3a
 6433 005c 0B       		.uleb128 0xb
 6434 005d 3B       		.uleb128 0x3b
 6435 005e 0B       		.uleb128 0xb
 6436 005f 01       		.uleb128 0x1
 6437 0060 13       		.uleb128 0x13
 6438 0061 00       		.byte	0
 6439 0062 00       		.byte	0
 6440 0063 0A       		.uleb128 0xa
 6441 0064 0D       		.uleb128 0xd
 6442 0065 00       		.byte	0
 6443 0066 03       		.uleb128 0x3
 6444 0067 08       		.uleb128 0x8
 6445 0068 3A       		.uleb128 0x3a
 6446 0069 0B       		.uleb128 0xb
 6447 006a 3B       		.uleb128 0x3b
 6448 006b 0B       		.uleb128 0xb
 6449 006c 49       		.uleb128 0x49
 6450 006d 13       		.uleb128 0x13
 6451 006e 38       		.uleb128 0x38
 6452 006f 0B       		.uleb128 0xb
 6453 0070 00       		.byte	0
 6454 0071 00       		.byte	0
 6455 0072 0B       		.uleb128 0xb
 6456 0073 0D       		.uleb128 0xd
 6457 0074 00       		.byte	0
 6458 0075 03       		.uleb128 0x3
 6459 0076 0E       		.uleb128 0xe
 6460 0077 3A       		.uleb128 0x3a
 6461 0078 0B       		.uleb128 0xb
 6462 0079 3B       		.uleb128 0x3b
 6463 007a 0B       		.uleb128 0xb
 6464 007b 49       		.uleb128 0x49
 6465 007c 13       		.uleb128 0x13
 6466 007d 38       		.uleb128 0x38
 6467 007e 0B       		.uleb128 0xb
 6468 007f 00       		.byte	0
 6469 0080 00       		.byte	0
 6470 0081 0C       		.uleb128 0xc
 6471 0082 13       		.uleb128 0x13
ARM GAS  C:\Users\ikomb\AppData\Local\Temp\ccEKz2Td.s 			page 165


 6472 0083 01       		.byte	0x1
 6473 0084 0B       		.uleb128 0xb
 6474 0085 05       		.uleb128 0x5
 6475 0086 3A       		.uleb128 0x3a
 6476 0087 0B       		.uleb128 0xb
 6477 0088 3B       		.uleb128 0x3b
 6478 0089 0B       		.uleb128 0xb
 6479 008a 01       		.uleb128 0x1
 6480 008b 13       		.uleb128 0x13
 6481 008c 00       		.byte	0
 6482 008d 00       		.byte	0
 6483 008e 0D       		.uleb128 0xd
 6484 008f 0D       		.uleb128 0xd
 6485 0090 00       		.byte	0
 6486 0091 03       		.uleb128 0x3
 6487 0092 0E       		.uleb128 0xe
 6488 0093 3A       		.uleb128 0x3a
 6489 0094 0B       		.uleb128 0xb
 6490 0095 3B       		.uleb128 0x3b
 6491 0096 0B       		.uleb128 0xb
 6492 0097 49       		.uleb128 0x49
 6493 0098 13       		.uleb128 0x13
 6494 0099 38       		.uleb128 0x38
 6495 009a 05       		.uleb128 0x5
 6496 009b 00       		.byte	0
 6497 009c 00       		.byte	0
 6498 009d 0E       		.uleb128 0xe
 6499 009e 21       		.uleb128 0x21
 6500 009f 00       		.byte	0
 6501 00a0 49       		.uleb128 0x49
 6502 00a1 13       		.uleb128 0x13
 6503 00a2 2F       		.uleb128 0x2f
 6504 00a3 05       		.uleb128 0x5
 6505 00a4 00       		.byte	0
 6506 00a5 00       		.byte	0
 6507 00a6 0F       		.uleb128 0xf
 6508 00a7 16       		.uleb128 0x16
 6509 00a8 00       		.byte	0
 6510 00a9 03       		.uleb128 0x3
 6511 00aa 0E       		.uleb128 0xe
 6512 00ab 3A       		.uleb128 0x3a
 6513 00ac 0B       		.uleb128 0xb
 6514 00ad 3B       		.uleb128 0x3b
 6515 00ae 05       		.uleb128 0x5
 6516 00af 49       		.uleb128 0x49
 6517 00b0 13       		.uleb128 0x13
 6518 00b1 00       		.byte	0
 6519 00b2 00       		.byte	0
 6520 00b3 10       		.uleb128 0x10
 6521 00b4 04       		.uleb128 0x4
 6522 00b5 01       		.byte	0x1
 6523 00b6 0B       		.uleb128 0xb
 6524 00b7 0B       		.uleb128 0xb
 6525 00b8 49       		.uleb128 0x49
 6526 00b9 13       		.uleb128 0x13
 6527 00ba 3A       		.uleb128 0x3a
 6528 00bb 0B       		.uleb128 0xb
ARM GAS  C:\Users\ikomb\AppData\Local\Temp\ccEKz2Td.s 			page 166


 6529 00bc 3B       		.uleb128 0x3b
 6530 00bd 05       		.uleb128 0x5
 6531 00be 01       		.uleb128 0x1
 6532 00bf 13       		.uleb128 0x13
 6533 00c0 00       		.byte	0
 6534 00c1 00       		.byte	0
 6535 00c2 11       		.uleb128 0x11
 6536 00c3 28       		.uleb128 0x28
 6537 00c4 00       		.byte	0
 6538 00c5 03       		.uleb128 0x3
 6539 00c6 0E       		.uleb128 0xe
 6540 00c7 1C       		.uleb128 0x1c
 6541 00c8 0B       		.uleb128 0xb
 6542 00c9 00       		.byte	0
 6543 00ca 00       		.byte	0
 6544 00cb 12       		.uleb128 0x12
 6545 00cc 28       		.uleb128 0x28
 6546 00cd 00       		.byte	0
 6547 00ce 03       		.uleb128 0x3
 6548 00cf 0E       		.uleb128 0xe
 6549 00d0 1C       		.uleb128 0x1c
 6550 00d1 06       		.uleb128 0x6
 6551 00d2 00       		.byte	0
 6552 00d3 00       		.byte	0
 6553 00d4 13       		.uleb128 0x13
 6554 00d5 13       		.uleb128 0x13
 6555 00d6 01       		.byte	0x1
 6556 00d7 0B       		.uleb128 0xb
 6557 00d8 0B       		.uleb128 0xb
 6558 00d9 3A       		.uleb128 0x3a
 6559 00da 0B       		.uleb128 0xb
 6560 00db 3B       		.uleb128 0x3b
 6561 00dc 05       		.uleb128 0x5
 6562 00dd 01       		.uleb128 0x1
 6563 00de 13       		.uleb128 0x13
 6564 00df 00       		.byte	0
 6565 00e0 00       		.byte	0
 6566 00e1 14       		.uleb128 0x14
 6567 00e2 0D       		.uleb128 0xd
 6568 00e3 00       		.byte	0
 6569 00e4 03       		.uleb128 0x3
 6570 00e5 0E       		.uleb128 0xe
 6571 00e6 3A       		.uleb128 0x3a
 6572 00e7 0B       		.uleb128 0xb
 6573 00e8 3B       		.uleb128 0x3b
 6574 00e9 05       		.uleb128 0x5
 6575 00ea 49       		.uleb128 0x49
 6576 00eb 13       		.uleb128 0x13
 6577 00ec 38       		.uleb128 0x38
 6578 00ed 0B       		.uleb128 0xb
 6579 00ee 00       		.byte	0
 6580 00ef 00       		.byte	0
 6581 00f0 15       		.uleb128 0x15
 6582 00f1 0F       		.uleb128 0xf
 6583 00f2 00       		.byte	0
 6584 00f3 0B       		.uleb128 0xb
 6585 00f4 0B       		.uleb128 0xb
ARM GAS  C:\Users\ikomb\AppData\Local\Temp\ccEKz2Td.s 			page 167


 6586 00f5 00       		.byte	0
 6587 00f6 00       		.byte	0
 6588 00f7 16       		.uleb128 0x16
 6589 00f8 0F       		.uleb128 0xf
 6590 00f9 00       		.byte	0
 6591 00fa 0B       		.uleb128 0xb
 6592 00fb 0B       		.uleb128 0xb
 6593 00fc 49       		.uleb128 0x49
 6594 00fd 13       		.uleb128 0x13
 6595 00fe 00       		.byte	0
 6596 00ff 00       		.byte	0
 6597 0100 17       		.uleb128 0x17
 6598 0101 15       		.uleb128 0x15
 6599 0102 01       		.byte	0x1
 6600 0103 27       		.uleb128 0x27
 6601 0104 19       		.uleb128 0x19
 6602 0105 01       		.uleb128 0x1
 6603 0106 13       		.uleb128 0x13
 6604 0107 00       		.byte	0
 6605 0108 00       		.byte	0
 6606 0109 18       		.uleb128 0x18
 6607 010a 05       		.uleb128 0x5
 6608 010b 00       		.byte	0
 6609 010c 49       		.uleb128 0x49
 6610 010d 13       		.uleb128 0x13
 6611 010e 00       		.byte	0
 6612 010f 00       		.byte	0
 6613 0110 19       		.uleb128 0x19
 6614 0111 2E       		.uleb128 0x2e
 6615 0112 01       		.byte	0x1
 6616 0113 03       		.uleb128 0x3
 6617 0114 0E       		.uleb128 0xe
 6618 0115 3A       		.uleb128 0x3a
 6619 0116 0B       		.uleb128 0xb
 6620 0117 3B       		.uleb128 0x3b
 6621 0118 05       		.uleb128 0x5
 6622 0119 27       		.uleb128 0x27
 6623 011a 19       		.uleb128 0x19
 6624 011b 11       		.uleb128 0x11
 6625 011c 01       		.uleb128 0x1
 6626 011d 12       		.uleb128 0x12
 6627 011e 06       		.uleb128 0x6
 6628 011f 40       		.uleb128 0x40
 6629 0120 18       		.uleb128 0x18
 6630 0121 9742     		.uleb128 0x2117
 6631 0123 19       		.uleb128 0x19
 6632 0124 01       		.uleb128 0x1
 6633 0125 13       		.uleb128 0x13
 6634 0126 00       		.byte	0
 6635 0127 00       		.byte	0
 6636 0128 1A       		.uleb128 0x1a
 6637 0129 05       		.uleb128 0x5
 6638 012a 00       		.byte	0
 6639 012b 03       		.uleb128 0x3
 6640 012c 0E       		.uleb128 0xe
 6641 012d 3A       		.uleb128 0x3a
 6642 012e 0B       		.uleb128 0xb
ARM GAS  C:\Users\ikomb\AppData\Local\Temp\ccEKz2Td.s 			page 168


 6643 012f 3B       		.uleb128 0x3b
 6644 0130 05       		.uleb128 0x5
 6645 0131 49       		.uleb128 0x49
 6646 0132 13       		.uleb128 0x13
 6647 0133 02       		.uleb128 0x2
 6648 0134 18       		.uleb128 0x18
 6649 0135 00       		.byte	0
 6650 0136 00       		.byte	0
 6651 0137 1B       		.uleb128 0x1b
 6652 0138 2E       		.uleb128 0x2e
 6653 0139 01       		.byte	0x1
 6654 013a 03       		.uleb128 0x3
 6655 013b 0E       		.uleb128 0xe
 6656 013c 3A       		.uleb128 0x3a
 6657 013d 0B       		.uleb128 0xb
 6658 013e 3B       		.uleb128 0x3b
 6659 013f 05       		.uleb128 0x5
 6660 0140 27       		.uleb128 0x27
 6661 0141 19       		.uleb128 0x19
 6662 0142 49       		.uleb128 0x49
 6663 0143 13       		.uleb128 0x13
 6664 0144 11       		.uleb128 0x11
 6665 0145 01       		.uleb128 0x1
 6666 0146 12       		.uleb128 0x12
 6667 0147 06       		.uleb128 0x6
 6668 0148 40       		.uleb128 0x40
 6669 0149 18       		.uleb128 0x18
 6670 014a 9742     		.uleb128 0x2117
 6671 014c 19       		.uleb128 0x19
 6672 014d 01       		.uleb128 0x1
 6673 014e 13       		.uleb128 0x13
 6674 014f 00       		.byte	0
 6675 0150 00       		.byte	0
 6676 0151 1C       		.uleb128 0x1c
 6677 0152 2E       		.uleb128 0x2e
 6678 0153 01       		.byte	0x1
 6679 0154 03       		.uleb128 0x3
 6680 0155 0E       		.uleb128 0xe
 6681 0156 3A       		.uleb128 0x3a
 6682 0157 0B       		.uleb128 0xb
 6683 0158 3B       		.uleb128 0x3b
 6684 0159 05       		.uleb128 0x5
 6685 015a 27       		.uleb128 0x27
 6686 015b 19       		.uleb128 0x19
 6687 015c 11       		.uleb128 0x11
 6688 015d 01       		.uleb128 0x1
 6689 015e 12       		.uleb128 0x12
 6690 015f 06       		.uleb128 0x6
 6691 0160 40       		.uleb128 0x40
 6692 0161 18       		.uleb128 0x18
 6693 0162 9642     		.uleb128 0x2116
 6694 0164 19       		.uleb128 0x19
 6695 0165 01       		.uleb128 0x1
 6696 0166 13       		.uleb128 0x13
 6697 0167 00       		.byte	0
 6698 0168 00       		.byte	0
 6699 0169 1D       		.uleb128 0x1d
ARM GAS  C:\Users\ikomb\AppData\Local\Temp\ccEKz2Td.s 			page 169


 6700 016a 34       		.uleb128 0x34
 6701 016b 00       		.byte	0
 6702 016c 03       		.uleb128 0x3
 6703 016d 0E       		.uleb128 0xe
 6704 016e 3A       		.uleb128 0x3a
 6705 016f 0B       		.uleb128 0xb
 6706 0170 3B       		.uleb128 0x3b
 6707 0171 05       		.uleb128 0x5
 6708 0172 49       		.uleb128 0x49
 6709 0173 13       		.uleb128 0x13
 6710 0174 02       		.uleb128 0x2
 6711 0175 18       		.uleb128 0x18
 6712 0176 00       		.byte	0
 6713 0177 00       		.byte	0
 6714 0178 1E       		.uleb128 0x1e
 6715 0179 2E       		.uleb128 0x2e
 6716 017a 01       		.byte	0x1
 6717 017b 03       		.uleb128 0x3
 6718 017c 0E       		.uleb128 0xe
 6719 017d 3A       		.uleb128 0x3a
 6720 017e 0B       		.uleb128 0xb
 6721 017f 3B       		.uleb128 0x3b
 6722 0180 05       		.uleb128 0x5
 6723 0181 27       		.uleb128 0x27
 6724 0182 19       		.uleb128 0x19
 6725 0183 49       		.uleb128 0x49
 6726 0184 13       		.uleb128 0x13
 6727 0185 11       		.uleb128 0x11
 6728 0186 01       		.uleb128 0x1
 6729 0187 12       		.uleb128 0x12
 6730 0188 06       		.uleb128 0x6
 6731 0189 40       		.uleb128 0x40
 6732 018a 18       		.uleb128 0x18
 6733 018b 9642     		.uleb128 0x2116
 6734 018d 19       		.uleb128 0x19
 6735 018e 01       		.uleb128 0x1
 6736 018f 13       		.uleb128 0x13
 6737 0190 00       		.byte	0
 6738 0191 00       		.byte	0
 6739 0192 1F       		.uleb128 0x1f
 6740 0193 2E       		.uleb128 0x2e
 6741 0194 01       		.byte	0x1
 6742 0195 3F       		.uleb128 0x3f
 6743 0196 19       		.uleb128 0x19
 6744 0197 03       		.uleb128 0x3
 6745 0198 0E       		.uleb128 0xe
 6746 0199 3A       		.uleb128 0x3a
 6747 019a 0B       		.uleb128 0xb
 6748 019b 3B       		.uleb128 0x3b
 6749 019c 0B       		.uleb128 0xb
 6750 019d 27       		.uleb128 0x27
 6751 019e 19       		.uleb128 0x19
 6752 019f 49       		.uleb128 0x49
 6753 01a0 13       		.uleb128 0x13
 6754 01a1 11       		.uleb128 0x11
 6755 01a2 01       		.uleb128 0x1
 6756 01a3 12       		.uleb128 0x12
ARM GAS  C:\Users\ikomb\AppData\Local\Temp\ccEKz2Td.s 			page 170


 6757 01a4 06       		.uleb128 0x6
 6758 01a5 40       		.uleb128 0x40
 6759 01a6 18       		.uleb128 0x18
 6760 01a7 9642     		.uleb128 0x2116
 6761 01a9 19       		.uleb128 0x19
 6762 01aa 01       		.uleb128 0x1
 6763 01ab 13       		.uleb128 0x13
 6764 01ac 00       		.byte	0
 6765 01ad 00       		.byte	0
 6766 01ae 20       		.uleb128 0x20
 6767 01af 05       		.uleb128 0x5
 6768 01b0 00       		.byte	0
 6769 01b1 03       		.uleb128 0x3
 6770 01b2 0E       		.uleb128 0xe
 6771 01b3 3A       		.uleb128 0x3a
 6772 01b4 0B       		.uleb128 0xb
 6773 01b5 3B       		.uleb128 0x3b
 6774 01b6 0B       		.uleb128 0xb
 6775 01b7 49       		.uleb128 0x49
 6776 01b8 13       		.uleb128 0x13
 6777 01b9 02       		.uleb128 0x2
 6778 01ba 18       		.uleb128 0x18
 6779 01bb 00       		.byte	0
 6780 01bc 00       		.byte	0
 6781 01bd 21       		.uleb128 0x21
 6782 01be 34       		.uleb128 0x34
 6783 01bf 00       		.byte	0
 6784 01c0 03       		.uleb128 0x3
 6785 01c1 0E       		.uleb128 0xe
 6786 01c2 3A       		.uleb128 0x3a
 6787 01c3 0B       		.uleb128 0xb
 6788 01c4 3B       		.uleb128 0x3b
 6789 01c5 0B       		.uleb128 0xb
 6790 01c6 49       		.uleb128 0x49
 6791 01c7 13       		.uleb128 0x13
 6792 01c8 02       		.uleb128 0x2
 6793 01c9 18       		.uleb128 0x18
 6794 01ca 00       		.byte	0
 6795 01cb 00       		.byte	0
 6796 01cc 22       		.uleb128 0x22
 6797 01cd 2E       		.uleb128 0x2e
 6798 01ce 01       		.byte	0x1
 6799 01cf 3F       		.uleb128 0x3f
 6800 01d0 19       		.uleb128 0x19
 6801 01d1 03       		.uleb128 0x3
 6802 01d2 0E       		.uleb128 0xe
 6803 01d3 3A       		.uleb128 0x3a
 6804 01d4 0B       		.uleb128 0xb
 6805 01d5 3B       		.uleb128 0x3b
 6806 01d6 0B       		.uleb128 0xb
 6807 01d7 27       		.uleb128 0x27
 6808 01d8 19       		.uleb128 0x19
 6809 01d9 11       		.uleb128 0x11
 6810 01da 01       		.uleb128 0x1
 6811 01db 12       		.uleb128 0x12
 6812 01dc 06       		.uleb128 0x6
 6813 01dd 40       		.uleb128 0x40
ARM GAS  C:\Users\ikomb\AppData\Local\Temp\ccEKz2Td.s 			page 171


 6814 01de 18       		.uleb128 0x18
 6815 01df 9742     		.uleb128 0x2117
 6816 01e1 19       		.uleb128 0x19
 6817 01e2 01       		.uleb128 0x1
 6818 01e3 13       		.uleb128 0x13
 6819 01e4 00       		.byte	0
 6820 01e5 00       		.byte	0
 6821 01e6 23       		.uleb128 0x23
 6822 01e7 34       		.uleb128 0x34
 6823 01e8 00       		.byte	0
 6824 01e9 03       		.uleb128 0x3
 6825 01ea 08       		.uleb128 0x8
 6826 01eb 3A       		.uleb128 0x3a
 6827 01ec 0B       		.uleb128 0xb
 6828 01ed 3B       		.uleb128 0x3b
 6829 01ee 0B       		.uleb128 0xb
 6830 01ef 49       		.uleb128 0x49
 6831 01f0 13       		.uleb128 0x13
 6832 01f1 02       		.uleb128 0x2
 6833 01f2 18       		.uleb128 0x18
 6834 01f3 00       		.byte	0
 6835 01f4 00       		.byte	0
 6836 01f5 24       		.uleb128 0x24
 6837 01f6 2E       		.uleb128 0x2e
 6838 01f7 01       		.byte	0x1
 6839 01f8 3F       		.uleb128 0x3f
 6840 01f9 19       		.uleb128 0x19
 6841 01fa 03       		.uleb128 0x3
 6842 01fb 0E       		.uleb128 0xe
 6843 01fc 3A       		.uleb128 0x3a
 6844 01fd 0B       		.uleb128 0xb
 6845 01fe 3B       		.uleb128 0x3b
 6846 01ff 0B       		.uleb128 0xb
 6847 0200 27       		.uleb128 0x27
 6848 0201 19       		.uleb128 0x19
 6849 0202 11       		.uleb128 0x11
 6850 0203 01       		.uleb128 0x1
 6851 0204 12       		.uleb128 0x12
 6852 0205 06       		.uleb128 0x6
 6853 0206 40       		.uleb128 0x40
 6854 0207 18       		.uleb128 0x18
 6855 0208 9642     		.uleb128 0x2116
 6856 020a 19       		.uleb128 0x19
 6857 020b 01       		.uleb128 0x1
 6858 020c 13       		.uleb128 0x13
 6859 020d 00       		.byte	0
 6860 020e 00       		.byte	0
 6861 020f 25       		.uleb128 0x25
 6862 0210 2E       		.uleb128 0x2e
 6863 0211 01       		.byte	0x1
 6864 0212 3F       		.uleb128 0x3f
 6865 0213 19       		.uleb128 0x19
 6866 0214 03       		.uleb128 0x3
 6867 0215 0E       		.uleb128 0xe
 6868 0216 3A       		.uleb128 0x3a
 6869 0217 0B       		.uleb128 0xb
 6870 0218 3B       		.uleb128 0x3b
ARM GAS  C:\Users\ikomb\AppData\Local\Temp\ccEKz2Td.s 			page 172


 6871 0219 0B       		.uleb128 0xb
 6872 021a 27       		.uleb128 0x27
 6873 021b 19       		.uleb128 0x19
 6874 021c 49       		.uleb128 0x49
 6875 021d 13       		.uleb128 0x13
 6876 021e 11       		.uleb128 0x11
 6877 021f 01       		.uleb128 0x1
 6878 0220 12       		.uleb128 0x12
 6879 0221 06       		.uleb128 0x6
 6880 0222 40       		.uleb128 0x40
 6881 0223 18       		.uleb128 0x18
 6882 0224 9742     		.uleb128 0x2117
 6883 0226 19       		.uleb128 0x19
 6884 0227 01       		.uleb128 0x1
 6885 0228 13       		.uleb128 0x13
 6886 0229 00       		.byte	0
 6887 022a 00       		.byte	0
 6888 022b 26       		.uleb128 0x26
 6889 022c 2E       		.uleb128 0x2e
 6890 022d 01       		.byte	0x1
 6891 022e 3F       		.uleb128 0x3f
 6892 022f 19       		.uleb128 0x19
 6893 0230 03       		.uleb128 0x3
 6894 0231 0E       		.uleb128 0xe
 6895 0232 3A       		.uleb128 0x3a
 6896 0233 0B       		.uleb128 0xb
 6897 0234 3B       		.uleb128 0x3b
 6898 0235 05       		.uleb128 0x5
 6899 0236 27       		.uleb128 0x27
 6900 0237 19       		.uleb128 0x19
 6901 0238 49       		.uleb128 0x49
 6902 0239 13       		.uleb128 0x13
 6903 023a 11       		.uleb128 0x11
 6904 023b 01       		.uleb128 0x1
 6905 023c 12       		.uleb128 0x12
 6906 023d 06       		.uleb128 0x6
 6907 023e 40       		.uleb128 0x40
 6908 023f 18       		.uleb128 0x18
 6909 0240 9642     		.uleb128 0x2116
 6910 0242 19       		.uleb128 0x19
 6911 0243 01       		.uleb128 0x1
 6912 0244 13       		.uleb128 0x13
 6913 0245 00       		.byte	0
 6914 0246 00       		.byte	0
 6915 0247 27       		.uleb128 0x27
 6916 0248 05       		.uleb128 0x5
 6917 0249 00       		.byte	0
 6918 024a 03       		.uleb128 0x3
 6919 024b 08       		.uleb128 0x8
 6920 024c 3A       		.uleb128 0x3a
 6921 024d 0B       		.uleb128 0xb
 6922 024e 3B       		.uleb128 0x3b
 6923 024f 05       		.uleb128 0x5
 6924 0250 49       		.uleb128 0x49
 6925 0251 13       		.uleb128 0x13
 6926 0252 02       		.uleb128 0x2
 6927 0253 18       		.uleb128 0x18
ARM GAS  C:\Users\ikomb\AppData\Local\Temp\ccEKz2Td.s 			page 173


 6928 0254 00       		.byte	0
 6929 0255 00       		.byte	0
 6930 0256 28       		.uleb128 0x28
 6931 0257 0B       		.uleb128 0xb
 6932 0258 01       		.byte	0x1
 6933 0259 11       		.uleb128 0x11
 6934 025a 01       		.uleb128 0x1
 6935 025b 12       		.uleb128 0x12
 6936 025c 06       		.uleb128 0x6
 6937 025d 00       		.byte	0
 6938 025e 00       		.byte	0
 6939 025f 29       		.uleb128 0x29
 6940 0260 2E       		.uleb128 0x2e
 6941 0261 01       		.byte	0x1
 6942 0262 3F       		.uleb128 0x3f
 6943 0263 19       		.uleb128 0x19
 6944 0264 03       		.uleb128 0x3
 6945 0265 0E       		.uleb128 0xe
 6946 0266 3A       		.uleb128 0x3a
 6947 0267 0B       		.uleb128 0xb
 6948 0268 3B       		.uleb128 0x3b
 6949 0269 05       		.uleb128 0x5
 6950 026a 27       		.uleb128 0x27
 6951 026b 19       		.uleb128 0x19
 6952 026c 49       		.uleb128 0x49
 6953 026d 13       		.uleb128 0x13
 6954 026e 11       		.uleb128 0x11
 6955 026f 01       		.uleb128 0x1
 6956 0270 12       		.uleb128 0x12
 6957 0271 06       		.uleb128 0x6
 6958 0272 40       		.uleb128 0x40
 6959 0273 18       		.uleb128 0x18
 6960 0274 9742     		.uleb128 0x2117
 6961 0276 19       		.uleb128 0x19
 6962 0277 01       		.uleb128 0x1
 6963 0278 13       		.uleb128 0x13
 6964 0279 00       		.byte	0
 6965 027a 00       		.byte	0
 6966 027b 2A       		.uleb128 0x2a
 6967 027c 2E       		.uleb128 0x2e
 6968 027d 01       		.byte	0x1
 6969 027e 3F       		.uleb128 0x3f
 6970 027f 19       		.uleb128 0x19
 6971 0280 03       		.uleb128 0x3
 6972 0281 0E       		.uleb128 0xe
 6973 0282 3A       		.uleb128 0x3a
 6974 0283 0B       		.uleb128 0xb
 6975 0284 3B       		.uleb128 0x3b
 6976 0285 05       		.uleb128 0x5
 6977 0286 27       		.uleb128 0x27
 6978 0287 19       		.uleb128 0x19
 6979 0288 11       		.uleb128 0x11
 6980 0289 01       		.uleb128 0x1
 6981 028a 12       		.uleb128 0x12
 6982 028b 06       		.uleb128 0x6
 6983 028c 40       		.uleb128 0x40
 6984 028d 18       		.uleb128 0x18
ARM GAS  C:\Users\ikomb\AppData\Local\Temp\ccEKz2Td.s 			page 174


 6985 028e 9742     		.uleb128 0x2117
 6986 0290 19       		.uleb128 0x19
 6987 0291 01       		.uleb128 0x1
 6988 0292 13       		.uleb128 0x13
 6989 0293 00       		.byte	0
 6990 0294 00       		.byte	0
 6991 0295 2B       		.uleb128 0x2b
 6992 0296 0B       		.uleb128 0xb
 6993 0297 01       		.byte	0x1
 6994 0298 55       		.uleb128 0x55
 6995 0299 17       		.uleb128 0x17
 6996 029a 00       		.byte	0
 6997 029b 00       		.byte	0
 6998 029c 2C       		.uleb128 0x2c
 6999 029d 34       		.uleb128 0x34
 7000 029e 00       		.byte	0
 7001 029f 03       		.uleb128 0x3
 7002 02a0 0E       		.uleb128 0xe
 7003 02a1 3A       		.uleb128 0x3a
 7004 02a2 0B       		.uleb128 0xb
 7005 02a3 3B       		.uleb128 0x3b
 7006 02a4 05       		.uleb128 0x5
 7007 02a5 49       		.uleb128 0x49
 7008 02a6 13       		.uleb128 0x13
 7009 02a7 3F       		.uleb128 0x3f
 7010 02a8 19       		.uleb128 0x19
 7011 02a9 3C       		.uleb128 0x3c
 7012 02aa 19       		.uleb128 0x19
 7013 02ab 00       		.byte	0
 7014 02ac 00       		.byte	0
 7015 02ad 00       		.byte	0
 7016              		.section	.debug_aranges,"",%progbits
 7017 0000 24010000 		.4byte	0x124
 7018 0004 0200     		.2byte	0x2
 7019 0006 00000000 		.4byte	.Ldebug_info0
 7020 000a 04       		.byte	0x4
 7021 000b 00       		.byte	0
 7022 000c 0000     		.2byte	0
 7023 000e 0000     		.2byte	0
 7024 0010 00000000 		.4byte	.LFB158
 7025 0014 24000000 		.4byte	.LFE158-.LFB158
 7026 0018 00000000 		.4byte	.LFB159
 7027 001c 1E000000 		.4byte	.LFE159-.LFB159
 7028 0020 00000000 		.4byte	.LFB160
 7029 0024 1A000000 		.4byte	.LFE160-.LFB160
 7030 0028 00000000 		.4byte	.LFB167
 7031 002c 1C000000 		.4byte	.LFE167-.LFB167
 7032 0030 00000000 		.4byte	.LFB168
 7033 0034 1E000000 		.4byte	.LFE168-.LFB168
 7034 0038 00000000 		.4byte	.LFB169
 7035 003c 1E000000 		.4byte	.LFE169-.LFB169
 7036 0040 00000000 		.4byte	.LFB170
 7037 0044 28000000 		.4byte	.LFE170-.LFB170
 7038 0048 00000000 		.4byte	.LFB172
 7039 004c F2010000 		.4byte	.LFE172-.LFB172
 7040 0050 00000000 		.4byte	.LFB173
 7041 0054 E4010000 		.4byte	.LFE173-.LFB173
ARM GAS  C:\Users\ikomb\AppData\Local\Temp\ccEKz2Td.s 			page 175


 7042 0058 00000000 		.4byte	.LFB174
 7043 005c 4C000000 		.4byte	.LFE174-.LFB174
 7044 0060 00000000 		.4byte	.LFB175
 7045 0064 4C000000 		.4byte	.LFE175-.LFB175
 7046 0068 00000000 		.4byte	.LFB176
 7047 006c 44000000 		.4byte	.LFE176-.LFB176
 7048 0070 00000000 		.4byte	.LFB177
 7049 0074 78000000 		.4byte	.LFE177-.LFB177
 7050 0078 00000000 		.4byte	.LFB178
 7051 007c 00010000 		.4byte	.LFE178-.LFB178
 7052 0080 00000000 		.4byte	.LFB179
 7053 0084 60000000 		.4byte	.LFE179-.LFB179
 7054 0088 00000000 		.4byte	.LFB180
 7055 008c 50000000 		.4byte	.LFE180-.LFB180
 7056 0090 00000000 		.4byte	.LFB181
 7057 0094 2A000000 		.4byte	.LFE181-.LFB181
 7058 0098 00000000 		.4byte	.LFB182
 7059 009c 88000000 		.4byte	.LFE182-.LFB182
 7060 00a0 00000000 		.4byte	.LFB183
 7061 00a4 54010000 		.4byte	.LFE183-.LFB183
 7062 00a8 00000000 		.4byte	.LFB184
 7063 00ac B4000000 		.4byte	.LFE184-.LFB184
 7064 00b0 00000000 		.4byte	.LFB185
 7065 00b4 C4000000 		.4byte	.LFE185-.LFB185
 7066 00b8 00000000 		.4byte	.LFB186
 7067 00bc B8000000 		.4byte	.LFE186-.LFB186
 7068 00c0 00000000 		.4byte	.LFB187
 7069 00c4 C8000000 		.4byte	.LFE187-.LFB187
 7070 00c8 00000000 		.4byte	.LFB188
 7071 00cc 48000000 		.4byte	.LFE188-.LFB188
 7072 00d0 00000000 		.4byte	.LFB189
 7073 00d4 1A000000 		.4byte	.LFE189-.LFB189
 7074 00d8 00000000 		.4byte	.LFB190
 7075 00dc 50000000 		.4byte	.LFE190-.LFB190
 7076 00e0 00000000 		.4byte	.LFB191
 7077 00e4 4C010000 		.4byte	.LFE191-.LFB191
 7078 00e8 00000000 		.4byte	.LFB192
 7079 00ec 7C000000 		.4byte	.LFE192-.LFB192
 7080 00f0 00000000 		.4byte	.LFB193
 7081 00f4 7C000000 		.4byte	.LFE193-.LFB193
 7082 00f8 00000000 		.4byte	.LFB194
 7083 00fc 7C000000 		.4byte	.LFE194-.LFB194
 7084 0100 00000000 		.4byte	.LFB195
 7085 0104 7C000000 		.4byte	.LFE195-.LFB195
 7086 0108 00000000 		.4byte	.LFB196
 7087 010c 7C000000 		.4byte	.LFE196-.LFB196
 7088 0110 00000000 		.4byte	.LFB197
 7089 0114 F8000000 		.4byte	.LFE197-.LFB197
 7090 0118 00000000 		.4byte	.LFB198
 7091 011c F8000000 		.4byte	.LFE198-.LFB198
 7092 0120 00000000 		.4byte	0
 7093 0124 00000000 		.4byte	0
 7094              		.section	.debug_ranges,"",%progbits
 7095              	.Ldebug_ranges0:
 7096 0000 44000000 		.4byte	.LBB4
 7097 0004 22010000 		.4byte	.LBE4
 7098 0008 34010000 		.4byte	.LBB5
ARM GAS  C:\Users\ikomb\AppData\Local\Temp\ccEKz2Td.s 			page 176


 7099 000c 36010000 		.4byte	.LBE5
 7100 0010 00000000 		.4byte	0
 7101 0014 00000000 		.4byte	0
 7102 0018 58000000 		.4byte	.LBB6
 7103 001c BC000000 		.4byte	.LBE6
 7104 0020 BE000000 		.4byte	.LBB7
 7105 0024 C8000000 		.4byte	.LBE7
 7106 0028 00000000 		.4byte	0
 7107 002c 00000000 		.4byte	0
 7108 0030 58000000 		.4byte	.LBB8
 7109 0034 BC000000 		.4byte	.LBE8
 7110 0038 BE000000 		.4byte	.LBB9
 7111 003c C8000000 		.4byte	.LBE9
 7112 0040 00000000 		.4byte	0
 7113 0044 00000000 		.4byte	0
 7114 0048 00000000 		.4byte	.LFB158
 7115 004c 24000000 		.4byte	.LFE158
 7116 0050 00000000 		.4byte	.LFB159
 7117 0054 1E000000 		.4byte	.LFE159
 7118 0058 00000000 		.4byte	.LFB160
 7119 005c 1A000000 		.4byte	.LFE160
 7120 0060 00000000 		.4byte	.LFB167
 7121 0064 1C000000 		.4byte	.LFE167
 7122 0068 00000000 		.4byte	.LFB168
 7123 006c 1E000000 		.4byte	.LFE168
 7124 0070 00000000 		.4byte	.LFB169
 7125 0074 1E000000 		.4byte	.LFE169
 7126 0078 00000000 		.4byte	.LFB170
 7127 007c 28000000 		.4byte	.LFE170
 7128 0080 00000000 		.4byte	.LFB172
 7129 0084 F2010000 		.4byte	.LFE172
 7130 0088 00000000 		.4byte	.LFB173
 7131 008c E4010000 		.4byte	.LFE173
 7132 0090 00000000 		.4byte	.LFB174
 7133 0094 4C000000 		.4byte	.LFE174
 7134 0098 00000000 		.4byte	.LFB175
 7135 009c 4C000000 		.4byte	.LFE175
 7136 00a0 00000000 		.4byte	.LFB176
 7137 00a4 44000000 		.4byte	.LFE176
 7138 00a8 00000000 		.4byte	.LFB177
 7139 00ac 78000000 		.4byte	.LFE177
 7140 00b0 00000000 		.4byte	.LFB178
 7141 00b4 00010000 		.4byte	.LFE178
 7142 00b8 00000000 		.4byte	.LFB179
 7143 00bc 60000000 		.4byte	.LFE179
 7144 00c0 00000000 		.4byte	.LFB180
 7145 00c4 50000000 		.4byte	.LFE180
 7146 00c8 00000000 		.4byte	.LFB181
 7147 00cc 2A000000 		.4byte	.LFE181
 7148 00d0 00000000 		.4byte	.LFB182
 7149 00d4 88000000 		.4byte	.LFE182
 7150 00d8 00000000 		.4byte	.LFB183
 7151 00dc 54010000 		.4byte	.LFE183
 7152 00e0 00000000 		.4byte	.LFB184
 7153 00e4 B4000000 		.4byte	.LFE184
 7154 00e8 00000000 		.4byte	.LFB185
 7155 00ec C4000000 		.4byte	.LFE185
ARM GAS  C:\Users\ikomb\AppData\Local\Temp\ccEKz2Td.s 			page 177


 7156 00f0 00000000 		.4byte	.LFB186
 7157 00f4 B8000000 		.4byte	.LFE186
 7158 00f8 00000000 		.4byte	.LFB187
 7159 00fc C8000000 		.4byte	.LFE187
 7160 0100 00000000 		.4byte	.LFB188
 7161 0104 48000000 		.4byte	.LFE188
 7162 0108 00000000 		.4byte	.LFB189
 7163 010c 1A000000 		.4byte	.LFE189
 7164 0110 00000000 		.4byte	.LFB190
 7165 0114 50000000 		.4byte	.LFE190
 7166 0118 00000000 		.4byte	.LFB191
 7167 011c 4C010000 		.4byte	.LFE191
 7168 0120 00000000 		.4byte	.LFB192
 7169 0124 7C000000 		.4byte	.LFE192
 7170 0128 00000000 		.4byte	.LFB193
 7171 012c 7C000000 		.4byte	.LFE193
 7172 0130 00000000 		.4byte	.LFB194
 7173 0134 7C000000 		.4byte	.LFE194
 7174 0138 00000000 		.4byte	.LFB195
 7175 013c 7C000000 		.4byte	.LFE195
 7176 0140 00000000 		.4byte	.LFB196
 7177 0144 7C000000 		.4byte	.LFE196
 7178 0148 00000000 		.4byte	.LFB197
 7179 014c F8000000 		.4byte	.LFE197
 7180 0150 00000000 		.4byte	.LFB198
 7181 0154 F8000000 		.4byte	.LFE198
 7182 0158 00000000 		.4byte	0
 7183 015c 00000000 		.4byte	0
 7184              		.section	.debug_line,"",%progbits
 7185              	.Ldebug_line0:
 7186 0000 AC080000 		.section	.debug_str,"MS",%progbits,1
 7186      02005502 
 7186      00000201 
 7186      FB0E0D00 
 7186      01010101 
 7187              	.LASF131:
 7188 0000 43595F53 		.ascii	"CY_SMIF_CMD_FIFO_FULL\000"
 7188      4D49465F 
 7188      434D445F 
 7188      4649464F 
 7188      5F46554C 
 7189              	.LASF6:
 7190 0016 6C6F6E67 		.ascii	"long int\000"
 7190      20696E74 
 7190      00
 7191              	.LASF133:
 7192 001f 43595F53 		.ascii	"CY_SMIF_NO_QE_BIT\000"
 7192      4D49465F 
 7192      4E4F5F51 
 7192      455F4249 
 7192      5400
 7193              	.LASF224:
 7194 0031 72784275 		.ascii	"rxBuffer\000"
 7194      66666572 
 7194      00
 7195              	.LASF194:
 7196 003a 6F757442 		.ascii	"outBuff\000"
ARM GAS  C:\Users\ikomb\AppData\Local\Temp\ccEKz2Td.s 			page 178


 7196      75666600 
 7197              	.LASF103:
 7198 0042 63795F73 		.ascii	"cy_stc_syspm_callback_params_t\000"
 7198      74635F73 
 7198      7973706D 
 7198      5F63616C 
 7198      6C626163 
 7199              	.LASF130:
 7200 0061 43595F53 		.ascii	"CY_SMIF_SUCCESS\000"
 7200      4D49465F 
 7200      53554343 
 7200      45535300 
 7201              	.LASF192:
 7202 0071 43795F53 		.ascii	"Cy_SMIF_UnPackByteArray\000"
 7202      4D49465F 
 7202      556E5061 
 7202      636B4279 
 7202      74654172 
 7203              	.LASF240:
 7204 0089 43795F53 		.ascii	"Cy_SMIF_CachePrefetchingEnable\000"
 7204      4D49465F 
 7204      43616368 
 7204      65507265 
 7204      66657463 
 7205              	.LASF37:
 7206 00a8 54585F43 		.ascii	"TX_CMD_FIFO_STATUS\000"
 7206      4D445F46 
 7206      49464F5F 
 7206      53544154 
 7206      555300
 7207              	.LASF132:
 7208 00bb 43595F53 		.ascii	"CY_SMIF_EXCEED_TIMEOUT\000"
 7208      4D49465F 
 7208      45584345 
 7208      45445F54 
 7208      494D454F 
 7209              	.LASF159:
 7210 00d2 63795F73 		.ascii	"cy_stc_smif_config_t\000"
 7210      74635F73 
 7210      6D69665F 
 7210      636F6E66 
 7210      69675F74 
 7211              	.LASF123:
 7212 00e7 43595F53 		.ascii	"CY_SMIF_REC_CMPLT\000"
 7212      4D49465F 
 7212      5245435F 
 7212      434D504C 
 7212      5400
 7213              	.LASF94:
 7214 00f9 63795F65 		.ascii	"cy_en_syspm_status_t\000"
 7214      6E5F7379 
 7214      73706D5F 
 7214      73746174 
 7214      75735F74 
 7215              	.LASF248:
 7216 010e 63686563 		.ascii	"checkFail\000"
 7216      6B466169 
ARM GAS  C:\Users\ikomb\AppData\Local\Temp\ccEKz2Td.s 			page 179


 7216      6C00
 7217              	.LASF199:
 7218 0118 736C6176 		.ascii	"slaveSelect\000"
 7218      6553656C 
 7218      65637400 
 7219              	.LASF47:
 7220 0124 52585F44 		.ascii	"RX_DATA_FIFO_RD1\000"
 7220      4154415F 
 7220      4649464F 
 7220      5F524431 
 7220      00
 7221              	.LASF48:
 7222 0135 52585F44 		.ascii	"RX_DATA_FIFO_RD2\000"
 7222      4154415F 
 7222      4649464F 
 7222      5F524432 
 7222      00
 7223              	.LASF252:
 7224 0146 433A5C55 		.ascii	"C:\\Users\\ikomb\\Documents\\PSoC Creator\\CE222221"
 7224      73657273 
 7224      5C696B6F 
 7224      6D625C44 
 7224      6F63756D 
 7225 0174 5F566F69 		.ascii	"_Voice_Recorder01\\CE222221_Voice_Recorder01.cydsn\000"
 7225      63655F52 
 7225      65636F72 
 7225      64657230 
 7225      315C4345 
 7226              	.LASF104:
 7227 01a6 43595F53 		.ascii	"CY_SMIF_WIDTH_SINGLE\000"
 7227      4D49465F 
 7227      57494454 
 7227      485F5349 
 7227      4E474C45 
 7228              	.LASF175:
 7229 01bb 43795F53 		.ascii	"Cy_SMIF_GetCmdFifoStatus\000"
 7229      4D49465F 
 7229      47657443 
 7229      6D644669 
 7229      666F5374 
 7230              	.LASF11:
 7231 01d4 756E7369 		.ascii	"unsigned int\000"
 7231      676E6564 
 7231      20696E74 
 7231      00
 7232              	.LASF5:
 7233 01e1 5F5F696E 		.ascii	"__int32_t\000"
 7233      7433325F 
 7233      7400
 7234              	.LASF200:
 7235 01eb 64657669 		.ascii	"device\000"
 7235      636500
 7236              	.LASF126:
 7237 01f2 43595F53 		.ascii	"CY_SMIF_CMD_ERROR\000"
 7237      4D49465F 
 7237      434D445F 
 7237      4552524F 
ARM GAS  C:\Users\ikomb\AppData\Local\Temp\ccEKz2Td.s 			page 180


 7237      5200
 7238              	.LASF112:
 7239 0204 43595F53 		.ascii	"CY_SMIF_DATA_SEL0\000"
 7239      4D49465F 
 7239      44415441 
 7239      5F53454C 
 7239      3000
 7240              	.LASF113:
 7241 0216 43595F53 		.ascii	"CY_SMIF_DATA_SEL1\000"
 7241      4D49465F 
 7241      44415441 
 7241      5F53454C 
 7241      3100
 7242              	.LASF114:
 7243 0228 43595F53 		.ascii	"CY_SMIF_DATA_SEL2\000"
 7243      4D49465F 
 7243      44415441 
 7243      5F53454C 
 7243      3200
 7244              	.LASF158:
 7245 023a 626C6F63 		.ascii	"blockEvent\000"
 7245      6B457665 
 7245      6E7400
 7246              	.LASF183:
 7247 0245 66726565 		.ascii	"freeFifoBytes\000"
 7247      4669666F 
 7247      42797465 
 7247      7300
 7248              	.LASF195:
 7249 0253 43795F53 		.ascii	"Cy_SMIF_TimeoutRun\000"
 7249      4D49465F 
 7249      54696D65 
 7249      6F757452 
 7249      756E00
 7250              	.LASF146:
 7251 0266 43595F53 		.ascii	"CY_SMIF_SEL_INTERNAL_CLK\000"
 7251      4D49465F 
 7251      53454C5F 
 7251      494E5445 
 7251      524E414C 
 7252              	.LASF63:
 7253 027f 43525950 		.ascii	"CRYPTO_INPUT0\000"
 7253      544F5F49 
 7253      4E505554 
 7253      3000
 7254              	.LASF64:
 7255 028d 43525950 		.ascii	"CRYPTO_INPUT1\000"
 7255      544F5F49 
 7255      4E505554 
 7255      3100
 7256              	.LASF65:
 7257 029b 43525950 		.ascii	"CRYPTO_INPUT2\000"
 7257      544F5F49 
 7257      4E505554 
 7257      3200
 7258              	.LASF66:
 7259 02a9 43525950 		.ascii	"CRYPTO_INPUT3\000"
ARM GAS  C:\Users\ikomb\AppData\Local\Temp\ccEKz2Td.s 			page 181


 7259      544F5F49 
 7259      4E505554 
 7259      3300
 7260              	.LASF2:
 7261 02b7 73686F72 		.ascii	"short int\000"
 7261      7420696E 
 7261      7400
 7262              	.LASF251:
 7263 02c1 47656E65 		.ascii	"Generated_Source\\PSoC6\\pdl\\drivers\\peripheral\\"
 7263      72617465 
 7263      645F536F 
 7263      75726365 
 7263      5C50536F 
 7264 02ef 736D6966 		.ascii	"smif\\cy_smif.c\000"
 7264      5C63795F 
 7264      736D6966 
 7264      2E6300
 7265              	.LASF127:
 7266 02fe 43595F53 		.ascii	"CY_SMIF_TX_ERROR\000"
 7266      4D49465F 
 7266      54585F45 
 7266      52524F52 
 7266      00
 7267              	.LASF79:
 7268 030f 494E5452 		.ascii	"INTR_SET\000"
 7268      5F534554 
 7268      00
 7269              	.LASF100:
 7270 0318 6D6F6465 		.ascii	"mode\000"
 7270      00
 7271              	.LASF40:
 7272 031d 54585F44 		.ascii	"TX_DATA_FIFO_STATUS\000"
 7272      4154415F 
 7272      4649464F 
 7272      5F535441 
 7272      54555300 
 7273              	.LASF105:
 7274 0331 43595F53 		.ascii	"CY_SMIF_WIDTH_DUAL\000"
 7274      4D49465F 
 7274      57494454 
 7274      485F4455 
 7274      414C00
 7275              	.LASF115:
 7276 0344 43595F53 		.ascii	"CY_SMIF_DATA_SEL3\000"
 7276      4D49465F 
 7276      44415441 
 7276      5F53454C 
 7276      3300
 7277              	.LASF24:
 7278 0356 52445F41 		.ascii	"RD_ADDR_CTL\000"
 7278      4444525F 
 7278      43544C00 
 7279              	.LASF17:
 7280 0362 52455345 		.ascii	"RESERVED\000"
 7280      52564544 
 7280      00
 7281              	.LASF155:
ARM GAS  C:\Users\ikomb\AppData\Local\Temp\ccEKz2Td.s 			page 182


 7282 036b 63795F73 		.ascii	"cy_smif_event_cb_t\000"
 7282      6D69665F 
 7282      6576656E 
 7282      745F6362 
 7282      5F7400
 7283              	.LASF119:
 7284 037e 63795F65 		.ascii	"cy_en_smif_mode_t\000"
 7284      6E5F736D 
 7284      69665F6D 
 7284      6F64655F 
 7284      7400
 7285              	.LASF96:
 7286 0390 43595F53 		.ascii	"CY_SYSPM_CHECK_FAIL\000"
 7286      5953504D 
 7286      5F434845 
 7286      434B5F46 
 7286      41494C00 
 7287              	.LASF241:
 7288 03a4 43795F53 		.ascii	"Cy_SMIF_CachePrefetchingDisable\000"
 7288      4D49465F 
 7288      43616368 
 7288      65507265 
 7288      66657463 
 7289              	.LASF51:
 7290 03c4 52585F44 		.ascii	"RX_DATA_FIFO_RD1_SILENT\000"
 7290      4154415F 
 7290      4649464F 
 7290      5F524431 
 7290      5F53494C 
 7291              	.LASF211:
 7292 03dc 70617261 		.ascii	"paramSize\000"
 7292      6D53697A 
 7292      6500
 7293              	.LASF163:
 7294 03e6 72784275 		.ascii	"rxBufferAddress\000"
 7294      66666572 
 7294      41646472 
 7294      65737300 
 7295              	.LASF25:
 7296 03f6 52445F4D 		.ascii	"RD_MODE_CTL\000"
 7296      4F44455F 
 7296      43544C00 
 7297              	.LASF44:
 7298 0402 52585F44 		.ascii	"RX_DATA_FIFO_CTL\000"
 7298      4154415F 
 7298      4649464F 
 7298      5F43544C 
 7298      00
 7299              	.LASF177:
 7300 0413 43795F53 		.ascii	"Cy_SMIF_GetRxFifoStatus\000"
 7300      4D49465F 
 7300      47657452 
 7300      78466966 
 7300      6F537461 
 7301              	.LASF14:
 7302 042b 75696E74 		.ascii	"uint32_t\000"
 7302      33325F74 
ARM GAS  C:\Users\ikomb\AppData\Local\Temp\ccEKz2Td.s 			page 183


 7302      00
 7303              	.LASF110:
 7304 0434 43595F53 		.ascii	"CY_SMIF_WAIT_STATES\000"
 7304      4D49465F 
 7304      57414954 
 7304      5F535441 
 7304      54455300 
 7305              	.LASF27:
 7306 0448 52445F44 		.ascii	"RD_DATA_CTL\000"
 7306      4154415F 
 7306      43544C00 
 7307              	.LASF29:
 7308 0454 57525F43 		.ascii	"WR_CMD_CTL\000"
 7308      4D445F43 
 7308      544C00
 7309              	.LASF78:
 7310 045f 494E5452 		.ascii	"INTR\000"
 7310      00
 7311              	.LASF87:
 7312 0464 666C6F61 		.ascii	"float\000"
 7312      7400
 7313              	.LASF101:
 7314 046a 62617365 		.ascii	"base\000"
 7314      00
 7315              	.LASF55:
 7316 046f 534C4F57 		.ascii	"SLOW_CA_CMD\000"
 7316      5F43415F 
 7316      434D4400 
 7317              	.LASF193:
 7318 047b 696E5661 		.ascii	"inValue\000"
 7318      6C756500 
 7319              	.LASF227:
 7320 0483 43795F53 		.ascii	"Cy_SMIF_SendDummyCycles\000"
 7320      4D49465F 
 7320      53656E64 
 7320      44756D6D 
 7320      79437963 
 7321              	.LASF173:
 7322 049b 696E7465 		.ascii	"interrupt\000"
 7322      72727570 
 7322      7400
 7323              	.LASF191:
 7324 04a5 72657375 		.ascii	"result\000"
 7324      6C7400
 7325              	.LASF10:
 7326 04ac 6C6F6E67 		.ascii	"long long unsigned int\000"
 7326      206C6F6E 
 7326      6720756E 
 7326      7369676E 
 7326      65642069 
 7327              	.LASF124:
 7328 04c3 43595F53 		.ascii	"CY_SMIF_REC_BUSY\000"
 7328      4D49465F 
 7328      5245435F 
 7328      42555359 
 7328      00
 7329              	.LASF225:
ARM GAS  C:\Users\ikomb\AppData\Local\Temp\ccEKz2Td.s 			page 184


 7330 04d4 5278436D 		.ascii	"RxCmpltCb\000"
 7330      706C7443 
 7330      6200
 7331              	.LASF153:
 7332 04de 43595F53 		.ascii	"CY_SMIF_CACHE_BOTH\000"
 7332      4D49465F 
 7332      43414348 
 7332      455F424F 
 7332      544800
 7333              	.LASF107:
 7334 04f1 43595F53 		.ascii	"CY_SMIF_WIDTH_OCTAL\000"
 7334      4D49465F 
 7334      57494454 
 7334      485F4F43 
 7334      54414C00 
 7335              	.LASF242:
 7336 0505 43795F53 		.ascii	"Cy_SMIF_CacheInvalidate\000"
 7336      4D49465F 
 7336      43616368 
 7336      65496E76 
 7336      616C6964 
 7337              	.LASF19:
 7338 051d 4D41534B 		.ascii	"MASK\000"
 7338      00
 7339              	.LASF239:
 7340 0522 43795F53 		.ascii	"Cy_SMIF_CacheDisable\000"
 7340      4D49465F 
 7340      43616368 
 7340      65446973 
 7340      61626C65 
 7341              	.LASF156:
 7342 0537 64657365 		.ascii	"deselectDelay\000"
 7342      6C656374 
 7342      44656C61 
 7342      7900
 7343              	.LASF223:
 7344 0545 43795F53 		.ascii	"Cy_SMIF_ReceiveData\000"
 7344      4D49465F 
 7344      52656365 
 7344      69766544 
 7344      61746100 
 7345              	.LASF89:
 7346 0559 43595F53 		.ascii	"CY_SYSPM_SUCCESS\000"
 7346      5953504D 
 7346      5F535543 
 7346      43455353 
 7346      00
 7347              	.LASF231:
 7348 056a 43795F53 		.ascii	"Cy_SMIF_Encrypt\000"
 7348      4D49465F 
 7348      456E6372 
 7348      79707400 
 7349              	.LASF148:
 7350 057a 43595F53 		.ascii	"CY_SMIF_SEL_FEEDBACK_CLK\000"
 7350      4D49465F 
 7350      53454C5F 
 7350      46454544 
ARM GAS  C:\Users\ikomb\AppData\Local\Temp\ccEKz2Td.s 			page 185


 7350      4241434B 
 7351              	.LASF140:
 7352 0593 63795F65 		.ascii	"cy_en_smif_status_t\000"
 7352      6E5F736D 
 7352      69665F73 
 7352      74617475 
 7352      735F7400 
 7353              	.LASF135:
 7354 05a7 43595F53 		.ascii	"CY_SMIF_NO_SFDP_SUPPORT\000"
 7354      4D49465F 
 7354      4E4F5F53 
 7354      4644505F 
 7354      53555050 
 7355              	.LASF38:
 7356 05bf 54585F43 		.ascii	"TX_CMD_FIFO_WR\000"
 7356      4D445F46 
 7356      49464F5F 
 7356      575200
 7357              	.LASF213:
 7358 05ce 636D706C 		.ascii	"cmpltTxfr\000"
 7358      74547866 
 7358      7200
 7359              	.LASF138:
 7360 05d8 43595F53 		.ascii	"CY_SMIF_SFDP_SS2_FAILED\000"
 7360      4D49465F 
 7360      53464450 
 7360      5F535332 
 7360      5F464149 
 7361              	.LASF161:
 7362 05f0 74784275 		.ascii	"txBufferSize\000"
 7362      66666572 
 7362      53697A65 
 7362      00
 7363              	.LASF109:
 7364 05fd 43595F53 		.ascii	"CY_SMIF_BUS_ERROR\000"
 7364      4D49465F 
 7364      4255535F 
 7364      4552524F 
 7364      5200
 7365              	.LASF179:
 7366 060f 5F426F6F 		.ascii	"_Bool\000"
 7366      6C00
 7367              	.LASF206:
 7368 0615 43795F53 		.ascii	"Cy_SMIF_SetDataSelect\000"
 7368      4D49465F 
 7368      53657444 
 7368      61746153 
 7368      656C6563 
 7369              	.LASF157:
 7370 062b 7278436C 		.ascii	"rxClockSel\000"
 7370      6F636B53 
 7370      656C00
 7371              	.LASF141:
 7372 0636 43595F53 		.ascii	"CY_SMIF_SLAVE_SELECT_0\000"
 7372      4D49465F 
 7372      534C4156 
 7372      455F5345 
ARM GAS  C:\Users\ikomb\AppData\Local\Temp\ccEKz2Td.s 			page 186


 7372      4C454354 
 7373              	.LASF142:
 7374 064d 43595F53 		.ascii	"CY_SMIF_SLAVE_SELECT_1\000"
 7374      4D49465F 
 7374      534C4156 
 7374      455F5345 
 7374      4C454354 
 7375              	.LASF143:
 7376 0664 43595F53 		.ascii	"CY_SMIF_SLAVE_SELECT_2\000"
 7376      4D49465F 
 7376      534C4156 
 7376      455F5345 
 7376      4C454354 
 7377              	.LASF144:
 7378 067b 43595F53 		.ascii	"CY_SMIF_SLAVE_SELECT_3\000"
 7378      4D49465F 
 7378      534C4156 
 7378      455F5345 
 7378      4C454354 
 7379              	.LASF185:
 7380 0692 62756666 		.ascii	"buff\000"
 7380      00
 7381              	.LASF122:
 7382 0697 43595F53 		.ascii	"CY_SMIF_SEND_BUSY\000"
 7382      4D49465F 
 7382      53454E44 
 7382      5F425553 
 7382      5900
 7383              	.LASF57:
 7384 06a9 46415354 		.ascii	"FAST_CA_CTL\000"
 7384      5F43415F 
 7384      43544C00 
 7385              	.LASF202:
 7386 06b5 43795F53 		.ascii	"Cy_SMIF_DeInit\000"
 7386      4D49465F 
 7386      4465496E 
 7386      697400
 7387              	.LASF80:
 7388 06c4 494E5452 		.ascii	"INTR_MASK\000"
 7388      5F4D4153 
 7388      4B00
 7389              	.LASF91:
 7390 06ce 43595F53 		.ascii	"CY_SYSPM_TIMEOUT\000"
 7390      5953504D 
 7390      5F54494D 
 7390      454F5554 
 7390      00
 7391              	.LASF190:
 7392 06df 666F7572 		.ascii	"fourBytes\000"
 7392      42797465 
 7392      7300
 7393              	.LASF92:
 7394 06e9 43595F53 		.ascii	"CY_SYSPM_INVALID_STATE\000"
 7394      5953504D 
 7394      5F494E56 
 7394      414C4944 
 7394      5F535441 
ARM GAS  C:\Users\ikomb\AppData\Local\Temp\ccEKz2Td.s 			page 187


 7395              	.LASF36:
 7396 0700 53544154 		.ascii	"STATUS\000"
 7396      555300
 7397              	.LASF86:
 7398 0707 63686172 		.ascii	"char\000"
 7398      00
 7399              	.LASF160:
 7400 070c 74784275 		.ascii	"txBufferAddress\000"
 7400      66666572 
 7400      41646472 
 7400      65737300 
 7401              	.LASF150:
 7402 071c 63795F65 		.ascii	"cy_en_smif_clk_select_t\000"
 7402      6E5F736D 
 7402      69665F63 
 7402      6C6B5F73 
 7402      656C6563 
 7403              	.LASF74:
 7404 0734 43525950 		.ascii	"CRYPTO_OUTPUT1\000"
 7404      544F5F4F 
 7404      55545055 
 7404      543100
 7405              	.LASF76:
 7406 0743 43525950 		.ascii	"CRYPTO_OUTPUT3\000"
 7406      544F5F4F 
 7406      55545055 
 7406      543300
 7407              	.LASF68:
 7408 0752 43525950 		.ascii	"CRYPTO_KEY0\000"
 7408      544F5F4B 
 7408      45593000 
 7409              	.LASF69:
 7410 075e 43525950 		.ascii	"CRYPTO_KEY1\000"
 7410      544F5F4B 
 7410      45593100 
 7411              	.LASF70:
 7412 076a 43525950 		.ascii	"CRYPTO_KEY2\000"
 7412      544F5F4B 
 7412      45593200 
 7413              	.LASF71:
 7414 0776 43525950 		.ascii	"CRYPTO_KEY3\000"
 7414      544F5F4B 
 7414      45593300 
 7415              	.LASF41:
 7416 0782 54585F44 		.ascii	"TX_DATA_FIFO_WR1\000"
 7416      4154415F 
 7416      4649464F 
 7416      5F575231 
 7416      00
 7417              	.LASF42:
 7418 0793 54585F44 		.ascii	"TX_DATA_FIFO_WR2\000"
 7418      4154415F 
 7418      4649464F 
 7418      5F575232 
 7418      00
 7419              	.LASF43:
 7420 07a4 54585F44 		.ascii	"TX_DATA_FIFO_WR4\000"
ARM GAS  C:\Users\ikomb\AppData\Local\Temp\ccEKz2Td.s 			page 188


 7420      4154415F 
 7420      4649464F 
 7420      5F575234 
 7420      00
 7421              	.LASF216:
 7422 07b5 43795F53 		.ascii	"Cy_SMIF_TransmitData\000"
 7422      4D49465F 
 7422      5472616E 
 7422      736D6974 
 7422      44617461 
 7423              	.LASF45:
 7424 07ca 52585F44 		.ascii	"RX_DATA_FIFO_STATUS\000"
 7424      4154415F 
 7424      4649464F 
 7424      5F535441 
 7424      54555300 
 7425              	.LASF168:
 7426 07de 7278436D 		.ascii	"rxCmpltCb\000"
 7426      706C7443 
 7426      6200
 7427              	.LASF12:
 7428 07e8 75696E74 		.ascii	"uint8_t\000"
 7428      385F7400 
 7429              	.LASF196:
 7430 07f0 74696D65 		.ascii	"timeoutUnits\000"
 7430      6F757455 
 7430      6E697473 
 7430      00
 7431              	.LASF197:
 7432 07fd 73746174 		.ascii	"status\000"
 7432      757300
 7433              	.LASF209:
 7434 0804 636D6454 		.ascii	"cmdTxfrWidth\000"
 7434      78667257 
 7434      69647468 
 7434      00
 7435              	.LASF35:
 7436 0811 534D4946 		.ascii	"SMIF_DEVICE_Type\000"
 7436      5F444556 
 7436      4943455F 
 7436      54797065 
 7436      00
 7437              	.LASF120:
 7438 0822 43595F53 		.ascii	"CY_SMIF_STARTED\000"
 7438      4D49465F 
 7438      53544152 
 7438      54454400 
 7439              	.LASF9:
 7440 0832 6C6F6E67 		.ascii	"long long int\000"
 7440      206C6F6E 
 7440      6720696E 
 7440      7400
 7441              	.LASF178:
 7442 0840 43795F53 		.ascii	"Cy_SMIF_BusyCheck\000"
 7442      4D49465F 
 7442      42757379 
 7442      43686563 
ARM GAS  C:\Users\ikomb\AppData\Local\Temp\ccEKz2Td.s 			page 189


 7442      6B00
 7443              	.LASF212:
 7444 0852 70617261 		.ascii	"paramTxfrWidth\000"
 7444      6D547866 
 7444      72576964 
 7444      746800
 7445              	.LASF118:
 7446 0861 43595F53 		.ascii	"CY_SMIF_MEMORY\000"
 7446      4D49465F 
 7446      4D454D4F 
 7446      525900
 7447              	.LASF102:
 7448 0870 636F6E74 		.ascii	"context\000"
 7448      65787400 
 7449              	.LASF214:
 7450 0878 62756649 		.ascii	"bufIndex\000"
 7450      6E646578 
 7450      00
 7451              	.LASF238:
 7452 0881 63616368 		.ascii	"cacheType\000"
 7452      65547970 
 7452      6500
 7453              	.LASF244:
 7454 088b 63616C6C 		.ascii	"callbackParams\000"
 7454      6261636B 
 7454      50617261 
 7454      6D7300
 7455              	.LASF189:
 7456 089a 43795F53 		.ascii	"Cy_SMIF_PackBytesArray\000"
 7456      4D49465F 
 7456      5061636B 
 7456      42797465 
 7456      73417272 
 7457              	.LASF234:
 7458 08b1 64617461 		.ascii	"dataIndex\000"
 7458      496E6465 
 7458      7800
 7459              	.LASF198:
 7460 08bb 43795F53 		.ascii	"Cy_SMIF_GetDeviceBySlot\000"
 7460      4D49465F 
 7460      47657444 
 7460      65766963 
 7460      65427953 
 7461              	.LASF21:
 7462 08d3 41444452 		.ascii	"ADDR_CTL\000"
 7462      5F43544C 
 7462      00
 7463              	.LASF210:
 7464 08dc 636D6450 		.ascii	"cmdParam\000"
 7464      6172616D 
 7464      00
 7465              	.LASF147:
 7466 08e5 43595F53 		.ascii	"CY_SMIF_SEL_INV_INTERNAL_CLK\000"
 7466      4D49465F 
 7466      53454C5F 
 7466      494E565F 
 7466      494E5445 
ARM GAS  C:\Users\ikomb\AppData\Local\Temp\ccEKz2Td.s 			page 190


 7467              	.LASF174:
 7468 0902 43795F53 		.ascii	"Cy_SMIF_GetInterruptMask\000"
 7468      4D49465F 
 7468      47657449 
 7468      6E746572 
 7468      72757074 
 7469              	.LASF218:
 7470 091b 73697A65 		.ascii	"size\000"
 7470      00
 7471              	.LASF125:
 7472 0920 43595F53 		.ascii	"CY_SMIF_XIP_ERROR\000"
 7472      4D49465F 
 7472      5849505F 
 7472      4552524F 
 7472      5200
 7473              	.LASF134:
 7474 0932 43595F53 		.ascii	"CY_SMIF_BAD_PARAM\000"
 7474      4D49465F 
 7474      4241445F 
 7474      50415241 
 7474      4D00
 7475              	.LASF164:
 7476 0944 72784275 		.ascii	"rxBufferSize\000"
 7476      66666572 
 7476      53697A65 
 7476      00
 7477              	.LASF49:
 7478 0951 52585F44 		.ascii	"RX_DATA_FIFO_RD4\000"
 7478      4154415F 
 7478      4649464F 
 7478      5F524434 
 7478      00
 7479              	.LASF151:
 7480 0962 43595F53 		.ascii	"CY_SMIF_CACHE_SLOW\000"
 7480      4D49465F 
 7480      43414348 
 7480      455F534C 
 7480      4F5700
 7481              	.LASF136:
 7482 0975 43595F53 		.ascii	"CY_SMIF_SFDP_SS0_FAILED\000"
 7482      4D49465F 
 7482      53464450 
 7482      5F535330 
 7482      5F464149 
 7483              	.LASF18:
 7484 098d 41444452 		.ascii	"ADDR\000"
 7484      00
 7485              	.LASF53:
 7486 0992 534C4F57 		.ascii	"SLOW_CA_CTL\000"
 7486      5F43415F 
 7486      43544C00 
 7487              	.LASF187:
 7488 099e 72656164 		.ascii	"readBytes\000"
 7488      42797465 
 7488      7300
 7489              	.LASF233:
 7490 09a8 64617461 		.ascii	"data\000"
ARM GAS  C:\Users\ikomb\AppData\Local\Temp\ccEKz2Td.s 			page 191


 7490      00
 7491              	.LASF215:
 7492 09ad 636F6E73 		.ascii	"constCmdPart\000"
 7492      74436D64 
 7492      50617274 
 7492      00
 7493              	.LASF226:
 7494 09ba 43795F53 		.ascii	"Cy_SMIF_ReceiveDataBlocking\000"
 7494      4D49465F 
 7494      52656365 
 7494      69766544 
 7494      61746142 
 7495              	.LASF128:
 7496 09d6 43595F53 		.ascii	"CY_SMIF_RX_ERROR\000"
 7496      4D49465F 
 7496      52585F45 
 7496      52524F52 
 7496      00
 7497              	.LASF15:
 7498 09e7 6C6F6E67 		.ascii	"long double\000"
 7498      20646F75 
 7498      626C6500 
 7499              	.LASF203:
 7500 09f3 43795F53 		.ascii	"Cy_SMIF_SetMode\000"
 7500      4D49465F 
 7500      5365744D 
 7500      6F646500 
 7501              	.LASF117:
 7502 0a03 43595F53 		.ascii	"CY_SMIF_NORMAL\000"
 7502      4D49465F 
 7502      4E4F524D 
 7502      414C00
 7503              	.LASF30:
 7504 0a12 57525F41 		.ascii	"WR_ADDR_CTL\000"
 7504      4444525F 
 7504      43544C00 
 7505              	.LASF243:
 7506 0a1e 43795F53 		.ascii	"Cy_SMIF_DeepSleepCallback\000"
 7506      4D49465F 
 7506      44656570 
 7506      536C6565 
 7506      7043616C 
 7507              	.LASF180:
 7508 0a38 43795F53 		.ascii	"Cy_SMIF_PushTxFifo\000"
 7508      4D49465F 
 7508      50757368 
 7508      54784669 
 7508      666F00
 7509              	.LASF217:
 7510 0a4b 74784275 		.ascii	"txBuffer\000"
 7510      66666572 
 7510      00
 7511              	.LASF246:
 7512 0a54 6C6F6342 		.ascii	"locBase\000"
 7512      61736500 
 7513              	.LASF201:
 7514 0a5c 636F6E66 		.ascii	"config\000"
ARM GAS  C:\Users\ikomb\AppData\Local\Temp\ccEKz2Td.s 			page 192


 7514      696700
 7515              	.LASF208:
 7516 0a63 43795F53 		.ascii	"Cy_SMIF_TransmitCommand\000"
 7516      4D49465F 
 7516      5472616E 
 7516      736D6974 
 7516      436F6D6D 
 7517              	.LASF245:
 7518 0a7b 72657453 		.ascii	"retStatus\000"
 7518      74617475 
 7518      7300
 7519              	.LASF31:
 7520 0a85 57525F4D 		.ascii	"WR_MODE_CTL\000"
 7520      4F44455F 
 7520      43544C00 
 7521              	.LASF39:
 7522 0a91 54585F44 		.ascii	"TX_DATA_FIFO_CTL\000"
 7522      4154415F 
 7522      4649464F 
 7522      5F43544C 
 7522      00
 7523              	.LASF20:
 7524 0aa2 52455345 		.ascii	"RESERVED1\000"
 7524      52564544 
 7524      3100
 7525              	.LASF22:
 7526 0aac 52455345 		.ascii	"RESERVED2\000"
 7526      52564544 
 7526      3200
 7527              	.LASF28:
 7528 0ab6 52455345 		.ascii	"RESERVED3\000"
 7528      52564544 
 7528      3300
 7529              	.LASF34:
 7530 0ac0 52455345 		.ascii	"RESERVED4\000"
 7530      52564544 
 7530      3400
 7531              	.LASF154:
 7532 0aca 63795F65 		.ascii	"cy_en_smif_cache_en_t\000"
 7532      6E5F736D 
 7532      69665F63 
 7532      61636865 
 7532      5F656E5F 
 7533              	.LASF50:
 7534 0ae0 52455345 		.ascii	"RESERVED6\000"
 7534      52564544 
 7534      3600
 7535              	.LASF52:
 7536 0aea 52455345 		.ascii	"RESERVED7\000"
 7536      52564544 
 7536      3700
 7537              	.LASF54:
 7538 0af4 52455345 		.ascii	"RESERVED8\000"
 7538      52564544 
 7538      3800
 7539              	.LASF56:
 7540 0afe 52455345 		.ascii	"RESERVED9\000"
ARM GAS  C:\Users\ikomb\AppData\Local\Temp\ccEKz2Td.s 			page 193


 7540      52564544 
 7540      3900
 7541              	.LASF26:
 7542 0b08 52445F44 		.ascii	"RD_DUMMY_CTL\000"
 7542      554D4D59 
 7542      5F43544C 
 7542      00
 7543              	.LASF99:
 7544 0b15 63795F65 		.ascii	"cy_en_syspm_callback_mode_t\000"
 7544      6E5F7379 
 7544      73706D5F 
 7544      63616C6C 
 7544      6261636B 
 7545              	.LASF33:
 7546 0b31 57525F44 		.ascii	"WR_DATA_CTL\000"
 7546      4154415F 
 7546      43544C00 
 7547              	.LASF162:
 7548 0b3d 74784275 		.ascii	"txBufferCounter\000"
 7548      66666572 
 7548      436F756E 
 7548      74657200 
 7549              	.LASF83:
 7550 0b4d 44455649 		.ascii	"DEVICE\000"
 7550      434500
 7551              	.LASF253:
 7552 0b54 49544D5F 		.ascii	"ITM_RxBuffer\000"
 7552      52784275 
 7552      66666572 
 7552      00
 7553              	.LASF145:
 7554 0b61 63795F65 		.ascii	"cy_en_smif_slave_select_t\000"
 7554      6E5F736D 
 7554      69665F73 
 7554      6C617665 
 7554      5F73656C 
 7555              	.LASF111:
 7556 0b7b 63795F65 		.ascii	"cy_en_smif_error_event_t\000"
 7556      6E5F736D 
 7556      69665F65 
 7556      72726F72 
 7556      5F657665 
 7557              	.LASF236:
 7558 0b94 6F757449 		.ascii	"outIndex\000"
 7558      6E646578 
 7558      00
 7559              	.LASF139:
 7560 0b9d 43595F53 		.ascii	"CY_SMIF_SFDP_SS3_FAILED\000"
 7560      4D49465F 
 7560      53464450 
 7560      5F535333 
 7560      5F464149 
 7561              	.LASF85:
 7562 0bb5 63686172 		.ascii	"char_t\000"
 7562      5F7400
 7563              	.LASF182:
 7564 0bbc 77726974 		.ascii	"writeBytes\000"
ARM GAS  C:\Users\ikomb\AppData\Local\Temp\ccEKz2Td.s 			page 194


 7564      65427974 
 7564      657300
 7565              	.LASF84:
 7566 0bc7 534D4946 		.ascii	"SMIF_Type\000"
 7566      5F547970 
 7566      6500
 7567              	.LASF204:
 7568 0bd1 43795F53 		.ascii	"Cy_SMIF_Init\000"
 7568      4D49465F 
 7568      496E6974 
 7568      00
 7569              	.LASF186:
 7570 0bde 43795F53 		.ascii	"Cy_SMIF_PopRxFifo\000"
 7570      4D49465F 
 7570      506F7052 
 7570      78466966 
 7570      6F00
 7571              	.LASF4:
 7572 0bf0 5F5F7569 		.ascii	"__uint8_t\000"
 7572      6E74385F 
 7572      7400
 7573              	.LASF149:
 7574 0bfa 43595F53 		.ascii	"CY_SMIF_SEL_INV_FEEDBACK_CLK\000"
 7574      4D49465F 
 7574      53454C5F 
 7574      494E565F 
 7574      46454544 
 7575              	.LASF188:
 7576 0c17 6C6F6164 		.ascii	"loadedFifoBytes\000"
 7576      65644669 
 7576      666F4279 
 7576      74657300 
 7577              	.LASF81:
 7578 0c27 494E5452 		.ascii	"INTR_MASKED\000"
 7578      5F4D4153 
 7578      4B454400 
 7579              	.LASF167:
 7580 0c33 7478436D 		.ascii	"txCmpltCb\000"
 7580      706C7443 
 7580      6200
 7581              	.LASF16:
 7582 0c3d 73697A65 		.ascii	"sizetype\000"
 7582      74797065 
 7582      00
 7583              	.LASF73:
 7584 0c46 43525950 		.ascii	"CRYPTO_OUTPUT0\000"
 7584      544F5F4F 
 7584      55545055 
 7584      543000
 7585              	.LASF8:
 7586 0c55 6C6F6E67 		.ascii	"long unsigned int\000"
 7586      20756E73 
 7586      69676E65 
 7586      6420696E 
 7586      7400
 7587              	.LASF75:
 7588 0c67 43525950 		.ascii	"CRYPTO_OUTPUT2\000"
ARM GAS  C:\Users\ikomb\AppData\Local\Temp\ccEKz2Td.s 			page 195


 7588      544F5F4F 
 7588      55545055 
 7588      543200
 7589              	.LASF232:
 7590 0c76 61646472 		.ascii	"address\000"
 7590      65737300 
 7591              	.LASF13:
 7592 0c7e 696E7433 		.ascii	"int32_t\000"
 7592      325F7400 
 7593              	.LASF170:
 7594 0c86 63795F73 		.ascii	"cy_stc_smif_context_t\000"
 7594      74635F73 
 7594      6D69665F 
 7594      636F6E74 
 7594      6578745F 
 7595              	.LASF235:
 7596 0c9c 63727970 		.ascii	"cryptoOut\000"
 7596      746F4F75 
 7596      7400
 7597              	.LASF165:
 7598 0ca6 72784275 		.ascii	"rxBufferCounter\000"
 7598      66666572 
 7598      436F756E 
 7598      74657200 
 7599              	.LASF247:
 7600 0cb6 6C6F6343 		.ascii	"locContext\000"
 7600      6F6E7465 
 7600      787400
 7601              	.LASF172:
 7602 0cc1 43795F53 		.ascii	"Cy_SMIF_SetInterruptMask\000"
 7602      4D49465F 
 7602      53657449 
 7602      6E746572 
 7602      72757074 
 7603              	.LASF129:
 7604 0cda 63795F65 		.ascii	"cy_en_smif_txfr_status_t\000"
 7604      6E5F736D 
 7604      69665F74 
 7604      7866725F 
 7604      73746174 
 7605              	.LASF93:
 7606 0cf3 43595F53 		.ascii	"CY_SYSPM_FAIL\000"
 7606      5953504D 
 7606      5F464149 
 7606      4C00
 7607              	.LASF1:
 7608 0d01 756E7369 		.ascii	"unsigned char\000"
 7608      676E6564 
 7608      20636861 
 7608      7200
 7609              	.LASF7:
 7610 0d0f 5F5F7569 		.ascii	"__uint32_t\000"
 7610      6E743332 
 7610      5F7400
 7611              	.LASF220:
 7612 0d1a 5478436D 		.ascii	"TxCmpltCb\000"
 7612      706C7443 
ARM GAS  C:\Users\ikomb\AppData\Local\Temp\ccEKz2Td.s 			page 196


 7612      6200
 7613              	.LASF169:
 7614 0d24 74696D65 		.ascii	"timeout\000"
 7614      6F757400 
 7615              	.LASF106:
 7616 0d2c 43595F53 		.ascii	"CY_SMIF_WIDTH_QUAD\000"
 7616      4D49465F 
 7616      57494454 
 7616      485F5155 
 7616      414400
 7617              	.LASF184:
 7618 0d3f 62756666 		.ascii	"buffCounter\000"
 7618      436F756E 
 7618      74657200 
 7619              	.LASF176:
 7620 0d4b 43795F53 		.ascii	"Cy_SMIF_GetTxFifoStatus\000"
 7620      4D49465F 
 7620      47657454 
 7620      78466966 
 7620      6F537461 
 7621              	.LASF229:
 7622 0d63 43795F53 		.ascii	"Cy_SMIF_GetTxfrStatus\000"
 7622      4D49465F 
 7622      47657454 
 7622      78667253 
 7622      74617475 
 7623              	.LASF58:
 7624 0d79 52455345 		.ascii	"RESERVED10\000"
 7624      52564544 
 7624      313000
 7625              	.LASF60:
 7626 0d84 52455345 		.ascii	"RESERVED11\000"
 7626      52564544 
 7626      313100
 7627              	.LASF62:
 7628 0d8f 52455345 		.ascii	"RESERVED12\000"
 7628      52564544 
 7628      313200
 7629              	.LASF67:
 7630 0d9a 52455345 		.ascii	"RESERVED13\000"
 7630      52564544 
 7630      313300
 7631              	.LASF72:
 7632 0da5 52455345 		.ascii	"RESERVED14\000"
 7632      52564544 
 7632      313400
 7633              	.LASF77:
 7634 0db0 52455345 		.ascii	"RESERVED15\000"
 7634      52564544 
 7634      313500
 7635              	.LASF82:
 7636 0dbb 52455345 		.ascii	"RESERVED16\000"
 7636      52564544 
 7636      313600
 7637              	.LASF171:
 7638 0dc6 43795F53 		.ascii	"Cy_SMIF_Disable\000"
 7638      4D49465F 
ARM GAS  C:\Users\ikomb\AppData\Local\Temp\ccEKz2Td.s 			page 197


 7638      44697361 
 7638      626C6500 
 7639              	.LASF108:
 7640 0dd6 63795F65 		.ascii	"cy_en_smif_txfr_width_t\000"
 7640      6E5F736D 
 7640      69665F74 
 7640      7866725F 
 7640      77696474 
 7641              	.LASF121:
 7642 0dee 43595F53 		.ascii	"CY_SMIF_SEND_CMPLT\000"
 7642      4D49465F 
 7642      53454E44 
 7642      5F434D50 
 7642      4C5400
 7643              	.LASF181:
 7644 0e01 62617365 		.ascii	"baseaddr\000"
 7644      61646472 
 7644      00
 7645              	.LASF116:
 7646 0e0a 63795F65 		.ascii	"cy_en_smif_data_select_t\000"
 7646      6E5F736D 
 7646      69665F64 
 7646      6174615F 
 7646      73656C65 
 7647              	.LASF90:
 7648 0e23 43595F53 		.ascii	"CY_SYSPM_BAD_PARAM\000"
 7648      5953504D 
 7648      5F424144 
 7648      5F504152 
 7648      414D00
 7649              	.LASF230:
 7650 0e36 43795F53 		.ascii	"Cy_SMIF_Enable\000"
 7650      4D49465F 
 7650      456E6162 
 7650      6C6500
 7651              	.LASF59:
 7652 0e45 46415354 		.ascii	"FAST_CA_CMD\000"
 7652      5F43415F 
 7652      434D4400 
 7653              	.LASF166:
 7654 0e51 7472616E 		.ascii	"transferStatus\000"
 7654      73666572 
 7654      53746174 
 7654      757300
 7655              	.LASF0:
 7656 0e60 7369676E 		.ascii	"signed char\000"
 7656      65642063 
 7656      68617200 
 7657              	.LASF3:
 7658 0e6c 73686F72 		.ascii	"short unsigned int\000"
 7658      7420756E 
 7658      7369676E 
 7658      65642069 
 7658      6E7400
 7659              	.LASF32:
 7660 0e7f 57525F44 		.ascii	"WR_DUMMY_CTL\000"
 7660      554D4D59 
ARM GAS  C:\Users\ikomb\AppData\Local\Temp\ccEKz2Td.s 			page 198


 7660      5F43544C 
 7660      00
 7661              	.LASF219:
 7662 0e8c 7472616E 		.ascii	"transferWidth\000"
 7662      73666572 
 7662      57696474 
 7662      6800
 7663              	.LASF205:
 7664 0e9a 43795F53 		.ascii	"Cy_SMIF_GetMode\000"
 7664      4D49465F 
 7664      4765744D 
 7664      6F646500 
 7665              	.LASF222:
 7666 0eaa 636F6E74 		.ascii	"contextLoc\000"
 7666      6578744C 
 7666      6F6300
 7667              	.LASF249:
 7668 0eb5 43795F53 		.ascii	"Cy_SMIF_HibernateCallback\000"
 7668      4D49465F 
 7668      48696265 
 7668      726E6174 
 7668      6543616C 
 7669              	.LASF88:
 7670 0ecf 646F7562 		.ascii	"double\000"
 7670      6C6500
 7671              	.LASF61:
 7672 0ed6 43525950 		.ascii	"CRYPTO_CMD\000"
 7672      544F5F43 
 7672      4D4400
 7673              	.LASF23:
 7674 0ee1 52445F43 		.ascii	"RD_CMD_CTL\000"
 7674      4D445F43 
 7674      544C00
 7675              	.LASF137:
 7676 0eec 43595F53 		.ascii	"CY_SMIF_SFDP_SS1_FAILED\000"
 7676      4D49465F 
 7676      53464450 
 7676      5F535331 
 7676      5F464149 
 7677              	.LASF228:
 7678 0f04 6379636C 		.ascii	"cycles\000"
 7678      657300
 7679              	.LASF46:
 7680 0f0b 52455345 		.ascii	"RESERVED5\000"
 7680      52564544 
 7680      3500
 7681              	.LASF250:
 7682 0f15 474E5520 		.ascii	"GNU C11 5.4.1 20160609 (release) [ARM/embedded-5-br"
 7682      43313120 
 7682      352E342E 
 7682      31203230 
 7682      31363036 
 7683 0f48 616E6368 		.ascii	"anch revision 237715] -mcpu=cortex-m4 -mfloat-abi=s"
 7683      20726576 
 7683      6973696F 
 7683      6E203233 
 7683      37373135 
ARM GAS  C:\Users\ikomb\AppData\Local\Temp\ccEKz2Td.s 			page 199


 7684 0f7b 6F667466 		.ascii	"oftfp -mfpu=fpv4-sp-d16 -mthumb -g -O0 -ffunction-s"
 7684      70202D6D 
 7684      6670753D 
 7684      66707634 
 7684      2D73702D 
 7685 0fae 65637469 		.ascii	"ections -ffat-lto-objects\000"
 7685      6F6E7320 
 7685      2D666661 
 7685      742D6C74 
 7685      6F2D6F62 
 7686              	.LASF152:
 7687 0fc8 43595F53 		.ascii	"CY_SMIF_CACHE_FAST\000"
 7687      4D49465F 
 7687      43414348 
 7687      455F4641 
 7687      535400
 7688              	.LASF207:
 7689 0fdb 64617461 		.ascii	"dataSelect\000"
 7689      53656C65 
 7689      637400
 7690              	.LASF221:
 7691 0fe6 43795F53 		.ascii	"Cy_SMIF_TransmitDataBlocking\000"
 7691      4D49465F 
 7691      5472616E 
 7691      736D6974 
 7691      44617461 
 7692              	.LASF237:
 7693 1003 43795F53 		.ascii	"Cy_SMIF_CacheEnable\000"
 7693      4D49465F 
 7693      43616368 
 7693      65456E61 
 7693      626C6500 
 7694              	.LASF97:
 7695 1017 43595F53 		.ascii	"CY_SYSPM_BEFORE_TRANSITION\000"
 7695      5953504D 
 7695      5F424546 
 7695      4F52455F 
 7695      5452414E 
 7696              	.LASF98:
 7697 1032 43595F53 		.ascii	"CY_SYSPM_AFTER_TRANSITION\000"
 7697      5953504D 
 7697      5F414654 
 7697      45525F54 
 7697      52414E53 
 7698              	.LASF95:
 7699 104c 43595F53 		.ascii	"CY_SYSPM_CHECK_READY\000"
 7699      5953504D 
 7699      5F434845 
 7699      434B5F52 
 7699      45414459 
 7700              		.ident	"GCC: (GNU Tools for ARM Embedded Processors) 5.4.1 20160609 (release) [ARM/embedded-5-bran
