ARM GAS  C:\Users\ikomb\AppData\Local\Temp\ccEKz2Td.s 			page 1


   1              		.syntax unified
   2              		.cpu cortex-m4
   3              		.eabi_attribute 27, 1
   4              		.fpu fpv4-sp-d16
   5              		.eabi_attribute 20, 1
   6              		.eabi_attribute 21, 1
   7              		.eabi_attribute 23, 3
   8              		.eabi_attribute 24, 1
   9              		.eabi_attribute 25, 1
  10              		.eabi_attribute 26, 1
  11              		.eabi_attribute 30, 6
  12              		.eabi_attribute 34, 1
  13              		.eabi_attribute 18, 4
  14              		.thumb
  15              		.syntax unified
  16              		.file	"cy_smif.c"
  17              		.text
  18              	.Ltext0:
  19              		.cfi_sections	.debug_frame
  20              		.section	.text.Cy_SMIF_Disable,"ax",%progbits
  21              		.align	2
  22              		.thumb
  23              		.thumb_func
  24              		.type	Cy_SMIF_Disable, %function
  25              	Cy_SMIF_Disable:
  26              	.LFB158:
  27              		.file 1 "Generated_Source\\PSoC6\\pdl\\drivers\\peripheral\\smif\\cy_smif.h"
   1:Generated_Source\PSoC6\pdl\drivers\peripheral\smif/cy_smif.h **** /***************************************************************************//**
   2:Generated_Source\PSoC6\pdl\drivers\peripheral\smif/cy_smif.h **** * \file cy_smif.h
   3:Generated_Source\PSoC6\pdl\drivers\peripheral\smif/cy_smif.h **** * \version 1.10.1
   4:Generated_Source\PSoC6\pdl\drivers\peripheral\smif/cy_smif.h **** *
   5:Generated_Source\PSoC6\pdl\drivers\peripheral\smif/cy_smif.h **** * Provides an API declaration of the Cypress SMIF driver.
   6:Generated_Source\PSoC6\pdl\drivers\peripheral\smif/cy_smif.h **** *
   7:Generated_Source\PSoC6\pdl\drivers\peripheral\smif/cy_smif.h **** ********************************************************************************
   8:Generated_Source\PSoC6\pdl\drivers\peripheral\smif/cy_smif.h **** * \copyright
   9:Generated_Source\PSoC6\pdl\drivers\peripheral\smif/cy_smif.h **** * Copyright 2016-2018, Cypress Semiconductor Corporation.  All rights reserved.
  10:Generated_Source\PSoC6\pdl\drivers\peripheral\smif/cy_smif.h **** * You may use this file only in accordance with the license, terms, conditions,
  11:Generated_Source\PSoC6\pdl\drivers\peripheral\smif/cy_smif.h **** * disclaimers, and limitations in the end user license agreement accompanying
  12:Generated_Source\PSoC6\pdl\drivers\peripheral\smif/cy_smif.h **** * the software package with which this file was provided.
  13:Generated_Source\PSoC6\pdl\drivers\peripheral\smif/cy_smif.h **** *******************************************************************************/
  14:Generated_Source\PSoC6\pdl\drivers\peripheral\smif/cy_smif.h **** 
  15:Generated_Source\PSoC6\pdl\drivers\peripheral\smif/cy_smif.h **** /**
  16:Generated_Source\PSoC6\pdl\drivers\peripheral\smif/cy_smif.h **** * \defgroup group_smif Serial Memory Interface (SMIF)
  17:Generated_Source\PSoC6\pdl\drivers\peripheral\smif/cy_smif.h **** * \{
  18:Generated_Source\PSoC6\pdl\drivers\peripheral\smif/cy_smif.h **** * The SPI-based communication interface for external memory devices.
  19:Generated_Source\PSoC6\pdl\drivers\peripheral\smif/cy_smif.h **** *
  20:Generated_Source\PSoC6\pdl\drivers\peripheral\smif/cy_smif.h **** * SMIF: Serial Memory Interface: This IP block implements an SPI-based
  21:Generated_Source\PSoC6\pdl\drivers\peripheral\smif/cy_smif.h **** * communication interface for interfacing external memory devices to PSoC. The SMIF
  22:Generated_Source\PSoC6\pdl\drivers\peripheral\smif/cy_smif.h **** * supports Octal-SPI, Dual Quad-SPI, Quad-SPI, DSPI, and SPI.
  23:Generated_Source\PSoC6\pdl\drivers\peripheral\smif/cy_smif.h **** *
  24:Generated_Source\PSoC6\pdl\drivers\peripheral\smif/cy_smif.h **** * Features
  25:Generated_Source\PSoC6\pdl\drivers\peripheral\smif/cy_smif.h **** *   - Standard SPI Master interface
  26:Generated_Source\PSoC6\pdl\drivers\peripheral\smif/cy_smif.h **** *   - Supports Single/Dual/Quad/Octal SPI Memories
  27:Generated_Source\PSoC6\pdl\drivers\peripheral\smif/cy_smif.h **** *   - Supports Dual-Quad SPI mode
  28:Generated_Source\PSoC6\pdl\drivers\peripheral\smif/cy_smif.h **** *   - Design-time configurable support for multiple (up to 4) external serial
  29:Generated_Source\PSoC6\pdl\drivers\peripheral\smif/cy_smif.h **** *   memory devices
  30:Generated_Source\PSoC6\pdl\drivers\peripheral\smif/cy_smif.h **** *   - eXecute-In-Place (XIP) operation mode for both read and write accesses
ARM GAS  C:\Users\ikomb\AppData\Local\Temp\ccEKz2Td.s 			page 2


  31:Generated_Source\PSoC6\pdl\drivers\peripheral\smif/cy_smif.h **** *   with 4KB XIP read cache and on-the-fly encryption and decryption
  32:Generated_Source\PSoC6\pdl\drivers\peripheral\smif/cy_smif.h **** *   - Supports external serial memory initialization via Serial Flash
  33:Generated_Source\PSoC6\pdl\drivers\peripheral\smif/cy_smif.h **** *   Discoverable Parameters (SFDP) standard
  34:Generated_Source\PSoC6\pdl\drivers\peripheral\smif/cy_smif.h **** *   - Support for SPI clock frequencies up to 80 MHz
  35:Generated_Source\PSoC6\pdl\drivers\peripheral\smif/cy_smif.h **** *
  36:Generated_Source\PSoC6\pdl\drivers\peripheral\smif/cy_smif.h **** *
  37:Generated_Source\PSoC6\pdl\drivers\peripheral\smif/cy_smif.h **** * The primary usage model for the SMIF is that of an external memory interface.
  38:Generated_Source\PSoC6\pdl\drivers\peripheral\smif/cy_smif.h **** * The SMIF is capable of interfacing with different types of memory, up to four
  39:Generated_Source\PSoC6\pdl\drivers\peripheral\smif/cy_smif.h **** * types.
  40:Generated_Source\PSoC6\pdl\drivers\peripheral\smif/cy_smif.h **** *
  41:Generated_Source\PSoC6\pdl\drivers\peripheral\smif/cy_smif.h **** * \b SMIF driver is divided in next layers
  42:Generated_Source\PSoC6\pdl\drivers\peripheral\smif/cy_smif.h **** *   - cy_smif.h API
  43:Generated_Source\PSoC6\pdl\drivers\peripheral\smif/cy_smif.h **** *   - cy_smif_memslot.h API
  44:Generated_Source\PSoC6\pdl\drivers\peripheral\smif/cy_smif.h **** *   - SMIF configuration structures
  45:Generated_Source\PSoC6\pdl\drivers\peripheral\smif/cy_smif.h **** *
  46:Generated_Source\PSoC6\pdl\drivers\peripheral\smif/cy_smif.h **** * The SMIF API is divided into the low-level functions and memory-slot functions. Use
  47:Generated_Source\PSoC6\pdl\drivers\peripheral\smif/cy_smif.h **** * the low level API for the SMIF block initialization and for implementing a generic 
  48:Generated_Source\PSoC6\pdl\drivers\peripheral\smif/cy_smif.h **** * SPI communication interface using the SMIF block.
  49:Generated_Source\PSoC6\pdl\drivers\peripheral\smif/cy_smif.h **** *
  50:Generated_Source\PSoC6\pdl\drivers\peripheral\smif/cy_smif.h **** * The memory slot API has functions to implement the basic memory operations such as 
  51:Generated_Source\PSoC6\pdl\drivers\peripheral\smif/cy_smif.h **** * program, read, erase etc. These functions are implemented using the memory 
  52:Generated_Source\PSoC6\pdl\drivers\peripheral\smif/cy_smif.h **** * parameters in the memory device configuration data structure. The memory-slot
  53:Generated_Source\PSoC6\pdl\drivers\peripheral\smif/cy_smif.h **** * initialization API initializes all the memory slots based on the settings in the
  54:Generated_Source\PSoC6\pdl\drivers\peripheral\smif/cy_smif.h **** * array.
  55:Generated_Source\PSoC6\pdl\drivers\peripheral\smif/cy_smif.h **** *
  56:Generated_Source\PSoC6\pdl\drivers\peripheral\smif/cy_smif.h **** * \image html smif_1_0_p01_layers.png
  57:Generated_Source\PSoC6\pdl\drivers\peripheral\smif/cy_smif.h **** *
  58:Generated_Source\PSoC6\pdl\drivers\peripheral\smif/cy_smif.h **** * SMIF Configuration Tool is a stand-alone application, which is a part of PDL
  59:Generated_Source\PSoC6\pdl\drivers\peripheral\smif/cy_smif.h **** * and could be found in \<PDL_DIR\>/tools/\<OS_DIR\>/SMIFConfigurationTool
  60:Generated_Source\PSoC6\pdl\drivers\peripheral\smif/cy_smif.h **** * (e.g. for PDL 3.0.0 and Windows OS PDL/3.0.0/tools/win/SMIFConfigurationTool). Tool
  61:Generated_Source\PSoC6\pdl\drivers\peripheral\smif/cy_smif.h **** * generates *.c and *.h file with configuration structures. These configuration
  62:Generated_Source\PSoC6\pdl\drivers\peripheral\smif/cy_smif.h **** * structures are input parameters for cy_smif_memslot API level
  63:Generated_Source\PSoC6\pdl\drivers\peripheral\smif/cy_smif.h **** *
  64:Generated_Source\PSoC6\pdl\drivers\peripheral\smif/cy_smif.h **** * \warning The driver is not responsible for external memory persistence. You cannot edit
  65:Generated_Source\PSoC6\pdl\drivers\peripheral\smif/cy_smif.h **** * a buffer during the Read/Write operations. If there is a memory error, the SMIF ip block 
  66:Generated_Source\PSoC6\pdl\drivers\peripheral\smif/cy_smif.h **** * can require a reset. To determine if this has happened, check the SMIF 
  67:Generated_Source\PSoC6\pdl\drivers\peripheral\smif/cy_smif.h **** * busy status using Cy_SMIF_BusyCheck() and implement a timeout. Reset the SMIF 
  68:Generated_Source\PSoC6\pdl\drivers\peripheral\smif/cy_smif.h **** * block by toggling CTL.ENABLED. Then reconfigure the SMIF block.
  69:Generated_Source\PSoC6\pdl\drivers\peripheral\smif/cy_smif.h **** *
  70:Generated_Source\PSoC6\pdl\drivers\peripheral\smif/cy_smif.h **** * For the Write operation, check that the SMIF driver has completed 
  71:Generated_Source\PSoC6\pdl\drivers\peripheral\smif/cy_smif.h **** * transferring by calling Cy_SMIF_BusyCheck(). Also, check that the memory is 
  72:Generated_Source\PSoC6\pdl\drivers\peripheral\smif/cy_smif.h **** * available with Cy_SMIF_Memslot_IsBusy() before proceeding. 
  73:Generated_Source\PSoC6\pdl\drivers\peripheral\smif/cy_smif.h **** *
  74:Generated_Source\PSoC6\pdl\drivers\peripheral\smif/cy_smif.h **** * Simple example of external flash memory programming using low level SMIF API.
  75:Generated_Source\PSoC6\pdl\drivers\peripheral\smif/cy_smif.h **** * All steps mentioned in example below are incorporated in
  76:Generated_Source\PSoC6\pdl\drivers\peripheral\smif/cy_smif.h **** * \ref Cy_SMIF_Memslot_CmdWriteEnable(), \ref Cy_SMIF_Memslot_CmdProgram(), and
  77:Generated_Source\PSoC6\pdl\drivers\peripheral\smif/cy_smif.h **** * \ref Cy_SMIF_Memslot_IsBusy() of the
  78:Generated_Source\PSoC6\pdl\drivers\peripheral\smif/cy_smif.h **** * \ref group_smif_mem_slot_functions "memory slot level API".
  79:Generated_Source\PSoC6\pdl\drivers\peripheral\smif/cy_smif.h **** * \warning Example is simplified, without checks of error conditions.
  80:Generated_Source\PSoC6\pdl\drivers\peripheral\smif/cy_smif.h **** * \note Flash memories need erase operation before programming. Refer to
  81:Generated_Source\PSoC6\pdl\drivers\peripheral\smif/cy_smif.h **** * external memory datasheet for specific memory commands.
  82:Generated_Source\PSoC6\pdl\drivers\peripheral\smif/cy_smif.h **** *
  83:Generated_Source\PSoC6\pdl\drivers\peripheral\smif/cy_smif.h **** * \snippet smif/smif_sut_01.cydsn/main_cm4.c SMIF_API: Write example
  84:Generated_Source\PSoC6\pdl\drivers\peripheral\smif/cy_smif.h **** *
  85:Generated_Source\PSoC6\pdl\drivers\peripheral\smif/cy_smif.h **** * For the Read operation, before accessing the read buffer, check that it is ready
  86:Generated_Source\PSoC6\pdl\drivers\peripheral\smif/cy_smif.h **** * by calling Cy_SMIF_GetTxFifoStatus().
  87:Generated_Source\PSoC6\pdl\drivers\peripheral\smif/cy_smif.h **** *
ARM GAS  C:\Users\ikomb\AppData\Local\Temp\ccEKz2Td.s 			page 3


  88:Generated_Source\PSoC6\pdl\drivers\peripheral\smif/cy_smif.h **** * Simple example of external flash memory read using low level SMIF API. All
  89:Generated_Source\PSoC6\pdl\drivers\peripheral\smif/cy_smif.h **** * steps mentioned in example below are incorporated in
  90:Generated_Source\PSoC6\pdl\drivers\peripheral\smif/cy_smif.h **** * \ref Cy_SMIF_Memslot_CmdRead() of the
  91:Generated_Source\PSoC6\pdl\drivers\peripheral\smif/cy_smif.h **** * \ref group_smif_mem_slot_functions "memory slot level API".
  92:Generated_Source\PSoC6\pdl\drivers\peripheral\smif/cy_smif.h **** * \warning Example is simplified, without checks of error conditions.
  93:Generated_Source\PSoC6\pdl\drivers\peripheral\smif/cy_smif.h **** * \note Refer to external memory datasheet for specific memory commands.
  94:Generated_Source\PSoC6\pdl\drivers\peripheral\smif/cy_smif.h **** *
  95:Generated_Source\PSoC6\pdl\drivers\peripheral\smif/cy_smif.h **** * \snippet smif/smif_sut_01.cydsn/main_cm4.c SMIF_API: Read example
  96:Generated_Source\PSoC6\pdl\drivers\peripheral\smif/cy_smif.h **** *
  97:Generated_Source\PSoC6\pdl\drivers\peripheral\smif/cy_smif.h **** * The user should invalidate the cache by calling Cy_SMIF_CacheInvalidate() when 
  98:Generated_Source\PSoC6\pdl\drivers\peripheral\smif/cy_smif.h **** * switching from the MMIO mode to XIP mode.
  99:Generated_Source\PSoC6\pdl\drivers\peripheral\smif/cy_smif.h **** *
 100:Generated_Source\PSoC6\pdl\drivers\peripheral\smif/cy_smif.h **** * \section group_smif_configuration Configuration Considerations
 101:Generated_Source\PSoC6\pdl\drivers\peripheral\smif/cy_smif.h **** *
 102:Generated_Source\PSoC6\pdl\drivers\peripheral\smif/cy_smif.h **** * PDL API has common parameters: base, context, config described in
 103:Generated_Source\PSoC6\pdl\drivers\peripheral\smif/cy_smif.h **** * \ref page_getting_started_pdl_design "PDL Design" section.
 104:Generated_Source\PSoC6\pdl\drivers\peripheral\smif/cy_smif.h **** *
 105:Generated_Source\PSoC6\pdl\drivers\peripheral\smif/cy_smif.h **** * See the documentation for Cy_SMIF_Init() and Cy_SMIF_Memslot_Init() for details
 106:Generated_Source\PSoC6\pdl\drivers\peripheral\smif/cy_smif.h **** * on the required configuration structures and other initialization topics. 
 107:Generated_Source\PSoC6\pdl\drivers\peripheral\smif/cy_smif.h **** *
 108:Generated_Source\PSoC6\pdl\drivers\peripheral\smif/cy_smif.h **** * The normal (MMIO) mode is used for implementing a generic SPI/DSPI/QSPI/Dual
 109:Generated_Source\PSoC6\pdl\drivers\peripheral\smif/cy_smif.h **** * Quad-SPI/Octal-SPI communication interface using the SMIF block. This
 110:Generated_Source\PSoC6\pdl\drivers\peripheral\smif/cy_smif.h **** * interface can be used to implement special commands like Program/Erase of
 111:Generated_Source\PSoC6\pdl\drivers\peripheral\smif/cy_smif.h **** * flash, memory device configuration, sleep mode entry for memory devices or
 112:Generated_Source\PSoC6\pdl\drivers\peripheral\smif/cy_smif.h **** * other special commands specific to the memory device. The transfer width
 113:Generated_Source\PSoC6\pdl\drivers\peripheral\smif/cy_smif.h **** * (SPI/DSP/Quad-SPI/Octal-SPI) of a transmission is a parameter set for each
 114:Generated_Source\PSoC6\pdl\drivers\peripheral\smif/cy_smif.h **** * transmit/receive operation. So these can be changed at run time.
 115:Generated_Source\PSoC6\pdl\drivers\peripheral\smif/cy_smif.h **** *
 116:Generated_Source\PSoC6\pdl\drivers\peripheral\smif/cy_smif.h **** * In a typical memory interface with flash memory, the SMIF is used in the
 117:Generated_Source\PSoC6\pdl\drivers\peripheral\smif/cy_smif.h **** * memory mode when reading from the memory and it switches to the normal mode when
 118:Generated_Source\PSoC6\pdl\drivers\peripheral\smif/cy_smif.h **** * writing to flash memory.
 119:Generated_Source\PSoC6\pdl\drivers\peripheral\smif/cy_smif.h **** * A typical memory device has multiple types of commands.
 120:Generated_Source\PSoC6\pdl\drivers\peripheral\smif/cy_smif.h **** *
 121:Generated_Source\PSoC6\pdl\drivers\peripheral\smif/cy_smif.h **** * The SMIF interface can be used to transmit different types of commands. Each
 122:Generated_Source\PSoC6\pdl\drivers\peripheral\smif/cy_smif.h **** * command has different phases: command, dummy cycles, and transmit and receive
 123:Generated_Source\PSoC6\pdl\drivers\peripheral\smif/cy_smif.h **** * data which require separate APIs.
 124:Generated_Source\PSoC6\pdl\drivers\peripheral\smif/cy_smif.h **** *
 125:Generated_Source\PSoC6\pdl\drivers\peripheral\smif/cy_smif.h **** * \subsection group_smif_init SMIF Initialization
 126:Generated_Source\PSoC6\pdl\drivers\peripheral\smif/cy_smif.h **** * Create interrupt function and allocate memory for SMIF context
 127:Generated_Source\PSoC6\pdl\drivers\peripheral\smif/cy_smif.h **** * structure
 128:Generated_Source\PSoC6\pdl\drivers\peripheral\smif/cy_smif.h **** * \snippet smif/smif_sut_01.cydsn/main_cm4.c SMIF_INIT: context and interrupt
 129:Generated_Source\PSoC6\pdl\drivers\peripheral\smif/cy_smif.h **** * SMIF driver initialization for low level API usage (cysmif.h)
 130:Generated_Source\PSoC6\pdl\drivers\peripheral\smif/cy_smif.h **** * \snippet smif/smif_sut_01.cydsn/main_cm4.c SMIF_INIT: low level
 131:Generated_Source\PSoC6\pdl\drivers\peripheral\smif/cy_smif.h **** * Additional steps to initialize SMIF driver for memory slot level API usage
 132:Generated_Source\PSoC6\pdl\drivers\peripheral\smif/cy_smif.h **** * (cy_smif_memslot.h).
 133:Generated_Source\PSoC6\pdl\drivers\peripheral\smif/cy_smif.h **** * \snippet smif/smif_sut_01.cydsn/main_cm4.c SMIF_INIT: memslot level
 134:Generated_Source\PSoC6\pdl\drivers\peripheral\smif/cy_smif.h **** * \note Example does not include initialization of all needed configuration
 135:Generated_Source\PSoC6\pdl\drivers\peripheral\smif/cy_smif.h **** * structures (\ref cy_stc_smif_mem_device_cfg_t, \ref cy_stc_smif_mem_cmd_t).
 136:Generated_Source\PSoC6\pdl\drivers\peripheral\smif/cy_smif.h **** * SMIF Configuration tool generates all configuration structures needed for
 137:Generated_Source\PSoC6\pdl\drivers\peripheral\smif/cy_smif.h **** * memslot level API usage.
 138:Generated_Source\PSoC6\pdl\drivers\peripheral\smif/cy_smif.h **** *
 139:Generated_Source\PSoC6\pdl\drivers\peripheral\smif/cy_smif.h **** * \subsection group_smif_xip_init SMIF XIP Initialization
 140:Generated_Source\PSoC6\pdl\drivers\peripheral\smif/cy_smif.h **** * The eXecute In Place (XIP) is a mode of operation where read or write commands 
 141:Generated_Source\PSoC6\pdl\drivers\peripheral\smif/cy_smif.h **** * to the memory device are directed through the SMIF without any use of API 
 142:Generated_Source\PSoC6\pdl\drivers\peripheral\smif/cy_smif.h **** * function calls. In this mode the SMIF block maps the AHB bus-accesses to 
 143:Generated_Source\PSoC6\pdl\drivers\peripheral\smif/cy_smif.h **** * external memory device addresses to make it behave similar to internal memory. 
 144:Generated_Source\PSoC6\pdl\drivers\peripheral\smif/cy_smif.h **** * This allows the CPU to execute code directly from external memory. This mode 
ARM GAS  C:\Users\ikomb\AppData\Local\Temp\ccEKz2Td.s 			page 4


 145:Generated_Source\PSoC6\pdl\drivers\peripheral\smif/cy_smif.h **** * is not limited to code and is suitable also for data read and write accesses. 
 146:Generated_Source\PSoC6\pdl\drivers\peripheral\smif/cy_smif.h **** * \snippet smif/smif_sut_01.cydsn/main_cm4.c SMIF_INIT: XIP
 147:Generated_Source\PSoC6\pdl\drivers\peripheral\smif/cy_smif.h **** * \note Example of input parameters initialization is in \ref group_smif_init 
 148:Generated_Source\PSoC6\pdl\drivers\peripheral\smif/cy_smif.h **** * section.
 149:Generated_Source\PSoC6\pdl\drivers\peripheral\smif/cy_smif.h **** * \warning Functions that called from external memory should be declared with 
 150:Generated_Source\PSoC6\pdl\drivers\peripheral\smif/cy_smif.h **** * long call attribute.     
 151:Generated_Source\PSoC6\pdl\drivers\peripheral\smif/cy_smif.h **** *
 152:Generated_Source\PSoC6\pdl\drivers\peripheral\smif/cy_smif.h **** * \section group_smif_more_information More Information
 153:Generated_Source\PSoC6\pdl\drivers\peripheral\smif/cy_smif.h **** *
 154:Generated_Source\PSoC6\pdl\drivers\peripheral\smif/cy_smif.h **** * More information regarding the Serial Memory Interface can be found in the component 
 155:Generated_Source\PSoC6\pdl\drivers\peripheral\smif/cy_smif.h **** * datasheet and the Technical Reference Manual (TRM).
 156:Generated_Source\PSoC6\pdl\drivers\peripheral\smif/cy_smif.h **** * More information regarding the SMIF Configuration Tool are in SMIF
 157:Generated_Source\PSoC6\pdl\drivers\peripheral\smif/cy_smif.h **** * Configuration Tool User Guide located in \<PDL_DIR\>/tools/\<OS_DIR\>/SMIFConfigurationTool/
 158:Generated_Source\PSoC6\pdl\drivers\peripheral\smif/cy_smif.h **** * folder
 159:Generated_Source\PSoC6\pdl\drivers\peripheral\smif/cy_smif.h **** *
 160:Generated_Source\PSoC6\pdl\drivers\peripheral\smif/cy_smif.h **** * \section group_smif_MISRA MISRA-C Compliance]
 161:Generated_Source\PSoC6\pdl\drivers\peripheral\smif/cy_smif.h **** * <table class="doxtable">
 162:Generated_Source\PSoC6\pdl\drivers\peripheral\smif/cy_smif.h **** *   <tr>
 163:Generated_Source\PSoC6\pdl\drivers\peripheral\smif/cy_smif.h **** *     <th>MISRA rule</th>
 164:Generated_Source\PSoC6\pdl\drivers\peripheral\smif/cy_smif.h **** *     <th>Rule Class (Required/Advisory)</th>
 165:Generated_Source\PSoC6\pdl\drivers\peripheral\smif/cy_smif.h **** *     <th>Rule Description</th>
 166:Generated_Source\PSoC6\pdl\drivers\peripheral\smif/cy_smif.h **** *     <th>Description of Deviation(s)</th>
 167:Generated_Source\PSoC6\pdl\drivers\peripheral\smif/cy_smif.h **** *   </tr>
 168:Generated_Source\PSoC6\pdl\drivers\peripheral\smif/cy_smif.h **** *   <tr>
 169:Generated_Source\PSoC6\pdl\drivers\peripheral\smif/cy_smif.h **** *     <td>11.4</td>
 170:Generated_Source\PSoC6\pdl\drivers\peripheral\smif/cy_smif.h **** *     <td>A</td>
 171:Generated_Source\PSoC6\pdl\drivers\peripheral\smif/cy_smif.h **** *     <td>The cast is be performed between a pointer to the object type and a different pointer to 
 172:Generated_Source\PSoC6\pdl\drivers\peripheral\smif/cy_smif.h **** *     <td>The cast from the pointer to void to the pointer to an unsigned integer does not have any
 173:Generated_Source\PSoC6\pdl\drivers\peripheral\smif/cy_smif.h **** *         it is a consequence of the definition of a structure based on hardware registers.</td>
 174:Generated_Source\PSoC6\pdl\drivers\peripheral\smif/cy_smif.h **** *   </tr>
 175:Generated_Source\PSoC6\pdl\drivers\peripheral\smif/cy_smif.h **** *   <tr>
 176:Generated_Source\PSoC6\pdl\drivers\peripheral\smif/cy_smif.h **** *     <td>11.5</td>
 177:Generated_Source\PSoC6\pdl\drivers\peripheral\smif/cy_smif.h **** *     <td>R</td>
 178:Generated_Source\PSoC6\pdl\drivers\peripheral\smif/cy_smif.h **** *     <td>Not performed, the cast that removes any const or volatile qualification from the type ad
 179:Generated_Source\PSoC6\pdl\drivers\peripheral\smif/cy_smif.h **** *     <td>The removal of the volatile qualification inside the function has no side effects.</td>
 180:Generated_Source\PSoC6\pdl\drivers\peripheral\smif/cy_smif.h **** *   </tr>
 181:Generated_Source\PSoC6\pdl\drivers\peripheral\smif/cy_smif.h **** *   <tr>
 182:Generated_Source\PSoC6\pdl\drivers\peripheral\smif/cy_smif.h **** *     <td>14.2</td>
 183:Generated_Source\PSoC6\pdl\drivers\peripheral\smif/cy_smif.h **** *     <td>R</td>
 184:Generated_Source\PSoC6\pdl\drivers\peripheral\smif/cy_smif.h **** *     <td>All non-null statements will either:
 185:Generated_Source\PSoC6\pdl\drivers\peripheral\smif/cy_smif.h **** *       a) have at least one-side effect however executed, or
 186:Generated_Source\PSoC6\pdl\drivers\peripheral\smif/cy_smif.h **** *       b) cause control flow to change</td>
 187:Generated_Source\PSoC6\pdl\drivers\peripheral\smif/cy_smif.h **** *     <td>The readback of the register is required by the hardware.</td>
 188:Generated_Source\PSoC6\pdl\drivers\peripheral\smif/cy_smif.h **** *   </tr>
 189:Generated_Source\PSoC6\pdl\drivers\peripheral\smif/cy_smif.h **** * </table>
 190:Generated_Source\PSoC6\pdl\drivers\peripheral\smif/cy_smif.h **** *
 191:Generated_Source\PSoC6\pdl\drivers\peripheral\smif/cy_smif.h **** * \section group_smif_changelog Changelog
 192:Generated_Source\PSoC6\pdl\drivers\peripheral\smif/cy_smif.h **** * <table class="doxtable">
 193:Generated_Source\PSoC6\pdl\drivers\peripheral\smif/cy_smif.h **** *   <tr><th>Version</th><th>Changes</th><th>Reason for Change</th></tr>
 194:Generated_Source\PSoC6\pdl\drivers\peripheral\smif/cy_smif.h **** *   <tr>
 195:Generated_Source\PSoC6\pdl\drivers\peripheral\smif/cy_smif.h **** *     <td>1.10.1</td>
 196:Generated_Source\PSoC6\pdl\drivers\peripheral\smif/cy_smif.h **** *     <td>Added Low Power Callback section</td>
 197:Generated_Source\PSoC6\pdl\drivers\peripheral\smif/cy_smif.h **** *     <td>Documentation update and clarification</td>
 198:Generated_Source\PSoC6\pdl\drivers\peripheral\smif/cy_smif.h **** *   </tr>
 199:Generated_Source\PSoC6\pdl\drivers\peripheral\smif/cy_smif.h **** *   <tr>
 200:Generated_Source\PSoC6\pdl\drivers\peripheral\smif/cy_smif.h **** *     <td>1.10</td>
 201:Generated_Source\PSoC6\pdl\drivers\peripheral\smif/cy_smif.h **** *     <td>Fix write to external memory from CM0+ core. Add checks of API input parameters. 
ARM GAS  C:\Users\ikomb\AppData\Local\Temp\ccEKz2Td.s 			page 5


 202:Generated_Source\PSoC6\pdl\drivers\peripheral\smif/cy_smif.h **** *         Minor documentation updates</td>
 203:Generated_Source\PSoC6\pdl\drivers\peripheral\smif/cy_smif.h **** *     <td></td>
 204:Generated_Source\PSoC6\pdl\drivers\peripheral\smif/cy_smif.h **** *   </tr>
 205:Generated_Source\PSoC6\pdl\drivers\peripheral\smif/cy_smif.h **** *   <tr>
 206:Generated_Source\PSoC6\pdl\drivers\peripheral\smif/cy_smif.h **** *     <td>1.0</td>
 207:Generated_Source\PSoC6\pdl\drivers\peripheral\smif/cy_smif.h **** *     <td>Initial version</td>
 208:Generated_Source\PSoC6\pdl\drivers\peripheral\smif/cy_smif.h **** *     <td></td>
 209:Generated_Source\PSoC6\pdl\drivers\peripheral\smif/cy_smif.h **** *   </tr>
 210:Generated_Source\PSoC6\pdl\drivers\peripheral\smif/cy_smif.h **** * </table>
 211:Generated_Source\PSoC6\pdl\drivers\peripheral\smif/cy_smif.h **** *
 212:Generated_Source\PSoC6\pdl\drivers\peripheral\smif/cy_smif.h **** * \defgroup group_smif_macros Macros
 213:Generated_Source\PSoC6\pdl\drivers\peripheral\smif/cy_smif.h **** * \{
 214:Generated_Source\PSoC6\pdl\drivers\peripheral\smif/cy_smif.h **** * \defgroup group_smif_macros_status Status Macros
 215:Generated_Source\PSoC6\pdl\drivers\peripheral\smif/cy_smif.h **** * \defgroup group_smif_macros_cmd Command Macros
 216:Generated_Source\PSoC6\pdl\drivers\peripheral\smif/cy_smif.h **** * \defgroup group_smif_macros_flags External Memory Flags
 217:Generated_Source\PSoC6\pdl\drivers\peripheral\smif/cy_smif.h **** * \defgroup group_smif_macros_sfdp SFDP Macros
 218:Generated_Source\PSoC6\pdl\drivers\peripheral\smif/cy_smif.h **** * \defgroup group_smif_macros_isr Interrupt Macros
 219:Generated_Source\PSoC6\pdl\drivers\peripheral\smif/cy_smif.h **** * \}
 220:Generated_Source\PSoC6\pdl\drivers\peripheral\smif/cy_smif.h **** * \defgroup group_smif_functions Functions
 221:Generated_Source\PSoC6\pdl\drivers\peripheral\smif/cy_smif.h **** * \{
 222:Generated_Source\PSoC6\pdl\drivers\peripheral\smif/cy_smif.h **** * \defgroup group_smif_low_level_functions Low Level Functions
 223:Generated_Source\PSoC6\pdl\drivers\peripheral\smif/cy_smif.h **** * \{
 224:Generated_Source\PSoC6\pdl\drivers\peripheral\smif/cy_smif.h **** * Basic flow for read/write commands using \ref Cy_SMIF_TransmitCommand
 225:Generated_Source\PSoC6\pdl\drivers\peripheral\smif/cy_smif.h **** * \ref Cy_SMIF_TransmitData \ref Cy_SMIF_ReceiveData
 226:Generated_Source\PSoC6\pdl\drivers\peripheral\smif/cy_smif.h **** * \ref Cy_SMIF_SendDummyCycles
 227:Generated_Source\PSoC6\pdl\drivers\peripheral\smif/cy_smif.h **** *
 228:Generated_Source\PSoC6\pdl\drivers\peripheral\smif/cy_smif.h **** *  \image html smif_1_0_p03_rw_cmd.png
 229:Generated_Source\PSoC6\pdl\drivers\peripheral\smif/cy_smif.h **** *
 230:Generated_Source\PSoC6\pdl\drivers\peripheral\smif/cy_smif.h **** * \}
 231:Generated_Source\PSoC6\pdl\drivers\peripheral\smif/cy_smif.h **** * \defgroup group_smif_mem_slot_functions Memory Slot Functions
 232:Generated_Source\PSoC6\pdl\drivers\peripheral\smif/cy_smif.h **** * \defgroup group_smif_functions_syspm_callback  Low Power Callback
 233:Generated_Source\PSoC6\pdl\drivers\peripheral\smif/cy_smif.h **** * \}
 234:Generated_Source\PSoC6\pdl\drivers\peripheral\smif/cy_smif.h **** * \defgroup group_smif_data_structures Data Structures
 235:Generated_Source\PSoC6\pdl\drivers\peripheral\smif/cy_smif.h **** * \{
 236:Generated_Source\PSoC6\pdl\drivers\peripheral\smif/cy_smif.h **** * \defgroup group_smif_data_structures_memslot SMIF Memory Description Structures
 237:Generated_Source\PSoC6\pdl\drivers\peripheral\smif/cy_smif.h **** * General hierarchy of memory structures are:
 238:Generated_Source\PSoC6\pdl\drivers\peripheral\smif/cy_smif.h **** * \image html smif_1_0_p02_memslot_stc.png
 239:Generated_Source\PSoC6\pdl\drivers\peripheral\smif/cy_smif.h **** * Top structure is \ref cy_stc_smif_block_config_t, which could have links up to
 240:Generated_Source\PSoC6\pdl\drivers\peripheral\smif/cy_smif.h **** * 4 \ref cy_stc_smif_mem_config_t which describes each connected to the SMIF
 241:Generated_Source\PSoC6\pdl\drivers\peripheral\smif/cy_smif.h **** * external memory.
 242:Generated_Source\PSoC6\pdl\drivers\peripheral\smif/cy_smif.h **** * \}
 243:Generated_Source\PSoC6\pdl\drivers\peripheral\smif/cy_smif.h **** * \defgroup group_smif_enums Enumerated Types
 244:Generated_Source\PSoC6\pdl\drivers\peripheral\smif/cy_smif.h **** */
 245:Generated_Source\PSoC6\pdl\drivers\peripheral\smif/cy_smif.h **** 
 246:Generated_Source\PSoC6\pdl\drivers\peripheral\smif/cy_smif.h **** #if !defined(CY_SMIF_H)
 247:Generated_Source\PSoC6\pdl\drivers\peripheral\smif/cy_smif.h **** #define CY_SMIF_H
 248:Generated_Source\PSoC6\pdl\drivers\peripheral\smif/cy_smif.h **** 
 249:Generated_Source\PSoC6\pdl\drivers\peripheral\smif/cy_smif.h **** #include <stdint.h>
 250:Generated_Source\PSoC6\pdl\drivers\peripheral\smif/cy_smif.h **** #include <stdbool.h>
 251:Generated_Source\PSoC6\pdl\drivers\peripheral\smif/cy_smif.h **** #include <stddef.h>
 252:Generated_Source\PSoC6\pdl\drivers\peripheral\smif/cy_smif.h **** #include "syslib/cy_syslib.h"
 253:Generated_Source\PSoC6\pdl\drivers\peripheral\smif/cy_smif.h **** #include "syspm/cy_syspm.h"
 254:Generated_Source\PSoC6\pdl\drivers\peripheral\smif/cy_smif.h **** #include "cy_device_headers.h"
 255:Generated_Source\PSoC6\pdl\drivers\peripheral\smif/cy_smif.h **** 
 256:Generated_Source\PSoC6\pdl\drivers\peripheral\smif/cy_smif.h **** #ifndef CY_IP_MXSMIF
 257:Generated_Source\PSoC6\pdl\drivers\peripheral\smif/cy_smif.h ****     #error "The SMIF driver is not supported on this device"
 258:Generated_Source\PSoC6\pdl\drivers\peripheral\smif/cy_smif.h **** #endif
ARM GAS  C:\Users\ikomb\AppData\Local\Temp\ccEKz2Td.s 			page 6


 259:Generated_Source\PSoC6\pdl\drivers\peripheral\smif/cy_smif.h **** 
 260:Generated_Source\PSoC6\pdl\drivers\peripheral\smif/cy_smif.h **** #if defined(__cplusplus)
 261:Generated_Source\PSoC6\pdl\drivers\peripheral\smif/cy_smif.h **** extern "C" {
 262:Generated_Source\PSoC6\pdl\drivers\peripheral\smif/cy_smif.h **** #endif
 263:Generated_Source\PSoC6\pdl\drivers\peripheral\smif/cy_smif.h **** 
 264:Generated_Source\PSoC6\pdl\drivers\peripheral\smif/cy_smif.h **** /***************************************
 265:Generated_Source\PSoC6\pdl\drivers\peripheral\smif/cy_smif.h **** *            Constants
 266:Generated_Source\PSoC6\pdl\drivers\peripheral\smif/cy_smif.h **** ****************************************/
 267:Generated_Source\PSoC6\pdl\drivers\peripheral\smif/cy_smif.h **** 
 268:Generated_Source\PSoC6\pdl\drivers\peripheral\smif/cy_smif.h **** /**
 269:Generated_Source\PSoC6\pdl\drivers\peripheral\smif/cy_smif.h **** * \addtogroup group_smif_macros
 270:Generated_Source\PSoC6\pdl\drivers\peripheral\smif/cy_smif.h **** * \{
 271:Generated_Source\PSoC6\pdl\drivers\peripheral\smif/cy_smif.h **** */
 272:Generated_Source\PSoC6\pdl\drivers\peripheral\smif/cy_smif.h **** 
 273:Generated_Source\PSoC6\pdl\drivers\peripheral\smif/cy_smif.h **** /** The driver major version */
 274:Generated_Source\PSoC6\pdl\drivers\peripheral\smif/cy_smif.h **** #define CY_SMIF_DRV_VERSION_MAJOR       1
 275:Generated_Source\PSoC6\pdl\drivers\peripheral\smif/cy_smif.h **** 
 276:Generated_Source\PSoC6\pdl\drivers\peripheral\smif/cy_smif.h **** /** The driver minor version */
 277:Generated_Source\PSoC6\pdl\drivers\peripheral\smif/cy_smif.h **** #define CY_SMIF_DRV_VERSION_MINOR       10
 278:Generated_Source\PSoC6\pdl\drivers\peripheral\smif/cy_smif.h **** 
 279:Generated_Source\PSoC6\pdl\drivers\peripheral\smif/cy_smif.h **** /** One microsecond timeout for Cy_SMIF_TimeoutRun() */
 280:Generated_Source\PSoC6\pdl\drivers\peripheral\smif/cy_smif.h **** #define CY_SMIF_WAIT_1_UNIT        (1U)
 281:Generated_Source\PSoC6\pdl\drivers\peripheral\smif/cy_smif.h **** 
 282:Generated_Source\PSoC6\pdl\drivers\peripheral\smif/cy_smif.h **** /** The SMIF driver ID, reported as part of an unsuccessful API return status
 283:Generated_Source\PSoC6\pdl\drivers\peripheral\smif/cy_smif.h ****  * \ref cy_en_smif_status_t */
 284:Generated_Source\PSoC6\pdl\drivers\peripheral\smif/cy_smif.h **** #define CY_SMIF_ID CY_PDL_DRV_ID(0x2CU)
 285:Generated_Source\PSoC6\pdl\drivers\peripheral\smif/cy_smif.h **** 
 286:Generated_Source\PSoC6\pdl\drivers\peripheral\smif/cy_smif.h **** 
 287:Generated_Source\PSoC6\pdl\drivers\peripheral\smif/cy_smif.h **** /**
 288:Generated_Source\PSoC6\pdl\drivers\peripheral\smif/cy_smif.h **** * \addtogroup group_smif_macros_isr
 289:Generated_Source\PSoC6\pdl\drivers\peripheral\smif/cy_smif.h **** * \{
 290:Generated_Source\PSoC6\pdl\drivers\peripheral\smif/cy_smif.h **** */
 291:Generated_Source\PSoC6\pdl\drivers\peripheral\smif/cy_smif.h **** 
 292:Generated_Source\PSoC6\pdl\drivers\peripheral\smif/cy_smif.h **** /** Enable XIP_ALIGNMENT_ERROR interrupt see TRM for details */
 293:Generated_Source\PSoC6\pdl\drivers\peripheral\smif/cy_smif.h **** #define CY_SMIF_ALIGNMENT_ERROR                 (SMIF_INTR_XIP_ALIGNMENT_ERROR_Msk)
 294:Generated_Source\PSoC6\pdl\drivers\peripheral\smif/cy_smif.h **** /** Enable RX_DATA_FIFO_UNDERFLOW interrupt see TRM for details */
 295:Generated_Source\PSoC6\pdl\drivers\peripheral\smif/cy_smif.h **** #define CY_SMIF_RX_DATA_FIFO_UNDERFLOW          (SMIF_INTR_RX_DATA_FIFO_UNDERFLOW_Msk)
 296:Generated_Source\PSoC6\pdl\drivers\peripheral\smif/cy_smif.h **** /** Enable TX_DATA_FIFO_OVERFLOW interrupt see TRM for details */
 297:Generated_Source\PSoC6\pdl\drivers\peripheral\smif/cy_smif.h **** #define CY_SMIF_TX_DATA_FIFO_OVERFLOW           (SMIF_INTR_TX_DATA_FIFO_OVERFLOW_Msk)
 298:Generated_Source\PSoC6\pdl\drivers\peripheral\smif/cy_smif.h **** /** Enable TX_CMD_FIFO_OVERFLOW interrupt see TRM for details */
 299:Generated_Source\PSoC6\pdl\drivers\peripheral\smif/cy_smif.h **** #define CY_SMIF_TX_COMMAND_FIFO_OVERFLOW         (SMIF_INTR_TX_CMD_FIFO_OVERFLOW_Msk)
 300:Generated_Source\PSoC6\pdl\drivers\peripheral\smif/cy_smif.h **** /** Enable TR_TX_REQ interrupt see TRM for details */
 301:Generated_Source\PSoC6\pdl\drivers\peripheral\smif/cy_smif.h **** #define CY_SMIF_TX_DATA_FIFO_LEVEL_TRIGGER      (SMIF_INTR_TR_TX_REQ_Msk)
 302:Generated_Source\PSoC6\pdl\drivers\peripheral\smif/cy_smif.h **** /** Enable TR_RX_REQ interrupt see TRM for details */
 303:Generated_Source\PSoC6\pdl\drivers\peripheral\smif/cy_smif.h **** #define CY_SMIF_RX_DATA_FIFO_LEVEL_TRIGGER      (SMIF_INTR_TR_RX_REQ_Msk)
 304:Generated_Source\PSoC6\pdl\drivers\peripheral\smif/cy_smif.h **** 
 305:Generated_Source\PSoC6\pdl\drivers\peripheral\smif/cy_smif.h **** /** \} group_smif_macros_isr */
 306:Generated_Source\PSoC6\pdl\drivers\peripheral\smif/cy_smif.h **** 
 307:Generated_Source\PSoC6\pdl\drivers\peripheral\smif/cy_smif.h **** /** \cond INTERNAL */
 308:Generated_Source\PSoC6\pdl\drivers\peripheral\smif/cy_smif.h **** 
 309:Generated_Source\PSoC6\pdl\drivers\peripheral\smif/cy_smif.h **** #define CY_SMIF_CMD_FIFO_TX_MODE           (0UL)
 310:Generated_Source\PSoC6\pdl\drivers\peripheral\smif/cy_smif.h **** #define CY_SMIF_CMD_FIFO_TX_COUNT_MODE     (1UL)
 311:Generated_Source\PSoC6\pdl\drivers\peripheral\smif/cy_smif.h **** #define CY_SMIF_CMD_FIFO_RX_COUNT_MODE     (2UL)
 312:Generated_Source\PSoC6\pdl\drivers\peripheral\smif/cy_smif.h **** #define CY_SMIF_CMD_FIFO_DUMMY_COUNT_MODE  (3UL)
 313:Generated_Source\PSoC6\pdl\drivers\peripheral\smif/cy_smif.h **** 
 314:Generated_Source\PSoC6\pdl\drivers\peripheral\smif/cy_smif.h **** #define CY_SMIF_TX_CMD_FIFO_STATUS_RANGE   (4U)
 315:Generated_Source\PSoC6\pdl\drivers\peripheral\smif/cy_smif.h **** #define CY_SMIF_TX_DATA_FIFO_STATUS_RANGE  (8U)
ARM GAS  C:\Users\ikomb\AppData\Local\Temp\ccEKz2Td.s 			page 7


 316:Generated_Source\PSoC6\pdl\drivers\peripheral\smif/cy_smif.h **** #define CY_SMIF_RX_DATA_FIFO_STATUS_RANGE  (8U)
 317:Generated_Source\PSoC6\pdl\drivers\peripheral\smif/cy_smif.h **** 
 318:Generated_Source\PSoC6\pdl\drivers\peripheral\smif/cy_smif.h **** #define CY_SMIF_ONE_BYTE                   (1U)
 319:Generated_Source\PSoC6\pdl\drivers\peripheral\smif/cy_smif.h **** #define CY_SMIF_TWO_BYTES                  (2U)
 320:Generated_Source\PSoC6\pdl\drivers\peripheral\smif/cy_smif.h **** #define CY_SMIF_THREE_BYTES                (3U)
 321:Generated_Source\PSoC6\pdl\drivers\peripheral\smif/cy_smif.h **** #define CY_SMIF_FOUR_BYTES                 (4U)
 322:Generated_Source\PSoC6\pdl\drivers\peripheral\smif/cy_smif.h **** #define CY_SMIF_FIVE_BYTES                 (5U)
 323:Generated_Source\PSoC6\pdl\drivers\peripheral\smif/cy_smif.h **** #define CY_SMIF_SIX_BYTES                  (6U)
 324:Generated_Source\PSoC6\pdl\drivers\peripheral\smif/cy_smif.h **** #define CY_SMIF_SEVEN_BYTES                (7U)
 325:Generated_Source\PSoC6\pdl\drivers\peripheral\smif/cy_smif.h **** #define CY_SMIF_EIGHT_BYTES                (8U)
 326:Generated_Source\PSoC6\pdl\drivers\peripheral\smif/cy_smif.h **** 
 327:Generated_Source\PSoC6\pdl\drivers\peripheral\smif/cy_smif.h **** #define CY_SMIF_CRYPTO_FIRST_WORD          (0U)
 328:Generated_Source\PSoC6\pdl\drivers\peripheral\smif/cy_smif.h **** #define CY_SMIF_CRYPTO_SECOND_WORD         (4U)
 329:Generated_Source\PSoC6\pdl\drivers\peripheral\smif/cy_smif.h **** #define CY_SMIF_CRYPTO_THIRD_WORD          (8U)
 330:Generated_Source\PSoC6\pdl\drivers\peripheral\smif/cy_smif.h **** #define CY_SMIF_CRYPTO_FOURTH_WORD         (12U)
 331:Generated_Source\PSoC6\pdl\drivers\peripheral\smif/cy_smif.h **** 
 332:Generated_Source\PSoC6\pdl\drivers\peripheral\smif/cy_smif.h **** #define CY_SMIF_CRYPTO_START               (1UL)
 333:Generated_Source\PSoC6\pdl\drivers\peripheral\smif/cy_smif.h **** #define CY_SMIF_CRYPTO_COMPLETED           (0UL)
 334:Generated_Source\PSoC6\pdl\drivers\peripheral\smif/cy_smif.h **** #define CY_SMIF_CRYPTO_ADDR_MASK           (0xFFFFFFF0UL)
 335:Generated_Source\PSoC6\pdl\drivers\peripheral\smif/cy_smif.h **** #define CY_SMIF_AES128_BYTES               (16U)
 336:Generated_Source\PSoC6\pdl\drivers\peripheral\smif/cy_smif.h **** 
 337:Generated_Source\PSoC6\pdl\drivers\peripheral\smif/cy_smif.h **** #define CY_SMIF_CTL_REG_DEFAULT  (0x00000300U) /* 3 - [13:12] CLOCK_IF_RX_SEL  */
 338:Generated_Source\PSoC6\pdl\drivers\peripheral\smif/cy_smif.h **** 
 339:Generated_Source\PSoC6\pdl\drivers\peripheral\smif/cy_smif.h **** #define CY_SMIF_SFDP_FAIL           (0x08U)
 340:Generated_Source\PSoC6\pdl\drivers\peripheral\smif/cy_smif.h **** #define CY_SMIF_SFDP_FAIL_SS0_POS   (0x00U)
 341:Generated_Source\PSoC6\pdl\drivers\peripheral\smif/cy_smif.h **** #define CY_SMIF_SFDP_FAIL_SS1_POS   (0x01U)
 342:Generated_Source\PSoC6\pdl\drivers\peripheral\smif/cy_smif.h **** #define CY_SMIF_SFDP_FAIL_SS2_POS   (0x02U)
 343:Generated_Source\PSoC6\pdl\drivers\peripheral\smif/cy_smif.h **** #define CY_SMIF_SFDP_FAIL_SS3_POS   (0x03U)
 344:Generated_Source\PSoC6\pdl\drivers\peripheral\smif/cy_smif.h **** 
 345:Generated_Source\PSoC6\pdl\drivers\peripheral\smif/cy_smif.h **** #define CY_SMIF_MAX_DESELECT_DELAY      (7U)
 346:Generated_Source\PSoC6\pdl\drivers\peripheral\smif/cy_smif.h **** #define CY_SMIF_MAX_TX_TR_LEVEL         (8U)
 347:Generated_Source\PSoC6\pdl\drivers\peripheral\smif/cy_smif.h **** #define CY_SMIF_MAX_RX_TR_LEVEL         (8U)
 348:Generated_Source\PSoC6\pdl\drivers\peripheral\smif/cy_smif.h **** 
 349:Generated_Source\PSoC6\pdl\drivers\peripheral\smif/cy_smif.h **** #define CY_SMIF_MODE_VALID(mode)    ((CY_SMIF_NORMAL == (cy_en_smif_mode_t)(mode)) || \
 350:Generated_Source\PSoC6\pdl\drivers\peripheral\smif/cy_smif.h ****                                      (CY_SMIF_MEMORY == (cy_en_smif_mode_t)(mode)))
 351:Generated_Source\PSoC6\pdl\drivers\peripheral\smif/cy_smif.h **** #define CY_SMIF_BLOCK_EVENT_VALID(event)    ((CY_SMIF_BUS_ERROR == (cy_en_smif_error_event_t)(event
 352:Generated_Source\PSoC6\pdl\drivers\peripheral\smif/cy_smif.h ****                                              (CY_SMIF_WAIT_STATES == (cy_en_smif_error_event_t)(eve
 353:Generated_Source\PSoC6\pdl\drivers\peripheral\smif/cy_smif.h **** #define CY_SMIF_CLOCK_SEL_VALID(clkSel)     ((CY_SMIF_SEL_INTERNAL_CLK == (cy_en_smif_clk_select_t)
 354:Generated_Source\PSoC6\pdl\drivers\peripheral\smif/cy_smif.h ****                                              (CY_SMIF_SEL_INV_INTERNAL_CLK == (cy_en_smif_clk_selec
 355:Generated_Source\PSoC6\pdl\drivers\peripheral\smif/cy_smif.h ****                                              (CY_SMIF_SEL_FEEDBACK_CLK == (cy_en_smif_clk_select_t)
 356:Generated_Source\PSoC6\pdl\drivers\peripheral\smif/cy_smif.h ****                                              (CY_SMIF_SEL_INV_FEEDBACK_CLK == (cy_en_smif_clk_selec
 357:Generated_Source\PSoC6\pdl\drivers\peripheral\smif/cy_smif.h ****                                              
 358:Generated_Source\PSoC6\pdl\drivers\peripheral\smif/cy_smif.h **** #define CY_SMIF_DESELECT_DELAY_VALID(delay)     ((delay) <= CY_SMIF_MAX_DESELECT_DELAY)
 359:Generated_Source\PSoC6\pdl\drivers\peripheral\smif/cy_smif.h **** #define CY_SMIF_SLAVE_SEL_VALID(ss)     ((CY_SMIF_SLAVE_SELECT_0 == (ss)) || \
 360:Generated_Source\PSoC6\pdl\drivers\peripheral\smif/cy_smif.h ****                                          (CY_SMIF_SLAVE_SELECT_1 == (ss)) || \
 361:Generated_Source\PSoC6\pdl\drivers\peripheral\smif/cy_smif.h ****                                          (CY_SMIF_SLAVE_SELECT_2 == (ss)) || \
 362:Generated_Source\PSoC6\pdl\drivers\peripheral\smif/cy_smif.h ****                                          (CY_SMIF_SLAVE_SELECT_3 == (ss)))
 363:Generated_Source\PSoC6\pdl\drivers\peripheral\smif/cy_smif.h **** #define CY_SMIF_DATA_SEL_VALID(ss)     ((CY_SMIF_DATA_SEL0 == (ss)) || \
 364:Generated_Source\PSoC6\pdl\drivers\peripheral\smif/cy_smif.h ****                                          (CY_SMIF_DATA_SEL1 == (ss)) || \
 365:Generated_Source\PSoC6\pdl\drivers\peripheral\smif/cy_smif.h ****                                          (CY_SMIF_DATA_SEL2 == (ss)) || \
 366:Generated_Source\PSoC6\pdl\drivers\peripheral\smif/cy_smif.h ****                                          (CY_SMIF_DATA_SEL3 == (ss)))
 367:Generated_Source\PSoC6\pdl\drivers\peripheral\smif/cy_smif.h **** #define CY_SMIF_TXFR_WIDTH_VALID(width)     ((CY_SMIF_WIDTH_SINGLE == (width)) || \
 368:Generated_Source\PSoC6\pdl\drivers\peripheral\smif/cy_smif.h ****                                             (CY_SMIF_WIDTH_DUAL == (width)) || \
 369:Generated_Source\PSoC6\pdl\drivers\peripheral\smif/cy_smif.h ****                                             (CY_SMIF_WIDTH_QUAD == (width)) || \
 370:Generated_Source\PSoC6\pdl\drivers\peripheral\smif/cy_smif.h ****                                             (CY_SMIF_WIDTH_OCTAL == (width)))
 371:Generated_Source\PSoC6\pdl\drivers\peripheral\smif/cy_smif.h **** #define CY_SMIF_CMD_PARAM_VALID(param, paramSize)     (((paramSize) > 0U)? (NULL != (param)) : (tru
 372:Generated_Source\PSoC6\pdl\drivers\peripheral\smif/cy_smif.h **** 
ARM GAS  C:\Users\ikomb\AppData\Local\Temp\ccEKz2Td.s 			page 8


 373:Generated_Source\PSoC6\pdl\drivers\peripheral\smif/cy_smif.h **** /***************************************
 374:Generated_Source\PSoC6\pdl\drivers\peripheral\smif/cy_smif.h **** *        Command FIFO Register
 375:Generated_Source\PSoC6\pdl\drivers\peripheral\smif/cy_smif.h **** ***************************************/
 376:Generated_Source\PSoC6\pdl\drivers\peripheral\smif/cy_smif.h **** 
 377:Generated_Source\PSoC6\pdl\drivers\peripheral\smif/cy_smif.h **** /* SMIF->TX_CMD_FIFO_WR  */
 378:Generated_Source\PSoC6\pdl\drivers\peripheral\smif/cy_smif.h **** #define CY_SMIF_TX_CMD_FIFO_WR_MODE_POS         (18U)   /* [19:18]  Command data mode */
 379:Generated_Source\PSoC6\pdl\drivers\peripheral\smif/cy_smif.h **** #define CY_SMIF_TX_CMD_FIFO_WR_WIDTH_POS        (16U)   /* [17:16]  Transfer width    */
 380:Generated_Source\PSoC6\pdl\drivers\peripheral\smif/cy_smif.h **** #define CY_SMIF_TX_CMD_FIFO_WR_LAST_BYTE_POS    (15U)   /* [15]     Last byte      */
 381:Generated_Source\PSoC6\pdl\drivers\peripheral\smif/cy_smif.h **** #define CY_SMIF_TX_CMD_FIFO_WR_SS_POS           (8U)    /* [11:8]   Slave select      */
 382:Generated_Source\PSoC6\pdl\drivers\peripheral\smif/cy_smif.h **** #define CY_SMIF_TX_CMD_FIFO_WR_TXDATA_POS       (0U)    /* [0]      Transmitted byte  */
 383:Generated_Source\PSoC6\pdl\drivers\peripheral\smif/cy_smif.h **** #define CY_SMIF_TX_CMD_FIFO_WR_DUMMY_POS        (0U)    /* [0]      Dummy count       */
 384:Generated_Source\PSoC6\pdl\drivers\peripheral\smif/cy_smif.h **** #define CY_SMIF_TX_CMD_FIFO_WR_TX_COUNT_POS     (0U)    /* [0]      TX count          */
 385:Generated_Source\PSoC6\pdl\drivers\peripheral\smif/cy_smif.h **** #define CY_SMIF_TX_CMD_FIFO_WR_RX_COUNT_POS     (0U)    /* [0]      RX count          */
 386:Generated_Source\PSoC6\pdl\drivers\peripheral\smif/cy_smif.h **** 
 387:Generated_Source\PSoC6\pdl\drivers\peripheral\smif/cy_smif.h **** /* SMIF->TX_CMD_FIFO_WR Commands Fields */
 388:Generated_Source\PSoC6\pdl\drivers\peripheral\smif/cy_smif.h **** #define CY_SMIF_CMD_FIFO_WR_MODE_Pos            (18UL)           /* [19:18]         Command data mo
 389:Generated_Source\PSoC6\pdl\drivers\peripheral\smif/cy_smif.h **** #define CY_SMIF_CMD_FIFO_WR_MODE_Msk            (0x000C0000UL)   /* DATA[19:18]       Command data 
 390:Generated_Source\PSoC6\pdl\drivers\peripheral\smif/cy_smif.h **** 
 391:Generated_Source\PSoC6\pdl\drivers\peripheral\smif/cy_smif.h **** #define CY_SMIF_CMD_FIFO_WR_WIDTH_Pos           (16UL)           /* [17:16]         Transfer width 
 392:Generated_Source\PSoC6\pdl\drivers\peripheral\smif/cy_smif.h **** #define CY_SMIF_CMD_FIFO_WR_WIDTH_Msk           (0x00030000UL)   /* DATA[17:16]     Transfer width 
 393:Generated_Source\PSoC6\pdl\drivers\peripheral\smif/cy_smif.h **** 
 394:Generated_Source\PSoC6\pdl\drivers\peripheral\smif/cy_smif.h **** #define CY_SMIF_CMD_FIFO_WR_LAST_BYTE_Pos       (15UL)           /* [15]            Last byte      
 395:Generated_Source\PSoC6\pdl\drivers\peripheral\smif/cy_smif.h **** #define CY_SMIF_CMD_FIFO_WR_LAST_BYTE_Msk       (0x00008000UL)   /* DATA[15]        Last byte      
 396:Generated_Source\PSoC6\pdl\drivers\peripheral\smif/cy_smif.h **** 
 397:Generated_Source\PSoC6\pdl\drivers\peripheral\smif/cy_smif.h **** #define CY_SMIF_CMD_FIFO_WR_SS_Pos              (8UL)            /* [11:8]          Slave select   
 398:Generated_Source\PSoC6\pdl\drivers\peripheral\smif/cy_smif.h **** #define CY_SMIF_CMD_FIFO_WR_SS_Msk              (0x00000F00UL)   /* DATA[11:8]      Slave select   
 399:Generated_Source\PSoC6\pdl\drivers\peripheral\smif/cy_smif.h ****    
 400:Generated_Source\PSoC6\pdl\drivers\peripheral\smif/cy_smif.h **** #define CY_SMIF_CMD_FIFO_WR_TXDATA_Pos          (0UL)            /* [0]             Transmitted byt
 401:Generated_Source\PSoC6\pdl\drivers\peripheral\smif/cy_smif.h **** #define CY_SMIF_CMD_FIFO_WR_TXDATA_Msk          (0x000000FFUL)   /* DATA[7:0]         Transmitted b
 402:Generated_Source\PSoC6\pdl\drivers\peripheral\smif/cy_smif.h **** #define CY_SMIF_CMD_FIFO_WR_DUMMY_Pos           (0UL)            /* [0]             Dummy count    
 403:Generated_Source\PSoC6\pdl\drivers\peripheral\smif/cy_smif.h **** #define CY_SMIF_CMD_FIFO_WR_DUMMY_Msk           (0x0000FFFFUL)   /* DATA[15:0]      Dummy count    
 404:Generated_Source\PSoC6\pdl\drivers\peripheral\smif/cy_smif.h **** #define CY_SMIF_CMD_FIFO_WR_TX_COUNT_Msk        (0x0000FFFFUL)   /* DATA[15:0]      TX count       
 405:Generated_Source\PSoC6\pdl\drivers\peripheral\smif/cy_smif.h **** #define CY_SMIF_CMD_FIFO_WR_TX_COUNT_Pos        (0UL)            /* [0]             TX count       
 406:Generated_Source\PSoC6\pdl\drivers\peripheral\smif/cy_smif.h **** #define CY_SMIF_CMD_FIFO_WR_RX_COUNT_Msk        (0x0003FFFFUL)   /* DATA[17:0]      RX count       
 407:Generated_Source\PSoC6\pdl\drivers\peripheral\smif/cy_smif.h **** #define CY_SMIF_CMD_FIFO_WR_RX_COUNT_Pos        (0UL)            /* [0]             RX count       
 408:Generated_Source\PSoC6\pdl\drivers\peripheral\smif/cy_smif.h **** 
 409:Generated_Source\PSoC6\pdl\drivers\peripheral\smif/cy_smif.h **** /** \endcond*/
 410:Generated_Source\PSoC6\pdl\drivers\peripheral\smif/cy_smif.h **** /** \} group_smif_macros */
 411:Generated_Source\PSoC6\pdl\drivers\peripheral\smif/cy_smif.h **** 
 412:Generated_Source\PSoC6\pdl\drivers\peripheral\smif/cy_smif.h **** 
 413:Generated_Source\PSoC6\pdl\drivers\peripheral\smif/cy_smif.h **** /**
 414:Generated_Source\PSoC6\pdl\drivers\peripheral\smif/cy_smif.h **** * \addtogroup group_smif_enums
 415:Generated_Source\PSoC6\pdl\drivers\peripheral\smif/cy_smif.h **** * \{
 416:Generated_Source\PSoC6\pdl\drivers\peripheral\smif/cy_smif.h **** */
 417:Generated_Source\PSoC6\pdl\drivers\peripheral\smif/cy_smif.h **** 
 418:Generated_Source\PSoC6\pdl\drivers\peripheral\smif/cy_smif.h **** /** The Transfer width options for the command, data, the address and the mode. */
 419:Generated_Source\PSoC6\pdl\drivers\peripheral\smif/cy_smif.h **** typedef enum
 420:Generated_Source\PSoC6\pdl\drivers\peripheral\smif/cy_smif.h **** {
 421:Generated_Source\PSoC6\pdl\drivers\peripheral\smif/cy_smif.h ****     CY_SMIF_WIDTH_SINGLE   = 0U,    /**< Normal SPI mode. */
 422:Generated_Source\PSoC6\pdl\drivers\peripheral\smif/cy_smif.h ****     CY_SMIF_WIDTH_DUAL     = 1U,    /**< Dual SPI mode. */
 423:Generated_Source\PSoC6\pdl\drivers\peripheral\smif/cy_smif.h ****     CY_SMIF_WIDTH_QUAD     = 2U,    /**< Quad SPI mode. */
 424:Generated_Source\PSoC6\pdl\drivers\peripheral\smif/cy_smif.h ****     CY_SMIF_WIDTH_OCTAL    = 3U     /**< Octal SPI mode. */
 425:Generated_Source\PSoC6\pdl\drivers\peripheral\smif/cy_smif.h **** } cy_en_smif_txfr_width_t;
 426:Generated_Source\PSoC6\pdl\drivers\peripheral\smif/cy_smif.h **** 
 427:Generated_Source\PSoC6\pdl\drivers\peripheral\smif/cy_smif.h **** /** The SMIF error-event selection. */
 428:Generated_Source\PSoC6\pdl\drivers\peripheral\smif/cy_smif.h **** typedef enum
 429:Generated_Source\PSoC6\pdl\drivers\peripheral\smif/cy_smif.h **** {
ARM GAS  C:\Users\ikomb\AppData\Local\Temp\ccEKz2Td.s 			page 9


 430:Generated_Source\PSoC6\pdl\drivers\peripheral\smif/cy_smif.h ****     /**< Generates a bus error. */
 431:Generated_Source\PSoC6\pdl\drivers\peripheral\smif/cy_smif.h ****     CY_SMIF_BUS_ERROR           = 0UL,
 432:Generated_Source\PSoC6\pdl\drivers\peripheral\smif/cy_smif.h ****     /** Stalls the bus with the wait states. This option will increase the 
 433:Generated_Source\PSoC6\pdl\drivers\peripheral\smif/cy_smif.h ****      * interrupt latency. 
 434:Generated_Source\PSoC6\pdl\drivers\peripheral\smif/cy_smif.h ****      */
 435:Generated_Source\PSoC6\pdl\drivers\peripheral\smif/cy_smif.h ****     CY_SMIF_WAIT_STATES         = 1UL
 436:Generated_Source\PSoC6\pdl\drivers\peripheral\smif/cy_smif.h **** } cy_en_smif_error_event_t;
 437:Generated_Source\PSoC6\pdl\drivers\peripheral\smif/cy_smif.h **** 
 438:Generated_Source\PSoC6\pdl\drivers\peripheral\smif/cy_smif.h **** /** The data line-selection options for a slave device. */
 439:Generated_Source\PSoC6\pdl\drivers\peripheral\smif/cy_smif.h **** typedef enum
 440:Generated_Source\PSoC6\pdl\drivers\peripheral\smif/cy_smif.h **** {
 441:Generated_Source\PSoC6\pdl\drivers\peripheral\smif/cy_smif.h ****     /**
 442:Generated_Source\PSoC6\pdl\drivers\peripheral\smif/cy_smif.h ****     * smif.spi_data[0] = DATA0, smif.spi_data[1] = DATA1, ..., smif.spi_data[7] = DATA7.
 443:Generated_Source\PSoC6\pdl\drivers\peripheral\smif/cy_smif.h ****     * This value is allowed for the SPI, DSPI, quad-SPI, dual quad-SPI, and octal-SPI modes.
 444:Generated_Source\PSoC6\pdl\drivers\peripheral\smif/cy_smif.h ****     */
 445:Generated_Source\PSoC6\pdl\drivers\peripheral\smif/cy_smif.h ****     CY_SMIF_DATA_SEL0      = 0,
 446:Generated_Source\PSoC6\pdl\drivers\peripheral\smif/cy_smif.h ****     /**
 447:Generated_Source\PSoC6\pdl\drivers\peripheral\smif/cy_smif.h ****     * smif.spi_data[2] = DATA0, smif.spi_data[3] = DATA1.
 448:Generated_Source\PSoC6\pdl\drivers\peripheral\smif/cy_smif.h ****     * This value is only allowed for the SPI and DSPI modes.
 449:Generated_Source\PSoC6\pdl\drivers\peripheral\smif/cy_smif.h ****     */
 450:Generated_Source\PSoC6\pdl\drivers\peripheral\smif/cy_smif.h ****     CY_SMIF_DATA_SEL1      = 1,
 451:Generated_Source\PSoC6\pdl\drivers\peripheral\smif/cy_smif.h ****     /**
 452:Generated_Source\PSoC6\pdl\drivers\peripheral\smif/cy_smif.h ****     * smif.spi_data[4] = DATA0, smif.spi_data[5] = DATA1, ..., smif.spi_data[7] = DATA3.
 453:Generated_Source\PSoC6\pdl\drivers\peripheral\smif/cy_smif.h ****     * This value is only allowed for the SPI, DSPI, quad-SPI and dual quad-SPI modes.
 454:Generated_Source\PSoC6\pdl\drivers\peripheral\smif/cy_smif.h ****     */
 455:Generated_Source\PSoC6\pdl\drivers\peripheral\smif/cy_smif.h ****     CY_SMIF_DATA_SEL2      = 2,
 456:Generated_Source\PSoC6\pdl\drivers\peripheral\smif/cy_smif.h ****     /**
 457:Generated_Source\PSoC6\pdl\drivers\peripheral\smif/cy_smif.h ****     * smif.spi_data[6] = DATA0, smif.spi_data[7] = DATA1.
 458:Generated_Source\PSoC6\pdl\drivers\peripheral\smif/cy_smif.h ****     * This value is only allowed for the SPI and DSPI modes.
 459:Generated_Source\PSoC6\pdl\drivers\peripheral\smif/cy_smif.h ****     */
 460:Generated_Source\PSoC6\pdl\drivers\peripheral\smif/cy_smif.h ****     CY_SMIF_DATA_SEL3      = 3
 461:Generated_Source\PSoC6\pdl\drivers\peripheral\smif/cy_smif.h **** } cy_en_smif_data_select_t;
 462:Generated_Source\PSoC6\pdl\drivers\peripheral\smif/cy_smif.h **** 
 463:Generated_Source\PSoC6\pdl\drivers\peripheral\smif/cy_smif.h **** /** The SMIF modes to work with an external memory. */
 464:Generated_Source\PSoC6\pdl\drivers\peripheral\smif/cy_smif.h **** typedef enum
 465:Generated_Source\PSoC6\pdl\drivers\peripheral\smif/cy_smif.h **** {
 466:Generated_Source\PSoC6\pdl\drivers\peripheral\smif/cy_smif.h ****     CY_SMIF_NORMAL,         /**< Command mode (MMIO mode). */
 467:Generated_Source\PSoC6\pdl\drivers\peripheral\smif/cy_smif.h ****     CY_SMIF_MEMORY          /**< XIP (eXecute In Place) mode. */
 468:Generated_Source\PSoC6\pdl\drivers\peripheral\smif/cy_smif.h **** } cy_en_smif_mode_t;
 469:Generated_Source\PSoC6\pdl\drivers\peripheral\smif/cy_smif.h **** 
 470:Generated_Source\PSoC6\pdl\drivers\peripheral\smif/cy_smif.h **** /** The SMIF transfer status return values. */
 471:Generated_Source\PSoC6\pdl\drivers\peripheral\smif/cy_smif.h **** typedef enum
 472:Generated_Source\PSoC6\pdl\drivers\peripheral\smif/cy_smif.h **** {
 473:Generated_Source\PSoC6\pdl\drivers\peripheral\smif/cy_smif.h ****     CY_SMIF_STARTED,       /**< The SMIF started. */
 474:Generated_Source\PSoC6\pdl\drivers\peripheral\smif/cy_smif.h ****     CY_SMIF_SEND_CMPLT,    /**< The data transmission is complete. */
 475:Generated_Source\PSoC6\pdl\drivers\peripheral\smif/cy_smif.h ****     CY_SMIF_SEND_BUSY,     /**< The data transmission is in progress. */
 476:Generated_Source\PSoC6\pdl\drivers\peripheral\smif/cy_smif.h ****     CY_SMIF_REC_CMPLT,     /**< The data reception is completed. */
 477:Generated_Source\PSoC6\pdl\drivers\peripheral\smif/cy_smif.h ****     CY_SMIF_REC_BUSY,      /**< The data reception is in progress. */
 478:Generated_Source\PSoC6\pdl\drivers\peripheral\smif/cy_smif.h ****     CY_SMIF_XIP_ERROR,     /**< An XIP alignment error. */
 479:Generated_Source\PSoC6\pdl\drivers\peripheral\smif/cy_smif.h ****     CY_SMIF_CMD_ERROR,     /**< A TX CMD FIFO overflow. */
 480:Generated_Source\PSoC6\pdl\drivers\peripheral\smif/cy_smif.h ****     CY_SMIF_TX_ERROR,      /**< A TX DATA FIFO overflow. */
 481:Generated_Source\PSoC6\pdl\drivers\peripheral\smif/cy_smif.h ****     CY_SMIF_RX_ERROR       /**< An RX DATA FIFO underflow. */
 482:Generated_Source\PSoC6\pdl\drivers\peripheral\smif/cy_smif.h **** 
 483:Generated_Source\PSoC6\pdl\drivers\peripheral\smif/cy_smif.h **** } cy_en_smif_txfr_status_t;
 484:Generated_Source\PSoC6\pdl\drivers\peripheral\smif/cy_smif.h **** 
 485:Generated_Source\PSoC6\pdl\drivers\peripheral\smif/cy_smif.h **** /** The SMIF API return values. */
 486:Generated_Source\PSoC6\pdl\drivers\peripheral\smif/cy_smif.h **** typedef enum
ARM GAS  C:\Users\ikomb\AppData\Local\Temp\ccEKz2Td.s 			page 10


 487:Generated_Source\PSoC6\pdl\drivers\peripheral\smif/cy_smif.h **** {
 488:Generated_Source\PSoC6\pdl\drivers\peripheral\smif/cy_smif.h ****     CY_SMIF_SUCCESS = 0x00U,           /**< Successful SMIF operation. */
 489:Generated_Source\PSoC6\pdl\drivers\peripheral\smif/cy_smif.h ****     CY_SMIF_CMD_FIFO_FULL   = CY_SMIF_ID |CY_PDL_STATUS_ERROR | 0x01U,     /**< The command is canc
 490:Generated_Source\PSoC6\pdl\drivers\peripheral\smif/cy_smif.h ****     CY_SMIF_EXCEED_TIMEOUT  = CY_SMIF_ID |CY_PDL_STATUS_ERROR | 0x02U,    /**< The SMIF operation t
 491:Generated_Source\PSoC6\pdl\drivers\peripheral\smif/cy_smif.h ****     /**
 492:Generated_Source\PSoC6\pdl\drivers\peripheral\smif/cy_smif.h ****     * The device does not have a QE bit. The device detects
 493:Generated_Source\PSoC6\pdl\drivers\peripheral\smif/cy_smif.h ****     * 1-1-4 and 1-4-4 Reads based on the instruction.
 494:Generated_Source\PSoC6\pdl\drivers\peripheral\smif/cy_smif.h ****     */
 495:Generated_Source\PSoC6\pdl\drivers\peripheral\smif/cy_smif.h ****     CY_SMIF_NO_QE_BIT       = CY_SMIF_ID |CY_PDL_STATUS_ERROR | 0x03U,
 496:Generated_Source\PSoC6\pdl\drivers\peripheral\smif/cy_smif.h ****     CY_SMIF_BAD_PARAM       = CY_SMIF_ID |CY_PDL_STATUS_ERROR | 0x04U,   /**< The SMIF API received
 497:Generated_Source\PSoC6\pdl\drivers\peripheral\smif/cy_smif.h ****     CY_SMIF_NO_SFDP_SUPPORT = CY_SMIF_ID |CY_PDL_STATUS_ERROR | 0x05U,   /**< The external memory d
 498:Generated_Source\PSoC6\pdl\drivers\peripheral\smif/cy_smif.h ****     /** Failed to initialize the slave select 0 external memory by auto detection (SFDP). */
 499:Generated_Source\PSoC6\pdl\drivers\peripheral\smif/cy_smif.h ****     CY_SMIF_SFDP_SS0_FAILED = CY_SMIF_ID |CY_PDL_STATUS_ERROR |
 500:Generated_Source\PSoC6\pdl\drivers\peripheral\smif/cy_smif.h ****                             ((uint32_t)CY_SMIF_SFDP_FAIL << CY_SMIF_SFDP_FAIL_SS0_POS),
 501:Generated_Source\PSoC6\pdl\drivers\peripheral\smif/cy_smif.h ****     /** Failed to initialize the slave select 1 external memory by auto detection (SFDP). */
 502:Generated_Source\PSoC6\pdl\drivers\peripheral\smif/cy_smif.h ****     CY_SMIF_SFDP_SS1_FAILED = CY_SMIF_ID | CY_PDL_STATUS_ERROR |
 503:Generated_Source\PSoC6\pdl\drivers\peripheral\smif/cy_smif.h ****                             ((uint32_t)CY_SMIF_SFDP_FAIL << CY_SMIF_SFDP_FAIL_SS1_POS),
 504:Generated_Source\PSoC6\pdl\drivers\peripheral\smif/cy_smif.h ****     /** Failed to initialize the slave select 2 external memory by auto detection (SFDP). */
 505:Generated_Source\PSoC6\pdl\drivers\peripheral\smif/cy_smif.h ****     CY_SMIF_SFDP_SS2_FAILED = CY_SMIF_ID |CY_PDL_STATUS_ERROR |
 506:Generated_Source\PSoC6\pdl\drivers\peripheral\smif/cy_smif.h ****                             ((uint32_t)CY_SMIF_SFDP_FAIL << CY_SMIF_SFDP_FAIL_SS2_POS),
 507:Generated_Source\PSoC6\pdl\drivers\peripheral\smif/cy_smif.h ****     /** Failed to initialize the slave select 3 external memory by auto detection (SFDP). */
 508:Generated_Source\PSoC6\pdl\drivers\peripheral\smif/cy_smif.h ****     CY_SMIF_SFDP_SS3_FAILED = CY_SMIF_ID |CY_PDL_STATUS_ERROR |
 509:Generated_Source\PSoC6\pdl\drivers\peripheral\smif/cy_smif.h ****                             ((uint32_t)CY_SMIF_SFDP_FAIL << CY_SMIF_SFDP_FAIL_SS3_POS)
 510:Generated_Source\PSoC6\pdl\drivers\peripheral\smif/cy_smif.h **** 
 511:Generated_Source\PSoC6\pdl\drivers\peripheral\smif/cy_smif.h **** } cy_en_smif_status_t;
 512:Generated_Source\PSoC6\pdl\drivers\peripheral\smif/cy_smif.h **** 
 513:Generated_Source\PSoC6\pdl\drivers\peripheral\smif/cy_smif.h **** /** The SMIF slave select definitions for the driver API. Each slave select is
 514:Generated_Source\PSoC6\pdl\drivers\peripheral\smif/cy_smif.h ****  * represented by an enumeration that has the bit corresponding to the slave 
 515:Generated_Source\PSoC6\pdl\drivers\peripheral\smif/cy_smif.h ****  * select number set. */
 516:Generated_Source\PSoC6\pdl\drivers\peripheral\smif/cy_smif.h **** typedef enum
 517:Generated_Source\PSoC6\pdl\drivers\peripheral\smif/cy_smif.h **** {
 518:Generated_Source\PSoC6\pdl\drivers\peripheral\smif/cy_smif.h ****    CY_SMIF_SLAVE_SELECT_0 = 1U,  /**< The SMIF slave select 0  */
 519:Generated_Source\PSoC6\pdl\drivers\peripheral\smif/cy_smif.h ****    CY_SMIF_SLAVE_SELECT_1 = 2U,  /**< The SMIF slave select 1  */
 520:Generated_Source\PSoC6\pdl\drivers\peripheral\smif/cy_smif.h ****    CY_SMIF_SLAVE_SELECT_2 = 4U,  /**< The SMIF slave select 2  */
 521:Generated_Source\PSoC6\pdl\drivers\peripheral\smif/cy_smif.h ****    CY_SMIF_SLAVE_SELECT_3 = 8U   /**< The SMIF slave select 3  */
 522:Generated_Source\PSoC6\pdl\drivers\peripheral\smif/cy_smif.h **** } cy_en_smif_slave_select_t;
 523:Generated_Source\PSoC6\pdl\drivers\peripheral\smif/cy_smif.h **** 
 524:Generated_Source\PSoC6\pdl\drivers\peripheral\smif/cy_smif.h **** /** Specifies the clock source for the receiver clock. */
 525:Generated_Source\PSoC6\pdl\drivers\peripheral\smif/cy_smif.h **** typedef enum
 526:Generated_Source\PSoC6\pdl\drivers\peripheral\smif/cy_smif.h **** {
 527:Generated_Source\PSoC6\pdl\drivers\peripheral\smif/cy_smif.h ****    CY_SMIF_SEL_INTERNAL_CLK     = 0U,  /**< The SMIF internal clock */
 528:Generated_Source\PSoC6\pdl\drivers\peripheral\smif/cy_smif.h ****    CY_SMIF_SEL_INV_INTERNAL_CLK = 1U,  /**< The SMIF internal inverted clock */
 529:Generated_Source\PSoC6\pdl\drivers\peripheral\smif/cy_smif.h ****    CY_SMIF_SEL_FEEDBACK_CLK     = 2U,  /**< The SMIF feedback clock */
 530:Generated_Source\PSoC6\pdl\drivers\peripheral\smif/cy_smif.h ****    CY_SMIF_SEL_INV_FEEDBACK_CLK = 3U   /**< The SMIF feedback inverted clock */
 531:Generated_Source\PSoC6\pdl\drivers\peripheral\smif/cy_smif.h **** } cy_en_smif_clk_select_t;
 532:Generated_Source\PSoC6\pdl\drivers\peripheral\smif/cy_smif.h **** 
 533:Generated_Source\PSoC6\pdl\drivers\peripheral\smif/cy_smif.h **** /** Specifies enabled type of SMIF cache. */
 534:Generated_Source\PSoC6\pdl\drivers\peripheral\smif/cy_smif.h **** typedef enum
 535:Generated_Source\PSoC6\pdl\drivers\peripheral\smif/cy_smif.h **** {
 536:Generated_Source\PSoC6\pdl\drivers\peripheral\smif/cy_smif.h ****     CY_SMIF_CACHE_SLOW      = 1U,   /**< The SMIF slow cache (in the clk_slow domain) see TRM for d
 537:Generated_Source\PSoC6\pdl\drivers\peripheral\smif/cy_smif.h ****     CY_SMIF_CACHE_FAST      = 2U,   /**< The SMIF fast cache  (in the clk_fast domain) see TRM for 
 538:Generated_Source\PSoC6\pdl\drivers\peripheral\smif/cy_smif.h ****     CY_SMIF_CACHE_BOTH      = 3U    /**< The SMIF both caches */
 539:Generated_Source\PSoC6\pdl\drivers\peripheral\smif/cy_smif.h **** } cy_en_smif_cache_en_t;
 540:Generated_Source\PSoC6\pdl\drivers\peripheral\smif/cy_smif.h **** 
 541:Generated_Source\PSoC6\pdl\drivers\peripheral\smif/cy_smif.h **** /** \} group_smif_enums */
 542:Generated_Source\PSoC6\pdl\drivers\peripheral\smif/cy_smif.h **** 
 543:Generated_Source\PSoC6\pdl\drivers\peripheral\smif/cy_smif.h **** 
ARM GAS  C:\Users\ikomb\AppData\Local\Temp\ccEKz2Td.s 			page 11


 544:Generated_Source\PSoC6\pdl\drivers\peripheral\smif/cy_smif.h **** /**
 545:Generated_Source\PSoC6\pdl\drivers\peripheral\smif/cy_smif.h **** * \addtogroup group_smif_data_structures
 546:Generated_Source\PSoC6\pdl\drivers\peripheral\smif/cy_smif.h **** * \{
 547:Generated_Source\PSoC6\pdl\drivers\peripheral\smif/cy_smif.h **** */
 548:Generated_Source\PSoC6\pdl\drivers\peripheral\smif/cy_smif.h **** 
 549:Generated_Source\PSoC6\pdl\drivers\peripheral\smif/cy_smif.h **** /***************************************************************************//**
 550:Generated_Source\PSoC6\pdl\drivers\peripheral\smif/cy_smif.h **** *
 551:Generated_Source\PSoC6\pdl\drivers\peripheral\smif/cy_smif.h **** * The SMIF user callback function type called at the end of a transfer.
 552:Generated_Source\PSoC6\pdl\drivers\peripheral\smif/cy_smif.h **** *
 553:Generated_Source\PSoC6\pdl\drivers\peripheral\smif/cy_smif.h **** * \param event
 554:Generated_Source\PSoC6\pdl\drivers\peripheral\smif/cy_smif.h **** * The event which caused a callback call.
 555:Generated_Source\PSoC6\pdl\drivers\peripheral\smif/cy_smif.h **** *
 556:Generated_Source\PSoC6\pdl\drivers\peripheral\smif/cy_smif.h **** *******************************************************************************/
 557:Generated_Source\PSoC6\pdl\drivers\peripheral\smif/cy_smif.h **** typedef void (*cy_smif_event_cb_t)(uint32_t event);
 558:Generated_Source\PSoC6\pdl\drivers\peripheral\smif/cy_smif.h **** 
 559:Generated_Source\PSoC6\pdl\drivers\peripheral\smif/cy_smif.h **** 
 560:Generated_Source\PSoC6\pdl\drivers\peripheral\smif/cy_smif.h **** /** The SMIF configuration structure. */
 561:Generated_Source\PSoC6\pdl\drivers\peripheral\smif/cy_smif.h **** typedef struct
 562:Generated_Source\PSoC6\pdl\drivers\peripheral\smif/cy_smif.h **** {
 563:Generated_Source\PSoC6\pdl\drivers\peripheral\smif/cy_smif.h ****     uint32_t mode;              /**<  Specifies the mode of operation \ref cy_en_smif_mode_t. */
 564:Generated_Source\PSoC6\pdl\drivers\peripheral\smif/cy_smif.h ****     uint32_t deselectDelay;     /**<  Specifies the minimum duration of SPI de-selection between SP
 565:Generated_Source\PSoC6\pdl\drivers\peripheral\smif/cy_smif.h ****                                 *   - "0": 1 clock cycle.
 566:Generated_Source\PSoC6\pdl\drivers\peripheral\smif/cy_smif.h ****                                 *   - "1": 2 clock cycles.
 567:Generated_Source\PSoC6\pdl\drivers\peripheral\smif/cy_smif.h ****                                 *   - "2": 3 clock cycles.
 568:Generated_Source\PSoC6\pdl\drivers\peripheral\smif/cy_smif.h ****                                 *   - "3": 4 clock cycles.
 569:Generated_Source\PSoC6\pdl\drivers\peripheral\smif/cy_smif.h ****                                 *   - "4": 5 clock cycles.
 570:Generated_Source\PSoC6\pdl\drivers\peripheral\smif/cy_smif.h ****                                 *   - "5": 6 clock cycles.
 571:Generated_Source\PSoC6\pdl\drivers\peripheral\smif/cy_smif.h ****                                 *   - "6": 7 clock cycles.
 572:Generated_Source\PSoC6\pdl\drivers\peripheral\smif/cy_smif.h ****                                 *   - "7": 8 clock cycles. */
 573:Generated_Source\PSoC6\pdl\drivers\peripheral\smif/cy_smif.h ****     uint32_t rxClockSel;        /**< Specifies the clock source for the receiver 
 574:Generated_Source\PSoC6\pdl\drivers\peripheral\smif/cy_smif.h ****                                 *  clock \ref cy_en_smif_clk_select_t. */
 575:Generated_Source\PSoC6\pdl\drivers\peripheral\smif/cy_smif.h ****     uint32_t blockEvent;        /**< Specifies what happens when there is a Read  
 576:Generated_Source\PSoC6\pdl\drivers\peripheral\smif/cy_smif.h ****                                 * from an empty RX FIFO or a Write to a full 
 577:Generated_Source\PSoC6\pdl\drivers\peripheral\smif/cy_smif.h ****                                 * TX FIFO. \ref cy_en_smif_error_event_t. */
 578:Generated_Source\PSoC6\pdl\drivers\peripheral\smif/cy_smif.h **** } cy_stc_smif_config_t;
 579:Generated_Source\PSoC6\pdl\drivers\peripheral\smif/cy_smif.h **** 
 580:Generated_Source\PSoC6\pdl\drivers\peripheral\smif/cy_smif.h **** /** The SMIF internal context data. The user must not modify it. */
 581:Generated_Source\PSoC6\pdl\drivers\peripheral\smif/cy_smif.h **** typedef struct
 582:Generated_Source\PSoC6\pdl\drivers\peripheral\smif/cy_smif.h **** {
 583:Generated_Source\PSoC6\pdl\drivers\peripheral\smif/cy_smif.h ****     uint8_t volatile * volatile txBufferAddress;    /**<  The pointer to the data to transfer */
 584:Generated_Source\PSoC6\pdl\drivers\peripheral\smif/cy_smif.h ****     uint32_t txBufferSize;                          /**<  The size of the data to transmit in bytes
 585:Generated_Source\PSoC6\pdl\drivers\peripheral\smif/cy_smif.h ****     /**
 586:Generated_Source\PSoC6\pdl\drivers\peripheral\smif/cy_smif.h ****     * The transfer counter. The number of the transmitted bytes = txBufferSize - txBufferCounter
 587:Generated_Source\PSoC6\pdl\drivers\peripheral\smif/cy_smif.h ****     */
 588:Generated_Source\PSoC6\pdl\drivers\peripheral\smif/cy_smif.h ****     uint32_t volatile txBufferCounter;
 589:Generated_Source\PSoC6\pdl\drivers\peripheral\smif/cy_smif.h ****     uint8_t volatile * volatile rxBufferAddress;    /**<  The pointer to the variable where the rec
 590:Generated_Source\PSoC6\pdl\drivers\peripheral\smif/cy_smif.h ****     uint32_t rxBufferSize;                          /**<  The size of the data to be received in by
 591:Generated_Source\PSoC6\pdl\drivers\peripheral\smif/cy_smif.h ****     /**
 592:Generated_Source\PSoC6\pdl\drivers\peripheral\smif/cy_smif.h ****     * The transfer counter. The number of the received bytes = rxBufferSize - rxBufferCounter
 593:Generated_Source\PSoC6\pdl\drivers\peripheral\smif/cy_smif.h ****     */
 594:Generated_Source\PSoC6\pdl\drivers\peripheral\smif/cy_smif.h ****     uint32_t volatile rxBufferCounter;
 595:Generated_Source\PSoC6\pdl\drivers\peripheral\smif/cy_smif.h ****     /**
 596:Generated_Source\PSoC6\pdl\drivers\peripheral\smif/cy_smif.h ****     * The status of the transfer. The transmitting / receiving is completed / in progress
 597:Generated_Source\PSoC6\pdl\drivers\peripheral\smif/cy_smif.h ****     */
 598:Generated_Source\PSoC6\pdl\drivers\peripheral\smif/cy_smif.h ****     uint32_t volatile transferStatus;
 599:Generated_Source\PSoC6\pdl\drivers\peripheral\smif/cy_smif.h ****     cy_smif_event_cb_t volatile txCmpltCb;          /**< The user-defined callback executed at the 
 600:Generated_Source\PSoC6\pdl\drivers\peripheral\smif/cy_smif.h ****     cy_smif_event_cb_t volatile rxCmpltCb;          /**< The user-defined callback executed at the 
ARM GAS  C:\Users\ikomb\AppData\Local\Temp\ccEKz2Td.s 			page 12


 601:Generated_Source\PSoC6\pdl\drivers\peripheral\smif/cy_smif.h ****     /**
 602:Generated_Source\PSoC6\pdl\drivers\peripheral\smif/cy_smif.h ****     * The timeout in microseconds for the blocking functions. This timeout value applies to all blo
 603:Generated_Source\PSoC6\pdl\drivers\peripheral\smif/cy_smif.h ****     */
 604:Generated_Source\PSoC6\pdl\drivers\peripheral\smif/cy_smif.h ****     uint32_t timeout;
 605:Generated_Source\PSoC6\pdl\drivers\peripheral\smif/cy_smif.h **** } cy_stc_smif_context_t;
 606:Generated_Source\PSoC6\pdl\drivers\peripheral\smif/cy_smif.h **** 
 607:Generated_Source\PSoC6\pdl\drivers\peripheral\smif/cy_smif.h **** /** \} group_smif_data_structures */
 608:Generated_Source\PSoC6\pdl\drivers\peripheral\smif/cy_smif.h **** 
 609:Generated_Source\PSoC6\pdl\drivers\peripheral\smif/cy_smif.h **** 
 610:Generated_Source\PSoC6\pdl\drivers\peripheral\smif/cy_smif.h **** /**
 611:Generated_Source\PSoC6\pdl\drivers\peripheral\smif/cy_smif.h **** * \addtogroup group_smif_low_level_functions
 612:Generated_Source\PSoC6\pdl\drivers\peripheral\smif/cy_smif.h **** * \{
 613:Generated_Source\PSoC6\pdl\drivers\peripheral\smif/cy_smif.h **** */
 614:Generated_Source\PSoC6\pdl\drivers\peripheral\smif/cy_smif.h **** 
 615:Generated_Source\PSoC6\pdl\drivers\peripheral\smif/cy_smif.h **** cy_en_smif_status_t Cy_SMIF_Init(SMIF_Type *base, cy_stc_smif_config_t const *config,
 616:Generated_Source\PSoC6\pdl\drivers\peripheral\smif/cy_smif.h ****                                 uint32_t timeout,
 617:Generated_Source\PSoC6\pdl\drivers\peripheral\smif/cy_smif.h ****                                 cy_stc_smif_context_t *context);
 618:Generated_Source\PSoC6\pdl\drivers\peripheral\smif/cy_smif.h **** void Cy_SMIF_DeInit(SMIF_Type *base);
 619:Generated_Source\PSoC6\pdl\drivers\peripheral\smif/cy_smif.h **** void Cy_SMIF_SetDataSelect(SMIF_Type *base, cy_en_smif_slave_select_t slaveSelect,
 620:Generated_Source\PSoC6\pdl\drivers\peripheral\smif/cy_smif.h ****                                 cy_en_smif_data_select_t dataSelect);
 621:Generated_Source\PSoC6\pdl\drivers\peripheral\smif/cy_smif.h **** void Cy_SMIF_SetMode(SMIF_Type *base, cy_en_smif_mode_t mode);
 622:Generated_Source\PSoC6\pdl\drivers\peripheral\smif/cy_smif.h **** cy_en_smif_mode_t Cy_SMIF_GetMode(SMIF_Type const *base);
 623:Generated_Source\PSoC6\pdl\drivers\peripheral\smif/cy_smif.h **** cy_en_smif_status_t Cy_SMIF_TransmitCommand(SMIF_Type *base,
 624:Generated_Source\PSoC6\pdl\drivers\peripheral\smif/cy_smif.h ****                                 uint8_t cmd,
 625:Generated_Source\PSoC6\pdl\drivers\peripheral\smif/cy_smif.h ****                                 cy_en_smif_txfr_width_t cmdTxfrWidth,
 626:Generated_Source\PSoC6\pdl\drivers\peripheral\smif/cy_smif.h ****                                 uint8_t const cmdParam[], uint32_t paramSize,
 627:Generated_Source\PSoC6\pdl\drivers\peripheral\smif/cy_smif.h ****                                 cy_en_smif_txfr_width_t paramTxfrWidth,
 628:Generated_Source\PSoC6\pdl\drivers\peripheral\smif/cy_smif.h ****                                 cy_en_smif_slave_select_t slaveSelect, uint32_t cmpltTxfr,
 629:Generated_Source\PSoC6\pdl\drivers\peripheral\smif/cy_smif.h ****                                 cy_stc_smif_context_t const *context);
 630:Generated_Source\PSoC6\pdl\drivers\peripheral\smif/cy_smif.h **** cy_en_smif_status_t Cy_SMIF_TransmitData(SMIF_Type *base,
 631:Generated_Source\PSoC6\pdl\drivers\peripheral\smif/cy_smif.h ****                                 uint8_t *txBuffer, uint32_t size,
 632:Generated_Source\PSoC6\pdl\drivers\peripheral\smif/cy_smif.h ****                                 cy_en_smif_txfr_width_t transferWidth,
 633:Generated_Source\PSoC6\pdl\drivers\peripheral\smif/cy_smif.h ****                                 cy_smif_event_cb_t TxCmpltCb,
 634:Generated_Source\PSoC6\pdl\drivers\peripheral\smif/cy_smif.h ****                                 cy_stc_smif_context_t *context);
 635:Generated_Source\PSoC6\pdl\drivers\peripheral\smif/cy_smif.h **** cy_en_smif_status_t  Cy_SMIF_TransmitDataBlocking(SMIF_Type *base,
 636:Generated_Source\PSoC6\pdl\drivers\peripheral\smif/cy_smif.h ****                                 uint8_t *txBuffer,
 637:Generated_Source\PSoC6\pdl\drivers\peripheral\smif/cy_smif.h ****                                 uint32_t size,
 638:Generated_Source\PSoC6\pdl\drivers\peripheral\smif/cy_smif.h ****                                 cy_en_smif_txfr_width_t transferWidth,
 639:Generated_Source\PSoC6\pdl\drivers\peripheral\smif/cy_smif.h ****                                 cy_stc_smif_context_t const *context);
 640:Generated_Source\PSoC6\pdl\drivers\peripheral\smif/cy_smif.h **** cy_en_smif_status_t Cy_SMIF_ReceiveData(SMIF_Type *base,
 641:Generated_Source\PSoC6\pdl\drivers\peripheral\smif/cy_smif.h ****                                 uint8_t *rxBuffer, uint32_t size,
 642:Generated_Source\PSoC6\pdl\drivers\peripheral\smif/cy_smif.h ****                                 cy_en_smif_txfr_width_t transferWidth,
 643:Generated_Source\PSoC6\pdl\drivers\peripheral\smif/cy_smif.h ****                                 cy_smif_event_cb_t RxCmpltCb,
 644:Generated_Source\PSoC6\pdl\drivers\peripheral\smif/cy_smif.h ****                                 cy_stc_smif_context_t *context);
 645:Generated_Source\PSoC6\pdl\drivers\peripheral\smif/cy_smif.h **** cy_en_smif_status_t  Cy_SMIF_ReceiveDataBlocking(SMIF_Type *base,
 646:Generated_Source\PSoC6\pdl\drivers\peripheral\smif/cy_smif.h ****                                 uint8_t *rxBuffer,
 647:Generated_Source\PSoC6\pdl\drivers\peripheral\smif/cy_smif.h ****                                 uint32_t size,
 648:Generated_Source\PSoC6\pdl\drivers\peripheral\smif/cy_smif.h ****                                 cy_en_smif_txfr_width_t transferWidth,
 649:Generated_Source\PSoC6\pdl\drivers\peripheral\smif/cy_smif.h ****                                 cy_stc_smif_context_t const *context);
 650:Generated_Source\PSoC6\pdl\drivers\peripheral\smif/cy_smif.h **** cy_en_smif_status_t Cy_SMIF_SendDummyCycles(SMIF_Type *base, uint32_t cycles);
 651:Generated_Source\PSoC6\pdl\drivers\peripheral\smif/cy_smif.h **** uint32_t Cy_SMIF_GetTxfrStatus(SMIF_Type *base, cy_stc_smif_context_t const *context);
 652:Generated_Source\PSoC6\pdl\drivers\peripheral\smif/cy_smif.h **** void Cy_SMIF_Enable(SMIF_Type *base, cy_stc_smif_context_t *context);
 653:Generated_Source\PSoC6\pdl\drivers\peripheral\smif/cy_smif.h **** __STATIC_INLINE void Cy_SMIF_Disable(SMIF_Type *base);
 654:Generated_Source\PSoC6\pdl\drivers\peripheral\smif/cy_smif.h **** __STATIC_INLINE void  Cy_SMIF_SetInterruptMask(SMIF_Type *base, uint32_t interrupt);
 655:Generated_Source\PSoC6\pdl\drivers\peripheral\smif/cy_smif.h **** __STATIC_INLINE uint32_t  Cy_SMIF_GetInterruptMask(SMIF_Type const *base);
 656:Generated_Source\PSoC6\pdl\drivers\peripheral\smif/cy_smif.h **** __STATIC_INLINE uint32_t  Cy_SMIF_GetInterruptStatusMasked(SMIF_Type const *base);
 657:Generated_Source\PSoC6\pdl\drivers\peripheral\smif/cy_smif.h **** __STATIC_INLINE uint32_t  Cy_SMIF_GetInterruptStatus(SMIF_Type const *base);
ARM GAS  C:\Users\ikomb\AppData\Local\Temp\ccEKz2Td.s 			page 13


 658:Generated_Source\PSoC6\pdl\drivers\peripheral\smif/cy_smif.h **** __STATIC_INLINE void  Cy_SMIF_SetInterrupt(SMIF_Type *base, uint32_t interrupt);
 659:Generated_Source\PSoC6\pdl\drivers\peripheral\smif/cy_smif.h **** __STATIC_INLINE void  Cy_SMIF_ClearInterrupt(SMIF_Type *base, uint32_t interrupt);
 660:Generated_Source\PSoC6\pdl\drivers\peripheral\smif/cy_smif.h **** __STATIC_INLINE void  Cy_SMIF_SetTxFifoTriggerLevel(SMIF_Type *base, uint32_t level);
 661:Generated_Source\PSoC6\pdl\drivers\peripheral\smif/cy_smif.h **** __STATIC_INLINE void  Cy_SMIF_SetRxFifoTriggerLevel(SMIF_Type *base, uint32_t level);
 662:Generated_Source\PSoC6\pdl\drivers\peripheral\smif/cy_smif.h **** __STATIC_INLINE uint32_t  Cy_SMIF_GetCmdFifoStatus(SMIF_Type const *base);
 663:Generated_Source\PSoC6\pdl\drivers\peripheral\smif/cy_smif.h **** __STATIC_INLINE uint32_t  Cy_SMIF_GetTxFifoStatus(SMIF_Type const *base);
 664:Generated_Source\PSoC6\pdl\drivers\peripheral\smif/cy_smif.h **** __STATIC_INLINE uint32_t  Cy_SMIF_GetRxFifoStatus(SMIF_Type const *base);
 665:Generated_Source\PSoC6\pdl\drivers\peripheral\smif/cy_smif.h **** cy_en_smif_status_t  Cy_SMIF_Encrypt(SMIF_Type *base,
 666:Generated_Source\PSoC6\pdl\drivers\peripheral\smif/cy_smif.h ****                                 uint32_t address,
 667:Generated_Source\PSoC6\pdl\drivers\peripheral\smif/cy_smif.h ****                                 uint8_t data[],
 668:Generated_Source\PSoC6\pdl\drivers\peripheral\smif/cy_smif.h ****                                 uint32_t size,
 669:Generated_Source\PSoC6\pdl\drivers\peripheral\smif/cy_smif.h ****                                 cy_stc_smif_context_t const *context);
 670:Generated_Source\PSoC6\pdl\drivers\peripheral\smif/cy_smif.h **** __STATIC_INLINE bool Cy_SMIF_BusyCheck(SMIF_Type const *base);
 671:Generated_Source\PSoC6\pdl\drivers\peripheral\smif/cy_smif.h **** __STATIC_INLINE void Cy_SMIF_Interrupt(SMIF_Type *base, cy_stc_smif_context_t *context);
 672:Generated_Source\PSoC6\pdl\drivers\peripheral\smif/cy_smif.h **** cy_en_smif_status_t Cy_SMIF_CacheEnable(SMIF_Type *base, cy_en_smif_cache_en_t cacheType);
 673:Generated_Source\PSoC6\pdl\drivers\peripheral\smif/cy_smif.h **** cy_en_smif_status_t Cy_SMIF_CacheDisable(SMIF_Type *base, cy_en_smif_cache_en_t cacheType);
 674:Generated_Source\PSoC6\pdl\drivers\peripheral\smif/cy_smif.h **** cy_en_smif_status_t Cy_SMIF_CachePrefetchingEnable(SMIF_Type *base, cy_en_smif_cache_en_t cacheType
 675:Generated_Source\PSoC6\pdl\drivers\peripheral\smif/cy_smif.h **** cy_en_smif_status_t Cy_SMIF_CachePrefetchingDisable(SMIF_Type *base, cy_en_smif_cache_en_t cacheTyp
 676:Generated_Source\PSoC6\pdl\drivers\peripheral\smif/cy_smif.h **** cy_en_smif_status_t Cy_SMIF_CacheInvalidate(SMIF_Type *base, cy_en_smif_cache_en_t cacheType);
 677:Generated_Source\PSoC6\pdl\drivers\peripheral\smif/cy_smif.h **** 
 678:Generated_Source\PSoC6\pdl\drivers\peripheral\smif/cy_smif.h **** /** \addtogroup group_smif_functions_syspm_callback
 679:Generated_Source\PSoC6\pdl\drivers\peripheral\smif/cy_smif.h **** * The driver supports SysPm callback for Deep Sleep and Hibernate transition.
 680:Generated_Source\PSoC6\pdl\drivers\peripheral\smif/cy_smif.h **** * \{
 681:Generated_Source\PSoC6\pdl\drivers\peripheral\smif/cy_smif.h **** */
 682:Generated_Source\PSoC6\pdl\drivers\peripheral\smif/cy_smif.h **** cy_en_syspm_status_t Cy_SMIF_DeepSleepCallback(cy_stc_syspm_callback_params_t *callbackParams);
 683:Generated_Source\PSoC6\pdl\drivers\peripheral\smif/cy_smif.h **** cy_en_syspm_status_t Cy_SMIF_HibernateCallback(cy_stc_syspm_callback_params_t *callbackParams);
 684:Generated_Source\PSoC6\pdl\drivers\peripheral\smif/cy_smif.h **** /** \} */
 685:Generated_Source\PSoC6\pdl\drivers\peripheral\smif/cy_smif.h **** 
 686:Generated_Source\PSoC6\pdl\drivers\peripheral\smif/cy_smif.h **** 
 687:Generated_Source\PSoC6\pdl\drivers\peripheral\smif/cy_smif.h **** /***************************************
 688:Generated_Source\PSoC6\pdl\drivers\peripheral\smif/cy_smif.h **** *  Internal SMIF function declarations
 689:Generated_Source\PSoC6\pdl\drivers\peripheral\smif/cy_smif.h **** ****************************************/
 690:Generated_Source\PSoC6\pdl\drivers\peripheral\smif/cy_smif.h **** /** \cond INTERNAL */
 691:Generated_Source\PSoC6\pdl\drivers\peripheral\smif/cy_smif.h **** __STATIC_INLINE void Cy_SMIF_PushTxFifo(SMIF_Type *baseaddr, cy_stc_smif_context_t *context);      
 692:Generated_Source\PSoC6\pdl\drivers\peripheral\smif/cy_smif.h **** __STATIC_INLINE void Cy_SMIF_PopRxFifo(SMIF_Type *baseaddr, cy_stc_smif_context_t *context);       
 693:Generated_Source\PSoC6\pdl\drivers\peripheral\smif/cy_smif.h **** __STATIC_INLINE uint32_t Cy_SMIF_PackBytesArray(uint8_t const buff[], bool fourBytes);
 694:Generated_Source\PSoC6\pdl\drivers\peripheral\smif/cy_smif.h **** __STATIC_INLINE void Cy_SMIF_UnPackByteArray(uint32_t inValue, uint8_t outBuff[], bool fourBytes);
 695:Generated_Source\PSoC6\pdl\drivers\peripheral\smif/cy_smif.h **** __STATIC_INLINE cy_en_smif_status_t Cy_SMIF_TimeoutRun(uint32_t *timeoutUnits);
 696:Generated_Source\PSoC6\pdl\drivers\peripheral\smif/cy_smif.h **** __STATIC_INLINE SMIF_DEVICE_Type volatile * Cy_SMIF_GetDeviceBySlot(SMIF_Type *base,
 697:Generated_Source\PSoC6\pdl\drivers\peripheral\smif/cy_smif.h ****                                 cy_en_smif_slave_select_t slaveSelect);
 698:Generated_Source\PSoC6\pdl\drivers\peripheral\smif/cy_smif.h **** /** \endcond*/
 699:Generated_Source\PSoC6\pdl\drivers\peripheral\smif/cy_smif.h **** 
 700:Generated_Source\PSoC6\pdl\drivers\peripheral\smif/cy_smif.h **** /** \} group_smif_low_level_functions */
 701:Generated_Source\PSoC6\pdl\drivers\peripheral\smif/cy_smif.h **** 
 702:Generated_Source\PSoC6\pdl\drivers\peripheral\smif/cy_smif.h **** 
 703:Generated_Source\PSoC6\pdl\drivers\peripheral\smif/cy_smif.h **** /**
 704:Generated_Source\PSoC6\pdl\drivers\peripheral\smif/cy_smif.h **** * \addtogroup group_smif_low_level_functions
 705:Generated_Source\PSoC6\pdl\drivers\peripheral\smif/cy_smif.h **** * \{
 706:Generated_Source\PSoC6\pdl\drivers\peripheral\smif/cy_smif.h **** */
 707:Generated_Source\PSoC6\pdl\drivers\peripheral\smif/cy_smif.h **** 
 708:Generated_Source\PSoC6\pdl\drivers\peripheral\smif/cy_smif.h **** /*******************************************************************************
 709:Generated_Source\PSoC6\pdl\drivers\peripheral\smif/cy_smif.h **** * Function Name: Cy_SMIF_Disable
 710:Generated_Source\PSoC6\pdl\drivers\peripheral\smif/cy_smif.h **** ****************************************************************************//**
 711:Generated_Source\PSoC6\pdl\drivers\peripheral\smif/cy_smif.h **** *
 712:Generated_Source\PSoC6\pdl\drivers\peripheral\smif/cy_smif.h **** * Disables the operation of the SMIF block. The SMIF block can be disabled only
 713:Generated_Source\PSoC6\pdl\drivers\peripheral\smif/cy_smif.h **** * when it is not in the active state. Use the Cy_SMIF_BusyCheck() API to check
 714:Generated_Source\PSoC6\pdl\drivers\peripheral\smif/cy_smif.h **** * it before calling this API.
ARM GAS  C:\Users\ikomb\AppData\Local\Temp\ccEKz2Td.s 			page 14


 715:Generated_Source\PSoC6\pdl\drivers\peripheral\smif/cy_smif.h **** *
 716:Generated_Source\PSoC6\pdl\drivers\peripheral\smif/cy_smif.h **** * \param base
 717:Generated_Source\PSoC6\pdl\drivers\peripheral\smif/cy_smif.h **** * Holds the base address of the SMIF block registers.
 718:Generated_Source\PSoC6\pdl\drivers\peripheral\smif/cy_smif.h **** *
 719:Generated_Source\PSoC6\pdl\drivers\peripheral\smif/cy_smif.h **** *******************************************************************************/
 720:Generated_Source\PSoC6\pdl\drivers\peripheral\smif/cy_smif.h **** __STATIC_INLINE void Cy_SMIF_Disable(SMIF_Type *base)
 721:Generated_Source\PSoC6\pdl\drivers\peripheral\smif/cy_smif.h **** {
  28              		.loc 1 721 0
  29              		.cfi_startproc
  30              		@ args = 0, pretend = 0, frame = 8
  31              		@ frame_needed = 1, uses_anonymous_args = 0
  32              		@ link register save eliminated.
  33 0000 80B4     		push	{r7}
  34              		.cfi_def_cfa_offset 4
  35              		.cfi_offset 7, -4
  36 0002 83B0     		sub	sp, sp, #12
  37              		.cfi_def_cfa_offset 16
  38 0004 00AF     		add	r7, sp, #0
  39              		.cfi_def_cfa_register 7
  40 0006 7860     		str	r0, [r7, #4]
 722:Generated_Source\PSoC6\pdl\drivers\peripheral\smif/cy_smif.h ****     base->CTL &= ~SMIF_CTL_ENABLED_Msk;
  41              		.loc 1 722 0
  42 0008 7B68     		ldr	r3, [r7, #4]
  43 000a 1B68     		ldr	r3, [r3]
  44 000c 23F00042 		bic	r2, r3, #-2147483648
  45 0010 7B68     		ldr	r3, [r7, #4]
  46 0012 1A60     		str	r2, [r3]
 723:Generated_Source\PSoC6\pdl\drivers\peripheral\smif/cy_smif.h **** 
 724:Generated_Source\PSoC6\pdl\drivers\peripheral\smif/cy_smif.h ****     /* The void Read of the CTL register to handle buffering */
 725:Generated_Source\PSoC6\pdl\drivers\peripheral\smif/cy_smif.h ****     (void) base->CTL;
  47              		.loc 1 725 0
  48 0014 7B68     		ldr	r3, [r7, #4]
  49 0016 1B68     		ldr	r3, [r3]
 726:Generated_Source\PSoC6\pdl\drivers\peripheral\smif/cy_smif.h **** }
  50              		.loc 1 726 0
  51 0018 00BF     		nop
  52 001a 0C37     		adds	r7, r7, #12
  53              		.cfi_def_cfa_offset 4
  54 001c BD46     		mov	sp, r7
  55              		.cfi_def_cfa_register 13
  56              		@ sp needed
  57 001e 5DF8047B 		ldr	r7, [sp], #4
  58              		.cfi_restore 7
  59              		.cfi_def_cfa_offset 0
  60 0022 7047     		bx	lr
  61              		.cfi_endproc
  62              	.LFE158:
  63              		.size	Cy_SMIF_Disable, .-Cy_SMIF_Disable
  64              		.section	.text.Cy_SMIF_SetInterruptMask,"ax",%progbits
  65              		.align	2
  66              		.thumb
  67              		.thumb_func
  68              		.type	Cy_SMIF_SetInterruptMask, %function
  69              	Cy_SMIF_SetInterruptMask:
  70              	.LFB159:
 727:Generated_Source\PSoC6\pdl\drivers\peripheral\smif/cy_smif.h **** 
 728:Generated_Source\PSoC6\pdl\drivers\peripheral\smif/cy_smif.h **** 
ARM GAS  C:\Users\ikomb\AppData\Local\Temp\ccEKz2Td.s 			page 15


 729:Generated_Source\PSoC6\pdl\drivers\peripheral\smif/cy_smif.h **** /*******************************************************************************
 730:Generated_Source\PSoC6\pdl\drivers\peripheral\smif/cy_smif.h **** * Function Name: Cy_SMIF_SetInterruptMask
 731:Generated_Source\PSoC6\pdl\drivers\peripheral\smif/cy_smif.h **** ****************************************************************************//**
 732:Generated_Source\PSoC6\pdl\drivers\peripheral\smif/cy_smif.h **** *
 733:Generated_Source\PSoC6\pdl\drivers\peripheral\smif/cy_smif.h **** * This function is used to set an interrupt mask for the SMIF Interrupt.
 734:Generated_Source\PSoC6\pdl\drivers\peripheral\smif/cy_smif.h **** *
 735:Generated_Source\PSoC6\pdl\drivers\peripheral\smif/cy_smif.h **** * \param base
 736:Generated_Source\PSoC6\pdl\drivers\peripheral\smif/cy_smif.h **** * Holds the base address of the SMIF block registers.
 737:Generated_Source\PSoC6\pdl\drivers\peripheral\smif/cy_smif.h **** *
 738:Generated_Source\PSoC6\pdl\drivers\peripheral\smif/cy_smif.h **** * \param interrupt
 739:Generated_Source\PSoC6\pdl\drivers\peripheral\smif/cy_smif.h **** * This is the mask for different source options that can be masked. See
 740:Generated_Source\PSoC6\pdl\drivers\peripheral\smif/cy_smif.h **** * \ref group_smif_macros_isr "Interrupt Macros" for possible values.
 741:Generated_Source\PSoC6\pdl\drivers\peripheral\smif/cy_smif.h **** *
 742:Generated_Source\PSoC6\pdl\drivers\peripheral\smif/cy_smif.h **** *******************************************************************************/
 743:Generated_Source\PSoC6\pdl\drivers\peripheral\smif/cy_smif.h **** __STATIC_INLINE void  Cy_SMIF_SetInterruptMask(SMIF_Type *base, uint32_t interrupt)
 744:Generated_Source\PSoC6\pdl\drivers\peripheral\smif/cy_smif.h **** {
  71              		.loc 1 744 0
  72              		.cfi_startproc
  73              		@ args = 0, pretend = 0, frame = 8
  74              		@ frame_needed = 1, uses_anonymous_args = 0
  75              		@ link register save eliminated.
  76 0000 80B4     		push	{r7}
  77              		.cfi_def_cfa_offset 4
  78              		.cfi_offset 7, -4
  79 0002 83B0     		sub	sp, sp, #12
  80              		.cfi_def_cfa_offset 16
  81 0004 00AF     		add	r7, sp, #0
  82              		.cfi_def_cfa_register 7
  83 0006 7860     		str	r0, [r7, #4]
  84 0008 3960     		str	r1, [r7]
 745:Generated_Source\PSoC6\pdl\drivers\peripheral\smif/cy_smif.h ****     base->INTR_MASK = interrupt;
  85              		.loc 1 745 0
  86 000a 7B68     		ldr	r3, [r7, #4]
  87 000c 3A68     		ldr	r2, [r7]
  88 000e C3F8C827 		str	r2, [r3, #1992]
 746:Generated_Source\PSoC6\pdl\drivers\peripheral\smif/cy_smif.h **** }
  89              		.loc 1 746 0
  90 0012 00BF     		nop
  91 0014 0C37     		adds	r7, r7, #12
  92              		.cfi_def_cfa_offset 4
  93 0016 BD46     		mov	sp, r7
  94              		.cfi_def_cfa_register 13
  95              		@ sp needed
  96 0018 5DF8047B 		ldr	r7, [sp], #4
  97              		.cfi_restore 7
  98              		.cfi_def_cfa_offset 0
  99 001c 7047     		bx	lr
 100              		.cfi_endproc
 101              	.LFE159:
 102              		.size	Cy_SMIF_SetInterruptMask, .-Cy_SMIF_SetInterruptMask
 103 001e 00BF     		.section	.text.Cy_SMIF_GetInterruptMask,"ax",%progbits
 104              		.align	2
 105              		.thumb
 106              		.thumb_func
 107              		.type	Cy_SMIF_GetInterruptMask, %function
 108              	Cy_SMIF_GetInterruptMask:
 109              	.LFB160:
ARM GAS  C:\Users\ikomb\AppData\Local\Temp\ccEKz2Td.s 			page 16


 747:Generated_Source\PSoC6\pdl\drivers\peripheral\smif/cy_smif.h **** 
 748:Generated_Source\PSoC6\pdl\drivers\peripheral\smif/cy_smif.h **** 
 749:Generated_Source\PSoC6\pdl\drivers\peripheral\smif/cy_smif.h **** /*******************************************************************************
 750:Generated_Source\PSoC6\pdl\drivers\peripheral\smif/cy_smif.h **** * Function Name: Cy_SMIF_GetInterruptMask
 751:Generated_Source\PSoC6\pdl\drivers\peripheral\smif/cy_smif.h **** ****************************************************************************//**
 752:Generated_Source\PSoC6\pdl\drivers\peripheral\smif/cy_smif.h **** *
 753:Generated_Source\PSoC6\pdl\drivers\peripheral\smif/cy_smif.h **** * This function is used to read an interrupt mask for the SMIF Interrupt.
 754:Generated_Source\PSoC6\pdl\drivers\peripheral\smif/cy_smif.h **** *
 755:Generated_Source\PSoC6\pdl\drivers\peripheral\smif/cy_smif.h **** * \param base
 756:Generated_Source\PSoC6\pdl\drivers\peripheral\smif/cy_smif.h **** * Holds the base address of the SMIF block registers.
 757:Generated_Source\PSoC6\pdl\drivers\peripheral\smif/cy_smif.h **** *
 758:Generated_Source\PSoC6\pdl\drivers\peripheral\smif/cy_smif.h **** * \return Returns the mask set for the SMIF interrupt.
 759:Generated_Source\PSoC6\pdl\drivers\peripheral\smif/cy_smif.h **** *
 760:Generated_Source\PSoC6\pdl\drivers\peripheral\smif/cy_smif.h **** *******************************************************************************/
 761:Generated_Source\PSoC6\pdl\drivers\peripheral\smif/cy_smif.h **** __STATIC_INLINE uint32_t  Cy_SMIF_GetInterruptMask(SMIF_Type const *base)
 762:Generated_Source\PSoC6\pdl\drivers\peripheral\smif/cy_smif.h **** {
 110              		.loc 1 762 0
 111              		.cfi_startproc
 112              		@ args = 0, pretend = 0, frame = 8
 113              		@ frame_needed = 1, uses_anonymous_args = 0
 114              		@ link register save eliminated.
 115 0000 80B4     		push	{r7}
 116              		.cfi_def_cfa_offset 4
 117              		.cfi_offset 7, -4
 118 0002 83B0     		sub	sp, sp, #12
 119              		.cfi_def_cfa_offset 16
 120 0004 00AF     		add	r7, sp, #0
 121              		.cfi_def_cfa_register 7
 122 0006 7860     		str	r0, [r7, #4]
 763:Generated_Source\PSoC6\pdl\drivers\peripheral\smif/cy_smif.h ****   return (base->INTR_MASK);
 123              		.loc 1 763 0
 124 0008 7B68     		ldr	r3, [r7, #4]
 125 000a D3F8C837 		ldr	r3, [r3, #1992]
 764:Generated_Source\PSoC6\pdl\drivers\peripheral\smif/cy_smif.h **** }
 126              		.loc 1 764 0
 127 000e 1846     		mov	r0, r3
 128 0010 0C37     		adds	r7, r7, #12
 129              		.cfi_def_cfa_offset 4
 130 0012 BD46     		mov	sp, r7
 131              		.cfi_def_cfa_register 13
 132              		@ sp needed
 133 0014 5DF8047B 		ldr	r7, [sp], #4
 134              		.cfi_restore 7
 135              		.cfi_def_cfa_offset 0
 136 0018 7047     		bx	lr
 137              		.cfi_endproc
 138              	.LFE160:
 139              		.size	Cy_SMIF_GetInterruptMask, .-Cy_SMIF_GetInterruptMask
 140 001a 00BF     		.section	.text.Cy_SMIF_GetCmdFifoStatus,"ax",%progbits
 141              		.align	2
 142              		.thumb
 143              		.thumb_func
 144              		.type	Cy_SMIF_GetCmdFifoStatus, %function
 145              	Cy_SMIF_GetCmdFifoStatus:
 146              	.LFB167:
 765:Generated_Source\PSoC6\pdl\drivers\peripheral\smif/cy_smif.h **** 
 766:Generated_Source\PSoC6\pdl\drivers\peripheral\smif/cy_smif.h **** 
ARM GAS  C:\Users\ikomb\AppData\Local\Temp\ccEKz2Td.s 			page 17


 767:Generated_Source\PSoC6\pdl\drivers\peripheral\smif/cy_smif.h **** /*******************************************************************************
 768:Generated_Source\PSoC6\pdl\drivers\peripheral\smif/cy_smif.h **** * Function Name: Cy_SMIF_GetInterruptStatusMasked
 769:Generated_Source\PSoC6\pdl\drivers\peripheral\smif/cy_smif.h **** ****************************************************************************//**
 770:Generated_Source\PSoC6\pdl\drivers\peripheral\smif/cy_smif.h **** *
 771:Generated_Source\PSoC6\pdl\drivers\peripheral\smif/cy_smif.h **** * This function is used to read an active masked interrupt. This function can
 772:Generated_Source\PSoC6\pdl\drivers\peripheral\smif/cy_smif.h **** * be used in the interrupt service-routine to find which source triggered the
 773:Generated_Source\PSoC6\pdl\drivers\peripheral\smif/cy_smif.h **** * interrupt.
 774:Generated_Source\PSoC6\pdl\drivers\peripheral\smif/cy_smif.h **** *
 775:Generated_Source\PSoC6\pdl\drivers\peripheral\smif/cy_smif.h **** * \param base
 776:Generated_Source\PSoC6\pdl\drivers\peripheral\smif/cy_smif.h **** * Holds the base address of the SMIF block registers.
 777:Generated_Source\PSoC6\pdl\drivers\peripheral\smif/cy_smif.h **** *
 778:Generated_Source\PSoC6\pdl\drivers\peripheral\smif/cy_smif.h **** * \return Returns a word with bits set at positions corresponding to the
 779:Generated_Source\PSoC6\pdl\drivers\peripheral\smif/cy_smif.h **** * interrupts triggered in the system.
 780:Generated_Source\PSoC6\pdl\drivers\peripheral\smif/cy_smif.h **** *
 781:Generated_Source\PSoC6\pdl\drivers\peripheral\smif/cy_smif.h **** *******************************************************************************/
 782:Generated_Source\PSoC6\pdl\drivers\peripheral\smif/cy_smif.h **** __STATIC_INLINE uint32_t  Cy_SMIF_GetInterruptStatusMasked(SMIF_Type const *base)
 783:Generated_Source\PSoC6\pdl\drivers\peripheral\smif/cy_smif.h **** {
 784:Generated_Source\PSoC6\pdl\drivers\peripheral\smif/cy_smif.h ****   return (base->INTR_MASKED);
 785:Generated_Source\PSoC6\pdl\drivers\peripheral\smif/cy_smif.h **** }
 786:Generated_Source\PSoC6\pdl\drivers\peripheral\smif/cy_smif.h **** 
 787:Generated_Source\PSoC6\pdl\drivers\peripheral\smif/cy_smif.h **** 
 788:Generated_Source\PSoC6\pdl\drivers\peripheral\smif/cy_smif.h **** /*******************************************************************************
 789:Generated_Source\PSoC6\pdl\drivers\peripheral\smif/cy_smif.h **** * Function Name: Cy_SMIF_GetInterruptStatus
 790:Generated_Source\PSoC6\pdl\drivers\peripheral\smif/cy_smif.h **** ****************************************************************************//**
 791:Generated_Source\PSoC6\pdl\drivers\peripheral\smif/cy_smif.h **** *
 792:Generated_Source\PSoC6\pdl\drivers\peripheral\smif/cy_smif.h **** * This function is used to read an active interrupt. This status is the unmasked
 793:Generated_Source\PSoC6\pdl\drivers\peripheral\smif/cy_smif.h **** * result, so will also show interrupts that will not generate active interrupts.
 794:Generated_Source\PSoC6\pdl\drivers\peripheral\smif/cy_smif.h **** *
 795:Generated_Source\PSoC6\pdl\drivers\peripheral\smif/cy_smif.h **** * \param base
 796:Generated_Source\PSoC6\pdl\drivers\peripheral\smif/cy_smif.h **** * Holds the base address of the SMIF block registers.
 797:Generated_Source\PSoC6\pdl\drivers\peripheral\smif/cy_smif.h **** *
 798:Generated_Source\PSoC6\pdl\drivers\peripheral\smif/cy_smif.h **** * \return Returns a word with bits set at positions corresponding to the
 799:Generated_Source\PSoC6\pdl\drivers\peripheral\smif/cy_smif.h **** * interrupts triggered in the system.
 800:Generated_Source\PSoC6\pdl\drivers\peripheral\smif/cy_smif.h **** *
 801:Generated_Source\PSoC6\pdl\drivers\peripheral\smif/cy_smif.h **** *******************************************************************************/
 802:Generated_Source\PSoC6\pdl\drivers\peripheral\smif/cy_smif.h **** __STATIC_INLINE uint32_t  Cy_SMIF_GetInterruptStatus(SMIF_Type const *base)
 803:Generated_Source\PSoC6\pdl\drivers\peripheral\smif/cy_smif.h **** {
 804:Generated_Source\PSoC6\pdl\drivers\peripheral\smif/cy_smif.h ****   return (base->INTR);
 805:Generated_Source\PSoC6\pdl\drivers\peripheral\smif/cy_smif.h **** }
 806:Generated_Source\PSoC6\pdl\drivers\peripheral\smif/cy_smif.h **** 
 807:Generated_Source\PSoC6\pdl\drivers\peripheral\smif/cy_smif.h **** 
 808:Generated_Source\PSoC6\pdl\drivers\peripheral\smif/cy_smif.h **** /*******************************************************************************
 809:Generated_Source\PSoC6\pdl\drivers\peripheral\smif/cy_smif.h **** * Function Name: Cy_SMIF_SetInterrupt
 810:Generated_Source\PSoC6\pdl\drivers\peripheral\smif/cy_smif.h **** ****************************************************************************//**
 811:Generated_Source\PSoC6\pdl\drivers\peripheral\smif/cy_smif.h **** *
 812:Generated_Source\PSoC6\pdl\drivers\peripheral\smif/cy_smif.h **** * This function is used to set an interrupt source. This function can be used
 813:Generated_Source\PSoC6\pdl\drivers\peripheral\smif/cy_smif.h **** * to activate interrupts through the software.
 814:Generated_Source\PSoC6\pdl\drivers\peripheral\smif/cy_smif.h **** *
 815:Generated_Source\PSoC6\pdl\drivers\peripheral\smif/cy_smif.h **** * \note Interrupt sources set using this interrupt will generate interrupts only
 816:Generated_Source\PSoC6\pdl\drivers\peripheral\smif/cy_smif.h **** * if they are not masked.
 817:Generated_Source\PSoC6\pdl\drivers\peripheral\smif/cy_smif.h **** *
 818:Generated_Source\PSoC6\pdl\drivers\peripheral\smif/cy_smif.h **** * \param base
 819:Generated_Source\PSoC6\pdl\drivers\peripheral\smif/cy_smif.h **** * Holds the base address of the SMIF block registers.
 820:Generated_Source\PSoC6\pdl\drivers\peripheral\smif/cy_smif.h **** *
 821:Generated_Source\PSoC6\pdl\drivers\peripheral\smif/cy_smif.h **** * \param interrupt
 822:Generated_Source\PSoC6\pdl\drivers\peripheral\smif/cy_smif.h **** * An encoded integer with a bit set corresponding to the interrupt to be
 823:Generated_Source\PSoC6\pdl\drivers\peripheral\smif/cy_smif.h **** * triggered. See \ref group_smif_macros_isr "Interrupt Macros" for possible
ARM GAS  C:\Users\ikomb\AppData\Local\Temp\ccEKz2Td.s 			page 18


 824:Generated_Source\PSoC6\pdl\drivers\peripheral\smif/cy_smif.h **** * values.
 825:Generated_Source\PSoC6\pdl\drivers\peripheral\smif/cy_smif.h **** *
 826:Generated_Source\PSoC6\pdl\drivers\peripheral\smif/cy_smif.h **** *******************************************************************************/
 827:Generated_Source\PSoC6\pdl\drivers\peripheral\smif/cy_smif.h **** __STATIC_INLINE void  Cy_SMIF_SetInterrupt(SMIF_Type *base, uint32_t interrupt)
 828:Generated_Source\PSoC6\pdl\drivers\peripheral\smif/cy_smif.h **** {
 829:Generated_Source\PSoC6\pdl\drivers\peripheral\smif/cy_smif.h ****     base->INTR_SET = interrupt;
 830:Generated_Source\PSoC6\pdl\drivers\peripheral\smif/cy_smif.h **** }
 831:Generated_Source\PSoC6\pdl\drivers\peripheral\smif/cy_smif.h **** 
 832:Generated_Source\PSoC6\pdl\drivers\peripheral\smif/cy_smif.h **** 
 833:Generated_Source\PSoC6\pdl\drivers\peripheral\smif/cy_smif.h **** /*******************************************************************************
 834:Generated_Source\PSoC6\pdl\drivers\peripheral\smif/cy_smif.h **** * Function Name: Cy_SMIF_ClearInterrupt
 835:Generated_Source\PSoC6\pdl\drivers\peripheral\smif/cy_smif.h **** ****************************************************************************//**
 836:Generated_Source\PSoC6\pdl\drivers\peripheral\smif/cy_smif.h **** *
 837:Generated_Source\PSoC6\pdl\drivers\peripheral\smif/cy_smif.h **** * This function is used to clear an interrupt source. This function can be used
 838:Generated_Source\PSoC6\pdl\drivers\peripheral\smif/cy_smif.h **** * in the user code to clear all pending interrupts.
 839:Generated_Source\PSoC6\pdl\drivers\peripheral\smif/cy_smif.h **** *
 840:Generated_Source\PSoC6\pdl\drivers\peripheral\smif/cy_smif.h **** * \param base
 841:Generated_Source\PSoC6\pdl\drivers\peripheral\smif/cy_smif.h **** * Holds the base address of the SMIF block registers.
 842:Generated_Source\PSoC6\pdl\drivers\peripheral\smif/cy_smif.h **** *
 843:Generated_Source\PSoC6\pdl\drivers\peripheral\smif/cy_smif.h **** * \param interrupt
 844:Generated_Source\PSoC6\pdl\drivers\peripheral\smif/cy_smif.h **** * An encoded integer with a bit set corresponding to the interrupt that must
 845:Generated_Source\PSoC6\pdl\drivers\peripheral\smif/cy_smif.h **** * be cleared. See \ref group_smif_macros_isr "Interrupt Macros" for possible
 846:Generated_Source\PSoC6\pdl\drivers\peripheral\smif/cy_smif.h **** * values.
 847:Generated_Source\PSoC6\pdl\drivers\peripheral\smif/cy_smif.h **** *
 848:Generated_Source\PSoC6\pdl\drivers\peripheral\smif/cy_smif.h **** *******************************************************************************/
 849:Generated_Source\PSoC6\pdl\drivers\peripheral\smif/cy_smif.h **** __STATIC_INLINE void  Cy_SMIF_ClearInterrupt(SMIF_Type *base, uint32_t interrupt)
 850:Generated_Source\PSoC6\pdl\drivers\peripheral\smif/cy_smif.h **** {
 851:Generated_Source\PSoC6\pdl\drivers\peripheral\smif/cy_smif.h ****     base->INTR = interrupt;
 852:Generated_Source\PSoC6\pdl\drivers\peripheral\smif/cy_smif.h ****     /* Ensure that the initial Write has been flushed out to the hardware. */
 853:Generated_Source\PSoC6\pdl\drivers\peripheral\smif/cy_smif.h ****     interrupt = base->INTR;
 854:Generated_Source\PSoC6\pdl\drivers\peripheral\smif/cy_smif.h **** }
 855:Generated_Source\PSoC6\pdl\drivers\peripheral\smif/cy_smif.h **** 
 856:Generated_Source\PSoC6\pdl\drivers\peripheral\smif/cy_smif.h **** 
 857:Generated_Source\PSoC6\pdl\drivers\peripheral\smif/cy_smif.h **** /*******************************************************************************
 858:Generated_Source\PSoC6\pdl\drivers\peripheral\smif/cy_smif.h **** * Function Name: Cy_SMIF_SetTxFifoTriggerLevel()
 859:Generated_Source\PSoC6\pdl\drivers\peripheral\smif/cy_smif.h **** ****************************************************************************//**
 860:Generated_Source\PSoC6\pdl\drivers\peripheral\smif/cy_smif.h **** *
 861:Generated_Source\PSoC6\pdl\drivers\peripheral\smif/cy_smif.h **** * This function is used to set a trigger level for the TX FIFO. This value must
 862:Generated_Source\PSoC6\pdl\drivers\peripheral\smif/cy_smif.h **** * be an integer between 0 and 7. For the normal mode only.
 863:Generated_Source\PSoC6\pdl\drivers\peripheral\smif/cy_smif.h **** * The triggering is active when TX_DATA_FIFO_STATUS <= level.
 864:Generated_Source\PSoC6\pdl\drivers\peripheral\smif/cy_smif.h **** *
 865:Generated_Source\PSoC6\pdl\drivers\peripheral\smif/cy_smif.h **** * \param base
 866:Generated_Source\PSoC6\pdl\drivers\peripheral\smif/cy_smif.h **** * Holds the base address of the SMIF block registers.
 867:Generated_Source\PSoC6\pdl\drivers\peripheral\smif/cy_smif.h **** *
 868:Generated_Source\PSoC6\pdl\drivers\peripheral\smif/cy_smif.h **** * \param level
 869:Generated_Source\PSoC6\pdl\drivers\peripheral\smif/cy_smif.h **** * The trigger level to set (0-8).
 870:Generated_Source\PSoC6\pdl\drivers\peripheral\smif/cy_smif.h **** *
 871:Generated_Source\PSoC6\pdl\drivers\peripheral\smif/cy_smif.h **** *******************************************************************************/
 872:Generated_Source\PSoC6\pdl\drivers\peripheral\smif/cy_smif.h **** __STATIC_INLINE void  Cy_SMIF_SetTxFifoTriggerLevel(SMIF_Type *base, uint32_t level)
 873:Generated_Source\PSoC6\pdl\drivers\peripheral\smif/cy_smif.h **** {
 874:Generated_Source\PSoC6\pdl\drivers\peripheral\smif/cy_smif.h ****     CY_ASSERT_L2(level <= CY_SMIF_MAX_TX_TR_LEVEL);
 875:Generated_Source\PSoC6\pdl\drivers\peripheral\smif/cy_smif.h ****     base->TX_DATA_FIFO_CTL = level;
 876:Generated_Source\PSoC6\pdl\drivers\peripheral\smif/cy_smif.h **** }
 877:Generated_Source\PSoC6\pdl\drivers\peripheral\smif/cy_smif.h **** 
 878:Generated_Source\PSoC6\pdl\drivers\peripheral\smif/cy_smif.h **** 
 879:Generated_Source\PSoC6\pdl\drivers\peripheral\smif/cy_smif.h **** /*******************************************************************************
 880:Generated_Source\PSoC6\pdl\drivers\peripheral\smif/cy_smif.h **** * Function Name: Cy_SMIF_SetRxFifoTriggerLevel()
ARM GAS  C:\Users\ikomb\AppData\Local\Temp\ccEKz2Td.s 			page 19


 881:Generated_Source\PSoC6\pdl\drivers\peripheral\smif/cy_smif.h **** ****************************************************************************//**
 882:Generated_Source\PSoC6\pdl\drivers\peripheral\smif/cy_smif.h **** *
 883:Generated_Source\PSoC6\pdl\drivers\peripheral\smif/cy_smif.h **** * This function is used to set a trigger level for the RX FIFO. This value must
 884:Generated_Source\PSoC6\pdl\drivers\peripheral\smif/cy_smif.h **** * be an integer between 0 and 7. For the normal mode only.
 885:Generated_Source\PSoC6\pdl\drivers\peripheral\smif/cy_smif.h **** * The triggering is active when RX_DATA_FIFOSTATUS > level.
 886:Generated_Source\PSoC6\pdl\drivers\peripheral\smif/cy_smif.h **** *
 887:Generated_Source\PSoC6\pdl\drivers\peripheral\smif/cy_smif.h **** * \param base
 888:Generated_Source\PSoC6\pdl\drivers\peripheral\smif/cy_smif.h **** * Holds the base address of the SMIF block registers.
 889:Generated_Source\PSoC6\pdl\drivers\peripheral\smif/cy_smif.h **** *
 890:Generated_Source\PSoC6\pdl\drivers\peripheral\smif/cy_smif.h **** * \param level
 891:Generated_Source\PSoC6\pdl\drivers\peripheral\smif/cy_smif.h **** * The trigger level to set(0-8).
 892:Generated_Source\PSoC6\pdl\drivers\peripheral\smif/cy_smif.h **** *
 893:Generated_Source\PSoC6\pdl\drivers\peripheral\smif/cy_smif.h **** *******************************************************************************/
 894:Generated_Source\PSoC6\pdl\drivers\peripheral\smif/cy_smif.h **** __STATIC_INLINE void  Cy_SMIF_SetRxFifoTriggerLevel(SMIF_Type *base, uint32_t level)
 895:Generated_Source\PSoC6\pdl\drivers\peripheral\smif/cy_smif.h **** {
 896:Generated_Source\PSoC6\pdl\drivers\peripheral\smif/cy_smif.h ****     CY_ASSERT_L2(level <= CY_SMIF_MAX_RX_TR_LEVEL);
 897:Generated_Source\PSoC6\pdl\drivers\peripheral\smif/cy_smif.h ****     base->RX_DATA_FIFO_CTL = level;
 898:Generated_Source\PSoC6\pdl\drivers\peripheral\smif/cy_smif.h **** }
 899:Generated_Source\PSoC6\pdl\drivers\peripheral\smif/cy_smif.h **** 
 900:Generated_Source\PSoC6\pdl\drivers\peripheral\smif/cy_smif.h **** 
 901:Generated_Source\PSoC6\pdl\drivers\peripheral\smif/cy_smif.h **** /*******************************************************************************
 902:Generated_Source\PSoC6\pdl\drivers\peripheral\smif/cy_smif.h **** * Function Name: Cy_SMIF_GetCmdFifoStatus()
 903:Generated_Source\PSoC6\pdl\drivers\peripheral\smif/cy_smif.h **** ****************************************************************************//**
 904:Generated_Source\PSoC6\pdl\drivers\peripheral\smif/cy_smif.h **** *
 905:Generated_Source\PSoC6\pdl\drivers\peripheral\smif/cy_smif.h **** * This function is used to read the status of the CMD FIFO.
 906:Generated_Source\PSoC6\pdl\drivers\peripheral\smif/cy_smif.h **** *
 907:Generated_Source\PSoC6\pdl\drivers\peripheral\smif/cy_smif.h **** * \param base
 908:Generated_Source\PSoC6\pdl\drivers\peripheral\smif/cy_smif.h **** * Holds the base address of the SMIF block registers.
 909:Generated_Source\PSoC6\pdl\drivers\peripheral\smif/cy_smif.h **** *
 910:Generated_Source\PSoC6\pdl\drivers\peripheral\smif/cy_smif.h **** * \return Returns the number of the entries in the CMD FIFO.
 911:Generated_Source\PSoC6\pdl\drivers\peripheral\smif/cy_smif.h **** *
 912:Generated_Source\PSoC6\pdl\drivers\peripheral\smif/cy_smif.h **** *******************************************************************************/
 913:Generated_Source\PSoC6\pdl\drivers\peripheral\smif/cy_smif.h **** __STATIC_INLINE uint32_t  Cy_SMIF_GetCmdFifoStatus(SMIF_Type const *base)
 914:Generated_Source\PSoC6\pdl\drivers\peripheral\smif/cy_smif.h **** {
 147              		.loc 1 914 0
 148              		.cfi_startproc
 149              		@ args = 0, pretend = 0, frame = 8
 150              		@ frame_needed = 1, uses_anonymous_args = 0
 151              		@ link register save eliminated.
 152 0000 80B4     		push	{r7}
 153              		.cfi_def_cfa_offset 4
 154              		.cfi_offset 7, -4
 155 0002 83B0     		sub	sp, sp, #12
 156              		.cfi_def_cfa_offset 16
 157 0004 00AF     		add	r7, sp, #0
 158              		.cfi_def_cfa_register 7
 159 0006 7860     		str	r0, [r7, #4]
 915:Generated_Source\PSoC6\pdl\drivers\peripheral\smif/cy_smif.h ****   return (_FLD2VAL(SMIF_TX_CMD_FIFO_STATUS_USED3, base->TX_CMD_FIFO_STATUS));
 160              		.loc 1 915 0
 161 0008 7B68     		ldr	r3, [r7, #4]
 162 000a 5B6C     		ldr	r3, [r3, #68]
 163 000c 03F00703 		and	r3, r3, #7
 916:Generated_Source\PSoC6\pdl\drivers\peripheral\smif/cy_smif.h **** }
 164              		.loc 1 916 0
 165 0010 1846     		mov	r0, r3
 166 0012 0C37     		adds	r7, r7, #12
 167              		.cfi_def_cfa_offset 4
ARM GAS  C:\Users\ikomb\AppData\Local\Temp\ccEKz2Td.s 			page 20


 168 0014 BD46     		mov	sp, r7
 169              		.cfi_def_cfa_register 13
 170              		@ sp needed
 171 0016 5DF8047B 		ldr	r7, [sp], #4
 172              		.cfi_restore 7
 173              		.cfi_def_cfa_offset 0
 174 001a 7047     		bx	lr
 175              		.cfi_endproc
 176              	.LFE167:
 177              		.size	Cy_SMIF_GetCmdFifoStatus, .-Cy_SMIF_GetCmdFifoStatus
 178              		.section	.text.Cy_SMIF_GetTxFifoStatus,"ax",%progbits
 179              		.align	2
 180              		.thumb
 181              		.thumb_func
 182              		.type	Cy_SMIF_GetTxFifoStatus, %function
 183              	Cy_SMIF_GetTxFifoStatus:
 184              	.LFB168:
 917:Generated_Source\PSoC6\pdl\drivers\peripheral\smif/cy_smif.h **** 
 918:Generated_Source\PSoC6\pdl\drivers\peripheral\smif/cy_smif.h **** 
 919:Generated_Source\PSoC6\pdl\drivers\peripheral\smif/cy_smif.h **** /*******************************************************************************
 920:Generated_Source\PSoC6\pdl\drivers\peripheral\smif/cy_smif.h **** * Function Name: Cy_SMIF_GetTxFifoStatus()
 921:Generated_Source\PSoC6\pdl\drivers\peripheral\smif/cy_smif.h **** ****************************************************************************//**
 922:Generated_Source\PSoC6\pdl\drivers\peripheral\smif/cy_smif.h **** *
 923:Generated_Source\PSoC6\pdl\drivers\peripheral\smif/cy_smif.h **** * This function is used to read the status of the TX FIFO.
 924:Generated_Source\PSoC6\pdl\drivers\peripheral\smif/cy_smif.h **** *
 925:Generated_Source\PSoC6\pdl\drivers\peripheral\smif/cy_smif.h **** * \param base
 926:Generated_Source\PSoC6\pdl\drivers\peripheral\smif/cy_smif.h **** * Holds the base address of the SMIF block registers.
 927:Generated_Source\PSoC6\pdl\drivers\peripheral\smif/cy_smif.h **** *
 928:Generated_Source\PSoC6\pdl\drivers\peripheral\smif/cy_smif.h **** * \return Returns the number of the entries in the TX FIFO.
 929:Generated_Source\PSoC6\pdl\drivers\peripheral\smif/cy_smif.h **** *
 930:Generated_Source\PSoC6\pdl\drivers\peripheral\smif/cy_smif.h **** *******************************************************************************/
 931:Generated_Source\PSoC6\pdl\drivers\peripheral\smif/cy_smif.h **** __STATIC_INLINE uint32_t  Cy_SMIF_GetTxFifoStatus(SMIF_Type const *base)
 932:Generated_Source\PSoC6\pdl\drivers\peripheral\smif/cy_smif.h **** {
 185              		.loc 1 932 0
 186              		.cfi_startproc
 187              		@ args = 0, pretend = 0, frame = 8
 188              		@ frame_needed = 1, uses_anonymous_args = 0
 189              		@ link register save eliminated.
 190 0000 80B4     		push	{r7}
 191              		.cfi_def_cfa_offset 4
 192              		.cfi_offset 7, -4
 193 0002 83B0     		sub	sp, sp, #12
 194              		.cfi_def_cfa_offset 16
 195 0004 00AF     		add	r7, sp, #0
 196              		.cfi_def_cfa_register 7
 197 0006 7860     		str	r0, [r7, #4]
 933:Generated_Source\PSoC6\pdl\drivers\peripheral\smif/cy_smif.h ****   return (_FLD2VAL(SMIF_TX_DATA_FIFO_STATUS_USED4, base->TX_DATA_FIFO_STATUS));
 198              		.loc 1 933 0
 199 0008 7B68     		ldr	r3, [r7, #4]
 200 000a D3F88430 		ldr	r3, [r3, #132]
 201 000e 03F00F03 		and	r3, r3, #15
 934:Generated_Source\PSoC6\pdl\drivers\peripheral\smif/cy_smif.h **** }
 202              		.loc 1 934 0
 203 0012 1846     		mov	r0, r3
 204 0014 0C37     		adds	r7, r7, #12
 205              		.cfi_def_cfa_offset 4
 206 0016 BD46     		mov	sp, r7
ARM GAS  C:\Users\ikomb\AppData\Local\Temp\ccEKz2Td.s 			page 21


 207              		.cfi_def_cfa_register 13
 208              		@ sp needed
 209 0018 5DF8047B 		ldr	r7, [sp], #4
 210              		.cfi_restore 7
 211              		.cfi_def_cfa_offset 0
 212 001c 7047     		bx	lr
 213              		.cfi_endproc
 214              	.LFE168:
 215              		.size	Cy_SMIF_GetTxFifoStatus, .-Cy_SMIF_GetTxFifoStatus
 216 001e 00BF     		.section	.text.Cy_SMIF_GetRxFifoStatus,"ax",%progbits
 217              		.align	2
 218              		.thumb
 219              		.thumb_func
 220              		.type	Cy_SMIF_GetRxFifoStatus, %function
 221              	Cy_SMIF_GetRxFifoStatus:
 222              	.LFB169:
 935:Generated_Source\PSoC6\pdl\drivers\peripheral\smif/cy_smif.h **** 
 936:Generated_Source\PSoC6\pdl\drivers\peripheral\smif/cy_smif.h **** 
 937:Generated_Source\PSoC6\pdl\drivers\peripheral\smif/cy_smif.h **** /*******************************************************************************
 938:Generated_Source\PSoC6\pdl\drivers\peripheral\smif/cy_smif.h **** * Function Name: Cy_SMIF_GetRxFifoStatus()
 939:Generated_Source\PSoC6\pdl\drivers\peripheral\smif/cy_smif.h **** ****************************************************************************//**
 940:Generated_Source\PSoC6\pdl\drivers\peripheral\smif/cy_smif.h **** *
 941:Generated_Source\PSoC6\pdl\drivers\peripheral\smif/cy_smif.h **** * This function is used to read the status of the RX FIFO.
 942:Generated_Source\PSoC6\pdl\drivers\peripheral\smif/cy_smif.h **** *
 943:Generated_Source\PSoC6\pdl\drivers\peripheral\smif/cy_smif.h **** * \param base
 944:Generated_Source\PSoC6\pdl\drivers\peripheral\smif/cy_smif.h **** * Holds the base address of the SMIF block registers.
 945:Generated_Source\PSoC6\pdl\drivers\peripheral\smif/cy_smif.h **** *
 946:Generated_Source\PSoC6\pdl\drivers\peripheral\smif/cy_smif.h **** * \return Returns the number of the entries in the RX FIFO.
 947:Generated_Source\PSoC6\pdl\drivers\peripheral\smif/cy_smif.h **** *
 948:Generated_Source\PSoC6\pdl\drivers\peripheral\smif/cy_smif.h **** *******************************************************************************/
 949:Generated_Source\PSoC6\pdl\drivers\peripheral\smif/cy_smif.h **** __STATIC_INLINE uint32_t  Cy_SMIF_GetRxFifoStatus(SMIF_Type const *base)
 950:Generated_Source\PSoC6\pdl\drivers\peripheral\smif/cy_smif.h **** {
 223              		.loc 1 950 0
 224              		.cfi_startproc
 225              		@ args = 0, pretend = 0, frame = 8
 226              		@ frame_needed = 1, uses_anonymous_args = 0
 227              		@ link register save eliminated.
 228 0000 80B4     		push	{r7}
 229              		.cfi_def_cfa_offset 4
 230              		.cfi_offset 7, -4
 231 0002 83B0     		sub	sp, sp, #12
 232              		.cfi_def_cfa_offset 16
 233 0004 00AF     		add	r7, sp, #0
 234              		.cfi_def_cfa_register 7
 235 0006 7860     		str	r0, [r7, #4]
 951:Generated_Source\PSoC6\pdl\drivers\peripheral\smif/cy_smif.h ****   return (_FLD2VAL(SMIF_RX_DATA_FIFO_STATUS_USED4, base->RX_DATA_FIFO_STATUS));
 236              		.loc 1 951 0
 237 0008 7B68     		ldr	r3, [r7, #4]
 238 000a D3F8C430 		ldr	r3, [r3, #196]
 239 000e 03F00F03 		and	r3, r3, #15
 952:Generated_Source\PSoC6\pdl\drivers\peripheral\smif/cy_smif.h **** }
 240              		.loc 1 952 0
 241 0012 1846     		mov	r0, r3
 242 0014 0C37     		adds	r7, r7, #12
 243              		.cfi_def_cfa_offset 4
 244 0016 BD46     		mov	sp, r7
 245              		.cfi_def_cfa_register 13
ARM GAS  C:\Users\ikomb\AppData\Local\Temp\ccEKz2Td.s 			page 22


 246              		@ sp needed
 247 0018 5DF8047B 		ldr	r7, [sp], #4
 248              		.cfi_restore 7
 249              		.cfi_def_cfa_offset 0
 250 001c 7047     		bx	lr
 251              		.cfi_endproc
 252              	.LFE169:
 253              		.size	Cy_SMIF_GetRxFifoStatus, .-Cy_SMIF_GetRxFifoStatus
 254 001e 00BF     		.section	.text.Cy_SMIF_BusyCheck,"ax",%progbits
 255              		.align	2
 256              		.thumb
 257              		.thumb_func
 258              		.type	Cy_SMIF_BusyCheck, %function
 259              	Cy_SMIF_BusyCheck:
 260              	.LFB170:
 953:Generated_Source\PSoC6\pdl\drivers\peripheral\smif/cy_smif.h **** 
 954:Generated_Source\PSoC6\pdl\drivers\peripheral\smif/cy_smif.h **** 
 955:Generated_Source\PSoC6\pdl\drivers\peripheral\smif/cy_smif.h **** /*******************************************************************************
 956:Generated_Source\PSoC6\pdl\drivers\peripheral\smif/cy_smif.h **** * Function Name: Cy_SMIF_BusyCheck
 957:Generated_Source\PSoC6\pdl\drivers\peripheral\smif/cy_smif.h **** ****************************************************************************//**
 958:Generated_Source\PSoC6\pdl\drivers\peripheral\smif/cy_smif.h **** *
 959:Generated_Source\PSoC6\pdl\drivers\peripheral\smif/cy_smif.h **** * This function provides the status of the IP block (False - not busy,
 960:Generated_Source\PSoC6\pdl\drivers\peripheral\smif/cy_smif.h **** * True - busy).
 961:Generated_Source\PSoC6\pdl\drivers\peripheral\smif/cy_smif.h **** *
 962:Generated_Source\PSoC6\pdl\drivers\peripheral\smif/cy_smif.h **** * \param base
 963:Generated_Source\PSoC6\pdl\drivers\peripheral\smif/cy_smif.h **** * Holds the base address of the SMIF block registers.
 964:Generated_Source\PSoC6\pdl\drivers\peripheral\smif/cy_smif.h **** *
 965:Generated_Source\PSoC6\pdl\drivers\peripheral\smif/cy_smif.h **** * \return Returns an IP block status.
 966:Generated_Source\PSoC6\pdl\drivers\peripheral\smif/cy_smif.h **** *
 967:Generated_Source\PSoC6\pdl\drivers\peripheral\smif/cy_smif.h **** *******************************************************************************/
 968:Generated_Source\PSoC6\pdl\drivers\peripheral\smif/cy_smif.h **** __STATIC_INLINE bool Cy_SMIF_BusyCheck(SMIF_Type const *base)
 969:Generated_Source\PSoC6\pdl\drivers\peripheral\smif/cy_smif.h **** {
 261              		.loc 1 969 0
 262              		.cfi_startproc
 263              		@ args = 0, pretend = 0, frame = 8
 264              		@ frame_needed = 1, uses_anonymous_args = 0
 265              		@ link register save eliminated.
 266 0000 80B4     		push	{r7}
 267              		.cfi_def_cfa_offset 4
 268              		.cfi_offset 7, -4
 269 0002 83B0     		sub	sp, sp, #12
 270              		.cfi_def_cfa_offset 16
 271 0004 00AF     		add	r7, sp, #0
 272              		.cfi_def_cfa_register 7
 273 0006 7860     		str	r0, [r7, #4]
 970:Generated_Source\PSoC6\pdl\drivers\peripheral\smif/cy_smif.h ****   return (1ul == _FLD2VAL(SMIF_STATUS_BUSY, base->STATUS));
 274              		.loc 1 970 0
 275 0008 7B68     		ldr	r3, [r7, #4]
 276 000a 5B68     		ldr	r3, [r3, #4]
 277 000c 03F00043 		and	r3, r3, #-2147483648
 278 0010 DB0F     		lsrs	r3, r3, #31
 279 0012 012B     		cmp	r3, #1
 280 0014 0CBF     		ite	eq
 281 0016 0123     		moveq	r3, #1
 282 0018 0023     		movne	r3, #0
 283 001a DBB2     		uxtb	r3, r3
 971:Generated_Source\PSoC6\pdl\drivers\peripheral\smif/cy_smif.h **** }
ARM GAS  C:\Users\ikomb\AppData\Local\Temp\ccEKz2Td.s 			page 23


 284              		.loc 1 971 0
 285 001c 1846     		mov	r0, r3
 286 001e 0C37     		adds	r7, r7, #12
 287              		.cfi_def_cfa_offset 4
 288 0020 BD46     		mov	sp, r7
 289              		.cfi_def_cfa_register 13
 290              		@ sp needed
 291 0022 5DF8047B 		ldr	r7, [sp], #4
 292              		.cfi_restore 7
 293              		.cfi_def_cfa_offset 0
 294 0026 7047     		bx	lr
 295              		.cfi_endproc
 296              	.LFE170:
 297              		.size	Cy_SMIF_BusyCheck, .-Cy_SMIF_BusyCheck
 298              		.section	.text.Cy_SMIF_PushTxFifo,"ax",%progbits
 299              		.align	2
 300              		.thumb
 301              		.thumb_func
 302              		.type	Cy_SMIF_PushTxFifo, %function
 303              	Cy_SMIF_PushTxFifo:
 304              	.LFB172:
 972:Generated_Source\PSoC6\pdl\drivers\peripheral\smif/cy_smif.h **** 
 973:Generated_Source\PSoC6\pdl\drivers\peripheral\smif/cy_smif.h **** 
 974:Generated_Source\PSoC6\pdl\drivers\peripheral\smif/cy_smif.h **** /*******************************************************************************
 975:Generated_Source\PSoC6\pdl\drivers\peripheral\smif/cy_smif.h **** * Function Name: Cy_SMIF_Interrupt
 976:Generated_Source\PSoC6\pdl\drivers\peripheral\smif/cy_smif.h **** ****************************************************************************//**
 977:Generated_Source\PSoC6\pdl\drivers\peripheral\smif/cy_smif.h **** *
 978:Generated_Source\PSoC6\pdl\drivers\peripheral\smif/cy_smif.h **** * The Interrupt Service Routine for the SMIF. The interrupt code will be
 979:Generated_Source\PSoC6\pdl\drivers\peripheral\smif/cy_smif.h **** * responsible for the FIFO operations on FIFO interrupts during ongoing transfers.
 980:Generated_Source\PSoC6\pdl\drivers\peripheral\smif/cy_smif.h **** * The user must place a call to this interrupt function in the interrupt
 981:Generated_Source\PSoC6\pdl\drivers\peripheral\smif/cy_smif.h **** * routine corresponding to the interrupt attached to the SMIF. If the
 982:Generated_Source\PSoC6\pdl\drivers\peripheral\smif/cy_smif.h **** * user does not do this, will break: the functionality of all the API functions in
 983:Generated_Source\PSoC6\pdl\drivers\peripheral\smif/cy_smif.h **** * the SMIF driver that use SMIF interrupts to affect transfers.
 984:Generated_Source\PSoC6\pdl\drivers\peripheral\smif/cy_smif.h **** *
 985:Generated_Source\PSoC6\pdl\drivers\peripheral\smif/cy_smif.h **** * \param base
 986:Generated_Source\PSoC6\pdl\drivers\peripheral\smif/cy_smif.h **** * Holds the base address of the SMIF block registers.
 987:Generated_Source\PSoC6\pdl\drivers\peripheral\smif/cy_smif.h **** *
 988:Generated_Source\PSoC6\pdl\drivers\peripheral\smif/cy_smif.h **** * \param context
 989:Generated_Source\PSoC6\pdl\drivers\peripheral\smif/cy_smif.h **** * Passes a configuration structure that contains the transfer parameters of the
 990:Generated_Source\PSoC6\pdl\drivers\peripheral\smif/cy_smif.h **** * SMIF block.
 991:Generated_Source\PSoC6\pdl\drivers\peripheral\smif/cy_smif.h **** *
 992:Generated_Source\PSoC6\pdl\drivers\peripheral\smif/cy_smif.h **** * \globalvars
 993:Generated_Source\PSoC6\pdl\drivers\peripheral\smif/cy_smif.h **** *  - context->txBufferAddress - The pointer to the data to be transferred.
 994:Generated_Source\PSoC6\pdl\drivers\peripheral\smif/cy_smif.h **** *
 995:Generated_Source\PSoC6\pdl\drivers\peripheral\smif/cy_smif.h **** *  - context->txBufferSize - The size of txBuffer.
 996:Generated_Source\PSoC6\pdl\drivers\peripheral\smif/cy_smif.h **** *
 997:Generated_Source\PSoC6\pdl\drivers\peripheral\smif/cy_smif.h **** *  - context->txBufferCounter - The number of data entries left to be transferred.
 998:Generated_Source\PSoC6\pdl\drivers\peripheral\smif/cy_smif.h **** *
 999:Generated_Source\PSoC6\pdl\drivers\peripheral\smif/cy_smif.h **** * All the Global variables described above are used when the Software Buffer is
1000:Generated_Source\PSoC6\pdl\drivers\peripheral\smif/cy_smif.h **** * used.
1001:Generated_Source\PSoC6\pdl\drivers\peripheral\smif/cy_smif.h **** *
1002:Generated_Source\PSoC6\pdl\drivers\peripheral\smif/cy_smif.h **** *******************************************************************************/
1003:Generated_Source\PSoC6\pdl\drivers\peripheral\smif/cy_smif.h **** __STATIC_INLINE void Cy_SMIF_Interrupt(SMIF_Type *base, cy_stc_smif_context_t *context)
1004:Generated_Source\PSoC6\pdl\drivers\peripheral\smif/cy_smif.h **** {
1005:Generated_Source\PSoC6\pdl\drivers\peripheral\smif/cy_smif.h ****     uint32_t interruptStatus = Cy_SMIF_GetInterruptStatusMasked(base);
1006:Generated_Source\PSoC6\pdl\drivers\peripheral\smif/cy_smif.h **** 
1007:Generated_Source\PSoC6\pdl\drivers\peripheral\smif/cy_smif.h ****     /* Check which interrupt occurred */
ARM GAS  C:\Users\ikomb\AppData\Local\Temp\ccEKz2Td.s 			page 24


1008:Generated_Source\PSoC6\pdl\drivers\peripheral\smif/cy_smif.h ****     if (0U != (interruptStatus & SMIF_INTR_TR_TX_REQ_Msk))
1009:Generated_Source\PSoC6\pdl\drivers\peripheral\smif/cy_smif.h ****     {
1010:Generated_Source\PSoC6\pdl\drivers\peripheral\smif/cy_smif.h ****         /* Send data */
1011:Generated_Source\PSoC6\pdl\drivers\peripheral\smif/cy_smif.h ****         Cy_SMIF_PushTxFifo(base, context);
1012:Generated_Source\PSoC6\pdl\drivers\peripheral\smif/cy_smif.h **** 
1013:Generated_Source\PSoC6\pdl\drivers\peripheral\smif/cy_smif.h ****         Cy_SMIF_ClearInterrupt(base, SMIF_INTR_TR_TX_REQ_Msk);
1014:Generated_Source\PSoC6\pdl\drivers\peripheral\smif/cy_smif.h ****     }
1015:Generated_Source\PSoC6\pdl\drivers\peripheral\smif/cy_smif.h ****     else if (0U != (interruptStatus & SMIF_INTR_TR_RX_REQ_Msk))
1016:Generated_Source\PSoC6\pdl\drivers\peripheral\smif/cy_smif.h ****     {
1017:Generated_Source\PSoC6\pdl\drivers\peripheral\smif/cy_smif.h ****         /* Receive data */
1018:Generated_Source\PSoC6\pdl\drivers\peripheral\smif/cy_smif.h ****         Cy_SMIF_PopRxFifo(base, context);
1019:Generated_Source\PSoC6\pdl\drivers\peripheral\smif/cy_smif.h **** 
1020:Generated_Source\PSoC6\pdl\drivers\peripheral\smif/cy_smif.h ****         Cy_SMIF_ClearInterrupt(base, SMIF_INTR_TR_RX_REQ_Msk);
1021:Generated_Source\PSoC6\pdl\drivers\peripheral\smif/cy_smif.h ****     }
1022:Generated_Source\PSoC6\pdl\drivers\peripheral\smif/cy_smif.h ****     else if (0U != (interruptStatus & SMIF_INTR_XIP_ALIGNMENT_ERROR_Msk))
1023:Generated_Source\PSoC6\pdl\drivers\peripheral\smif/cy_smif.h ****     {
1024:Generated_Source\PSoC6\pdl\drivers\peripheral\smif/cy_smif.h ****         /* An XIP alignment error */
1025:Generated_Source\PSoC6\pdl\drivers\peripheral\smif/cy_smif.h ****         context->transferStatus = (uint32_t) CY_SMIF_XIP_ERROR;
1026:Generated_Source\PSoC6\pdl\drivers\peripheral\smif/cy_smif.h **** 
1027:Generated_Source\PSoC6\pdl\drivers\peripheral\smif/cy_smif.h ****         Cy_SMIF_ClearInterrupt(base, SMIF_INTR_XIP_ALIGNMENT_ERROR_Msk);
1028:Generated_Source\PSoC6\pdl\drivers\peripheral\smif/cy_smif.h ****     }
1029:Generated_Source\PSoC6\pdl\drivers\peripheral\smif/cy_smif.h **** 
1030:Generated_Source\PSoC6\pdl\drivers\peripheral\smif/cy_smif.h ****     else if (0U != (interruptStatus & SMIF_INTR_TX_CMD_FIFO_OVERFLOW_Msk))
1031:Generated_Source\PSoC6\pdl\drivers\peripheral\smif/cy_smif.h ****     {
1032:Generated_Source\PSoC6\pdl\drivers\peripheral\smif/cy_smif.h ****         /* TX CMD FIFO overflow */
1033:Generated_Source\PSoC6\pdl\drivers\peripheral\smif/cy_smif.h ****         context->transferStatus = (uint32_t) CY_SMIF_CMD_ERROR;
1034:Generated_Source\PSoC6\pdl\drivers\peripheral\smif/cy_smif.h **** 
1035:Generated_Source\PSoC6\pdl\drivers\peripheral\smif/cy_smif.h ****         Cy_SMIF_ClearInterrupt(base, SMIF_INTR_TX_CMD_FIFO_OVERFLOW_Msk);
1036:Generated_Source\PSoC6\pdl\drivers\peripheral\smif/cy_smif.h ****     }
1037:Generated_Source\PSoC6\pdl\drivers\peripheral\smif/cy_smif.h **** 
1038:Generated_Source\PSoC6\pdl\drivers\peripheral\smif/cy_smif.h ****     else if (0U != (interruptStatus & SMIF_INTR_TX_DATA_FIFO_OVERFLOW_Msk))
1039:Generated_Source\PSoC6\pdl\drivers\peripheral\smif/cy_smif.h ****     {
1040:Generated_Source\PSoC6\pdl\drivers\peripheral\smif/cy_smif.h ****         /* A TX DATA FIFO overflow */
1041:Generated_Source\PSoC6\pdl\drivers\peripheral\smif/cy_smif.h ****         context->transferStatus = (uint32_t) CY_SMIF_TX_ERROR;
1042:Generated_Source\PSoC6\pdl\drivers\peripheral\smif/cy_smif.h **** 
1043:Generated_Source\PSoC6\pdl\drivers\peripheral\smif/cy_smif.h ****         Cy_SMIF_ClearInterrupt(base, SMIF_INTR_TX_DATA_FIFO_OVERFLOW_Msk);
1044:Generated_Source\PSoC6\pdl\drivers\peripheral\smif/cy_smif.h ****     }
1045:Generated_Source\PSoC6\pdl\drivers\peripheral\smif/cy_smif.h **** 
1046:Generated_Source\PSoC6\pdl\drivers\peripheral\smif/cy_smif.h ****     else if (0U != (interruptStatus & SMIF_INTR_RX_DATA_FIFO_UNDERFLOW_Msk))
1047:Generated_Source\PSoC6\pdl\drivers\peripheral\smif/cy_smif.h ****     {
1048:Generated_Source\PSoC6\pdl\drivers\peripheral\smif/cy_smif.h ****         /* RX DATA FIFO underflow */
1049:Generated_Source\PSoC6\pdl\drivers\peripheral\smif/cy_smif.h ****         context->transferStatus = (uint32_t) CY_SMIF_RX_ERROR;
1050:Generated_Source\PSoC6\pdl\drivers\peripheral\smif/cy_smif.h **** 
1051:Generated_Source\PSoC6\pdl\drivers\peripheral\smif/cy_smif.h ****         Cy_SMIF_ClearInterrupt(base, SMIF_INTR_RX_DATA_FIFO_UNDERFLOW_Msk);
1052:Generated_Source\PSoC6\pdl\drivers\peripheral\smif/cy_smif.h ****     }
1053:Generated_Source\PSoC6\pdl\drivers\peripheral\smif/cy_smif.h ****     else
1054:Generated_Source\PSoC6\pdl\drivers\peripheral\smif/cy_smif.h ****     {
1055:Generated_Source\PSoC6\pdl\drivers\peripheral\smif/cy_smif.h ****         /* Processing of errors */
1056:Generated_Source\PSoC6\pdl\drivers\peripheral\smif/cy_smif.h ****     }
1057:Generated_Source\PSoC6\pdl\drivers\peripheral\smif/cy_smif.h **** }
1058:Generated_Source\PSoC6\pdl\drivers\peripheral\smif/cy_smif.h **** 
1059:Generated_Source\PSoC6\pdl\drivers\peripheral\smif/cy_smif.h **** 
1060:Generated_Source\PSoC6\pdl\drivers\peripheral\smif/cy_smif.h **** /***************************************
1061:Generated_Source\PSoC6\pdl\drivers\peripheral\smif/cy_smif.h **** *  Internal SMIF in-line functions
1062:Generated_Source\PSoC6\pdl\drivers\peripheral\smif/cy_smif.h **** ****************************************/
1063:Generated_Source\PSoC6\pdl\drivers\peripheral\smif/cy_smif.h **** 
1064:Generated_Source\PSoC6\pdl\drivers\peripheral\smif/cy_smif.h **** /** \cond INTERNAL */
ARM GAS  C:\Users\ikomb\AppData\Local\Temp\ccEKz2Td.s 			page 25


1065:Generated_Source\PSoC6\pdl\drivers\peripheral\smif/cy_smif.h **** 
1066:Generated_Source\PSoC6\pdl\drivers\peripheral\smif/cy_smif.h **** /*******************************************************************************
1067:Generated_Source\PSoC6\pdl\drivers\peripheral\smif/cy_smif.h **** * Function Name: Cy_SMIF_PushTxFifo
1068:Generated_Source\PSoC6\pdl\drivers\peripheral\smif/cy_smif.h **** ***************************************************************************//***
1069:Generated_Source\PSoC6\pdl\drivers\peripheral\smif/cy_smif.h **** *
1070:Generated_Source\PSoC6\pdl\drivers\peripheral\smif/cy_smif.h **** * \internal
1071:Generated_Source\PSoC6\pdl\drivers\peripheral\smif/cy_smif.h **** *
1072:Generated_Source\PSoC6\pdl\drivers\peripheral\smif/cy_smif.h **** * \param baseaddr
1073:Generated_Source\PSoC6\pdl\drivers\peripheral\smif/cy_smif.h **** * Holds the base address of the SMIF block registers.
1074:Generated_Source\PSoC6\pdl\drivers\peripheral\smif/cy_smif.h **** *
1075:Generated_Source\PSoC6\pdl\drivers\peripheral\smif/cy_smif.h **** * \param context
1076:Generated_Source\PSoC6\pdl\drivers\peripheral\smif/cy_smif.h **** * Passes a configuration structure that contains the transfer parameters of the
1077:Generated_Source\PSoC6\pdl\drivers\peripheral\smif/cy_smif.h **** * SMIF block.
1078:Generated_Source\PSoC6\pdl\drivers\peripheral\smif/cy_smif.h **** *
1079:Generated_Source\PSoC6\pdl\drivers\peripheral\smif/cy_smif.h **** * This function writes data in the TX FIFO SMIF buffer by 4, 2, or 1 bytes based
1080:Generated_Source\PSoC6\pdl\drivers\peripheral\smif/cy_smif.h **** * on the residual number of bytes and the available space in the TX FIFO.
1081:Generated_Source\PSoC6\pdl\drivers\peripheral\smif/cy_smif.h **** *
1082:Generated_Source\PSoC6\pdl\drivers\peripheral\smif/cy_smif.h **** *******************************************************************************/
1083:Generated_Source\PSoC6\pdl\drivers\peripheral\smif/cy_smif.h **** __STATIC_INLINE void Cy_SMIF_PushTxFifo(SMIF_Type *baseaddr, cy_stc_smif_context_t *context)
1084:Generated_Source\PSoC6\pdl\drivers\peripheral\smif/cy_smif.h **** {
 305              		.loc 1 1084 0
 306              		.cfi_startproc
 307              		@ args = 0, pretend = 0, frame = 24
 308              		@ frame_needed = 1, uses_anonymous_args = 0
 309 0000 80B5     		push	{r7, lr}
 310              		.cfi_def_cfa_offset 8
 311              		.cfi_offset 7, -8
 312              		.cfi_offset 14, -4
 313 0002 86B0     		sub	sp, sp, #24
 314              		.cfi_def_cfa_offset 32
 315 0004 00AF     		add	r7, sp, #0
 316              		.cfi_def_cfa_register 7
 317 0006 7860     		str	r0, [r7, #4]
 318 0008 3960     		str	r1, [r7]
1085:Generated_Source\PSoC6\pdl\drivers\peripheral\smif/cy_smif.h ****     /* The variable that shows which is smaller: the free FIFO size or amount of bytes to be sent *
1086:Generated_Source\PSoC6\pdl\drivers\peripheral\smif/cy_smif.h ****     uint32_t writeBytes;
1087:Generated_Source\PSoC6\pdl\drivers\peripheral\smif/cy_smif.h ****     uint32_t freeFifoBytes;
1088:Generated_Source\PSoC6\pdl\drivers\peripheral\smif/cy_smif.h ****     uint32_t buffCounter = context->txBufferCounter;
 319              		.loc 1 1088 0
 320 000a 3B68     		ldr	r3, [r7]
 321 000c 9B68     		ldr	r3, [r3, #8]
 322 000e 3B61     		str	r3, [r7, #16]
1089:Generated_Source\PSoC6\pdl\drivers\peripheral\smif/cy_smif.h ****     uint8_t *buff = (uint8_t*) context->txBufferAddress;
 323              		.loc 1 1089 0
 324 0010 3B68     		ldr	r3, [r7]
 325 0012 1B68     		ldr	r3, [r3]
 326 0014 FB60     		str	r3, [r7, #12]
1090:Generated_Source\PSoC6\pdl\drivers\peripheral\smif/cy_smif.h **** 
1091:Generated_Source\PSoC6\pdl\drivers\peripheral\smif/cy_smif.h ****     freeFifoBytes = CY_SMIF_TX_DATA_FIFO_STATUS_RANGE - Cy_SMIF_GetTxFifoStatus(baseaddr);
 327              		.loc 1 1091 0
 328 0016 7868     		ldr	r0, [r7, #4]
 329 0018 FFF7FEFF 		bl	Cy_SMIF_GetTxFifoStatus
 330 001c 0346     		mov	r3, r0
 331 001e C3F10803 		rsb	r3, r3, #8
 332 0022 BB60     		str	r3, [r7, #8]
1092:Generated_Source\PSoC6\pdl\drivers\peripheral\smif/cy_smif.h ****     writeBytes = (freeFifoBytes > buffCounter)? buffCounter: freeFifoBytes;
 333              		.loc 1 1092 0
ARM GAS  C:\Users\ikomb\AppData\Local\Temp\ccEKz2Td.s 			page 26


 334 0024 BA68     		ldr	r2, [r7, #8]
 335 0026 3B69     		ldr	r3, [r7, #16]
 336 0028 9342     		cmp	r3, r2
 337 002a 28BF     		it	cs
 338 002c 1346     		movcs	r3, r2
 339 002e 7B61     		str	r3, [r7, #20]
1093:Generated_Source\PSoC6\pdl\drivers\peripheral\smif/cy_smif.h **** 
1094:Generated_Source\PSoC6\pdl\drivers\peripheral\smif/cy_smif.h ****     /* Check that after a FIFO Write, no data/FIFO space remains */
1095:Generated_Source\PSoC6\pdl\drivers\peripheral\smif/cy_smif.h ****     while (0U != writeBytes)
 340              		.loc 1 1095 0
 341 0030 B9E0     		b	.L14
 342              	.L24:
1096:Generated_Source\PSoC6\pdl\drivers\peripheral\smif/cy_smif.h ****     {
1097:Generated_Source\PSoC6\pdl\drivers\peripheral\smif/cy_smif.h ****         /* The first main use case for long transfers */
1098:Generated_Source\PSoC6\pdl\drivers\peripheral\smif/cy_smif.h ****         if (writeBytes == CY_SMIF_EIGHT_BYTES)
 343              		.loc 1 1098 0
 344 0032 7B69     		ldr	r3, [r7, #20]
 345 0034 082B     		cmp	r3, #8
 346 0036 12D1     		bne	.L15
1099:Generated_Source\PSoC6\pdl\drivers\peripheral\smif/cy_smif.h ****         {
1100:Generated_Source\PSoC6\pdl\drivers\peripheral\smif/cy_smif.h ****             baseaddr->TX_DATA_FIFO_WR4 = Cy_SMIF_PackBytesArray(&buff[0U], true);
 347              		.loc 1 1100 0
 348 0038 0121     		movs	r1, #1
 349 003a F868     		ldr	r0, [r7, #12]
 350 003c FFF7FEFF 		bl	Cy_SMIF_PackBytesArray
 351 0040 0246     		mov	r2, r0
 352 0042 7B68     		ldr	r3, [r7, #4]
 353 0044 C3F89820 		str	r2, [r3, #152]
1101:Generated_Source\PSoC6\pdl\drivers\peripheral\smif/cy_smif.h ****             baseaddr->TX_DATA_FIFO_WR4 = Cy_SMIF_PackBytesArray(&buff[4U], true);
 354              		.loc 1 1101 0
 355 0048 FB68     		ldr	r3, [r7, #12]
 356 004a 0433     		adds	r3, r3, #4
 357 004c 0121     		movs	r1, #1
 358 004e 1846     		mov	r0, r3
 359 0050 FFF7FEFF 		bl	Cy_SMIF_PackBytesArray
 360 0054 0246     		mov	r2, r0
 361 0056 7B68     		ldr	r3, [r7, #4]
 362 0058 C3F89820 		str	r2, [r3, #152]
 363 005c 8EE0     		b	.L16
 364              	.L15:
1102:Generated_Source\PSoC6\pdl\drivers\peripheral\smif/cy_smif.h ****         }
1103:Generated_Source\PSoC6\pdl\drivers\peripheral\smif/cy_smif.h ****         /* The second main use case for short transfers */
1104:Generated_Source\PSoC6\pdl\drivers\peripheral\smif/cy_smif.h ****         else if(writeBytes == CY_SMIF_ONE_BYTE)
 365              		.loc 1 1104 0
 366 005e 7B69     		ldr	r3, [r7, #20]
 367 0060 012B     		cmp	r3, #1
 368 0062 06D1     		bne	.L17
1105:Generated_Source\PSoC6\pdl\drivers\peripheral\smif/cy_smif.h ****         {
1106:Generated_Source\PSoC6\pdl\drivers\peripheral\smif/cy_smif.h ****             baseaddr->TX_DATA_FIFO_WR1 = buff[0U];
 369              		.loc 1 1106 0
 370 0064 FB68     		ldr	r3, [r7, #12]
 371 0066 1B78     		ldrb	r3, [r3]	@ zero_extendqisi2
 372 0068 1A46     		mov	r2, r3
 373 006a 7B68     		ldr	r3, [r7, #4]
 374 006c C3F89020 		str	r2, [r3, #144]
 375 0070 84E0     		b	.L16
 376              	.L17:
ARM GAS  C:\Users\ikomb\AppData\Local\Temp\ccEKz2Td.s 			page 27


1107:Generated_Source\PSoC6\pdl\drivers\peripheral\smif/cy_smif.h ****         }
1108:Generated_Source\PSoC6\pdl\drivers\peripheral\smif/cy_smif.h ****         else if(writeBytes == CY_SMIF_TWO_BYTES)
 377              		.loc 1 1108 0
 378 0072 7B69     		ldr	r3, [r7, #20]
 379 0074 022B     		cmp	r3, #2
 380 0076 08D1     		bne	.L18
1109:Generated_Source\PSoC6\pdl\drivers\peripheral\smif/cy_smif.h ****         {
1110:Generated_Source\PSoC6\pdl\drivers\peripheral\smif/cy_smif.h ****             baseaddr->TX_DATA_FIFO_WR2 = Cy_SMIF_PackBytesArray(&buff[0U], false);
 381              		.loc 1 1110 0
 382 0078 0021     		movs	r1, #0
 383 007a F868     		ldr	r0, [r7, #12]
 384 007c FFF7FEFF 		bl	Cy_SMIF_PackBytesArray
 385 0080 0246     		mov	r2, r0
 386 0082 7B68     		ldr	r3, [r7, #4]
 387 0084 C3F89420 		str	r2, [r3, #148]
 388 0088 78E0     		b	.L16
 389              	.L18:
1111:Generated_Source\PSoC6\pdl\drivers\peripheral\smif/cy_smif.h ****         }
1112:Generated_Source\PSoC6\pdl\drivers\peripheral\smif/cy_smif.h ****         else if(writeBytes == CY_SMIF_THREE_BYTES)
 390              		.loc 1 1112 0
 391 008a 7B69     		ldr	r3, [r7, #20]
 392 008c 032B     		cmp	r3, #3
 393 008e 0FD1     		bne	.L19
1113:Generated_Source\PSoC6\pdl\drivers\peripheral\smif/cy_smif.h ****         {
1114:Generated_Source\PSoC6\pdl\drivers\peripheral\smif/cy_smif.h ****             baseaddr->TX_DATA_FIFO_WR2 = Cy_SMIF_PackBytesArray(&buff[0U], false);
 394              		.loc 1 1114 0
 395 0090 0021     		movs	r1, #0
 396 0092 F868     		ldr	r0, [r7, #12]
 397 0094 FFF7FEFF 		bl	Cy_SMIF_PackBytesArray
 398 0098 0246     		mov	r2, r0
 399 009a 7B68     		ldr	r3, [r7, #4]
 400 009c C3F89420 		str	r2, [r3, #148]
1115:Generated_Source\PSoC6\pdl\drivers\peripheral\smif/cy_smif.h ****             baseaddr->TX_DATA_FIFO_WR1 = buff[2U];
 401              		.loc 1 1115 0
 402 00a0 FB68     		ldr	r3, [r7, #12]
 403 00a2 0233     		adds	r3, r3, #2
 404 00a4 1B78     		ldrb	r3, [r3]	@ zero_extendqisi2
 405 00a6 1A46     		mov	r2, r3
 406 00a8 7B68     		ldr	r3, [r7, #4]
 407 00aa C3F89020 		str	r2, [r3, #144]
 408 00ae 65E0     		b	.L16
 409              	.L19:
1116:Generated_Source\PSoC6\pdl\drivers\peripheral\smif/cy_smif.h ****         }
1117:Generated_Source\PSoC6\pdl\drivers\peripheral\smif/cy_smif.h ****         else if(writeBytes == CY_SMIF_FOUR_BYTES)
 410              		.loc 1 1117 0
 411 00b0 7B69     		ldr	r3, [r7, #20]
 412 00b2 042B     		cmp	r3, #4
 413 00b4 08D1     		bne	.L20
1118:Generated_Source\PSoC6\pdl\drivers\peripheral\smif/cy_smif.h ****         {
1119:Generated_Source\PSoC6\pdl\drivers\peripheral\smif/cy_smif.h ****             baseaddr->TX_DATA_FIFO_WR4 = Cy_SMIF_PackBytesArray(&buff[0U], true);
 414              		.loc 1 1119 0
 415 00b6 0121     		movs	r1, #1
 416 00b8 F868     		ldr	r0, [r7, #12]
 417 00ba FFF7FEFF 		bl	Cy_SMIF_PackBytesArray
 418 00be 0246     		mov	r2, r0
 419 00c0 7B68     		ldr	r3, [r7, #4]
 420 00c2 C3F89820 		str	r2, [r3, #152]
ARM GAS  C:\Users\ikomb\AppData\Local\Temp\ccEKz2Td.s 			page 28


 421 00c6 59E0     		b	.L16
 422              	.L20:
1120:Generated_Source\PSoC6\pdl\drivers\peripheral\smif/cy_smif.h ****         }
1121:Generated_Source\PSoC6\pdl\drivers\peripheral\smif/cy_smif.h ****         else if(writeBytes == CY_SMIF_FIVE_BYTES)
 423              		.loc 1 1121 0
 424 00c8 7B69     		ldr	r3, [r7, #20]
 425 00ca 052B     		cmp	r3, #5
 426 00cc 0FD1     		bne	.L21
1122:Generated_Source\PSoC6\pdl\drivers\peripheral\smif/cy_smif.h ****         {
1123:Generated_Source\PSoC6\pdl\drivers\peripheral\smif/cy_smif.h ****             baseaddr->TX_DATA_FIFO_WR4 = Cy_SMIF_PackBytesArray(&buff[0U], true);
 427              		.loc 1 1123 0
 428 00ce 0121     		movs	r1, #1
 429 00d0 F868     		ldr	r0, [r7, #12]
 430 00d2 FFF7FEFF 		bl	Cy_SMIF_PackBytesArray
 431 00d6 0246     		mov	r2, r0
 432 00d8 7B68     		ldr	r3, [r7, #4]
 433 00da C3F89820 		str	r2, [r3, #152]
1124:Generated_Source\PSoC6\pdl\drivers\peripheral\smif/cy_smif.h ****             baseaddr->TX_DATA_FIFO_WR1 = buff[4U];
 434              		.loc 1 1124 0
 435 00de FB68     		ldr	r3, [r7, #12]
 436 00e0 0433     		adds	r3, r3, #4
 437 00e2 1B78     		ldrb	r3, [r3]	@ zero_extendqisi2
 438 00e4 1A46     		mov	r2, r3
 439 00e6 7B68     		ldr	r3, [r7, #4]
 440 00e8 C3F89020 		str	r2, [r3, #144]
 441 00ec 46E0     		b	.L16
 442              	.L21:
1125:Generated_Source\PSoC6\pdl\drivers\peripheral\smif/cy_smif.h ****         }
1126:Generated_Source\PSoC6\pdl\drivers\peripheral\smif/cy_smif.h ****         else if(writeBytes == CY_SMIF_SIX_BYTES)
 443              		.loc 1 1126 0
 444 00ee 7B69     		ldr	r3, [r7, #20]
 445 00f0 062B     		cmp	r3, #6
 446 00f2 12D1     		bne	.L22
1127:Generated_Source\PSoC6\pdl\drivers\peripheral\smif/cy_smif.h ****         {
1128:Generated_Source\PSoC6\pdl\drivers\peripheral\smif/cy_smif.h ****             baseaddr->TX_DATA_FIFO_WR4 = Cy_SMIF_PackBytesArray(&buff[0U], true);
 447              		.loc 1 1128 0
 448 00f4 0121     		movs	r1, #1
 449 00f6 F868     		ldr	r0, [r7, #12]
 450 00f8 FFF7FEFF 		bl	Cy_SMIF_PackBytesArray
 451 00fc 0246     		mov	r2, r0
 452 00fe 7B68     		ldr	r3, [r7, #4]
 453 0100 C3F89820 		str	r2, [r3, #152]
1129:Generated_Source\PSoC6\pdl\drivers\peripheral\smif/cy_smif.h ****             baseaddr->TX_DATA_FIFO_WR2 = Cy_SMIF_PackBytesArray(&buff[4U], false);
 454              		.loc 1 1129 0
 455 0104 FB68     		ldr	r3, [r7, #12]
 456 0106 0433     		adds	r3, r3, #4
 457 0108 0021     		movs	r1, #0
 458 010a 1846     		mov	r0, r3
 459 010c FFF7FEFF 		bl	Cy_SMIF_PackBytesArray
 460 0110 0246     		mov	r2, r0
 461 0112 7B68     		ldr	r3, [r7, #4]
 462 0114 C3F89420 		str	r2, [r3, #148]
 463 0118 30E0     		b	.L16
 464              	.L22:
1130:Generated_Source\PSoC6\pdl\drivers\peripheral\smif/cy_smif.h ****         }
1131:Generated_Source\PSoC6\pdl\drivers\peripheral\smif/cy_smif.h ****         else if(writeBytes == CY_SMIF_SEVEN_BYTES)
 465              		.loc 1 1131 0
ARM GAS  C:\Users\ikomb\AppData\Local\Temp\ccEKz2Td.s 			page 29


 466 011a 7B69     		ldr	r3, [r7, #20]
 467 011c 072B     		cmp	r3, #7
 468 011e 19D1     		bne	.L23
1132:Generated_Source\PSoC6\pdl\drivers\peripheral\smif/cy_smif.h ****         {
1133:Generated_Source\PSoC6\pdl\drivers\peripheral\smif/cy_smif.h ****             baseaddr->TX_DATA_FIFO_WR4 = Cy_SMIF_PackBytesArray(&buff[0U], true);
 469              		.loc 1 1133 0
 470 0120 0121     		movs	r1, #1
 471 0122 F868     		ldr	r0, [r7, #12]
 472 0124 FFF7FEFF 		bl	Cy_SMIF_PackBytesArray
 473 0128 0246     		mov	r2, r0
 474 012a 7B68     		ldr	r3, [r7, #4]
 475 012c C3F89820 		str	r2, [r3, #152]
1134:Generated_Source\PSoC6\pdl\drivers\peripheral\smif/cy_smif.h ****             baseaddr->TX_DATA_FIFO_WR2 = Cy_SMIF_PackBytesArray(&buff[4U], false);
 476              		.loc 1 1134 0
 477 0130 FB68     		ldr	r3, [r7, #12]
 478 0132 0433     		adds	r3, r3, #4
 479 0134 0021     		movs	r1, #0
 480 0136 1846     		mov	r0, r3
 481 0138 FFF7FEFF 		bl	Cy_SMIF_PackBytesArray
 482 013c 0246     		mov	r2, r0
 483 013e 7B68     		ldr	r3, [r7, #4]
 484 0140 C3F89420 		str	r2, [r3, #148]
1135:Generated_Source\PSoC6\pdl\drivers\peripheral\smif/cy_smif.h ****             baseaddr->TX_DATA_FIFO_WR1 = buff[6U];
 485              		.loc 1 1135 0
 486 0144 FB68     		ldr	r3, [r7, #12]
 487 0146 0633     		adds	r3, r3, #6
 488 0148 1B78     		ldrb	r3, [r3]	@ zero_extendqisi2
 489 014a 1A46     		mov	r2, r3
 490 014c 7B68     		ldr	r3, [r7, #4]
 491 014e C3F89020 		str	r2, [r3, #144]
 492 0152 13E0     		b	.L16
 493              	.L23:
1136:Generated_Source\PSoC6\pdl\drivers\peripheral\smif/cy_smif.h ****         }
1137:Generated_Source\PSoC6\pdl\drivers\peripheral\smif/cy_smif.h ****         else /* The  future IP block with FIFO > 8*/
1138:Generated_Source\PSoC6\pdl\drivers\peripheral\smif/cy_smif.h ****         {
1139:Generated_Source\PSoC6\pdl\drivers\peripheral\smif/cy_smif.h ****             baseaddr->TX_DATA_FIFO_WR4 = Cy_SMIF_PackBytesArray(&buff[0U], true);
 494              		.loc 1 1139 0
 495 0154 0121     		movs	r1, #1
 496 0156 F868     		ldr	r0, [r7, #12]
 497 0158 FFF7FEFF 		bl	Cy_SMIF_PackBytesArray
 498 015c 0246     		mov	r2, r0
 499 015e 7B68     		ldr	r3, [r7, #4]
 500 0160 C3F89820 		str	r2, [r3, #152]
1140:Generated_Source\PSoC6\pdl\drivers\peripheral\smif/cy_smif.h ****             baseaddr->TX_DATA_FIFO_WR4 = Cy_SMIF_PackBytesArray(&buff[4U], true);
 501              		.loc 1 1140 0
 502 0164 FB68     		ldr	r3, [r7, #12]
 503 0166 0433     		adds	r3, r3, #4
 504 0168 0121     		movs	r1, #1
 505 016a 1846     		mov	r0, r3
 506 016c FFF7FEFF 		bl	Cy_SMIF_PackBytesArray
 507 0170 0246     		mov	r2, r0
 508 0172 7B68     		ldr	r3, [r7, #4]
 509 0174 C3F89820 		str	r2, [r3, #152]
1141:Generated_Source\PSoC6\pdl\drivers\peripheral\smif/cy_smif.h ****             writeBytes = CY_SMIF_EIGHT_BYTES;
 510              		.loc 1 1141 0
 511 0178 0823     		movs	r3, #8
 512 017a 7B61     		str	r3, [r7, #20]
ARM GAS  C:\Users\ikomb\AppData\Local\Temp\ccEKz2Td.s 			page 30


 513              	.L16:
1142:Generated_Source\PSoC6\pdl\drivers\peripheral\smif/cy_smif.h ****         }
1143:Generated_Source\PSoC6\pdl\drivers\peripheral\smif/cy_smif.h ****         buff = &buff[writeBytes];
 514              		.loc 1 1143 0
 515 017c FA68     		ldr	r2, [r7, #12]
 516 017e 7B69     		ldr	r3, [r7, #20]
 517 0180 1344     		add	r3, r3, r2
 518 0182 FB60     		str	r3, [r7, #12]
1144:Generated_Source\PSoC6\pdl\drivers\peripheral\smif/cy_smif.h ****         buffCounter -= writeBytes;
 519              		.loc 1 1144 0
 520 0184 3A69     		ldr	r2, [r7, #16]
 521 0186 7B69     		ldr	r3, [r7, #20]
 522 0188 D31A     		subs	r3, r2, r3
 523 018a 3B61     		str	r3, [r7, #16]
1145:Generated_Source\PSoC6\pdl\drivers\peripheral\smif/cy_smif.h ****         /* Check if we already got new data in TX_FIFO*/
1146:Generated_Source\PSoC6\pdl\drivers\peripheral\smif/cy_smif.h ****         freeFifoBytes = CY_SMIF_TX_DATA_FIFO_STATUS_RANGE - Cy_SMIF_GetTxFifoStatus(baseaddr);
 524              		.loc 1 1146 0
 525 018c 7868     		ldr	r0, [r7, #4]
 526 018e FFF7FEFF 		bl	Cy_SMIF_GetTxFifoStatus
 527 0192 0346     		mov	r3, r0
 528 0194 C3F10803 		rsb	r3, r3, #8
 529 0198 BB60     		str	r3, [r7, #8]
1147:Generated_Source\PSoC6\pdl\drivers\peripheral\smif/cy_smif.h ****         writeBytes = (freeFifoBytes > buffCounter)? buffCounter: freeFifoBytes;
 530              		.loc 1 1147 0
 531 019a BA68     		ldr	r2, [r7, #8]
 532 019c 3B69     		ldr	r3, [r7, #16]
 533 019e 9342     		cmp	r3, r2
 534 01a0 28BF     		it	cs
 535 01a2 1346     		movcs	r3, r2
 536 01a4 7B61     		str	r3, [r7, #20]
 537              	.L14:
1095:Generated_Source\PSoC6\pdl\drivers\peripheral\smif/cy_smif.h ****     {
 538              		.loc 1 1095 0
 539 01a6 7B69     		ldr	r3, [r7, #20]
 540 01a8 002B     		cmp	r3, #0
 541 01aa 7FF442AF 		bne	.L24
1148:Generated_Source\PSoC6\pdl\drivers\peripheral\smif/cy_smif.h ****     }
1149:Generated_Source\PSoC6\pdl\drivers\peripheral\smif/cy_smif.h **** 
1150:Generated_Source\PSoC6\pdl\drivers\peripheral\smif/cy_smif.h ****     /* Save changes in the context */
1151:Generated_Source\PSoC6\pdl\drivers\peripheral\smif/cy_smif.h ****     context->rxBufferAddress = buff;
 542              		.loc 1 1151 0
 543 01ae 3B68     		ldr	r3, [r7]
 544 01b0 FA68     		ldr	r2, [r7, #12]
 545 01b2 DA60     		str	r2, [r3, #12]
1152:Generated_Source\PSoC6\pdl\drivers\peripheral\smif/cy_smif.h ****     context->rxBufferCounter = buffCounter;
 546              		.loc 1 1152 0
 547 01b4 3B68     		ldr	r3, [r7]
 548 01b6 3A69     		ldr	r2, [r7, #16]
 549 01b8 5A61     		str	r2, [r3, #20]
1153:Generated_Source\PSoC6\pdl\drivers\peripheral\smif/cy_smif.h **** 
1154:Generated_Source\PSoC6\pdl\drivers\peripheral\smif/cy_smif.h ****     /* Check if all bytes are sent */
1155:Generated_Source\PSoC6\pdl\drivers\peripheral\smif/cy_smif.h ****     if (0u == buffCounter)
 550              		.loc 1 1155 0
 551 01ba 3B69     		ldr	r3, [r7, #16]
 552 01bc 002B     		cmp	r3, #0
 553 01be 14D1     		bne	.L26
1156:Generated_Source\PSoC6\pdl\drivers\peripheral\smif/cy_smif.h ****     {
ARM GAS  C:\Users\ikomb\AppData\Local\Temp\ccEKz2Td.s 			page 31


1157:Generated_Source\PSoC6\pdl\drivers\peripheral\smif/cy_smif.h ****         /* Disable the TR_TX_REQ interrupt */
1158:Generated_Source\PSoC6\pdl\drivers\peripheral\smif/cy_smif.h ****         Cy_SMIF_SetInterruptMask(baseaddr,
1159:Generated_Source\PSoC6\pdl\drivers\peripheral\smif/cy_smif.h ****             Cy_SMIF_GetInterruptMask(baseaddr) & ~SMIF_INTR_TR_TX_REQ_Msk);
 554              		.loc 1 1159 0
 555 01c0 7868     		ldr	r0, [r7, #4]
 556 01c2 FFF7FEFF 		bl	Cy_SMIF_GetInterruptMask
 557 01c6 0346     		mov	r3, r0
1158:Generated_Source\PSoC6\pdl\drivers\peripheral\smif/cy_smif.h ****             Cy_SMIF_GetInterruptMask(baseaddr) & ~SMIF_INTR_TR_TX_REQ_Msk);
 558              		.loc 1 1158 0
 559 01c8 23F00103 		bic	r3, r3, #1
 560 01cc 1946     		mov	r1, r3
 561 01ce 7868     		ldr	r0, [r7, #4]
 562 01d0 FFF7FEFF 		bl	Cy_SMIF_SetInterruptMask
1160:Generated_Source\PSoC6\pdl\drivers\peripheral\smif/cy_smif.h **** 
1161:Generated_Source\PSoC6\pdl\drivers\peripheral\smif/cy_smif.h ****         context->transferStatus = (uint32_t) CY_SMIF_SEND_CMPLT;
 563              		.loc 1 1161 0
 564 01d4 3B68     		ldr	r3, [r7]
 565 01d6 0122     		movs	r2, #1
 566 01d8 9A61     		str	r2, [r3, #24]
1162:Generated_Source\PSoC6\pdl\drivers\peripheral\smif/cy_smif.h ****         if (NULL != context->txCmpltCb)
 567              		.loc 1 1162 0
 568 01da 3B68     		ldr	r3, [r7]
 569 01dc DB69     		ldr	r3, [r3, #28]
 570 01de 002B     		cmp	r3, #0
 571 01e0 03D0     		beq	.L26
1163:Generated_Source\PSoC6\pdl\drivers\peripheral\smif/cy_smif.h ****         {
1164:Generated_Source\PSoC6\pdl\drivers\peripheral\smif/cy_smif.h ****             context->txCmpltCb((uint32_t) CY_SMIF_SEND_CMPLT);
 572              		.loc 1 1164 0
 573 01e2 3B68     		ldr	r3, [r7]
 574 01e4 DB69     		ldr	r3, [r3, #28]
 575 01e6 0120     		movs	r0, #1
 576 01e8 9847     		blx	r3
 577              	.L26:
1165:Generated_Source\PSoC6\pdl\drivers\peripheral\smif/cy_smif.h ****         }
1166:Generated_Source\PSoC6\pdl\drivers\peripheral\smif/cy_smif.h ****     }
1167:Generated_Source\PSoC6\pdl\drivers\peripheral\smif/cy_smif.h **** }
 578              		.loc 1 1167 0
 579 01ea 00BF     		nop
 580 01ec 1837     		adds	r7, r7, #24
 581              		.cfi_def_cfa_offset 8
 582 01ee BD46     		mov	sp, r7
 583              		.cfi_def_cfa_register 13
 584              		@ sp needed
 585 01f0 80BD     		pop	{r7, pc}
 586              		.cfi_endproc
 587              	.LFE172:
 588              		.size	Cy_SMIF_PushTxFifo, .-Cy_SMIF_PushTxFifo
 589 01f2 00BF     		.section	.text.Cy_SMIF_PopRxFifo,"ax",%progbits
 590              		.align	2
 591              		.thumb
 592              		.thumb_func
 593              		.type	Cy_SMIF_PopRxFifo, %function
 594              	Cy_SMIF_PopRxFifo:
 595              	.LFB173:
1168:Generated_Source\PSoC6\pdl\drivers\peripheral\smif/cy_smif.h **** 
1169:Generated_Source\PSoC6\pdl\drivers\peripheral\smif/cy_smif.h **** 
1170:Generated_Source\PSoC6\pdl\drivers\peripheral\smif/cy_smif.h **** /*******************************************************************************
ARM GAS  C:\Users\ikomb\AppData\Local\Temp\ccEKz2Td.s 			page 32


1171:Generated_Source\PSoC6\pdl\drivers\peripheral\smif/cy_smif.h **** * Function Name: Cy_SMIF_PopRxFifo
1172:Generated_Source\PSoC6\pdl\drivers\peripheral\smif/cy_smif.h **** ***************************************************************************//***
1173:Generated_Source\PSoC6\pdl\drivers\peripheral\smif/cy_smif.h **** *
1174:Generated_Source\PSoC6\pdl\drivers\peripheral\smif/cy_smif.h **** * \internal
1175:Generated_Source\PSoC6\pdl\drivers\peripheral\smif/cy_smif.h **** *
1176:Generated_Source\PSoC6\pdl\drivers\peripheral\smif/cy_smif.h **** * \param baseaddr
1177:Generated_Source\PSoC6\pdl\drivers\peripheral\smif/cy_smif.h **** * Holds the base address of the SMIF block registers.
1178:Generated_Source\PSoC6\pdl\drivers\peripheral\smif/cy_smif.h **** *
1179:Generated_Source\PSoC6\pdl\drivers\peripheral\smif/cy_smif.h **** * \param context
1180:Generated_Source\PSoC6\pdl\drivers\peripheral\smif/cy_smif.h **** * Passes a configuration structure that contains the transfer parameters of the
1181:Generated_Source\PSoC6\pdl\drivers\peripheral\smif/cy_smif.h **** * SMIF block.
1182:Generated_Source\PSoC6\pdl\drivers\peripheral\smif/cy_smif.h **** *
1183:Generated_Source\PSoC6\pdl\drivers\peripheral\smif/cy_smif.h **** * This function reads data from the RX FIFO SMIF buffer by 4, 2, or 1 bytes
1184:Generated_Source\PSoC6\pdl\drivers\peripheral\smif/cy_smif.h **** * based on the data availability in the RX FIFO and amount of bytes to be
1185:Generated_Source\PSoC6\pdl\drivers\peripheral\smif/cy_smif.h **** * received.
1186:Generated_Source\PSoC6\pdl\drivers\peripheral\smif/cy_smif.h **** *
1187:Generated_Source\PSoC6\pdl\drivers\peripheral\smif/cy_smif.h **** *******************************************************************************/
1188:Generated_Source\PSoC6\pdl\drivers\peripheral\smif/cy_smif.h **** __STATIC_INLINE void Cy_SMIF_PopRxFifo(SMIF_Type *baseaddr, cy_stc_smif_context_t *context)
1189:Generated_Source\PSoC6\pdl\drivers\peripheral\smif/cy_smif.h **** {
 596              		.loc 1 1189 0
 597              		.cfi_startproc
 598              		@ args = 0, pretend = 0, frame = 24
 599              		@ frame_needed = 1, uses_anonymous_args = 0
 600 0000 80B5     		push	{r7, lr}
 601              		.cfi_def_cfa_offset 8
 602              		.cfi_offset 7, -8
 603              		.cfi_offset 14, -4
 604 0002 86B0     		sub	sp, sp, #24
 605              		.cfi_def_cfa_offset 32
 606 0004 00AF     		add	r7, sp, #0
 607              		.cfi_def_cfa_register 7
 608 0006 7860     		str	r0, [r7, #4]
 609 0008 3960     		str	r1, [r7]
1190:Generated_Source\PSoC6\pdl\drivers\peripheral\smif/cy_smif.h ****     /* The variable that shows which is smaller: the free FIFO size or amount of bytes to be receiv
1191:Generated_Source\PSoC6\pdl\drivers\peripheral\smif/cy_smif.h ****     uint32_t readBytes;
1192:Generated_Source\PSoC6\pdl\drivers\peripheral\smif/cy_smif.h ****     uint32_t loadedFifoBytes;
1193:Generated_Source\PSoC6\pdl\drivers\peripheral\smif/cy_smif.h ****     uint32_t buffCounter = context->rxBufferCounter;
 610              		.loc 1 1193 0
 611 000a 3B68     		ldr	r3, [r7]
 612 000c 5B69     		ldr	r3, [r3, #20]
 613 000e 3B61     		str	r3, [r7, #16]
1194:Generated_Source\PSoC6\pdl\drivers\peripheral\smif/cy_smif.h ****     uint8_t *buff = (uint8_t*) context->rxBufferAddress;
 614              		.loc 1 1194 0
 615 0010 3B68     		ldr	r3, [r7]
 616 0012 DB68     		ldr	r3, [r3, #12]
 617 0014 FB60     		str	r3, [r7, #12]
1195:Generated_Source\PSoC6\pdl\drivers\peripheral\smif/cy_smif.h **** 
1196:Generated_Source\PSoC6\pdl\drivers\peripheral\smif/cy_smif.h ****     loadedFifoBytes = Cy_SMIF_GetRxFifoStatus(baseaddr);
 618              		.loc 1 1196 0
 619 0016 7868     		ldr	r0, [r7, #4]
 620 0018 FFF7FEFF 		bl	Cy_SMIF_GetRxFifoStatus
 621 001c B860     		str	r0, [r7, #8]
1197:Generated_Source\PSoC6\pdl\drivers\peripheral\smif/cy_smif.h ****     readBytes = (loadedFifoBytes > buffCounter)? buffCounter: loadedFifoBytes;
 622              		.loc 1 1197 0
 623 001e BA68     		ldr	r2, [r7, #8]
 624 0020 3B69     		ldr	r3, [r7, #16]
 625 0022 9342     		cmp	r3, r2
ARM GAS  C:\Users\ikomb\AppData\Local\Temp\ccEKz2Td.s 			page 33


 626 0024 28BF     		it	cs
 627 0026 1346     		movcs	r3, r2
 628 0028 7B61     		str	r3, [r7, #20]
1198:Generated_Source\PSoC6\pdl\drivers\peripheral\smif/cy_smif.h **** 
1199:Generated_Source\PSoC6\pdl\drivers\peripheral\smif/cy_smif.h ****     /* Check that after a FIFO Read, no new data is available */
1200:Generated_Source\PSoC6\pdl\drivers\peripheral\smif/cy_smif.h ****     while (0U != readBytes)
 629              		.loc 1 1200 0
 630 002a B2E0     		b	.L28
 631              	.L38:
1201:Generated_Source\PSoC6\pdl\drivers\peripheral\smif/cy_smif.h ****     {
1202:Generated_Source\PSoC6\pdl\drivers\peripheral\smif/cy_smif.h ****         if (readBytes == CY_SMIF_EIGHT_BYTES)
 632              		.loc 1 1202 0
 633 002c 7B69     		ldr	r3, [r7, #20]
 634 002e 082B     		cmp	r3, #8
 635 0030 11D1     		bne	.L29
1203:Generated_Source\PSoC6\pdl\drivers\peripheral\smif/cy_smif.h ****         {
1204:Generated_Source\PSoC6\pdl\drivers\peripheral\smif/cy_smif.h ****             Cy_SMIF_UnPackByteArray(baseaddr->RX_DATA_FIFO_RD4, &buff[0U], true);
 636              		.loc 1 1204 0
 637 0032 7B68     		ldr	r3, [r7, #4]
 638 0034 D3F8D830 		ldr	r3, [r3, #216]
 639 0038 0122     		movs	r2, #1
 640 003a F968     		ldr	r1, [r7, #12]
 641 003c 1846     		mov	r0, r3
 642 003e FFF7FEFF 		bl	Cy_SMIF_UnPackByteArray
1205:Generated_Source\PSoC6\pdl\drivers\peripheral\smif/cy_smif.h ****             Cy_SMIF_UnPackByteArray(baseaddr->RX_DATA_FIFO_RD4, &buff[4U], true);
 643              		.loc 1 1205 0
 644 0042 7B68     		ldr	r3, [r7, #4]
 645 0044 D3F8D800 		ldr	r0, [r3, #216]
 646 0048 FB68     		ldr	r3, [r7, #12]
 647 004a 0433     		adds	r3, r3, #4
 648 004c 0122     		movs	r2, #1
 649 004e 1946     		mov	r1, r3
 650 0050 FFF7FEFF 		bl	Cy_SMIF_UnPackByteArray
 651 0054 8BE0     		b	.L30
 652              	.L29:
1206:Generated_Source\PSoC6\pdl\drivers\peripheral\smif/cy_smif.h ****         }
1207:Generated_Source\PSoC6\pdl\drivers\peripheral\smif/cy_smif.h ****         else if(readBytes == CY_SMIF_ONE_BYTE)
 653              		.loc 1 1207 0
 654 0056 7B69     		ldr	r3, [r7, #20]
 655 0058 012B     		cmp	r3, #1
 656 005a 06D1     		bne	.L31
1208:Generated_Source\PSoC6\pdl\drivers\peripheral\smif/cy_smif.h ****         {
1209:Generated_Source\PSoC6\pdl\drivers\peripheral\smif/cy_smif.h ****             buff[0U] = (uint8_t)baseaddr->RX_DATA_FIFO_RD1;
 657              		.loc 1 1209 0
 658 005c 7B68     		ldr	r3, [r7, #4]
 659 005e D3F8D030 		ldr	r3, [r3, #208]
 660 0062 DAB2     		uxtb	r2, r3
 661 0064 FB68     		ldr	r3, [r7, #12]
 662 0066 1A70     		strb	r2, [r3]
 663 0068 81E0     		b	.L30
 664              	.L31:
1210:Generated_Source\PSoC6\pdl\drivers\peripheral\smif/cy_smif.h ****         }
1211:Generated_Source\PSoC6\pdl\drivers\peripheral\smif/cy_smif.h ****         else if(readBytes == CY_SMIF_TWO_BYTES)
 665              		.loc 1 1211 0
 666 006a 7B69     		ldr	r3, [r7, #20]
 667 006c 022B     		cmp	r3, #2
 668 006e 08D1     		bne	.L32
ARM GAS  C:\Users\ikomb\AppData\Local\Temp\ccEKz2Td.s 			page 34


1212:Generated_Source\PSoC6\pdl\drivers\peripheral\smif/cy_smif.h ****         {
1213:Generated_Source\PSoC6\pdl\drivers\peripheral\smif/cy_smif.h ****             Cy_SMIF_UnPackByteArray(baseaddr->RX_DATA_FIFO_RD2, &buff[0U], false);
 669              		.loc 1 1213 0
 670 0070 7B68     		ldr	r3, [r7, #4]
 671 0072 D3F8D430 		ldr	r3, [r3, #212]
 672 0076 0022     		movs	r2, #0
 673 0078 F968     		ldr	r1, [r7, #12]
 674 007a 1846     		mov	r0, r3
 675 007c FFF7FEFF 		bl	Cy_SMIF_UnPackByteArray
 676 0080 75E0     		b	.L30
 677              	.L32:
1214:Generated_Source\PSoC6\pdl\drivers\peripheral\smif/cy_smif.h ****         }
1215:Generated_Source\PSoC6\pdl\drivers\peripheral\smif/cy_smif.h ****         else if(readBytes == CY_SMIF_THREE_BYTES)
 678              		.loc 1 1215 0
 679 0082 7B69     		ldr	r3, [r7, #20]
 680 0084 032B     		cmp	r3, #3
 681 0086 0FD1     		bne	.L33
1216:Generated_Source\PSoC6\pdl\drivers\peripheral\smif/cy_smif.h ****         {
1217:Generated_Source\PSoC6\pdl\drivers\peripheral\smif/cy_smif.h ****             Cy_SMIF_UnPackByteArray(baseaddr->RX_DATA_FIFO_RD2, &buff[0U], false);
 682              		.loc 1 1217 0
 683 0088 7B68     		ldr	r3, [r7, #4]
 684 008a D3F8D430 		ldr	r3, [r3, #212]
 685 008e 0022     		movs	r2, #0
 686 0090 F968     		ldr	r1, [r7, #12]
 687 0092 1846     		mov	r0, r3
 688 0094 FFF7FEFF 		bl	Cy_SMIF_UnPackByteArray
1218:Generated_Source\PSoC6\pdl\drivers\peripheral\smif/cy_smif.h ****             buff[2U] = (uint8_t)baseaddr->RX_DATA_FIFO_RD1;
 689              		.loc 1 1218 0
 690 0098 FB68     		ldr	r3, [r7, #12]
 691 009a 0233     		adds	r3, r3, #2
 692 009c 7A68     		ldr	r2, [r7, #4]
 693 009e D2F8D020 		ldr	r2, [r2, #208]
 694 00a2 D2B2     		uxtb	r2, r2
 695 00a4 1A70     		strb	r2, [r3]
 696 00a6 62E0     		b	.L30
 697              	.L33:
1219:Generated_Source\PSoC6\pdl\drivers\peripheral\smif/cy_smif.h ****         }
1220:Generated_Source\PSoC6\pdl\drivers\peripheral\smif/cy_smif.h ****         else if(readBytes == CY_SMIF_FOUR_BYTES)
 698              		.loc 1 1220 0
 699 00a8 7B69     		ldr	r3, [r7, #20]
 700 00aa 042B     		cmp	r3, #4
 701 00ac 08D1     		bne	.L34
1221:Generated_Source\PSoC6\pdl\drivers\peripheral\smif/cy_smif.h ****         {
1222:Generated_Source\PSoC6\pdl\drivers\peripheral\smif/cy_smif.h ****             Cy_SMIF_UnPackByteArray(baseaddr->RX_DATA_FIFO_RD4, &buff[0U], true);
 702              		.loc 1 1222 0
 703 00ae 7B68     		ldr	r3, [r7, #4]
 704 00b0 D3F8D830 		ldr	r3, [r3, #216]
 705 00b4 0122     		movs	r2, #1
 706 00b6 F968     		ldr	r1, [r7, #12]
 707 00b8 1846     		mov	r0, r3
 708 00ba FFF7FEFF 		bl	Cy_SMIF_UnPackByteArray
 709 00be 56E0     		b	.L30
 710              	.L34:
1223:Generated_Source\PSoC6\pdl\drivers\peripheral\smif/cy_smif.h ****         }
1224:Generated_Source\PSoC6\pdl\drivers\peripheral\smif/cy_smif.h ****         else if(readBytes == CY_SMIF_FIVE_BYTES)
 711              		.loc 1 1224 0
 712 00c0 7B69     		ldr	r3, [r7, #20]
ARM GAS  C:\Users\ikomb\AppData\Local\Temp\ccEKz2Td.s 			page 35


 713 00c2 052B     		cmp	r3, #5
 714 00c4 0FD1     		bne	.L35
1225:Generated_Source\PSoC6\pdl\drivers\peripheral\smif/cy_smif.h ****         {
1226:Generated_Source\PSoC6\pdl\drivers\peripheral\smif/cy_smif.h ****             Cy_SMIF_UnPackByteArray(baseaddr->RX_DATA_FIFO_RD4, &buff[0U], true);
 715              		.loc 1 1226 0
 716 00c6 7B68     		ldr	r3, [r7, #4]
 717 00c8 D3F8D830 		ldr	r3, [r3, #216]
 718 00cc 0122     		movs	r2, #1
 719 00ce F968     		ldr	r1, [r7, #12]
 720 00d0 1846     		mov	r0, r3
 721 00d2 FFF7FEFF 		bl	Cy_SMIF_UnPackByteArray
1227:Generated_Source\PSoC6\pdl\drivers\peripheral\smif/cy_smif.h ****             buff[4U] = (uint8_t)baseaddr->RX_DATA_FIFO_RD1;
 722              		.loc 1 1227 0
 723 00d6 FB68     		ldr	r3, [r7, #12]
 724 00d8 0433     		adds	r3, r3, #4
 725 00da 7A68     		ldr	r2, [r7, #4]
 726 00dc D2F8D020 		ldr	r2, [r2, #208]
 727 00e0 D2B2     		uxtb	r2, r2
 728 00e2 1A70     		strb	r2, [r3]
 729 00e4 43E0     		b	.L30
 730              	.L35:
1228:Generated_Source\PSoC6\pdl\drivers\peripheral\smif/cy_smif.h ****         }
1229:Generated_Source\PSoC6\pdl\drivers\peripheral\smif/cy_smif.h ****         else if(readBytes == CY_SMIF_SIX_BYTES)
 731              		.loc 1 1229 0
 732 00e6 7B69     		ldr	r3, [r7, #20]
 733 00e8 062B     		cmp	r3, #6
 734 00ea 11D1     		bne	.L36
1230:Generated_Source\PSoC6\pdl\drivers\peripheral\smif/cy_smif.h ****         {
1231:Generated_Source\PSoC6\pdl\drivers\peripheral\smif/cy_smif.h ****             Cy_SMIF_UnPackByteArray(baseaddr->RX_DATA_FIFO_RD4, &buff[0U], true);
 735              		.loc 1 1231 0
 736 00ec 7B68     		ldr	r3, [r7, #4]
 737 00ee D3F8D830 		ldr	r3, [r3, #216]
 738 00f2 0122     		movs	r2, #1
 739 00f4 F968     		ldr	r1, [r7, #12]
 740 00f6 1846     		mov	r0, r3
 741 00f8 FFF7FEFF 		bl	Cy_SMIF_UnPackByteArray
1232:Generated_Source\PSoC6\pdl\drivers\peripheral\smif/cy_smif.h ****             Cy_SMIF_UnPackByteArray(baseaddr->RX_DATA_FIFO_RD2, &buff[4U], false);
 742              		.loc 1 1232 0
 743 00fc 7B68     		ldr	r3, [r7, #4]
 744 00fe D3F8D400 		ldr	r0, [r3, #212]
 745 0102 FB68     		ldr	r3, [r7, #12]
 746 0104 0433     		adds	r3, r3, #4
 747 0106 0022     		movs	r2, #0
 748 0108 1946     		mov	r1, r3
 749 010a FFF7FEFF 		bl	Cy_SMIF_UnPackByteArray
 750 010e 2EE0     		b	.L30
 751              	.L36:
1233:Generated_Source\PSoC6\pdl\drivers\peripheral\smif/cy_smif.h ****         }
1234:Generated_Source\PSoC6\pdl\drivers\peripheral\smif/cy_smif.h ****         else if(readBytes == CY_SMIF_SEVEN_BYTES)
 752              		.loc 1 1234 0
 753 0110 7B69     		ldr	r3, [r7, #20]
 754 0112 072B     		cmp	r3, #7
 755 0114 18D1     		bne	.L37
1235:Generated_Source\PSoC6\pdl\drivers\peripheral\smif/cy_smif.h ****         {
1236:Generated_Source\PSoC6\pdl\drivers\peripheral\smif/cy_smif.h ****             Cy_SMIF_UnPackByteArray(baseaddr->RX_DATA_FIFO_RD4, &buff[0U], true);
 756              		.loc 1 1236 0
 757 0116 7B68     		ldr	r3, [r7, #4]
ARM GAS  C:\Users\ikomb\AppData\Local\Temp\ccEKz2Td.s 			page 36


 758 0118 D3F8D830 		ldr	r3, [r3, #216]
 759 011c 0122     		movs	r2, #1
 760 011e F968     		ldr	r1, [r7, #12]
 761 0120 1846     		mov	r0, r3
 762 0122 FFF7FEFF 		bl	Cy_SMIF_UnPackByteArray
1237:Generated_Source\PSoC6\pdl\drivers\peripheral\smif/cy_smif.h ****             Cy_SMIF_UnPackByteArray(baseaddr->RX_DATA_FIFO_RD2, &buff[4U], false);
 763              		.loc 1 1237 0
 764 0126 7B68     		ldr	r3, [r7, #4]
 765 0128 D3F8D400 		ldr	r0, [r3, #212]
 766 012c FB68     		ldr	r3, [r7, #12]
 767 012e 0433     		adds	r3, r3, #4
 768 0130 0022     		movs	r2, #0
 769 0132 1946     		mov	r1, r3
 770 0134 FFF7FEFF 		bl	Cy_SMIF_UnPackByteArray
1238:Generated_Source\PSoC6\pdl\drivers\peripheral\smif/cy_smif.h ****             buff[6U] = (uint8_t)baseaddr->RX_DATA_FIFO_RD1;
 771              		.loc 1 1238 0
 772 0138 FB68     		ldr	r3, [r7, #12]
 773 013a 0633     		adds	r3, r3, #6
 774 013c 7A68     		ldr	r2, [r7, #4]
 775 013e D2F8D020 		ldr	r2, [r2, #208]
 776 0142 D2B2     		uxtb	r2, r2
 777 0144 1A70     		strb	r2, [r3]
 778 0146 12E0     		b	.L30
 779              	.L37:
1239:Generated_Source\PSoC6\pdl\drivers\peripheral\smif/cy_smif.h ****         }
1240:Generated_Source\PSoC6\pdl\drivers\peripheral\smif/cy_smif.h ****         else /* The IP block FIFO > 8*/
1241:Generated_Source\PSoC6\pdl\drivers\peripheral\smif/cy_smif.h ****         {
1242:Generated_Source\PSoC6\pdl\drivers\peripheral\smif/cy_smif.h ****             Cy_SMIF_UnPackByteArray(baseaddr->RX_DATA_FIFO_RD4, &buff[0U], true);
 780              		.loc 1 1242 0
 781 0148 7B68     		ldr	r3, [r7, #4]
 782 014a D3F8D830 		ldr	r3, [r3, #216]
 783 014e 0122     		movs	r2, #1
 784 0150 F968     		ldr	r1, [r7, #12]
 785 0152 1846     		mov	r0, r3
 786 0154 FFF7FEFF 		bl	Cy_SMIF_UnPackByteArray
1243:Generated_Source\PSoC6\pdl\drivers\peripheral\smif/cy_smif.h ****             Cy_SMIF_UnPackByteArray(baseaddr->RX_DATA_FIFO_RD4, &buff[4U], true);
 787              		.loc 1 1243 0
 788 0158 7B68     		ldr	r3, [r7, #4]
 789 015a D3F8D800 		ldr	r0, [r3, #216]
 790 015e FB68     		ldr	r3, [r7, #12]
 791 0160 0433     		adds	r3, r3, #4
 792 0162 0122     		movs	r2, #1
 793 0164 1946     		mov	r1, r3
 794 0166 FFF7FEFF 		bl	Cy_SMIF_UnPackByteArray
1244:Generated_Source\PSoC6\pdl\drivers\peripheral\smif/cy_smif.h ****             readBytes = CY_SMIF_EIGHT_BYTES;
 795              		.loc 1 1244 0
 796 016a 0823     		movs	r3, #8
 797 016c 7B61     		str	r3, [r7, #20]
 798              	.L30:
1245:Generated_Source\PSoC6\pdl\drivers\peripheral\smif/cy_smif.h ****         }
1246:Generated_Source\PSoC6\pdl\drivers\peripheral\smif/cy_smif.h **** 
1247:Generated_Source\PSoC6\pdl\drivers\peripheral\smif/cy_smif.h ****         buff = &buff[readBytes];
 799              		.loc 1 1247 0
 800 016e FA68     		ldr	r2, [r7, #12]
 801 0170 7B69     		ldr	r3, [r7, #20]
 802 0172 1344     		add	r3, r3, r2
 803 0174 FB60     		str	r3, [r7, #12]
ARM GAS  C:\Users\ikomb\AppData\Local\Temp\ccEKz2Td.s 			page 37


1248:Generated_Source\PSoC6\pdl\drivers\peripheral\smif/cy_smif.h ****         buffCounter -= readBytes;
 804              		.loc 1 1248 0
 805 0176 3A69     		ldr	r2, [r7, #16]
 806 0178 7B69     		ldr	r3, [r7, #20]
 807 017a D31A     		subs	r3, r2, r3
 808 017c 3B61     		str	r3, [r7, #16]
1249:Generated_Source\PSoC6\pdl\drivers\peripheral\smif/cy_smif.h ****         /* Check if we already got new data in RX_FIFO*/
1250:Generated_Source\PSoC6\pdl\drivers\peripheral\smif/cy_smif.h ****         loadedFifoBytes = Cy_SMIF_GetRxFifoStatus(baseaddr);
 809              		.loc 1 1250 0
 810 017e 7868     		ldr	r0, [r7, #4]
 811 0180 FFF7FEFF 		bl	Cy_SMIF_GetRxFifoStatus
 812 0184 B860     		str	r0, [r7, #8]
1251:Generated_Source\PSoC6\pdl\drivers\peripheral\smif/cy_smif.h ****         readBytes = (loadedFifoBytes > buffCounter)? buffCounter: loadedFifoBytes;
 813              		.loc 1 1251 0
 814 0186 BA68     		ldr	r2, [r7, #8]
 815 0188 3B69     		ldr	r3, [r7, #16]
 816 018a 9342     		cmp	r3, r2
 817 018c 28BF     		it	cs
 818 018e 1346     		movcs	r3, r2
 819 0190 7B61     		str	r3, [r7, #20]
 820              	.L28:
1200:Generated_Source\PSoC6\pdl\drivers\peripheral\smif/cy_smif.h ****     {
 821              		.loc 1 1200 0
 822 0192 7B69     		ldr	r3, [r7, #20]
 823 0194 002B     		cmp	r3, #0
 824 0196 7FF449AF 		bne	.L38
1252:Generated_Source\PSoC6\pdl\drivers\peripheral\smif/cy_smif.h ****     }
1253:Generated_Source\PSoC6\pdl\drivers\peripheral\smif/cy_smif.h **** 
1254:Generated_Source\PSoC6\pdl\drivers\peripheral\smif/cy_smif.h ****     /* Save changes in the context */
1255:Generated_Source\PSoC6\pdl\drivers\peripheral\smif/cy_smif.h ****     context->rxBufferAddress = buff;
 825              		.loc 1 1255 0
 826 019a 3B68     		ldr	r3, [r7]
 827 019c FA68     		ldr	r2, [r7, #12]
 828 019e DA60     		str	r2, [r3, #12]
1256:Generated_Source\PSoC6\pdl\drivers\peripheral\smif/cy_smif.h ****     context->rxBufferCounter = buffCounter;
 829              		.loc 1 1256 0
 830 01a0 3B68     		ldr	r3, [r7]
 831 01a2 3A69     		ldr	r2, [r7, #16]
 832 01a4 5A61     		str	r2, [r3, #20]
1257:Generated_Source\PSoC6\pdl\drivers\peripheral\smif/cy_smif.h **** 
1258:Generated_Source\PSoC6\pdl\drivers\peripheral\smif/cy_smif.h ****     /* Check if all bytes are received */
1259:Generated_Source\PSoC6\pdl\drivers\peripheral\smif/cy_smif.h ****     if (0UL == buffCounter)
 833              		.loc 1 1259 0
 834 01a6 3B69     		ldr	r3, [r7, #16]
 835 01a8 002B     		cmp	r3, #0
 836 01aa 14D1     		bne	.L39
1260:Generated_Source\PSoC6\pdl\drivers\peripheral\smif/cy_smif.h ****     {
1261:Generated_Source\PSoC6\pdl\drivers\peripheral\smif/cy_smif.h ****         /* Disable the TR_RX_REQ interrupt */
1262:Generated_Source\PSoC6\pdl\drivers\peripheral\smif/cy_smif.h ****         Cy_SMIF_SetInterruptMask(baseaddr,
1263:Generated_Source\PSoC6\pdl\drivers\peripheral\smif/cy_smif.h ****             Cy_SMIF_GetInterruptMask(baseaddr) & ~SMIF_INTR_TR_RX_REQ_Msk);
 837              		.loc 1 1263 0
 838 01ac 7868     		ldr	r0, [r7, #4]
 839 01ae FFF7FEFF 		bl	Cy_SMIF_GetInterruptMask
 840 01b2 0346     		mov	r3, r0
1262:Generated_Source\PSoC6\pdl\drivers\peripheral\smif/cy_smif.h ****             Cy_SMIF_GetInterruptMask(baseaddr) & ~SMIF_INTR_TR_RX_REQ_Msk);
 841              		.loc 1 1262 0
 842 01b4 23F00203 		bic	r3, r3, #2
ARM GAS  C:\Users\ikomb\AppData\Local\Temp\ccEKz2Td.s 			page 38


 843 01b8 1946     		mov	r1, r3
 844 01ba 7868     		ldr	r0, [r7, #4]
 845 01bc FFF7FEFF 		bl	Cy_SMIF_SetInterruptMask
1264:Generated_Source\PSoC6\pdl\drivers\peripheral\smif/cy_smif.h ****         context->transferStatus = (uint32_t) CY_SMIF_REC_CMPLT;
 846              		.loc 1 1264 0
 847 01c0 3B68     		ldr	r3, [r7]
 848 01c2 0322     		movs	r2, #3
 849 01c4 9A61     		str	r2, [r3, #24]
1265:Generated_Source\PSoC6\pdl\drivers\peripheral\smif/cy_smif.h ****         if (NULL != context->rxCmpltCb)
 850              		.loc 1 1265 0
 851 01c6 3B68     		ldr	r3, [r7]
 852 01c8 1B6A     		ldr	r3, [r3, #32]
 853 01ca 002B     		cmp	r3, #0
 854 01cc 03D0     		beq	.L39
1266:Generated_Source\PSoC6\pdl\drivers\peripheral\smif/cy_smif.h ****         {
1267:Generated_Source\PSoC6\pdl\drivers\peripheral\smif/cy_smif.h ****             context->rxCmpltCb((uint32_t) CY_SMIF_REC_CMPLT);
 855              		.loc 1 1267 0
 856 01ce 3B68     		ldr	r3, [r7]
 857 01d0 1B6A     		ldr	r3, [r3, #32]
 858 01d2 0320     		movs	r0, #3
 859 01d4 9847     		blx	r3
 860              	.L39:
1268:Generated_Source\PSoC6\pdl\drivers\peripheral\smif/cy_smif.h ****         }
1269:Generated_Source\PSoC6\pdl\drivers\peripheral\smif/cy_smif.h ****     }
1270:Generated_Source\PSoC6\pdl\drivers\peripheral\smif/cy_smif.h **** 
1271:Generated_Source\PSoC6\pdl\drivers\peripheral\smif/cy_smif.h ****     context->rxBufferCounter = buffCounter;
 861              		.loc 1 1271 0
 862 01d6 3B68     		ldr	r3, [r7]
 863 01d8 3A69     		ldr	r2, [r7, #16]
 864 01da 5A61     		str	r2, [r3, #20]
1272:Generated_Source\PSoC6\pdl\drivers\peripheral\smif/cy_smif.h **** }
 865              		.loc 1 1272 0
 866 01dc 00BF     		nop
 867 01de 1837     		adds	r7, r7, #24
 868              		.cfi_def_cfa_offset 8
 869 01e0 BD46     		mov	sp, r7
 870              		.cfi_def_cfa_register 13
 871              		@ sp needed
 872 01e2 80BD     		pop	{r7, pc}
 873              		.cfi_endproc
 874              	.LFE173:
 875              		.size	Cy_SMIF_PopRxFifo, .-Cy_SMIF_PopRxFifo
 876              		.section	.text.Cy_SMIF_PackBytesArray,"ax",%progbits
 877              		.align	2
 878              		.thumb
 879              		.thumb_func
 880              		.type	Cy_SMIF_PackBytesArray, %function
 881              	Cy_SMIF_PackBytesArray:
 882              	.LFB174:
1273:Generated_Source\PSoC6\pdl\drivers\peripheral\smif/cy_smif.h **** 
1274:Generated_Source\PSoC6\pdl\drivers\peripheral\smif/cy_smif.h **** 
1275:Generated_Source\PSoC6\pdl\drivers\peripheral\smif/cy_smif.h **** /*******************************************************************************
1276:Generated_Source\PSoC6\pdl\drivers\peripheral\smif/cy_smif.h **** * Function Name: Cy_SMIF_PackBytesArray
1277:Generated_Source\PSoC6\pdl\drivers\peripheral\smif/cy_smif.h **** ***************************************************************************//***
1278:Generated_Source\PSoC6\pdl\drivers\peripheral\smif/cy_smif.h **** *
1279:Generated_Source\PSoC6\pdl\drivers\peripheral\smif/cy_smif.h **** * \internal
1280:Generated_Source\PSoC6\pdl\drivers\peripheral\smif/cy_smif.h **** *
ARM GAS  C:\Users\ikomb\AppData\Local\Temp\ccEKz2Td.s 			page 39


1281:Generated_Source\PSoC6\pdl\drivers\peripheral\smif/cy_smif.h **** * This function packs 0-numBytes of the buff byte array into a 4-byte value.
1282:Generated_Source\PSoC6\pdl\drivers\peripheral\smif/cy_smif.h **** *
1283:Generated_Source\PSoC6\pdl\drivers\peripheral\smif/cy_smif.h **** * \param buff
1284:Generated_Source\PSoC6\pdl\drivers\peripheral\smif/cy_smif.h **** * The byte array to pack.
1285:Generated_Source\PSoC6\pdl\drivers\peripheral\smif/cy_smif.h **** *
1286:Generated_Source\PSoC6\pdl\drivers\peripheral\smif/cy_smif.h **** * \param fourBytes
1287:Generated_Source\PSoC6\pdl\drivers\peripheral\smif/cy_smif.h **** *  - The True pack is for a 32-bit value.
1288:Generated_Source\PSoC6\pdl\drivers\peripheral\smif/cy_smif.h **** *  - The False pack is for a 16-bit value.
1289:Generated_Source\PSoC6\pdl\drivers\peripheral\smif/cy_smif.h **** *
1290:Generated_Source\PSoC6\pdl\drivers\peripheral\smif/cy_smif.h **** * \return
1291:Generated_Source\PSoC6\pdl\drivers\peripheral\smif/cy_smif.h **** *  The 4-byte value packed from the byte array.
1292:Generated_Source\PSoC6\pdl\drivers\peripheral\smif/cy_smif.h **** *
1293:Generated_Source\PSoC6\pdl\drivers\peripheral\smif/cy_smif.h **** *******************************************************************************/
1294:Generated_Source\PSoC6\pdl\drivers\peripheral\smif/cy_smif.h **** __STATIC_INLINE uint32_t Cy_SMIF_PackBytesArray(uint8_t const buff[], bool fourBytes)
1295:Generated_Source\PSoC6\pdl\drivers\peripheral\smif/cy_smif.h **** {
 883              		.loc 1 1295 0
 884              		.cfi_startproc
 885              		@ args = 0, pretend = 0, frame = 16
 886              		@ frame_needed = 1, uses_anonymous_args = 0
 887              		@ link register save eliminated.
 888 0000 80B4     		push	{r7}
 889              		.cfi_def_cfa_offset 4
 890              		.cfi_offset 7, -4
 891 0002 85B0     		sub	sp, sp, #20
 892              		.cfi_def_cfa_offset 24
 893 0004 00AF     		add	r7, sp, #0
 894              		.cfi_def_cfa_register 7
 895 0006 7860     		str	r0, [r7, #4]
 896 0008 0B46     		mov	r3, r1
 897 000a FB70     		strb	r3, [r7, #3]
1296:Generated_Source\PSoC6\pdl\drivers\peripheral\smif/cy_smif.h ****     uint32_t result = 0UL;
 898              		.loc 1 1296 0
 899 000c 0023     		movs	r3, #0
 900 000e FB60     		str	r3, [r7, #12]
1297:Generated_Source\PSoC6\pdl\drivers\peripheral\smif/cy_smif.h **** 
1298:Generated_Source\PSoC6\pdl\drivers\peripheral\smif/cy_smif.h ****     result = ((uint32_t)buff[1UL] << 8UL) | (uint32_t)buff[0UL];
 901              		.loc 1 1298 0
 902 0010 7B68     		ldr	r3, [r7, #4]
 903 0012 0133     		adds	r3, r3, #1
 904 0014 1B78     		ldrb	r3, [r3]	@ zero_extendqisi2
 905 0016 1B02     		lsls	r3, r3, #8
 906 0018 7A68     		ldr	r2, [r7, #4]
 907 001a 1278     		ldrb	r2, [r2]	@ zero_extendqisi2
 908 001c 1343     		orrs	r3, r3, r2
 909 001e FB60     		str	r3, [r7, #12]
1299:Generated_Source\PSoC6\pdl\drivers\peripheral\smif/cy_smif.h **** 
1300:Generated_Source\PSoC6\pdl\drivers\peripheral\smif/cy_smif.h ****     if(fourBytes)
 910              		.loc 1 1300 0
 911 0020 FB78     		ldrb	r3, [r7, #3]	@ zero_extendqisi2
 912 0022 002B     		cmp	r3, #0
 913 0024 0BD0     		beq	.L41
1301:Generated_Source\PSoC6\pdl\drivers\peripheral\smif/cy_smif.h ****     {
1302:Generated_Source\PSoC6\pdl\drivers\peripheral\smif/cy_smif.h ****         result |= ((uint32_t)buff[3UL] << 24UL) | ((uint32_t)buff[2UL] << 16UL);
 914              		.loc 1 1302 0
 915 0026 7B68     		ldr	r3, [r7, #4]
 916 0028 0333     		adds	r3, r3, #3
 917 002a 1B78     		ldrb	r3, [r3]	@ zero_extendqisi2
ARM GAS  C:\Users\ikomb\AppData\Local\Temp\ccEKz2Td.s 			page 40


 918 002c 1A06     		lsls	r2, r3, #24
 919 002e 7B68     		ldr	r3, [r7, #4]
 920 0030 0233     		adds	r3, r3, #2
 921 0032 1B78     		ldrb	r3, [r3]	@ zero_extendqisi2
 922 0034 1B04     		lsls	r3, r3, #16
 923 0036 1343     		orrs	r3, r3, r2
 924 0038 FA68     		ldr	r2, [r7, #12]
 925 003a 1343     		orrs	r3, r3, r2
 926 003c FB60     		str	r3, [r7, #12]
 927              	.L41:
1303:Generated_Source\PSoC6\pdl\drivers\peripheral\smif/cy_smif.h ****     }
1304:Generated_Source\PSoC6\pdl\drivers\peripheral\smif/cy_smif.h **** 
1305:Generated_Source\PSoC6\pdl\drivers\peripheral\smif/cy_smif.h ****     return result;
 928              		.loc 1 1305 0
 929 003e FB68     		ldr	r3, [r7, #12]
1306:Generated_Source\PSoC6\pdl\drivers\peripheral\smif/cy_smif.h **** }
 930              		.loc 1 1306 0
 931 0040 1846     		mov	r0, r3
 932 0042 1437     		adds	r7, r7, #20
 933              		.cfi_def_cfa_offset 4
 934 0044 BD46     		mov	sp, r7
 935              		.cfi_def_cfa_register 13
 936              		@ sp needed
 937 0046 5DF8047B 		ldr	r7, [sp], #4
 938              		.cfi_restore 7
 939              		.cfi_def_cfa_offset 0
 940 004a 7047     		bx	lr
 941              		.cfi_endproc
 942              	.LFE174:
 943              		.size	Cy_SMIF_PackBytesArray, .-Cy_SMIF_PackBytesArray
 944              		.section	.text.Cy_SMIF_UnPackByteArray,"ax",%progbits
 945              		.align	2
 946              		.thumb
 947              		.thumb_func
 948              		.type	Cy_SMIF_UnPackByteArray, %function
 949              	Cy_SMIF_UnPackByteArray:
 950              	.LFB175:
1307:Generated_Source\PSoC6\pdl\drivers\peripheral\smif/cy_smif.h **** 
1308:Generated_Source\PSoC6\pdl\drivers\peripheral\smif/cy_smif.h **** 
1309:Generated_Source\PSoC6\pdl\drivers\peripheral\smif/cy_smif.h **** /*******************************************************************************
1310:Generated_Source\PSoC6\pdl\drivers\peripheral\smif/cy_smif.h **** * Function Name: Cy_SMIF_UnPackByteArray
1311:Generated_Source\PSoC6\pdl\drivers\peripheral\smif/cy_smif.h **** ***************************************************************************//***
1312:Generated_Source\PSoC6\pdl\drivers\peripheral\smif/cy_smif.h **** *
1313:Generated_Source\PSoC6\pdl\drivers\peripheral\smif/cy_smif.h **** * \internal
1314:Generated_Source\PSoC6\pdl\drivers\peripheral\smif/cy_smif.h **** *
1315:Generated_Source\PSoC6\pdl\drivers\peripheral\smif/cy_smif.h **** * This function unpacks 0-numBytes from a 4-byte value into the byte array outBuff.
1316:Generated_Source\PSoC6\pdl\drivers\peripheral\smif/cy_smif.h **** *
1317:Generated_Source\PSoC6\pdl\drivers\peripheral\smif/cy_smif.h **** * \param smifReg
1318:Generated_Source\PSoC6\pdl\drivers\peripheral\smif/cy_smif.h **** *  The 4-byte value to unpack.
1319:Generated_Source\PSoC6\pdl\drivers\peripheral\smif/cy_smif.h **** *
1320:Generated_Source\PSoC6\pdl\drivers\peripheral\smif/cy_smif.h **** * \param outBuff
1321:Generated_Source\PSoC6\pdl\drivers\peripheral\smif/cy_smif.h **** * The byte array to fill.
1322:Generated_Source\PSoC6\pdl\drivers\peripheral\smif/cy_smif.h **** *
1323:Generated_Source\PSoC6\pdl\drivers\peripheral\smif/cy_smif.h **** * \param fourBytes
1324:Generated_Source\PSoC6\pdl\drivers\peripheral\smif/cy_smif.h **** *  - The True unpack is for a 32-bit value.
1325:Generated_Source\PSoC6\pdl\drivers\peripheral\smif/cy_smif.h **** *  - The False unpack is for a 16-bit value.
1326:Generated_Source\PSoC6\pdl\drivers\peripheral\smif/cy_smif.h **** *
ARM GAS  C:\Users\ikomb\AppData\Local\Temp\ccEKz2Td.s 			page 41


1327:Generated_Source\PSoC6\pdl\drivers\peripheral\smif/cy_smif.h **** *******************************************************************************/
1328:Generated_Source\PSoC6\pdl\drivers\peripheral\smif/cy_smif.h **** __STATIC_INLINE void Cy_SMIF_UnPackByteArray(uint32_t inValue, uint8_t outBuff[], bool fourBytes)
1329:Generated_Source\PSoC6\pdl\drivers\peripheral\smif/cy_smif.h **** {
 951              		.loc 1 1329 0
 952              		.cfi_startproc
 953              		@ args = 0, pretend = 0, frame = 16
 954              		@ frame_needed = 1, uses_anonymous_args = 0
 955              		@ link register save eliminated.
 956 0000 80B4     		push	{r7}
 957              		.cfi_def_cfa_offset 4
 958              		.cfi_offset 7, -4
 959 0002 85B0     		sub	sp, sp, #20
 960              		.cfi_def_cfa_offset 24
 961 0004 00AF     		add	r7, sp, #0
 962              		.cfi_def_cfa_register 7
 963 0006 F860     		str	r0, [r7, #12]
 964 0008 B960     		str	r1, [r7, #8]
 965 000a 1346     		mov	r3, r2
 966 000c FB71     		strb	r3, [r7, #7]
1330:Generated_Source\PSoC6\pdl\drivers\peripheral\smif/cy_smif.h ****     outBuff[0UL] = (uint8_t)(inValue & 0xFFUL);
 967              		.loc 1 1330 0
 968 000e FB68     		ldr	r3, [r7, #12]
 969 0010 DAB2     		uxtb	r2, r3
 970 0012 BB68     		ldr	r3, [r7, #8]
 971 0014 1A70     		strb	r2, [r3]
1331:Generated_Source\PSoC6\pdl\drivers\peripheral\smif/cy_smif.h ****     outBuff[1UL] = (uint8_t)((inValue >> 8UL ) & 0xFFUL);
 972              		.loc 1 1331 0
 973 0016 BB68     		ldr	r3, [r7, #8]
 974 0018 0133     		adds	r3, r3, #1
 975 001a FA68     		ldr	r2, [r7, #12]
 976 001c 120A     		lsrs	r2, r2, #8
 977 001e D2B2     		uxtb	r2, r2
 978 0020 1A70     		strb	r2, [r3]
1332:Generated_Source\PSoC6\pdl\drivers\peripheral\smif/cy_smif.h **** 
1333:Generated_Source\PSoC6\pdl\drivers\peripheral\smif/cy_smif.h ****     if(fourBytes)
 979              		.loc 1 1333 0
 980 0022 FB79     		ldrb	r3, [r7, #7]	@ zero_extendqisi2
 981 0024 002B     		cmp	r3, #0
 982 0026 0BD0     		beq	.L45
1334:Generated_Source\PSoC6\pdl\drivers\peripheral\smif/cy_smif.h ****     {
1335:Generated_Source\PSoC6\pdl\drivers\peripheral\smif/cy_smif.h ****         outBuff[2UL] = (uint8_t)((inValue >> 16UL) & 0xFFUL);
 983              		.loc 1 1335 0
 984 0028 BB68     		ldr	r3, [r7, #8]
 985 002a 0233     		adds	r3, r3, #2
 986 002c FA68     		ldr	r2, [r7, #12]
 987 002e 120C     		lsrs	r2, r2, #16
 988 0030 D2B2     		uxtb	r2, r2
 989 0032 1A70     		strb	r2, [r3]
1336:Generated_Source\PSoC6\pdl\drivers\peripheral\smif/cy_smif.h ****         outBuff[3UL] = (uint8_t)((inValue >> 24UL) & 0xFFUL);
 990              		.loc 1 1336 0
 991 0034 BB68     		ldr	r3, [r7, #8]
 992 0036 0333     		adds	r3, r3, #3
 993 0038 FA68     		ldr	r2, [r7, #12]
 994 003a 120E     		lsrs	r2, r2, #24
 995 003c D2B2     		uxtb	r2, r2
 996 003e 1A70     		strb	r2, [r3]
 997              	.L45:
ARM GAS  C:\Users\ikomb\AppData\Local\Temp\ccEKz2Td.s 			page 42


1337:Generated_Source\PSoC6\pdl\drivers\peripheral\smif/cy_smif.h ****     }
1338:Generated_Source\PSoC6\pdl\drivers\peripheral\smif/cy_smif.h **** }
 998              		.loc 1 1338 0
 999 0040 00BF     		nop
 1000 0042 1437     		adds	r7, r7, #20
 1001              		.cfi_def_cfa_offset 4
 1002 0044 BD46     		mov	sp, r7
 1003              		.cfi_def_cfa_register 13
 1004              		@ sp needed
 1005 0046 5DF8047B 		ldr	r7, [sp], #4
 1006              		.cfi_restore 7
 1007              		.cfi_def_cfa_offset 0
 1008 004a 7047     		bx	lr
 1009              		.cfi_endproc
 1010              	.LFE175:
 1011              		.size	Cy_SMIF_UnPackByteArray, .-Cy_SMIF_UnPackByteArray
 1012              		.section	.text.Cy_SMIF_TimeoutRun,"ax",%progbits
 1013              		.align	2
 1014              		.thumb
 1015              		.thumb_func
 1016              		.type	Cy_SMIF_TimeoutRun, %function
 1017              	Cy_SMIF_TimeoutRun:
 1018              	.LFB176:
1339:Generated_Source\PSoC6\pdl\drivers\peripheral\smif/cy_smif.h **** 
1340:Generated_Source\PSoC6\pdl\drivers\peripheral\smif/cy_smif.h **** 
1341:Generated_Source\PSoC6\pdl\drivers\peripheral\smif/cy_smif.h **** /*******************************************************************************
1342:Generated_Source\PSoC6\pdl\drivers\peripheral\smif/cy_smif.h **** * Function Name: Cy_SMIF_TimeoutRun
1343:Generated_Source\PSoC6\pdl\drivers\peripheral\smif/cy_smif.h **** ****************************************************************************//**
1344:Generated_Source\PSoC6\pdl\drivers\peripheral\smif/cy_smif.h **** *
1345:Generated_Source\PSoC6\pdl\drivers\peripheral\smif/cy_smif.h **** * \internal
1346:Generated_Source\PSoC6\pdl\drivers\peripheral\smif/cy_smif.h **** *
1347:Generated_Source\PSoC6\pdl\drivers\peripheral\smif/cy_smif.h **** * This function checks if the timeout is expired. Use the Cy_SysLib_DelayUs() function for
1348:Generated_Source\PSoC6\pdl\drivers\peripheral\smif/cy_smif.h **** * implementation.
1349:Generated_Source\PSoC6\pdl\drivers\peripheral\smif/cy_smif.h **** *
1350:Generated_Source\PSoC6\pdl\drivers\peripheral\smif/cy_smif.h **** * \param timeoutUnits
1351:Generated_Source\PSoC6\pdl\drivers\peripheral\smif/cy_smif.h **** *  The pointer to the timeout. The timeout measured in microseconds is multiplied by
1352:Generated_Source\PSoC6\pdl\drivers\peripheral\smif/cy_smif.h **** *  CY_SMIF_WAIT_1_UNIT.
1353:Generated_Source\PSoC6\pdl\drivers\peripheral\smif/cy_smif.h **** *
1354:Generated_Source\PSoC6\pdl\drivers\peripheral\smif/cy_smif.h **** * \return
1355:Generated_Source\PSoC6\pdl\drivers\peripheral\smif/cy_smif.h **** * A timeout status:
1356:Generated_Source\PSoC6\pdl\drivers\peripheral\smif/cy_smif.h **** *     - \ref CY_SMIF_SUCCESS - The timeout has not expired or input timeoutUnits is 0.
1357:Generated_Source\PSoC6\pdl\drivers\peripheral\smif/cy_smif.h **** *     - \ref CY_SMIF_EXCEED_TIMEOUT - The timeout has expired.
1358:Generated_Source\PSoC6\pdl\drivers\peripheral\smif/cy_smif.h **** *
1359:Generated_Source\PSoC6\pdl\drivers\peripheral\smif/cy_smif.h **** *******************************************************************************/
1360:Generated_Source\PSoC6\pdl\drivers\peripheral\smif/cy_smif.h **** __STATIC_INLINE cy_en_smif_status_t Cy_SMIF_TimeoutRun(uint32_t *timeoutUnits)
1361:Generated_Source\PSoC6\pdl\drivers\peripheral\smif/cy_smif.h **** {
 1019              		.loc 1 1361 0
 1020              		.cfi_startproc
 1021              		@ args = 0, pretend = 0, frame = 16
 1022              		@ frame_needed = 1, uses_anonymous_args = 0
 1023 0000 80B5     		push	{r7, lr}
 1024              		.cfi_def_cfa_offset 8
 1025              		.cfi_offset 7, -8
 1026              		.cfi_offset 14, -4
 1027 0002 84B0     		sub	sp, sp, #16
 1028              		.cfi_def_cfa_offset 24
 1029 0004 00AF     		add	r7, sp, #0
ARM GAS  C:\Users\ikomb\AppData\Local\Temp\ccEKz2Td.s 			page 43


 1030              		.cfi_def_cfa_register 7
 1031 0006 7860     		str	r0, [r7, #4]
1362:Generated_Source\PSoC6\pdl\drivers\peripheral\smif/cy_smif.h ****     cy_en_smif_status_t status = CY_SMIF_SUCCESS;
 1032              		.loc 1 1362 0
 1033 0008 0023     		movs	r3, #0
 1034 000a FB60     		str	r3, [r7, #12]
1363:Generated_Source\PSoC6\pdl\drivers\peripheral\smif/cy_smif.h ****     if (*timeoutUnits > 0u)
 1035              		.loc 1 1363 0
 1036 000c 7B68     		ldr	r3, [r7, #4]
 1037 000e 1B68     		ldr	r3, [r3]
 1038 0010 002B     		cmp	r3, #0
 1039 0012 0FD0     		beq	.L47
1364:Generated_Source\PSoC6\pdl\drivers\peripheral\smif/cy_smif.h ****     {
1365:Generated_Source\PSoC6\pdl\drivers\peripheral\smif/cy_smif.h ****         Cy_SysLib_DelayUs(CY_SMIF_WAIT_1_UNIT);
 1040              		.loc 1 1365 0
 1041 0014 0120     		movs	r0, #1
 1042 0016 FFF7FEFF 		bl	Cy_SysLib_DelayUs
1366:Generated_Source\PSoC6\pdl\drivers\peripheral\smif/cy_smif.h ****         --(*timeoutUnits);
 1043              		.loc 1 1366 0
 1044 001a 7B68     		ldr	r3, [r7, #4]
 1045 001c 1B68     		ldr	r3, [r3]
 1046 001e 5A1E     		subs	r2, r3, #1
 1047 0020 7B68     		ldr	r3, [r7, #4]
 1048 0022 1A60     		str	r2, [r3]
1367:Generated_Source\PSoC6\pdl\drivers\peripheral\smif/cy_smif.h ****         status = (0u == (*timeoutUnits))? CY_SMIF_EXCEED_TIMEOUT: CY_SMIF_SUCCESS;
 1049              		.loc 1 1367 0
 1050 0024 7B68     		ldr	r3, [r7, #4]
 1051 0026 1B68     		ldr	r3, [r3]
 1052 0028 002B     		cmp	r3, #0
 1053 002a 01D1     		bne	.L48
 1054              		.loc 1 1367 0 is_stmt 0 discriminator 1
 1055 002c 044B     		ldr	r3, .L51
 1056 002e 00E0     		b	.L49
 1057              	.L48:
 1058              		.loc 1 1367 0 discriminator 2
 1059 0030 0023     		movs	r3, #0
 1060              	.L49:
 1061              		.loc 1 1367 0 discriminator 4
 1062 0032 FB60     		str	r3, [r7, #12]
 1063              	.L47:
1368:Generated_Source\PSoC6\pdl\drivers\peripheral\smif/cy_smif.h ****     }
1369:Generated_Source\PSoC6\pdl\drivers\peripheral\smif/cy_smif.h ****     return status;
 1064              		.loc 1 1369 0 is_stmt 1
 1065 0034 FB68     		ldr	r3, [r7, #12]
1370:Generated_Source\PSoC6\pdl\drivers\peripheral\smif/cy_smif.h **** }
 1066              		.loc 1 1370 0
 1067 0036 1846     		mov	r0, r3
 1068 0038 1037     		adds	r7, r7, #16
 1069              		.cfi_def_cfa_offset 8
 1070 003a BD46     		mov	sp, r7
 1071              		.cfi_def_cfa_register 13
 1072              		@ sp needed
 1073 003c 80BD     		pop	{r7, pc}
 1074              	.L52:
 1075 003e 00BF     		.align	2
 1076              	.L51:
 1077 0040 0200B200 		.word	11665410
ARM GAS  C:\Users\ikomb\AppData\Local\Temp\ccEKz2Td.s 			page 44


 1078              		.cfi_endproc
 1079              	.LFE176:
 1080              		.size	Cy_SMIF_TimeoutRun, .-Cy_SMIF_TimeoutRun
 1081              		.section	.text.Cy_SMIF_GetDeviceBySlot,"ax",%progbits
 1082              		.align	2
 1083              		.thumb
 1084              		.thumb_func
 1085              		.type	Cy_SMIF_GetDeviceBySlot, %function
 1086              	Cy_SMIF_GetDeviceBySlot:
 1087              	.LFB177:
1371:Generated_Source\PSoC6\pdl\drivers\peripheral\smif/cy_smif.h **** 
1372:Generated_Source\PSoC6\pdl\drivers\peripheral\smif/cy_smif.h **** 
1373:Generated_Source\PSoC6\pdl\drivers\peripheral\smif/cy_smif.h **** /*******************************************************************************
1374:Generated_Source\PSoC6\pdl\drivers\peripheral\smif/cy_smif.h **** * Function Name: Cy_SMIF_GetDeviceBySlot
1375:Generated_Source\PSoC6\pdl\drivers\peripheral\smif/cy_smif.h **** ****************************************************************************//**
1376:Generated_Source\PSoC6\pdl\drivers\peripheral\smif/cy_smif.h **** *
1377:Generated_Source\PSoC6\pdl\drivers\peripheral\smif/cy_smif.h **** * \internal
1378:Generated_Source\PSoC6\pdl\drivers\peripheral\smif/cy_smif.h **** * This function returns the address of the SMIF device registers structure by the slave
1379:Generated_Source\PSoC6\pdl\drivers\peripheral\smif/cy_smif.h **** * slot number.
1380:Generated_Source\PSoC6\pdl\drivers\peripheral\smif/cy_smif.h **** *
1381:Generated_Source\PSoC6\pdl\drivers\peripheral\smif/cy_smif.h **** * \param base
1382:Generated_Source\PSoC6\pdl\drivers\peripheral\smif/cy_smif.h **** * Holds the base address of the SMIF block registers.
1383:Generated_Source\PSoC6\pdl\drivers\peripheral\smif/cy_smif.h **** *
1384:Generated_Source\PSoC6\pdl\drivers\peripheral\smif/cy_smif.h **** * \param slaveSlot
1385:Generated_Source\PSoC6\pdl\drivers\peripheral\smif/cy_smif.h **** * The slave device ID. This number is either CY_SMIF_SLAVE_SELECT_0 or
1386:Generated_Source\PSoC6\pdl\drivers\peripheral\smif/cy_smif.h **** * CY_SMIF_SLAVE_SELECT_1 or CY_SMIF_SLAVE_SELECT_2 or CY_SMIF_SLAVE_SELECT_3
1387:Generated_Source\PSoC6\pdl\drivers\peripheral\smif/cy_smif.h **** * (\ref cy_en_smif_slave_select_t). It defines the slave-select line to use
1388:Generated_Source\PSoC6\pdl\drivers\peripheral\smif/cy_smif.h **** * during the transmission.
1389:Generated_Source\PSoC6\pdl\drivers\peripheral\smif/cy_smif.h **** *
1390:Generated_Source\PSoC6\pdl\drivers\peripheral\smif/cy_smif.h **** *******************************************************************************/
1391:Generated_Source\PSoC6\pdl\drivers\peripheral\smif/cy_smif.h **** __STATIC_INLINE SMIF_DEVICE_Type volatile * Cy_SMIF_GetDeviceBySlot(SMIF_Type *base,
1392:Generated_Source\PSoC6\pdl\drivers\peripheral\smif/cy_smif.h ****                                             cy_en_smif_slave_select_t slaveSelect)
1393:Generated_Source\PSoC6\pdl\drivers\peripheral\smif/cy_smif.h **** {
 1088              		.loc 1 1393 0
 1089              		.cfi_startproc
 1090              		@ args = 0, pretend = 0, frame = 16
 1091              		@ frame_needed = 1, uses_anonymous_args = 0
 1092              		@ link register save eliminated.
 1093 0000 80B4     		push	{r7}
 1094              		.cfi_def_cfa_offset 4
 1095              		.cfi_offset 7, -4
 1096 0002 85B0     		sub	sp, sp, #20
 1097              		.cfi_def_cfa_offset 24
 1098 0004 00AF     		add	r7, sp, #0
 1099              		.cfi_def_cfa_register 7
 1100 0006 7860     		str	r0, [r7, #4]
 1101 0008 0B46     		mov	r3, r1
 1102 000a FB70     		strb	r3, [r7, #3]
1394:Generated_Source\PSoC6\pdl\drivers\peripheral\smif/cy_smif.h ****     SMIF_DEVICE_Type volatile *device;
1395:Generated_Source\PSoC6\pdl\drivers\peripheral\smif/cy_smif.h ****     /* Connect the slave to its data lines */
1396:Generated_Source\PSoC6\pdl\drivers\peripheral\smif/cy_smif.h ****     switch (slaveSelect)
 1103              		.loc 1 1396 0
 1104 000c FB78     		ldrb	r3, [r7, #3]	@ zero_extendqisi2
 1105 000e 013B     		subs	r3, r3, #1
 1106 0010 072B     		cmp	r3, #7
 1107 0012 27D8     		bhi	.L54
 1108 0014 01A2     		adr	r2, .L56
ARM GAS  C:\Users\ikomb\AppData\Local\Temp\ccEKz2Td.s 			page 45


 1109 0016 52F823F0 		ldr	pc, [r2, r3, lsl #2]
 1110 001a 00BF     		.p2align 2
 1111              	.L56:
 1112 001c 3D000000 		.word	.L55+1
 1113 0020 47000000 		.word	.L57+1
 1114 0024 65000000 		.word	.L54+1
 1115 0028 51000000 		.word	.L58+1
 1116 002c 65000000 		.word	.L54+1
 1117 0030 65000000 		.word	.L54+1
 1118 0034 65000000 		.word	.L54+1
 1119 0038 5B000000 		.word	.L59+1
 1120              		.p2align 1
 1121              	.L55:
1397:Generated_Source\PSoC6\pdl\drivers\peripheral\smif/cy_smif.h ****     {
1398:Generated_Source\PSoC6\pdl\drivers\peripheral\smif/cy_smif.h ****         case CY_SMIF_SLAVE_SELECT_0:
1399:Generated_Source\PSoC6\pdl\drivers\peripheral\smif/cy_smif.h ****             device = &(base->DEVICE[0]);
 1122              		.loc 1 1399 0
 1123 003c 7B68     		ldr	r3, [r7, #4]
 1124 003e 03F50063 		add	r3, r3, #2048
 1125 0042 FB60     		str	r3, [r7, #12]
1400:Generated_Source\PSoC6\pdl\drivers\peripheral\smif/cy_smif.h ****             break;
 1126              		.loc 1 1400 0
 1127 0044 11E0     		b	.L60
 1128              	.L57:
1401:Generated_Source\PSoC6\pdl\drivers\peripheral\smif/cy_smif.h ****         case CY_SMIF_SLAVE_SELECT_1:
1402:Generated_Source\PSoC6\pdl\drivers\peripheral\smif/cy_smif.h ****             device = &(base->DEVICE[1]);
 1129              		.loc 1 1402 0
 1130 0046 7B68     		ldr	r3, [r7, #4]
 1131 0048 03F50863 		add	r3, r3, #2176
 1132 004c FB60     		str	r3, [r7, #12]
1403:Generated_Source\PSoC6\pdl\drivers\peripheral\smif/cy_smif.h ****             break;
 1133              		.loc 1 1403 0
 1134 004e 0CE0     		b	.L60
 1135              	.L58:
1404:Generated_Source\PSoC6\pdl\drivers\peripheral\smif/cy_smif.h ****         case CY_SMIF_SLAVE_SELECT_2:
1405:Generated_Source\PSoC6\pdl\drivers\peripheral\smif/cy_smif.h ****             device = &(base->DEVICE[2]);
 1136              		.loc 1 1405 0
 1137 0050 7B68     		ldr	r3, [r7, #4]
 1138 0052 03F51063 		add	r3, r3, #2304
 1139 0056 FB60     		str	r3, [r7, #12]
1406:Generated_Source\PSoC6\pdl\drivers\peripheral\smif/cy_smif.h ****             break;
 1140              		.loc 1 1406 0
 1141 0058 07E0     		b	.L60
 1142              	.L59:
1407:Generated_Source\PSoC6\pdl\drivers\peripheral\smif/cy_smif.h ****         case CY_SMIF_SLAVE_SELECT_3:
1408:Generated_Source\PSoC6\pdl\drivers\peripheral\smif/cy_smif.h ****             device = &(base->DEVICE[3]);
 1143              		.loc 1 1408 0
 1144 005a 7B68     		ldr	r3, [r7, #4]
 1145 005c 03F51863 		add	r3, r3, #2432
 1146 0060 FB60     		str	r3, [r7, #12]
1409:Generated_Source\PSoC6\pdl\drivers\peripheral\smif/cy_smif.h ****             break;
 1147              		.loc 1 1409 0
 1148 0062 02E0     		b	.L60
 1149              	.L54:
1410:Generated_Source\PSoC6\pdl\drivers\peripheral\smif/cy_smif.h ****         default:
1411:Generated_Source\PSoC6\pdl\drivers\peripheral\smif/cy_smif.h ****             /* A user error*/
1412:Generated_Source\PSoC6\pdl\drivers\peripheral\smif/cy_smif.h ****             device = NULL;
ARM GAS  C:\Users\ikomb\AppData\Local\Temp\ccEKz2Td.s 			page 46


 1150              		.loc 1 1412 0
 1151 0064 0023     		movs	r3, #0
 1152 0066 FB60     		str	r3, [r7, #12]
1413:Generated_Source\PSoC6\pdl\drivers\peripheral\smif/cy_smif.h ****             break;
 1153              		.loc 1 1413 0
 1154 0068 00BF     		nop
 1155              	.L60:
1414:Generated_Source\PSoC6\pdl\drivers\peripheral\smif/cy_smif.h ****     }
1415:Generated_Source\PSoC6\pdl\drivers\peripheral\smif/cy_smif.h **** 
1416:Generated_Source\PSoC6\pdl\drivers\peripheral\smif/cy_smif.h ****     return device;
 1156              		.loc 1 1416 0
 1157 006a FB68     		ldr	r3, [r7, #12]
1417:Generated_Source\PSoC6\pdl\drivers\peripheral\smif/cy_smif.h **** }
 1158              		.loc 1 1417 0
 1159 006c 1846     		mov	r0, r3
 1160 006e 1437     		adds	r7, r7, #20
 1161              		.cfi_def_cfa_offset 4
 1162 0070 BD46     		mov	sp, r7
 1163              		.cfi_def_cfa_register 13
 1164              		@ sp needed
 1165 0072 5DF8047B 		ldr	r7, [sp], #4
 1166              		.cfi_restore 7
 1167              		.cfi_def_cfa_offset 0
 1168 0076 7047     		bx	lr
 1169              		.cfi_endproc
 1170              	.LFE177:
 1171              		.size	Cy_SMIF_GetDeviceBySlot, .-Cy_SMIF_GetDeviceBySlot
 1172              		.section	.rodata
 1173              		.align	2
 1174              	.LC0:
 1175 0000 47656E65 		.ascii	"Generated_Source\\PSoC6\\pdl\\drivers\\peripheral\\"
 1175      72617465 
 1175      645F536F 
 1175      75726365 
 1175      5C50536F 
 1176 002e 736D6966 		.ascii	"smif\\cy_smif.c\000"
 1176      5C63795F 
 1176      736D6966 
 1176      2E6300
 1177              		.section	.text.Cy_SMIF_Init,"ax",%progbits
 1178              		.align	2
 1179              		.global	Cy_SMIF_Init
 1180              		.thumb
 1181              		.thumb_func
 1182              		.type	Cy_SMIF_Init, %function
 1183              	Cy_SMIF_Init:
 1184              	.LFB178:
 1185              		.file 2 "Generated_Source\\PSoC6\\pdl\\drivers\\peripheral\\smif\\cy_smif.c"
   1:Generated_Source\PSoC6\pdl\drivers\peripheral\smif/cy_smif.c **** /***************************************************************************//**
   2:Generated_Source\PSoC6\pdl\drivers\peripheral\smif/cy_smif.c **** * \file cy_smif.c
   3:Generated_Source\PSoC6\pdl\drivers\peripheral\smif/cy_smif.c **** * \version 1.10.1
   4:Generated_Source\PSoC6\pdl\drivers\peripheral\smif/cy_smif.c **** *
   5:Generated_Source\PSoC6\pdl\drivers\peripheral\smif/cy_smif.c **** * \brief
   6:Generated_Source\PSoC6\pdl\drivers\peripheral\smif/cy_smif.c **** *  This file provides the source code for the SMIF driver APIs.
   7:Generated_Source\PSoC6\pdl\drivers\peripheral\smif/cy_smif.c **** *
   8:Generated_Source\PSoC6\pdl\drivers\peripheral\smif/cy_smif.c **** * Note:
   9:Generated_Source\PSoC6\pdl\drivers\peripheral\smif/cy_smif.c **** *
ARM GAS  C:\Users\ikomb\AppData\Local\Temp\ccEKz2Td.s 			page 47


  10:Generated_Source\PSoC6\pdl\drivers\peripheral\smif/cy_smif.c **** ********************************************************************************
  11:Generated_Source\PSoC6\pdl\drivers\peripheral\smif/cy_smif.c **** * \copyright
  12:Generated_Source\PSoC6\pdl\drivers\peripheral\smif/cy_smif.c **** * Copyright 2016-2018, Cypress Semiconductor Corporation.  All rights reserved.
  13:Generated_Source\PSoC6\pdl\drivers\peripheral\smif/cy_smif.c **** * You may use this file only in accordance with the license, terms, conditions,
  14:Generated_Source\PSoC6\pdl\drivers\peripheral\smif/cy_smif.c **** * disclaimers, and limitations in the end user license agreement accompanying
  15:Generated_Source\PSoC6\pdl\drivers\peripheral\smif/cy_smif.c **** * the software package with which this file was provided.
  16:Generated_Source\PSoC6\pdl\drivers\peripheral\smif/cy_smif.c **** *******************************************************************************/
  17:Generated_Source\PSoC6\pdl\drivers\peripheral\smif/cy_smif.c **** 
  18:Generated_Source\PSoC6\pdl\drivers\peripheral\smif/cy_smif.c **** #include "cy_smif.h"
  19:Generated_Source\PSoC6\pdl\drivers\peripheral\smif/cy_smif.c **** 
  20:Generated_Source\PSoC6\pdl\drivers\peripheral\smif/cy_smif.c **** 
  21:Generated_Source\PSoC6\pdl\drivers\peripheral\smif/cy_smif.c **** #if defined(__cplusplus)
  22:Generated_Source\PSoC6\pdl\drivers\peripheral\smif/cy_smif.c **** extern "C" {
  23:Generated_Source\PSoC6\pdl\drivers\peripheral\smif/cy_smif.c **** #endif
  24:Generated_Source\PSoC6\pdl\drivers\peripheral\smif/cy_smif.c **** 
  25:Generated_Source\PSoC6\pdl\drivers\peripheral\smif/cy_smif.c **** 
  26:Generated_Source\PSoC6\pdl\drivers\peripheral\smif/cy_smif.c **** /*******************************************************************************
  27:Generated_Source\PSoC6\pdl\drivers\peripheral\smif/cy_smif.c **** * Function Name: Cy_SMIF_Init
  28:Generated_Source\PSoC6\pdl\drivers\peripheral\smif/cy_smif.c **** ****************************************************************************//**
  29:Generated_Source\PSoC6\pdl\drivers\peripheral\smif/cy_smif.c **** *
  30:Generated_Source\PSoC6\pdl\drivers\peripheral\smif/cy_smif.c **** * This function initializes the SMIF block as a communication block. The user
  31:Generated_Source\PSoC6\pdl\drivers\peripheral\smif/cy_smif.c **** * must ensure that the SMIF interrupt is disabled while this function
  32:Generated_Source\PSoC6\pdl\drivers\peripheral\smif/cy_smif.c **** * is called. Enabling the interrupts can lead to triggering in the middle
  33:Generated_Source\PSoC6\pdl\drivers\peripheral\smif/cy_smif.c **** * of the initialization operation, which can lead to erroneous initialization.
  34:Generated_Source\PSoC6\pdl\drivers\peripheral\smif/cy_smif.c **** *
  35:Generated_Source\PSoC6\pdl\drivers\peripheral\smif/cy_smif.c **** * As parameters, this function takes the SMIF register base address and a
  36:Generated_Source\PSoC6\pdl\drivers\peripheral\smif/cy_smif.c **** * context structure along with the configuration needed for the SMIF block,
  37:Generated_Source\PSoC6\pdl\drivers\peripheral\smif/cy_smif.c **** * stored in a config
  38:Generated_Source\PSoC6\pdl\drivers\peripheral\smif/cy_smif.c **** *
  39:Generated_Source\PSoC6\pdl\drivers\peripheral\smif/cy_smif.c **** * \param base
  40:Generated_Source\PSoC6\pdl\drivers\peripheral\smif/cy_smif.c **** * Holds the base address of the SMIF block registers.
  41:Generated_Source\PSoC6\pdl\drivers\peripheral\smif/cy_smif.c **** *
  42:Generated_Source\PSoC6\pdl\drivers\peripheral\smif/cy_smif.c **** * \param config
  43:Generated_Source\PSoC6\pdl\drivers\peripheral\smif/cy_smif.c **** * Passes a configuration structure that configures the SMIF block for operation.
  44:Generated_Source\PSoC6\pdl\drivers\peripheral\smif/cy_smif.c **** *
  45:Generated_Source\PSoC6\pdl\drivers\peripheral\smif/cy_smif.c **** * \param context
  46:Generated_Source\PSoC6\pdl\drivers\peripheral\smif/cy_smif.c **** * Passes a configuration structure that contains the transfer parameters of the
  47:Generated_Source\PSoC6\pdl\drivers\peripheral\smif/cy_smif.c **** * SMIF block.
  48:Generated_Source\PSoC6\pdl\drivers\peripheral\smif/cy_smif.c **** *
  49:Generated_Source\PSoC6\pdl\drivers\peripheral\smif/cy_smif.c **** * \param timeout
  50:Generated_Source\PSoC6\pdl\drivers\peripheral\smif/cy_smif.c **** * A timeout in microseconds for blocking APIs in use.
  51:Generated_Source\PSoC6\pdl\drivers\peripheral\smif/cy_smif.c **** *
  52:Generated_Source\PSoC6\pdl\drivers\peripheral\smif/cy_smif.c **** *
  53:Generated_Source\PSoC6\pdl\drivers\peripheral\smif/cy_smif.c **** * \note Make sure that the interrupts are initialized and disabled.
  54:Generated_Source\PSoC6\pdl\drivers\peripheral\smif/cy_smif.c **** *
  55:Generated_Source\PSoC6\pdl\drivers\peripheral\smif/cy_smif.c **** * \return
  56:Generated_Source\PSoC6\pdl\drivers\peripheral\smif/cy_smif.c **** *     - \ref CY_SMIF_BAD_PARAM
  57:Generated_Source\PSoC6\pdl\drivers\peripheral\smif/cy_smif.c **** *     - \ref CY_SMIF_SUCCESS
  58:Generated_Source\PSoC6\pdl\drivers\peripheral\smif/cy_smif.c **** *
  59:Generated_Source\PSoC6\pdl\drivers\peripheral\smif/cy_smif.c **** *******************************************************************************/
  60:Generated_Source\PSoC6\pdl\drivers\peripheral\smif/cy_smif.c **** cy_en_smif_status_t Cy_SMIF_Init(SMIF_Type *base, 
  61:Generated_Source\PSoC6\pdl\drivers\peripheral\smif/cy_smif.c ****                                     cy_stc_smif_config_t const *config,
  62:Generated_Source\PSoC6\pdl\drivers\peripheral\smif/cy_smif.c ****                                     uint32_t timeout,
  63:Generated_Source\PSoC6\pdl\drivers\peripheral\smif/cy_smif.c ****                                     cy_stc_smif_context_t *context)
  64:Generated_Source\PSoC6\pdl\drivers\peripheral\smif/cy_smif.c **** {
 1186              		.loc 2 64 0
 1187              		.cfi_startproc
ARM GAS  C:\Users\ikomb\AppData\Local\Temp\ccEKz2Td.s 			page 48


 1188              		@ args = 0, pretend = 0, frame = 24
 1189              		@ frame_needed = 1, uses_anonymous_args = 0
 1190 0000 80B5     		push	{r7, lr}
 1191              		.cfi_def_cfa_offset 8
 1192              		.cfi_offset 7, -8
 1193              		.cfi_offset 14, -4
 1194 0002 86B0     		sub	sp, sp, #24
 1195              		.cfi_def_cfa_offset 32
 1196 0004 00AF     		add	r7, sp, #0
 1197              		.cfi_def_cfa_register 7
 1198 0006 F860     		str	r0, [r7, #12]
 1199 0008 B960     		str	r1, [r7, #8]
 1200 000a 7A60     		str	r2, [r7, #4]
 1201 000c 3B60     		str	r3, [r7]
  65:Generated_Source\PSoC6\pdl\drivers\peripheral\smif/cy_smif.c ****     cy_en_smif_status_t result = CY_SMIF_BAD_PARAM;
 1202              		.loc 2 65 0
 1203 000e 3A4B     		ldr	r3, .L69
 1204 0010 7B61     		str	r3, [r7, #20]
  66:Generated_Source\PSoC6\pdl\drivers\peripheral\smif/cy_smif.c **** 
  67:Generated_Source\PSoC6\pdl\drivers\peripheral\smif/cy_smif.c ****     if((NULL != base) && (NULL != config) && (NULL != context))
 1205              		.loc 2 67 0
 1206 0012 FB68     		ldr	r3, [r7, #12]
 1207 0014 002B     		cmp	r3, #0
 1208 0016 6AD0     		beq	.L63
 1209              		.loc 2 67 0 is_stmt 0 discriminator 1
 1210 0018 BB68     		ldr	r3, [r7, #8]
 1211 001a 002B     		cmp	r3, #0
 1212 001c 67D0     		beq	.L63
 1213              		.loc 2 67 0 discriminator 2
 1214 001e 3B68     		ldr	r3, [r7]
 1215 0020 002B     		cmp	r3, #0
 1216 0022 64D0     		beq	.L63
  68:Generated_Source\PSoC6\pdl\drivers\peripheral\smif/cy_smif.c ****     {
  69:Generated_Source\PSoC6\pdl\drivers\peripheral\smif/cy_smif.c ****         /* Copy the base address of the SMIF and the SMIF Device block  
  70:Generated_Source\PSoC6\pdl\drivers\peripheral\smif/cy_smif.c ****         * registers to the context. 
  71:Generated_Source\PSoC6\pdl\drivers\peripheral\smif/cy_smif.c ****         */
  72:Generated_Source\PSoC6\pdl\drivers\peripheral\smif/cy_smif.c ****         context->timeout = timeout;
 1217              		.loc 2 72 0 is_stmt 1
 1218 0024 3B68     		ldr	r3, [r7]
 1219 0026 7A68     		ldr	r2, [r7, #4]
 1220 0028 5A62     		str	r2, [r3, #36]
  73:Generated_Source\PSoC6\pdl\drivers\peripheral\smif/cy_smif.c **** 
  74:Generated_Source\PSoC6\pdl\drivers\peripheral\smif/cy_smif.c ****         /* Configure the initial interrupt mask */
  75:Generated_Source\PSoC6\pdl\drivers\peripheral\smif/cy_smif.c ****         /* Disable the TR_TX_REQ and TR_RX_REQ interrupts */
  76:Generated_Source\PSoC6\pdl\drivers\peripheral\smif/cy_smif.c ****         Cy_SMIF_SetInterruptMask(base, Cy_SMIF_GetInterruptMask(base) 
 1221              		.loc 2 76 0
 1222 002a F868     		ldr	r0, [r7, #12]
 1223 002c FFF7FEFF 		bl	Cy_SMIF_GetInterruptMask
 1224 0030 0346     		mov	r3, r0
 1225 0032 23F00303 		bic	r3, r3, #3
 1226 0036 1946     		mov	r1, r3
 1227 0038 F868     		ldr	r0, [r7, #12]
 1228 003a FFF7FEFF 		bl	Cy_SMIF_SetInterruptMask
  77:Generated_Source\PSoC6\pdl\drivers\peripheral\smif/cy_smif.c ****                         & ~(SMIF_INTR_TR_TX_REQ_Msk | SMIF_INTR_TR_RX_REQ_Msk));
  78:Generated_Source\PSoC6\pdl\drivers\peripheral\smif/cy_smif.c **** 
  79:Generated_Source\PSoC6\pdl\drivers\peripheral\smif/cy_smif.c ****         /* Check config structure */
  80:Generated_Source\PSoC6\pdl\drivers\peripheral\smif/cy_smif.c ****         CY_ASSERT_L3(CY_SMIF_MODE_VALID(config->mode));
ARM GAS  C:\Users\ikomb\AppData\Local\Temp\ccEKz2Td.s 			page 49


 1229              		.loc 2 80 0
 1230 003e BB68     		ldr	r3, [r7, #8]
 1231 0040 1B68     		ldr	r3, [r3]
 1232 0042 DBB2     		uxtb	r3, r3
 1233 0044 002B     		cmp	r3, #0
 1234 0046 08D0     		beq	.L64
 1235              		.loc 2 80 0 is_stmt 0 discriminator 1
 1236 0048 BB68     		ldr	r3, [r7, #8]
 1237 004a 1B68     		ldr	r3, [r3]
 1238 004c DBB2     		uxtb	r3, r3
 1239 004e 012B     		cmp	r3, #1
 1240 0050 03D0     		beq	.L64
 1241              		.loc 2 80 0 discriminator 2
 1242 0052 5021     		movs	r1, #80
 1243 0054 2948     		ldr	r0, .L69+4
 1244 0056 FFF7FEFF 		bl	Cy_SysLib_AssertFailed
 1245              	.L64:
  81:Generated_Source\PSoC6\pdl\drivers\peripheral\smif/cy_smif.c ****         CY_ASSERT_L3(CY_SMIF_CLOCK_SEL_VALID(config->rxClockSel));
 1246              		.loc 2 81 0 is_stmt 1
 1247 005a BB68     		ldr	r3, [r7, #8]
 1248 005c 9B68     		ldr	r3, [r3, #8]
 1249 005e DBB2     		uxtb	r3, r3
 1250 0060 002B     		cmp	r3, #0
 1251 0062 12D0     		beq	.L65
 1252              		.loc 2 81 0 is_stmt 0 discriminator 1
 1253 0064 BB68     		ldr	r3, [r7, #8]
 1254 0066 9B68     		ldr	r3, [r3, #8]
 1255 0068 DBB2     		uxtb	r3, r3
 1256 006a 012B     		cmp	r3, #1
 1257 006c 0DD0     		beq	.L65
 1258              		.loc 2 81 0 discriminator 2
 1259 006e BB68     		ldr	r3, [r7, #8]
 1260 0070 9B68     		ldr	r3, [r3, #8]
 1261 0072 DBB2     		uxtb	r3, r3
 1262 0074 022B     		cmp	r3, #2
 1263 0076 08D0     		beq	.L65
 1264              		.loc 2 81 0 discriminator 3
 1265 0078 BB68     		ldr	r3, [r7, #8]
 1266 007a 9B68     		ldr	r3, [r3, #8]
 1267 007c DBB2     		uxtb	r3, r3
 1268 007e 032B     		cmp	r3, #3
 1269 0080 03D0     		beq	.L65
 1270              		.loc 2 81 0 discriminator 4
 1271 0082 5121     		movs	r1, #81
 1272 0084 1D48     		ldr	r0, .L69+4
 1273 0086 FFF7FEFF 		bl	Cy_SysLib_AssertFailed
 1274              	.L65:
  82:Generated_Source\PSoC6\pdl\drivers\peripheral\smif/cy_smif.c ****         CY_ASSERT_L2(CY_SMIF_DESELECT_DELAY_VALID(config->deselectDelay));
 1275              		.loc 2 82 0 is_stmt 1
 1276 008a BB68     		ldr	r3, [r7, #8]
 1277 008c 5B68     		ldr	r3, [r3, #4]
 1278 008e 072B     		cmp	r3, #7
 1279 0090 03D9     		bls	.L66
 1280              		.loc 2 82 0 is_stmt 0 discriminator 1
 1281 0092 5221     		movs	r1, #82
 1282 0094 1948     		ldr	r0, .L69+4
 1283 0096 FFF7FEFF 		bl	Cy_SysLib_AssertFailed
ARM GAS  C:\Users\ikomb\AppData\Local\Temp\ccEKz2Td.s 			page 50


 1284              	.L66:
  83:Generated_Source\PSoC6\pdl\drivers\peripheral\smif/cy_smif.c ****         CY_ASSERT_L3(CY_SMIF_BLOCK_EVENT_VALID(config->blockEvent));
 1285              		.loc 2 83 0 is_stmt 1
 1286 009a BB68     		ldr	r3, [r7, #8]
 1287 009c DB68     		ldr	r3, [r3, #12]
 1288 009e DBB2     		uxtb	r3, r3
 1289 00a0 002B     		cmp	r3, #0
 1290 00a2 08D0     		beq	.L67
 1291              		.loc 2 83 0 is_stmt 0 discriminator 1
 1292 00a4 BB68     		ldr	r3, [r7, #8]
 1293 00a6 DB68     		ldr	r3, [r3, #12]
 1294 00a8 DBB2     		uxtb	r3, r3
 1295 00aa 012B     		cmp	r3, #1
 1296 00ac 03D0     		beq	.L67
 1297              		.loc 2 83 0 discriminator 2
 1298 00ae 5321     		movs	r1, #83
 1299 00b0 1248     		ldr	r0, .L69+4
 1300 00b2 FFF7FEFF 		bl	Cy_SysLib_AssertFailed
 1301              	.L67:
  84:Generated_Source\PSoC6\pdl\drivers\peripheral\smif/cy_smif.c ****         
  85:Generated_Source\PSoC6\pdl\drivers\peripheral\smif/cy_smif.c ****         /* Configure the SMIF interface */
  86:Generated_Source\PSoC6\pdl\drivers\peripheral\smif/cy_smif.c ****         base->CTL = (uint32_t)(_VAL2FLD(SMIF_CTL_XIP_MODE, config->mode) |
 1302              		.loc 2 86 0 is_stmt 1
 1303 00b6 BB68     		ldr	r3, [r7, #8]
 1304 00b8 1B68     		ldr	r3, [r3]
 1305 00ba 03F00102 		and	r2, r3, #1
  87:Generated_Source\PSoC6\pdl\drivers\peripheral\smif/cy_smif.c ****                     _VAL2FLD(SMIF_CTL_CLOCK_IF_RX_SEL, config->rxClockSel) |
 1306              		.loc 2 87 0
 1307 00be BB68     		ldr	r3, [r7, #8]
 1308 00c0 9B68     		ldr	r3, [r3, #8]
 1309 00c2 1B03     		lsls	r3, r3, #12
 1310 00c4 03F44053 		and	r3, r3, #12288
  86:Generated_Source\PSoC6\pdl\drivers\peripheral\smif/cy_smif.c ****                     _VAL2FLD(SMIF_CTL_CLOCK_IF_RX_SEL, config->rxClockSel) |
 1311              		.loc 2 86 0
 1312 00c8 1A43     		orrs	r2, r2, r3
  88:Generated_Source\PSoC6\pdl\drivers\peripheral\smif/cy_smif.c ****                     _VAL2FLD(SMIF_CTL_DESELECT_DELAY, config->deselectDelay) |
 1313              		.loc 2 88 0
 1314 00ca BB68     		ldr	r3, [r7, #8]
 1315 00cc 5B68     		ldr	r3, [r3, #4]
 1316 00ce 1B04     		lsls	r3, r3, #16
 1317 00d0 03F4E023 		and	r3, r3, #458752
  87:Generated_Source\PSoC6\pdl\drivers\peripheral\smif/cy_smif.c ****                     _VAL2FLD(SMIF_CTL_CLOCK_IF_RX_SEL, config->rxClockSel) |
 1318              		.loc 2 87 0
 1319 00d4 1A43     		orrs	r2, r2, r3
  89:Generated_Source\PSoC6\pdl\drivers\peripheral\smif/cy_smif.c ****                     _VAL2FLD(SMIF_CTL_BLOCK, config->blockEvent) );
 1320              		.loc 2 89 0
 1321 00d6 BB68     		ldr	r3, [r7, #8]
 1322 00d8 DB68     		ldr	r3, [r3, #12]
 1323 00da 1B06     		lsls	r3, r3, #24
 1324 00dc 03F08073 		and	r3, r3, #16777216
  86:Generated_Source\PSoC6\pdl\drivers\peripheral\smif/cy_smif.c ****                     _VAL2FLD(SMIF_CTL_CLOCK_IF_RX_SEL, config->rxClockSel) |
 1325              		.loc 2 86 0
 1326 00e0 1A43     		orrs	r2, r2, r3
 1327 00e2 FB68     		ldr	r3, [r7, #12]
 1328 00e4 1A60     		str	r2, [r3]
  90:Generated_Source\PSoC6\pdl\drivers\peripheral\smif/cy_smif.c **** 
  91:Generated_Source\PSoC6\pdl\drivers\peripheral\smif/cy_smif.c ****         /* Read the register to flush the buffer */
ARM GAS  C:\Users\ikomb\AppData\Local\Temp\ccEKz2Td.s 			page 51


  92:Generated_Source\PSoC6\pdl\drivers\peripheral\smif/cy_smif.c ****         (void) base->CTL;
 1329              		.loc 2 92 0
 1330 00e6 FB68     		ldr	r3, [r7, #12]
 1331 00e8 1B68     		ldr	r3, [r3]
  93:Generated_Source\PSoC6\pdl\drivers\peripheral\smif/cy_smif.c **** 
  94:Generated_Source\PSoC6\pdl\drivers\peripheral\smif/cy_smif.c ****         result = CY_SMIF_SUCCESS;
 1332              		.loc 2 94 0
 1333 00ea 0023     		movs	r3, #0
 1334 00ec 7B61     		str	r3, [r7, #20]
 1335              	.L63:
  95:Generated_Source\PSoC6\pdl\drivers\peripheral\smif/cy_smif.c ****     }
  96:Generated_Source\PSoC6\pdl\drivers\peripheral\smif/cy_smif.c **** 
  97:Generated_Source\PSoC6\pdl\drivers\peripheral\smif/cy_smif.c ****     return result;
 1336              		.loc 2 97 0
 1337 00ee 7B69     		ldr	r3, [r7, #20]
  98:Generated_Source\PSoC6\pdl\drivers\peripheral\smif/cy_smif.c **** }
 1338              		.loc 2 98 0
 1339 00f0 1846     		mov	r0, r3
 1340 00f2 1837     		adds	r7, r7, #24
 1341              		.cfi_def_cfa_offset 8
 1342 00f4 BD46     		mov	sp, r7
 1343              		.cfi_def_cfa_register 13
 1344              		@ sp needed
 1345 00f6 80BD     		pop	{r7, pc}
 1346              	.L70:
 1347              		.align	2
 1348              	.L69:
 1349 00f8 0400B200 		.word	11665412
 1350 00fc 00000000 		.word	.LC0
 1351              		.cfi_endproc
 1352              	.LFE178:
 1353              		.size	Cy_SMIF_Init, .-Cy_SMIF_Init
 1354              		.section	.text.Cy_SMIF_DeInit,"ax",%progbits
 1355              		.align	2
 1356              		.global	Cy_SMIF_DeInit
 1357              		.thumb
 1358              		.thumb_func
 1359              		.type	Cy_SMIF_DeInit, %function
 1360              	Cy_SMIF_DeInit:
 1361              	.LFB179:
  99:Generated_Source\PSoC6\pdl\drivers\peripheral\smif/cy_smif.c **** 
 100:Generated_Source\PSoC6\pdl\drivers\peripheral\smif/cy_smif.c **** 
 101:Generated_Source\PSoC6\pdl\drivers\peripheral\smif/cy_smif.c **** /*******************************************************************************
 102:Generated_Source\PSoC6\pdl\drivers\peripheral\smif/cy_smif.c **** * Function Name: Cy_SMIF_DeInit
 103:Generated_Source\PSoC6\pdl\drivers\peripheral\smif/cy_smif.c **** ****************************************************************************//**
 104:Generated_Source\PSoC6\pdl\drivers\peripheral\smif/cy_smif.c **** *
 105:Generated_Source\PSoC6\pdl\drivers\peripheral\smif/cy_smif.c **** * This function de-initializes the SMIF block to default values.
 106:Generated_Source\PSoC6\pdl\drivers\peripheral\smif/cy_smif.c **** *
 107:Generated_Source\PSoC6\pdl\drivers\peripheral\smif/cy_smif.c **** * \param base
 108:Generated_Source\PSoC6\pdl\drivers\peripheral\smif/cy_smif.c **** * Holds the base address of the SMIF block registers.
 109:Generated_Source\PSoC6\pdl\drivers\peripheral\smif/cy_smif.c **** *
 110:Generated_Source\PSoC6\pdl\drivers\peripheral\smif/cy_smif.c **** * \note The SMIF must be disabled before calling the function. Call
 111:Generated_Source\PSoC6\pdl\drivers\peripheral\smif/cy_smif.c **** *  \ref Cy_SMIF_Disable
 112:Generated_Source\PSoC6\pdl\drivers\peripheral\smif/cy_smif.c **** *
 113:Generated_Source\PSoC6\pdl\drivers\peripheral\smif/cy_smif.c **** *******************************************************************************/
 114:Generated_Source\PSoC6\pdl\drivers\peripheral\smif/cy_smif.c **** void Cy_SMIF_DeInit(SMIF_Type *base)
 115:Generated_Source\PSoC6\pdl\drivers\peripheral\smif/cy_smif.c **** {
ARM GAS  C:\Users\ikomb\AppData\Local\Temp\ccEKz2Td.s 			page 52


 1362              		.loc 2 115 0
 1363              		.cfi_startproc
 1364              		@ args = 0, pretend = 0, frame = 16
 1365              		@ frame_needed = 1, uses_anonymous_args = 0
 1366              		@ link register save eliminated.
 1367 0000 80B4     		push	{r7}
 1368              		.cfi_def_cfa_offset 4
 1369              		.cfi_offset 7, -4
 1370 0002 85B0     		sub	sp, sp, #20
 1371              		.cfi_def_cfa_offset 24
 1372 0004 00AF     		add	r7, sp, #0
 1373              		.cfi_def_cfa_register 7
 1374 0006 7860     		str	r0, [r7, #4]
 116:Generated_Source\PSoC6\pdl\drivers\peripheral\smif/cy_smif.c ****     uint32_t idx;
 117:Generated_Source\PSoC6\pdl\drivers\peripheral\smif/cy_smif.c **** 
 118:Generated_Source\PSoC6\pdl\drivers\peripheral\smif/cy_smif.c ****     /* Configure the SMIF interface to default values. 
 119:Generated_Source\PSoC6\pdl\drivers\peripheral\smif/cy_smif.c ****     * The default value is 0. 
 120:Generated_Source\PSoC6\pdl\drivers\peripheral\smif/cy_smif.c ****     */
 121:Generated_Source\PSoC6\pdl\drivers\peripheral\smif/cy_smif.c ****     base->CTL = CY_SMIF_CTL_REG_DEFAULT;
 1375              		.loc 2 121 0
 1376 0008 7B68     		ldr	r3, [r7, #4]
 1377 000a 4FF44072 		mov	r2, #768
 1378 000e 1A60     		str	r2, [r3]
 122:Generated_Source\PSoC6\pdl\drivers\peripheral\smif/cy_smif.c ****     base->TX_DATA_FIFO_CTL = 0U;
 1379              		.loc 2 122 0
 1380 0010 7B68     		ldr	r3, [r7, #4]
 1381 0012 0022     		movs	r2, #0
 1382 0014 C3F88020 		str	r2, [r3, #128]
 123:Generated_Source\PSoC6\pdl\drivers\peripheral\smif/cy_smif.c ****     base->RX_DATA_FIFO_CTL = 0U;
 1383              		.loc 2 123 0
 1384 0018 7B68     		ldr	r3, [r7, #4]
 1385 001a 0022     		movs	r2, #0
 1386 001c C3F8C020 		str	r2, [r3, #192]
 124:Generated_Source\PSoC6\pdl\drivers\peripheral\smif/cy_smif.c ****     base->INTR_MASK = 0U;
 1387              		.loc 2 124 0
 1388 0020 7B68     		ldr	r3, [r7, #4]
 1389 0022 0022     		movs	r2, #0
 1390 0024 C3F8C827 		str	r2, [r3, #1992]
 125:Generated_Source\PSoC6\pdl\drivers\peripheral\smif/cy_smif.c ****     for(idx = 0UL; idx < SMIF_DEVICE_NR; idx++)
 1391              		.loc 2 125 0
 1392 0028 0023     		movs	r3, #0
 1393 002a FB60     		str	r3, [r7, #12]
 1394 002c 0FE0     		b	.L72
 1395              	.L73:
 126:Generated_Source\PSoC6\pdl\drivers\peripheral\smif/cy_smif.c ****     {
 127:Generated_Source\PSoC6\pdl\drivers\peripheral\smif/cy_smif.c ****         base->DEVICE[idx].CTL = 0U;
 1396              		.loc 2 127 0 discriminator 3
 1397 002e 7A68     		ldr	r2, [r7, #4]
 1398 0030 FB68     		ldr	r3, [r7, #12]
 1399 0032 1033     		adds	r3, r3, #16
 1400 0034 DB01     		lsls	r3, r3, #7
 1401 0036 1344     		add	r3, r3, r2
 1402 0038 0022     		movs	r2, #0
 1403 003a 1A60     		str	r2, [r3]
 128:Generated_Source\PSoC6\pdl\drivers\peripheral\smif/cy_smif.c **** 
 129:Generated_Source\PSoC6\pdl\drivers\peripheral\smif/cy_smif.c ****         /* Read the register to flush the buffer */
 130:Generated_Source\PSoC6\pdl\drivers\peripheral\smif/cy_smif.c ****         (void) base->DEVICE[idx].CTL;
ARM GAS  C:\Users\ikomb\AppData\Local\Temp\ccEKz2Td.s 			page 53


 1404              		.loc 2 130 0 discriminator 3
 1405 003c 7A68     		ldr	r2, [r7, #4]
 1406 003e FB68     		ldr	r3, [r7, #12]
 1407 0040 1033     		adds	r3, r3, #16
 1408 0042 DB01     		lsls	r3, r3, #7
 1409 0044 1344     		add	r3, r3, r2
 1410 0046 1B68     		ldr	r3, [r3]
 125:Generated_Source\PSoC6\pdl\drivers\peripheral\smif/cy_smif.c ****     {
 1411              		.loc 2 125 0 discriminator 3
 1412 0048 FB68     		ldr	r3, [r7, #12]
 1413 004a 0133     		adds	r3, r3, #1
 1414 004c FB60     		str	r3, [r7, #12]
 1415              	.L72:
 125:Generated_Source\PSoC6\pdl\drivers\peripheral\smif/cy_smif.c ****     {
 1416              		.loc 2 125 0 is_stmt 0 discriminator 1
 1417 004e FB68     		ldr	r3, [r7, #12]
 1418 0050 032B     		cmp	r3, #3
 1419 0052 ECD9     		bls	.L73
 131:Generated_Source\PSoC6\pdl\drivers\peripheral\smif/cy_smif.c ****     }
 132:Generated_Source\PSoC6\pdl\drivers\peripheral\smif/cy_smif.c **** }
 1420              		.loc 2 132 0 is_stmt 1
 1421 0054 00BF     		nop
 1422 0056 1437     		adds	r7, r7, #20
 1423              		.cfi_def_cfa_offset 4
 1424 0058 BD46     		mov	sp, r7
 1425              		.cfi_def_cfa_register 13
 1426              		@ sp needed
 1427 005a 5DF8047B 		ldr	r7, [sp], #4
 1428              		.cfi_restore 7
 1429              		.cfi_def_cfa_offset 0
 1430 005e 7047     		bx	lr
 1431              		.cfi_endproc
 1432              	.LFE179:
 1433              		.size	Cy_SMIF_DeInit, .-Cy_SMIF_DeInit
 1434              		.section	.text.Cy_SMIF_SetMode,"ax",%progbits
 1435              		.align	2
 1436              		.global	Cy_SMIF_SetMode
 1437              		.thumb
 1438              		.thumb_func
 1439              		.type	Cy_SMIF_SetMode, %function
 1440              	Cy_SMIF_SetMode:
 1441              	.LFB180:
 133:Generated_Source\PSoC6\pdl\drivers\peripheral\smif/cy_smif.c **** 
 134:Generated_Source\PSoC6\pdl\drivers\peripheral\smif/cy_smif.c **** 
 135:Generated_Source\PSoC6\pdl\drivers\peripheral\smif/cy_smif.c **** /*******************************************************************************
 136:Generated_Source\PSoC6\pdl\drivers\peripheral\smif/cy_smif.c **** * Function Name: Cy_SMIF_SetMode
 137:Generated_Source\PSoC6\pdl\drivers\peripheral\smif/cy_smif.c **** ****************************************************************************//**
 138:Generated_Source\PSoC6\pdl\drivers\peripheral\smif/cy_smif.c **** *
 139:Generated_Source\PSoC6\pdl\drivers\peripheral\smif/cy_smif.c **** * Sets the mode of operation for the SMIF. The mode of operation can be the XIP
 140:Generated_Source\PSoC6\pdl\drivers\peripheral\smif/cy_smif.c **** * mode where the slave devices are mapped as memories and are directly accessed
 141:Generated_Source\PSoC6\pdl\drivers\peripheral\smif/cy_smif.c **** * from the PSoC register map. In the MMIO mode, the SMIF block acts as a simple
 142:Generated_Source\PSoC6\pdl\drivers\peripheral\smif/cy_smif.c **** * SPI engine.
 143:Generated_Source\PSoC6\pdl\drivers\peripheral\smif/cy_smif.c **** *
 144:Generated_Source\PSoC6\pdl\drivers\peripheral\smif/cy_smif.c **** * \note Interrupt and triggers and not working in XIP mode, see TRM for details
 145:Generated_Source\PSoC6\pdl\drivers\peripheral\smif/cy_smif.c **** *
 146:Generated_Source\PSoC6\pdl\drivers\peripheral\smif/cy_smif.c **** * \param base
 147:Generated_Source\PSoC6\pdl\drivers\peripheral\smif/cy_smif.c **** * Holds the base address of the SMIF block registers.
ARM GAS  C:\Users\ikomb\AppData\Local\Temp\ccEKz2Td.s 			page 54


 148:Generated_Source\PSoC6\pdl\drivers\peripheral\smif/cy_smif.c **** *
 149:Generated_Source\PSoC6\pdl\drivers\peripheral\smif/cy_smif.c **** * \param mode
 150:Generated_Source\PSoC6\pdl\drivers\peripheral\smif/cy_smif.c **** * The mode of the SMIF operation.
 151:Generated_Source\PSoC6\pdl\drivers\peripheral\smif/cy_smif.c **** *
 152:Generated_Source\PSoC6\pdl\drivers\peripheral\smif/cy_smif.c **** *******************************************************************************/
 153:Generated_Source\PSoC6\pdl\drivers\peripheral\smif/cy_smif.c **** void Cy_SMIF_SetMode(SMIF_Type *base, cy_en_smif_mode_t mode)
 154:Generated_Source\PSoC6\pdl\drivers\peripheral\smif/cy_smif.c **** {
 1442              		.loc 2 154 0
 1443              		.cfi_startproc
 1444              		@ args = 0, pretend = 0, frame = 8
 1445              		@ frame_needed = 1, uses_anonymous_args = 0
 1446 0000 80B5     		push	{r7, lr}
 1447              		.cfi_def_cfa_offset 8
 1448              		.cfi_offset 7, -8
 1449              		.cfi_offset 14, -4
 1450 0002 82B0     		sub	sp, sp, #8
 1451              		.cfi_def_cfa_offset 16
 1452 0004 00AF     		add	r7, sp, #0
 1453              		.cfi_def_cfa_register 7
 1454 0006 7860     		str	r0, [r7, #4]
 1455 0008 0B46     		mov	r3, r1
 1456 000a FB70     		strb	r3, [r7, #3]
 155:Generated_Source\PSoC6\pdl\drivers\peripheral\smif/cy_smif.c ****     CY_ASSERT_L3(CY_SMIF_MODE_VALID(mode));
 1457              		.loc 2 155 0
 1458 000c FB78     		ldrb	r3, [r7, #3]	@ zero_extendqisi2
 1459 000e 002B     		cmp	r3, #0
 1460 0010 06D0     		beq	.L75
 1461              		.loc 2 155 0 is_stmt 0 discriminator 1
 1462 0012 FB78     		ldrb	r3, [r7, #3]	@ zero_extendqisi2
 1463 0014 012B     		cmp	r3, #1
 1464 0016 03D0     		beq	.L75
 1465              		.loc 2 155 0 discriminator 2
 1466 0018 9B21     		movs	r1, #155
 1467 001a 0C48     		ldr	r0, .L78
 1468 001c FFF7FEFF 		bl	Cy_SysLib_AssertFailed
 1469              	.L75:
 156:Generated_Source\PSoC6\pdl\drivers\peripheral\smif/cy_smif.c ****     
 157:Generated_Source\PSoC6\pdl\drivers\peripheral\smif/cy_smif.c ****     /*  Set the register SMIF.CTL.XIP_MODE = TRUE */
 158:Generated_Source\PSoC6\pdl\drivers\peripheral\smif/cy_smif.c ****     if (CY_SMIF_NORMAL == mode)
 1470              		.loc 2 158 0 is_stmt 1
 1471 0020 FB78     		ldrb	r3, [r7, #3]	@ zero_extendqisi2
 1472 0022 002B     		cmp	r3, #0
 1473 0024 06D1     		bne	.L76
 159:Generated_Source\PSoC6\pdl\drivers\peripheral\smif/cy_smif.c ****     {
 160:Generated_Source\PSoC6\pdl\drivers\peripheral\smif/cy_smif.c ****         base->CTL &= ~ SMIF_CTL_XIP_MODE_Msk;
 1474              		.loc 2 160 0
 1475 0026 7B68     		ldr	r3, [r7, #4]
 1476 0028 1B68     		ldr	r3, [r3]
 1477 002a 23F00102 		bic	r2, r3, #1
 1478 002e 7B68     		ldr	r3, [r7, #4]
 1479 0030 1A60     		str	r2, [r3]
 1480 0032 05E0     		b	.L77
 1481              	.L76:
 161:Generated_Source\PSoC6\pdl\drivers\peripheral\smif/cy_smif.c ****     }
 162:Generated_Source\PSoC6\pdl\drivers\peripheral\smif/cy_smif.c ****     else
 163:Generated_Source\PSoC6\pdl\drivers\peripheral\smif/cy_smif.c ****     {
 164:Generated_Source\PSoC6\pdl\drivers\peripheral\smif/cy_smif.c ****         base->CTL |= SMIF_CTL_XIP_MODE_Msk;
ARM GAS  C:\Users\ikomb\AppData\Local\Temp\ccEKz2Td.s 			page 55


 1482              		.loc 2 164 0
 1483 0034 7B68     		ldr	r3, [r7, #4]
 1484 0036 1B68     		ldr	r3, [r3]
 1485 0038 43F00102 		orr	r2, r3, #1
 1486 003c 7B68     		ldr	r3, [r7, #4]
 1487 003e 1A60     		str	r2, [r3]
 1488              	.L77:
 165:Generated_Source\PSoC6\pdl\drivers\peripheral\smif/cy_smif.c ****     }
 166:Generated_Source\PSoC6\pdl\drivers\peripheral\smif/cy_smif.c **** 
 167:Generated_Source\PSoC6\pdl\drivers\peripheral\smif/cy_smif.c ****     /* Read the register to flush the buffer */
 168:Generated_Source\PSoC6\pdl\drivers\peripheral\smif/cy_smif.c ****     (void) base->CTL;
 1489              		.loc 2 168 0
 1490 0040 7B68     		ldr	r3, [r7, #4]
 1491 0042 1B68     		ldr	r3, [r3]
 169:Generated_Source\PSoC6\pdl\drivers\peripheral\smif/cy_smif.c **** }
 1492              		.loc 2 169 0
 1493 0044 00BF     		nop
 1494 0046 0837     		adds	r7, r7, #8
 1495              		.cfi_def_cfa_offset 8
 1496 0048 BD46     		mov	sp, r7
 1497              		.cfi_def_cfa_register 13
 1498              		@ sp needed
 1499 004a 80BD     		pop	{r7, pc}
 1500              	.L79:
 1501              		.align	2
 1502              	.L78:
 1503 004c 00000000 		.word	.LC0
 1504              		.cfi_endproc
 1505              	.LFE180:
 1506              		.size	Cy_SMIF_SetMode, .-Cy_SMIF_SetMode
 1507              		.section	.text.Cy_SMIF_GetMode,"ax",%progbits
 1508              		.align	2
 1509              		.global	Cy_SMIF_GetMode
 1510              		.thumb
 1511              		.thumb_func
 1512              		.type	Cy_SMIF_GetMode, %function
 1513              	Cy_SMIF_GetMode:
 1514              	.LFB181:
 170:Generated_Source\PSoC6\pdl\drivers\peripheral\smif/cy_smif.c **** 
 171:Generated_Source\PSoC6\pdl\drivers\peripheral\smif/cy_smif.c **** 
 172:Generated_Source\PSoC6\pdl\drivers\peripheral\smif/cy_smif.c **** /*******************************************************************************
 173:Generated_Source\PSoC6\pdl\drivers\peripheral\smif/cy_smif.c **** * Function Name: Cy_SMIF_GetMode
 174:Generated_Source\PSoC6\pdl\drivers\peripheral\smif/cy_smif.c **** ****************************************************************************//**
 175:Generated_Source\PSoC6\pdl\drivers\peripheral\smif/cy_smif.c **** *
 176:Generated_Source\PSoC6\pdl\drivers\peripheral\smif/cy_smif.c **** * Reads the mode of operation for the SMIF. The mode of operation can be the
 177:Generated_Source\PSoC6\pdl\drivers\peripheral\smif/cy_smif.c **** * XIP mode where the slave devices are mapped as memories and are directly
 178:Generated_Source\PSoC6\pdl\drivers\peripheral\smif/cy_smif.c **** * accessed from the PSoC register map. In the MMIO mode, the SMIF block acts as
 179:Generated_Source\PSoC6\pdl\drivers\peripheral\smif/cy_smif.c **** * a simple SPI engine.
 180:Generated_Source\PSoC6\pdl\drivers\peripheral\smif/cy_smif.c **** *
 181:Generated_Source\PSoC6\pdl\drivers\peripheral\smif/cy_smif.c **** * \param base
 182:Generated_Source\PSoC6\pdl\drivers\peripheral\smif/cy_smif.c **** * Holds the base address of the SMIF block registers.
 183:Generated_Source\PSoC6\pdl\drivers\peripheral\smif/cy_smif.c **** *
 184:Generated_Source\PSoC6\pdl\drivers\peripheral\smif/cy_smif.c **** * \return The mode of SMIF operation (see \ref cy_en_smif_mode_t).
 185:Generated_Source\PSoC6\pdl\drivers\peripheral\smif/cy_smif.c **** *
 186:Generated_Source\PSoC6\pdl\drivers\peripheral\smif/cy_smif.c **** *******************************************************************************/
 187:Generated_Source\PSoC6\pdl\drivers\peripheral\smif/cy_smif.c **** cy_en_smif_mode_t Cy_SMIF_GetMode(SMIF_Type const *base)
 188:Generated_Source\PSoC6\pdl\drivers\peripheral\smif/cy_smif.c **** {
ARM GAS  C:\Users\ikomb\AppData\Local\Temp\ccEKz2Td.s 			page 56


 1515              		.loc 2 188 0
 1516              		.cfi_startproc
 1517              		@ args = 0, pretend = 0, frame = 16
 1518              		@ frame_needed = 1, uses_anonymous_args = 0
 1519              		@ link register save eliminated.
 1520 0000 80B4     		push	{r7}
 1521              		.cfi_def_cfa_offset 4
 1522              		.cfi_offset 7, -4
 1523 0002 85B0     		sub	sp, sp, #20
 1524              		.cfi_def_cfa_offset 24
 1525 0004 00AF     		add	r7, sp, #0
 1526              		.cfi_def_cfa_register 7
 1527 0006 7860     		str	r0, [r7, #4]
 189:Generated_Source\PSoC6\pdl\drivers\peripheral\smif/cy_smif.c ****     cy_en_smif_mode_t result = CY_SMIF_NORMAL;
 1528              		.loc 2 189 0
 1529 0008 0023     		movs	r3, #0
 1530 000a FB73     		strb	r3, [r7, #15]
 190:Generated_Source\PSoC6\pdl\drivers\peripheral\smif/cy_smif.c **** 
 191:Generated_Source\PSoC6\pdl\drivers\peripheral\smif/cy_smif.c ****     /* Read the register SMIF.CTL.XIP_MODE*/
 192:Generated_Source\PSoC6\pdl\drivers\peripheral\smif/cy_smif.c ****     if (0U != (base->CTL & SMIF_CTL_XIP_MODE_Msk))
 1531              		.loc 2 192 0
 1532 000c 7B68     		ldr	r3, [r7, #4]
 1533 000e 1B68     		ldr	r3, [r3]
 1534 0010 03F00103 		and	r3, r3, #1
 1535 0014 002B     		cmp	r3, #0
 1536 0016 01D0     		beq	.L81
 193:Generated_Source\PSoC6\pdl\drivers\peripheral\smif/cy_smif.c ****     {
 194:Generated_Source\PSoC6\pdl\drivers\peripheral\smif/cy_smif.c ****         result = CY_SMIF_MEMORY;
 1537              		.loc 2 194 0
 1538 0018 0123     		movs	r3, #1
 1539 001a FB73     		strb	r3, [r7, #15]
 1540              	.L81:
 195:Generated_Source\PSoC6\pdl\drivers\peripheral\smif/cy_smif.c ****     }
 196:Generated_Source\PSoC6\pdl\drivers\peripheral\smif/cy_smif.c **** 
 197:Generated_Source\PSoC6\pdl\drivers\peripheral\smif/cy_smif.c ****     return (result);
 1541              		.loc 2 197 0
 1542 001c FB7B     		ldrb	r3, [r7, #15]	@ zero_extendqisi2
 198:Generated_Source\PSoC6\pdl\drivers\peripheral\smif/cy_smif.c **** }
 1543              		.loc 2 198 0
 1544 001e 1846     		mov	r0, r3
 1545 0020 1437     		adds	r7, r7, #20
 1546              		.cfi_def_cfa_offset 4
 1547 0022 BD46     		mov	sp, r7
 1548              		.cfi_def_cfa_register 13
 1549              		@ sp needed
 1550 0024 5DF8047B 		ldr	r7, [sp], #4
 1551              		.cfi_restore 7
 1552              		.cfi_def_cfa_offset 0
 1553 0028 7047     		bx	lr
 1554              		.cfi_endproc
 1555              	.LFE181:
 1556              		.size	Cy_SMIF_GetMode, .-Cy_SMIF_GetMode
 1557 002a 00BF     		.section	.text.Cy_SMIF_SetDataSelect,"ax",%progbits
 1558              		.align	2
 1559              		.global	Cy_SMIF_SetDataSelect
 1560              		.thumb
 1561              		.thumb_func
ARM GAS  C:\Users\ikomb\AppData\Local\Temp\ccEKz2Td.s 			page 57


 1562              		.type	Cy_SMIF_SetDataSelect, %function
 1563              	Cy_SMIF_SetDataSelect:
 1564              	.LFB182:
 199:Generated_Source\PSoC6\pdl\drivers\peripheral\smif/cy_smif.c **** 
 200:Generated_Source\PSoC6\pdl\drivers\peripheral\smif/cy_smif.c **** 
 201:Generated_Source\PSoC6\pdl\drivers\peripheral\smif/cy_smif.c **** /*******************************************************************************
 202:Generated_Source\PSoC6\pdl\drivers\peripheral\smif/cy_smif.c **** * Function Name: Cy_SMIF_SetDataSelect
 203:Generated_Source\PSoC6\pdl\drivers\peripheral\smif/cy_smif.c **** ****************************************************************************//**
 204:Generated_Source\PSoC6\pdl\drivers\peripheral\smif/cy_smif.c **** *
 205:Generated_Source\PSoC6\pdl\drivers\peripheral\smif/cy_smif.c **** * This function configures the data select option for a specific slave. The
 206:Generated_Source\PSoC6\pdl\drivers\peripheral\smif/cy_smif.c **** * selection provides pre-set combinations for connecting the SMIF data lines to
 207:Generated_Source\PSoC6\pdl\drivers\peripheral\smif/cy_smif.c **** * the GPIOs.
 208:Generated_Source\PSoC6\pdl\drivers\peripheral\smif/cy_smif.c **** *
 209:Generated_Source\PSoC6\pdl\drivers\peripheral\smif/cy_smif.c **** * \param base
 210:Generated_Source\PSoC6\pdl\drivers\peripheral\smif/cy_smif.c **** * Holds the base address of the SMIF block registers.
 211:Generated_Source\PSoC6\pdl\drivers\peripheral\smif/cy_smif.c **** *
 212:Generated_Source\PSoC6\pdl\drivers\peripheral\smif/cy_smif.c **** * \param slaveSelect
 213:Generated_Source\PSoC6\pdl\drivers\peripheral\smif/cy_smif.c **** * The slave device ID. This number is either CY_SMIF_SLAVE_SELECT_0 or
 214:Generated_Source\PSoC6\pdl\drivers\peripheral\smif/cy_smif.c **** * CY_SMIF_SLAVE_SELECT_1 or CY_SMIF_SLAVE_SELECT_2 or CY_SMIF_SLAVE_SELECT_3
 215:Generated_Source\PSoC6\pdl\drivers\peripheral\smif/cy_smif.c **** * (\ref cy_en_smif_slave_select_t). It defines the slave select line to be used
 216:Generated_Source\PSoC6\pdl\drivers\peripheral\smif/cy_smif.c **** * during the transmission.
 217:Generated_Source\PSoC6\pdl\drivers\peripheral\smif/cy_smif.c **** *
 218:Generated_Source\PSoC6\pdl\drivers\peripheral\smif/cy_smif.c **** * \param dataSelect
 219:Generated_Source\PSoC6\pdl\drivers\peripheral\smif/cy_smif.c **** * This parameter selects the data select option. \ref cy_en_smif_data_select_t
 220:Generated_Source\PSoC6\pdl\drivers\peripheral\smif/cy_smif.c **** *
 221:Generated_Source\PSoC6\pdl\drivers\peripheral\smif/cy_smif.c **** *******************************************************************************/
 222:Generated_Source\PSoC6\pdl\drivers\peripheral\smif/cy_smif.c **** void Cy_SMIF_SetDataSelect(SMIF_Type *base, cy_en_smif_slave_select_t slaveSelect,
 223:Generated_Source\PSoC6\pdl\drivers\peripheral\smif/cy_smif.c ****                             cy_en_smif_data_select_t dataSelect)
 224:Generated_Source\PSoC6\pdl\drivers\peripheral\smif/cy_smif.c **** {
 1565              		.loc 2 224 0
 1566              		.cfi_startproc
 1567              		@ args = 0, pretend = 0, frame = 16
 1568              		@ frame_needed = 1, uses_anonymous_args = 0
 1569 0000 80B5     		push	{r7, lr}
 1570              		.cfi_def_cfa_offset 8
 1571              		.cfi_offset 7, -8
 1572              		.cfi_offset 14, -4
 1573 0002 84B0     		sub	sp, sp, #16
 1574              		.cfi_def_cfa_offset 24
 1575 0004 00AF     		add	r7, sp, #0
 1576              		.cfi_def_cfa_register 7
 1577 0006 7860     		str	r0, [r7, #4]
 1578 0008 0B46     		mov	r3, r1
 1579 000a FB70     		strb	r3, [r7, #3]
 1580 000c 1346     		mov	r3, r2
 1581 000e BB70     		strb	r3, [r7, #2]
 225:Generated_Source\PSoC6\pdl\drivers\peripheral\smif/cy_smif.c ****     SMIF_DEVICE_Type volatile *device;
 226:Generated_Source\PSoC6\pdl\drivers\peripheral\smif/cy_smif.c ****     
 227:Generated_Source\PSoC6\pdl\drivers\peripheral\smif/cy_smif.c ****     CY_ASSERT_L3(CY_SMIF_SLAVE_SEL_VALID(slaveSelect));
 1582              		.loc 2 227 0
 1583 0010 FB78     		ldrb	r3, [r7, #3]	@ zero_extendqisi2
 1584 0012 012B     		cmp	r3, #1
 1585 0014 0CD0     		beq	.L84
 1586              		.loc 2 227 0 is_stmt 0 discriminator 1
 1587 0016 FB78     		ldrb	r3, [r7, #3]	@ zero_extendqisi2
 1588 0018 022B     		cmp	r3, #2
 1589 001a 09D0     		beq	.L84
ARM GAS  C:\Users\ikomb\AppData\Local\Temp\ccEKz2Td.s 			page 58


 1590              		.loc 2 227 0 discriminator 2
 1591 001c FB78     		ldrb	r3, [r7, #3]	@ zero_extendqisi2
 1592 001e 042B     		cmp	r3, #4
 1593 0020 06D0     		beq	.L84
 1594              		.loc 2 227 0 discriminator 3
 1595 0022 FB78     		ldrb	r3, [r7, #3]	@ zero_extendqisi2
 1596 0024 082B     		cmp	r3, #8
 1597 0026 03D0     		beq	.L84
 1598              		.loc 2 227 0 discriminator 4
 1599 0028 E321     		movs	r1, #227
 1600 002a 1648     		ldr	r0, .L88
 1601 002c FFF7FEFF 		bl	Cy_SysLib_AssertFailed
 1602              	.L84:
 228:Generated_Source\PSoC6\pdl\drivers\peripheral\smif/cy_smif.c ****     CY_ASSERT_L3(CY_SMIF_DATA_SEL_VALID(dataSelect));
 1603              		.loc 2 228 0 is_stmt 1
 1604 0030 BB78     		ldrb	r3, [r7, #2]	@ zero_extendqisi2
 1605 0032 002B     		cmp	r3, #0
 1606 0034 0CD0     		beq	.L85
 1607              		.loc 2 228 0 is_stmt 0 discriminator 1
 1608 0036 BB78     		ldrb	r3, [r7, #2]	@ zero_extendqisi2
 1609 0038 012B     		cmp	r3, #1
 1610 003a 09D0     		beq	.L85
 1611              		.loc 2 228 0 discriminator 2
 1612 003c BB78     		ldrb	r3, [r7, #2]	@ zero_extendqisi2
 1613 003e 022B     		cmp	r3, #2
 1614 0040 06D0     		beq	.L85
 1615              		.loc 2 228 0 discriminator 3
 1616 0042 BB78     		ldrb	r3, [r7, #2]	@ zero_extendqisi2
 1617 0044 032B     		cmp	r3, #3
 1618 0046 03D0     		beq	.L85
 1619              		.loc 2 228 0 discriminator 4
 1620 0048 E421     		movs	r1, #228
 1621 004a 0E48     		ldr	r0, .L88
 1622 004c FFF7FEFF 		bl	Cy_SysLib_AssertFailed
 1623              	.L85:
 229:Generated_Source\PSoC6\pdl\drivers\peripheral\smif/cy_smif.c ****     
 230:Generated_Source\PSoC6\pdl\drivers\peripheral\smif/cy_smif.c ****     /* Connect the slave to its data lines */
 231:Generated_Source\PSoC6\pdl\drivers\peripheral\smif/cy_smif.c ****     device = Cy_SMIF_GetDeviceBySlot(base, slaveSelect);
 1624              		.loc 2 231 0 is_stmt 1
 1625 0050 FB78     		ldrb	r3, [r7, #3]	@ zero_extendqisi2
 1626 0052 1946     		mov	r1, r3
 1627 0054 7868     		ldr	r0, [r7, #4]
