ARM GAS  C:\Users\ikomb\AppData\Local\Temp\cctq3ka9.s 			page 1


   1              		.syntax unified
   2              		.cpu cortex-m4
   3              		.eabi_attribute 27, 1
   4              		.fpu fpv4-sp-d16
   5              		.eabi_attribute 20, 1
   6              		.eabi_attribute 21, 1
   7              		.eabi_attribute 23, 3
   8              		.eabi_attribute 24, 1
   9              		.eabi_attribute 25, 1
  10              		.eabi_attribute 26, 1
  11              		.eabi_attribute 30, 6
  12              		.eabi_attribute 34, 1
  13              		.eabi_attribute 18, 4
  14              		.thumb
  15              		.syntax unified
  16              		.file	"cy_scb_uart.c"
  17              		.text
  18              	.Ltext0:
  19              		.cfi_sections	.debug_frame
  20              		.section	.text.Cy_SCB_ReadRxFifo,"ax",%progbits
  21              		.align	2
  22              		.thumb
  23              		.thumb_func
  24              		.type	Cy_SCB_ReadRxFifo, %function
  25              	Cy_SCB_ReadRxFifo:
  26              	.LFB158:
  27              		.file 1 "Generated_Source\\PSoC6\\pdl\\drivers\\peripheral\\scb\\cy_scb_common.h"
   1:Generated_Source\PSoC6\pdl\drivers\peripheral\scb/cy_scb_common.h **** /***************************************************************************//**
   2:Generated_Source\PSoC6\pdl\drivers\peripheral\scb/cy_scb_common.h **** * \file cy_scb_common.h
   3:Generated_Source\PSoC6\pdl\drivers\peripheral\scb/cy_scb_common.h **** * \version 2.10
   4:Generated_Source\PSoC6\pdl\drivers\peripheral\scb/cy_scb_common.h **** *
   5:Generated_Source\PSoC6\pdl\drivers\peripheral\scb/cy_scb_common.h **** * Provides common API declarations of the SCB driver.
   6:Generated_Source\PSoC6\pdl\drivers\peripheral\scb/cy_scb_common.h **** *
   7:Generated_Source\PSoC6\pdl\drivers\peripheral\scb/cy_scb_common.h **** ********************************************************************************
   8:Generated_Source\PSoC6\pdl\drivers\peripheral\scb/cy_scb_common.h **** * \copyright
   9:Generated_Source\PSoC6\pdl\drivers\peripheral\scb/cy_scb_common.h **** * Copyright 2016-2018, Cypress Semiconductor Corporation.  All rights reserved.
  10:Generated_Source\PSoC6\pdl\drivers\peripheral\scb/cy_scb_common.h **** * You may use this file only in accordance with the license, terms, conditions,
  11:Generated_Source\PSoC6\pdl\drivers\peripheral\scb/cy_scb_common.h **** * disclaimers, and limitations in the end user license agreement accompanying
  12:Generated_Source\PSoC6\pdl\drivers\peripheral\scb/cy_scb_common.h **** * the software package with which this file was provided.
  13:Generated_Source\PSoC6\pdl\drivers\peripheral\scb/cy_scb_common.h **** *******************************************************************************/
  14:Generated_Source\PSoC6\pdl\drivers\peripheral\scb/cy_scb_common.h **** 
  15:Generated_Source\PSoC6\pdl\drivers\peripheral\scb/cy_scb_common.h **** /**
  16:Generated_Source\PSoC6\pdl\drivers\peripheral\scb/cy_scb_common.h **** * \defgroup group_scb Serial Communication Block (SCB)
  17:Generated_Source\PSoC6\pdl\drivers\peripheral\scb/cy_scb_common.h **** * \{
  18:Generated_Source\PSoC6\pdl\drivers\peripheral\scb/cy_scb_common.h **** * \defgroup group_scb_common Common
  19:Generated_Source\PSoC6\pdl\drivers\peripheral\scb/cy_scb_common.h **** * \defgroup group_scb_ezi2c  EZI2C (SCB)
  20:Generated_Source\PSoC6\pdl\drivers\peripheral\scb/cy_scb_common.h **** * \defgroup group_scb_i2c    I2C (SCB)
  21:Generated_Source\PSoC6\pdl\drivers\peripheral\scb/cy_scb_common.h **** * \defgroup group_scb_spi    SPI (SCB)
  22:Generated_Source\PSoC6\pdl\drivers\peripheral\scb/cy_scb_common.h **** * \defgroup group_scb_uart   UART (SCB)
  23:Generated_Source\PSoC6\pdl\drivers\peripheral\scb/cy_scb_common.h **** * \} */
  24:Generated_Source\PSoC6\pdl\drivers\peripheral\scb/cy_scb_common.h **** 
  25:Generated_Source\PSoC6\pdl\drivers\peripheral\scb/cy_scb_common.h **** /**
  26:Generated_Source\PSoC6\pdl\drivers\peripheral\scb/cy_scb_common.h **** * \addtogroup group_scb_common
  27:Generated_Source\PSoC6\pdl\drivers\peripheral\scb/cy_scb_common.h **** * \{
  28:Generated_Source\PSoC6\pdl\drivers\peripheral\scb/cy_scb_common.h **** *
  29:Generated_Source\PSoC6\pdl\drivers\peripheral\scb/cy_scb_common.h **** * Common API for the Serial Communication Block.
  30:Generated_Source\PSoC6\pdl\drivers\peripheral\scb/cy_scb_common.h **** *
ARM GAS  C:\Users\ikomb\AppData\Local\Temp\cctq3ka9.s 			page 2


  31:Generated_Source\PSoC6\pdl\drivers\peripheral\scb/cy_scb_common.h **** * This is the common API that provides an interface to the SCB hardware.
  32:Generated_Source\PSoC6\pdl\drivers\peripheral\scb/cy_scb_common.h **** * The I2C, SPI, and UART drivers use this common API.
  33:Generated_Source\PSoC6\pdl\drivers\peripheral\scb/cy_scb_common.h **** * Most users will use individual drivers and do not need to use the common
  34:Generated_Source\PSoC6\pdl\drivers\peripheral\scb/cy_scb_common.h **** * API for the SCB. However, you can use the common SCB API to implement
  35:Generated_Source\PSoC6\pdl\drivers\peripheral\scb/cy_scb_common.h **** * a custom driver based on the SCB hardware.
  36:Generated_Source\PSoC6\pdl\drivers\peripheral\scb/cy_scb_common.h **** *
  37:Generated_Source\PSoC6\pdl\drivers\peripheral\scb/cy_scb_common.h **** * \section group_scb_common_configuration Configuration Considerations
  38:Generated_Source\PSoC6\pdl\drivers\peripheral\scb/cy_scb_common.h **** *
  39:Generated_Source\PSoC6\pdl\drivers\peripheral\scb/cy_scb_common.h **** * This is not a driver and it does not require configuration.
  40:Generated_Source\PSoC6\pdl\drivers\peripheral\scb/cy_scb_common.h **** *
  41:Generated_Source\PSoC6\pdl\drivers\peripheral\scb/cy_scb_common.h **** * \section group_scb_common_more_information More Information
  42:Generated_Source\PSoC6\pdl\drivers\peripheral\scb/cy_scb_common.h **** *
  43:Generated_Source\PSoC6\pdl\drivers\peripheral\scb/cy_scb_common.h **** * Refer to the SCB chapter of the technical reference manual (TRM).
  44:Generated_Source\PSoC6\pdl\drivers\peripheral\scb/cy_scb_common.h **** *
  45:Generated_Source\PSoC6\pdl\drivers\peripheral\scb/cy_scb_common.h **** * \section group_scb_common_MISRA MISRA-C Compliance
  46:Generated_Source\PSoC6\pdl\drivers\peripheral\scb/cy_scb_common.h **** * <table class="doxtable">
  47:Generated_Source\PSoC6\pdl\drivers\peripheral\scb/cy_scb_common.h **** *   <tr>
  48:Generated_Source\PSoC6\pdl\drivers\peripheral\scb/cy_scb_common.h **** *     <th>MISRA rule</th>
  49:Generated_Source\PSoC6\pdl\drivers\peripheral\scb/cy_scb_common.h **** *     <th>Rule Class (Required/Advisory)</th>
  50:Generated_Source\PSoC6\pdl\drivers\peripheral\scb/cy_scb_common.h **** *     <th>Rule Description</th>
  51:Generated_Source\PSoC6\pdl\drivers\peripheral\scb/cy_scb_common.h **** *     <th>Description of Deviation(s)</th>
  52:Generated_Source\PSoC6\pdl\drivers\peripheral\scb/cy_scb_common.h **** *   </tr>
  53:Generated_Source\PSoC6\pdl\drivers\peripheral\scb/cy_scb_common.h **** *   <tr>
  54:Generated_Source\PSoC6\pdl\drivers\peripheral\scb/cy_scb_common.h **** *     <td>11.4</td>
  55:Generated_Source\PSoC6\pdl\drivers\peripheral\scb/cy_scb_common.h **** *     <td>A</td>
  56:Generated_Source\PSoC6\pdl\drivers\peripheral\scb/cy_scb_common.h **** *     <td>A cast should not be performed between a pointer to object type and
  57:Generated_Source\PSoC6\pdl\drivers\peripheral\scb/cy_scb_common.h **** *         a different pointer to object type.</td>
  58:Generated_Source\PSoC6\pdl\drivers\peripheral\scb/cy_scb_common.h **** *     <td>The pointer to the buffer memory is void to allow handling of
  59:Generated_Source\PSoC6\pdl\drivers\peripheral\scb/cy_scb_common.h **** *         different data types: uint8_t (4-8 bits) or uint16_t (9-16 bits).
  60:Generated_Source\PSoC6\pdl\drivers\peripheral\scb/cy_scb_common.h **** *         The cast operation is safe because the configuration is verified
  61:Generated_Source\PSoC6\pdl\drivers\peripheral\scb/cy_scb_common.h **** *         before operation is performed.
  62:Generated_Source\PSoC6\pdl\drivers\peripheral\scb/cy_scb_common.h **** *         </td>
  63:Generated_Source\PSoC6\pdl\drivers\peripheral\scb/cy_scb_common.h **** *   </tr>
  64:Generated_Source\PSoC6\pdl\drivers\peripheral\scb/cy_scb_common.h **** * </table>
  65:Generated_Source\PSoC6\pdl\drivers\peripheral\scb/cy_scb_common.h **** *
  66:Generated_Source\PSoC6\pdl\drivers\peripheral\scb/cy_scb_common.h **** * \section group_scb_common_changelog Changelog
  67:Generated_Source\PSoC6\pdl\drivers\peripheral\scb/cy_scb_common.h **** * <table class="doxtable">
  68:Generated_Source\PSoC6\pdl\drivers\peripheral\scb/cy_scb_common.h **** *   <tr><th>Version</th><th>Changes</th><th>Reason for Change</th></tr>
  69:Generated_Source\PSoC6\pdl\drivers\peripheral\scb/cy_scb_common.h **** *   <tr>
  70:Generated_Source\PSoC6\pdl\drivers\peripheral\scb/cy_scb_common.h **** *     <td>2.10</td>
  71:Generated_Source\PSoC6\pdl\drivers\peripheral\scb/cy_scb_common.h **** *     <td>None.</td>
  72:Generated_Source\PSoC6\pdl\drivers\peripheral\scb/cy_scb_common.h **** *     <td>SCB I2C driver updated.</td>
  73:Generated_Source\PSoC6\pdl\drivers\peripheral\scb/cy_scb_common.h **** *   </tr>
  74:Generated_Source\PSoC6\pdl\drivers\peripheral\scb/cy_scb_common.h **** *   <tr>
  75:Generated_Source\PSoC6\pdl\drivers\peripheral\scb/cy_scb_common.h **** *     <td rowspan="2"> 2.0</td>
  76:Generated_Source\PSoC6\pdl\drivers\peripheral\scb/cy_scb_common.h **** *     <td>Added parameters validation for public API.
  77:Generated_Source\PSoC6\pdl\drivers\peripheral\scb/cy_scb_common.h **** *     <td></td>
  78:Generated_Source\PSoC6\pdl\drivers\peripheral\scb/cy_scb_common.h **** *   </tr>
  79:Generated_Source\PSoC6\pdl\drivers\peripheral\scb/cy_scb_common.h **** *   <tr>
  80:Generated_Source\PSoC6\pdl\drivers\peripheral\scb/cy_scb_common.h **** *     <td>Fixed functions which return interrupt status to return only defined
  81:Generated_Source\PSoC6\pdl\drivers\peripheral\scb/cy_scb_common.h **** *         set of interrupt statuses.</td>
  82:Generated_Source\PSoC6\pdl\drivers\peripheral\scb/cy_scb_common.h **** *     <td></td>
  83:Generated_Source\PSoC6\pdl\drivers\peripheral\scb/cy_scb_common.h **** *   </tr>
  84:Generated_Source\PSoC6\pdl\drivers\peripheral\scb/cy_scb_common.h **** *   <tr>
  85:Generated_Source\PSoC6\pdl\drivers\peripheral\scb/cy_scb_common.h **** *     <td>1.0</td>
  86:Generated_Source\PSoC6\pdl\drivers\peripheral\scb/cy_scb_common.h **** *     <td>Initial version.</td>
  87:Generated_Source\PSoC6\pdl\drivers\peripheral\scb/cy_scb_common.h **** *     <td></td>
ARM GAS  C:\Users\ikomb\AppData\Local\Temp\cctq3ka9.s 			page 3


  88:Generated_Source\PSoC6\pdl\drivers\peripheral\scb/cy_scb_common.h **** *   </tr>
  89:Generated_Source\PSoC6\pdl\drivers\peripheral\scb/cy_scb_common.h **** * </table>
  90:Generated_Source\PSoC6\pdl\drivers\peripheral\scb/cy_scb_common.h **** *
  91:Generated_Source\PSoC6\pdl\drivers\peripheral\scb/cy_scb_common.h **** * \defgroup group_scb_common_macros Macros
  92:Generated_Source\PSoC6\pdl\drivers\peripheral\scb/cy_scb_common.h **** * \defgroup group_scb_common_functions Functions
  93:Generated_Source\PSoC6\pdl\drivers\peripheral\scb/cy_scb_common.h **** * \defgroup group_scb_common_data_structures Data Structures
  94:Generated_Source\PSoC6\pdl\drivers\peripheral\scb/cy_scb_common.h **** *
  95:Generated_Source\PSoC6\pdl\drivers\peripheral\scb/cy_scb_common.h **** */
  96:Generated_Source\PSoC6\pdl\drivers\peripheral\scb/cy_scb_common.h **** 
  97:Generated_Source\PSoC6\pdl\drivers\peripheral\scb/cy_scb_common.h **** #if !defined(CY_SCB_COMMON_H)
  98:Generated_Source\PSoC6\pdl\drivers\peripheral\scb/cy_scb_common.h **** #define CY_SCB_COMMON_H
  99:Generated_Source\PSoC6\pdl\drivers\peripheral\scb/cy_scb_common.h **** 
 100:Generated_Source\PSoC6\pdl\drivers\peripheral\scb/cy_scb_common.h **** #include <stdint.h>
 101:Generated_Source\PSoC6\pdl\drivers\peripheral\scb/cy_scb_common.h **** #include <stddef.h>
 102:Generated_Source\PSoC6\pdl\drivers\peripheral\scb/cy_scb_common.h **** #include <stdbool.h>
 103:Generated_Source\PSoC6\pdl\drivers\peripheral\scb/cy_scb_common.h **** #include "cy_device_headers.h"
 104:Generated_Source\PSoC6\pdl\drivers\peripheral\scb/cy_scb_common.h **** #include "syslib/cy_syslib.h"
 105:Generated_Source\PSoC6\pdl\drivers\peripheral\scb/cy_scb_common.h **** #include "syspm/cy_syspm.h"
 106:Generated_Source\PSoC6\pdl\drivers\peripheral\scb/cy_scb_common.h **** 
 107:Generated_Source\PSoC6\pdl\drivers\peripheral\scb/cy_scb_common.h **** #ifndef CY_IP_MXSCB
 108:Generated_Source\PSoC6\pdl\drivers\peripheral\scb/cy_scb_common.h ****     #error "The SCB driver is not supported on this device"
 109:Generated_Source\PSoC6\pdl\drivers\peripheral\scb/cy_scb_common.h **** #endif
 110:Generated_Source\PSoC6\pdl\drivers\peripheral\scb/cy_scb_common.h **** 
 111:Generated_Source\PSoC6\pdl\drivers\peripheral\scb/cy_scb_common.h **** #if defined(__cplusplus)
 112:Generated_Source\PSoC6\pdl\drivers\peripheral\scb/cy_scb_common.h **** extern "C" {
 113:Generated_Source\PSoC6\pdl\drivers\peripheral\scb/cy_scb_common.h **** #endif
 114:Generated_Source\PSoC6\pdl\drivers\peripheral\scb/cy_scb_common.h **** 
 115:Generated_Source\PSoC6\pdl\drivers\peripheral\scb/cy_scb_common.h **** 
 116:Generated_Source\PSoC6\pdl\drivers\peripheral\scb/cy_scb_common.h **** /***************************************
 117:Generated_Source\PSoC6\pdl\drivers\peripheral\scb/cy_scb_common.h **** *        Function Prototypes
 118:Generated_Source\PSoC6\pdl\drivers\peripheral\scb/cy_scb_common.h **** ***************************************/
 119:Generated_Source\PSoC6\pdl\drivers\peripheral\scb/cy_scb_common.h **** 
 120:Generated_Source\PSoC6\pdl\drivers\peripheral\scb/cy_scb_common.h **** /**
 121:Generated_Source\PSoC6\pdl\drivers\peripheral\scb/cy_scb_common.h **** * \addtogroup group_scb_common_functions
 122:Generated_Source\PSoC6\pdl\drivers\peripheral\scb/cy_scb_common.h **** * \{
 123:Generated_Source\PSoC6\pdl\drivers\peripheral\scb/cy_scb_common.h **** */
 124:Generated_Source\PSoC6\pdl\drivers\peripheral\scb/cy_scb_common.h **** __STATIC_INLINE uint32_t Cy_SCB_ReadRxFifo    (CySCB_Type const *base);
 125:Generated_Source\PSoC6\pdl\drivers\peripheral\scb/cy_scb_common.h **** __STATIC_INLINE void     Cy_SCB_SetRxFifoLevel(CySCB_Type *base, uint32_t level);
 126:Generated_Source\PSoC6\pdl\drivers\peripheral\scb/cy_scb_common.h **** __STATIC_INLINE uint32_t Cy_SCB_GetNumInRxFifo(CySCB_Type const *base);
 127:Generated_Source\PSoC6\pdl\drivers\peripheral\scb/cy_scb_common.h **** __STATIC_INLINE uint32_t Cy_SCB_GetRxSrValid  (CySCB_Type const *base);
 128:Generated_Source\PSoC6\pdl\drivers\peripheral\scb/cy_scb_common.h **** __STATIC_INLINE void     Cy_SCB_ClearRxFifo   (CySCB_Type *base);
 129:Generated_Source\PSoC6\pdl\drivers\peripheral\scb/cy_scb_common.h **** 
 130:Generated_Source\PSoC6\pdl\drivers\peripheral\scb/cy_scb_common.h **** __STATIC_INLINE void     Cy_SCB_WriteTxFifo   (CySCB_Type *base, uint32_t data);
 131:Generated_Source\PSoC6\pdl\drivers\peripheral\scb/cy_scb_common.h **** __STATIC_INLINE void     Cy_SCB_SetTxFifoLevel(CySCB_Type *base, uint32_t level);
 132:Generated_Source\PSoC6\pdl\drivers\peripheral\scb/cy_scb_common.h **** __STATIC_INLINE uint32_t Cy_SCB_GetNumInTxFifo(CySCB_Type const *base);
 133:Generated_Source\PSoC6\pdl\drivers\peripheral\scb/cy_scb_common.h **** __STATIC_INLINE uint32_t Cy_SCB_GetTxSrValid  (CySCB_Type const *base);
 134:Generated_Source\PSoC6\pdl\drivers\peripheral\scb/cy_scb_common.h **** __STATIC_INLINE bool     Cy_SCB_IsTxComplete  (CySCB_Type const *base);
 135:Generated_Source\PSoC6\pdl\drivers\peripheral\scb/cy_scb_common.h **** __STATIC_INLINE void     Cy_SCB_ClearTxFifo   (CySCB_Type *base);
 136:Generated_Source\PSoC6\pdl\drivers\peripheral\scb/cy_scb_common.h **** 
 137:Generated_Source\PSoC6\pdl\drivers\peripheral\scb/cy_scb_common.h **** __STATIC_INLINE void     Cy_SCB_SetByteMode(CySCB_Type *base, bool byteMode);
 138:Generated_Source\PSoC6\pdl\drivers\peripheral\scb/cy_scb_common.h **** 
 139:Generated_Source\PSoC6\pdl\drivers\peripheral\scb/cy_scb_common.h **** __STATIC_INLINE uint32_t Cy_SCB_GetInterruptCause(CySCB_Type const *base);
 140:Generated_Source\PSoC6\pdl\drivers\peripheral\scb/cy_scb_common.h **** 
 141:Generated_Source\PSoC6\pdl\drivers\peripheral\scb/cy_scb_common.h **** __STATIC_INLINE uint32_t Cy_SCB_GetRxInterruptStatus(CySCB_Type const *base);
 142:Generated_Source\PSoC6\pdl\drivers\peripheral\scb/cy_scb_common.h **** __STATIC_INLINE void     Cy_SCB_SetRxInterruptMask  (CySCB_Type *base, uint32_t interruptMask);
 143:Generated_Source\PSoC6\pdl\drivers\peripheral\scb/cy_scb_common.h **** __STATIC_INLINE uint32_t Cy_SCB_GetRxInterruptMask  (CySCB_Type const *base);
 144:Generated_Source\PSoC6\pdl\drivers\peripheral\scb/cy_scb_common.h **** __STATIC_INLINE uint32_t Cy_SCB_GetRxInterruptStatusMasked(CySCB_Type const *base);
ARM GAS  C:\Users\ikomb\AppData\Local\Temp\cctq3ka9.s 			page 4


 145:Generated_Source\PSoC6\pdl\drivers\peripheral\scb/cy_scb_common.h **** __STATIC_INLINE void     Cy_SCB_ClearRxInterrupt    (CySCB_Type *base, uint32_t interruptMask);
 146:Generated_Source\PSoC6\pdl\drivers\peripheral\scb/cy_scb_common.h **** __STATIC_INLINE void     Cy_SCB_SetRxInterrupt      (CySCB_Type *base, uint32_t interruptMask);
 147:Generated_Source\PSoC6\pdl\drivers\peripheral\scb/cy_scb_common.h **** 
 148:Generated_Source\PSoC6\pdl\drivers\peripheral\scb/cy_scb_common.h **** __STATIC_INLINE uint32_t Cy_SCB_GetTxInterruptStatus(CySCB_Type const *base);
 149:Generated_Source\PSoC6\pdl\drivers\peripheral\scb/cy_scb_common.h **** __STATIC_INLINE void     Cy_SCB_SetTxInterruptMask  (CySCB_Type *base, uint32_t interruptMask);
 150:Generated_Source\PSoC6\pdl\drivers\peripheral\scb/cy_scb_common.h **** __STATIC_INLINE uint32_t Cy_SCB_GetTxInterruptMask  (CySCB_Type const *base);
 151:Generated_Source\PSoC6\pdl\drivers\peripheral\scb/cy_scb_common.h **** __STATIC_INLINE uint32_t Cy_SCB_GetTxInterruptStatusMasked(CySCB_Type const *base);
 152:Generated_Source\PSoC6\pdl\drivers\peripheral\scb/cy_scb_common.h **** __STATIC_INLINE void     Cy_SCB_ClearTxInterrupt    (CySCB_Type *base, uint32_t interruptMask);
 153:Generated_Source\PSoC6\pdl\drivers\peripheral\scb/cy_scb_common.h **** __STATIC_INLINE void     Cy_SCB_SetTxInterrupt      (CySCB_Type *base, uint32_t interruptMask);
 154:Generated_Source\PSoC6\pdl\drivers\peripheral\scb/cy_scb_common.h **** 
 155:Generated_Source\PSoC6\pdl\drivers\peripheral\scb/cy_scb_common.h **** __STATIC_INLINE uint32_t Cy_SCB_GetMasterInterruptStatus(CySCB_Type const *base);
 156:Generated_Source\PSoC6\pdl\drivers\peripheral\scb/cy_scb_common.h **** __STATIC_INLINE void     Cy_SCB_SetMasterInterruptMask  (CySCB_Type *base, uint32_t interruptMask);
 157:Generated_Source\PSoC6\pdl\drivers\peripheral\scb/cy_scb_common.h **** __STATIC_INLINE uint32_t Cy_SCB_GetMasterInterruptMask  (CySCB_Type const *base);
 158:Generated_Source\PSoC6\pdl\drivers\peripheral\scb/cy_scb_common.h **** __STATIC_INLINE uint32_t Cy_SCB_GetMasterInterruptStatusMasked(CySCB_Type const *base);
 159:Generated_Source\PSoC6\pdl\drivers\peripheral\scb/cy_scb_common.h **** __STATIC_INLINE void     Cy_SCB_ClearMasterInterrupt    (CySCB_Type *base, uint32_t interruptMask);
 160:Generated_Source\PSoC6\pdl\drivers\peripheral\scb/cy_scb_common.h **** __STATIC_INLINE void     Cy_SCB_SetMasterInterrupt      (CySCB_Type *base, uint32_t interruptMask);
 161:Generated_Source\PSoC6\pdl\drivers\peripheral\scb/cy_scb_common.h **** 
 162:Generated_Source\PSoC6\pdl\drivers\peripheral\scb/cy_scb_common.h **** __STATIC_INLINE uint32_t Cy_SCB_GetSlaveInterruptStatus(CySCB_Type const *base);
 163:Generated_Source\PSoC6\pdl\drivers\peripheral\scb/cy_scb_common.h **** __STATIC_INLINE void     Cy_SCB_SetSlaveInterruptMask  (CySCB_Type *base, uint32_t interruptMask);
 164:Generated_Source\PSoC6\pdl\drivers\peripheral\scb/cy_scb_common.h **** __STATIC_INLINE uint32_t Cy_SCB_GetSlaveInterruptMask  (CySCB_Type const *base);
 165:Generated_Source\PSoC6\pdl\drivers\peripheral\scb/cy_scb_common.h **** __STATIC_INLINE uint32_t Cy_SCB_GetSlaveInterruptStatusMasked(CySCB_Type const *base);
 166:Generated_Source\PSoC6\pdl\drivers\peripheral\scb/cy_scb_common.h **** __STATIC_INLINE void     Cy_SCB_ClearSlaveInterrupt    (CySCB_Type *base, uint32_t interruptMask);
 167:Generated_Source\PSoC6\pdl\drivers\peripheral\scb/cy_scb_common.h **** __STATIC_INLINE void     Cy_SCB_SetSlaveInterrupt      (CySCB_Type *base, uint32_t interruptMask);
 168:Generated_Source\PSoC6\pdl\drivers\peripheral\scb/cy_scb_common.h **** 
 169:Generated_Source\PSoC6\pdl\drivers\peripheral\scb/cy_scb_common.h **** __STATIC_INLINE uint32_t Cy_SCB_GetI2CInterruptStatus(CySCB_Type const *base);
 170:Generated_Source\PSoC6\pdl\drivers\peripheral\scb/cy_scb_common.h **** __STATIC_INLINE void     Cy_SCB_SetI2CInterruptMask  (CySCB_Type *base, uint32_t interruptMask);
 171:Generated_Source\PSoC6\pdl\drivers\peripheral\scb/cy_scb_common.h **** __STATIC_INLINE uint32_t Cy_SCB_GetI2CInterruptMask  (CySCB_Type const *base);
 172:Generated_Source\PSoC6\pdl\drivers\peripheral\scb/cy_scb_common.h **** __STATIC_INLINE uint32_t Cy_SCB_GetI2CInterruptStatusMasked(CySCB_Type const *base);
 173:Generated_Source\PSoC6\pdl\drivers\peripheral\scb/cy_scb_common.h **** __STATIC_INLINE void     Cy_SCB_ClearI2CInterrupt    (CySCB_Type *base, uint32_t interruptMask);
 174:Generated_Source\PSoC6\pdl\drivers\peripheral\scb/cy_scb_common.h **** 
 175:Generated_Source\PSoC6\pdl\drivers\peripheral\scb/cy_scb_common.h **** __STATIC_INLINE uint32_t Cy_SCB_GetSpiInterruptStatus(CySCB_Type const *base);
 176:Generated_Source\PSoC6\pdl\drivers\peripheral\scb/cy_scb_common.h **** __STATIC_INLINE void     Cy_SCB_SetSpiInterruptMask  (CySCB_Type *base, uint32_t interruptMask);
 177:Generated_Source\PSoC6\pdl\drivers\peripheral\scb/cy_scb_common.h **** __STATIC_INLINE uint32_t Cy_SCB_GetSpiInterruptMask  (CySCB_Type const *base);
 178:Generated_Source\PSoC6\pdl\drivers\peripheral\scb/cy_scb_common.h **** __STATIC_INLINE uint32_t Cy_SCB_GetSpiInterruptStatusMasked(CySCB_Type const *base);
 179:Generated_Source\PSoC6\pdl\drivers\peripheral\scb/cy_scb_common.h **** __STATIC_INLINE void     Cy_SCB_ClearSpiInterrupt    (CySCB_Type *base, uint32_t interruptMask);
 180:Generated_Source\PSoC6\pdl\drivers\peripheral\scb/cy_scb_common.h **** 
 181:Generated_Source\PSoC6\pdl\drivers\peripheral\scb/cy_scb_common.h **** 
 182:Generated_Source\PSoC6\pdl\drivers\peripheral\scb/cy_scb_common.h **** /***************************************
 183:Generated_Source\PSoC6\pdl\drivers\peripheral\scb/cy_scb_common.h **** *     Internal Function Prototypes
 184:Generated_Source\PSoC6\pdl\drivers\peripheral\scb/cy_scb_common.h **** ***************************************/
 185:Generated_Source\PSoC6\pdl\drivers\peripheral\scb/cy_scb_common.h **** 
 186:Generated_Source\PSoC6\pdl\drivers\peripheral\scb/cy_scb_common.h **** /** \cond INTERNAL */
 187:Generated_Source\PSoC6\pdl\drivers\peripheral\scb/cy_scb_common.h **** void     Cy_SCB_ReadArrayNoCheck  (CySCB_Type const *base, void *buffer, uint32_t size);
 188:Generated_Source\PSoC6\pdl\drivers\peripheral\scb/cy_scb_common.h **** uint32_t Cy_SCB_ReadArray         (CySCB_Type const *base, void *buffer, uint32_t size);
 189:Generated_Source\PSoC6\pdl\drivers\peripheral\scb/cy_scb_common.h **** void     Cy_SCB_ReadArrayBlocking (CySCB_Type const *base, void *buffer, uint32_t size);
 190:Generated_Source\PSoC6\pdl\drivers\peripheral\scb/cy_scb_common.h **** uint32_t Cy_SCB_Write             (CySCB_Type *base, uint32_t data);
 191:Generated_Source\PSoC6\pdl\drivers\peripheral\scb/cy_scb_common.h **** void     Cy_SCB_WriteArrayNoCheck (CySCB_Type *base, void *buffer, uint32_t size);
 192:Generated_Source\PSoC6\pdl\drivers\peripheral\scb/cy_scb_common.h **** uint32_t Cy_SCB_WriteArray        (CySCB_Type *base, void *buffer, uint32_t size);
 193:Generated_Source\PSoC6\pdl\drivers\peripheral\scb/cy_scb_common.h **** void     Cy_SCB_WriteArrayBlocking(CySCB_Type *base, void *buffer, uint32_t size);
 194:Generated_Source\PSoC6\pdl\drivers\peripheral\scb/cy_scb_common.h **** void     Cy_SCB_WriteString       (CySCB_Type *base, char_t const string[]);
 195:Generated_Source\PSoC6\pdl\drivers\peripheral\scb/cy_scb_common.h **** void     Cy_SCB_WriteDefaultArrayNoCheck(CySCB_Type *base, uint32_t txData, uint32_t size);
 196:Generated_Source\PSoC6\pdl\drivers\peripheral\scb/cy_scb_common.h **** uint32_t Cy_SCB_WriteDefaultArray (CySCB_Type *base, uint32_t txData, uint32_t size);
 197:Generated_Source\PSoC6\pdl\drivers\peripheral\scb/cy_scb_common.h **** 
 198:Generated_Source\PSoC6\pdl\drivers\peripheral\scb/cy_scb_common.h **** __STATIC_INLINE uint32_t Cy_SCB_GetFifoSize (CySCB_Type const *base);
 199:Generated_Source\PSoC6\pdl\drivers\peripheral\scb/cy_scb_common.h **** __STATIC_INLINE void     Cy_SCB_FwBlockReset(CySCB_Type *base);
 200:Generated_Source\PSoC6\pdl\drivers\peripheral\scb/cy_scb_common.h **** __STATIC_INLINE bool     Cy_SCB_IsRxDataWidthByte(CySCB_Type const *base);
 201:Generated_Source\PSoC6\pdl\drivers\peripheral\scb/cy_scb_common.h **** __STATIC_INLINE bool     Cy_SCB_IsTxDataWidthByte(CySCB_Type const *base);
ARM GAS  C:\Users\ikomb\AppData\Local\Temp\cctq3ka9.s 			page 5


 202:Generated_Source\PSoC6\pdl\drivers\peripheral\scb/cy_scb_common.h **** __STATIC_INLINE uint32_t Cy_SCB_GetRxFifoLevel   (CySCB_Type const *base);
 203:Generated_Source\PSoC6\pdl\drivers\peripheral\scb/cy_scb_common.h **** /** \endcond */
 204:Generated_Source\PSoC6\pdl\drivers\peripheral\scb/cy_scb_common.h **** 
 205:Generated_Source\PSoC6\pdl\drivers\peripheral\scb/cy_scb_common.h **** /** \} group_scb_common_functions */
 206:Generated_Source\PSoC6\pdl\drivers\peripheral\scb/cy_scb_common.h **** 
 207:Generated_Source\PSoC6\pdl\drivers\peripheral\scb/cy_scb_common.h **** /***************************************
 208:Generated_Source\PSoC6\pdl\drivers\peripheral\scb/cy_scb_common.h **** *            API Constants
 209:Generated_Source\PSoC6\pdl\drivers\peripheral\scb/cy_scb_common.h **** ***************************************/
 210:Generated_Source\PSoC6\pdl\drivers\peripheral\scb/cy_scb_common.h **** 
 211:Generated_Source\PSoC6\pdl\drivers\peripheral\scb/cy_scb_common.h **** /**
 212:Generated_Source\PSoC6\pdl\drivers\peripheral\scb/cy_scb_common.h **** * \addtogroup group_scb_common_macros
 213:Generated_Source\PSoC6\pdl\drivers\peripheral\scb/cy_scb_common.h **** * \{
 214:Generated_Source\PSoC6\pdl\drivers\peripheral\scb/cy_scb_common.h **** */
 215:Generated_Source\PSoC6\pdl\drivers\peripheral\scb/cy_scb_common.h **** 
 216:Generated_Source\PSoC6\pdl\drivers\peripheral\scb/cy_scb_common.h **** /** Driver major version */
 217:Generated_Source\PSoC6\pdl\drivers\peripheral\scb/cy_scb_common.h **** #define CY_SCB_DRV_VERSION_MAJOR    (2)
 218:Generated_Source\PSoC6\pdl\drivers\peripheral\scb/cy_scb_common.h **** 
 219:Generated_Source\PSoC6\pdl\drivers\peripheral\scb/cy_scb_common.h **** /** Driver minor version */
 220:Generated_Source\PSoC6\pdl\drivers\peripheral\scb/cy_scb_common.h **** #define CY_SCB_DRV_VERSION_MINOR    (10)
 221:Generated_Source\PSoC6\pdl\drivers\peripheral\scb/cy_scb_common.h **** 
 222:Generated_Source\PSoC6\pdl\drivers\peripheral\scb/cy_scb_common.h **** /** SCB driver identifier */
 223:Generated_Source\PSoC6\pdl\drivers\peripheral\scb/cy_scb_common.h **** #define CY_SCB_ID           CY_PDL_DRV_ID(0x2AU)
 224:Generated_Source\PSoC6\pdl\drivers\peripheral\scb/cy_scb_common.h **** 
 225:Generated_Source\PSoC6\pdl\drivers\peripheral\scb/cy_scb_common.h **** /** Position for SCB driver sub mode */
 226:Generated_Source\PSoC6\pdl\drivers\peripheral\scb/cy_scb_common.h **** #define CY_SCB_SUB_MODE_Pos (13UL)
 227:Generated_Source\PSoC6\pdl\drivers\peripheral\scb/cy_scb_common.h **** 
 228:Generated_Source\PSoC6\pdl\drivers\peripheral\scb/cy_scb_common.h **** /** EZI2C mode identifier */
 229:Generated_Source\PSoC6\pdl\drivers\peripheral\scb/cy_scb_common.h **** #define CY_SCB_EZI2C_ID     (0x0UL << CY_SCB_SUB_MODE_Pos)
 230:Generated_Source\PSoC6\pdl\drivers\peripheral\scb/cy_scb_common.h **** 
 231:Generated_Source\PSoC6\pdl\drivers\peripheral\scb/cy_scb_common.h **** /** EZI2C mode identifier */
 232:Generated_Source\PSoC6\pdl\drivers\peripheral\scb/cy_scb_common.h **** #define CY_SCB_I2C_ID       (0x1UL << CY_SCB_SUB_MODE_Pos)
 233:Generated_Source\PSoC6\pdl\drivers\peripheral\scb/cy_scb_common.h **** 
 234:Generated_Source\PSoC6\pdl\drivers\peripheral\scb/cy_scb_common.h **** /** EZI2C mode identifier */
 235:Generated_Source\PSoC6\pdl\drivers\peripheral\scb/cy_scb_common.h **** #define CY_SCB_SPI_ID       (0x2UL << CY_SCB_SUB_MODE_Pos)
 236:Generated_Source\PSoC6\pdl\drivers\peripheral\scb/cy_scb_common.h **** 
 237:Generated_Source\PSoC6\pdl\drivers\peripheral\scb/cy_scb_common.h **** /** EZI2C mode identifier */
 238:Generated_Source\PSoC6\pdl\drivers\peripheral\scb/cy_scb_common.h **** #define CY_SCB_UART_ID      (0x3UL << CY_SCB_SUB_MODE_Pos)
 239:Generated_Source\PSoC6\pdl\drivers\peripheral\scb/cy_scb_common.h **** 
 240:Generated_Source\PSoC6\pdl\drivers\peripheral\scb/cy_scb_common.h **** /**
 241:Generated_Source\PSoC6\pdl\drivers\peripheral\scb/cy_scb_common.h **** * \defgroup group_scb_common_macros_intr_cause SCB Interrupt Causes
 242:Generated_Source\PSoC6\pdl\drivers\peripheral\scb/cy_scb_common.h **** * \{
 243:Generated_Source\PSoC6\pdl\drivers\peripheral\scb/cy_scb_common.h **** */
 244:Generated_Source\PSoC6\pdl\drivers\peripheral\scb/cy_scb_common.h **** /** Interrupt from Master interrupt sources */
 245:Generated_Source\PSoC6\pdl\drivers\peripheral\scb/cy_scb_common.h **** #define CY_SCB_MASTER_INTR SCB_INTR_CAUSE_M_Msk
 246:Generated_Source\PSoC6\pdl\drivers\peripheral\scb/cy_scb_common.h **** 
 247:Generated_Source\PSoC6\pdl\drivers\peripheral\scb/cy_scb_common.h **** /** Interrupt from Slave interrupt sources  */
 248:Generated_Source\PSoC6\pdl\drivers\peripheral\scb/cy_scb_common.h **** #define CY_SCB_SLAVE_INTR  SCB_INTR_CAUSE_S_Msk
 249:Generated_Source\PSoC6\pdl\drivers\peripheral\scb/cy_scb_common.h **** 
 250:Generated_Source\PSoC6\pdl\drivers\peripheral\scb/cy_scb_common.h **** /** Interrupt from TX interrupt sources */
 251:Generated_Source\PSoC6\pdl\drivers\peripheral\scb/cy_scb_common.h **** #define CY_SCB_TX_INTR     SCB_INTR_CAUSE_TX_Msk
 252:Generated_Source\PSoC6\pdl\drivers\peripheral\scb/cy_scb_common.h **** 
 253:Generated_Source\PSoC6\pdl\drivers\peripheral\scb/cy_scb_common.h **** /** Interrupt from RX interrupt sources */
 254:Generated_Source\PSoC6\pdl\drivers\peripheral\scb/cy_scb_common.h **** #define CY_SCB_RX_INTR     SCB_INTR_CAUSE_RX_Msk
 255:Generated_Source\PSoC6\pdl\drivers\peripheral\scb/cy_scb_common.h **** 
 256:Generated_Source\PSoC6\pdl\drivers\peripheral\scb/cy_scb_common.h **** /** Interrupt from I2C externally clocked interrupt sources */
 257:Generated_Source\PSoC6\pdl\drivers\peripheral\scb/cy_scb_common.h **** #define CY_SCB_I2C_INTR    SCB_INTR_CAUSE_I2C_EC_Msk
 258:Generated_Source\PSoC6\pdl\drivers\peripheral\scb/cy_scb_common.h **** 
ARM GAS  C:\Users\ikomb\AppData\Local\Temp\cctq3ka9.s 			page 6


 259:Generated_Source\PSoC6\pdl\drivers\peripheral\scb/cy_scb_common.h **** /** Interrupt from SPI externally clocked interrupt sources */
 260:Generated_Source\PSoC6\pdl\drivers\peripheral\scb/cy_scb_common.h **** #define CY_SCB_SPI_INTR    SCB_INTR_CAUSE_SPI_EC_Msk
 261:Generated_Source\PSoC6\pdl\drivers\peripheral\scb/cy_scb_common.h **** /** \} group_scb_common_macros_intr_cause */
 262:Generated_Source\PSoC6\pdl\drivers\peripheral\scb/cy_scb_common.h **** 
 263:Generated_Source\PSoC6\pdl\drivers\peripheral\scb/cy_scb_common.h **** /**
 264:Generated_Source\PSoC6\pdl\drivers\peripheral\scb/cy_scb_common.h **** * \defgroup group_scb_common_macros_tx_intr TX Interrupt Statuses
 265:Generated_Source\PSoC6\pdl\drivers\peripheral\scb/cy_scb_common.h **** * \{
 266:Generated_Source\PSoC6\pdl\drivers\peripheral\scb/cy_scb_common.h **** */
 267:Generated_Source\PSoC6\pdl\drivers\peripheral\scb/cy_scb_common.h **** /**
 268:Generated_Source\PSoC6\pdl\drivers\peripheral\scb/cy_scb_common.h **** * The number of data elements in the TX FIFO is less than the value
 269:Generated_Source\PSoC6\pdl\drivers\peripheral\scb/cy_scb_common.h **** * of the TX FIFO level
 270:Generated_Source\PSoC6\pdl\drivers\peripheral\scb/cy_scb_common.h **** */
 271:Generated_Source\PSoC6\pdl\drivers\peripheral\scb/cy_scb_common.h **** #define CY_SCB_TX_INTR_LEVEL           SCB_INTR_TX_TRIGGER_Msk
 272:Generated_Source\PSoC6\pdl\drivers\peripheral\scb/cy_scb_common.h **** 
 273:Generated_Source\PSoC6\pdl\drivers\peripheral\scb/cy_scb_common.h **** /** The TX FIFO is not full */
 274:Generated_Source\PSoC6\pdl\drivers\peripheral\scb/cy_scb_common.h **** #define CY_SCB_TX_INTR_NOT_FULL        SCB_INTR_TX_NOT_FULL_Msk
 275:Generated_Source\PSoC6\pdl\drivers\peripheral\scb/cy_scb_common.h **** 
 276:Generated_Source\PSoC6\pdl\drivers\peripheral\scb/cy_scb_common.h **** /** The TX FIFO is empty */
 277:Generated_Source\PSoC6\pdl\drivers\peripheral\scb/cy_scb_common.h **** #define CY_SCB_TX_INTR_EMPTY           SCB_INTR_TX_EMPTY_Msk
 278:Generated_Source\PSoC6\pdl\drivers\peripheral\scb/cy_scb_common.h **** 
 279:Generated_Source\PSoC6\pdl\drivers\peripheral\scb/cy_scb_common.h **** /** An attempt to write to a full TX FIFO */
 280:Generated_Source\PSoC6\pdl\drivers\peripheral\scb/cy_scb_common.h **** #define CY_SCB_TX_INTR_OVERFLOW        SCB_INTR_TX_OVERFLOW_Msk
 281:Generated_Source\PSoC6\pdl\drivers\peripheral\scb/cy_scb_common.h **** 
 282:Generated_Source\PSoC6\pdl\drivers\peripheral\scb/cy_scb_common.h **** /** An attempt to read from an empty TX FIFO */
 283:Generated_Source\PSoC6\pdl\drivers\peripheral\scb/cy_scb_common.h **** #define CY_SCB_TX_INTR_UNDERFLOW       SCB_INTR_TX_UNDERFLOW_Msk
 284:Generated_Source\PSoC6\pdl\drivers\peripheral\scb/cy_scb_common.h **** 
 285:Generated_Source\PSoC6\pdl\drivers\peripheral\scb/cy_scb_common.h **** /** The UART transfer is complete: all data elements from the TX FIFO are sent
 286:Generated_Source\PSoC6\pdl\drivers\peripheral\scb/cy_scb_common.h **** */
 287:Generated_Source\PSoC6\pdl\drivers\peripheral\scb/cy_scb_common.h **** #define CY_SCB_TX_INTR_UART_DONE       SCB_INTR_TX_UART_DONE_Msk
 288:Generated_Source\PSoC6\pdl\drivers\peripheral\scb/cy_scb_common.h **** 
 289:Generated_Source\PSoC6\pdl\drivers\peripheral\scb/cy_scb_common.h **** /** SmartCard only: UART received a NACK */
 290:Generated_Source\PSoC6\pdl\drivers\peripheral\scb/cy_scb_common.h **** #define CY_SCB_TX_INTR_UART_NACK       SCB_INTR_TX_UART_NACK_Msk
 291:Generated_Source\PSoC6\pdl\drivers\peripheral\scb/cy_scb_common.h **** 
 292:Generated_Source\PSoC6\pdl\drivers\peripheral\scb/cy_scb_common.h **** /**
 293:Generated_Source\PSoC6\pdl\drivers\peripheral\scb/cy_scb_common.h **** * SmartCard only: the value on the TX line of the UART does not match the
 294:Generated_Source\PSoC6\pdl\drivers\peripheral\scb/cy_scb_common.h **** * value on the RX line
 295:Generated_Source\PSoC6\pdl\drivers\peripheral\scb/cy_scb_common.h **** */
 296:Generated_Source\PSoC6\pdl\drivers\peripheral\scb/cy_scb_common.h **** #define CY_SCB_TX_INTR_UART_ARB_LOST   SCB_INTR_TX_UART_ARB_LOST_Msk
 297:Generated_Source\PSoC6\pdl\drivers\peripheral\scb/cy_scb_common.h **** /** \} group_scb_common_macros_tx_intr */
 298:Generated_Source\PSoC6\pdl\drivers\peripheral\scb/cy_scb_common.h **** 
 299:Generated_Source\PSoC6\pdl\drivers\peripheral\scb/cy_scb_common.h **** /**
 300:Generated_Source\PSoC6\pdl\drivers\peripheral\scb/cy_scb_common.h **** * \defgroup group_scb_common_macros_rx_intr RX Interrupt Statuses
 301:Generated_Source\PSoC6\pdl\drivers\peripheral\scb/cy_scb_common.h **** * \{
 302:Generated_Source\PSoC6\pdl\drivers\peripheral\scb/cy_scb_common.h **** */
 303:Generated_Source\PSoC6\pdl\drivers\peripheral\scb/cy_scb_common.h **** /**
 304:Generated_Source\PSoC6\pdl\drivers\peripheral\scb/cy_scb_common.h **** * The number of data elements in the RX FIFO is greater than the value of the
 305:Generated_Source\PSoC6\pdl\drivers\peripheral\scb/cy_scb_common.h **** * RX FIFO level
 306:Generated_Source\PSoC6\pdl\drivers\peripheral\scb/cy_scb_common.h **** */
 307:Generated_Source\PSoC6\pdl\drivers\peripheral\scb/cy_scb_common.h **** #define CY_SCB_RX_INTR_LEVEL             SCB_INTR_RX_TRIGGER_Msk
 308:Generated_Source\PSoC6\pdl\drivers\peripheral\scb/cy_scb_common.h **** 
 309:Generated_Source\PSoC6\pdl\drivers\peripheral\scb/cy_scb_common.h **** /** The RX FIFO is not empty */
 310:Generated_Source\PSoC6\pdl\drivers\peripheral\scb/cy_scb_common.h **** #define CY_SCB_RX_INTR_NOT_EMPTY         SCB_INTR_RX_NOT_EMPTY_Msk
 311:Generated_Source\PSoC6\pdl\drivers\peripheral\scb/cy_scb_common.h **** 
 312:Generated_Source\PSoC6\pdl\drivers\peripheral\scb/cy_scb_common.h **** /** The RX FIFO is full */
 313:Generated_Source\PSoC6\pdl\drivers\peripheral\scb/cy_scb_common.h **** #define CY_SCB_RX_INTR_FULL              SCB_INTR_RX_FULL_Msk
 314:Generated_Source\PSoC6\pdl\drivers\peripheral\scb/cy_scb_common.h **** 
 315:Generated_Source\PSoC6\pdl\drivers\peripheral\scb/cy_scb_common.h **** /** An attempt to write to a full RX FIFO */
ARM GAS  C:\Users\ikomb\AppData\Local\Temp\cctq3ka9.s 			page 7


 316:Generated_Source\PSoC6\pdl\drivers\peripheral\scb/cy_scb_common.h **** #define CY_SCB_RX_INTR_OVERFLOW          SCB_INTR_RX_OVERFLOW_Msk
 317:Generated_Source\PSoC6\pdl\drivers\peripheral\scb/cy_scb_common.h **** 
 318:Generated_Source\PSoC6\pdl\drivers\peripheral\scb/cy_scb_common.h **** /** An attempt to read from an empty RX FIFO */
 319:Generated_Source\PSoC6\pdl\drivers\peripheral\scb/cy_scb_common.h **** #define CY_SCB_RX_INTR_UNDERFLOW         SCB_INTR_RX_UNDERFLOW_Msk
 320:Generated_Source\PSoC6\pdl\drivers\peripheral\scb/cy_scb_common.h **** 
 321:Generated_Source\PSoC6\pdl\drivers\peripheral\scb/cy_scb_common.h **** /** A UART framing error detected */
 322:Generated_Source\PSoC6\pdl\drivers\peripheral\scb/cy_scb_common.h **** #define CY_SCB_RX_INTR_UART_FRAME_ERROR  SCB_INTR_RX_FRAME_ERROR_Msk
 323:Generated_Source\PSoC6\pdl\drivers\peripheral\scb/cy_scb_common.h **** 
 324:Generated_Source\PSoC6\pdl\drivers\peripheral\scb/cy_scb_common.h **** /** A UART parity error detected  */
 325:Generated_Source\PSoC6\pdl\drivers\peripheral\scb/cy_scb_common.h **** #define CY_SCB_RX_INTR_UART_PARITY_ERROR SCB_INTR_RX_PARITY_ERROR_Msk
 326:Generated_Source\PSoC6\pdl\drivers\peripheral\scb/cy_scb_common.h **** 
 327:Generated_Source\PSoC6\pdl\drivers\peripheral\scb/cy_scb_common.h **** /** A UART break detected */
 328:Generated_Source\PSoC6\pdl\drivers\peripheral\scb/cy_scb_common.h **** #define CY_SCB_RX_INTR_UART_BREAK_DETECT SCB_INTR_RX_BREAK_DETECT_Msk
 329:Generated_Source\PSoC6\pdl\drivers\peripheral\scb/cy_scb_common.h **** /** \} group_scb_common_macros_rx_intr */
 330:Generated_Source\PSoC6\pdl\drivers\peripheral\scb/cy_scb_common.h **** 
 331:Generated_Source\PSoC6\pdl\drivers\peripheral\scb/cy_scb_common.h **** /**
 332:Generated_Source\PSoC6\pdl\drivers\peripheral\scb/cy_scb_common.h **** * \defgroup group_scb_common_macros_slave_intr Slave Interrupt Statuses
 333:Generated_Source\PSoC6\pdl\drivers\peripheral\scb/cy_scb_common.h **** * \{
 334:Generated_Source\PSoC6\pdl\drivers\peripheral\scb/cy_scb_common.h **** */
 335:Generated_Source\PSoC6\pdl\drivers\peripheral\scb/cy_scb_common.h **** /**
 336:Generated_Source\PSoC6\pdl\drivers\peripheral\scb/cy_scb_common.h **** * I2C slave lost arbitration: the value driven on the SDA line is not the same
 337:Generated_Source\PSoC6\pdl\drivers\peripheral\scb/cy_scb_common.h **** * as the value observed on the SDA line
 338:Generated_Source\PSoC6\pdl\drivers\peripheral\scb/cy_scb_common.h **** */
 339:Generated_Source\PSoC6\pdl\drivers\peripheral\scb/cy_scb_common.h **** #define CY_SCB_SLAVE_INTR_I2C_ARB_LOST      SCB_INTR_S_I2C_ARB_LOST_Msk
 340:Generated_Source\PSoC6\pdl\drivers\peripheral\scb/cy_scb_common.h **** 
 341:Generated_Source\PSoC6\pdl\drivers\peripheral\scb/cy_scb_common.h **** /** The I2C slave received a NAK */
 342:Generated_Source\PSoC6\pdl\drivers\peripheral\scb/cy_scb_common.h **** #define CY_SCB_SLAVE_INTR_I2C_NACK          SCB_INTR_S_I2C_NACK_Msk
 343:Generated_Source\PSoC6\pdl\drivers\peripheral\scb/cy_scb_common.h **** 
 344:Generated_Source\PSoC6\pdl\drivers\peripheral\scb/cy_scb_common.h **** /** The I2C slave received  an ACK */
 345:Generated_Source\PSoC6\pdl\drivers\peripheral\scb/cy_scb_common.h **** #define CY_SCB_SLAVE_INTR_I2C_ACK           SCB_INTR_S_I2C_ACK_Msk
 346:Generated_Source\PSoC6\pdl\drivers\peripheral\scb/cy_scb_common.h **** 
 347:Generated_Source\PSoC6\pdl\drivers\peripheral\scb/cy_scb_common.h **** /**
 348:Generated_Source\PSoC6\pdl\drivers\peripheral\scb/cy_scb_common.h **** * A Stop or Repeated Start event for a write transfer intended for this slave
 349:Generated_Source\PSoC6\pdl\drivers\peripheral\scb/cy_scb_common.h **** * was detected.
 350:Generated_Source\PSoC6\pdl\drivers\peripheral\scb/cy_scb_common.h **** */
 351:Generated_Source\PSoC6\pdl\drivers\peripheral\scb/cy_scb_common.h **** #define CY_SCB_SLAVE_INTR_I2C_WRITE_STOP    SCB_INTR_S_I2C_WRITE_STOP_Msk
 352:Generated_Source\PSoC6\pdl\drivers\peripheral\scb/cy_scb_common.h **** 
 353:Generated_Source\PSoC6\pdl\drivers\peripheral\scb/cy_scb_common.h **** /** A Stop or Repeated Start event intended for this slave was detected */
 354:Generated_Source\PSoC6\pdl\drivers\peripheral\scb/cy_scb_common.h **** #define CY_SCB_SLAVE_INTR_I2C_STOP          SCB_INTR_S_I2C_STOP_Msk
 355:Generated_Source\PSoC6\pdl\drivers\peripheral\scb/cy_scb_common.h **** 
 356:Generated_Source\PSoC6\pdl\drivers\peripheral\scb/cy_scb_common.h **** /** The I2C slave received a Start condition */
 357:Generated_Source\PSoC6\pdl\drivers\peripheral\scb/cy_scb_common.h **** #define CY_SCB_SLAVE_INTR_I2C_START         SCB_INTR_S_I2C_START_Msk
 358:Generated_Source\PSoC6\pdl\drivers\peripheral\scb/cy_scb_common.h **** 
 359:Generated_Source\PSoC6\pdl\drivers\peripheral\scb/cy_scb_common.h **** /** The I2C slave received the matching address */
 360:Generated_Source\PSoC6\pdl\drivers\peripheral\scb/cy_scb_common.h **** #define CY_SCB_SLAVE_INTR_I2C_ADDR_MATCH    SCB_INTR_S_I2C_ADDR_MATCH_Msk
 361:Generated_Source\PSoC6\pdl\drivers\peripheral\scb/cy_scb_common.h **** 
 362:Generated_Source\PSoC6\pdl\drivers\peripheral\scb/cy_scb_common.h **** /** The I2C Slave received the general call address */
 363:Generated_Source\PSoC6\pdl\drivers\peripheral\scb/cy_scb_common.h **** #define CY_SCB_SLAVE_INTR_I2C_GENERAL_ADDR  SCB_INTR_S_I2C_GENERAL_Msk
 364:Generated_Source\PSoC6\pdl\drivers\peripheral\scb/cy_scb_common.h **** 
 365:Generated_Source\PSoC6\pdl\drivers\peripheral\scb/cy_scb_common.h **** /** The I2C slave bus error (detection of unexpected Start or Stop condition) */
 366:Generated_Source\PSoC6\pdl\drivers\peripheral\scb/cy_scb_common.h **** #define CY_SCB_SLAVE_INTR_I2C_BUS_ERROR     SCB_INTR_S_I2C_BUS_ERROR_Msk
 367:Generated_Source\PSoC6\pdl\drivers\peripheral\scb/cy_scb_common.h **** 
 368:Generated_Source\PSoC6\pdl\drivers\peripheral\scb/cy_scb_common.h **** /**
 369:Generated_Source\PSoC6\pdl\drivers\peripheral\scb/cy_scb_common.h **** * The SPI slave select line is deselected at an expected time during an
 370:Generated_Source\PSoC6\pdl\drivers\peripheral\scb/cy_scb_common.h **** * SPI transfer.
 371:Generated_Source\PSoC6\pdl\drivers\peripheral\scb/cy_scb_common.h **** */
 372:Generated_Source\PSoC6\pdl\drivers\peripheral\scb/cy_scb_common.h **** #define CY_SCB_SLAVE_INTR_SPI_BUS_ERROR     SCB_INTR_S_SPI_BUS_ERROR_Msk
ARM GAS  C:\Users\ikomb\AppData\Local\Temp\cctq3ka9.s 			page 8


 373:Generated_Source\PSoC6\pdl\drivers\peripheral\scb/cy_scb_common.h **** /** \} group_scb_common_macros_slave_intr */
 374:Generated_Source\PSoC6\pdl\drivers\peripheral\scb/cy_scb_common.h **** 
 375:Generated_Source\PSoC6\pdl\drivers\peripheral\scb/cy_scb_common.h **** /**
 376:Generated_Source\PSoC6\pdl\drivers\peripheral\scb/cy_scb_common.h **** * \defgroup group_scb_common_macros_master_intr Master Interrupt Statuses
 377:Generated_Source\PSoC6\pdl\drivers\peripheral\scb/cy_scb_common.h **** * \{
 378:Generated_Source\PSoC6\pdl\drivers\peripheral\scb/cy_scb_common.h **** */
 379:Generated_Source\PSoC6\pdl\drivers\peripheral\scb/cy_scb_common.h **** /** The I2C master lost arbitration */
 380:Generated_Source\PSoC6\pdl\drivers\peripheral\scb/cy_scb_common.h **** #define CY_SCB_MASTER_INTR_I2C_ARB_LOST    SCB_INTR_M_I2C_ARB_LOST_Msk
 381:Generated_Source\PSoC6\pdl\drivers\peripheral\scb/cy_scb_common.h **** 
 382:Generated_Source\PSoC6\pdl\drivers\peripheral\scb/cy_scb_common.h **** /** The I2C master received a NACK */
 383:Generated_Source\PSoC6\pdl\drivers\peripheral\scb/cy_scb_common.h **** #define CY_SCB_MASTER_INTR_I2C_NACK        SCB_INTR_M_I2C_NACK_Msk
 384:Generated_Source\PSoC6\pdl\drivers\peripheral\scb/cy_scb_common.h **** 
 385:Generated_Source\PSoC6\pdl\drivers\peripheral\scb/cy_scb_common.h **** /** The I2C master received an ACK */
 386:Generated_Source\PSoC6\pdl\drivers\peripheral\scb/cy_scb_common.h **** #define CY_SCB_MASTER_INTR_I2C_ACK         SCB_INTR_M_I2C_ACK_Msk
 387:Generated_Source\PSoC6\pdl\drivers\peripheral\scb/cy_scb_common.h **** 
 388:Generated_Source\PSoC6\pdl\drivers\peripheral\scb/cy_scb_common.h **** /** The I2C master generated a Stop */
 389:Generated_Source\PSoC6\pdl\drivers\peripheral\scb/cy_scb_common.h **** #define CY_SCB_MASTER_INTR_I2C_STOP        SCB_INTR_M_I2C_STOP_Msk
 390:Generated_Source\PSoC6\pdl\drivers\peripheral\scb/cy_scb_common.h **** 
 391:Generated_Source\PSoC6\pdl\drivers\peripheral\scb/cy_scb_common.h **** /** The I2C master bus error (detection of unexpected START or STOP condition)
 392:Generated_Source\PSoC6\pdl\drivers\peripheral\scb/cy_scb_common.h **** */
 393:Generated_Source\PSoC6\pdl\drivers\peripheral\scb/cy_scb_common.h **** #define CY_SCB_MASTER_INTR_I2C_BUS_ERROR   SCB_INTR_M_I2C_BUS_ERROR_Msk
 394:Generated_Source\PSoC6\pdl\drivers\peripheral\scb/cy_scb_common.h **** 
 395:Generated_Source\PSoC6\pdl\drivers\peripheral\scb/cy_scb_common.h **** /**
 396:Generated_Source\PSoC6\pdl\drivers\peripheral\scb/cy_scb_common.h **** * The SPI master transfer is complete: all data elements transferred from the
 397:Generated_Source\PSoC6\pdl\drivers\peripheral\scb/cy_scb_common.h **** * TX FIFO and TX shift register.
 398:Generated_Source\PSoC6\pdl\drivers\peripheral\scb/cy_scb_common.h **** */
 399:Generated_Source\PSoC6\pdl\drivers\peripheral\scb/cy_scb_common.h **** #define CY_SCB_MASTER_INTR_SPI_DONE        SCB_INTR_M_SPI_DONE_Msk
 400:Generated_Source\PSoC6\pdl\drivers\peripheral\scb/cy_scb_common.h **** /** \} group_scb_common_macros_master_intr */
 401:Generated_Source\PSoC6\pdl\drivers\peripheral\scb/cy_scb_common.h **** 
 402:Generated_Source\PSoC6\pdl\drivers\peripheral\scb/cy_scb_common.h **** /**
 403:Generated_Source\PSoC6\pdl\drivers\peripheral\scb/cy_scb_common.h **** * \defgroup group_scb_common_macros_i2c_intr I2C Interrupt Statuses
 404:Generated_Source\PSoC6\pdl\drivers\peripheral\scb/cy_scb_common.h **** * \{
 405:Generated_Source\PSoC6\pdl\drivers\peripheral\scb/cy_scb_common.h **** */
 406:Generated_Source\PSoC6\pdl\drivers\peripheral\scb/cy_scb_common.h **** /**
 407:Generated_Source\PSoC6\pdl\drivers\peripheral\scb/cy_scb_common.h **** * Wake up request: the I2C slave received the matching address.
 408:Generated_Source\PSoC6\pdl\drivers\peripheral\scb/cy_scb_common.h **** * Note that this interrupt source triggers in active mode.
 409:Generated_Source\PSoC6\pdl\drivers\peripheral\scb/cy_scb_common.h **** */
 410:Generated_Source\PSoC6\pdl\drivers\peripheral\scb/cy_scb_common.h **** #define CY_SCB_I2C_INTR_WAKEUP     SCB_INTR_I2C_EC_WAKE_UP_Msk
 411:Generated_Source\PSoC6\pdl\drivers\peripheral\scb/cy_scb_common.h **** /** \} group_scb_common_macros_i2c_intr */
 412:Generated_Source\PSoC6\pdl\drivers\peripheral\scb/cy_scb_common.h **** 
 413:Generated_Source\PSoC6\pdl\drivers\peripheral\scb/cy_scb_common.h **** /**
 414:Generated_Source\PSoC6\pdl\drivers\peripheral\scb/cy_scb_common.h **** * \defgroup group_scb_common_macros_SpiIntrStatuses SPI Interrupt Statuses
 415:Generated_Source\PSoC6\pdl\drivers\peripheral\scb/cy_scb_common.h **** * \{
 416:Generated_Source\PSoC6\pdl\drivers\peripheral\scb/cy_scb_common.h **** */
 417:Generated_Source\PSoC6\pdl\drivers\peripheral\scb/cy_scb_common.h **** /**
 418:Generated_Source\PSoC6\pdl\drivers\peripheral\scb/cy_scb_common.h **** * Wake up request: the SPI slave detects an active edge of the slave select
 419:Generated_Source\PSoC6\pdl\drivers\peripheral\scb/cy_scb_common.h **** * signal. Note that this interrupt source triggers in active mode.
 420:Generated_Source\PSoC6\pdl\drivers\peripheral\scb/cy_scb_common.h **** */
 421:Generated_Source\PSoC6\pdl\drivers\peripheral\scb/cy_scb_common.h **** #define CY_SCB_SPI_INTR_WAKEUP     SCB_INTR_SPI_EC_WAKE_UP_Msk
 422:Generated_Source\PSoC6\pdl\drivers\peripheral\scb/cy_scb_common.h **** /** \} group_scb_common_macros_SpiIntrStatuses */
 423:Generated_Source\PSoC6\pdl\drivers\peripheral\scb/cy_scb_common.h **** 
 424:Generated_Source\PSoC6\pdl\drivers\peripheral\scb/cy_scb_common.h **** 
 425:Generated_Source\PSoC6\pdl\drivers\peripheral\scb/cy_scb_common.h **** /***************************************
 426:Generated_Source\PSoC6\pdl\drivers\peripheral\scb/cy_scb_common.h **** *         Internal Constants
 427:Generated_Source\PSoC6\pdl\drivers\peripheral\scb/cy_scb_common.h **** ***************************************/
 428:Generated_Source\PSoC6\pdl\drivers\peripheral\scb/cy_scb_common.h **** 
 429:Generated_Source\PSoC6\pdl\drivers\peripheral\scb/cy_scb_common.h **** /** \cond INTERNAL */
ARM GAS  C:\Users\ikomb\AppData\Local\Temp\cctq3ka9.s 			page 9


 430:Generated_Source\PSoC6\pdl\drivers\peripheral\scb/cy_scb_common.h **** 
 431:Generated_Source\PSoC6\pdl\drivers\peripheral\scb/cy_scb_common.h **** /* Default registers values */
 432:Generated_Source\PSoC6\pdl\drivers\peripheral\scb/cy_scb_common.h **** #define CY_SCB_CTRL_DEF_VAL         (_VAL2FLD(SCB_CTRL_OVS, 15UL) | \
 433:Generated_Source\PSoC6\pdl\drivers\peripheral\scb/cy_scb_common.h ****                                      _VAL2FLD(SCB_CTRL_MODE, 3UL))
 434:Generated_Source\PSoC6\pdl\drivers\peripheral\scb/cy_scb_common.h **** 
 435:Generated_Source\PSoC6\pdl\drivers\peripheral\scb/cy_scb_common.h **** #define CY_SCB_I2C_CTRL_DEF_VAL     (_VAL2FLD(SCB_I2C_CTRL_HIGH_PHASE_OVS, 8UL)        | \
 436:Generated_Source\PSoC6\pdl\drivers\peripheral\scb/cy_scb_common.h ****                                      _VAL2FLD(SCB_I2C_CTRL_HIGH_PHASE_OVS, 8UL)        | \
 437:Generated_Source\PSoC6\pdl\drivers\peripheral\scb/cy_scb_common.h ****                                      _VAL2FLD(SCB_I2C_CTRL_M_READY_DATA_ACK, 1UL)      | \
 438:Generated_Source\PSoC6\pdl\drivers\peripheral\scb/cy_scb_common.h ****                                      _VAL2FLD(SCB_I2C_CTRL_M_NOT_READY_DATA_NACK, 1UL) | \
 439:Generated_Source\PSoC6\pdl\drivers\peripheral\scb/cy_scb_common.h ****                                      _VAL2FLD(SCB_I2C_CTRL_S_GENERAL_IGNORE, 1UL)      | \
 440:Generated_Source\PSoC6\pdl\drivers\peripheral\scb/cy_scb_common.h ****                                      _VAL2FLD(SCB_I2C_CTRL_S_READY_ADDR_ACK, 1UL)      | \
 441:Generated_Source\PSoC6\pdl\drivers\peripheral\scb/cy_scb_common.h ****                                      _VAL2FLD(SCB_I2C_CTRL_S_READY_DATA_ACK, 1UL)      | \
 442:Generated_Source\PSoC6\pdl\drivers\peripheral\scb/cy_scb_common.h ****                                      _VAL2FLD(SCB_I2C_CTRL_S_NOT_READY_ADDR_NACK, 1UL) | \
 443:Generated_Source\PSoC6\pdl\drivers\peripheral\scb/cy_scb_common.h ****                                      _VAL2FLD(SCB_I2C_CTRL_S_NOT_READY_DATA_NACK, 1UL))
 444:Generated_Source\PSoC6\pdl\drivers\peripheral\scb/cy_scb_common.h **** 
 445:Generated_Source\PSoC6\pdl\drivers\peripheral\scb/cy_scb_common.h **** #define CY_SCB_I2C_CFG_DEF_VAL      (_VAL2FLD(SCB_I2C_CFG_SDA_IN_FILT_TRIM, 3UL)   | \
 446:Generated_Source\PSoC6\pdl\drivers\peripheral\scb/cy_scb_common.h ****                                      _VAL2FLD(SCB_I2C_CFG_SDA_IN_FILT_SEL, 1UL)    | \
 447:Generated_Source\PSoC6\pdl\drivers\peripheral\scb/cy_scb_common.h ****                                      _VAL2FLD(SCB_I2C_CFG_SCL_IN_FILT_SEL, 1UL)    | \
 448:Generated_Source\PSoC6\pdl\drivers\peripheral\scb/cy_scb_common.h ****                                      _VAL2FLD(SCB_I2C_CFG_SDA_OUT_FILT0_TRIM, 2UL) | \
 449:Generated_Source\PSoC6\pdl\drivers\peripheral\scb/cy_scb_common.h ****                                      _VAL2FLD(SCB_I2C_CFG_SDA_OUT_FILT1_TRIM, 2UL) | \
 450:Generated_Source\PSoC6\pdl\drivers\peripheral\scb/cy_scb_common.h ****                                      _VAL2FLD(SCB_I2C_CFG_SDA_OUT_FILT2_TRIM, 2UL))
 451:Generated_Source\PSoC6\pdl\drivers\peripheral\scb/cy_scb_common.h **** 
 452:Generated_Source\PSoC6\pdl\drivers\peripheral\scb/cy_scb_common.h **** #define CY_SCB_SPI_CTRL_DEF_VAL     _VAL2FLD(SCB_SPI_CTRL_MODE, 3UL)
 453:Generated_Source\PSoC6\pdl\drivers\peripheral\scb/cy_scb_common.h **** #define CY_SCB_UART_CTRL_DEF_VAL    _VAL2FLD(SCB_UART_CTRL_MODE, 3UL)
 454:Generated_Source\PSoC6\pdl\drivers\peripheral\scb/cy_scb_common.h **** 
 455:Generated_Source\PSoC6\pdl\drivers\peripheral\scb/cy_scb_common.h **** #define CY_SCB_UART_RX_CTRL_DEF_VAL (_VAL2FLD(SCB_UART_RX_CTRL_STOP_BITS, 2UL) | \
 456:Generated_Source\PSoC6\pdl\drivers\peripheral\scb/cy_scb_common.h ****                                      _VAL2FLD(SCB_UART_RX_CTRL_BREAK_WIDTH, 10UL))
 457:Generated_Source\PSoC6\pdl\drivers\peripheral\scb/cy_scb_common.h **** 
 458:Generated_Source\PSoC6\pdl\drivers\peripheral\scb/cy_scb_common.h **** #define CY_SCB_UART_TX_CTRL_DEF_VAL _VAL2FLD(SCB_UART_TX_CTRL_STOP_BITS, 2UL)
 459:Generated_Source\PSoC6\pdl\drivers\peripheral\scb/cy_scb_common.h **** 
 460:Generated_Source\PSoC6\pdl\drivers\peripheral\scb/cy_scb_common.h **** #define CY_SCB_RX_CTRL_DEF_VAL      (_VAL2FLD(SCB_RX_CTRL_DATA_WIDTH, 7UL) | \
 461:Generated_Source\PSoC6\pdl\drivers\peripheral\scb/cy_scb_common.h ****                                      _VAL2FLD(SCB_RX_CTRL_MSB_FIRST,  1UL))
 462:Generated_Source\PSoC6\pdl\drivers\peripheral\scb/cy_scb_common.h **** 
 463:Generated_Source\PSoC6\pdl\drivers\peripheral\scb/cy_scb_common.h **** #define CY_SCB_TX_CTRL_DEF_VAL      (_VAL2FLD(SCB_TX_CTRL_DATA_WIDTH, 7UL) | \
 464:Generated_Source\PSoC6\pdl\drivers\peripheral\scb/cy_scb_common.h ****                                      _VAL2FLD(SCB_TX_CTRL_MSB_FIRST,  1UL))
 465:Generated_Source\PSoC6\pdl\drivers\peripheral\scb/cy_scb_common.h **** 
 466:Generated_Source\PSoC6\pdl\drivers\peripheral\scb/cy_scb_common.h **** /* SCB CTRL modes */
 467:Generated_Source\PSoC6\pdl\drivers\peripheral\scb/cy_scb_common.h **** #define CY_SCB_CTRL_MODE_I2C   (0UL)
 468:Generated_Source\PSoC6\pdl\drivers\peripheral\scb/cy_scb_common.h **** #define CY_SCB_CTRL_MODE_SPI   (1UL)
 469:Generated_Source\PSoC6\pdl\drivers\peripheral\scb/cy_scb_common.h **** #define CY_SCB_CTRL_MODE_UART  (2UL)
 470:Generated_Source\PSoC6\pdl\drivers\peripheral\scb/cy_scb_common.h **** 
 471:Generated_Source\PSoC6\pdl\drivers\peripheral\scb/cy_scb_common.h **** /* The position and mask to set the I2C mode */
 472:Generated_Source\PSoC6\pdl\drivers\peripheral\scb/cy_scb_common.h **** #define CY_SCB_I2C_CTRL_MODE_Pos    SCB_I2C_CTRL_SLAVE_MODE_Pos
 473:Generated_Source\PSoC6\pdl\drivers\peripheral\scb/cy_scb_common.h **** #define CY_SCB_I2C_CTRL_MODE_Msk    (SCB_I2C_CTRL_SLAVE_MODE_Msk | \
 474:Generated_Source\PSoC6\pdl\drivers\peripheral\scb/cy_scb_common.h ****                                      SCB_I2C_CTRL_MASTER_MODE_Msk)
 475:Generated_Source\PSoC6\pdl\drivers\peripheral\scb/cy_scb_common.h **** 
 476:Generated_Source\PSoC6\pdl\drivers\peripheral\scb/cy_scb_common.h **** /* Cypress ID #282226:
 477:Generated_Source\PSoC6\pdl\drivers\peripheral\scb/cy_scb_common.h **** * SCB_I2C_CFG_SDA_IN_FILT_TRIM[1]: SCB clock enable (1), clock disable (0).
 478:Generated_Source\PSoC6\pdl\drivers\peripheral\scb/cy_scb_common.h **** */
 479:Generated_Source\PSoC6\pdl\drivers\peripheral\scb/cy_scb_common.h **** #define CY_SCB_I2C_CFG_CLK_ENABLE_Msk  (_VAL2FLD(SCB_I2C_CFG_SDA_IN_FILT_TRIM, 2UL))
 480:Generated_Source\PSoC6\pdl\drivers\peripheral\scb/cy_scb_common.h **** 
 481:Generated_Source\PSoC6\pdl\drivers\peripheral\scb/cy_scb_common.h **** /* I2C has fixed data width */
 482:Generated_Source\PSoC6\pdl\drivers\peripheral\scb/cy_scb_common.h **** #define CY_SCB_I2C_DATA_WIDTH   (7UL)
 483:Generated_Source\PSoC6\pdl\drivers\peripheral\scb/cy_scb_common.h **** 
 484:Generated_Source\PSoC6\pdl\drivers\peripheral\scb/cy_scb_common.h **** /* RX and TX control register values */
 485:Generated_Source\PSoC6\pdl\drivers\peripheral\scb/cy_scb_common.h **** #define CY_SCB_I2C_RX_CTRL      (_VAL2FLD(SCB_RX_CTRL_DATA_WIDTH, CY_SCB_I2C_DATA_WIDTH) | \
 486:Generated_Source\PSoC6\pdl\drivers\peripheral\scb/cy_scb_common.h ****                                  SCB_RX_CTRL_MSB_FIRST_Msk)
ARM GAS  C:\Users\ikomb\AppData\Local\Temp\cctq3ka9.s 			page 10


 487:Generated_Source\PSoC6\pdl\drivers\peripheral\scb/cy_scb_common.h **** #define CY_SCB_I2C_TX_CTRL      (_VAL2FLD(SCB_TX_CTRL_DATA_WIDTH, CY_SCB_I2C_DATA_WIDTH) | \
 488:Generated_Source\PSoC6\pdl\drivers\peripheral\scb/cy_scb_common.h ****                                  SCB_TX_CTRL_MSB_FIRST_Msk | SCB_TX_CTRL_OPEN_DRAIN_Msk)
 489:Generated_Source\PSoC6\pdl\drivers\peripheral\scb/cy_scb_common.h **** 
 490:Generated_Source\PSoC6\pdl\drivers\peripheral\scb/cy_scb_common.h **** /* The position and mask to make an address byte */
 491:Generated_Source\PSoC6\pdl\drivers\peripheral\scb/cy_scb_common.h **** #define CY_SCB_I2C_ADDRESS_Pos  (1UL)
 492:Generated_Source\PSoC6\pdl\drivers\peripheral\scb/cy_scb_common.h **** #define CY_SCB_I2C_ADDRESS_Msk  (0xFEUL)
 493:Generated_Source\PSoC6\pdl\drivers\peripheral\scb/cy_scb_common.h **** 
 494:Generated_Source\PSoC6\pdl\drivers\peripheral\scb/cy_scb_common.h **** /* SPI slave select polarity */
 495:Generated_Source\PSoC6\pdl\drivers\peripheral\scb/cy_scb_common.h **** #define CY_SCB_SPI_CTRL_SSEL_POLARITY_Pos   SCB_SPI_CTRL_SSEL_POLARITY0_Pos
 496:Generated_Source\PSoC6\pdl\drivers\peripheral\scb/cy_scb_common.h **** #define CY_SCB_SPI_CTRL_SSEL_POLARITY_Msk   (SCB_SPI_CTRL_SSEL_POLARITY0_Msk | \
 497:Generated_Source\PSoC6\pdl\drivers\peripheral\scb/cy_scb_common.h ****                                              SCB_SPI_CTRL_SSEL_POLARITY1_Msk | \
 498:Generated_Source\PSoC6\pdl\drivers\peripheral\scb/cy_scb_common.h ****                                              SCB_SPI_CTRL_SSEL_POLARITY2_Msk | \
 499:Generated_Source\PSoC6\pdl\drivers\peripheral\scb/cy_scb_common.h ****                                              SCB_SPI_CTRL_SSEL_POLARITY3_Msk)
 500:Generated_Source\PSoC6\pdl\drivers\peripheral\scb/cy_scb_common.h **** 
 501:Generated_Source\PSoC6\pdl\drivers\peripheral\scb/cy_scb_common.h **** /* SPI clock modes: CPHA and CPOL */
 502:Generated_Source\PSoC6\pdl\drivers\peripheral\scb/cy_scb_common.h **** #define CY_SCB_SPI_CTRL_CLK_MODE_Pos    SCB_SPI_CTRL_CPHA_Pos
 503:Generated_Source\PSoC6\pdl\drivers\peripheral\scb/cy_scb_common.h **** #define CY_SCB_SPI_CTRL_CLK_MODE_Msk    (SCB_SPI_CTRL_CPHA_Msk | SCB_SPI_CTRL_CPOL_Msk)
 504:Generated_Source\PSoC6\pdl\drivers\peripheral\scb/cy_scb_common.h **** 
 505:Generated_Source\PSoC6\pdl\drivers\peripheral\scb/cy_scb_common.h **** /* UART parity and parity enable combination */
 506:Generated_Source\PSoC6\pdl\drivers\peripheral\scb/cy_scb_common.h **** #define CY_SCB_UART_RX_CTRL_SET_PARITY_Msk      (SCB_UART_RX_CTRL_PARITY_ENABLED_Msk | \
 507:Generated_Source\PSoC6\pdl\drivers\peripheral\scb/cy_scb_common.h ****                                                  SCB_UART_RX_CTRL_PARITY_Msk)
 508:Generated_Source\PSoC6\pdl\drivers\peripheral\scb/cy_scb_common.h **** #define CY_SCB_UART_RX_CTRL_SET_PARITY_Pos      SCB_UART_RX_CTRL_PARITY_Pos
 509:Generated_Source\PSoC6\pdl\drivers\peripheral\scb/cy_scb_common.h **** 
 510:Generated_Source\PSoC6\pdl\drivers\peripheral\scb/cy_scb_common.h **** #define CY_SCB_UART_TX_CTRL_SET_PARITY_Msk      (SCB_UART_TX_CTRL_PARITY_ENABLED_Msk | \
 511:Generated_Source\PSoC6\pdl\drivers\peripheral\scb/cy_scb_common.h ****                                                  SCB_UART_TX_CTRL_PARITY_Msk)
 512:Generated_Source\PSoC6\pdl\drivers\peripheral\scb/cy_scb_common.h **** #define CY_SCB_UART_TX_CTRL_SET_PARITY_Pos      SCB_UART_TX_CTRL_PARITY_Pos
 513:Generated_Source\PSoC6\pdl\drivers\peripheral\scb/cy_scb_common.h **** 
 514:Generated_Source\PSoC6\pdl\drivers\peripheral\scb/cy_scb_common.h **** /* Max number of bits for byte mode */
 515:Generated_Source\PSoC6\pdl\drivers\peripheral\scb/cy_scb_common.h **** #define CY_SCB_BYTE_WIDTH   (8UL)
 516:Generated_Source\PSoC6\pdl\drivers\peripheral\scb/cy_scb_common.h **** 
 517:Generated_Source\PSoC6\pdl\drivers\peripheral\scb/cy_scb_common.h **** /* Single unit to wait */
 518:Generated_Source\PSoC6\pdl\drivers\peripheral\scb/cy_scb_common.h **** #define CY_SCB_WAIT_1_UNIT  (1U)
 519:Generated_Source\PSoC6\pdl\drivers\peripheral\scb/cy_scb_common.h **** 
 520:Generated_Source\PSoC6\pdl\drivers\peripheral\scb/cy_scb_common.h **** /* Clear interrupt sources */
 521:Generated_Source\PSoC6\pdl\drivers\peripheral\scb/cy_scb_common.h **** #define CY_SCB_CLEAR_ALL_INTR_SRC   (0UL)
 522:Generated_Source\PSoC6\pdl\drivers\peripheral\scb/cy_scb_common.h **** 
 523:Generated_Source\PSoC6\pdl\drivers\peripheral\scb/cy_scb_common.h **** /* Hardware FIFO size */
 524:Generated_Source\PSoC6\pdl\drivers\peripheral\scb/cy_scb_common.h **** #define CY_SCB_FIFO_SIZE(base)    (SCB_GET_EZ_DATA_NR(base) / 2UL)
 525:Generated_Source\PSoC6\pdl\drivers\peripheral\scb/cy_scb_common.h **** 
 526:Generated_Source\PSoC6\pdl\drivers\peripheral\scb/cy_scb_common.h **** /* Provides a list of allowed sources */
 527:Generated_Source\PSoC6\pdl\drivers\peripheral\scb/cy_scb_common.h **** #define CY_SCB_TX_INTR_MASK     (CY_SCB_TX_INTR_LEVEL     | CY_SCB_TX_INTR_NOT_FULL  | CY_SCB_TX_IN
 528:Generated_Source\PSoC6\pdl\drivers\peripheral\scb/cy_scb_common.h ****                                  CY_SCB_TX_INTR_OVERFLOW  | CY_SCB_TX_INTR_UNDERFLOW | CY_SCB_TX_IN
 529:Generated_Source\PSoC6\pdl\drivers\peripheral\scb/cy_scb_common.h ****                                  CY_SCB_TX_INTR_UART_NACK | CY_SCB_TX_INTR_UART_ARB_LOST)
 530:Generated_Source\PSoC6\pdl\drivers\peripheral\scb/cy_scb_common.h **** 
 531:Generated_Source\PSoC6\pdl\drivers\peripheral\scb/cy_scb_common.h **** #define CY_SCB_RX_INTR_MASK     (CY_SCB_RX_INTR_LEVEL             | CY_SCB_RX_INTR_NOT_EMPTY | CY_S
 532:Generated_Source\PSoC6\pdl\drivers\peripheral\scb/cy_scb_common.h ****                                  CY_SCB_RX_INTR_OVERFLOW          | CY_SCB_RX_INTR_UNDERFLOW       
 533:Generated_Source\PSoC6\pdl\drivers\peripheral\scb/cy_scb_common.h ****                                  CY_SCB_RX_INTR_UART_FRAME_ERROR  | CY_SCB_RX_INTR_UART_PARITY_ERRO
 534:Generated_Source\PSoC6\pdl\drivers\peripheral\scb/cy_scb_common.h ****                                  CY_SCB_RX_INTR_UART_BREAK_DETECT)
 535:Generated_Source\PSoC6\pdl\drivers\peripheral\scb/cy_scb_common.h **** 
 536:Generated_Source\PSoC6\pdl\drivers\peripheral\scb/cy_scb_common.h **** 
 537:Generated_Source\PSoC6\pdl\drivers\peripheral\scb/cy_scb_common.h **** #define CY_SCB_SLAVE_INTR_MASK  (CY_SCB_SLAVE_INTR_I2C_ARB_LOST   | CY_SCB_SLAVE_INTR_I2C_NACK | CY
 538:Generated_Source\PSoC6\pdl\drivers\peripheral\scb/cy_scb_common.h ****                                  CY_SCB_SLAVE_INTR_I2C_WRITE_STOP | CY_SCB_SLAVE_INTR_I2C_STOP | CY
 539:Generated_Source\PSoC6\pdl\drivers\peripheral\scb/cy_scb_common.h ****                                  CY_SCB_SLAVE_INTR_I2C_ADDR_MATCH | CY_SCB_SLAVE_INTR_I2C_GENERAL_A
 540:Generated_Source\PSoC6\pdl\drivers\peripheral\scb/cy_scb_common.h ****                                  CY_SCB_SLAVE_INTR_I2C_BUS_ERROR  | CY_SCB_SLAVE_INTR_SPI_BUS_ERROR
 541:Generated_Source\PSoC6\pdl\drivers\peripheral\scb/cy_scb_common.h **** 
 542:Generated_Source\PSoC6\pdl\drivers\peripheral\scb/cy_scb_common.h **** #define CY_SCB_MASTER_INTR_MASK (CY_SCB_MASTER_INTR_I2C_ARB_LOST  | CY_SCB_MASTER_INTR_I2C_NACK | \
 543:Generated_Source\PSoC6\pdl\drivers\peripheral\scb/cy_scb_common.h ****                                  CY_SCB_MASTER_INTR_I2C_ACK       | CY_SCB_MASTER_INTR_I2C_STOP | \
ARM GAS  C:\Users\ikomb\AppData\Local\Temp\cctq3ka9.s 			page 11


 544:Generated_Source\PSoC6\pdl\drivers\peripheral\scb/cy_scb_common.h ****                                  CY_SCB_MASTER_INTR_I2C_BUS_ERROR | CY_SCB_MASTER_INTR_SPI_DONE)
 545:Generated_Source\PSoC6\pdl\drivers\peripheral\scb/cy_scb_common.h **** 
 546:Generated_Source\PSoC6\pdl\drivers\peripheral\scb/cy_scb_common.h **** #define CY_SCB_I2C_INTR_MASK    CY_SCB_I2C_INTR_WAKEUP
 547:Generated_Source\PSoC6\pdl\drivers\peripheral\scb/cy_scb_common.h **** 
 548:Generated_Source\PSoC6\pdl\drivers\peripheral\scb/cy_scb_common.h **** #define CY_SCB_SPI_INTR_MASK    CY_SCB_SPI_INTR_WAKEUP
 549:Generated_Source\PSoC6\pdl\drivers\peripheral\scb/cy_scb_common.h **** 
 550:Generated_Source\PSoC6\pdl\drivers\peripheral\scb/cy_scb_common.h **** #define CY_SCB_IS_INTR_VALID(intr, mask)            ( 0UL == ((intr) & ((uint32_t) ~(mask))) )
 551:Generated_Source\PSoC6\pdl\drivers\peripheral\scb/cy_scb_common.h **** #define CY_SCB_IS_TRIGGER_LEVEL_VALID(base, level)  ((level) < Cy_SCB_GetFifoSize(base))
 552:Generated_Source\PSoC6\pdl\drivers\peripheral\scb/cy_scb_common.h **** 
 553:Generated_Source\PSoC6\pdl\drivers\peripheral\scb/cy_scb_common.h **** #define CY_SCB_IS_I2C_ADDR_VALID(addr)              ( (0U == ((addr) & 0x80U)) )
 554:Generated_Source\PSoC6\pdl\drivers\peripheral\scb/cy_scb_common.h **** #define CY_SCB_IS_BUFFER_VALID(buffer, size)        ( (NULL != (buffer)) && ((size) > 0UL) )
 555:Generated_Source\PSoC6\pdl\drivers\peripheral\scb/cy_scb_common.h **** #define CY_SCB_IS_I2C_BUFFER_VALID(buffer, size)    ( (0UL == (size)) ? true : (NULL != (buffer)) )
 556:Generated_Source\PSoC6\pdl\drivers\peripheral\scb/cy_scb_common.h **** /** \endcond */
 557:Generated_Source\PSoC6\pdl\drivers\peripheral\scb/cy_scb_common.h **** 
 558:Generated_Source\PSoC6\pdl\drivers\peripheral\scb/cy_scb_common.h **** /** \} group_scb_common_macros */
 559:Generated_Source\PSoC6\pdl\drivers\peripheral\scb/cy_scb_common.h **** 
 560:Generated_Source\PSoC6\pdl\drivers\peripheral\scb/cy_scb_common.h **** 
 561:Generated_Source\PSoC6\pdl\drivers\peripheral\scb/cy_scb_common.h **** /***************************************
 562:Generated_Source\PSoC6\pdl\drivers\peripheral\scb/cy_scb_common.h **** * Inline Function Implementation
 563:Generated_Source\PSoC6\pdl\drivers\peripheral\scb/cy_scb_common.h **** ***************************************/
 564:Generated_Source\PSoC6\pdl\drivers\peripheral\scb/cy_scb_common.h **** 
 565:Generated_Source\PSoC6\pdl\drivers\peripheral\scb/cy_scb_common.h **** /**
 566:Generated_Source\PSoC6\pdl\drivers\peripheral\scb/cy_scb_common.h **** * \addtogroup group_scb_common_functions
 567:Generated_Source\PSoC6\pdl\drivers\peripheral\scb/cy_scb_common.h **** * \{
 568:Generated_Source\PSoC6\pdl\drivers\peripheral\scb/cy_scb_common.h **** */
 569:Generated_Source\PSoC6\pdl\drivers\peripheral\scb/cy_scb_common.h **** 
 570:Generated_Source\PSoC6\pdl\drivers\peripheral\scb/cy_scb_common.h **** /*******************************************************************************
 571:Generated_Source\PSoC6\pdl\drivers\peripheral\scb/cy_scb_common.h **** * Function Name: Cy_SCB_ReadRxFifo
 572:Generated_Source\PSoC6\pdl\drivers\peripheral\scb/cy_scb_common.h **** ****************************************************************************//**
 573:Generated_Source\PSoC6\pdl\drivers\peripheral\scb/cy_scb_common.h **** *
 574:Generated_Source\PSoC6\pdl\drivers\peripheral\scb/cy_scb_common.h **** * Reads a data element directly out of the RX FIFO.
 575:Generated_Source\PSoC6\pdl\drivers\peripheral\scb/cy_scb_common.h **** * This function does not check whether the RX FIFO has data before reading it.
 576:Generated_Source\PSoC6\pdl\drivers\peripheral\scb/cy_scb_common.h **** *
 577:Generated_Source\PSoC6\pdl\drivers\peripheral\scb/cy_scb_common.h **** * \param base
 578:Generated_Source\PSoC6\pdl\drivers\peripheral\scb/cy_scb_common.h **** * The pointer to the SCB instance.
 579:Generated_Source\PSoC6\pdl\drivers\peripheral\scb/cy_scb_common.h **** *
 580:Generated_Source\PSoC6\pdl\drivers\peripheral\scb/cy_scb_common.h **** * \return
 581:Generated_Source\PSoC6\pdl\drivers\peripheral\scb/cy_scb_common.h **** * Data from RX FIFO.
 582:Generated_Source\PSoC6\pdl\drivers\peripheral\scb/cy_scb_common.h **** *
 583:Generated_Source\PSoC6\pdl\drivers\peripheral\scb/cy_scb_common.h **** *******************************************************************************/
 584:Generated_Source\PSoC6\pdl\drivers\peripheral\scb/cy_scb_common.h **** __STATIC_INLINE uint32_t Cy_SCB_ReadRxFifo(CySCB_Type const *base)
 585:Generated_Source\PSoC6\pdl\drivers\peripheral\scb/cy_scb_common.h **** {
  28              		.loc 1 585 0
  29              		.cfi_startproc
  30              		@ args = 0, pretend = 0, frame = 8
  31              		@ frame_needed = 1, uses_anonymous_args = 0
  32              		@ link register save eliminated.
  33 0000 80B4     		push	{r7}
  34              		.cfi_def_cfa_offset 4
  35              		.cfi_offset 7, -4
  36 0002 83B0     		sub	sp, sp, #12
  37              		.cfi_def_cfa_offset 16
  38 0004 00AF     		add	r7, sp, #0
  39              		.cfi_def_cfa_register 7
  40 0006 7860     		str	r0, [r7, #4]
 586:Generated_Source\PSoC6\pdl\drivers\peripheral\scb/cy_scb_common.h ****     return (base->RX_FIFO_RD);
  41              		.loc 1 586 0
ARM GAS  C:\Users\ikomb\AppData\Local\Temp\cctq3ka9.s 			page 12


  42 0008 7B68     		ldr	r3, [r7, #4]
  43 000a D3F84033 		ldr	r3, [r3, #832]
 587:Generated_Source\PSoC6\pdl\drivers\peripheral\scb/cy_scb_common.h **** }
  44              		.loc 1 587 0
  45 000e 1846     		mov	r0, r3
  46 0010 0C37     		adds	r7, r7, #12
  47              		.cfi_def_cfa_offset 4
  48 0012 BD46     		mov	sp, r7
  49              		.cfi_def_cfa_register 13
  50              		@ sp needed
  51 0014 5DF8047B 		ldr	r7, [sp], #4
  52              		.cfi_restore 7
  53              		.cfi_def_cfa_offset 0
  54 0018 7047     		bx	lr
  55              		.cfi_endproc
  56              	.LFE158:
  57              		.size	Cy_SCB_ReadRxFifo, .-Cy_SCB_ReadRxFifo
  58 001a 00BF     		.section	.rodata
  59              		.align	2
  60              	.LC0:
  61 0000 47656E65 		.ascii	"Generated_Source\\PSoC6\\pdl\\drivers\\peripheral\\"
  61      72617465 
  61      645F536F 
  61      75726365 
  61      5C50536F 
  62 002e 7363625C 		.ascii	"scb\\cy_scb_common.h\000"
  62      63795F73 
  62      63625F63 
  62      6F6D6D6F 
  62      6E2E6800 
  63              		.section	.text.Cy_SCB_SetRxFifoLevel,"ax",%progbits
  64              		.align	2
  65              		.thumb
  66              		.thumb_func
  67              		.type	Cy_SCB_SetRxFifoLevel, %function
  68              	Cy_SCB_SetRxFifoLevel:
  69              	.LFB159:
 588:Generated_Source\PSoC6\pdl\drivers\peripheral\scb/cy_scb_common.h **** 
 589:Generated_Source\PSoC6\pdl\drivers\peripheral\scb/cy_scb_common.h **** /*******************************************************************************
 590:Generated_Source\PSoC6\pdl\drivers\peripheral\scb/cy_scb_common.h **** * Function Name: Cy_SCB_SetRxFifoLevel
 591:Generated_Source\PSoC6\pdl\drivers\peripheral\scb/cy_scb_common.h **** ****************************************************************************//**
 592:Generated_Source\PSoC6\pdl\drivers\peripheral\scb/cy_scb_common.h **** *
 593:Generated_Source\PSoC6\pdl\drivers\peripheral\scb/cy_scb_common.h **** * Sets the RX FIFO level. When there are more data elements in the RX FIFO than
 594:Generated_Source\PSoC6\pdl\drivers\peripheral\scb/cy_scb_common.h **** * this level, the RX FIFO level interrupt is triggered.
 595:Generated_Source\PSoC6\pdl\drivers\peripheral\scb/cy_scb_common.h **** *
 596:Generated_Source\PSoC6\pdl\drivers\peripheral\scb/cy_scb_common.h **** * \param base
 597:Generated_Source\PSoC6\pdl\drivers\peripheral\scb/cy_scb_common.h **** * The pointer to the SCB instance.
 598:Generated_Source\PSoC6\pdl\drivers\peripheral\scb/cy_scb_common.h **** *
 599:Generated_Source\PSoC6\pdl\drivers\peripheral\scb/cy_scb_common.h **** * \param level
 600:Generated_Source\PSoC6\pdl\drivers\peripheral\scb/cy_scb_common.h **** * When there are more data elements in the FIFO than this level, the RX level
 601:Generated_Source\PSoC6\pdl\drivers\peripheral\scb/cy_scb_common.h **** * interrupt is triggered.
 602:Generated_Source\PSoC6\pdl\drivers\peripheral\scb/cy_scb_common.h **** *
 603:Generated_Source\PSoC6\pdl\drivers\peripheral\scb/cy_scb_common.h **** *******************************************************************************/
 604:Generated_Source\PSoC6\pdl\drivers\peripheral\scb/cy_scb_common.h **** __STATIC_INLINE void Cy_SCB_SetRxFifoLevel(CySCB_Type *base, uint32_t level)
 605:Generated_Source\PSoC6\pdl\drivers\peripheral\scb/cy_scb_common.h **** {
  70              		.loc 1 605 0
  71              		.cfi_startproc
ARM GAS  C:\Users\ikomb\AppData\Local\Temp\cctq3ka9.s 			page 13


  72              		@ args = 0, pretend = 0, frame = 8
  73              		@ frame_needed = 1, uses_anonymous_args = 0
  74 0000 80B5     		push	{r7, lr}
  75              		.cfi_def_cfa_offset 8
  76              		.cfi_offset 7, -8
  77              		.cfi_offset 14, -4
  78 0002 82B0     		sub	sp, sp, #8
  79              		.cfi_def_cfa_offset 16
  80 0004 00AF     		add	r7, sp, #0
  81              		.cfi_def_cfa_register 7
  82 0006 7860     		str	r0, [r7, #4]
  83 0008 3960     		str	r1, [r7]
 606:Generated_Source\PSoC6\pdl\drivers\peripheral\scb/cy_scb_common.h ****     CY_ASSERT_L2(CY_SCB_IS_TRIGGER_LEVEL_VALID(base, level));
  84              		.loc 1 606 0
  85 000a 7868     		ldr	r0, [r7, #4]
  86 000c FFF7FEFF 		bl	Cy_SCB_GetFifoSize
  87 0010 0246     		mov	r2, r0
  88 0012 3B68     		ldr	r3, [r7]
  89 0014 9A42     		cmp	r2, r3
  90 0016 04D8     		bhi	.L4
  91              		.loc 1 606 0 is_stmt 0 discriminator 1
  92 0018 40F25E21 		movw	r1, #606
  93 001c 0848     		ldr	r0, .L5
  94 001e FFF7FEFF 		bl	Cy_SysLib_AssertFailed
  95              	.L4:
 607:Generated_Source\PSoC6\pdl\drivers\peripheral\scb/cy_scb_common.h **** 
 608:Generated_Source\PSoC6\pdl\drivers\peripheral\scb/cy_scb_common.h ****     base->RX_FIFO_CTRL = _CLR_SET_FLD32U(base->RX_FIFO_CTRL, SCB_RX_FIFO_CTRL_TRIGGER_LEVEL, level)
  96              		.loc 1 608 0 is_stmt 1
  97 0022 7B68     		ldr	r3, [r7, #4]
  98 0024 D3F80433 		ldr	r3, [r3, #772]
  99 0028 23F0FF02 		bic	r2, r3, #255
 100 002c 3B68     		ldr	r3, [r7]
 101 002e DBB2     		uxtb	r3, r3
 102 0030 1A43     		orrs	r2, r2, r3
 103 0032 7B68     		ldr	r3, [r7, #4]
 104 0034 C3F80423 		str	r2, [r3, #772]
 609:Generated_Source\PSoC6\pdl\drivers\peripheral\scb/cy_scb_common.h **** }
 105              		.loc 1 609 0
 106 0038 00BF     		nop
 107 003a 0837     		adds	r7, r7, #8
 108              		.cfi_def_cfa_offset 8
 109 003c BD46     		mov	sp, r7
 110              		.cfi_def_cfa_register 13
 111              		@ sp needed
 112 003e 80BD     		pop	{r7, pc}
 113              	.L6:
 114              		.align	2
 115              	.L5:
 116 0040 00000000 		.word	.LC0
 117              		.cfi_endproc
 118              	.LFE159:
 119              		.size	Cy_SCB_SetRxFifoLevel, .-Cy_SCB_SetRxFifoLevel
 120              		.section	.text.Cy_SCB_GetNumInRxFifo,"ax",%progbits
 121              		.align	2
 122              		.thumb
 123              		.thumb_func
 124              		.type	Cy_SCB_GetNumInRxFifo, %function
ARM GAS  C:\Users\ikomb\AppData\Local\Temp\cctq3ka9.s 			page 14


 125              	Cy_SCB_GetNumInRxFifo:
 126              	.LFB160:
 610:Generated_Source\PSoC6\pdl\drivers\peripheral\scb/cy_scb_common.h **** 
 611:Generated_Source\PSoC6\pdl\drivers\peripheral\scb/cy_scb_common.h **** 
 612:Generated_Source\PSoC6\pdl\drivers\peripheral\scb/cy_scb_common.h **** /*******************************************************************************
 613:Generated_Source\PSoC6\pdl\drivers\peripheral\scb/cy_scb_common.h **** * Function Name: Cy_SCB_GetNumInRxFifo
 614:Generated_Source\PSoC6\pdl\drivers\peripheral\scb/cy_scb_common.h **** ****************************************************************************//**
 615:Generated_Source\PSoC6\pdl\drivers\peripheral\scb/cy_scb_common.h **** *
 616:Generated_Source\PSoC6\pdl\drivers\peripheral\scb/cy_scb_common.h **** * Returns the number of data elements currently in the RX FIFO.
 617:Generated_Source\PSoC6\pdl\drivers\peripheral\scb/cy_scb_common.h **** *
 618:Generated_Source\PSoC6\pdl\drivers\peripheral\scb/cy_scb_common.h **** * \param base
 619:Generated_Source\PSoC6\pdl\drivers\peripheral\scb/cy_scb_common.h **** * The pointer to the SCB instance.
 620:Generated_Source\PSoC6\pdl\drivers\peripheral\scb/cy_scb_common.h **** *
 621:Generated_Source\PSoC6\pdl\drivers\peripheral\scb/cy_scb_common.h **** * \return
 622:Generated_Source\PSoC6\pdl\drivers\peripheral\scb/cy_scb_common.h **** * The number or data elements in RX FIFO.
 623:Generated_Source\PSoC6\pdl\drivers\peripheral\scb/cy_scb_common.h **** *
 624:Generated_Source\PSoC6\pdl\drivers\peripheral\scb/cy_scb_common.h **** *******************************************************************************/
 625:Generated_Source\PSoC6\pdl\drivers\peripheral\scb/cy_scb_common.h **** __STATIC_INLINE uint32_t Cy_SCB_GetNumInRxFifo(CySCB_Type const *base)
 626:Generated_Source\PSoC6\pdl\drivers\peripheral\scb/cy_scb_common.h **** {
 127              		.loc 1 626 0
 128              		.cfi_startproc
 129              		@ args = 0, pretend = 0, frame = 8
 130              		@ frame_needed = 1, uses_anonymous_args = 0
 131              		@ link register save eliminated.
 132 0000 80B4     		push	{r7}
 133              		.cfi_def_cfa_offset 4
 134              		.cfi_offset 7, -4
 135 0002 83B0     		sub	sp, sp, #12
 136              		.cfi_def_cfa_offset 16
 137 0004 00AF     		add	r7, sp, #0
 138              		.cfi_def_cfa_register 7
 139 0006 7860     		str	r0, [r7, #4]
 627:Generated_Source\PSoC6\pdl\drivers\peripheral\scb/cy_scb_common.h ****     return _FLD2VAL(SCB_RX_FIFO_STATUS_USED, base->RX_FIFO_STATUS);
 140              		.loc 1 627 0
 141 0008 7B68     		ldr	r3, [r7, #4]
 142 000a D3F80833 		ldr	r3, [r3, #776]
 143 000e C3F30803 		ubfx	r3, r3, #0, #9
 628:Generated_Source\PSoC6\pdl\drivers\peripheral\scb/cy_scb_common.h **** }
 144              		.loc 1 628 0
 145 0012 1846     		mov	r0, r3
 146 0014 0C37     		adds	r7, r7, #12
 147              		.cfi_def_cfa_offset 4
 148 0016 BD46     		mov	sp, r7
 149              		.cfi_def_cfa_register 13
 150              		@ sp needed
 151 0018 5DF8047B 		ldr	r7, [sp], #4
 152              		.cfi_restore 7
 153              		.cfi_def_cfa_offset 0
 154 001c 7047     		bx	lr
 155              		.cfi_endproc
 156              	.LFE160:
 157              		.size	Cy_SCB_GetNumInRxFifo, .-Cy_SCB_GetNumInRxFifo
 158 001e 00BF     		.section	.text.Cy_SCB_WriteTxFifo,"ax",%progbits
 159              		.align	2
 160              		.thumb
 161              		.thumb_func
 162              		.type	Cy_SCB_WriteTxFifo, %function
ARM GAS  C:\Users\ikomb\AppData\Local\Temp\cctq3ka9.s 			page 15


 163              	Cy_SCB_WriteTxFifo:
 164              	.LFB163:
 629:Generated_Source\PSoC6\pdl\drivers\peripheral\scb/cy_scb_common.h **** 
 630:Generated_Source\PSoC6\pdl\drivers\peripheral\scb/cy_scb_common.h **** 
 631:Generated_Source\PSoC6\pdl\drivers\peripheral\scb/cy_scb_common.h **** /*******************************************************************************
 632:Generated_Source\PSoC6\pdl\drivers\peripheral\scb/cy_scb_common.h **** * Function Name: Cy_SCB_GetRxSrValid
 633:Generated_Source\PSoC6\pdl\drivers\peripheral\scb/cy_scb_common.h **** ****************************************************************************//**
 634:Generated_Source\PSoC6\pdl\drivers\peripheral\scb/cy_scb_common.h **** *
 635:Generated_Source\PSoC6\pdl\drivers\peripheral\scb/cy_scb_common.h **** * Returns the status of the RX FIFO Shift Register valid bit.
 636:Generated_Source\PSoC6\pdl\drivers\peripheral\scb/cy_scb_common.h **** *
 637:Generated_Source\PSoC6\pdl\drivers\peripheral\scb/cy_scb_common.h **** * \param base
 638:Generated_Source\PSoC6\pdl\drivers\peripheral\scb/cy_scb_common.h **** * The pointer to the SCB instance.
 639:Generated_Source\PSoC6\pdl\drivers\peripheral\scb/cy_scb_common.h **** *
 640:Generated_Source\PSoC6\pdl\drivers\peripheral\scb/cy_scb_common.h **** * \return
 641:Generated_Source\PSoC6\pdl\drivers\peripheral\scb/cy_scb_common.h **** * 1 - RX shift register valid; 0 - RX shift register not valid.
 642:Generated_Source\PSoC6\pdl\drivers\peripheral\scb/cy_scb_common.h **** *
 643:Generated_Source\PSoC6\pdl\drivers\peripheral\scb/cy_scb_common.h **** *******************************************************************************/
 644:Generated_Source\PSoC6\pdl\drivers\peripheral\scb/cy_scb_common.h **** __STATIC_INLINE uint32_t Cy_SCB_GetRxSrValid(CySCB_Type const *base)
 645:Generated_Source\PSoC6\pdl\drivers\peripheral\scb/cy_scb_common.h **** {
 646:Generated_Source\PSoC6\pdl\drivers\peripheral\scb/cy_scb_common.h ****     return _FLD2VAL(SCB_RX_FIFO_STATUS_SR_VALID, base->RX_FIFO_STATUS);
 647:Generated_Source\PSoC6\pdl\drivers\peripheral\scb/cy_scb_common.h **** }
 648:Generated_Source\PSoC6\pdl\drivers\peripheral\scb/cy_scb_common.h **** 
 649:Generated_Source\PSoC6\pdl\drivers\peripheral\scb/cy_scb_common.h **** 
 650:Generated_Source\PSoC6\pdl\drivers\peripheral\scb/cy_scb_common.h **** /*******************************************************************************
 651:Generated_Source\PSoC6\pdl\drivers\peripheral\scb/cy_scb_common.h **** * Function Name: Cy_SCB_ClearRxFifo
 652:Generated_Source\PSoC6\pdl\drivers\peripheral\scb/cy_scb_common.h **** ****************************************************************************//**
 653:Generated_Source\PSoC6\pdl\drivers\peripheral\scb/cy_scb_common.h **** *
 654:Generated_Source\PSoC6\pdl\drivers\peripheral\scb/cy_scb_common.h **** * Clears the RX FIFO and shifter.
 655:Generated_Source\PSoC6\pdl\drivers\peripheral\scb/cy_scb_common.h **** *
 656:Generated_Source\PSoC6\pdl\drivers\peripheral\scb/cy_scb_common.h **** * \param base
 657:Generated_Source\PSoC6\pdl\drivers\peripheral\scb/cy_scb_common.h **** * The pointer to the SCB instance.
 658:Generated_Source\PSoC6\pdl\drivers\peripheral\scb/cy_scb_common.h **** *
 659:Generated_Source\PSoC6\pdl\drivers\peripheral\scb/cy_scb_common.h **** * \note
 660:Generated_Source\PSoC6\pdl\drivers\peripheral\scb/cy_scb_common.h **** * If there is partial data in the shifter, it is cleared and lost.
 661:Generated_Source\PSoC6\pdl\drivers\peripheral\scb/cy_scb_common.h **** *
 662:Generated_Source\PSoC6\pdl\drivers\peripheral\scb/cy_scb_common.h **** *******************************************************************************/
 663:Generated_Source\PSoC6\pdl\drivers\peripheral\scb/cy_scb_common.h **** __STATIC_INLINE void Cy_SCB_ClearRxFifo(CySCB_Type* base)
 664:Generated_Source\PSoC6\pdl\drivers\peripheral\scb/cy_scb_common.h **** {
 665:Generated_Source\PSoC6\pdl\drivers\peripheral\scb/cy_scb_common.h ****     base->RX_FIFO_CTRL |= (uint32_t)  SCB_RX_FIFO_CTRL_CLEAR_Msk;
 666:Generated_Source\PSoC6\pdl\drivers\peripheral\scb/cy_scb_common.h ****     base->RX_FIFO_CTRL &= (uint32_t) ~SCB_RX_FIFO_CTRL_CLEAR_Msk;
 667:Generated_Source\PSoC6\pdl\drivers\peripheral\scb/cy_scb_common.h **** 
 668:Generated_Source\PSoC6\pdl\drivers\peripheral\scb/cy_scb_common.h ****     (void) base->RX_FIFO_CTRL;
 669:Generated_Source\PSoC6\pdl\drivers\peripheral\scb/cy_scb_common.h **** }
 670:Generated_Source\PSoC6\pdl\drivers\peripheral\scb/cy_scb_common.h **** 
 671:Generated_Source\PSoC6\pdl\drivers\peripheral\scb/cy_scb_common.h **** 
 672:Generated_Source\PSoC6\pdl\drivers\peripheral\scb/cy_scb_common.h **** /*******************************************************************************
 673:Generated_Source\PSoC6\pdl\drivers\peripheral\scb/cy_scb_common.h **** * Function Name: Cy_SCB_WriteTxFifo
 674:Generated_Source\PSoC6\pdl\drivers\peripheral\scb/cy_scb_common.h **** ****************************************************************************//**
 675:Generated_Source\PSoC6\pdl\drivers\peripheral\scb/cy_scb_common.h **** *
 676:Generated_Source\PSoC6\pdl\drivers\peripheral\scb/cy_scb_common.h **** * Writes data directly into the TX FIFO.
 677:Generated_Source\PSoC6\pdl\drivers\peripheral\scb/cy_scb_common.h **** * This function does not check whether the TX FIFO is not full before writing
 678:Generated_Source\PSoC6\pdl\drivers\peripheral\scb/cy_scb_common.h **** * into it.
 679:Generated_Source\PSoC6\pdl\drivers\peripheral\scb/cy_scb_common.h **** *
 680:Generated_Source\PSoC6\pdl\drivers\peripheral\scb/cy_scb_common.h **** * \param base
 681:Generated_Source\PSoC6\pdl\drivers\peripheral\scb/cy_scb_common.h **** * The pointer to the SCB instance.
 682:Generated_Source\PSoC6\pdl\drivers\peripheral\scb/cy_scb_common.h **** *
 683:Generated_Source\PSoC6\pdl\drivers\peripheral\scb/cy_scb_common.h **** * \param data
ARM GAS  C:\Users\ikomb\AppData\Local\Temp\cctq3ka9.s 			page 16


 684:Generated_Source\PSoC6\pdl\drivers\peripheral\scb/cy_scb_common.h **** * Data to write to the TX FIFO.
 685:Generated_Source\PSoC6\pdl\drivers\peripheral\scb/cy_scb_common.h **** *
 686:Generated_Source\PSoC6\pdl\drivers\peripheral\scb/cy_scb_common.h **** *******************************************************************************/
 687:Generated_Source\PSoC6\pdl\drivers\peripheral\scb/cy_scb_common.h **** __STATIC_INLINE void Cy_SCB_WriteTxFifo(CySCB_Type* base, uint32_t data)
 688:Generated_Source\PSoC6\pdl\drivers\peripheral\scb/cy_scb_common.h **** {
 165              		.loc 1 688 0
 166              		.cfi_startproc
 167              		@ args = 0, pretend = 0, frame = 8
 168              		@ frame_needed = 1, uses_anonymous_args = 0
 169              		@ link register save eliminated.
 170 0000 80B4     		push	{r7}
 171              		.cfi_def_cfa_offset 4
 172              		.cfi_offset 7, -4
 173 0002 83B0     		sub	sp, sp, #12
 174              		.cfi_def_cfa_offset 16
 175 0004 00AF     		add	r7, sp, #0
 176              		.cfi_def_cfa_register 7
 177 0006 7860     		str	r0, [r7, #4]
 178 0008 3960     		str	r1, [r7]
 689:Generated_Source\PSoC6\pdl\drivers\peripheral\scb/cy_scb_common.h ****     base->TX_FIFO_WR = data;
 179              		.loc 1 689 0
 180 000a 7B68     		ldr	r3, [r7, #4]
 181 000c 3A68     		ldr	r2, [r7]
 182 000e C3F84022 		str	r2, [r3, #576]
 690:Generated_Source\PSoC6\pdl\drivers\peripheral\scb/cy_scb_common.h **** }
 183              		.loc 1 690 0
 184 0012 00BF     		nop
 185 0014 0C37     		adds	r7, r7, #12
 186              		.cfi_def_cfa_offset 4
 187 0016 BD46     		mov	sp, r7
 188              		.cfi_def_cfa_register 13
 189              		@ sp needed
 190 0018 5DF8047B 		ldr	r7, [sp], #4
 191              		.cfi_restore 7
 192              		.cfi_def_cfa_offset 0
 193 001c 7047     		bx	lr
 194              		.cfi_endproc
 195              	.LFE163:
 196              		.size	Cy_SCB_WriteTxFifo, .-Cy_SCB_WriteTxFifo
 197 001e 00BF     		.section	.text.Cy_SCB_SetTxFifoLevel,"ax",%progbits
 198              		.align	2
 199              		.thumb
 200              		.thumb_func
 201              		.type	Cy_SCB_SetTxFifoLevel, %function
 202              	Cy_SCB_SetTxFifoLevel:
 203              	.LFB164:
 691:Generated_Source\PSoC6\pdl\drivers\peripheral\scb/cy_scb_common.h **** 
 692:Generated_Source\PSoC6\pdl\drivers\peripheral\scb/cy_scb_common.h **** 
 693:Generated_Source\PSoC6\pdl\drivers\peripheral\scb/cy_scb_common.h **** /*******************************************************************************
 694:Generated_Source\PSoC6\pdl\drivers\peripheral\scb/cy_scb_common.h **** * Function Name: Cy_SCB_SetTxFifoLevel
 695:Generated_Source\PSoC6\pdl\drivers\peripheral\scb/cy_scb_common.h **** ****************************************************************************//**
 696:Generated_Source\PSoC6\pdl\drivers\peripheral\scb/cy_scb_common.h **** *
 697:Generated_Source\PSoC6\pdl\drivers\peripheral\scb/cy_scb_common.h **** * Sets the TX FIFO level. When there are fewer data elements in the TX FIFO than
 698:Generated_Source\PSoC6\pdl\drivers\peripheral\scb/cy_scb_common.h **** * this level, the TX FIFO level interrupt is triggered.
 699:Generated_Source\PSoC6\pdl\drivers\peripheral\scb/cy_scb_common.h **** *
 700:Generated_Source\PSoC6\pdl\drivers\peripheral\scb/cy_scb_common.h **** * \param base
 701:Generated_Source\PSoC6\pdl\drivers\peripheral\scb/cy_scb_common.h **** * The pointer to the SCB instance.
ARM GAS  C:\Users\ikomb\AppData\Local\Temp\cctq3ka9.s 			page 17


 702:Generated_Source\PSoC6\pdl\drivers\peripheral\scb/cy_scb_common.h **** *
 703:Generated_Source\PSoC6\pdl\drivers\peripheral\scb/cy_scb_common.h **** * \param level
 704:Generated_Source\PSoC6\pdl\drivers\peripheral\scb/cy_scb_common.h **** * When there are fewer data elements in the FIFO than this level, the TX level
 705:Generated_Source\PSoC6\pdl\drivers\peripheral\scb/cy_scb_common.h **** * interrupt is triggered.
 706:Generated_Source\PSoC6\pdl\drivers\peripheral\scb/cy_scb_common.h **** *
 707:Generated_Source\PSoC6\pdl\drivers\peripheral\scb/cy_scb_common.h **** *******************************************************************************/
 708:Generated_Source\PSoC6\pdl\drivers\peripheral\scb/cy_scb_common.h **** __STATIC_INLINE void Cy_SCB_SetTxFifoLevel(CySCB_Type *base, uint32_t level)
 709:Generated_Source\PSoC6\pdl\drivers\peripheral\scb/cy_scb_common.h **** {
 204              		.loc 1 709 0
 205              		.cfi_startproc
 206              		@ args = 0, pretend = 0, frame = 8
 207              		@ frame_needed = 1, uses_anonymous_args = 0
 208 0000 80B5     		push	{r7, lr}
 209              		.cfi_def_cfa_offset 8
 210              		.cfi_offset 7, -8
 211              		.cfi_offset 14, -4
 212 0002 82B0     		sub	sp, sp, #8
 213              		.cfi_def_cfa_offset 16
 214 0004 00AF     		add	r7, sp, #0
 215              		.cfi_def_cfa_register 7
 216 0006 7860     		str	r0, [r7, #4]
 217 0008 3960     		str	r1, [r7]
 710:Generated_Source\PSoC6\pdl\drivers\peripheral\scb/cy_scb_common.h ****     CY_ASSERT_L2(CY_SCB_IS_TRIGGER_LEVEL_VALID(base, level));
 218              		.loc 1 710 0
 219 000a 7868     		ldr	r0, [r7, #4]
 220 000c FFF7FEFF 		bl	Cy_SCB_GetFifoSize
 221 0010 0246     		mov	r2, r0
 222 0012 3B68     		ldr	r3, [r7]
 223 0014 9A42     		cmp	r2, r3
 224 0016 04D8     		bhi	.L11
 225              		.loc 1 710 0 is_stmt 0 discriminator 1
 226 0018 40F2C621 		movw	r1, #710
 227 001c 0848     		ldr	r0, .L12
 228 001e FFF7FEFF 		bl	Cy_SysLib_AssertFailed
 229              	.L11:
 711:Generated_Source\PSoC6\pdl\drivers\peripheral\scb/cy_scb_common.h **** 
 712:Generated_Source\PSoC6\pdl\drivers\peripheral\scb/cy_scb_common.h ****     base->TX_FIFO_CTRL = _CLR_SET_FLD32U(base->TX_FIFO_CTRL, SCB_TX_FIFO_CTRL_TRIGGER_LEVEL, level)
 230              		.loc 1 712 0 is_stmt 1
 231 0022 7B68     		ldr	r3, [r7, #4]
 232 0024 D3F80432 		ldr	r3, [r3, #516]
 233 0028 23F0FF02 		bic	r2, r3, #255
 234 002c 3B68     		ldr	r3, [r7]
 235 002e DBB2     		uxtb	r3, r3
 236 0030 1A43     		orrs	r2, r2, r3
 237 0032 7B68     		ldr	r3, [r7, #4]
 238 0034 C3F80422 		str	r2, [r3, #516]
 713:Generated_Source\PSoC6\pdl\drivers\peripheral\scb/cy_scb_common.h **** }
 239              		.loc 1 713 0
 240 0038 00BF     		nop
 241 003a 0837     		adds	r7, r7, #8
 242              		.cfi_def_cfa_offset 8
 243 003c BD46     		mov	sp, r7
 244              		.cfi_def_cfa_register 13
 245              		@ sp needed
 246 003e 80BD     		pop	{r7, pc}
 247              	.L13:
 248              		.align	2
ARM GAS  C:\Users\ikomb\AppData\Local\Temp\cctq3ka9.s 			page 18


 249              	.L12:
 250 0040 00000000 		.word	.LC0
 251              		.cfi_endproc
 252              	.LFE164:
 253              		.size	Cy_SCB_SetTxFifoLevel, .-Cy_SCB_SetTxFifoLevel
 254              		.section	.text.Cy_SCB_GetNumInTxFifo,"ax",%progbits
 255              		.align	2
 256              		.thumb
 257              		.thumb_func
 258              		.type	Cy_SCB_GetNumInTxFifo, %function
 259              	Cy_SCB_GetNumInTxFifo:
 260              	.LFB165:
 714:Generated_Source\PSoC6\pdl\drivers\peripheral\scb/cy_scb_common.h **** 
 715:Generated_Source\PSoC6\pdl\drivers\peripheral\scb/cy_scb_common.h **** 
 716:Generated_Source\PSoC6\pdl\drivers\peripheral\scb/cy_scb_common.h **** /*******************************************************************************
 717:Generated_Source\PSoC6\pdl\drivers\peripheral\scb/cy_scb_common.h **** * Function Name: Cy_SCB_GetNumInTxFifo
 718:Generated_Source\PSoC6\pdl\drivers\peripheral\scb/cy_scb_common.h **** ****************************************************************************//**
 719:Generated_Source\PSoC6\pdl\drivers\peripheral\scb/cy_scb_common.h **** *
 720:Generated_Source\PSoC6\pdl\drivers\peripheral\scb/cy_scb_common.h **** * Returns the number of data elements currently in the TX FIFO.
 721:Generated_Source\PSoC6\pdl\drivers\peripheral\scb/cy_scb_common.h **** *
 722:Generated_Source\PSoC6\pdl\drivers\peripheral\scb/cy_scb_common.h **** * \param base
 723:Generated_Source\PSoC6\pdl\drivers\peripheral\scb/cy_scb_common.h **** * The pointer to the SCB instance.
 724:Generated_Source\PSoC6\pdl\drivers\peripheral\scb/cy_scb_common.h **** *
 725:Generated_Source\PSoC6\pdl\drivers\peripheral\scb/cy_scb_common.h **** * \return
 726:Generated_Source\PSoC6\pdl\drivers\peripheral\scb/cy_scb_common.h **** * The number or data elements in the TX FIFO.
 727:Generated_Source\PSoC6\pdl\drivers\peripheral\scb/cy_scb_common.h **** *
 728:Generated_Source\PSoC6\pdl\drivers\peripheral\scb/cy_scb_common.h **** *******************************************************************************/
 729:Generated_Source\PSoC6\pdl\drivers\peripheral\scb/cy_scb_common.h **** __STATIC_INLINE uint32_t Cy_SCB_GetNumInTxFifo(CySCB_Type const *base)
 730:Generated_Source\PSoC6\pdl\drivers\peripheral\scb/cy_scb_common.h **** {
 261              		.loc 1 730 0
 262              		.cfi_startproc
 263              		@ args = 0, pretend = 0, frame = 8
 264              		@ frame_needed = 1, uses_anonymous_args = 0
 265              		@ link register save eliminated.
 266 0000 80B4     		push	{r7}
 267              		.cfi_def_cfa_offset 4
 268              		.cfi_offset 7, -4
 269 0002 83B0     		sub	sp, sp, #12
 270              		.cfi_def_cfa_offset 16
 271 0004 00AF     		add	r7, sp, #0
 272              		.cfi_def_cfa_register 7
 273 0006 7860     		str	r0, [r7, #4]
 731:Generated_Source\PSoC6\pdl\drivers\peripheral\scb/cy_scb_common.h ****     return _FLD2VAL(SCB_TX_FIFO_STATUS_USED, base->TX_FIFO_STATUS);
 274              		.loc 1 731 0
 275 0008 7B68     		ldr	r3, [r7, #4]
 276 000a D3F80832 		ldr	r3, [r3, #520]
 277 000e C3F30803 		ubfx	r3, r3, #0, #9
 732:Generated_Source\PSoC6\pdl\drivers\peripheral\scb/cy_scb_common.h **** }
 278              		.loc 1 732 0
 279 0012 1846     		mov	r0, r3
 280 0014 0C37     		adds	r7, r7, #12
 281              		.cfi_def_cfa_offset 4
 282 0016 BD46     		mov	sp, r7
 283              		.cfi_def_cfa_register 13
 284              		@ sp needed
 285 0018 5DF8047B 		ldr	r7, [sp], #4
 286              		.cfi_restore 7
ARM GAS  C:\Users\ikomb\AppData\Local\Temp\cctq3ka9.s 			page 19


 287              		.cfi_def_cfa_offset 0
 288 001c 7047     		bx	lr
 289              		.cfi_endproc
 290              	.LFE165:
 291              		.size	Cy_SCB_GetNumInTxFifo, .-Cy_SCB_GetNumInTxFifo
 292 001e 00BF     		.section	.text.Cy_SCB_GetTxSrValid,"ax",%progbits
 293              		.align	2
 294              		.thumb
 295              		.thumb_func
 296              		.type	Cy_SCB_GetTxSrValid, %function
 297              	Cy_SCB_GetTxSrValid:
 298              	.LFB166:
 733:Generated_Source\PSoC6\pdl\drivers\peripheral\scb/cy_scb_common.h **** 
 734:Generated_Source\PSoC6\pdl\drivers\peripheral\scb/cy_scb_common.h **** 
 735:Generated_Source\PSoC6\pdl\drivers\peripheral\scb/cy_scb_common.h **** /*******************************************************************************
 736:Generated_Source\PSoC6\pdl\drivers\peripheral\scb/cy_scb_common.h **** * Function Name: Cy_SCB_GetTxSrValid
 737:Generated_Source\PSoC6\pdl\drivers\peripheral\scb/cy_scb_common.h **** ****************************************************************************//**
 738:Generated_Source\PSoC6\pdl\drivers\peripheral\scb/cy_scb_common.h **** *
 739:Generated_Source\PSoC6\pdl\drivers\peripheral\scb/cy_scb_common.h **** * Returns the status of the TX FIFO Shift Register valid bit.
 740:Generated_Source\PSoC6\pdl\drivers\peripheral\scb/cy_scb_common.h **** *
 741:Generated_Source\PSoC6\pdl\drivers\peripheral\scb/cy_scb_common.h **** * \param base
 742:Generated_Source\PSoC6\pdl\drivers\peripheral\scb/cy_scb_common.h **** * The pointer to the SCB instance.
 743:Generated_Source\PSoC6\pdl\drivers\peripheral\scb/cy_scb_common.h **** *
 744:Generated_Source\PSoC6\pdl\drivers\peripheral\scb/cy_scb_common.h **** * \return
 745:Generated_Source\PSoC6\pdl\drivers\peripheral\scb/cy_scb_common.h **** * 1 - TX shift register valid; 0 - TX shift register not valid.
 746:Generated_Source\PSoC6\pdl\drivers\peripheral\scb/cy_scb_common.h **** *
 747:Generated_Source\PSoC6\pdl\drivers\peripheral\scb/cy_scb_common.h **** *******************************************************************************/
 748:Generated_Source\PSoC6\pdl\drivers\peripheral\scb/cy_scb_common.h **** __STATIC_INLINE uint32_t Cy_SCB_GetTxSrValid(CySCB_Type const *base)
 749:Generated_Source\PSoC6\pdl\drivers\peripheral\scb/cy_scb_common.h **** {
 299              		.loc 1 749 0
 300              		.cfi_startproc
 301              		@ args = 0, pretend = 0, frame = 8
 302              		@ frame_needed = 1, uses_anonymous_args = 0
 303              		@ link register save eliminated.
 304 0000 80B4     		push	{r7}
 305              		.cfi_def_cfa_offset 4
 306              		.cfi_offset 7, -4
 307 0002 83B0     		sub	sp, sp, #12
 308              		.cfi_def_cfa_offset 16
 309 0004 00AF     		add	r7, sp, #0
 310              		.cfi_def_cfa_register 7
 311 0006 7860     		str	r0, [r7, #4]
 750:Generated_Source\PSoC6\pdl\drivers\peripheral\scb/cy_scb_common.h ****     return _FLD2VAL(SCB_TX_FIFO_STATUS_SR_VALID, base->TX_FIFO_STATUS);
 312              		.loc 1 750 0
 313 0008 7B68     		ldr	r3, [r7, #4]
 314 000a D3F80832 		ldr	r3, [r3, #520]
 315 000e 03F40043 		and	r3, r3, #32768
 316 0012 DB0B     		lsrs	r3, r3, #15
 751:Generated_Source\PSoC6\pdl\drivers\peripheral\scb/cy_scb_common.h **** }
 317              		.loc 1 751 0
 318 0014 1846     		mov	r0, r3
 319 0016 0C37     		adds	r7, r7, #12
 320              		.cfi_def_cfa_offset 4
 321 0018 BD46     		mov	sp, r7
 322              		.cfi_def_cfa_register 13
 323              		@ sp needed
 324 001a 5DF8047B 		ldr	r7, [sp], #4
ARM GAS  C:\Users\ikomb\AppData\Local\Temp\cctq3ka9.s 			page 20


 325              		.cfi_restore 7
 326              		.cfi_def_cfa_offset 0
 327 001e 7047     		bx	lr
 328              		.cfi_endproc
 329              	.LFE166:
 330              		.size	Cy_SCB_GetTxSrValid, .-Cy_SCB_GetTxSrValid
 331              		.section	.text.Cy_SCB_IsTxComplete,"ax",%progbits
 332              		.align	2
 333              		.thumb
 334              		.thumb_func
 335              		.type	Cy_SCB_IsTxComplete, %function
 336              	Cy_SCB_IsTxComplete:
 337              	.LFB167:
 752:Generated_Source\PSoC6\pdl\drivers\peripheral\scb/cy_scb_common.h **** 
 753:Generated_Source\PSoC6\pdl\drivers\peripheral\scb/cy_scb_common.h **** 
 754:Generated_Source\PSoC6\pdl\drivers\peripheral\scb/cy_scb_common.h **** /*******************************************************************************
 755:Generated_Source\PSoC6\pdl\drivers\peripheral\scb/cy_scb_common.h **** * Function Name: Cy_SCB_IsTxComplete
 756:Generated_Source\PSoC6\pdl\drivers\peripheral\scb/cy_scb_common.h **** ****************************************************************************//**
 757:Generated_Source\PSoC6\pdl\drivers\peripheral\scb/cy_scb_common.h **** *
 758:Generated_Source\PSoC6\pdl\drivers\peripheral\scb/cy_scb_common.h **** * Checks whether the TX FIFO and Shifter are empty and there is no more data to send.
 759:Generated_Source\PSoC6\pdl\drivers\peripheral\scb/cy_scb_common.h **** *
 760:Generated_Source\PSoC6\pdl\drivers\peripheral\scb/cy_scb_common.h **** * \param base
 761:Generated_Source\PSoC6\pdl\drivers\peripheral\scb/cy_scb_common.h **** * Pointer to SPI the SCB instance.
 762:Generated_Source\PSoC6\pdl\drivers\peripheral\scb/cy_scb_common.h **** *
 763:Generated_Source\PSoC6\pdl\drivers\peripheral\scb/cy_scb_common.h **** * \return
 764:Generated_Source\PSoC6\pdl\drivers\peripheral\scb/cy_scb_common.h **** * If true, transmission complete. If false, transmission is not complete.
 765:Generated_Source\PSoC6\pdl\drivers\peripheral\scb/cy_scb_common.h **** *
 766:Generated_Source\PSoC6\pdl\drivers\peripheral\scb/cy_scb_common.h **** *******************************************************************************/
 767:Generated_Source\PSoC6\pdl\drivers\peripheral\scb/cy_scb_common.h **** __STATIC_INLINE bool Cy_SCB_IsTxComplete(CySCB_Type const *base)
 768:Generated_Source\PSoC6\pdl\drivers\peripheral\scb/cy_scb_common.h **** {
 338              		.loc 1 768 0
 339              		.cfi_startproc
 340              		@ args = 0, pretend = 0, frame = 8
 341              		@ frame_needed = 1, uses_anonymous_args = 0
 342 0000 90B5     		push	{r4, r7, lr}
 343              		.cfi_def_cfa_offset 12
 344              		.cfi_offset 4, -12
 345              		.cfi_offset 7, -8
 346              		.cfi_offset 14, -4
 347 0002 83B0     		sub	sp, sp, #12
 348              		.cfi_def_cfa_offset 24
 349 0004 00AF     		add	r7, sp, #0
 350              		.cfi_def_cfa_register 7
 351 0006 7860     		str	r0, [r7, #4]
 769:Generated_Source\PSoC6\pdl\drivers\peripheral\scb/cy_scb_common.h ****      return (0UL == (Cy_SCB_GetNumInTxFifo(base) + Cy_SCB_GetTxSrValid(base)));
 352              		.loc 1 769 0
 353 0008 7868     		ldr	r0, [r7, #4]
 354 000a FFF7FEFF 		bl	Cy_SCB_GetNumInTxFifo
 355 000e 0446     		mov	r4, r0
 356 0010 7868     		ldr	r0, [r7, #4]
 357 0012 FFF7FEFF 		bl	Cy_SCB_GetTxSrValid
 358 0016 0346     		mov	r3, r0
 359 0018 2344     		add	r3, r3, r4
 360 001a 002B     		cmp	r3, #0
 361 001c 0CBF     		ite	eq
 362 001e 0123     		moveq	r3, #1
 363 0020 0023     		movne	r3, #0
ARM GAS  C:\Users\ikomb\AppData\Local\Temp\cctq3ka9.s 			page 21


 364 0022 DBB2     		uxtb	r3, r3
 770:Generated_Source\PSoC6\pdl\drivers\peripheral\scb/cy_scb_common.h **** }
 365              		.loc 1 770 0
 366 0024 1846     		mov	r0, r3
 367 0026 0C37     		adds	r7, r7, #12
 368              		.cfi_def_cfa_offset 12
 369 0028 BD46     		mov	sp, r7
 370              		.cfi_def_cfa_register 13
 371              		@ sp needed
 372 002a 90BD     		pop	{r4, r7, pc}
 373              		.cfi_endproc
 374              	.LFE167:
 375              		.size	Cy_SCB_IsTxComplete, .-Cy_SCB_IsTxComplete
 376              		.section	.text.Cy_SCB_ClearTxFifo,"ax",%progbits
 377              		.align	2
 378              		.thumb
 379              		.thumb_func
 380              		.type	Cy_SCB_ClearTxFifo, %function
 381              	Cy_SCB_ClearTxFifo:
 382              	.LFB168:
 771:Generated_Source\PSoC6\pdl\drivers\peripheral\scb/cy_scb_common.h **** 
 772:Generated_Source\PSoC6\pdl\drivers\peripheral\scb/cy_scb_common.h **** 
 773:Generated_Source\PSoC6\pdl\drivers\peripheral\scb/cy_scb_common.h **** /*******************************************************************************
 774:Generated_Source\PSoC6\pdl\drivers\peripheral\scb/cy_scb_common.h **** * Function Name: Cy_SCB_ClearTxFifo
 775:Generated_Source\PSoC6\pdl\drivers\peripheral\scb/cy_scb_common.h **** ****************************************************************************//**
 776:Generated_Source\PSoC6\pdl\drivers\peripheral\scb/cy_scb_common.h **** *
 777:Generated_Source\PSoC6\pdl\drivers\peripheral\scb/cy_scb_common.h **** * Clears the TX FIFO.
 778:Generated_Source\PSoC6\pdl\drivers\peripheral\scb/cy_scb_common.h **** *
 779:Generated_Source\PSoC6\pdl\drivers\peripheral\scb/cy_scb_common.h **** * \param base
 780:Generated_Source\PSoC6\pdl\drivers\peripheral\scb/cy_scb_common.h **** * The pointer to the SCB instance.
 781:Generated_Source\PSoC6\pdl\drivers\peripheral\scb/cy_scb_common.h **** *
 782:Generated_Source\PSoC6\pdl\drivers\peripheral\scb/cy_scb_common.h **** * \note
 783:Generated_Source\PSoC6\pdl\drivers\peripheral\scb/cy_scb_common.h **** * The TX FIFO clear operation also clears the shift register. Thus the shifter
 784:Generated_Source\PSoC6\pdl\drivers\peripheral\scb/cy_scb_common.h **** * could be cleared in the middle of a data element transfer. Thia results in
 785:Generated_Source\PSoC6\pdl\drivers\peripheral\scb/cy_scb_common.h **** * "ones" being sent on the bus for the remainder of the transfer.
 786:Generated_Source\PSoC6\pdl\drivers\peripheral\scb/cy_scb_common.h **** *
 787:Generated_Source\PSoC6\pdl\drivers\peripheral\scb/cy_scb_common.h **** *******************************************************************************/
 788:Generated_Source\PSoC6\pdl\drivers\peripheral\scb/cy_scb_common.h **** __STATIC_INLINE void Cy_SCB_ClearTxFifo(CySCB_Type *base)
 789:Generated_Source\PSoC6\pdl\drivers\peripheral\scb/cy_scb_common.h **** {
 383              		.loc 1 789 0
 384              		.cfi_startproc
 385              		@ args = 0, pretend = 0, frame = 8
 386              		@ frame_needed = 1, uses_anonymous_args = 0
 387              		@ link register save eliminated.
 388 0000 80B4     		push	{r7}
 389              		.cfi_def_cfa_offset 4
 390              		.cfi_offset 7, -4
 391 0002 83B0     		sub	sp, sp, #12
 392              		.cfi_def_cfa_offset 16
 393 0004 00AF     		add	r7, sp, #0
 394              		.cfi_def_cfa_register 7
 395 0006 7860     		str	r0, [r7, #4]
 790:Generated_Source\PSoC6\pdl\drivers\peripheral\scb/cy_scb_common.h ****     base->TX_FIFO_CTRL |= (uint32_t)  SCB_TX_FIFO_CTRL_CLEAR_Msk;
 396              		.loc 1 790 0
 397 0008 7B68     		ldr	r3, [r7, #4]
 398 000a D3F80432 		ldr	r3, [r3, #516]
 399 000e 43F48032 		orr	r2, r3, #65536
ARM GAS  C:\Users\ikomb\AppData\Local\Temp\cctq3ka9.s 			page 22


 400 0012 7B68     		ldr	r3, [r7, #4]
 401 0014 C3F80422 		str	r2, [r3, #516]
 791:Generated_Source\PSoC6\pdl\drivers\peripheral\scb/cy_scb_common.h ****     base->TX_FIFO_CTRL &= (uint32_t) ~SCB_TX_FIFO_CTRL_CLEAR_Msk;
 402              		.loc 1 791 0
 403 0018 7B68     		ldr	r3, [r7, #4]
 404 001a D3F80432 		ldr	r3, [r3, #516]
 405 001e 23F48032 		bic	r2, r3, #65536
 406 0022 7B68     		ldr	r3, [r7, #4]
 407 0024 C3F80422 		str	r2, [r3, #516]
 792:Generated_Source\PSoC6\pdl\drivers\peripheral\scb/cy_scb_common.h **** 
 793:Generated_Source\PSoC6\pdl\drivers\peripheral\scb/cy_scb_common.h ****     (void) base->TX_FIFO_CTRL;
 408              		.loc 1 793 0
 409 0028 7B68     		ldr	r3, [r7, #4]
 410 002a D3F80432 		ldr	r3, [r3, #516]
 794:Generated_Source\PSoC6\pdl\drivers\peripheral\scb/cy_scb_common.h **** }
 411              		.loc 1 794 0
 412 002e 00BF     		nop
 413 0030 0C37     		adds	r7, r7, #12
 414              		.cfi_def_cfa_offset 4
 415 0032 BD46     		mov	sp, r7
 416              		.cfi_def_cfa_register 13
 417              		@ sp needed
 418 0034 5DF8047B 		ldr	r7, [sp], #4
 419              		.cfi_restore 7
 420              		.cfi_def_cfa_offset 0
 421 0038 7047     		bx	lr
 422              		.cfi_endproc
 423              	.LFE168:
 424              		.size	Cy_SCB_ClearTxFifo, .-Cy_SCB_ClearTxFifo
 425 003a 00BF     		.section	.text.Cy_SCB_GetInterruptCause,"ax",%progbits
 426              		.align	2
 427              		.thumb
 428              		.thumb_func
 429              		.type	Cy_SCB_GetInterruptCause, %function
 430              	Cy_SCB_GetInterruptCause:
 431              	.LFB170:
 795:Generated_Source\PSoC6\pdl\drivers\peripheral\scb/cy_scb_common.h **** 
 796:Generated_Source\PSoC6\pdl\drivers\peripheral\scb/cy_scb_common.h **** 
 797:Generated_Source\PSoC6\pdl\drivers\peripheral\scb/cy_scb_common.h **** /*******************************************************************************
 798:Generated_Source\PSoC6\pdl\drivers\peripheral\scb/cy_scb_common.h **** * Function Name: Cy_SCB_SetByteMode
 799:Generated_Source\PSoC6\pdl\drivers\peripheral\scb/cy_scb_common.h **** ****************************************************************************//**
 800:Generated_Source\PSoC6\pdl\drivers\peripheral\scb/cy_scb_common.h **** *
 801:Generated_Source\PSoC6\pdl\drivers\peripheral\scb/cy_scb_common.h **** * Sets whether the RX and TX FIFOs are in byte mode.
 802:Generated_Source\PSoC6\pdl\drivers\peripheral\scb/cy_scb_common.h **** * The FIFOs are either 16-bit wide or 8-bit wide (byte mode).
 803:Generated_Source\PSoC6\pdl\drivers\peripheral\scb/cy_scb_common.h **** * When the FIFO is in byte mode it is twice as deep. See the device datasheet
 804:Generated_Source\PSoC6\pdl\drivers\peripheral\scb/cy_scb_common.h **** * for FIFO depths.
 805:Generated_Source\PSoC6\pdl\drivers\peripheral\scb/cy_scb_common.h **** *
 806:Generated_Source\PSoC6\pdl\drivers\peripheral\scb/cy_scb_common.h **** * \param base
 807:Generated_Source\PSoC6\pdl\drivers\peripheral\scb/cy_scb_common.h **** * The pointer to the SCB instance.
 808:Generated_Source\PSoC6\pdl\drivers\peripheral\scb/cy_scb_common.h **** *
 809:Generated_Source\PSoC6\pdl\drivers\peripheral\scb/cy_scb_common.h **** * \param byteMode
 810:Generated_Source\PSoC6\pdl\drivers\peripheral\scb/cy_scb_common.h **** * If true, TX and RX FIFOs are 8-bit wide. If false, the FIFOs are 16-bit wide.
 811:Generated_Source\PSoC6\pdl\drivers\peripheral\scb/cy_scb_common.h **** *
 812:Generated_Source\PSoC6\pdl\drivers\peripheral\scb/cy_scb_common.h **** *******************************************************************************/
 813:Generated_Source\PSoC6\pdl\drivers\peripheral\scb/cy_scb_common.h **** __STATIC_INLINE void Cy_SCB_SetByteMode(CySCB_Type *base, bool byteMode)
 814:Generated_Source\PSoC6\pdl\drivers\peripheral\scb/cy_scb_common.h **** {
 815:Generated_Source\PSoC6\pdl\drivers\peripheral\scb/cy_scb_common.h ****     if (byteMode)
ARM GAS  C:\Users\ikomb\AppData\Local\Temp\cctq3ka9.s 			page 23


 816:Generated_Source\PSoC6\pdl\drivers\peripheral\scb/cy_scb_common.h ****     {
 817:Generated_Source\PSoC6\pdl\drivers\peripheral\scb/cy_scb_common.h ****         base->CTRL |=  SCB_CTRL_BYTE_MODE_Msk;
 818:Generated_Source\PSoC6\pdl\drivers\peripheral\scb/cy_scb_common.h ****     }
 819:Generated_Source\PSoC6\pdl\drivers\peripheral\scb/cy_scb_common.h ****     else
 820:Generated_Source\PSoC6\pdl\drivers\peripheral\scb/cy_scb_common.h ****     {
 821:Generated_Source\PSoC6\pdl\drivers\peripheral\scb/cy_scb_common.h ****         base->CTRL &= ~SCB_CTRL_BYTE_MODE_Msk;
 822:Generated_Source\PSoC6\pdl\drivers\peripheral\scb/cy_scb_common.h ****     }
 823:Generated_Source\PSoC6\pdl\drivers\peripheral\scb/cy_scb_common.h **** }
 824:Generated_Source\PSoC6\pdl\drivers\peripheral\scb/cy_scb_common.h **** 
 825:Generated_Source\PSoC6\pdl\drivers\peripheral\scb/cy_scb_common.h **** 
 826:Generated_Source\PSoC6\pdl\drivers\peripheral\scb/cy_scb_common.h **** /*******************************************************************************
 827:Generated_Source\PSoC6\pdl\drivers\peripheral\scb/cy_scb_common.h **** * Function Name: Cy_SCB_GetInterruptCause
 828:Generated_Source\PSoC6\pdl\drivers\peripheral\scb/cy_scb_common.h **** ****************************************************************************//**
 829:Generated_Source\PSoC6\pdl\drivers\peripheral\scb/cy_scb_common.h **** *
 830:Generated_Source\PSoC6\pdl\drivers\peripheral\scb/cy_scb_common.h **** * Returns the mask of bits showing the source of the current triggered
 831:Generated_Source\PSoC6\pdl\drivers\peripheral\scb/cy_scb_common.h **** * interrupt. This is useful for modes of operation where an interrupt can
 832:Generated_Source\PSoC6\pdl\drivers\peripheral\scb/cy_scb_common.h **** * be generated by conditions in multiple interrupt source registers.
 833:Generated_Source\PSoC6\pdl\drivers\peripheral\scb/cy_scb_common.h **** *
 834:Generated_Source\PSoC6\pdl\drivers\peripheral\scb/cy_scb_common.h **** * \param base
 835:Generated_Source\PSoC6\pdl\drivers\peripheral\scb/cy_scb_common.h **** * The pointer to the SCB instance.
 836:Generated_Source\PSoC6\pdl\drivers\peripheral\scb/cy_scb_common.h **** *
 837:Generated_Source\PSoC6\pdl\drivers\peripheral\scb/cy_scb_common.h **** * \return
 838:Generated_Source\PSoC6\pdl\drivers\peripheral\scb/cy_scb_common.h **** * The mask with the OR of the following conditions that have been triggered.
 839:Generated_Source\PSoC6\pdl\drivers\peripheral\scb/cy_scb_common.h **** * See \ref group_scb_common_macros_intr_cause for the set of constants.
 840:Generated_Source\PSoC6\pdl\drivers\peripheral\scb/cy_scb_common.h **** *
 841:Generated_Source\PSoC6\pdl\drivers\peripheral\scb/cy_scb_common.h **** *******************************************************************************/
 842:Generated_Source\PSoC6\pdl\drivers\peripheral\scb/cy_scb_common.h **** __STATIC_INLINE uint32_t Cy_SCB_GetInterruptCause(CySCB_Type const *base)
 843:Generated_Source\PSoC6\pdl\drivers\peripheral\scb/cy_scb_common.h **** {
 432              		.loc 1 843 0
 433              		.cfi_startproc
 434              		@ args = 0, pretend = 0, frame = 8
 435              		@ frame_needed = 1, uses_anonymous_args = 0
 436              		@ link register save eliminated.
 437 0000 80B4     		push	{r7}
 438              		.cfi_def_cfa_offset 4
 439              		.cfi_offset 7, -4
 440 0002 83B0     		sub	sp, sp, #12
 441              		.cfi_def_cfa_offset 16
 442 0004 00AF     		add	r7, sp, #0
 443              		.cfi_def_cfa_register 7
 444 0006 7860     		str	r0, [r7, #4]
 844:Generated_Source\PSoC6\pdl\drivers\peripheral\scb/cy_scb_common.h ****     return (base->INTR_CAUSE);
 445              		.loc 1 844 0
 446 0008 7B68     		ldr	r3, [r7, #4]
 447 000a D3F8003E 		ldr	r3, [r3, #3584]
 845:Generated_Source\PSoC6\pdl\drivers\peripheral\scb/cy_scb_common.h **** }
 448              		.loc 1 845 0
 449 000e 1846     		mov	r0, r3
 450 0010 0C37     		adds	r7, r7, #12
 451              		.cfi_def_cfa_offset 4
 452 0012 BD46     		mov	sp, r7
 453              		.cfi_def_cfa_register 13
 454              		@ sp needed
 455 0014 5DF8047B 		ldr	r7, [sp], #4
 456              		.cfi_restore 7
 457              		.cfi_def_cfa_offset 0
 458 0018 7047     		bx	lr
ARM GAS  C:\Users\ikomb\AppData\Local\Temp\cctq3ka9.s 			page 24


 459              		.cfi_endproc
 460              	.LFE170:
 461              		.size	Cy_SCB_GetInterruptCause, .-Cy_SCB_GetInterruptCause
 462 001a 00BF     		.section	.text.Cy_SCB_SetRxInterruptMask,"ax",%progbits
 463              		.align	2
 464              		.thumb
 465              		.thumb_func
 466              		.type	Cy_SCB_SetRxInterruptMask, %function
 467              	Cy_SCB_SetRxInterruptMask:
 468              	.LFB172:
 846:Generated_Source\PSoC6\pdl\drivers\peripheral\scb/cy_scb_common.h **** 
 847:Generated_Source\PSoC6\pdl\drivers\peripheral\scb/cy_scb_common.h **** 
 848:Generated_Source\PSoC6\pdl\drivers\peripheral\scb/cy_scb_common.h **** /*******************************************************************************
 849:Generated_Source\PSoC6\pdl\drivers\peripheral\scb/cy_scb_common.h **** * Function Name: Cy_SCB_GetRxInterruptStatus
 850:Generated_Source\PSoC6\pdl\drivers\peripheral\scb/cy_scb_common.h **** ****************************************************************************//**
 851:Generated_Source\PSoC6\pdl\drivers\peripheral\scb/cy_scb_common.h **** *
 852:Generated_Source\PSoC6\pdl\drivers\peripheral\scb/cy_scb_common.h **** * Returns the RX interrupt request register. This register contains the current
 853:Generated_Source\PSoC6\pdl\drivers\peripheral\scb/cy_scb_common.h **** * status of the RX interrupt sources.
 854:Generated_Source\PSoC6\pdl\drivers\peripheral\scb/cy_scb_common.h **** *
 855:Generated_Source\PSoC6\pdl\drivers\peripheral\scb/cy_scb_common.h **** * \param base
 856:Generated_Source\PSoC6\pdl\drivers\peripheral\scb/cy_scb_common.h **** * The pointer to the SCB instance.
 857:Generated_Source\PSoC6\pdl\drivers\peripheral\scb/cy_scb_common.h **** *
 858:Generated_Source\PSoC6\pdl\drivers\peripheral\scb/cy_scb_common.h **** * \return
 859:Generated_Source\PSoC6\pdl\drivers\peripheral\scb/cy_scb_common.h **** * The current status of the RX interrupt sources. Each constant is a bit field
 860:Generated_Source\PSoC6\pdl\drivers\peripheral\scb/cy_scb_common.h **** * value. The value returned may have multiple bits set to indicate the
 861:Generated_Source\PSoC6\pdl\drivers\peripheral\scb/cy_scb_common.h **** * current status.
 862:Generated_Source\PSoC6\pdl\drivers\peripheral\scb/cy_scb_common.h **** * See \ref group_scb_common_macros_rx_intr for the set of constants.
 863:Generated_Source\PSoC6\pdl\drivers\peripheral\scb/cy_scb_common.h **** *
 864:Generated_Source\PSoC6\pdl\drivers\peripheral\scb/cy_scb_common.h **** *******************************************************************************/
 865:Generated_Source\PSoC6\pdl\drivers\peripheral\scb/cy_scb_common.h **** __STATIC_INLINE uint32_t Cy_SCB_GetRxInterruptStatus(CySCB_Type const *base)
 866:Generated_Source\PSoC6\pdl\drivers\peripheral\scb/cy_scb_common.h **** {
 867:Generated_Source\PSoC6\pdl\drivers\peripheral\scb/cy_scb_common.h ****     return (base->INTR_RX & CY_SCB_RX_INTR_MASK);
 868:Generated_Source\PSoC6\pdl\drivers\peripheral\scb/cy_scb_common.h **** }
 869:Generated_Source\PSoC6\pdl\drivers\peripheral\scb/cy_scb_common.h **** 
 870:Generated_Source\PSoC6\pdl\drivers\peripheral\scb/cy_scb_common.h **** 
 871:Generated_Source\PSoC6\pdl\drivers\peripheral\scb/cy_scb_common.h **** /*******************************************************************************
 872:Generated_Source\PSoC6\pdl\drivers\peripheral\scb/cy_scb_common.h **** * Function Name: Cy_SCB_SetRxInterruptMask
 873:Generated_Source\PSoC6\pdl\drivers\peripheral\scb/cy_scb_common.h **** ****************************************************************************//**
 874:Generated_Source\PSoC6\pdl\drivers\peripheral\scb/cy_scb_common.h **** *
 875:Generated_Source\PSoC6\pdl\drivers\peripheral\scb/cy_scb_common.h **** * Writes the RX interrupt mask register. This register configures which bits
 876:Generated_Source\PSoC6\pdl\drivers\peripheral\scb/cy_scb_common.h **** * from the RX interrupt request register can trigger an interrupt event.
 877:Generated_Source\PSoC6\pdl\drivers\peripheral\scb/cy_scb_common.h **** *
 878:Generated_Source\PSoC6\pdl\drivers\peripheral\scb/cy_scb_common.h **** * \param base
 879:Generated_Source\PSoC6\pdl\drivers\peripheral\scb/cy_scb_common.h **** * The pointer to the SCB instance.
 880:Generated_Source\PSoC6\pdl\drivers\peripheral\scb/cy_scb_common.h **** *
 881:Generated_Source\PSoC6\pdl\drivers\peripheral\scb/cy_scb_common.h **** * \param interruptMask
 882:Generated_Source\PSoC6\pdl\drivers\peripheral\scb/cy_scb_common.h **** * Enabled RX interrupt sources.
 883:Generated_Source\PSoC6\pdl\drivers\peripheral\scb/cy_scb_common.h **** * See \ref group_scb_common_macros_rx_intr.
 884:Generated_Source\PSoC6\pdl\drivers\peripheral\scb/cy_scb_common.h **** *
 885:Generated_Source\PSoC6\pdl\drivers\peripheral\scb/cy_scb_common.h **** *******************************************************************************/
 886:Generated_Source\PSoC6\pdl\drivers\peripheral\scb/cy_scb_common.h **** __STATIC_INLINE void Cy_SCB_SetRxInterruptMask(CySCB_Type *base, uint32_t interruptMask)
 887:Generated_Source\PSoC6\pdl\drivers\peripheral\scb/cy_scb_common.h **** {
 469              		.loc 1 887 0
 470              		.cfi_startproc
 471              		@ args = 0, pretend = 0, frame = 8
 472              		@ frame_needed = 1, uses_anonymous_args = 0
 473 0000 80B5     		push	{r7, lr}
ARM GAS  C:\Users\ikomb\AppData\Local\Temp\cctq3ka9.s 			page 25


 474              		.cfi_def_cfa_offset 8
 475              		.cfi_offset 7, -8
 476              		.cfi_offset 14, -4
 477 0002 82B0     		sub	sp, sp, #8
 478              		.cfi_def_cfa_offset 16
 479 0004 00AF     		add	r7, sp, #0
 480              		.cfi_def_cfa_register 7
 481 0006 7860     		str	r0, [r7, #4]
 482 0008 3960     		str	r1, [r7]
 888:Generated_Source\PSoC6\pdl\drivers\peripheral\scb/cy_scb_common.h ****     CY_ASSERT_L2(CY_SCB_IS_INTR_VALID(interruptMask, CY_SCB_RX_INTR_MASK));
 483              		.loc 1 888 0
 484 000a 3B68     		ldr	r3, [r7]
 485 000c 23F43663 		bic	r3, r3, #2912
 486 0010 23F00D03 		bic	r3, r3, #13
 487 0014 002B     		cmp	r3, #0
 488 0016 04D0     		beq	.L24
 489              		.loc 1 888 0 is_stmt 0 discriminator 1
 490 0018 4FF45E71 		mov	r1, #888
 491 001c 0548     		ldr	r0, .L25
 492 001e FFF7FEFF 		bl	Cy_SysLib_AssertFailed
 493              	.L24:
 889:Generated_Source\PSoC6\pdl\drivers\peripheral\scb/cy_scb_common.h **** 
 890:Generated_Source\PSoC6\pdl\drivers\peripheral\scb/cy_scb_common.h ****     base->INTR_RX_MASK = interruptMask;
 494              		.loc 1 890 0 is_stmt 1
 495 0022 7B68     		ldr	r3, [r7, #4]
 496 0024 3A68     		ldr	r2, [r7]
 497 0026 C3F8C82F 		str	r2, [r3, #4040]
 891:Generated_Source\PSoC6\pdl\drivers\peripheral\scb/cy_scb_common.h **** }
 498              		.loc 1 891 0
 499 002a 00BF     		nop
 500 002c 0837     		adds	r7, r7, #8
 501              		.cfi_def_cfa_offset 8
 502 002e BD46     		mov	sp, r7
 503              		.cfi_def_cfa_register 13
 504              		@ sp needed
 505 0030 80BD     		pop	{r7, pc}
 506              	.L26:
 507 0032 00BF     		.align	2
 508              	.L25:
 509 0034 00000000 		.word	.LC0
 510              		.cfi_endproc
 511              	.LFE172:
 512              		.size	Cy_SCB_SetRxInterruptMask, .-Cy_SCB_SetRxInterruptMask
 513              		.section	.text.Cy_SCB_GetRxInterruptStatusMasked,"ax",%progbits
 514              		.align	2
 515              		.thumb
 516              		.thumb_func
 517              		.type	Cy_SCB_GetRxInterruptStatusMasked, %function
 518              	Cy_SCB_GetRxInterruptStatusMasked:
 519              	.LFB174:
 892:Generated_Source\PSoC6\pdl\drivers\peripheral\scb/cy_scb_common.h **** 
 893:Generated_Source\PSoC6\pdl\drivers\peripheral\scb/cy_scb_common.h **** 
 894:Generated_Source\PSoC6\pdl\drivers\peripheral\scb/cy_scb_common.h **** /*******************************************************************************
 895:Generated_Source\PSoC6\pdl\drivers\peripheral\scb/cy_scb_common.h **** * Function Name: Cy_SCB_GetRxInterruptMask
 896:Generated_Source\PSoC6\pdl\drivers\peripheral\scb/cy_scb_common.h **** ****************************************************************************//**
 897:Generated_Source\PSoC6\pdl\drivers\peripheral\scb/cy_scb_common.h **** *
 898:Generated_Source\PSoC6\pdl\drivers\peripheral\scb/cy_scb_common.h **** * Returns the RX interrupt mask register. This register specifies which bits
ARM GAS  C:\Users\ikomb\AppData\Local\Temp\cctq3ka9.s 			page 26


 899:Generated_Source\PSoC6\pdl\drivers\peripheral\scb/cy_scb_common.h **** * from the RX interrupt request register trigger can an interrupt event.
 900:Generated_Source\PSoC6\pdl\drivers\peripheral\scb/cy_scb_common.h **** *
 901:Generated_Source\PSoC6\pdl\drivers\peripheral\scb/cy_scb_common.h **** * \param base
 902:Generated_Source\PSoC6\pdl\drivers\peripheral\scb/cy_scb_common.h **** * The pointer to the SCB instance.
 903:Generated_Source\PSoC6\pdl\drivers\peripheral\scb/cy_scb_common.h **** *
 904:Generated_Source\PSoC6\pdl\drivers\peripheral\scb/cy_scb_common.h **** * \return
 905:Generated_Source\PSoC6\pdl\drivers\peripheral\scb/cy_scb_common.h **** * Enabled RX interrupt sources.
 906:Generated_Source\PSoC6\pdl\drivers\peripheral\scb/cy_scb_common.h **** * See \ref group_scb_common_macros_rx_intr for the set of constants.
 907:Generated_Source\PSoC6\pdl\drivers\peripheral\scb/cy_scb_common.h **** *
 908:Generated_Source\PSoC6\pdl\drivers\peripheral\scb/cy_scb_common.h **** *******************************************************************************/
 909:Generated_Source\PSoC6\pdl\drivers\peripheral\scb/cy_scb_common.h **** __STATIC_INLINE uint32_t Cy_SCB_GetRxInterruptMask(CySCB_Type const *base)
 910:Generated_Source\PSoC6\pdl\drivers\peripheral\scb/cy_scb_common.h **** {
 911:Generated_Source\PSoC6\pdl\drivers\peripheral\scb/cy_scb_common.h ****     return (base->INTR_RX_MASK);
 912:Generated_Source\PSoC6\pdl\drivers\peripheral\scb/cy_scb_common.h **** }
 913:Generated_Source\PSoC6\pdl\drivers\peripheral\scb/cy_scb_common.h **** 
 914:Generated_Source\PSoC6\pdl\drivers\peripheral\scb/cy_scb_common.h **** 
 915:Generated_Source\PSoC6\pdl\drivers\peripheral\scb/cy_scb_common.h **** /*******************************************************************************
 916:Generated_Source\PSoC6\pdl\drivers\peripheral\scb/cy_scb_common.h **** * Function Name: Cy_SCB_GetRxInterruptStatusMasked
 917:Generated_Source\PSoC6\pdl\drivers\peripheral\scb/cy_scb_common.h **** ****************************************************************************//**
 918:Generated_Source\PSoC6\pdl\drivers\peripheral\scb/cy_scb_common.h **** *
 919:Generated_Source\PSoC6\pdl\drivers\peripheral\scb/cy_scb_common.h **** * Returns the RX interrupt masked request register. This register contains
 920:Generated_Source\PSoC6\pdl\drivers\peripheral\scb/cy_scb_common.h **** * a logical AND of corresponding bits from the RX interrupt request and
 921:Generated_Source\PSoC6\pdl\drivers\peripheral\scb/cy_scb_common.h **** * mask registers.
 922:Generated_Source\PSoC6\pdl\drivers\peripheral\scb/cy_scb_common.h **** * This function is intended to be used in the interrupt service routine to
 923:Generated_Source\PSoC6\pdl\drivers\peripheral\scb/cy_scb_common.h **** * identify which of the enabled RX interrupt sources caused the interrupt event.
 924:Generated_Source\PSoC6\pdl\drivers\peripheral\scb/cy_scb_common.h **** *
 925:Generated_Source\PSoC6\pdl\drivers\peripheral\scb/cy_scb_common.h **** * \param base
 926:Generated_Source\PSoC6\pdl\drivers\peripheral\scb/cy_scb_common.h **** * The pointer to the SCB instance.
 927:Generated_Source\PSoC6\pdl\drivers\peripheral\scb/cy_scb_common.h **** *
 928:Generated_Source\PSoC6\pdl\drivers\peripheral\scb/cy_scb_common.h **** * \return
 929:Generated_Source\PSoC6\pdl\drivers\peripheral\scb/cy_scb_common.h **** * The current status of enabled RX interrupt sources.
 930:Generated_Source\PSoC6\pdl\drivers\peripheral\scb/cy_scb_common.h **** * See \ref group_scb_common_macros_rx_intr for the set of constants.
 931:Generated_Source\PSoC6\pdl\drivers\peripheral\scb/cy_scb_common.h **** *
 932:Generated_Source\PSoC6\pdl\drivers\peripheral\scb/cy_scb_common.h **** *******************************************************************************/
 933:Generated_Source\PSoC6\pdl\drivers\peripheral\scb/cy_scb_common.h **** __STATIC_INLINE uint32_t Cy_SCB_GetRxInterruptStatusMasked(CySCB_Type const *base)
 934:Generated_Source\PSoC6\pdl\drivers\peripheral\scb/cy_scb_common.h **** {
 520              		.loc 1 934 0
 521              		.cfi_startproc
 522              		@ args = 0, pretend = 0, frame = 8
 523              		@ frame_needed = 1, uses_anonymous_args = 0
 524              		@ link register save eliminated.
 525 0000 80B4     		push	{r7}
 526              		.cfi_def_cfa_offset 4
 527              		.cfi_offset 7, -4
 528 0002 83B0     		sub	sp, sp, #12
 529              		.cfi_def_cfa_offset 16
 530 0004 00AF     		add	r7, sp, #0
 531              		.cfi_def_cfa_register 7
 532 0006 7860     		str	r0, [r7, #4]
 935:Generated_Source\PSoC6\pdl\drivers\peripheral\scb/cy_scb_common.h ****     return (base->INTR_RX_MASKED);
 533              		.loc 1 935 0
 534 0008 7B68     		ldr	r3, [r7, #4]
 535 000a D3F8CC3F 		ldr	r3, [r3, #4044]
 936:Generated_Source\PSoC6\pdl\drivers\peripheral\scb/cy_scb_common.h **** }
 536              		.loc 1 936 0
 537 000e 1846     		mov	r0, r3
 538 0010 0C37     		adds	r7, r7, #12
ARM GAS  C:\Users\ikomb\AppData\Local\Temp\cctq3ka9.s 			page 27


 539              		.cfi_def_cfa_offset 4
 540 0012 BD46     		mov	sp, r7
 541              		.cfi_def_cfa_register 13
 542              		@ sp needed
 543 0014 5DF8047B 		ldr	r7, [sp], #4
 544              		.cfi_restore 7
 545              		.cfi_def_cfa_offset 0
 546 0018 7047     		bx	lr
 547              		.cfi_endproc
 548              	.LFE174:
 549              		.size	Cy_SCB_GetRxInterruptStatusMasked, .-Cy_SCB_GetRxInterruptStatusMasked
 550 001a 00BF     		.section	.text.Cy_SCB_ClearRxInterrupt,"ax",%progbits
 551              		.align	2
 552              		.thumb
 553              		.thumb_func
 554              		.type	Cy_SCB_ClearRxInterrupt, %function
 555              	Cy_SCB_ClearRxInterrupt:
 556              	.LFB175:
 937:Generated_Source\PSoC6\pdl\drivers\peripheral\scb/cy_scb_common.h **** 
 938:Generated_Source\PSoC6\pdl\drivers\peripheral\scb/cy_scb_common.h **** 
 939:Generated_Source\PSoC6\pdl\drivers\peripheral\scb/cy_scb_common.h **** /*******************************************************************************
 940:Generated_Source\PSoC6\pdl\drivers\peripheral\scb/cy_scb_common.h **** * Function Name: Cy_SCB_ClearRxInterrupt
 941:Generated_Source\PSoC6\pdl\drivers\peripheral\scb/cy_scb_common.h **** ****************************************************************************//**
 942:Generated_Source\PSoC6\pdl\drivers\peripheral\scb/cy_scb_common.h **** *
 943:Generated_Source\PSoC6\pdl\drivers\peripheral\scb/cy_scb_common.h **** * Clears the RX interrupt sources in the interrupt request register.
 944:Generated_Source\PSoC6\pdl\drivers\peripheral\scb/cy_scb_common.h **** *
 945:Generated_Source\PSoC6\pdl\drivers\peripheral\scb/cy_scb_common.h **** * \param base
 946:Generated_Source\PSoC6\pdl\drivers\peripheral\scb/cy_scb_common.h **** * The pointer to the SCB instance.
 947:Generated_Source\PSoC6\pdl\drivers\peripheral\scb/cy_scb_common.h **** *
 948:Generated_Source\PSoC6\pdl\drivers\peripheral\scb/cy_scb_common.h **** * \param interruptMask
 949:Generated_Source\PSoC6\pdl\drivers\peripheral\scb/cy_scb_common.h **** * The RX interrupt sources to be cleared.
 950:Generated_Source\PSoC6\pdl\drivers\peripheral\scb/cy_scb_common.h **** * See \ref group_scb_common_macros_rx_intr for the set of constants.
 951:Generated_Source\PSoC6\pdl\drivers\peripheral\scb/cy_scb_common.h **** *
 952:Generated_Source\PSoC6\pdl\drivers\peripheral\scb/cy_scb_common.h **** * \note
 953:Generated_Source\PSoC6\pdl\drivers\peripheral\scb/cy_scb_common.h **** *  - CY_SCB_INTR_RX_FIFO_LEVEL interrupt source is not cleared when
 954:Generated_Source\PSoC6\pdl\drivers\peripheral\scb/cy_scb_common.h **** *    the RX FIFO has more entries than the level.
 955:Generated_Source\PSoC6\pdl\drivers\peripheral\scb/cy_scb_common.h **** *  - CY_SCB_INTR_RX_NOT_EMPTY interrupt source is not cleared when the
 956:Generated_Source\PSoC6\pdl\drivers\peripheral\scb/cy_scb_common.h **** *    RX FIFO is not empty.
 957:Generated_Source\PSoC6\pdl\drivers\peripheral\scb/cy_scb_common.h **** *  - CY_SCB_INTR_RX_FULL interrupt source is not cleared when the
 958:Generated_Source\PSoC6\pdl\drivers\peripheral\scb/cy_scb_common.h **** *    RX FIFO is full.
 959:Generated_Source\PSoC6\pdl\drivers\peripheral\scb/cy_scb_common.h **** *
 960:Generated_Source\PSoC6\pdl\drivers\peripheral\scb/cy_scb_common.h **** *******************************************************************************/
 961:Generated_Source\PSoC6\pdl\drivers\peripheral\scb/cy_scb_common.h **** __STATIC_INLINE void Cy_SCB_ClearRxInterrupt(CySCB_Type *base, uint32_t interruptMask)
 962:Generated_Source\PSoC6\pdl\drivers\peripheral\scb/cy_scb_common.h **** {
 557              		.loc 1 962 0
 558              		.cfi_startproc
 559              		@ args = 0, pretend = 0, frame = 8
 560              		@ frame_needed = 1, uses_anonymous_args = 0
 561 0000 80B5     		push	{r7, lr}
 562              		.cfi_def_cfa_offset 8
 563              		.cfi_offset 7, -8
 564              		.cfi_offset 14, -4
 565 0002 82B0     		sub	sp, sp, #8
 566              		.cfi_def_cfa_offset 16
 567 0004 00AF     		add	r7, sp, #0
 568              		.cfi_def_cfa_register 7
 569 0006 7860     		str	r0, [r7, #4]
ARM GAS  C:\Users\ikomb\AppData\Local\Temp\cctq3ka9.s 			page 28


 570 0008 3960     		str	r1, [r7]
 963:Generated_Source\PSoC6\pdl\drivers\peripheral\scb/cy_scb_common.h ****     CY_ASSERT_L2(CY_SCB_IS_INTR_VALID(interruptMask, CY_SCB_RX_INTR_MASK));
 571              		.loc 1 963 0
 572 000a 3B68     		ldr	r3, [r7]
 573 000c 23F43663 		bic	r3, r3, #2912
 574 0010 23F00D03 		bic	r3, r3, #13
 575 0014 002B     		cmp	r3, #0
 576 0016 04D0     		beq	.L30
 577              		.loc 1 963 0 is_stmt 0 discriminator 1
 578 0018 40F2C331 		movw	r1, #963
 579 001c 0648     		ldr	r0, .L31
 580 001e FFF7FEFF 		bl	Cy_SysLib_AssertFailed
 581              	.L30:
 964:Generated_Source\PSoC6\pdl\drivers\peripheral\scb/cy_scb_common.h **** 
 965:Generated_Source\PSoC6\pdl\drivers\peripheral\scb/cy_scb_common.h ****     base->INTR_RX = interruptMask;
 582              		.loc 1 965 0 is_stmt 1
 583 0022 7B68     		ldr	r3, [r7, #4]
 584 0024 3A68     		ldr	r2, [r7]
 585 0026 C3F8C02F 		str	r2, [r3, #4032]
 966:Generated_Source\PSoC6\pdl\drivers\peripheral\scb/cy_scb_common.h ****     (void) base->INTR_RX;
 586              		.loc 1 966 0
 587 002a 7B68     		ldr	r3, [r7, #4]
 588 002c D3F8C03F 		ldr	r3, [r3, #4032]
 967:Generated_Source\PSoC6\pdl\drivers\peripheral\scb/cy_scb_common.h **** }
 589              		.loc 1 967 0
 590 0030 00BF     		nop
 591 0032 0837     		adds	r7, r7, #8
 592              		.cfi_def_cfa_offset 8
 593 0034 BD46     		mov	sp, r7
 594              		.cfi_def_cfa_register 13
 595              		@ sp needed
 596 0036 80BD     		pop	{r7, pc}
 597              	.L32:
 598              		.align	2
 599              	.L31:
 600 0038 00000000 		.word	.LC0
 601              		.cfi_endproc
 602              	.LFE175:
 603              		.size	Cy_SCB_ClearRxInterrupt, .-Cy_SCB_ClearRxInterrupt
 604              		.section	.text.Cy_SCB_GetTxInterruptStatus,"ax",%progbits
 605              		.align	2
 606              		.thumb
 607              		.thumb_func
 608              		.type	Cy_SCB_GetTxInterruptStatus, %function
 609              	Cy_SCB_GetTxInterruptStatus:
 610              	.LFB177:
 968:Generated_Source\PSoC6\pdl\drivers\peripheral\scb/cy_scb_common.h **** 
 969:Generated_Source\PSoC6\pdl\drivers\peripheral\scb/cy_scb_common.h **** 
 970:Generated_Source\PSoC6\pdl\drivers\peripheral\scb/cy_scb_common.h **** /*******************************************************************************
 971:Generated_Source\PSoC6\pdl\drivers\peripheral\scb/cy_scb_common.h **** * Function Name: Cy_SCB_SetRxInterrupt
 972:Generated_Source\PSoC6\pdl\drivers\peripheral\scb/cy_scb_common.h **** ****************************************************************************//**
 973:Generated_Source\PSoC6\pdl\drivers\peripheral\scb/cy_scb_common.h **** *
 974:Generated_Source\PSoC6\pdl\drivers\peripheral\scb/cy_scb_common.h **** * Sets the RX interrupt sources in the interrupt request register.
 975:Generated_Source\PSoC6\pdl\drivers\peripheral\scb/cy_scb_common.h **** *
 976:Generated_Source\PSoC6\pdl\drivers\peripheral\scb/cy_scb_common.h **** * \param base
 977:Generated_Source\PSoC6\pdl\drivers\peripheral\scb/cy_scb_common.h **** * The pointer to the SCB instance.
 978:Generated_Source\PSoC6\pdl\drivers\peripheral\scb/cy_scb_common.h **** *
ARM GAS  C:\Users\ikomb\AppData\Local\Temp\cctq3ka9.s 			page 29


 979:Generated_Source\PSoC6\pdl\drivers\peripheral\scb/cy_scb_common.h **** * \param interruptMask
 980:Generated_Source\PSoC6\pdl\drivers\peripheral\scb/cy_scb_common.h **** * The RX interrupt sources to set in the RX interrupt request register.
 981:Generated_Source\PSoC6\pdl\drivers\peripheral\scb/cy_scb_common.h **** * See \ref group_scb_common_macros_rx_intr for the set of constants.
 982:Generated_Source\PSoC6\pdl\drivers\peripheral\scb/cy_scb_common.h **** *
 983:Generated_Source\PSoC6\pdl\drivers\peripheral\scb/cy_scb_common.h **** *******************************************************************************/
 984:Generated_Source\PSoC6\pdl\drivers\peripheral\scb/cy_scb_common.h **** __STATIC_INLINE void Cy_SCB_SetRxInterrupt(CySCB_Type *base, uint32_t interruptMask)
 985:Generated_Source\PSoC6\pdl\drivers\peripheral\scb/cy_scb_common.h **** {
 986:Generated_Source\PSoC6\pdl\drivers\peripheral\scb/cy_scb_common.h ****     CY_ASSERT_L2(CY_SCB_IS_INTR_VALID(interruptMask, CY_SCB_RX_INTR_MASK));
 987:Generated_Source\PSoC6\pdl\drivers\peripheral\scb/cy_scb_common.h **** 
 988:Generated_Source\PSoC6\pdl\drivers\peripheral\scb/cy_scb_common.h ****     base->INTR_RX_SET = interruptMask;
 989:Generated_Source\PSoC6\pdl\drivers\peripheral\scb/cy_scb_common.h **** }
 990:Generated_Source\PSoC6\pdl\drivers\peripheral\scb/cy_scb_common.h **** 
 991:Generated_Source\PSoC6\pdl\drivers\peripheral\scb/cy_scb_common.h **** 
 992:Generated_Source\PSoC6\pdl\drivers\peripheral\scb/cy_scb_common.h **** /*******************************************************************************
 993:Generated_Source\PSoC6\pdl\drivers\peripheral\scb/cy_scb_common.h **** * Function Name: Cy_SCB_GetTxInterruptStatus
 994:Generated_Source\PSoC6\pdl\drivers\peripheral\scb/cy_scb_common.h **** ****************************************************************************//**
 995:Generated_Source\PSoC6\pdl\drivers\peripheral\scb/cy_scb_common.h **** *
 996:Generated_Source\PSoC6\pdl\drivers\peripheral\scb/cy_scb_common.h **** * Returns the TX interrupt request register. This register contains the current
 997:Generated_Source\PSoC6\pdl\drivers\peripheral\scb/cy_scb_common.h **** * status of the TX interrupt sources.
 998:Generated_Source\PSoC6\pdl\drivers\peripheral\scb/cy_scb_common.h **** *
 999:Generated_Source\PSoC6\pdl\drivers\peripheral\scb/cy_scb_common.h **** * \param base
1000:Generated_Source\PSoC6\pdl\drivers\peripheral\scb/cy_scb_common.h **** * The pointer to the SCB instance.
1001:Generated_Source\PSoC6\pdl\drivers\peripheral\scb/cy_scb_common.h **** *
1002:Generated_Source\PSoC6\pdl\drivers\peripheral\scb/cy_scb_common.h **** * \return
1003:Generated_Source\PSoC6\pdl\drivers\peripheral\scb/cy_scb_common.h **** * The current status of TX interrupt sources.
1004:Generated_Source\PSoC6\pdl\drivers\peripheral\scb/cy_scb_common.h **** * Each constant is a bit field value. The value returned may have multiple
1005:Generated_Source\PSoC6\pdl\drivers\peripheral\scb/cy_scb_common.h **** * bits set to indicate the current status.
1006:Generated_Source\PSoC6\pdl\drivers\peripheral\scb/cy_scb_common.h **** * See \ref group_scb_common_macros_tx_intr for the set of constants.
1007:Generated_Source\PSoC6\pdl\drivers\peripheral\scb/cy_scb_common.h **** *
1008:Generated_Source\PSoC6\pdl\drivers\peripheral\scb/cy_scb_common.h **** *******************************************************************************/
1009:Generated_Source\PSoC6\pdl\drivers\peripheral\scb/cy_scb_common.h **** __STATIC_INLINE uint32_t Cy_SCB_GetTxInterruptStatus(CySCB_Type const *base)
1010:Generated_Source\PSoC6\pdl\drivers\peripheral\scb/cy_scb_common.h **** {
 611              		.loc 1 1010 0
 612              		.cfi_startproc
 613              		@ args = 0, pretend = 0, frame = 8
 614              		@ frame_needed = 1, uses_anonymous_args = 0
 615              		@ link register save eliminated.
 616 0000 80B4     		push	{r7}
 617              		.cfi_def_cfa_offset 4
 618              		.cfi_offset 7, -4
 619 0002 83B0     		sub	sp, sp, #12
 620              		.cfi_def_cfa_offset 16
 621 0004 00AF     		add	r7, sp, #0
 622              		.cfi_def_cfa_register 7
 623 0006 7860     		str	r0, [r7, #4]
1011:Generated_Source\PSoC6\pdl\drivers\peripheral\scb/cy_scb_common.h ****     return (base->INTR_TX & CY_SCB_TX_INTR_MASK);
 624              		.loc 1 1011 0
 625 0008 7B68     		ldr	r3, [r7, #4]
 626 000a D3F8802F 		ldr	r2, [r3, #3968]
 627 000e 40F27373 		movw	r3, #1907
 628 0012 1340     		ands	r3, r3, r2
1012:Generated_Source\PSoC6\pdl\drivers\peripheral\scb/cy_scb_common.h **** }
 629              		.loc 1 1012 0
 630 0014 1846     		mov	r0, r3
 631 0016 0C37     		adds	r7, r7, #12
 632              		.cfi_def_cfa_offset 4
 633 0018 BD46     		mov	sp, r7
ARM GAS  C:\Users\ikomb\AppData\Local\Temp\cctq3ka9.s 			page 30


 634              		.cfi_def_cfa_register 13
 635              		@ sp needed
 636 001a 5DF8047B 		ldr	r7, [sp], #4
 637              		.cfi_restore 7
 638              		.cfi_def_cfa_offset 0
 639 001e 7047     		bx	lr
 640              		.cfi_endproc
 641              	.LFE177:
 642              		.size	Cy_SCB_GetTxInterruptStatus, .-Cy_SCB_GetTxInterruptStatus
 643              		.section	.text.Cy_SCB_SetTxInterruptMask,"ax",%progbits
 644              		.align	2
 645              		.thumb
 646              		.thumb_func
 647              		.type	Cy_SCB_SetTxInterruptMask, %function
 648              	Cy_SCB_SetTxInterruptMask:
 649              	.LFB178:
1013:Generated_Source\PSoC6\pdl\drivers\peripheral\scb/cy_scb_common.h **** 
1014:Generated_Source\PSoC6\pdl\drivers\peripheral\scb/cy_scb_common.h **** 
1015:Generated_Source\PSoC6\pdl\drivers\peripheral\scb/cy_scb_common.h **** /*******************************************************************************
1016:Generated_Source\PSoC6\pdl\drivers\peripheral\scb/cy_scb_common.h **** * Function Name: Cy_SCB_SetTxInterruptMask
1017:Generated_Source\PSoC6\pdl\drivers\peripheral\scb/cy_scb_common.h **** ****************************************************************************//**
1018:Generated_Source\PSoC6\pdl\drivers\peripheral\scb/cy_scb_common.h **** *
1019:Generated_Source\PSoC6\pdl\drivers\peripheral\scb/cy_scb_common.h **** * Writes the TX interrupt mask register. This register configures which bits
1020:Generated_Source\PSoC6\pdl\drivers\peripheral\scb/cy_scb_common.h **** * from the TX interrupt request register can trigger an interrupt event.
1021:Generated_Source\PSoC6\pdl\drivers\peripheral\scb/cy_scb_common.h **** *
1022:Generated_Source\PSoC6\pdl\drivers\peripheral\scb/cy_scb_common.h **** * \param base
1023:Generated_Source\PSoC6\pdl\drivers\peripheral\scb/cy_scb_common.h **** * The pointer to the SCB instance.
1024:Generated_Source\PSoC6\pdl\drivers\peripheral\scb/cy_scb_common.h **** *
1025:Generated_Source\PSoC6\pdl\drivers\peripheral\scb/cy_scb_common.h **** * \param interruptMask
1026:Generated_Source\PSoC6\pdl\drivers\peripheral\scb/cy_scb_common.h **** * Enabled TX interrupt sources.
1027:Generated_Source\PSoC6\pdl\drivers\peripheral\scb/cy_scb_common.h **** * See \ref group_scb_common_macros_tx_intr for the set of constants.
1028:Generated_Source\PSoC6\pdl\drivers\peripheral\scb/cy_scb_common.h **** *
1029:Generated_Source\PSoC6\pdl\drivers\peripheral\scb/cy_scb_common.h **** *******************************************************************************/
1030:Generated_Source\PSoC6\pdl\drivers\peripheral\scb/cy_scb_common.h **** __STATIC_INLINE void Cy_SCB_SetTxInterruptMask(CySCB_Type *base, uint32_t interruptMask)
1031:Generated_Source\PSoC6\pdl\drivers\peripheral\scb/cy_scb_common.h **** {
 650              		.loc 1 1031 0
 651              		.cfi_startproc
 652              		@ args = 0, pretend = 0, frame = 8
 653              		@ frame_needed = 1, uses_anonymous_args = 0
 654 0000 80B5     		push	{r7, lr}
 655              		.cfi_def_cfa_offset 8
 656              		.cfi_offset 7, -8
 657              		.cfi_offset 14, -4
 658 0002 82B0     		sub	sp, sp, #8
 659              		.cfi_def_cfa_offset 16
 660 0004 00AF     		add	r7, sp, #0
 661              		.cfi_def_cfa_register 7
 662 0006 7860     		str	r0, [r7, #4]
 663 0008 3960     		str	r1, [r7]
1032:Generated_Source\PSoC6\pdl\drivers\peripheral\scb/cy_scb_common.h ****     CY_ASSERT_L2(CY_SCB_IS_INTR_VALID(interruptMask, CY_SCB_TX_INTR_MASK));
 664              		.loc 1 1032 0
 665 000a 3B68     		ldr	r3, [r7]
 666 000c 23F4EE63 		bic	r3, r3, #1904
 667 0010 23F00303 		bic	r3, r3, #3
 668 0014 002B     		cmp	r3, #0
 669 0016 04D0     		beq	.L36
 670              		.loc 1 1032 0 is_stmt 0 discriminator 1
ARM GAS  C:\Users\ikomb\AppData\Local\Temp\cctq3ka9.s 			page 31


 671 0018 4FF48161 		mov	r1, #1032
 672 001c 0548     		ldr	r0, .L37
 673 001e FFF7FEFF 		bl	Cy_SysLib_AssertFailed
 674              	.L36:
1033:Generated_Source\PSoC6\pdl\drivers\peripheral\scb/cy_scb_common.h **** 
1034:Generated_Source\PSoC6\pdl\drivers\peripheral\scb/cy_scb_common.h ****     base->INTR_TX_MASK = interruptMask;
 675              		.loc 1 1034 0 is_stmt 1
 676 0022 7B68     		ldr	r3, [r7, #4]
 677 0024 3A68     		ldr	r2, [r7]
 678 0026 C3F8882F 		str	r2, [r3, #3976]
1035:Generated_Source\PSoC6\pdl\drivers\peripheral\scb/cy_scb_common.h **** }
 679              		.loc 1 1035 0
 680 002a 00BF     		nop
 681 002c 0837     		adds	r7, r7, #8
 682              		.cfi_def_cfa_offset 8
 683 002e BD46     		mov	sp, r7
 684              		.cfi_def_cfa_register 13
 685              		@ sp needed
 686 0030 80BD     		pop	{r7, pc}
 687              	.L38:
 688 0032 00BF     		.align	2
 689              	.L37:
 690 0034 00000000 		.word	.LC0
 691              		.cfi_endproc
 692              	.LFE178:
 693              		.size	Cy_SCB_SetTxInterruptMask, .-Cy_SCB_SetTxInterruptMask
 694              		.section	.text.Cy_SCB_GetTxInterruptMask,"ax",%progbits
 695              		.align	2
 696              		.thumb
 697              		.thumb_func
 698              		.type	Cy_SCB_GetTxInterruptMask, %function
 699              	Cy_SCB_GetTxInterruptMask:
 700              	.LFB179:
1036:Generated_Source\PSoC6\pdl\drivers\peripheral\scb/cy_scb_common.h **** 
1037:Generated_Source\PSoC6\pdl\drivers\peripheral\scb/cy_scb_common.h **** 
1038:Generated_Source\PSoC6\pdl\drivers\peripheral\scb/cy_scb_common.h **** /*******************************************************************************
1039:Generated_Source\PSoC6\pdl\drivers\peripheral\scb/cy_scb_common.h **** * Function Name: Cy_SCB_GetTxInterruptMask
1040:Generated_Source\PSoC6\pdl\drivers\peripheral\scb/cy_scb_common.h **** ****************************************************************************//**
1041:Generated_Source\PSoC6\pdl\drivers\peripheral\scb/cy_scb_common.h **** *
1042:Generated_Source\PSoC6\pdl\drivers\peripheral\scb/cy_scb_common.h **** * Returns the TX interrupt mask register. This register specifies which
1043:Generated_Source\PSoC6\pdl\drivers\peripheral\scb/cy_scb_common.h **** * bits from the TX interrupt request register can trigger an interrupt event.
1044:Generated_Source\PSoC6\pdl\drivers\peripheral\scb/cy_scb_common.h **** *
1045:Generated_Source\PSoC6\pdl\drivers\peripheral\scb/cy_scb_common.h **** * \param base
1046:Generated_Source\PSoC6\pdl\drivers\peripheral\scb/cy_scb_common.h **** * The pointer to the SCB instance.
1047:Generated_Source\PSoC6\pdl\drivers\peripheral\scb/cy_scb_common.h **** *
1048:Generated_Source\PSoC6\pdl\drivers\peripheral\scb/cy_scb_common.h **** * \return
1049:Generated_Source\PSoC6\pdl\drivers\peripheral\scb/cy_scb_common.h **** * Enabled TX interrupt sources.
1050:Generated_Source\PSoC6\pdl\drivers\peripheral\scb/cy_scb_common.h **** * See \ref group_scb_common_macros_tx_intr for the set of constants.
1051:Generated_Source\PSoC6\pdl\drivers\peripheral\scb/cy_scb_common.h **** *
1052:Generated_Source\PSoC6\pdl\drivers\peripheral\scb/cy_scb_common.h **** *******************************************************************************/
1053:Generated_Source\PSoC6\pdl\drivers\peripheral\scb/cy_scb_common.h **** __STATIC_INLINE uint32_t Cy_SCB_GetTxInterruptMask(CySCB_Type const *base)
1054:Generated_Source\PSoC6\pdl\drivers\peripheral\scb/cy_scb_common.h **** {
 701              		.loc 1 1054 0
 702              		.cfi_startproc
 703              		@ args = 0, pretend = 0, frame = 8
 704              		@ frame_needed = 1, uses_anonymous_args = 0
 705              		@ link register save eliminated.
ARM GAS  C:\Users\ikomb\AppData\Local\Temp\cctq3ka9.s 			page 32


 706 0000 80B4     		push	{r7}
 707              		.cfi_def_cfa_offset 4
 708              		.cfi_offset 7, -4
 709 0002 83B0     		sub	sp, sp, #12
 710              		.cfi_def_cfa_offset 16
 711 0004 00AF     		add	r7, sp, #0
 712              		.cfi_def_cfa_register 7
 713 0006 7860     		str	r0, [r7, #4]
1055:Generated_Source\PSoC6\pdl\drivers\peripheral\scb/cy_scb_common.h ****     return (base->INTR_TX_MASK);
 714              		.loc 1 1055 0
 715 0008 7B68     		ldr	r3, [r7, #4]
 716 000a D3F8883F 		ldr	r3, [r3, #3976]
1056:Generated_Source\PSoC6\pdl\drivers\peripheral\scb/cy_scb_common.h **** }
 717              		.loc 1 1056 0
 718 000e 1846     		mov	r0, r3
 719 0010 0C37     		adds	r7, r7, #12
 720              		.cfi_def_cfa_offset 4
 721 0012 BD46     		mov	sp, r7
 722              		.cfi_def_cfa_register 13
 723              		@ sp needed
 724 0014 5DF8047B 		ldr	r7, [sp], #4
 725              		.cfi_restore 7
 726              		.cfi_def_cfa_offset 0
 727 0018 7047     		bx	lr
 728              		.cfi_endproc
 729              	.LFE179:
 730              		.size	Cy_SCB_GetTxInterruptMask, .-Cy_SCB_GetTxInterruptMask
 731 001a 00BF     		.section	.text.Cy_SCB_GetTxInterruptStatusMasked,"ax",%progbits
 732              		.align	2
 733              		.thumb
 734              		.thumb_func
 735              		.type	Cy_SCB_GetTxInterruptStatusMasked, %function
 736              	Cy_SCB_GetTxInterruptStatusMasked:
 737              	.LFB180:
1057:Generated_Source\PSoC6\pdl\drivers\peripheral\scb/cy_scb_common.h **** 
1058:Generated_Source\PSoC6\pdl\drivers\peripheral\scb/cy_scb_common.h **** 
1059:Generated_Source\PSoC6\pdl\drivers\peripheral\scb/cy_scb_common.h **** /*******************************************************************************
1060:Generated_Source\PSoC6\pdl\drivers\peripheral\scb/cy_scb_common.h **** * Function Name: Cy_SCB_GetTxInterruptStatusMasked
1061:Generated_Source\PSoC6\pdl\drivers\peripheral\scb/cy_scb_common.h **** ****************************************************************************//**
1062:Generated_Source\PSoC6\pdl\drivers\peripheral\scb/cy_scb_common.h **** *
1063:Generated_Source\PSoC6\pdl\drivers\peripheral\scb/cy_scb_common.h **** * Returns the TX interrupt masked request register. This register contains
1064:Generated_Source\PSoC6\pdl\drivers\peripheral\scb/cy_scb_common.h **** * a logical AND of corresponding bits from the TX interrupt request and
1065:Generated_Source\PSoC6\pdl\drivers\peripheral\scb/cy_scb_common.h **** * mask registers.
1066:Generated_Source\PSoC6\pdl\drivers\peripheral\scb/cy_scb_common.h **** * This function is intended to be used in the interrupt service routine to
1067:Generated_Source\PSoC6\pdl\drivers\peripheral\scb/cy_scb_common.h **** * identify which of enabled TX interrupt sources caused the interrupt event.
1068:Generated_Source\PSoC6\pdl\drivers\peripheral\scb/cy_scb_common.h **** *
1069:Generated_Source\PSoC6\pdl\drivers\peripheral\scb/cy_scb_common.h **** * \param base
1070:Generated_Source\PSoC6\pdl\drivers\peripheral\scb/cy_scb_common.h **** * The pointer to the SCB instance.
1071:Generated_Source\PSoC6\pdl\drivers\peripheral\scb/cy_scb_common.h **** *
1072:Generated_Source\PSoC6\pdl\drivers\peripheral\scb/cy_scb_common.h **** * \return
1073:Generated_Source\PSoC6\pdl\drivers\peripheral\scb/cy_scb_common.h **** * The current status of enabled TX interrupt sources.
1074:Generated_Source\PSoC6\pdl\drivers\peripheral\scb/cy_scb_common.h **** * See \ref group_scb_common_macros_tx_intr for the set of constants.
1075:Generated_Source\PSoC6\pdl\drivers\peripheral\scb/cy_scb_common.h **** *
1076:Generated_Source\PSoC6\pdl\drivers\peripheral\scb/cy_scb_common.h **** *******************************************************************************/
1077:Generated_Source\PSoC6\pdl\drivers\peripheral\scb/cy_scb_common.h **** __STATIC_INLINE uint32_t Cy_SCB_GetTxInterruptStatusMasked(CySCB_Type const *base)
1078:Generated_Source\PSoC6\pdl\drivers\peripheral\scb/cy_scb_common.h **** {
 738              		.loc 1 1078 0
ARM GAS  C:\Users\ikomb\AppData\Local\Temp\cctq3ka9.s 			page 33


 739              		.cfi_startproc
 740              		@ args = 0, pretend = 0, frame = 8
 741              		@ frame_needed = 1, uses_anonymous_args = 0
 742              		@ link register save eliminated.
 743 0000 80B4     		push	{r7}
 744              		.cfi_def_cfa_offset 4
 745              		.cfi_offset 7, -4
 746 0002 83B0     		sub	sp, sp, #12
 747              		.cfi_def_cfa_offset 16
 748 0004 00AF     		add	r7, sp, #0
 749              		.cfi_def_cfa_register 7
 750 0006 7860     		str	r0, [r7, #4]
1079:Generated_Source\PSoC6\pdl\drivers\peripheral\scb/cy_scb_common.h ****     return (base->INTR_TX_MASKED);
 751              		.loc 1 1079 0
 752 0008 7B68     		ldr	r3, [r7, #4]
 753 000a D3F88C3F 		ldr	r3, [r3, #3980]
1080:Generated_Source\PSoC6\pdl\drivers\peripheral\scb/cy_scb_common.h **** }
 754              		.loc 1 1080 0
 755 000e 1846     		mov	r0, r3
 756 0010 0C37     		adds	r7, r7, #12
 757              		.cfi_def_cfa_offset 4
 758 0012 BD46     		mov	sp, r7
 759              		.cfi_def_cfa_register 13
 760              		@ sp needed
 761 0014 5DF8047B 		ldr	r7, [sp], #4
 762              		.cfi_restore 7
 763              		.cfi_def_cfa_offset 0
 764 0018 7047     		bx	lr
 765              		.cfi_endproc
 766              	.LFE180:
 767              		.size	Cy_SCB_GetTxInterruptStatusMasked, .-Cy_SCB_GetTxInterruptStatusMasked
 768 001a 00BF     		.section	.text.Cy_SCB_ClearTxInterrupt,"ax",%progbits
 769              		.align	2
 770              		.thumb
 771              		.thumb_func
 772              		.type	Cy_SCB_ClearTxInterrupt, %function
 773              	Cy_SCB_ClearTxInterrupt:
 774              	.LFB181:
1081:Generated_Source\PSoC6\pdl\drivers\peripheral\scb/cy_scb_common.h **** 
1082:Generated_Source\PSoC6\pdl\drivers\peripheral\scb/cy_scb_common.h **** 
1083:Generated_Source\PSoC6\pdl\drivers\peripheral\scb/cy_scb_common.h **** /*******************************************************************************
1084:Generated_Source\PSoC6\pdl\drivers\peripheral\scb/cy_scb_common.h **** * Function Name: Cy_SCB_ClearTxInterrupt
1085:Generated_Source\PSoC6\pdl\drivers\peripheral\scb/cy_scb_common.h **** ****************************************************************************//**
1086:Generated_Source\PSoC6\pdl\drivers\peripheral\scb/cy_scb_common.h **** *
1087:Generated_Source\PSoC6\pdl\drivers\peripheral\scb/cy_scb_common.h **** * Clears the TX interrupt sources in the interrupt request register.
1088:Generated_Source\PSoC6\pdl\drivers\peripheral\scb/cy_scb_common.h **** *
1089:Generated_Source\PSoC6\pdl\drivers\peripheral\scb/cy_scb_common.h **** * \param base
1090:Generated_Source\PSoC6\pdl\drivers\peripheral\scb/cy_scb_common.h **** * The pointer to the SCB instance.
1091:Generated_Source\PSoC6\pdl\drivers\peripheral\scb/cy_scb_common.h **** *
1092:Generated_Source\PSoC6\pdl\drivers\peripheral\scb/cy_scb_common.h **** * \param interruptMask
1093:Generated_Source\PSoC6\pdl\drivers\peripheral\scb/cy_scb_common.h **** * The TX interrupt sources to be cleared.
1094:Generated_Source\PSoC6\pdl\drivers\peripheral\scb/cy_scb_common.h **** * See \ref group_scb_common_macros_tx_intr for the set of constants.
1095:Generated_Source\PSoC6\pdl\drivers\peripheral\scb/cy_scb_common.h **** *
1096:Generated_Source\PSoC6\pdl\drivers\peripheral\scb/cy_scb_common.h **** * \note
1097:Generated_Source\PSoC6\pdl\drivers\peripheral\scb/cy_scb_common.h **** *  - CY_SCB_INTR_TX_FIFO_LEVEL interrupt source is not cleared when the
1098:Generated_Source\PSoC6\pdl\drivers\peripheral\scb/cy_scb_common.h **** *    TX FIFO has fewer entries than the TX level.
1099:Generated_Source\PSoC6\pdl\drivers\peripheral\scb/cy_scb_common.h **** *  - CY_SCB_INTR_TX_NOT_FULL interrupt source is not cleared when the
ARM GAS  C:\Users\ikomb\AppData\Local\Temp\cctq3ka9.s 			page 34


1100:Generated_Source\PSoC6\pdl\drivers\peripheral\scb/cy_scb_common.h **** *    TX FIFO has empty entries in the TX FIFO.
1101:Generated_Source\PSoC6\pdl\drivers\peripheral\scb/cy_scb_common.h **** *  - CY_SCB_INTR_TX_EMPTY interrupt source is not cleared when the
1102:Generated_Source\PSoC6\pdl\drivers\peripheral\scb/cy_scb_common.h **** *    TX FIFO is empty.
1103:Generated_Source\PSoC6\pdl\drivers\peripheral\scb/cy_scb_common.h **** *  - CY_SCB_INTR_TX_UNDERFLOW interrupt source is not cleared when the
1104:Generated_Source\PSoC6\pdl\drivers\peripheral\scb/cy_scb_common.h **** *    TX FIFO is empty. Put data into the TX FIFO before clearing it.
1105:Generated_Source\PSoC6\pdl\drivers\peripheral\scb/cy_scb_common.h **** *
1106:Generated_Source\PSoC6\pdl\drivers\peripheral\scb/cy_scb_common.h **** *******************************************************************************/
1107:Generated_Source\PSoC6\pdl\drivers\peripheral\scb/cy_scb_common.h **** __STATIC_INLINE void Cy_SCB_ClearTxInterrupt(CySCB_Type *base, uint32_t interruptMask)
1108:Generated_Source\PSoC6\pdl\drivers\peripheral\scb/cy_scb_common.h **** {
 775              		.loc 1 1108 0
 776              		.cfi_startproc
 777              		@ args = 0, pretend = 0, frame = 8
 778              		@ frame_needed = 1, uses_anonymous_args = 0
 779 0000 80B5     		push	{r7, lr}
 780              		.cfi_def_cfa_offset 8
 781              		.cfi_offset 7, -8
 782              		.cfi_offset 14, -4
 783 0002 82B0     		sub	sp, sp, #8
 784              		.cfi_def_cfa_offset 16
 785 0004 00AF     		add	r7, sp, #0
 786              		.cfi_def_cfa_register 7
 787 0006 7860     		str	r0, [r7, #4]
 788 0008 3960     		str	r1, [r7]
1109:Generated_Source\PSoC6\pdl\drivers\peripheral\scb/cy_scb_common.h ****     CY_ASSERT_L2(CY_SCB_IS_INTR_VALID(interruptMask, CY_SCB_TX_INTR_MASK));
 789              		.loc 1 1109 0
 790 000a 3B68     		ldr	r3, [r7]
 791 000c 23F4EE63 		bic	r3, r3, #1904
 792 0010 23F00303 		bic	r3, r3, #3
 793 0014 002B     		cmp	r3, #0
 794 0016 04D0     		beq	.L44
 795              		.loc 1 1109 0 is_stmt 0 discriminator 1
 796 0018 40F25541 		movw	r1, #1109
 797 001c 0648     		ldr	r0, .L45
 798 001e FFF7FEFF 		bl	Cy_SysLib_AssertFailed
 799              	.L44:
1110:Generated_Source\PSoC6\pdl\drivers\peripheral\scb/cy_scb_common.h **** 
1111:Generated_Source\PSoC6\pdl\drivers\peripheral\scb/cy_scb_common.h ****     base->INTR_TX = interruptMask;
 800              		.loc 1 1111 0 is_stmt 1
 801 0022 7B68     		ldr	r3, [r7, #4]
 802 0024 3A68     		ldr	r2, [r7]
 803 0026 C3F8802F 		str	r2, [r3, #3968]
1112:Generated_Source\PSoC6\pdl\drivers\peripheral\scb/cy_scb_common.h ****     (void) base->INTR_TX;
 804              		.loc 1 1112 0
 805 002a 7B68     		ldr	r3, [r7, #4]
 806 002c D3F8803F 		ldr	r3, [r3, #3968]
1113:Generated_Source\PSoC6\pdl\drivers\peripheral\scb/cy_scb_common.h **** }
 807              		.loc 1 1113 0
 808 0030 00BF     		nop
 809 0032 0837     		adds	r7, r7, #8
 810              		.cfi_def_cfa_offset 8
 811 0034 BD46     		mov	sp, r7
 812              		.cfi_def_cfa_register 13
 813              		@ sp needed
 814 0036 80BD     		pop	{r7, pc}
 815              	.L46:
 816              		.align	2
 817              	.L45:
ARM GAS  C:\Users\ikomb\AppData\Local\Temp\cctq3ka9.s 			page 35


 818 0038 00000000 		.word	.LC0
 819              		.cfi_endproc
 820              	.LFE181:
 821              		.size	Cy_SCB_ClearTxInterrupt, .-Cy_SCB_ClearTxInterrupt
 822              		.section	.text.Cy_SCB_GetFifoSize,"ax",%progbits
 823              		.align	2
 824              		.thumb
 825              		.thumb_func
 826              		.type	Cy_SCB_GetFifoSize, %function
 827              	Cy_SCB_GetFifoSize:
 828              	.LFB205:
1114:Generated_Source\PSoC6\pdl\drivers\peripheral\scb/cy_scb_common.h **** 
1115:Generated_Source\PSoC6\pdl\drivers\peripheral\scb/cy_scb_common.h **** 
1116:Generated_Source\PSoC6\pdl\drivers\peripheral\scb/cy_scb_common.h **** /*******************************************************************************
1117:Generated_Source\PSoC6\pdl\drivers\peripheral\scb/cy_scb_common.h **** * Function Name: Cy_SCB_SetTxInterrupt
1118:Generated_Source\PSoC6\pdl\drivers\peripheral\scb/cy_scb_common.h **** ****************************************************************************//**
1119:Generated_Source\PSoC6\pdl\drivers\peripheral\scb/cy_scb_common.h **** *
1120:Generated_Source\PSoC6\pdl\drivers\peripheral\scb/cy_scb_common.h **** * Sets TX interrupt sources in the interrupt request register.
1121:Generated_Source\PSoC6\pdl\drivers\peripheral\scb/cy_scb_common.h **** *
1122:Generated_Source\PSoC6\pdl\drivers\peripheral\scb/cy_scb_common.h **** * \param base
1123:Generated_Source\PSoC6\pdl\drivers\peripheral\scb/cy_scb_common.h **** * The pointer to the SCB instance.
1124:Generated_Source\PSoC6\pdl\drivers\peripheral\scb/cy_scb_common.h **** *
1125:Generated_Source\PSoC6\pdl\drivers\peripheral\scb/cy_scb_common.h **** * \param interruptMask
1126:Generated_Source\PSoC6\pdl\drivers\peripheral\scb/cy_scb_common.h **** * The TX interrupt sources to set in the TX interrupt request register.
1127:Generated_Source\PSoC6\pdl\drivers\peripheral\scb/cy_scb_common.h **** * See \ref group_scb_common_macros_tx_intr for the set of constants.
1128:Generated_Source\PSoC6\pdl\drivers\peripheral\scb/cy_scb_common.h **** *
1129:Generated_Source\PSoC6\pdl\drivers\peripheral\scb/cy_scb_common.h **** *******************************************************************************/
1130:Generated_Source\PSoC6\pdl\drivers\peripheral\scb/cy_scb_common.h **** __STATIC_INLINE void Cy_SCB_SetTxInterrupt(CySCB_Type *base, uint32_t interruptMask)
1131:Generated_Source\PSoC6\pdl\drivers\peripheral\scb/cy_scb_common.h **** {
1132:Generated_Source\PSoC6\pdl\drivers\peripheral\scb/cy_scb_common.h ****     CY_ASSERT_L2(CY_SCB_IS_INTR_VALID(interruptMask, CY_SCB_TX_INTR_MASK));
1133:Generated_Source\PSoC6\pdl\drivers\peripheral\scb/cy_scb_common.h **** 
1134:Generated_Source\PSoC6\pdl\drivers\peripheral\scb/cy_scb_common.h ****     base->INTR_TX_SET = interruptMask;
1135:Generated_Source\PSoC6\pdl\drivers\peripheral\scb/cy_scb_common.h **** }
1136:Generated_Source\PSoC6\pdl\drivers\peripheral\scb/cy_scb_common.h **** 
1137:Generated_Source\PSoC6\pdl\drivers\peripheral\scb/cy_scb_common.h **** 
1138:Generated_Source\PSoC6\pdl\drivers\peripheral\scb/cy_scb_common.h **** /*******************************************************************************
1139:Generated_Source\PSoC6\pdl\drivers\peripheral\scb/cy_scb_common.h **** * Function Name: Cy_SCB_GetMasterInterruptStatus
1140:Generated_Source\PSoC6\pdl\drivers\peripheral\scb/cy_scb_common.h **** ****************************************************************************//**
1141:Generated_Source\PSoC6\pdl\drivers\peripheral\scb/cy_scb_common.h **** *
1142:Generated_Source\PSoC6\pdl\drivers\peripheral\scb/cy_scb_common.h **** * Returns the master interrupt request register. This register contains the current
1143:Generated_Source\PSoC6\pdl\drivers\peripheral\scb/cy_scb_common.h **** * status of the master interrupt sources.
1144:Generated_Source\PSoC6\pdl\drivers\peripheral\scb/cy_scb_common.h **** *
1145:Generated_Source\PSoC6\pdl\drivers\peripheral\scb/cy_scb_common.h **** * \param base
1146:Generated_Source\PSoC6\pdl\drivers\peripheral\scb/cy_scb_common.h **** * The pointer to the SCB instance.
1147:Generated_Source\PSoC6\pdl\drivers\peripheral\scb/cy_scb_common.h **** *
1148:Generated_Source\PSoC6\pdl\drivers\peripheral\scb/cy_scb_common.h **** * \return
1149:Generated_Source\PSoC6\pdl\drivers\peripheral\scb/cy_scb_common.h **** * The current status of the master interrupt sources.
1150:Generated_Source\PSoC6\pdl\drivers\peripheral\scb/cy_scb_common.h **** * Each constant is a bit field value. The value returned may have multiple
1151:Generated_Source\PSoC6\pdl\drivers\peripheral\scb/cy_scb_common.h **** * bits set to indicate the current status.
1152:Generated_Source\PSoC6\pdl\drivers\peripheral\scb/cy_scb_common.h **** * See \ref group_scb_common_macros_master_intr for the set of constants.
1153:Generated_Source\PSoC6\pdl\drivers\peripheral\scb/cy_scb_common.h **** *
1154:Generated_Source\PSoC6\pdl\drivers\peripheral\scb/cy_scb_common.h **** *******************************************************************************/
1155:Generated_Source\PSoC6\pdl\drivers\peripheral\scb/cy_scb_common.h **** __STATIC_INLINE uint32_t Cy_SCB_GetMasterInterruptStatus(CySCB_Type const *base)
1156:Generated_Source\PSoC6\pdl\drivers\peripheral\scb/cy_scb_common.h **** {
1157:Generated_Source\PSoC6\pdl\drivers\peripheral\scb/cy_scb_common.h ****     return (base->INTR_M & CY_SCB_MASTER_INTR_MASK);
1158:Generated_Source\PSoC6\pdl\drivers\peripheral\scb/cy_scb_common.h **** }
1159:Generated_Source\PSoC6\pdl\drivers\peripheral\scb/cy_scb_common.h **** 
ARM GAS  C:\Users\ikomb\AppData\Local\Temp\cctq3ka9.s 			page 36


1160:Generated_Source\PSoC6\pdl\drivers\peripheral\scb/cy_scb_common.h **** 
1161:Generated_Source\PSoC6\pdl\drivers\peripheral\scb/cy_scb_common.h **** /*******************************************************************************
1162:Generated_Source\PSoC6\pdl\drivers\peripheral\scb/cy_scb_common.h **** * Function Name: Cy_SCB_SetMasterInterruptMask
1163:Generated_Source\PSoC6\pdl\drivers\peripheral\scb/cy_scb_common.h **** ****************************************************************************//**
1164:Generated_Source\PSoC6\pdl\drivers\peripheral\scb/cy_scb_common.h **** *
1165:Generated_Source\PSoC6\pdl\drivers\peripheral\scb/cy_scb_common.h **** * Writes the master interrupt mask register. This register specifies which bits
1166:Generated_Source\PSoC6\pdl\drivers\peripheral\scb/cy_scb_common.h **** * from the master interrupt request register can trigger an interrupt event.
1167:Generated_Source\PSoC6\pdl\drivers\peripheral\scb/cy_scb_common.h **** *
1168:Generated_Source\PSoC6\pdl\drivers\peripheral\scb/cy_scb_common.h **** * \param base
1169:Generated_Source\PSoC6\pdl\drivers\peripheral\scb/cy_scb_common.h **** * The pointer to the SCB instance.
1170:Generated_Source\PSoC6\pdl\drivers\peripheral\scb/cy_scb_common.h **** *
1171:Generated_Source\PSoC6\pdl\drivers\peripheral\scb/cy_scb_common.h **** * \param interruptMask
1172:Generated_Source\PSoC6\pdl\drivers\peripheral\scb/cy_scb_common.h **** * The master interrupt sources to be enable.
1173:Generated_Source\PSoC6\pdl\drivers\peripheral\scb/cy_scb_common.h **** * See \ref group_scb_common_macros_master_intr for the set of constants.
1174:Generated_Source\PSoC6\pdl\drivers\peripheral\scb/cy_scb_common.h **** *
1175:Generated_Source\PSoC6\pdl\drivers\peripheral\scb/cy_scb_common.h **** *******************************************************************************/
1176:Generated_Source\PSoC6\pdl\drivers\peripheral\scb/cy_scb_common.h **** __STATIC_INLINE void Cy_SCB_SetMasterInterruptMask(CySCB_Type *base, uint32_t interruptMask)
1177:Generated_Source\PSoC6\pdl\drivers\peripheral\scb/cy_scb_common.h **** {
1178:Generated_Source\PSoC6\pdl\drivers\peripheral\scb/cy_scb_common.h ****     CY_ASSERT_L2(CY_SCB_IS_INTR_VALID(interruptMask, CY_SCB_MASTER_INTR_MASK));
1179:Generated_Source\PSoC6\pdl\drivers\peripheral\scb/cy_scb_common.h **** 
1180:Generated_Source\PSoC6\pdl\drivers\peripheral\scb/cy_scb_common.h ****     base->INTR_M_MASK = interruptMask;
1181:Generated_Source\PSoC6\pdl\drivers\peripheral\scb/cy_scb_common.h **** }
1182:Generated_Source\PSoC6\pdl\drivers\peripheral\scb/cy_scb_common.h **** 
1183:Generated_Source\PSoC6\pdl\drivers\peripheral\scb/cy_scb_common.h **** 
1184:Generated_Source\PSoC6\pdl\drivers\peripheral\scb/cy_scb_common.h **** /*******************************************************************************
1185:Generated_Source\PSoC6\pdl\drivers\peripheral\scb/cy_scb_common.h **** * Function Name: Cy_SCB_GetMasterInterruptMask
1186:Generated_Source\PSoC6\pdl\drivers\peripheral\scb/cy_scb_common.h **** ****************************************************************************//**
1187:Generated_Source\PSoC6\pdl\drivers\peripheral\scb/cy_scb_common.h **** *
1188:Generated_Source\PSoC6\pdl\drivers\peripheral\scb/cy_scb_common.h **** * Returns the master interrupt mask register. This register specifies which bits
1189:Generated_Source\PSoC6\pdl\drivers\peripheral\scb/cy_scb_common.h **** * from the master interrupt request register can trigger an interrupt event.
1190:Generated_Source\PSoC6\pdl\drivers\peripheral\scb/cy_scb_common.h **** *
1191:Generated_Source\PSoC6\pdl\drivers\peripheral\scb/cy_scb_common.h **** * \param base
1192:Generated_Source\PSoC6\pdl\drivers\peripheral\scb/cy_scb_common.h **** * The pointer to the SCB instance.
1193:Generated_Source\PSoC6\pdl\drivers\peripheral\scb/cy_scb_common.h **** *
1194:Generated_Source\PSoC6\pdl\drivers\peripheral\scb/cy_scb_common.h **** * \return
1195:Generated_Source\PSoC6\pdl\drivers\peripheral\scb/cy_scb_common.h **** * Enabled master interrupt sources.
1196:Generated_Source\PSoC6\pdl\drivers\peripheral\scb/cy_scb_common.h **** * See \ref group_scb_common_macros_master_intr for the set of constants.
1197:Generated_Source\PSoC6\pdl\drivers\peripheral\scb/cy_scb_common.h **** *
1198:Generated_Source\PSoC6\pdl\drivers\peripheral\scb/cy_scb_common.h **** *******************************************************************************/
1199:Generated_Source\PSoC6\pdl\drivers\peripheral\scb/cy_scb_common.h **** __STATIC_INLINE uint32_t Cy_SCB_GetMasterInterruptMask(CySCB_Type const *base)
1200:Generated_Source\PSoC6\pdl\drivers\peripheral\scb/cy_scb_common.h **** {
1201:Generated_Source\PSoC6\pdl\drivers\peripheral\scb/cy_scb_common.h ****     return (base->INTR_M_MASK);
1202:Generated_Source\PSoC6\pdl\drivers\peripheral\scb/cy_scb_common.h **** }
1203:Generated_Source\PSoC6\pdl\drivers\peripheral\scb/cy_scb_common.h **** 
1204:Generated_Source\PSoC6\pdl\drivers\peripheral\scb/cy_scb_common.h **** 
1205:Generated_Source\PSoC6\pdl\drivers\peripheral\scb/cy_scb_common.h **** /*******************************************************************************
1206:Generated_Source\PSoC6\pdl\drivers\peripheral\scb/cy_scb_common.h **** * Function Name: Cy_SCB_GetMasterInterruptStatusMasked
1207:Generated_Source\PSoC6\pdl\drivers\peripheral\scb/cy_scb_common.h **** ****************************************************************************//**
1208:Generated_Source\PSoC6\pdl\drivers\peripheral\scb/cy_scb_common.h **** *
1209:Generated_Source\PSoC6\pdl\drivers\peripheral\scb/cy_scb_common.h **** * Returns the master interrupt masked request register. This register contains a
1210:Generated_Source\PSoC6\pdl\drivers\peripheral\scb/cy_scb_common.h **** * logical AND of corresponding bits from the master interrupt request and mask
1211:Generated_Source\PSoC6\pdl\drivers\peripheral\scb/cy_scb_common.h **** * registers.
1212:Generated_Source\PSoC6\pdl\drivers\peripheral\scb/cy_scb_common.h **** * This function is intended to be used in the interrupt service routine to
1213:Generated_Source\PSoC6\pdl\drivers\peripheral\scb/cy_scb_common.h **** * identify which of the enabled master interrupt sources caused the interrupt
1214:Generated_Source\PSoC6\pdl\drivers\peripheral\scb/cy_scb_common.h **** * event.
1215:Generated_Source\PSoC6\pdl\drivers\peripheral\scb/cy_scb_common.h **** *
1216:Generated_Source\PSoC6\pdl\drivers\peripheral\scb/cy_scb_common.h **** * \param base
ARM GAS  C:\Users\ikomb\AppData\Local\Temp\cctq3ka9.s 			page 37


1217:Generated_Source\PSoC6\pdl\drivers\peripheral\scb/cy_scb_common.h **** * The pointer to the SCB instance.
1218:Generated_Source\PSoC6\pdl\drivers\peripheral\scb/cy_scb_common.h **** *
1219:Generated_Source\PSoC6\pdl\drivers\peripheral\scb/cy_scb_common.h **** * \return
1220:Generated_Source\PSoC6\pdl\drivers\peripheral\scb/cy_scb_common.h **** * The current status of enabled master interrupt sources.
1221:Generated_Source\PSoC6\pdl\drivers\peripheral\scb/cy_scb_common.h **** * See \ref group_scb_common_macros_master_intr for the set of constants.
1222:Generated_Source\PSoC6\pdl\drivers\peripheral\scb/cy_scb_common.h **** *
1223:Generated_Source\PSoC6\pdl\drivers\peripheral\scb/cy_scb_common.h **** *******************************************************************************/
1224:Generated_Source\PSoC6\pdl\drivers\peripheral\scb/cy_scb_common.h **** __STATIC_INLINE uint32_t Cy_SCB_GetMasterInterruptStatusMasked(CySCB_Type const *base)
1225:Generated_Source\PSoC6\pdl\drivers\peripheral\scb/cy_scb_common.h **** {
1226:Generated_Source\PSoC6\pdl\drivers\peripheral\scb/cy_scb_common.h ****     return (base->INTR_M_MASKED);
1227:Generated_Source\PSoC6\pdl\drivers\peripheral\scb/cy_scb_common.h **** }
1228:Generated_Source\PSoC6\pdl\drivers\peripheral\scb/cy_scb_common.h **** 
1229:Generated_Source\PSoC6\pdl\drivers\peripheral\scb/cy_scb_common.h **** 
1230:Generated_Source\PSoC6\pdl\drivers\peripheral\scb/cy_scb_common.h **** /*******************************************************************************
1231:Generated_Source\PSoC6\pdl\drivers\peripheral\scb/cy_scb_common.h **** * Function Name: Cy_SCB_ClearMasterInterrupt
1232:Generated_Source\PSoC6\pdl\drivers\peripheral\scb/cy_scb_common.h **** ****************************************************************************//**
1233:Generated_Source\PSoC6\pdl\drivers\peripheral\scb/cy_scb_common.h **** *
1234:Generated_Source\PSoC6\pdl\drivers\peripheral\scb/cy_scb_common.h **** * Clears master interrupt sources in the interrupt request register.
1235:Generated_Source\PSoC6\pdl\drivers\peripheral\scb/cy_scb_common.h **** *
1236:Generated_Source\PSoC6\pdl\drivers\peripheral\scb/cy_scb_common.h **** * \param base
1237:Generated_Source\PSoC6\pdl\drivers\peripheral\scb/cy_scb_common.h **** * The pointer to the SCB instance.
1238:Generated_Source\PSoC6\pdl\drivers\peripheral\scb/cy_scb_common.h **** *
1239:Generated_Source\PSoC6\pdl\drivers\peripheral\scb/cy_scb_common.h **** * \param interruptMask
1240:Generated_Source\PSoC6\pdl\drivers\peripheral\scb/cy_scb_common.h **** * The master interrupt sources to be cleared.
1241:Generated_Source\PSoC6\pdl\drivers\peripheral\scb/cy_scb_common.h **** * See \ref group_scb_common_macros_master_intr for the set of constants.
1242:Generated_Source\PSoC6\pdl\drivers\peripheral\scb/cy_scb_common.h **** *
1243:Generated_Source\PSoC6\pdl\drivers\peripheral\scb/cy_scb_common.h **** *******************************************************************************/
1244:Generated_Source\PSoC6\pdl\drivers\peripheral\scb/cy_scb_common.h **** __STATIC_INLINE void Cy_SCB_ClearMasterInterrupt(CySCB_Type *base, uint32_t interruptMask)
1245:Generated_Source\PSoC6\pdl\drivers\peripheral\scb/cy_scb_common.h **** {
1246:Generated_Source\PSoC6\pdl\drivers\peripheral\scb/cy_scb_common.h ****     CY_ASSERT_L2(CY_SCB_IS_INTR_VALID(interruptMask, CY_SCB_MASTER_INTR_MASK));
1247:Generated_Source\PSoC6\pdl\drivers\peripheral\scb/cy_scb_common.h **** 
1248:Generated_Source\PSoC6\pdl\drivers\peripheral\scb/cy_scb_common.h ****     base->INTR_M = interruptMask;
1249:Generated_Source\PSoC6\pdl\drivers\peripheral\scb/cy_scb_common.h ****     (void) base->INTR_M;
1250:Generated_Source\PSoC6\pdl\drivers\peripheral\scb/cy_scb_common.h **** }
1251:Generated_Source\PSoC6\pdl\drivers\peripheral\scb/cy_scb_common.h **** 
1252:Generated_Source\PSoC6\pdl\drivers\peripheral\scb/cy_scb_common.h **** 
1253:Generated_Source\PSoC6\pdl\drivers\peripheral\scb/cy_scb_common.h **** /*******************************************************************************
1254:Generated_Source\PSoC6\pdl\drivers\peripheral\scb/cy_scb_common.h **** * Function Name: Cy_SCB_SetMasterInterrupt
1255:Generated_Source\PSoC6\pdl\drivers\peripheral\scb/cy_scb_common.h **** ****************************************************************************//**
1256:Generated_Source\PSoC6\pdl\drivers\peripheral\scb/cy_scb_common.h **** *
1257:Generated_Source\PSoC6\pdl\drivers\peripheral\scb/cy_scb_common.h **** * Sets master interrupt sources in the interrupt request register.
1258:Generated_Source\PSoC6\pdl\drivers\peripheral\scb/cy_scb_common.h **** *
1259:Generated_Source\PSoC6\pdl\drivers\peripheral\scb/cy_scb_common.h **** * \param base
1260:Generated_Source\PSoC6\pdl\drivers\peripheral\scb/cy_scb_common.h **** * The pointer to the SCB instance.
1261:Generated_Source\PSoC6\pdl\drivers\peripheral\scb/cy_scb_common.h **** *
1262:Generated_Source\PSoC6\pdl\drivers\peripheral\scb/cy_scb_common.h **** * \param interruptMask
1263:Generated_Source\PSoC6\pdl\drivers\peripheral\scb/cy_scb_common.h **** * The master interrupt sources to set in the master interrupt request register.
1264:Generated_Source\PSoC6\pdl\drivers\peripheral\scb/cy_scb_common.h **** * See \ref group_scb_common_macros_master_intr for the set of constants.
1265:Generated_Source\PSoC6\pdl\drivers\peripheral\scb/cy_scb_common.h **** *
1266:Generated_Source\PSoC6\pdl\drivers\peripheral\scb/cy_scb_common.h **** *******************************************************************************/
1267:Generated_Source\PSoC6\pdl\drivers\peripheral\scb/cy_scb_common.h **** __STATIC_INLINE void Cy_SCB_SetMasterInterrupt(CySCB_Type *base, uint32_t interruptMask)
1268:Generated_Source\PSoC6\pdl\drivers\peripheral\scb/cy_scb_common.h **** {
1269:Generated_Source\PSoC6\pdl\drivers\peripheral\scb/cy_scb_common.h ****     CY_ASSERT_L2(CY_SCB_IS_INTR_VALID(interruptMask, CY_SCB_MASTER_INTR_MASK));
1270:Generated_Source\PSoC6\pdl\drivers\peripheral\scb/cy_scb_common.h **** 
1271:Generated_Source\PSoC6\pdl\drivers\peripheral\scb/cy_scb_common.h ****     base->INTR_M_SET = interruptMask;
1272:Generated_Source\PSoC6\pdl\drivers\peripheral\scb/cy_scb_common.h **** }
1273:Generated_Source\PSoC6\pdl\drivers\peripheral\scb/cy_scb_common.h **** 
ARM GAS  C:\Users\ikomb\AppData\Local\Temp\cctq3ka9.s 			page 38


1274:Generated_Source\PSoC6\pdl\drivers\peripheral\scb/cy_scb_common.h **** 
1275:Generated_Source\PSoC6\pdl\drivers\peripheral\scb/cy_scb_common.h **** /*******************************************************************************
1276:Generated_Source\PSoC6\pdl\drivers\peripheral\scb/cy_scb_common.h **** * Function Name: Cy_SCB_GetSlaveInterruptStatus
1277:Generated_Source\PSoC6\pdl\drivers\peripheral\scb/cy_scb_common.h **** ****************************************************************************//**
1278:Generated_Source\PSoC6\pdl\drivers\peripheral\scb/cy_scb_common.h **** *
1279:Generated_Source\PSoC6\pdl\drivers\peripheral\scb/cy_scb_common.h **** * Returns the slave interrupt request register. This register contains the current
1280:Generated_Source\PSoC6\pdl\drivers\peripheral\scb/cy_scb_common.h **** * status of the slave interrupt sources.
1281:Generated_Source\PSoC6\pdl\drivers\peripheral\scb/cy_scb_common.h **** *
1282:Generated_Source\PSoC6\pdl\drivers\peripheral\scb/cy_scb_common.h **** * \param base
1283:Generated_Source\PSoC6\pdl\drivers\peripheral\scb/cy_scb_common.h **** * The pointer to the SCB instance.
1284:Generated_Source\PSoC6\pdl\drivers\peripheral\scb/cy_scb_common.h **** *
1285:Generated_Source\PSoC6\pdl\drivers\peripheral\scb/cy_scb_common.h **** * \return
1286:Generated_Source\PSoC6\pdl\drivers\peripheral\scb/cy_scb_common.h **** * The current status of the slave interrupt sources.
1287:Generated_Source\PSoC6\pdl\drivers\peripheral\scb/cy_scb_common.h **** * Each constant is a bit field value. The value returned may have multiple
1288:Generated_Source\PSoC6\pdl\drivers\peripheral\scb/cy_scb_common.h **** * bits set to indicate the current status.
1289:Generated_Source\PSoC6\pdl\drivers\peripheral\scb/cy_scb_common.h **** * See \ref group_scb_common_macros_slave_intr for the set of constants.
1290:Generated_Source\PSoC6\pdl\drivers\peripheral\scb/cy_scb_common.h **** *
1291:Generated_Source\PSoC6\pdl\drivers\peripheral\scb/cy_scb_common.h **** *******************************************************************************/
1292:Generated_Source\PSoC6\pdl\drivers\peripheral\scb/cy_scb_common.h **** __STATIC_INLINE uint32_t Cy_SCB_GetSlaveInterruptStatus(CySCB_Type const *base)
1293:Generated_Source\PSoC6\pdl\drivers\peripheral\scb/cy_scb_common.h **** {
1294:Generated_Source\PSoC6\pdl\drivers\peripheral\scb/cy_scb_common.h ****     return (base->INTR_S & CY_SCB_SLAVE_INTR_MASK);
1295:Generated_Source\PSoC6\pdl\drivers\peripheral\scb/cy_scb_common.h **** }
1296:Generated_Source\PSoC6\pdl\drivers\peripheral\scb/cy_scb_common.h **** 
1297:Generated_Source\PSoC6\pdl\drivers\peripheral\scb/cy_scb_common.h **** 
1298:Generated_Source\PSoC6\pdl\drivers\peripheral\scb/cy_scb_common.h **** /*******************************************************************************
1299:Generated_Source\PSoC6\pdl\drivers\peripheral\scb/cy_scb_common.h **** * Function Name: Cy_SCB_SetSlaveInterruptMask
1300:Generated_Source\PSoC6\pdl\drivers\peripheral\scb/cy_scb_common.h **** ****************************************************************************//**
1301:Generated_Source\PSoC6\pdl\drivers\peripheral\scb/cy_scb_common.h **** *
1302:Generated_Source\PSoC6\pdl\drivers\peripheral\scb/cy_scb_common.h **** * Writes slave interrupt mask register.
1303:Generated_Source\PSoC6\pdl\drivers\peripheral\scb/cy_scb_common.h **** * This register specifies which bits from the slave interrupt request register
1304:Generated_Source\PSoC6\pdl\drivers\peripheral\scb/cy_scb_common.h **** * can trigger an interrupt event.
1305:Generated_Source\PSoC6\pdl\drivers\peripheral\scb/cy_scb_common.h **** *
1306:Generated_Source\PSoC6\pdl\drivers\peripheral\scb/cy_scb_common.h **** * \param base
1307:Generated_Source\PSoC6\pdl\drivers\peripheral\scb/cy_scb_common.h **** * The pointer to the SCB instance.
1308:Generated_Source\PSoC6\pdl\drivers\peripheral\scb/cy_scb_common.h **** *
1309:Generated_Source\PSoC6\pdl\drivers\peripheral\scb/cy_scb_common.h **** * \param interruptMask
1310:Generated_Source\PSoC6\pdl\drivers\peripheral\scb/cy_scb_common.h **** * Enabled slave interrupt sources.
1311:Generated_Source\PSoC6\pdl\drivers\peripheral\scb/cy_scb_common.h **** * See \ref group_scb_common_macros_slave_intr for the set of constants.
1312:Generated_Source\PSoC6\pdl\drivers\peripheral\scb/cy_scb_common.h **** *
1313:Generated_Source\PSoC6\pdl\drivers\peripheral\scb/cy_scb_common.h **** *******************************************************************************/
1314:Generated_Source\PSoC6\pdl\drivers\peripheral\scb/cy_scb_common.h **** __STATIC_INLINE void Cy_SCB_SetSlaveInterruptMask(CySCB_Type *base, uint32_t interruptMask)
1315:Generated_Source\PSoC6\pdl\drivers\peripheral\scb/cy_scb_common.h **** {
1316:Generated_Source\PSoC6\pdl\drivers\peripheral\scb/cy_scb_common.h ****     CY_ASSERT_L2(CY_SCB_IS_INTR_VALID(interruptMask, CY_SCB_SLAVE_INTR_MASK));
1317:Generated_Source\PSoC6\pdl\drivers\peripheral\scb/cy_scb_common.h **** 
1318:Generated_Source\PSoC6\pdl\drivers\peripheral\scb/cy_scb_common.h ****     base->INTR_S_MASK = interruptMask;
1319:Generated_Source\PSoC6\pdl\drivers\peripheral\scb/cy_scb_common.h **** }
1320:Generated_Source\PSoC6\pdl\drivers\peripheral\scb/cy_scb_common.h **** 
1321:Generated_Source\PSoC6\pdl\drivers\peripheral\scb/cy_scb_common.h **** 
1322:Generated_Source\PSoC6\pdl\drivers\peripheral\scb/cy_scb_common.h **** /*******************************************************************************
1323:Generated_Source\PSoC6\pdl\drivers\peripheral\scb/cy_scb_common.h **** * Function Name: Cy_SCB_GetSlaveInterruptMask
1324:Generated_Source\PSoC6\pdl\drivers\peripheral\scb/cy_scb_common.h **** ****************************************************************************//**
1325:Generated_Source\PSoC6\pdl\drivers\peripheral\scb/cy_scb_common.h **** *
1326:Generated_Source\PSoC6\pdl\drivers\peripheral\scb/cy_scb_common.h **** * Returns the slave interrupt mask register.
1327:Generated_Source\PSoC6\pdl\drivers\peripheral\scb/cy_scb_common.h **** * This register specifies which bits from the slave interrupt request register
1328:Generated_Source\PSoC6\pdl\drivers\peripheral\scb/cy_scb_common.h **** * can trigger an interrupt event.
1329:Generated_Source\PSoC6\pdl\drivers\peripheral\scb/cy_scb_common.h **** *
1330:Generated_Source\PSoC6\pdl\drivers\peripheral\scb/cy_scb_common.h **** * \param base
ARM GAS  C:\Users\ikomb\AppData\Local\Temp\cctq3ka9.s 			page 39


1331:Generated_Source\PSoC6\pdl\drivers\peripheral\scb/cy_scb_common.h **** * The pointer to the SCB instance.
1332:Generated_Source\PSoC6\pdl\drivers\peripheral\scb/cy_scb_common.h **** *
1333:Generated_Source\PSoC6\pdl\drivers\peripheral\scb/cy_scb_common.h **** * \return
1334:Generated_Source\PSoC6\pdl\drivers\peripheral\scb/cy_scb_common.h **** * Enabled slave interrupt sources.
1335:Generated_Source\PSoC6\pdl\drivers\peripheral\scb/cy_scb_common.h **** * See \ref group_scb_common_macros_slave_intr for the set of constants.
1336:Generated_Source\PSoC6\pdl\drivers\peripheral\scb/cy_scb_common.h **** *
1337:Generated_Source\PSoC6\pdl\drivers\peripheral\scb/cy_scb_common.h **** *******************************************************************************/
1338:Generated_Source\PSoC6\pdl\drivers\peripheral\scb/cy_scb_common.h **** __STATIC_INLINE uint32_t Cy_SCB_GetSlaveInterruptMask(CySCB_Type const *base)
1339:Generated_Source\PSoC6\pdl\drivers\peripheral\scb/cy_scb_common.h **** {
1340:Generated_Source\PSoC6\pdl\drivers\peripheral\scb/cy_scb_common.h ****     return (base->INTR_S_MASK);
1341:Generated_Source\PSoC6\pdl\drivers\peripheral\scb/cy_scb_common.h **** }
1342:Generated_Source\PSoC6\pdl\drivers\peripheral\scb/cy_scb_common.h **** 
1343:Generated_Source\PSoC6\pdl\drivers\peripheral\scb/cy_scb_common.h **** 
1344:Generated_Source\PSoC6\pdl\drivers\peripheral\scb/cy_scb_common.h **** /*******************************************************************************
1345:Generated_Source\PSoC6\pdl\drivers\peripheral\scb/cy_scb_common.h **** * Function Name: Cy_SCB_GetSlaveInterruptStatusMasked
1346:Generated_Source\PSoC6\pdl\drivers\peripheral\scb/cy_scb_common.h **** ****************************************************************************//**
1347:Generated_Source\PSoC6\pdl\drivers\peripheral\scb/cy_scb_common.h **** *
1348:Generated_Source\PSoC6\pdl\drivers\peripheral\scb/cy_scb_common.h **** * Returns the slave interrupt masked request register. This register contains a
1349:Generated_Source\PSoC6\pdl\drivers\peripheral\scb/cy_scb_common.h **** * logical AND of corresponding bits from the slave interrupt request and mask
1350:Generated_Source\PSoC6\pdl\drivers\peripheral\scb/cy_scb_common.h **** * registers.
1351:Generated_Source\PSoC6\pdl\drivers\peripheral\scb/cy_scb_common.h **** * This function is intended to be used in the interrupt service routine to
1352:Generated_Source\PSoC6\pdl\drivers\peripheral\scb/cy_scb_common.h **** * identify which of enabled slave interrupt sources caused the interrupt
1353:Generated_Source\PSoC6\pdl\drivers\peripheral\scb/cy_scb_common.h **** * event.
1354:Generated_Source\PSoC6\pdl\drivers\peripheral\scb/cy_scb_common.h **** *
1355:Generated_Source\PSoC6\pdl\drivers\peripheral\scb/cy_scb_common.h **** * \param base
1356:Generated_Source\PSoC6\pdl\drivers\peripheral\scb/cy_scb_common.h **** * The pointer to the SCB instance.
1357:Generated_Source\PSoC6\pdl\drivers\peripheral\scb/cy_scb_common.h **** *
1358:Generated_Source\PSoC6\pdl\drivers\peripheral\scb/cy_scb_common.h **** * \return
1359:Generated_Source\PSoC6\pdl\drivers\peripheral\scb/cy_scb_common.h **** * The current status of enabled slave interrupt sources.
1360:Generated_Source\PSoC6\pdl\drivers\peripheral\scb/cy_scb_common.h **** * See \ref group_scb_common_macros_slave_intr for the set of constants.
1361:Generated_Source\PSoC6\pdl\drivers\peripheral\scb/cy_scb_common.h **** *
1362:Generated_Source\PSoC6\pdl\drivers\peripheral\scb/cy_scb_common.h **** *******************************************************************************/
1363:Generated_Source\PSoC6\pdl\drivers\peripheral\scb/cy_scb_common.h **** __STATIC_INLINE uint32_t Cy_SCB_GetSlaveInterruptStatusMasked(CySCB_Type const *base)
1364:Generated_Source\PSoC6\pdl\drivers\peripheral\scb/cy_scb_common.h **** {
1365:Generated_Source\PSoC6\pdl\drivers\peripheral\scb/cy_scb_common.h ****     return (base->INTR_S_MASKED);
1366:Generated_Source\PSoC6\pdl\drivers\peripheral\scb/cy_scb_common.h **** }
1367:Generated_Source\PSoC6\pdl\drivers\peripheral\scb/cy_scb_common.h **** 
1368:Generated_Source\PSoC6\pdl\drivers\peripheral\scb/cy_scb_common.h **** 
1369:Generated_Source\PSoC6\pdl\drivers\peripheral\scb/cy_scb_common.h **** /*******************************************************************************
1370:Generated_Source\PSoC6\pdl\drivers\peripheral\scb/cy_scb_common.h **** * Function Name: Cy_SCB_ClearSlaveInterrupt
1371:Generated_Source\PSoC6\pdl\drivers\peripheral\scb/cy_scb_common.h **** ****************************************************************************//**
1372:Generated_Source\PSoC6\pdl\drivers\peripheral\scb/cy_scb_common.h **** *
1373:Generated_Source\PSoC6\pdl\drivers\peripheral\scb/cy_scb_common.h **** * Clears the slave interrupt sources in the interrupt request register.
1374:Generated_Source\PSoC6\pdl\drivers\peripheral\scb/cy_scb_common.h **** *
1375:Generated_Source\PSoC6\pdl\drivers\peripheral\scb/cy_scb_common.h **** * \param base
1376:Generated_Source\PSoC6\pdl\drivers\peripheral\scb/cy_scb_common.h **** * The pointer to the SCB instance.
1377:Generated_Source\PSoC6\pdl\drivers\peripheral\scb/cy_scb_common.h **** *
1378:Generated_Source\PSoC6\pdl\drivers\peripheral\scb/cy_scb_common.h **** * \param interruptMask
1379:Generated_Source\PSoC6\pdl\drivers\peripheral\scb/cy_scb_common.h **** * Slave interrupt sources to be cleared.
1380:Generated_Source\PSoC6\pdl\drivers\peripheral\scb/cy_scb_common.h **** * See \ref group_scb_common_macros_slave_intr for the set of constants.
1381:Generated_Source\PSoC6\pdl\drivers\peripheral\scb/cy_scb_common.h **** *
1382:Generated_Source\PSoC6\pdl\drivers\peripheral\scb/cy_scb_common.h **** *******************************************************************************/
1383:Generated_Source\PSoC6\pdl\drivers\peripheral\scb/cy_scb_common.h **** __STATIC_INLINE void Cy_SCB_ClearSlaveInterrupt(CySCB_Type *base, uint32_t interruptMask)
1384:Generated_Source\PSoC6\pdl\drivers\peripheral\scb/cy_scb_common.h **** {
1385:Generated_Source\PSoC6\pdl\drivers\peripheral\scb/cy_scb_common.h ****     CY_ASSERT_L2(CY_SCB_IS_INTR_VALID(interruptMask, CY_SCB_SLAVE_INTR_MASK));
1386:Generated_Source\PSoC6\pdl\drivers\peripheral\scb/cy_scb_common.h **** 
1387:Generated_Source\PSoC6\pdl\drivers\peripheral\scb/cy_scb_common.h ****     base->INTR_S = interruptMask;
ARM GAS  C:\Users\ikomb\AppData\Local\Temp\cctq3ka9.s 			page 40


1388:Generated_Source\PSoC6\pdl\drivers\peripheral\scb/cy_scb_common.h ****     (void) base->INTR_S;
1389:Generated_Source\PSoC6\pdl\drivers\peripheral\scb/cy_scb_common.h **** }
1390:Generated_Source\PSoC6\pdl\drivers\peripheral\scb/cy_scb_common.h **** 
1391:Generated_Source\PSoC6\pdl\drivers\peripheral\scb/cy_scb_common.h **** 
1392:Generated_Source\PSoC6\pdl\drivers\peripheral\scb/cy_scb_common.h **** /*******************************************************************************
1393:Generated_Source\PSoC6\pdl\drivers\peripheral\scb/cy_scb_common.h **** * Function Name: Cy_SCB_SetSlaveInterrupt
1394:Generated_Source\PSoC6\pdl\drivers\peripheral\scb/cy_scb_common.h **** ****************************************************************************//**
1395:Generated_Source\PSoC6\pdl\drivers\peripheral\scb/cy_scb_common.h **** *
1396:Generated_Source\PSoC6\pdl\drivers\peripheral\scb/cy_scb_common.h **** * Sets slave interrupt sources in the interrupt request register.
1397:Generated_Source\PSoC6\pdl\drivers\peripheral\scb/cy_scb_common.h **** *
1398:Generated_Source\PSoC6\pdl\drivers\peripheral\scb/cy_scb_common.h **** * \param base
1399:Generated_Source\PSoC6\pdl\drivers\peripheral\scb/cy_scb_common.h **** * The pointer to the SCB instance.
1400:Generated_Source\PSoC6\pdl\drivers\peripheral\scb/cy_scb_common.h **** *
1401:Generated_Source\PSoC6\pdl\drivers\peripheral\scb/cy_scb_common.h **** * \param interruptMask
1402:Generated_Source\PSoC6\pdl\drivers\peripheral\scb/cy_scb_common.h **** * The slave interrupt sources to set in the slave interrupt request register
1403:Generated_Source\PSoC6\pdl\drivers\peripheral\scb/cy_scb_common.h **** * See \ref group_scb_common_macros_slave_intr for the set of constants.
1404:Generated_Source\PSoC6\pdl\drivers\peripheral\scb/cy_scb_common.h **** *
1405:Generated_Source\PSoC6\pdl\drivers\peripheral\scb/cy_scb_common.h **** *******************************************************************************/
1406:Generated_Source\PSoC6\pdl\drivers\peripheral\scb/cy_scb_common.h **** __STATIC_INLINE void Cy_SCB_SetSlaveInterrupt(CySCB_Type *base, uint32_t interruptMask)
1407:Generated_Source\PSoC6\pdl\drivers\peripheral\scb/cy_scb_common.h **** {
1408:Generated_Source\PSoC6\pdl\drivers\peripheral\scb/cy_scb_common.h ****     CY_ASSERT_L2(CY_SCB_IS_INTR_VALID(interruptMask, CY_SCB_SLAVE_INTR_MASK));
1409:Generated_Source\PSoC6\pdl\drivers\peripheral\scb/cy_scb_common.h **** 
1410:Generated_Source\PSoC6\pdl\drivers\peripheral\scb/cy_scb_common.h ****     base->INTR_S_SET = interruptMask;
1411:Generated_Source\PSoC6\pdl\drivers\peripheral\scb/cy_scb_common.h **** }
1412:Generated_Source\PSoC6\pdl\drivers\peripheral\scb/cy_scb_common.h **** 
1413:Generated_Source\PSoC6\pdl\drivers\peripheral\scb/cy_scb_common.h **** 
1414:Generated_Source\PSoC6\pdl\drivers\peripheral\scb/cy_scb_common.h **** /*******************************************************************************
1415:Generated_Source\PSoC6\pdl\drivers\peripheral\scb/cy_scb_common.h **** * Function Name: Cy_SCB_GetI2CInterruptStatus
1416:Generated_Source\PSoC6\pdl\drivers\peripheral\scb/cy_scb_common.h **** ****************************************************************************//**
1417:Generated_Source\PSoC6\pdl\drivers\peripheral\scb/cy_scb_common.h **** *
1418:Generated_Source\PSoC6\pdl\drivers\peripheral\scb/cy_scb_common.h **** * Returns the I2C interrupt request register. This register contains the
1419:Generated_Source\PSoC6\pdl\drivers\peripheral\scb/cy_scb_common.h **** * current status of the I2C interrupt sources.
1420:Generated_Source\PSoC6\pdl\drivers\peripheral\scb/cy_scb_common.h **** *
1421:Generated_Source\PSoC6\pdl\drivers\peripheral\scb/cy_scb_common.h **** * \param base
1422:Generated_Source\PSoC6\pdl\drivers\peripheral\scb/cy_scb_common.h **** * The pointer to the SCB instance.
1423:Generated_Source\PSoC6\pdl\drivers\peripheral\scb/cy_scb_common.h **** *
1424:Generated_Source\PSoC6\pdl\drivers\peripheral\scb/cy_scb_common.h **** * \return
1425:Generated_Source\PSoC6\pdl\drivers\peripheral\scb/cy_scb_common.h **** * The current status of the I2C interrupt sources. Each constant is a bit
1426:Generated_Source\PSoC6\pdl\drivers\peripheral\scb/cy_scb_common.h **** * field value.
1427:Generated_Source\PSoC6\pdl\drivers\peripheral\scb/cy_scb_common.h **** * The value returned may have multiple bits set to indicate the current status.
1428:Generated_Source\PSoC6\pdl\drivers\peripheral\scb/cy_scb_common.h **** * See \ref group_scb_common_macros_slave_intr for the set of constants.
1429:Generated_Source\PSoC6\pdl\drivers\peripheral\scb/cy_scb_common.h **** *
1430:Generated_Source\PSoC6\pdl\drivers\peripheral\scb/cy_scb_common.h **** *******************************************************************************/
1431:Generated_Source\PSoC6\pdl\drivers\peripheral\scb/cy_scb_common.h **** __STATIC_INLINE uint32_t Cy_SCB_GetI2CInterruptStatus(CySCB_Type const *base)
1432:Generated_Source\PSoC6\pdl\drivers\peripheral\scb/cy_scb_common.h **** {
1433:Generated_Source\PSoC6\pdl\drivers\peripheral\scb/cy_scb_common.h ****     return (base->INTR_I2C_EC & CY_SCB_I2C_INTR_MASK);
1434:Generated_Source\PSoC6\pdl\drivers\peripheral\scb/cy_scb_common.h **** }
1435:Generated_Source\PSoC6\pdl\drivers\peripheral\scb/cy_scb_common.h **** 
1436:Generated_Source\PSoC6\pdl\drivers\peripheral\scb/cy_scb_common.h **** 
1437:Generated_Source\PSoC6\pdl\drivers\peripheral\scb/cy_scb_common.h **** /*******************************************************************************
1438:Generated_Source\PSoC6\pdl\drivers\peripheral\scb/cy_scb_common.h **** * Function Name: Cy_SCB_SetI2CInterruptMask
1439:Generated_Source\PSoC6\pdl\drivers\peripheral\scb/cy_scb_common.h **** ****************************************************************************//**
1440:Generated_Source\PSoC6\pdl\drivers\peripheral\scb/cy_scb_common.h **** *
1441:Generated_Source\PSoC6\pdl\drivers\peripheral\scb/cy_scb_common.h **** * Writes the I2C interrupt mask register. This register specifies which bits
1442:Generated_Source\PSoC6\pdl\drivers\peripheral\scb/cy_scb_common.h **** * from the I2C interrupt request register can trigger an interrupt event.
1443:Generated_Source\PSoC6\pdl\drivers\peripheral\scb/cy_scb_common.h **** *
1444:Generated_Source\PSoC6\pdl\drivers\peripheral\scb/cy_scb_common.h **** * \param base
ARM GAS  C:\Users\ikomb\AppData\Local\Temp\cctq3ka9.s 			page 41


1445:Generated_Source\PSoC6\pdl\drivers\peripheral\scb/cy_scb_common.h **** * The pointer to the SCB instance.
1446:Generated_Source\PSoC6\pdl\drivers\peripheral\scb/cy_scb_common.h **** *
1447:Generated_Source\PSoC6\pdl\drivers\peripheral\scb/cy_scb_common.h **** * \param interruptMask
1448:Generated_Source\PSoC6\pdl\drivers\peripheral\scb/cy_scb_common.h **** * Enabled I2C interrupt sources.
1449:Generated_Source\PSoC6\pdl\drivers\peripheral\scb/cy_scb_common.h **** * See \ref group_scb_common_macros_i2c_intr for the set of constants.
1450:Generated_Source\PSoC6\pdl\drivers\peripheral\scb/cy_scb_common.h **** *
1451:Generated_Source\PSoC6\pdl\drivers\peripheral\scb/cy_scb_common.h **** *******************************************************************************/
1452:Generated_Source\PSoC6\pdl\drivers\peripheral\scb/cy_scb_common.h **** __STATIC_INLINE void Cy_SCB_SetI2CInterruptMask(CySCB_Type *base, uint32_t interruptMask)
1453:Generated_Source\PSoC6\pdl\drivers\peripheral\scb/cy_scb_common.h **** {
1454:Generated_Source\PSoC6\pdl\drivers\peripheral\scb/cy_scb_common.h ****     CY_ASSERT_L2(CY_SCB_IS_INTR_VALID(interruptMask, CY_SCB_I2C_INTR_MASK));
1455:Generated_Source\PSoC6\pdl\drivers\peripheral\scb/cy_scb_common.h **** 
1456:Generated_Source\PSoC6\pdl\drivers\peripheral\scb/cy_scb_common.h ****     base->INTR_I2C_EC_MASK = interruptMask;
1457:Generated_Source\PSoC6\pdl\drivers\peripheral\scb/cy_scb_common.h **** }
1458:Generated_Source\PSoC6\pdl\drivers\peripheral\scb/cy_scb_common.h **** 
1459:Generated_Source\PSoC6\pdl\drivers\peripheral\scb/cy_scb_common.h **** 
1460:Generated_Source\PSoC6\pdl\drivers\peripheral\scb/cy_scb_common.h **** /*******************************************************************************
1461:Generated_Source\PSoC6\pdl\drivers\peripheral\scb/cy_scb_common.h **** * Function Name: Cy_SCB_GetI2CInterruptMask
1462:Generated_Source\PSoC6\pdl\drivers\peripheral\scb/cy_scb_common.h **** ****************************************************************************//**
1463:Generated_Source\PSoC6\pdl\drivers\peripheral\scb/cy_scb_common.h **** *
1464:Generated_Source\PSoC6\pdl\drivers\peripheral\scb/cy_scb_common.h **** * Returns the I2C interrupt mask register. This register specifies which bits
1465:Generated_Source\PSoC6\pdl\drivers\peripheral\scb/cy_scb_common.h **** * from the I2C interrupt request register can trigger an interrupt event.
1466:Generated_Source\PSoC6\pdl\drivers\peripheral\scb/cy_scb_common.h **** *
1467:Generated_Source\PSoC6\pdl\drivers\peripheral\scb/cy_scb_common.h **** * \param base
1468:Generated_Source\PSoC6\pdl\drivers\peripheral\scb/cy_scb_common.h **** * The pointer to the SCB instance.
1469:Generated_Source\PSoC6\pdl\drivers\peripheral\scb/cy_scb_common.h **** *
1470:Generated_Source\PSoC6\pdl\drivers\peripheral\scb/cy_scb_common.h **** * \return
1471:Generated_Source\PSoC6\pdl\drivers\peripheral\scb/cy_scb_common.h **** * Enabled I2C interrupt sources.
1472:Generated_Source\PSoC6\pdl\drivers\peripheral\scb/cy_scb_common.h **** * See \ref group_scb_common_macros_i2c_intr.
1473:Generated_Source\PSoC6\pdl\drivers\peripheral\scb/cy_scb_common.h **** *
1474:Generated_Source\PSoC6\pdl\drivers\peripheral\scb/cy_scb_common.h **** *******************************************************************************/
1475:Generated_Source\PSoC6\pdl\drivers\peripheral\scb/cy_scb_common.h **** __STATIC_INLINE uint32_t Cy_SCB_GetI2CInterruptMask(CySCB_Type const *base)
1476:Generated_Source\PSoC6\pdl\drivers\peripheral\scb/cy_scb_common.h **** {
1477:Generated_Source\PSoC6\pdl\drivers\peripheral\scb/cy_scb_common.h ****     return (base->INTR_I2C_EC_MASK);
1478:Generated_Source\PSoC6\pdl\drivers\peripheral\scb/cy_scb_common.h **** }
1479:Generated_Source\PSoC6\pdl\drivers\peripheral\scb/cy_scb_common.h **** 
1480:Generated_Source\PSoC6\pdl\drivers\peripheral\scb/cy_scb_common.h **** 
1481:Generated_Source\PSoC6\pdl\drivers\peripheral\scb/cy_scb_common.h **** /*******************************************************************************
1482:Generated_Source\PSoC6\pdl\drivers\peripheral\scb/cy_scb_common.h **** * Function Name: Cy_SCB_GetI2CInterruptStatusMasked
1483:Generated_Source\PSoC6\pdl\drivers\peripheral\scb/cy_scb_common.h **** ****************************************************************************//**
1484:Generated_Source\PSoC6\pdl\drivers\peripheral\scb/cy_scb_common.h **** *
1485:Generated_Source\PSoC6\pdl\drivers\peripheral\scb/cy_scb_common.h **** * Returns the I2C interrupt masked request register. This register contains
1486:Generated_Source\PSoC6\pdl\drivers\peripheral\scb/cy_scb_common.h **** * a logical AND of corresponding bits from I2C interrupt request and mask
1487:Generated_Source\PSoC6\pdl\drivers\peripheral\scb/cy_scb_common.h **** * registers.
1488:Generated_Source\PSoC6\pdl\drivers\peripheral\scb/cy_scb_common.h **** * This function is intended to be used in the interrupt service routine to
1489:Generated_Source\PSoC6\pdl\drivers\peripheral\scb/cy_scb_common.h **** * identify which of enabled I2C interrupt sources caused the interrupt event.
1490:Generated_Source\PSoC6\pdl\drivers\peripheral\scb/cy_scb_common.h **** *
1491:Generated_Source\PSoC6\pdl\drivers\peripheral\scb/cy_scb_common.h **** * \param base
1492:Generated_Source\PSoC6\pdl\drivers\peripheral\scb/cy_scb_common.h **** * The pointer to the SCB instance.
1493:Generated_Source\PSoC6\pdl\drivers\peripheral\scb/cy_scb_common.h **** *
1494:Generated_Source\PSoC6\pdl\drivers\peripheral\scb/cy_scb_common.h **** * \return
1495:Generated_Source\PSoC6\pdl\drivers\peripheral\scb/cy_scb_common.h **** * The current status of enabled I2C interrupt sources.
1496:Generated_Source\PSoC6\pdl\drivers\peripheral\scb/cy_scb_common.h **** * See \ref group_scb_common_macros_i2c_intr for the set of constants.
1497:Generated_Source\PSoC6\pdl\drivers\peripheral\scb/cy_scb_common.h **** *
1498:Generated_Source\PSoC6\pdl\drivers\peripheral\scb/cy_scb_common.h **** *******************************************************************************/
1499:Generated_Source\PSoC6\pdl\drivers\peripheral\scb/cy_scb_common.h **** __STATIC_INLINE uint32_t Cy_SCB_GetI2CInterruptStatusMasked(CySCB_Type const *base)
1500:Generated_Source\PSoC6\pdl\drivers\peripheral\scb/cy_scb_common.h **** {
1501:Generated_Source\PSoC6\pdl\drivers\peripheral\scb/cy_scb_common.h ****     return (base->INTR_I2C_EC_MASKED);
ARM GAS  C:\Users\ikomb\AppData\Local\Temp\cctq3ka9.s 			page 42


1502:Generated_Source\PSoC6\pdl\drivers\peripheral\scb/cy_scb_common.h **** }
1503:Generated_Source\PSoC6\pdl\drivers\peripheral\scb/cy_scb_common.h **** 
1504:Generated_Source\PSoC6\pdl\drivers\peripheral\scb/cy_scb_common.h **** 
1505:Generated_Source\PSoC6\pdl\drivers\peripheral\scb/cy_scb_common.h **** /*******************************************************************************
1506:Generated_Source\PSoC6\pdl\drivers\peripheral\scb/cy_scb_common.h **** * Function Name: Cy_SCB_ClearI2CInterrupt
1507:Generated_Source\PSoC6\pdl\drivers\peripheral\scb/cy_scb_common.h **** ****************************************************************************//**
1508:Generated_Source\PSoC6\pdl\drivers\peripheral\scb/cy_scb_common.h **** *
1509:Generated_Source\PSoC6\pdl\drivers\peripheral\scb/cy_scb_common.h **** * Clears I2C interrupt sources in the interrupt request register.
1510:Generated_Source\PSoC6\pdl\drivers\peripheral\scb/cy_scb_common.h **** *
1511:Generated_Source\PSoC6\pdl\drivers\peripheral\scb/cy_scb_common.h **** * \param base
1512:Generated_Source\PSoC6\pdl\drivers\peripheral\scb/cy_scb_common.h **** * The pointer to the SCB instance.
1513:Generated_Source\PSoC6\pdl\drivers\peripheral\scb/cy_scb_common.h **** *
1514:Generated_Source\PSoC6\pdl\drivers\peripheral\scb/cy_scb_common.h **** * \param interruptMask
1515:Generated_Source\PSoC6\pdl\drivers\peripheral\scb/cy_scb_common.h **** * The I2C interrupt sources to be cleared.
1516:Generated_Source\PSoC6\pdl\drivers\peripheral\scb/cy_scb_common.h **** * See \ref group_scb_common_macros_i2c_intr for the set of constants.
1517:Generated_Source\PSoC6\pdl\drivers\peripheral\scb/cy_scb_common.h **** *
1518:Generated_Source\PSoC6\pdl\drivers\peripheral\scb/cy_scb_common.h **** *******************************************************************************/
1519:Generated_Source\PSoC6\pdl\drivers\peripheral\scb/cy_scb_common.h **** __STATIC_INLINE void Cy_SCB_ClearI2CInterrupt(CySCB_Type *base, uint32_t interruptMask)
1520:Generated_Source\PSoC6\pdl\drivers\peripheral\scb/cy_scb_common.h **** {
1521:Generated_Source\PSoC6\pdl\drivers\peripheral\scb/cy_scb_common.h ****     CY_ASSERT_L2(CY_SCB_IS_INTR_VALID(interruptMask, CY_SCB_I2C_INTR_MASK));
1522:Generated_Source\PSoC6\pdl\drivers\peripheral\scb/cy_scb_common.h **** 
1523:Generated_Source\PSoC6\pdl\drivers\peripheral\scb/cy_scb_common.h ****     base->INTR_I2C_EC = interruptMask;
1524:Generated_Source\PSoC6\pdl\drivers\peripheral\scb/cy_scb_common.h ****     (void) base->INTR_I2C_EC;
1525:Generated_Source\PSoC6\pdl\drivers\peripheral\scb/cy_scb_common.h **** }
1526:Generated_Source\PSoC6\pdl\drivers\peripheral\scb/cy_scb_common.h **** 
1527:Generated_Source\PSoC6\pdl\drivers\peripheral\scb/cy_scb_common.h **** 
1528:Generated_Source\PSoC6\pdl\drivers\peripheral\scb/cy_scb_common.h **** /*******************************************************************************
1529:Generated_Source\PSoC6\pdl\drivers\peripheral\scb/cy_scb_common.h **** * Function Name: Cy_SCB_GetSpiInterruptStatus
1530:Generated_Source\PSoC6\pdl\drivers\peripheral\scb/cy_scb_common.h **** ****************************************************************************//**
1531:Generated_Source\PSoC6\pdl\drivers\peripheral\scb/cy_scb_common.h **** *
1532:Generated_Source\PSoC6\pdl\drivers\peripheral\scb/cy_scb_common.h **** * Returns the SPI interrupt request register. This register contains the current
1533:Generated_Source\PSoC6\pdl\drivers\peripheral\scb/cy_scb_common.h **** * status of the SPI interrupt sources.
1534:Generated_Source\PSoC6\pdl\drivers\peripheral\scb/cy_scb_common.h **** *
1535:Generated_Source\PSoC6\pdl\drivers\peripheral\scb/cy_scb_common.h **** * \param base
1536:Generated_Source\PSoC6\pdl\drivers\peripheral\scb/cy_scb_common.h **** * The pointer to the SCB instance.
1537:Generated_Source\PSoC6\pdl\drivers\peripheral\scb/cy_scb_common.h **** *
1538:Generated_Source\PSoC6\pdl\drivers\peripheral\scb/cy_scb_common.h **** * \return
1539:Generated_Source\PSoC6\pdl\drivers\peripheral\scb/cy_scb_common.h **** * The current status of SPI interrupt sources. Each constant is a bit field value.
1540:Generated_Source\PSoC6\pdl\drivers\peripheral\scb/cy_scb_common.h **** * The value returned may have multiple bits set to indicate the current status
1541:Generated_Source\PSoC6\pdl\drivers\peripheral\scb/cy_scb_common.h **** * See \ref group_scb_common_macros_SpiIntrStatuses for the set of constants.
1542:Generated_Source\PSoC6\pdl\drivers\peripheral\scb/cy_scb_common.h **** *
1543:Generated_Source\PSoC6\pdl\drivers\peripheral\scb/cy_scb_common.h **** *******************************************************************************/
1544:Generated_Source\PSoC6\pdl\drivers\peripheral\scb/cy_scb_common.h **** __STATIC_INLINE uint32_t Cy_SCB_GetSpiInterruptStatus(CySCB_Type const *base)
1545:Generated_Source\PSoC6\pdl\drivers\peripheral\scb/cy_scb_common.h **** {
1546:Generated_Source\PSoC6\pdl\drivers\peripheral\scb/cy_scb_common.h ****     return (base->INTR_SPI_EC & CY_SCB_SPI_INTR_MASK);
1547:Generated_Source\PSoC6\pdl\drivers\peripheral\scb/cy_scb_common.h **** }
1548:Generated_Source\PSoC6\pdl\drivers\peripheral\scb/cy_scb_common.h **** 
1549:Generated_Source\PSoC6\pdl\drivers\peripheral\scb/cy_scb_common.h **** 
1550:Generated_Source\PSoC6\pdl\drivers\peripheral\scb/cy_scb_common.h **** /*******************************************************************************
1551:Generated_Source\PSoC6\pdl\drivers\peripheral\scb/cy_scb_common.h **** * Function Name: Cy_SCB_SetSpiInterruptMask
1552:Generated_Source\PSoC6\pdl\drivers\peripheral\scb/cy_scb_common.h **** ****************************************************************************//**
1553:Generated_Source\PSoC6\pdl\drivers\peripheral\scb/cy_scb_common.h **** *
1554:Generated_Source\PSoC6\pdl\drivers\peripheral\scb/cy_scb_common.h **** * Writes the SPI interrupt mask register. This register specifies which
1555:Generated_Source\PSoC6\pdl\drivers\peripheral\scb/cy_scb_common.h **** * bits from the SPI interrupt request register can trigger an interrupt event.
1556:Generated_Source\PSoC6\pdl\drivers\peripheral\scb/cy_scb_common.h **** *
1557:Generated_Source\PSoC6\pdl\drivers\peripheral\scb/cy_scb_common.h **** * \param base
1558:Generated_Source\PSoC6\pdl\drivers\peripheral\scb/cy_scb_common.h **** * The pointer to the SCB instance.
ARM GAS  C:\Users\ikomb\AppData\Local\Temp\cctq3ka9.s 			page 43


1559:Generated_Source\PSoC6\pdl\drivers\peripheral\scb/cy_scb_common.h **** *
1560:Generated_Source\PSoC6\pdl\drivers\peripheral\scb/cy_scb_common.h **** * \param interruptMask
1561:Generated_Source\PSoC6\pdl\drivers\peripheral\scb/cy_scb_common.h **** * Enabled SPI interrupt sources.
1562:Generated_Source\PSoC6\pdl\drivers\peripheral\scb/cy_scb_common.h **** * See \ref group_scb_common_macros_SpiIntrStatuses for the set of constants.
1563:Generated_Source\PSoC6\pdl\drivers\peripheral\scb/cy_scb_common.h **** *
1564:Generated_Source\PSoC6\pdl\drivers\peripheral\scb/cy_scb_common.h **** *******************************************************************************/
1565:Generated_Source\PSoC6\pdl\drivers\peripheral\scb/cy_scb_common.h **** __STATIC_INLINE void Cy_SCB_SetSpiInterruptMask(CySCB_Type *base, uint32_t interruptMask)
1566:Generated_Source\PSoC6\pdl\drivers\peripheral\scb/cy_scb_common.h **** {
1567:Generated_Source\PSoC6\pdl\drivers\peripheral\scb/cy_scb_common.h ****     CY_ASSERT_L2(CY_SCB_IS_INTR_VALID(interruptMask, CY_SCB_SPI_INTR_MASK));
1568:Generated_Source\PSoC6\pdl\drivers\peripheral\scb/cy_scb_common.h **** 
1569:Generated_Source\PSoC6\pdl\drivers\peripheral\scb/cy_scb_common.h ****     base->INTR_SPI_EC_MASK = interruptMask;
1570:Generated_Source\PSoC6\pdl\drivers\peripheral\scb/cy_scb_common.h **** }
1571:Generated_Source\PSoC6\pdl\drivers\peripheral\scb/cy_scb_common.h **** 
1572:Generated_Source\PSoC6\pdl\drivers\peripheral\scb/cy_scb_common.h **** 
1573:Generated_Source\PSoC6\pdl\drivers\peripheral\scb/cy_scb_common.h **** /*******************************************************************************
1574:Generated_Source\PSoC6\pdl\drivers\peripheral\scb/cy_scb_common.h **** * Function Name: Cy_SCB_GetSpiInterruptMask
1575:Generated_Source\PSoC6\pdl\drivers\peripheral\scb/cy_scb_common.h **** ****************************************************************************//**
1576:Generated_Source\PSoC6\pdl\drivers\peripheral\scb/cy_scb_common.h **** *
1577:Generated_Source\PSoC6\pdl\drivers\peripheral\scb/cy_scb_common.h **** * Returns the SPI interrupt mask register. This register specifies which bits
1578:Generated_Source\PSoC6\pdl\drivers\peripheral\scb/cy_scb_common.h **** * from the SPI interrupt request register can trigger an interrupt event.
1579:Generated_Source\PSoC6\pdl\drivers\peripheral\scb/cy_scb_common.h **** *
1580:Generated_Source\PSoC6\pdl\drivers\peripheral\scb/cy_scb_common.h **** * \param base
1581:Generated_Source\PSoC6\pdl\drivers\peripheral\scb/cy_scb_common.h **** * The pointer to the SCB instance.
1582:Generated_Source\PSoC6\pdl\drivers\peripheral\scb/cy_scb_common.h **** *
1583:Generated_Source\PSoC6\pdl\drivers\peripheral\scb/cy_scb_common.h **** * \return
1584:Generated_Source\PSoC6\pdl\drivers\peripheral\scb/cy_scb_common.h **** * Enabled SPI interrupt sources.
1585:Generated_Source\PSoC6\pdl\drivers\peripheral\scb/cy_scb_common.h **** * See \ref group_scb_common_macros_SpiIntrStatuses for the set of constants.
1586:Generated_Source\PSoC6\pdl\drivers\peripheral\scb/cy_scb_common.h **** *
1587:Generated_Source\PSoC6\pdl\drivers\peripheral\scb/cy_scb_common.h **** *******************************************************************************/
1588:Generated_Source\PSoC6\pdl\drivers\peripheral\scb/cy_scb_common.h **** __STATIC_INLINE uint32_t Cy_SCB_GetSpiInterruptMask(CySCB_Type const *base)
1589:Generated_Source\PSoC6\pdl\drivers\peripheral\scb/cy_scb_common.h **** {
1590:Generated_Source\PSoC6\pdl\drivers\peripheral\scb/cy_scb_common.h ****     return (base->INTR_SPI_EC_MASK);
1591:Generated_Source\PSoC6\pdl\drivers\peripheral\scb/cy_scb_common.h **** }
1592:Generated_Source\PSoC6\pdl\drivers\peripheral\scb/cy_scb_common.h **** 
1593:Generated_Source\PSoC6\pdl\drivers\peripheral\scb/cy_scb_common.h **** 
1594:Generated_Source\PSoC6\pdl\drivers\peripheral\scb/cy_scb_common.h **** /*******************************************************************************
1595:Generated_Source\PSoC6\pdl\drivers\peripheral\scb/cy_scb_common.h **** * Function Name: Cy_SCB_GetSpiInterruptStatusMasked
1596:Generated_Source\PSoC6\pdl\drivers\peripheral\scb/cy_scb_common.h **** ****************************************************************************//**
1597:Generated_Source\PSoC6\pdl\drivers\peripheral\scb/cy_scb_common.h **** *
1598:Generated_Source\PSoC6\pdl\drivers\peripheral\scb/cy_scb_common.h **** * Returns the SPI interrupt masked request register. This register contains
1599:Generated_Source\PSoC6\pdl\drivers\peripheral\scb/cy_scb_common.h **** * a logical AND of corresponding bits from the SPI interrupt request and
1600:Generated_Source\PSoC6\pdl\drivers\peripheral\scb/cy_scb_common.h **** * mask registers.
1601:Generated_Source\PSoC6\pdl\drivers\peripheral\scb/cy_scb_common.h **** * This function is intended to be used in the interrupt service routine to
1602:Generated_Source\PSoC6\pdl\drivers\peripheral\scb/cy_scb_common.h **** * identify which of enabled SPI interrupt sources caused the interrupt event.
1603:Generated_Source\PSoC6\pdl\drivers\peripheral\scb/cy_scb_common.h **** *
1604:Generated_Source\PSoC6\pdl\drivers\peripheral\scb/cy_scb_common.h **** * \param base
1605:Generated_Source\PSoC6\pdl\drivers\peripheral\scb/cy_scb_common.h **** * The pointer to the SCB instance.
1606:Generated_Source\PSoC6\pdl\drivers\peripheral\scb/cy_scb_common.h **** *
1607:Generated_Source\PSoC6\pdl\drivers\peripheral\scb/cy_scb_common.h **** * \return
1608:Generated_Source\PSoC6\pdl\drivers\peripheral\scb/cy_scb_common.h **** * The current status of enabled SPI interrupt sources.
1609:Generated_Source\PSoC6\pdl\drivers\peripheral\scb/cy_scb_common.h **** * See \ref group_scb_common_macros_SpiIntrStatuses for the set of constants.
1610:Generated_Source\PSoC6\pdl\drivers\peripheral\scb/cy_scb_common.h **** *
1611:Generated_Source\PSoC6\pdl\drivers\peripheral\scb/cy_scb_common.h **** *******************************************************************************/
1612:Generated_Source\PSoC6\pdl\drivers\peripheral\scb/cy_scb_common.h **** __STATIC_INLINE uint32_t Cy_SCB_GetSpiInterruptStatusMasked(CySCB_Type const *base)
1613:Generated_Source\PSoC6\pdl\drivers\peripheral\scb/cy_scb_common.h **** {
1614:Generated_Source\PSoC6\pdl\drivers\peripheral\scb/cy_scb_common.h ****     return (base->INTR_SPI_EC_MASKED);
1615:Generated_Source\PSoC6\pdl\drivers\peripheral\scb/cy_scb_common.h **** }
ARM GAS  C:\Users\ikomb\AppData\Local\Temp\cctq3ka9.s 			page 44


1616:Generated_Source\PSoC6\pdl\drivers\peripheral\scb/cy_scb_common.h **** 
1617:Generated_Source\PSoC6\pdl\drivers\peripheral\scb/cy_scb_common.h **** 
1618:Generated_Source\PSoC6\pdl\drivers\peripheral\scb/cy_scb_common.h **** /*******************************************************************************
1619:Generated_Source\PSoC6\pdl\drivers\peripheral\scb/cy_scb_common.h **** * Function Name: Cy_SCB_ClearSpiInterrupt
1620:Generated_Source\PSoC6\pdl\drivers\peripheral\scb/cy_scb_common.h **** ****************************************************************************//**
1621:Generated_Source\PSoC6\pdl\drivers\peripheral\scb/cy_scb_common.h **** *
1622:Generated_Source\PSoC6\pdl\drivers\peripheral\scb/cy_scb_common.h **** * Clears SPI interrupt sources in the interrupt request register.
1623:Generated_Source\PSoC6\pdl\drivers\peripheral\scb/cy_scb_common.h **** *
1624:Generated_Source\PSoC6\pdl\drivers\peripheral\scb/cy_scb_common.h **** * \param base
1625:Generated_Source\PSoC6\pdl\drivers\peripheral\scb/cy_scb_common.h **** * The pointer to the SCB instance.
1626:Generated_Source\PSoC6\pdl\drivers\peripheral\scb/cy_scb_common.h **** *
1627:Generated_Source\PSoC6\pdl\drivers\peripheral\scb/cy_scb_common.h **** * \param interruptMask
1628:Generated_Source\PSoC6\pdl\drivers\peripheral\scb/cy_scb_common.h **** * The SPI interrupt sources to be cleared.
1629:Generated_Source\PSoC6\pdl\drivers\peripheral\scb/cy_scb_common.h **** * See \ref group_scb_common_macros_SpiIntrStatuses for the set of constants.
1630:Generated_Source\PSoC6\pdl\drivers\peripheral\scb/cy_scb_common.h **** *
1631:Generated_Source\PSoC6\pdl\drivers\peripheral\scb/cy_scb_common.h **** *******************************************************************************/
1632:Generated_Source\PSoC6\pdl\drivers\peripheral\scb/cy_scb_common.h **** __STATIC_INLINE void Cy_SCB_ClearSpiInterrupt(CySCB_Type *base, uint32_t interruptMask)
1633:Generated_Source\PSoC6\pdl\drivers\peripheral\scb/cy_scb_common.h **** {
1634:Generated_Source\PSoC6\pdl\drivers\peripheral\scb/cy_scb_common.h ****     CY_ASSERT_L2(CY_SCB_IS_INTR_VALID(interruptMask, CY_SCB_SPI_INTR_MASK));
1635:Generated_Source\PSoC6\pdl\drivers\peripheral\scb/cy_scb_common.h **** 
1636:Generated_Source\PSoC6\pdl\drivers\peripheral\scb/cy_scb_common.h ****     base->INTR_SPI_EC = interruptMask;
1637:Generated_Source\PSoC6\pdl\drivers\peripheral\scb/cy_scb_common.h ****     (void) base->INTR_SPI_EC;
1638:Generated_Source\PSoC6\pdl\drivers\peripheral\scb/cy_scb_common.h **** }
1639:Generated_Source\PSoC6\pdl\drivers\peripheral\scb/cy_scb_common.h **** 
1640:Generated_Source\PSoC6\pdl\drivers\peripheral\scb/cy_scb_common.h **** /** \cond INTERNAL */
1641:Generated_Source\PSoC6\pdl\drivers\peripheral\scb/cy_scb_common.h **** /*******************************************************************************
1642:Generated_Source\PSoC6\pdl\drivers\peripheral\scb/cy_scb_common.h **** * Function Name: Cy_SCB_GetFifoSize
1643:Generated_Source\PSoC6\pdl\drivers\peripheral\scb/cy_scb_common.h **** ****************************************************************************//**
1644:Generated_Source\PSoC6\pdl\drivers\peripheral\scb/cy_scb_common.h **** *
1645:Generated_Source\PSoC6\pdl\drivers\peripheral\scb/cy_scb_common.h **** * Returns the RX and TX FIFO depth.
1646:Generated_Source\PSoC6\pdl\drivers\peripheral\scb/cy_scb_common.h **** *
1647:Generated_Source\PSoC6\pdl\drivers\peripheral\scb/cy_scb_common.h **** * \param base
1648:Generated_Source\PSoC6\pdl\drivers\peripheral\scb/cy_scb_common.h **** * The pointer to the SCB instance.
1649:Generated_Source\PSoC6\pdl\drivers\peripheral\scb/cy_scb_common.h **** *
1650:Generated_Source\PSoC6\pdl\drivers\peripheral\scb/cy_scb_common.h **** * \return
1651:Generated_Source\PSoC6\pdl\drivers\peripheral\scb/cy_scb_common.h **** * FIFO depth.
1652:Generated_Source\PSoC6\pdl\drivers\peripheral\scb/cy_scb_common.h **** *
1653:Generated_Source\PSoC6\pdl\drivers\peripheral\scb/cy_scb_common.h **** *******************************************************************************/
1654:Generated_Source\PSoC6\pdl\drivers\peripheral\scb/cy_scb_common.h **** __STATIC_INLINE uint32_t Cy_SCB_GetFifoSize(CySCB_Type const *base)
1655:Generated_Source\PSoC6\pdl\drivers\peripheral\scb/cy_scb_common.h **** {
 829              		.loc 1 1655 0
 830              		.cfi_startproc
 831              		@ args = 0, pretend = 0, frame = 8
 832              		@ frame_needed = 1, uses_anonymous_args = 0
 833              		@ link register save eliminated.
 834 0000 80B4     		push	{r7}
 835              		.cfi_def_cfa_offset 4
 836              		.cfi_offset 7, -4
 837 0002 83B0     		sub	sp, sp, #12
 838              		.cfi_def_cfa_offset 16
 839 0004 00AF     		add	r7, sp, #0
 840              		.cfi_def_cfa_register 7
 841 0006 7860     		str	r0, [r7, #4]
1656:Generated_Source\PSoC6\pdl\drivers\peripheral\scb/cy_scb_common.h ****     return (_FLD2BOOL(SCB_CTRL_BYTE_MODE, base->CTRL) ?
 842              		.loc 1 1656 0
 843 0008 7B68     		ldr	r3, [r7, #4]
 844 000a 1B68     		ldr	r3, [r3]
ARM GAS  C:\Users\ikomb\AppData\Local\Temp\cctq3ka9.s 			page 45


 845 000c 03F40063 		and	r3, r3, #2048
1657:Generated_Source\PSoC6\pdl\drivers\peripheral\scb/cy_scb_common.h ****                 (CY_SCB_FIFO_SIZE(base)) : (CY_SCB_FIFO_SIZE(base) / 2UL));
 846              		.loc 1 1657 0
 847 0010 002B     		cmp	r3, #0
 848 0012 01D0     		beq	.L48
 849              		.loc 1 1657 0 is_stmt 0 discriminator 1
 850 0014 8023     		movs	r3, #128
1656:Generated_Source\PSoC6\pdl\drivers\peripheral\scb/cy_scb_common.h ****     return (_FLD2BOOL(SCB_CTRL_BYTE_MODE, base->CTRL) ?
 851              		.loc 1 1656 0 is_stmt 1 discriminator 1
 852 0016 00E0     		b	.L50
 853              	.L48:
 854              		.loc 1 1657 0 discriminator 2
 855 0018 4023     		movs	r3, #64
 856              	.L50:
1658:Generated_Source\PSoC6\pdl\drivers\peripheral\scb/cy_scb_common.h **** }
 857              		.loc 1 1658 0 discriminator 1
 858 001a 1846     		mov	r0, r3
 859 001c 0C37     		adds	r7, r7, #12
 860              		.cfi_def_cfa_offset 4
 861 001e BD46     		mov	sp, r7
 862              		.cfi_def_cfa_register 13
 863              		@ sp needed
 864 0020 5DF8047B 		ldr	r7, [sp], #4
 865              		.cfi_restore 7
 866              		.cfi_def_cfa_offset 0
 867 0024 7047     		bx	lr
 868              		.cfi_endproc
 869              	.LFE205:
 870              		.size	Cy_SCB_GetFifoSize, .-Cy_SCB_GetFifoSize
 871 0026 00BF     		.section	.text.Cy_SCB_IsRxDataWidthByte,"ax",%progbits
 872              		.align	2
 873              		.thumb
 874              		.thumb_func
 875              		.type	Cy_SCB_IsRxDataWidthByte, %function
 876              	Cy_SCB_IsRxDataWidthByte:
 877              	.LFB206:
1659:Generated_Source\PSoC6\pdl\drivers\peripheral\scb/cy_scb_common.h **** 
1660:Generated_Source\PSoC6\pdl\drivers\peripheral\scb/cy_scb_common.h **** 
1661:Generated_Source\PSoC6\pdl\drivers\peripheral\scb/cy_scb_common.h **** /*******************************************************************************
1662:Generated_Source\PSoC6\pdl\drivers\peripheral\scb/cy_scb_common.h **** * Function Name: Cy_SCB_IsRxDataWidthByte
1663:Generated_Source\PSoC6\pdl\drivers\peripheral\scb/cy_scb_common.h **** ****************************************************************************//**
1664:Generated_Source\PSoC6\pdl\drivers\peripheral\scb/cy_scb_common.h **** *
1665:Generated_Source\PSoC6\pdl\drivers\peripheral\scb/cy_scb_common.h **** * Returns true if the RX data width is a byte (8 bits).
1666:Generated_Source\PSoC6\pdl\drivers\peripheral\scb/cy_scb_common.h **** *
1667:Generated_Source\PSoC6\pdl\drivers\peripheral\scb/cy_scb_common.h **** * \param base
1668:Generated_Source\PSoC6\pdl\drivers\peripheral\scb/cy_scb_common.h **** * The pointer to the SCB instance.
1669:Generated_Source\PSoC6\pdl\drivers\peripheral\scb/cy_scb_common.h **** *
1670:Generated_Source\PSoC6\pdl\drivers\peripheral\scb/cy_scb_common.h **** * \return
1671:Generated_Source\PSoC6\pdl\drivers\peripheral\scb/cy_scb_common.h **** * True if the RX data width is a byte (8 bits).
1672:Generated_Source\PSoC6\pdl\drivers\peripheral\scb/cy_scb_common.h **** *
1673:Generated_Source\PSoC6\pdl\drivers\peripheral\scb/cy_scb_common.h **** *******************************************************************************/
1674:Generated_Source\PSoC6\pdl\drivers\peripheral\scb/cy_scb_common.h **** __STATIC_INLINE bool Cy_SCB_IsRxDataWidthByte(CySCB_Type const *base)
1675:Generated_Source\PSoC6\pdl\drivers\peripheral\scb/cy_scb_common.h **** {
 878              		.loc 1 1675 0
 879              		.cfi_startproc
 880              		@ args = 0, pretend = 0, frame = 8
 881              		@ frame_needed = 1, uses_anonymous_args = 0
ARM GAS  C:\Users\ikomb\AppData\Local\Temp\cctq3ka9.s 			page 46


 882              		@ link register save eliminated.
 883 0000 80B4     		push	{r7}
 884              		.cfi_def_cfa_offset 4
 885              		.cfi_offset 7, -4
 886 0002 83B0     		sub	sp, sp, #12
 887              		.cfi_def_cfa_offset 16
 888 0004 00AF     		add	r7, sp, #0
 889              		.cfi_def_cfa_register 7
 890 0006 7860     		str	r0, [r7, #4]
1676:Generated_Source\PSoC6\pdl\drivers\peripheral\scb/cy_scb_common.h ****     return (_FLD2VAL(SCB_RX_CTRL_DATA_WIDTH, base->RX_CTRL) < CY_SCB_BYTE_WIDTH);
 891              		.loc 1 1676 0
 892 0008 7B68     		ldr	r3, [r7, #4]
 893 000a D3F80033 		ldr	r3, [r3, #768]
 894 000e 03F00F03 		and	r3, r3, #15
 895 0012 072B     		cmp	r3, #7
 896 0014 94BF     		ite	ls
 897 0016 0123     		movls	r3, #1
 898 0018 0023     		movhi	r3, #0
 899 001a DBB2     		uxtb	r3, r3
1677:Generated_Source\PSoC6\pdl\drivers\peripheral\scb/cy_scb_common.h **** }
 900              		.loc 1 1677 0
 901 001c 1846     		mov	r0, r3
 902 001e 0C37     		adds	r7, r7, #12
 903              		.cfi_def_cfa_offset 4
 904 0020 BD46     		mov	sp, r7
 905              		.cfi_def_cfa_register 13
 906              		@ sp needed
 907 0022 5DF8047B 		ldr	r7, [sp], #4
 908              		.cfi_restore 7
 909              		.cfi_def_cfa_offset 0
 910 0026 7047     		bx	lr
 911              		.cfi_endproc
 912              	.LFE206:
 913              		.size	Cy_SCB_IsRxDataWidthByte, .-Cy_SCB_IsRxDataWidthByte
 914              		.section	.text.Cy_SCB_IsTxDataWidthByte,"ax",%progbits
 915              		.align	2
 916              		.thumb
 917              		.thumb_func
 918              		.type	Cy_SCB_IsTxDataWidthByte, %function
 919              	Cy_SCB_IsTxDataWidthByte:
 920              	.LFB207:
1678:Generated_Source\PSoC6\pdl\drivers\peripheral\scb/cy_scb_common.h **** 
1679:Generated_Source\PSoC6\pdl\drivers\peripheral\scb/cy_scb_common.h **** 
1680:Generated_Source\PSoC6\pdl\drivers\peripheral\scb/cy_scb_common.h **** /*******************************************************************************
1681:Generated_Source\PSoC6\pdl\drivers\peripheral\scb/cy_scb_common.h **** * Function Name: Cy_SCB_IsTxDataWidthByte
1682:Generated_Source\PSoC6\pdl\drivers\peripheral\scb/cy_scb_common.h **** ****************************************************************************//**
1683:Generated_Source\PSoC6\pdl\drivers\peripheral\scb/cy_scb_common.h **** *
1684:Generated_Source\PSoC6\pdl\drivers\peripheral\scb/cy_scb_common.h **** * Returns true if the TX data width is a byte (8 bits).
1685:Generated_Source\PSoC6\pdl\drivers\peripheral\scb/cy_scb_common.h **** *
1686:Generated_Source\PSoC6\pdl\drivers\peripheral\scb/cy_scb_common.h **** * \param base
1687:Generated_Source\PSoC6\pdl\drivers\peripheral\scb/cy_scb_common.h **** * The pointer to the SCB instance.
1688:Generated_Source\PSoC6\pdl\drivers\peripheral\scb/cy_scb_common.h **** *
1689:Generated_Source\PSoC6\pdl\drivers\peripheral\scb/cy_scb_common.h **** * \return
1690:Generated_Source\PSoC6\pdl\drivers\peripheral\scb/cy_scb_common.h **** * If true, the TX data width is a byte (8 bits). Otherwise, false.
1691:Generated_Source\PSoC6\pdl\drivers\peripheral\scb/cy_scb_common.h **** *
1692:Generated_Source\PSoC6\pdl\drivers\peripheral\scb/cy_scb_common.h **** *******************************************************************************/
1693:Generated_Source\PSoC6\pdl\drivers\peripheral\scb/cy_scb_common.h **** __STATIC_INLINE bool Cy_SCB_IsTxDataWidthByte(CySCB_Type const *base)
ARM GAS  C:\Users\ikomb\AppData\Local\Temp\cctq3ka9.s 			page 47


1694:Generated_Source\PSoC6\pdl\drivers\peripheral\scb/cy_scb_common.h **** {
 921              		.loc 1 1694 0
 922              		.cfi_startproc
 923              		@ args = 0, pretend = 0, frame = 8
 924              		@ frame_needed = 1, uses_anonymous_args = 0
 925              		@ link register save eliminated.
 926 0000 80B4     		push	{r7}
 927              		.cfi_def_cfa_offset 4
 928              		.cfi_offset 7, -4
 929 0002 83B0     		sub	sp, sp, #12
 930              		.cfi_def_cfa_offset 16
 931 0004 00AF     		add	r7, sp, #0
 932              		.cfi_def_cfa_register 7
 933 0006 7860     		str	r0, [r7, #4]
1695:Generated_Source\PSoC6\pdl\drivers\peripheral\scb/cy_scb_common.h ****     return (_FLD2VAL(SCB_TX_CTRL_DATA_WIDTH, base->TX_CTRL) < CY_SCB_BYTE_WIDTH);
 934              		.loc 1 1695 0
 935 0008 7B68     		ldr	r3, [r7, #4]
 936 000a D3F80032 		ldr	r3, [r3, #512]
 937 000e 03F00F03 		and	r3, r3, #15
 938 0012 072B     		cmp	r3, #7
 939 0014 94BF     		ite	ls
 940 0016 0123     		movls	r3, #1
 941 0018 0023     		movhi	r3, #0
 942 001a DBB2     		uxtb	r3, r3
1696:Generated_Source\PSoC6\pdl\drivers\peripheral\scb/cy_scb_common.h **** }
 943              		.loc 1 1696 0
 944 001c 1846     		mov	r0, r3
 945 001e 0C37     		adds	r7, r7, #12
 946              		.cfi_def_cfa_offset 4
 947 0020 BD46     		mov	sp, r7
 948              		.cfi_def_cfa_register 13
 949              		@ sp needed
 950 0022 5DF8047B 		ldr	r7, [sp], #4
 951              		.cfi_restore 7
 952              		.cfi_def_cfa_offset 0
 953 0026 7047     		bx	lr
 954              		.cfi_endproc
 955              	.LFE207:
 956              		.size	Cy_SCB_IsTxDataWidthByte, .-Cy_SCB_IsTxDataWidthByte
 957              		.section	.text.Cy_SCB_UART_Enable,"ax",%progbits
 958              		.align	2
 959              		.thumb
 960              		.thumb_func
 961              		.type	Cy_SCB_UART_Enable, %function
 962              	Cy_SCB_UART_Enable:
 963              	.LFB210:
 964              		.file 2 "Generated_Source\\PSoC6\\pdl\\drivers\\peripheral\\scb\\cy_scb_uart.h"
   1:Generated_Source\PSoC6\pdl\drivers\peripheral\scb/cy_scb_uart.h **** /***************************************************************************//**
   2:Generated_Source\PSoC6\pdl\drivers\peripheral\scb/cy_scb_uart.h **** * \file cy_scb_uart.h
   3:Generated_Source\PSoC6\pdl\drivers\peripheral\scb/cy_scb_uart.h **** * \version 2.10
   4:Generated_Source\PSoC6\pdl\drivers\peripheral\scb/cy_scb_uart.h **** *
   5:Generated_Source\PSoC6\pdl\drivers\peripheral\scb/cy_scb_uart.h **** * Provides UART API declarations of the SCB driver.
   6:Generated_Source\PSoC6\pdl\drivers\peripheral\scb/cy_scb_uart.h **** *
   7:Generated_Source\PSoC6\pdl\drivers\peripheral\scb/cy_scb_uart.h **** ********************************************************************************
   8:Generated_Source\PSoC6\pdl\drivers\peripheral\scb/cy_scb_uart.h **** * \copyright
   9:Generated_Source\PSoC6\pdl\drivers\peripheral\scb/cy_scb_uart.h **** * Copyright 2016-2018, Cypress Semiconductor Corporation.  All rights reserved.
  10:Generated_Source\PSoC6\pdl\drivers\peripheral\scb/cy_scb_uart.h **** * You may use this file only in accordance with the license, terms, conditions,
ARM GAS  C:\Users\ikomb\AppData\Local\Temp\cctq3ka9.s 			page 48


  11:Generated_Source\PSoC6\pdl\drivers\peripheral\scb/cy_scb_uart.h **** * disclaimers, and limitations in the end user license agreement accompanying
  12:Generated_Source\PSoC6\pdl\drivers\peripheral\scb/cy_scb_uart.h **** * the software package with which this file was provided.
  13:Generated_Source\PSoC6\pdl\drivers\peripheral\scb/cy_scb_uart.h **** *******************************************************************************/
  14:Generated_Source\PSoC6\pdl\drivers\peripheral\scb/cy_scb_uart.h **** 
  15:Generated_Source\PSoC6\pdl\drivers\peripheral\scb/cy_scb_uart.h **** /**
  16:Generated_Source\PSoC6\pdl\drivers\peripheral\scb/cy_scb_uart.h **** * \addtogroup group_scb_uart
  17:Generated_Source\PSoC6\pdl\drivers\peripheral\scb/cy_scb_uart.h **** * \{
  18:Generated_Source\PSoC6\pdl\drivers\peripheral\scb/cy_scb_uart.h **** * Driver API for UART
  19:Generated_Source\PSoC6\pdl\drivers\peripheral\scb/cy_scb_uart.h **** *
  20:Generated_Source\PSoC6\pdl\drivers\peripheral\scb/cy_scb_uart.h **** * UART - Universal Synchronous/Asynchronous Receiver/Transmitter,
  21:Generated_Source\PSoC6\pdl\drivers\peripheral\scb/cy_scb_uart.h **** * commonly referred to as RS-232.
  22:Generated_Source\PSoC6\pdl\drivers\peripheral\scb/cy_scb_uart.h **** *
  23:Generated_Source\PSoC6\pdl\drivers\peripheral\scb/cy_scb_uart.h **** * Three different UART-like serial interface protocols are supported:
  24:Generated_Source\PSoC6\pdl\drivers\peripheral\scb/cy_scb_uart.h **** * * UART - the standard mode with an optional UART Hardware flow control.
  25:Generated_Source\PSoC6\pdl\drivers\peripheral\scb/cy_scb_uart.h **** * * SmartCard - the transfer is similar to the UART transfer,
  26:Generated_Source\PSoC6\pdl\drivers\peripheral\scb/cy_scb_uart.h **** *   but a NACK (negative acknowledgment) may be sent from the
  27:Generated_Source\PSoC6\pdl\drivers\peripheral\scb/cy_scb_uart.h **** *   receiver to the transmitter. Both transmitter and receiver drive the same
  28:Generated_Source\PSoC6\pdl\drivers\peripheral\scb/cy_scb_uart.h **** *   line, although never at the same time.
  29:Generated_Source\PSoC6\pdl\drivers\peripheral\scb/cy_scb_uart.h **** * * IrDA - the Infra-red Data Association protocol adds a modulation
  30:Generated_Source\PSoC6\pdl\drivers\peripheral\scb/cy_scb_uart.h **** *   scheme to the UART signaling. At the transmitter, bits are modulated.
  31:Generated_Source\PSoC6\pdl\drivers\peripheral\scb/cy_scb_uart.h **** *   At the receiver, bits are demodulated. The modulation scheme uses the
  32:Generated_Source\PSoC6\pdl\drivers\peripheral\scb/cy_scb_uart.h **** *   Return-to-Zero-Inverted (RZI) format. Bit value "0" is signaled by a
  33:Generated_Source\PSoC6\pdl\drivers\peripheral\scb/cy_scb_uart.h **** *   short "1" pulse on the line and bit value "1" is signaled by holding
  34:Generated_Source\PSoC6\pdl\drivers\peripheral\scb/cy_scb_uart.h **** *   the line to "0".
  35:Generated_Source\PSoC6\pdl\drivers\peripheral\scb/cy_scb_uart.h **** *
  36:Generated_Source\PSoC6\pdl\drivers\peripheral\scb/cy_scb_uart.h **** * \section group_scb_uart_configuration Configuration Considerations
  37:Generated_Source\PSoC6\pdl\drivers\peripheral\scb/cy_scb_uart.h **** * The UART driver configuration can be divided to number of sequential
  38:Generated_Source\PSoC6\pdl\drivers\peripheral\scb/cy_scb_uart.h **** * steps listed below:
  39:Generated_Source\PSoC6\pdl\drivers\peripheral\scb/cy_scb_uart.h **** * * \ref group_scb_uart_config
  40:Generated_Source\PSoC6\pdl\drivers\peripheral\scb/cy_scb_uart.h **** * * \ref group_scb_uart_pins
  41:Generated_Source\PSoC6\pdl\drivers\peripheral\scb/cy_scb_uart.h **** * * \ref group_scb_uart_clock
  42:Generated_Source\PSoC6\pdl\drivers\peripheral\scb/cy_scb_uart.h **** * * \ref group_scb_uart_data_rate
  43:Generated_Source\PSoC6\pdl\drivers\peripheral\scb/cy_scb_uart.h **** * * \ref group_scb_uart_intr
  44:Generated_Source\PSoC6\pdl\drivers\peripheral\scb/cy_scb_uart.h **** * * \ref group_scb_uart_enable
  45:Generated_Source\PSoC6\pdl\drivers\peripheral\scb/cy_scb_uart.h **** *
  46:Generated_Source\PSoC6\pdl\drivers\peripheral\scb/cy_scb_uart.h **** * \note
  47:Generated_Source\PSoC6\pdl\drivers\peripheral\scb/cy_scb_uart.h **** * UART driver is built on top of the SCB hardware block. The SCB5 instance is
  48:Generated_Source\PSoC6\pdl\drivers\peripheral\scb/cy_scb_uart.h **** * used as an example for all code snippets. Modify the code to match your
  49:Generated_Source\PSoC6\pdl\drivers\peripheral\scb/cy_scb_uart.h **** * design.
  50:Generated_Source\PSoC6\pdl\drivers\peripheral\scb/cy_scb_uart.h **** *
  51:Generated_Source\PSoC6\pdl\drivers\peripheral\scb/cy_scb_uart.h **** * \subsection group_scb_uart_config Configure UART
  52:Generated_Source\PSoC6\pdl\drivers\peripheral\scb/cy_scb_uart.h **** * To set up the UART slave driver, provide the configuration parameters in the
  53:Generated_Source\PSoC6\pdl\drivers\peripheral\scb/cy_scb_uart.h **** * \ref cy_stc_scb_uart_config_t structure. For example: provide uartMode,
  54:Generated_Source\PSoC6\pdl\drivers\peripheral\scb/cy_scb_uart.h **** * oversample, dataWidth, enableMsbFirst, parity, and stopBits. The other
  55:Generated_Source\PSoC6\pdl\drivers\peripheral\scb/cy_scb_uart.h **** * parameters are optional for operation. To initialize the driver,
  56:Generated_Source\PSoC6\pdl\drivers\peripheral\scb/cy_scb_uart.h **** * call \ref Cy_SCB_UART_Init function providing a pointer to the filled
  57:Generated_Source\PSoC6\pdl\drivers\peripheral\scb/cy_scb_uart.h **** * \ref cy_stc_scb_uart_config_t structure and allocated \ref cy_stc_scb_uart_context_t.
  58:Generated_Source\PSoC6\pdl\drivers\peripheral\scb/cy_scb_uart.h **** *
  59:Generated_Source\PSoC6\pdl\drivers\peripheral\scb/cy_scb_uart.h **** * \snippet SCB_CompDatasheet_sut_01_revA.cydsn\uart_snippets.c UART_CFG
  60:Generated_Source\PSoC6\pdl\drivers\peripheral\scb/cy_scb_uart.h **** *
  61:Generated_Source\PSoC6\pdl\drivers\peripheral\scb/cy_scb_uart.h **** * \subsection group_scb_uart_pins Assign and Configure Pins
  62:Generated_Source\PSoC6\pdl\drivers\peripheral\scb/cy_scb_uart.h **** * Only dedicated SCB pins can be used for UART operation. The HSIOM
  63:Generated_Source\PSoC6\pdl\drivers\peripheral\scb/cy_scb_uart.h **** * register must be configured to connect the block to the pins. Also the UART output
  64:Generated_Source\PSoC6\pdl\drivers\peripheral\scb/cy_scb_uart.h **** * pins must be configured in Strong Drive mode and UART input pins in
  65:Generated_Source\PSoC6\pdl\drivers\peripheral\scb/cy_scb_uart.h **** * Digital High-Z:
  66:Generated_Source\PSoC6\pdl\drivers\peripheral\scb/cy_scb_uart.h **** *
  67:Generated_Source\PSoC6\pdl\drivers\peripheral\scb/cy_scb_uart.h **** * \snippet SCB_CompDatasheet_sut_01_revA.cydsn\uart_snippets.c UART_CFG_PINS
ARM GAS  C:\Users\ikomb\AppData\Local\Temp\cctq3ka9.s 			page 49


  68:Generated_Source\PSoC6\pdl\drivers\peripheral\scb/cy_scb_uart.h **** *
  69:Generated_Source\PSoC6\pdl\drivers\peripheral\scb/cy_scb_uart.h **** * \note
  70:Generated_Source\PSoC6\pdl\drivers\peripheral\scb/cy_scb_uart.h **** * The SCB stops driving pins when it is disabled or enters low power mode (except
  71:Generated_Source\PSoC6\pdl\drivers\peripheral\scb/cy_scb_uart.h **** * Alternate Active or Sleep). To keep the pins' states, they should be reconfigured or
  72:Generated_Source\PSoC6\pdl\drivers\peripheral\scb/cy_scb_uart.h **** * be frozen.
  73:Generated_Source\PSoC6\pdl\drivers\peripheral\scb/cy_scb_uart.h **** *
  74:Generated_Source\PSoC6\pdl\drivers\peripheral\scb/cy_scb_uart.h **** * \subsection group_scb_uart_clock Assign Clock Divider
  75:Generated_Source\PSoC6\pdl\drivers\peripheral\scb/cy_scb_uart.h **** * The clock source must be connected to the SCB block to oversample input and
  76:Generated_Source\PSoC6\pdl\drivers\peripheral\scb/cy_scb_uart.h **** * output signals. You must use one of the 8-bit or 16-bit dividers <em><b>(the
  77:Generated_Source\PSoC6\pdl\drivers\peripheral\scb/cy_scb_uart.h **** * source clock of this divider must be Clk_Peri)</b></em>. Use the \ref group_sysclk
  78:Generated_Source\PSoC6\pdl\drivers\peripheral\scb/cy_scb_uart.h **** * driver API to do that.
  79:Generated_Source\PSoC6\pdl\drivers\peripheral\scb/cy_scb_uart.h **** *
  80:Generated_Source\PSoC6\pdl\drivers\peripheral\scb/cy_scb_uart.h **** * \snippet SCB_CompDatasheet_sut_01_revA.cydsn\uart_snippets.c UART_CFG_ASSIGN_CLOCK
  81:Generated_Source\PSoC6\pdl\drivers\peripheral\scb/cy_scb_uart.h **** *
  82:Generated_Source\PSoC6\pdl\drivers\peripheral\scb/cy_scb_uart.h **** * \subsection group_scb_uart_data_rate Configure Baud Rate
  83:Generated_Source\PSoC6\pdl\drivers\peripheral\scb/cy_scb_uart.h **** * To get the UART to operate with the desired baud rate, the source clock frequency
  84:Generated_Source\PSoC6\pdl\drivers\peripheral\scb/cy_scb_uart.h **** * and the oversample must be configured. Use the \ref group_sysclk driver API
  85:Generated_Source\PSoC6\pdl\drivers\peripheral\scb/cy_scb_uart.h **** * to configure source clock frequency. Set the <em><b>oversample parameter
  86:Generated_Source\PSoC6\pdl\drivers\peripheral\scb/cy_scb_uart.h **** * in configuration structure</b></em> to define the number of the SCB clocks
  87:Generated_Source\PSoC6\pdl\drivers\peripheral\scb/cy_scb_uart.h **** * within one UART bit-time.
  88:Generated_Source\PSoC6\pdl\drivers\peripheral\scb/cy_scb_uart.h **** *
  89:Generated_Source\PSoC6\pdl\drivers\peripheral\scb/cy_scb_uart.h **** * \snippet SCB_CompDatasheet_sut_01_revA.cydsn\uart_snippets.c UART_CFG_DATA_RATE
  90:Generated_Source\PSoC6\pdl\drivers\peripheral\scb/cy_scb_uart.h **** *
  91:Generated_Source\PSoC6\pdl\drivers\peripheral\scb/cy_scb_uart.h **** * Refer to the technical reference manual (TRM) section UART sub-section
  92:Generated_Source\PSoC6\pdl\drivers\peripheral\scb/cy_scb_uart.h **** * Clocking and Oversampling to get information about how to configure the UART to run with
  93:Generated_Source\PSoC6\pdl\drivers\peripheral\scb/cy_scb_uart.h **** * desired baud rate.
  94:Generated_Source\PSoC6\pdl\drivers\peripheral\scb/cy_scb_uart.h **** *
  95:Generated_Source\PSoC6\pdl\drivers\peripheral\scb/cy_scb_uart.h **** * \subsection group_scb_uart_intr Configure Interrupt
  96:Generated_Source\PSoC6\pdl\drivers\peripheral\scb/cy_scb_uart.h **** * The interrupt is optional for the UART operation. To configure interrupt
  97:Generated_Source\PSoC6\pdl\drivers\peripheral\scb/cy_scb_uart.h **** * the \ref Cy_SCB_UART_Interrupt function must be called in the interrupt
  98:Generated_Source\PSoC6\pdl\drivers\peripheral\scb/cy_scb_uart.h **** * handler for the selected SCB instance. Also, this interrupt must be enabled
  99:Generated_Source\PSoC6\pdl\drivers\peripheral\scb/cy_scb_uart.h **** * in the NVIC.
 100:Generated_Source\PSoC6\pdl\drivers\peripheral\scb/cy_scb_uart.h **** *
 101:Generated_Source\PSoC6\pdl\drivers\peripheral\scb/cy_scb_uart.h **** * \snippet SCB_CompDatasheet_sut_01_revA.cydsn\uart_snippets.c UART_INTR_A
 102:Generated_Source\PSoC6\pdl\drivers\peripheral\scb/cy_scb_uart.h **** * \snippet SCB_CompDatasheet_sut_01_revA.cydsn\uart_snippets.c UART_INTR_B
 103:Generated_Source\PSoC6\pdl\drivers\peripheral\scb/cy_scb_uart.h **** *
 104:Generated_Source\PSoC6\pdl\drivers\peripheral\scb/cy_scb_uart.h **** * \subsection group_scb_uart_enable Enable UART
 105:Generated_Source\PSoC6\pdl\drivers\peripheral\scb/cy_scb_uart.h **** * Finally, enable the UART operation calling \ref Cy_SCB_UART_Enable.
 106:Generated_Source\PSoC6\pdl\drivers\peripheral\scb/cy_scb_uart.h **** *
 107:Generated_Source\PSoC6\pdl\drivers\peripheral\scb/cy_scb_uart.h **** * \snippet SCB_CompDatasheet_sut_01_revA.cydsn\uart_snippets.c UART_ENABLE
 108:Generated_Source\PSoC6\pdl\drivers\peripheral\scb/cy_scb_uart.h **** 
 109:Generated_Source\PSoC6\pdl\drivers\peripheral\scb/cy_scb_uart.h **** * \section group_scb_uart_use_cases Common Use Cases
 110:Generated_Source\PSoC6\pdl\drivers\peripheral\scb/cy_scb_uart.h **** * The UART API is divided into two categories: \ref group_scb_spi_low_level_functions
 111:Generated_Source\PSoC6\pdl\drivers\peripheral\scb/cy_scb_uart.h **** * and \ref group_scb_spi_high_level_functions. \n
 112:Generated_Source\PSoC6\pdl\drivers\peripheral\scb/cy_scb_uart.h **** * <em>Do not mix <b>High-Level</b> and <b>Low-Level</b> API because a Low-Level
 113:Generated_Source\PSoC6\pdl\drivers\peripheral\scb/cy_scb_uart.h **** * API can adversely affect the operation of a High-Level API.</em>
 114:Generated_Source\PSoC6\pdl\drivers\peripheral\scb/cy_scb_uart.h **** *
 115:Generated_Source\PSoC6\pdl\drivers\peripheral\scb/cy_scb_uart.h **** * \subsection group_scb_uart_ll Low-Level API
 116:Generated_Source\PSoC6\pdl\drivers\peripheral\scb/cy_scb_uart.h **** * The \ref group_scb_uart_low_level_functions API allows
 117:Generated_Source\PSoC6\pdl\drivers\peripheral\scb/cy_scb_uart.h **** * interacting directly with the hardware and do not use interrupt.
 118:Generated_Source\PSoC6\pdl\drivers\peripheral\scb/cy_scb_uart.h **** * These functions do not require context for operation, thus NULL can be
 119:Generated_Source\PSoC6\pdl\drivers\peripheral\scb/cy_scb_uart.h **** * passed in \ref Cy_SCB_UART_Init and \ref Cy_SCB_UART_Disable instead of
 120:Generated_Source\PSoC6\pdl\drivers\peripheral\scb/cy_scb_uart.h **** * a pointer to the context structure.
 121:Generated_Source\PSoC6\pdl\drivers\peripheral\scb/cy_scb_uart.h **** *
 122:Generated_Source\PSoC6\pdl\drivers\peripheral\scb/cy_scb_uart.h **** * * To write data into the TX FIFO, use one of the provided functions:
 123:Generated_Source\PSoC6\pdl\drivers\peripheral\scb/cy_scb_uart.h **** *   \ref Cy_SCB_UART_Put, \ref Cy_SCB_UART_PutArray,
 124:Generated_Source\PSoC6\pdl\drivers\peripheral\scb/cy_scb_uart.h **** *   \ref Cy_SCB_UART_PutArrayBlocking or \ref Cy_SCB_UART_PutString.
ARM GAS  C:\Users\ikomb\AppData\Local\Temp\cctq3ka9.s 			page 50


 125:Generated_Source\PSoC6\pdl\drivers\peripheral\scb/cy_scb_uart.h **** *   Note that putting data into the TX FIFO starts data transfer.
 126:Generated_Source\PSoC6\pdl\drivers\peripheral\scb/cy_scb_uart.h **** *
 127:Generated_Source\PSoC6\pdl\drivers\peripheral\scb/cy_scb_uart.h **** * * To read data from the RX FIFO, use one of the provided functions:
 128:Generated_Source\PSoC6\pdl\drivers\peripheral\scb/cy_scb_uart.h **** *   \ref Cy_SCB_UART_Get, \ref Cy_SCB_UART_GetArray or
 129:Generated_Source\PSoC6\pdl\drivers\peripheral\scb/cy_scb_uart.h **** *   \ref Cy_SCB_UART_GetArrayBlocking.
 130:Generated_Source\PSoC6\pdl\drivers\peripheral\scb/cy_scb_uart.h **** *
 131:Generated_Source\PSoC6\pdl\drivers\peripheral\scb/cy_scb_uart.h **** * * The statuses can be polled using: \ref Cy_SCB_UART_GetRxFifoStatus and
 132:Generated_Source\PSoC6\pdl\drivers\peripheral\scb/cy_scb_uart.h **** *   \ref Cy_SCB_UART_GetTxFifoStatus.
 133:Generated_Source\PSoC6\pdl\drivers\peripheral\scb/cy_scb_uart.h **** *   <em>The statuses are <b>W1C (Write 1 to Clear)</b> and after a status
 134:Generated_Source\PSoC6\pdl\drivers\peripheral\scb/cy_scb_uart.h **** *   is set, it must be cleared.</em> Note that there are statuses evaluated as level.
 135:Generated_Source\PSoC6\pdl\drivers\peripheral\scb/cy_scb_uart.h **** *   These statuses remain set until an event is true. Therefore, after the clear
 136:Generated_Source\PSoC6\pdl\drivers\peripheral\scb/cy_scb_uart.h **** *   operation, the status is cleared but then it is restored (if event is still
 137:Generated_Source\PSoC6\pdl\drivers\peripheral\scb/cy_scb_uart.h **** *   true).
 138:Generated_Source\PSoC6\pdl\drivers\peripheral\scb/cy_scb_uart.h **** *   For example: the TX FIFO empty interrupt source can be cleared when the
 139:Generated_Source\PSoC6\pdl\drivers\peripheral\scb/cy_scb_uart.h **** *   TX FIFO is not empty. Put at least two data elements (one goes to the
 140:Generated_Source\PSoC6\pdl\drivers\peripheral\scb/cy_scb_uart.h **** *   shifter and next to FIFO) before clearing this status. \n
 141:Generated_Source\PSoC6\pdl\drivers\peripheral\scb/cy_scb_uart.h **** *   Also, following functions can be used for polling as well
 142:Generated_Source\PSoC6\pdl\drivers\peripheral\scb/cy_scb_uart.h **** *   \ref Cy_SCB_UART_IsTxComplete, \ref Cy_SCB_UART_GetNumInRxFifo and
 143:Generated_Source\PSoC6\pdl\drivers\peripheral\scb/cy_scb_uart.h **** *   \ref Cy_SCB_UART_GetNumInTxFifo.
 144:Generated_Source\PSoC6\pdl\drivers\peripheral\scb/cy_scb_uart.h **** *
 145:Generated_Source\PSoC6\pdl\drivers\peripheral\scb/cy_scb_uart.h **** * \snippet SCB_CompDatasheet_sut_01_revA.cydsn\uart_snippets.c UART_TRANSMIT_DATA_LL
 146:Generated_Source\PSoC6\pdl\drivers\peripheral\scb/cy_scb_uart.h **** *
 147:Generated_Source\PSoC6\pdl\drivers\peripheral\scb/cy_scb_uart.h **** * \subsection group_scb_uart_hl High-Level API
 148:Generated_Source\PSoC6\pdl\drivers\peripheral\scb/cy_scb_uart.h **** 
 149:Generated_Source\PSoC6\pdl\drivers\peripheral\scb/cy_scb_uart.h **** * The \ref group_scb_uart_high_level_functions API uses an interrupt to
 150:Generated_Source\PSoC6\pdl\drivers\peripheral\scb/cy_scb_uart.h **** * execute transfer. Call \ref Cy_SCB_UART_Transmit to start transmission.
 151:Generated_Source\PSoC6\pdl\drivers\peripheral\scb/cy_scb_uart.h **** * Call \ref Cy_SCB_UART_Receive to start receive operation. After the
 152:Generated_Source\PSoC6\pdl\drivers\peripheral\scb/cy_scb_uart.h **** * operation is started the \ref Cy_SCB_UART_Interrupt handles the data
 153:Generated_Source\PSoC6\pdl\drivers\peripheral\scb/cy_scb_uart.h **** * transfer until its completion.
 154:Generated_Source\PSoC6\pdl\drivers\peripheral\scb/cy_scb_uart.h **** * Therefore \ref Cy_SCB_UART_Interrupt must be called inside the
 155:Generated_Source\PSoC6\pdl\drivers\peripheral\scb/cy_scb_uart.h **** * interrupt handler to make the High-Level API work. To monitor status
 156:Generated_Source\PSoC6\pdl\drivers\peripheral\scb/cy_scb_uart.h **** * of transmit operation, use \ref Cy_SCB_UART_GetTransmitStatus and
 157:Generated_Source\PSoC6\pdl\drivers\peripheral\scb/cy_scb_uart.h **** * \ref Cy_SCB_UART_GetReceiveStatus to monitor receive status appropriately.
 158:Generated_Source\PSoC6\pdl\drivers\peripheral\scb/cy_scb_uart.h **** * Alternatively use \ref Cy_SCB_UART_RegisterCallback to register callback
 159:Generated_Source\PSoC6\pdl\drivers\peripheral\scb/cy_scb_uart.h **** * function to be notified about \ref group_scb_uart_macros_callback_events.
 160:Generated_Source\PSoC6\pdl\drivers\peripheral\scb/cy_scb_uart.h **** *
 161:Generated_Source\PSoC6\pdl\drivers\peripheral\scb/cy_scb_uart.h **** * <b>Receive Operation</b>
 162:Generated_Source\PSoC6\pdl\drivers\peripheral\scb/cy_scb_uart.h **** * \snippet SCB_CompDatasheet_sut_01_revA.cydsn\uart_snippets.c UART_RECEIVE_DATA_HL
 163:Generated_Source\PSoC6\pdl\drivers\peripheral\scb/cy_scb_uart.h **** *
 164:Generated_Source\PSoC6\pdl\drivers\peripheral\scb/cy_scb_uart.h **** * <b>Transmit Operation</b>
 165:Generated_Source\PSoC6\pdl\drivers\peripheral\scb/cy_scb_uart.h **** * \snippet SCB_CompDatasheet_sut_01_revA.cydsn\uart_snippets.c UART_TRANSMIT_DATA_HL
 166:Generated_Source\PSoC6\pdl\drivers\peripheral\scb/cy_scb_uart.h **** *
 167:Generated_Source\PSoC6\pdl\drivers\peripheral\scb/cy_scb_uart.h **** * There is also capability to insert a receive ring buffer that operates between
 168:Generated_Source\PSoC6\pdl\drivers\peripheral\scb/cy_scb_uart.h **** * the RX FIFO and the user buffer. The received data is copied into the ring
 169:Generated_Source\PSoC6\pdl\drivers\peripheral\scb/cy_scb_uart.h **** * buffer from the RX FIFO. This process runs in the background after the ring
 170:Generated_Source\PSoC6\pdl\drivers\peripheral\scb/cy_scb_uart.h **** * buffer operation is started by \ref Cy_SCB_UART_StartRingBuffer.
 171:Generated_Source\PSoC6\pdl\drivers\peripheral\scb/cy_scb_uart.h **** * When \ref Cy_SCB_UART_Receive is called, it first reads data from the ring
 172:Generated_Source\PSoC6\pdl\drivers\peripheral\scb/cy_scb_uart.h **** * buffer and then sets up an interrupt to receive more data if the required
 173:Generated_Source\PSoC6\pdl\drivers\peripheral\scb/cy_scb_uart.h **** * amount has not yet been read.
 174:Generated_Source\PSoC6\pdl\drivers\peripheral\scb/cy_scb_uart.h **** *
 175:Generated_Source\PSoC6\pdl\drivers\peripheral\scb/cy_scb_uart.h **** * \section group_scb_uart_dma_trig DMA Trigger
 176:Generated_Source\PSoC6\pdl\drivers\peripheral\scb/cy_scb_uart.h **** * The SCB provides TX and RX output trigger signals that can be routed to the
 177:Generated_Source\PSoC6\pdl\drivers\peripheral\scb/cy_scb_uart.h **** * DMA controller inputs. These signals are assigned based on the data availability
 178:Generated_Source\PSoC6\pdl\drivers\peripheral\scb/cy_scb_uart.h **** * in the TX and RX FIFOs appropriately.
 179:Generated_Source\PSoC6\pdl\drivers\peripheral\scb/cy_scb_uart.h **** *
 180:Generated_Source\PSoC6\pdl\drivers\peripheral\scb/cy_scb_uart.h **** * * The RX trigger signal remains active until the number of data
 181:Generated_Source\PSoC6\pdl\drivers\peripheral\scb/cy_scb_uart.h **** *   elements in the RX FIFO is greater than the value of RX FIFO level. Use
ARM GAS  C:\Users\ikomb\AppData\Local\Temp\cctq3ka9.s 			page 51


 182:Generated_Source\PSoC6\pdl\drivers\peripheral\scb/cy_scb_uart.h **** *   function \ref Cy_SCB_SetRxFifoLevel or set configuration structure
 183:Generated_Source\PSoC6\pdl\drivers\peripheral\scb/cy_scb_uart.h **** *   rxFifoTriggerLevel parameter to configure RX FIFO level value. \n
 184:Generated_Source\PSoC6\pdl\drivers\peripheral\scb/cy_scb_uart.h **** *   <em>For example, the RX FIFO has 8 data elements and the RX FIFO level is 0.
 185:Generated_Source\PSoC6\pdl\drivers\peripheral\scb/cy_scb_uart.h **** *   The RX trigger signal remains active until DMA does not read all data from
 186:Generated_Source\PSoC6\pdl\drivers\peripheral\scb/cy_scb_uart.h **** *   the RX FIFO.</em>
 187:Generated_Source\PSoC6\pdl\drivers\peripheral\scb/cy_scb_uart.h **** *
 188:Generated_Source\PSoC6\pdl\drivers\peripheral\scb/cy_scb_uart.h **** * * The TX trigger signal remains active until the number of data elements
 189:Generated_Source\PSoC6\pdl\drivers\peripheral\scb/cy_scb_uart.h **** *   in the TX FIFO is less than the value of TX FIFO level. Use function
 190:Generated_Source\PSoC6\pdl\drivers\peripheral\scb/cy_scb_uart.h **** *   \ref Cy_SCB_SetTxFifoLevel or set configuration structure txFifoTriggerLevel
 191:Generated_Source\PSoC6\pdl\drivers\peripheral\scb/cy_scb_uart.h **** *   parameter to configure TX FIFO level value. \n
 192:Generated_Source\PSoC6\pdl\drivers\peripheral\scb/cy_scb_uart.h **** *   <em>For example, the TX FIFO has 0 data elements (empty) and the TX FIFO level
 193:Generated_Source\PSoC6\pdl\drivers\peripheral\scb/cy_scb_uart.h **** *   is 7. The TX trigger signal remains active until DMA does not load TX FIFO
 194:Generated_Source\PSoC6\pdl\drivers\peripheral\scb/cy_scb_uart.h **** *   with 7 data elements (note that after the first TX load operation, the data 
 195:Generated_Source\PSoC6\pdl\drivers\peripheral\scb/cy_scb_uart.h **** *   element goes to the shift register and TX FIFO remains empty).</em>
 196:Generated_Source\PSoC6\pdl\drivers\peripheral\scb/cy_scb_uart.h **** *
 197:Generated_Source\PSoC6\pdl\drivers\peripheral\scb/cy_scb_uart.h **** * To route SCB TX or RX trigger signals to DMA controller use \ref group_trigmux
 198:Generated_Source\PSoC6\pdl\drivers\peripheral\scb/cy_scb_uart.h **** * driver API.
 199:Generated_Source\PSoC6\pdl\drivers\peripheral\scb/cy_scb_uart.h **** *
 200:Generated_Source\PSoC6\pdl\drivers\peripheral\scb/cy_scb_uart.h **** * \note
 201:Generated_Source\PSoC6\pdl\drivers\peripheral\scb/cy_scb_uart.h **** * To properly handle DMA level request signal activation and de-activation from the SCB
 202:Generated_Source\PSoC6\pdl\drivers\peripheral\scb/cy_scb_uart.h **** * peripheral block the DMA Descriptor typically must be configured to re-trigger
 203:Generated_Source\PSoC6\pdl\drivers\peripheral\scb/cy_scb_uart.h **** * after 16 Clk_Slow cycles.
 204:Generated_Source\PSoC6\pdl\drivers\peripheral\scb/cy_scb_uart.h **** *
 205:Generated_Source\PSoC6\pdl\drivers\peripheral\scb/cy_scb_uart.h **** * \section group_scb_uart_lp Low Power Support
 206:Generated_Source\PSoC6\pdl\drivers\peripheral\scb/cy_scb_uart.h **** * The UART driver provides the callback functions to handle power mode
 207:Generated_Source\PSoC6\pdl\drivers\peripheral\scb/cy_scb_uart.h **** * transition. The callback \ref Cy_SCB_UART_DeepSleepCallback must be called
 208:Generated_Source\PSoC6\pdl\drivers\peripheral\scb/cy_scb_uart.h **** * during execution of \ref Cy_SysPm_DeepSleep; \ref Cy_SCB_UART_HibernateCallback
 209:Generated_Source\PSoC6\pdl\drivers\peripheral\scb/cy_scb_uart.h **** * must be called during execution of \ref Cy_SysPm_Hibernate. To trigger the
 210:Generated_Source\PSoC6\pdl\drivers\peripheral\scb/cy_scb_uart.h **** * callback execution, the callback must be registered before calling the
 211:Generated_Source\PSoC6\pdl\drivers\peripheral\scb/cy_scb_uart.h **** * power mode transition function. Refer to \ref group_syspm driver for more
 212:Generated_Source\PSoC6\pdl\drivers\peripheral\scb/cy_scb_uart.h **** * information about power mode transitions and callback registration.
 213:Generated_Source\PSoC6\pdl\drivers\peripheral\scb/cy_scb_uart.h **** *
 214:Generated_Source\PSoC6\pdl\drivers\peripheral\scb/cy_scb_uart.h **** * The UART is disabled during Deep Sleep and Hibernate and stops driving 
 215:Generated_Source\PSoC6\pdl\drivers\peripheral\scb/cy_scb_uart.h **** * the output pins. The state of the UART output pins TX and RTS is High-Z, 
 216:Generated_Source\PSoC6\pdl\drivers\peripheral\scb/cy_scb_uart.h **** * which can cause unexpected behavior of the UART receiver due to possible
 217:Generated_Source\PSoC6\pdl\drivers\peripheral\scb/cy_scb_uart.h **** * glitches on these lines. These pins must be set to the inactive state before 
 218:Generated_Source\PSoC6\pdl\drivers\peripheral\scb/cy_scb_uart.h **** * entering Deep Sleep or Hibernate mode. To do that, configure the UART  
 219:Generated_Source\PSoC6\pdl\drivers\peripheral\scb/cy_scb_uart.h **** * pins output to drive the inactive state and High-Speed Input Output 
 220:Generated_Source\PSoC6\pdl\drivers\peripheral\scb/cy_scb_uart.h **** * Multiplexer (HSIOM) to control output by GPIO (use \ref group_gpio 
 221:Generated_Source\PSoC6\pdl\drivers\peripheral\scb/cy_scb_uart.h **** * driver API). The pins configuration must be restored after exiting Deep Sleep 
 222:Generated_Source\PSoC6\pdl\drivers\peripheral\scb/cy_scb_uart.h **** * mode to return the UART control of the pins (after exiting Hibernate mode, 
 223:Generated_Source\PSoC6\pdl\drivers\peripheral\scb/cy_scb_uart.h **** * the system init code does the same). 
 224:Generated_Source\PSoC6\pdl\drivers\peripheral\scb/cy_scb_uart.h **** * Note that the UART must be enabled to drive the pins during configuration 
 225:Generated_Source\PSoC6\pdl\drivers\peripheral\scb/cy_scb_uart.h **** * change not to cause glitches on the lines. Copy either or both 
 226:Generated_Source\PSoC6\pdl\drivers\peripheral\scb/cy_scb_uart.h **** * \ref Cy_SCB_UART_DeepSleepCallback and \ref Cy_SCB_UART_HibernateCallback as 
 227:Generated_Source\PSoC6\pdl\drivers\peripheral\scb/cy_scb_uart.h **** * appropriate, and make the changes described above inside the function.
 228:Generated_Source\PSoC6\pdl\drivers\peripheral\scb/cy_scb_uart.h **** * Alternately, external pull-up or pull-down resistors can be connected 
 229:Generated_Source\PSoC6\pdl\drivers\peripheral\scb/cy_scb_uart.h **** * to the appropriate UART lines to keep them inactive during Deep-Sleep or 
 230:Generated_Source\PSoC6\pdl\drivers\peripheral\scb/cy_scb_uart.h **** * Hibernate.
 231:Generated_Source\PSoC6\pdl\drivers\peripheral\scb/cy_scb_uart.h **** *
 232:Generated_Source\PSoC6\pdl\drivers\peripheral\scb/cy_scb_uart.h **** * \section group_scb_uart_more_information More Information
 233:Generated_Source\PSoC6\pdl\drivers\peripheral\scb/cy_scb_uart.h **** *
 234:Generated_Source\PSoC6\pdl\drivers\peripheral\scb/cy_scb_uart.h **** * For more information on the SCB peripheral, refer to the technical reference
 235:Generated_Source\PSoC6\pdl\drivers\peripheral\scb/cy_scb_uart.h **** * manual (TRM).
 236:Generated_Source\PSoC6\pdl\drivers\peripheral\scb/cy_scb_uart.h **** *
 237:Generated_Source\PSoC6\pdl\drivers\peripheral\scb/cy_scb_uart.h **** * \section group_scb_uart_MISRA MISRA-C Compliance
 238:Generated_Source\PSoC6\pdl\drivers\peripheral\scb/cy_scb_uart.h **** * <table class="doxtable">
ARM GAS  C:\Users\ikomb\AppData\Local\Temp\cctq3ka9.s 			page 52


 239:Generated_Source\PSoC6\pdl\drivers\peripheral\scb/cy_scb_uart.h **** *   <tr>
 240:Generated_Source\PSoC6\pdl\drivers\peripheral\scb/cy_scb_uart.h **** *     <th>MISRA Rule</th>
 241:Generated_Source\PSoC6\pdl\drivers\peripheral\scb/cy_scb_uart.h **** *     <th>Rule Class (Required/Advisory)</th>
 242:Generated_Source\PSoC6\pdl\drivers\peripheral\scb/cy_scb_uart.h **** *     <th>Rule Description</th>
 243:Generated_Source\PSoC6\pdl\drivers\peripheral\scb/cy_scb_uart.h **** *     <th>Description of Deviation(s)</th>
 244:Generated_Source\PSoC6\pdl\drivers\peripheral\scb/cy_scb_uart.h **** *   </tr>
 245:Generated_Source\PSoC6\pdl\drivers\peripheral\scb/cy_scb_uart.h **** *   <tr>
 246:Generated_Source\PSoC6\pdl\drivers\peripheral\scb/cy_scb_uart.h **** *     <td>11.4</td>
 247:Generated_Source\PSoC6\pdl\drivers\peripheral\scb/cy_scb_uart.h **** *     <td>A</td>
 248:Generated_Source\PSoC6\pdl\drivers\peripheral\scb/cy_scb_uart.h **** *     <td>A cast should not be performed between a pointer to object type and
 249:Generated_Source\PSoC6\pdl\drivers\peripheral\scb/cy_scb_uart.h **** *         a different pointer to object type.</td>
 250:Generated_Source\PSoC6\pdl\drivers\peripheral\scb/cy_scb_uart.h **** *     <td>
 251:Generated_Source\PSoC6\pdl\drivers\peripheral\scb/cy_scb_uart.h **** *         * The pointer to the buffer memory is void to allow handling different
 252:Generated_Source\PSoC6\pdl\drivers\peripheral\scb/cy_scb_uart.h **** *         different data types: uint8_t (4-8 bits) or uint16_t (9-16 bits).
 253:Generated_Source\PSoC6\pdl\drivers\peripheral\scb/cy_scb_uart.h **** *         The cast operation is safe because the configuration is verified
 254:Generated_Source\PSoC6\pdl\drivers\peripheral\scb/cy_scb_uart.h **** *         before operation is performed.
 255:Generated_Source\PSoC6\pdl\drivers\peripheral\scb/cy_scb_uart.h **** *         * The functions \ref Cy_SCB_UART_DeepSleepCallback and
 256:Generated_Source\PSoC6\pdl\drivers\peripheral\scb/cy_scb_uart.h **** *         \ref Cy_SCB_UART_HibernateCallback are callback of
 257:Generated_Source\PSoC6\pdl\drivers\peripheral\scb/cy_scb_uart.h **** *         \ref cy_en_syspm_status_t type. The cast operation safety in these
 258:Generated_Source\PSoC6\pdl\drivers\peripheral\scb/cy_scb_uart.h **** *         functions becomes the user's responsibility because pointers are
 259:Generated_Source\PSoC6\pdl\drivers\peripheral\scb/cy_scb_uart.h **** *         initialized when callback is registered in SysPm driver.</td>
 260:Generated_Source\PSoC6\pdl\drivers\peripheral\scb/cy_scb_uart.h **** *   </tr>
 261:Generated_Source\PSoC6\pdl\drivers\peripheral\scb/cy_scb_uart.h **** *   <tr>
 262:Generated_Source\PSoC6\pdl\drivers\peripheral\scb/cy_scb_uart.h **** *     <td>14.2</td>
 263:Generated_Source\PSoC6\pdl\drivers\peripheral\scb/cy_scb_uart.h **** *     <td>R</td>
 264:Generated_Source\PSoC6\pdl\drivers\peripheral\scb/cy_scb_uart.h **** *     <td>All non-null statements shall either: a) have at least one side-effect
 265:Generated_Source\PSoC6\pdl\drivers\peripheral\scb/cy_scb_uart.h **** *         however executed, or b) cause control flow to change.</td>
 266:Generated_Source\PSoC6\pdl\drivers\peripheral\scb/cy_scb_uart.h **** *     <td>The unused function parameters are cast to void. This statement
 267:Generated_Source\PSoC6\pdl\drivers\peripheral\scb/cy_scb_uart.h **** *         has no side-effect and is used to suppress a compiler warning.</td>
 268:Generated_Source\PSoC6\pdl\drivers\peripheral\scb/cy_scb_uart.h **** *   </tr>
 269:Generated_Source\PSoC6\pdl\drivers\peripheral\scb/cy_scb_uart.h **** *   <tr>
 270:Generated_Source\PSoC6\pdl\drivers\peripheral\scb/cy_scb_uart.h **** *     <td>14.7</td>
 271:Generated_Source\PSoC6\pdl\drivers\peripheral\scb/cy_scb_uart.h **** *     <td>R</td>
 272:Generated_Source\PSoC6\pdl\drivers\peripheral\scb/cy_scb_uart.h **** *     <td>A function shall have a single point of exit at the end of the
 273:Generated_Source\PSoC6\pdl\drivers\peripheral\scb/cy_scb_uart.h **** *         function.</td>
 274:Generated_Source\PSoC6\pdl\drivers\peripheral\scb/cy_scb_uart.h **** *     <td>The functions can return from several points. This is done to improve
 275:Generated_Source\PSoC6\pdl\drivers\peripheral\scb/cy_scb_uart.h **** *         code clarity when returning error status code if input parameters
 276:Generated_Source\PSoC6\pdl\drivers\peripheral\scb/cy_scb_uart.h **** *         validation fails.</td>
 277:Generated_Source\PSoC6\pdl\drivers\peripheral\scb/cy_scb_uart.h **** *   </tr>
 278:Generated_Source\PSoC6\pdl\drivers\peripheral\scb/cy_scb_uart.h **** * </table>
 279:Generated_Source\PSoC6\pdl\drivers\peripheral\scb/cy_scb_uart.h **** *
 280:Generated_Source\PSoC6\pdl\drivers\peripheral\scb/cy_scb_uart.h **** * \section group_scb_uart_changelog Changelog
 281:Generated_Source\PSoC6\pdl\drivers\peripheral\scb/cy_scb_uart.h **** * <table class="doxtable">
 282:Generated_Source\PSoC6\pdl\drivers\peripheral\scb/cy_scb_uart.h **** *   <tr><th>Version</th><th>Changes</th><th>Reason for Change</th></tr>
 283:Generated_Source\PSoC6\pdl\drivers\peripheral\scb/cy_scb_uart.h **** *   <tr>
 284:Generated_Source\PSoC6\pdl\drivers\peripheral\scb/cy_scb_uart.h **** *     <td>2.10</td>
 285:Generated_Source\PSoC6\pdl\drivers\peripheral\scb/cy_scb_uart.h **** *     <td>None.</td>
 286:Generated_Source\PSoC6\pdl\drivers\peripheral\scb/cy_scb_uart.h **** *     <td>SCB I2C driver updated.</td>
 287:Generated_Source\PSoC6\pdl\drivers\peripheral\scb/cy_scb_uart.h **** *   </tr>
 288:Generated_Source\PSoC6\pdl\drivers\peripheral\scb/cy_scb_uart.h **** *   <tr>
 289:Generated_Source\PSoC6\pdl\drivers\peripheral\scb/cy_scb_uart.h **** *     <td rowspan="5">2.0</td>
 290:Generated_Source\PSoC6\pdl\drivers\peripheral\scb/cy_scb_uart.h **** *     <td>Added parameters validation for public API.</td>
 291:Generated_Source\PSoC6\pdl\drivers\peripheral\scb/cy_scb_uart.h **** *     <td></td>
 292:Generated_Source\PSoC6\pdl\drivers\peripheral\scb/cy_scb_uart.h **** *   </tr>
 293:Generated_Source\PSoC6\pdl\drivers\peripheral\scb/cy_scb_uart.h **** *   <tr>
 294:Generated_Source\PSoC6\pdl\drivers\peripheral\scb/cy_scb_uart.h **** *     <td>Replaced variables that have limited range of values with enumerated
 295:Generated_Source\PSoC6\pdl\drivers\peripheral\scb/cy_scb_uart.h **** *         types.</td>
ARM GAS  C:\Users\ikomb\AppData\Local\Temp\cctq3ka9.s 			page 53


 296:Generated_Source\PSoC6\pdl\drivers\peripheral\scb/cy_scb_uart.h **** *     <td></td>
 297:Generated_Source\PSoC6\pdl\drivers\peripheral\scb/cy_scb_uart.h **** *   </tr>
 298:Generated_Source\PSoC6\pdl\drivers\peripheral\scb/cy_scb_uart.h **** *   <tr>
 299:Generated_Source\PSoC6\pdl\drivers\peripheral\scb/cy_scb_uart.h **** *     <td>Added missing "cy_cb_" to the callback function type names.</td>
 300:Generated_Source\PSoC6\pdl\drivers\peripheral\scb/cy_scb_uart.h **** *     <td></td>
 301:Generated_Source\PSoC6\pdl\drivers\peripheral\scb/cy_scb_uart.h **** *   </tr>
 302:Generated_Source\PSoC6\pdl\drivers\peripheral\scb/cy_scb_uart.h **** *   <tr>
 303:Generated_Source\PSoC6\pdl\drivers\peripheral\scb/cy_scb_uart.h **** *     <td>Added function \ref Cy_SCB_UART_SendBreakBlocking for break condition
 304:Generated_Source\PSoC6\pdl\drivers\peripheral\scb/cy_scb_uart.h **** *         generation.</td>
 305:Generated_Source\PSoC6\pdl\drivers\peripheral\scb/cy_scb_uart.h **** *     <td></td>
 306:Generated_Source\PSoC6\pdl\drivers\peripheral\scb/cy_scb_uart.h **** *   </tr>
 307:Generated_Source\PSoC6\pdl\drivers\peripheral\scb/cy_scb_uart.h **** *   <tr>
 308:Generated_Source\PSoC6\pdl\drivers\peripheral\scb/cy_scb_uart.h **** *     <td>Fixed low power callbacks \ref Cy_SCB_UART_DeepSleepCallback and
 309:Generated_Source\PSoC6\pdl\drivers\peripheral\scb/cy_scb_uart.h **** *         \ref Cy_SCB_UART_HibernateCallback to prevent the device from entering
 310:Generated_Source\PSoC6\pdl\drivers\peripheral\scb/cy_scb_uart.h **** *         low power mode when RX FIFO is not empty.</td>
 311:Generated_Source\PSoC6\pdl\drivers\peripheral\scb/cy_scb_uart.h **** *     <td>The callbacks allowed entering device into low power mode when RX FIFO
 312:Generated_Source\PSoC6\pdl\drivers\peripheral\scb/cy_scb_uart.h **** *         had data.</td>
 313:Generated_Source\PSoC6\pdl\drivers\peripheral\scb/cy_scb_uart.h **** *   </tr>
 314:Generated_Source\PSoC6\pdl\drivers\peripheral\scb/cy_scb_uart.h **** *   <tr>
 315:Generated_Source\PSoC6\pdl\drivers\peripheral\scb/cy_scb_uart.h **** *     <td>1.0</td>
 316:Generated_Source\PSoC6\pdl\drivers\peripheral\scb/cy_scb_uart.h **** *     <td>Initial version.</td>
 317:Generated_Source\PSoC6\pdl\drivers\peripheral\scb/cy_scb_uart.h **** *     <td></td>
 318:Generated_Source\PSoC6\pdl\drivers\peripheral\scb/cy_scb_uart.h **** *   </tr>
 319:Generated_Source\PSoC6\pdl\drivers\peripheral\scb/cy_scb_uart.h **** * </table>
 320:Generated_Source\PSoC6\pdl\drivers\peripheral\scb/cy_scb_uart.h **** *
 321:Generated_Source\PSoC6\pdl\drivers\peripheral\scb/cy_scb_uart.h **** * \defgroup group_scb_uart_macros Macros
 322:Generated_Source\PSoC6\pdl\drivers\peripheral\scb/cy_scb_uart.h **** * \defgroup group_scb_uart_functions Functions
 323:Generated_Source\PSoC6\pdl\drivers\peripheral\scb/cy_scb_uart.h **** * \{
 324:Generated_Source\PSoC6\pdl\drivers\peripheral\scb/cy_scb_uart.h **** * \defgroup group_scb_uart_general_functions General
 325:Generated_Source\PSoC6\pdl\drivers\peripheral\scb/cy_scb_uart.h **** * \defgroup group_scb_uart_high_level_functions High-Level
 326:Generated_Source\PSoC6\pdl\drivers\peripheral\scb/cy_scb_uart.h **** * \defgroup group_scb_uart_low_level_functions Low-Level
 327:Generated_Source\PSoC6\pdl\drivers\peripheral\scb/cy_scb_uart.h **** * \defgroup group_scb_uart_interrupt_functions Interrupt
 328:Generated_Source\PSoC6\pdl\drivers\peripheral\scb/cy_scb_uart.h **** * \defgroup group_scb_uart_low_power_functions Low Power Callbacks
 329:Generated_Source\PSoC6\pdl\drivers\peripheral\scb/cy_scb_uart.h **** * \}
 330:Generated_Source\PSoC6\pdl\drivers\peripheral\scb/cy_scb_uart.h **** * \defgroup group_scb_uart_data_structures Data Structures
 331:Generated_Source\PSoC6\pdl\drivers\peripheral\scb/cy_scb_uart.h **** * \defgroup group_scb_uart_enums Enumerated Types
 332:Generated_Source\PSoC6\pdl\drivers\peripheral\scb/cy_scb_uart.h **** */
 333:Generated_Source\PSoC6\pdl\drivers\peripheral\scb/cy_scb_uart.h **** 
 334:Generated_Source\PSoC6\pdl\drivers\peripheral\scb/cy_scb_uart.h **** #if !defined(CY_SCB_UART_H)
 335:Generated_Source\PSoC6\pdl\drivers\peripheral\scb/cy_scb_uart.h **** #define CY_SCB_UART_H
 336:Generated_Source\PSoC6\pdl\drivers\peripheral\scb/cy_scb_uart.h **** 
 337:Generated_Source\PSoC6\pdl\drivers\peripheral\scb/cy_scb_uart.h **** #include "cy_scb_common.h"
 338:Generated_Source\PSoC6\pdl\drivers\peripheral\scb/cy_scb_uart.h **** 
 339:Generated_Source\PSoC6\pdl\drivers\peripheral\scb/cy_scb_uart.h **** #if defined(__cplusplus)
 340:Generated_Source\PSoC6\pdl\drivers\peripheral\scb/cy_scb_uart.h **** extern "C" {
 341:Generated_Source\PSoC6\pdl\drivers\peripheral\scb/cy_scb_uart.h **** #endif
 342:Generated_Source\PSoC6\pdl\drivers\peripheral\scb/cy_scb_uart.h **** 
 343:Generated_Source\PSoC6\pdl\drivers\peripheral\scb/cy_scb_uart.h **** /***************************************
 344:Generated_Source\PSoC6\pdl\drivers\peripheral\scb/cy_scb_uart.h **** *          Enumerated Types
 345:Generated_Source\PSoC6\pdl\drivers\peripheral\scb/cy_scb_uart.h **** ***************************************/
 346:Generated_Source\PSoC6\pdl\drivers\peripheral\scb/cy_scb_uart.h **** 
 347:Generated_Source\PSoC6\pdl\drivers\peripheral\scb/cy_scb_uart.h **** /**
 348:Generated_Source\PSoC6\pdl\drivers\peripheral\scb/cy_scb_uart.h **** * \addtogroup group_scb_uart_enums
 349:Generated_Source\PSoC6\pdl\drivers\peripheral\scb/cy_scb_uart.h **** * \{
 350:Generated_Source\PSoC6\pdl\drivers\peripheral\scb/cy_scb_uart.h **** */
 351:Generated_Source\PSoC6\pdl\drivers\peripheral\scb/cy_scb_uart.h **** 
 352:Generated_Source\PSoC6\pdl\drivers\peripheral\scb/cy_scb_uart.h **** /** UART status codes */
ARM GAS  C:\Users\ikomb\AppData\Local\Temp\cctq3ka9.s 			page 54


 353:Generated_Source\PSoC6\pdl\drivers\peripheral\scb/cy_scb_uart.h **** typedef enum
 354:Generated_Source\PSoC6\pdl\drivers\peripheral\scb/cy_scb_uart.h **** {
 355:Generated_Source\PSoC6\pdl\drivers\peripheral\scb/cy_scb_uart.h ****     /** Operation completed successfully */
 356:Generated_Source\PSoC6\pdl\drivers\peripheral\scb/cy_scb_uart.h ****     CY_SCB_UART_SUCCESS = 0U,
 357:Generated_Source\PSoC6\pdl\drivers\peripheral\scb/cy_scb_uart.h **** 
 358:Generated_Source\PSoC6\pdl\drivers\peripheral\scb/cy_scb_uart.h ****     /** One or more of input parameters are invalid */
 359:Generated_Source\PSoC6\pdl\drivers\peripheral\scb/cy_scb_uart.h ****     CY_SCB_UART_BAD_PARAM = (CY_SCB_ID | CY_PDL_STATUS_ERROR | CY_SCB_UART_ID | 1U),
 360:Generated_Source\PSoC6\pdl\drivers\peripheral\scb/cy_scb_uart.h **** 
 361:Generated_Source\PSoC6\pdl\drivers\peripheral\scb/cy_scb_uart.h ****     /**
 362:Generated_Source\PSoC6\pdl\drivers\peripheral\scb/cy_scb_uart.h ****     * The UART is busy processing a transmit operation.
 363:Generated_Source\PSoC6\pdl\drivers\peripheral\scb/cy_scb_uart.h ****     * Call \ref Cy_SCB_UART_Receive function again once that operation
 364:Generated_Source\PSoC6\pdl\drivers\peripheral\scb/cy_scb_uart.h ****     * is completed or aborted.
 365:Generated_Source\PSoC6\pdl\drivers\peripheral\scb/cy_scb_uart.h ****     */
 366:Generated_Source\PSoC6\pdl\drivers\peripheral\scb/cy_scb_uart.h ****     CY_SCB_UART_RECEIVE_BUSY = (CY_SCB_ID | CY_PDL_STATUS_ERROR | CY_SCB_UART_ID | 2U),
 367:Generated_Source\PSoC6\pdl\drivers\peripheral\scb/cy_scb_uart.h **** 
 368:Generated_Source\PSoC6\pdl\drivers\peripheral\scb/cy_scb_uart.h ****     /**
 369:Generated_Source\PSoC6\pdl\drivers\peripheral\scb/cy_scb_uart.h ****     * The UART is busy processing a receive operation.
 370:Generated_Source\PSoC6\pdl\drivers\peripheral\scb/cy_scb_uart.h ****     * Call \ref Cy_SCB_UART_Transmit function again once that operation
 371:Generated_Source\PSoC6\pdl\drivers\peripheral\scb/cy_scb_uart.h ****     * is completed or aborted.
 372:Generated_Source\PSoC6\pdl\drivers\peripheral\scb/cy_scb_uart.h ****     */
 373:Generated_Source\PSoC6\pdl\drivers\peripheral\scb/cy_scb_uart.h ****     CY_SCB_UART_TRANSMIT_BUSY = (CY_SCB_ID | CY_PDL_STATUS_ERROR | CY_SCB_UART_ID | 3U)
 374:Generated_Source\PSoC6\pdl\drivers\peripheral\scb/cy_scb_uart.h **** } cy_en_scb_uart_status_t;
 375:Generated_Source\PSoC6\pdl\drivers\peripheral\scb/cy_scb_uart.h **** 
 376:Generated_Source\PSoC6\pdl\drivers\peripheral\scb/cy_scb_uart.h **** /** UART Mode */
 377:Generated_Source\PSoC6\pdl\drivers\peripheral\scb/cy_scb_uart.h **** typedef enum
 378:Generated_Source\PSoC6\pdl\drivers\peripheral\scb/cy_scb_uart.h **** {
 379:Generated_Source\PSoC6\pdl\drivers\peripheral\scb/cy_scb_uart.h ****     CY_SCB_UART_STANDARD  = 0U, /**< Configures the SCB for Standard UART operation */
 380:Generated_Source\PSoC6\pdl\drivers\peripheral\scb/cy_scb_uart.h ****     CY_SCB_UART_SMARTCARD = 1U, /**< Configures the SCB for SmartCard operation */
 381:Generated_Source\PSoC6\pdl\drivers\peripheral\scb/cy_scb_uart.h ****     CY_SCB_UART_IRDA      = 2U, /**< Configures the SCB for IrDA operation */
 382:Generated_Source\PSoC6\pdl\drivers\peripheral\scb/cy_scb_uart.h **** } cy_en_scb_uart_mode_t;
 383:Generated_Source\PSoC6\pdl\drivers\peripheral\scb/cy_scb_uart.h **** 
 384:Generated_Source\PSoC6\pdl\drivers\peripheral\scb/cy_scb_uart.h **** /** UART Stop Bits */
 385:Generated_Source\PSoC6\pdl\drivers\peripheral\scb/cy_scb_uart.h **** typedef enum
 386:Generated_Source\PSoC6\pdl\drivers\peripheral\scb/cy_scb_uart.h **** {
 387:Generated_Source\PSoC6\pdl\drivers\peripheral\scb/cy_scb_uart.h ****     CY_SCB_UART_STOP_BITS_1   = 2U,  /**< UART looks for 1 Stop Bit    */
 388:Generated_Source\PSoC6\pdl\drivers\peripheral\scb/cy_scb_uart.h ****     CY_SCB_UART_STOP_BITS_1_5 = 3U,  /**< UART looks for 1.5 Stop Bits */
 389:Generated_Source\PSoC6\pdl\drivers\peripheral\scb/cy_scb_uart.h ****     CY_SCB_UART_STOP_BITS_2   = 4U,  /**< UART looks for 2 Stop Bits   */
 390:Generated_Source\PSoC6\pdl\drivers\peripheral\scb/cy_scb_uart.h ****     CY_SCB_UART_STOP_BITS_2_5 = 5U,  /**< UART looks for 2.5 Stop Bits */
 391:Generated_Source\PSoC6\pdl\drivers\peripheral\scb/cy_scb_uart.h ****     CY_SCB_UART_STOP_BITS_3   = 6U,  /**< UART looks for 3 Stop Bits   */
 392:Generated_Source\PSoC6\pdl\drivers\peripheral\scb/cy_scb_uart.h ****     CY_SCB_UART_STOP_BITS_3_5 = 7U,  /**< UART looks for 3.5 Stop Bits */
 393:Generated_Source\PSoC6\pdl\drivers\peripheral\scb/cy_scb_uart.h ****     CY_SCB_UART_STOP_BITS_4   = 8U,  /**< UART looks for 4 Stop Bits   */
 394:Generated_Source\PSoC6\pdl\drivers\peripheral\scb/cy_scb_uart.h **** } cy_en_scb_uart_stop_bits_t;
 395:Generated_Source\PSoC6\pdl\drivers\peripheral\scb/cy_scb_uart.h **** 
 396:Generated_Source\PSoC6\pdl\drivers\peripheral\scb/cy_scb_uart.h **** /** UART Parity */
 397:Generated_Source\PSoC6\pdl\drivers\peripheral\scb/cy_scb_uart.h **** typedef enum
 398:Generated_Source\PSoC6\pdl\drivers\peripheral\scb/cy_scb_uart.h **** {
 399:Generated_Source\PSoC6\pdl\drivers\peripheral\scb/cy_scb_uart.h ****     CY_SCB_UART_PARITY_NONE = 0U,    /**< UART has no parity check   */
 400:Generated_Source\PSoC6\pdl\drivers\peripheral\scb/cy_scb_uart.h ****     CY_SCB_UART_PARITY_EVEN = 2U,    /**< UART has even parity check */
 401:Generated_Source\PSoC6\pdl\drivers\peripheral\scb/cy_scb_uart.h ****     CY_SCB_UART_PARITY_ODD  = 3U,    /**< UART has odd parity check  */
 402:Generated_Source\PSoC6\pdl\drivers\peripheral\scb/cy_scb_uart.h **** } cy_en_scb_uart_parity_t;
 403:Generated_Source\PSoC6\pdl\drivers\peripheral\scb/cy_scb_uart.h **** 
 404:Generated_Source\PSoC6\pdl\drivers\peripheral\scb/cy_scb_uart.h **** /** UART Polarity */
 405:Generated_Source\PSoC6\pdl\drivers\peripheral\scb/cy_scb_uart.h **** typedef enum
 406:Generated_Source\PSoC6\pdl\drivers\peripheral\scb/cy_scb_uart.h **** {
 407:Generated_Source\PSoC6\pdl\drivers\peripheral\scb/cy_scb_uart.h ****     CY_SCB_UART_ACTIVE_LOW  = 0U,   /**< Signal is active low */
 408:Generated_Source\PSoC6\pdl\drivers\peripheral\scb/cy_scb_uart.h ****     CY_SCB_UART_ACTIVE_HIGH = 1U,   /**< Signal is active high */
 409:Generated_Source\PSoC6\pdl\drivers\peripheral\scb/cy_scb_uart.h **** } cy_en_scb_uart_polarity_t;
ARM GAS  C:\Users\ikomb\AppData\Local\Temp\cctq3ka9.s 			page 55


 410:Generated_Source\PSoC6\pdl\drivers\peripheral\scb/cy_scb_uart.h **** /** \} group_scb_uart_enums */
 411:Generated_Source\PSoC6\pdl\drivers\peripheral\scb/cy_scb_uart.h **** 
 412:Generated_Source\PSoC6\pdl\drivers\peripheral\scb/cy_scb_uart.h **** 
 413:Generated_Source\PSoC6\pdl\drivers\peripheral\scb/cy_scb_uart.h **** /***************************************
 414:Generated_Source\PSoC6\pdl\drivers\peripheral\scb/cy_scb_uart.h **** *       Type Definitions
 415:Generated_Source\PSoC6\pdl\drivers\peripheral\scb/cy_scb_uart.h **** ***************************************/
 416:Generated_Source\PSoC6\pdl\drivers\peripheral\scb/cy_scb_uart.h **** 
 417:Generated_Source\PSoC6\pdl\drivers\peripheral\scb/cy_scb_uart.h **** /**
 418:Generated_Source\PSoC6\pdl\drivers\peripheral\scb/cy_scb_uart.h **** * \addtogroup group_scb_uart_data_structures
 419:Generated_Source\PSoC6\pdl\drivers\peripheral\scb/cy_scb_uart.h **** * \{
 420:Generated_Source\PSoC6\pdl\drivers\peripheral\scb/cy_scb_uart.h **** */
 421:Generated_Source\PSoC6\pdl\drivers\peripheral\scb/cy_scb_uart.h **** 
 422:Generated_Source\PSoC6\pdl\drivers\peripheral\scb/cy_scb_uart.h **** /**
 423:Generated_Source\PSoC6\pdl\drivers\peripheral\scb/cy_scb_uart.h **** * Provides the typedef for the callback function called in the
 424:Generated_Source\PSoC6\pdl\drivers\peripheral\scb/cy_scb_uart.h **** * \ref Cy_SCB_UART_Interrupt to notify the user about occurrences of
 425:Generated_Source\PSoC6\pdl\drivers\peripheral\scb/cy_scb_uart.h **** * \ref group_scb_uart_macros_callback_events.
 426:Generated_Source\PSoC6\pdl\drivers\peripheral\scb/cy_scb_uart.h **** */
 427:Generated_Source\PSoC6\pdl\drivers\peripheral\scb/cy_scb_uart.h **** typedef void (* cy_cb_scb_uart_handle_events_t)(uint32_t event);
 428:Generated_Source\PSoC6\pdl\drivers\peripheral\scb/cy_scb_uart.h **** 
 429:Generated_Source\PSoC6\pdl\drivers\peripheral\scb/cy_scb_uart.h **** /** UART configuration structure */
 430:Generated_Source\PSoC6\pdl\drivers\peripheral\scb/cy_scb_uart.h **** typedef struct stc_scb_uart_config
 431:Generated_Source\PSoC6\pdl\drivers\peripheral\scb/cy_scb_uart.h **** {
 432:Generated_Source\PSoC6\pdl\drivers\peripheral\scb/cy_scb_uart.h ****     /** Specifies the UART's mode of operation */
 433:Generated_Source\PSoC6\pdl\drivers\peripheral\scb/cy_scb_uart.h ****     cy_en_scb_uart_mode_t    uartMode;
 434:Generated_Source\PSoC6\pdl\drivers\peripheral\scb/cy_scb_uart.h **** 
 435:Generated_Source\PSoC6\pdl\drivers\peripheral\scb/cy_scb_uart.h ****     /**
 436:Generated_Source\PSoC6\pdl\drivers\peripheral\scb/cy_scb_uart.h ****     * Oversample factor for UART.
 437:Generated_Source\PSoC6\pdl\drivers\peripheral\scb/cy_scb_uart.h ****     * * The UART baud rate is the SCB Clock frequency / oversample
 438:Generated_Source\PSoC6\pdl\drivers\peripheral\scb/cy_scb_uart.h ****     *  (valid range is 8-16).
 439:Generated_Source\PSoC6\pdl\drivers\peripheral\scb/cy_scb_uart.h ****     * * For IrDA, the oversample is always 16, unless
 440:Generated_Source\PSoC6\pdl\drivers\peripheral\scb/cy_scb_uart.h ****     * \ref irdaEnableLowPowerReceiver is enabled. Then the oversample is
 441:Generated_Source\PSoC6\pdl\drivers\peripheral\scb/cy_scb_uart.h ****     * reduced to the \ref group_scb_uart_macros_irda_lp_ovs set.
 442:Generated_Source\PSoC6\pdl\drivers\peripheral\scb/cy_scb_uart.h ****     */
 443:Generated_Source\PSoC6\pdl\drivers\peripheral\scb/cy_scb_uart.h ****     uint32_t    oversample;
 444:Generated_Source\PSoC6\pdl\drivers\peripheral\scb/cy_scb_uart.h **** 
 445:Generated_Source\PSoC6\pdl\drivers\peripheral\scb/cy_scb_uart.h ****     /** The width of UART data (valid range is 5 to 9) */
 446:Generated_Source\PSoC6\pdl\drivers\peripheral\scb/cy_scb_uart.h ****     uint32_t    dataWidth;
 447:Generated_Source\PSoC6\pdl\drivers\peripheral\scb/cy_scb_uart.h **** 
 448:Generated_Source\PSoC6\pdl\drivers\peripheral\scb/cy_scb_uart.h ****     /**
 449:Generated_Source\PSoC6\pdl\drivers\peripheral\scb/cy_scb_uart.h ****     * Enables the hardware to shift out data element MSB first; otherwise,
 450:Generated_Source\PSoC6\pdl\drivers\peripheral\scb/cy_scb_uart.h ****     * LSB first
 451:Generated_Source\PSoC6\pdl\drivers\peripheral\scb/cy_scb_uart.h ****     */
 452:Generated_Source\PSoC6\pdl\drivers\peripheral\scb/cy_scb_uart.h ****     bool        enableMsbFirst;
 453:Generated_Source\PSoC6\pdl\drivers\peripheral\scb/cy_scb_uart.h **** 
 454:Generated_Source\PSoC6\pdl\drivers\peripheral\scb/cy_scb_uart.h ****     /**
 455:Generated_Source\PSoC6\pdl\drivers\peripheral\scb/cy_scb_uart.h ****     * Specifies the number of stop bits in the UART transaction, in half-bit
 456:Generated_Source\PSoC6\pdl\drivers\peripheral\scb/cy_scb_uart.h ****     * increments
 457:Generated_Source\PSoC6\pdl\drivers\peripheral\scb/cy_scb_uart.h ****     */
 458:Generated_Source\PSoC6\pdl\drivers\peripheral\scb/cy_scb_uart.h ****     cy_en_scb_uart_stop_bits_t    stopBits;
 459:Generated_Source\PSoC6\pdl\drivers\peripheral\scb/cy_scb_uart.h **** 
 460:Generated_Source\PSoC6\pdl\drivers\peripheral\scb/cy_scb_uart.h ****     /** Configures the UART parity */
 461:Generated_Source\PSoC6\pdl\drivers\peripheral\scb/cy_scb_uart.h ****     cy_en_scb_uart_parity_t    parity;
 462:Generated_Source\PSoC6\pdl\drivers\peripheral\scb/cy_scb_uart.h **** 
 463:Generated_Source\PSoC6\pdl\drivers\peripheral\scb/cy_scb_uart.h ****     /**
 464:Generated_Source\PSoC6\pdl\drivers\peripheral\scb/cy_scb_uart.h ****     * Enables a digital 3-tap median filter to be applied to the input
 465:Generated_Source\PSoC6\pdl\drivers\peripheral\scb/cy_scb_uart.h ****     * of the RX FIFO to filter glitches on the line (for IrDA, this parameter
 466:Generated_Source\PSoC6\pdl\drivers\peripheral\scb/cy_scb_uart.h ****     * is ignored)
ARM GAS  C:\Users\ikomb\AppData\Local\Temp\cctq3ka9.s 			page 56


 467:Generated_Source\PSoC6\pdl\drivers\peripheral\scb/cy_scb_uart.h ****     *
 468:Generated_Source\PSoC6\pdl\drivers\peripheral\scb/cy_scb_uart.h ****     */
 469:Generated_Source\PSoC6\pdl\drivers\peripheral\scb/cy_scb_uart.h ****     bool        enableInputFilter;
 470:Generated_Source\PSoC6\pdl\drivers\peripheral\scb/cy_scb_uart.h **** 
 471:Generated_Source\PSoC6\pdl\drivers\peripheral\scb/cy_scb_uart.h ****     /**
 472:Generated_Source\PSoC6\pdl\drivers\peripheral\scb/cy_scb_uart.h ****     * Enables the hardware to drop data in the RX FIFO when a parity error is
 473:Generated_Source\PSoC6\pdl\drivers\peripheral\scb/cy_scb_uart.h ****     * detected
 474:Generated_Source\PSoC6\pdl\drivers\peripheral\scb/cy_scb_uart.h ****     */
 475:Generated_Source\PSoC6\pdl\drivers\peripheral\scb/cy_scb_uart.h ****     bool        dropOnParityError;
 476:Generated_Source\PSoC6\pdl\drivers\peripheral\scb/cy_scb_uart.h **** 
 477:Generated_Source\PSoC6\pdl\drivers\peripheral\scb/cy_scb_uart.h ****     /**
 478:Generated_Source\PSoC6\pdl\drivers\peripheral\scb/cy_scb_uart.h ****     * Enables the hardware to drop data in the RX FIFO when a frame error is
 479:Generated_Source\PSoC6\pdl\drivers\peripheral\scb/cy_scb_uart.h ****     * detected
 480:Generated_Source\PSoC6\pdl\drivers\peripheral\scb/cy_scb_uart.h ****     */
 481:Generated_Source\PSoC6\pdl\drivers\peripheral\scb/cy_scb_uart.h ****     bool        dropOnFrameError;
 482:Generated_Source\PSoC6\pdl\drivers\peripheral\scb/cy_scb_uart.h **** 
 483:Generated_Source\PSoC6\pdl\drivers\peripheral\scb/cy_scb_uart.h ****     /**
 484:Generated_Source\PSoC6\pdl\drivers\peripheral\scb/cy_scb_uart.h ****     * Enables the UART operation in Multi-Processor mode which requires
 485:Generated_Source\PSoC6\pdl\drivers\peripheral\scb/cy_scb_uart.h ****     * dataWidth to be 9 bits (the 9th bit is used to indicate address byte)
 486:Generated_Source\PSoC6\pdl\drivers\peripheral\scb/cy_scb_uart.h ****     */
 487:Generated_Source\PSoC6\pdl\drivers\peripheral\scb/cy_scb_uart.h ****     bool        enableMutliProcessorMode;
 488:Generated_Source\PSoC6\pdl\drivers\peripheral\scb/cy_scb_uart.h **** 
 489:Generated_Source\PSoC6\pdl\drivers\peripheral\scb/cy_scb_uart.h ****     /**
 490:Generated_Source\PSoC6\pdl\drivers\peripheral\scb/cy_scb_uart.h ****     * If Multi Processor mode is enabled, this is the address of the RX
 491:Generated_Source\PSoC6\pdl\drivers\peripheral\scb/cy_scb_uart.h ****     * FIFO. If the address matches, data is accepted into the FIFO. If
 492:Generated_Source\PSoC6\pdl\drivers\peripheral\scb/cy_scb_uart.h ****     * it does not match, the data is ignored.
 493:Generated_Source\PSoC6\pdl\drivers\peripheral\scb/cy_scb_uart.h ****     */
 494:Generated_Source\PSoC6\pdl\drivers\peripheral\scb/cy_scb_uart.h ****     uint32_t    receiverAddress;
 495:Generated_Source\PSoC6\pdl\drivers\peripheral\scb/cy_scb_uart.h **** 
 496:Generated_Source\PSoC6\pdl\drivers\peripheral\scb/cy_scb_uart.h ****     /**
 497:Generated_Source\PSoC6\pdl\drivers\peripheral\scb/cy_scb_uart.h ****     * This is the address mask for the Multi Processor address. 1 indicates
 498:Generated_Source\PSoC6\pdl\drivers\peripheral\scb/cy_scb_uart.h ****     * that the incoming address must match the corresponding bit in the slave
 499:Generated_Source\PSoC6\pdl\drivers\peripheral\scb/cy_scb_uart.h ****     * address. A 0 in the mask indicates that the incoming address does
 500:Generated_Source\PSoC6\pdl\drivers\peripheral\scb/cy_scb_uart.h ****     * not need to match.
 501:Generated_Source\PSoC6\pdl\drivers\peripheral\scb/cy_scb_uart.h ****     */
 502:Generated_Source\PSoC6\pdl\drivers\peripheral\scb/cy_scb_uart.h ****     uint32_t    receiverAddressMask;
 503:Generated_Source\PSoC6\pdl\drivers\peripheral\scb/cy_scb_uart.h **** 
 504:Generated_Source\PSoC6\pdl\drivers\peripheral\scb/cy_scb_uart.h ****     /**
 505:Generated_Source\PSoC6\pdl\drivers\peripheral\scb/cy_scb_uart.h ****     * Enables the hardware to accept the matching address in the RX FIFO.
 506:Generated_Source\PSoC6\pdl\drivers\peripheral\scb/cy_scb_uart.h ****     * This is useful when the device supports more than one address.
 507:Generated_Source\PSoC6\pdl\drivers\peripheral\scb/cy_scb_uart.h ****     */
 508:Generated_Source\PSoC6\pdl\drivers\peripheral\scb/cy_scb_uart.h ****     bool        acceptAddrInFifo;
 509:Generated_Source\PSoC6\pdl\drivers\peripheral\scb/cy_scb_uart.h **** 
 510:Generated_Source\PSoC6\pdl\drivers\peripheral\scb/cy_scb_uart.h ****     /** Inverts the IrDA RX input */
 511:Generated_Source\PSoC6\pdl\drivers\peripheral\scb/cy_scb_uart.h ****     bool        irdaInvertRx;
 512:Generated_Source\PSoC6\pdl\drivers\peripheral\scb/cy_scb_uart.h **** 
 513:Generated_Source\PSoC6\pdl\drivers\peripheral\scb/cy_scb_uart.h ****     /**
 514:Generated_Source\PSoC6\pdl\drivers\peripheral\scb/cy_scb_uart.h ****     * Enables the low-power receive for IrDA mode.
 515:Generated_Source\PSoC6\pdl\drivers\peripheral\scb/cy_scb_uart.h ****     * Note that the transmission must be disabled if this mode is enabled.
 516:Generated_Source\PSoC6\pdl\drivers\peripheral\scb/cy_scb_uart.h ****     */
 517:Generated_Source\PSoC6\pdl\drivers\peripheral\scb/cy_scb_uart.h ****     bool        irdaEnableLowPowerReceiver;
 518:Generated_Source\PSoC6\pdl\drivers\peripheral\scb/cy_scb_uart.h **** 
 519:Generated_Source\PSoC6\pdl\drivers\peripheral\scb/cy_scb_uart.h ****     /**
 520:Generated_Source\PSoC6\pdl\drivers\peripheral\scb/cy_scb_uart.h ****     * Enables retransmission of the frame placed in the TX FIFO when
 521:Generated_Source\PSoC6\pdl\drivers\peripheral\scb/cy_scb_uart.h ****     * NACK is received in SmartCard mode (for Standard and IrDA , this parameter
 522:Generated_Source\PSoC6\pdl\drivers\peripheral\scb/cy_scb_uart.h ****     * is ignored)
 523:Generated_Source\PSoC6\pdl\drivers\peripheral\scb/cy_scb_uart.h ****     */
ARM GAS  C:\Users\ikomb\AppData\Local\Temp\cctq3ka9.s 			page 57


 524:Generated_Source\PSoC6\pdl\drivers\peripheral\scb/cy_scb_uart.h ****     bool        smartCardRetryOnNack;
 525:Generated_Source\PSoC6\pdl\drivers\peripheral\scb/cy_scb_uart.h **** 
 526:Generated_Source\PSoC6\pdl\drivers\peripheral\scb/cy_scb_uart.h ****     /**
 527:Generated_Source\PSoC6\pdl\drivers\peripheral\scb/cy_scb_uart.h ****     * Enables the usage of the CTS input signal for the transmitter. The
 528:Generated_Source\PSoC6\pdl\drivers\peripheral\scb/cy_scb_uart.h ****     * transmitter waits for CTS to be active before sending data
 529:Generated_Source\PSoC6\pdl\drivers\peripheral\scb/cy_scb_uart.h ****     */
 530:Generated_Source\PSoC6\pdl\drivers\peripheral\scb/cy_scb_uart.h ****     bool        enableCts;
 531:Generated_Source\PSoC6\pdl\drivers\peripheral\scb/cy_scb_uart.h **** 
 532:Generated_Source\PSoC6\pdl\drivers\peripheral\scb/cy_scb_uart.h ****     /** Sets the CTS Polarity */
 533:Generated_Source\PSoC6\pdl\drivers\peripheral\scb/cy_scb_uart.h ****     cy_en_scb_uart_polarity_t    ctsPolarity;
 534:Generated_Source\PSoC6\pdl\drivers\peripheral\scb/cy_scb_uart.h **** 
 535:Generated_Source\PSoC6\pdl\drivers\peripheral\scb/cy_scb_uart.h ****     /**
 536:Generated_Source\PSoC6\pdl\drivers\peripheral\scb/cy_scb_uart.h ****     * When the RX FIFO has fewer entries than rtsRxFifoLevel, the
 537:Generated_Source\PSoC6\pdl\drivers\peripheral\scb/cy_scb_uart.h ****     * RTS signal is active (note to disable RTS, set this field to zero)
 538:Generated_Source\PSoC6\pdl\drivers\peripheral\scb/cy_scb_uart.h ****     */
 539:Generated_Source\PSoC6\pdl\drivers\peripheral\scb/cy_scb_uart.h ****     uint32_t    rtsRxFifoLevel;
 540:Generated_Source\PSoC6\pdl\drivers\peripheral\scb/cy_scb_uart.h **** 
 541:Generated_Source\PSoC6\pdl\drivers\peripheral\scb/cy_scb_uart.h ****     /** Sets the RTS Polarity */
 542:Generated_Source\PSoC6\pdl\drivers\peripheral\scb/cy_scb_uart.h ****     cy_en_scb_uart_polarity_t    rtsPolarity;
 543:Generated_Source\PSoC6\pdl\drivers\peripheral\scb/cy_scb_uart.h **** 
 544:Generated_Source\PSoC6\pdl\drivers\peripheral\scb/cy_scb_uart.h ****     /** Specifies the number of bits to detect a break condition */
 545:Generated_Source\PSoC6\pdl\drivers\peripheral\scb/cy_scb_uart.h ****     uint32_t    breakWidth;
 546:Generated_Source\PSoC6\pdl\drivers\peripheral\scb/cy_scb_uart.h **** 
 547:Generated_Source\PSoC6\pdl\drivers\peripheral\scb/cy_scb_uart.h ****     /**
 548:Generated_Source\PSoC6\pdl\drivers\peripheral\scb/cy_scb_uart.h ****     * When there are more entries in the RX FIFO than this level
 549:Generated_Source\PSoC6\pdl\drivers\peripheral\scb/cy_scb_uart.h ****     * the RX trigger output goes high. This output can be connected
 550:Generated_Source\PSoC6\pdl\drivers\peripheral\scb/cy_scb_uart.h ****     * to a DMA channel through a trigger mux.
 551:Generated_Source\PSoC6\pdl\drivers\peripheral\scb/cy_scb_uart.h ****     * Also, it controls the \ref CY_SCB_UART_RX_TRIGGER interrupt source.
 552:Generated_Source\PSoC6\pdl\drivers\peripheral\scb/cy_scb_uart.h ****     */
 553:Generated_Source\PSoC6\pdl\drivers\peripheral\scb/cy_scb_uart.h ****     uint32_t    rxFifoTriggerLevel;
 554:Generated_Source\PSoC6\pdl\drivers\peripheral\scb/cy_scb_uart.h **** 
 555:Generated_Source\PSoC6\pdl\drivers\peripheral\scb/cy_scb_uart.h ****     /**
 556:Generated_Source\PSoC6\pdl\drivers\peripheral\scb/cy_scb_uart.h ****     * The bits set in this mask allow the event to cause an interrupt
 557:Generated_Source\PSoC6\pdl\drivers\peripheral\scb/cy_scb_uart.h ****     * (See \ref group_scb_uart_macros_rx_fifo_status for the set of constants)
 558:Generated_Source\PSoC6\pdl\drivers\peripheral\scb/cy_scb_uart.h ****     */
 559:Generated_Source\PSoC6\pdl\drivers\peripheral\scb/cy_scb_uart.h ****     uint32_t    rxFifoIntEnableMask;
 560:Generated_Source\PSoC6\pdl\drivers\peripheral\scb/cy_scb_uart.h **** 
 561:Generated_Source\PSoC6\pdl\drivers\peripheral\scb/cy_scb_uart.h ****     /**
 562:Generated_Source\PSoC6\pdl\drivers\peripheral\scb/cy_scb_uart.h ****     * When there are fewer entries in the TX FIFO then this level
 563:Generated_Source\PSoC6\pdl\drivers\peripheral\scb/cy_scb_uart.h ****     * the TX trigger output goes high. This output can be connected
 564:Generated_Source\PSoC6\pdl\drivers\peripheral\scb/cy_scb_uart.h ****     * to a DMA channel through a trigger mux.
 565:Generated_Source\PSoC6\pdl\drivers\peripheral\scb/cy_scb_uart.h ****     * Also, it controls \ref CY_SCB_UART_TX_TRIGGER interrupt source.
 566:Generated_Source\PSoC6\pdl\drivers\peripheral\scb/cy_scb_uart.h ****     */
 567:Generated_Source\PSoC6\pdl\drivers\peripheral\scb/cy_scb_uart.h ****     uint32_t    txFifoTriggerLevel;
 568:Generated_Source\PSoC6\pdl\drivers\peripheral\scb/cy_scb_uart.h **** 
 569:Generated_Source\PSoC6\pdl\drivers\peripheral\scb/cy_scb_uart.h ****     /**
 570:Generated_Source\PSoC6\pdl\drivers\peripheral\scb/cy_scb_uart.h ****     * Bits set in this mask allows the event to cause an interrupt
 571:Generated_Source\PSoC6\pdl\drivers\peripheral\scb/cy_scb_uart.h ****     * (See \ref group_scb_uart_macros_tx_fifo_status for the set of constants)
 572:Generated_Source\PSoC6\pdl\drivers\peripheral\scb/cy_scb_uart.h ****     */
 573:Generated_Source\PSoC6\pdl\drivers\peripheral\scb/cy_scb_uart.h ****     uint32_t    txFifoIntEnableMask;
 574:Generated_Source\PSoC6\pdl\drivers\peripheral\scb/cy_scb_uart.h **** } cy_stc_scb_uart_config_t;
 575:Generated_Source\PSoC6\pdl\drivers\peripheral\scb/cy_scb_uart.h **** 
 576:Generated_Source\PSoC6\pdl\drivers\peripheral\scb/cy_scb_uart.h **** /** UART context structure.
 577:Generated_Source\PSoC6\pdl\drivers\peripheral\scb/cy_scb_uart.h **** * All fields for the context structure are internal. Firmware never reads or
 578:Generated_Source\PSoC6\pdl\drivers\peripheral\scb/cy_scb_uart.h **** * writes these values. Firmware allocates the structure and provides the
 579:Generated_Source\PSoC6\pdl\drivers\peripheral\scb/cy_scb_uart.h **** * address of the structure to the driver in function calls. Firmware must
 580:Generated_Source\PSoC6\pdl\drivers\peripheral\scb/cy_scb_uart.h **** * ensure that the defined instance of this structure remains in scope
ARM GAS  C:\Users\ikomb\AppData\Local\Temp\cctq3ka9.s 			page 58


 581:Generated_Source\PSoC6\pdl\drivers\peripheral\scb/cy_scb_uart.h **** * while the drive is in use.
 582:Generated_Source\PSoC6\pdl\drivers\peripheral\scb/cy_scb_uart.h **** */
 583:Generated_Source\PSoC6\pdl\drivers\peripheral\scb/cy_scb_uart.h **** typedef struct cy_stc_scb_uart_context
 584:Generated_Source\PSoC6\pdl\drivers\peripheral\scb/cy_scb_uart.h **** {
 585:Generated_Source\PSoC6\pdl\drivers\peripheral\scb/cy_scb_uart.h ****     /** \cond INTERNAL */
 586:Generated_Source\PSoC6\pdl\drivers\peripheral\scb/cy_scb_uart.h ****     uint32_t volatile txStatus;         /**< The transmit status */
 587:Generated_Source\PSoC6\pdl\drivers\peripheral\scb/cy_scb_uart.h ****     uint32_t volatile rxStatus;         /**< The receive status */
 588:Generated_Source\PSoC6\pdl\drivers\peripheral\scb/cy_scb_uart.h **** 
 589:Generated_Source\PSoC6\pdl\drivers\peripheral\scb/cy_scb_uart.h ****     void     *rxRingBuf;                /**< The pointer to the ring buffer */
 590:Generated_Source\PSoC6\pdl\drivers\peripheral\scb/cy_scb_uart.h ****     uint32_t  rxRingBufSize;            /**< The ring buffer size */
 591:Generated_Source\PSoC6\pdl\drivers\peripheral\scb/cy_scb_uart.h ****     uint32_t volatile rxRingBufHead;    /**< The ring buffer head index */
 592:Generated_Source\PSoC6\pdl\drivers\peripheral\scb/cy_scb_uart.h ****     uint32_t volatile rxRingBufTail;    /**< The ring buffer tail index */
 593:Generated_Source\PSoC6\pdl\drivers\peripheral\scb/cy_scb_uart.h **** 
 594:Generated_Source\PSoC6\pdl\drivers\peripheral\scb/cy_scb_uart.h ****     void     *rxBuf;                    /**< The pointer to the receive buffer */
 595:Generated_Source\PSoC6\pdl\drivers\peripheral\scb/cy_scb_uart.h ****     uint32_t  rxBufSize;                /**< The receive buffer size */
 596:Generated_Source\PSoC6\pdl\drivers\peripheral\scb/cy_scb_uart.h ****     uint32_t volatile rxBufIdx;         /**< The current location in the receive buffer */
 597:Generated_Source\PSoC6\pdl\drivers\peripheral\scb/cy_scb_uart.h **** 
 598:Generated_Source\PSoC6\pdl\drivers\peripheral\scb/cy_scb_uart.h ****     void     *txBuf;                    /**< The pointer to the transmit buffer */
 599:Generated_Source\PSoC6\pdl\drivers\peripheral\scb/cy_scb_uart.h ****     uint32_t  txBufSize;                /**< The transmit buffer size */
 600:Generated_Source\PSoC6\pdl\drivers\peripheral\scb/cy_scb_uart.h ****     uint32_t volatile txLeftToTransmit; /**< The number of data elements left to be transmitted */
 601:Generated_Source\PSoC6\pdl\drivers\peripheral\scb/cy_scb_uart.h **** 
 602:Generated_Source\PSoC6\pdl\drivers\peripheral\scb/cy_scb_uart.h ****     /** The pointer to an event callback that is called when any of
 603:Generated_Source\PSoC6\pdl\drivers\peripheral\scb/cy_scb_uart.h ****     * \ref group_scb_uart_macros_callback_events occurs
 604:Generated_Source\PSoC6\pdl\drivers\peripheral\scb/cy_scb_uart.h ****     */
 605:Generated_Source\PSoC6\pdl\drivers\peripheral\scb/cy_scb_uart.h ****     cy_cb_scb_uart_handle_events_t cbEvents;
 606:Generated_Source\PSoC6\pdl\drivers\peripheral\scb/cy_scb_uart.h **** 
 607:Generated_Source\PSoC6\pdl\drivers\peripheral\scb/cy_scb_uart.h **** #if !defined(NDEBUG)
 608:Generated_Source\PSoC6\pdl\drivers\peripheral\scb/cy_scb_uart.h ****     uint32_t initKey;               /**< Tracks the context initialization */
 609:Generated_Source\PSoC6\pdl\drivers\peripheral\scb/cy_scb_uart.h **** #endif /* !(NDEBUG) */
 610:Generated_Source\PSoC6\pdl\drivers\peripheral\scb/cy_scb_uart.h ****     /** \endcond */
 611:Generated_Source\PSoC6\pdl\drivers\peripheral\scb/cy_scb_uart.h **** } cy_stc_scb_uart_context_t;
 612:Generated_Source\PSoC6\pdl\drivers\peripheral\scb/cy_scb_uart.h **** /** \} group_scb_uart_data_structures */
 613:Generated_Source\PSoC6\pdl\drivers\peripheral\scb/cy_scb_uart.h **** 
 614:Generated_Source\PSoC6\pdl\drivers\peripheral\scb/cy_scb_uart.h **** 
 615:Generated_Source\PSoC6\pdl\drivers\peripheral\scb/cy_scb_uart.h **** /***************************************
 616:Generated_Source\PSoC6\pdl\drivers\peripheral\scb/cy_scb_uart.h **** *        Function Prototypes
 617:Generated_Source\PSoC6\pdl\drivers\peripheral\scb/cy_scb_uart.h **** ***************************************/
 618:Generated_Source\PSoC6\pdl\drivers\peripheral\scb/cy_scb_uart.h **** 
 619:Generated_Source\PSoC6\pdl\drivers\peripheral\scb/cy_scb_uart.h **** /**
 620:Generated_Source\PSoC6\pdl\drivers\peripheral\scb/cy_scb_uart.h **** * \addtogroup group_scb_uart_general_functions
 621:Generated_Source\PSoC6\pdl\drivers\peripheral\scb/cy_scb_uart.h **** * \{
 622:Generated_Source\PSoC6\pdl\drivers\peripheral\scb/cy_scb_uart.h **** */
 623:Generated_Source\PSoC6\pdl\drivers\peripheral\scb/cy_scb_uart.h **** cy_en_scb_uart_status_t Cy_SCB_UART_Init(CySCB_Type *base, cy_stc_scb_uart_config_t const *config,
 624:Generated_Source\PSoC6\pdl\drivers\peripheral\scb/cy_scb_uart.h ****                                          cy_stc_scb_uart_context_t *context);
 625:Generated_Source\PSoC6\pdl\drivers\peripheral\scb/cy_scb_uart.h **** void Cy_SCB_UART_DeInit (CySCB_Type *base);
 626:Generated_Source\PSoC6\pdl\drivers\peripheral\scb/cy_scb_uart.h **** __STATIC_INLINE void Cy_SCB_UART_Enable(CySCB_Type *base);
 627:Generated_Source\PSoC6\pdl\drivers\peripheral\scb/cy_scb_uart.h **** void Cy_SCB_UART_Disable(CySCB_Type *base, cy_stc_scb_uart_context_t *context);
 628:Generated_Source\PSoC6\pdl\drivers\peripheral\scb/cy_scb_uart.h **** 
 629:Generated_Source\PSoC6\pdl\drivers\peripheral\scb/cy_scb_uart.h **** __STATIC_INLINE void     Cy_SCB_UART_EnableCts      (CySCB_Type *base);
 630:Generated_Source\PSoC6\pdl\drivers\peripheral\scb/cy_scb_uart.h **** __STATIC_INLINE void     Cy_SCB_UART_DisableCts     (CySCB_Type *base);
 631:Generated_Source\PSoC6\pdl\drivers\peripheral\scb/cy_scb_uart.h **** __STATIC_INLINE void     Cy_SCB_UART_SetRtsFifoLevel(CySCB_Type *base, uint32_t level);
 632:Generated_Source\PSoC6\pdl\drivers\peripheral\scb/cy_scb_uart.h **** __STATIC_INLINE uint32_t Cy_SCB_UART_GetRtsFifoLevel(CySCB_Type const *base);
 633:Generated_Source\PSoC6\pdl\drivers\peripheral\scb/cy_scb_uart.h **** 
 634:Generated_Source\PSoC6\pdl\drivers\peripheral\scb/cy_scb_uart.h **** __STATIC_INLINE void Cy_SCB_UART_EnableSkipStart (CySCB_Type *base);
 635:Generated_Source\PSoC6\pdl\drivers\peripheral\scb/cy_scb_uart.h **** __STATIC_INLINE void Cy_SCB_UART_DisableSkipStart(CySCB_Type *base);
 636:Generated_Source\PSoC6\pdl\drivers\peripheral\scb/cy_scb_uart.h **** /** \} group_scb_uart_general_functions */
 637:Generated_Source\PSoC6\pdl\drivers\peripheral\scb/cy_scb_uart.h **** 
ARM GAS  C:\Users\ikomb\AppData\Local\Temp\cctq3ka9.s 			page 59


 638:Generated_Source\PSoC6\pdl\drivers\peripheral\scb/cy_scb_uart.h **** /**
 639:Generated_Source\PSoC6\pdl\drivers\peripheral\scb/cy_scb_uart.h **** * \addtogroup group_scb_uart_high_level_functions
 640:Generated_Source\PSoC6\pdl\drivers\peripheral\scb/cy_scb_uart.h **** * \{
 641:Generated_Source\PSoC6\pdl\drivers\peripheral\scb/cy_scb_uart.h **** */
 642:Generated_Source\PSoC6\pdl\drivers\peripheral\scb/cy_scb_uart.h **** void     Cy_SCB_UART_StartRingBuffer   (CySCB_Type *base, void *buffer, uint32_t size,
 643:Generated_Source\PSoC6\pdl\drivers\peripheral\scb/cy_scb_uart.h ****                                         cy_stc_scb_uart_context_t *context);
 644:Generated_Source\PSoC6\pdl\drivers\peripheral\scb/cy_scb_uart.h **** void     Cy_SCB_UART_StopRingBuffer    (CySCB_Type *base, cy_stc_scb_uart_context_t *context);
 645:Generated_Source\PSoC6\pdl\drivers\peripheral\scb/cy_scb_uart.h **** uint32_t Cy_SCB_UART_GetNumInRingBuffer(CySCB_Type const *base, cy_stc_scb_uart_context_t const *co
 646:Generated_Source\PSoC6\pdl\drivers\peripheral\scb/cy_scb_uart.h **** void     Cy_SCB_UART_ClearRingBuffer   (CySCB_Type const *base, cy_stc_scb_uart_context_t *context)
 647:Generated_Source\PSoC6\pdl\drivers\peripheral\scb/cy_scb_uart.h **** 
 648:Generated_Source\PSoC6\pdl\drivers\peripheral\scb/cy_scb_uart.h **** cy_en_scb_uart_status_t Cy_SCB_UART_Receive(CySCB_Type *base, void *buffer, uint32_t size,
 649:Generated_Source\PSoC6\pdl\drivers\peripheral\scb/cy_scb_uart.h ****                                             cy_stc_scb_uart_context_t *context);
 650:Generated_Source\PSoC6\pdl\drivers\peripheral\scb/cy_scb_uart.h **** void     Cy_SCB_UART_AbortReceive    (CySCB_Type *base, cy_stc_scb_uart_context_t *context);
 651:Generated_Source\PSoC6\pdl\drivers\peripheral\scb/cy_scb_uart.h **** uint32_t Cy_SCB_UART_GetReceiveStatus(CySCB_Type const *base, cy_stc_scb_uart_context_t const *cont
 652:Generated_Source\PSoC6\pdl\drivers\peripheral\scb/cy_scb_uart.h **** uint32_t Cy_SCB_UART_GetNumReceived  (CySCB_Type const *base, cy_stc_scb_uart_context_t const *cont
 653:Generated_Source\PSoC6\pdl\drivers\peripheral\scb/cy_scb_uart.h **** 
 654:Generated_Source\PSoC6\pdl\drivers\peripheral\scb/cy_scb_uart.h **** cy_en_scb_uart_status_t Cy_SCB_UART_Transmit(CySCB_Type *base, void *buffer, uint32_t size,
 655:Generated_Source\PSoC6\pdl\drivers\peripheral\scb/cy_scb_uart.h ****                                              cy_stc_scb_uart_context_t *context);
 656:Generated_Source\PSoC6\pdl\drivers\peripheral\scb/cy_scb_uart.h **** void     Cy_SCB_UART_AbortTransmit       (CySCB_Type *base, cy_stc_scb_uart_context_t *context);
 657:Generated_Source\PSoC6\pdl\drivers\peripheral\scb/cy_scb_uart.h **** uint32_t Cy_SCB_UART_GetTransmitStatus   (CySCB_Type const *base, cy_stc_scb_uart_context_t const *
 658:Generated_Source\PSoC6\pdl\drivers\peripheral\scb/cy_scb_uart.h **** uint32_t Cy_SCB_UART_GetNumLeftToTransmit(CySCB_Type const *base, cy_stc_scb_uart_context_t const *
 659:Generated_Source\PSoC6\pdl\drivers\peripheral\scb/cy_scb_uart.h **** /** \} group_scb_uart_high_level_functions */
 660:Generated_Source\PSoC6\pdl\drivers\peripheral\scb/cy_scb_uart.h **** 
 661:Generated_Source\PSoC6\pdl\drivers\peripheral\scb/cy_scb_uart.h **** /**
 662:Generated_Source\PSoC6\pdl\drivers\peripheral\scb/cy_scb_uart.h **** * \addtogroup group_scb_uart_low_level_functions
 663:Generated_Source\PSoC6\pdl\drivers\peripheral\scb/cy_scb_uart.h **** * \{
 664:Generated_Source\PSoC6\pdl\drivers\peripheral\scb/cy_scb_uart.h **** */
 665:Generated_Source\PSoC6\pdl\drivers\peripheral\scb/cy_scb_uart.h **** __STATIC_INLINE uint32_t Cy_SCB_UART_Put             (CySCB_Type *base, uint32_t data);
 666:Generated_Source\PSoC6\pdl\drivers\peripheral\scb/cy_scb_uart.h **** __STATIC_INLINE uint32_t Cy_SCB_UART_PutArray        (CySCB_Type *base, void *buffer, uint32_t size
 667:Generated_Source\PSoC6\pdl\drivers\peripheral\scb/cy_scb_uart.h **** __STATIC_INLINE void     Cy_SCB_UART_PutArrayBlocking(CySCB_Type *base, void *buffer, uint32_t size
 668:Generated_Source\PSoC6\pdl\drivers\peripheral\scb/cy_scb_uart.h **** __STATIC_INLINE void     Cy_SCB_UART_PutString       (CySCB_Type *base, char_t const string[]);
 669:Generated_Source\PSoC6\pdl\drivers\peripheral\scb/cy_scb_uart.h **** void Cy_SCB_UART_SendBreakBlocking(CySCB_Type *base, uint32_t breakWidth);
 670:Generated_Source\PSoC6\pdl\drivers\peripheral\scb/cy_scb_uart.h **** 
 671:Generated_Source\PSoC6\pdl\drivers\peripheral\scb/cy_scb_uart.h **** __STATIC_INLINE uint32_t Cy_SCB_UART_Get             (CySCB_Type const *base);
 672:Generated_Source\PSoC6\pdl\drivers\peripheral\scb/cy_scb_uart.h **** __STATIC_INLINE uint32_t Cy_SCB_UART_GetArray        (CySCB_Type const *base, void *buffer, uint32_
 673:Generated_Source\PSoC6\pdl\drivers\peripheral\scb/cy_scb_uart.h **** __STATIC_INLINE void     Cy_SCB_UART_GetArrayBlocking(CySCB_Type const *base, void *buffer, uint32_
 674:Generated_Source\PSoC6\pdl\drivers\peripheral\scb/cy_scb_uart.h **** 
 675:Generated_Source\PSoC6\pdl\drivers\peripheral\scb/cy_scb_uart.h **** __STATIC_INLINE uint32_t Cy_SCB_UART_GetTxFifoStatus  (CySCB_Type const *base);
 676:Generated_Source\PSoC6\pdl\drivers\peripheral\scb/cy_scb_uart.h **** __STATIC_INLINE void     Cy_SCB_UART_ClearTxFifoStatus(CySCB_Type *base, uint32_t clearMask);
 677:Generated_Source\PSoC6\pdl\drivers\peripheral\scb/cy_scb_uart.h **** 
 678:Generated_Source\PSoC6\pdl\drivers\peripheral\scb/cy_scb_uart.h **** __STATIC_INLINE uint32_t Cy_SCB_UART_GetRxFifoStatus  (CySCB_Type const *base);
 679:Generated_Source\PSoC6\pdl\drivers\peripheral\scb/cy_scb_uart.h **** __STATIC_INLINE void     Cy_SCB_UART_ClearRxFifoStatus(CySCB_Type *base, uint32_t clearMask);
 680:Generated_Source\PSoC6\pdl\drivers\peripheral\scb/cy_scb_uart.h **** 
 681:Generated_Source\PSoC6\pdl\drivers\peripheral\scb/cy_scb_uart.h **** __STATIC_INLINE uint32_t Cy_SCB_UART_GetNumInTxFifo   (CySCB_Type const *base);
 682:Generated_Source\PSoC6\pdl\drivers\peripheral\scb/cy_scb_uart.h **** __STATIC_INLINE bool     Cy_SCB_UART_IsTxComplete     (CySCB_Type const *base);
 683:Generated_Source\PSoC6\pdl\drivers\peripheral\scb/cy_scb_uart.h **** 
 684:Generated_Source\PSoC6\pdl\drivers\peripheral\scb/cy_scb_uart.h **** __STATIC_INLINE uint32_t Cy_SCB_UART_GetNumInRxFifo   (CySCB_Type const *base);
 685:Generated_Source\PSoC6\pdl\drivers\peripheral\scb/cy_scb_uart.h **** 
 686:Generated_Source\PSoC6\pdl\drivers\peripheral\scb/cy_scb_uart.h **** __STATIC_INLINE void     Cy_SCB_UART_ClearRxFifo      (CySCB_Type *base);
 687:Generated_Source\PSoC6\pdl\drivers\peripheral\scb/cy_scb_uart.h **** __STATIC_INLINE void     Cy_SCB_UART_ClearTxFifo      (CySCB_Type *base);
 688:Generated_Source\PSoC6\pdl\drivers\peripheral\scb/cy_scb_uart.h **** /** \} group_scb_uart_low_level_functions */
 689:Generated_Source\PSoC6\pdl\drivers\peripheral\scb/cy_scb_uart.h **** 
 690:Generated_Source\PSoC6\pdl\drivers\peripheral\scb/cy_scb_uart.h **** /**
 691:Generated_Source\PSoC6\pdl\drivers\peripheral\scb/cy_scb_uart.h **** * \addtogroup group_scb_uart_interrupt_functions
 692:Generated_Source\PSoC6\pdl\drivers\peripheral\scb/cy_scb_uart.h **** * \{
 693:Generated_Source\PSoC6\pdl\drivers\peripheral\scb/cy_scb_uart.h **** */
 694:Generated_Source\PSoC6\pdl\drivers\peripheral\scb/cy_scb_uart.h **** void Cy_SCB_UART_Interrupt(CySCB_Type *base, cy_stc_scb_uart_context_t *context);
ARM GAS  C:\Users\ikomb\AppData\Local\Temp\cctq3ka9.s 			page 60


 695:Generated_Source\PSoC6\pdl\drivers\peripheral\scb/cy_scb_uart.h **** 
 696:Generated_Source\PSoC6\pdl\drivers\peripheral\scb/cy_scb_uart.h **** __STATIC_INLINE void Cy_SCB_UART_RegisterCallback(CySCB_Type const *base, cy_cb_scb_uart_handle_eve
 697:Generated_Source\PSoC6\pdl\drivers\peripheral\scb/cy_scb_uart.h ****                                                   cy_stc_scb_uart_context_t *context);
 698:Generated_Source\PSoC6\pdl\drivers\peripheral\scb/cy_scb_uart.h **** /** \} group_scb_uart_interrupt_functions */
 699:Generated_Source\PSoC6\pdl\drivers\peripheral\scb/cy_scb_uart.h **** 
 700:Generated_Source\PSoC6\pdl\drivers\peripheral\scb/cy_scb_uart.h **** /**
 701:Generated_Source\PSoC6\pdl\drivers\peripheral\scb/cy_scb_uart.h **** * \addtogroup group_scb_uart_low_power_functions
 702:Generated_Source\PSoC6\pdl\drivers\peripheral\scb/cy_scb_uart.h **** * \{
 703:Generated_Source\PSoC6\pdl\drivers\peripheral\scb/cy_scb_uart.h **** */
 704:Generated_Source\PSoC6\pdl\drivers\peripheral\scb/cy_scb_uart.h **** cy_en_syspm_status_t Cy_SCB_UART_DeepSleepCallback(cy_stc_syspm_callback_params_t *callbackParams);
 705:Generated_Source\PSoC6\pdl\drivers\peripheral\scb/cy_scb_uart.h **** cy_en_syspm_status_t Cy_SCB_UART_HibernateCallback(cy_stc_syspm_callback_params_t *callbackParams);
 706:Generated_Source\PSoC6\pdl\drivers\peripheral\scb/cy_scb_uart.h **** /** \} group_scb_uart_low_power_functions */
 707:Generated_Source\PSoC6\pdl\drivers\peripheral\scb/cy_scb_uart.h **** 
 708:Generated_Source\PSoC6\pdl\drivers\peripheral\scb/cy_scb_uart.h **** 
 709:Generated_Source\PSoC6\pdl\drivers\peripheral\scb/cy_scb_uart.h **** /***************************************
 710:Generated_Source\PSoC6\pdl\drivers\peripheral\scb/cy_scb_uart.h **** *            API Constants
 711:Generated_Source\PSoC6\pdl\drivers\peripheral\scb/cy_scb_uart.h **** ***************************************/
 712:Generated_Source\PSoC6\pdl\drivers\peripheral\scb/cy_scb_uart.h **** 
 713:Generated_Source\PSoC6\pdl\drivers\peripheral\scb/cy_scb_uart.h **** /**
 714:Generated_Source\PSoC6\pdl\drivers\peripheral\scb/cy_scb_uart.h **** * \addtogroup group_scb_uart_macros
 715:Generated_Source\PSoC6\pdl\drivers\peripheral\scb/cy_scb_uart.h **** * \{
 716:Generated_Source\PSoC6\pdl\drivers\peripheral\scb/cy_scb_uart.h **** */
 717:Generated_Source\PSoC6\pdl\drivers\peripheral\scb/cy_scb_uart.h **** 
 718:Generated_Source\PSoC6\pdl\drivers\peripheral\scb/cy_scb_uart.h **** /**
 719:Generated_Source\PSoC6\pdl\drivers\peripheral\scb/cy_scb_uart.h **** * \defgroup group_scb_uart_macros_irda_lp_ovs UART IRDA Low Power Oversample factors
 720:Generated_Source\PSoC6\pdl\drivers\peripheral\scb/cy_scb_uart.h **** * \{
 721:Generated_Source\PSoC6\pdl\drivers\peripheral\scb/cy_scb_uart.h **** */
 722:Generated_Source\PSoC6\pdl\drivers\peripheral\scb/cy_scb_uart.h **** #define CY_SCB_UART_IRDA_LP_OVS16      (1UL)   /**< IrDA in low-power mode oversampled by 16   */
 723:Generated_Source\PSoC6\pdl\drivers\peripheral\scb/cy_scb_uart.h **** #define CY_SCB_UART_IRDA_LP_OVS32      (2UL)   /**< IrDA in low-power mode oversampled by 32   */
 724:Generated_Source\PSoC6\pdl\drivers\peripheral\scb/cy_scb_uart.h **** #define CY_SCB_UART_IRDA_LP_OVS48      (3UL)   /**< IrDA in low-power mode oversampled by 48   */
 725:Generated_Source\PSoC6\pdl\drivers\peripheral\scb/cy_scb_uart.h **** #define CY_SCB_UART_IRDA_LP_OVS96      (4UL)   /**< IrDA in low-power mode oversampled by 96   */
 726:Generated_Source\PSoC6\pdl\drivers\peripheral\scb/cy_scb_uart.h **** #define CY_SCB_UART_IRDA_LP_OVS192     (5UL)   /**< IrDA in low-power mode oversampled by 192  */
 727:Generated_Source\PSoC6\pdl\drivers\peripheral\scb/cy_scb_uart.h **** #define CY_SCB_UART_IRDA_LP_OVS768     (6UL)   /**< IrDA in low-power mode oversampled by 768  */
 728:Generated_Source\PSoC6\pdl\drivers\peripheral\scb/cy_scb_uart.h **** #define CY_SCB_UART_IRDA_LP_OVS1536    (7UL)   /**< IrDA in low-power mode oversampled by 1536 */
 729:Generated_Source\PSoC6\pdl\drivers\peripheral\scb/cy_scb_uart.h **** /** \} group_scb_uart_macros_irda_lp_ovs */
 730:Generated_Source\PSoC6\pdl\drivers\peripheral\scb/cy_scb_uart.h **** 
 731:Generated_Source\PSoC6\pdl\drivers\peripheral\scb/cy_scb_uart.h **** /**
 732:Generated_Source\PSoC6\pdl\drivers\peripheral\scb/cy_scb_uart.h **** * \defgroup group_scb_uart_macros_rx_fifo_status UART Receive FIFO status.
 733:Generated_Source\PSoC6\pdl\drivers\peripheral\scb/cy_scb_uart.h **** * \{
 734:Generated_Source\PSoC6\pdl\drivers\peripheral\scb/cy_scb_uart.h **** */
 735:Generated_Source\PSoC6\pdl\drivers\peripheral\scb/cy_scb_uart.h **** /** The number of entries in the RX FIFO is more than the RX FIFO trigger level
 736:Generated_Source\PSoC6\pdl\drivers\peripheral\scb/cy_scb_uart.h **** * value
 737:Generated_Source\PSoC6\pdl\drivers\peripheral\scb/cy_scb_uart.h **** */
 738:Generated_Source\PSoC6\pdl\drivers\peripheral\scb/cy_scb_uart.h **** #define CY_SCB_UART_RX_TRIGGER         (SCB_INTR_RX_TRIGGER_Msk)
 739:Generated_Source\PSoC6\pdl\drivers\peripheral\scb/cy_scb_uart.h **** 
 740:Generated_Source\PSoC6\pdl\drivers\peripheral\scb/cy_scb_uart.h **** /** The RX FIFO is not empty, there is data to read */
 741:Generated_Source\PSoC6\pdl\drivers\peripheral\scb/cy_scb_uart.h **** #define CY_SCB_UART_RX_NOT_EMPTY       (SCB_INTR_RX_NOT_EMPTY_Msk)
 742:Generated_Source\PSoC6\pdl\drivers\peripheral\scb/cy_scb_uart.h **** 
 743:Generated_Source\PSoC6\pdl\drivers\peripheral\scb/cy_scb_uart.h **** /**
 744:Generated_Source\PSoC6\pdl\drivers\peripheral\scb/cy_scb_uart.h **** * The RX FIFO is full, there is no more space for additional data, and
 745:Generated_Source\PSoC6\pdl\drivers\peripheral\scb/cy_scb_uart.h **** * any additional data will be dropped
 746:Generated_Source\PSoC6\pdl\drivers\peripheral\scb/cy_scb_uart.h **** */
 747:Generated_Source\PSoC6\pdl\drivers\peripheral\scb/cy_scb_uart.h **** #define CY_SCB_UART_RX_FULL            (SCB_INTR_RX_FULL_Msk)
 748:Generated_Source\PSoC6\pdl\drivers\peripheral\scb/cy_scb_uart.h **** 
 749:Generated_Source\PSoC6\pdl\drivers\peripheral\scb/cy_scb_uart.h **** /**
 750:Generated_Source\PSoC6\pdl\drivers\peripheral\scb/cy_scb_uart.h **** * The RX FIFO was full and there was an attempt to write to it.
 751:Generated_Source\PSoC6\pdl\drivers\peripheral\scb/cy_scb_uart.h **** * That additional data was dropped.
ARM GAS  C:\Users\ikomb\AppData\Local\Temp\cctq3ka9.s 			page 61


 752:Generated_Source\PSoC6\pdl\drivers\peripheral\scb/cy_scb_uart.h **** */
 753:Generated_Source\PSoC6\pdl\drivers\peripheral\scb/cy_scb_uart.h **** #define CY_SCB_UART_RX_OVERFLOW        (SCB_INTR_RX_OVERFLOW_Msk)
 754:Generated_Source\PSoC6\pdl\drivers\peripheral\scb/cy_scb_uart.h **** 
 755:Generated_Source\PSoC6\pdl\drivers\peripheral\scb/cy_scb_uart.h **** /** An attempt to read from an empty RX FIFO */
 756:Generated_Source\PSoC6\pdl\drivers\peripheral\scb/cy_scb_uart.h **** #define CY_SCB_UART_RX_UNDERFLOW       (SCB_INTR_RX_UNDERFLOW_Msk)
 757:Generated_Source\PSoC6\pdl\drivers\peripheral\scb/cy_scb_uart.h **** 
 758:Generated_Source\PSoC6\pdl\drivers\peripheral\scb/cy_scb_uart.h **** /** The RX FIFO detected a frame error, either a stop or stop-bit error */
 759:Generated_Source\PSoC6\pdl\drivers\peripheral\scb/cy_scb_uart.h **** #define CY_SCB_UART_RX_ERR_FRAME       (SCB_INTR_RX_FRAME_ERROR_Msk)
 760:Generated_Source\PSoC6\pdl\drivers\peripheral\scb/cy_scb_uart.h **** 
 761:Generated_Source\PSoC6\pdl\drivers\peripheral\scb/cy_scb_uart.h **** /** The RX FIFO detected a parity error */
 762:Generated_Source\PSoC6\pdl\drivers\peripheral\scb/cy_scb_uart.h **** #define CY_SCB_UART_RX_ERR_PARITY      (SCB_INTR_RX_PARITY_ERROR_Msk)
 763:Generated_Source\PSoC6\pdl\drivers\peripheral\scb/cy_scb_uart.h **** 
 764:Generated_Source\PSoC6\pdl\drivers\peripheral\scb/cy_scb_uart.h **** /** The RX FIFO detected a break transmission from the transmitter */
 765:Generated_Source\PSoC6\pdl\drivers\peripheral\scb/cy_scb_uart.h **** #define CY_SCB_UART_RX_BREAK_DETECT    (SCB_INTR_RX_BREAK_DETECT_Msk)
 766:Generated_Source\PSoC6\pdl\drivers\peripheral\scb/cy_scb_uart.h **** /** \} group_scb_uart_macros_rx_fifo_status */
 767:Generated_Source\PSoC6\pdl\drivers\peripheral\scb/cy_scb_uart.h **** 
 768:Generated_Source\PSoC6\pdl\drivers\peripheral\scb/cy_scb_uart.h **** /**
 769:Generated_Source\PSoC6\pdl\drivers\peripheral\scb/cy_scb_uart.h **** * \defgroup group_scb_uart_macros_tx_fifo_status UART TX FIFO Statuses
 770:Generated_Source\PSoC6\pdl\drivers\peripheral\scb/cy_scb_uart.h **** * \{
 771:Generated_Source\PSoC6\pdl\drivers\peripheral\scb/cy_scb_uart.h **** */
 772:Generated_Source\PSoC6\pdl\drivers\peripheral\scb/cy_scb_uart.h **** /** The number of entries in the TX FIFO is less than the TX FIFO trigger level
 773:Generated_Source\PSoC6\pdl\drivers\peripheral\scb/cy_scb_uart.h **** * value
 774:Generated_Source\PSoC6\pdl\drivers\peripheral\scb/cy_scb_uart.h **** */
 775:Generated_Source\PSoC6\pdl\drivers\peripheral\scb/cy_scb_uart.h **** #define CY_SCB_UART_TX_TRIGGER     (SCB_INTR_TX_TRIGGER_Msk)
 776:Generated_Source\PSoC6\pdl\drivers\peripheral\scb/cy_scb_uart.h **** 
 777:Generated_Source\PSoC6\pdl\drivers\peripheral\scb/cy_scb_uart.h **** /** The TX FIFO is not full, there is a space for more data */
 778:Generated_Source\PSoC6\pdl\drivers\peripheral\scb/cy_scb_uart.h **** #define CY_SCB_UART_TX_NOT_FULL    (SCB_INTR_TX_NOT_FULL_Msk)
 779:Generated_Source\PSoC6\pdl\drivers\peripheral\scb/cy_scb_uart.h **** 
 780:Generated_Source\PSoC6\pdl\drivers\peripheral\scb/cy_scb_uart.h **** /** The TX FIFO is empty, note there may still be data in the shift register.*/
 781:Generated_Source\PSoC6\pdl\drivers\peripheral\scb/cy_scb_uart.h **** #define CY_SCB_UART_TX_EMPTY       (SCB_INTR_TX_EMPTY_Msk)
 782:Generated_Source\PSoC6\pdl\drivers\peripheral\scb/cy_scb_uart.h **** 
 783:Generated_Source\PSoC6\pdl\drivers\peripheral\scb/cy_scb_uart.h **** /** An attempt to write to the full TX FIFO */
 784:Generated_Source\PSoC6\pdl\drivers\peripheral\scb/cy_scb_uart.h **** #define CY_SCB_UART_TX_OVERFLOW    (SCB_INTR_TX_OVERFLOW_Msk)
 785:Generated_Source\PSoC6\pdl\drivers\peripheral\scb/cy_scb_uart.h **** 
 786:Generated_Source\PSoC6\pdl\drivers\peripheral\scb/cy_scb_uart.h **** /** An attempt to read from an empty transmitter FIFO (hardware reads). */
 787:Generated_Source\PSoC6\pdl\drivers\peripheral\scb/cy_scb_uart.h **** #define CY_SCB_UART_TX_UNDERFLOW (SCB_INTR_TX_UNDERFLOW_Msk)
 788:Generated_Source\PSoC6\pdl\drivers\peripheral\scb/cy_scb_uart.h **** 
 789:Generated_Source\PSoC6\pdl\drivers\peripheral\scb/cy_scb_uart.h **** /** All data has been transmitted out of the FIFO, including shifter */
 790:Generated_Source\PSoC6\pdl\drivers\peripheral\scb/cy_scb_uart.h **** #define CY_SCB_UART_TX_DONE        (SCB_INTR_TX_UART_DONE_Msk)
 791:Generated_Source\PSoC6\pdl\drivers\peripheral\scb/cy_scb_uart.h **** 
 792:Generated_Source\PSoC6\pdl\drivers\peripheral\scb/cy_scb_uart.h **** /** SmartCard only: the transmitter received a NACK */
 793:Generated_Source\PSoC6\pdl\drivers\peripheral\scb/cy_scb_uart.h **** #define CY_SCB_UART_TX_NACK        (SCB_INTR_TX_UART_NACK_Msk)
 794:Generated_Source\PSoC6\pdl\drivers\peripheral\scb/cy_scb_uart.h **** 
 795:Generated_Source\PSoC6\pdl\drivers\peripheral\scb/cy_scb_uart.h **** /** SmartCard only: the transmitter lost arbitration */
 796:Generated_Source\PSoC6\pdl\drivers\peripheral\scb/cy_scb_uart.h **** #define CY_SCB_UART_TX_ARB_LOST    (SCB_INTR_TX_UART_ARB_LOST_Msk)
 797:Generated_Source\PSoC6\pdl\drivers\peripheral\scb/cy_scb_uart.h **** /** \} group_scb_uart_macros_tx_fifo_status */
 798:Generated_Source\PSoC6\pdl\drivers\peripheral\scb/cy_scb_uart.h **** 
 799:Generated_Source\PSoC6\pdl\drivers\peripheral\scb/cy_scb_uart.h **** /**
 800:Generated_Source\PSoC6\pdl\drivers\peripheral\scb/cy_scb_uart.h **** * \defgroup group_scb_uart_macros_receive_status UART Receive Statuses
 801:Generated_Source\PSoC6\pdl\drivers\peripheral\scb/cy_scb_uart.h **** * \{
 802:Generated_Source\PSoC6\pdl\drivers\peripheral\scb/cy_scb_uart.h **** */
 803:Generated_Source\PSoC6\pdl\drivers\peripheral\scb/cy_scb_uart.h **** /** The receive operation started by \ref Cy_SCB_UART_Receive is in progress */
 804:Generated_Source\PSoC6\pdl\drivers\peripheral\scb/cy_scb_uart.h **** #define CY_SCB_UART_RECEIVE_ACTIVE         (0x01UL)
 805:Generated_Source\PSoC6\pdl\drivers\peripheral\scb/cy_scb_uart.h **** 
 806:Generated_Source\PSoC6\pdl\drivers\peripheral\scb/cy_scb_uart.h **** /**
 807:Generated_Source\PSoC6\pdl\drivers\peripheral\scb/cy_scb_uart.h **** * The hardware RX FIFO was full and there was an attempt to write to it.
 808:Generated_Source\PSoC6\pdl\drivers\peripheral\scb/cy_scb_uart.h **** * That additional data was dropped.
ARM GAS  C:\Users\ikomb\AppData\Local\Temp\cctq3ka9.s 			page 62


 809:Generated_Source\PSoC6\pdl\drivers\peripheral\scb/cy_scb_uart.h **** */
 810:Generated_Source\PSoC6\pdl\drivers\peripheral\scb/cy_scb_uart.h **** #define CY_SCB_UART_RECEIVE_OVERFLOW       (SCB_INTR_RX_OVERFLOW_Msk)
 811:Generated_Source\PSoC6\pdl\drivers\peripheral\scb/cy_scb_uart.h **** 
 812:Generated_Source\PSoC6\pdl\drivers\peripheral\scb/cy_scb_uart.h **** /** The receive hardware detected a frame error, either a start or
 813:Generated_Source\PSoC6\pdl\drivers\peripheral\scb/cy_scb_uart.h **** * stop bit error
 814:Generated_Source\PSoC6\pdl\drivers\peripheral\scb/cy_scb_uart.h **** */
 815:Generated_Source\PSoC6\pdl\drivers\peripheral\scb/cy_scb_uart.h **** #define CY_SCB_UART_RECEIVE_ERR_FRAME      (SCB_INTR_RX_FRAME_ERROR_Msk)
 816:Generated_Source\PSoC6\pdl\drivers\peripheral\scb/cy_scb_uart.h **** 
 817:Generated_Source\PSoC6\pdl\drivers\peripheral\scb/cy_scb_uart.h **** /** The receive hardware detected a parity error */
 818:Generated_Source\PSoC6\pdl\drivers\peripheral\scb/cy_scb_uart.h **** #define CY_SCB_UART_RECEIVE_ERR_PARITY     (SCB_INTR_RX_PARITY_ERROR_Msk)
 819:Generated_Source\PSoC6\pdl\drivers\peripheral\scb/cy_scb_uart.h **** 
 820:Generated_Source\PSoC6\pdl\drivers\peripheral\scb/cy_scb_uart.h **** /** The receive hardware detected a break transmission from transmitter */
 821:Generated_Source\PSoC6\pdl\drivers\peripheral\scb/cy_scb_uart.h **** #define CY_SCB_UART_RECEIVE_BREAK_DETECT   (SCB_INTR_RX_BREAK_DETECT_Msk)
 822:Generated_Source\PSoC6\pdl\drivers\peripheral\scb/cy_scb_uart.h **** /** \} group_scb_uart_macros_receive_status */
 823:Generated_Source\PSoC6\pdl\drivers\peripheral\scb/cy_scb_uart.h **** 
 824:Generated_Source\PSoC6\pdl\drivers\peripheral\scb/cy_scb_uart.h **** /**
 825:Generated_Source\PSoC6\pdl\drivers\peripheral\scb/cy_scb_uart.h **** * \defgroup group_scb_uart_macros_transmit_status UART Transmit Status
 826:Generated_Source\PSoC6\pdl\drivers\peripheral\scb/cy_scb_uart.h **** * \{
 827:Generated_Source\PSoC6\pdl\drivers\peripheral\scb/cy_scb_uart.h **** */
 828:Generated_Source\PSoC6\pdl\drivers\peripheral\scb/cy_scb_uart.h **** /** The transmit operation started by \ref Cy_SCB_UART_Transmit is in progress */
 829:Generated_Source\PSoC6\pdl\drivers\peripheral\scb/cy_scb_uart.h **** #define CY_SCB_UART_TRANSMIT_ACTIVE    (0x01UL)
 830:Generated_Source\PSoC6\pdl\drivers\peripheral\scb/cy_scb_uart.h **** 
 831:Generated_Source\PSoC6\pdl\drivers\peripheral\scb/cy_scb_uart.h **** /**
 832:Generated_Source\PSoC6\pdl\drivers\peripheral\scb/cy_scb_uart.h **** * All data elements specified by \ref Cy_SCB_UART_Transmit have been loaded
 833:Generated_Source\PSoC6\pdl\drivers\peripheral\scb/cy_scb_uart.h **** * into the TX FIFO
 834:Generated_Source\PSoC6\pdl\drivers\peripheral\scb/cy_scb_uart.h **** */
 835:Generated_Source\PSoC6\pdl\drivers\peripheral\scb/cy_scb_uart.h **** #define CY_SCB_UART_TRANSMIT_IN_FIFO   (0x02UL)
 836:Generated_Source\PSoC6\pdl\drivers\peripheral\scb/cy_scb_uart.h **** 
 837:Generated_Source\PSoC6\pdl\drivers\peripheral\scb/cy_scb_uart.h **** /** SmartCard only: the transmitter received a NACK */
 838:Generated_Source\PSoC6\pdl\drivers\peripheral\scb/cy_scb_uart.h **** #define CY_SCB_UART_TRANSMIT_NACK      (SCB_INTR_TX_UART_NACK_Msk)
 839:Generated_Source\PSoC6\pdl\drivers\peripheral\scb/cy_scb_uart.h **** 
 840:Generated_Source\PSoC6\pdl\drivers\peripheral\scb/cy_scb_uart.h **** /** SmartCard only: the transmitter lost arbitration */
 841:Generated_Source\PSoC6\pdl\drivers\peripheral\scb/cy_scb_uart.h **** #define CY_SCB_UART_TRANSMIT_ARB_LOST  (SCB_INTR_TX_UART_ARB_LOST_Msk)
 842:Generated_Source\PSoC6\pdl\drivers\peripheral\scb/cy_scb_uart.h **** /** \} group_scb_uart_macros_transmit_status */
 843:Generated_Source\PSoC6\pdl\drivers\peripheral\scb/cy_scb_uart.h **** 
 844:Generated_Source\PSoC6\pdl\drivers\peripheral\scb/cy_scb_uart.h **** /**
 845:Generated_Source\PSoC6\pdl\drivers\peripheral\scb/cy_scb_uart.h **** * \defgroup group_scb_uart_macros_callback_events UART Callback Events
 846:Generated_Source\PSoC6\pdl\drivers\peripheral\scb/cy_scb_uart.h **** * \{
 847:Generated_Source\PSoC6\pdl\drivers\peripheral\scb/cy_scb_uart.h **** * Only single event is notified by the callback.
 848:Generated_Source\PSoC6\pdl\drivers\peripheral\scb/cy_scb_uart.h **** */
 849:Generated_Source\PSoC6\pdl\drivers\peripheral\scb/cy_scb_uart.h **** /**
 850:Generated_Source\PSoC6\pdl\drivers\peripheral\scb/cy_scb_uart.h **** * All data elements specified by \ref Cy_SCB_UART_Transmit have been loaded
 851:Generated_Source\PSoC6\pdl\drivers\peripheral\scb/cy_scb_uart.h **** * into the TX FIFO
 852:Generated_Source\PSoC6\pdl\drivers\peripheral\scb/cy_scb_uart.h **** */
 853:Generated_Source\PSoC6\pdl\drivers\peripheral\scb/cy_scb_uart.h **** #define CY_SCB_UART_TRANSMIT_IN_FIFO_EVENT (0x01UL)
 854:Generated_Source\PSoC6\pdl\drivers\peripheral\scb/cy_scb_uart.h **** 
 855:Generated_Source\PSoC6\pdl\drivers\peripheral\scb/cy_scb_uart.h **** /** The transmit operation started by \ref Cy_SCB_UART_Transmit is complete */
 856:Generated_Source\PSoC6\pdl\drivers\peripheral\scb/cy_scb_uart.h **** #define CY_SCB_UART_TRANSMIT_DONE_EVENT    (0x02UL)
 857:Generated_Source\PSoC6\pdl\drivers\peripheral\scb/cy_scb_uart.h **** 
 858:Generated_Source\PSoC6\pdl\drivers\peripheral\scb/cy_scb_uart.h **** /** The receive operation started by \ref Cy_SCB_UART_Receive is complete */
 859:Generated_Source\PSoC6\pdl\drivers\peripheral\scb/cy_scb_uart.h **** #define CY_SCB_UART_RECEIVE_DONE_EVENT     (0x04UL)
 860:Generated_Source\PSoC6\pdl\drivers\peripheral\scb/cy_scb_uart.h **** 
 861:Generated_Source\PSoC6\pdl\drivers\peripheral\scb/cy_scb_uart.h **** /**
 862:Generated_Source\PSoC6\pdl\drivers\peripheral\scb/cy_scb_uart.h **** * The ring buffer is full, there is no more space for additional data.
 863:Generated_Source\PSoC6\pdl\drivers\peripheral\scb/cy_scb_uart.h **** * Additional data is stored in the RX FIFO until it becomes full, at which
 864:Generated_Source\PSoC6\pdl\drivers\peripheral\scb/cy_scb_uart.h **** * point data is dropped.
 865:Generated_Source\PSoC6\pdl\drivers\peripheral\scb/cy_scb_uart.h **** */
ARM GAS  C:\Users\ikomb\AppData\Local\Temp\cctq3ka9.s 			page 63


 866:Generated_Source\PSoC6\pdl\drivers\peripheral\scb/cy_scb_uart.h **** #define CY_SCB_UART_RB_FULL_EVENT          (0x08UL)
 867:Generated_Source\PSoC6\pdl\drivers\peripheral\scb/cy_scb_uart.h **** 
 868:Generated_Source\PSoC6\pdl\drivers\peripheral\scb/cy_scb_uart.h **** /**
 869:Generated_Source\PSoC6\pdl\drivers\peripheral\scb/cy_scb_uart.h **** * An error was detected during the receive operation. This includes overflow,
 870:Generated_Source\PSoC6\pdl\drivers\peripheral\scb/cy_scb_uart.h **** * frame error, or parity error. Check \ref Cy_SCB_UART_GetReceiveStatus to
 871:Generated_Source\PSoC6\pdl\drivers\peripheral\scb/cy_scb_uart.h **** * determine the source of the error.
 872:Generated_Source\PSoC6\pdl\drivers\peripheral\scb/cy_scb_uart.h **** */
 873:Generated_Source\PSoC6\pdl\drivers\peripheral\scb/cy_scb_uart.h **** #define CY_SCB_UART_RECEIVE_ERR_EVENT      (0x10UL)
 874:Generated_Source\PSoC6\pdl\drivers\peripheral\scb/cy_scb_uart.h **** 
 875:Generated_Source\PSoC6\pdl\drivers\peripheral\scb/cy_scb_uart.h **** /**
 876:Generated_Source\PSoC6\pdl\drivers\peripheral\scb/cy_scb_uart.h **** * An error was detected during the transmit operation. This includes a NACK
 877:Generated_Source\PSoC6\pdl\drivers\peripheral\scb/cy_scb_uart.h **** * or lost arbitration. Check \ref Cy_SCB_UART_GetTransmitStatus to determine
 878:Generated_Source\PSoC6\pdl\drivers\peripheral\scb/cy_scb_uart.h **** * the source of the error
 879:Generated_Source\PSoC6\pdl\drivers\peripheral\scb/cy_scb_uart.h **** */
 880:Generated_Source\PSoC6\pdl\drivers\peripheral\scb/cy_scb_uart.h **** #define CY_SCB_UART_TRANSMIT_ERR_EVENT     (0x20UL)
 881:Generated_Source\PSoC6\pdl\drivers\peripheral\scb/cy_scb_uart.h **** /** \} group_scb_uart_macros_callback_events */
 882:Generated_Source\PSoC6\pdl\drivers\peripheral\scb/cy_scb_uart.h **** 
 883:Generated_Source\PSoC6\pdl\drivers\peripheral\scb/cy_scb_uart.h **** /** Data returned by the hardware when an empty RX FIFO is read */
 884:Generated_Source\PSoC6\pdl\drivers\peripheral\scb/cy_scb_uart.h **** #define CY_SCB_UART_RX_NO_DATA         (0xFFFFFFFFUL)
 885:Generated_Source\PSoC6\pdl\drivers\peripheral\scb/cy_scb_uart.h **** 
 886:Generated_Source\PSoC6\pdl\drivers\peripheral\scb/cy_scb_uart.h **** 
 887:Generated_Source\PSoC6\pdl\drivers\peripheral\scb/cy_scb_uart.h **** /***************************************
 888:Generated_Source\PSoC6\pdl\drivers\peripheral\scb/cy_scb_uart.h **** *         Internal Constants
 889:Generated_Source\PSoC6\pdl\drivers\peripheral\scb/cy_scb_uart.h **** ***************************************/
 890:Generated_Source\PSoC6\pdl\drivers\peripheral\scb/cy_scb_uart.h **** 
 891:Generated_Source\PSoC6\pdl\drivers\peripheral\scb/cy_scb_uart.h **** /** \cond INTERNAL */
 892:Generated_Source\PSoC6\pdl\drivers\peripheral\scb/cy_scb_uart.h **** #define CY_SCB_UART_TX_INTR_MASK    (CY_SCB_UART_TX_TRIGGER  | CY_SCB_UART_TX_NOT_FULL  | CY_SCB_UA
 893:Generated_Source\PSoC6\pdl\drivers\peripheral\scb/cy_scb_uart.h ****                                      CY_SCB_UART_TX_OVERFLOW | CY_SCB_UART_TX_UNDERFLOW | CY_SCB_UA
 894:Generated_Source\PSoC6\pdl\drivers\peripheral\scb/cy_scb_uart.h ****                                      CY_SCB_UART_TX_NACK     | CY_SCB_UART_TX_ARB_LOST)
 895:Generated_Source\PSoC6\pdl\drivers\peripheral\scb/cy_scb_uart.h **** 
 896:Generated_Source\PSoC6\pdl\drivers\peripheral\scb/cy_scb_uart.h **** #define CY_SCB_UART_RX_INTR_MASK    (CY_SCB_UART_RX_TRIGGER    | CY_SCB_UART_RX_NOT_EMPTY | CY_SCB_
 897:Generated_Source\PSoC6\pdl\drivers\peripheral\scb/cy_scb_uart.h ****                                      CY_SCB_UART_RX_OVERFLOW   | CY_SCB_UART_RX_UNDERFLOW | CY_SCB_
 898:Generated_Source\PSoC6\pdl\drivers\peripheral\scb/cy_scb_uart.h ****                                      CY_SCB_UART_RX_ERR_PARITY | CY_SCB_UART_RX_BREAK_DETECT)
 899:Generated_Source\PSoC6\pdl\drivers\peripheral\scb/cy_scb_uart.h **** 
 900:Generated_Source\PSoC6\pdl\drivers\peripheral\scb/cy_scb_uart.h **** #define CY_SCB_UART_TX_INTR        (CY_SCB_TX_INTR_LEVEL | CY_SCB_TX_INTR_UART_NACK | CY_SCB_TX_INT
 901:Generated_Source\PSoC6\pdl\drivers\peripheral\scb/cy_scb_uart.h **** 
 902:Generated_Source\PSoC6\pdl\drivers\peripheral\scb/cy_scb_uart.h **** #define CY_SCB_UART_RX_INTR        (CY_SCB_RX_INTR_LEVEL | CY_SCB_RX_INTR_OVERFLOW | CY_SCB_RX_INTR
 903:Generated_Source\PSoC6\pdl\drivers\peripheral\scb/cy_scb_uart.h ****                                     CY_SCB_RX_INTR_UART_PARITY_ERROR | CY_SCB_RX_INTR_UART_BREAK_DE
 904:Generated_Source\PSoC6\pdl\drivers\peripheral\scb/cy_scb_uart.h **** 
 905:Generated_Source\PSoC6\pdl\drivers\peripheral\scb/cy_scb_uart.h **** #define CY_SCB_UART_RECEIVE_ERR    (CY_SCB_RX_INTR_OVERFLOW | CY_SCB_RX_INTR_UART_FRAME_ERROR | \
 906:Generated_Source\PSoC6\pdl\drivers\peripheral\scb/cy_scb_uart.h ****                                     CY_SCB_RX_INTR_UART_PARITY_ERROR)
 907:Generated_Source\PSoC6\pdl\drivers\peripheral\scb/cy_scb_uart.h **** 
 908:Generated_Source\PSoC6\pdl\drivers\peripheral\scb/cy_scb_uart.h **** #define CY_SCB_UART_TRANSMIT_ERR   (CY_SCB_TX_INTR_UART_NACK | CY_SCB_TX_INTR_UART_ARB_LOST)
 909:Generated_Source\PSoC6\pdl\drivers\peripheral\scb/cy_scb_uart.h **** 
 910:Generated_Source\PSoC6\pdl\drivers\peripheral\scb/cy_scb_uart.h **** #define CY_SCB_UART_INIT_KEY       (0x00ABCDEFUL)
 911:Generated_Source\PSoC6\pdl\drivers\peripheral\scb/cy_scb_uart.h **** 
 912:Generated_Source\PSoC6\pdl\drivers\peripheral\scb/cy_scb_uart.h **** #define CY_SCB_UART_IS_MODE_VALID(mode)     ( (CY_SCB_UART_STANDARD  == (mode)) || \
 913:Generated_Source\PSoC6\pdl\drivers\peripheral\scb/cy_scb_uart.h ****                                               (CY_SCB_UART_SMARTCARD == (mode)) || \
 914:Generated_Source\PSoC6\pdl\drivers\peripheral\scb/cy_scb_uart.h ****                                               (CY_SCB_UART_IRDA      == (mode)) )
 915:Generated_Source\PSoC6\pdl\drivers\peripheral\scb/cy_scb_uart.h **** 
 916:Generated_Source\PSoC6\pdl\drivers\peripheral\scb/cy_scb_uart.h **** #define CY_SCB_UART_IS_STOP_BITS_VALID(stopBits)    ( (CY_SCB_UART_STOP_BITS_1   == (stopBits)) || 
 917:Generated_Source\PSoC6\pdl\drivers\peripheral\scb/cy_scb_uart.h ****                                                       (CY_SCB_UART_STOP_BITS_1_5 == (stopBits)) || 
 918:Generated_Source\PSoC6\pdl\drivers\peripheral\scb/cy_scb_uart.h ****                                                       (CY_SCB_UART_STOP_BITS_2   == (stopBits)) || 
 919:Generated_Source\PSoC6\pdl\drivers\peripheral\scb/cy_scb_uart.h ****                                                       (CY_SCB_UART_STOP_BITS_2_5 == (stopBits)) || 
 920:Generated_Source\PSoC6\pdl\drivers\peripheral\scb/cy_scb_uart.h ****                                                       (CY_SCB_UART_STOP_BITS_3   == (stopBits)) || 
 921:Generated_Source\PSoC6\pdl\drivers\peripheral\scb/cy_scb_uart.h ****                                                       (CY_SCB_UART_STOP_BITS_3_5 == (stopBits)) || 
 922:Generated_Source\PSoC6\pdl\drivers\peripheral\scb/cy_scb_uart.h ****                                                       (CY_SCB_UART_STOP_BITS_4   == (stopBits)) )
ARM GAS  C:\Users\ikomb\AppData\Local\Temp\cctq3ka9.s 			page 64


 923:Generated_Source\PSoC6\pdl\drivers\peripheral\scb/cy_scb_uart.h **** 
 924:Generated_Source\PSoC6\pdl\drivers\peripheral\scb/cy_scb_uart.h **** #define CY_SCB_UART_IS_PARITY_VALID(parity)         ( (CY_SCB_UART_PARITY_NONE == (parity)) || \
 925:Generated_Source\PSoC6\pdl\drivers\peripheral\scb/cy_scb_uart.h ****                                                       (CY_SCB_UART_PARITY_EVEN == (parity)) || \
 926:Generated_Source\PSoC6\pdl\drivers\peripheral\scb/cy_scb_uart.h ****                                                       (CY_SCB_UART_PARITY_ODD  == (parity)) )
 927:Generated_Source\PSoC6\pdl\drivers\peripheral\scb/cy_scb_uart.h **** 
 928:Generated_Source\PSoC6\pdl\drivers\peripheral\scb/cy_scb_uart.h **** #define CY_SCB_UART_IS_POLARITY_VALID(polarity)     ( (CY_SCB_UART_ACTIVE_LOW  == (polarity)) || \
 929:Generated_Source\PSoC6\pdl\drivers\peripheral\scb/cy_scb_uart.h ****                                                       (CY_SCB_UART_ACTIVE_HIGH == (polarity)) )
 930:Generated_Source\PSoC6\pdl\drivers\peripheral\scb/cy_scb_uart.h **** 
 931:Generated_Source\PSoC6\pdl\drivers\peripheral\scb/cy_scb_uart.h **** #define CY_SCB_UART_IS_IRDA_LP_OVS_VALID(ovs)       ( (CY_SCB_UART_IRDA_LP_OVS16   == (ovs)) || \
 932:Generated_Source\PSoC6\pdl\drivers\peripheral\scb/cy_scb_uart.h ****                                                       (CY_SCB_UART_IRDA_LP_OVS32   == (ovs)) || \
 933:Generated_Source\PSoC6\pdl\drivers\peripheral\scb/cy_scb_uart.h ****                                                       (CY_SCB_UART_IRDA_LP_OVS48   == (ovs)) || \
 934:Generated_Source\PSoC6\pdl\drivers\peripheral\scb/cy_scb_uart.h ****                                                       (CY_SCB_UART_IRDA_LP_OVS96   == (ovs)) || \
 935:Generated_Source\PSoC6\pdl\drivers\peripheral\scb/cy_scb_uart.h ****                                                       (CY_SCB_UART_IRDA_LP_OVS192  == (ovs)) || \
 936:Generated_Source\PSoC6\pdl\drivers\peripheral\scb/cy_scb_uart.h ****                                                       (CY_SCB_UART_IRDA_LP_OVS768  == (ovs)) || \
 937:Generated_Source\PSoC6\pdl\drivers\peripheral\scb/cy_scb_uart.h ****                                                       (CY_SCB_UART_IRDA_LP_OVS1536 == (ovs)) )
 938:Generated_Source\PSoC6\pdl\drivers\peripheral\scb/cy_scb_uart.h **** 
 939:Generated_Source\PSoC6\pdl\drivers\peripheral\scb/cy_scb_uart.h **** #define CY_SCB_UART_IS_ADDRESS_VALID(addr)          ((addr) <= 0xFFUL)
 940:Generated_Source\PSoC6\pdl\drivers\peripheral\scb/cy_scb_uart.h **** #define CY_SCB_UART_IS_ADDRESS_MASK_VALID(mask)     ((mask) <= 0xFFUL)
 941:Generated_Source\PSoC6\pdl\drivers\peripheral\scb/cy_scb_uart.h **** #define CY_SCB_UART_IS_DATA_WIDTH_VALID(width)      ( ((width) >= 5UL) && ((width) <= 9UL) )
 942:Generated_Source\PSoC6\pdl\drivers\peripheral\scb/cy_scb_uart.h **** #define CY_SCB_UART_IS_OVERSAMPLE_VALID(ovs, mode, lpRx)    ( ((CY_SCB_UART_STANDARD  == (mode)) ||
 943:Generated_Source\PSoC6\pdl\drivers\peripheral\scb/cy_scb_uart.h ****                                                               (((ovs) >= 8UL) && ((ovs) <= 16UL)) :
 944:Generated_Source\PSoC6\pdl\drivers\peripheral\scb/cy_scb_uart.h ****                                                               ((lpRx) ? CY_SCB_UART_IS_IRDA_LP_OVS_
 945:Generated_Source\PSoC6\pdl\drivers\peripheral\scb/cy_scb_uart.h **** 
 946:Generated_Source\PSoC6\pdl\drivers\peripheral\scb/cy_scb_uart.h **** #define CY_SCB_UART_IS_RX_BREAK_WIDTH_VALID(base, width)    ( ((width) >= (_FLD2VAL(SCB_RX_CTRL_DAT
 947:Generated_Source\PSoC6\pdl\drivers\peripheral\scb/cy_scb_uart.h ****                                                               ((width) <= 16UL) )
 948:Generated_Source\PSoC6\pdl\drivers\peripheral\scb/cy_scb_uart.h **** #define CY_SCB_UART_IS_TX_BREAK_WIDTH_VALID(width)          ( ((width) >= 4UL) && ((width) <= 16UL)
 949:Generated_Source\PSoC6\pdl\drivers\peripheral\scb/cy_scb_uart.h **** 
 950:Generated_Source\PSoC6\pdl\drivers\peripheral\scb/cy_scb_uart.h **** #define CY_SCB_UART_IS_MUTLI_PROC_VALID(mp, mode, width, parity)    ( (mp) ? ((CY_SCB_UART_STANDARD
 951:Generated_Source\PSoC6\pdl\drivers\peripheral\scb/cy_scb_uart.h ****                                                                               (CY_SCB_UART_PARITY_N
 952:Generated_Source\PSoC6\pdl\drivers\peripheral\scb/cy_scb_uart.h **** /** \endcond */
 953:Generated_Source\PSoC6\pdl\drivers\peripheral\scb/cy_scb_uart.h **** 
 954:Generated_Source\PSoC6\pdl\drivers\peripheral\scb/cy_scb_uart.h **** /** \} group_scb_uart_macros */
 955:Generated_Source\PSoC6\pdl\drivers\peripheral\scb/cy_scb_uart.h **** 
 956:Generated_Source\PSoC6\pdl\drivers\peripheral\scb/cy_scb_uart.h **** 
 957:Generated_Source\PSoC6\pdl\drivers\peripheral\scb/cy_scb_uart.h **** /***************************************
 958:Generated_Source\PSoC6\pdl\drivers\peripheral\scb/cy_scb_uart.h **** *    In-line Function Implementation
 959:Generated_Source\PSoC6\pdl\drivers\peripheral\scb/cy_scb_uart.h **** ***************************************/
 960:Generated_Source\PSoC6\pdl\drivers\peripheral\scb/cy_scb_uart.h **** 
 961:Generated_Source\PSoC6\pdl\drivers\peripheral\scb/cy_scb_uart.h **** /**
 962:Generated_Source\PSoC6\pdl\drivers\peripheral\scb/cy_scb_uart.h **** * \addtogroup group_scb_uart_general_functions
 963:Generated_Source\PSoC6\pdl\drivers\peripheral\scb/cy_scb_uart.h **** * \{
 964:Generated_Source\PSoC6\pdl\drivers\peripheral\scb/cy_scb_uart.h **** */
 965:Generated_Source\PSoC6\pdl\drivers\peripheral\scb/cy_scb_uart.h **** 
 966:Generated_Source\PSoC6\pdl\drivers\peripheral\scb/cy_scb_uart.h **** /*******************************************************************************
 967:Generated_Source\PSoC6\pdl\drivers\peripheral\scb/cy_scb_uart.h **** * Function Name: Cy_SCB_UART_Enable
 968:Generated_Source\PSoC6\pdl\drivers\peripheral\scb/cy_scb_uart.h **** ****************************************************************************//**
 969:Generated_Source\PSoC6\pdl\drivers\peripheral\scb/cy_scb_uart.h **** *
 970:Generated_Source\PSoC6\pdl\drivers\peripheral\scb/cy_scb_uart.h **** * Enables the SCB block for the UART operation.
 971:Generated_Source\PSoC6\pdl\drivers\peripheral\scb/cy_scb_uart.h **** *
 972:Generated_Source\PSoC6\pdl\drivers\peripheral\scb/cy_scb_uart.h **** * \param base
 973:Generated_Source\PSoC6\pdl\drivers\peripheral\scb/cy_scb_uart.h **** * The pointer to the UART SCB instance.
 974:Generated_Source\PSoC6\pdl\drivers\peripheral\scb/cy_scb_uart.h **** *
 975:Generated_Source\PSoC6\pdl\drivers\peripheral\scb/cy_scb_uart.h **** *******************************************************************************/
 976:Generated_Source\PSoC6\pdl\drivers\peripheral\scb/cy_scb_uart.h **** __STATIC_INLINE void Cy_SCB_UART_Enable(CySCB_Type *base)
 977:Generated_Source\PSoC6\pdl\drivers\peripheral\scb/cy_scb_uart.h **** {
 965              		.loc 2 977 0
 966              		.cfi_startproc
ARM GAS  C:\Users\ikomb\AppData\Local\Temp\cctq3ka9.s 			page 65


 967              		@ args = 0, pretend = 0, frame = 8
 968              		@ frame_needed = 1, uses_anonymous_args = 0
 969              		@ link register save eliminated.
 970 0000 80B4     		push	{r7}
 971              		.cfi_def_cfa_offset 4
 972              		.cfi_offset 7, -4
 973 0002 83B0     		sub	sp, sp, #12
 974              		.cfi_def_cfa_offset 16
 975 0004 00AF     		add	r7, sp, #0
 976              		.cfi_def_cfa_register 7
 977 0006 7860     		str	r0, [r7, #4]
 978:Generated_Source\PSoC6\pdl\drivers\peripheral\scb/cy_scb_uart.h ****     base->CTRL |= SCB_CTRL_ENABLED_Msk;
 978              		.loc 2 978 0
 979 0008 7B68     		ldr	r3, [r7, #4]
 980 000a 1B68     		ldr	r3, [r3]
 981 000c 43F00042 		orr	r2, r3, #-2147483648
 982 0010 7B68     		ldr	r3, [r7, #4]
 983 0012 1A60     		str	r2, [r3]
 979:Generated_Source\PSoC6\pdl\drivers\peripheral\scb/cy_scb_uart.h **** }
 984              		.loc 2 979 0
 985 0014 00BF     		nop
 986 0016 0C37     		adds	r7, r7, #12
 987              		.cfi_def_cfa_offset 4
 988 0018 BD46     		mov	sp, r7
 989              		.cfi_def_cfa_register 13
 990              		@ sp needed
 991 001a 5DF8047B 		ldr	r7, [sp], #4
 992              		.cfi_restore 7
 993              		.cfi_def_cfa_offset 0
 994 001e 7047     		bx	lr
 995              		.cfi_endproc
 996              	.LFE210:
 997              		.size	Cy_SCB_UART_Enable, .-Cy_SCB_UART_Enable
 998              		.section	.rodata
 999 0042 0000     		.align	2
 1000              	.LC1:
 1001 0044 47656E65 		.ascii	"Generated_Source\\PSoC6\\pdl\\drivers\\peripheral\\"
 1001      72617465 
 1001      645F536F 
 1001      75726365 
 1001      5C50536F 
 1002 0072 7363625C 		.ascii	"scb\\cy_scb_uart.h\000"
 1002      63795F73 
 1002      63625F75 
 1002      6172742E 
 1002      6800
 1003              		.section	.text.Cy_SCB_UART_GetArray,"ax",%progbits
 1004              		.align	2
 1005              		.thumb
 1006              		.thumb_func
 1007              		.type	Cy_SCB_UART_GetArray, %function
 1008              	Cy_SCB_UART_GetArray:
 1009              	.LFB218:
 980:Generated_Source\PSoC6\pdl\drivers\peripheral\scb/cy_scb_uart.h **** 
 981:Generated_Source\PSoC6\pdl\drivers\peripheral\scb/cy_scb_uart.h **** 
 982:Generated_Source\PSoC6\pdl\drivers\peripheral\scb/cy_scb_uart.h **** /*******************************************************************************
 983:Generated_Source\PSoC6\pdl\drivers\peripheral\scb/cy_scb_uart.h **** * Function Name: Cy_SCB_UART_EnableCts
ARM GAS  C:\Users\ikomb\AppData\Local\Temp\cctq3ka9.s 			page 66


 984:Generated_Source\PSoC6\pdl\drivers\peripheral\scb/cy_scb_uart.h **** ****************************************************************************//**
 985:Generated_Source\PSoC6\pdl\drivers\peripheral\scb/cy_scb_uart.h **** *
 986:Generated_Source\PSoC6\pdl\drivers\peripheral\scb/cy_scb_uart.h **** * Enables the Clear to Send (CTS) input for the UART. The UART will not transmit
 987:Generated_Source\PSoC6\pdl\drivers\peripheral\scb/cy_scb_uart.h **** * data while this signal is inactive.
 988:Generated_Source\PSoC6\pdl\drivers\peripheral\scb/cy_scb_uart.h **** *
 989:Generated_Source\PSoC6\pdl\drivers\peripheral\scb/cy_scb_uart.h **** * \param base
 990:Generated_Source\PSoC6\pdl\drivers\peripheral\scb/cy_scb_uart.h **** * The pointer to the UART SCB instance.
 991:Generated_Source\PSoC6\pdl\drivers\peripheral\scb/cy_scb_uart.h **** *
 992:Generated_Source\PSoC6\pdl\drivers\peripheral\scb/cy_scb_uart.h **** *******************************************************************************/
 993:Generated_Source\PSoC6\pdl\drivers\peripheral\scb/cy_scb_uart.h **** __STATIC_INLINE void Cy_SCB_UART_EnableCts(CySCB_Type *base)
 994:Generated_Source\PSoC6\pdl\drivers\peripheral\scb/cy_scb_uart.h **** {
 995:Generated_Source\PSoC6\pdl\drivers\peripheral\scb/cy_scb_uart.h ****     base->UART_FLOW_CTRL |= SCB_UART_FLOW_CTRL_CTS_ENABLED_Msk;
 996:Generated_Source\PSoC6\pdl\drivers\peripheral\scb/cy_scb_uart.h **** }
 997:Generated_Source\PSoC6\pdl\drivers\peripheral\scb/cy_scb_uart.h **** 
 998:Generated_Source\PSoC6\pdl\drivers\peripheral\scb/cy_scb_uart.h **** 
 999:Generated_Source\PSoC6\pdl\drivers\peripheral\scb/cy_scb_uart.h **** /*******************************************************************************
1000:Generated_Source\PSoC6\pdl\drivers\peripheral\scb/cy_scb_uart.h **** * Function Name: Cy_SCB_UART_DisableCts
1001:Generated_Source\PSoC6\pdl\drivers\peripheral\scb/cy_scb_uart.h **** ****************************************************************************//**
1002:Generated_Source\PSoC6\pdl\drivers\peripheral\scb/cy_scb_uart.h **** *
1003:Generated_Source\PSoC6\pdl\drivers\peripheral\scb/cy_scb_uart.h **** * Disables the Clear to Send (CTS) input for the UART.
1004:Generated_Source\PSoC6\pdl\drivers\peripheral\scb/cy_scb_uart.h **** * See \ref Cy_SCB_UART_EnableCts for the details.
1005:Generated_Source\PSoC6\pdl\drivers\peripheral\scb/cy_scb_uart.h **** *
1006:Generated_Source\PSoC6\pdl\drivers\peripheral\scb/cy_scb_uart.h **** * \param base
1007:Generated_Source\PSoC6\pdl\drivers\peripheral\scb/cy_scb_uart.h **** * The pointer to the UART SCB instance.
1008:Generated_Source\PSoC6\pdl\drivers\peripheral\scb/cy_scb_uart.h **** *
1009:Generated_Source\PSoC6\pdl\drivers\peripheral\scb/cy_scb_uart.h **** *******************************************************************************/
1010:Generated_Source\PSoC6\pdl\drivers\peripheral\scb/cy_scb_uart.h **** __STATIC_INLINE void Cy_SCB_UART_DisableCts(CySCB_Type *base)
1011:Generated_Source\PSoC6\pdl\drivers\peripheral\scb/cy_scb_uart.h **** {
1012:Generated_Source\PSoC6\pdl\drivers\peripheral\scb/cy_scb_uart.h ****     base->UART_FLOW_CTRL &= (uint32_t) ~SCB_UART_FLOW_CTRL_CTS_ENABLED_Msk;
1013:Generated_Source\PSoC6\pdl\drivers\peripheral\scb/cy_scb_uart.h **** }
1014:Generated_Source\PSoC6\pdl\drivers\peripheral\scb/cy_scb_uart.h **** 
1015:Generated_Source\PSoC6\pdl\drivers\peripheral\scb/cy_scb_uart.h **** 
1016:Generated_Source\PSoC6\pdl\drivers\peripheral\scb/cy_scb_uart.h **** /*******************************************************************************
1017:Generated_Source\PSoC6\pdl\drivers\peripheral\scb/cy_scb_uart.h **** * Function Name: Cy_SCB_UART_SetRtsFifoLevel
1018:Generated_Source\PSoC6\pdl\drivers\peripheral\scb/cy_scb_uart.h **** ****************************************************************************//**
1019:Generated_Source\PSoC6\pdl\drivers\peripheral\scb/cy_scb_uart.h **** *
1020:Generated_Source\PSoC6\pdl\drivers\peripheral\scb/cy_scb_uart.h **** * Sets a level for the Ready To Send (RTS) signal activation.
1021:Generated_Source\PSoC6\pdl\drivers\peripheral\scb/cy_scb_uart.h **** * When the number of data elements in the receive FIFO is below this level,
1022:Generated_Source\PSoC6\pdl\drivers\peripheral\scb/cy_scb_uart.h **** * then the RTS output is active. Otherwise, the RTS signal is inactive.
1023:Generated_Source\PSoC6\pdl\drivers\peripheral\scb/cy_scb_uart.h **** * To disable the RTS signal generation, set this level to zero.
1024:Generated_Source\PSoC6\pdl\drivers\peripheral\scb/cy_scb_uart.h **** *
1025:Generated_Source\PSoC6\pdl\drivers\peripheral\scb/cy_scb_uart.h **** * \param base
1026:Generated_Source\PSoC6\pdl\drivers\peripheral\scb/cy_scb_uart.h **** * The pointer to the UART SCB instance.
1027:Generated_Source\PSoC6\pdl\drivers\peripheral\scb/cy_scb_uart.h **** *
1028:Generated_Source\PSoC6\pdl\drivers\peripheral\scb/cy_scb_uart.h **** * \param level
1029:Generated_Source\PSoC6\pdl\drivers\peripheral\scb/cy_scb_uart.h **** * The level in the RX FIFO for RTS signal activation.
1030:Generated_Source\PSoC6\pdl\drivers\peripheral\scb/cy_scb_uart.h **** *
1031:Generated_Source\PSoC6\pdl\drivers\peripheral\scb/cy_scb_uart.h **** *******************************************************************************/
1032:Generated_Source\PSoC6\pdl\drivers\peripheral\scb/cy_scb_uart.h **** __STATIC_INLINE void Cy_SCB_UART_SetRtsFifoLevel(CySCB_Type *base, uint32_t level)
1033:Generated_Source\PSoC6\pdl\drivers\peripheral\scb/cy_scb_uart.h **** {
1034:Generated_Source\PSoC6\pdl\drivers\peripheral\scb/cy_scb_uart.h ****     CY_ASSERT_L2(CY_SCB_IS_TRIGGER_LEVEL_VALID(base, level));
1035:Generated_Source\PSoC6\pdl\drivers\peripheral\scb/cy_scb_uart.h **** 
1036:Generated_Source\PSoC6\pdl\drivers\peripheral\scb/cy_scb_uart.h ****     base->UART_FLOW_CTRL = _CLR_SET_FLD32U(base->UART_FLOW_CTRL, SCB_UART_FLOW_CTRL_TRIGGER_LEVEL, 
1037:Generated_Source\PSoC6\pdl\drivers\peripheral\scb/cy_scb_uart.h **** }
1038:Generated_Source\PSoC6\pdl\drivers\peripheral\scb/cy_scb_uart.h **** 
1039:Generated_Source\PSoC6\pdl\drivers\peripheral\scb/cy_scb_uart.h **** 
1040:Generated_Source\PSoC6\pdl\drivers\peripheral\scb/cy_scb_uart.h **** /*******************************************************************************
ARM GAS  C:\Users\ikomb\AppData\Local\Temp\cctq3ka9.s 			page 67


1041:Generated_Source\PSoC6\pdl\drivers\peripheral\scb/cy_scb_uart.h **** * Function Name: Cy_SCB_UART_GetRtsFifoLevel
1042:Generated_Source\PSoC6\pdl\drivers\peripheral\scb/cy_scb_uart.h **** ****************************************************************************//**
1043:Generated_Source\PSoC6\pdl\drivers\peripheral\scb/cy_scb_uart.h **** *
1044:Generated_Source\PSoC6\pdl\drivers\peripheral\scb/cy_scb_uart.h **** * Returns the level in the RX FIFO for the RTS signal activation.
1045:Generated_Source\PSoC6\pdl\drivers\peripheral\scb/cy_scb_uart.h **** *
1046:Generated_Source\PSoC6\pdl\drivers\peripheral\scb/cy_scb_uart.h **** * \param base
1047:Generated_Source\PSoC6\pdl\drivers\peripheral\scb/cy_scb_uart.h **** * The pointer to the UART SCB instance.
1048:Generated_Source\PSoC6\pdl\drivers\peripheral\scb/cy_scb_uart.h **** *
1049:Generated_Source\PSoC6\pdl\drivers\peripheral\scb/cy_scb_uart.h **** * \return
1050:Generated_Source\PSoC6\pdl\drivers\peripheral\scb/cy_scb_uart.h **** * The level in the RX FIFO for RTS signal activation.
1051:Generated_Source\PSoC6\pdl\drivers\peripheral\scb/cy_scb_uart.h **** *
1052:Generated_Source\PSoC6\pdl\drivers\peripheral\scb/cy_scb_uart.h **** *******************************************************************************/
1053:Generated_Source\PSoC6\pdl\drivers\peripheral\scb/cy_scb_uart.h **** __STATIC_INLINE uint32_t Cy_SCB_UART_GetRtsFifoLevel(CySCB_Type const *base)
1054:Generated_Source\PSoC6\pdl\drivers\peripheral\scb/cy_scb_uart.h **** {
1055:Generated_Source\PSoC6\pdl\drivers\peripheral\scb/cy_scb_uart.h ****     return _FLD2VAL(SCB_UART_FLOW_CTRL_TRIGGER_LEVEL, base->UART_FLOW_CTRL);
1056:Generated_Source\PSoC6\pdl\drivers\peripheral\scb/cy_scb_uart.h **** }
1057:Generated_Source\PSoC6\pdl\drivers\peripheral\scb/cy_scb_uart.h **** 
1058:Generated_Source\PSoC6\pdl\drivers\peripheral\scb/cy_scb_uart.h **** 
1059:Generated_Source\PSoC6\pdl\drivers\peripheral\scb/cy_scb_uart.h **** /*******************************************************************************
1060:Generated_Source\PSoC6\pdl\drivers\peripheral\scb/cy_scb_uart.h **** * Function Name: Cy_SCB_UART_EnableSkipStart
1061:Generated_Source\PSoC6\pdl\drivers\peripheral\scb/cy_scb_uart.h **** ****************************************************************************//**
1062:Generated_Source\PSoC6\pdl\drivers\peripheral\scb/cy_scb_uart.h **** *
1063:Generated_Source\PSoC6\pdl\drivers\peripheral\scb/cy_scb_uart.h **** * Enables the skip start-bit functionality.
1064:Generated_Source\PSoC6\pdl\drivers\peripheral\scb/cy_scb_uart.h **** * The UART hardware does not synchronize to a start but synchronizes to
1065:Generated_Source\PSoC6\pdl\drivers\peripheral\scb/cy_scb_uart.h **** * the first rising edge. To create a rising edge, the first data bit must
1066:Generated_Source\PSoC6\pdl\drivers\peripheral\scb/cy_scb_uart.h **** * be a 1. This feature is useful when the Start edge is used to wake the
1067:Generated_Source\PSoC6\pdl\drivers\peripheral\scb/cy_scb_uart.h **** * device through a GPIO interrupt.
1068:Generated_Source\PSoC6\pdl\drivers\peripheral\scb/cy_scb_uart.h **** *
1069:Generated_Source\PSoC6\pdl\drivers\peripheral\scb/cy_scb_uart.h **** * \param base
1070:Generated_Source\PSoC6\pdl\drivers\peripheral\scb/cy_scb_uart.h **** * The pointer to the UART SCB instance.
1071:Generated_Source\PSoC6\pdl\drivers\peripheral\scb/cy_scb_uart.h **** *
1072:Generated_Source\PSoC6\pdl\drivers\peripheral\scb/cy_scb_uart.h **** * \note
1073:Generated_Source\PSoC6\pdl\drivers\peripheral\scb/cy_scb_uart.h **** * The skip start-bit feature is applied whenever the UART is disabled due
1074:Generated_Source\PSoC6\pdl\drivers\peripheral\scb/cy_scb_uart.h **** * to entrance into Deep Sleep or after calling \ref Cy_SCB_UART_Disable.
1075:Generated_Source\PSoC6\pdl\drivers\peripheral\scb/cy_scb_uart.h **** *
1076:Generated_Source\PSoC6\pdl\drivers\peripheral\scb/cy_scb_uart.h **** *******************************************************************************/
1077:Generated_Source\PSoC6\pdl\drivers\peripheral\scb/cy_scb_uart.h **** __STATIC_INLINE void Cy_SCB_UART_EnableSkipStart(CySCB_Type *base)
1078:Generated_Source\PSoC6\pdl\drivers\peripheral\scb/cy_scb_uart.h **** {
1079:Generated_Source\PSoC6\pdl\drivers\peripheral\scb/cy_scb_uart.h ****     base->UART_RX_CTRL |= SCB_UART_RX_CTRL_SKIP_START_Msk;
1080:Generated_Source\PSoC6\pdl\drivers\peripheral\scb/cy_scb_uart.h **** }
1081:Generated_Source\PSoC6\pdl\drivers\peripheral\scb/cy_scb_uart.h **** 
1082:Generated_Source\PSoC6\pdl\drivers\peripheral\scb/cy_scb_uart.h **** 
1083:Generated_Source\PSoC6\pdl\drivers\peripheral\scb/cy_scb_uart.h **** /*******************************************************************************
1084:Generated_Source\PSoC6\pdl\drivers\peripheral\scb/cy_scb_uart.h **** * Function Name: Cy_SCB_UART_DisableSkipStart
1085:Generated_Source\PSoC6\pdl\drivers\peripheral\scb/cy_scb_uart.h **** ****************************************************************************//**
1086:Generated_Source\PSoC6\pdl\drivers\peripheral\scb/cy_scb_uart.h **** *
1087:Generated_Source\PSoC6\pdl\drivers\peripheral\scb/cy_scb_uart.h **** * Disable the skip start-bit functionality.
1088:Generated_Source\PSoC6\pdl\drivers\peripheral\scb/cy_scb_uart.h **** * See \ref Cy_SCB_UART_EnableSkipStart for the details.
1089:Generated_Source\PSoC6\pdl\drivers\peripheral\scb/cy_scb_uart.h **** *
1090:Generated_Source\PSoC6\pdl\drivers\peripheral\scb/cy_scb_uart.h **** * \param base
1091:Generated_Source\PSoC6\pdl\drivers\peripheral\scb/cy_scb_uart.h **** * The pointer to the UART SCB instance.
1092:Generated_Source\PSoC6\pdl\drivers\peripheral\scb/cy_scb_uart.h **** *
1093:Generated_Source\PSoC6\pdl\drivers\peripheral\scb/cy_scb_uart.h **** *******************************************************************************/
1094:Generated_Source\PSoC6\pdl\drivers\peripheral\scb/cy_scb_uart.h **** __STATIC_INLINE void Cy_SCB_UART_DisableSkipStart(CySCB_Type *base)
1095:Generated_Source\PSoC6\pdl\drivers\peripheral\scb/cy_scb_uart.h **** {
1096:Generated_Source\PSoC6\pdl\drivers\peripheral\scb/cy_scb_uart.h ****     base->UART_RX_CTRL &= (uint32_t) ~SCB_UART_RX_CTRL_SKIP_START_Msk;
1097:Generated_Source\PSoC6\pdl\drivers\peripheral\scb/cy_scb_uart.h **** }
ARM GAS  C:\Users\ikomb\AppData\Local\Temp\cctq3ka9.s 			page 68


1098:Generated_Source\PSoC6\pdl\drivers\peripheral\scb/cy_scb_uart.h **** /** \} group_scb_uart_general_functions */
1099:Generated_Source\PSoC6\pdl\drivers\peripheral\scb/cy_scb_uart.h **** 
1100:Generated_Source\PSoC6\pdl\drivers\peripheral\scb/cy_scb_uart.h **** 
1101:Generated_Source\PSoC6\pdl\drivers\peripheral\scb/cy_scb_uart.h **** /**
1102:Generated_Source\PSoC6\pdl\drivers\peripheral\scb/cy_scb_uart.h **** * \addtogroup group_scb_uart_low_level_functions
1103:Generated_Source\PSoC6\pdl\drivers\peripheral\scb/cy_scb_uart.h **** * \{
1104:Generated_Source\PSoC6\pdl\drivers\peripheral\scb/cy_scb_uart.h **** */
1105:Generated_Source\PSoC6\pdl\drivers\peripheral\scb/cy_scb_uart.h **** /*******************************************************************************
1106:Generated_Source\PSoC6\pdl\drivers\peripheral\scb/cy_scb_uart.h **** * Function Name: Cy_SCB_UART_Get
1107:Generated_Source\PSoC6\pdl\drivers\peripheral\scb/cy_scb_uart.h **** ****************************************************************************//**
1108:Generated_Source\PSoC6\pdl\drivers\peripheral\scb/cy_scb_uart.h **** *
1109:Generated_Source\PSoC6\pdl\drivers\peripheral\scb/cy_scb_uart.h **** * Reads a single data element from the UART RX FIFO.
1110:Generated_Source\PSoC6\pdl\drivers\peripheral\scb/cy_scb_uart.h **** * This function does not check whether the RX FIFO has data before reading it.
1111:Generated_Source\PSoC6\pdl\drivers\peripheral\scb/cy_scb_uart.h **** * If the RX FIFO is empty, the function returns \ref CY_SCB_UART_RX_NO_DATA.
1112:Generated_Source\PSoC6\pdl\drivers\peripheral\scb/cy_scb_uart.h **** *
1113:Generated_Source\PSoC6\pdl\drivers\peripheral\scb/cy_scb_uart.h **** * \param base
1114:Generated_Source\PSoC6\pdl\drivers\peripheral\scb/cy_scb_uart.h **** * The pointer to the UART SCB instance.
1115:Generated_Source\PSoC6\pdl\drivers\peripheral\scb/cy_scb_uart.h **** *
1116:Generated_Source\PSoC6\pdl\drivers\peripheral\scb/cy_scb_uart.h **** * \return
1117:Generated_Source\PSoC6\pdl\drivers\peripheral\scb/cy_scb_uart.h **** * Data from the RX FIFO.
1118:Generated_Source\PSoC6\pdl\drivers\peripheral\scb/cy_scb_uart.h **** * The data element size is defined by the configured data width.
1119:Generated_Source\PSoC6\pdl\drivers\peripheral\scb/cy_scb_uart.h **** *
1120:Generated_Source\PSoC6\pdl\drivers\peripheral\scb/cy_scb_uart.h **** *******************************************************************************/
1121:Generated_Source\PSoC6\pdl\drivers\peripheral\scb/cy_scb_uart.h **** __STATIC_INLINE uint32_t Cy_SCB_UART_Get(CySCB_Type const *base)
1122:Generated_Source\PSoC6\pdl\drivers\peripheral\scb/cy_scb_uart.h **** {
1123:Generated_Source\PSoC6\pdl\drivers\peripheral\scb/cy_scb_uart.h ****     return Cy_SCB_ReadRxFifo(base);
1124:Generated_Source\PSoC6\pdl\drivers\peripheral\scb/cy_scb_uart.h **** }
1125:Generated_Source\PSoC6\pdl\drivers\peripheral\scb/cy_scb_uart.h **** 
1126:Generated_Source\PSoC6\pdl\drivers\peripheral\scb/cy_scb_uart.h **** 
1127:Generated_Source\PSoC6\pdl\drivers\peripheral\scb/cy_scb_uart.h **** /*******************************************************************************
1128:Generated_Source\PSoC6\pdl\drivers\peripheral\scb/cy_scb_uart.h **** * Function Name: Cy_SCB_UART_GetArray
1129:Generated_Source\PSoC6\pdl\drivers\peripheral\scb/cy_scb_uart.h **** ****************************************************************************//**
1130:Generated_Source\PSoC6\pdl\drivers\peripheral\scb/cy_scb_uart.h **** *
1131:Generated_Source\PSoC6\pdl\drivers\peripheral\scb/cy_scb_uart.h **** * Reads an array of data out of the UART RX FIFO.
1132:Generated_Source\PSoC6\pdl\drivers\peripheral\scb/cy_scb_uart.h **** * This function does not block. It returns how many data elements were read
1133:Generated_Source\PSoC6\pdl\drivers\peripheral\scb/cy_scb_uart.h **** * from the RX FIFO.
1134:Generated_Source\PSoC6\pdl\drivers\peripheral\scb/cy_scb_uart.h **** *
1135:Generated_Source\PSoC6\pdl\drivers\peripheral\scb/cy_scb_uart.h **** * \param base
1136:Generated_Source\PSoC6\pdl\drivers\peripheral\scb/cy_scb_uart.h **** * The pointer to the UART SCB instance.
1137:Generated_Source\PSoC6\pdl\drivers\peripheral\scb/cy_scb_uart.h **** *
1138:Generated_Source\PSoC6\pdl\drivers\peripheral\scb/cy_scb_uart.h **** * \param buffer
1139:Generated_Source\PSoC6\pdl\drivers\peripheral\scb/cy_scb_uart.h **** * The pointer to the location to place the data read from the RX FIFO.
1140:Generated_Source\PSoC6\pdl\drivers\peripheral\scb/cy_scb_uart.h **** * The item size is defined by the data type, which depends on the configured
1141:Generated_Source\PSoC6\pdl\drivers\peripheral\scb/cy_scb_uart.h **** * data width.
1142:Generated_Source\PSoC6\pdl\drivers\peripheral\scb/cy_scb_uart.h **** *
1143:Generated_Source\PSoC6\pdl\drivers\peripheral\scb/cy_scb_uart.h **** * \param size
1144:Generated_Source\PSoC6\pdl\drivers\peripheral\scb/cy_scb_uart.h **** * The number of data elements to read from the RX FIFO.
1145:Generated_Source\PSoC6\pdl\drivers\peripheral\scb/cy_scb_uart.h **** *
1146:Generated_Source\PSoC6\pdl\drivers\peripheral\scb/cy_scb_uart.h **** * \return
1147:Generated_Source\PSoC6\pdl\drivers\peripheral\scb/cy_scb_uart.h **** * The number of data elements read from the RX FIFO.
1148:Generated_Source\PSoC6\pdl\drivers\peripheral\scb/cy_scb_uart.h **** *
1149:Generated_Source\PSoC6\pdl\drivers\peripheral\scb/cy_scb_uart.h **** *******************************************************************************/
1150:Generated_Source\PSoC6\pdl\drivers\peripheral\scb/cy_scb_uart.h **** __STATIC_INLINE uint32_t Cy_SCB_UART_GetArray(CySCB_Type const *base, void *buffer, uint32_t size)
1151:Generated_Source\PSoC6\pdl\drivers\peripheral\scb/cy_scb_uart.h **** {
 1010              		.loc 2 1151 0
 1011              		.cfi_startproc
 1012              		@ args = 0, pretend = 0, frame = 16
ARM GAS  C:\Users\ikomb\AppData\Local\Temp\cctq3ka9.s 			page 69


 1013              		@ frame_needed = 1, uses_anonymous_args = 0
 1014 0000 80B5     		push	{r7, lr}
 1015              		.cfi_def_cfa_offset 8
 1016              		.cfi_offset 7, -8
 1017              		.cfi_offset 14, -4
 1018 0002 84B0     		sub	sp, sp, #16
 1019              		.cfi_def_cfa_offset 24
 1020 0004 00AF     		add	r7, sp, #0
 1021              		.cfi_def_cfa_register 7
 1022 0006 F860     		str	r0, [r7, #12]
 1023 0008 B960     		str	r1, [r7, #8]
 1024 000a 7A60     		str	r2, [r7, #4]
1152:Generated_Source\PSoC6\pdl\drivers\peripheral\scb/cy_scb_uart.h ****     CY_ASSERT_L1(CY_SCB_IS_BUFFER_VALID(buffer, size));
 1025              		.loc 2 1152 0
 1026 000c BB68     		ldr	r3, [r7, #8]
 1027 000e 002B     		cmp	r3, #0
 1028 0010 02D0     		beq	.L57
 1029              		.loc 2 1152 0 is_stmt 0 discriminator 2
 1030 0012 7B68     		ldr	r3, [r7, #4]
 1031 0014 002B     		cmp	r3, #0
 1032 0016 04D1     		bne	.L58
 1033              	.L57:
 1034              		.loc 2 1152 0 discriminator 3
 1035 0018 4FF49061 		mov	r1, #1152
 1036 001c 0648     		ldr	r0, .L60
 1037 001e FFF7FEFF 		bl	Cy_SysLib_AssertFailed
 1038              	.L58:
1153:Generated_Source\PSoC6\pdl\drivers\peripheral\scb/cy_scb_uart.h **** 
1154:Generated_Source\PSoC6\pdl\drivers\peripheral\scb/cy_scb_uart.h ****     return Cy_SCB_ReadArray(base, buffer, size);
 1039              		.loc 2 1154 0 is_stmt 1
 1040 0022 7A68     		ldr	r2, [r7, #4]
 1041 0024 B968     		ldr	r1, [r7, #8]
 1042 0026 F868     		ldr	r0, [r7, #12]
 1043 0028 FFF7FEFF 		bl	Cy_SCB_ReadArray
 1044 002c 0346     		mov	r3, r0
1155:Generated_Source\PSoC6\pdl\drivers\peripheral\scb/cy_scb_uart.h **** }
 1045              		.loc 2 1155 0
 1046 002e 1846     		mov	r0, r3
 1047 0030 1037     		adds	r7, r7, #16
 1048              		.cfi_def_cfa_offset 8
 1049 0032 BD46     		mov	sp, r7
 1050              		.cfi_def_cfa_register 13
 1051              		@ sp needed
 1052 0034 80BD     		pop	{r7, pc}
 1053              	.L61:
 1054 0036 00BF     		.align	2
 1055              	.L60:
 1056 0038 44000000 		.word	.LC1
 1057              		.cfi_endproc
 1058              	.LFE218:
 1059              		.size	Cy_SCB_UART_GetArray, .-Cy_SCB_UART_GetArray
 1060              		.section	.text.Cy_SCB_UART_GetNumInRxFifo,"ax",%progbits
 1061              		.align	2
 1062              		.thumb
 1063              		.thumb_func
 1064              		.type	Cy_SCB_UART_GetNumInRxFifo, %function
 1065              	Cy_SCB_UART_GetNumInRxFifo:
ARM GAS  C:\Users\ikomb\AppData\Local\Temp\cctq3ka9.s 			page 70


 1066              	.LFB222:
1156:Generated_Source\PSoC6\pdl\drivers\peripheral\scb/cy_scb_uart.h **** 
1157:Generated_Source\PSoC6\pdl\drivers\peripheral\scb/cy_scb_uart.h **** 
1158:Generated_Source\PSoC6\pdl\drivers\peripheral\scb/cy_scb_uart.h **** /*******************************************************************************
1159:Generated_Source\PSoC6\pdl\drivers\peripheral\scb/cy_scb_uart.h **** * Function Name: Cy_SCB_UART_GetArrayBlocking
1160:Generated_Source\PSoC6\pdl\drivers\peripheral\scb/cy_scb_uart.h **** ****************************************************************************//**
1161:Generated_Source\PSoC6\pdl\drivers\peripheral\scb/cy_scb_uart.h **** *
1162:Generated_Source\PSoC6\pdl\drivers\peripheral\scb/cy_scb_uart.h **** * Reads an array of data out of the UART RX FIFO.
1163:Generated_Source\PSoC6\pdl\drivers\peripheral\scb/cy_scb_uart.h **** * This function blocks until the number of data elements specified by the
1164:Generated_Source\PSoC6\pdl\drivers\peripheral\scb/cy_scb_uart.h **** * size has been read from the RX FIFO.
1165:Generated_Source\PSoC6\pdl\drivers\peripheral\scb/cy_scb_uart.h **** *
1166:Generated_Source\PSoC6\pdl\drivers\peripheral\scb/cy_scb_uart.h **** * \param base
1167:Generated_Source\PSoC6\pdl\drivers\peripheral\scb/cy_scb_uart.h **** * The pointer to the UART SCB instance.
1168:Generated_Source\PSoC6\pdl\drivers\peripheral\scb/cy_scb_uart.h **** *
1169:Generated_Source\PSoC6\pdl\drivers\peripheral\scb/cy_scb_uart.h **** * \param buffer
1170:Generated_Source\PSoC6\pdl\drivers\peripheral\scb/cy_scb_uart.h **** * The pointer to the location to place the data read from the RX FIFO.
1171:Generated_Source\PSoC6\pdl\drivers\peripheral\scb/cy_scb_uart.h **** * The item size is defined by the data type, which depends on the configured
1172:Generated_Source\PSoC6\pdl\drivers\peripheral\scb/cy_scb_uart.h **** * data width.
1173:Generated_Source\PSoC6\pdl\drivers\peripheral\scb/cy_scb_uart.h **** *
1174:Generated_Source\PSoC6\pdl\drivers\peripheral\scb/cy_scb_uart.h **** * \param size
1175:Generated_Source\PSoC6\pdl\drivers\peripheral\scb/cy_scb_uart.h **** * The number of data elements to read from the RX FIFO.
1176:Generated_Source\PSoC6\pdl\drivers\peripheral\scb/cy_scb_uart.h **** *
1177:Generated_Source\PSoC6\pdl\drivers\peripheral\scb/cy_scb_uart.h **** *******************************************************************************/
1178:Generated_Source\PSoC6\pdl\drivers\peripheral\scb/cy_scb_uart.h **** __STATIC_INLINE void Cy_SCB_UART_GetArrayBlocking(CySCB_Type const *base, void *buffer, uint32_t si
1179:Generated_Source\PSoC6\pdl\drivers\peripheral\scb/cy_scb_uart.h **** {
1180:Generated_Source\PSoC6\pdl\drivers\peripheral\scb/cy_scb_uart.h ****     CY_ASSERT_L1(CY_SCB_IS_BUFFER_VALID(buffer, size));
1181:Generated_Source\PSoC6\pdl\drivers\peripheral\scb/cy_scb_uart.h **** 
1182:Generated_Source\PSoC6\pdl\drivers\peripheral\scb/cy_scb_uart.h ****     Cy_SCB_ReadArrayBlocking(base, buffer, size);
1183:Generated_Source\PSoC6\pdl\drivers\peripheral\scb/cy_scb_uart.h **** }
1184:Generated_Source\PSoC6\pdl\drivers\peripheral\scb/cy_scb_uart.h **** 
1185:Generated_Source\PSoC6\pdl\drivers\peripheral\scb/cy_scb_uart.h **** 
1186:Generated_Source\PSoC6\pdl\drivers\peripheral\scb/cy_scb_uart.h **** /*******************************************************************************
1187:Generated_Source\PSoC6\pdl\drivers\peripheral\scb/cy_scb_uart.h **** * Function Name: Cy_SCB_UART_GetRxFifoStatus
1188:Generated_Source\PSoC6\pdl\drivers\peripheral\scb/cy_scb_uart.h **** ****************************************************************************//**
1189:Generated_Source\PSoC6\pdl\drivers\peripheral\scb/cy_scb_uart.h **** *
1190:Generated_Source\PSoC6\pdl\drivers\peripheral\scb/cy_scb_uart.h **** * Returns the current status of the RX FIFO.
1191:Generated_Source\PSoC6\pdl\drivers\peripheral\scb/cy_scb_uart.h **** * Clears the active statuses to let the SCB hardware update them.
1192:Generated_Source\PSoC6\pdl\drivers\peripheral\scb/cy_scb_uart.h **** *
1193:Generated_Source\PSoC6\pdl\drivers\peripheral\scb/cy_scb_uart.h **** * \param base
1194:Generated_Source\PSoC6\pdl\drivers\peripheral\scb/cy_scb_uart.h **** * The pointer to the UART SCB instance.
1195:Generated_Source\PSoC6\pdl\drivers\peripheral\scb/cy_scb_uart.h **** *
1196:Generated_Source\PSoC6\pdl\drivers\peripheral\scb/cy_scb_uart.h **** * \return
1197:Generated_Source\PSoC6\pdl\drivers\peripheral\scb/cy_scb_uart.h **** * \ref group_scb_uart_macros_rx_fifo_status
1198:Generated_Source\PSoC6\pdl\drivers\peripheral\scb/cy_scb_uart.h **** *
1199:Generated_Source\PSoC6\pdl\drivers\peripheral\scb/cy_scb_uart.h **** *******************************************************************************/
1200:Generated_Source\PSoC6\pdl\drivers\peripheral\scb/cy_scb_uart.h **** __STATIC_INLINE uint32_t Cy_SCB_UART_GetRxFifoStatus(CySCB_Type const *base)
1201:Generated_Source\PSoC6\pdl\drivers\peripheral\scb/cy_scb_uart.h **** {
1202:Generated_Source\PSoC6\pdl\drivers\peripheral\scb/cy_scb_uart.h ****     return (Cy_SCB_GetRxInterruptStatus(base) & CY_SCB_UART_RX_INTR_MASK);
1203:Generated_Source\PSoC6\pdl\drivers\peripheral\scb/cy_scb_uart.h **** }
1204:Generated_Source\PSoC6\pdl\drivers\peripheral\scb/cy_scb_uart.h **** 
1205:Generated_Source\PSoC6\pdl\drivers\peripheral\scb/cy_scb_uart.h **** 
1206:Generated_Source\PSoC6\pdl\drivers\peripheral\scb/cy_scb_uart.h **** /*******************************************************************************
1207:Generated_Source\PSoC6\pdl\drivers\peripheral\scb/cy_scb_uart.h **** * Function Name: Cy_SCB_UART_ClearRxFifoStatus
1208:Generated_Source\PSoC6\pdl\drivers\peripheral\scb/cy_scb_uart.h **** ****************************************************************************//**
1209:Generated_Source\PSoC6\pdl\drivers\peripheral\scb/cy_scb_uart.h **** *
1210:Generated_Source\PSoC6\pdl\drivers\peripheral\scb/cy_scb_uart.h **** * Clears the selected statuses of the RX FIFO.
1211:Generated_Source\PSoC6\pdl\drivers\peripheral\scb/cy_scb_uart.h **** *
ARM GAS  C:\Users\ikomb\AppData\Local\Temp\cctq3ka9.s 			page 71


1212:Generated_Source\PSoC6\pdl\drivers\peripheral\scb/cy_scb_uart.h **** * \param base
1213:Generated_Source\PSoC6\pdl\drivers\peripheral\scb/cy_scb_uart.h **** * The pointer to the UART SCB instance.
1214:Generated_Source\PSoC6\pdl\drivers\peripheral\scb/cy_scb_uart.h **** *
1215:Generated_Source\PSoC6\pdl\drivers\peripheral\scb/cy_scb_uart.h **** * \param clearMask
1216:Generated_Source\PSoC6\pdl\drivers\peripheral\scb/cy_scb_uart.h **** * The mask whose statuses to clear.
1217:Generated_Source\PSoC6\pdl\drivers\peripheral\scb/cy_scb_uart.h **** * See \ref group_scb_uart_macros_rx_fifo_status for the set of constants.
1218:Generated_Source\PSoC6\pdl\drivers\peripheral\scb/cy_scb_uart.h **** *
1219:Generated_Source\PSoC6\pdl\drivers\peripheral\scb/cy_scb_uart.h **** * \note
1220:Generated_Source\PSoC6\pdl\drivers\peripheral\scb/cy_scb_uart.h **** * * This status is also used for interrupt generation, so clearing it also
1221:Generated_Source\PSoC6\pdl\drivers\peripheral\scb/cy_scb_uart.h **** *   clears the interrupt sources.
1222:Generated_Source\PSoC6\pdl\drivers\peripheral\scb/cy_scb_uart.h **** * * Level-sensitive statuses such as \ref CY_SCB_UART_RX_TRIGGER,
1223:Generated_Source\PSoC6\pdl\drivers\peripheral\scb/cy_scb_uart.h **** *   \ref CY_SCB_UART_RX_NOT_EMPTY and \ref CY_SCB_UART_RX_FULL are set high again after
1224:Generated_Source\PSoC6\pdl\drivers\peripheral\scb/cy_scb_uart.h **** *   being cleared if the condition remains true.
1225:Generated_Source\PSoC6\pdl\drivers\peripheral\scb/cy_scb_uart.h **** *
1226:Generated_Source\PSoC6\pdl\drivers\peripheral\scb/cy_scb_uart.h **** *******************************************************************************/
1227:Generated_Source\PSoC6\pdl\drivers\peripheral\scb/cy_scb_uart.h **** __STATIC_INLINE void Cy_SCB_UART_ClearRxFifoStatus(CySCB_Type *base, uint32_t clearMask)
1228:Generated_Source\PSoC6\pdl\drivers\peripheral\scb/cy_scb_uart.h **** {
1229:Generated_Source\PSoC6\pdl\drivers\peripheral\scb/cy_scb_uart.h ****     CY_ASSERT_L2(CY_SCB_IS_INTR_VALID(clearMask, CY_SCB_UART_RX_INTR_MASK));
1230:Generated_Source\PSoC6\pdl\drivers\peripheral\scb/cy_scb_uart.h **** 
1231:Generated_Source\PSoC6\pdl\drivers\peripheral\scb/cy_scb_uart.h ****     Cy_SCB_ClearRxInterrupt(base, clearMask);
1232:Generated_Source\PSoC6\pdl\drivers\peripheral\scb/cy_scb_uart.h **** }
1233:Generated_Source\PSoC6\pdl\drivers\peripheral\scb/cy_scb_uart.h **** 
1234:Generated_Source\PSoC6\pdl\drivers\peripheral\scb/cy_scb_uart.h **** 
1235:Generated_Source\PSoC6\pdl\drivers\peripheral\scb/cy_scb_uart.h **** /*******************************************************************************
1236:Generated_Source\PSoC6\pdl\drivers\peripheral\scb/cy_scb_uart.h **** * Function Name: Cy_SCB_UART_GetNumInRxFifo
1237:Generated_Source\PSoC6\pdl\drivers\peripheral\scb/cy_scb_uart.h **** ****************************************************************************//**
1238:Generated_Source\PSoC6\pdl\drivers\peripheral\scb/cy_scb_uart.h **** *
1239:Generated_Source\PSoC6\pdl\drivers\peripheral\scb/cy_scb_uart.h **** * Returns the number of data elements in the UART RX FIFO.
1240:Generated_Source\PSoC6\pdl\drivers\peripheral\scb/cy_scb_uart.h **** *
1241:Generated_Source\PSoC6\pdl\drivers\peripheral\scb/cy_scb_uart.h **** * \param base
1242:Generated_Source\PSoC6\pdl\drivers\peripheral\scb/cy_scb_uart.h **** * The pointer to the UART SCB instance.
1243:Generated_Source\PSoC6\pdl\drivers\peripheral\scb/cy_scb_uart.h **** *
1244:Generated_Source\PSoC6\pdl\drivers\peripheral\scb/cy_scb_uart.h **** * \return
1245:Generated_Source\PSoC6\pdl\drivers\peripheral\scb/cy_scb_uart.h **** * The number of data elements in the RX FIFO.
1246:Generated_Source\PSoC6\pdl\drivers\peripheral\scb/cy_scb_uart.h **** * The size of date element defined by the configured data width.
1247:Generated_Source\PSoC6\pdl\drivers\peripheral\scb/cy_scb_uart.h **** *
1248:Generated_Source\PSoC6\pdl\drivers\peripheral\scb/cy_scb_uart.h **** *******************************************************************************/
1249:Generated_Source\PSoC6\pdl\drivers\peripheral\scb/cy_scb_uart.h **** __STATIC_INLINE uint32_t Cy_SCB_UART_GetNumInRxFifo(CySCB_Type const *base)
1250:Generated_Source\PSoC6\pdl\drivers\peripheral\scb/cy_scb_uart.h **** {
 1067              		.loc 2 1250 0
 1068              		.cfi_startproc
 1069              		@ args = 0, pretend = 0, frame = 8
 1070              		@ frame_needed = 1, uses_anonymous_args = 0
 1071 0000 80B5     		push	{r7, lr}
 1072              		.cfi_def_cfa_offset 8
 1073              		.cfi_offset 7, -8
 1074              		.cfi_offset 14, -4
 1075 0002 82B0     		sub	sp, sp, #8
 1076              		.cfi_def_cfa_offset 16
 1077 0004 00AF     		add	r7, sp, #0
 1078              		.cfi_def_cfa_register 7
 1079 0006 7860     		str	r0, [r7, #4]
1251:Generated_Source\PSoC6\pdl\drivers\peripheral\scb/cy_scb_uart.h ****     return Cy_SCB_GetNumInRxFifo(base);
 1080              		.loc 2 1251 0
 1081 0008 7868     		ldr	r0, [r7, #4]
 1082 000a FFF7FEFF 		bl	Cy_SCB_GetNumInRxFifo
 1083 000e 0346     		mov	r3, r0
ARM GAS  C:\Users\ikomb\AppData\Local\Temp\cctq3ka9.s 			page 72


1252:Generated_Source\PSoC6\pdl\drivers\peripheral\scb/cy_scb_uart.h **** }
 1084              		.loc 2 1252 0
 1085 0010 1846     		mov	r0, r3
 1086 0012 0837     		adds	r7, r7, #8
 1087              		.cfi_def_cfa_offset 8
 1088 0014 BD46     		mov	sp, r7
 1089              		.cfi_def_cfa_register 13
 1090              		@ sp needed
 1091 0016 80BD     		pop	{r7, pc}
 1092              		.cfi_endproc
 1093              	.LFE222:
 1094              		.size	Cy_SCB_UART_GetNumInRxFifo, .-Cy_SCB_UART_GetNumInRxFifo
 1095              		.section	.text.Cy_SCB_UART_PutArray,"ax",%progbits
 1096              		.align	2
 1097              		.thumb
 1098              		.thumb_func
 1099              		.type	Cy_SCB_UART_PutArray, %function
 1100              	Cy_SCB_UART_PutArray:
 1101              	.LFB225:
1253:Generated_Source\PSoC6\pdl\drivers\peripheral\scb/cy_scb_uart.h **** 
1254:Generated_Source\PSoC6\pdl\drivers\peripheral\scb/cy_scb_uart.h **** /*******************************************************************************
1255:Generated_Source\PSoC6\pdl\drivers\peripheral\scb/cy_scb_uart.h **** * Function Name: Cy_SCB_UART_ClearRxFifo
1256:Generated_Source\PSoC6\pdl\drivers\peripheral\scb/cy_scb_uart.h **** ****************************************************************************//**
1257:Generated_Source\PSoC6\pdl\drivers\peripheral\scb/cy_scb_uart.h **** *
1258:Generated_Source\PSoC6\pdl\drivers\peripheral\scb/cy_scb_uart.h **** * Clears all data out of the UART RX FIFO.
1259:Generated_Source\PSoC6\pdl\drivers\peripheral\scb/cy_scb_uart.h **** *
1260:Generated_Source\PSoC6\pdl\drivers\peripheral\scb/cy_scb_uart.h **** * \param base
1261:Generated_Source\PSoC6\pdl\drivers\peripheral\scb/cy_scb_uart.h **** * The pointer to the UART SCB instance.
1262:Generated_Source\PSoC6\pdl\drivers\peripheral\scb/cy_scb_uart.h **** *
1263:Generated_Source\PSoC6\pdl\drivers\peripheral\scb/cy_scb_uart.h **** * \sideeffect
1264:Generated_Source\PSoC6\pdl\drivers\peripheral\scb/cy_scb_uart.h **** * Any data currently in the shifter is cleared and lost.
1265:Generated_Source\PSoC6\pdl\drivers\peripheral\scb/cy_scb_uart.h **** *
1266:Generated_Source\PSoC6\pdl\drivers\peripheral\scb/cy_scb_uart.h **** *******************************************************************************/
1267:Generated_Source\PSoC6\pdl\drivers\peripheral\scb/cy_scb_uart.h **** __STATIC_INLINE void Cy_SCB_UART_ClearRxFifo(CySCB_Type *base)
1268:Generated_Source\PSoC6\pdl\drivers\peripheral\scb/cy_scb_uart.h **** {
1269:Generated_Source\PSoC6\pdl\drivers\peripheral\scb/cy_scb_uart.h ****     Cy_SCB_ClearRxFifo(base);
1270:Generated_Source\PSoC6\pdl\drivers\peripheral\scb/cy_scb_uart.h **** }
1271:Generated_Source\PSoC6\pdl\drivers\peripheral\scb/cy_scb_uart.h **** 
1272:Generated_Source\PSoC6\pdl\drivers\peripheral\scb/cy_scb_uart.h **** 
1273:Generated_Source\PSoC6\pdl\drivers\peripheral\scb/cy_scb_uart.h **** /*******************************************************************************
1274:Generated_Source\PSoC6\pdl\drivers\peripheral\scb/cy_scb_uart.h **** * Function Name: Cy_SCB_UART_Put
1275:Generated_Source\PSoC6\pdl\drivers\peripheral\scb/cy_scb_uart.h **** ****************************************************************************//**
1276:Generated_Source\PSoC6\pdl\drivers\peripheral\scb/cy_scb_uart.h **** *
1277:Generated_Source\PSoC6\pdl\drivers\peripheral\scb/cy_scb_uart.h **** * Places a single data element in the UART TX FIFO.
1278:Generated_Source\PSoC6\pdl\drivers\peripheral\scb/cy_scb_uart.h **** * This function does not block and returns how many data elements were placed
1279:Generated_Source\PSoC6\pdl\drivers\peripheral\scb/cy_scb_uart.h **** * in the TX FIFO.
1280:Generated_Source\PSoC6\pdl\drivers\peripheral\scb/cy_scb_uart.h **** *
1281:Generated_Source\PSoC6\pdl\drivers\peripheral\scb/cy_scb_uart.h **** * \param base
1282:Generated_Source\PSoC6\pdl\drivers\peripheral\scb/cy_scb_uart.h **** * The pointer to the UART SCB instance.
1283:Generated_Source\PSoC6\pdl\drivers\peripheral\scb/cy_scb_uart.h **** *
1284:Generated_Source\PSoC6\pdl\drivers\peripheral\scb/cy_scb_uart.h **** * \param data
1285:Generated_Source\PSoC6\pdl\drivers\peripheral\scb/cy_scb_uart.h **** * Data to put in the TX FIFO.
1286:Generated_Source\PSoC6\pdl\drivers\peripheral\scb/cy_scb_uart.h **** * The item size is defined by the data type, which depends on the configured
1287:Generated_Source\PSoC6\pdl\drivers\peripheral\scb/cy_scb_uart.h **** * data width.
1288:Generated_Source\PSoC6\pdl\drivers\peripheral\scb/cy_scb_uart.h **** *
1289:Generated_Source\PSoC6\pdl\drivers\peripheral\scb/cy_scb_uart.h **** * \return
1290:Generated_Source\PSoC6\pdl\drivers\peripheral\scb/cy_scb_uart.h **** * The number of data elements placed in the TX FIFO: 0 or 1.
ARM GAS  C:\Users\ikomb\AppData\Local\Temp\cctq3ka9.s 			page 73


1291:Generated_Source\PSoC6\pdl\drivers\peripheral\scb/cy_scb_uart.h **** *
1292:Generated_Source\PSoC6\pdl\drivers\peripheral\scb/cy_scb_uart.h **** *******************************************************************************/
1293:Generated_Source\PSoC6\pdl\drivers\peripheral\scb/cy_scb_uart.h **** __STATIC_INLINE uint32_t Cy_SCB_UART_Put(CySCB_Type *base, uint32_t data)
1294:Generated_Source\PSoC6\pdl\drivers\peripheral\scb/cy_scb_uart.h **** {
1295:Generated_Source\PSoC6\pdl\drivers\peripheral\scb/cy_scb_uart.h ****     return Cy_SCB_Write(base, data);
1296:Generated_Source\PSoC6\pdl\drivers\peripheral\scb/cy_scb_uart.h **** }
1297:Generated_Source\PSoC6\pdl\drivers\peripheral\scb/cy_scb_uart.h **** 
1298:Generated_Source\PSoC6\pdl\drivers\peripheral\scb/cy_scb_uart.h **** 
1299:Generated_Source\PSoC6\pdl\drivers\peripheral\scb/cy_scb_uart.h **** /*******************************************************************************
1300:Generated_Source\PSoC6\pdl\drivers\peripheral\scb/cy_scb_uart.h **** * Function Name: Cy_SCB_UART_PutArray
1301:Generated_Source\PSoC6\pdl\drivers\peripheral\scb/cy_scb_uart.h **** ****************************************************************************//**
1302:Generated_Source\PSoC6\pdl\drivers\peripheral\scb/cy_scb_uart.h **** *
1303:Generated_Source\PSoC6\pdl\drivers\peripheral\scb/cy_scb_uart.h **** * Places an array of data in the UART TX FIFO.
1304:Generated_Source\PSoC6\pdl\drivers\peripheral\scb/cy_scb_uart.h **** * This function does not block. It returns how many data elements were
1305:Generated_Source\PSoC6\pdl\drivers\peripheral\scb/cy_scb_uart.h **** * placed in the TX FIFO.
1306:Generated_Source\PSoC6\pdl\drivers\peripheral\scb/cy_scb_uart.h **** *
1307:Generated_Source\PSoC6\pdl\drivers\peripheral\scb/cy_scb_uart.h **** * \param base
1308:Generated_Source\PSoC6\pdl\drivers\peripheral\scb/cy_scb_uart.h **** * The pointer to the UART SCB instance.
1309:Generated_Source\PSoC6\pdl\drivers\peripheral\scb/cy_scb_uart.h **** *
1310:Generated_Source\PSoC6\pdl\drivers\peripheral\scb/cy_scb_uart.h **** * \param buffer
1311:Generated_Source\PSoC6\pdl\drivers\peripheral\scb/cy_scb_uart.h **** * The pointer to data to place in the TX FIFO.
1312:Generated_Source\PSoC6\pdl\drivers\peripheral\scb/cy_scb_uart.h **** * The item size is defined by the data type, which depends on the configured
1313:Generated_Source\PSoC6\pdl\drivers\peripheral\scb/cy_scb_uart.h **** * TX data width.
1314:Generated_Source\PSoC6\pdl\drivers\peripheral\scb/cy_scb_uart.h **** *
1315:Generated_Source\PSoC6\pdl\drivers\peripheral\scb/cy_scb_uart.h **** * \param size
1316:Generated_Source\PSoC6\pdl\drivers\peripheral\scb/cy_scb_uart.h **** * The number of data elements to TX.
1317:Generated_Source\PSoC6\pdl\drivers\peripheral\scb/cy_scb_uart.h **** *
1318:Generated_Source\PSoC6\pdl\drivers\peripheral\scb/cy_scb_uart.h **** * \return
1319:Generated_Source\PSoC6\pdl\drivers\peripheral\scb/cy_scb_uart.h **** * The number of data elements placed in the TX FIFO.
1320:Generated_Source\PSoC6\pdl\drivers\peripheral\scb/cy_scb_uart.h **** *
1321:Generated_Source\PSoC6\pdl\drivers\peripheral\scb/cy_scb_uart.h **** *******************************************************************************/
1322:Generated_Source\PSoC6\pdl\drivers\peripheral\scb/cy_scb_uart.h **** __STATIC_INLINE uint32_t Cy_SCB_UART_PutArray(CySCB_Type *base, void *buffer, uint32_t size)
1323:Generated_Source\PSoC6\pdl\drivers\peripheral\scb/cy_scb_uart.h **** {
 1102              		.loc 2 1323 0
 1103              		.cfi_startproc
 1104              		@ args = 0, pretend = 0, frame = 16
 1105              		@ frame_needed = 1, uses_anonymous_args = 0
 1106 0000 80B5     		push	{r7, lr}
 1107              		.cfi_def_cfa_offset 8
 1108              		.cfi_offset 7, -8
 1109              		.cfi_offset 14, -4
 1110 0002 84B0     		sub	sp, sp, #16
 1111              		.cfi_def_cfa_offset 24
 1112 0004 00AF     		add	r7, sp, #0
 1113              		.cfi_def_cfa_register 7
 1114 0006 F860     		str	r0, [r7, #12]
 1115 0008 B960     		str	r1, [r7, #8]
 1116 000a 7A60     		str	r2, [r7, #4]
1324:Generated_Source\PSoC6\pdl\drivers\peripheral\scb/cy_scb_uart.h ****     CY_ASSERT_L1(CY_SCB_IS_BUFFER_VALID(buffer, size));
 1117              		.loc 2 1324 0
 1118 000c BB68     		ldr	r3, [r7, #8]
 1119 000e 002B     		cmp	r3, #0
 1120 0010 02D0     		beq	.L65
 1121              		.loc 2 1324 0 is_stmt 0 discriminator 2
 1122 0012 7B68     		ldr	r3, [r7, #4]
 1123 0014 002B     		cmp	r3, #0
 1124 0016 04D1     		bne	.L66
ARM GAS  C:\Users\ikomb\AppData\Local\Temp\cctq3ka9.s 			page 74


 1125              	.L65:
 1126              		.loc 2 1324 0 discriminator 3
 1127 0018 40F22C51 		movw	r1, #1324
 1128 001c 0648     		ldr	r0, .L68
 1129 001e FFF7FEFF 		bl	Cy_SysLib_AssertFailed
 1130              	.L66:
1325:Generated_Source\PSoC6\pdl\drivers\peripheral\scb/cy_scb_uart.h **** 
1326:Generated_Source\PSoC6\pdl\drivers\peripheral\scb/cy_scb_uart.h ****     return Cy_SCB_WriteArray(base, buffer, size);
 1131              		.loc 2 1326 0 is_stmt 1
 1132 0022 7A68     		ldr	r2, [r7, #4]
 1133 0024 B968     		ldr	r1, [r7, #8]
 1134 0026 F868     		ldr	r0, [r7, #12]
 1135 0028 FFF7FEFF 		bl	Cy_SCB_WriteArray
 1136 002c 0346     		mov	r3, r0
1327:Generated_Source\PSoC6\pdl\drivers\peripheral\scb/cy_scb_uart.h **** }
 1137              		.loc 2 1327 0
 1138 002e 1846     		mov	r0, r3
 1139 0030 1037     		adds	r7, r7, #16
 1140              		.cfi_def_cfa_offset 8
 1141 0032 BD46     		mov	sp, r7
 1142              		.cfi_def_cfa_register 13
 1143              		@ sp needed
 1144 0034 80BD     		pop	{r7, pc}
 1145              	.L69:
 1146 0036 00BF     		.align	2
 1147              	.L68:
 1148 0038 44000000 		.word	.LC1
 1149              		.cfi_endproc
 1150              	.LFE225:
 1151              		.size	Cy_SCB_UART_PutArray, .-Cy_SCB_UART_PutArray
 1152              		.section	.text.Cy_SCB_UART_IsTxComplete,"ax",%progbits
 1153              		.align	2
 1154              		.thumb
 1155              		.thumb_func
 1156              		.type	Cy_SCB_UART_IsTxComplete, %function
 1157              	Cy_SCB_UART_IsTxComplete:
 1158              	.LFB231:
1328:Generated_Source\PSoC6\pdl\drivers\peripheral\scb/cy_scb_uart.h **** 
1329:Generated_Source\PSoC6\pdl\drivers\peripheral\scb/cy_scb_uart.h **** 
1330:Generated_Source\PSoC6\pdl\drivers\peripheral\scb/cy_scb_uart.h **** /*******************************************************************************
1331:Generated_Source\PSoC6\pdl\drivers\peripheral\scb/cy_scb_uart.h **** * Function Name: Cy_SCB_UART_PutArrayBlocking
1332:Generated_Source\PSoC6\pdl\drivers\peripheral\scb/cy_scb_uart.h **** ****************************************************************************//**
1333:Generated_Source\PSoC6\pdl\drivers\peripheral\scb/cy_scb_uart.h **** *
1334:Generated_Source\PSoC6\pdl\drivers\peripheral\scb/cy_scb_uart.h **** * Places an array of data in the UART TX FIFO.
1335:Generated_Source\PSoC6\pdl\drivers\peripheral\scb/cy_scb_uart.h **** * This function blocks until the number of data elements specified by the size
1336:Generated_Source\PSoC6\pdl\drivers\peripheral\scb/cy_scb_uart.h **** * is placed in the TX FIFO.
1337:Generated_Source\PSoC6\pdl\drivers\peripheral\scb/cy_scb_uart.h **** *
1338:Generated_Source\PSoC6\pdl\drivers\peripheral\scb/cy_scb_uart.h **** * \param base
1339:Generated_Source\PSoC6\pdl\drivers\peripheral\scb/cy_scb_uart.h **** * The pointer to the UART SCB instance.
1340:Generated_Source\PSoC6\pdl\drivers\peripheral\scb/cy_scb_uart.h **** *
1341:Generated_Source\PSoC6\pdl\drivers\peripheral\scb/cy_scb_uart.h **** * \param buffer
1342:Generated_Source\PSoC6\pdl\drivers\peripheral\scb/cy_scb_uart.h **** * The pointer to data to place in the TX FIFO.
1343:Generated_Source\PSoC6\pdl\drivers\peripheral\scb/cy_scb_uart.h **** * The item size is defined by the data type, which depends on the configured
1344:Generated_Source\PSoC6\pdl\drivers\peripheral\scb/cy_scb_uart.h **** * data width.
1345:Generated_Source\PSoC6\pdl\drivers\peripheral\scb/cy_scb_uart.h **** *
1346:Generated_Source\PSoC6\pdl\drivers\peripheral\scb/cy_scb_uart.h **** * \param size
1347:Generated_Source\PSoC6\pdl\drivers\peripheral\scb/cy_scb_uart.h **** * The number of data elements to write into the TX FIFO.
ARM GAS  C:\Users\ikomb\AppData\Local\Temp\cctq3ka9.s 			page 75


1348:Generated_Source\PSoC6\pdl\drivers\peripheral\scb/cy_scb_uart.h **** *
1349:Generated_Source\PSoC6\pdl\drivers\peripheral\scb/cy_scb_uart.h **** *******************************************************************************/
1350:Generated_Source\PSoC6\pdl\drivers\peripheral\scb/cy_scb_uart.h **** __STATIC_INLINE void Cy_SCB_UART_PutArrayBlocking(CySCB_Type *base, void *buffer, uint32_t size)
1351:Generated_Source\PSoC6\pdl\drivers\peripheral\scb/cy_scb_uart.h **** {
1352:Generated_Source\PSoC6\pdl\drivers\peripheral\scb/cy_scb_uart.h ****     CY_ASSERT_L1(CY_SCB_IS_BUFFER_VALID(buffer, size));
1353:Generated_Source\PSoC6\pdl\drivers\peripheral\scb/cy_scb_uart.h **** 
1354:Generated_Source\PSoC6\pdl\drivers\peripheral\scb/cy_scb_uart.h ****     Cy_SCB_WriteArrayBlocking(base, buffer, size);
1355:Generated_Source\PSoC6\pdl\drivers\peripheral\scb/cy_scb_uart.h **** }
1356:Generated_Source\PSoC6\pdl\drivers\peripheral\scb/cy_scb_uart.h **** 
1357:Generated_Source\PSoC6\pdl\drivers\peripheral\scb/cy_scb_uart.h **** 
1358:Generated_Source\PSoC6\pdl\drivers\peripheral\scb/cy_scb_uart.h **** /*******************************************************************************
1359:Generated_Source\PSoC6\pdl\drivers\peripheral\scb/cy_scb_uart.h **** * Function Name: Cy_SCB_UART_PutString
1360:Generated_Source\PSoC6\pdl\drivers\peripheral\scb/cy_scb_uart.h **** ****************************************************************************//**
1361:Generated_Source\PSoC6\pdl\drivers\peripheral\scb/cy_scb_uart.h **** *
1362:Generated_Source\PSoC6\pdl\drivers\peripheral\scb/cy_scb_uart.h **** * Places a NULL terminated string in the UART TX FIFO.
1363:Generated_Source\PSoC6\pdl\drivers\peripheral\scb/cy_scb_uart.h **** * This function blocks until the entire string is placed in the TX FIFO.
1364:Generated_Source\PSoC6\pdl\drivers\peripheral\scb/cy_scb_uart.h **** *
1365:Generated_Source\PSoC6\pdl\drivers\peripheral\scb/cy_scb_uart.h **** * \param base
1366:Generated_Source\PSoC6\pdl\drivers\peripheral\scb/cy_scb_uart.h **** * The pointer to the UART SCB instance.
1367:Generated_Source\PSoC6\pdl\drivers\peripheral\scb/cy_scb_uart.h **** *
1368:Generated_Source\PSoC6\pdl\drivers\peripheral\scb/cy_scb_uart.h **** * \param string
1369:Generated_Source\PSoC6\pdl\drivers\peripheral\scb/cy_scb_uart.h **** * The pointer to the null terminated string array.
1370:Generated_Source\PSoC6\pdl\drivers\peripheral\scb/cy_scb_uart.h **** *
1371:Generated_Source\PSoC6\pdl\drivers\peripheral\scb/cy_scb_uart.h **** *******************************************************************************/
1372:Generated_Source\PSoC6\pdl\drivers\peripheral\scb/cy_scb_uart.h **** __STATIC_INLINE void Cy_SCB_UART_PutString(CySCB_Type *base, char_t const string[])
1373:Generated_Source\PSoC6\pdl\drivers\peripheral\scb/cy_scb_uart.h **** {
1374:Generated_Source\PSoC6\pdl\drivers\peripheral\scb/cy_scb_uart.h ****     CY_ASSERT_L1(CY_SCB_IS_BUFFER_VALID(string, 1UL));
1375:Generated_Source\PSoC6\pdl\drivers\peripheral\scb/cy_scb_uart.h **** 
1376:Generated_Source\PSoC6\pdl\drivers\peripheral\scb/cy_scb_uart.h ****     Cy_SCB_WriteString(base, string);
1377:Generated_Source\PSoC6\pdl\drivers\peripheral\scb/cy_scb_uart.h **** }
1378:Generated_Source\PSoC6\pdl\drivers\peripheral\scb/cy_scb_uart.h **** 
1379:Generated_Source\PSoC6\pdl\drivers\peripheral\scb/cy_scb_uart.h **** 
1380:Generated_Source\PSoC6\pdl\drivers\peripheral\scb/cy_scb_uart.h **** /*******************************************************************************
1381:Generated_Source\PSoC6\pdl\drivers\peripheral\scb/cy_scb_uart.h **** * Function Name: Cy_SCB_UART_GetTxFifoStatus
1382:Generated_Source\PSoC6\pdl\drivers\peripheral\scb/cy_scb_uart.h **** ****************************************************************************//**
1383:Generated_Source\PSoC6\pdl\drivers\peripheral\scb/cy_scb_uart.h **** *
1384:Generated_Source\PSoC6\pdl\drivers\peripheral\scb/cy_scb_uart.h **** * Returns the current status of the TX FIFO.
1385:Generated_Source\PSoC6\pdl\drivers\peripheral\scb/cy_scb_uart.h **** * Clear the active statuses to let the SCB hardware update them.
1386:Generated_Source\PSoC6\pdl\drivers\peripheral\scb/cy_scb_uart.h **** *
1387:Generated_Source\PSoC6\pdl\drivers\peripheral\scb/cy_scb_uart.h **** * \param base
1388:Generated_Source\PSoC6\pdl\drivers\peripheral\scb/cy_scb_uart.h **** * The pointer to the UART SCB instance.
1389:Generated_Source\PSoC6\pdl\drivers\peripheral\scb/cy_scb_uart.h **** *
1390:Generated_Source\PSoC6\pdl\drivers\peripheral\scb/cy_scb_uart.h **** * \return
1391:Generated_Source\PSoC6\pdl\drivers\peripheral\scb/cy_scb_uart.h **** * \ref group_scb_uart_macros_tx_fifo_status
1392:Generated_Source\PSoC6\pdl\drivers\peripheral\scb/cy_scb_uart.h **** *
1393:Generated_Source\PSoC6\pdl\drivers\peripheral\scb/cy_scb_uart.h **** *******************************************************************************/
1394:Generated_Source\PSoC6\pdl\drivers\peripheral\scb/cy_scb_uart.h **** __STATIC_INLINE uint32_t Cy_SCB_UART_GetTxFifoStatus(CySCB_Type const *base)
1395:Generated_Source\PSoC6\pdl\drivers\peripheral\scb/cy_scb_uart.h **** {
1396:Generated_Source\PSoC6\pdl\drivers\peripheral\scb/cy_scb_uart.h ****     return (Cy_SCB_GetTxInterruptStatus(base) & CY_SCB_UART_TX_INTR_MASK);
1397:Generated_Source\PSoC6\pdl\drivers\peripheral\scb/cy_scb_uart.h **** }
1398:Generated_Source\PSoC6\pdl\drivers\peripheral\scb/cy_scb_uart.h **** 
1399:Generated_Source\PSoC6\pdl\drivers\peripheral\scb/cy_scb_uart.h **** 
1400:Generated_Source\PSoC6\pdl\drivers\peripheral\scb/cy_scb_uart.h **** /*******************************************************************************
1401:Generated_Source\PSoC6\pdl\drivers\peripheral\scb/cy_scb_uart.h **** * Function Name: Cy_SCB_UART_ClearTxFifoStatus
1402:Generated_Source\PSoC6\pdl\drivers\peripheral\scb/cy_scb_uart.h **** ****************************************************************************//**
1403:Generated_Source\PSoC6\pdl\drivers\peripheral\scb/cy_scb_uart.h **** *
1404:Generated_Source\PSoC6\pdl\drivers\peripheral\scb/cy_scb_uart.h **** * Clears the selected statuses of the TX FIFO.
ARM GAS  C:\Users\ikomb\AppData\Local\Temp\cctq3ka9.s 			page 76


1405:Generated_Source\PSoC6\pdl\drivers\peripheral\scb/cy_scb_uart.h **** *
1406:Generated_Source\PSoC6\pdl\drivers\peripheral\scb/cy_scb_uart.h **** * \param base
1407:Generated_Source\PSoC6\pdl\drivers\peripheral\scb/cy_scb_uart.h **** * The pointer to the UART SCB instance.
1408:Generated_Source\PSoC6\pdl\drivers\peripheral\scb/cy_scb_uart.h **** *
1409:Generated_Source\PSoC6\pdl\drivers\peripheral\scb/cy_scb_uart.h **** * \param clearMask
1410:Generated_Source\PSoC6\pdl\drivers\peripheral\scb/cy_scb_uart.h **** * The mask whose statuses to clear.
1411:Generated_Source\PSoC6\pdl\drivers\peripheral\scb/cy_scb_uart.h **** * See \ref group_scb_uart_macros_tx_fifo_status for the set of constants.
1412:Generated_Source\PSoC6\pdl\drivers\peripheral\scb/cy_scb_uart.h **** *
1413:Generated_Source\PSoC6\pdl\drivers\peripheral\scb/cy_scb_uart.h **** * \note
1414:Generated_Source\PSoC6\pdl\drivers\peripheral\scb/cy_scb_uart.h **** * * The status is also used for interrupt generation, so clearing it also
1415:Generated_Source\PSoC6\pdl\drivers\peripheral\scb/cy_scb_uart.h **** *   clears the interrupt sources.
1416:Generated_Source\PSoC6\pdl\drivers\peripheral\scb/cy_scb_uart.h **** * * Level-sensitive statuses such as \ref CY_SCB_UART_TX_TRIGGER,
1417:Generated_Source\PSoC6\pdl\drivers\peripheral\scb/cy_scb_uart.h **** *   \ref CY_SCB_UART_TX_EMPTY and \ref CY_SCB_UART_TX_NOT_FULL are set high again after
1418:Generated_Source\PSoC6\pdl\drivers\peripheral\scb/cy_scb_uart.h **** *   being cleared if the condition remains true.
1419:Generated_Source\PSoC6\pdl\drivers\peripheral\scb/cy_scb_uart.h **** *
1420:Generated_Source\PSoC6\pdl\drivers\peripheral\scb/cy_scb_uart.h **** *******************************************************************************/
1421:Generated_Source\PSoC6\pdl\drivers\peripheral\scb/cy_scb_uart.h **** __STATIC_INLINE void Cy_SCB_UART_ClearTxFifoStatus(CySCB_Type *base, uint32_t clearMask)
1422:Generated_Source\PSoC6\pdl\drivers\peripheral\scb/cy_scb_uart.h **** {
1423:Generated_Source\PSoC6\pdl\drivers\peripheral\scb/cy_scb_uart.h ****     CY_ASSERT_L2(CY_SCB_IS_INTR_VALID(clearMask, CY_SCB_UART_TX_INTR_MASK));
1424:Generated_Source\PSoC6\pdl\drivers\peripheral\scb/cy_scb_uart.h **** 
1425:Generated_Source\PSoC6\pdl\drivers\peripheral\scb/cy_scb_uart.h ****     Cy_SCB_ClearTxInterrupt(base, clearMask);
1426:Generated_Source\PSoC6\pdl\drivers\peripheral\scb/cy_scb_uart.h **** }
1427:Generated_Source\PSoC6\pdl\drivers\peripheral\scb/cy_scb_uart.h **** 
1428:Generated_Source\PSoC6\pdl\drivers\peripheral\scb/cy_scb_uart.h **** 
1429:Generated_Source\PSoC6\pdl\drivers\peripheral\scb/cy_scb_uart.h **** /*******************************************************************************
1430:Generated_Source\PSoC6\pdl\drivers\peripheral\scb/cy_scb_uart.h **** * Function Name: Cy_SCB_UART_GetNumInTxFifo
1431:Generated_Source\PSoC6\pdl\drivers\peripheral\scb/cy_scb_uart.h **** ****************************************************************************//**
1432:Generated_Source\PSoC6\pdl\drivers\peripheral\scb/cy_scb_uart.h **** *
1433:Generated_Source\PSoC6\pdl\drivers\peripheral\scb/cy_scb_uart.h **** * Returns the number of data elements in the UART TX FIFO.
1434:Generated_Source\PSoC6\pdl\drivers\peripheral\scb/cy_scb_uart.h **** *
1435:Generated_Source\PSoC6\pdl\drivers\peripheral\scb/cy_scb_uart.h **** * \param base
1436:Generated_Source\PSoC6\pdl\drivers\peripheral\scb/cy_scb_uart.h **** * The pointer to the UART SCB instance.
1437:Generated_Source\PSoC6\pdl\drivers\peripheral\scb/cy_scb_uart.h **** *
1438:Generated_Source\PSoC6\pdl\drivers\peripheral\scb/cy_scb_uart.h **** * \return
1439:Generated_Source\PSoC6\pdl\drivers\peripheral\scb/cy_scb_uart.h **** * The number of data elements in the TX FIFO.
1440:Generated_Source\PSoC6\pdl\drivers\peripheral\scb/cy_scb_uart.h **** * The size of date element defined by the configured data width.
1441:Generated_Source\PSoC6\pdl\drivers\peripheral\scb/cy_scb_uart.h **** *
1442:Generated_Source\PSoC6\pdl\drivers\peripheral\scb/cy_scb_uart.h **** * \note
1443:Generated_Source\PSoC6\pdl\drivers\peripheral\scb/cy_scb_uart.h **** * This number does not include any data currently in the TX shifter.
1444:Generated_Source\PSoC6\pdl\drivers\peripheral\scb/cy_scb_uart.h **** *
1445:Generated_Source\PSoC6\pdl\drivers\peripheral\scb/cy_scb_uart.h **** *******************************************************************************/
1446:Generated_Source\PSoC6\pdl\drivers\peripheral\scb/cy_scb_uart.h **** __STATIC_INLINE uint32_t Cy_SCB_UART_GetNumInTxFifo(CySCB_Type const *base)
1447:Generated_Source\PSoC6\pdl\drivers\peripheral\scb/cy_scb_uart.h **** {
1448:Generated_Source\PSoC6\pdl\drivers\peripheral\scb/cy_scb_uart.h ****     return Cy_SCB_GetNumInTxFifo(base);
1449:Generated_Source\PSoC6\pdl\drivers\peripheral\scb/cy_scb_uart.h **** }
1450:Generated_Source\PSoC6\pdl\drivers\peripheral\scb/cy_scb_uart.h **** 
1451:Generated_Source\PSoC6\pdl\drivers\peripheral\scb/cy_scb_uart.h **** 
1452:Generated_Source\PSoC6\pdl\drivers\peripheral\scb/cy_scb_uart.h **** /*******************************************************************************
1453:Generated_Source\PSoC6\pdl\drivers\peripheral\scb/cy_scb_uart.h **** * Function Name: Cy_SCB_UART_IsTxComplete
1454:Generated_Source\PSoC6\pdl\drivers\peripheral\scb/cy_scb_uart.h **** ****************************************************************************//**
1455:Generated_Source\PSoC6\pdl\drivers\peripheral\scb/cy_scb_uart.h **** *
1456:Generated_Source\PSoC6\pdl\drivers\peripheral\scb/cy_scb_uart.h **** * Checks whether the TX FIFO and Shifter are empty and there is no more data to send
1457:Generated_Source\PSoC6\pdl\drivers\peripheral\scb/cy_scb_uart.h **** *
1458:Generated_Source\PSoC6\pdl\drivers\peripheral\scb/cy_scb_uart.h **** * \param base
1459:Generated_Source\PSoC6\pdl\drivers\peripheral\scb/cy_scb_uart.h **** * Pointer to the UART SCB instance.
1460:Generated_Source\PSoC6\pdl\drivers\peripheral\scb/cy_scb_uart.h **** *
1461:Generated_Source\PSoC6\pdl\drivers\peripheral\scb/cy_scb_uart.h **** * \return
ARM GAS  C:\Users\ikomb\AppData\Local\Temp\cctq3ka9.s 			page 77


1462:Generated_Source\PSoC6\pdl\drivers\peripheral\scb/cy_scb_uart.h **** * If true, transmission complete. If false, transmission is not complete.
1463:Generated_Source\PSoC6\pdl\drivers\peripheral\scb/cy_scb_uart.h **** *
1464:Generated_Source\PSoC6\pdl\drivers\peripheral\scb/cy_scb_uart.h **** *******************************************************************************/
1465:Generated_Source\PSoC6\pdl\drivers\peripheral\scb/cy_scb_uart.h **** __STATIC_INLINE bool Cy_SCB_UART_IsTxComplete(CySCB_Type const *base)
1466:Generated_Source\PSoC6\pdl\drivers\peripheral\scb/cy_scb_uart.h **** {
 1159              		.loc 2 1466 0
 1160              		.cfi_startproc
 1161              		@ args = 0, pretend = 0, frame = 8
 1162              		@ frame_needed = 1, uses_anonymous_args = 0
 1163 0000 80B5     		push	{r7, lr}
 1164              		.cfi_def_cfa_offset 8
 1165              		.cfi_offset 7, -8
 1166              		.cfi_offset 14, -4
 1167 0002 82B0     		sub	sp, sp, #8
 1168              		.cfi_def_cfa_offset 16
 1169 0004 00AF     		add	r7, sp, #0
 1170              		.cfi_def_cfa_register 7
 1171 0006 7860     		str	r0, [r7, #4]
1467:Generated_Source\PSoC6\pdl\drivers\peripheral\scb/cy_scb_uart.h ****     return Cy_SCB_IsTxComplete(base);
 1172              		.loc 2 1467 0
 1173 0008 7868     		ldr	r0, [r7, #4]
 1174 000a FFF7FEFF 		bl	Cy_SCB_IsTxComplete
 1175 000e 0346     		mov	r3, r0
1468:Generated_Source\PSoC6\pdl\drivers\peripheral\scb/cy_scb_uart.h **** }
 1176              		.loc 2 1468 0
 1177 0010 1846     		mov	r0, r3
 1178 0012 0837     		adds	r7, r7, #8
 1179              		.cfi_def_cfa_offset 8
 1180 0014 BD46     		mov	sp, r7
 1181              		.cfi_def_cfa_register 13
 1182              		@ sp needed
 1183 0016 80BD     		pop	{r7, pc}
 1184              		.cfi_endproc
 1185              	.LFE231:
 1186              		.size	Cy_SCB_UART_IsTxComplete, .-Cy_SCB_UART_IsTxComplete
 1187              		.section	.text.Cy_SCB_UART_ClearTxFifo,"ax",%progbits
 1188              		.align	2
 1189              		.thumb
 1190              		.thumb_func
 1191              		.type	Cy_SCB_UART_ClearTxFifo, %function
 1192              	Cy_SCB_UART_ClearTxFifo:
 1193              	.LFB232:
1469:Generated_Source\PSoC6\pdl\drivers\peripheral\scb/cy_scb_uart.h **** 
1470:Generated_Source\PSoC6\pdl\drivers\peripheral\scb/cy_scb_uart.h **** 
1471:Generated_Source\PSoC6\pdl\drivers\peripheral\scb/cy_scb_uart.h **** /*******************************************************************************
1472:Generated_Source\PSoC6\pdl\drivers\peripheral\scb/cy_scb_uart.h **** * Function Name: Cy_SCB_UART_ClearTxFifo
1473:Generated_Source\PSoC6\pdl\drivers\peripheral\scb/cy_scb_uart.h **** ****************************************************************************//**
1474:Generated_Source\PSoC6\pdl\drivers\peripheral\scb/cy_scb_uart.h **** *
1475:Generated_Source\PSoC6\pdl\drivers\peripheral\scb/cy_scb_uart.h **** * Clears all data out of the UART TX FIFO.
1476:Generated_Source\PSoC6\pdl\drivers\peripheral\scb/cy_scb_uart.h **** *
1477:Generated_Source\PSoC6\pdl\drivers\peripheral\scb/cy_scb_uart.h **** * \param base
1478:Generated_Source\PSoC6\pdl\drivers\peripheral\scb/cy_scb_uart.h **** * The pointer to the UART SCB instance.
1479:Generated_Source\PSoC6\pdl\drivers\peripheral\scb/cy_scb_uart.h **** *
1480:Generated_Source\PSoC6\pdl\drivers\peripheral\scb/cy_scb_uart.h **** * \sideeffect
1481:Generated_Source\PSoC6\pdl\drivers\peripheral\scb/cy_scb_uart.h **** * The TX FIFO clear operation also clears the shift register, so that
1482:Generated_Source\PSoC6\pdl\drivers\peripheral\scb/cy_scb_uart.h **** * the shifter could be cleared in the middle of a data element transfer,
1483:Generated_Source\PSoC6\pdl\drivers\peripheral\scb/cy_scb_uart.h **** * corrupting it. The data element corruption means that all bits that have
ARM GAS  C:\Users\ikomb\AppData\Local\Temp\cctq3ka9.s 			page 78


1484:Generated_Source\PSoC6\pdl\drivers\peripheral\scb/cy_scb_uart.h **** * not been transmitted are transmitted as 1s on the bus.
1485:Generated_Source\PSoC6\pdl\drivers\peripheral\scb/cy_scb_uart.h **** *
1486:Generated_Source\PSoC6\pdl\drivers\peripheral\scb/cy_scb_uart.h **** *******************************************************************************/
1487:Generated_Source\PSoC6\pdl\drivers\peripheral\scb/cy_scb_uart.h **** __STATIC_INLINE void Cy_SCB_UART_ClearTxFifo(CySCB_Type *base)
1488:Generated_Source\PSoC6\pdl\drivers\peripheral\scb/cy_scb_uart.h **** {
 1194              		.loc 2 1488 0
 1195              		.cfi_startproc
 1196              		@ args = 0, pretend = 0, frame = 8
 1197              		@ frame_needed = 1, uses_anonymous_args = 0
 1198 0000 80B5     		push	{r7, lr}
 1199              		.cfi_def_cfa_offset 8
 1200              		.cfi_offset 7, -8
 1201              		.cfi_offset 14, -4
 1202 0002 82B0     		sub	sp, sp, #8
 1203              		.cfi_def_cfa_offset 16
 1204 0004 00AF     		add	r7, sp, #0
 1205              		.cfi_def_cfa_register 7
 1206 0006 7860     		str	r0, [r7, #4]
1489:Generated_Source\PSoC6\pdl\drivers\peripheral\scb/cy_scb_uart.h ****     Cy_SCB_ClearTxFifo(base);
 1207              		.loc 2 1489 0
 1208 0008 7868     		ldr	r0, [r7, #4]
 1209 000a FFF7FEFF 		bl	Cy_SCB_ClearTxFifo
1490:Generated_Source\PSoC6\pdl\drivers\peripheral\scb/cy_scb_uart.h **** }
 1210              		.loc 2 1490 0
 1211 000e 00BF     		nop
 1212 0010 0837     		adds	r7, r7, #8
 1213              		.cfi_def_cfa_offset 8
 1214 0012 BD46     		mov	sp, r7
 1215              		.cfi_def_cfa_register 13
 1216              		@ sp needed
 1217 0014 80BD     		pop	{r7, pc}
 1218              		.cfi_endproc
 1219              	.LFE232:
 1220              		.size	Cy_SCB_UART_ClearTxFifo, .-Cy_SCB_UART_ClearTxFifo
 1221 0016 00BF     		.section	.rodata
 1222              		.align	2
 1223              	.LC2:
 1224 0084 47656E65 		.ascii	"Generated_Source\\PSoC6\\pdl\\drivers\\peripheral\\"
 1224      72617465 
 1224      645F536F 
 1224      75726365 
 1224      5C50536F 
 1225 00b2 7363625C 		.ascii	"scb\\cy_scb_uart.c\000"
 1225      63795F73 
 1225      63625F75 
 1225      6172742E 
 1225      6300
 1226              		.section	.text.Cy_SCB_UART_Init,"ax",%progbits
 1227              		.align	2
 1228              		.global	Cy_SCB_UART_Init
 1229              		.thumb
 1230              		.thumb_func
 1231              		.type	Cy_SCB_UART_Init, %function
 1232              	Cy_SCB_UART_Init:
 1233              	.LFB234:
 1234              		.file 3 "Generated_Source\\PSoC6\\pdl\\drivers\\peripheral\\scb\\cy_scb_uart.c"
   1:Generated_Source\PSoC6\pdl\drivers\peripheral\scb/cy_scb_uart.c **** /***************************************************************************//**
ARM GAS  C:\Users\ikomb\AppData\Local\Temp\cctq3ka9.s 			page 79


   2:Generated_Source\PSoC6\pdl\drivers\peripheral\scb/cy_scb_uart.c **** * \file cy_scb_uart.c
   3:Generated_Source\PSoC6\pdl\drivers\peripheral\scb/cy_scb_uart.c **** * \version 2.10
   4:Generated_Source\PSoC6\pdl\drivers\peripheral\scb/cy_scb_uart.c **** *
   5:Generated_Source\PSoC6\pdl\drivers\peripheral\scb/cy_scb_uart.c **** * Provides UART API implementation of the SCB driver.
   6:Generated_Source\PSoC6\pdl\drivers\peripheral\scb/cy_scb_uart.c **** *
   7:Generated_Source\PSoC6\pdl\drivers\peripheral\scb/cy_scb_uart.c **** ********************************************************************************
   8:Generated_Source\PSoC6\pdl\drivers\peripheral\scb/cy_scb_uart.c **** * \copyright
   9:Generated_Source\PSoC6\pdl\drivers\peripheral\scb/cy_scb_uart.c **** * Copyright 2016-2018, Cypress Semiconductor Corporation. All rights reserved.
  10:Generated_Source\PSoC6\pdl\drivers\peripheral\scb/cy_scb_uart.c **** * You may use this file only in accordance with the license, terms, conditions,
  11:Generated_Source\PSoC6\pdl\drivers\peripheral\scb/cy_scb_uart.c **** * disclaimers, and limitations in the end user license agreement accompanying
  12:Generated_Source\PSoC6\pdl\drivers\peripheral\scb/cy_scb_uart.c **** * the software package with which this file was provided.
  13:Generated_Source\PSoC6\pdl\drivers\peripheral\scb/cy_scb_uart.c **** *******************************************************************************/
  14:Generated_Source\PSoC6\pdl\drivers\peripheral\scb/cy_scb_uart.c **** 
  15:Generated_Source\PSoC6\pdl\drivers\peripheral\scb/cy_scb_uart.c **** #include "cy_scb_uart.h"
  16:Generated_Source\PSoC6\pdl\drivers\peripheral\scb/cy_scb_uart.c **** 
  17:Generated_Source\PSoC6\pdl\drivers\peripheral\scb/cy_scb_uart.c **** #if defined(__cplusplus)
  18:Generated_Source\PSoC6\pdl\drivers\peripheral\scb/cy_scb_uart.c **** extern "C" {
  19:Generated_Source\PSoC6\pdl\drivers\peripheral\scb/cy_scb_uart.c **** #endif
  20:Generated_Source\PSoC6\pdl\drivers\peripheral\scb/cy_scb_uart.c **** 
  21:Generated_Source\PSoC6\pdl\drivers\peripheral\scb/cy_scb_uart.c **** /* Static functions */
  22:Generated_Source\PSoC6\pdl\drivers\peripheral\scb/cy_scb_uart.c **** static void HandleDataReceive (CySCB_Type *base, cy_stc_scb_uart_context_t *context);
  23:Generated_Source\PSoC6\pdl\drivers\peripheral\scb/cy_scb_uart.c **** static void HandleRingBuffer  (CySCB_Type *base, cy_stc_scb_uart_context_t *context);
  24:Generated_Source\PSoC6\pdl\drivers\peripheral\scb/cy_scb_uart.c **** static void HandleDataTransmit(CySCB_Type *base, cy_stc_scb_uart_context_t *context);
  25:Generated_Source\PSoC6\pdl\drivers\peripheral\scb/cy_scb_uart.c **** 
  26:Generated_Source\PSoC6\pdl\drivers\peripheral\scb/cy_scb_uart.c **** 
  27:Generated_Source\PSoC6\pdl\drivers\peripheral\scb/cy_scb_uart.c **** /*******************************************************************************
  28:Generated_Source\PSoC6\pdl\drivers\peripheral\scb/cy_scb_uart.c **** * Function Name: Cy_SCB_UART_Init
  29:Generated_Source\PSoC6\pdl\drivers\peripheral\scb/cy_scb_uart.c **** ****************************************************************************//**
  30:Generated_Source\PSoC6\pdl\drivers\peripheral\scb/cy_scb_uart.c **** *
  31:Generated_Source\PSoC6\pdl\drivers\peripheral\scb/cy_scb_uart.c **** * Initializes the SCB for UART operation.
  32:Generated_Source\PSoC6\pdl\drivers\peripheral\scb/cy_scb_uart.c **** *
  33:Generated_Source\PSoC6\pdl\drivers\peripheral\scb/cy_scb_uart.c **** * \param base
  34:Generated_Source\PSoC6\pdl\drivers\peripheral\scb/cy_scb_uart.c **** * The pointer to the UART SCB instance.
  35:Generated_Source\PSoC6\pdl\drivers\peripheral\scb/cy_scb_uart.c **** *
  36:Generated_Source\PSoC6\pdl\drivers\peripheral\scb/cy_scb_uart.c **** * \param config
  37:Generated_Source\PSoC6\pdl\drivers\peripheral\scb/cy_scb_uart.c **** * The pointer to configuration structure \ref cy_stc_scb_uart_config_t.
  38:Generated_Source\PSoC6\pdl\drivers\peripheral\scb/cy_scb_uart.c **** *
  39:Generated_Source\PSoC6\pdl\drivers\peripheral\scb/cy_scb_uart.c **** * \param context
  40:Generated_Source\PSoC6\pdl\drivers\peripheral\scb/cy_scb_uart.c **** * The pointer to the context structure \ref cy_stc_scb_uart_context_t allocated
  41:Generated_Source\PSoC6\pdl\drivers\peripheral\scb/cy_scb_uart.c **** * by the user. The structure is used during the UART operation for internal
  42:Generated_Source\PSoC6\pdl\drivers\peripheral\scb/cy_scb_uart.c **** * configuration and data retention. The user must not modify anything
  43:Generated_Source\PSoC6\pdl\drivers\peripheral\scb/cy_scb_uart.c **** * in this structure.
  44:Generated_Source\PSoC6\pdl\drivers\peripheral\scb/cy_scb_uart.c **** * If only UART functions which do not require context will be used pass NULL
  45:Generated_Source\PSoC6\pdl\drivers\peripheral\scb/cy_scb_uart.c **** * as pointer to context.
  46:Generated_Source\PSoC6\pdl\drivers\peripheral\scb/cy_scb_uart.c **** *
  47:Generated_Source\PSoC6\pdl\drivers\peripheral\scb/cy_scb_uart.c **** * \return
  48:Generated_Source\PSoC6\pdl\drivers\peripheral\scb/cy_scb_uart.c **** * \ref cy_en_scb_uart_status_t
  49:Generated_Source\PSoC6\pdl\drivers\peripheral\scb/cy_scb_uart.c **** *
  50:Generated_Source\PSoC6\pdl\drivers\peripheral\scb/cy_scb_uart.c **** * \note
  51:Generated_Source\PSoC6\pdl\drivers\peripheral\scb/cy_scb_uart.c **** * Ensure that the SCB block is disabled before calling this function.
  52:Generated_Source\PSoC6\pdl\drivers\peripheral\scb/cy_scb_uart.c **** *
  53:Generated_Source\PSoC6\pdl\drivers\peripheral\scb/cy_scb_uart.c **** *******************************************************************************/
  54:Generated_Source\PSoC6\pdl\drivers\peripheral\scb/cy_scb_uart.c **** cy_en_scb_uart_status_t Cy_SCB_UART_Init(CySCB_Type *base, cy_stc_scb_uart_config_t const *config, 
  55:Generated_Source\PSoC6\pdl\drivers\peripheral\scb/cy_scb_uart.c **** {
 1235              		.loc 3 55 0
 1236              		.cfi_startproc
 1237              		@ args = 0, pretend = 0, frame = 24
ARM GAS  C:\Users\ikomb\AppData\Local\Temp\cctq3ka9.s 			page 80


 1238              		@ frame_needed = 1, uses_anonymous_args = 0
 1239 0000 90B5     		push	{r4, r7, lr}
 1240              		.cfi_def_cfa_offset 12
 1241              		.cfi_offset 4, -12
 1242              		.cfi_offset 7, -8
 1243              		.cfi_offset 14, -4
 1244 0002 87B0     		sub	sp, sp, #28
 1245              		.cfi_def_cfa_offset 40
 1246 0004 00AF     		add	r7, sp, #0
 1247              		.cfi_def_cfa_register 7
 1248 0006 F860     		str	r0, [r7, #12]
 1249 0008 B960     		str	r1, [r7, #8]
 1250 000a 7A60     		str	r2, [r7, #4]
  56:Generated_Source\PSoC6\pdl\drivers\peripheral\scb/cy_scb_uart.c ****     if ((NULL == base) || (NULL == config))
 1251              		.loc 3 56 0
 1252 000c FB68     		ldr	r3, [r7, #12]
 1253 000e 002B     		cmp	r3, #0
 1254 0010 02D0     		beq	.L74
 1255              		.loc 3 56 0 is_stmt 0 discriminator 1
 1256 0012 BB68     		ldr	r3, [r7, #8]
 1257 0014 002B     		cmp	r3, #0
 1258 0016 01D1     		bne	.L75
 1259              	.L74:
  57:Generated_Source\PSoC6\pdl\drivers\peripheral\scb/cy_scb_uart.c ****     {
  58:Generated_Source\PSoC6\pdl\drivers\peripheral\scb/cy_scb_uart.c ****         return CY_SCB_UART_BAD_PARAM;
 1260              		.loc 3 58 0 is_stmt 1
 1261 0018 8D4B     		ldr	r3, .L147
 1262 001a 60E2     		b	.L76
 1263              	.L75:
  59:Generated_Source\PSoC6\pdl\drivers\peripheral\scb/cy_scb_uart.c ****     }
  60:Generated_Source\PSoC6\pdl\drivers\peripheral\scb/cy_scb_uart.c **** 
  61:Generated_Source\PSoC6\pdl\drivers\peripheral\scb/cy_scb_uart.c ****     if (!SCB_IS_UART_CAPABLE(base))
 1264              		.loc 3 61 0
 1265 001c FB68     		ldr	r3, [r7, #12]
 1266 001e 8D4A     		ldr	r2, .L147+4
 1267 0020 9342     		cmp	r3, r2
 1268 0022 01D1     		bne	.L77
  62:Generated_Source\PSoC6\pdl\drivers\peripheral\scb/cy_scb_uart.c ****     {
  63:Generated_Source\PSoC6\pdl\drivers\peripheral\scb/cy_scb_uart.c ****         return CY_SCB_UART_BAD_PARAM;
 1269              		.loc 3 63 0
 1270 0024 8A4B     		ldr	r3, .L147
 1271 0026 5AE2     		b	.L76
 1272              	.L77:
  64:Generated_Source\PSoC6\pdl\drivers\peripheral\scb/cy_scb_uart.c ****     }
  65:Generated_Source\PSoC6\pdl\drivers\peripheral\scb/cy_scb_uart.c **** 
  66:Generated_Source\PSoC6\pdl\drivers\peripheral\scb/cy_scb_uart.c ****     CY_ASSERT_L3(CY_SCB_UART_IS_MODE_VALID     (config->uartMode));
 1273              		.loc 3 66 0
 1274 0028 BB68     		ldr	r3, [r7, #8]
 1275 002a 1B78     		ldrb	r3, [r3]	@ zero_extendqisi2
 1276 002c 002B     		cmp	r3, #0
 1277 002e 0BD0     		beq	.L78
 1278              		.loc 3 66 0 is_stmt 0 discriminator 1
 1279 0030 BB68     		ldr	r3, [r7, #8]
 1280 0032 1B78     		ldrb	r3, [r3]	@ zero_extendqisi2
 1281 0034 012B     		cmp	r3, #1
 1282 0036 07D0     		beq	.L78
 1283              		.loc 3 66 0 discriminator 2
ARM GAS  C:\Users\ikomb\AppData\Local\Temp\cctq3ka9.s 			page 81


 1284 0038 BB68     		ldr	r3, [r7, #8]
 1285 003a 1B78     		ldrb	r3, [r3]	@ zero_extendqisi2
 1286 003c 022B     		cmp	r3, #2
 1287 003e 03D0     		beq	.L78
 1288              		.loc 3 66 0 discriminator 3
 1289 0040 4221     		movs	r1, #66
 1290 0042 8548     		ldr	r0, .L147+8
 1291 0044 FFF7FEFF 		bl	Cy_SysLib_AssertFailed
 1292              	.L78:
  67:Generated_Source\PSoC6\pdl\drivers\peripheral\scb/cy_scb_uart.c ****     CY_ASSERT_L3(CY_SCB_UART_IS_STOP_BITS_VALID(config->stopBits));
 1293              		.loc 3 67 0 is_stmt 1
 1294 0048 BB68     		ldr	r3, [r7, #8]
 1295 004a 5B7B     		ldrb	r3, [r3, #13]	@ zero_extendqisi2
 1296 004c 022B     		cmp	r3, #2
 1297 004e 1BD0     		beq	.L79
 1298              		.loc 3 67 0 is_stmt 0 discriminator 1
 1299 0050 BB68     		ldr	r3, [r7, #8]
 1300 0052 5B7B     		ldrb	r3, [r3, #13]	@ zero_extendqisi2
 1301 0054 032B     		cmp	r3, #3
 1302 0056 17D0     		beq	.L79
 1303              		.loc 3 67 0 discriminator 2
 1304 0058 BB68     		ldr	r3, [r7, #8]
 1305 005a 5B7B     		ldrb	r3, [r3, #13]	@ zero_extendqisi2
 1306 005c 042B     		cmp	r3, #4
 1307 005e 13D0     		beq	.L79
 1308              		.loc 3 67 0 discriminator 3
 1309 0060 BB68     		ldr	r3, [r7, #8]
 1310 0062 5B7B     		ldrb	r3, [r3, #13]	@ zero_extendqisi2
 1311 0064 052B     		cmp	r3, #5
 1312 0066 0FD0     		beq	.L79
 1313              		.loc 3 67 0 discriminator 4
 1314 0068 BB68     		ldr	r3, [r7, #8]
 1315 006a 5B7B     		ldrb	r3, [r3, #13]	@ zero_extendqisi2
 1316 006c 062B     		cmp	r3, #6
 1317 006e 0BD0     		beq	.L79
 1318              		.loc 3 67 0 discriminator 5
 1319 0070 BB68     		ldr	r3, [r7, #8]
 1320 0072 5B7B     		ldrb	r3, [r3, #13]	@ zero_extendqisi2
 1321 0074 072B     		cmp	r3, #7
 1322 0076 07D0     		beq	.L79
 1323              		.loc 3 67 0 discriminator 6
 1324 0078 BB68     		ldr	r3, [r7, #8]
 1325 007a 5B7B     		ldrb	r3, [r3, #13]	@ zero_extendqisi2
 1326 007c 082B     		cmp	r3, #8
 1327 007e 03D0     		beq	.L79
 1328              		.loc 3 67 0 discriminator 7
 1329 0080 4321     		movs	r1, #67
 1330 0082 7548     		ldr	r0, .L147+8
 1331 0084 FFF7FEFF 		bl	Cy_SysLib_AssertFailed
 1332              	.L79:
  68:Generated_Source\PSoC6\pdl\drivers\peripheral\scb/cy_scb_uart.c ****     CY_ASSERT_L3(CY_SCB_UART_IS_PARITY_VALID   (config->parity));
 1333              		.loc 3 68 0 is_stmt 1
 1334 0088 BB68     		ldr	r3, [r7, #8]
 1335 008a 9B7B     		ldrb	r3, [r3, #14]	@ zero_extendqisi2
 1336 008c 002B     		cmp	r3, #0
 1337 008e 0BD0     		beq	.L80
 1338              		.loc 3 68 0 is_stmt 0 discriminator 1
ARM GAS  C:\Users\ikomb\AppData\Local\Temp\cctq3ka9.s 			page 82


 1339 0090 BB68     		ldr	r3, [r7, #8]
 1340 0092 9B7B     		ldrb	r3, [r3, #14]	@ zero_extendqisi2
 1341 0094 022B     		cmp	r3, #2
 1342 0096 07D0     		beq	.L80
 1343              		.loc 3 68 0 discriminator 2
 1344 0098 BB68     		ldr	r3, [r7, #8]
 1345 009a 9B7B     		ldrb	r3, [r3, #14]	@ zero_extendqisi2
 1346 009c 032B     		cmp	r3, #3
 1347 009e 03D0     		beq	.L80
 1348              		.loc 3 68 0 discriminator 3
 1349 00a0 4421     		movs	r1, #68
 1350 00a2 6D48     		ldr	r0, .L147+8
 1351 00a4 FFF7FEFF 		bl	Cy_SysLib_AssertFailed
 1352              	.L80:
  69:Generated_Source\PSoC6\pdl\drivers\peripheral\scb/cy_scb_uart.c ****     CY_ASSERT_L3(CY_SCB_UART_IS_POLARITY_VALID (config->ctsPolarity));
 1353              		.loc 3 69 0 is_stmt 1
 1354 00a8 BB68     		ldr	r3, [r7, #8]
 1355 00aa 93F82130 		ldrb	r3, [r3, #33]	@ zero_extendqisi2
 1356 00ae 002B     		cmp	r3, #0
 1357 00b0 08D0     		beq	.L81
 1358              		.loc 3 69 0 is_stmt 0 discriminator 1
 1359 00b2 BB68     		ldr	r3, [r7, #8]
 1360 00b4 93F82130 		ldrb	r3, [r3, #33]	@ zero_extendqisi2
 1361 00b8 012B     		cmp	r3, #1
 1362 00ba 03D0     		beq	.L81
 1363              		.loc 3 69 0 discriminator 2
 1364 00bc 4521     		movs	r1, #69
 1365 00be 6648     		ldr	r0, .L147+8
 1366 00c0 FFF7FEFF 		bl	Cy_SysLib_AssertFailed
 1367              	.L81:
  70:Generated_Source\PSoC6\pdl\drivers\peripheral\scb/cy_scb_uart.c ****     CY_ASSERT_L3(CY_SCB_UART_IS_POLARITY_VALID (config->rtsPolarity));
 1368              		.loc 3 70 0 is_stmt 1
 1369 00c4 BB68     		ldr	r3, [r7, #8]
 1370 00c6 93F82830 		ldrb	r3, [r3, #40]	@ zero_extendqisi2
 1371 00ca 002B     		cmp	r3, #0
 1372 00cc 08D0     		beq	.L82
 1373              		.loc 3 70 0 is_stmt 0 discriminator 1
 1374 00ce BB68     		ldr	r3, [r7, #8]
 1375 00d0 93F82830 		ldrb	r3, [r3, #40]	@ zero_extendqisi2
 1376 00d4 012B     		cmp	r3, #1
 1377 00d6 03D0     		beq	.L82
 1378              		.loc 3 70 0 discriminator 2
 1379 00d8 4621     		movs	r1, #70
 1380 00da 5F48     		ldr	r0, .L147+8
 1381 00dc FFF7FEFF 		bl	Cy_SysLib_AssertFailed
 1382              	.L82:
  71:Generated_Source\PSoC6\pdl\drivers\peripheral\scb/cy_scb_uart.c **** 
  72:Generated_Source\PSoC6\pdl\drivers\peripheral\scb/cy_scb_uart.c ****     CY_ASSERT_L2(CY_SCB_UART_IS_OVERSAMPLE_VALID  (config->oversample, config->uartMode, config->ir
 1383              		.loc 3 72 0 is_stmt 1
 1384 00e0 BB68     		ldr	r3, [r7, #8]
 1385 00e2 1B78     		ldrb	r3, [r3]	@ zero_extendqisi2
 1386 00e4 002B     		cmp	r3, #0
 1387 00e6 03D0     		beq	.L83
 1388              		.loc 3 72 0 is_stmt 0 discriminator 2
 1389 00e8 BB68     		ldr	r3, [r7, #8]
 1390 00ea 1B78     		ldrb	r3, [r3]	@ zero_extendqisi2
 1391 00ec 012B     		cmp	r3, #1
ARM GAS  C:\Users\ikomb\AppData\Local\Temp\cctq3ka9.s 			page 83


 1392 00ee 0ED1     		bne	.L84
 1393              	.L83:
 1394              		.loc 3 72 0 discriminator 3
 1395 00f0 BB68     		ldr	r3, [r7, #8]
 1396 00f2 5B68     		ldr	r3, [r3, #4]
 1397 00f4 072B     		cmp	r3, #7
 1398 00f6 03D9     		bls	.L85
 1399              		.loc 3 72 0 discriminator 6
 1400 00f8 BB68     		ldr	r3, [r7, #8]
 1401 00fa 5B68     		ldr	r3, [r3, #4]
 1402 00fc 102B     		cmp	r3, #16
 1403 00fe 01D9     		bls	.L86
 1404              	.L85:
 1405              		.loc 3 72 0 discriminator 7
 1406 0100 0123     		movs	r3, #1
 1407 0102 00E0     		b	.L87
 1408              	.L86:
 1409              		.loc 3 72 0 discriminator 8
 1410 0104 0023     		movs	r3, #0
 1411              	.L87:
 1412              		.loc 3 72 0 discriminator 10
 1413 0106 03F00103 		and	r3, r3, #1
 1414 010a DBB2     		uxtb	r3, r3
 1415 010c 27E0     		b	.L88
 1416              	.L84:
 1417              		.loc 3 72 0 discriminator 4
 1418 010e BB68     		ldr	r3, [r7, #8]
 1419 0110 9B7F     		ldrb	r3, [r3, #30]	@ zero_extendqisi2
 1420 0112 002B     		cmp	r3, #0
 1421 0114 22D0     		beq	.L89
 1422              		.loc 3 72 0 discriminator 12
 1423 0116 BB68     		ldr	r3, [r7, #8]
 1424 0118 5B68     		ldr	r3, [r3, #4]
 1425 011a 012B     		cmp	r3, #1
 1426 011c 19D0     		beq	.L90
 1427              		.loc 3 72 0 discriminator 14
 1428 011e BB68     		ldr	r3, [r7, #8]
 1429 0120 5B68     		ldr	r3, [r3, #4]
 1430 0122 022B     		cmp	r3, #2
 1431 0124 15D0     		beq	.L90
 1432              		.loc 3 72 0 discriminator 16
 1433 0126 BB68     		ldr	r3, [r7, #8]
 1434 0128 5B68     		ldr	r3, [r3, #4]
 1435 012a 032B     		cmp	r3, #3
 1436 012c 11D0     		beq	.L90
 1437              		.loc 3 72 0 discriminator 18
 1438 012e BB68     		ldr	r3, [r7, #8]
 1439 0130 5B68     		ldr	r3, [r3, #4]
 1440 0132 042B     		cmp	r3, #4
 1441 0134 0DD0     		beq	.L90
 1442              		.loc 3 72 0 discriminator 20
 1443 0136 BB68     		ldr	r3, [r7, #8]
 1444 0138 5B68     		ldr	r3, [r3, #4]
 1445 013a 052B     		cmp	r3, #5
 1446 013c 09D0     		beq	.L90
 1447              		.loc 3 72 0 discriminator 22
 1448 013e BB68     		ldr	r3, [r7, #8]
ARM GAS  C:\Users\ikomb\AppData\Local\Temp\cctq3ka9.s 			page 84


 1449 0140 5B68     		ldr	r3, [r3, #4]
 1450 0142 062B     		cmp	r3, #6
 1451 0144 05D0     		beq	.L90
 1452              		.loc 3 72 0 discriminator 24
 1453 0146 BB68     		ldr	r3, [r7, #8]
 1454 0148 5B68     		ldr	r3, [r3, #4]
 1455 014a 072B     		cmp	r3, #7
 1456 014c 01D0     		beq	.L90
 1457              		.loc 3 72 0 discriminator 26
 1458 014e 0123     		movs	r3, #1
 1459 0150 00E0     		b	.L91
 1460              	.L90:
 1461              		.loc 3 72 0 discriminator 27
 1462 0152 0023     		movs	r3, #0
 1463              	.L91:
 1464              		.loc 3 72 0 discriminator 29
 1465 0154 03F00103 		and	r3, r3, #1
 1466 0158 DBB2     		uxtb	r3, r3
 1467 015a 00E0     		b	.L88
 1468              	.L89:
 1469              		.loc 3 72 0 discriminator 13
 1470 015c 0023     		movs	r3, #0
 1471              	.L88:
 1472              		.loc 3 72 0 discriminator 32
 1473 015e 002B     		cmp	r3, #0
 1474 0160 03D0     		beq	.L93
 1475              		.loc 3 72 0 discriminator 33
 1476 0162 4821     		movs	r1, #72
 1477 0164 3C48     		ldr	r0, .L147+8
 1478 0166 FFF7FEFF 		bl	Cy_SysLib_AssertFailed
 1479              	.L93:
  73:Generated_Source\PSoC6\pdl\drivers\peripheral\scb/cy_scb_uart.c ****     CY_ASSERT_L2(CY_SCB_UART_IS_DATA_WIDTH_VALID  (config->dataWidth));
 1480              		.loc 3 73 0 is_stmt 1
 1481 016a BB68     		ldr	r3, [r7, #8]
 1482 016c 9B68     		ldr	r3, [r3, #8]
 1483 016e 042B     		cmp	r3, #4
 1484 0170 03D9     		bls	.L94
 1485              		.loc 3 73 0 is_stmt 0 discriminator 2
 1486 0172 BB68     		ldr	r3, [r7, #8]
 1487 0174 9B68     		ldr	r3, [r3, #8]
 1488 0176 092B     		cmp	r3, #9
 1489 0178 03D9     		bls	.L95
 1490              	.L94:
 1491              		.loc 3 73 0 discriminator 3
 1492 017a 4921     		movs	r1, #73
 1493 017c 3648     		ldr	r0, .L147+8
 1494 017e FFF7FEFF 		bl	Cy_SysLib_AssertFailed
 1495              	.L95:
  74:Generated_Source\PSoC6\pdl\drivers\peripheral\scb/cy_scb_uart.c ****     CY_ASSERT_L2(CY_SCB_UART_IS_ADDRESS_VALID     (config->receiverAddress));
 1496              		.loc 3 74 0 is_stmt 1
 1497 0182 BB68     		ldr	r3, [r7, #8]
 1498 0184 5B69     		ldr	r3, [r3, #20]
 1499 0186 FF2B     		cmp	r3, #255
 1500 0188 03D9     		bls	.L96
 1501              		.loc 3 74 0 is_stmt 0 discriminator 1
 1502 018a 4A21     		movs	r1, #74
 1503 018c 3248     		ldr	r0, .L147+8
ARM GAS  C:\Users\ikomb\AppData\Local\Temp\cctq3ka9.s 			page 85


 1504 018e FFF7FEFF 		bl	Cy_SysLib_AssertFailed
 1505              	.L96:
  75:Generated_Source\PSoC6\pdl\drivers\peripheral\scb/cy_scb_uart.c ****     CY_ASSERT_L2(CY_SCB_UART_IS_ADDRESS_MASK_VALID(config->receiverAddressMask));
 1506              		.loc 3 75 0 is_stmt 1
 1507 0192 BB68     		ldr	r3, [r7, #8]
 1508 0194 9B69     		ldr	r3, [r3, #24]
 1509 0196 FF2B     		cmp	r3, #255
 1510 0198 03D9     		bls	.L97
 1511              		.loc 3 75 0 is_stmt 0 discriminator 1
 1512 019a 4B21     		movs	r1, #75
 1513 019c 2E48     		ldr	r0, .L147+8
 1514 019e FFF7FEFF 		bl	Cy_SysLib_AssertFailed
 1515              	.L97:
  76:Generated_Source\PSoC6\pdl\drivers\peripheral\scb/cy_scb_uart.c ****     CY_ASSERT_L2(CY_SCB_UART_IS_MUTLI_PROC_VALID  (config->enableMutliProcessorMode, config->uartMo
 1516              		.loc 3 76 0 is_stmt 1
 1517 01a2 BB68     		ldr	r3, [r7, #8]
 1518 01a4 9B7C     		ldrb	r3, [r3, #18]	@ zero_extendqisi2
 1519 01a6 002B     		cmp	r3, #0
 1520 01a8 12D0     		beq	.L98
 1521              		.loc 3 76 0 is_stmt 0 discriminator 1
 1522 01aa BB68     		ldr	r3, [r7, #8]
 1523 01ac 1B78     		ldrb	r3, [r3]	@ zero_extendqisi2
 1524 01ae 002B     		cmp	r3, #0
 1525 01b0 07D1     		bne	.L99
 1526              		.loc 3 76 0 discriminator 4
 1527 01b2 BB68     		ldr	r3, [r7, #8]
 1528 01b4 9B68     		ldr	r3, [r3, #8]
 1529 01b6 092B     		cmp	r3, #9
 1530 01b8 03D1     		bne	.L99
 1531              		.loc 3 76 0 discriminator 6
 1532 01ba BB68     		ldr	r3, [r7, #8]
 1533 01bc 9B7B     		ldrb	r3, [r3, #14]	@ zero_extendqisi2
 1534 01be 002B     		cmp	r3, #0
 1535 01c0 01D0     		beq	.L100
 1536              	.L99:
 1537              		.loc 3 76 0 discriminator 7
 1538 01c2 0123     		movs	r3, #1
 1539 01c4 00E0     		b	.L101
 1540              	.L100:
 1541              		.loc 3 76 0 discriminator 8
 1542 01c6 0023     		movs	r3, #0
 1543              	.L101:
 1544              		.loc 3 76 0 discriminator 10
 1545 01c8 03F00103 		and	r3, r3, #1
 1546 01cc DBB2     		uxtb	r3, r3
 1547 01ce 00E0     		b	.L102
 1548              	.L98:
 1549              		.loc 3 76 0 discriminator 2
 1550 01d0 0023     		movs	r3, #0
 1551              	.L102:
 1552              		.loc 3 76 0 discriminator 12
 1553 01d2 002B     		cmp	r3, #0
 1554 01d4 03D0     		beq	.L103
 1555              		.loc 3 76 0 discriminator 13
 1556 01d6 4D21     		movs	r1, #77
 1557 01d8 1F48     		ldr	r0, .L147+8
 1558 01da FFF7FEFF 		bl	Cy_SysLib_AssertFailed
ARM GAS  C:\Users\ikomb\AppData\Local\Temp\cctq3ka9.s 			page 86


 1559              	.L103:
  77:Generated_Source\PSoC6\pdl\drivers\peripheral\scb/cy_scb_uart.c ****                                                    config->parity));
  78:Generated_Source\PSoC6\pdl\drivers\peripheral\scb/cy_scb_uart.c **** 
  79:Generated_Source\PSoC6\pdl\drivers\peripheral\scb/cy_scb_uart.c ****     CY_ASSERT_L2(CY_SCB_IS_INTR_VALID(config->rxFifoIntEnableMask, CY_SCB_UART_RX_INTR_MASK));
 1560              		.loc 3 79 0 is_stmt 1
 1561 01de BB68     		ldr	r3, [r7, #8]
 1562 01e0 5B6B     		ldr	r3, [r3, #52]
 1563 01e2 23F43663 		bic	r3, r3, #2912
 1564 01e6 23F00D03 		bic	r3, r3, #13
 1565 01ea 002B     		cmp	r3, #0
 1566 01ec 03D0     		beq	.L104
 1567              		.loc 3 79 0 is_stmt 0 discriminator 1
 1568 01ee 4F21     		movs	r1, #79
 1569 01f0 1948     		ldr	r0, .L147+8
 1570 01f2 FFF7FEFF 		bl	Cy_SysLib_AssertFailed
 1571              	.L104:
  80:Generated_Source\PSoC6\pdl\drivers\peripheral\scb/cy_scb_uart.c ****     CY_ASSERT_L2(CY_SCB_IS_INTR_VALID(config->txFifoIntEnableMask, CY_SCB_UART_TX_INTR_MASK));
 1572              		.loc 3 80 0 is_stmt 1
 1573 01f6 BB68     		ldr	r3, [r7, #8]
 1574 01f8 DB6B     		ldr	r3, [r3, #60]
 1575 01fa 23F4EE63 		bic	r3, r3, #1904
 1576 01fe 23F00303 		bic	r3, r3, #3
 1577 0202 002B     		cmp	r3, #0
 1578 0204 03D0     		beq	.L105
 1579              		.loc 3 80 0 is_stmt 0 discriminator 1
 1580 0206 5021     		movs	r1, #80
 1581 0208 1348     		ldr	r0, .L147+8
 1582 020a FFF7FEFF 		bl	Cy_SysLib_AssertFailed
 1583              	.L105:
  81:Generated_Source\PSoC6\pdl\drivers\peripheral\scb/cy_scb_uart.c **** 
  82:Generated_Source\PSoC6\pdl\drivers\peripheral\scb/cy_scb_uart.c ****     uint32_t ovs;
  83:Generated_Source\PSoC6\pdl\drivers\peripheral\scb/cy_scb_uart.c **** 
  84:Generated_Source\PSoC6\pdl\drivers\peripheral\scb/cy_scb_uart.c ****     if ((CY_SCB_UART_IRDA == config->uartMode) && (!config->irdaEnableLowPowerReceiver))
 1584              		.loc 3 84 0 is_stmt 1
 1585 020e BB68     		ldr	r3, [r7, #8]
 1586 0210 1B78     		ldrb	r3, [r3]	@ zero_extendqisi2
 1587 0212 022B     		cmp	r3, #2
 1588 0214 09D1     		bne	.L106
 1589              		.loc 3 84 0 is_stmt 0 discriminator 1
 1590 0216 BB68     		ldr	r3, [r7, #8]
 1591 0218 9B7F     		ldrb	r3, [r3, #30]	@ zero_extendqisi2
 1592 021a 83F00103 		eor	r3, r3, #1
 1593 021e DBB2     		uxtb	r3, r3
 1594 0220 002B     		cmp	r3, #0
 1595 0222 02D0     		beq	.L106
  85:Generated_Source\PSoC6\pdl\drivers\peripheral\scb/cy_scb_uart.c ****     {
  86:Generated_Source\PSoC6\pdl\drivers\peripheral\scb/cy_scb_uart.c ****         /* For Normal IrDA mode oversampling is always zero */
  87:Generated_Source\PSoC6\pdl\drivers\peripheral\scb/cy_scb_uart.c ****         ovs = 0UL;
 1596              		.loc 3 87 0 is_stmt 1
 1597 0224 0023     		movs	r3, #0
 1598 0226 7B61     		str	r3, [r7, #20]
 1599 0228 03E0     		b	.L107
 1600              	.L106:
  88:Generated_Source\PSoC6\pdl\drivers\peripheral\scb/cy_scb_uart.c ****     }
  89:Generated_Source\PSoC6\pdl\drivers\peripheral\scb/cy_scb_uart.c ****     else
  90:Generated_Source\PSoC6\pdl\drivers\peripheral\scb/cy_scb_uart.c ****     {
  91:Generated_Source\PSoC6\pdl\drivers\peripheral\scb/cy_scb_uart.c ****         ovs = (config->oversample - 1UL);
ARM GAS  C:\Users\ikomb\AppData\Local\Temp\cctq3ka9.s 			page 87


 1601              		.loc 3 91 0
 1602 022a BB68     		ldr	r3, [r7, #8]
 1603 022c 5B68     		ldr	r3, [r3, #4]
 1604 022e 013B     		subs	r3, r3, #1
 1605 0230 7B61     		str	r3, [r7, #20]
 1606              	.L107:
  92:Generated_Source\PSoC6\pdl\drivers\peripheral\scb/cy_scb_uart.c ****     }
  93:Generated_Source\PSoC6\pdl\drivers\peripheral\scb/cy_scb_uart.c **** 
  94:Generated_Source\PSoC6\pdl\drivers\peripheral\scb/cy_scb_uart.c ****     /* Configure the UART interface */
  95:Generated_Source\PSoC6\pdl\drivers\peripheral\scb/cy_scb_uart.c ****     base->CTRL = _BOOL2FLD(SCB_CTRL_ADDR_ACCEPT, config->acceptAddrInFifo)               |
 1607              		.loc 3 95 0
 1608 0232 BB68     		ldr	r3, [r7, #8]
 1609 0234 1B7F     		ldrb	r3, [r3, #28]	@ zero_extendqisi2
 1610 0236 002B     		cmp	r3, #0
 1611 0238 02D0     		beq	.L108
 1612              		.loc 3 95 0 is_stmt 0 discriminator 1
 1613 023a 4FF48032 		mov	r2, #65536
 1614 023e 00E0     		b	.L109
 1615              	.L108:
 1616              		.loc 3 95 0 discriminator 2
 1617 0240 0022     		movs	r2, #0
 1618              	.L109:
  96:Generated_Source\PSoC6\pdl\drivers\peripheral\scb/cy_scb_uart.c ****                  _BOOL2FLD(SCB_CTRL_BYTE_MODE, (config->dataWidth <= CY_SCB_BYTE_WIDTH)) |
 1619              		.loc 3 96 0 is_stmt 1
 1620 0242 BB68     		ldr	r3, [r7, #8]
 1621 0244 9B68     		ldr	r3, [r3, #8]
 1622 0246 082B     		cmp	r3, #8
 1623 0248 08D8     		bhi	.L110
 1624              		.loc 3 96 0 is_stmt 0 discriminator 1
 1625 024a 4FF40063 		mov	r3, #2048
 1626 024e 06E0     		b	.L111
 1627              	.L148:
 1628              		.align	2
 1629              	.L147:
 1630 0250 0160AA00 		.word	11165697
 1631 0254 00006940 		.word	1080623104
 1632 0258 84000000 		.word	.LC2
 1633              	.L110:
 1634              		.loc 3 96 0 discriminator 2
 1635 025c 0023     		movs	r3, #0
 1636              	.L111:
  95:Generated_Source\PSoC6\pdl\drivers\peripheral\scb/cy_scb_uart.c ****                  _BOOL2FLD(SCB_CTRL_BYTE_MODE, (config->dataWidth <= CY_SCB_BYTE_WIDTH)) |
 1637              		.loc 3 95 0 is_stmt 1
 1638 025e 1A43     		orrs	r2, r2, r3
  97:Generated_Source\PSoC6\pdl\drivers\peripheral\scb/cy_scb_uart.c ****                  _VAL2FLD(SCB_CTRL_OVS, ovs)                                             |
 1639              		.loc 3 97 0
 1640 0260 7B69     		ldr	r3, [r7, #20]
 1641 0262 03F00F03 		and	r3, r3, #15
  96:Generated_Source\PSoC6\pdl\drivers\peripheral\scb/cy_scb_uart.c ****                  _BOOL2FLD(SCB_CTRL_BYTE_MODE, (config->dataWidth <= CY_SCB_BYTE_WIDTH)) |
 1642              		.loc 3 96 0
 1643 0266 1343     		orrs	r3, r3, r2
 1644              		.loc 3 97 0
 1645 0268 43F00072 		orr	r2, r3, #33554432
  95:Generated_Source\PSoC6\pdl\drivers\peripheral\scb/cy_scb_uart.c ****                  _BOOL2FLD(SCB_CTRL_BYTE_MODE, (config->dataWidth <= CY_SCB_BYTE_WIDTH)) |
 1646              		.loc 3 95 0
 1647 026c FB68     		ldr	r3, [r7, #12]
 1648 026e 1A60     		str	r2, [r3]
ARM GAS  C:\Users\ikomb\AppData\Local\Temp\cctq3ka9.s 			page 88


  98:Generated_Source\PSoC6\pdl\drivers\peripheral\scb/cy_scb_uart.c ****                  _VAL2FLD(SCB_CTRL_MODE, CY_SCB_CTRL_MODE_UART);
  99:Generated_Source\PSoC6\pdl\drivers\peripheral\scb/cy_scb_uart.c **** 
 100:Generated_Source\PSoC6\pdl\drivers\peripheral\scb/cy_scb_uart.c ****     /* Configure SCB_CTRL.BYTE_MODE then verify levels */
 101:Generated_Source\PSoC6\pdl\drivers\peripheral\scb/cy_scb_uart.c ****     CY_ASSERT_L2(CY_SCB_IS_TRIGGER_LEVEL_VALID(base, config->rxFifoTriggerLevel));
 1649              		.loc 3 101 0
 1650 0270 BB68     		ldr	r3, [r7, #8]
 1651 0272 1C6B     		ldr	r4, [r3, #48]
 1652 0274 F868     		ldr	r0, [r7, #12]
 1653 0276 FFF7FEFF 		bl	Cy_SCB_GetFifoSize
 1654 027a 0346     		mov	r3, r0
 1655 027c 9C42     		cmp	r4, r3
 1656 027e 03D3     		bcc	.L112
 1657              		.loc 3 101 0 is_stmt 0 discriminator 1
 1658 0280 6521     		movs	r1, #101
 1659 0282 9948     		ldr	r0, .L149
 1660 0284 FFF7FEFF 		bl	Cy_SysLib_AssertFailed
 1661              	.L112:
 102:Generated_Source\PSoC6\pdl\drivers\peripheral\scb/cy_scb_uart.c ****     CY_ASSERT_L2(CY_SCB_IS_TRIGGER_LEVEL_VALID(base, config->txFifoTriggerLevel));
 1662              		.loc 3 102 0 is_stmt 1
 1663 0288 BB68     		ldr	r3, [r7, #8]
 1664 028a 9C6B     		ldr	r4, [r3, #56]
 1665 028c F868     		ldr	r0, [r7, #12]
 1666 028e FFF7FEFF 		bl	Cy_SCB_GetFifoSize
 1667 0292 0346     		mov	r3, r0
 1668 0294 9C42     		cmp	r4, r3
 1669 0296 03D3     		bcc	.L113
 1670              		.loc 3 102 0 is_stmt 0 discriminator 1
 1671 0298 6621     		movs	r1, #102
 1672 029a 9348     		ldr	r0, .L149
 1673 029c FFF7FEFF 		bl	Cy_SysLib_AssertFailed
 1674              	.L113:
 103:Generated_Source\PSoC6\pdl\drivers\peripheral\scb/cy_scb_uart.c ****     CY_ASSERT_L2(CY_SCB_IS_TRIGGER_LEVEL_VALID(base, config->rtsRxFifoLevel));
 1675              		.loc 3 103 0 is_stmt 1
 1676 02a0 BB68     		ldr	r3, [r7, #8]
 1677 02a2 5C6A     		ldr	r4, [r3, #36]
 1678 02a4 F868     		ldr	r0, [r7, #12]
 1679 02a6 FFF7FEFF 		bl	Cy_SCB_GetFifoSize
 1680 02aa 0346     		mov	r3, r0
 1681 02ac 9C42     		cmp	r4, r3
 1682 02ae 03D3     		bcc	.L114
 1683              		.loc 3 103 0 is_stmt 0 discriminator 1
 1684 02b0 6721     		movs	r1, #103
 1685 02b2 8D48     		ldr	r0, .L149
 1686 02b4 FFF7FEFF 		bl	Cy_SysLib_AssertFailed
 1687              	.L114:
 104:Generated_Source\PSoC6\pdl\drivers\peripheral\scb/cy_scb_uart.c **** 
 105:Generated_Source\PSoC6\pdl\drivers\peripheral\scb/cy_scb_uart.c ****     base->UART_CTRL = _VAL2FLD(SCB_UART_CTRL_MODE, (uint32_t) config->uartMode);
 1688              		.loc 3 105 0 is_stmt 1
 1689 02b8 BB68     		ldr	r3, [r7, #8]
 1690 02ba 1B78     		ldrb	r3, [r3]	@ zero_extendqisi2
 1691 02bc 1B06     		lsls	r3, r3, #24
 1692 02be 03F04072 		and	r2, r3, #50331648
 1693 02c2 FB68     		ldr	r3, [r7, #12]
 1694 02c4 1A64     		str	r2, [r3, #64]
 106:Generated_Source\PSoC6\pdl\drivers\peripheral\scb/cy_scb_uart.c **** 
 107:Generated_Source\PSoC6\pdl\drivers\peripheral\scb/cy_scb_uart.c ****     /* Configure the RX direction */
 108:Generated_Source\PSoC6\pdl\drivers\peripheral\scb/cy_scb_uart.c ****     base->UART_RX_CTRL = _BOOL2FLD(SCB_UART_RX_CTRL_POLARITY, config->irdaInvertRx)                
ARM GAS  C:\Users\ikomb\AppData\Local\Temp\cctq3ka9.s 			page 89


 1695              		.loc 3 108 0
 1696 02c6 BB68     		ldr	r3, [r7, #8]
 1697 02c8 5B7F     		ldrb	r3, [r3, #29]	@ zero_extendqisi2
 1698 02ca 002B     		cmp	r3, #0
 1699 02cc 01D0     		beq	.L115
 1700              		.loc 3 108 0 is_stmt 0 discriminator 1
 1701 02ce 4022     		movs	r2, #64
 1702 02d0 00E0     		b	.L116
 1703              	.L115:
 1704              		.loc 3 108 0 discriminator 2
 1705 02d2 0022     		movs	r2, #0
 1706              	.L116:
 109:Generated_Source\PSoC6\pdl\drivers\peripheral\scb/cy_scb_uart.c ****                          _BOOL2FLD(SCB_UART_RX_CTRL_MP_MODE, config->enableMutliProcessorMode)     
 1707              		.loc 3 109 0 is_stmt 1
 1708 02d4 BB68     		ldr	r3, [r7, #8]
 1709 02d6 9B7C     		ldrb	r3, [r3, #18]	@ zero_extendqisi2
 1710 02d8 002B     		cmp	r3, #0
 1711 02da 02D0     		beq	.L117
 1712              		.loc 3 109 0 is_stmt 0 discriminator 1
 1713 02dc 4FF48063 		mov	r3, #1024
 1714 02e0 00E0     		b	.L118
 1715              	.L117:
 1716              		.loc 3 109 0 discriminator 2
 1717 02e2 0023     		movs	r3, #0
 1718              	.L118:
 108:Generated_Source\PSoC6\pdl\drivers\peripheral\scb/cy_scb_uart.c ****                          _BOOL2FLD(SCB_UART_RX_CTRL_MP_MODE, config->enableMutliProcessorMode)     
 1719              		.loc 3 108 0 is_stmt 1
 1720 02e4 1A43     		orrs	r2, r2, r3
 110:Generated_Source\PSoC6\pdl\drivers\peripheral\scb/cy_scb_uart.c ****                          _BOOL2FLD(SCB_UART_RX_CTRL_DROP_ON_PARITY_ERROR, config->dropOnParityError
 1721              		.loc 3 110 0
 1722 02e6 BB68     		ldr	r3, [r7, #8]
 1723 02e8 1B7C     		ldrb	r3, [r3, #16]	@ zero_extendqisi2
 1724 02ea 002B     		cmp	r3, #0
 1725 02ec 02D0     		beq	.L119
 1726              		.loc 3 110 0 is_stmt 0 discriminator 1
 1727 02ee 4FF48073 		mov	r3, #256
 1728 02f2 00E0     		b	.L120
 1729              	.L119:
 1730              		.loc 3 110 0 discriminator 2
 1731 02f4 0023     		movs	r3, #0
 1732              	.L120:
 109:Generated_Source\PSoC6\pdl\drivers\peripheral\scb/cy_scb_uart.c ****                          _BOOL2FLD(SCB_UART_RX_CTRL_MP_MODE, config->enableMutliProcessorMode)     
 1733              		.loc 3 109 0 is_stmt 1
 1734 02f6 1A43     		orrs	r2, r2, r3
 111:Generated_Source\PSoC6\pdl\drivers\peripheral\scb/cy_scb_uart.c ****                          _BOOL2FLD(SCB_UART_RX_CTRL_DROP_ON_FRAME_ERROR, config->dropOnFrameError) 
 1735              		.loc 3 111 0
 1736 02f8 BB68     		ldr	r3, [r7, #8]
 1737 02fa 5B7C     		ldrb	r3, [r3, #17]	@ zero_extendqisi2
 1738 02fc 002B     		cmp	r3, #0
 1739 02fe 02D0     		beq	.L121
 1740              		.loc 3 111 0 is_stmt 0 discriminator 1
 1741 0300 4FF40073 		mov	r3, #512
 1742 0304 00E0     		b	.L122
 1743              	.L121:
 1744              		.loc 3 111 0 discriminator 2
 1745 0306 0023     		movs	r3, #0
 1746              	.L122:
ARM GAS  C:\Users\ikomb\AppData\Local\Temp\cctq3ka9.s 			page 90


 110:Generated_Source\PSoC6\pdl\drivers\peripheral\scb/cy_scb_uart.c ****                          _BOOL2FLD(SCB_UART_RX_CTRL_DROP_ON_PARITY_ERROR, config->dropOnParityError
 1747              		.loc 3 110 0 is_stmt 1
 1748 0308 1A43     		orrs	r2, r2, r3
 112:Generated_Source\PSoC6\pdl\drivers\peripheral\scb/cy_scb_uart.c ****                          _VAL2FLD(SCB_UART_RX_CTRL_BREAK_WIDTH, (config->breakWidth - 1UL))        
 1749              		.loc 3 112 0
 1750 030a BB68     		ldr	r3, [r7, #8]
 1751 030c DB6A     		ldr	r3, [r3, #44]
 1752 030e 013B     		subs	r3, r3, #1
 1753 0310 1B04     		lsls	r3, r3, #16
 1754 0312 03F47023 		and	r3, r3, #983040
 111:Generated_Source\PSoC6\pdl\drivers\peripheral\scb/cy_scb_uart.c ****                          _BOOL2FLD(SCB_UART_RX_CTRL_DROP_ON_FRAME_ERROR, config->dropOnFrameError) 
 1755              		.loc 3 111 0
 1756 0316 1A43     		orrs	r2, r2, r3
 113:Generated_Source\PSoC6\pdl\drivers\peripheral\scb/cy_scb_uart.c ****                          _VAL2FLD(SCB_UART_RX_CTRL_STOP_BITS,   ((uint32_t) config->stopBits) - 1UL
 1757              		.loc 3 113 0
 1758 0318 BB68     		ldr	r3, [r7, #8]
 1759 031a 5B7B     		ldrb	r3, [r3, #13]	@ zero_extendqisi2
 1760 031c 013B     		subs	r3, r3, #1
 1761 031e 03F00703 		and	r3, r3, #7
 112:Generated_Source\PSoC6\pdl\drivers\peripheral\scb/cy_scb_uart.c ****                          _VAL2FLD(SCB_UART_RX_CTRL_BREAK_WIDTH, (config->breakWidth - 1UL))        
 1762              		.loc 3 112 0
 1763 0322 1A43     		orrs	r2, r2, r3
 114:Generated_Source\PSoC6\pdl\drivers\peripheral\scb/cy_scb_uart.c ****                          _VAL2FLD(CY_SCB_UART_RX_CTRL_SET_PARITY, (uint32_t) config->parity);
 1764              		.loc 3 114 0
 1765 0324 BB68     		ldr	r3, [r7, #8]
 1766 0326 9B7B     		ldrb	r3, [r3, #14]	@ zero_extendqisi2
 1767 0328 1B01     		lsls	r3, r3, #4
 1768 032a 03F03003 		and	r3, r3, #48
 113:Generated_Source\PSoC6\pdl\drivers\peripheral\scb/cy_scb_uart.c ****                          _VAL2FLD(SCB_UART_RX_CTRL_STOP_BITS,   ((uint32_t) config->stopBits) - 1UL
 1769              		.loc 3 113 0
 1770 032e 1A43     		orrs	r2, r2, r3
 108:Generated_Source\PSoC6\pdl\drivers\peripheral\scb/cy_scb_uart.c ****                          _BOOL2FLD(SCB_UART_RX_CTRL_MP_MODE, config->enableMutliProcessorMode)     
 1771              		.loc 3 108 0
 1772 0330 FB68     		ldr	r3, [r7, #12]
 1773 0332 9A64     		str	r2, [r3, #72]
 115:Generated_Source\PSoC6\pdl\drivers\peripheral\scb/cy_scb_uart.c **** 
 116:Generated_Source\PSoC6\pdl\drivers\peripheral\scb/cy_scb_uart.c ****     base->RX_CTRL = _BOOL2FLD(SCB_RX_CTRL_MSB_FIRST, config->enableMsbFirst)          |
 1774              		.loc 3 116 0
 1775 0334 BB68     		ldr	r3, [r7, #8]
 1776 0336 1B7B     		ldrb	r3, [r3, #12]	@ zero_extendqisi2
 1777 0338 002B     		cmp	r3, #0
 1778 033a 02D0     		beq	.L123
 1779              		.loc 3 116 0 is_stmt 0 discriminator 1
 1780 033c 4FF48072 		mov	r2, #256
 1781 0340 00E0     		b	.L124
 1782              	.L123:
 1783              		.loc 3 116 0 discriminator 2
 1784 0342 0022     		movs	r2, #0
 1785              	.L124:
 117:Generated_Source\PSoC6\pdl\drivers\peripheral\scb/cy_scb_uart.c ****                     _BOOL2FLD(SCB_RX_CTRL_MEDIAN, ((config->enableInputFilter) || \
 1786              		.loc 3 117 0 is_stmt 1
 1787 0344 BB68     		ldr	r3, [r7, #8]
 1788 0346 DB7B     		ldrb	r3, [r3, #15]	@ zero_extendqisi2
 1789 0348 002B     		cmp	r3, #0
 1790 034a 03D1     		bne	.L125
 1791              		.loc 3 117 0 is_stmt 0 discriminator 2
 1792 034c BB68     		ldr	r3, [r7, #8]
ARM GAS  C:\Users\ikomb\AppData\Local\Temp\cctq3ka9.s 			page 91


 1793 034e 1B78     		ldrb	r3, [r3]	@ zero_extendqisi2
 1794 0350 022B     		cmp	r3, #2
 1795 0352 01D1     		bne	.L126
 1796              	.L125:
 1797              		.loc 3 117 0 discriminator 3
 1798 0354 0123     		movs	r3, #1
 1799 0356 00E0     		b	.L127
 1800              	.L126:
 1801              		.loc 3 117 0 discriminator 4
 1802 0358 0023     		movs	r3, #0
 1803              	.L127:
 1804              		.loc 3 117 0 discriminator 6
 1805 035a 002B     		cmp	r3, #0
 1806 035c 02D0     		beq	.L128
 1807              		.loc 3 117 0 discriminator 7
 1808 035e 4FF40073 		mov	r3, #512
 1809 0362 00E0     		b	.L129
 1810              	.L128:
 1811              		.loc 3 117 0 discriminator 8
 1812 0364 0023     		movs	r3, #0
 1813              	.L129:
 116:Generated_Source\PSoC6\pdl\drivers\peripheral\scb/cy_scb_uart.c ****                     _BOOL2FLD(SCB_RX_CTRL_MEDIAN, ((config->enableInputFilter) || \
 1814              		.loc 3 116 0 is_stmt 1
 1815 0366 1A43     		orrs	r2, r2, r3
 118:Generated_Source\PSoC6\pdl\drivers\peripheral\scb/cy_scb_uart.c ****                                              (config->uartMode == CY_SCB_UART_IRDA))) |
 119:Generated_Source\PSoC6\pdl\drivers\peripheral\scb/cy_scb_uart.c ****                     _VAL2FLD(SCB_RX_CTRL_DATA_WIDTH, (config->dataWidth - 1UL));
 1816              		.loc 3 119 0
 1817 0368 BB68     		ldr	r3, [r7, #8]
 1818 036a 9B68     		ldr	r3, [r3, #8]
 1819 036c 013B     		subs	r3, r3, #1
 1820 036e 03F00F03 		and	r3, r3, #15
 118:Generated_Source\PSoC6\pdl\drivers\peripheral\scb/cy_scb_uart.c ****                                              (config->uartMode == CY_SCB_UART_IRDA))) |
 1821              		.loc 3 118 0
 1822 0372 1A43     		orrs	r2, r2, r3
 116:Generated_Source\PSoC6\pdl\drivers\peripheral\scb/cy_scb_uart.c ****                     _BOOL2FLD(SCB_RX_CTRL_MEDIAN, ((config->enableInputFilter) || \
 1823              		.loc 3 116 0
 1824 0374 FB68     		ldr	r3, [r7, #12]
 1825 0376 C3F80023 		str	r2, [r3, #768]
 120:Generated_Source\PSoC6\pdl\drivers\peripheral\scb/cy_scb_uart.c **** 
 121:Generated_Source\PSoC6\pdl\drivers\peripheral\scb/cy_scb_uart.c ****     base->RX_MATCH = _VAL2FLD(SCB_RX_MATCH_ADDR, config->receiverAddress) |
 1826              		.loc 3 121 0
 1827 037a BB68     		ldr	r3, [r7, #8]
 1828 037c 5B69     		ldr	r3, [r3, #20]
 1829 037e DAB2     		uxtb	r2, r3
 122:Generated_Source\PSoC6\pdl\drivers\peripheral\scb/cy_scb_uart.c ****                      _VAL2FLD(SCB_RX_MATCH_MASK, config->receiverAddressMask);
 1830              		.loc 3 122 0
 1831 0380 BB68     		ldr	r3, [r7, #8]
 1832 0382 9B69     		ldr	r3, [r3, #24]
 1833 0384 1B04     		lsls	r3, r3, #16
 1834 0386 03F47F03 		and	r3, r3, #16711680
 121:Generated_Source\PSoC6\pdl\drivers\peripheral\scb/cy_scb_uart.c ****                      _VAL2FLD(SCB_RX_MATCH_MASK, config->receiverAddressMask);
 1835              		.loc 3 121 0
 1836 038a 1A43     		orrs	r2, r2, r3
 1837 038c FB68     		ldr	r3, [r7, #12]
 1838 038e C3F81023 		str	r2, [r3, #784]
 123:Generated_Source\PSoC6\pdl\drivers\peripheral\scb/cy_scb_uart.c **** 
 124:Generated_Source\PSoC6\pdl\drivers\peripheral\scb/cy_scb_uart.c ****     /* Configure SCB_CTRL.RX_CTRL then verify break width */
ARM GAS  C:\Users\ikomb\AppData\Local\Temp\cctq3ka9.s 			page 92


 125:Generated_Source\PSoC6\pdl\drivers\peripheral\scb/cy_scb_uart.c ****     CY_ASSERT_L2(CY_SCB_UART_IS_RX_BREAK_WIDTH_VALID(base, config->breakWidth));
 1839              		.loc 3 125 0
 1840 0392 BB68     		ldr	r3, [r7, #8]
 1841 0394 DA6A     		ldr	r2, [r3, #44]
 1842 0396 FB68     		ldr	r3, [r7, #12]
 1843 0398 D3F80033 		ldr	r3, [r3, #768]
 1844 039c 03F00F03 		and	r3, r3, #15
 1845 03a0 0333     		adds	r3, r3, #3
 1846 03a2 9A42     		cmp	r2, r3
 1847 03a4 03D3     		bcc	.L130
 1848              		.loc 3 125 0 is_stmt 0 discriminator 2
 1849 03a6 BB68     		ldr	r3, [r7, #8]
 1850 03a8 DB6A     		ldr	r3, [r3, #44]
 1851 03aa 102B     		cmp	r3, #16
 1852 03ac 03D9     		bls	.L131
 1853              	.L130:
 1854              		.loc 3 125 0 discriminator 3
 1855 03ae 7D21     		movs	r1, #125
 1856 03b0 4D48     		ldr	r0, .L149
 1857 03b2 FFF7FEFF 		bl	Cy_SysLib_AssertFailed
 1858              	.L131:
 126:Generated_Source\PSoC6\pdl\drivers\peripheral\scb/cy_scb_uart.c **** 
 127:Generated_Source\PSoC6\pdl\drivers\peripheral\scb/cy_scb_uart.c ****     /* Configure the TX direction */
 128:Generated_Source\PSoC6\pdl\drivers\peripheral\scb/cy_scb_uart.c ****     base->UART_TX_CTRL = _BOOL2FLD(SCB_UART_TX_CTRL_RETRY_ON_NACK, ((config->smartCardRetryOnNack) 
 1859              		.loc 3 128 0 is_stmt 1
 1860 03b6 BB68     		ldr	r3, [r7, #8]
 1861 03b8 DB7F     		ldrb	r3, [r3, #31]	@ zero_extendqisi2
 1862 03ba 002B     		cmp	r3, #0
 1863 03bc 05D0     		beq	.L132
 1864              		.loc 3 128 0 is_stmt 0 discriminator 1
 1865 03be BB68     		ldr	r3, [r7, #8]
 1866 03c0 1B78     		ldrb	r3, [r3]	@ zero_extendqisi2
 1867 03c2 012B     		cmp	r3, #1
 1868 03c4 01D1     		bne	.L132
 1869              		.loc 3 128 0 discriminator 3
 1870 03c6 0123     		movs	r3, #1
 1871 03c8 00E0     		b	.L133
 1872              	.L132:
 1873              		.loc 3 128 0 discriminator 4
 1874 03ca 0023     		movs	r3, #0
 1875              	.L133:
 1876              		.loc 3 128 0 discriminator 6
 1877 03cc 002B     		cmp	r3, #0
 1878 03ce 02D0     		beq	.L134
 1879              		.loc 3 128 0 discriminator 7
 1880 03d0 4FF48072 		mov	r2, #256
 1881 03d4 00E0     		b	.L135
 1882              	.L134:
 1883              		.loc 3 128 0 discriminator 8
 1884 03d6 0022     		movs	r2, #0
 1885              	.L135:
 129:Generated_Source\PSoC6\pdl\drivers\peripheral\scb/cy_scb_uart.c ****                                                               (config->uartMode == CY_SCB_UART_SMAR
 130:Generated_Source\PSoC6\pdl\drivers\peripheral\scb/cy_scb_uart.c ****                          _VAL2FLD(SCB_UART_TX_CTRL_STOP_BITS, ((uint32_t) config->stopBits) - 1UL) 
 1886              		.loc 3 130 0 is_stmt 1
 1887 03d8 BB68     		ldr	r3, [r7, #8]
 1888 03da 5B7B     		ldrb	r3, [r3, #13]	@ zero_extendqisi2
 1889 03dc 013B     		subs	r3, r3, #1
ARM GAS  C:\Users\ikomb\AppData\Local\Temp\cctq3ka9.s 			page 93


 1890 03de 03F00703 		and	r3, r3, #7
 129:Generated_Source\PSoC6\pdl\drivers\peripheral\scb/cy_scb_uart.c ****                                                               (config->uartMode == CY_SCB_UART_SMAR
 1891              		.loc 3 129 0
 1892 03e2 1A43     		orrs	r2, r2, r3
 131:Generated_Source\PSoC6\pdl\drivers\peripheral\scb/cy_scb_uart.c ****                          _VAL2FLD(CY_SCB_UART_TX_CTRL_SET_PARITY, (uint32_t) config->parity);
 1893              		.loc 3 131 0
 1894 03e4 BB68     		ldr	r3, [r7, #8]
 1895 03e6 9B7B     		ldrb	r3, [r3, #14]	@ zero_extendqisi2
 1896 03e8 1B01     		lsls	r3, r3, #4
 1897 03ea 03F03003 		and	r3, r3, #48
 130:Generated_Source\PSoC6\pdl\drivers\peripheral\scb/cy_scb_uart.c ****                          _VAL2FLD(CY_SCB_UART_TX_CTRL_SET_PARITY, (uint32_t) config->parity);
 1898              		.loc 3 130 0
 1899 03ee 1A43     		orrs	r2, r2, r3
 128:Generated_Source\PSoC6\pdl\drivers\peripheral\scb/cy_scb_uart.c ****                                                               (config->uartMode == CY_SCB_UART_SMAR
 1900              		.loc 3 128 0
 1901 03f0 FB68     		ldr	r3, [r7, #12]
 1902 03f2 5A64     		str	r2, [r3, #68]
 132:Generated_Source\PSoC6\pdl\drivers\peripheral\scb/cy_scb_uart.c **** 
 133:Generated_Source\PSoC6\pdl\drivers\peripheral\scb/cy_scb_uart.c ****     base->TX_CTRL  = _BOOL2FLD(SCB_TX_CTRL_MSB_FIRST,  config->enableMsbFirst)    |
 1903              		.loc 3 133 0
 1904 03f4 BB68     		ldr	r3, [r7, #8]
 1905 03f6 1B7B     		ldrb	r3, [r3, #12]	@ zero_extendqisi2
 1906 03f8 002B     		cmp	r3, #0
 1907 03fa 02D0     		beq	.L136
 1908              		.loc 3 133 0 is_stmt 0 discriminator 1
 1909 03fc 4FF48072 		mov	r2, #256
 1910 0400 00E0     		b	.L137
 1911              	.L136:
 1912              		.loc 3 133 0 discriminator 2
 1913 0402 0022     		movs	r2, #0
 1914              	.L137:
 134:Generated_Source\PSoC6\pdl\drivers\peripheral\scb/cy_scb_uart.c ****                      _VAL2FLD(SCB_TX_CTRL_DATA_WIDTH,  (config->dataWidth - 1UL)) |
 1915              		.loc 3 134 0 is_stmt 1
 1916 0404 BB68     		ldr	r3, [r7, #8]
 1917 0406 9B68     		ldr	r3, [r3, #8]
 1918 0408 013B     		subs	r3, r3, #1
 1919 040a 03F00F03 		and	r3, r3, #15
 133:Generated_Source\PSoC6\pdl\drivers\peripheral\scb/cy_scb_uart.c ****                      _VAL2FLD(SCB_TX_CTRL_DATA_WIDTH,  (config->dataWidth - 1UL)) |
 1920              		.loc 3 133 0
 1921 040e 1A43     		orrs	r2, r2, r3
 135:Generated_Source\PSoC6\pdl\drivers\peripheral\scb/cy_scb_uart.c ****                      _BOOL2FLD(SCB_TX_CTRL_OPEN_DRAIN, (config->uartMode == CY_SCB_UART_SMARTCARD))
 1922              		.loc 3 135 0
 1923 0410 BB68     		ldr	r3, [r7, #8]
 1924 0412 1B78     		ldrb	r3, [r3]	@ zero_extendqisi2
 1925 0414 012B     		cmp	r3, #1
 1926 0416 02D1     		bne	.L138
 1927              		.loc 3 135 0 is_stmt 0 discriminator 1
 1928 0418 4FF48033 		mov	r3, #65536
 1929 041c 00E0     		b	.L139
 1930              	.L138:
 1931              		.loc 3 135 0 discriminator 2
 1932 041e 0023     		movs	r3, #0
 1933              	.L139:
 134:Generated_Source\PSoC6\pdl\drivers\peripheral\scb/cy_scb_uart.c ****                      _VAL2FLD(SCB_TX_CTRL_DATA_WIDTH,  (config->dataWidth - 1UL)) |
 1934              		.loc 3 134 0 is_stmt 1
 1935 0420 1A43     		orrs	r2, r2, r3
 133:Generated_Source\PSoC6\pdl\drivers\peripheral\scb/cy_scb_uart.c ****                      _VAL2FLD(SCB_TX_CTRL_DATA_WIDTH,  (config->dataWidth - 1UL)) |
ARM GAS  C:\Users\ikomb\AppData\Local\Temp\cctq3ka9.s 			page 94


 1936              		.loc 3 133 0
 1937 0422 FB68     		ldr	r3, [r7, #12]
 1938 0424 C3F80022 		str	r2, [r3, #512]
 136:Generated_Source\PSoC6\pdl\drivers\peripheral\scb/cy_scb_uart.c **** 
 137:Generated_Source\PSoC6\pdl\drivers\peripheral\scb/cy_scb_uart.c ****     base->RX_FIFO_CTRL = _VAL2FLD(SCB_RX_FIFO_CTRL_TRIGGER_LEVEL, config->rxFifoTriggerLevel);
 1939              		.loc 3 137 0
 1940 0428 BB68     		ldr	r3, [r7, #8]
 1941 042a 1B6B     		ldr	r3, [r3, #48]
 1942 042c DAB2     		uxtb	r2, r3
 1943 042e FB68     		ldr	r3, [r7, #12]
 1944 0430 C3F80423 		str	r2, [r3, #772]
 138:Generated_Source\PSoC6\pdl\drivers\peripheral\scb/cy_scb_uart.c **** 
 139:Generated_Source\PSoC6\pdl\drivers\peripheral\scb/cy_scb_uart.c ****     /* Configure the flow control */
 140:Generated_Source\PSoC6\pdl\drivers\peripheral\scb/cy_scb_uart.c ****     base->UART_FLOW_CTRL = _BOOL2FLD(SCB_UART_FLOW_CTRL_CTS_ENABLED, config->enableCts) |
 1945              		.loc 3 140 0
 1946 0434 BB68     		ldr	r3, [r7, #8]
 1947 0436 93F82030 		ldrb	r3, [r3, #32]	@ zero_extendqisi2
 1948 043a 002B     		cmp	r3, #0
 1949 043c 02D0     		beq	.L140
 1950              		.loc 3 140 0 is_stmt 0 discriminator 1
 1951 043e 4FF00072 		mov	r2, #33554432
 1952 0442 00E0     		b	.L141
 1953              	.L140:
 1954              		.loc 3 140 0 discriminator 2
 1955 0444 0022     		movs	r2, #0
 1956              	.L141:
 141:Generated_Source\PSoC6\pdl\drivers\peripheral\scb/cy_scb_uart.c ****                            _BOOL2FLD(SCB_UART_FLOW_CTRL_CTS_POLARITY, (CY_SCB_UART_ACTIVE_HIGH == c
 1957              		.loc 3 141 0 is_stmt 1
 1958 0446 BB68     		ldr	r3, [r7, #8]
 1959 0448 93F82130 		ldrb	r3, [r3, #33]	@ zero_extendqisi2
 1960 044c 012B     		cmp	r3, #1
 1961 044e 02D1     		bne	.L142
 1962              		.loc 3 141 0 is_stmt 0 discriminator 1
 1963 0450 4FF08073 		mov	r3, #16777216
 1964 0454 00E0     		b	.L143
 1965              	.L142:
 1966              		.loc 3 141 0 discriminator 2
 1967 0456 0023     		movs	r3, #0
 1968              	.L143:
 140:Generated_Source\PSoC6\pdl\drivers\peripheral\scb/cy_scb_uart.c ****                            _BOOL2FLD(SCB_UART_FLOW_CTRL_CTS_POLARITY, (CY_SCB_UART_ACTIVE_HIGH == c
 1969              		.loc 3 140 0 is_stmt 1
 1970 0458 1A43     		orrs	r2, r2, r3
 142:Generated_Source\PSoC6\pdl\drivers\peripheral\scb/cy_scb_uart.c ****                            _BOOL2FLD(SCB_UART_FLOW_CTRL_RTS_POLARITY, (CY_SCB_UART_ACTIVE_HIGH == c
 1971              		.loc 3 142 0
 1972 045a BB68     		ldr	r3, [r7, #8]
 1973 045c 93F82830 		ldrb	r3, [r3, #40]	@ zero_extendqisi2
 1974 0460 012B     		cmp	r3, #1
 1975 0462 02D1     		bne	.L144
 1976              		.loc 3 142 0 is_stmt 0 discriminator 1
 1977 0464 4FF48033 		mov	r3, #65536
 1978 0468 00E0     		b	.L145
 1979              	.L144:
 1980              		.loc 3 142 0 discriminator 2
 1981 046a 0023     		movs	r3, #0
 1982              	.L145:
 141:Generated_Source\PSoC6\pdl\drivers\peripheral\scb/cy_scb_uart.c ****                            _BOOL2FLD(SCB_UART_FLOW_CTRL_CTS_POLARITY, (CY_SCB_UART_ACTIVE_HIGH == c
 1983              		.loc 3 141 0 is_stmt 1
ARM GAS  C:\Users\ikomb\AppData\Local\Temp\cctq3ka9.s 			page 95


 1984 046c 1A43     		orrs	r2, r2, r3
 143:Generated_Source\PSoC6\pdl\drivers\peripheral\scb/cy_scb_uart.c ****                            _VAL2FLD(SCB_UART_FLOW_CTRL_TRIGGER_LEVEL, config->rtsRxFifoLevel);
 1985              		.loc 3 143 0
 1986 046e BB68     		ldr	r3, [r7, #8]
 1987 0470 5B6A     		ldr	r3, [r3, #36]
 1988 0472 DBB2     		uxtb	r3, r3
 142:Generated_Source\PSoC6\pdl\drivers\peripheral\scb/cy_scb_uart.c ****                            _BOOL2FLD(SCB_UART_FLOW_CTRL_RTS_POLARITY, (CY_SCB_UART_ACTIVE_HIGH == c
 1989              		.loc 3 142 0
 1990 0474 1A43     		orrs	r2, r2, r3
 140:Generated_Source\PSoC6\pdl\drivers\peripheral\scb/cy_scb_uart.c ****                            _BOOL2FLD(SCB_UART_FLOW_CTRL_CTS_POLARITY, (CY_SCB_UART_ACTIVE_HIGH == c
 1991              		.loc 3 140 0
 1992 0476 FB68     		ldr	r3, [r7, #12]
 1993 0478 1A65     		str	r2, [r3, #80]
 144:Generated_Source\PSoC6\pdl\drivers\peripheral\scb/cy_scb_uart.c **** 
 145:Generated_Source\PSoC6\pdl\drivers\peripheral\scb/cy_scb_uart.c ****     base->TX_FIFO_CTRL = _VAL2FLD(SCB_TX_FIFO_CTRL_TRIGGER_LEVEL, config->txFifoTriggerLevel);
 1994              		.loc 3 145 0
 1995 047a BB68     		ldr	r3, [r7, #8]
 1996 047c 9B6B     		ldr	r3, [r3, #56]
 1997 047e DAB2     		uxtb	r2, r3
 1998 0480 FB68     		ldr	r3, [r7, #12]
 1999 0482 C3F80422 		str	r2, [r3, #516]
 146:Generated_Source\PSoC6\pdl\drivers\peripheral\scb/cy_scb_uart.c **** 
 147:Generated_Source\PSoC6\pdl\drivers\peripheral\scb/cy_scb_uart.c ****     /* Set up interrupt sources */
 148:Generated_Source\PSoC6\pdl\drivers\peripheral\scb/cy_scb_uart.c ****     base->INTR_RX_MASK = (config->rxFifoIntEnableMask & CY_SCB_UART_RX_INTR_MASK);
 2000              		.loc 3 148 0
 2001 0486 BB68     		ldr	r3, [r7, #8]
 2002 0488 5A6B     		ldr	r2, [r3, #52]
 2003 048a 40F66D33 		movw	r3, #2925
 2004 048e 1340     		ands	r3, r3, r2
 2005 0490 FA68     		ldr	r2, [r7, #12]
 2006 0492 C2F8C83F 		str	r3, [r2, #4040]
 149:Generated_Source\PSoC6\pdl\drivers\peripheral\scb/cy_scb_uart.c ****     base->INTR_TX_MASK = (config->txFifoIntEnableMask & CY_SCB_UART_TX_INTR_MASK);
 2007              		.loc 3 149 0
 2008 0496 BB68     		ldr	r3, [r7, #8]
 2009 0498 DA6B     		ldr	r2, [r3, #60]
 2010 049a 40F27373 		movw	r3, #1907
 2011 049e 1340     		ands	r3, r3, r2
 2012 04a0 FA68     		ldr	r2, [r7, #12]
 2013 04a2 C2F8883F 		str	r3, [r2, #3976]
 150:Generated_Source\PSoC6\pdl\drivers\peripheral\scb/cy_scb_uart.c **** 
 151:Generated_Source\PSoC6\pdl\drivers\peripheral\scb/cy_scb_uart.c ****     /* Initialize context */
 152:Generated_Source\PSoC6\pdl\drivers\peripheral\scb/cy_scb_uart.c ****     if (NULL != context)
 2014              		.loc 3 152 0
 2015 04a6 7B68     		ldr	r3, [r7, #4]
 2016 04a8 002B     		cmp	r3, #0
 2017 04aa 17D0     		beq	.L146
 153:Generated_Source\PSoC6\pdl\drivers\peripheral\scb/cy_scb_uart.c ****     {
 154:Generated_Source\PSoC6\pdl\drivers\peripheral\scb/cy_scb_uart.c ****         context->rxStatus  = 0UL;
 2018              		.loc 3 154 0
 2019 04ac 7B68     		ldr	r3, [r7, #4]
 2020 04ae 0022     		movs	r2, #0
 2021 04b0 5A60     		str	r2, [r3, #4]
 155:Generated_Source\PSoC6\pdl\drivers\peripheral\scb/cy_scb_uart.c ****         context->txStatus  = 0UL;
 2022              		.loc 3 155 0
 2023 04b2 7B68     		ldr	r3, [r7, #4]
 2024 04b4 0022     		movs	r2, #0
 2025 04b6 1A60     		str	r2, [r3]
ARM GAS  C:\Users\ikomb\AppData\Local\Temp\cctq3ka9.s 			page 96


 156:Generated_Source\PSoC6\pdl\drivers\peripheral\scb/cy_scb_uart.c **** 
 157:Generated_Source\PSoC6\pdl\drivers\peripheral\scb/cy_scb_uart.c ****         context->rxRingBuf = NULL;
 2026              		.loc 3 157 0
 2027 04b8 7B68     		ldr	r3, [r7, #4]
 2028 04ba 0022     		movs	r2, #0
 2029 04bc 9A60     		str	r2, [r3, #8]
 158:Generated_Source\PSoC6\pdl\drivers\peripheral\scb/cy_scb_uart.c ****         context->rxRingBufSize = 0UL;
 2030              		.loc 3 158 0
 2031 04be 7B68     		ldr	r3, [r7, #4]
 2032 04c0 0022     		movs	r2, #0
 2033 04c2 DA60     		str	r2, [r3, #12]
 159:Generated_Source\PSoC6\pdl\drivers\peripheral\scb/cy_scb_uart.c **** 
 160:Generated_Source\PSoC6\pdl\drivers\peripheral\scb/cy_scb_uart.c ****         context->rxBufIdx  = 0UL;
 2034              		.loc 3 160 0
 2035 04c4 7B68     		ldr	r3, [r7, #4]
 2036 04c6 0022     		movs	r2, #0
 2037 04c8 1A62     		str	r2, [r3, #32]
 161:Generated_Source\PSoC6\pdl\drivers\peripheral\scb/cy_scb_uart.c ****         context->txLeftToTransmit = 0UL;
 2038              		.loc 3 161 0
 2039 04ca 7B68     		ldr	r3, [r7, #4]
 2040 04cc 0022     		movs	r2, #0
 2041 04ce DA62     		str	r2, [r3, #44]
 162:Generated_Source\PSoC6\pdl\drivers\peripheral\scb/cy_scb_uart.c **** 
 163:Generated_Source\PSoC6\pdl\drivers\peripheral\scb/cy_scb_uart.c ****         context->cbEvents = NULL;
 2042              		.loc 3 163 0
 2043 04d0 7B68     		ldr	r3, [r7, #4]
 2044 04d2 0022     		movs	r2, #0
 2045 04d4 1A63     		str	r2, [r3, #48]
 164:Generated_Source\PSoC6\pdl\drivers\peripheral\scb/cy_scb_uart.c **** 
 165:Generated_Source\PSoC6\pdl\drivers\peripheral\scb/cy_scb_uart.c ****     #if !defined(NDEBUG)
 166:Generated_Source\PSoC6\pdl\drivers\peripheral\scb/cy_scb_uart.c ****         /* Put an initialization key into the initKey variable to verify
 167:Generated_Source\PSoC6\pdl\drivers\peripheral\scb/cy_scb_uart.c ****         * context initialization in the transfer API.
 168:Generated_Source\PSoC6\pdl\drivers\peripheral\scb/cy_scb_uart.c ****         */
 169:Generated_Source\PSoC6\pdl\drivers\peripheral\scb/cy_scb_uart.c ****         context->initKey = CY_SCB_UART_INIT_KEY;
 2046              		.loc 3 169 0
 2047 04d6 7B68     		ldr	r3, [r7, #4]
 2048 04d8 044A     		ldr	r2, .L149+4
 2049 04da 5A63     		str	r2, [r3, #52]
 2050              	.L146:
 170:Generated_Source\PSoC6\pdl\drivers\peripheral\scb/cy_scb_uart.c ****     #endif /* !(NDEBUG) */
 171:Generated_Source\PSoC6\pdl\drivers\peripheral\scb/cy_scb_uart.c ****     }
 172:Generated_Source\PSoC6\pdl\drivers\peripheral\scb/cy_scb_uart.c **** 
 173:Generated_Source\PSoC6\pdl\drivers\peripheral\scb/cy_scb_uart.c ****     return CY_SCB_UART_SUCCESS;
 2051              		.loc 3 173 0
 2052 04dc 0023     		movs	r3, #0
 2053              	.L76:
 174:Generated_Source\PSoC6\pdl\drivers\peripheral\scb/cy_scb_uart.c **** }
 2054              		.loc 3 174 0
 2055 04de 1846     		mov	r0, r3
 2056 04e0 1C37     		adds	r7, r7, #28
 2057              		.cfi_def_cfa_offset 12
 2058 04e2 BD46     		mov	sp, r7
 2059              		.cfi_def_cfa_register 13
 2060              		@ sp needed
 2061 04e4 90BD     		pop	{r4, r7, pc}
 2062              	.L150:
 2063 04e6 00BF     		.align	2
ARM GAS  C:\Users\ikomb\AppData\Local\Temp\cctq3ka9.s 			page 97


 2064              	.L149:
 2065 04e8 84000000 		.word	.LC2
 2066 04ec EFCDAB00 		.word	11259375
 2067              		.cfi_endproc
 2068              	.LFE234:
 2069              		.size	Cy_SCB_UART_Init, .-Cy_SCB_UART_Init
 2070              		.section	.text.Cy_SCB_UART_DeInit,"ax",%progbits
 2071              		.align	2
 2072              		.global	Cy_SCB_UART_DeInit
 2073              		.thumb
 2074              		.thumb_func
 2075              		.type	Cy_SCB_UART_DeInit, %function
 2076              	Cy_SCB_UART_DeInit:
 2077              	.LFB235:
 175:Generated_Source\PSoC6\pdl\drivers\peripheral\scb/cy_scb_uart.c **** 
 176:Generated_Source\PSoC6\pdl\drivers\peripheral\scb/cy_scb_uart.c **** 
 177:Generated_Source\PSoC6\pdl\drivers\peripheral\scb/cy_scb_uart.c **** /*******************************************************************************
 178:Generated_Source\PSoC6\pdl\drivers\peripheral\scb/cy_scb_uart.c **** * Function Name: Cy_SCB_UART_DeInit
 179:Generated_Source\PSoC6\pdl\drivers\peripheral\scb/cy_scb_uart.c **** ****************************************************************************//**
 180:Generated_Source\PSoC6\pdl\drivers\peripheral\scb/cy_scb_uart.c **** *
 181:Generated_Source\PSoC6\pdl\drivers\peripheral\scb/cy_scb_uart.c **** * De-initializes the SCB block. Returns the register values to default.
 182:Generated_Source\PSoC6\pdl\drivers\peripheral\scb/cy_scb_uart.c **** *
 183:Generated_Source\PSoC6\pdl\drivers\peripheral\scb/cy_scb_uart.c **** * \param base
 184:Generated_Source\PSoC6\pdl\drivers\peripheral\scb/cy_scb_uart.c **** * The pointer to the UART SCB instance.
 185:Generated_Source\PSoC6\pdl\drivers\peripheral\scb/cy_scb_uart.c **** *
 186:Generated_Source\PSoC6\pdl\drivers\peripheral\scb/cy_scb_uart.c **** * \note
 187:Generated_Source\PSoC6\pdl\drivers\peripheral\scb/cy_scb_uart.c **** * Ensure that the SCB block is disabled before calling this function.
 188:Generated_Source\PSoC6\pdl\drivers\peripheral\scb/cy_scb_uart.c **** *
 189:Generated_Source\PSoC6\pdl\drivers\peripheral\scb/cy_scb_uart.c **** *******************************************************************************/
 190:Generated_Source\PSoC6\pdl\drivers\peripheral\scb/cy_scb_uart.c **** void Cy_SCB_UART_DeInit(CySCB_Type *base)
 191:Generated_Source\PSoC6\pdl\drivers\peripheral\scb/cy_scb_uart.c **** {
 2078              		.loc 3 191 0
 2079              		.cfi_startproc
 2080              		@ args = 0, pretend = 0, frame = 8
 2081              		@ frame_needed = 1, uses_anonymous_args = 0
 2082              		@ link register save eliminated.
 2083 0000 80B4     		push	{r7}
 2084              		.cfi_def_cfa_offset 4
 2085              		.cfi_offset 7, -4
 2086 0002 83B0     		sub	sp, sp, #12
 2087              		.cfi_def_cfa_offset 16
 2088 0004 00AF     		add	r7, sp, #0
 2089              		.cfi_def_cfa_register 7
 2090 0006 7860     		str	r0, [r7, #4]
 192:Generated_Source\PSoC6\pdl\drivers\peripheral\scb/cy_scb_uart.c ****     /* De-initialize the UART interface */
 193:Generated_Source\PSoC6\pdl\drivers\peripheral\scb/cy_scb_uart.c ****     base->CTRL      = CY_SCB_CTRL_DEF_VAL;
 2091              		.loc 3 193 0
 2092 0008 7B68     		ldr	r3, [r7, #4]
 2093 000a 214A     		ldr	r2, .L152
 2094 000c 1A60     		str	r2, [r3]
 194:Generated_Source\PSoC6\pdl\drivers\peripheral\scb/cy_scb_uart.c ****     base->UART_CTRL = CY_SCB_UART_CTRL_DEF_VAL;
 2095              		.loc 3 194 0
 2096 000e 7B68     		ldr	r3, [r7, #4]
 2097 0010 4FF04072 		mov	r2, #50331648
 2098 0014 1A64     		str	r2, [r3, #64]
 195:Generated_Source\PSoC6\pdl\drivers\peripheral\scb/cy_scb_uart.c **** 
 196:Generated_Source\PSoC6\pdl\drivers\peripheral\scb/cy_scb_uart.c ****     /* De-initialize the RX direction */
ARM GAS  C:\Users\ikomb\AppData\Local\Temp\cctq3ka9.s 			page 98


 197:Generated_Source\PSoC6\pdl\drivers\peripheral\scb/cy_scb_uart.c ****     base->UART_RX_CTRL = 0UL;
 2099              		.loc 3 197 0
 2100 0016 7B68     		ldr	r3, [r7, #4]
 2101 0018 0022     		movs	r2, #0
 2102 001a 9A64     		str	r2, [r3, #72]
 198:Generated_Source\PSoC6\pdl\drivers\peripheral\scb/cy_scb_uart.c ****     base->RX_CTRL      = CY_SCB_RX_CTRL_DEF_VAL;
 2103              		.loc 3 198 0
 2104 001c 7B68     		ldr	r3, [r7, #4]
 2105 001e 40F20712 		movw	r2, #263
 2106 0022 C3F80023 		str	r2, [r3, #768]
 199:Generated_Source\PSoC6\pdl\drivers\peripheral\scb/cy_scb_uart.c ****     base->RX_FIFO_CTRL = 0UL;
 2107              		.loc 3 199 0
 2108 0026 7B68     		ldr	r3, [r7, #4]
 2109 0028 0022     		movs	r2, #0
 2110 002a C3F80423 		str	r2, [r3, #772]
 200:Generated_Source\PSoC6\pdl\drivers\peripheral\scb/cy_scb_uart.c ****     base->RX_MATCH     = 0UL;
 2111              		.loc 3 200 0
 2112 002e 7B68     		ldr	r3, [r7, #4]
 2113 0030 0022     		movs	r2, #0
 2114 0032 C3F81023 		str	r2, [r3, #784]
 201:Generated_Source\PSoC6\pdl\drivers\peripheral\scb/cy_scb_uart.c **** 
 202:Generated_Source\PSoC6\pdl\drivers\peripheral\scb/cy_scb_uart.c ****     /* De-initialize the TX direction */
 203:Generated_Source\PSoC6\pdl\drivers\peripheral\scb/cy_scb_uart.c ****     base->UART_TX_CTRL = 0UL;
 2115              		.loc 3 203 0
 2116 0036 7B68     		ldr	r3, [r7, #4]
 2117 0038 0022     		movs	r2, #0
 2118 003a 5A64     		str	r2, [r3, #68]
 204:Generated_Source\PSoC6\pdl\drivers\peripheral\scb/cy_scb_uart.c ****     base->TX_CTRL      = CY_SCB_TX_CTRL_DEF_VAL;
 2119              		.loc 3 204 0
 2120 003c 7B68     		ldr	r3, [r7, #4]
 2121 003e 40F20712 		movw	r2, #263
 2122 0042 C3F80022 		str	r2, [r3, #512]
 205:Generated_Source\PSoC6\pdl\drivers\peripheral\scb/cy_scb_uart.c ****     base->TX_FIFO_CTRL = 0UL;
 2123              		.loc 3 205 0
 2124 0046 7B68     		ldr	r3, [r7, #4]
 2125 0048 0022     		movs	r2, #0
 2126 004a C3F80422 		str	r2, [r3, #516]
 206:Generated_Source\PSoC6\pdl\drivers\peripheral\scb/cy_scb_uart.c **** 
 207:Generated_Source\PSoC6\pdl\drivers\peripheral\scb/cy_scb_uart.c ****     /* De-initialize the flow control */
 208:Generated_Source\PSoC6\pdl\drivers\peripheral\scb/cy_scb_uart.c ****     base->UART_FLOW_CTRL = 0UL;
 2127              		.loc 3 208 0
 2128 004e 7B68     		ldr	r3, [r7, #4]
 2129 0050 0022     		movs	r2, #0
 2130 0052 1A65     		str	r2, [r3, #80]
 209:Generated_Source\PSoC6\pdl\drivers\peripheral\scb/cy_scb_uart.c **** 
 210:Generated_Source\PSoC6\pdl\drivers\peripheral\scb/cy_scb_uart.c ****     /* De-initialize the interrupt sources */
 211:Generated_Source\PSoC6\pdl\drivers\peripheral\scb/cy_scb_uart.c ****     base->INTR_SPI_EC_MASK = 0UL;
 2131              		.loc 3 211 0
 2132 0054 7B68     		ldr	r3, [r7, #4]
 2133 0056 0022     		movs	r2, #0
 2134 0058 C3F8C82E 		str	r2, [r3, #3784]
 212:Generated_Source\PSoC6\pdl\drivers\peripheral\scb/cy_scb_uart.c ****     base->INTR_I2C_EC_MASK = 0UL;
 2135              		.loc 3 212 0
 2136 005c 7B68     		ldr	r3, [r7, #4]
 2137 005e 0022     		movs	r2, #0
 2138 0060 C3F8882E 		str	r2, [r3, #3720]
 213:Generated_Source\PSoC6\pdl\drivers\peripheral\scb/cy_scb_uart.c ****     base->INTR_RX_MASK     = 0UL;
ARM GAS  C:\Users\ikomb\AppData\Local\Temp\cctq3ka9.s 			page 99


 2139              		.loc 3 213 0
 2140 0064 7B68     		ldr	r3, [r7, #4]
 2141 0066 0022     		movs	r2, #0
 2142 0068 C3F8C82F 		str	r2, [r3, #4040]
 214:Generated_Source\PSoC6\pdl\drivers\peripheral\scb/cy_scb_uart.c ****     base->INTR_TX_MASK     = 0UL;
 2143              		.loc 3 214 0
 2144 006c 7B68     		ldr	r3, [r7, #4]
 2145 006e 0022     		movs	r2, #0
 2146 0070 C3F8882F 		str	r2, [r3, #3976]
 215:Generated_Source\PSoC6\pdl\drivers\peripheral\scb/cy_scb_uart.c ****     base->INTR_M_MASK      = 0UL;
 2147              		.loc 3 215 0
 2148 0074 7B68     		ldr	r3, [r7, #4]
 2149 0076 0022     		movs	r2, #0
 2150 0078 C3F8082F 		str	r2, [r3, #3848]
 216:Generated_Source\PSoC6\pdl\drivers\peripheral\scb/cy_scb_uart.c ****     base->INTR_S_MASK      = 0UL;
 2151              		.loc 3 216 0
 2152 007c 7B68     		ldr	r3, [r7, #4]
 2153 007e 0022     		movs	r2, #0
 2154 0080 C3F8482F 		str	r2, [r3, #3912]
 217:Generated_Source\PSoC6\pdl\drivers\peripheral\scb/cy_scb_uart.c **** }
 2155              		.loc 3 217 0
 2156 0084 00BF     		nop
 2157 0086 0C37     		adds	r7, r7, #12
 2158              		.cfi_def_cfa_offset 4
 2159 0088 BD46     		mov	sp, r7
 2160              		.cfi_def_cfa_register 13
 2161              		@ sp needed
 2162 008a 5DF8047B 		ldr	r7, [sp], #4
 2163              		.cfi_restore 7
 2164              		.cfi_def_cfa_offset 0
 2165 008e 7047     		bx	lr
 2166              	.L153:
 2167              		.align	2
 2168              	.L152:
 2169 0090 0F000003 		.word	50331663
 2170              		.cfi_endproc
 2171              	.LFE235:
 2172              		.size	Cy_SCB_UART_DeInit, .-Cy_SCB_UART_DeInit
 2173              		.section	.text.Cy_SCB_UART_Disable,"ax",%progbits
 2174              		.align	2
 2175              		.global	Cy_SCB_UART_Disable
 2176              		.thumb
 2177              		.thumb_func
 2178              		.type	Cy_SCB_UART_Disable, %function
 2179              	Cy_SCB_UART_Disable:
 2180              	.LFB236:
 218:Generated_Source\PSoC6\pdl\drivers\peripheral\scb/cy_scb_uart.c **** 
 219:Generated_Source\PSoC6\pdl\drivers\peripheral\scb/cy_scb_uart.c **** 
 220:Generated_Source\PSoC6\pdl\drivers\peripheral\scb/cy_scb_uart.c **** /*******************************************************************************
 221:Generated_Source\PSoC6\pdl\drivers\peripheral\scb/cy_scb_uart.c **** * Function Name: Cy_SCB_UART_Disable
 222:Generated_Source\PSoC6\pdl\drivers\peripheral\scb/cy_scb_uart.c **** ****************************************************************************//**
 223:Generated_Source\PSoC6\pdl\drivers\peripheral\scb/cy_scb_uart.c **** *
 224:Generated_Source\PSoC6\pdl\drivers\peripheral\scb/cy_scb_uart.c **** * Disables the SCB block and clears context statuses.
 225:Generated_Source\PSoC6\pdl\drivers\peripheral\scb/cy_scb_uart.c **** * Note that after the block is disabled, the TX and RX FIFOs and
 226:Generated_Source\PSoC6\pdl\drivers\peripheral\scb/cy_scb_uart.c **** * hardware statuses are cleared. Also, the hardware stops driving the
 227:Generated_Source\PSoC6\pdl\drivers\peripheral\scb/cy_scb_uart.c **** * output and ignores the input.
 228:Generated_Source\PSoC6\pdl\drivers\peripheral\scb/cy_scb_uart.c **** *
ARM GAS  C:\Users\ikomb\AppData\Local\Temp\cctq3ka9.s 			page 100


 229:Generated_Source\PSoC6\pdl\drivers\peripheral\scb/cy_scb_uart.c **** * \param base
 230:Generated_Source\PSoC6\pdl\drivers\peripheral\scb/cy_scb_uart.c **** * The pointer to the UART SCB instance.
 231:Generated_Source\PSoC6\pdl\drivers\peripheral\scb/cy_scb_uart.c **** *
 232:Generated_Source\PSoC6\pdl\drivers\peripheral\scb/cy_scb_uart.c **** * \param context
 233:Generated_Source\PSoC6\pdl\drivers\peripheral\scb/cy_scb_uart.c **** * The pointer to the context structure \ref cy_stc_scb_uart_context_t allocated
 234:Generated_Source\PSoC6\pdl\drivers\peripheral\scb/cy_scb_uart.c **** * by the user. The structure is used during the UART operation for internal
 235:Generated_Source\PSoC6\pdl\drivers\peripheral\scb/cy_scb_uart.c **** * configuration and data retention. The user must not modify anything
 236:Generated_Source\PSoC6\pdl\drivers\peripheral\scb/cy_scb_uart.c **** * in this structure.
 237:Generated_Source\PSoC6\pdl\drivers\peripheral\scb/cy_scb_uart.c **** * If only UART functions that do not require context will be used to pass NULL
 238:Generated_Source\PSoC6\pdl\drivers\peripheral\scb/cy_scb_uart.c **** * as pointer to context.
 239:Generated_Source\PSoC6\pdl\drivers\peripheral\scb/cy_scb_uart.c **** *
 240:Generated_Source\PSoC6\pdl\drivers\peripheral\scb/cy_scb_uart.c **** * \note
 241:Generated_Source\PSoC6\pdl\drivers\peripheral\scb/cy_scb_uart.c **** * Calling this function when the UART is busy (transmitter preforms data
 242:Generated_Source\PSoC6\pdl\drivers\peripheral\scb/cy_scb_uart.c **** * transfer or receiver is in the middle of data reception) may result transfer
 243:Generated_Source\PSoC6\pdl\drivers\peripheral\scb/cy_scb_uart.c **** * corruption because the hardware stops driving the outputs and ignores
 244:Generated_Source\PSoC6\pdl\drivers\peripheral\scb/cy_scb_uart.c **** * the inputs.
 245:Generated_Source\PSoC6\pdl\drivers\peripheral\scb/cy_scb_uart.c **** * Ensure that the UART is not busy before calling this function.
 246:Generated_Source\PSoC6\pdl\drivers\peripheral\scb/cy_scb_uart.c **** *
 247:Generated_Source\PSoC6\pdl\drivers\peripheral\scb/cy_scb_uart.c **** *******************************************************************************/
 248:Generated_Source\PSoC6\pdl\drivers\peripheral\scb/cy_scb_uart.c **** void Cy_SCB_UART_Disable(CySCB_Type *base, cy_stc_scb_uart_context_t *context)
 249:Generated_Source\PSoC6\pdl\drivers\peripheral\scb/cy_scb_uart.c **** {
 2181              		.loc 3 249 0
 2182              		.cfi_startproc
 2183              		@ args = 0, pretend = 0, frame = 8
 2184              		@ frame_needed = 1, uses_anonymous_args = 0
 2185              		@ link register save eliminated.
 2186 0000 80B4     		push	{r7}
 2187              		.cfi_def_cfa_offset 4
 2188              		.cfi_offset 7, -4
 2189 0002 83B0     		sub	sp, sp, #12
 2190              		.cfi_def_cfa_offset 16
 2191 0004 00AF     		add	r7, sp, #0
 2192              		.cfi_def_cfa_register 7
 2193 0006 7860     		str	r0, [r7, #4]
 2194 0008 3960     		str	r1, [r7]
 250:Generated_Source\PSoC6\pdl\drivers\peripheral\scb/cy_scb_uart.c ****     base->CTRL &= (uint32_t) ~SCB_CTRL_ENABLED_Msk;
 2195              		.loc 3 250 0
 2196 000a 7B68     		ldr	r3, [r7, #4]
 2197 000c 1B68     		ldr	r3, [r3]
 2198 000e 23F00042 		bic	r2, r3, #-2147483648
 2199 0012 7B68     		ldr	r3, [r7, #4]
 2200 0014 1A60     		str	r2, [r3]
 251:Generated_Source\PSoC6\pdl\drivers\peripheral\scb/cy_scb_uart.c **** 
 252:Generated_Source\PSoC6\pdl\drivers\peripheral\scb/cy_scb_uart.c ****     if (NULL != context)
 2201              		.loc 3 252 0
 2202 0016 3B68     		ldr	r3, [r7]
 2203 0018 002B     		cmp	r3, #0
 2204 001a 0BD0     		beq	.L156
 253:Generated_Source\PSoC6\pdl\drivers\peripheral\scb/cy_scb_uart.c ****     {
 254:Generated_Source\PSoC6\pdl\drivers\peripheral\scb/cy_scb_uart.c ****         context->rxStatus  = 0UL;
 2205              		.loc 3 254 0
 2206 001c 3B68     		ldr	r3, [r7]
 2207 001e 0022     		movs	r2, #0
 2208 0020 5A60     		str	r2, [r3, #4]
 255:Generated_Source\PSoC6\pdl\drivers\peripheral\scb/cy_scb_uart.c ****         context->txStatus  = 0UL;
 2209              		.loc 3 255 0
 2210 0022 3B68     		ldr	r3, [r7]
ARM GAS  C:\Users\ikomb\AppData\Local\Temp\cctq3ka9.s 			page 101


 2211 0024 0022     		movs	r2, #0
 2212 0026 1A60     		str	r2, [r3]
 256:Generated_Source\PSoC6\pdl\drivers\peripheral\scb/cy_scb_uart.c **** 
 257:Generated_Source\PSoC6\pdl\drivers\peripheral\scb/cy_scb_uart.c ****         context->rxBufIdx  = 0UL;
 2213              		.loc 3 257 0
 2214 0028 3B68     		ldr	r3, [r7]
 2215 002a 0022     		movs	r2, #0
 2216 002c 1A62     		str	r2, [r3, #32]
 258:Generated_Source\PSoC6\pdl\drivers\peripheral\scb/cy_scb_uart.c ****         context->txLeftToTransmit = 0UL;
 2217              		.loc 3 258 0
 2218 002e 3B68     		ldr	r3, [r7]
 2219 0030 0022     		movs	r2, #0
 2220 0032 DA62     		str	r2, [r3, #44]
 2221              	.L156:
 259:Generated_Source\PSoC6\pdl\drivers\peripheral\scb/cy_scb_uart.c ****     }
 260:Generated_Source\PSoC6\pdl\drivers\peripheral\scb/cy_scb_uart.c **** }
 2222              		.loc 3 260 0
 2223 0034 00BF     		nop
 2224 0036 0C37     		adds	r7, r7, #12
 2225              		.cfi_def_cfa_offset 4
 2226 0038 BD46     		mov	sp, r7
 2227              		.cfi_def_cfa_register 13
 2228              		@ sp needed
 2229 003a 5DF8047B 		ldr	r7, [sp], #4
 2230              		.cfi_restore 7
 2231              		.cfi_def_cfa_offset 0
 2232 003e 7047     		bx	lr
 2233              		.cfi_endproc
 2234              	.LFE236:
 2235              		.size	Cy_SCB_UART_Disable, .-Cy_SCB_UART_Disable
 2236              		.section	.text.Cy_SCB_UART_DeepSleepCallback,"ax",%progbits
 2237              		.align	2
 2238              		.global	Cy_SCB_UART_DeepSleepCallback
 2239              		.thumb
 2240              		.thumb_func
 2241              		.type	Cy_SCB_UART_DeepSleepCallback, %function
 2242              	Cy_SCB_UART_DeepSleepCallback:
 2243              	.LFB237:
 261:Generated_Source\PSoC6\pdl\drivers\peripheral\scb/cy_scb_uart.c **** 
 262:Generated_Source\PSoC6\pdl\drivers\peripheral\scb/cy_scb_uart.c **** 
 263:Generated_Source\PSoC6\pdl\drivers\peripheral\scb/cy_scb_uart.c **** /*******************************************************************************
 264:Generated_Source\PSoC6\pdl\drivers\peripheral\scb/cy_scb_uart.c **** * Function Name: Cy_SCB_UART_DeepSleepCallback
 265:Generated_Source\PSoC6\pdl\drivers\peripheral\scb/cy_scb_uart.c **** ****************************************************************************//**
 266:Generated_Source\PSoC6\pdl\drivers\peripheral\scb/cy_scb_uart.c **** *
 267:Generated_Source\PSoC6\pdl\drivers\peripheral\scb/cy_scb_uart.c **** * This function handles the transition of the SCB UART into and out of
 268:Generated_Source\PSoC6\pdl\drivers\peripheral\scb/cy_scb_uart.c **** * Deep Sleep mode. It prevents the device from entering Deep Sleep 
 269:Generated_Source\PSoC6\pdl\drivers\peripheral\scb/cy_scb_uart.c **** * mode if the UART is transmitting data or has any data in the RX FIFO. If the
 270:Generated_Source\PSoC6\pdl\drivers\peripheral\scb/cy_scb_uart.c **** * UART is ready to enter Deep Sleep mode, it is disabled. The UART is enabled
 271:Generated_Source\PSoC6\pdl\drivers\peripheral\scb/cy_scb_uart.c **** * when the device fails to enter Deep Sleep mode or it is awakened from
 272:Generated_Source\PSoC6\pdl\drivers\peripheral\scb/cy_scb_uart.c **** * Deep Sleep mode. While the UART is disabled, it stops driving the outputs
 273:Generated_Source\PSoC6\pdl\drivers\peripheral\scb/cy_scb_uart.c **** * and ignores the inputs. Any incoming data is ignored.
 274:Generated_Source\PSoC6\pdl\drivers\peripheral\scb/cy_scb_uart.c **** *
 275:Generated_Source\PSoC6\pdl\drivers\peripheral\scb/cy_scb_uart.c **** * This function must be called during execution of \ref Cy_SysPm_DeepSleep,
 276:Generated_Source\PSoC6\pdl\drivers\peripheral\scb/cy_scb_uart.c **** * to do it, register this function as a callback before calling
 277:Generated_Source\PSoC6\pdl\drivers\peripheral\scb/cy_scb_uart.c **** * \ref Cy_SysPm_DeepSleep : specify \ref CY_SYSPM_DEEPSLEEP as the callback
 278:Generated_Source\PSoC6\pdl\drivers\peripheral\scb/cy_scb_uart.c **** * type and call \ref Cy_SysPm_RegisterCallback.
 279:Generated_Source\PSoC6\pdl\drivers\peripheral\scb/cy_scb_uart.c **** *
ARM GAS  C:\Users\ikomb\AppData\Local\Temp\cctq3ka9.s 			page 102


 280:Generated_Source\PSoC6\pdl\drivers\peripheral\scb/cy_scb_uart.c **** * \param callbackParams
 281:Generated_Source\PSoC6\pdl\drivers\peripheral\scb/cy_scb_uart.c **** * The pointer to the callback parameters structure
 282:Generated_Source\PSoC6\pdl\drivers\peripheral\scb/cy_scb_uart.c **** * \ref cy_stc_syspm_callback_params_t.
 283:Generated_Source\PSoC6\pdl\drivers\peripheral\scb/cy_scb_uart.c **** *
 284:Generated_Source\PSoC6\pdl\drivers\peripheral\scb/cy_scb_uart.c **** * \return
 285:Generated_Source\PSoC6\pdl\drivers\peripheral\scb/cy_scb_uart.c **** * \ref cy_en_syspm_status_t
 286:Generated_Source\PSoC6\pdl\drivers\peripheral\scb/cy_scb_uart.c **** *
 287:Generated_Source\PSoC6\pdl\drivers\peripheral\scb/cy_scb_uart.c **** *******************************************************************************/
 288:Generated_Source\PSoC6\pdl\drivers\peripheral\scb/cy_scb_uart.c **** cy_en_syspm_status_t Cy_SCB_UART_DeepSleepCallback(cy_stc_syspm_callback_params_t *callbackParams)
 289:Generated_Source\PSoC6\pdl\drivers\peripheral\scb/cy_scb_uart.c **** {
 2244              		.loc 3 289 0
 2245              		.cfi_startproc
 2246              		@ args = 0, pretend = 0, frame = 24
 2247              		@ frame_needed = 1, uses_anonymous_args = 0
 2248 0000 80B5     		push	{r7, lr}
 2249              		.cfi_def_cfa_offset 8
 2250              		.cfi_offset 7, -8
 2251              		.cfi_offset 14, -4
 2252 0002 86B0     		sub	sp, sp, #24
 2253              		.cfi_def_cfa_offset 32
 2254 0004 00AF     		add	r7, sp, #0
 2255              		.cfi_def_cfa_register 7
 2256 0006 7860     		str	r0, [r7, #4]
 290:Generated_Source\PSoC6\pdl\drivers\peripheral\scb/cy_scb_uart.c ****     cy_en_syspm_status_t retStatus = CY_SYSPM_FAIL;
 2257              		.loc 3 290 0
 2258 0008 2C4B     		ldr	r3, .L169
 2259 000a 7B61     		str	r3, [r7, #20]
 291:Generated_Source\PSoC6\pdl\drivers\peripheral\scb/cy_scb_uart.c **** 
 292:Generated_Source\PSoC6\pdl\drivers\peripheral\scb/cy_scb_uart.c ****     CySCB_Type *locBase = (CySCB_Type *) callbackParams->base;
 2260              		.loc 3 292 0
 2261 000c 7B68     		ldr	r3, [r7, #4]
 2262 000e 5B68     		ldr	r3, [r3, #4]
 2263 0010 3B61     		str	r3, [r7, #16]
 293:Generated_Source\PSoC6\pdl\drivers\peripheral\scb/cy_scb_uart.c ****     cy_stc_scb_uart_context_t *locContext = (cy_stc_scb_uart_context_t *) callbackParams->context;
 2264              		.loc 3 293 0
 2265 0012 7B68     		ldr	r3, [r7, #4]
 2266 0014 9B68     		ldr	r3, [r3, #8]
 2267 0016 FB60     		str	r3, [r7, #12]
 294:Generated_Source\PSoC6\pdl\drivers\peripheral\scb/cy_scb_uart.c **** 
 295:Generated_Source\PSoC6\pdl\drivers\peripheral\scb/cy_scb_uart.c ****     switch(callbackParams->mode)
 2268              		.loc 3 295 0
 2269 0018 7B68     		ldr	r3, [r7, #4]
 2270 001a 1B78     		ldrb	r3, [r3]	@ zero_extendqisi2
 2271 001c 013B     		subs	r3, r3, #1
 2272 001e 072B     		cmp	r3, #7
 2273 0020 43D8     		bhi	.L167
 2274 0022 01A2     		adr	r2, .L160
 2275 0024 52F823F0 		ldr	pc, [r2, r3, lsl #2]
 2276              		.p2align 2
 2277              	.L160:
 2278 0028 49000000 		.word	.L159+1
 2279 002c 93000000 		.word	.L161+1
 2280 0030 AB000000 		.word	.L167+1
 2281 0034 AB000000 		.word	.L167+1
 2282 0038 AB000000 		.word	.L167+1
 2283 003c AB000000 		.word	.L167+1
 2284 0040 AB000000 		.word	.L167+1
ARM GAS  C:\Users\ikomb\AppData\Local\Temp\cctq3ka9.s 			page 103


 2285 0044 9F000000 		.word	.L163+1
 2286              		.p2align 1
 2287              	.L159:
 296:Generated_Source\PSoC6\pdl\drivers\peripheral\scb/cy_scb_uart.c ****     {
 297:Generated_Source\PSoC6\pdl\drivers\peripheral\scb/cy_scb_uart.c ****         case CY_SYSPM_CHECK_READY:
 298:Generated_Source\PSoC6\pdl\drivers\peripheral\scb/cy_scb_uart.c ****         {
 299:Generated_Source\PSoC6\pdl\drivers\peripheral\scb/cy_scb_uart.c ****             /* Check whether the High-level API is not busy executing the transmit
 300:Generated_Source\PSoC6\pdl\drivers\peripheral\scb/cy_scb_uart.c ****             * or receive operation.
 301:Generated_Source\PSoC6\pdl\drivers\peripheral\scb/cy_scb_uart.c ****             */
 302:Generated_Source\PSoC6\pdl\drivers\peripheral\scb/cy_scb_uart.c ****             if ((0UL == (CY_SCB_UART_TRANSMIT_ACTIVE & Cy_SCB_UART_GetTransmitStatus(locBase, locCo
 2288              		.loc 3 302 0
 2289 0048 F968     		ldr	r1, [r7, #12]
 2290 004a 3869     		ldr	r0, [r7, #16]
 2291 004c FFF7FEFF 		bl	Cy_SCB_UART_GetTransmitStatus
 2292 0050 0346     		mov	r3, r0
 2293 0052 03F00103 		and	r3, r3, #1
 2294 0056 002B     		cmp	r3, #0
 2295 0058 29D1     		bne	.L168
 303:Generated_Source\PSoC6\pdl\drivers\peripheral\scb/cy_scb_uart.c ****                 (0UL == (CY_SCB_UART_RECEIVE_ACTIVE  & Cy_SCB_UART_GetReceiveStatus (locBase, locCo
 2296              		.loc 3 303 0 discriminator 1
 2297 005a F968     		ldr	r1, [r7, #12]
 2298 005c 3869     		ldr	r0, [r7, #16]
 2299 005e FFF7FEFF 		bl	Cy_SCB_UART_GetReceiveStatus
 2300 0062 0346     		mov	r3, r0
 2301 0064 03F00103 		and	r3, r3, #1
 302:Generated_Source\PSoC6\pdl\drivers\peripheral\scb/cy_scb_uart.c ****                 (0UL == (CY_SCB_UART_RECEIVE_ACTIVE  & Cy_SCB_UART_GetReceiveStatus (locBase, locCo
 2302              		.loc 3 302 0 discriminator 1
 2303 0068 002B     		cmp	r3, #0
 2304 006a 20D1     		bne	.L168
 304:Generated_Source\PSoC6\pdl\drivers\peripheral\scb/cy_scb_uart.c ****             {
 305:Generated_Source\PSoC6\pdl\drivers\peripheral\scb/cy_scb_uart.c ****                 /* If all data elements are transmitted from the TX FIFO and
 306:Generated_Source\PSoC6\pdl\drivers\peripheral\scb/cy_scb_uart.c ****                 * shifter and the RX FIFO is empty: the UART is ready to enter
 307:Generated_Source\PSoC6\pdl\drivers\peripheral\scb/cy_scb_uart.c ****                 * Deep Sleep mode.
 308:Generated_Source\PSoC6\pdl\drivers\peripheral\scb/cy_scb_uart.c ****                 */
 309:Generated_Source\PSoC6\pdl\drivers\peripheral\scb/cy_scb_uart.c ****                 if (Cy_SCB_UART_IsTxComplete(locBase))
 2305              		.loc 3 309 0
 2306 006c 3869     		ldr	r0, [r7, #16]
 2307 006e FFF7FEFF 		bl	Cy_SCB_UART_IsTxComplete
 2308 0072 0346     		mov	r3, r0
 2309 0074 002B     		cmp	r3, #0
 2310 0076 1AD0     		beq	.L168
 310:Generated_Source\PSoC6\pdl\drivers\peripheral\scb/cy_scb_uart.c ****                 {
 311:Generated_Source\PSoC6\pdl\drivers\peripheral\scb/cy_scb_uart.c ****                     if (0UL == Cy_SCB_UART_GetNumInRxFifo(locBase))
 2311              		.loc 3 311 0
 2312 0078 3869     		ldr	r0, [r7, #16]
 2313 007a FFF7FEFF 		bl	Cy_SCB_UART_GetNumInRxFifo
 2314 007e 0346     		mov	r3, r0
 2315 0080 002B     		cmp	r3, #0
 2316 0082 14D1     		bne	.L168
 312:Generated_Source\PSoC6\pdl\drivers\peripheral\scb/cy_scb_uart.c ****                     {
 313:Generated_Source\PSoC6\pdl\drivers\peripheral\scb/cy_scb_uart.c ****                         /* Disable the UART. The transmitter stops driving the
 314:Generated_Source\PSoC6\pdl\drivers\peripheral\scb/cy_scb_uart.c ****                         * lines and the receiver stops receiving data until
 315:Generated_Source\PSoC6\pdl\drivers\peripheral\scb/cy_scb_uart.c ****                         * the UART is enabled.
 316:Generated_Source\PSoC6\pdl\drivers\peripheral\scb/cy_scb_uart.c ****                         * This happens when the device failed to enter Deep
 317:Generated_Source\PSoC6\pdl\drivers\peripheral\scb/cy_scb_uart.c ****                         * Sleep or it is awaken from Deep Sleep mode.
 318:Generated_Source\PSoC6\pdl\drivers\peripheral\scb/cy_scb_uart.c ****                         */
 319:Generated_Source\PSoC6\pdl\drivers\peripheral\scb/cy_scb_uart.c ****                         Cy_SCB_UART_Disable(locBase, locContext);
ARM GAS  C:\Users\ikomb\AppData\Local\Temp\cctq3ka9.s 			page 104


 2317              		.loc 3 319 0
 2318 0084 F968     		ldr	r1, [r7, #12]
 2319 0086 3869     		ldr	r0, [r7, #16]
 2320 0088 FFF7FEFF 		bl	Cy_SCB_UART_Disable
 320:Generated_Source\PSoC6\pdl\drivers\peripheral\scb/cy_scb_uart.c **** 
 321:Generated_Source\PSoC6\pdl\drivers\peripheral\scb/cy_scb_uart.c ****                         retStatus = CY_SYSPM_SUCCESS;
 2321              		.loc 3 321 0
 2322 008c 0023     		movs	r3, #0
 2323 008e 7B61     		str	r3, [r7, #20]
 322:Generated_Source\PSoC6\pdl\drivers\peripheral\scb/cy_scb_uart.c ****                     }
 323:Generated_Source\PSoC6\pdl\drivers\peripheral\scb/cy_scb_uart.c ****                 }
 324:Generated_Source\PSoC6\pdl\drivers\peripheral\scb/cy_scb_uart.c ****             }
 325:Generated_Source\PSoC6\pdl\drivers\peripheral\scb/cy_scb_uart.c ****         }
 326:Generated_Source\PSoC6\pdl\drivers\peripheral\scb/cy_scb_uart.c ****         break;
 2324              		.loc 3 326 0
 2325 0090 0DE0     		b	.L168
 2326              	.L161:
 327:Generated_Source\PSoC6\pdl\drivers\peripheral\scb/cy_scb_uart.c **** 
 328:Generated_Source\PSoC6\pdl\drivers\peripheral\scb/cy_scb_uart.c ****         case CY_SYSPM_CHECK_FAIL:
 329:Generated_Source\PSoC6\pdl\drivers\peripheral\scb/cy_scb_uart.c ****         {
 330:Generated_Source\PSoC6\pdl\drivers\peripheral\scb/cy_scb_uart.c ****             /* The other driver is not ready for Deep Sleep mode. Restore the
 331:Generated_Source\PSoC6\pdl\drivers\peripheral\scb/cy_scb_uart.c ****             * Active mode configuration.
 332:Generated_Source\PSoC6\pdl\drivers\peripheral\scb/cy_scb_uart.c ****             */
 333:Generated_Source\PSoC6\pdl\drivers\peripheral\scb/cy_scb_uart.c **** 
 334:Generated_Source\PSoC6\pdl\drivers\peripheral\scb/cy_scb_uart.c ****             /* Enable the UART to operate */
 335:Generated_Source\PSoC6\pdl\drivers\peripheral\scb/cy_scb_uart.c ****             Cy_SCB_UART_Enable(locBase);
 2327              		.loc 3 335 0
 2328 0092 3869     		ldr	r0, [r7, #16]
 2329 0094 FFF7FEFF 		bl	Cy_SCB_UART_Enable
 336:Generated_Source\PSoC6\pdl\drivers\peripheral\scb/cy_scb_uart.c **** 
 337:Generated_Source\PSoC6\pdl\drivers\peripheral\scb/cy_scb_uart.c ****             retStatus = CY_SYSPM_SUCCESS;
 2330              		.loc 3 337 0
 2331 0098 0023     		movs	r3, #0
 2332 009a 7B61     		str	r3, [r7, #20]
 338:Generated_Source\PSoC6\pdl\drivers\peripheral\scb/cy_scb_uart.c ****         }
 339:Generated_Source\PSoC6\pdl\drivers\peripheral\scb/cy_scb_uart.c ****         break;
 2333              		.loc 3 339 0
 2334 009c 08E0     		b	.L165
 2335              	.L163:
 340:Generated_Source\PSoC6\pdl\drivers\peripheral\scb/cy_scb_uart.c **** 
 341:Generated_Source\PSoC6\pdl\drivers\peripheral\scb/cy_scb_uart.c ****         case CY_SYSPM_BEFORE_TRANSITION:
 342:Generated_Source\PSoC6\pdl\drivers\peripheral\scb/cy_scb_uart.c ****             /* Do noting: the UART is not capable of waking up from
 343:Generated_Source\PSoC6\pdl\drivers\peripheral\scb/cy_scb_uart.c ****             * Deep Sleep mode.
 344:Generated_Source\PSoC6\pdl\drivers\peripheral\scb/cy_scb_uart.c ****             */
 345:Generated_Source\PSoC6\pdl\drivers\peripheral\scb/cy_scb_uart.c ****         break;
 346:Generated_Source\PSoC6\pdl\drivers\peripheral\scb/cy_scb_uart.c **** 
 347:Generated_Source\PSoC6\pdl\drivers\peripheral\scb/cy_scb_uart.c ****         case CY_SYSPM_AFTER_TRANSITION:
 348:Generated_Source\PSoC6\pdl\drivers\peripheral\scb/cy_scb_uart.c ****         {
 349:Generated_Source\PSoC6\pdl\drivers\peripheral\scb/cy_scb_uart.c ****             /* Enable the UART to operate */
 350:Generated_Source\PSoC6\pdl\drivers\peripheral\scb/cy_scb_uart.c ****             Cy_SCB_UART_Enable(locBase);
 2336              		.loc 3 350 0
 2337 009e 3869     		ldr	r0, [r7, #16]
 2338 00a0 FFF7FEFF 		bl	Cy_SCB_UART_Enable
 351:Generated_Source\PSoC6\pdl\drivers\peripheral\scb/cy_scb_uart.c **** 
 352:Generated_Source\PSoC6\pdl\drivers\peripheral\scb/cy_scb_uart.c ****             retStatus = CY_SYSPM_SUCCESS;
 2339              		.loc 3 352 0
 2340 00a4 0023     		movs	r3, #0
ARM GAS  C:\Users\ikomb\AppData\Local\Temp\cctq3ka9.s 			page 105


 2341 00a6 7B61     		str	r3, [r7, #20]
 353:Generated_Source\PSoC6\pdl\drivers\peripheral\scb/cy_scb_uart.c ****         }
 354:Generated_Source\PSoC6\pdl\drivers\peripheral\scb/cy_scb_uart.c ****         break;
 2342              		.loc 3 354 0
 2343 00a8 02E0     		b	.L165
 2344              	.L167:
 355:Generated_Source\PSoC6\pdl\drivers\peripheral\scb/cy_scb_uart.c **** 
 356:Generated_Source\PSoC6\pdl\drivers\peripheral\scb/cy_scb_uart.c ****         default:
 357:Generated_Source\PSoC6\pdl\drivers\peripheral\scb/cy_scb_uart.c ****             break;
 2345              		.loc 3 357 0
 2346 00aa 00BF     		nop
 2347 00ac 00E0     		b	.L165
 2348              	.L168:
 326:Generated_Source\PSoC6\pdl\drivers\peripheral\scb/cy_scb_uart.c **** 
 2349              		.loc 3 326 0
 2350 00ae 00BF     		nop
 2351              	.L165:
 358:Generated_Source\PSoC6\pdl\drivers\peripheral\scb/cy_scb_uart.c ****     }
 359:Generated_Source\PSoC6\pdl\drivers\peripheral\scb/cy_scb_uart.c **** 
 360:Generated_Source\PSoC6\pdl\drivers\peripheral\scb/cy_scb_uart.c ****     return (retStatus);
 2352              		.loc 3 360 0
 2353 00b0 7B69     		ldr	r3, [r7, #20]
 361:Generated_Source\PSoC6\pdl\drivers\peripheral\scb/cy_scb_uart.c **** }
 2354              		.loc 3 361 0
 2355 00b2 1846     		mov	r0, r3
 2356 00b4 1837     		adds	r7, r7, #24
 2357              		.cfi_def_cfa_offset 8
 2358 00b6 BD46     		mov	sp, r7
 2359              		.cfi_def_cfa_register 13
 2360              		@ sp needed
 2361 00b8 80BD     		pop	{r7, pc}
 2362              	.L170:
 2363 00ba 00BF     		.align	2
 2364              	.L169:
 2365 00bc FF004200 		.word	4325631
 2366              		.cfi_endproc
 2367              	.LFE237:
 2368              		.size	Cy_SCB_UART_DeepSleepCallback, .-Cy_SCB_UART_DeepSleepCallback
 2369              		.section	.text.Cy_SCB_UART_HibernateCallback,"ax",%progbits
 2370              		.align	2
 2371              		.global	Cy_SCB_UART_HibernateCallback
 2372              		.thumb
 2373              		.thumb_func
 2374              		.type	Cy_SCB_UART_HibernateCallback, %function
 2375              	Cy_SCB_UART_HibernateCallback:
 2376              	.LFB238:
 362:Generated_Source\PSoC6\pdl\drivers\peripheral\scb/cy_scb_uart.c **** 
 363:Generated_Source\PSoC6\pdl\drivers\peripheral\scb/cy_scb_uart.c **** 
 364:Generated_Source\PSoC6\pdl\drivers\peripheral\scb/cy_scb_uart.c **** /*******************************************************************************
 365:Generated_Source\PSoC6\pdl\drivers\peripheral\scb/cy_scb_uart.c **** * Function Name: Cy_SCB_UART_HibernateCallback
 366:Generated_Source\PSoC6\pdl\drivers\peripheral\scb/cy_scb_uart.c **** ****************************************************************************//**
 367:Generated_Source\PSoC6\pdl\drivers\peripheral\scb/cy_scb_uart.c **** *
 368:Generated_Source\PSoC6\pdl\drivers\peripheral\scb/cy_scb_uart.c **** * This function handles the transition of the SCB UART into Hibernate mode. 
 369:Generated_Source\PSoC6\pdl\drivers\peripheral\scb/cy_scb_uart.c **** * It prevents the device from entering Hibernate mode if the UART is
 370:Generated_Source\PSoC6\pdl\drivers\peripheral\scb/cy_scb_uart.c **** * transmitting data or has any data in the RX FIFO. If the UART is ready
 371:Generated_Source\PSoC6\pdl\drivers\peripheral\scb/cy_scb_uart.c **** * to enter Hibernate mode, it is disabled. If the device fails to enter
 372:Generated_Source\PSoC6\pdl\drivers\peripheral\scb/cy_scb_uart.c **** * Hibernate mode, the UART is enabled. While the UART is disabled, it stops
ARM GAS  C:\Users\ikomb\AppData\Local\Temp\cctq3ka9.s 			page 106


 373:Generated_Source\PSoC6\pdl\drivers\peripheral\scb/cy_scb_uart.c **** * driving the outputs and ignores the inputs. Any incoming data is ignored.
 374:Generated_Source\PSoC6\pdl\drivers\peripheral\scb/cy_scb_uart.c **** *
 375:Generated_Source\PSoC6\pdl\drivers\peripheral\scb/cy_scb_uart.c **** * This function must be called during execution of \ref Cy_SysPm_Hibernate.
 376:Generated_Source\PSoC6\pdl\drivers\peripheral\scb/cy_scb_uart.c **** * To do it, register this function as a callback before calling
 377:Generated_Source\PSoC6\pdl\drivers\peripheral\scb/cy_scb_uart.c **** * \ref Cy_SysPm_Hibernate : specify \ref CY_SYSPM_HIBERNATE as the callback type
 378:Generated_Source\PSoC6\pdl\drivers\peripheral\scb/cy_scb_uart.c **** * and call \ref Cy_SysPm_RegisterCallback.
 379:Generated_Source\PSoC6\pdl\drivers\peripheral\scb/cy_scb_uart.c **** *
 380:Generated_Source\PSoC6\pdl\drivers\peripheral\scb/cy_scb_uart.c **** * \param callbackParams
 381:Generated_Source\PSoC6\pdl\drivers\peripheral\scb/cy_scb_uart.c **** * The pointer to the callback parameters structure
 382:Generated_Source\PSoC6\pdl\drivers\peripheral\scb/cy_scb_uart.c **** * \ref cy_stc_syspm_callback_params_t.
 383:Generated_Source\PSoC6\pdl\drivers\peripheral\scb/cy_scb_uart.c **** *
 384:Generated_Source\PSoC6\pdl\drivers\peripheral\scb/cy_scb_uart.c **** * \return
 385:Generated_Source\PSoC6\pdl\drivers\peripheral\scb/cy_scb_uart.c **** * \ref cy_en_syspm_status_t
 386:Generated_Source\PSoC6\pdl\drivers\peripheral\scb/cy_scb_uart.c **** *
 387:Generated_Source\PSoC6\pdl\drivers\peripheral\scb/cy_scb_uart.c **** *******************************************************************************/
 388:Generated_Source\PSoC6\pdl\drivers\peripheral\scb/cy_scb_uart.c **** cy_en_syspm_status_t Cy_SCB_UART_HibernateCallback(cy_stc_syspm_callback_params_t *callbackParams)
 389:Generated_Source\PSoC6\pdl\drivers\peripheral\scb/cy_scb_uart.c **** {
 2377              		.loc 3 389 0
 2378              		.cfi_startproc
 2379              		@ args = 0, pretend = 0, frame = 8
 2380              		@ frame_needed = 1, uses_anonymous_args = 0
 2381 0000 80B5     		push	{r7, lr}
 2382              		.cfi_def_cfa_offset 8
 2383              		.cfi_offset 7, -8
 2384              		.cfi_offset 14, -4
 2385 0002 82B0     		sub	sp, sp, #8
 2386              		.cfi_def_cfa_offset 16
 2387 0004 00AF     		add	r7, sp, #0
 2388              		.cfi_def_cfa_register 7
 2389 0006 7860     		str	r0, [r7, #4]
 390:Generated_Source\PSoC6\pdl\drivers\peripheral\scb/cy_scb_uart.c ****     return Cy_SCB_UART_DeepSleepCallback(callbackParams);
 2390              		.loc 3 390 0
 2391 0008 7868     		ldr	r0, [r7, #4]
 2392 000a FFF7FEFF 		bl	Cy_SCB_UART_DeepSleepCallback
 2393 000e 0346     		mov	r3, r0
 391:Generated_Source\PSoC6\pdl\drivers\peripheral\scb/cy_scb_uart.c **** }
 2394              		.loc 3 391 0
 2395 0010 1846     		mov	r0, r3
 2396 0012 0837     		adds	r7, r7, #8
 2397              		.cfi_def_cfa_offset 8
 2398 0014 BD46     		mov	sp, r7
 2399              		.cfi_def_cfa_register 13
 2400              		@ sp needed
 2401 0016 80BD     		pop	{r7, pc}
 2402              		.cfi_endproc
 2403              	.LFE238:
 2404              		.size	Cy_SCB_UART_HibernateCallback, .-Cy_SCB_UART_HibernateCallback
 2405              		.section	.text.Cy_SCB_UART_StartRingBuffer,"ax",%progbits
 2406              		.align	2
 2407              		.global	Cy_SCB_UART_StartRingBuffer
 2408              		.thumb
 2409              		.thumb_func
 2410              		.type	Cy_SCB_UART_StartRingBuffer, %function
 2411              	Cy_SCB_UART_StartRingBuffer:
 2412              	.LFB239:
 392:Generated_Source\PSoC6\pdl\drivers\peripheral\scb/cy_scb_uart.c **** 
 393:Generated_Source\PSoC6\pdl\drivers\peripheral\scb/cy_scb_uart.c **** 
ARM GAS  C:\Users\ikomb\AppData\Local\Temp\cctq3ka9.s 			page 107


 394:Generated_Source\PSoC6\pdl\drivers\peripheral\scb/cy_scb_uart.c **** /************************* High-Level Functions ********************************
 395:Generated_Source\PSoC6\pdl\drivers\peripheral\scb/cy_scb_uart.c **** * The following functions are considered high-level. They provide the layer of
 396:Generated_Source\PSoC6\pdl\drivers\peripheral\scb/cy_scb_uart.c **** * intelligence to the SCB. These functions require interrupts.
 397:Generated_Source\PSoC6\pdl\drivers\peripheral\scb/cy_scb_uart.c **** * Low-level and high-level functions must not be mixed because low-level API
 398:Generated_Source\PSoC6\pdl\drivers\peripheral\scb/cy_scb_uart.c **** * can adversely affect the operation of high-level functions.
 399:Generated_Source\PSoC6\pdl\drivers\peripheral\scb/cy_scb_uart.c **** *******************************************************************************/
 400:Generated_Source\PSoC6\pdl\drivers\peripheral\scb/cy_scb_uart.c **** 
 401:Generated_Source\PSoC6\pdl\drivers\peripheral\scb/cy_scb_uart.c **** 
 402:Generated_Source\PSoC6\pdl\drivers\peripheral\scb/cy_scb_uart.c **** /*******************************************************************************
 403:Generated_Source\PSoC6\pdl\drivers\peripheral\scb/cy_scb_uart.c **** * Function Name: Cy_SCB_UART_StartRingBuffer
 404:Generated_Source\PSoC6\pdl\drivers\peripheral\scb/cy_scb_uart.c **** ****************************************************************************//**
 405:Generated_Source\PSoC6\pdl\drivers\peripheral\scb/cy_scb_uart.c **** *
 406:Generated_Source\PSoC6\pdl\drivers\peripheral\scb/cy_scb_uart.c **** * Starts the receive ring buffer operation.
 407:Generated_Source\PSoC6\pdl\drivers\peripheral\scb/cy_scb_uart.c **** * The RX interrupt source is configured to get data from the RX
 408:Generated_Source\PSoC6\pdl\drivers\peripheral\scb/cy_scb_uart.c **** * FIFO and put into the ring buffer.
 409:Generated_Source\PSoC6\pdl\drivers\peripheral\scb/cy_scb_uart.c **** *
 410:Generated_Source\PSoC6\pdl\drivers\peripheral\scb/cy_scb_uart.c **** * \param base
 411:Generated_Source\PSoC6\pdl\drivers\peripheral\scb/cy_scb_uart.c **** * The pointer to the UART SCB instance.
 412:Generated_Source\PSoC6\pdl\drivers\peripheral\scb/cy_scb_uart.c **** *
 413:Generated_Source\PSoC6\pdl\drivers\peripheral\scb/cy_scb_uart.c **** * \param buffer
 414:Generated_Source\PSoC6\pdl\drivers\peripheral\scb/cy_scb_uart.c **** * Pointer to the user defined ring buffer.
 415:Generated_Source\PSoC6\pdl\drivers\peripheral\scb/cy_scb_uart.c **** * The item size is defined by the data type, which depends on the configured
 416:Generated_Source\PSoC6\pdl\drivers\peripheral\scb/cy_scb_uart.c **** * data width.
 417:Generated_Source\PSoC6\pdl\drivers\peripheral\scb/cy_scb_uart.c **** *
 418:Generated_Source\PSoC6\pdl\drivers\peripheral\scb/cy_scb_uart.c **** * \param size
 419:Generated_Source\PSoC6\pdl\drivers\peripheral\scb/cy_scb_uart.c **** * The size of the receive ring buffer.
 420:Generated_Source\PSoC6\pdl\drivers\peripheral\scb/cy_scb_uart.c **** * Note that one data element is used for internal use, so if the size is 32,
 421:Generated_Source\PSoC6\pdl\drivers\peripheral\scb/cy_scb_uart.c **** * then only 31 data elements are used for data storage.
 422:Generated_Source\PSoC6\pdl\drivers\peripheral\scb/cy_scb_uart.c **** *
 423:Generated_Source\PSoC6\pdl\drivers\peripheral\scb/cy_scb_uart.c **** * \param context
 424:Generated_Source\PSoC6\pdl\drivers\peripheral\scb/cy_scb_uart.c **** * The pointer to the context structure \ref cy_stc_scb_uart_context_t allocated
 425:Generated_Source\PSoC6\pdl\drivers\peripheral\scb/cy_scb_uart.c **** * by the user. The structure is used during the UART operation for internal
 426:Generated_Source\PSoC6\pdl\drivers\peripheral\scb/cy_scb_uart.c **** * configuration and data retention. The user must not modify anything
 427:Generated_Source\PSoC6\pdl\drivers\peripheral\scb/cy_scb_uart.c **** * in this structure.
 428:Generated_Source\PSoC6\pdl\drivers\peripheral\scb/cy_scb_uart.c **** *
 429:Generated_Source\PSoC6\pdl\drivers\peripheral\scb/cy_scb_uart.c **** * \note
 430:Generated_Source\PSoC6\pdl\drivers\peripheral\scb/cy_scb_uart.c **** * * The buffer must not be modified and stay allocated while the ring buffer
 431:Generated_Source\PSoC6\pdl\drivers\peripheral\scb/cy_scb_uart.c **** *   operates.
 432:Generated_Source\PSoC6\pdl\drivers\peripheral\scb/cy_scb_uart.c **** * * This function overrides the RX interrupt sources and changes the
 433:Generated_Source\PSoC6\pdl\drivers\peripheral\scb/cy_scb_uart.c **** *   RX FIFO level.
 434:Generated_Source\PSoC6\pdl\drivers\peripheral\scb/cy_scb_uart.c **** *
 435:Generated_Source\PSoC6\pdl\drivers\peripheral\scb/cy_scb_uart.c **** *******************************************************************************/
 436:Generated_Source\PSoC6\pdl\drivers\peripheral\scb/cy_scb_uart.c **** void Cy_SCB_UART_StartRingBuffer(CySCB_Type *base, void *buffer, uint32_t size, cy_stc_scb_uart_con
 437:Generated_Source\PSoC6\pdl\drivers\peripheral\scb/cy_scb_uart.c **** {
 2413              		.loc 3 437 0
 2414              		.cfi_startproc
 2415              		@ args = 0, pretend = 0, frame = 24
 2416              		@ frame_needed = 1, uses_anonymous_args = 0
 2417 0000 80B5     		push	{r7, lr}
 2418              		.cfi_def_cfa_offset 8
 2419              		.cfi_offset 7, -8
 2420              		.cfi_offset 14, -4
 2421 0002 86B0     		sub	sp, sp, #24
 2422              		.cfi_def_cfa_offset 32
 2423 0004 00AF     		add	r7, sp, #0
 2424              		.cfi_def_cfa_register 7
 2425 0006 F860     		str	r0, [r7, #12]
ARM GAS  C:\Users\ikomb\AppData\Local\Temp\cctq3ka9.s 			page 108


 2426 0008 B960     		str	r1, [r7, #8]
 2427 000a 7A60     		str	r2, [r7, #4]
 2428 000c 3B60     		str	r3, [r7]
 438:Generated_Source\PSoC6\pdl\drivers\peripheral\scb/cy_scb_uart.c ****     CY_ASSERT_L1(NULL != context);
 2429              		.loc 3 438 0
 2430 000e 3B68     		ldr	r3, [r7]
 2431 0010 002B     		cmp	r3, #0
 2432 0012 04D1     		bne	.L174
 2433              		.loc 3 438 0 is_stmt 0 discriminator 1
 2434 0014 4FF4DB71 		mov	r1, #438
 2435 0018 2248     		ldr	r0, .L182
 2436 001a FFF7FEFF 		bl	Cy_SysLib_AssertFailed
 2437              	.L174:
 439:Generated_Source\PSoC6\pdl\drivers\peripheral\scb/cy_scb_uart.c ****     CY_ASSERT_L1(CY_SCB_UART_INIT_KEY == context->initKey);
 2438              		.loc 3 439 0 is_stmt 1
 2439 001e 3B68     		ldr	r3, [r7]
 2440 0020 5B6B     		ldr	r3, [r3, #52]
 2441 0022 214A     		ldr	r2, .L182+4
 2442 0024 9342     		cmp	r3, r2
 2443 0026 04D0     		beq	.L175
 2444              		.loc 3 439 0 is_stmt 0 discriminator 1
 2445 0028 40F2B711 		movw	r1, #439
 2446 002c 1D48     		ldr	r0, .L182
 2447 002e FFF7FEFF 		bl	Cy_SysLib_AssertFailed
 2448              	.L175:
 440:Generated_Source\PSoC6\pdl\drivers\peripheral\scb/cy_scb_uart.c ****     CY_ASSERT_L1(CY_SCB_IS_BUFFER_VALID(buffer, size));
 2449              		.loc 3 440 0 is_stmt 1
 2450 0032 BB68     		ldr	r3, [r7, #8]
 2451 0034 002B     		cmp	r3, #0
 2452 0036 02D0     		beq	.L176
 2453              		.loc 3 440 0 is_stmt 0 discriminator 2
 2454 0038 7B68     		ldr	r3, [r7, #4]
 2455 003a 002B     		cmp	r3, #0
 2456 003c 04D1     		bne	.L177
 2457              	.L176:
 2458              		.loc 3 440 0 discriminator 3
 2459 003e 4FF4DC71 		mov	r1, #440
 2460 0042 1848     		ldr	r0, .L182
 2461 0044 FFF7FEFF 		bl	Cy_SysLib_AssertFailed
 2462              	.L177:
 441:Generated_Source\PSoC6\pdl\drivers\peripheral\scb/cy_scb_uart.c **** 
 442:Generated_Source\PSoC6\pdl\drivers\peripheral\scb/cy_scb_uart.c ****     if ((NULL != buffer) && (size > 0UL))
 2463              		.loc 3 442 0 is_stmt 1
 2464 0048 BB68     		ldr	r3, [r7, #8]
 2465 004a 002B     		cmp	r3, #0
 2466 004c 25D0     		beq	.L181
 2467              		.loc 3 442 0 is_stmt 0 discriminator 1
 2468 004e 7B68     		ldr	r3, [r7, #4]
 2469 0050 002B     		cmp	r3, #0
 2470 0052 22D0     		beq	.L181
 2471              	.LBB2:
 443:Generated_Source\PSoC6\pdl\drivers\peripheral\scb/cy_scb_uart.c ****     {
 444:Generated_Source\PSoC6\pdl\drivers\peripheral\scb/cy_scb_uart.c ****         uint32_t halfFifoSize =  (Cy_SCB_GetFifoSize(base) / 2UL);
 2472              		.loc 3 444 0 is_stmt 1
 2473 0054 F868     		ldr	r0, [r7, #12]
 2474 0056 FFF7FEFF 		bl	Cy_SCB_GetFifoSize
 2475 005a 0346     		mov	r3, r0
ARM GAS  C:\Users\ikomb\AppData\Local\Temp\cctq3ka9.s 			page 109


 2476 005c 5B08     		lsrs	r3, r3, #1
 2477 005e 7B61     		str	r3, [r7, #20]
 445:Generated_Source\PSoC6\pdl\drivers\peripheral\scb/cy_scb_uart.c **** 
 446:Generated_Source\PSoC6\pdl\drivers\peripheral\scb/cy_scb_uart.c ****         context->rxRingBuf     = buffer;
 2478              		.loc 3 446 0
 2479 0060 3B68     		ldr	r3, [r7]
 2480 0062 BA68     		ldr	r2, [r7, #8]
 2481 0064 9A60     		str	r2, [r3, #8]
 447:Generated_Source\PSoC6\pdl\drivers\peripheral\scb/cy_scb_uart.c ****         context->rxRingBufSize = size;
 2482              		.loc 3 447 0
 2483 0066 3B68     		ldr	r3, [r7]
 2484 0068 7A68     		ldr	r2, [r7, #4]
 2485 006a DA60     		str	r2, [r3, #12]
 448:Generated_Source\PSoC6\pdl\drivers\peripheral\scb/cy_scb_uart.c ****         context->rxRingBufHead = 0UL;
 2486              		.loc 3 448 0
 2487 006c 3B68     		ldr	r3, [r7]
 2488 006e 0022     		movs	r2, #0
 2489 0070 1A61     		str	r2, [r3, #16]
 449:Generated_Source\PSoC6\pdl\drivers\peripheral\scb/cy_scb_uart.c ****         context->rxRingBufTail = 0UL;
 2490              		.loc 3 449 0
 2491 0072 3B68     		ldr	r3, [r7]
 2492 0074 0022     		movs	r2, #0
 2493 0076 5A61     		str	r2, [r3, #20]
 450:Generated_Source\PSoC6\pdl\drivers\peripheral\scb/cy_scb_uart.c **** 
 451:Generated_Source\PSoC6\pdl\drivers\peripheral\scb/cy_scb_uart.c ****         /* Set up an RX interrupt to handle the ring buffer */
 452:Generated_Source\PSoC6\pdl\drivers\peripheral\scb/cy_scb_uart.c ****         Cy_SCB_SetRxFifoLevel(base, (size >= halfFifoSize) ? (halfFifoSize - 1UL) : (size - 1UL));
 2494              		.loc 3 452 0
 2495 0078 7A68     		ldr	r2, [r7, #4]
 2496 007a 7B69     		ldr	r3, [r7, #20]
 2497 007c 9A42     		cmp	r2, r3
 2498 007e 02D3     		bcc	.L179
 2499              		.loc 3 452 0 is_stmt 0 discriminator 1
 2500 0080 7B69     		ldr	r3, [r7, #20]
 2501 0082 013B     		subs	r3, r3, #1
 2502 0084 01E0     		b	.L180
 2503              	.L179:
 2504              		.loc 3 452 0 discriminator 2
 2505 0086 7B68     		ldr	r3, [r7, #4]
 2506 0088 013B     		subs	r3, r3, #1
 2507              	.L180:
 2508              		.loc 3 452 0 discriminator 4
 2509 008a 1946     		mov	r1, r3
 2510 008c F868     		ldr	r0, [r7, #12]
 2511 008e FFF7FEFF 		bl	Cy_SCB_SetRxFifoLevel
 453:Generated_Source\PSoC6\pdl\drivers\peripheral\scb/cy_scb_uart.c **** 
 454:Generated_Source\PSoC6\pdl\drivers\peripheral\scb/cy_scb_uart.c ****         Cy_SCB_SetRxInterruptMask(base, CY_SCB_RX_INTR_LEVEL);
 2512              		.loc 3 454 0 is_stmt 1 discriminator 4
 2513 0092 0121     		movs	r1, #1
 2514 0094 F868     		ldr	r0, [r7, #12]
 2515 0096 FFF7FEFF 		bl	Cy_SCB_SetRxInterruptMask
 2516              	.L181:
 2517              	.LBE2:
 455:Generated_Source\PSoC6\pdl\drivers\peripheral\scb/cy_scb_uart.c ****     }
 456:Generated_Source\PSoC6\pdl\drivers\peripheral\scb/cy_scb_uart.c **** }
 2518              		.loc 3 456 0
 2519 009a 00BF     		nop
 2520 009c 1837     		adds	r7, r7, #24
ARM GAS  C:\Users\ikomb\AppData\Local\Temp\cctq3ka9.s 			page 110


 2521              		.cfi_def_cfa_offset 8
 2522 009e BD46     		mov	sp, r7
 2523              		.cfi_def_cfa_register 13
 2524              		@ sp needed
 2525 00a0 80BD     		pop	{r7, pc}
 2526              	.L183:
 2527 00a2 00BF     		.align	2
 2528              	.L182:
 2529 00a4 84000000 		.word	.LC2
 2530 00a8 EFCDAB00 		.word	11259375
 2531              		.cfi_endproc
 2532              	.LFE239:
 2533              		.size	Cy_SCB_UART_StartRingBuffer, .-Cy_SCB_UART_StartRingBuffer
 2534              		.section	.text.Cy_SCB_UART_StopRingBuffer,"ax",%progbits
 2535              		.align	2
 2536              		.global	Cy_SCB_UART_StopRingBuffer
 2537              		.thumb
 2538              		.thumb_func
 2539              		.type	Cy_SCB_UART_StopRingBuffer, %function
 2540              	Cy_SCB_UART_StopRingBuffer:
 2541              	.LFB240:
 457:Generated_Source\PSoC6\pdl\drivers\peripheral\scb/cy_scb_uart.c **** 
 458:Generated_Source\PSoC6\pdl\drivers\peripheral\scb/cy_scb_uart.c **** 
 459:Generated_Source\PSoC6\pdl\drivers\peripheral\scb/cy_scb_uart.c **** /*******************************************************************************
 460:Generated_Source\PSoC6\pdl\drivers\peripheral\scb/cy_scb_uart.c **** * Function Name: Cy_SCB_UART_StopRingBuffer
 461:Generated_Source\PSoC6\pdl\drivers\peripheral\scb/cy_scb_uart.c **** ****************************************************************************//**
 462:Generated_Source\PSoC6\pdl\drivers\peripheral\scb/cy_scb_uart.c **** *
 463:Generated_Source\PSoC6\pdl\drivers\peripheral\scb/cy_scb_uart.c **** * Stops receiving data into the ring buffer and clears the ring buffer.
 464:Generated_Source\PSoC6\pdl\drivers\peripheral\scb/cy_scb_uart.c **** *
 465:Generated_Source\PSoC6\pdl\drivers\peripheral\scb/cy_scb_uart.c **** * \param base
 466:Generated_Source\PSoC6\pdl\drivers\peripheral\scb/cy_scb_uart.c **** * The pointer to the UART SCB instance.
 467:Generated_Source\PSoC6\pdl\drivers\peripheral\scb/cy_scb_uart.c **** *
 468:Generated_Source\PSoC6\pdl\drivers\peripheral\scb/cy_scb_uart.c **** * \param context
 469:Generated_Source\PSoC6\pdl\drivers\peripheral\scb/cy_scb_uart.c **** * The pointer to the context structure \ref cy_stc_scb_uart_context_t allocated
 470:Generated_Source\PSoC6\pdl\drivers\peripheral\scb/cy_scb_uart.c **** * by the user. The structure is used during the UART operation for internal
 471:Generated_Source\PSoC6\pdl\drivers\peripheral\scb/cy_scb_uart.c **** * configuration and data retention. The user must not modify anything
 472:Generated_Source\PSoC6\pdl\drivers\peripheral\scb/cy_scb_uart.c **** * in this structure.
 473:Generated_Source\PSoC6\pdl\drivers\peripheral\scb/cy_scb_uart.c **** *
 474:Generated_Source\PSoC6\pdl\drivers\peripheral\scb/cy_scb_uart.c **** *******************************************************************************/
 475:Generated_Source\PSoC6\pdl\drivers\peripheral\scb/cy_scb_uart.c **** void Cy_SCB_UART_StopRingBuffer(CySCB_Type *base, cy_stc_scb_uart_context_t *context)
 476:Generated_Source\PSoC6\pdl\drivers\peripheral\scb/cy_scb_uart.c **** {
 2542              		.loc 3 476 0
 2543              		.cfi_startproc
 2544              		@ args = 0, pretend = 0, frame = 8
 2545              		@ frame_needed = 1, uses_anonymous_args = 0
 2546 0000 80B5     		push	{r7, lr}
 2547              		.cfi_def_cfa_offset 8
 2548              		.cfi_offset 7, -8
 2549              		.cfi_offset 14, -4
 2550 0002 82B0     		sub	sp, sp, #8
 2551              		.cfi_def_cfa_offset 16
 2552 0004 00AF     		add	r7, sp, #0
 2553              		.cfi_def_cfa_register 7
 2554 0006 7860     		str	r0, [r7, #4]
 2555 0008 3960     		str	r1, [r7]
 477:Generated_Source\PSoC6\pdl\drivers\peripheral\scb/cy_scb_uart.c ****     Cy_SCB_SetRxInterruptMask  (base, CY_SCB_CLEAR_ALL_INTR_SRC);
 2556              		.loc 3 477 0
ARM GAS  C:\Users\ikomb\AppData\Local\Temp\cctq3ka9.s 			page 111


 2557 000a 0021     		movs	r1, #0
 2558 000c 7868     		ldr	r0, [r7, #4]
 2559 000e FFF7FEFF 		bl	Cy_SCB_SetRxInterruptMask
 478:Generated_Source\PSoC6\pdl\drivers\peripheral\scb/cy_scb_uart.c ****     Cy_SCB_UART_ClearRingBuffer(base, context);
 2560              		.loc 3 478 0
 2561 0012 3968     		ldr	r1, [r7]
 2562 0014 7868     		ldr	r0, [r7, #4]
 2563 0016 FFF7FEFF 		bl	Cy_SCB_UART_ClearRingBuffer
 479:Generated_Source\PSoC6\pdl\drivers\peripheral\scb/cy_scb_uart.c **** 
 480:Generated_Source\PSoC6\pdl\drivers\peripheral\scb/cy_scb_uart.c ****     context->rxRingBuf     = NULL;
 2564              		.loc 3 480 0
 2565 001a 3B68     		ldr	r3, [r7]
 2566 001c 0022     		movs	r2, #0
 2567 001e 9A60     		str	r2, [r3, #8]
 481:Generated_Source\PSoC6\pdl\drivers\peripheral\scb/cy_scb_uart.c ****     context->rxRingBufSize = 0UL;
 2568              		.loc 3 481 0
 2569 0020 3B68     		ldr	r3, [r7]
 2570 0022 0022     		movs	r2, #0
 2571 0024 DA60     		str	r2, [r3, #12]
 482:Generated_Source\PSoC6\pdl\drivers\peripheral\scb/cy_scb_uart.c **** }
 2572              		.loc 3 482 0
 2573 0026 00BF     		nop
 2574 0028 0837     		adds	r7, r7, #8
 2575              		.cfi_def_cfa_offset 8
 2576 002a BD46     		mov	sp, r7
 2577              		.cfi_def_cfa_register 13
 2578              		@ sp needed
 2579 002c 80BD     		pop	{r7, pc}
 2580              		.cfi_endproc
 2581              	.LFE240:
 2582              		.size	Cy_SCB_UART_StopRingBuffer, .-Cy_SCB_UART_StopRingBuffer
 2583 002e 00BF     		.section	.text.Cy_SCB_UART_GetNumInRingBuffer,"ax",%progbits
 2584              		.align	2
 2585              		.global	Cy_SCB_UART_GetNumInRingBuffer
 2586              		.thumb
 2587              		.thumb_func
 2588              		.type	Cy_SCB_UART_GetNumInRingBuffer, %function
 2589              	Cy_SCB_UART_GetNumInRingBuffer:
 2590              	.LFB241:
 483:Generated_Source\PSoC6\pdl\drivers\peripheral\scb/cy_scb_uart.c **** 
 484:Generated_Source\PSoC6\pdl\drivers\peripheral\scb/cy_scb_uart.c **** 
 485:Generated_Source\PSoC6\pdl\drivers\peripheral\scb/cy_scb_uart.c **** /*******************************************************************************
 486:Generated_Source\PSoC6\pdl\drivers\peripheral\scb/cy_scb_uart.c **** * Function Name: Cy_SCB_UART_GetNumInRingBuffer
 487:Generated_Source\PSoC6\pdl\drivers\peripheral\scb/cy_scb_uart.c **** ****************************************************************************//**
 488:Generated_Source\PSoC6\pdl\drivers\peripheral\scb/cy_scb_uart.c **** *
 489:Generated_Source\PSoC6\pdl\drivers\peripheral\scb/cy_scb_uart.c **** * Returns the number of data elements in the ring buffer.
 490:Generated_Source\PSoC6\pdl\drivers\peripheral\scb/cy_scb_uart.c **** *
 491:Generated_Source\PSoC6\pdl\drivers\peripheral\scb/cy_scb_uart.c **** * \param base
 492:Generated_Source\PSoC6\pdl\drivers\peripheral\scb/cy_scb_uart.c **** * The pointer to the UART SCB instance.
 493:Generated_Source\PSoC6\pdl\drivers\peripheral\scb/cy_scb_uart.c **** *
 494:Generated_Source\PSoC6\pdl\drivers\peripheral\scb/cy_scb_uart.c **** * \param context
 495:Generated_Source\PSoC6\pdl\drivers\peripheral\scb/cy_scb_uart.c **** * The pointer to the context structure \ref cy_stc_scb_uart_context_t allocated
 496:Generated_Source\PSoC6\pdl\drivers\peripheral\scb/cy_scb_uart.c **** * by the user. The structure is used during the UART operation for internal
 497:Generated_Source\PSoC6\pdl\drivers\peripheral\scb/cy_scb_uart.c **** * configuration and data retention. The user must not modify anything
 498:Generated_Source\PSoC6\pdl\drivers\peripheral\scb/cy_scb_uart.c **** * in this structure.
 499:Generated_Source\PSoC6\pdl\drivers\peripheral\scb/cy_scb_uart.c **** *
 500:Generated_Source\PSoC6\pdl\drivers\peripheral\scb/cy_scb_uart.c **** * \return
ARM GAS  C:\Users\ikomb\AppData\Local\Temp\cctq3ka9.s 			page 112


 501:Generated_Source\PSoC6\pdl\drivers\peripheral\scb/cy_scb_uart.c **** * The number of data elements in the receive ring buffer.
 502:Generated_Source\PSoC6\pdl\drivers\peripheral\scb/cy_scb_uart.c **** *
 503:Generated_Source\PSoC6\pdl\drivers\peripheral\scb/cy_scb_uart.c **** * \note
 504:Generated_Source\PSoC6\pdl\drivers\peripheral\scb/cy_scb_uart.c **** * One data element is used for internal use, so when the buffer is full,
 505:Generated_Source\PSoC6\pdl\drivers\peripheral\scb/cy_scb_uart.c **** * this function returns (Ring Buffer size - 1).
 506:Generated_Source\PSoC6\pdl\drivers\peripheral\scb/cy_scb_uart.c **** *
 507:Generated_Source\PSoC6\pdl\drivers\peripheral\scb/cy_scb_uart.c **** *******************************************************************************/
 508:Generated_Source\PSoC6\pdl\drivers\peripheral\scb/cy_scb_uart.c **** uint32_t Cy_SCB_UART_GetNumInRingBuffer(CySCB_Type const *base, cy_stc_scb_uart_context_t const *co
 509:Generated_Source\PSoC6\pdl\drivers\peripheral\scb/cy_scb_uart.c **** {
 2591              		.loc 3 509 0
 2592              		.cfi_startproc
 2593              		@ args = 0, pretend = 0, frame = 16
 2594              		@ frame_needed = 1, uses_anonymous_args = 0
 2595              		@ link register save eliminated.
 2596 0000 80B4     		push	{r7}
 2597              		.cfi_def_cfa_offset 4
 2598              		.cfi_offset 7, -4
 2599 0002 85B0     		sub	sp, sp, #20
 2600              		.cfi_def_cfa_offset 24
 2601 0004 00AF     		add	r7, sp, #0
 2602              		.cfi_def_cfa_register 7
 2603 0006 7860     		str	r0, [r7, #4]
 2604 0008 3960     		str	r1, [r7]
 510:Generated_Source\PSoC6\pdl\drivers\peripheral\scb/cy_scb_uart.c ****     uint32_t size;
 511:Generated_Source\PSoC6\pdl\drivers\peripheral\scb/cy_scb_uart.c ****     uint32_t locHead = context->rxRingBufHead;
 2605              		.loc 3 511 0
 2606 000a 3B68     		ldr	r3, [r7]
 2607 000c 1B69     		ldr	r3, [r3, #16]
 2608 000e BB60     		str	r3, [r7, #8]
 512:Generated_Source\PSoC6\pdl\drivers\peripheral\scb/cy_scb_uart.c **** 
 513:Generated_Source\PSoC6\pdl\drivers\peripheral\scb/cy_scb_uart.c ****     /* Suppress a compiler warning about unused variables */
 514:Generated_Source\PSoC6\pdl\drivers\peripheral\scb/cy_scb_uart.c ****     (void) base;
 515:Generated_Source\PSoC6\pdl\drivers\peripheral\scb/cy_scb_uart.c **** 
 516:Generated_Source\PSoC6\pdl\drivers\peripheral\scb/cy_scb_uart.c ****     if (locHead >= context->rxRingBufTail)
 2609              		.loc 3 516 0
 2610 0010 3B68     		ldr	r3, [r7]
 2611 0012 5A69     		ldr	r2, [r3, #20]
 2612 0014 BB68     		ldr	r3, [r7, #8]
 2613 0016 9A42     		cmp	r2, r3
 2614 0018 05D8     		bhi	.L186
 517:Generated_Source\PSoC6\pdl\drivers\peripheral\scb/cy_scb_uart.c ****     {
 518:Generated_Source\PSoC6\pdl\drivers\peripheral\scb/cy_scb_uart.c ****         size = (locHead - context->rxRingBufTail);
 2615              		.loc 3 518 0
 2616 001a 3B68     		ldr	r3, [r7]
 2617 001c 5B69     		ldr	r3, [r3, #20]
 2618 001e BA68     		ldr	r2, [r7, #8]
 2619 0020 D31A     		subs	r3, r2, r3
 2620 0022 FB60     		str	r3, [r7, #12]
 2621 0024 07E0     		b	.L187
 2622              	.L186:
 519:Generated_Source\PSoC6\pdl\drivers\peripheral\scb/cy_scb_uart.c ****     }
 520:Generated_Source\PSoC6\pdl\drivers\peripheral\scb/cy_scb_uart.c ****     else
 521:Generated_Source\PSoC6\pdl\drivers\peripheral\scb/cy_scb_uart.c ****     {
 522:Generated_Source\PSoC6\pdl\drivers\peripheral\scb/cy_scb_uart.c ****         size = (locHead + (context->rxBufSize - context->rxRingBufTail));
 2623              		.loc 3 522 0
 2624 0026 3B68     		ldr	r3, [r7]
 2625 0028 DA69     		ldr	r2, [r3, #28]
ARM GAS  C:\Users\ikomb\AppData\Local\Temp\cctq3ka9.s 			page 113


 2626 002a 3B68     		ldr	r3, [r7]
 2627 002c 5B69     		ldr	r3, [r3, #20]
 2628 002e D21A     		subs	r2, r2, r3
 2629 0030 BB68     		ldr	r3, [r7, #8]
 2630 0032 1344     		add	r3, r3, r2
 2631 0034 FB60     		str	r3, [r7, #12]
 2632              	.L187:
 523:Generated_Source\PSoC6\pdl\drivers\peripheral\scb/cy_scb_uart.c ****     }
 524:Generated_Source\PSoC6\pdl\drivers\peripheral\scb/cy_scb_uart.c **** 
 525:Generated_Source\PSoC6\pdl\drivers\peripheral\scb/cy_scb_uart.c ****     return (size);
 2633              		.loc 3 525 0
 2634 0036 FB68     		ldr	r3, [r7, #12]
 526:Generated_Source\PSoC6\pdl\drivers\peripheral\scb/cy_scb_uart.c **** }
 2635              		.loc 3 526 0
 2636 0038 1846     		mov	r0, r3
 2637 003a 1437     		adds	r7, r7, #20
 2638              		.cfi_def_cfa_offset 4
 2639 003c BD46     		mov	sp, r7
 2640              		.cfi_def_cfa_register 13
 2641              		@ sp needed
 2642 003e 5DF8047B 		ldr	r7, [sp], #4
 2643              		.cfi_restore 7
 2644              		.cfi_def_cfa_offset 0
 2645 0042 7047     		bx	lr
 2646              		.cfi_endproc
 2647              	.LFE241:
 2648              		.size	Cy_SCB_UART_GetNumInRingBuffer, .-Cy_SCB_UART_GetNumInRingBuffer
 2649              		.section	.text.Cy_SCB_UART_ClearRingBuffer,"ax",%progbits
 2650              		.align	2
 2651              		.global	Cy_SCB_UART_ClearRingBuffer
 2652              		.thumb
 2653              		.thumb_func
 2654              		.type	Cy_SCB_UART_ClearRingBuffer, %function
 2655              	Cy_SCB_UART_ClearRingBuffer:
 2656              	.LFB242:
 527:Generated_Source\PSoC6\pdl\drivers\peripheral\scb/cy_scb_uart.c **** 
 528:Generated_Source\PSoC6\pdl\drivers\peripheral\scb/cy_scb_uart.c **** 
 529:Generated_Source\PSoC6\pdl\drivers\peripheral\scb/cy_scb_uart.c **** /*******************************************************************************
 530:Generated_Source\PSoC6\pdl\drivers\peripheral\scb/cy_scb_uart.c **** * Function Name: Cy_SCB_UART_ClearRingBuffer
 531:Generated_Source\PSoC6\pdl\drivers\peripheral\scb/cy_scb_uart.c **** ****************************************************************************//**
 532:Generated_Source\PSoC6\pdl\drivers\peripheral\scb/cy_scb_uart.c **** *
 533:Generated_Source\PSoC6\pdl\drivers\peripheral\scb/cy_scb_uart.c **** * Clears the ring buffer.
 534:Generated_Source\PSoC6\pdl\drivers\peripheral\scb/cy_scb_uart.c **** *
 535:Generated_Source\PSoC6\pdl\drivers\peripheral\scb/cy_scb_uart.c **** * \param base
 536:Generated_Source\PSoC6\pdl\drivers\peripheral\scb/cy_scb_uart.c **** * The pointer to the UART SCB instance.
 537:Generated_Source\PSoC6\pdl\drivers\peripheral\scb/cy_scb_uart.c **** *
 538:Generated_Source\PSoC6\pdl\drivers\peripheral\scb/cy_scb_uart.c **** * \param context
 539:Generated_Source\PSoC6\pdl\drivers\peripheral\scb/cy_scb_uart.c **** * The pointer to the context structure \ref cy_stc_scb_uart_context_t allocated
 540:Generated_Source\PSoC6\pdl\drivers\peripheral\scb/cy_scb_uart.c **** * by the user. The structure is used during the UART operation for internal
 541:Generated_Source\PSoC6\pdl\drivers\peripheral\scb/cy_scb_uart.c **** * configuration and data retention. The user must not modify anything
 542:Generated_Source\PSoC6\pdl\drivers\peripheral\scb/cy_scb_uart.c **** * in this structure.
 543:Generated_Source\PSoC6\pdl\drivers\peripheral\scb/cy_scb_uart.c **** *
 544:Generated_Source\PSoC6\pdl\drivers\peripheral\scb/cy_scb_uart.c **** *******************************************************************************/
 545:Generated_Source\PSoC6\pdl\drivers\peripheral\scb/cy_scb_uart.c **** void Cy_SCB_UART_ClearRingBuffer(CySCB_Type const *base, cy_stc_scb_uart_context_t *context)
 546:Generated_Source\PSoC6\pdl\drivers\peripheral\scb/cy_scb_uart.c **** {
 2657              		.loc 3 546 0
 2658              		.cfi_startproc
ARM GAS  C:\Users\ikomb\AppData\Local\Temp\cctq3ka9.s 			page 114


 2659              		@ args = 0, pretend = 0, frame = 8
 2660              		@ frame_needed = 1, uses_anonymous_args = 0
 2661              		@ link register save eliminated.
 2662 0000 80B4     		push	{r7}
 2663              		.cfi_def_cfa_offset 4
 2664              		.cfi_offset 7, -4
 2665 0002 83B0     		sub	sp, sp, #12
 2666              		.cfi_def_cfa_offset 16
 2667 0004 00AF     		add	r7, sp, #0
 2668              		.cfi_def_cfa_register 7
 2669 0006 7860     		str	r0, [r7, #4]
 2670 0008 3960     		str	r1, [r7]
 547:Generated_Source\PSoC6\pdl\drivers\peripheral\scb/cy_scb_uart.c ****     /* Suppress a compiler warning about unused variables */
 548:Generated_Source\PSoC6\pdl\drivers\peripheral\scb/cy_scb_uart.c ****     (void) base;
 549:Generated_Source\PSoC6\pdl\drivers\peripheral\scb/cy_scb_uart.c **** 
 550:Generated_Source\PSoC6\pdl\drivers\peripheral\scb/cy_scb_uart.c ****     context->rxRingBufHead = context->rxRingBufTail;
 2671              		.loc 3 550 0
 2672 000a 3B68     		ldr	r3, [r7]
 2673 000c 5A69     		ldr	r2, [r3, #20]
 2674 000e 3B68     		ldr	r3, [r7]
 2675 0010 1A61     		str	r2, [r3, #16]
 551:Generated_Source\PSoC6\pdl\drivers\peripheral\scb/cy_scb_uart.c **** }
 2676              		.loc 3 551 0
 2677 0012 00BF     		nop
 2678 0014 0C37     		adds	r7, r7, #12
 2679              		.cfi_def_cfa_offset 4
 2680 0016 BD46     		mov	sp, r7
 2681              		.cfi_def_cfa_register 13
 2682              		@ sp needed
 2683 0018 5DF8047B 		ldr	r7, [sp], #4
 2684              		.cfi_restore 7
 2685              		.cfi_def_cfa_offset 0
 2686 001c 7047     		bx	lr
 2687              		.cfi_endproc
 2688              	.LFE242:
 2689              		.size	Cy_SCB_UART_ClearRingBuffer, .-Cy_SCB_UART_ClearRingBuffer
 2690 001e 00BF     		.section	.text.Cy_SCB_UART_Receive,"ax",%progbits
 2691              		.align	2
 2692              		.global	Cy_SCB_UART_Receive
 2693              		.thumb
 2694              		.thumb_func
 2695              		.type	Cy_SCB_UART_Receive, %function
 2696              	Cy_SCB_UART_Receive:
 2697              	.LFB243:
 552:Generated_Source\PSoC6\pdl\drivers\peripheral\scb/cy_scb_uart.c **** 
 553:Generated_Source\PSoC6\pdl\drivers\peripheral\scb/cy_scb_uart.c **** 
 554:Generated_Source\PSoC6\pdl\drivers\peripheral\scb/cy_scb_uart.c **** /*******************************************************************************
 555:Generated_Source\PSoC6\pdl\drivers\peripheral\scb/cy_scb_uart.c **** * Function Name: Cy_SCB_UART_Receive
 556:Generated_Source\PSoC6\pdl\drivers\peripheral\scb/cy_scb_uart.c **** ****************************************************************************//**
 557:Generated_Source\PSoC6\pdl\drivers\peripheral\scb/cy_scb_uart.c **** *
 558:Generated_Source\PSoC6\pdl\drivers\peripheral\scb/cy_scb_uart.c **** * This function starts a UART receive operation.
 559:Generated_Source\PSoC6\pdl\drivers\peripheral\scb/cy_scb_uart.c **** * It configures the receive interrupt sources to get data available in the
 560:Generated_Source\PSoC6\pdl\drivers\peripheral\scb/cy_scb_uart.c **** * receive FIFO and returns. The \ref Cy_SCB_UART_Interrupt manages the further
 561:Generated_Source\PSoC6\pdl\drivers\peripheral\scb/cy_scb_uart.c **** * data transfer.
 562:Generated_Source\PSoC6\pdl\drivers\peripheral\scb/cy_scb_uart.c **** *
 563:Generated_Source\PSoC6\pdl\drivers\peripheral\scb/cy_scb_uart.c **** * If the ring buffer is enabled, this function first reads data from the ring
 564:Generated_Source\PSoC6\pdl\drivers\peripheral\scb/cy_scb_uart.c **** * buffer. If there is more data to receive, it configures the receive interrupt
ARM GAS  C:\Users\ikomb\AppData\Local\Temp\cctq3ka9.s 			page 115


 565:Generated_Source\PSoC6\pdl\drivers\peripheral\scb/cy_scb_uart.c **** * sources to copy the remaining bytes from the RX FIFO when they arrive.
 566:Generated_Source\PSoC6\pdl\drivers\peripheral\scb/cy_scb_uart.c **** *
 567:Generated_Source\PSoC6\pdl\drivers\peripheral\scb/cy_scb_uart.c **** * When the receive operation is completed (requested number of data elements
 568:Generated_Source\PSoC6\pdl\drivers\peripheral\scb/cy_scb_uart.c **** * received) the \ref CY_SCB_UART_RECEIVE_ACTIVE status is cleared and
 569:Generated_Source\PSoC6\pdl\drivers\peripheral\scb/cy_scb_uart.c **** * the \ref CY_SCB_UART_RECEIVE_DONE_EVENT event is generated.
 570:Generated_Source\PSoC6\pdl\drivers\peripheral\scb/cy_scb_uart.c **** *
 571:Generated_Source\PSoC6\pdl\drivers\peripheral\scb/cy_scb_uart.c **** * \param base
 572:Generated_Source\PSoC6\pdl\drivers\peripheral\scb/cy_scb_uart.c **** * The pointer to the UART SCB instance.
 573:Generated_Source\PSoC6\pdl\drivers\peripheral\scb/cy_scb_uart.c **** *
 574:Generated_Source\PSoC6\pdl\drivers\peripheral\scb/cy_scb_uart.c **** * \param buffer
 575:Generated_Source\PSoC6\pdl\drivers\peripheral\scb/cy_scb_uart.c **** * Pointer to buffer to store received data.
 576:Generated_Source\PSoC6\pdl\drivers\peripheral\scb/cy_scb_uart.c **** * The item size is defined by the data type, which depends on the configured
 577:Generated_Source\PSoC6\pdl\drivers\peripheral\scb/cy_scb_uart.c **** * data width.
 578:Generated_Source\PSoC6\pdl\drivers\peripheral\scb/cy_scb_uart.c **** *
 579:Generated_Source\PSoC6\pdl\drivers\peripheral\scb/cy_scb_uart.c **** * \param size
 580:Generated_Source\PSoC6\pdl\drivers\peripheral\scb/cy_scb_uart.c **** * The number of data elements to receive.
 581:Generated_Source\PSoC6\pdl\drivers\peripheral\scb/cy_scb_uart.c **** *
 582:Generated_Source\PSoC6\pdl\drivers\peripheral\scb/cy_scb_uart.c **** * \param context
 583:Generated_Source\PSoC6\pdl\drivers\peripheral\scb/cy_scb_uart.c **** * The pointer to the context structure \ref cy_stc_scb_uart_context_t allocated
 584:Generated_Source\PSoC6\pdl\drivers\peripheral\scb/cy_scb_uart.c **** * by the user. The structure is used during the UART operation for internal
 585:Generated_Source\PSoC6\pdl\drivers\peripheral\scb/cy_scb_uart.c **** * configuration and data retention. The user must not modify anything
 586:Generated_Source\PSoC6\pdl\drivers\peripheral\scb/cy_scb_uart.c **** * in this structure.
 587:Generated_Source\PSoC6\pdl\drivers\peripheral\scb/cy_scb_uart.c **** *
 588:Generated_Source\PSoC6\pdl\drivers\peripheral\scb/cy_scb_uart.c **** * \return
 589:Generated_Source\PSoC6\pdl\drivers\peripheral\scb/cy_scb_uart.c **** * \ref cy_en_scb_uart_status_t
 590:Generated_Source\PSoC6\pdl\drivers\peripheral\scb/cy_scb_uart.c **** *
 591:Generated_Source\PSoC6\pdl\drivers\peripheral\scb/cy_scb_uart.c **** * \note
 592:Generated_Source\PSoC6\pdl\drivers\peripheral\scb/cy_scb_uart.c **** * * The buffer must not be modified and stay allocated until end of the
 593:Generated_Source\PSoC6\pdl\drivers\peripheral\scb/cy_scb_uart.c **** *   receive operation.
 594:Generated_Source\PSoC6\pdl\drivers\peripheral\scb/cy_scb_uart.c **** * * This function overrides the RX interrupt sources and changes the
 595:Generated_Source\PSoC6\pdl\drivers\peripheral\scb/cy_scb_uart.c **** *   RX FIFO level.
 596:Generated_Source\PSoC6\pdl\drivers\peripheral\scb/cy_scb_uart.c **** *
 597:Generated_Source\PSoC6\pdl\drivers\peripheral\scb/cy_scb_uart.c **** *******************************************************************************/
 598:Generated_Source\PSoC6\pdl\drivers\peripheral\scb/cy_scb_uart.c **** cy_en_scb_uart_status_t Cy_SCB_UART_Receive(CySCB_Type *base, void *buffer, uint32_t size, cy_stc_s
 599:Generated_Source\PSoC6\pdl\drivers\peripheral\scb/cy_scb_uart.c **** {
 2698              		.loc 3 599 0
 2699              		.cfi_startproc
 2700              		@ args = 0, pretend = 0, frame = 56
 2701              		@ frame_needed = 1, uses_anonymous_args = 0
 2702 0000 80B5     		push	{r7, lr}
 2703              		.cfi_def_cfa_offset 8
 2704              		.cfi_offset 7, -8
 2705              		.cfi_offset 14, -4
 2706 0002 8EB0     		sub	sp, sp, #56
 2707              		.cfi_def_cfa_offset 64
 2708 0004 00AF     		add	r7, sp, #0
 2709              		.cfi_def_cfa_register 7
 2710 0006 F860     		str	r0, [r7, #12]
 2711 0008 B960     		str	r1, [r7, #8]
 2712 000a 7A60     		str	r2, [r7, #4]
 2713 000c 3B60     		str	r3, [r7]
 600:Generated_Source\PSoC6\pdl\drivers\peripheral\scb/cy_scb_uart.c ****     CY_ASSERT_L1(NULL != context);
 2714              		.loc 3 600 0
 2715 000e 3B68     		ldr	r3, [r7]
 2716 0010 002B     		cmp	r3, #0
 2717 0012 04D1     		bne	.L191
 2718              		.loc 3 600 0 is_stmt 0 discriminator 1
ARM GAS  C:\Users\ikomb\AppData\Local\Temp\cctq3ka9.s 			page 116


 2719 0014 4FF41671 		mov	r1, #600
 2720 0018 6848     		ldr	r0, .L211
 2721 001a FFF7FEFF 		bl	Cy_SysLib_AssertFailed
 2722              	.L191:
 601:Generated_Source\PSoC6\pdl\drivers\peripheral\scb/cy_scb_uart.c ****     CY_ASSERT_L1(CY_SCB_UART_INIT_KEY == context->initKey);
 2723              		.loc 3 601 0 is_stmt 1
 2724 001e 3B68     		ldr	r3, [r7]
 2725 0020 5B6B     		ldr	r3, [r3, #52]
 2726 0022 674A     		ldr	r2, .L211+4
 2727 0024 9342     		cmp	r3, r2
 2728 0026 04D0     		beq	.L192
 2729              		.loc 3 601 0 is_stmt 0 discriminator 1
 2730 0028 40F25921 		movw	r1, #601
 2731 002c 6348     		ldr	r0, .L211
 2732 002e FFF7FEFF 		bl	Cy_SysLib_AssertFailed
 2733              	.L192:
 602:Generated_Source\PSoC6\pdl\drivers\peripheral\scb/cy_scb_uart.c ****     CY_ASSERT_L1(CY_SCB_IS_BUFFER_VALID(buffer, size));
 2734              		.loc 3 602 0 is_stmt 1
 2735 0032 BB68     		ldr	r3, [r7, #8]
 2736 0034 002B     		cmp	r3, #0
 2737 0036 02D0     		beq	.L193
 2738              		.loc 3 602 0 is_stmt 0 discriminator 2
 2739 0038 7B68     		ldr	r3, [r7, #4]
 2740 003a 002B     		cmp	r3, #0
 2741 003c 04D1     		bne	.L194
 2742              	.L193:
 2743              		.loc 3 602 0 discriminator 3
 2744 003e 40F25A21 		movw	r1, #602
 2745 0042 5E48     		ldr	r0, .L211
 2746 0044 FFF7FEFF 		bl	Cy_SysLib_AssertFailed
 2747              	.L194:
 603:Generated_Source\PSoC6\pdl\drivers\peripheral\scb/cy_scb_uart.c **** 
 604:Generated_Source\PSoC6\pdl\drivers\peripheral\scb/cy_scb_uart.c ****     cy_en_scb_uart_status_t retStatus = CY_SCB_UART_RECEIVE_BUSY;
 2748              		.loc 3 604 0 is_stmt 1
 2749 0048 5E4B     		ldr	r3, .L211+8
 2750 004a 7B63     		str	r3, [r7, #52]
 605:Generated_Source\PSoC6\pdl\drivers\peripheral\scb/cy_scb_uart.c **** 
 606:Generated_Source\PSoC6\pdl\drivers\peripheral\scb/cy_scb_uart.c ****     /* check whether there are no active transfer requests */
 607:Generated_Source\PSoC6\pdl\drivers\peripheral\scb/cy_scb_uart.c ****     if (0UL == (context->rxStatus & CY_SCB_UART_RECEIVE_ACTIVE))
 2751              		.loc 3 607 0
 2752 004c 3B68     		ldr	r3, [r7]
 2753 004e 5B68     		ldr	r3, [r3, #4]
 2754 0050 03F00103 		and	r3, r3, #1
 2755 0054 002B     		cmp	r3, #0
 2756 0056 40F0AB80 		bne	.L195
 2757              	.LBB3:
 608:Generated_Source\PSoC6\pdl\drivers\peripheral\scb/cy_scb_uart.c ****     {
 609:Generated_Source\PSoC6\pdl\drivers\peripheral\scb/cy_scb_uart.c ****         uint8_t  *tmpBuf = (uint8_t *) buffer;
 2758              		.loc 3 609 0
 2759 005a BB68     		ldr	r3, [r7, #8]
 2760 005c 3B63     		str	r3, [r7, #48]
 610:Generated_Source\PSoC6\pdl\drivers\peripheral\scb/cy_scb_uart.c ****         uint32_t numToCopy = 0UL;
 2761              		.loc 3 610 0
 2762 005e 0023     		movs	r3, #0
 2763 0060 FB62     		str	r3, [r7, #44]
 611:Generated_Source\PSoC6\pdl\drivers\peripheral\scb/cy_scb_uart.c **** 
 612:Generated_Source\PSoC6\pdl\drivers\peripheral\scb/cy_scb_uart.c ****         /* Disable the RX interrupt source to stop the ring buffer update */
ARM GAS  C:\Users\ikomb\AppData\Local\Temp\cctq3ka9.s 			page 117


 613:Generated_Source\PSoC6\pdl\drivers\peripheral\scb/cy_scb_uart.c ****         Cy_SCB_SetRxInterruptMask(base, CY_SCB_CLEAR_ALL_INTR_SRC);
 2764              		.loc 3 613 0
 2765 0062 0021     		movs	r1, #0
 2766 0064 F868     		ldr	r0, [r7, #12]
 2767 0066 FFF7FEFF 		bl	Cy_SCB_SetRxInterruptMask
 614:Generated_Source\PSoC6\pdl\drivers\peripheral\scb/cy_scb_uart.c **** 
 615:Generated_Source\PSoC6\pdl\drivers\peripheral\scb/cy_scb_uart.c ****         if (NULL != context->rxRingBuf)
 2768              		.loc 3 615 0
 2769 006a 3B68     		ldr	r3, [r7]
 2770 006c 9B68     		ldr	r3, [r3, #8]
 2771 006e 002B     		cmp	r3, #0
 2772 0070 75D0     		beq	.L196
 616:Generated_Source\PSoC6\pdl\drivers\peripheral\scb/cy_scb_uart.c ****         {
 617:Generated_Source\PSoC6\pdl\drivers\peripheral\scb/cy_scb_uart.c ****             /* Get the items available in the ring buffer */
 618:Generated_Source\PSoC6\pdl\drivers\peripheral\scb/cy_scb_uart.c ****             numToCopy = Cy_SCB_UART_GetNumInRingBuffer(base, context);
 2773              		.loc 3 618 0
 2774 0072 3968     		ldr	r1, [r7]
 2775 0074 F868     		ldr	r0, [r7, #12]
 2776 0076 FFF7FEFF 		bl	Cy_SCB_UART_GetNumInRingBuffer
 2777 007a F862     		str	r0, [r7, #44]
 619:Generated_Source\PSoC6\pdl\drivers\peripheral\scb/cy_scb_uart.c **** 
 620:Generated_Source\PSoC6\pdl\drivers\peripheral\scb/cy_scb_uart.c ****             if (numToCopy > 0UL)
 2778              		.loc 3 620 0
 2779 007c FB6A     		ldr	r3, [r7, #44]
 2780 007e 002B     		cmp	r3, #0
 2781 0080 6DD0     		beq	.L196
 2782              	.LBB4:
 621:Generated_Source\PSoC6\pdl\drivers\peripheral\scb/cy_scb_uart.c ****             {
 622:Generated_Source\PSoC6\pdl\drivers\peripheral\scb/cy_scb_uart.c ****                 uint32_t idx;
 623:Generated_Source\PSoC6\pdl\drivers\peripheral\scb/cy_scb_uart.c ****                 uint32_t locTail = context->rxRingBufTail;
 2783              		.loc 3 623 0
 2784 0082 3B68     		ldr	r3, [r7]
 2785 0084 5B69     		ldr	r3, [r3, #20]
 2786 0086 7B62     		str	r3, [r7, #36]
 624:Generated_Source\PSoC6\pdl\drivers\peripheral\scb/cy_scb_uart.c ****                 bool     byteMode = Cy_SCB_IsRxDataWidthByte(base);
 2787              		.loc 3 624 0
 2788 0088 F868     		ldr	r0, [r7, #12]
 2789 008a FFF7FEFF 		bl	Cy_SCB_IsRxDataWidthByte
 2790 008e 0346     		mov	r3, r0
 2791 0090 87F82330 		strb	r3, [r7, #35]
 625:Generated_Source\PSoC6\pdl\drivers\peripheral\scb/cy_scb_uart.c **** 
 626:Generated_Source\PSoC6\pdl\drivers\peripheral\scb/cy_scb_uart.c ****                 /* Adjust the number of items to be read */
 627:Generated_Source\PSoC6\pdl\drivers\peripheral\scb/cy_scb_uart.c ****                 if (numToCopy > size)
 2792              		.loc 3 627 0
 2793 0094 FA6A     		ldr	r2, [r7, #44]
 2794 0096 7B68     		ldr	r3, [r7, #4]
 2795 0098 9A42     		cmp	r2, r3
 2796 009a 01D9     		bls	.L197
 628:Generated_Source\PSoC6\pdl\drivers\peripheral\scb/cy_scb_uart.c ****                 {
 629:Generated_Source\PSoC6\pdl\drivers\peripheral\scb/cy_scb_uart.c ****                     numToCopy = size;
 2797              		.loc 3 629 0
 2798 009c 7B68     		ldr	r3, [r7, #4]
 2799 009e FB62     		str	r3, [r7, #44]
 2800              	.L197:
 630:Generated_Source\PSoC6\pdl\drivers\peripheral\scb/cy_scb_uart.c ****                 }
 631:Generated_Source\PSoC6\pdl\drivers\peripheral\scb/cy_scb_uart.c **** 
 632:Generated_Source\PSoC6\pdl\drivers\peripheral\scb/cy_scb_uart.c ****                 /* Copy the data elements from the ring buffer */
ARM GAS  C:\Users\ikomb\AppData\Local\Temp\cctq3ka9.s 			page 118


 633:Generated_Source\PSoC6\pdl\drivers\peripheral\scb/cy_scb_uart.c ****                 for (idx = 0UL; idx < numToCopy; ++idx)
 2801              		.loc 3 633 0
 2802 00a0 0023     		movs	r3, #0
 2803 00a2 BB62     		str	r3, [r7, #40]
 2804 00a4 29E0     		b	.L198
 2805              	.L202:
 634:Generated_Source\PSoC6\pdl\drivers\peripheral\scb/cy_scb_uart.c ****                 {
 635:Generated_Source\PSoC6\pdl\drivers\peripheral\scb/cy_scb_uart.c ****                     ++locTail;
 2806              		.loc 3 635 0
 2807 00a6 7B6A     		ldr	r3, [r7, #36]
 2808 00a8 0133     		adds	r3, r3, #1
 2809 00aa 7B62     		str	r3, [r7, #36]
 636:Generated_Source\PSoC6\pdl\drivers\peripheral\scb/cy_scb_uart.c **** 
 637:Generated_Source\PSoC6\pdl\drivers\peripheral\scb/cy_scb_uart.c ****                     if (locTail == context->rxRingBufSize)
 2810              		.loc 3 637 0
 2811 00ac 3B68     		ldr	r3, [r7]
 2812 00ae DA68     		ldr	r2, [r3, #12]
 2813 00b0 7B6A     		ldr	r3, [r7, #36]
 2814 00b2 9A42     		cmp	r2, r3
 2815 00b4 01D1     		bne	.L199
 638:Generated_Source\PSoC6\pdl\drivers\peripheral\scb/cy_scb_uart.c ****                     {
 639:Generated_Source\PSoC6\pdl\drivers\peripheral\scb/cy_scb_uart.c ****                         locTail = 0UL;
 2816              		.loc 3 639 0
 2817 00b6 0023     		movs	r3, #0
 2818 00b8 7B62     		str	r3, [r7, #36]
 2819              	.L199:
 640:Generated_Source\PSoC6\pdl\drivers\peripheral\scb/cy_scb_uart.c ****                     }
 641:Generated_Source\PSoC6\pdl\drivers\peripheral\scb/cy_scb_uart.c **** 
 642:Generated_Source\PSoC6\pdl\drivers\peripheral\scb/cy_scb_uart.c ****                     if (byteMode)
 2820              		.loc 3 642 0
 2821 00ba 97F82330 		ldrb	r3, [r7, #35]	@ zero_extendqisi2
 2822 00be 002B     		cmp	r3, #0
 2823 00c0 0BD0     		beq	.L200
 2824              	.LBB5:
 643:Generated_Source\PSoC6\pdl\drivers\peripheral\scb/cy_scb_uart.c ****                     {
 644:Generated_Source\PSoC6\pdl\drivers\peripheral\scb/cy_scb_uart.c ****                         uint8_t *buf = (uint8_t *) buffer;
 2825              		.loc 3 644 0
 2826 00c2 BB68     		ldr	r3, [r7, #8]
 2827 00c4 FB61     		str	r3, [r7, #28]
 645:Generated_Source\PSoC6\pdl\drivers\peripheral\scb/cy_scb_uart.c ****                         buf[idx] = ((uint8_t *) context->rxRingBuf)[locTail];
 2828              		.loc 3 645 0
 2829 00c6 FA69     		ldr	r2, [r7, #28]
 2830 00c8 BB6A     		ldr	r3, [r7, #40]
 2831 00ca 1344     		add	r3, r3, r2
 2832 00cc 3A68     		ldr	r2, [r7]
 2833 00ce 9168     		ldr	r1, [r2, #8]
 2834 00d0 7A6A     		ldr	r2, [r7, #36]
 2835 00d2 0A44     		add	r2, r2, r1
 2836 00d4 1278     		ldrb	r2, [r2]	@ zero_extendqisi2
 2837 00d6 1A70     		strb	r2, [r3]
 2838              	.LBE5:
 2839 00d8 0CE0     		b	.L201
 2840              	.L200:
 2841              	.LBB6:
 646:Generated_Source\PSoC6\pdl\drivers\peripheral\scb/cy_scb_uart.c ****                     }
 647:Generated_Source\PSoC6\pdl\drivers\peripheral\scb/cy_scb_uart.c ****                     else
 648:Generated_Source\PSoC6\pdl\drivers\peripheral\scb/cy_scb_uart.c ****                     {
ARM GAS  C:\Users\ikomb\AppData\Local\Temp\cctq3ka9.s 			page 119


 649:Generated_Source\PSoC6\pdl\drivers\peripheral\scb/cy_scb_uart.c ****                         uint16_t *buf = (uint16_t *) buffer;
 2842              		.loc 3 649 0
 2843 00da BB68     		ldr	r3, [r7, #8]
 2844 00dc BB61     		str	r3, [r7, #24]
 650:Generated_Source\PSoC6\pdl\drivers\peripheral\scb/cy_scb_uart.c ****                         buf[idx] = ((uint16_t *) context->rxRingBuf)[locTail];
 2845              		.loc 3 650 0
 2846 00de BB6A     		ldr	r3, [r7, #40]
 2847 00e0 5B00     		lsls	r3, r3, #1
 2848 00e2 BA69     		ldr	r2, [r7, #24]
 2849 00e4 1344     		add	r3, r3, r2
 2850 00e6 3A68     		ldr	r2, [r7]
 2851 00e8 9168     		ldr	r1, [r2, #8]
 2852 00ea 7A6A     		ldr	r2, [r7, #36]
 2853 00ec 5200     		lsls	r2, r2, #1
 2854 00ee 0A44     		add	r2, r2, r1
 2855 00f0 1288     		ldrh	r2, [r2]
 2856 00f2 1A80     		strh	r2, [r3]	@ movhi
 2857              	.L201:
 2858              	.LBE6:
 633:Generated_Source\PSoC6\pdl\drivers\peripheral\scb/cy_scb_uart.c ****                 {
 2859              		.loc 3 633 0 discriminator 2
 2860 00f4 BB6A     		ldr	r3, [r7, #40]
 2861 00f6 0133     		adds	r3, r3, #1
 2862 00f8 BB62     		str	r3, [r7, #40]
 2863              	.L198:
 633:Generated_Source\PSoC6\pdl\drivers\peripheral\scb/cy_scb_uart.c ****                 {
 2864              		.loc 3 633 0 is_stmt 0 discriminator 1
 2865 00fa BA6A     		ldr	r2, [r7, #40]
 2866 00fc FB6A     		ldr	r3, [r7, #44]
 2867 00fe 9A42     		cmp	r2, r3
 2868 0100 D1D3     		bcc	.L202
 651:Generated_Source\PSoC6\pdl\drivers\peripheral\scb/cy_scb_uart.c ****                     }
 652:Generated_Source\PSoC6\pdl\drivers\peripheral\scb/cy_scb_uart.c ****                 }
 653:Generated_Source\PSoC6\pdl\drivers\peripheral\scb/cy_scb_uart.c **** 
 654:Generated_Source\PSoC6\pdl\drivers\peripheral\scb/cy_scb_uart.c ****                 /* Update the ring buffer tail after data has been copied */
 655:Generated_Source\PSoC6\pdl\drivers\peripheral\scb/cy_scb_uart.c ****                 context->rxRingBufTail = locTail;
 2869              		.loc 3 655 0 is_stmt 1
 2870 0102 3B68     		ldr	r3, [r7]
 2871 0104 7A6A     		ldr	r2, [r7, #36]
 2872 0106 5A61     		str	r2, [r3, #20]
 656:Generated_Source\PSoC6\pdl\drivers\peripheral\scb/cy_scb_uart.c **** 
 657:Generated_Source\PSoC6\pdl\drivers\peripheral\scb/cy_scb_uart.c ****                 /* Update with the copied bytes */
 658:Generated_Source\PSoC6\pdl\drivers\peripheral\scb/cy_scb_uart.c ****                 size -= numToCopy;
 2873              		.loc 3 658 0
 2874 0108 7A68     		ldr	r2, [r7, #4]
 2875 010a FB6A     		ldr	r3, [r7, #44]
 2876 010c D31A     		subs	r3, r2, r3
 2877 010e 7B60     		str	r3, [r7, #4]
 659:Generated_Source\PSoC6\pdl\drivers\peripheral\scb/cy_scb_uart.c ****                 context->rxBufIdx = numToCopy;
 2878              		.loc 3 659 0
 2879 0110 3B68     		ldr	r3, [r7]
 2880 0112 FA6A     		ldr	r2, [r7, #44]
 2881 0114 1A62     		str	r2, [r3, #32]
 660:Generated_Source\PSoC6\pdl\drivers\peripheral\scb/cy_scb_uart.c **** 
 661:Generated_Source\PSoC6\pdl\drivers\peripheral\scb/cy_scb_uart.c ****                 /* Check whether all requested data has been read from the ring buffer */
 662:Generated_Source\PSoC6\pdl\drivers\peripheral\scb/cy_scb_uart.c ****                 if (0UL == size)
 2882              		.loc 3 662 0
ARM GAS  C:\Users\ikomb\AppData\Local\Temp\cctq3ka9.s 			page 120


 2883 0116 7B68     		ldr	r3, [r7, #4]
 2884 0118 002B     		cmp	r3, #0
 2885 011a 15D1     		bne	.L203
 663:Generated_Source\PSoC6\pdl\drivers\peripheral\scb/cy_scb_uart.c ****                 {
 664:Generated_Source\PSoC6\pdl\drivers\peripheral\scb/cy_scb_uart.c ****                     /* Enable the RX-error interrupt sources to update the error status */
 665:Generated_Source\PSoC6\pdl\drivers\peripheral\scb/cy_scb_uart.c ****                     Cy_SCB_SetRxInterruptMask(base, CY_SCB_UART_RECEIVE_ERR);
 2886              		.loc 3 665 0
 2887 011c 4FF44871 		mov	r1, #800
 2888 0120 F868     		ldr	r0, [r7, #12]
 2889 0122 FFF7FEFF 		bl	Cy_SCB_SetRxInterruptMask
 666:Generated_Source\PSoC6\pdl\drivers\peripheral\scb/cy_scb_uart.c **** 
 667:Generated_Source\PSoC6\pdl\drivers\peripheral\scb/cy_scb_uart.c ****                     /* Call a completion callback if there was no abort receive called
 668:Generated_Source\PSoC6\pdl\drivers\peripheral\scb/cy_scb_uart.c ****                     * in the interrupt. The abort clears the number of the received bytes.
 669:Generated_Source\PSoC6\pdl\drivers\peripheral\scb/cy_scb_uart.c ****                     */
 670:Generated_Source\PSoC6\pdl\drivers\peripheral\scb/cy_scb_uart.c ****                     if (context->rxBufIdx > 0UL)
 2890              		.loc 3 670 0
 2891 0126 3B68     		ldr	r3, [r7]
 2892 0128 1B6A     		ldr	r3, [r3, #32]
 2893 012a 002B     		cmp	r3, #0
 2894 012c 07D0     		beq	.L204
 671:Generated_Source\PSoC6\pdl\drivers\peripheral\scb/cy_scb_uart.c ****                     {
 672:Generated_Source\PSoC6\pdl\drivers\peripheral\scb/cy_scb_uart.c ****                         if (NULL != context->cbEvents)
 2895              		.loc 3 672 0
 2896 012e 3B68     		ldr	r3, [r7]
 2897 0130 1B6B     		ldr	r3, [r3, #48]
 2898 0132 002B     		cmp	r3, #0
 2899 0134 03D0     		beq	.L204
 673:Generated_Source\PSoC6\pdl\drivers\peripheral\scb/cy_scb_uart.c ****                         {
 674:Generated_Source\PSoC6\pdl\drivers\peripheral\scb/cy_scb_uart.c ****                             context->cbEvents(CY_SCB_UART_RECEIVE_DONE_EVENT);
 2900              		.loc 3 674 0
 2901 0136 3B68     		ldr	r3, [r7]
 2902 0138 1B6B     		ldr	r3, [r3, #48]
 2903 013a 0420     		movs	r0, #4
 2904 013c 9847     		blx	r3
 2905              	.L204:
 675:Generated_Source\PSoC6\pdl\drivers\peripheral\scb/cy_scb_uart.c ****                         }
 676:Generated_Source\PSoC6\pdl\drivers\peripheral\scb/cy_scb_uart.c ****                     }
 677:Generated_Source\PSoC6\pdl\drivers\peripheral\scb/cy_scb_uart.c **** 
 678:Generated_Source\PSoC6\pdl\drivers\peripheral\scb/cy_scb_uart.c ****                     /* Continue receiving data in the ring buffer */
 679:Generated_Source\PSoC6\pdl\drivers\peripheral\scb/cy_scb_uart.c ****                     Cy_SCB_SetRxInterruptMask(base, CY_SCB_RX_INTR_LEVEL);
 2906              		.loc 3 679 0
 2907 013e 0121     		movs	r1, #1
 2908 0140 F868     		ldr	r0, [r7, #12]
 2909 0142 FFF7FEFF 		bl	Cy_SCB_SetRxInterruptMask
 2910 0146 0AE0     		b	.L196
 2911              	.L203:
 680:Generated_Source\PSoC6\pdl\drivers\peripheral\scb/cy_scb_uart.c ****                 }
 681:Generated_Source\PSoC6\pdl\drivers\peripheral\scb/cy_scb_uart.c ****                 else
 682:Generated_Source\PSoC6\pdl\drivers\peripheral\scb/cy_scb_uart.c ****                 {
 683:Generated_Source\PSoC6\pdl\drivers\peripheral\scb/cy_scb_uart.c ****                     tmpBuf = &tmpBuf[(byteMode) ? (numToCopy) : (2UL * numToCopy)];
 2912              		.loc 3 683 0
 2913 0148 97F82330 		ldrb	r3, [r7, #35]	@ zero_extendqisi2
 2914 014c 002B     		cmp	r3, #0
 2915 014e 01D0     		beq	.L205
 2916              		.loc 3 683 0 is_stmt 0 discriminator 1
 2917 0150 FB6A     		ldr	r3, [r7, #44]
 2918 0152 01E0     		b	.L206
ARM GAS  C:\Users\ikomb\AppData\Local\Temp\cctq3ka9.s 			page 121


 2919              	.L205:
 2920              		.loc 3 683 0 discriminator 2
 2921 0154 FB6A     		ldr	r3, [r7, #44]
 2922 0156 5B00     		lsls	r3, r3, #1
 2923              	.L206:
 2924              		.loc 3 683 0 discriminator 4
 2925 0158 3A6B     		ldr	r2, [r7, #48]
 2926 015a 1344     		add	r3, r3, r2
 2927 015c 3B63     		str	r3, [r7, #48]
 2928              	.L196:
 2929              	.LBE4:
 684:Generated_Source\PSoC6\pdl\drivers\peripheral\scb/cy_scb_uart.c ****                 }
 685:Generated_Source\PSoC6\pdl\drivers\peripheral\scb/cy_scb_uart.c ****             }
 686:Generated_Source\PSoC6\pdl\drivers\peripheral\scb/cy_scb_uart.c ****         }
 687:Generated_Source\PSoC6\pdl\drivers\peripheral\scb/cy_scb_uart.c **** 
 688:Generated_Source\PSoC6\pdl\drivers\peripheral\scb/cy_scb_uart.c ****         /* Set up a direct RX FIFO receive */
 689:Generated_Source\PSoC6\pdl\drivers\peripheral\scb/cy_scb_uart.c ****         if (size > 0UL)
 2930              		.loc 3 689 0 is_stmt 1
 2931 015e 7B68     		ldr	r3, [r7, #4]
 2932 0160 002B     		cmp	r3, #0
 2933 0162 23D0     		beq	.L207
 2934              	.LBB7:
 690:Generated_Source\PSoC6\pdl\drivers\peripheral\scb/cy_scb_uart.c ****         {
 691:Generated_Source\PSoC6\pdl\drivers\peripheral\scb/cy_scb_uart.c ****             uint32_t halfFifoSize = Cy_SCB_GetFifoSize(base) / 2UL;
 2935              		.loc 3 691 0
 2936 0164 F868     		ldr	r0, [r7, #12]
 2937 0166 FFF7FEFF 		bl	Cy_SCB_GetFifoSize
 2938 016a 0346     		mov	r3, r0
 2939 016c 5B08     		lsrs	r3, r3, #1
 2940 016e 7B61     		str	r3, [r7, #20]
 692:Generated_Source\PSoC6\pdl\drivers\peripheral\scb/cy_scb_uart.c **** 
 693:Generated_Source\PSoC6\pdl\drivers\peripheral\scb/cy_scb_uart.c ****             /* Set up context */
 694:Generated_Source\PSoC6\pdl\drivers\peripheral\scb/cy_scb_uart.c ****             context->rxStatus  = CY_SCB_UART_RECEIVE_ACTIVE;
 2941              		.loc 3 694 0
 2942 0170 3B68     		ldr	r3, [r7]
 2943 0172 0122     		movs	r2, #1
 2944 0174 5A60     		str	r2, [r3, #4]
 695:Generated_Source\PSoC6\pdl\drivers\peripheral\scb/cy_scb_uart.c **** 
 696:Generated_Source\PSoC6\pdl\drivers\peripheral\scb/cy_scb_uart.c ****             context->rxBuf     = (void *) tmpBuf;
 2945              		.loc 3 696 0
 2946 0176 3B68     		ldr	r3, [r7]
 2947 0178 3A6B     		ldr	r2, [r7, #48]
 2948 017a 9A61     		str	r2, [r3, #24]
 697:Generated_Source\PSoC6\pdl\drivers\peripheral\scb/cy_scb_uart.c ****             context->rxBufSize = size;
 2949              		.loc 3 697 0
 2950 017c 3B68     		ldr	r3, [r7]
 2951 017e 7A68     		ldr	r2, [r7, #4]
 2952 0180 DA61     		str	r2, [r3, #28]
 698:Generated_Source\PSoC6\pdl\drivers\peripheral\scb/cy_scb_uart.c ****             context->rxBufIdx =  numToCopy;
 2953              		.loc 3 698 0
 2954 0182 3B68     		ldr	r3, [r7]
 2955 0184 FA6A     		ldr	r2, [r7, #44]
 2956 0186 1A62     		str	r2, [r3, #32]
 699:Generated_Source\PSoC6\pdl\drivers\peripheral\scb/cy_scb_uart.c **** 
 700:Generated_Source\PSoC6\pdl\drivers\peripheral\scb/cy_scb_uart.c ****             /* Set the RX FIFO level to the trigger interrupt */
 701:Generated_Source\PSoC6\pdl\drivers\peripheral\scb/cy_scb_uart.c ****             Cy_SCB_SetRxFifoLevel(base, (size > halfFifoSize) ? (halfFifoSize - 1UL) : (size - 1UL)
 2957              		.loc 3 701 0
ARM GAS  C:\Users\ikomb\AppData\Local\Temp\cctq3ka9.s 			page 122


 2958 0188 7A68     		ldr	r2, [r7, #4]
 2959 018a 7B69     		ldr	r3, [r7, #20]
 2960 018c 9A42     		cmp	r2, r3
 2961 018e 02D9     		bls	.L208
 2962              		.loc 3 701 0 is_stmt 0 discriminator 1
 2963 0190 7B69     		ldr	r3, [r7, #20]
 2964 0192 013B     		subs	r3, r3, #1
 2965 0194 01E0     		b	.L209
 2966              	.L208:
 2967              		.loc 3 701 0 discriminator 2
 2968 0196 7B68     		ldr	r3, [r7, #4]
 2969 0198 013B     		subs	r3, r3, #1
 2970              	.L209:
 2971              		.loc 3 701 0 discriminator 4
 2972 019a 1946     		mov	r1, r3
 2973 019c F868     		ldr	r0, [r7, #12]
 2974 019e FFF7FEFF 		bl	Cy_SCB_SetRxFifoLevel
 702:Generated_Source\PSoC6\pdl\drivers\peripheral\scb/cy_scb_uart.c **** 
 703:Generated_Source\PSoC6\pdl\drivers\peripheral\scb/cy_scb_uart.c ****             /* Enable the RX interrupt sources to continue data reading */
 704:Generated_Source\PSoC6\pdl\drivers\peripheral\scb/cy_scb_uart.c ****             Cy_SCB_SetRxInterruptMask(base, CY_SCB_UART_RX_INTR);
 2975              		.loc 3 704 0 is_stmt 1 discriminator 4
 2976 01a2 40F62131 		movw	r1, #2849
 2977 01a6 F868     		ldr	r0, [r7, #12]
 2978 01a8 FFF7FEFF 		bl	Cy_SCB_SetRxInterruptMask
 2979              	.L207:
 2980              	.LBE7:
 705:Generated_Source\PSoC6\pdl\drivers\peripheral\scb/cy_scb_uart.c ****         }
 706:Generated_Source\PSoC6\pdl\drivers\peripheral\scb/cy_scb_uart.c **** 
 707:Generated_Source\PSoC6\pdl\drivers\peripheral\scb/cy_scb_uart.c ****         retStatus = CY_SCB_UART_SUCCESS;
 2981              		.loc 3 707 0
 2982 01ac 0023     		movs	r3, #0
 2983 01ae 7B63     		str	r3, [r7, #52]
 2984              	.L195:
 2985              	.LBE3:
 708:Generated_Source\PSoC6\pdl\drivers\peripheral\scb/cy_scb_uart.c ****     }
 709:Generated_Source\PSoC6\pdl\drivers\peripheral\scb/cy_scb_uart.c **** 
 710:Generated_Source\PSoC6\pdl\drivers\peripheral\scb/cy_scb_uart.c ****     return (retStatus);
 2986              		.loc 3 710 0
 2987 01b0 7B6B     		ldr	r3, [r7, #52]
 711:Generated_Source\PSoC6\pdl\drivers\peripheral\scb/cy_scb_uart.c **** }
 2988              		.loc 3 711 0
 2989 01b2 1846     		mov	r0, r3
 2990 01b4 3837     		adds	r7, r7, #56
 2991              		.cfi_def_cfa_offset 8
 2992 01b6 BD46     		mov	sp, r7
 2993              		.cfi_def_cfa_register 13
 2994              		@ sp needed
 2995 01b8 80BD     		pop	{r7, pc}
 2996              	.L212:
 2997 01ba 00BF     		.align	2
 2998              	.L211:
 2999 01bc 84000000 		.word	.LC2
 3000 01c0 EFCDAB00 		.word	11259375
 3001 01c4 0260AA00 		.word	11165698
 3002              		.cfi_endproc
 3003              	.LFE243:
 3004              		.size	Cy_SCB_UART_Receive, .-Cy_SCB_UART_Receive
ARM GAS  C:\Users\ikomb\AppData\Local\Temp\cctq3ka9.s 			page 123


 3005              		.section	.text.Cy_SCB_UART_AbortReceive,"ax",%progbits
 3006              		.align	2
 3007              		.global	Cy_SCB_UART_AbortReceive
 3008              		.thumb
 3009              		.thumb_func
 3010              		.type	Cy_SCB_UART_AbortReceive, %function
 3011              	Cy_SCB_UART_AbortReceive:
 3012              	.LFB244:
 712:Generated_Source\PSoC6\pdl\drivers\peripheral\scb/cy_scb_uart.c **** 
 713:Generated_Source\PSoC6\pdl\drivers\peripheral\scb/cy_scb_uart.c **** 
 714:Generated_Source\PSoC6\pdl\drivers\peripheral\scb/cy_scb_uart.c **** /*******************************************************************************
 715:Generated_Source\PSoC6\pdl\drivers\peripheral\scb/cy_scb_uart.c **** * Function Name: Cy_SCB_UART_AbortReceive
 716:Generated_Source\PSoC6\pdl\drivers\peripheral\scb/cy_scb_uart.c **** ****************************************************************************//**
 717:Generated_Source\PSoC6\pdl\drivers\peripheral\scb/cy_scb_uart.c **** *
 718:Generated_Source\PSoC6\pdl\drivers\peripheral\scb/cy_scb_uart.c **** * Abort the current receive operation by clearing the receive status.
 719:Generated_Source\PSoC6\pdl\drivers\peripheral\scb/cy_scb_uart.c **** * * If the ring buffer is disabled, the receive interrupt sources are disabled.
 720:Generated_Source\PSoC6\pdl\drivers\peripheral\scb/cy_scb_uart.c **** * * If the ring buffer is enabled, the receive interrupt source is configured
 721:Generated_Source\PSoC6\pdl\drivers\peripheral\scb/cy_scb_uart.c **** *   to get data from the receive FIFO and put it into the ring buffer.
 722:Generated_Source\PSoC6\pdl\drivers\peripheral\scb/cy_scb_uart.c **** *
 723:Generated_Source\PSoC6\pdl\drivers\peripheral\scb/cy_scb_uart.c **** * \param base
 724:Generated_Source\PSoC6\pdl\drivers\peripheral\scb/cy_scb_uart.c **** * The pointer to the UART SCB instance.
 725:Generated_Source\PSoC6\pdl\drivers\peripheral\scb/cy_scb_uart.c **** *
 726:Generated_Source\PSoC6\pdl\drivers\peripheral\scb/cy_scb_uart.c **** * \param context
 727:Generated_Source\PSoC6\pdl\drivers\peripheral\scb/cy_scb_uart.c **** * The pointer to the context structure \ref cy_stc_scb_uart_context_t allocated
 728:Generated_Source\PSoC6\pdl\drivers\peripheral\scb/cy_scb_uart.c **** * by the user. The structure is used during the UART operation for internal
 729:Generated_Source\PSoC6\pdl\drivers\peripheral\scb/cy_scb_uart.c **** * configuration and data retention. The user must not modify anything
 730:Generated_Source\PSoC6\pdl\drivers\peripheral\scb/cy_scb_uart.c **** * in this structure.
 731:Generated_Source\PSoC6\pdl\drivers\peripheral\scb/cy_scb_uart.c **** *
 732:Generated_Source\PSoC6\pdl\drivers\peripheral\scb/cy_scb_uart.c **** * \note
 733:Generated_Source\PSoC6\pdl\drivers\peripheral\scb/cy_scb_uart.c **** * * The RX FIFO and ring buffer are not cleared after abort of receive
 734:Generated_Source\PSoC6\pdl\drivers\peripheral\scb/cy_scb_uart.c **** *   operation.
 735:Generated_Source\PSoC6\pdl\drivers\peripheral\scb/cy_scb_uart.c **** * * If after the abort of the receive operation the transmitter continues
 736:Generated_Source\PSoC6\pdl\drivers\peripheral\scb/cy_scb_uart.c **** *   sending data, it gets into the RX FIFO. To drop this data, the RX FIFO
 737:Generated_Source\PSoC6\pdl\drivers\peripheral\scb/cy_scb_uart.c **** *   and ring buffer (if enabled) must be cleared when the transmitter
 738:Generated_Source\PSoC6\pdl\drivers\peripheral\scb/cy_scb_uart.c **** *   stops sending data. Otherwise, received data will be kept and copied
 739:Generated_Source\PSoC6\pdl\drivers\peripheral\scb/cy_scb_uart.c **** *   to the buffer when \ref Cy_SCB_UART_Receive is called.
 740:Generated_Source\PSoC6\pdl\drivers\peripheral\scb/cy_scb_uart.c **** *
 741:Generated_Source\PSoC6\pdl\drivers\peripheral\scb/cy_scb_uart.c **** *******************************************************************************/
 742:Generated_Source\PSoC6\pdl\drivers\peripheral\scb/cy_scb_uart.c **** void Cy_SCB_UART_AbortReceive(CySCB_Type *base, cy_stc_scb_uart_context_t *context)
 743:Generated_Source\PSoC6\pdl\drivers\peripheral\scb/cy_scb_uart.c **** {
 3013              		.loc 3 743 0
 3014              		.cfi_startproc
 3015              		@ args = 0, pretend = 0, frame = 8
 3016              		@ frame_needed = 1, uses_anonymous_args = 0
 3017 0000 80B5     		push	{r7, lr}
 3018              		.cfi_def_cfa_offset 8
 3019              		.cfi_offset 7, -8
 3020              		.cfi_offset 14, -4
 3021 0002 82B0     		sub	sp, sp, #8
 3022              		.cfi_def_cfa_offset 16
 3023 0004 00AF     		add	r7, sp, #0
 3024              		.cfi_def_cfa_register 7
 3025 0006 7860     		str	r0, [r7, #4]
 3026 0008 3960     		str	r1, [r7]
 744:Generated_Source\PSoC6\pdl\drivers\peripheral\scb/cy_scb_uart.c ****     if (NULL == context->rxRingBuf)
 3027              		.loc 3 744 0
 3028 000a 3B68     		ldr	r3, [r7]
ARM GAS  C:\Users\ikomb\AppData\Local\Temp\cctq3ka9.s 			page 124


 3029 000c 9B68     		ldr	r3, [r3, #8]
 3030 000e 002B     		cmp	r3, #0
 3031 0010 03D1     		bne	.L214
 745:Generated_Source\PSoC6\pdl\drivers\peripheral\scb/cy_scb_uart.c ****     {
 746:Generated_Source\PSoC6\pdl\drivers\peripheral\scb/cy_scb_uart.c ****         Cy_SCB_SetRxInterruptMask(base, CY_SCB_CLEAR_ALL_INTR_SRC);
 3032              		.loc 3 746 0
 3033 0012 0021     		movs	r1, #0
 3034 0014 7868     		ldr	r0, [r7, #4]
 3035 0016 FFF7FEFF 		bl	Cy_SCB_SetRxInterruptMask
 3036              	.L214:
 747:Generated_Source\PSoC6\pdl\drivers\peripheral\scb/cy_scb_uart.c ****     }
 748:Generated_Source\PSoC6\pdl\drivers\peripheral\scb/cy_scb_uart.c **** 
 749:Generated_Source\PSoC6\pdl\drivers\peripheral\scb/cy_scb_uart.c ****     context->rxBufSize = 0UL;
 3037              		.loc 3 749 0
 3038 001a 3B68     		ldr	r3, [r7]
 3039 001c 0022     		movs	r2, #0
 3040 001e DA61     		str	r2, [r3, #28]
 750:Generated_Source\PSoC6\pdl\drivers\peripheral\scb/cy_scb_uart.c ****     context->rxBufIdx  = 0UL;
 3041              		.loc 3 750 0
 3042 0020 3B68     		ldr	r3, [r7]
 3043 0022 0022     		movs	r2, #0
 3044 0024 1A62     		str	r2, [r3, #32]
 751:Generated_Source\PSoC6\pdl\drivers\peripheral\scb/cy_scb_uart.c **** 
 752:Generated_Source\PSoC6\pdl\drivers\peripheral\scb/cy_scb_uart.c ****     context->rxStatus  = 0UL;
 3045              		.loc 3 752 0
 3046 0026 3B68     		ldr	r3, [r7]
 3047 0028 0022     		movs	r2, #0
 3048 002a 5A60     		str	r2, [r3, #4]
 753:Generated_Source\PSoC6\pdl\drivers\peripheral\scb/cy_scb_uart.c **** }
 3049              		.loc 3 753 0
 3050 002c 00BF     		nop
 3051 002e 0837     		adds	r7, r7, #8
 3052              		.cfi_def_cfa_offset 8
 3053 0030 BD46     		mov	sp, r7
 3054              		.cfi_def_cfa_register 13
 3055              		@ sp needed
 3056 0032 80BD     		pop	{r7, pc}
 3057              		.cfi_endproc
 3058              	.LFE244:
 3059              		.size	Cy_SCB_UART_AbortReceive, .-Cy_SCB_UART_AbortReceive
 3060              		.section	.text.Cy_SCB_UART_GetNumReceived,"ax",%progbits
 3061              		.align	2
 3062              		.global	Cy_SCB_UART_GetNumReceived
 3063              		.thumb
 3064              		.thumb_func
 3065              		.type	Cy_SCB_UART_GetNumReceived, %function
 3066              	Cy_SCB_UART_GetNumReceived:
 3067              	.LFB245:
 754:Generated_Source\PSoC6\pdl\drivers\peripheral\scb/cy_scb_uart.c **** 
 755:Generated_Source\PSoC6\pdl\drivers\peripheral\scb/cy_scb_uart.c **** 
 756:Generated_Source\PSoC6\pdl\drivers\peripheral\scb/cy_scb_uart.c **** /*******************************************************************************
 757:Generated_Source\PSoC6\pdl\drivers\peripheral\scb/cy_scb_uart.c **** * Function Name: Cy_SCB_UART_GetNumReceived
 758:Generated_Source\PSoC6\pdl\drivers\peripheral\scb/cy_scb_uart.c **** ****************************************************************************//**
 759:Generated_Source\PSoC6\pdl\drivers\peripheral\scb/cy_scb_uart.c **** *
 760:Generated_Source\PSoC6\pdl\drivers\peripheral\scb/cy_scb_uart.c **** * Returns the number of data elements received since the last call to \ref
 761:Generated_Source\PSoC6\pdl\drivers\peripheral\scb/cy_scb_uart.c **** * Cy_SCB_UART_Receive.
 762:Generated_Source\PSoC6\pdl\drivers\peripheral\scb/cy_scb_uart.c **** *
ARM GAS  C:\Users\ikomb\AppData\Local\Temp\cctq3ka9.s 			page 125


 763:Generated_Source\PSoC6\pdl\drivers\peripheral\scb/cy_scb_uart.c **** * \param base
 764:Generated_Source\PSoC6\pdl\drivers\peripheral\scb/cy_scb_uart.c **** * The pointer to the UART SCB instance.
 765:Generated_Source\PSoC6\pdl\drivers\peripheral\scb/cy_scb_uart.c **** *
 766:Generated_Source\PSoC6\pdl\drivers\peripheral\scb/cy_scb_uart.c **** * \param context
 767:Generated_Source\PSoC6\pdl\drivers\peripheral\scb/cy_scb_uart.c **** * The pointer to the context structure \ref cy_stc_scb_uart_context_t allocated
 768:Generated_Source\PSoC6\pdl\drivers\peripheral\scb/cy_scb_uart.c **** * by the user. The structure is used during the UART operation for internal
 769:Generated_Source\PSoC6\pdl\drivers\peripheral\scb/cy_scb_uart.c **** * configuration and data retention. The user must not modify anything
 770:Generated_Source\PSoC6\pdl\drivers\peripheral\scb/cy_scb_uart.c **** * in this structure.
 771:Generated_Source\PSoC6\pdl\drivers\peripheral\scb/cy_scb_uart.c **** *
 772:Generated_Source\PSoC6\pdl\drivers\peripheral\scb/cy_scb_uart.c **** * \return
 773:Generated_Source\PSoC6\pdl\drivers\peripheral\scb/cy_scb_uart.c **** * The number of data elements received.
 774:Generated_Source\PSoC6\pdl\drivers\peripheral\scb/cy_scb_uart.c **** *
 775:Generated_Source\PSoC6\pdl\drivers\peripheral\scb/cy_scb_uart.c **** *******************************************************************************/
 776:Generated_Source\PSoC6\pdl\drivers\peripheral\scb/cy_scb_uart.c **** uint32_t Cy_SCB_UART_GetNumReceived(CySCB_Type const *base, cy_stc_scb_uart_context_t const *contex
 777:Generated_Source\PSoC6\pdl\drivers\peripheral\scb/cy_scb_uart.c **** {
 3068              		.loc 3 777 0
 3069              		.cfi_startproc
 3070              		@ args = 0, pretend = 0, frame = 8
 3071              		@ frame_needed = 1, uses_anonymous_args = 0
 3072              		@ link register save eliminated.
 3073 0000 80B4     		push	{r7}
 3074              		.cfi_def_cfa_offset 4
 3075              		.cfi_offset 7, -4
 3076 0002 83B0     		sub	sp, sp, #12
 3077              		.cfi_def_cfa_offset 16
 3078 0004 00AF     		add	r7, sp, #0
 3079              		.cfi_def_cfa_register 7
 3080 0006 7860     		str	r0, [r7, #4]
 3081 0008 3960     		str	r1, [r7]
 778:Generated_Source\PSoC6\pdl\drivers\peripheral\scb/cy_scb_uart.c ****     /* Suppress a compiler warning about unused variables */
 779:Generated_Source\PSoC6\pdl\drivers\peripheral\scb/cy_scb_uart.c ****     (void) base;
 780:Generated_Source\PSoC6\pdl\drivers\peripheral\scb/cy_scb_uart.c **** 
 781:Generated_Source\PSoC6\pdl\drivers\peripheral\scb/cy_scb_uart.c ****     return (context->rxBufIdx);
 3082              		.loc 3 781 0
 3083 000a 3B68     		ldr	r3, [r7]
 3084 000c 1B6A     		ldr	r3, [r3, #32]
 782:Generated_Source\PSoC6\pdl\drivers\peripheral\scb/cy_scb_uart.c **** }
 3085              		.loc 3 782 0
 3086 000e 1846     		mov	r0, r3
 3087 0010 0C37     		adds	r7, r7, #12
 3088              		.cfi_def_cfa_offset 4
 3089 0012 BD46     		mov	sp, r7
 3090              		.cfi_def_cfa_register 13
 3091              		@ sp needed
 3092 0014 5DF8047B 		ldr	r7, [sp], #4
 3093              		.cfi_restore 7
 3094              		.cfi_def_cfa_offset 0
 3095 0018 7047     		bx	lr
 3096              		.cfi_endproc
 3097              	.LFE245:
 3098              		.size	Cy_SCB_UART_GetNumReceived, .-Cy_SCB_UART_GetNumReceived
 3099 001a 00BF     		.section	.text.Cy_SCB_UART_GetReceiveStatus,"ax",%progbits
 3100              		.align	2
 3101              		.global	Cy_SCB_UART_GetReceiveStatus
 3102              		.thumb
 3103              		.thumb_func
 3104              		.type	Cy_SCB_UART_GetReceiveStatus, %function
ARM GAS  C:\Users\ikomb\AppData\Local\Temp\cctq3ka9.s 			page 126


 3105              	Cy_SCB_UART_GetReceiveStatus:
 3106              	.LFB246:
 783:Generated_Source\PSoC6\pdl\drivers\peripheral\scb/cy_scb_uart.c **** 
 784:Generated_Source\PSoC6\pdl\drivers\peripheral\scb/cy_scb_uart.c **** 
 785:Generated_Source\PSoC6\pdl\drivers\peripheral\scb/cy_scb_uart.c **** /*******************************************************************************
 786:Generated_Source\PSoC6\pdl\drivers\peripheral\scb/cy_scb_uart.c **** * Function Name: Cy_SCB_UART_GetReceiveStatus
 787:Generated_Source\PSoC6\pdl\drivers\peripheral\scb/cy_scb_uart.c **** ****************************************************************************//**
 788:Generated_Source\PSoC6\pdl\drivers\peripheral\scb/cy_scb_uart.c **** *
 789:Generated_Source\PSoC6\pdl\drivers\peripheral\scb/cy_scb_uart.c **** * Returns the status of the receive operation.
 790:Generated_Source\PSoC6\pdl\drivers\peripheral\scb/cy_scb_uart.c **** * This status is a bit mask and the value returned may have multiple bits set.
 791:Generated_Source\PSoC6\pdl\drivers\peripheral\scb/cy_scb_uart.c **** *
 792:Generated_Source\PSoC6\pdl\drivers\peripheral\scb/cy_scb_uart.c **** * \param base
 793:Generated_Source\PSoC6\pdl\drivers\peripheral\scb/cy_scb_uart.c **** * The pointer to the UART SCB instance.
 794:Generated_Source\PSoC6\pdl\drivers\peripheral\scb/cy_scb_uart.c **** *
 795:Generated_Source\PSoC6\pdl\drivers\peripheral\scb/cy_scb_uart.c **** * \param context
 796:Generated_Source\PSoC6\pdl\drivers\peripheral\scb/cy_scb_uart.c **** * The pointer to the context structure \ref cy_stc_scb_uart_context_t allocated
 797:Generated_Source\PSoC6\pdl\drivers\peripheral\scb/cy_scb_uart.c **** * by the user. The structure is used during the UART operation for internal
 798:Generated_Source\PSoC6\pdl\drivers\peripheral\scb/cy_scb_uart.c **** * configuration and data retention. The user must not modify anything
 799:Generated_Source\PSoC6\pdl\drivers\peripheral\scb/cy_scb_uart.c **** * in this structure.
 800:Generated_Source\PSoC6\pdl\drivers\peripheral\scb/cy_scb_uart.c **** *
 801:Generated_Source\PSoC6\pdl\drivers\peripheral\scb/cy_scb_uart.c **** * \return
 802:Generated_Source\PSoC6\pdl\drivers\peripheral\scb/cy_scb_uart.c **** * \ref group_scb_uart_macros_receive_status.
 803:Generated_Source\PSoC6\pdl\drivers\peripheral\scb/cy_scb_uart.c **** *
 804:Generated_Source\PSoC6\pdl\drivers\peripheral\scb/cy_scb_uart.c **** * \note
 805:Generated_Source\PSoC6\pdl\drivers\peripheral\scb/cy_scb_uart.c **** * The status is only cleared by calling \ref Cy_SCB_UART_Receive again.
 806:Generated_Source\PSoC6\pdl\drivers\peripheral\scb/cy_scb_uart.c **** *
 807:Generated_Source\PSoC6\pdl\drivers\peripheral\scb/cy_scb_uart.c **** *******************************************************************************/
 808:Generated_Source\PSoC6\pdl\drivers\peripheral\scb/cy_scb_uart.c **** uint32_t Cy_SCB_UART_GetReceiveStatus(CySCB_Type const *base, cy_stc_scb_uart_context_t const *cont
 809:Generated_Source\PSoC6\pdl\drivers\peripheral\scb/cy_scb_uart.c **** {
 3107              		.loc 3 809 0
 3108              		.cfi_startproc
 3109              		@ args = 0, pretend = 0, frame = 8
 3110              		@ frame_needed = 1, uses_anonymous_args = 0
 3111              		@ link register save eliminated.
 3112 0000 80B4     		push	{r7}
 3113              		.cfi_def_cfa_offset 4
 3114              		.cfi_offset 7, -4
 3115 0002 83B0     		sub	sp, sp, #12
 3116              		.cfi_def_cfa_offset 16
 3117 0004 00AF     		add	r7, sp, #0
 3118              		.cfi_def_cfa_register 7
 3119 0006 7860     		str	r0, [r7, #4]
 3120 0008 3960     		str	r1, [r7]
 810:Generated_Source\PSoC6\pdl\drivers\peripheral\scb/cy_scb_uart.c ****     /* Suppress a compiler warning about unused variables */
 811:Generated_Source\PSoC6\pdl\drivers\peripheral\scb/cy_scb_uart.c ****     (void) base;
 812:Generated_Source\PSoC6\pdl\drivers\peripheral\scb/cy_scb_uart.c **** 
 813:Generated_Source\PSoC6\pdl\drivers\peripheral\scb/cy_scb_uart.c ****     return (context->rxStatus);
 3121              		.loc 3 813 0
 3122 000a 3B68     		ldr	r3, [r7]
 3123 000c 5B68     		ldr	r3, [r3, #4]
 814:Generated_Source\PSoC6\pdl\drivers\peripheral\scb/cy_scb_uart.c **** }
 3124              		.loc 3 814 0
 3125 000e 1846     		mov	r0, r3
 3126 0010 0C37     		adds	r7, r7, #12
 3127              		.cfi_def_cfa_offset 4
 3128 0012 BD46     		mov	sp, r7
 3129              		.cfi_def_cfa_register 13
ARM GAS  C:\Users\ikomb\AppData\Local\Temp\cctq3ka9.s 			page 127


 3130              		@ sp needed
 3131 0014 5DF8047B 		ldr	r7, [sp], #4
 3132              		.cfi_restore 7
 3133              		.cfi_def_cfa_offset 0
 3134 0018 7047     		bx	lr
 3135              		.cfi_endproc
 3136              	.LFE246:
 3137              		.size	Cy_SCB_UART_GetReceiveStatus, .-Cy_SCB_UART_GetReceiveStatus
 3138 001a 00BF     		.section	.text.Cy_SCB_UART_Transmit,"ax",%progbits
 3139              		.align	2
 3140              		.global	Cy_SCB_UART_Transmit
 3141              		.thumb
 3142              		.thumb_func
 3143              		.type	Cy_SCB_UART_Transmit, %function
 3144              	Cy_SCB_UART_Transmit:
 3145              	.LFB247:
 815:Generated_Source\PSoC6\pdl\drivers\peripheral\scb/cy_scb_uart.c **** 
 816:Generated_Source\PSoC6\pdl\drivers\peripheral\scb/cy_scb_uart.c **** 
 817:Generated_Source\PSoC6\pdl\drivers\peripheral\scb/cy_scb_uart.c **** /*******************************************************************************
 818:Generated_Source\PSoC6\pdl\drivers\peripheral\scb/cy_scb_uart.c **** * Function Name: Cy_SCB_UART_Transmit
 819:Generated_Source\PSoC6\pdl\drivers\peripheral\scb/cy_scb_uart.c **** ****************************************************************************//**
 820:Generated_Source\PSoC6\pdl\drivers\peripheral\scb/cy_scb_uart.c **** *
 821:Generated_Source\PSoC6\pdl\drivers\peripheral\scb/cy_scb_uart.c **** * This function starts a UART transmit operation.
 822:Generated_Source\PSoC6\pdl\drivers\peripheral\scb/cy_scb_uart.c **** * It configures the transmit interrupt sources and returns.
 823:Generated_Source\PSoC6\pdl\drivers\peripheral\scb/cy_scb_uart.c **** * The \ref Cy_SCB_UART_Interrupt manages the further data transfer.
 824:Generated_Source\PSoC6\pdl\drivers\peripheral\scb/cy_scb_uart.c **** *
 825:Generated_Source\PSoC6\pdl\drivers\peripheral\scb/cy_scb_uart.c **** * When the transmit operation is completed (requested number of data elements
 826:Generated_Source\PSoC6\pdl\drivers\peripheral\scb/cy_scb_uart.c **** * sent on the bus), the \ref CY_SCB_UART_TRANSMIT_ACTIVE status is cleared and
 827:Generated_Source\PSoC6\pdl\drivers\peripheral\scb/cy_scb_uart.c **** * the \ref CY_SCB_UART_TRANSMIT_DONE_EVENT event is generated.
 828:Generated_Source\PSoC6\pdl\drivers\peripheral\scb/cy_scb_uart.c **** *
 829:Generated_Source\PSoC6\pdl\drivers\peripheral\scb/cy_scb_uart.c **** * \param base
 830:Generated_Source\PSoC6\pdl\drivers\peripheral\scb/cy_scb_uart.c **** * The pointer to the UART SCB instance.
 831:Generated_Source\PSoC6\pdl\drivers\peripheral\scb/cy_scb_uart.c **** *
 832:Generated_Source\PSoC6\pdl\drivers\peripheral\scb/cy_scb_uart.c **** * \param buffer
 833:Generated_Source\PSoC6\pdl\drivers\peripheral\scb/cy_scb_uart.c **** * Pointer to user data to place in transmit buffer.
 834:Generated_Source\PSoC6\pdl\drivers\peripheral\scb/cy_scb_uart.c **** * The item size is defined by the data type, which depends on the configured
 835:Generated_Source\PSoC6\pdl\drivers\peripheral\scb/cy_scb_uart.c **** * data width.
 836:Generated_Source\PSoC6\pdl\drivers\peripheral\scb/cy_scb_uart.c **** *
 837:Generated_Source\PSoC6\pdl\drivers\peripheral\scb/cy_scb_uart.c **** * \param size
 838:Generated_Source\PSoC6\pdl\drivers\peripheral\scb/cy_scb_uart.c **** * The number of data elements to transmit.
 839:Generated_Source\PSoC6\pdl\drivers\peripheral\scb/cy_scb_uart.c **** *
 840:Generated_Source\PSoC6\pdl\drivers\peripheral\scb/cy_scb_uart.c **** * \param context
 841:Generated_Source\PSoC6\pdl\drivers\peripheral\scb/cy_scb_uart.c **** * The pointer to the context structure \ref cy_stc_scb_uart_context_t allocated
 842:Generated_Source\PSoC6\pdl\drivers\peripheral\scb/cy_scb_uart.c **** * by the user. The structure is used during the UART operation for internal
 843:Generated_Source\PSoC6\pdl\drivers\peripheral\scb/cy_scb_uart.c **** * configuration and data retention. The user must not modify anything
 844:Generated_Source\PSoC6\pdl\drivers\peripheral\scb/cy_scb_uart.c **** * in this structure.
 845:Generated_Source\PSoC6\pdl\drivers\peripheral\scb/cy_scb_uart.c **** *
 846:Generated_Source\PSoC6\pdl\drivers\peripheral\scb/cy_scb_uart.c **** * \return
 847:Generated_Source\PSoC6\pdl\drivers\peripheral\scb/cy_scb_uart.c **** * \ref cy_en_scb_uart_status_t
 848:Generated_Source\PSoC6\pdl\drivers\peripheral\scb/cy_scb_uart.c **** *
 849:Generated_Source\PSoC6\pdl\drivers\peripheral\scb/cy_scb_uart.c **** * \note
 850:Generated_Source\PSoC6\pdl\drivers\peripheral\scb/cy_scb_uart.c **** * * The buffer must not be modified and must stay allocated until its content is
 851:Generated_Source\PSoC6\pdl\drivers\peripheral\scb/cy_scb_uart.c **** *   copied into the TX FIFO.
 852:Generated_Source\PSoC6\pdl\drivers\peripheral\scb/cy_scb_uart.c **** * * This function overrides the TX FIFO interrupt sources and changes the
 853:Generated_Source\PSoC6\pdl\drivers\peripheral\scb/cy_scb_uart.c **** *   TX FIFO level.
 854:Generated_Source\PSoC6\pdl\drivers\peripheral\scb/cy_scb_uart.c **** *
 855:Generated_Source\PSoC6\pdl\drivers\peripheral\scb/cy_scb_uart.c **** *******************************************************************************/
ARM GAS  C:\Users\ikomb\AppData\Local\Temp\cctq3ka9.s 			page 128


 856:Generated_Source\PSoC6\pdl\drivers\peripheral\scb/cy_scb_uart.c **** cy_en_scb_uart_status_t Cy_SCB_UART_Transmit(CySCB_Type *base, void *buffer, uint32_t size, cy_stc_
 857:Generated_Source\PSoC6\pdl\drivers\peripheral\scb/cy_scb_uart.c **** {
 3146              		.loc 3 857 0
 3147              		.cfi_startproc
 3148              		@ args = 0, pretend = 0, frame = 24
 3149              		@ frame_needed = 1, uses_anonymous_args = 0
 3150 0000 80B5     		push	{r7, lr}
 3151              		.cfi_def_cfa_offset 8
 3152              		.cfi_offset 7, -8
 3153              		.cfi_offset 14, -4
 3154 0002 86B0     		sub	sp, sp, #24
 3155              		.cfi_def_cfa_offset 32
 3156 0004 00AF     		add	r7, sp, #0
 3157              		.cfi_def_cfa_register 7
 3158 0006 F860     		str	r0, [r7, #12]
 3159 0008 B960     		str	r1, [r7, #8]
 3160 000a 7A60     		str	r2, [r7, #4]
 3161 000c 3B60     		str	r3, [r7]
 858:Generated_Source\PSoC6\pdl\drivers\peripheral\scb/cy_scb_uart.c ****     CY_ASSERT_L1(NULL != context);
 3162              		.loc 3 858 0
 3163 000e 3B68     		ldr	r3, [r7]
 3164 0010 002B     		cmp	r3, #0
 3165 0012 04D1     		bne	.L220
 3166              		.loc 3 858 0 is_stmt 0 discriminator 1
 3167 0014 40F25A31 		movw	r1, #858
 3168 0018 2448     		ldr	r0, .L228
 3169 001a FFF7FEFF 		bl	Cy_SysLib_AssertFailed
 3170              	.L220:
 859:Generated_Source\PSoC6\pdl\drivers\peripheral\scb/cy_scb_uart.c ****     CY_ASSERT_L1(CY_SCB_UART_INIT_KEY == context->initKey);
 3171              		.loc 3 859 0 is_stmt 1
 3172 001e 3B68     		ldr	r3, [r7]
 3173 0020 5B6B     		ldr	r3, [r3, #52]
 3174 0022 234A     		ldr	r2, .L228+4
 3175 0024 9342     		cmp	r3, r2
 3176 0026 04D0     		beq	.L221
 3177              		.loc 3 859 0 is_stmt 0 discriminator 1
 3178 0028 40F25B31 		movw	r1, #859
 3179 002c 1F48     		ldr	r0, .L228
 3180 002e FFF7FEFF 		bl	Cy_SysLib_AssertFailed
 3181              	.L221:
 860:Generated_Source\PSoC6\pdl\drivers\peripheral\scb/cy_scb_uart.c ****     CY_ASSERT_L1(CY_SCB_IS_BUFFER_VALID(buffer, size));
 3182              		.loc 3 860 0 is_stmt 1
 3183 0032 BB68     		ldr	r3, [r7, #8]
 3184 0034 002B     		cmp	r3, #0
 3185 0036 02D0     		beq	.L222
 3186              		.loc 3 860 0 is_stmt 0 discriminator 2
 3187 0038 7B68     		ldr	r3, [r7, #4]
 3188 003a 002B     		cmp	r3, #0
 3189 003c 04D1     		bne	.L223
 3190              	.L222:
 3191              		.loc 3 860 0 discriminator 3
 3192 003e 4FF45771 		mov	r1, #860
 3193 0042 1A48     		ldr	r0, .L228
 3194 0044 FFF7FEFF 		bl	Cy_SysLib_AssertFailed
 3195              	.L223:
 861:Generated_Source\PSoC6\pdl\drivers\peripheral\scb/cy_scb_uart.c **** 
 862:Generated_Source\PSoC6\pdl\drivers\peripheral\scb/cy_scb_uart.c ****     cy_en_scb_uart_status_t retStatus = CY_SCB_UART_TRANSMIT_BUSY;
ARM GAS  C:\Users\ikomb\AppData\Local\Temp\cctq3ka9.s 			page 129


 3196              		.loc 3 862 0 is_stmt 1
 3197 0048 1A4B     		ldr	r3, .L228+8
 3198 004a 7B61     		str	r3, [r7, #20]
 863:Generated_Source\PSoC6\pdl\drivers\peripheral\scb/cy_scb_uart.c **** 
 864:Generated_Source\PSoC6\pdl\drivers\peripheral\scb/cy_scb_uart.c ****     /* Check whether there are no active transfer requests */
 865:Generated_Source\PSoC6\pdl\drivers\peripheral\scb/cy_scb_uart.c ****     if (0UL == (CY_SCB_UART_TRANSMIT_ACTIVE & context->txStatus))
 3199              		.loc 3 865 0
 3200 004c 3B68     		ldr	r3, [r7]
 3201 004e 1B68     		ldr	r3, [r3]
 3202 0050 03F00103 		and	r3, r3, #1
 3203 0054 002B     		cmp	r3, #0
 3204 0056 24D1     		bne	.L224
 866:Generated_Source\PSoC6\pdl\drivers\peripheral\scb/cy_scb_uart.c ****     {
 867:Generated_Source\PSoC6\pdl\drivers\peripheral\scb/cy_scb_uart.c ****         /* Set up context */
 868:Generated_Source\PSoC6\pdl\drivers\peripheral\scb/cy_scb_uart.c ****         context->txStatus  = CY_SCB_UART_TRANSMIT_ACTIVE;
 3205              		.loc 3 868 0
 3206 0058 3B68     		ldr	r3, [r7]
 3207 005a 0122     		movs	r2, #1
 3208 005c 1A60     		str	r2, [r3]
 869:Generated_Source\PSoC6\pdl\drivers\peripheral\scb/cy_scb_uart.c **** 
 870:Generated_Source\PSoC6\pdl\drivers\peripheral\scb/cy_scb_uart.c ****         context->txBuf     = buffer;
 3209              		.loc 3 870 0
 3210 005e 3B68     		ldr	r3, [r7]
 3211 0060 BA68     		ldr	r2, [r7, #8]
 3212 0062 5A62     		str	r2, [r3, #36]
 871:Generated_Source\PSoC6\pdl\drivers\peripheral\scb/cy_scb_uart.c ****         context->txBufSize = size;
 3213              		.loc 3 871 0
 3214 0064 3B68     		ldr	r3, [r7]
 3215 0066 7A68     		ldr	r2, [r7, #4]
 3216 0068 9A62     		str	r2, [r3, #40]
 872:Generated_Source\PSoC6\pdl\drivers\peripheral\scb/cy_scb_uart.c **** 
 873:Generated_Source\PSoC6\pdl\drivers\peripheral\scb/cy_scb_uart.c ****         /* Set the level in TX FIFO to start a transfer */
 874:Generated_Source\PSoC6\pdl\drivers\peripheral\scb/cy_scb_uart.c ****         Cy_SCB_SetTxFifoLevel(base, (Cy_SCB_GetFifoSize(base) / 2UL));
 3217              		.loc 3 874 0
 3218 006a F868     		ldr	r0, [r7, #12]
 3219 006c FFF7FEFF 		bl	Cy_SCB_GetFifoSize
 3220 0070 0346     		mov	r3, r0
 3221 0072 5B08     		lsrs	r3, r3, #1
 3222 0074 1946     		mov	r1, r3
 3223 0076 F868     		ldr	r0, [r7, #12]
 3224 0078 FFF7FEFF 		bl	Cy_SCB_SetTxFifoLevel
 875:Generated_Source\PSoC6\pdl\drivers\peripheral\scb/cy_scb_uart.c **** 
 876:Generated_Source\PSoC6\pdl\drivers\peripheral\scb/cy_scb_uart.c ****         /* Enable the interrupt sources */
 877:Generated_Source\PSoC6\pdl\drivers\peripheral\scb/cy_scb_uart.c ****         if (((uint32_t) CY_SCB_UART_SMARTCARD) == _FLD2VAL(SCB_UART_CTRL_MODE, base->UART_CTRL))
 3225              		.loc 3 877 0
 3226 007c FB68     		ldr	r3, [r7, #12]
 3227 007e 1B6C     		ldr	r3, [r3, #64]
 3228 0080 03F04073 		and	r3, r3, #50331648
 3229 0084 1B0E     		lsrs	r3, r3, #24
 3230 0086 012B     		cmp	r3, #1
 3231 0088 05D1     		bne	.L225
 878:Generated_Source\PSoC6\pdl\drivers\peripheral\scb/cy_scb_uart.c ****         {
 879:Generated_Source\PSoC6\pdl\drivers\peripheral\scb/cy_scb_uart.c ****             /* Transfer data into TX FIFO and track SmartCard-specific errors */
 880:Generated_Source\PSoC6\pdl\drivers\peripheral\scb/cy_scb_uart.c ****             Cy_SCB_SetTxInterruptMask(base, CY_SCB_UART_TX_INTR);
 3232              		.loc 3 880 0
 3233 008a 40F20151 		movw	r1, #1281
 3234 008e F868     		ldr	r0, [r7, #12]
ARM GAS  C:\Users\ikomb\AppData\Local\Temp\cctq3ka9.s 			page 130


 3235 0090 FFF7FEFF 		bl	Cy_SCB_SetTxInterruptMask
 3236 0094 03E0     		b	.L226
 3237              	.L225:
 881:Generated_Source\PSoC6\pdl\drivers\peripheral\scb/cy_scb_uart.c ****         }
 882:Generated_Source\PSoC6\pdl\drivers\peripheral\scb/cy_scb_uart.c ****         else
 883:Generated_Source\PSoC6\pdl\drivers\peripheral\scb/cy_scb_uart.c ****         {
 884:Generated_Source\PSoC6\pdl\drivers\peripheral\scb/cy_scb_uart.c ****             /* Transfer data into TX FIFO */
 885:Generated_Source\PSoC6\pdl\drivers\peripheral\scb/cy_scb_uart.c ****             Cy_SCB_SetTxInterruptMask(base, CY_SCB_TX_INTR_LEVEL);
 3238              		.loc 3 885 0
 3239 0096 0121     		movs	r1, #1
 3240 0098 F868     		ldr	r0, [r7, #12]
 3241 009a FFF7FEFF 		bl	Cy_SCB_SetTxInterruptMask
 3242              	.L226:
 886:Generated_Source\PSoC6\pdl\drivers\peripheral\scb/cy_scb_uart.c ****         }
 887:Generated_Source\PSoC6\pdl\drivers\peripheral\scb/cy_scb_uart.c **** 
 888:Generated_Source\PSoC6\pdl\drivers\peripheral\scb/cy_scb_uart.c ****         retStatus = CY_SCB_UART_SUCCESS;
 3243              		.loc 3 888 0
 3244 009e 0023     		movs	r3, #0
 3245 00a0 7B61     		str	r3, [r7, #20]
 3246              	.L224:
 889:Generated_Source\PSoC6\pdl\drivers\peripheral\scb/cy_scb_uart.c ****     }
 890:Generated_Source\PSoC6\pdl\drivers\peripheral\scb/cy_scb_uart.c **** 
 891:Generated_Source\PSoC6\pdl\drivers\peripheral\scb/cy_scb_uart.c ****     return (retStatus);
 3247              		.loc 3 891 0
 3248 00a2 7B69     		ldr	r3, [r7, #20]
 892:Generated_Source\PSoC6\pdl\drivers\peripheral\scb/cy_scb_uart.c **** }
 3249              		.loc 3 892 0
 3250 00a4 1846     		mov	r0, r3
 3251 00a6 1837     		adds	r7, r7, #24
 3252              		.cfi_def_cfa_offset 8
 3253 00a8 BD46     		mov	sp, r7
 3254              		.cfi_def_cfa_register 13
 3255              		@ sp needed
 3256 00aa 80BD     		pop	{r7, pc}
 3257              	.L229:
 3258              		.align	2
 3259              	.L228:
 3260 00ac 84000000 		.word	.LC2
 3261 00b0 EFCDAB00 		.word	11259375
 3262 00b4 0360AA00 		.word	11165699
 3263              		.cfi_endproc
 3264              	.LFE247:
 3265              		.size	Cy_SCB_UART_Transmit, .-Cy_SCB_UART_Transmit
 3266              		.section	.text.Cy_SCB_UART_AbortTransmit,"ax",%progbits
 3267              		.align	2
 3268              		.global	Cy_SCB_UART_AbortTransmit
 3269              		.thumb
 3270              		.thumb_func
 3271              		.type	Cy_SCB_UART_AbortTransmit, %function
 3272              	Cy_SCB_UART_AbortTransmit:
 3273              	.LFB248:
 893:Generated_Source\PSoC6\pdl\drivers\peripheral\scb/cy_scb_uart.c **** 
 894:Generated_Source\PSoC6\pdl\drivers\peripheral\scb/cy_scb_uart.c **** 
 895:Generated_Source\PSoC6\pdl\drivers\peripheral\scb/cy_scb_uart.c **** /*******************************************************************************
 896:Generated_Source\PSoC6\pdl\drivers\peripheral\scb/cy_scb_uart.c **** * Function Name: Cy_SCB_UART_AbortTransmit
 897:Generated_Source\PSoC6\pdl\drivers\peripheral\scb/cy_scb_uart.c **** ****************************************************************************//**
 898:Generated_Source\PSoC6\pdl\drivers\peripheral\scb/cy_scb_uart.c **** *
ARM GAS  C:\Users\ikomb\AppData\Local\Temp\cctq3ka9.s 			page 131


 899:Generated_Source\PSoC6\pdl\drivers\peripheral\scb/cy_scb_uart.c **** * Aborts the current transmit operation.
 900:Generated_Source\PSoC6\pdl\drivers\peripheral\scb/cy_scb_uart.c **** * It disables the transmit interrupt sources and clears the transmit FIFO
 901:Generated_Source\PSoC6\pdl\drivers\peripheral\scb/cy_scb_uart.c **** * and status.
 902:Generated_Source\PSoC6\pdl\drivers\peripheral\scb/cy_scb_uart.c **** *
 903:Generated_Source\PSoC6\pdl\drivers\peripheral\scb/cy_scb_uart.c **** * \param base
 904:Generated_Source\PSoC6\pdl\drivers\peripheral\scb/cy_scb_uart.c **** * The pointer to the UART SCB instance.
 905:Generated_Source\PSoC6\pdl\drivers\peripheral\scb/cy_scb_uart.c **** *
 906:Generated_Source\PSoC6\pdl\drivers\peripheral\scb/cy_scb_uart.c **** * \param context
 907:Generated_Source\PSoC6\pdl\drivers\peripheral\scb/cy_scb_uart.c **** * The pointer to the context structure \ref cy_stc_scb_uart_context_t allocated
 908:Generated_Source\PSoC6\pdl\drivers\peripheral\scb/cy_scb_uart.c **** * by the user. The structure is used during the UART operation for internal
 909:Generated_Source\PSoC6\pdl\drivers\peripheral\scb/cy_scb_uart.c **** * configuration and data retention. The user must not modify anything
 910:Generated_Source\PSoC6\pdl\drivers\peripheral\scb/cy_scb_uart.c **** * in this structure.
 911:Generated_Source\PSoC6\pdl\drivers\peripheral\scb/cy_scb_uart.c **** *
 912:Generated_Source\PSoC6\pdl\drivers\peripheral\scb/cy_scb_uart.c **** * \sideeffect
 913:Generated_Source\PSoC6\pdl\drivers\peripheral\scb/cy_scb_uart.c **** * The transmit FIFO clear operation also clears the shift register, so that
 914:Generated_Source\PSoC6\pdl\drivers\peripheral\scb/cy_scb_uart.c **** * the shifter can be cleared in the middle of a data element transfer,
 915:Generated_Source\PSoC6\pdl\drivers\peripheral\scb/cy_scb_uart.c **** * corrupting it. The data element corruption means that all bits that have
 916:Generated_Source\PSoC6\pdl\drivers\peripheral\scb/cy_scb_uart.c **** * not been transmitted are transmitted as "ones" on the bus.
 917:Generated_Source\PSoC6\pdl\drivers\peripheral\scb/cy_scb_uart.c **** *
 918:Generated_Source\PSoC6\pdl\drivers\peripheral\scb/cy_scb_uart.c **** *******************************************************************************/
 919:Generated_Source\PSoC6\pdl\drivers\peripheral\scb/cy_scb_uart.c **** void Cy_SCB_UART_AbortTransmit(CySCB_Type *base, cy_stc_scb_uart_context_t *context)
 920:Generated_Source\PSoC6\pdl\drivers\peripheral\scb/cy_scb_uart.c **** {
 3274              		.loc 3 920 0
 3275              		.cfi_startproc
 3276              		@ args = 0, pretend = 0, frame = 8
 3277              		@ frame_needed = 1, uses_anonymous_args = 0
 3278 0000 80B5     		push	{r7, lr}
 3279              		.cfi_def_cfa_offset 8
 3280              		.cfi_offset 7, -8
 3281              		.cfi_offset 14, -4
 3282 0002 82B0     		sub	sp, sp, #8
 3283              		.cfi_def_cfa_offset 16
 3284 0004 00AF     		add	r7, sp, #0
 3285              		.cfi_def_cfa_register 7
 3286 0006 7860     		str	r0, [r7, #4]
 3287 0008 3960     		str	r1, [r7]
 921:Generated_Source\PSoC6\pdl\drivers\peripheral\scb/cy_scb_uart.c ****     Cy_SCB_SetTxInterruptMask(base, CY_SCB_CLEAR_ALL_INTR_SRC);
 3288              		.loc 3 921 0
 3289 000a 0021     		movs	r1, #0
 3290 000c 7868     		ldr	r0, [r7, #4]
 3291 000e FFF7FEFF 		bl	Cy_SCB_SetTxInterruptMask
 922:Generated_Source\PSoC6\pdl\drivers\peripheral\scb/cy_scb_uart.c **** 
 923:Generated_Source\PSoC6\pdl\drivers\peripheral\scb/cy_scb_uart.c ****     Cy_SCB_UART_ClearTxFifo(base);
 3292              		.loc 3 923 0
 3293 0012 7868     		ldr	r0, [r7, #4]
 3294 0014 FFF7FEFF 		bl	Cy_SCB_UART_ClearTxFifo
 924:Generated_Source\PSoC6\pdl\drivers\peripheral\scb/cy_scb_uart.c **** 
 925:Generated_Source\PSoC6\pdl\drivers\peripheral\scb/cy_scb_uart.c ****     context->txBufSize = 0UL;
 3295              		.loc 3 925 0
 3296 0018 3B68     		ldr	r3, [r7]
 3297 001a 0022     		movs	r2, #0
 3298 001c 9A62     		str	r2, [r3, #40]
 926:Generated_Source\PSoC6\pdl\drivers\peripheral\scb/cy_scb_uart.c ****     context->txLeftToTransmit = 0UL;
 3299              		.loc 3 926 0
 3300 001e 3B68     		ldr	r3, [r7]
 3301 0020 0022     		movs	r2, #0
 3302 0022 DA62     		str	r2, [r3, #44]
ARM GAS  C:\Users\ikomb\AppData\Local\Temp\cctq3ka9.s 			page 132


 927:Generated_Source\PSoC6\pdl\drivers\peripheral\scb/cy_scb_uart.c **** 
 928:Generated_Source\PSoC6\pdl\drivers\peripheral\scb/cy_scb_uart.c ****     context->txStatus  = 0UL;
 3303              		.loc 3 928 0
 3304 0024 3B68     		ldr	r3, [r7]
 3305 0026 0022     		movs	r2, #0
 3306 0028 1A60     		str	r2, [r3]
 929:Generated_Source\PSoC6\pdl\drivers\peripheral\scb/cy_scb_uart.c **** }
 3307              		.loc 3 929 0
 3308 002a 00BF     		nop
 3309 002c 0837     		adds	r7, r7, #8
 3310              		.cfi_def_cfa_offset 8
 3311 002e BD46     		mov	sp, r7
 3312              		.cfi_def_cfa_register 13
 3313              		@ sp needed
 3314 0030 80BD     		pop	{r7, pc}
 3315              		.cfi_endproc
 3316              	.LFE248:
 3317              		.size	Cy_SCB_UART_AbortTransmit, .-Cy_SCB_UART_AbortTransmit
 3318 0032 00BF     		.section	.text.Cy_SCB_UART_GetNumLeftToTransmit,"ax",%progbits
 3319              		.align	2
 3320              		.global	Cy_SCB_UART_GetNumLeftToTransmit
 3321              		.thumb
 3322              		.thumb_func
 3323              		.type	Cy_SCB_UART_GetNumLeftToTransmit, %function
 3324              	Cy_SCB_UART_GetNumLeftToTransmit:
 3325              	.LFB249:
 930:Generated_Source\PSoC6\pdl\drivers\peripheral\scb/cy_scb_uart.c **** 
 931:Generated_Source\PSoC6\pdl\drivers\peripheral\scb/cy_scb_uart.c **** 
 932:Generated_Source\PSoC6\pdl\drivers\peripheral\scb/cy_scb_uart.c **** /*******************************************************************************
 933:Generated_Source\PSoC6\pdl\drivers\peripheral\scb/cy_scb_uart.c **** * Function Name: Cy_SCB_UART_GetNumLeftToTransmit
 934:Generated_Source\PSoC6\pdl\drivers\peripheral\scb/cy_scb_uart.c **** ****************************************************************************//**
 935:Generated_Source\PSoC6\pdl\drivers\peripheral\scb/cy_scb_uart.c **** *
 936:Generated_Source\PSoC6\pdl\drivers\peripheral\scb/cy_scb_uart.c **** * Returns the number of data elements left to transmit since the last call to
 937:Generated_Source\PSoC6\pdl\drivers\peripheral\scb/cy_scb_uart.c **** * \ref Cy_SCB_UART_Transmit.
 938:Generated_Source\PSoC6\pdl\drivers\peripheral\scb/cy_scb_uart.c **** *
 939:Generated_Source\PSoC6\pdl\drivers\peripheral\scb/cy_scb_uart.c **** * \param base
 940:Generated_Source\PSoC6\pdl\drivers\peripheral\scb/cy_scb_uart.c **** * The pointer to the UART SCB instance.
 941:Generated_Source\PSoC6\pdl\drivers\peripheral\scb/cy_scb_uart.c **** *
 942:Generated_Source\PSoC6\pdl\drivers\peripheral\scb/cy_scb_uart.c **** * \param context
 943:Generated_Source\PSoC6\pdl\drivers\peripheral\scb/cy_scb_uart.c **** * The pointer to the context structure \ref cy_stc_scb_uart_context_t allocated
 944:Generated_Source\PSoC6\pdl\drivers\peripheral\scb/cy_scb_uart.c **** * by the user. The structure is used during the UART operation for internal
 945:Generated_Source\PSoC6\pdl\drivers\peripheral\scb/cy_scb_uart.c **** * configuration and data retention. The user must not modify anything
 946:Generated_Source\PSoC6\pdl\drivers\peripheral\scb/cy_scb_uart.c **** * in this structure.
 947:Generated_Source\PSoC6\pdl\drivers\peripheral\scb/cy_scb_uart.c **** *
 948:Generated_Source\PSoC6\pdl\drivers\peripheral\scb/cy_scb_uart.c **** * \return
 949:Generated_Source\PSoC6\pdl\drivers\peripheral\scb/cy_scb_uart.c **** * The number of data elements left to transmit.
 950:Generated_Source\PSoC6\pdl\drivers\peripheral\scb/cy_scb_uart.c **** *
 951:Generated_Source\PSoC6\pdl\drivers\peripheral\scb/cy_scb_uart.c **** *******************************************************************************/
 952:Generated_Source\PSoC6\pdl\drivers\peripheral\scb/cy_scb_uart.c **** uint32_t Cy_SCB_UART_GetNumLeftToTransmit(CySCB_Type const *base, cy_stc_scb_uart_context_t const *
 953:Generated_Source\PSoC6\pdl\drivers\peripheral\scb/cy_scb_uart.c **** {
 3326              		.loc 3 953 0
 3327              		.cfi_startproc
 3328              		@ args = 0, pretend = 0, frame = 8
 3329              		@ frame_needed = 1, uses_anonymous_args = 0
 3330              		@ link register save eliminated.
 3331 0000 80B4     		push	{r7}
 3332              		.cfi_def_cfa_offset 4
ARM GAS  C:\Users\ikomb\AppData\Local\Temp\cctq3ka9.s 			page 133


 3333              		.cfi_offset 7, -4
 3334 0002 83B0     		sub	sp, sp, #12
 3335              		.cfi_def_cfa_offset 16
 3336 0004 00AF     		add	r7, sp, #0
 3337              		.cfi_def_cfa_register 7
 3338 0006 7860     		str	r0, [r7, #4]
 3339 0008 3960     		str	r1, [r7]
 954:Generated_Source\PSoC6\pdl\drivers\peripheral\scb/cy_scb_uart.c ****     /* Suppress a compiler warning about unused variables */
 955:Generated_Source\PSoC6\pdl\drivers\peripheral\scb/cy_scb_uart.c ****     (void) base;
 956:Generated_Source\PSoC6\pdl\drivers\peripheral\scb/cy_scb_uart.c **** 
 957:Generated_Source\PSoC6\pdl\drivers\peripheral\scb/cy_scb_uart.c ****     return (context->txLeftToTransmit);
 3340              		.loc 3 957 0
 3341 000a 3B68     		ldr	r3, [r7]
 3342 000c DB6A     		ldr	r3, [r3, #44]
 958:Generated_Source\PSoC6\pdl\drivers\peripheral\scb/cy_scb_uart.c **** }
 3343              		.loc 3 958 0
 3344 000e 1846     		mov	r0, r3
 3345 0010 0C37     		adds	r7, r7, #12
 3346              		.cfi_def_cfa_offset 4
 3347 0012 BD46     		mov	sp, r7
 3348              		.cfi_def_cfa_register 13
 3349              		@ sp needed
 3350 0014 5DF8047B 		ldr	r7, [sp], #4
 3351              		.cfi_restore 7
 3352              		.cfi_def_cfa_offset 0
 3353 0018 7047     		bx	lr
 3354              		.cfi_endproc
 3355              	.LFE249:
 3356              		.size	Cy_SCB_UART_GetNumLeftToTransmit, .-Cy_SCB_UART_GetNumLeftToTransmit
 3357 001a 00BF     		.section	.text.Cy_SCB_UART_GetTransmitStatus,"ax",%progbits
 3358              		.align	2
 3359              		.global	Cy_SCB_UART_GetTransmitStatus
 3360              		.thumb
 3361              		.thumb_func
 3362              		.type	Cy_SCB_UART_GetTransmitStatus, %function
 3363              	Cy_SCB_UART_GetTransmitStatus:
 3364              	.LFB250:
 959:Generated_Source\PSoC6\pdl\drivers\peripheral\scb/cy_scb_uart.c **** 
 960:Generated_Source\PSoC6\pdl\drivers\peripheral\scb/cy_scb_uart.c **** 
 961:Generated_Source\PSoC6\pdl\drivers\peripheral\scb/cy_scb_uart.c **** /*******************************************************************************
 962:Generated_Source\PSoC6\pdl\drivers\peripheral\scb/cy_scb_uart.c **** * Function Name: Cy_SCB_UART_GetTransmitStatus
 963:Generated_Source\PSoC6\pdl\drivers\peripheral\scb/cy_scb_uart.c **** ****************************************************************************//**
 964:Generated_Source\PSoC6\pdl\drivers\peripheral\scb/cy_scb_uart.c **** *
 965:Generated_Source\PSoC6\pdl\drivers\peripheral\scb/cy_scb_uart.c **** * Returns the status of the transmit operation.
 966:Generated_Source\PSoC6\pdl\drivers\peripheral\scb/cy_scb_uart.c **** * This status is a bit mask and the value returned may have multiple bits set.
 967:Generated_Source\PSoC6\pdl\drivers\peripheral\scb/cy_scb_uart.c **** *
 968:Generated_Source\PSoC6\pdl\drivers\peripheral\scb/cy_scb_uart.c **** * \param base
 969:Generated_Source\PSoC6\pdl\drivers\peripheral\scb/cy_scb_uart.c **** * The pointer to the UART SCB instance.
 970:Generated_Source\PSoC6\pdl\drivers\peripheral\scb/cy_scb_uart.c **** *
 971:Generated_Source\PSoC6\pdl\drivers\peripheral\scb/cy_scb_uart.c **** * \param context
 972:Generated_Source\PSoC6\pdl\drivers\peripheral\scb/cy_scb_uart.c **** * The pointer to the context structure \ref cy_stc_scb_uart_context_t allocated
 973:Generated_Source\PSoC6\pdl\drivers\peripheral\scb/cy_scb_uart.c **** * by the user. The structure is used during the UART operation for internal
 974:Generated_Source\PSoC6\pdl\drivers\peripheral\scb/cy_scb_uart.c **** * configuration and data retention. The user must not modify anything
 975:Generated_Source\PSoC6\pdl\drivers\peripheral\scb/cy_scb_uart.c **** * in this structure.
 976:Generated_Source\PSoC6\pdl\drivers\peripheral\scb/cy_scb_uart.c **** *
 977:Generated_Source\PSoC6\pdl\drivers\peripheral\scb/cy_scb_uart.c **** * \return
 978:Generated_Source\PSoC6\pdl\drivers\peripheral\scb/cy_scb_uart.c **** * \ref group_scb_uart_macros_transmit_status.
ARM GAS  C:\Users\ikomb\AppData\Local\Temp\cctq3ka9.s 			page 134


 979:Generated_Source\PSoC6\pdl\drivers\peripheral\scb/cy_scb_uart.c **** *
 980:Generated_Source\PSoC6\pdl\drivers\peripheral\scb/cy_scb_uart.c **** * \note
 981:Generated_Source\PSoC6\pdl\drivers\peripheral\scb/cy_scb_uart.c **** * The status is only cleared by calling \ref Cy_SCB_UART_Transmit or
 982:Generated_Source\PSoC6\pdl\drivers\peripheral\scb/cy_scb_uart.c **** * \ref Cy_SCB_UART_AbortTransmit.
 983:Generated_Source\PSoC6\pdl\drivers\peripheral\scb/cy_scb_uart.c **** *
 984:Generated_Source\PSoC6\pdl\drivers\peripheral\scb/cy_scb_uart.c **** *******************************************************************************/
 985:Generated_Source\PSoC6\pdl\drivers\peripheral\scb/cy_scb_uart.c **** uint32_t Cy_SCB_UART_GetTransmitStatus(CySCB_Type const *base, cy_stc_scb_uart_context_t const *con
 986:Generated_Source\PSoC6\pdl\drivers\peripheral\scb/cy_scb_uart.c **** {
 3365              		.loc 3 986 0
 3366              		.cfi_startproc
 3367              		@ args = 0, pretend = 0, frame = 8
 3368              		@ frame_needed = 1, uses_anonymous_args = 0
 3369              		@ link register save eliminated.
 3370 0000 80B4     		push	{r7}
 3371              		.cfi_def_cfa_offset 4
 3372              		.cfi_offset 7, -4
 3373 0002 83B0     		sub	sp, sp, #12
 3374              		.cfi_def_cfa_offset 16
 3375 0004 00AF     		add	r7, sp, #0
 3376              		.cfi_def_cfa_register 7
 3377 0006 7860     		str	r0, [r7, #4]
 3378 0008 3960     		str	r1, [r7]
 987:Generated_Source\PSoC6\pdl\drivers\peripheral\scb/cy_scb_uart.c ****     /* Suppress a compiler warning about unused variables */
 988:Generated_Source\PSoC6\pdl\drivers\peripheral\scb/cy_scb_uart.c ****     (void) base;
 989:Generated_Source\PSoC6\pdl\drivers\peripheral\scb/cy_scb_uart.c **** 
 990:Generated_Source\PSoC6\pdl\drivers\peripheral\scb/cy_scb_uart.c ****     return (context->txStatus);
 3379              		.loc 3 990 0
 3380 000a 3B68     		ldr	r3, [r7]
 3381 000c 1B68     		ldr	r3, [r3]
 991:Generated_Source\PSoC6\pdl\drivers\peripheral\scb/cy_scb_uart.c **** }
 3382              		.loc 3 991 0
 3383 000e 1846     		mov	r0, r3
 3384 0010 0C37     		adds	r7, r7, #12
 3385              		.cfi_def_cfa_offset 4
 3386 0012 BD46     		mov	sp, r7
 3387              		.cfi_def_cfa_register 13
 3388              		@ sp needed
 3389 0014 5DF8047B 		ldr	r7, [sp], #4
 3390              		.cfi_restore 7
 3391              		.cfi_def_cfa_offset 0
 3392 0018 7047     		bx	lr
 3393              		.cfi_endproc
 3394              	.LFE250:
 3395              		.size	Cy_SCB_UART_GetTransmitStatus, .-Cy_SCB_UART_GetTransmitStatus
 3396 001a 00BF     		.section	.text.Cy_SCB_UART_SendBreakBlocking,"ax",%progbits
 3397              		.align	2
 3398              		.global	Cy_SCB_UART_SendBreakBlocking
 3399              		.thumb
 3400              		.thumb_func
 3401              		.type	Cy_SCB_UART_SendBreakBlocking, %function
 3402              	Cy_SCB_UART_SendBreakBlocking:
 3403              	.LFB251:
 992:Generated_Source\PSoC6\pdl\drivers\peripheral\scb/cy_scb_uart.c **** 
 993:Generated_Source\PSoC6\pdl\drivers\peripheral\scb/cy_scb_uart.c **** 
 994:Generated_Source\PSoC6\pdl\drivers\peripheral\scb/cy_scb_uart.c **** /*******************************************************************************
 995:Generated_Source\PSoC6\pdl\drivers\peripheral\scb/cy_scb_uart.c **** * Function Name: Cy_SCB_UART_SendBreakBlocking
 996:Generated_Source\PSoC6\pdl\drivers\peripheral\scb/cy_scb_uart.c **** ****************************************************************************//**
ARM GAS  C:\Users\ikomb\AppData\Local\Temp\cctq3ka9.s 			page 135


 997:Generated_Source\PSoC6\pdl\drivers\peripheral\scb/cy_scb_uart.c **** *
 998:Generated_Source\PSoC6\pdl\drivers\peripheral\scb/cy_scb_uart.c **** * Sends a break condition (logic low) of specified width on UART TX line.
 999:Generated_Source\PSoC6\pdl\drivers\peripheral\scb/cy_scb_uart.c **** * Blocks until break is completed. Only call this function when UART TX FIFO
1000:Generated_Source\PSoC6\pdl\drivers\peripheral\scb/cy_scb_uart.c **** * and shifter are empty.
1001:Generated_Source\PSoC6\pdl\drivers\peripheral\scb/cy_scb_uart.c **** *
1002:Generated_Source\PSoC6\pdl\drivers\peripheral\scb/cy_scb_uart.c **** * \param base
1003:Generated_Source\PSoC6\pdl\drivers\peripheral\scb/cy_scb_uart.c **** * The pointer to the UART SCB instance.
1004:Generated_Source\PSoC6\pdl\drivers\peripheral\scb/cy_scb_uart.c **** *
1005:Generated_Source\PSoC6\pdl\drivers\peripheral\scb/cy_scb_uart.c **** * \param breakWidth
1006:Generated_Source\PSoC6\pdl\drivers\peripheral\scb/cy_scb_uart.c **** * Width of break condition. Valid range is the TX data width (4 to 16 bits)
1007:Generated_Source\PSoC6\pdl\drivers\peripheral\scb/cy_scb_uart.c **** *
1008:Generated_Source\PSoC6\pdl\drivers\peripheral\scb/cy_scb_uart.c **** * \note
1009:Generated_Source\PSoC6\pdl\drivers\peripheral\scb/cy_scb_uart.c **** * Before sending break all UART TX interrupt sources are disabled. The state
1010:Generated_Source\PSoC6\pdl\drivers\peripheral\scb/cy_scb_uart.c **** * of UART TX interrupt sources is restored before function returns.
1011:Generated_Source\PSoC6\pdl\drivers\peripheral\scb/cy_scb_uart.c **** *
1012:Generated_Source\PSoC6\pdl\drivers\peripheral\scb/cy_scb_uart.c **** * \sideeffect
1013:Generated_Source\PSoC6\pdl\drivers\peripheral\scb/cy_scb_uart.c **** * If this function is called while there is data in the TX FIFO or shifter that
1014:Generated_Source\PSoC6\pdl\drivers\peripheral\scb/cy_scb_uart.c **** * data will be shifted out in packets the size of breakWidth.
1015:Generated_Source\PSoC6\pdl\drivers\peripheral\scb/cy_scb_uart.c **** *
1016:Generated_Source\PSoC6\pdl\drivers\peripheral\scb/cy_scb_uart.c **** *******************************************************************************/
1017:Generated_Source\PSoC6\pdl\drivers\peripheral\scb/cy_scb_uart.c **** void Cy_SCB_UART_SendBreakBlocking(CySCB_Type *base, uint32_t breakWidth)
1018:Generated_Source\PSoC6\pdl\drivers\peripheral\scb/cy_scb_uart.c **** {
 3404              		.loc 3 1018 0
 3405              		.cfi_startproc
 3406              		@ args = 0, pretend = 0, frame = 16
 3407              		@ frame_needed = 1, uses_anonymous_args = 0
 3408 0000 80B5     		push	{r7, lr}
 3409              		.cfi_def_cfa_offset 8
 3410              		.cfi_offset 7, -8
 3411              		.cfi_offset 14, -4
 3412 0002 84B0     		sub	sp, sp, #16
 3413              		.cfi_def_cfa_offset 24
 3414 0004 00AF     		add	r7, sp, #0
 3415              		.cfi_def_cfa_register 7
 3416 0006 7860     		str	r0, [r7, #4]
 3417 0008 3960     		str	r1, [r7]
1019:Generated_Source\PSoC6\pdl\drivers\peripheral\scb/cy_scb_uart.c ****     uint32_t txCtrlReg;
1020:Generated_Source\PSoC6\pdl\drivers\peripheral\scb/cy_scb_uart.c ****     uint32_t txIntrReg;
1021:Generated_Source\PSoC6\pdl\drivers\peripheral\scb/cy_scb_uart.c **** 
1022:Generated_Source\PSoC6\pdl\drivers\peripheral\scb/cy_scb_uart.c ****     CY_ASSERT_L2(CY_SCB_UART_IS_TX_BREAK_WIDTH_VALID(breakWidth));
 3418              		.loc 3 1022 0
 3419 000a 3B68     		ldr	r3, [r7]
 3420 000c 032B     		cmp	r3, #3
 3421 000e 02D9     		bls	.L236
 3422              		.loc 3 1022 0 is_stmt 0 discriminator 2
 3423 0010 3B68     		ldr	r3, [r7]
 3424 0012 102B     		cmp	r3, #16
 3425 0014 04D9     		bls	.L237
 3426              	.L236:
 3427              		.loc 3 1022 0 discriminator 3
 3428 0016 40F2FE31 		movw	r1, #1022
 3429 001a 1F48     		ldr	r0, .L239
 3430 001c FFF7FEFF 		bl	Cy_SysLib_AssertFailed
 3431              	.L237:
1023:Generated_Source\PSoC6\pdl\drivers\peripheral\scb/cy_scb_uart.c **** 
1024:Generated_Source\PSoC6\pdl\drivers\peripheral\scb/cy_scb_uart.c ****     /* Disable all UART TX interrupt sources and clear UART TX Done history */
1025:Generated_Source\PSoC6\pdl\drivers\peripheral\scb/cy_scb_uart.c ****     txIntrReg = Cy_SCB_GetTxInterruptMask(base);
ARM GAS  C:\Users\ikomb\AppData\Local\Temp\cctq3ka9.s 			page 136


 3432              		.loc 3 1025 0 is_stmt 1
 3433 0020 7868     		ldr	r0, [r7, #4]
 3434 0022 FFF7FEFF 		bl	Cy_SCB_GetTxInterruptMask
 3435 0026 F860     		str	r0, [r7, #12]
1026:Generated_Source\PSoC6\pdl\drivers\peripheral\scb/cy_scb_uart.c ****     Cy_SCB_SetTxInterruptMask(base, 0UL);
 3436              		.loc 3 1026 0
 3437 0028 0021     		movs	r1, #0
 3438 002a 7868     		ldr	r0, [r7, #4]
 3439 002c FFF7FEFF 		bl	Cy_SCB_SetTxInterruptMask
1027:Generated_Source\PSoC6\pdl\drivers\peripheral\scb/cy_scb_uart.c ****     Cy_SCB_ClearTxInterrupt(base, CY_SCB_TX_INTR_UART_DONE);
 3440              		.loc 3 1027 0
 3441 0030 4FF40071 		mov	r1, #512
 3442 0034 7868     		ldr	r0, [r7, #4]
 3443 0036 FFF7FEFF 		bl	Cy_SCB_ClearTxInterrupt
1028:Generated_Source\PSoC6\pdl\drivers\peripheral\scb/cy_scb_uart.c **** 
1029:Generated_Source\PSoC6\pdl\drivers\peripheral\scb/cy_scb_uart.c ****     /* Store TX_CTRL configuration */
1030:Generated_Source\PSoC6\pdl\drivers\peripheral\scb/cy_scb_uart.c ****     txCtrlReg = base->TX_CTRL;
 3444              		.loc 3 1030 0
 3445 003a 7B68     		ldr	r3, [r7, #4]
 3446 003c D3F80032 		ldr	r3, [r3, #512]
 3447 0040 BB60     		str	r3, [r7, #8]
1031:Generated_Source\PSoC6\pdl\drivers\peripheral\scb/cy_scb_uart.c **** 
1032:Generated_Source\PSoC6\pdl\drivers\peripheral\scb/cy_scb_uart.c ****     /* Set break width: start bit adds one 0 bit */
1033:Generated_Source\PSoC6\pdl\drivers\peripheral\scb/cy_scb_uart.c ****     base->TX_CTRL = _CLR_SET_FLD32U(base->TX_CTRL, SCB_TX_CTRL_DATA_WIDTH, (breakWidth - 1UL));
 3448              		.loc 3 1033 0
 3449 0042 7B68     		ldr	r3, [r7, #4]
 3450 0044 D3F80032 		ldr	r3, [r3, #512]
 3451 0048 23F00F02 		bic	r2, r3, #15
 3452 004c 3B68     		ldr	r3, [r7]
 3453 004e 013B     		subs	r3, r3, #1
 3454 0050 03F00F03 		and	r3, r3, #15
 3455 0054 1A43     		orrs	r2, r2, r3
 3456 0056 7B68     		ldr	r3, [r7, #4]
 3457 0058 C3F80022 		str	r2, [r3, #512]
1034:Generated_Source\PSoC6\pdl\drivers\peripheral\scb/cy_scb_uart.c **** 
1035:Generated_Source\PSoC6\pdl\drivers\peripheral\scb/cy_scb_uart.c ****     /* Generate break */
1036:Generated_Source\PSoC6\pdl\drivers\peripheral\scb/cy_scb_uart.c ****     Cy_SCB_WriteTxFifo(base, 0UL);
 3458              		.loc 3 1036 0
 3459 005c 0021     		movs	r1, #0
 3460 005e 7868     		ldr	r0, [r7, #4]
 3461 0060 FFF7FEFF 		bl	Cy_SCB_WriteTxFifo
1037:Generated_Source\PSoC6\pdl\drivers\peripheral\scb/cy_scb_uart.c **** 
1038:Generated_Source\PSoC6\pdl\drivers\peripheral\scb/cy_scb_uart.c ****     /* Wait for break completion */
1039:Generated_Source\PSoC6\pdl\drivers\peripheral\scb/cy_scb_uart.c ****     while (0UL == (Cy_SCB_GetTxInterruptStatus(base) & CY_SCB_TX_INTR_UART_DONE))
 3462              		.loc 3 1039 0
 3463 0064 00BF     		nop
 3464              	.L238:
 3465              		.loc 3 1039 0 is_stmt 0 discriminator 1
 3466 0066 7868     		ldr	r0, [r7, #4]
 3467 0068 FFF7FEFF 		bl	Cy_SCB_GetTxInterruptStatus
 3468 006c 0346     		mov	r3, r0
 3469 006e 03F40073 		and	r3, r3, #512
 3470 0072 002B     		cmp	r3, #0
 3471 0074 F7D0     		beq	.L238
1040:Generated_Source\PSoC6\pdl\drivers\peripheral\scb/cy_scb_uart.c ****     {
1041:Generated_Source\PSoC6\pdl\drivers\peripheral\scb/cy_scb_uart.c ****     }
1042:Generated_Source\PSoC6\pdl\drivers\peripheral\scb/cy_scb_uart.c **** 
ARM GAS  C:\Users\ikomb\AppData\Local\Temp\cctq3ka9.s 			page 137


1043:Generated_Source\PSoC6\pdl\drivers\peripheral\scb/cy_scb_uart.c ****     /* Clear all UART TX interrupt sources */
1044:Generated_Source\PSoC6\pdl\drivers\peripheral\scb/cy_scb_uart.c ****     Cy_SCB_ClearTxInterrupt(base, CY_SCB_TX_INTR_MASK);
 3472              		.loc 3 1044 0 is_stmt 1
 3473 0076 40F27371 		movw	r1, #1907
 3474 007a 7868     		ldr	r0, [r7, #4]
 3475 007c FFF7FEFF 		bl	Cy_SCB_ClearTxInterrupt
1045:Generated_Source\PSoC6\pdl\drivers\peripheral\scb/cy_scb_uart.c **** 
1046:Generated_Source\PSoC6\pdl\drivers\peripheral\scb/cy_scb_uart.c ****     /* Restore TX data width and interrupt sources */
1047:Generated_Source\PSoC6\pdl\drivers\peripheral\scb/cy_scb_uart.c ****     base->TX_CTRL = txCtrlReg;
 3476              		.loc 3 1047 0
 3477 0080 7B68     		ldr	r3, [r7, #4]
 3478 0082 BA68     		ldr	r2, [r7, #8]
 3479 0084 C3F80022 		str	r2, [r3, #512]
1048:Generated_Source\PSoC6\pdl\drivers\peripheral\scb/cy_scb_uart.c ****     Cy_SCB_SetTxInterruptMask(base, txIntrReg);
 3480              		.loc 3 1048 0
 3481 0088 F968     		ldr	r1, [r7, #12]
 3482 008a 7868     		ldr	r0, [r7, #4]
 3483 008c FFF7FEFF 		bl	Cy_SCB_SetTxInterruptMask
1049:Generated_Source\PSoC6\pdl\drivers\peripheral\scb/cy_scb_uart.c **** }
 3484              		.loc 3 1049 0
 3485 0090 00BF     		nop
 3486 0092 1037     		adds	r7, r7, #16
 3487              		.cfi_def_cfa_offset 8
 3488 0094 BD46     		mov	sp, r7
 3489              		.cfi_def_cfa_register 13
 3490              		@ sp needed
 3491 0096 80BD     		pop	{r7, pc}
 3492              	.L240:
 3493              		.align	2
 3494              	.L239:
 3495 0098 84000000 		.word	.LC2
 3496              		.cfi_endproc
 3497              	.LFE251:
 3498              		.size	Cy_SCB_UART_SendBreakBlocking, .-Cy_SCB_UART_SendBreakBlocking
 3499              		.section	.text.Cy_SCB_UART_Interrupt,"ax",%progbits
 3500              		.align	2
 3501              		.global	Cy_SCB_UART_Interrupt
 3502              		.thumb
 3503              		.thumb_func
 3504              		.type	Cy_SCB_UART_Interrupt, %function
 3505              	Cy_SCB_UART_Interrupt:
 3506              	.LFB252:
1050:Generated_Source\PSoC6\pdl\drivers\peripheral\scb/cy_scb_uart.c **** 
1051:Generated_Source\PSoC6\pdl\drivers\peripheral\scb/cy_scb_uart.c **** 
1052:Generated_Source\PSoC6\pdl\drivers\peripheral\scb/cy_scb_uart.c **** /*******************************************************************************
1053:Generated_Source\PSoC6\pdl\drivers\peripheral\scb/cy_scb_uart.c **** * Function Name: Cy_SCB_UART_Interrupt
1054:Generated_Source\PSoC6\pdl\drivers\peripheral\scb/cy_scb_uart.c **** ****************************************************************************//**
1055:Generated_Source\PSoC6\pdl\drivers\peripheral\scb/cy_scb_uart.c **** *
1056:Generated_Source\PSoC6\pdl\drivers\peripheral\scb/cy_scb_uart.c **** * This is the interrupt function for the SCB configured in the UART mode.
1057:Generated_Source\PSoC6\pdl\drivers\peripheral\scb/cy_scb_uart.c **** * This function must be called inside a user-defined interrupt service
1058:Generated_Source\PSoC6\pdl\drivers\peripheral\scb/cy_scb_uart.c **** * routine to make \ref Cy_SCB_UART_Transmit and \ref Cy_SCB_UART_Receive
1059:Generated_Source\PSoC6\pdl\drivers\peripheral\scb/cy_scb_uart.c **** * work.
1060:Generated_Source\PSoC6\pdl\drivers\peripheral\scb/cy_scb_uart.c **** *
1061:Generated_Source\PSoC6\pdl\drivers\peripheral\scb/cy_scb_uart.c **** * \param base
1062:Generated_Source\PSoC6\pdl\drivers\peripheral\scb/cy_scb_uart.c **** * The pointer to the UART SCB instance.
1063:Generated_Source\PSoC6\pdl\drivers\peripheral\scb/cy_scb_uart.c **** *
1064:Generated_Source\PSoC6\pdl\drivers\peripheral\scb/cy_scb_uart.c **** * \param context
ARM GAS  C:\Users\ikomb\AppData\Local\Temp\cctq3ka9.s 			page 138


1065:Generated_Source\PSoC6\pdl\drivers\peripheral\scb/cy_scb_uart.c **** * The pointer to the context structure \ref cy_stc_scb_uart_context_t allocated
1066:Generated_Source\PSoC6\pdl\drivers\peripheral\scb/cy_scb_uart.c **** * by the user. The structure is used during the UART operation for internal
1067:Generated_Source\PSoC6\pdl\drivers\peripheral\scb/cy_scb_uart.c **** * configuration and data retention. The user must not modify anything
1068:Generated_Source\PSoC6\pdl\drivers\peripheral\scb/cy_scb_uart.c **** * in this structure.
1069:Generated_Source\PSoC6\pdl\drivers\peripheral\scb/cy_scb_uart.c **** *
1070:Generated_Source\PSoC6\pdl\drivers\peripheral\scb/cy_scb_uart.c **** *******************************************************************************/
1071:Generated_Source\PSoC6\pdl\drivers\peripheral\scb/cy_scb_uart.c **** void Cy_SCB_UART_Interrupt(CySCB_Type *base, cy_stc_scb_uart_context_t *context)
1072:Generated_Source\PSoC6\pdl\drivers\peripheral\scb/cy_scb_uart.c **** {
 3507              		.loc 3 1072 0
 3508              		.cfi_startproc
 3509              		@ args = 0, pretend = 0, frame = 16
 3510              		@ frame_needed = 1, uses_anonymous_args = 0
 3511 0000 80B5     		push	{r7, lr}
 3512              		.cfi_def_cfa_offset 8
 3513              		.cfi_offset 7, -8
 3514              		.cfi_offset 14, -4
 3515 0002 84B0     		sub	sp, sp, #16
 3516              		.cfi_def_cfa_offset 24
 3517 0004 00AF     		add	r7, sp, #0
 3518              		.cfi_def_cfa_register 7
 3519 0006 7860     		str	r0, [r7, #4]
 3520 0008 3960     		str	r1, [r7]
1073:Generated_Source\PSoC6\pdl\drivers\peripheral\scb/cy_scb_uart.c ****     if (0UL != (CY_SCB_RX_INTR & Cy_SCB_GetInterruptCause(base)))
 3521              		.loc 3 1073 0
 3522 000a 7868     		ldr	r0, [r7, #4]
 3523 000c FFF7FEFF 		bl	Cy_SCB_GetInterruptCause
 3524 0010 0346     		mov	r3, r0
 3525 0012 03F00803 		and	r3, r3, #8
 3526 0016 002B     		cmp	r3, #0
 3527 0018 4BD0     		beq	.L242
 3528              	.LBB8:
1074:Generated_Source\PSoC6\pdl\drivers\peripheral\scb/cy_scb_uart.c ****     {
1075:Generated_Source\PSoC6\pdl\drivers\peripheral\scb/cy_scb_uart.c ****         /* Get RX error events: a frame error, parity error, and overflow */
1076:Generated_Source\PSoC6\pdl\drivers\peripheral\scb/cy_scb_uart.c ****         uint32_t locRxErr = (CY_SCB_UART_RECEIVE_ERR & Cy_SCB_GetRxInterruptStatusMasked(base));
 3529              		.loc 3 1076 0
 3530 001a 7868     		ldr	r0, [r7, #4]
 3531 001c FFF7FEFF 		bl	Cy_SCB_GetRxInterruptStatusMasked
 3532 0020 0346     		mov	r3, r0
 3533 0022 03F44873 		and	r3, r3, #800
 3534 0026 FB60     		str	r3, [r7, #12]
1077:Generated_Source\PSoC6\pdl\drivers\peripheral\scb/cy_scb_uart.c **** 
1078:Generated_Source\PSoC6\pdl\drivers\peripheral\scb/cy_scb_uart.c ****         /* Handle the error conditions */
1079:Generated_Source\PSoC6\pdl\drivers\peripheral\scb/cy_scb_uart.c ****         if (0UL != locRxErr)
 3535              		.loc 3 1079 0
 3536 0028 FB68     		ldr	r3, [r7, #12]
 3537 002a 002B     		cmp	r3, #0
 3538 002c 11D0     		beq	.L243
1080:Generated_Source\PSoC6\pdl\drivers\peripheral\scb/cy_scb_uart.c ****         {
1081:Generated_Source\PSoC6\pdl\drivers\peripheral\scb/cy_scb_uart.c ****             context->rxStatus |= locRxErr;
 3539              		.loc 3 1081 0
 3540 002e 3B68     		ldr	r3, [r7]
 3541 0030 5A68     		ldr	r2, [r3, #4]
 3542 0032 FB68     		ldr	r3, [r7, #12]
 3543 0034 1A43     		orrs	r2, r2, r3
 3544 0036 3B68     		ldr	r3, [r7]
 3545 0038 5A60     		str	r2, [r3, #4]
1082:Generated_Source\PSoC6\pdl\drivers\peripheral\scb/cy_scb_uart.c **** 
ARM GAS  C:\Users\ikomb\AppData\Local\Temp\cctq3ka9.s 			page 139


1083:Generated_Source\PSoC6\pdl\drivers\peripheral\scb/cy_scb_uart.c ****             Cy_SCB_ClearRxInterrupt(base, locRxErr);
 3546              		.loc 3 1083 0
 3547 003a F968     		ldr	r1, [r7, #12]
 3548 003c 7868     		ldr	r0, [r7, #4]
 3549 003e FFF7FEFF 		bl	Cy_SCB_ClearRxInterrupt
1084:Generated_Source\PSoC6\pdl\drivers\peripheral\scb/cy_scb_uart.c **** 
1085:Generated_Source\PSoC6\pdl\drivers\peripheral\scb/cy_scb_uart.c ****             if (NULL != context->cbEvents)
 3550              		.loc 3 1085 0
 3551 0042 3B68     		ldr	r3, [r7]
 3552 0044 1B6B     		ldr	r3, [r3, #48]
 3553 0046 002B     		cmp	r3, #0
 3554 0048 03D0     		beq	.L243
1086:Generated_Source\PSoC6\pdl\drivers\peripheral\scb/cy_scb_uart.c ****             {
1087:Generated_Source\PSoC6\pdl\drivers\peripheral\scb/cy_scb_uart.c ****                 context->cbEvents(CY_SCB_UART_RECEIVE_ERR_EVENT);
 3555              		.loc 3 1087 0
 3556 004a 3B68     		ldr	r3, [r7]
 3557 004c 1B6B     		ldr	r3, [r3, #48]
 3558 004e 1020     		movs	r0, #16
 3559 0050 9847     		blx	r3
 3560              	.L243:
1088:Generated_Source\PSoC6\pdl\drivers\peripheral\scb/cy_scb_uart.c ****             }
1089:Generated_Source\PSoC6\pdl\drivers\peripheral\scb/cy_scb_uart.c ****         }
1090:Generated_Source\PSoC6\pdl\drivers\peripheral\scb/cy_scb_uart.c **** 
1091:Generated_Source\PSoC6\pdl\drivers\peripheral\scb/cy_scb_uart.c ****         /* Break the detect */
1092:Generated_Source\PSoC6\pdl\drivers\peripheral\scb/cy_scb_uart.c ****         if (0UL != (CY_SCB_RX_INTR_UART_BREAK_DETECT & Cy_SCB_GetRxInterruptStatusMasked(base)))
 3561              		.loc 3 1092 0
 3562 0052 7868     		ldr	r0, [r7, #4]
 3563 0054 FFF7FEFF 		bl	Cy_SCB_GetRxInterruptStatusMasked
 3564 0058 0346     		mov	r3, r0
 3565 005a 03F40063 		and	r3, r3, #2048
 3566 005e 002B     		cmp	r3, #0
 3567 0060 0AD0     		beq	.L244
1093:Generated_Source\PSoC6\pdl\drivers\peripheral\scb/cy_scb_uart.c ****         {
1094:Generated_Source\PSoC6\pdl\drivers\peripheral\scb/cy_scb_uart.c ****             context->rxStatus |= CY_SCB_UART_RECEIVE_BREAK_DETECT;
 3568              		.loc 3 1094 0
 3569 0062 3B68     		ldr	r3, [r7]
 3570 0064 5B68     		ldr	r3, [r3, #4]
 3571 0066 43F40062 		orr	r2, r3, #2048
 3572 006a 3B68     		ldr	r3, [r7]
 3573 006c 5A60     		str	r2, [r3, #4]
1095:Generated_Source\PSoC6\pdl\drivers\peripheral\scb/cy_scb_uart.c **** 
1096:Generated_Source\PSoC6\pdl\drivers\peripheral\scb/cy_scb_uart.c ****             Cy_SCB_ClearRxInterrupt(base, CY_SCB_RX_INTR_UART_BREAK_DETECT);
 3574              		.loc 3 1096 0
 3575 006e 4FF40061 		mov	r1, #2048
 3576 0072 7868     		ldr	r0, [r7, #4]
 3577 0074 FFF7FEFF 		bl	Cy_SCB_ClearRxInterrupt
 3578              	.L244:
1097:Generated_Source\PSoC6\pdl\drivers\peripheral\scb/cy_scb_uart.c ****         }
1098:Generated_Source\PSoC6\pdl\drivers\peripheral\scb/cy_scb_uart.c **** 
1099:Generated_Source\PSoC6\pdl\drivers\peripheral\scb/cy_scb_uart.c ****         /* Copy the received data */
1100:Generated_Source\PSoC6\pdl\drivers\peripheral\scb/cy_scb_uart.c ****         if (0UL != (CY_SCB_RX_INTR_LEVEL & Cy_SCB_GetRxInterruptStatusMasked(base)))
 3579              		.loc 3 1100 0
 3580 0078 7868     		ldr	r0, [r7, #4]
 3581 007a FFF7FEFF 		bl	Cy_SCB_GetRxInterruptStatusMasked
 3582 007e 0346     		mov	r3, r0
 3583 0080 03F00103 		and	r3, r3, #1
 3584 0084 002B     		cmp	r3, #0
ARM GAS  C:\Users\ikomb\AppData\Local\Temp\cctq3ka9.s 			page 140


 3585 0086 14D0     		beq	.L242
1101:Generated_Source\PSoC6\pdl\drivers\peripheral\scb/cy_scb_uart.c ****         {
1102:Generated_Source\PSoC6\pdl\drivers\peripheral\scb/cy_scb_uart.c ****             if (context->rxBufSize > 0UL)
 3586              		.loc 3 1102 0
 3587 0088 3B68     		ldr	r3, [r7]
 3588 008a DB69     		ldr	r3, [r3, #28]
 3589 008c 002B     		cmp	r3, #0
 3590 008e 04D0     		beq	.L245
1103:Generated_Source\PSoC6\pdl\drivers\peripheral\scb/cy_scb_uart.c ****             {
1104:Generated_Source\PSoC6\pdl\drivers\peripheral\scb/cy_scb_uart.c ****                 HandleDataReceive(base, context);
 3591              		.loc 3 1104 0
 3592 0090 3968     		ldr	r1, [r7]
 3593 0092 7868     		ldr	r0, [r7, #4]
 3594 0094 FFF7FEFF 		bl	HandleDataReceive
 3595 0098 07E0     		b	.L246
 3596              	.L245:
1105:Generated_Source\PSoC6\pdl\drivers\peripheral\scb/cy_scb_uart.c ****             }
1106:Generated_Source\PSoC6\pdl\drivers\peripheral\scb/cy_scb_uart.c ****             else
1107:Generated_Source\PSoC6\pdl\drivers\peripheral\scb/cy_scb_uart.c ****             {
1108:Generated_Source\PSoC6\pdl\drivers\peripheral\scb/cy_scb_uart.c ****                 if (NULL != context->rxRingBuf)
 3597              		.loc 3 1108 0
 3598 009a 3B68     		ldr	r3, [r7]
 3599 009c 9B68     		ldr	r3, [r3, #8]
 3600 009e 002B     		cmp	r3, #0
 3601 00a0 03D0     		beq	.L246
1109:Generated_Source\PSoC6\pdl\drivers\peripheral\scb/cy_scb_uart.c ****                 {
1110:Generated_Source\PSoC6\pdl\drivers\peripheral\scb/cy_scb_uart.c ****                     HandleRingBuffer(base, context);
 3602              		.loc 3 1110 0
 3603 00a2 3968     		ldr	r1, [r7]
 3604 00a4 7868     		ldr	r0, [r7, #4]
 3605 00a6 FFF7FEFF 		bl	HandleRingBuffer
 3606              	.L246:
1111:Generated_Source\PSoC6\pdl\drivers\peripheral\scb/cy_scb_uart.c ****                 }
1112:Generated_Source\PSoC6\pdl\drivers\peripheral\scb/cy_scb_uart.c ****             }
1113:Generated_Source\PSoC6\pdl\drivers\peripheral\scb/cy_scb_uart.c **** 
1114:Generated_Source\PSoC6\pdl\drivers\peripheral\scb/cy_scb_uart.c ****             Cy_SCB_ClearRxInterrupt(base, CY_SCB_RX_INTR_LEVEL);
 3607              		.loc 3 1114 0
 3608 00aa 0121     		movs	r1, #1
 3609 00ac 7868     		ldr	r0, [r7, #4]
 3610 00ae FFF7FEFF 		bl	Cy_SCB_ClearRxInterrupt
 3611              	.L242:
 3612              	.LBE8:
1115:Generated_Source\PSoC6\pdl\drivers\peripheral\scb/cy_scb_uart.c ****         }
1116:Generated_Source\PSoC6\pdl\drivers\peripheral\scb/cy_scb_uart.c ****     }
1117:Generated_Source\PSoC6\pdl\drivers\peripheral\scb/cy_scb_uart.c **** 
1118:Generated_Source\PSoC6\pdl\drivers\peripheral\scb/cy_scb_uart.c ****     if (0UL != (CY_SCB_TX_INTR & Cy_SCB_GetInterruptCause(base)))
 3613              		.loc 3 1118 0
 3614 00b2 7868     		ldr	r0, [r7, #4]
 3615 00b4 FFF7FEFF 		bl	Cy_SCB_GetInterruptCause
 3616 00b8 0346     		mov	r3, r0
 3617 00ba 03F00403 		and	r3, r3, #4
 3618 00be 002B     		cmp	r3, #0
 3619 00c0 48D0     		beq	.L250
 3620              	.LBB9:
1119:Generated_Source\PSoC6\pdl\drivers\peripheral\scb/cy_scb_uart.c ****     {
1120:Generated_Source\PSoC6\pdl\drivers\peripheral\scb/cy_scb_uart.c ****         uint32_t locTxErr = (CY_SCB_UART_TRANSMIT_ERR & Cy_SCB_GetTxInterruptStatusMasked(base));
 3621              		.loc 3 1120 0
ARM GAS  C:\Users\ikomb\AppData\Local\Temp\cctq3ka9.s 			page 141


 3622 00c2 7868     		ldr	r0, [r7, #4]
 3623 00c4 FFF7FEFF 		bl	Cy_SCB_GetTxInterruptStatusMasked
 3624 00c8 0346     		mov	r3, r0
 3625 00ca 03F4A063 		and	r3, r3, #1280
 3626 00ce BB60     		str	r3, [r7, #8]
1121:Generated_Source\PSoC6\pdl\drivers\peripheral\scb/cy_scb_uart.c **** 
1122:Generated_Source\PSoC6\pdl\drivers\peripheral\scb/cy_scb_uart.c ****         /* Handle the TX error conditions */
1123:Generated_Source\PSoC6\pdl\drivers\peripheral\scb/cy_scb_uart.c ****         if (0UL != locTxErr)
 3627              		.loc 3 1123 0
 3628 00d0 BB68     		ldr	r3, [r7, #8]
 3629 00d2 002B     		cmp	r3, #0
 3630 00d4 11D0     		beq	.L248
1124:Generated_Source\PSoC6\pdl\drivers\peripheral\scb/cy_scb_uart.c ****         {
1125:Generated_Source\PSoC6\pdl\drivers\peripheral\scb/cy_scb_uart.c ****             context->txStatus |= locTxErr;
 3631              		.loc 3 1125 0
 3632 00d6 3B68     		ldr	r3, [r7]
 3633 00d8 1A68     		ldr	r2, [r3]
 3634 00da BB68     		ldr	r3, [r7, #8]
 3635 00dc 1A43     		orrs	r2, r2, r3
 3636 00de 3B68     		ldr	r3, [r7]
 3637 00e0 1A60     		str	r2, [r3]
1126:Generated_Source\PSoC6\pdl\drivers\peripheral\scb/cy_scb_uart.c ****             Cy_SCB_ClearTxInterrupt(base, locTxErr);
 3638              		.loc 3 1126 0
 3639 00e2 B968     		ldr	r1, [r7, #8]
 3640 00e4 7868     		ldr	r0, [r7, #4]
 3641 00e6 FFF7FEFF 		bl	Cy_SCB_ClearTxInterrupt
1127:Generated_Source\PSoC6\pdl\drivers\peripheral\scb/cy_scb_uart.c **** 
1128:Generated_Source\PSoC6\pdl\drivers\peripheral\scb/cy_scb_uart.c ****             if (NULL != context->cbEvents)
 3642              		.loc 3 1128 0
 3643 00ea 3B68     		ldr	r3, [r7]
 3644 00ec 1B6B     		ldr	r3, [r3, #48]
 3645 00ee 002B     		cmp	r3, #0
 3646 00f0 03D0     		beq	.L248
1129:Generated_Source\PSoC6\pdl\drivers\peripheral\scb/cy_scb_uart.c ****             {
1130:Generated_Source\PSoC6\pdl\drivers\peripheral\scb/cy_scb_uart.c ****                 context->cbEvents(CY_SCB_UART_TRANSMIT_ERR_EVENT);
 3647              		.loc 3 1130 0
 3648 00f2 3B68     		ldr	r3, [r7]
 3649 00f4 1B6B     		ldr	r3, [r3, #48]
 3650 00f6 2020     		movs	r0, #32
 3651 00f8 9847     		blx	r3
 3652              	.L248:
1131:Generated_Source\PSoC6\pdl\drivers\peripheral\scb/cy_scb_uart.c ****             }
1132:Generated_Source\PSoC6\pdl\drivers\peripheral\scb/cy_scb_uart.c ****         }
1133:Generated_Source\PSoC6\pdl\drivers\peripheral\scb/cy_scb_uart.c **** 
1134:Generated_Source\PSoC6\pdl\drivers\peripheral\scb/cy_scb_uart.c ****         /* Load data to transmit */
1135:Generated_Source\PSoC6\pdl\drivers\peripheral\scb/cy_scb_uart.c ****         if (0UL != (CY_SCB_TX_INTR_LEVEL & Cy_SCB_GetTxInterruptStatusMasked(base)))
 3653              		.loc 3 1135 0
 3654 00fa 7868     		ldr	r0, [r7, #4]
 3655 00fc FFF7FEFF 		bl	Cy_SCB_GetTxInterruptStatusMasked
 3656 0100 0346     		mov	r3, r0
 3657 0102 03F00103 		and	r3, r3, #1
 3658 0106 002B     		cmp	r3, #0
 3659 0108 07D0     		beq	.L249
1136:Generated_Source\PSoC6\pdl\drivers\peripheral\scb/cy_scb_uart.c ****         {
1137:Generated_Source\PSoC6\pdl\drivers\peripheral\scb/cy_scb_uart.c ****             HandleDataTransmit(base, context);
 3660              		.loc 3 1137 0
 3661 010a 3968     		ldr	r1, [r7]
ARM GAS  C:\Users\ikomb\AppData\Local\Temp\cctq3ka9.s 			page 142


 3662 010c 7868     		ldr	r0, [r7, #4]
 3663 010e FFF7FEFF 		bl	HandleDataTransmit
1138:Generated_Source\PSoC6\pdl\drivers\peripheral\scb/cy_scb_uart.c **** 
1139:Generated_Source\PSoC6\pdl\drivers\peripheral\scb/cy_scb_uart.c ****             Cy_SCB_ClearTxInterrupt(base, CY_SCB_TX_INTR_LEVEL);
 3664              		.loc 3 1139 0
 3665 0112 0121     		movs	r1, #1
 3666 0114 7868     		ldr	r0, [r7, #4]
 3667 0116 FFF7FEFF 		bl	Cy_SCB_ClearTxInterrupt
 3668              	.L249:
1140:Generated_Source\PSoC6\pdl\drivers\peripheral\scb/cy_scb_uart.c ****         }
1141:Generated_Source\PSoC6\pdl\drivers\peripheral\scb/cy_scb_uart.c **** 
1142:Generated_Source\PSoC6\pdl\drivers\peripheral\scb/cy_scb_uart.c ****         /* Handle the TX complete */
1143:Generated_Source\PSoC6\pdl\drivers\peripheral\scb/cy_scb_uart.c ****         if (0UL != (CY_SCB_TX_INTR_UART_DONE & Cy_SCB_GetTxInterruptStatusMasked(base)))
 3669              		.loc 3 1143 0
 3670 011a 7868     		ldr	r0, [r7, #4]
 3671 011c FFF7FEFF 		bl	Cy_SCB_GetTxInterruptStatusMasked
 3672 0120 0346     		mov	r3, r0
 3673 0122 03F40073 		and	r3, r3, #512
 3674 0126 002B     		cmp	r3, #0
 3675 0128 14D0     		beq	.L250
1144:Generated_Source\PSoC6\pdl\drivers\peripheral\scb/cy_scb_uart.c ****         {
1145:Generated_Source\PSoC6\pdl\drivers\peripheral\scb/cy_scb_uart.c ****             /* Disable all TX interrupt sources */
1146:Generated_Source\PSoC6\pdl\drivers\peripheral\scb/cy_scb_uart.c ****             Cy_SCB_SetTxInterruptMask(base, CY_SCB_CLEAR_ALL_INTR_SRC);
 3676              		.loc 3 1146 0
 3677 012a 0021     		movs	r1, #0
 3678 012c 7868     		ldr	r0, [r7, #4]
 3679 012e FFF7FEFF 		bl	Cy_SCB_SetTxInterruptMask
1147:Generated_Source\PSoC6\pdl\drivers\peripheral\scb/cy_scb_uart.c **** 
1148:Generated_Source\PSoC6\pdl\drivers\peripheral\scb/cy_scb_uart.c ****             context->txStatus &= (uint32_t) ~CY_SCB_UART_TRANSMIT_ACTIVE;
 3680              		.loc 3 1148 0
 3681 0132 3B68     		ldr	r3, [r7]
 3682 0134 1B68     		ldr	r3, [r3]
 3683 0136 23F00102 		bic	r2, r3, #1
 3684 013a 3B68     		ldr	r3, [r7]
 3685 013c 1A60     		str	r2, [r3]
1149:Generated_Source\PSoC6\pdl\drivers\peripheral\scb/cy_scb_uart.c ****             context->txLeftToTransmit = 0UL;
 3686              		.loc 3 1149 0
 3687 013e 3B68     		ldr	r3, [r7]
 3688 0140 0022     		movs	r2, #0
 3689 0142 DA62     		str	r2, [r3, #44]
1150:Generated_Source\PSoC6\pdl\drivers\peripheral\scb/cy_scb_uart.c **** 
1151:Generated_Source\PSoC6\pdl\drivers\peripheral\scb/cy_scb_uart.c ****             if (NULL != context->cbEvents)
 3690              		.loc 3 1151 0
 3691 0144 3B68     		ldr	r3, [r7]
 3692 0146 1B6B     		ldr	r3, [r3, #48]
 3693 0148 002B     		cmp	r3, #0
 3694 014a 03D0     		beq	.L250
1152:Generated_Source\PSoC6\pdl\drivers\peripheral\scb/cy_scb_uart.c ****             {
1153:Generated_Source\PSoC6\pdl\drivers\peripheral\scb/cy_scb_uart.c ****                 context->cbEvents(CY_SCB_UART_TRANSMIT_DONE_EVENT);
 3695              		.loc 3 1153 0
 3696 014c 3B68     		ldr	r3, [r7]
 3697 014e 1B6B     		ldr	r3, [r3, #48]
 3698 0150 0220     		movs	r0, #2
 3699 0152 9847     		blx	r3
 3700              	.L250:
 3701              	.LBE9:
1154:Generated_Source\PSoC6\pdl\drivers\peripheral\scb/cy_scb_uart.c ****             }
ARM GAS  C:\Users\ikomb\AppData\Local\Temp\cctq3ka9.s 			page 143


1155:Generated_Source\PSoC6\pdl\drivers\peripheral\scb/cy_scb_uart.c ****         }
1156:Generated_Source\PSoC6\pdl\drivers\peripheral\scb/cy_scb_uart.c ****     }
1157:Generated_Source\PSoC6\pdl\drivers\peripheral\scb/cy_scb_uart.c **** }
 3702              		.loc 3 1157 0
 3703 0154 00BF     		nop
 3704 0156 1037     		adds	r7, r7, #16
 3705              		.cfi_def_cfa_offset 8
 3706 0158 BD46     		mov	sp, r7
 3707              		.cfi_def_cfa_register 13
 3708              		@ sp needed
 3709 015a 80BD     		pop	{r7, pc}
 3710              		.cfi_endproc
 3711              	.LFE252:
 3712              		.size	Cy_SCB_UART_Interrupt, .-Cy_SCB_UART_Interrupt
 3713              		.section	.text.HandleDataReceive,"ax",%progbits
 3714              		.align	2
 3715              		.thumb
 3716              		.thumb_func
 3717              		.type	HandleDataReceive, %function
 3718              	HandleDataReceive:
 3719              	.LFB253:
1158:Generated_Source\PSoC6\pdl\drivers\peripheral\scb/cy_scb_uart.c **** 
1159:Generated_Source\PSoC6\pdl\drivers\peripheral\scb/cy_scb_uart.c **** 
1160:Generated_Source\PSoC6\pdl\drivers\peripheral\scb/cy_scb_uart.c **** 
1161:Generated_Source\PSoC6\pdl\drivers\peripheral\scb/cy_scb_uart.c **** /*******************************************************************************
1162:Generated_Source\PSoC6\pdl\drivers\peripheral\scb/cy_scb_uart.c **** * Function Name: HandleDataReceive
1163:Generated_Source\PSoC6\pdl\drivers\peripheral\scb/cy_scb_uart.c **** ****************************************************************************//**
1164:Generated_Source\PSoC6\pdl\drivers\peripheral\scb/cy_scb_uart.c **** *
1165:Generated_Source\PSoC6\pdl\drivers\peripheral\scb/cy_scb_uart.c **** * Reads data from the receive FIFO into the buffer provided by
1166:Generated_Source\PSoC6\pdl\drivers\peripheral\scb/cy_scb_uart.c **** * \ref Cy_SCB_UART_Receive.
1167:Generated_Source\PSoC6\pdl\drivers\peripheral\scb/cy_scb_uart.c **** *
1168:Generated_Source\PSoC6\pdl\drivers\peripheral\scb/cy_scb_uart.c **** * \param base
1169:Generated_Source\PSoC6\pdl\drivers\peripheral\scb/cy_scb_uart.c **** * The pointer to the UART SCB instance.
1170:Generated_Source\PSoC6\pdl\drivers\peripheral\scb/cy_scb_uart.c **** *
1171:Generated_Source\PSoC6\pdl\drivers\peripheral\scb/cy_scb_uart.c **** * \param context
1172:Generated_Source\PSoC6\pdl\drivers\peripheral\scb/cy_scb_uart.c **** * The pointer to the context structure \ref cy_stc_scb_uart_context_t allocated
1173:Generated_Source\PSoC6\pdl\drivers\peripheral\scb/cy_scb_uart.c **** * by the user. The structure is used during the UART operation for internal
1174:Generated_Source\PSoC6\pdl\drivers\peripheral\scb/cy_scb_uart.c **** * configuration and data retention. The user must not modify anything
1175:Generated_Source\PSoC6\pdl\drivers\peripheral\scb/cy_scb_uart.c **** * in this structure.
1176:Generated_Source\PSoC6\pdl\drivers\peripheral\scb/cy_scb_uart.c **** *
1177:Generated_Source\PSoC6\pdl\drivers\peripheral\scb/cy_scb_uart.c **** *******************************************************************************/
1178:Generated_Source\PSoC6\pdl\drivers\peripheral\scb/cy_scb_uart.c **** static void HandleDataReceive(CySCB_Type *base, cy_stc_scb_uart_context_t *context)
1179:Generated_Source\PSoC6\pdl\drivers\peripheral\scb/cy_scb_uart.c **** {
 3720              		.loc 3 1179 0
 3721              		.cfi_startproc
 3722              		@ args = 0, pretend = 0, frame = 24
 3723              		@ frame_needed = 1, uses_anonymous_args = 0
 3724 0000 80B5     		push	{r7, lr}
 3725              		.cfi_def_cfa_offset 8
 3726              		.cfi_offset 7, -8
 3727              		.cfi_offset 14, -4
 3728 0002 86B0     		sub	sp, sp, #24
 3729              		.cfi_def_cfa_offset 32
 3730 0004 00AF     		add	r7, sp, #0
 3731              		.cfi_def_cfa_register 7
 3732 0006 7860     		str	r0, [r7, #4]
 3733 0008 3960     		str	r1, [r7]
ARM GAS  C:\Users\ikomb\AppData\Local\Temp\cctq3ka9.s 			page 144


1180:Generated_Source\PSoC6\pdl\drivers\peripheral\scb/cy_scb_uart.c ****     uint32_t numCopied;
1181:Generated_Source\PSoC6\pdl\drivers\peripheral\scb/cy_scb_uart.c ****     uint32_t halfFifoSize = Cy_SCB_GetFifoSize(base) / 2UL;
 3734              		.loc 3 1181 0
 3735 000a 7868     		ldr	r0, [r7, #4]
 3736 000c FFF7FEFF 		bl	Cy_SCB_GetFifoSize
 3737 0010 0346     		mov	r3, r0
 3738 0012 5B08     		lsrs	r3, r3, #1
 3739 0014 7B61     		str	r3, [r7, #20]
1182:Generated_Source\PSoC6\pdl\drivers\peripheral\scb/cy_scb_uart.c **** 
1183:Generated_Source\PSoC6\pdl\drivers\peripheral\scb/cy_scb_uart.c ****     /* Get data from RX FIFO */
1184:Generated_Source\PSoC6\pdl\drivers\peripheral\scb/cy_scb_uart.c ****     numCopied = Cy_SCB_UART_GetArray(base, context->rxBuf, context->rxBufSize);
 3740              		.loc 3 1184 0
 3741 0016 3B68     		ldr	r3, [r7]
 3742 0018 9969     		ldr	r1, [r3, #24]
 3743 001a 3B68     		ldr	r3, [r7]
 3744 001c DB69     		ldr	r3, [r3, #28]
 3745 001e 1A46     		mov	r2, r3
 3746 0020 7868     		ldr	r0, [r7, #4]
 3747 0022 FFF7FEFF 		bl	Cy_SCB_UART_GetArray
 3748 0026 3861     		str	r0, [r7, #16]
1185:Generated_Source\PSoC6\pdl\drivers\peripheral\scb/cy_scb_uart.c **** 
1186:Generated_Source\PSoC6\pdl\drivers\peripheral\scb/cy_scb_uart.c ****     /* Move the buffer */
1187:Generated_Source\PSoC6\pdl\drivers\peripheral\scb/cy_scb_uart.c ****     context->rxBufIdx  += numCopied;
 3749              		.loc 3 1187 0
 3750 0028 3B68     		ldr	r3, [r7]
 3751 002a 1A6A     		ldr	r2, [r3, #32]
 3752 002c 3B69     		ldr	r3, [r7, #16]
 3753 002e 1A44     		add	r2, r2, r3
 3754 0030 3B68     		ldr	r3, [r7]
 3755 0032 1A62     		str	r2, [r3, #32]
1188:Generated_Source\PSoC6\pdl\drivers\peripheral\scb/cy_scb_uart.c ****     context->rxBufSize -= numCopied;
 3756              		.loc 3 1188 0
 3757 0034 3B68     		ldr	r3, [r7]
 3758 0036 DA69     		ldr	r2, [r3, #28]
 3759 0038 3B69     		ldr	r3, [r7, #16]
 3760 003a D21A     		subs	r2, r2, r3
 3761 003c 3B68     		ldr	r3, [r7]
 3762 003e DA61     		str	r2, [r3, #28]
1189:Generated_Source\PSoC6\pdl\drivers\peripheral\scb/cy_scb_uart.c **** 
1190:Generated_Source\PSoC6\pdl\drivers\peripheral\scb/cy_scb_uart.c ****     if (0UL == context->rxBufSize)
 3763              		.loc 3 1190 0
 3764 0040 3B68     		ldr	r3, [r7]
 3765 0042 DB69     		ldr	r3, [r3, #28]
 3766 0044 002B     		cmp	r3, #0
 3767 0046 2AD1     		bne	.L252
1191:Generated_Source\PSoC6\pdl\drivers\peripheral\scb/cy_scb_uart.c ****     {
1192:Generated_Source\PSoC6\pdl\drivers\peripheral\scb/cy_scb_uart.c ****         if (NULL != context->rxRingBuf)
 3768              		.loc 3 1192 0
 3769 0048 3B68     		ldr	r3, [r7]
 3770 004a 9B68     		ldr	r3, [r3, #8]
 3771 004c 002B     		cmp	r3, #0
 3772 004e 13D0     		beq	.L253
1193:Generated_Source\PSoC6\pdl\drivers\peripheral\scb/cy_scb_uart.c ****         {
1194:Generated_Source\PSoC6\pdl\drivers\peripheral\scb/cy_scb_uart.c ****             /* Adjust the level to proceed with the ring buffer */
1195:Generated_Source\PSoC6\pdl\drivers\peripheral\scb/cy_scb_uart.c ****             Cy_SCB_SetRxFifoLevel(base, (context->rxRingBufSize >= halfFifoSize) ?
 3773              		.loc 3 1195 0
 3774 0050 3B68     		ldr	r3, [r7]
ARM GAS  C:\Users\ikomb\AppData\Local\Temp\cctq3ka9.s 			page 145


 3775 0052 DA68     		ldr	r2, [r3, #12]
 3776 0054 7B69     		ldr	r3, [r7, #20]
 3777 0056 9A42     		cmp	r2, r3
 3778 0058 02D3     		bcc	.L254
 3779              		.loc 3 1195 0 is_stmt 0 discriminator 1
 3780 005a 7B69     		ldr	r3, [r7, #20]
 3781 005c 013B     		subs	r3, r3, #1
 3782 005e 02E0     		b	.L255
 3783              	.L254:
1196:Generated_Source\PSoC6\pdl\drivers\peripheral\scb/cy_scb_uart.c ****                                             (halfFifoSize - 1UL) : (context->rxRingBufSize - 1UL));
 3784              		.loc 3 1196 0 is_stmt 1 discriminator 2
 3785 0060 3B68     		ldr	r3, [r7]
 3786 0062 DB68     		ldr	r3, [r3, #12]
1195:Generated_Source\PSoC6\pdl\drivers\peripheral\scb/cy_scb_uart.c ****                                             (halfFifoSize - 1UL) : (context->rxRingBufSize - 1UL));
 3787              		.loc 3 1195 0 discriminator 2
 3788 0064 013B     		subs	r3, r3, #1
 3789              	.L255:
1195:Generated_Source\PSoC6\pdl\drivers\peripheral\scb/cy_scb_uart.c ****                                             (halfFifoSize - 1UL) : (context->rxRingBufSize - 1UL));
 3790              		.loc 3 1195 0 is_stmt 0 discriminator 4
 3791 0066 1946     		mov	r1, r3
 3792 0068 7868     		ldr	r0, [r7, #4]
 3793 006a FFF7FEFF 		bl	Cy_SCB_SetRxFifoLevel
1197:Generated_Source\PSoC6\pdl\drivers\peripheral\scb/cy_scb_uart.c **** 
1198:Generated_Source\PSoC6\pdl\drivers\peripheral\scb/cy_scb_uart.c ****             Cy_SCB_SetRxInterruptMask(base, CY_SCB_RX_INTR_LEVEL);
 3794              		.loc 3 1198 0 is_stmt 1 discriminator 4
 3795 006e 0121     		movs	r1, #1
 3796 0070 7868     		ldr	r0, [r7, #4]
 3797 0072 FFF7FEFF 		bl	Cy_SCB_SetRxInterruptMask
 3798 0076 03E0     		b	.L256
 3799              	.L253:
1199:Generated_Source\PSoC6\pdl\drivers\peripheral\scb/cy_scb_uart.c ****         }
1200:Generated_Source\PSoC6\pdl\drivers\peripheral\scb/cy_scb_uart.c ****         else
1201:Generated_Source\PSoC6\pdl\drivers\peripheral\scb/cy_scb_uart.c ****         {
1202:Generated_Source\PSoC6\pdl\drivers\peripheral\scb/cy_scb_uart.c ****             Cy_SCB_SetRxInterruptMask(base, CY_SCB_CLEAR_ALL_INTR_SRC);
 3800              		.loc 3 1202 0
 3801 0078 0021     		movs	r1, #0
 3802 007a 7868     		ldr	r0, [r7, #4]
 3803 007c FFF7FEFF 		bl	Cy_SCB_SetRxInterruptMask
 3804              	.L256:
1203:Generated_Source\PSoC6\pdl\drivers\peripheral\scb/cy_scb_uart.c ****         }
1204:Generated_Source\PSoC6\pdl\drivers\peripheral\scb/cy_scb_uart.c **** 
1205:Generated_Source\PSoC6\pdl\drivers\peripheral\scb/cy_scb_uart.c ****         /* Update the status */
1206:Generated_Source\PSoC6\pdl\drivers\peripheral\scb/cy_scb_uart.c ****         context->rxStatus &= (uint32_t) ~CY_SCB_UART_RECEIVE_ACTIVE;
 3805              		.loc 3 1206 0
 3806 0080 3B68     		ldr	r3, [r7]
 3807 0082 5B68     		ldr	r3, [r3, #4]
 3808 0084 23F00102 		bic	r2, r3, #1
 3809 0088 3B68     		ldr	r3, [r7]
 3810 008a 5A60     		str	r2, [r3, #4]
1207:Generated_Source\PSoC6\pdl\drivers\peripheral\scb/cy_scb_uart.c **** 
1208:Generated_Source\PSoC6\pdl\drivers\peripheral\scb/cy_scb_uart.c ****         /* Notify that receive is done in a callback */
1209:Generated_Source\PSoC6\pdl\drivers\peripheral\scb/cy_scb_uart.c ****         if (NULL != context->cbEvents)
 3811              		.loc 3 1209 0
 3812 008c 3B68     		ldr	r3, [r7]
 3813 008e 1B6B     		ldr	r3, [r3, #48]
 3814 0090 002B     		cmp	r3, #0
 3815 0092 23D0     		beq	.L261
ARM GAS  C:\Users\ikomb\AppData\Local\Temp\cctq3ka9.s 			page 146


1210:Generated_Source\PSoC6\pdl\drivers\peripheral\scb/cy_scb_uart.c ****         {
1211:Generated_Source\PSoC6\pdl\drivers\peripheral\scb/cy_scb_uart.c ****             context->cbEvents(CY_SCB_UART_RECEIVE_DONE_EVENT);
 3816              		.loc 3 1211 0
 3817 0094 3B68     		ldr	r3, [r7]
 3818 0096 1B6B     		ldr	r3, [r3, #48]
 3819 0098 0420     		movs	r0, #4
 3820 009a 9847     		blx	r3
1212:Generated_Source\PSoC6\pdl\drivers\peripheral\scb/cy_scb_uart.c ****         }
1213:Generated_Source\PSoC6\pdl\drivers\peripheral\scb/cy_scb_uart.c ****     }
1214:Generated_Source\PSoC6\pdl\drivers\peripheral\scb/cy_scb_uart.c ****     else
1215:Generated_Source\PSoC6\pdl\drivers\peripheral\scb/cy_scb_uart.c ****     {
1216:Generated_Source\PSoC6\pdl\drivers\peripheral\scb/cy_scb_uart.c ****         uint8_t *buf = (uint8_t *) context->rxBuf;
1217:Generated_Source\PSoC6\pdl\drivers\peripheral\scb/cy_scb_uart.c **** 
1218:Generated_Source\PSoC6\pdl\drivers\peripheral\scb/cy_scb_uart.c ****         buf = &buf[(Cy_SCB_IsRxDataWidthByte(base) ? (numCopied) : (2UL * numCopied))];
1219:Generated_Source\PSoC6\pdl\drivers\peripheral\scb/cy_scb_uart.c ****         context->rxBuf = (void *) buf;
1220:Generated_Source\PSoC6\pdl\drivers\peripheral\scb/cy_scb_uart.c **** 
1221:Generated_Source\PSoC6\pdl\drivers\peripheral\scb/cy_scb_uart.c ****         if (context->rxBufSize < halfFifoSize)
1222:Generated_Source\PSoC6\pdl\drivers\peripheral\scb/cy_scb_uart.c ****         {
1223:Generated_Source\PSoC6\pdl\drivers\peripheral\scb/cy_scb_uart.c ****             /* Set the RX FIFO level to trigger an interrupt */
1224:Generated_Source\PSoC6\pdl\drivers\peripheral\scb/cy_scb_uart.c ****             Cy_SCB_SetRxFifoLevel(base, (context->rxBufSize - 1UL));
1225:Generated_Source\PSoC6\pdl\drivers\peripheral\scb/cy_scb_uart.c ****         }
1226:Generated_Source\PSoC6\pdl\drivers\peripheral\scb/cy_scb_uart.c ****     }
1227:Generated_Source\PSoC6\pdl\drivers\peripheral\scb/cy_scb_uart.c **** }
 3821              		.loc 3 1227 0
 3822 009c 1EE0     		b	.L261
 3823              	.L252:
 3824              	.LBB10:
1216:Generated_Source\PSoC6\pdl\drivers\peripheral\scb/cy_scb_uart.c **** 
 3825              		.loc 3 1216 0
 3826 009e 3B68     		ldr	r3, [r7]
 3827 00a0 9B69     		ldr	r3, [r3, #24]
 3828 00a2 FB60     		str	r3, [r7, #12]
1218:Generated_Source\PSoC6\pdl\drivers\peripheral\scb/cy_scb_uart.c ****         context->rxBuf = (void *) buf;
 3829              		.loc 3 1218 0
 3830 00a4 7868     		ldr	r0, [r7, #4]
 3831 00a6 FFF7FEFF 		bl	Cy_SCB_IsRxDataWidthByte
 3832 00aa 0346     		mov	r3, r0
 3833 00ac 002B     		cmp	r3, #0
 3834 00ae 01D0     		beq	.L259
1218:Generated_Source\PSoC6\pdl\drivers\peripheral\scb/cy_scb_uart.c ****         context->rxBuf = (void *) buf;
 3835              		.loc 3 1218 0 is_stmt 0 discriminator 1
 3836 00b0 3B69     		ldr	r3, [r7, #16]
 3837 00b2 01E0     		b	.L260
 3838              	.L259:
1218:Generated_Source\PSoC6\pdl\drivers\peripheral\scb/cy_scb_uart.c ****         context->rxBuf = (void *) buf;
 3839              		.loc 3 1218 0 discriminator 2
 3840 00b4 3B69     		ldr	r3, [r7, #16]
 3841 00b6 5B00     		lsls	r3, r3, #1
 3842              	.L260:
1218:Generated_Source\PSoC6\pdl\drivers\peripheral\scb/cy_scb_uart.c ****         context->rxBuf = (void *) buf;
 3843              		.loc 3 1218 0 discriminator 4
 3844 00b8 FA68     		ldr	r2, [r7, #12]
 3845 00ba 1344     		add	r3, r3, r2
 3846 00bc FB60     		str	r3, [r7, #12]
1219:Generated_Source\PSoC6\pdl\drivers\peripheral\scb/cy_scb_uart.c **** 
 3847              		.loc 3 1219 0 is_stmt 1 discriminator 4
 3848 00be 3B68     		ldr	r3, [r7]
ARM GAS  C:\Users\ikomb\AppData\Local\Temp\cctq3ka9.s 			page 147


 3849 00c0 FA68     		ldr	r2, [r7, #12]
 3850 00c2 9A61     		str	r2, [r3, #24]
1221:Generated_Source\PSoC6\pdl\drivers\peripheral\scb/cy_scb_uart.c ****         {
 3851              		.loc 3 1221 0 discriminator 4
 3852 00c4 3B68     		ldr	r3, [r7]
 3853 00c6 DA69     		ldr	r2, [r3, #28]
 3854 00c8 7B69     		ldr	r3, [r7, #20]
 3855 00ca 9A42     		cmp	r2, r3
 3856 00cc 06D2     		bcs	.L261
1224:Generated_Source\PSoC6\pdl\drivers\peripheral\scb/cy_scb_uart.c ****         }
 3857              		.loc 3 1224 0
 3858 00ce 3B68     		ldr	r3, [r7]
 3859 00d0 DB69     		ldr	r3, [r3, #28]
 3860 00d2 013B     		subs	r3, r3, #1
 3861 00d4 1946     		mov	r1, r3
 3862 00d6 7868     		ldr	r0, [r7, #4]
 3863 00d8 FFF7FEFF 		bl	Cy_SCB_SetRxFifoLevel
 3864              	.L261:
 3865              	.LBE10:
 3866              		.loc 3 1227 0
 3867 00dc 00BF     		nop
 3868 00de 1837     		adds	r7, r7, #24
 3869              		.cfi_def_cfa_offset 8
 3870 00e0 BD46     		mov	sp, r7
 3871              		.cfi_def_cfa_register 13
 3872              		@ sp needed
 3873 00e2 80BD     		pop	{r7, pc}
 3874              		.cfi_endproc
 3875              	.LFE253:
 3876              		.size	HandleDataReceive, .-HandleDataReceive
 3877              		.section	.text.HandleRingBuffer,"ax",%progbits
 3878              		.align	2
 3879              		.thumb
 3880              		.thumb_func
 3881              		.type	HandleRingBuffer, %function
 3882              	HandleRingBuffer:
 3883              	.LFB254:
1228:Generated_Source\PSoC6\pdl\drivers\peripheral\scb/cy_scb_uart.c **** 
1229:Generated_Source\PSoC6\pdl\drivers\peripheral\scb/cy_scb_uart.c **** 
1230:Generated_Source\PSoC6\pdl\drivers\peripheral\scb/cy_scb_uart.c **** /*******************************************************************************
1231:Generated_Source\PSoC6\pdl\drivers\peripheral\scb/cy_scb_uart.c **** * Function Name: HandleRingBuffer
1232:Generated_Source\PSoC6\pdl\drivers\peripheral\scb/cy_scb_uart.c **** ****************************************************************************//**
1233:Generated_Source\PSoC6\pdl\drivers\peripheral\scb/cy_scb_uart.c **** *
1234:Generated_Source\PSoC6\pdl\drivers\peripheral\scb/cy_scb_uart.c **** * Reads data from the receive FIFO into the receive ring buffer.
1235:Generated_Source\PSoC6\pdl\drivers\peripheral\scb/cy_scb_uart.c **** *
1236:Generated_Source\PSoC6\pdl\drivers\peripheral\scb/cy_scb_uart.c **** * \param base
1237:Generated_Source\PSoC6\pdl\drivers\peripheral\scb/cy_scb_uart.c **** * The pointer to the UART SCB instance.
1238:Generated_Source\PSoC6\pdl\drivers\peripheral\scb/cy_scb_uart.c **** *
1239:Generated_Source\PSoC6\pdl\drivers\peripheral\scb/cy_scb_uart.c **** * \param context
1240:Generated_Source\PSoC6\pdl\drivers\peripheral\scb/cy_scb_uart.c **** * The pointer to the context structure \ref cy_stc_scb_uart_context_t allocated
1241:Generated_Source\PSoC6\pdl\drivers\peripheral\scb/cy_scb_uart.c **** * by the user. The structure is used during the UART operation for internal
1242:Generated_Source\PSoC6\pdl\drivers\peripheral\scb/cy_scb_uart.c **** * configuration and data retention. The user must not modify anything
1243:Generated_Source\PSoC6\pdl\drivers\peripheral\scb/cy_scb_uart.c **** * in this structure.
1244:Generated_Source\PSoC6\pdl\drivers\peripheral\scb/cy_scb_uart.c **** *
1245:Generated_Source\PSoC6\pdl\drivers\peripheral\scb/cy_scb_uart.c **** *******************************************************************************/
1246:Generated_Source\PSoC6\pdl\drivers\peripheral\scb/cy_scb_uart.c **** static void HandleRingBuffer(CySCB_Type *base, cy_stc_scb_uart_context_t *context)
1247:Generated_Source\PSoC6\pdl\drivers\peripheral\scb/cy_scb_uart.c **** {
ARM GAS  C:\Users\ikomb\AppData\Local\Temp\cctq3ka9.s 			page 148


 3884              		.loc 3 1247 0
 3885              		.cfi_startproc
 3886              		@ args = 0, pretend = 0, frame = 32
 3887              		@ frame_needed = 1, uses_anonymous_args = 0
 3888 0000 90B5     		push	{r4, r7, lr}
 3889              		.cfi_def_cfa_offset 12
 3890              		.cfi_offset 4, -12
 3891              		.cfi_offset 7, -8
 3892              		.cfi_offset 14, -4
 3893 0002 89B0     		sub	sp, sp, #36
 3894              		.cfi_def_cfa_offset 48
 3895 0004 00AF     		add	r7, sp, #0
 3896              		.cfi_def_cfa_register 7
 3897 0006 7860     		str	r0, [r7, #4]
 3898 0008 3960     		str	r1, [r7]
1248:Generated_Source\PSoC6\pdl\drivers\peripheral\scb/cy_scb_uart.c ****     uint32_t halfFifoSize = Cy_SCB_GetFifoSize(base) / 2UL;
 3899              		.loc 3 1248 0
 3900 000a 7868     		ldr	r0, [r7, #4]
 3901 000c FFF7FEFF 		bl	Cy_SCB_GetFifoSize
 3902 0010 0346     		mov	r3, r0
 3903 0012 5B08     		lsrs	r3, r3, #1
 3904 0014 7B61     		str	r3, [r7, #20]
1249:Generated_Source\PSoC6\pdl\drivers\peripheral\scb/cy_scb_uart.c ****     uint32_t numToCopy = Cy_SCB_GetNumInRxFifo(base);
 3905              		.loc 3 1249 0
 3906 0016 7868     		ldr	r0, [r7, #4]
 3907 0018 FFF7FEFF 		bl	Cy_SCB_GetNumInRxFifo
 3908 001c F861     		str	r0, [r7, #28]
1250:Generated_Source\PSoC6\pdl\drivers\peripheral\scb/cy_scb_uart.c ****     uint32_t locHead = context->rxRingBufHead;
 3909              		.loc 3 1250 0
 3910 001e 3B68     		ldr	r3, [r7]
 3911 0020 1B69     		ldr	r3, [r3, #16]
 3912 0022 BB61     		str	r3, [r7, #24]
1251:Generated_Source\PSoC6\pdl\drivers\peripheral\scb/cy_scb_uart.c ****     uint32_t rxData;
1252:Generated_Source\PSoC6\pdl\drivers\peripheral\scb/cy_scb_uart.c **** 
1253:Generated_Source\PSoC6\pdl\drivers\peripheral\scb/cy_scb_uart.c ****     /* Get data into the ring buffer */
1254:Generated_Source\PSoC6\pdl\drivers\peripheral\scb/cy_scb_uart.c ****     while (numToCopy > 0UL)
 3913              		.loc 3 1254 0
 3914 0024 47E0     		b	.L263
 3915              	.L272:
1255:Generated_Source\PSoC6\pdl\drivers\peripheral\scb/cy_scb_uart.c ****     {
1256:Generated_Source\PSoC6\pdl\drivers\peripheral\scb/cy_scb_uart.c ****         ++locHead;
 3916              		.loc 3 1256 0
 3917 0026 BB69     		ldr	r3, [r7, #24]
 3918 0028 0133     		adds	r3, r3, #1
 3919 002a BB61     		str	r3, [r7, #24]
1257:Generated_Source\PSoC6\pdl\drivers\peripheral\scb/cy_scb_uart.c **** 
1258:Generated_Source\PSoC6\pdl\drivers\peripheral\scb/cy_scb_uart.c ****         if (locHead == context->rxRingBufSize)
 3920              		.loc 3 1258 0
 3921 002c 3B68     		ldr	r3, [r7]
 3922 002e DA68     		ldr	r2, [r3, #12]
 3923 0030 BB69     		ldr	r3, [r7, #24]
 3924 0032 9A42     		cmp	r2, r3
 3925 0034 01D1     		bne	.L264
1259:Generated_Source\PSoC6\pdl\drivers\peripheral\scb/cy_scb_uart.c ****         {
1260:Generated_Source\PSoC6\pdl\drivers\peripheral\scb/cy_scb_uart.c ****             locHead = 0UL;
 3926              		.loc 3 1260 0
 3927 0036 0023     		movs	r3, #0
ARM GAS  C:\Users\ikomb\AppData\Local\Temp\cctq3ka9.s 			page 149


 3928 0038 BB61     		str	r3, [r7, #24]
 3929              	.L264:
1261:Generated_Source\PSoC6\pdl\drivers\peripheral\scb/cy_scb_uart.c ****         }
1262:Generated_Source\PSoC6\pdl\drivers\peripheral\scb/cy_scb_uart.c **** 
1263:Generated_Source\PSoC6\pdl\drivers\peripheral\scb/cy_scb_uart.c ****         if (locHead == context->rxRingBufTail)
 3930              		.loc 3 1263 0
 3931 003a 3B68     		ldr	r3, [r7]
 3932 003c 5A69     		ldr	r2, [r3, #20]
 3933 003e BB69     		ldr	r3, [r7, #24]
 3934 0040 9A42     		cmp	r2, r3
 3935 0042 1BD1     		bne	.L265
1264:Generated_Source\PSoC6\pdl\drivers\peripheral\scb/cy_scb_uart.c ****         {
1265:Generated_Source\PSoC6\pdl\drivers\peripheral\scb/cy_scb_uart.c ****             /* The ring buffer is full, trigger a callback */
1266:Generated_Source\PSoC6\pdl\drivers\peripheral\scb/cy_scb_uart.c ****             if (NULL != context->cbEvents)
 3936              		.loc 3 1266 0
 3937 0044 3B68     		ldr	r3, [r7]
 3938 0046 1B6B     		ldr	r3, [r3, #48]
 3939 0048 002B     		cmp	r3, #0
 3940 004a 03D0     		beq	.L266
1267:Generated_Source\PSoC6\pdl\drivers\peripheral\scb/cy_scb_uart.c ****             {
1268:Generated_Source\PSoC6\pdl\drivers\peripheral\scb/cy_scb_uart.c ****                 context->cbEvents(CY_SCB_UART_RB_FULL_EVENT);
 3941              		.loc 3 1268 0
 3942 004c 3B68     		ldr	r3, [r7]
 3943 004e 1B6B     		ldr	r3, [r3, #48]
 3944 0050 0820     		movs	r0, #8
 3945 0052 9847     		blx	r3
 3946              	.L266:
1269:Generated_Source\PSoC6\pdl\drivers\peripheral\scb/cy_scb_uart.c ****             }
1270:Generated_Source\PSoC6\pdl\drivers\peripheral\scb/cy_scb_uart.c **** 
1271:Generated_Source\PSoC6\pdl\drivers\peripheral\scb/cy_scb_uart.c ****             /* The ring buffer is still full. Disable the RX interrupt not to put data into the rin
1272:Generated_Source\PSoC6\pdl\drivers\peripheral\scb/cy_scb_uart.c ****             * The data is stored in the RX FIFO until it overflows. Revert the head index.
1273:Generated_Source\PSoC6\pdl\drivers\peripheral\scb/cy_scb_uart.c ****             */
1274:Generated_Source\PSoC6\pdl\drivers\peripheral\scb/cy_scb_uart.c ****             if (locHead == context->rxRingBufTail)
 3947              		.loc 3 1274 0
 3948 0054 3B68     		ldr	r3, [r7]
 3949 0056 5A69     		ldr	r2, [r3, #20]
 3950 0058 BB69     		ldr	r3, [r7, #24]
 3951 005a 9A42     		cmp	r2, r3
 3952 005c 0ED1     		bne	.L265
1275:Generated_Source\PSoC6\pdl\drivers\peripheral\scb/cy_scb_uart.c ****             {
1276:Generated_Source\PSoC6\pdl\drivers\peripheral\scb/cy_scb_uart.c ****                 Cy_SCB_SetRxInterruptMask(base, CY_SCB_CLEAR_ALL_INTR_SRC);
 3953              		.loc 3 1276 0
 3954 005e 0021     		movs	r1, #0
 3955 0060 7868     		ldr	r0, [r7, #4]
 3956 0062 FFF7FEFF 		bl	Cy_SCB_SetRxInterruptMask
1277:Generated_Source\PSoC6\pdl\drivers\peripheral\scb/cy_scb_uart.c **** 
1278:Generated_Source\PSoC6\pdl\drivers\peripheral\scb/cy_scb_uart.c ****                 locHead = (locHead > 0UL) ? (locHead - 1UL) : (context->rxRingBufSize - 1UL);
 3957              		.loc 3 1278 0
 3958 0066 BB69     		ldr	r3, [r7, #24]
 3959 0068 002B     		cmp	r3, #0
 3960 006a 02D0     		beq	.L267
 3961              		.loc 3 1278 0 is_stmt 0 discriminator 1
 3962 006c BB69     		ldr	r3, [r7, #24]
 3963 006e 013B     		subs	r3, r3, #1
 3964 0070 02E0     		b	.L268
 3965              	.L267:
 3966              		.loc 3 1278 0 discriminator 2
ARM GAS  C:\Users\ikomb\AppData\Local\Temp\cctq3ka9.s 			page 150


 3967 0072 3B68     		ldr	r3, [r7]
 3968 0074 DB68     		ldr	r3, [r3, #12]
 3969 0076 013B     		subs	r3, r3, #1
 3970              	.L268:
 3971              		.loc 3 1278 0 discriminator 4
 3972 0078 BB61     		str	r3, [r7, #24]
1279:Generated_Source\PSoC6\pdl\drivers\peripheral\scb/cy_scb_uart.c ****                 break;
 3973              		.loc 3 1279 0 is_stmt 1 discriminator 4
 3974 007a 1FE0     		b	.L269
 3975              	.L265:
1280:Generated_Source\PSoC6\pdl\drivers\peripheral\scb/cy_scb_uart.c ****             }
1281:Generated_Source\PSoC6\pdl\drivers\peripheral\scb/cy_scb_uart.c ****         }
1282:Generated_Source\PSoC6\pdl\drivers\peripheral\scb/cy_scb_uart.c **** 
1283:Generated_Source\PSoC6\pdl\drivers\peripheral\scb/cy_scb_uart.c ****         /* Get data from RX FIFO. */
1284:Generated_Source\PSoC6\pdl\drivers\peripheral\scb/cy_scb_uart.c ****         rxData = Cy_SCB_ReadRxFifo(base);
 3976              		.loc 3 1284 0
 3977 007c 7868     		ldr	r0, [r7, #4]
 3978 007e FFF7FEFF 		bl	Cy_SCB_ReadRxFifo
 3979 0082 3861     		str	r0, [r7, #16]
1285:Generated_Source\PSoC6\pdl\drivers\peripheral\scb/cy_scb_uart.c **** 
1286:Generated_Source\PSoC6\pdl\drivers\peripheral\scb/cy_scb_uart.c ****         /* Put a data item in the ring buffer */
1287:Generated_Source\PSoC6\pdl\drivers\peripheral\scb/cy_scb_uart.c ****         if (Cy_SCB_IsRxDataWidthByte(base))
 3980              		.loc 3 1287 0
 3981 0084 7868     		ldr	r0, [r7, #4]
 3982 0086 FFF7FEFF 		bl	Cy_SCB_IsRxDataWidthByte
 3983 008a 0346     		mov	r3, r0
 3984 008c 002B     		cmp	r3, #0
 3985 008e 07D0     		beq	.L270
1288:Generated_Source\PSoC6\pdl\drivers\peripheral\scb/cy_scb_uart.c ****         {
1289:Generated_Source\PSoC6\pdl\drivers\peripheral\scb/cy_scb_uart.c ****             ((uint8_t *) context->rxRingBuf)[locHead] = (uint8_t) rxData;
 3986              		.loc 3 1289 0
 3987 0090 3B68     		ldr	r3, [r7]
 3988 0092 9A68     		ldr	r2, [r3, #8]
 3989 0094 BB69     		ldr	r3, [r7, #24]
 3990 0096 1344     		add	r3, r3, r2
 3991 0098 3A69     		ldr	r2, [r7, #16]
 3992 009a D2B2     		uxtb	r2, r2
 3993 009c 1A70     		strb	r2, [r3]
 3994 009e 07E0     		b	.L271
 3995              	.L270:
1290:Generated_Source\PSoC6\pdl\drivers\peripheral\scb/cy_scb_uart.c ****         }
1291:Generated_Source\PSoC6\pdl\drivers\peripheral\scb/cy_scb_uart.c ****         else
1292:Generated_Source\PSoC6\pdl\drivers\peripheral\scb/cy_scb_uart.c ****         {
1293:Generated_Source\PSoC6\pdl\drivers\peripheral\scb/cy_scb_uart.c ****             ((uint16_t *) context->rxRingBuf)[locHead] = (uint16_t) rxData;
 3996              		.loc 3 1293 0
 3997 00a0 3B68     		ldr	r3, [r7]
 3998 00a2 9A68     		ldr	r2, [r3, #8]
 3999 00a4 BB69     		ldr	r3, [r7, #24]
 4000 00a6 5B00     		lsls	r3, r3, #1
 4001 00a8 1344     		add	r3, r3, r2
 4002 00aa 3A69     		ldr	r2, [r7, #16]
 4003 00ac 92B2     		uxth	r2, r2
 4004 00ae 1A80     		strh	r2, [r3]	@ movhi
 4005              	.L271:
1294:Generated_Source\PSoC6\pdl\drivers\peripheral\scb/cy_scb_uart.c ****         }
1295:Generated_Source\PSoC6\pdl\drivers\peripheral\scb/cy_scb_uart.c **** 
1296:Generated_Source\PSoC6\pdl\drivers\peripheral\scb/cy_scb_uart.c ****         --numToCopy;
ARM GAS  C:\Users\ikomb\AppData\Local\Temp\cctq3ka9.s 			page 151


 4006              		.loc 3 1296 0
 4007 00b0 FB69     		ldr	r3, [r7, #28]
 4008 00b2 013B     		subs	r3, r3, #1
 4009 00b4 FB61     		str	r3, [r7, #28]
 4010              	.L263:
1254:Generated_Source\PSoC6\pdl\drivers\peripheral\scb/cy_scb_uart.c ****     {
 4011              		.loc 3 1254 0
 4012 00b6 FB69     		ldr	r3, [r7, #28]
 4013 00b8 002B     		cmp	r3, #0
 4014 00ba B4D1     		bne	.L272
 4015              	.L269:
1297:Generated_Source\PSoC6\pdl\drivers\peripheral\scb/cy_scb_uart.c ****     }
1298:Generated_Source\PSoC6\pdl\drivers\peripheral\scb/cy_scb_uart.c **** 
1299:Generated_Source\PSoC6\pdl\drivers\peripheral\scb/cy_scb_uart.c ****     /* Update the head index */
1300:Generated_Source\PSoC6\pdl\drivers\peripheral\scb/cy_scb_uart.c ****     context->rxRingBufHead = locHead;
 4016              		.loc 3 1300 0
 4017 00bc 3B68     		ldr	r3, [r7]
 4018 00be BA69     		ldr	r2, [r7, #24]
 4019 00c0 1A61     		str	r2, [r3, #16]
1301:Generated_Source\PSoC6\pdl\drivers\peripheral\scb/cy_scb_uart.c **** 
1302:Generated_Source\PSoC6\pdl\drivers\peripheral\scb/cy_scb_uart.c ****     /* Get free entries in the ring buffer */
1303:Generated_Source\PSoC6\pdl\drivers\peripheral\scb/cy_scb_uart.c ****     numToCopy = context->rxRingBufSize - Cy_SCB_UART_GetNumInRingBuffer(base, context);
 4020              		.loc 3 1303 0
 4021 00c2 3B68     		ldr	r3, [r7]
 4022 00c4 DC68     		ldr	r4, [r3, #12]
 4023 00c6 3968     		ldr	r1, [r7]
 4024 00c8 7868     		ldr	r0, [r7, #4]
 4025 00ca FFF7FEFF 		bl	Cy_SCB_UART_GetNumInRingBuffer
 4026 00ce 0346     		mov	r3, r0
 4027 00d0 E31A     		subs	r3, r4, r3
 4028 00d2 FB61     		str	r3, [r7, #28]
1304:Generated_Source\PSoC6\pdl\drivers\peripheral\scb/cy_scb_uart.c **** 
1305:Generated_Source\PSoC6\pdl\drivers\peripheral\scb/cy_scb_uart.c ****     if (numToCopy < halfFifoSize)
 4029              		.loc 3 1305 0
 4030 00d4 FA69     		ldr	r2, [r7, #28]
 4031 00d6 7B69     		ldr	r3, [r7, #20]
 4032 00d8 9A42     		cmp	r2, r3
 4033 00da 0BD2     		bcs	.L276
 4034              	.LBB11:
1306:Generated_Source\PSoC6\pdl\drivers\peripheral\scb/cy_scb_uart.c ****     {
1307:Generated_Source\PSoC6\pdl\drivers\peripheral\scb/cy_scb_uart.c ****         /* Adjust the level to copy to the ring buffer */
1308:Generated_Source\PSoC6\pdl\drivers\peripheral\scb/cy_scb_uart.c ****         uint32_t level = (numToCopy > 0UL) ? (numToCopy - 1UL) : 0UL;
 4035              		.loc 3 1308 0
 4036 00dc FB69     		ldr	r3, [r7, #28]
 4037 00de 002B     		cmp	r3, #0
 4038 00e0 02D0     		beq	.L274
 4039              		.loc 3 1308 0 is_stmt 0 discriminator 1
 4040 00e2 FB69     		ldr	r3, [r7, #28]
 4041 00e4 013B     		subs	r3, r3, #1
 4042 00e6 00E0     		b	.L275
 4043              	.L274:
 4044              		.loc 3 1308 0 discriminator 2
 4045 00e8 0023     		movs	r3, #0
 4046              	.L275:
 4047              		.loc 3 1308 0 discriminator 4
 4048 00ea FB60     		str	r3, [r7, #12]
1309:Generated_Source\PSoC6\pdl\drivers\peripheral\scb/cy_scb_uart.c ****         Cy_SCB_SetRxFifoLevel(base, level);
ARM GAS  C:\Users\ikomb\AppData\Local\Temp\cctq3ka9.s 			page 152


 4049              		.loc 3 1309 0 is_stmt 1 discriminator 4
 4050 00ec F968     		ldr	r1, [r7, #12]
 4051 00ee 7868     		ldr	r0, [r7, #4]
 4052 00f0 FFF7FEFF 		bl	Cy_SCB_SetRxFifoLevel
 4053              	.L276:
 4054              	.LBE11:
1310:Generated_Source\PSoC6\pdl\drivers\peripheral\scb/cy_scb_uart.c ****     }
1311:Generated_Source\PSoC6\pdl\drivers\peripheral\scb/cy_scb_uart.c **** }
 4055              		.loc 3 1311 0
 4056 00f4 00BF     		nop
 4057 00f6 2437     		adds	r7, r7, #36
 4058              		.cfi_def_cfa_offset 12
 4059 00f8 BD46     		mov	sp, r7
 4060              		.cfi_def_cfa_register 13
 4061              		@ sp needed
 4062 00fa 90BD     		pop	{r4, r7, pc}
 4063              		.cfi_endproc
 4064              	.LFE254:
 4065              		.size	HandleRingBuffer, .-HandleRingBuffer
 4066              		.section	.text.HandleDataTransmit,"ax",%progbits
 4067              		.align	2
 4068              		.thumb
 4069              		.thumb_func
 4070              		.type	HandleDataTransmit, %function
 4071              	HandleDataTransmit:
 4072              	.LFB255:
1312:Generated_Source\PSoC6\pdl\drivers\peripheral\scb/cy_scb_uart.c **** 
1313:Generated_Source\PSoC6\pdl\drivers\peripheral\scb/cy_scb_uart.c **** 
1314:Generated_Source\PSoC6\pdl\drivers\peripheral\scb/cy_scb_uart.c **** /*******************************************************************************
1315:Generated_Source\PSoC6\pdl\drivers\peripheral\scb/cy_scb_uart.c **** * Function Name: HandleDataTransmit
1316:Generated_Source\PSoC6\pdl\drivers\peripheral\scb/cy_scb_uart.c **** ****************************************************************************//**
1317:Generated_Source\PSoC6\pdl\drivers\peripheral\scb/cy_scb_uart.c **** *
1318:Generated_Source\PSoC6\pdl\drivers\peripheral\scb/cy_scb_uart.c **** * Loads the transmit FIFO with data provided by \ref Cy_SCB_UART_Transmit.
1319:Generated_Source\PSoC6\pdl\drivers\peripheral\scb/cy_scb_uart.c **** *
1320:Generated_Source\PSoC6\pdl\drivers\peripheral\scb/cy_scb_uart.c **** * \param base
1321:Generated_Source\PSoC6\pdl\drivers\peripheral\scb/cy_scb_uart.c **** * The pointer to the UART SCB instance.
1322:Generated_Source\PSoC6\pdl\drivers\peripheral\scb/cy_scb_uart.c **** *
1323:Generated_Source\PSoC6\pdl\drivers\peripheral\scb/cy_scb_uart.c **** * \param context
1324:Generated_Source\PSoC6\pdl\drivers\peripheral\scb/cy_scb_uart.c **** * The pointer to the context structure \ref cy_stc_scb_uart_context_t allocated
1325:Generated_Source\PSoC6\pdl\drivers\peripheral\scb/cy_scb_uart.c **** * by the user. The structure is used during the UART operation for internal
1326:Generated_Source\PSoC6\pdl\drivers\peripheral\scb/cy_scb_uart.c **** * configuration and data retention. The user must not modify anything
1327:Generated_Source\PSoC6\pdl\drivers\peripheral\scb/cy_scb_uart.c **** * in this structure.
1328:Generated_Source\PSoC6\pdl\drivers\peripheral\scb/cy_scb_uart.c **** *
1329:Generated_Source\PSoC6\pdl\drivers\peripheral\scb/cy_scb_uart.c **** *******************************************************************************/
1330:Generated_Source\PSoC6\pdl\drivers\peripheral\scb/cy_scb_uart.c **** static void HandleDataTransmit(CySCB_Type *base, cy_stc_scb_uart_context_t *context)
1331:Generated_Source\PSoC6\pdl\drivers\peripheral\scb/cy_scb_uart.c **** {
 4073              		.loc 3 1331 0
 4074              		.cfi_startproc
 4075              		@ args = 0, pretend = 0, frame = 32
 4076              		@ frame_needed = 1, uses_anonymous_args = 0
 4077 0000 80B5     		push	{r7, lr}
 4078              		.cfi_def_cfa_offset 8
 4079              		.cfi_offset 7, -8
 4080              		.cfi_offset 14, -4
 4081 0002 88B0     		sub	sp, sp, #32
 4082              		.cfi_def_cfa_offset 40
 4083 0004 00AF     		add	r7, sp, #0
ARM GAS  C:\Users\ikomb\AppData\Local\Temp\cctq3ka9.s 			page 153


 4084              		.cfi_def_cfa_register 7
 4085 0006 7860     		str	r0, [r7, #4]
 4086 0008 3960     		str	r1, [r7]
1332:Generated_Source\PSoC6\pdl\drivers\peripheral\scb/cy_scb_uart.c ****     uint32_t numToCopy;
1333:Generated_Source\PSoC6\pdl\drivers\peripheral\scb/cy_scb_uart.c ****     uint32_t fifoSize = Cy_SCB_GetFifoSize(base);
 4087              		.loc 3 1333 0
 4088 000a 7868     		ldr	r0, [r7, #4]
 4089 000c FFF7FEFF 		bl	Cy_SCB_GetFifoSize
 4090 0010 F861     		str	r0, [r7, #28]
1334:Generated_Source\PSoC6\pdl\drivers\peripheral\scb/cy_scb_uart.c ****     bool     byteMode = Cy_SCB_IsTxDataWidthByte(base);
 4091              		.loc 3 1334 0
 4092 0012 7868     		ldr	r0, [r7, #4]
 4093 0014 FFF7FEFF 		bl	Cy_SCB_IsTxDataWidthByte
 4094 0018 0346     		mov	r3, r0
 4095 001a FB76     		strb	r3, [r7, #27]
1335:Generated_Source\PSoC6\pdl\drivers\peripheral\scb/cy_scb_uart.c **** 
1336:Generated_Source\PSoC6\pdl\drivers\peripheral\scb/cy_scb_uart.c ****     if (context->txBufSize > 1UL)
 4096              		.loc 3 1336 0
 4097 001c 3B68     		ldr	r3, [r7]
 4098 001e 9B6A     		ldr	r3, [r3, #40]
 4099 0020 012B     		cmp	r3, #1
 4100 0022 23D9     		bls	.L278
 4101              	.LBB12:
1337:Generated_Source\PSoC6\pdl\drivers\peripheral\scb/cy_scb_uart.c ****     {
1338:Generated_Source\PSoC6\pdl\drivers\peripheral\scb/cy_scb_uart.c ****         uint8_t *buf = (uint8_t *) context->txBuf;
 4102              		.loc 3 1338 0
 4103 0024 3B68     		ldr	r3, [r7]
 4104 0026 5B6A     		ldr	r3, [r3, #36]
 4105 0028 7B61     		str	r3, [r7, #20]
1339:Generated_Source\PSoC6\pdl\drivers\peripheral\scb/cy_scb_uart.c **** 
1340:Generated_Source\PSoC6\pdl\drivers\peripheral\scb/cy_scb_uart.c ****         /* Get the number of items left for transmission */
1341:Generated_Source\PSoC6\pdl\drivers\peripheral\scb/cy_scb_uart.c ****         context->txLeftToTransmit = context->txBufSize;
 4106              		.loc 3 1341 0
 4107 002a 3B68     		ldr	r3, [r7]
 4108 002c 9A6A     		ldr	r2, [r3, #40]
 4109 002e 3B68     		ldr	r3, [r7]
 4110 0030 DA62     		str	r2, [r3, #44]
1342:Generated_Source\PSoC6\pdl\drivers\peripheral\scb/cy_scb_uart.c **** 
1343:Generated_Source\PSoC6\pdl\drivers\peripheral\scb/cy_scb_uart.c ****         /* Put data into TX FIFO */
1344:Generated_Source\PSoC6\pdl\drivers\peripheral\scb/cy_scb_uart.c ****         numToCopy = Cy_SCB_UART_PutArray(base, context->txBuf, (context->txBufSize - 1UL));
 4111              		.loc 3 1344 0
 4112 0032 3B68     		ldr	r3, [r7]
 4113 0034 596A     		ldr	r1, [r3, #36]
 4114 0036 3B68     		ldr	r3, [r7]
 4115 0038 9B6A     		ldr	r3, [r3, #40]
 4116 003a 013B     		subs	r3, r3, #1
 4117 003c 1A46     		mov	r2, r3
 4118 003e 7868     		ldr	r0, [r7, #4]
 4119 0040 FFF7FEFF 		bl	Cy_SCB_UART_PutArray
 4120 0044 3861     		str	r0, [r7, #16]
1345:Generated_Source\PSoC6\pdl\drivers\peripheral\scb/cy_scb_uart.c **** 
1346:Generated_Source\PSoC6\pdl\drivers\peripheral\scb/cy_scb_uart.c ****         /* Move the buffer */
1347:Generated_Source\PSoC6\pdl\drivers\peripheral\scb/cy_scb_uart.c ****         context->txBufSize -= numToCopy;
 4121              		.loc 3 1347 0
 4122 0046 3B68     		ldr	r3, [r7]
 4123 0048 9A6A     		ldr	r2, [r3, #40]
 4124 004a 3B69     		ldr	r3, [r7, #16]
ARM GAS  C:\Users\ikomb\AppData\Local\Temp\cctq3ka9.s 			page 154


 4125 004c D21A     		subs	r2, r2, r3
 4126 004e 3B68     		ldr	r3, [r7]
 4127 0050 9A62     		str	r2, [r3, #40]
1348:Generated_Source\PSoC6\pdl\drivers\peripheral\scb/cy_scb_uart.c **** 
1349:Generated_Source\PSoC6\pdl\drivers\peripheral\scb/cy_scb_uart.c ****         buf = &buf[(byteMode) ? (numToCopy) : (2UL * numToCopy)];
 4128              		.loc 3 1349 0
 4129 0052 FB7E     		ldrb	r3, [r7, #27]	@ zero_extendqisi2
 4130 0054 002B     		cmp	r3, #0
 4131 0056 01D0     		beq	.L279
 4132              		.loc 3 1349 0 is_stmt 0 discriminator 1
 4133 0058 3B69     		ldr	r3, [r7, #16]
 4134 005a 01E0     		b	.L280
 4135              	.L279:
 4136              		.loc 3 1349 0 discriminator 2
 4137 005c 3B69     		ldr	r3, [r7, #16]
 4138 005e 5B00     		lsls	r3, r3, #1
 4139              	.L280:
 4140              		.loc 3 1349 0 discriminator 4
 4141 0060 7A69     		ldr	r2, [r7, #20]
 4142 0062 1344     		add	r3, r3, r2
 4143 0064 7B61     		str	r3, [r7, #20]
1350:Generated_Source\PSoC6\pdl\drivers\peripheral\scb/cy_scb_uart.c ****         context->txBuf = (void *) buf;
 4144              		.loc 3 1350 0 is_stmt 1 discriminator 4
 4145 0066 3B68     		ldr	r3, [r7]
 4146 0068 7A69     		ldr	r2, [r7, #20]
 4147 006a 5A62     		str	r2, [r3, #36]
 4148              	.L278:
 4149              	.LBE12:
1351:Generated_Source\PSoC6\pdl\drivers\peripheral\scb/cy_scb_uart.c ****     }
1352:Generated_Source\PSoC6\pdl\drivers\peripheral\scb/cy_scb_uart.c **** 
1353:Generated_Source\PSoC6\pdl\drivers\peripheral\scb/cy_scb_uart.c ****     /* Put the last data item into TX FIFO */
1354:Generated_Source\PSoC6\pdl\drivers\peripheral\scb/cy_scb_uart.c ****     if ((fifoSize != Cy_SCB_GetNumInTxFifo(base)) && (1UL == context->txBufSize))
 4150              		.loc 3 1354 0
 4151 006c 7868     		ldr	r0, [r7, #4]
 4152 006e FFF7FEFF 		bl	Cy_SCB_GetNumInTxFifo
 4153 0072 0246     		mov	r2, r0
 4154 0074 FB69     		ldr	r3, [r7, #28]
 4155 0076 9A42     		cmp	r2, r3
 4156 0078 3CD0     		beq	.L284
 4157              		.loc 3 1354 0 is_stmt 0 discriminator 1
 4158 007a 3B68     		ldr	r3, [r7]
 4159 007c 9B6A     		ldr	r3, [r3, #40]
 4160 007e 012B     		cmp	r3, #1
 4161 0080 38D1     		bne	.L284
 4162              	.LBB13:
1355:Generated_Source\PSoC6\pdl\drivers\peripheral\scb/cy_scb_uart.c ****     {
1356:Generated_Source\PSoC6\pdl\drivers\peripheral\scb/cy_scb_uart.c ****         uint32_t txData;
1357:Generated_Source\PSoC6\pdl\drivers\peripheral\scb/cy_scb_uart.c ****         uint32_t intrStatus;
1358:Generated_Source\PSoC6\pdl\drivers\peripheral\scb/cy_scb_uart.c **** 
1359:Generated_Source\PSoC6\pdl\drivers\peripheral\scb/cy_scb_uart.c ****         context->txBufSize = 0UL;
 4163              		.loc 3 1359 0 is_stmt 1
 4164 0082 3B68     		ldr	r3, [r7]
 4165 0084 0022     		movs	r2, #0
 4166 0086 9A62     		str	r2, [r3, #40]
1360:Generated_Source\PSoC6\pdl\drivers\peripheral\scb/cy_scb_uart.c **** 
1361:Generated_Source\PSoC6\pdl\drivers\peripheral\scb/cy_scb_uart.c ****         /* Get the last item from the buffer */
1362:Generated_Source\PSoC6\pdl\drivers\peripheral\scb/cy_scb_uart.c ****         txData = (uint32_t) ((byteMode) ? ((uint8_t *)  context->txBuf)[0UL] :
ARM GAS  C:\Users\ikomb\AppData\Local\Temp\cctq3ka9.s 			page 155


 4167              		.loc 3 1362 0
 4168 0088 FB7E     		ldrb	r3, [r7, #27]	@ zero_extendqisi2
 4169 008a 002B     		cmp	r3, #0
 4170 008c 03D0     		beq	.L282
 4171              		.loc 3 1362 0 is_stmt 0 discriminator 1
 4172 008e 3B68     		ldr	r3, [r7]
 4173 0090 5B6A     		ldr	r3, [r3, #36]
 4174 0092 1B78     		ldrb	r3, [r3]	@ zero_extendqisi2
 4175 0094 02E0     		b	.L283
 4176              	.L282:
1363:Generated_Source\PSoC6\pdl\drivers\peripheral\scb/cy_scb_uart.c ****                                           ((uint16_t *) context->txBuf)[0UL]);
 4177              		.loc 3 1363 0 is_stmt 1 discriminator 2
 4178 0096 3B68     		ldr	r3, [r7]
 4179 0098 5B6A     		ldr	r3, [r3, #36]
 4180 009a 1B88     		ldrh	r3, [r3]
 4181              	.L283:
1362:Generated_Source\PSoC6\pdl\drivers\peripheral\scb/cy_scb_uart.c ****                                           ((uint16_t *) context->txBuf)[0UL]);
 4182              		.loc 3 1362 0 discriminator 4
 4183 009c FB60     		str	r3, [r7, #12]
1364:Generated_Source\PSoC6\pdl\drivers\peripheral\scb/cy_scb_uart.c **** 
1365:Generated_Source\PSoC6\pdl\drivers\peripheral\scb/cy_scb_uart.c ****         /* Put the last data element and make sure that "TX done" will happen for it */
1366:Generated_Source\PSoC6\pdl\drivers\peripheral\scb/cy_scb_uart.c ****         intrStatus = Cy_SysLib_EnterCriticalSection();
 4184              		.loc 3 1366 0 discriminator 4
 4185 009e FFF7FEFF 		bl	Cy_SysLib_EnterCriticalSection
 4186 00a2 B860     		str	r0, [r7, #8]
1367:Generated_Source\PSoC6\pdl\drivers\peripheral\scb/cy_scb_uart.c **** 
1368:Generated_Source\PSoC6\pdl\drivers\peripheral\scb/cy_scb_uart.c ****         Cy_SCB_WriteTxFifo(base, txData);
 4187              		.loc 3 1368 0 discriminator 4
 4188 00a4 F968     		ldr	r1, [r7, #12]
 4189 00a6 7868     		ldr	r0, [r7, #4]
 4190 00a8 FFF7FEFF 		bl	Cy_SCB_WriteTxFifo
1369:Generated_Source\PSoC6\pdl\drivers\peripheral\scb/cy_scb_uart.c ****         Cy_SCB_ClearTxInterrupt(base, CY_SCB_TX_INTR_UART_DONE);
 4191              		.loc 3 1369 0 discriminator 4
 4192 00ac 4FF40071 		mov	r1, #512
 4193 00b0 7868     		ldr	r0, [r7, #4]
 4194 00b2 FFF7FEFF 		bl	Cy_SCB_ClearTxInterrupt
1370:Generated_Source\PSoC6\pdl\drivers\peripheral\scb/cy_scb_uart.c **** 
1371:Generated_Source\PSoC6\pdl\drivers\peripheral\scb/cy_scb_uart.c ****         Cy_SysLib_ExitCriticalSection(intrStatus);
 4195              		.loc 3 1371 0 discriminator 4
 4196 00b6 B868     		ldr	r0, [r7, #8]
 4197 00b8 FFF7FEFF 		bl	Cy_SysLib_ExitCriticalSection
1372:Generated_Source\PSoC6\pdl\drivers\peripheral\scb/cy_scb_uart.c **** 
1373:Generated_Source\PSoC6\pdl\drivers\peripheral\scb/cy_scb_uart.c ****         /* Disable the level interrupt source and enable "transfer done" */
1374:Generated_Source\PSoC6\pdl\drivers\peripheral\scb/cy_scb_uart.c ****         Cy_SCB_SetTxInterruptMask(base, (CY_SCB_TX_INTR_UART_DONE |
1375:Generated_Source\PSoC6\pdl\drivers\peripheral\scb/cy_scb_uart.c ****                     (Cy_SCB_GetTxInterruptMask(base) & (uint32_t) ~CY_SCB_TX_INTR_LEVEL)));
 4198              		.loc 3 1375 0 discriminator 4
 4199 00bc 7868     		ldr	r0, [r7, #4]
 4200 00be FFF7FEFF 		bl	Cy_SCB_GetTxInterruptMask
 4201 00c2 0346     		mov	r3, r0
1374:Generated_Source\PSoC6\pdl\drivers\peripheral\scb/cy_scb_uart.c ****                     (Cy_SCB_GetTxInterruptMask(base) & (uint32_t) ~CY_SCB_TX_INTR_LEVEL)));
 4202              		.loc 3 1374 0 discriminator 4
 4203 00c4 23F40073 		bic	r3, r3, #512
 4204 00c8 23F00103 		bic	r3, r3, #1
 4205 00cc 43F40073 		orr	r3, r3, #512
 4206 00d0 1946     		mov	r1, r3
 4207 00d2 7868     		ldr	r0, [r7, #4]
 4208 00d4 FFF7FEFF 		bl	Cy_SCB_SetTxInterruptMask
ARM GAS  C:\Users\ikomb\AppData\Local\Temp\cctq3ka9.s 			page 156


1376:Generated_Source\PSoC6\pdl\drivers\peripheral\scb/cy_scb_uart.c **** 
1377:Generated_Source\PSoC6\pdl\drivers\peripheral\scb/cy_scb_uart.c ****         /* Data is copied into TX FIFO */
1378:Generated_Source\PSoC6\pdl\drivers\peripheral\scb/cy_scb_uart.c ****         context->txStatus |= CY_SCB_UART_TRANSMIT_IN_FIFO;
 4209              		.loc 3 1378 0 discriminator 4
 4210 00d8 3B68     		ldr	r3, [r7]
 4211 00da 1B68     		ldr	r3, [r3]
 4212 00dc 43F00202 		orr	r2, r3, #2
 4213 00e0 3B68     		ldr	r3, [r7]
 4214 00e2 1A60     		str	r2, [r3]
1379:Generated_Source\PSoC6\pdl\drivers\peripheral\scb/cy_scb_uart.c **** 
1380:Generated_Source\PSoC6\pdl\drivers\peripheral\scb/cy_scb_uart.c ****         if (NULL != context->cbEvents)
 4215              		.loc 3 1380 0 discriminator 4
 4216 00e4 3B68     		ldr	r3, [r7]
 4217 00e6 1B6B     		ldr	r3, [r3, #48]
 4218 00e8 002B     		cmp	r3, #0
 4219 00ea 03D0     		beq	.L284
1381:Generated_Source\PSoC6\pdl\drivers\peripheral\scb/cy_scb_uart.c ****         {
1382:Generated_Source\PSoC6\pdl\drivers\peripheral\scb/cy_scb_uart.c ****             context->cbEvents(CY_SCB_UART_TRANSMIT_IN_FIFO_EVENT);
 4220              		.loc 3 1382 0
 4221 00ec 3B68     		ldr	r3, [r7]
 4222 00ee 1B6B     		ldr	r3, [r3, #48]
 4223 00f0 0120     		movs	r0, #1
 4224 00f2 9847     		blx	r3
 4225              	.L284:
 4226              	.LBE13:
1383:Generated_Source\PSoC6\pdl\drivers\peripheral\scb/cy_scb_uart.c ****         }
1384:Generated_Source\PSoC6\pdl\drivers\peripheral\scb/cy_scb_uart.c ****     }
1385:Generated_Source\PSoC6\pdl\drivers\peripheral\scb/cy_scb_uart.c **** }
 4227              		.loc 3 1385 0
 4228 00f4 00BF     		nop
 4229 00f6 2037     		adds	r7, r7, #32
 4230              		.cfi_def_cfa_offset 8
 4231 00f8 BD46     		mov	sp, r7
 4232              		.cfi_def_cfa_register 13
 4233              		@ sp needed
 4234 00fa 80BD     		pop	{r7, pc}
 4235              		.cfi_endproc
 4236              	.LFE255:
 4237              		.size	HandleDataTransmit, .-HandleDataTransmit
 4238              		.text
 4239              	.Letext0:
 4240              		.file 4 "c:\\program files (x86)\\cypress\\psoc creator\\4.4\\psoc creator\\import\\gnu\\arm\\5.4.
 4241              		.file 5 "c:\\program files (x86)\\cypress\\psoc creator\\4.4\\psoc creator\\import\\gnu\\arm\\5.4.
 4242              		.file 6 "Generated_Source\\PSoC6\\pdl\\devices/psoc6/ip/cyip_scb.h"
 4243              		.file 7 "Generated_Source\\PSoC6\\pdl\\drivers/peripheral/syslib/cy_syslib.h"
 4244              		.file 8 "Generated_Source\\PSoC6\\pdl\\drivers/peripheral/syspm/cy_syspm.h"
 4245              		.file 9 "Generated_Source\\PSoC6\\pdl\\cmsis/include/core_cm4.h"
 4246              		.section	.debug_info,"",%progbits
 4247              	.Ldebug_info0:
 4248 0000 BB160000 		.4byte	0x16bb
 4249 0004 0400     		.2byte	0x4
 4250 0006 00000000 		.4byte	.Ldebug_abbrev0
 4251 000a 04       		.byte	0x4
 4252 000b 01       		.uleb128 0x1
 4253 000c 610F0000 		.4byte	.LASF252
 4254 0010 0C       		.byte	0xc
 4255 0011 3F060000 		.4byte	.LASF253
ARM GAS  C:\Users\ikomb\AppData\Local\Temp\cctq3ka9.s 			page 157


 4256 0015 74020000 		.4byte	.LASF254
 4257 0019 00000000 		.4byte	.Ldebug_ranges0+0
 4258 001d 00000000 		.4byte	0
 4259 0021 00000000 		.4byte	.Ldebug_line0
 4260 0025 02       		.uleb128 0x2
 4261 0026 01       		.byte	0x1
 4262 0027 06       		.byte	0x6
 4263 0028 9D0E0000 		.4byte	.LASF0
 4264 002c 03       		.uleb128 0x3
 4265 002d BE0B0000 		.4byte	.LASF3
 4266 0031 04       		.byte	0x4
 4267 0032 1D       		.byte	0x1d
 4268 0033 37000000 		.4byte	0x37
 4269 0037 02       		.uleb128 0x2
 4270 0038 01       		.byte	0x1
 4271 0039 08       		.byte	0x8
 4272 003a 4C0D0000 		.4byte	.LASF1
 4273 003e 02       		.uleb128 0x2
 4274 003f 02       		.byte	0x2
 4275 0040 05       		.byte	0x5
 4276 0041 63090000 		.4byte	.LASF2
 4277 0045 03       		.uleb128 0x3
 4278 0046 BB040000 		.4byte	.LASF4
 4279 004a 04       		.byte	0x4
 4280 004b 2B       		.byte	0x2b
 4281 004c 50000000 		.4byte	0x50
 4282 0050 02       		.uleb128 0x2
 4283 0051 02       		.byte	0x2
 4284 0052 07       		.byte	0x7
 4285 0053 B30E0000 		.4byte	.LASF5
 4286 0057 03       		.uleb128 0x3
 4287 0058 83010000 		.4byte	.LASF6
 4288 005c 04       		.byte	0x4
 4289 005d 3F       		.byte	0x3f
 4290 005e 62000000 		.4byte	0x62
 4291 0062 02       		.uleb128 0x2
 4292 0063 04       		.byte	0x4
 4293 0064 05       		.byte	0x5
 4294 0065 E80A0000 		.4byte	.LASF7
 4295 0069 03       		.uleb128 0x3
 4296 006a 880D0000 		.4byte	.LASF8
 4297 006e 04       		.byte	0x4
 4298 006f 41       		.byte	0x41
 4299 0070 74000000 		.4byte	0x74
 4300 0074 02       		.uleb128 0x2
 4301 0075 04       		.byte	0x4
 4302 0076 07       		.byte	0x7
 4303 0077 6D0C0000 		.4byte	.LASF9
 4304 007b 02       		.uleb128 0x2
 4305 007c 08       		.byte	0x8
 4306 007d 05       		.byte	0x5
 4307 007e 2E080000 		.4byte	.LASF10
 4308 0082 02       		.uleb128 0x2
 4309 0083 08       		.byte	0x8
 4310 0084 07       		.byte	0x7
 4311 0085 6A040000 		.4byte	.LASF11
 4312 0089 04       		.uleb128 0x4
ARM GAS  C:\Users\ikomb\AppData\Local\Temp\cctq3ka9.s 			page 158


 4313 008a 04       		.byte	0x4
 4314 008b 05       		.byte	0x5
 4315 008c 696E7400 		.ascii	"int\000"
 4316 0090 02       		.uleb128 0x2
 4317 0091 04       		.byte	0x4
 4318 0092 07       		.byte	0x7
 4319 0093 2E010000 		.4byte	.LASF12
 4320 0097 03       		.uleb128 0x3
 4321 0098 9B070000 		.4byte	.LASF13
 4322 009c 05       		.byte	0x5
 4323 009d 18       		.byte	0x18
 4324 009e 2C000000 		.4byte	0x2c
 4325 00a2 03       		.uleb128 0x3
 4326 00a3 D5090000 		.4byte	.LASF14
 4327 00a7 05       		.byte	0x5
 4328 00a8 24       		.byte	0x24
 4329 00a9 45000000 		.4byte	0x45
 4330 00ad 03       		.uleb128 0x3
 4331 00ae 930C0000 		.4byte	.LASF15
 4332 00b2 05       		.byte	0x5
 4333 00b3 2C       		.byte	0x2c
 4334 00b4 57000000 		.4byte	0x57
 4335 00b8 03       		.uleb128 0x3
 4336 00b9 7E030000 		.4byte	.LASF16
 4337 00bd 05       		.byte	0x5
 4338 00be 30       		.byte	0x30
 4339 00bf 69000000 		.4byte	0x69
 4340 00c3 02       		.uleb128 0x2
 4341 00c4 08       		.byte	0x8
 4342 00c5 04       		.byte	0x4
 4343 00c6 C9090000 		.4byte	.LASF17
 4344 00ca 02       		.uleb128 0x2
 4345 00cb 04       		.byte	0x4
 4346 00cc 07       		.byte	0x7
 4347 00cd 640C0000 		.4byte	.LASF18
 4348 00d1 05       		.uleb128 0x5
 4349 00d2 B8000000 		.4byte	0xb8
 4350 00d6 06       		.uleb128 0x6
 4351 00d7 D1000000 		.4byte	0xd1
 4352 00db 07       		.uleb128 0x7
 4353 00dc D6000000 		.4byte	0xd6
 4354 00e0 EB000000 		.4byte	0xeb
 4355 00e4 08       		.uleb128 0x8
 4356 00e5 CA000000 		.4byte	0xca
 4357 00e9 03       		.byte	0x3
 4358 00ea 00       		.byte	0
 4359 00eb 07       		.uleb128 0x7
 4360 00ec D6000000 		.4byte	0xd6
 4361 00f0 FB000000 		.4byte	0xfb
 4362 00f4 08       		.uleb128 0x8
 4363 00f5 CA000000 		.4byte	0xca
 4364 00f9 05       		.byte	0x5
 4365 00fa 00       		.byte	0
 4366 00fb 07       		.uleb128 0x7
 4367 00fc D6000000 		.4byte	0xd6
 4368 0100 0B010000 		.4byte	0x10b
 4369 0104 08       		.uleb128 0x8
ARM GAS  C:\Users\ikomb\AppData\Local\Temp\cctq3ka9.s 			page 159


 4370 0105 CA000000 		.4byte	0xca
 4371 0109 7F       		.byte	0x7f
 4372 010a 00       		.byte	0
 4373 010b 07       		.uleb128 0x7
 4374 010c D6000000 		.4byte	0xd6
 4375 0110 1B010000 		.4byte	0x11b
 4376 0114 08       		.uleb128 0x8
 4377 0115 CA000000 		.4byte	0xca
 4378 0119 02       		.byte	0x2
 4379 011a 00       		.byte	0
 4380 011b 07       		.uleb128 0x7
 4381 011c D6000000 		.4byte	0xd6
 4382 0120 2B010000 		.4byte	0x12b
 4383 0124 08       		.uleb128 0x8
 4384 0125 CA000000 		.4byte	0xca
 4385 0129 3E       		.byte	0x3e
 4386 012a 00       		.byte	0
 4387 012b 07       		.uleb128 0x7
 4388 012c D6000000 		.4byte	0xd6
 4389 0130 3B010000 		.4byte	0x13b
 4390 0134 08       		.uleb128 0x8
 4391 0135 CA000000 		.4byte	0xca
 4392 0139 1E       		.byte	0x1e
 4393 013a 00       		.byte	0
 4394 013b 07       		.uleb128 0x7
 4395 013c D6000000 		.4byte	0xd6
 4396 0140 4B010000 		.4byte	0x14b
 4397 0144 08       		.uleb128 0x8
 4398 0145 CA000000 		.4byte	0xca
 4399 0149 0B       		.byte	0xb
 4400 014a 00       		.byte	0
 4401 014b 07       		.uleb128 0x7
 4402 014c D6000000 		.4byte	0xd6
 4403 0150 5B010000 		.4byte	0x15b
 4404 0154 08       		.uleb128 0x8
 4405 0155 CA000000 		.4byte	0xca
 4406 0159 0C       		.byte	0xc
 4407 015a 00       		.byte	0
 4408 015b 07       		.uleb128 0x7
 4409 015c D6000000 		.4byte	0xd6
 4410 0160 6B010000 		.4byte	0x16b
 4411 0164 08       		.uleb128 0x8
 4412 0165 CA000000 		.4byte	0xca
 4413 0169 0A       		.byte	0xa
 4414 016a 00       		.byte	0
 4415 016b 07       		.uleb128 0x7
 4416 016c D6000000 		.4byte	0xd6
 4417 0170 7B010000 		.4byte	0x17b
 4418 0174 08       		.uleb128 0x8
 4419 0175 CA000000 		.4byte	0xca
 4420 0179 2E       		.byte	0x2e
 4421 017a 00       		.byte	0
 4422 017b 07       		.uleb128 0x7
 4423 017c D6000000 		.4byte	0xd6
 4424 0180 8B010000 		.4byte	0x18b
 4425 0184 08       		.uleb128 0x8
 4426 0185 CA000000 		.4byte	0xca
ARM GAS  C:\Users\ikomb\AppData\Local\Temp\cctq3ka9.s 			page 160


 4427 0189 2D       		.byte	0x2d
 4428 018a 00       		.byte	0
 4429 018b 09       		.uleb128 0x9
 4430 018c D00F     		.2byte	0xfd0
 4431 018e 06       		.byte	0x6
 4432 018f 21       		.byte	0x21
 4433 0190 0F050000 		.4byte	0x50f
 4434 0194 0A       		.uleb128 0xa
 4435 0195 AD100000 		.4byte	.LASF19
 4436 0199 06       		.byte	0x6
 4437 019a 22       		.byte	0x22
 4438 019b D1000000 		.4byte	0xd1
 4439 019f 00       		.byte	0
 4440 01a0 0A       		.uleb128 0xa
 4441 01a1 450F0000 		.4byte	.LASF20
 4442 01a5 06       		.byte	0x6
 4443 01a6 23       		.byte	0x23
 4444 01a7 D6000000 		.4byte	0xd6
 4445 01ab 04       		.byte	0x4
 4446 01ac 0A       		.uleb128 0xa
 4447 01ad D30E0000 		.4byte	.LASF21
 4448 01b1 06       		.byte	0x6
 4449 01b2 24       		.byte	0x24
 4450 01b3 D1000000 		.4byte	0xd1
 4451 01b7 08       		.byte	0x8
 4452 01b8 0A       		.uleb128 0xa
 4453 01b9 A3000000 		.4byte	.LASF22
 4454 01bd 06       		.byte	0x6
 4455 01be 25       		.byte	0x25
 4456 01bf D6000000 		.4byte	0xd6
 4457 01c3 0C       		.byte	0xc
 4458 01c4 0A       		.uleb128 0xa
 4459 01c5 13000000 		.4byte	.LASF23
 4460 01c9 06       		.byte	0x6
 4461 01ca 26       		.byte	0x26
 4462 01cb 14050000 		.4byte	0x514
 4463 01cf 10       		.byte	0x10
 4464 01d0 0A       		.uleb128 0xa
 4465 01d1 160C0000 		.4byte	.LASF24
 4466 01d5 06       		.byte	0x6
 4467 01d6 27       		.byte	0x27
 4468 01d7 D1000000 		.4byte	0xd1
 4469 01db 20       		.byte	0x20
 4470 01dc 0A       		.uleb128 0xa
 4471 01dd 330D0000 		.4byte	.LASF25
 4472 01e1 06       		.byte	0x6
 4473 01e2 28       		.byte	0x28
 4474 01e3 D6000000 		.4byte	0xd6
 4475 01e7 24       		.byte	0x24
 4476 01e8 0A       		.uleb128 0xa
 4477 01e9 5F0A0000 		.4byte	.LASF26
 4478 01ed 06       		.byte	0x6
 4479 01ee 29       		.byte	0x29
 4480 01ef 1E050000 		.4byte	0x51e
 4481 01f3 28       		.byte	0x28
 4482 01f4 0A       		.uleb128 0xa
 4483 01f5 A90E0000 		.4byte	.LASF27
ARM GAS  C:\Users\ikomb\AppData\Local\Temp\cctq3ka9.s 			page 161


 4484 01f9 06       		.byte	0x6
 4485 01fa 2A       		.byte	0x2a
 4486 01fb D1000000 		.4byte	0xd1
 4487 01ff 40       		.byte	0x40
 4488 0200 0A       		.uleb128 0xa
 4489 0201 CE040000 		.4byte	.LASF28
 4490 0205 06       		.byte	0x6
 4491 0206 2B       		.byte	0x2b
 4492 0207 D1000000 		.4byte	0xd1
 4493 020b 44       		.byte	0x44
 4494 020c 0A       		.uleb128 0xa
 4495 020d F0020000 		.4byte	.LASF29
 4496 0211 06       		.byte	0x6
 4497 0212 2C       		.byte	0x2c
 4498 0213 D1000000 		.4byte	0xd1
 4499 0217 48       		.byte	0x48
 4500 0218 0A       		.uleb128 0xa
 4501 0219 8B0B0000 		.4byte	.LASF30
 4502 021d 06       		.byte	0x6
 4503 021e 2D       		.byte	0x2d
 4504 021f D6000000 		.4byte	0xd6
 4505 0223 4C       		.byte	0x4c
 4506 0224 0A       		.uleb128 0xa
 4507 0225 15090000 		.4byte	.LASF31
 4508 0229 06       		.byte	0x6
 4509 022a 2E       		.byte	0x2e
 4510 022b D1000000 		.4byte	0xd1
 4511 022f 50       		.byte	0x50
 4512 0230 0A       		.uleb128 0xa
 4513 0231 690A0000 		.4byte	.LASF32
 4514 0235 06       		.byte	0x6
 4515 0236 2F       		.byte	0x2f
 4516 0237 28050000 		.4byte	0x528
 4517 023b 54       		.byte	0x54
 4518 023c 0A       		.uleb128 0xa
 4519 023d 5B0C0000 		.4byte	.LASF33
 4520 0241 06       		.byte	0x6
 4521 0242 30       		.byte	0x30
 4522 0243 D1000000 		.4byte	0xd1
 4523 0247 60       		.byte	0x60
 4524 0248 0A       		.uleb128 0xa
 4525 0249 F10A0000 		.4byte	.LASF34
 4526 024d 06       		.byte	0x6
 4527 024e 31       		.byte	0x31
 4528 024f D6000000 		.4byte	0xd6
 4529 0253 64       		.byte	0x64
 4530 0254 0A       		.uleb128 0xa
 4531 0255 EF0B0000 		.4byte	.LASF35
 4532 0259 06       		.byte	0x6
 4533 025a 32       		.byte	0x32
 4534 025b D1000000 		.4byte	0xd1
 4535 025f 68       		.byte	0x68
 4536 0260 0A       		.uleb128 0xa
 4537 0261 4C0A0000 		.4byte	.LASF36
 4538 0265 06       		.byte	0x6
 4539 0266 33       		.byte	0x33
 4540 0267 D1000000 		.4byte	0xd1
ARM GAS  C:\Users\ikomb\AppData\Local\Temp\cctq3ka9.s 			page 162


 4541 026b 6C       		.byte	0x6c
 4542 026c 0A       		.uleb128 0xa
 4543 026d 3D030000 		.4byte	.LASF37
 4544 0271 06       		.byte	0x6
 4545 0272 34       		.byte	0x34
 4546 0273 D1000000 		.4byte	0xd1
 4547 0277 70       		.byte	0x70
 4548 0278 0A       		.uleb128 0xa
 4549 0279 730A0000 		.4byte	.LASF38
 4550 027d 06       		.byte	0x6
 4551 027e 35       		.byte	0x35
 4552 027f 42050000 		.4byte	0x542
 4553 0283 74       		.byte	0x74
 4554 0284 0B       		.uleb128 0xb
 4555 0285 3C080000 		.4byte	.LASF39
 4556 0289 06       		.byte	0x6
 4557 028a 36       		.byte	0x36
 4558 028b D1000000 		.4byte	0xd1
 4559 028f 0001     		.2byte	0x100
 4560 0291 0B       		.uleb128 0xb
 4561 0292 7D0A0000 		.4byte	.LASF40
 4562 0296 06       		.byte	0x6
 4563 0297 37       		.byte	0x37
 4564 0298 4C050000 		.4byte	0x54c
 4565 029c 0401     		.2byte	0x104
 4566 029e 0B       		.uleb128 0xb
 4567 029f C6040000 		.4byte	.LASF41
 4568 02a3 06       		.byte	0x6
 4569 02a4 38       		.byte	0x38
 4570 02a5 D1000000 		.4byte	0xd1
 4571 02a9 0002     		.2byte	0x200
 4572 02ab 0B       		.uleb128 0xb
 4573 02ac C80B0000 		.4byte	.LASF42
 4574 02b0 06       		.byte	0x6
 4575 02b1 39       		.byte	0x39
 4576 02b2 D1000000 		.4byte	0xd1
 4577 02b6 0402     		.2byte	0x204
 4578 02b8 0B       		.uleb128 0xb
 4579 02b9 18010000 		.4byte	.LASF43
 4580 02bd 06       		.byte	0x6
 4581 02be 3A       		.byte	0x3a
 4582 02bf D6000000 		.4byte	0xd6
 4583 02c3 0802     		.2byte	0x208
 4584 02c5 0B       		.uleb128 0xb
 4585 02c6 870A0000 		.4byte	.LASF44
 4586 02ca 06       		.byte	0x6
 4587 02cb 3B       		.byte	0x3b
 4588 02cc 56050000 		.4byte	0x556
 4589 02d0 0C02     		.2byte	0x20c
 4590 02d2 0B       		.uleb128 0xb
 4591 02d3 F60D0000 		.4byte	.LASF45
 4592 02d7 06       		.byte	0x6
 4593 02d8 3C       		.byte	0x3c
 4594 02d9 D1000000 		.4byte	0xd1
 4595 02dd 4002     		.2byte	0x240
 4596 02df 0B       		.uleb128 0xb
 4597 02e0 910A0000 		.4byte	.LASF46
ARM GAS  C:\Users\ikomb\AppData\Local\Temp\cctq3ka9.s 			page 163


 4598 02e4 06       		.byte	0x6
 4599 02e5 3D       		.byte	0x3d
 4600 02e6 60050000 		.4byte	0x560
 4601 02ea 4402     		.2byte	0x244
 4602 02ec 0B       		.uleb128 0xb
 4603 02ed 3E0C0000 		.4byte	.LASF47
 4604 02f1 06       		.byte	0x6
 4605 02f2 3E       		.byte	0x3e
 4606 02f3 D1000000 		.4byte	0xd1
 4607 02f7 0003     		.2byte	0x300
 4608 02f9 0B       		.uleb128 0xb
 4609 02fa 76010000 		.4byte	.LASF48
 4610 02fe 06       		.byte	0x6
 4611 02ff 3F       		.byte	0x3f
 4612 0300 D1000000 		.4byte	0xd1
 4613 0304 0403     		.2byte	0x304
 4614 0306 0B       		.uleb128 0xb
 4615 0307 4D020000 		.4byte	.LASF49
 4616 030b 06       		.byte	0x6
 4617 030c 40       		.byte	0x40
 4618 030d D6000000 		.4byte	0xd6
 4619 0311 0803     		.2byte	0x308
 4620 0313 0B       		.uleb128 0xb
 4621 0314 9B0A0000 		.4byte	.LASF50
 4622 0318 06       		.byte	0x6
 4623 0319 41       		.byte	0x41
 4624 031a D6000000 		.4byte	0xd6
 4625 031e 0C03     		.2byte	0x30c
 4626 0320 0B       		.uleb128 0xb
 4627 0321 7A0B0000 		.4byte	.LASF51
 4628 0325 06       		.byte	0x6
 4629 0326 42       		.byte	0x42
 4630 0327 D1000000 		.4byte	0xd1
 4631 032b 1003     		.2byte	0x310
 4632 032d 0B       		.uleb128 0xb
 4633 032e A50A0000 		.4byte	.LASF52
 4634 0332 06       		.byte	0x6
 4635 0333 43       		.byte	0x43
 4636 0334 6A050000 		.4byte	0x56a
 4637 0338 1403     		.2byte	0x314
 4638 033a 0B       		.uleb128 0xb
 4639 033b 11080000 		.4byte	.LASF53
 4640 033f 06       		.byte	0x6
 4641 0340 44       		.byte	0x44
 4642 0341 D6000000 		.4byte	0xd6
 4643 0345 4003     		.2byte	0x340
 4644 0347 0B       		.uleb128 0xb
 4645 0348 45030000 		.4byte	.LASF54
 4646 034c 06       		.byte	0x6
 4647 034d 45       		.byte	0x45
 4648 034e D6000000 		.4byte	0xd6
 4649 0352 4403     		.2byte	0x344
 4650 0354 0B       		.uleb128 0xb
 4651 0355 AF0A0000 		.4byte	.LASF55
 4652 0359 06       		.byte	0x6
 4653 035a 46       		.byte	0x46
 4654 035b 74050000 		.4byte	0x574
ARM GAS  C:\Users\ikomb\AppData\Local\Temp\cctq3ka9.s 			page 164


 4655 035f 4803     		.2byte	0x348
 4656 0361 0B       		.uleb128 0xb
 4657 0362 75100000 		.4byte	.LASF56
 4658 0366 06       		.byte	0x6
 4659 0367 47       		.byte	0x47
 4660 0368 8A050000 		.4byte	0x58a
 4661 036c 0004     		.2byte	0x400
 4662 036e 0B       		.uleb128 0xb
 4663 036f 930D0000 		.4byte	.LASF57
 4664 0373 06       		.byte	0x6
 4665 0374 48       		.byte	0x48
 4666 0375 94050000 		.4byte	0x594
 4667 0379 000C     		.2byte	0xc00
 4668 037b 0B       		.uleb128 0xb
 4669 037c 3B010000 		.4byte	.LASF58
 4670 0380 06       		.byte	0x6
 4671 0381 49       		.byte	0x49
 4672 0382 D6000000 		.4byte	0xd6
 4673 0386 000E     		.2byte	0xe00
 4674 0388 0B       		.uleb128 0xb
 4675 0389 9E0D0000 		.4byte	.LASF59
 4676 038d 06       		.byte	0x6
 4677 038e 4A       		.byte	0x4a
 4678 038f 9E050000 		.4byte	0x59e
 4679 0393 040E     		.2byte	0xe04
 4680 0395 0B       		.uleb128 0xb
 4681 0396 F7050000 		.4byte	.LASF60
 4682 039a 06       		.byte	0x6
 4683 039b 4B       		.byte	0x4b
 4684 039c D1000000 		.4byte	0xd1
 4685 03a0 800E     		.2byte	0xe80
 4686 03a2 0B       		.uleb128 0xb
 4687 03a3 A90D0000 		.4byte	.LASF61
 4688 03a7 06       		.byte	0x6
 4689 03a8 4C       		.byte	0x4c
 4690 03a9 D6000000 		.4byte	0xd6
 4691 03ad 840E     		.2byte	0xe84
 4692 03af 0B       		.uleb128 0xb
 4693 03b0 DE090000 		.4byte	.LASF62
 4694 03b4 06       		.byte	0x6
 4695 03b5 4D       		.byte	0x4d
 4696 03b6 D1000000 		.4byte	0xd1
 4697 03ba 880E     		.2byte	0xe88
 4698 03bc 0B       		.uleb128 0xb
 4699 03bd 18070000 		.4byte	.LASF63
 4700 03c1 06       		.byte	0x6
 4701 03c2 4E       		.byte	0x4e
 4702 03c3 D6000000 		.4byte	0xd6
 4703 03c7 8C0E     		.2byte	0xe8c
 4704 03c9 0B       		.uleb128 0xb
 4705 03ca B40D0000 		.4byte	.LASF64
 4706 03ce 06       		.byte	0x6
 4707 03cf 4F       		.byte	0x4f
 4708 03d0 A8050000 		.4byte	0x5a8
 4709 03d4 900E     		.2byte	0xe90
 4710 03d6 0B       		.uleb128 0xb
 4711 03d7 5C050000 		.4byte	.LASF65
ARM GAS  C:\Users\ikomb\AppData\Local\Temp\cctq3ka9.s 			page 165


 4712 03db 06       		.byte	0x6
 4713 03dc 50       		.byte	0x50
 4714 03dd D1000000 		.4byte	0xd1
 4715 03e1 C00E     		.2byte	0xec0
 4716 03e3 0B       		.uleb128 0xb
 4717 03e4 BF0D0000 		.4byte	.LASF66
 4718 03e8 06       		.byte	0x6
 4719 03e9 51       		.byte	0x51
 4720 03ea D6000000 		.4byte	0xd6
 4721 03ee C40E     		.2byte	0xec4
 4722 03f0 0B       		.uleb128 0xb
 4723 03f1 220A0000 		.4byte	.LASF67
 4724 03f5 06       		.byte	0x6
 4725 03f6 52       		.byte	0x52
 4726 03f7 D1000000 		.4byte	0xd1
 4727 03fb C80E     		.2byte	0xec8
 4728 03fd 0B       		.uleb128 0xb
 4729 03fe F90B0000 		.4byte	.LASF68
 4730 0402 06       		.byte	0x6
 4731 0403 53       		.byte	0x53
 4732 0404 D6000000 		.4byte	0xd6
 4733 0408 CC0E     		.2byte	0xecc
 4734 040a 0B       		.uleb128 0xb
 4735 040b CA0D0000 		.4byte	.LASF69
 4736 040f 06       		.byte	0x6
 4737 0410 54       		.byte	0x54
 4738 0411 B2050000 		.4byte	0x5b2
 4739 0415 D00E     		.2byte	0xed0
 4740 0417 0B       		.uleb128 0xb
 4741 0418 7F0C0000 		.4byte	.LASF70
 4742 041c 06       		.byte	0x6
 4743 041d 55       		.byte	0x55
 4744 041e D1000000 		.4byte	0xd1
 4745 0422 000F     		.2byte	0xf00
 4746 0424 0B       		.uleb128 0xb
 4747 0425 B3030000 		.4byte	.LASF71
 4748 0429 06       		.byte	0x6
 4749 042a 56       		.byte	0x56
 4750 042b D1000000 		.4byte	0xd1
 4751 042f 040F     		.2byte	0xf04
 4752 0431 0B       		.uleb128 0xb
 4753 0432 CF0C0000 		.4byte	.LASF72
 4754 0436 06       		.byte	0x6
 4755 0437 57       		.byte	0x57
 4756 0438 D1000000 		.4byte	0xd1
 4757 043c 080F     		.2byte	0xf08
 4758 043e 0B       		.uleb128 0xb
 4759 043f F1030000 		.4byte	.LASF73
 4760 0443 06       		.byte	0x6
 4761 0444 58       		.byte	0x58
 4762 0445 D6000000 		.4byte	0xd6
 4763 0449 0C0F     		.2byte	0xf0c
 4764 044b 0B       		.uleb128 0xb
 4765 044c D50D0000 		.4byte	.LASF74
 4766 0450 06       		.byte	0x6
 4767 0451 59       		.byte	0x59
 4768 0452 BC050000 		.4byte	0x5bc
ARM GAS  C:\Users\ikomb\AppData\Local\Temp\cctq3ka9.s 			page 166


 4769 0456 100F     		.2byte	0xf10
 4770 0458 0B       		.uleb128 0xb
 4771 0459 8C0C0000 		.4byte	.LASF75
 4772 045d 06       		.byte	0x6
 4773 045e 5A       		.byte	0x5a
 4774 045f D1000000 		.4byte	0xd1
 4775 0463 400F     		.2byte	0xf40
 4776 0465 0B       		.uleb128 0xb
 4777 0466 BA010000 		.4byte	.LASF76
 4778 046a 06       		.byte	0x6
 4779 046b 5B       		.byte	0x5b
 4780 046c D1000000 		.4byte	0xd1
 4781 0470 440F     		.2byte	0xf44
 4782 0472 0B       		.uleb128 0xb
 4783 0473 0C070000 		.4byte	.LASF77
 4784 0477 06       		.byte	0x6
 4785 0478 5C       		.byte	0x5c
 4786 0479 D1000000 		.4byte	0xd1
 4787 047d 480F     		.2byte	0xf48
 4788 047f 0B       		.uleb128 0xb
 4789 0480 19060000 		.4byte	.LASF78
 4790 0484 06       		.byte	0x6
 4791 0485 5D       		.byte	0x5d
 4792 0486 D6000000 		.4byte	0xd6
 4793 048a 4C0F     		.2byte	0xf4c
 4794 048c 0B       		.uleb128 0xb
 4795 048d E00D0000 		.4byte	.LASF79
 4796 0491 06       		.byte	0x6
 4797 0492 5E       		.byte	0x5e
 4798 0493 C6050000 		.4byte	0x5c6
 4799 0497 500F     		.2byte	0xf50
 4800 0499 0B       		.uleb128 0xb
 4801 049a 830B0000 		.4byte	.LASF80
 4802 049e 06       		.byte	0x6
 4803 049f 5F       		.byte	0x5f
 4804 04a0 D1000000 		.4byte	0xd1
 4805 04a4 800F     		.2byte	0xf80
 4806 04a6 0B       		.uleb128 0xb
 4807 04a7 CB010000 		.4byte	.LASF81
 4808 04ab 06       		.byte	0x6
 4809 04ac 60       		.byte	0x60
 4810 04ad D1000000 		.4byte	0xd1
 4811 04b1 840F     		.2byte	0xf84
 4812 04b3 0B       		.uleb128 0xb
 4813 04b4 C8000000 		.4byte	.LASF82
 4814 04b8 06       		.byte	0x6
 4815 04b9 61       		.byte	0x61
 4816 04ba D1000000 		.4byte	0xd1
 4817 04be 880F     		.2byte	0xf88
 4818 04c0 0B       		.uleb128 0xb
 4819 04c1 FC0A0000 		.4byte	.LASF83
 4820 04c5 06       		.byte	0x6
 4821 04c6 62       		.byte	0x62
 4822 04c7 D6000000 		.4byte	0xd6
 4823 04cb 8C0F     		.2byte	0xf8c
 4824 04cd 0B       		.uleb128 0xb
 4825 04ce EB0D0000 		.4byte	.LASF84
ARM GAS  C:\Users\ikomb\AppData\Local\Temp\cctq3ka9.s 			page 167


 4826 04d2 06       		.byte	0x6
 4827 04d3 63       		.byte	0x63
 4828 04d4 D0050000 		.4byte	0x5d0
 4829 04d8 900F     		.2byte	0xf90
 4830 04da 0B       		.uleb128 0xb
 4831 04db 84090000 		.4byte	.LASF85
 4832 04df 06       		.byte	0x6
 4833 04e0 64       		.byte	0x64
 4834 04e1 D1000000 		.4byte	0xd1
 4835 04e5 C00F     		.2byte	0xfc0
 4836 04e7 0B       		.uleb128 0xb
 4837 04e8 390F0000 		.4byte	.LASF86
 4838 04ec 06       		.byte	0x6
 4839 04ed 65       		.byte	0x65
 4840 04ee D1000000 		.4byte	0xd1
 4841 04f2 C40F     		.2byte	0xfc4
 4842 04f4 0B       		.uleb128 0xb
 4843 04f5 C60E0000 		.4byte	.LASF87
 4844 04f9 06       		.byte	0x6
 4845 04fa 66       		.byte	0x66
 4846 04fb D1000000 		.4byte	0xd1
 4847 04ff C80F     		.2byte	0xfc8
 4848 0501 0B       		.uleb128 0xb
 4849 0502 D7010000 		.4byte	.LASF88
 4850 0506 06       		.byte	0x6
 4851 0507 67       		.byte	0x67
 4852 0508 D6000000 		.4byte	0xd6
 4853 050c CC0F     		.2byte	0xfcc
 4854 050e 00       		.byte	0
 4855 050f 05       		.uleb128 0x5
 4856 0510 DB000000 		.4byte	0xdb
 4857 0514 06       		.uleb128 0x6
 4858 0515 0F050000 		.4byte	0x50f
 4859 0519 05       		.uleb128 0x5
 4860 051a EB000000 		.4byte	0xeb
 4861 051e 06       		.uleb128 0x6
 4862 051f 19050000 		.4byte	0x519
 4863 0523 05       		.uleb128 0x5
 4864 0524 0B010000 		.4byte	0x10b
 4865 0528 06       		.uleb128 0x6
 4866 0529 23050000 		.4byte	0x523
 4867 052d 07       		.uleb128 0x7
 4868 052e D6000000 		.4byte	0xd6
 4869 0532 3D050000 		.4byte	0x53d
 4870 0536 08       		.uleb128 0x8
 4871 0537 CA000000 		.4byte	0xca
 4872 053b 22       		.byte	0x22
 4873 053c 00       		.byte	0
 4874 053d 05       		.uleb128 0x5
 4875 053e 2D050000 		.4byte	0x52d
 4876 0542 06       		.uleb128 0x6
 4877 0543 3D050000 		.4byte	0x53d
 4878 0547 05       		.uleb128 0x5
 4879 0548 1B010000 		.4byte	0x11b
 4880 054c 06       		.uleb128 0x6
 4881 054d 47050000 		.4byte	0x547
 4882 0551 05       		.uleb128 0x5
ARM GAS  C:\Users\ikomb\AppData\Local\Temp\cctq3ka9.s 			page 168


 4883 0552 4B010000 		.4byte	0x14b
 4884 0556 06       		.uleb128 0x6
 4885 0557 51050000 		.4byte	0x551
 4886 055b 05       		.uleb128 0x5
 4887 055c 6B010000 		.4byte	0x16b
 4888 0560 06       		.uleb128 0x6
 4889 0561 5B050000 		.4byte	0x55b
 4890 0565 05       		.uleb128 0x5
 4891 0566 5B010000 		.4byte	0x15b
 4892 056a 06       		.uleb128 0x6
 4893 056b 65050000 		.4byte	0x565
 4894 056f 05       		.uleb128 0x5
 4895 0570 7B010000 		.4byte	0x17b
 4896 0574 06       		.uleb128 0x6
 4897 0575 6F050000 		.4byte	0x56f
 4898 0579 07       		.uleb128 0x7
 4899 057a D1000000 		.4byte	0xd1
 4900 057e 8A050000 		.4byte	0x58a
 4901 0582 0C       		.uleb128 0xc
 4902 0583 CA000000 		.4byte	0xca
 4903 0587 FF01     		.2byte	0x1ff
 4904 0589 00       		.byte	0
 4905 058a 05       		.uleb128 0x5
 4906 058b 79050000 		.4byte	0x579
 4907 058f 05       		.uleb128 0x5
 4908 0590 FB000000 		.4byte	0xfb
 4909 0594 06       		.uleb128 0x6
 4910 0595 8F050000 		.4byte	0x58f
 4911 0599 05       		.uleb128 0x5
 4912 059a 2B010000 		.4byte	0x12b
 4913 059e 06       		.uleb128 0x6
 4914 059f 99050000 		.4byte	0x599
 4915 05a3 05       		.uleb128 0x5
 4916 05a4 3B010000 		.4byte	0x13b
 4917 05a8 06       		.uleb128 0x6
 4918 05a9 A3050000 		.4byte	0x5a3
 4919 05ad 05       		.uleb128 0x5
 4920 05ae 3B010000 		.4byte	0x13b
 4921 05b2 06       		.uleb128 0x6
 4922 05b3 AD050000 		.4byte	0x5ad
 4923 05b7 05       		.uleb128 0x5
 4924 05b8 3B010000 		.4byte	0x13b
 4925 05bc 06       		.uleb128 0x6
 4926 05bd B7050000 		.4byte	0x5b7
 4927 05c1 05       		.uleb128 0x5
 4928 05c2 3B010000 		.4byte	0x13b
 4929 05c6 06       		.uleb128 0x6
 4930 05c7 C1050000 		.4byte	0x5c1
 4931 05cb 05       		.uleb128 0x5
 4932 05cc 3B010000 		.4byte	0x13b
 4933 05d0 06       		.uleb128 0x6
 4934 05d1 CB050000 		.4byte	0x5cb
 4935 05d5 03       		.uleb128 0x3
 4936 05d6 FD020000 		.4byte	.LASF89
 4937 05da 06       		.byte	0x6
 4938 05db 68       		.byte	0x68
 4939 05dc 8B010000 		.4byte	0x18b
ARM GAS  C:\Users\ikomb\AppData\Local\Temp\cctq3ka9.s 			page 169


 4940 05e0 0D       		.uleb128 0xd
 4941 05e1 730B0000 		.4byte	.LASF90
 4942 05e5 07       		.byte	0x7
 4943 05e6 C401     		.2byte	0x1c4
 4944 05e8 EC050000 		.4byte	0x5ec
 4945 05ec 02       		.uleb128 0x2
 4946 05ed 01       		.byte	0x1
 4947 05ee 08       		.byte	0x8
 4948 05ef DE060000 		.4byte	.LASF91
 4949 05f3 02       		.uleb128 0x2
 4950 05f4 04       		.byte	0x4
 4951 05f5 04       		.byte	0x4
 4952 05f6 860C0000 		.4byte	.LASF92
 4953 05fa 02       		.uleb128 0x2
 4954 05fb 08       		.byte	0x8
 4955 05fc 04       		.byte	0x4
 4956 05fd 2B0F0000 		.4byte	.LASF93
 4957 0601 0E       		.uleb128 0xe
 4958 0602 04       		.byte	0x4
 4959 0603 90000000 		.4byte	0x90
 4960 0607 08       		.byte	0x8
 4961 0608 9703     		.2byte	0x397
 4962 060a 39060000 		.4byte	0x639
 4963 060e 0F       		.uleb128 0xf
 4964 060f 1D050000 		.4byte	.LASF94
 4965 0613 00       		.byte	0
 4966 0614 10       		.uleb128 0x10
 4967 0615 770E0000 		.4byte	.LASF95
 4968 0619 01004200 		.4byte	0x420001
 4969 061d 10       		.uleb128 0x10
 4970 061e 98060000 		.4byte	.LASF96
 4971 0622 02004200 		.4byte	0x420002
 4972 0626 10       		.uleb128 0x10
 4973 0627 A9060000 		.4byte	.LASF97
 4974 062b 03004200 		.4byte	0x420003
 4975 062f 10       		.uleb128 0x10
 4976 0630 3E0D0000 		.4byte	.LASF98
 4977 0634 FF004200 		.4byte	0x4200ff
 4978 0638 00       		.byte	0
 4979 0639 0D       		.uleb128 0xd
 4980 063a B3000000 		.4byte	.LASF99
 4981 063e 08       		.byte	0x8
 4982 063f 9E03     		.2byte	0x39e
 4983 0641 01060000 		.4byte	0x601
 4984 0645 0E       		.uleb128 0xe
 4985 0646 01       		.byte	0x1
 4986 0647 37000000 		.4byte	0x37
 4987 064b 08       		.byte	0x8
 4988 064c 3704     		.2byte	0x437
 4989 064e 6B060000 		.4byte	0x66b
 4990 0652 0F       		.uleb128 0xf
 4991 0653 E7100000 		.4byte	.LASF100
 4992 0657 01       		.byte	0x1
 4993 0658 0F       		.uleb128 0xf
 4994 0659 08030000 		.4byte	.LASF101
 4995 065d 02       		.byte	0x2
 4996 065e 0F       		.uleb128 0xf
ARM GAS  C:\Users\ikomb\AppData\Local\Temp\cctq3ka9.s 			page 170


 4997 065f B2100000 		.4byte	.LASF102
 4998 0663 04       		.byte	0x4
 4999 0664 0F       		.uleb128 0xf
 5000 0665 CD100000 		.4byte	.LASF103
 5001 0669 08       		.byte	0x8
 5002 066a 00       		.byte	0
 5003 066b 0D       		.uleb128 0xd
 5004 066c CC0A0000 		.4byte	.LASF104
 5005 0670 08       		.byte	0x8
 5006 0671 4104     		.2byte	0x441
 5007 0673 45060000 		.4byte	0x645
 5008 0677 11       		.uleb128 0x11
 5009 0678 0C       		.byte	0xc
 5010 0679 08       		.byte	0x8
 5011 067a 5D04     		.2byte	0x45d
 5012 067c A8060000 		.4byte	0x6a8
 5013 0680 12       		.uleb128 0x12
 5014 0681 48020000 		.4byte	.LASF105
 5015 0685 08       		.byte	0x8
 5016 0686 5F04     		.2byte	0x45f
 5017 0688 6B060000 		.4byte	0x66b
 5018 068c 00       		.byte	0
 5019 068d 12       		.uleb128 0x12
 5020 068e 42000000 		.4byte	.LASF106
 5021 0692 08       		.byte	0x8
 5022 0693 6304     		.2byte	0x463
 5023 0695 A8060000 		.4byte	0x6a8
 5024 0699 04       		.byte	0x4
 5025 069a 12       		.uleb128 0x12
 5026 069b 5C080000 		.4byte	.LASF107
 5027 069f 08       		.byte	0x8
 5028 06a0 6504     		.2byte	0x465
 5029 06a2 A8060000 		.4byte	0x6a8
 5030 06a6 08       		.byte	0x8
 5031 06a7 00       		.byte	0
 5032 06a8 13       		.uleb128 0x13
 5033 06a9 04       		.byte	0x4
 5034 06aa 0D       		.uleb128 0xd
 5035 06ab 23000000 		.4byte	.LASF108
 5036 06af 08       		.byte	0x8
 5037 06b0 6804     		.2byte	0x468
 5038 06b2 77060000 		.4byte	0x677
 5039 06b6 14       		.uleb128 0x14
 5040 06b7 04       		.byte	0x4
 5041 06b8 AA060000 		.4byte	0x6aa
 5042 06bc 0E       		.uleb128 0xe
 5043 06bd 04       		.byte	0x4
 5044 06be 90000000 		.4byte	0x90
 5045 06c2 02       		.byte	0x2
 5046 06c3 6201     		.2byte	0x162
 5047 06c5 EB060000 		.4byte	0x6eb
 5048 06c9 0F       		.uleb128 0xf
 5049 06ca 8F000000 		.4byte	.LASF109
 5050 06ce 00       		.byte	0
 5051 06cf 10       		.uleb128 0x10
 5052 06d0 46080000 		.4byte	.LASF110
 5053 06d4 0160AA00 		.4byte	0xaa6001
ARM GAS  C:\Users\ikomb\AppData\Local\Temp\cctq3ka9.s 			page 171


 5054 06d8 10       		.uleb128 0x10
 5055 06d9 24090000 		.4byte	.LASF111
 5056 06dd 0260AA00 		.4byte	0xaa6002
 5057 06e1 10       		.uleb128 0x10
 5058 06e2 50040000 		.4byte	.LASF112
 5059 06e6 0360AA00 		.4byte	0xaa6003
 5060 06ea 00       		.byte	0
 5061 06eb 0D       		.uleb128 0xd
 5062 06ec 5C020000 		.4byte	.LASF113
 5063 06f0 02       		.byte	0x2
 5064 06f1 7601     		.2byte	0x176
 5065 06f3 BC060000 		.4byte	0x6bc
 5066 06f7 0E       		.uleb128 0xe
 5067 06f8 01       		.byte	0x1
 5068 06f9 37000000 		.4byte	0x37
 5069 06fd 02       		.byte	0x2
 5070 06fe 7A01     		.2byte	0x17a
 5071 0700 17070000 		.4byte	0x717
 5072 0704 0F       		.uleb128 0xf
 5073 0705 090D0000 		.4byte	.LASF114
 5074 0709 00       		.byte	0
 5075 070a 0F       		.uleb128 0xf
 5076 070b 82050000 		.4byte	.LASF115
 5077 070f 01       		.byte	0x1
 5078 0710 0F       		.uleb128 0xf
 5079 0711 6D030000 		.4byte	.LASF116
 5080 0715 02       		.byte	0x2
 5081 0716 00       		.byte	0
 5082 0717 0D       		.uleb128 0xd
 5083 0718 1F0C0000 		.4byte	.LASF117
 5084 071c 02       		.byte	0x2
 5085 071d 7E01     		.2byte	0x17e
 5086 071f F7060000 		.4byte	0x6f7
 5087 0723 0E       		.uleb128 0xe
 5088 0724 01       		.byte	0x1
 5089 0725 37000000 		.4byte	0x37
 5090 0729 02       		.byte	0x2
 5091 072a 8201     		.2byte	0x182
 5092 072c 5B070000 		.4byte	0x75b
 5093 0730 0F       		.uleb128 0xf
 5094 0731 87080000 		.4byte	.LASF118
 5095 0735 02       		.byte	0x2
 5096 0736 0F       		.uleb128 0xf
 5097 0737 C9050000 		.4byte	.LASF119
 5098 073b 03       		.byte	0x3
 5099 073c 0F       		.uleb128 0xf
 5100 073d 9F080000 		.4byte	.LASF120
 5101 0741 04       		.byte	0x4
 5102 0742 0F       		.uleb128 0xf
 5103 0743 68050000 		.4byte	.LASF121
 5104 0747 05       		.byte	0x5
 5105 0748 0F       		.uleb128 0xf
 5106 0749 B7080000 		.4byte	.LASF122
 5107 074d 06       		.byte	0x6
 5108 074e 0F       		.uleb128 0xf
 5109 074f 10020000 		.4byte	.LASF123
 5110 0753 07       		.byte	0x7
ARM GAS  C:\Users\ikomb\AppData\Local\Temp\cctq3ka9.s 			page 172


 5111 0754 0F       		.uleb128 0xf
 5112 0755 5A0D0000 		.4byte	.LASF124
 5113 0759 08       		.byte	0x8
 5114 075a 00       		.byte	0
 5115 075b 0D       		.uleb128 0xd
 5116 075c 88100000 		.4byte	.LASF125
 5117 0760 02       		.byte	0x2
 5118 0761 8A01     		.2byte	0x18a
 5119 0763 23070000 		.4byte	0x723
 5120 0767 0E       		.uleb128 0xe
 5121 0768 01       		.byte	0x1
 5122 0769 37000000 		.4byte	0x37
 5123 076d 02       		.byte	0x2
 5124 076e 8E01     		.2byte	0x18e
 5125 0770 87070000 		.4byte	0x787
 5126 0774 0F       		.uleb128 0xf
 5127 0775 4B0E0000 		.4byte	.LASF126
 5128 0779 00       		.byte	0
 5129 077a 0F       		.uleb128 0xf
 5130 077b 1C030000 		.4byte	.LASF127
 5131 077f 02       		.byte	0x2
 5132 0780 0F       		.uleb128 0xf
 5133 0781 6D090000 		.4byte	.LASF128
 5134 0785 03       		.byte	0x3
 5135 0786 00       		.byte	0
 5136 0787 0D       		.uleb128 0xd
 5137 0788 27060000 		.4byte	.LASF129
 5138 078c 02       		.byte	0x2
 5139 078d 9201     		.2byte	0x192
 5140 078f 67070000 		.4byte	0x767
 5141 0793 0E       		.uleb128 0xe
 5142 0794 01       		.byte	0x1
 5143 0795 37000000 		.4byte	0x37
 5144 0799 02       		.byte	0x2
 5145 079a 9601     		.2byte	0x196
 5146 079c AD070000 		.4byte	0x7ad
 5147 07a0 0F       		.uleb128 0xf
 5148 07a1 46010000 		.4byte	.LASF130
 5149 07a5 00       		.byte	0
 5150 07a6 0F       		.uleb128 0xf
 5151 07a7 A3040000 		.4byte	.LASF131
 5152 07ab 01       		.byte	0x1
 5153 07ac 00       		.byte	0
 5154 07ad 0D       		.uleb128 0xd
 5155 07ae 42050000 		.4byte	.LASF132
 5156 07b2 02       		.byte	0x2
 5157 07b3 9901     		.2byte	0x199
 5158 07b5 93070000 		.4byte	0x793
 5159 07b9 0D       		.uleb128 0xd
 5160 07ba DD070000 		.4byte	.LASF133
 5161 07be 02       		.byte	0x2
 5162 07bf AB01     		.2byte	0x1ab
 5163 07c1 C5070000 		.4byte	0x7c5
 5164 07c5 14       		.uleb128 0x14
 5165 07c6 04       		.byte	0x4
 5166 07c7 CB070000 		.4byte	0x7cb
 5167 07cb 15       		.uleb128 0x15
ARM GAS  C:\Users\ikomb\AppData\Local\Temp\cctq3ka9.s 			page 173


 5168 07cc D6070000 		.4byte	0x7d6
 5169 07d0 16       		.uleb128 0x16
 5170 07d1 B8000000 		.4byte	0xb8
 5171 07d5 00       		.byte	0
 5172 07d6 17       		.uleb128 0x17
 5173 07d7 DD030000 		.4byte	.LASF161
 5174 07db 40       		.byte	0x40
 5175 07dc 02       		.byte	0x2
 5176 07dd AE01     		.2byte	0x1ae
 5177 07df 29090000 		.4byte	0x929
 5178 07e3 12       		.uleb128 0x12
 5179 07e4 B50B0000 		.4byte	.LASF134
 5180 07e8 02       		.byte	0x2
 5181 07e9 B101     		.2byte	0x1b1
 5182 07eb 17070000 		.4byte	0x717
 5183 07ef 00       		.byte	0
 5184 07f0 12       		.uleb128 0x12
 5185 07f1 4C0F0000 		.4byte	.LASF135
 5186 07f5 02       		.byte	0x2
 5187 07f6 BB01     		.2byte	0x1bb
 5188 07f8 B8000000 		.4byte	0xb8
 5189 07fc 04       		.byte	0x4
 5190 07fd 12       		.uleb128 0x12
 5191 07fe 570F0000 		.4byte	.LASF136
 5192 0802 02       		.byte	0x2
 5193 0803 BE01     		.2byte	0x1be
 5194 0805 B8000000 		.4byte	0xb8
 5195 0809 08       		.byte	0x8
 5196 080a 12       		.uleb128 0x12
 5197 080b 77000000 		.4byte	.LASF137
 5198 080f 02       		.byte	0x2
 5199 0810 C401     		.2byte	0x1c4
 5200 0812 29090000 		.4byte	0x929
 5201 0816 0C       		.byte	0xc
 5202 0817 12       		.uleb128 0x12
 5203 0818 3D090000 		.4byte	.LASF138
 5204 081c 02       		.byte	0x2
 5205 081d CA01     		.2byte	0x1ca
 5206 081f 5B070000 		.4byte	0x75b
 5207 0823 0D       		.byte	0xd
 5208 0824 12       		.uleb128 0x12
 5209 0825 1C000000 		.4byte	.LASF139
 5210 0829 02       		.byte	0x2
 5211 082a CD01     		.2byte	0x1cd
 5212 082c 87070000 		.4byte	0x787
 5213 0830 0E       		.byte	0xe
 5214 0831 12       		.uleb128 0x12
 5215 0832 E6010000 		.4byte	.LASF140
 5216 0836 02       		.byte	0x2
 5217 0837 D501     		.2byte	0x1d5
 5218 0839 29090000 		.4byte	0x929
 5219 083d 0F       		.byte	0xf
 5220 083e 12       		.uleb128 0x12
 5221 083f 1C080000 		.4byte	.LASF141
 5222 0843 02       		.byte	0x2
 5223 0844 DB01     		.2byte	0x1db
 5224 0846 29090000 		.4byte	0x929
ARM GAS  C:\Users\ikomb\AppData\Local\Temp\cctq3ka9.s 			page 174


 5225 084a 10       		.byte	0x10
 5226 084b 12       		.uleb128 0x12
 5227 084c 50100000 		.4byte	.LASF142
 5228 0850 02       		.byte	0x2
 5229 0851 E101     		.2byte	0x1e1
 5230 0853 29090000 		.4byte	0x929
 5231 0857 11       		.byte	0x11
 5232 0858 12       		.uleb128 0x12
 5233 0859 5D010000 		.4byte	.LASF143
 5234 085d 02       		.byte	0x2
 5235 085e E701     		.2byte	0x1e7
 5236 0860 29090000 		.4byte	0x929
 5237 0864 12       		.byte	0x12
 5238 0865 12       		.uleb128 0x12
 5239 0866 F1060000 		.4byte	.LASF144
 5240 086a 02       		.byte	0x2
 5241 086b EE01     		.2byte	0x1ee
 5242 086d B8000000 		.4byte	0xb8
 5243 0871 14       		.byte	0x14
 5244 0872 12       		.uleb128 0x12
 5245 0873 44070000 		.4byte	.LASF145
 5246 0877 02       		.byte	0x2
 5247 0878 F601     		.2byte	0x1f6
 5248 087a B8000000 		.4byte	0xb8
 5249 087e 18       		.byte	0x18
 5250 087f 12       		.uleb128 0x12
 5251 0880 7F060000 		.4byte	.LASF146
 5252 0884 02       		.byte	0x2
 5253 0885 FC01     		.2byte	0x1fc
 5254 0887 29090000 		.4byte	0x929
 5255 088b 1C       		.byte	0x1c
 5256 088c 12       		.uleb128 0x12
 5257 088d BE030000 		.4byte	.LASF147
 5258 0891 02       		.byte	0x2
 5259 0892 FF01     		.2byte	0x1ff
 5260 0894 29090000 		.4byte	0x929
 5261 0898 1D       		.byte	0x1d
 5262 0899 12       		.uleb128 0x12
 5263 089a 64080000 		.4byte	.LASF148
 5264 089e 02       		.byte	0x2
 5265 089f 0502     		.2byte	0x205
 5266 08a1 29090000 		.4byte	0x929
 5267 08a5 1E       		.byte	0x1e
 5268 08a6 12       		.uleb128 0x12
 5269 08a7 FC070000 		.4byte	.LASF149
 5270 08ab 02       		.byte	0x2
 5271 08ac 0C02     		.2byte	0x20c
 5272 08ae 29090000 		.4byte	0x929
 5273 08b2 1F       		.byte	0x1f
 5274 08b3 12       		.uleb128 0x12
 5275 08b4 290D0000 		.4byte	.LASF150
 5276 08b8 02       		.byte	0x2
 5277 08b9 1202     		.2byte	0x212
 5278 08bb 29090000 		.4byte	0x929
 5279 08bf 20       		.byte	0x20
 5280 08c0 12       		.uleb128 0x12
 5281 08c1 010E0000 		.4byte	.LASF151
ARM GAS  C:\Users\ikomb\AppData\Local\Temp\cctq3ka9.s 			page 175


 5282 08c5 02       		.byte	0x2
 5283 08c6 1502     		.2byte	0x215
 5284 08c8 AD070000 		.4byte	0x7ad
 5285 08cc 21       		.byte	0x21
 5286 08cd 12       		.uleb128 0x12
 5287 08ce 3C0E0000 		.4byte	.LASF152
 5288 08d2 02       		.byte	0x2
 5289 08d3 1B02     		.2byte	0x21b
 5290 08d5 B8000000 		.4byte	0xb8
 5291 08d9 24       		.byte	0x24
 5292 08da 12       		.uleb128 0x12
 5293 08db 32040000 		.4byte	.LASF153
 5294 08df 02       		.byte	0x2
 5295 08e0 1E02     		.2byte	0x21e
 5296 08e2 AD070000 		.4byte	0x7ad
 5297 08e6 28       		.byte	0x28
 5298 08e7 12       		.uleb128 0x12
 5299 08e8 01070000 		.4byte	.LASF154
 5300 08ec 02       		.byte	0x2
 5301 08ed 2102     		.2byte	0x221
 5302 08ef B8000000 		.4byte	0xb8
 5303 08f3 2C       		.byte	0x2c
 5304 08f4 12       		.uleb128 0x12
 5305 08f5 A0030000 		.4byte	.LASF155
 5306 08f9 02       		.byte	0x2
 5307 08fa 2902     		.2byte	0x229
 5308 08fc B8000000 		.4byte	0xb8
 5309 0900 30       		.byte	0x30
 5310 0901 12       		.uleb128 0x12
 5311 0902 61100000 		.4byte	.LASF156
 5312 0906 02       		.byte	0x2
 5313 0907 2F02     		.2byte	0x22f
 5314 0909 B8000000 		.4byte	0xb8
 5315 090d 34       		.byte	0x34
 5316 090e 12       		.uleb128 0x12
 5317 090f F60C0000 		.4byte	.LASF157
 5318 0913 02       		.byte	0x2
 5319 0914 3702     		.2byte	0x237
 5320 0916 B8000000 		.4byte	0xb8
 5321 091a 38       		.byte	0x38
 5322 091b 12       		.uleb128 0x12
 5323 091c 630E0000 		.4byte	.LASF158
 5324 0920 02       		.byte	0x2
 5325 0921 3D02     		.2byte	0x23d
 5326 0923 B8000000 		.4byte	0xb8
 5327 0927 3C       		.byte	0x3c
 5328 0928 00       		.byte	0
 5329 0929 02       		.uleb128 0x2
 5330 092a 01       		.byte	0x1
 5331 092b 02       		.byte	0x2
 5332 092c AB050000 		.4byte	.LASF159
 5333 0930 0D       		.uleb128 0xd
 5334 0931 0D0E0000 		.4byte	.LASF160
 5335 0935 02       		.byte	0x2
 5336 0936 3E02     		.2byte	0x23e
 5337 0938 D6070000 		.4byte	0x7d6
 5338 093c 17       		.uleb128 0x17
ARM GAS  C:\Users\ikomb\AppData\Local\Temp\cctq3ka9.s 			page 176


 5339 093d 1A040000 		.4byte	.LASF162
 5340 0941 38       		.byte	0x38
 5341 0942 02       		.byte	0x2
 5342 0943 4702     		.2byte	0x247
 5343 0945 000A0000 		.4byte	0xa00
 5344 0949 12       		.uleb128 0x12
 5345 094a 86000000 		.4byte	.LASF163
 5346 094e 02       		.byte	0x2
 5347 094f 4A02     		.2byte	0x24a
 5348 0951 D1000000 		.4byte	0xd1
 5349 0955 00       		.byte	0
 5350 0956 12       		.uleb128 0x12
 5351 0957 34030000 		.4byte	.LASF164
 5352 095b 02       		.byte	0x2
 5353 095c 4B02     		.2byte	0x24b
 5354 095e D1000000 		.4byte	0xd1
 5355 0962 04       		.byte	0x4
 5356 0963 12       		.uleb128 0x12
 5357 0964 BF090000 		.4byte	.LASF165
 5358 0968 02       		.byte	0x2
 5359 0969 4D02     		.2byte	0x24d
 5360 096b A8060000 		.4byte	0x6a8
 5361 096f 08       		.byte	0x8
 5362 0970 12       		.uleb128 0x12
 5363 0971 F8010000 		.4byte	.LASF166
 5364 0975 02       		.byte	0x2
 5365 0976 4E02     		.2byte	0x24e
 5366 0978 B8000000 		.4byte	0xb8
 5367 097c 0C       		.byte	0xc
 5368 097d 12       		.uleb128 0x12
 5369 097e 46090000 		.4byte	.LASF167
 5370 0982 02       		.byte	0x2
 5371 0983 4F02     		.2byte	0x24f
 5372 0985 D1000000 		.4byte	0xd1
 5373 0989 10       		.byte	0x10
 5374 098a 12       		.uleb128 0x12
 5375 098b E3060000 		.4byte	.LASF168
 5376 098f 02       		.byte	0x2
 5377 0990 5002     		.2byte	0x250
 5378 0992 D1000000 		.4byte	0xd1
 5379 0996 14       		.byte	0x14
 5380 0997 12       		.uleb128 0x12
 5381 0998 17050000 		.4byte	.LASF169
 5382 099c 02       		.byte	0x2
 5383 099d 5202     		.2byte	0x252
 5384 099f A8060000 		.4byte	0x6a8
 5385 09a3 18       		.byte	0x18
 5386 09a4 12       		.uleb128 0x12
 5387 09a5 A3100000 		.4byte	.LASF170
 5388 09a9 02       		.byte	0x2
 5389 09aa 5302     		.2byte	0x253
 5390 09ac B8000000 		.4byte	0xb8
 5391 09b0 1C       		.byte	0x1c
 5392 09b1 12       		.uleb128 0x12
 5393 09b2 58070000 		.4byte	.LASF171
 5394 09b6 02       		.byte	0x2
 5395 09b7 5402     		.2byte	0x254
ARM GAS  C:\Users\ikomb\AppData\Local\Temp\cctq3ka9.s 			page 177


 5396 09b9 D1000000 		.4byte	0xd1
 5397 09bd 20       		.byte	0x20
 5398 09be 12       		.uleb128 0x12
 5399 09bf A1090000 		.4byte	.LASF172
 5400 09c3 02       		.byte	0x2
 5401 09c4 5602     		.2byte	0x256
 5402 09c6 A8060000 		.4byte	0x6a8
 5403 09ca 24       		.byte	0x24
 5404 09cb 12       		.uleb128 0x12
 5405 09cc 59090000 		.4byte	.LASF173
 5406 09d0 02       		.byte	0x2
 5407 09d1 5702     		.2byte	0x257
 5408 09d3 B8000000 		.4byte	0xb8
 5409 09d7 28       		.byte	0x28
 5410 09d8 12       		.uleb128 0x12
 5411 09d9 9A0B0000 		.4byte	.LASF174
 5412 09dd 02       		.byte	0x2
 5413 09de 5802     		.2byte	0x258
 5414 09e0 D1000000 		.4byte	0xd1
 5415 09e4 2C       		.byte	0x2c
 5416 09e5 12       		.uleb128 0x12
 5417 09e6 98050000 		.4byte	.LASF175
 5418 09ea 02       		.byte	0x2
 5419 09eb 5D02     		.2byte	0x25d
 5420 09ed B9070000 		.4byte	0x7b9
 5421 09f1 30       		.byte	0x30
 5422 09f2 12       		.uleb128 0x12
 5423 09f3 93070000 		.4byte	.LASF176
 5424 09f7 02       		.byte	0x2
 5425 09f8 6002     		.2byte	0x260
 5426 09fa B8000000 		.4byte	0xb8
 5427 09fe 34       		.byte	0x34
 5428 09ff 00       		.byte	0
 5429 0a00 0D       		.uleb128 0xd
 5430 0a01 8D010000 		.4byte	.LASF177
 5431 0a05 02       		.byte	0x2
 5432 0a06 6302     		.2byte	0x263
 5433 0a08 3C090000 		.4byte	0x93c
 5434 0a0c 18       		.uleb128 0x18
 5435 0a0d 3E040000 		.4byte	.LASF179
 5436 0a11 01       		.byte	0x1
 5437 0a12 4802     		.2byte	0x248
 5438 0a14 B8000000 		.4byte	0xb8
 5439 0a18 00000000 		.4byte	.LFB158
 5440 0a1c 1A000000 		.4byte	.LFE158-.LFB158
 5441 0a20 01       		.uleb128 0x1
 5442 0a21 9C       		.byte	0x9c
 5443 0a22 360A0000 		.4byte	0xa36
 5444 0a26 19       		.uleb128 0x19
 5445 0a27 42000000 		.4byte	.LASF106
 5446 0a2b 01       		.byte	0x1
 5447 0a2c 4802     		.2byte	0x248
 5448 0a2e 360A0000 		.4byte	0xa36
 5449 0a32 02       		.uleb128 0x2
 5450 0a33 91       		.byte	0x91
 5451 0a34 74       		.sleb128 -12
 5452 0a35 00       		.byte	0
ARM GAS  C:\Users\ikomb\AppData\Local\Temp\cctq3ka9.s 			page 178


 5453 0a36 14       		.uleb128 0x14
 5454 0a37 04       		.byte	0x4
 5455 0a38 3C0A0000 		.4byte	0xa3c
 5456 0a3c 06       		.uleb128 0x6
 5457 0a3d D5050000 		.4byte	0x5d5
 5458 0a41 1A       		.uleb128 0x1a
 5459 0a42 720D0000 		.4byte	.LASF181
 5460 0a46 01       		.byte	0x1
 5461 0a47 5C02     		.2byte	0x25c
 5462 0a49 00000000 		.4byte	.LFB159
 5463 0a4d 44000000 		.4byte	.LFE159-.LFB159
 5464 0a51 01       		.uleb128 0x1
 5465 0a52 9C       		.byte	0x9c
 5466 0a53 760A0000 		.4byte	0xa76
 5467 0a57 19       		.uleb128 0x19
 5468 0a58 42000000 		.4byte	.LASF106
 5469 0a5c 01       		.byte	0x1
 5470 0a5d 5C02     		.2byte	0x25c
 5471 0a5f 760A0000 		.4byte	0xa76
 5472 0a63 02       		.uleb128 0x2
 5473 0a64 91       		.byte	0x91
 5474 0a65 74       		.sleb128 -12
 5475 0a66 19       		.uleb128 0x19
 5476 0a67 C5010000 		.4byte	.LASF178
 5477 0a6b 01       		.byte	0x1
 5478 0a6c 5C02     		.2byte	0x25c
 5479 0a6e B8000000 		.4byte	0xb8
 5480 0a72 02       		.uleb128 0x2
 5481 0a73 91       		.byte	0x91
 5482 0a74 70       		.sleb128 -16
 5483 0a75 00       		.byte	0
 5484 0a76 14       		.uleb128 0x14
 5485 0a77 04       		.byte	0x4
 5486 0a78 D5050000 		.4byte	0x5d5
 5487 0a7c 18       		.uleb128 0x18
 5488 0a7d 57030000 		.4byte	.LASF180
 5489 0a81 01       		.byte	0x1
 5490 0a82 7102     		.2byte	0x271
 5491 0a84 B8000000 		.4byte	0xb8
 5492 0a88 00000000 		.4byte	.LFB160
 5493 0a8c 1E000000 		.4byte	.LFE160-.LFB160
 5494 0a90 01       		.uleb128 0x1
 5495 0a91 9C       		.byte	0x9c
 5496 0a92 A60A0000 		.4byte	0xaa6
 5497 0a96 19       		.uleb128 0x19
 5498 0a97 42000000 		.4byte	.LASF106
 5499 0a9b 01       		.byte	0x1
 5500 0a9c 7102     		.2byte	0x271
 5501 0a9e 360A0000 		.4byte	0xa36
 5502 0aa2 02       		.uleb128 0x2
 5503 0aa3 91       		.byte	0x91
 5504 0aa4 74       		.sleb128 -12
 5505 0aa5 00       		.byte	0
 5506 0aa6 1B       		.uleb128 0x1b
 5507 0aa7 00000000 		.4byte	.LASF182
 5508 0aab 01       		.byte	0x1
 5509 0aac AF02     		.2byte	0x2af
ARM GAS  C:\Users\ikomb\AppData\Local\Temp\cctq3ka9.s 			page 179


 5510 0aae 00000000 		.4byte	.LFB163
 5511 0ab2 1E000000 		.4byte	.LFE163-.LFB163
 5512 0ab6 01       		.uleb128 0x1
 5513 0ab7 9C       		.byte	0x9c
 5514 0ab8 DB0A0000 		.4byte	0xadb
 5515 0abc 19       		.uleb128 0x19
 5516 0abd 42000000 		.4byte	.LASF106
 5517 0ac1 01       		.byte	0x1
 5518 0ac2 AF02     		.2byte	0x2af
 5519 0ac4 760A0000 		.4byte	0xa76
 5520 0ac8 02       		.uleb128 0x2
 5521 0ac9 91       		.byte	0x91
 5522 0aca 74       		.sleb128 -12
 5523 0acb 19       		.uleb128 0x19
 5524 0acc 3F070000 		.4byte	.LASF183
 5525 0ad0 01       		.byte	0x1
 5526 0ad1 AF02     		.2byte	0x2af
 5527 0ad3 B8000000 		.4byte	0xb8
 5528 0ad7 02       		.uleb128 0x2
 5529 0ad8 91       		.byte	0x91
 5530 0ad9 70       		.sleb128 -16
 5531 0ada 00       		.byte	0
 5532 0adb 1A       		.uleb128 0x1a
 5533 0adc 61070000 		.4byte	.LASF184
 5534 0ae0 01       		.byte	0x1
 5535 0ae1 C402     		.2byte	0x2c4
 5536 0ae3 00000000 		.4byte	.LFB164
 5537 0ae7 44000000 		.4byte	.LFE164-.LFB164
 5538 0aeb 01       		.uleb128 0x1
 5539 0aec 9C       		.byte	0x9c
 5540 0aed 100B0000 		.4byte	0xb10
 5541 0af1 19       		.uleb128 0x19
 5542 0af2 42000000 		.4byte	.LASF106
 5543 0af6 01       		.byte	0x1
 5544 0af7 C402     		.2byte	0x2c4
 5545 0af9 760A0000 		.4byte	0xa76
 5546 0afd 02       		.uleb128 0x2
 5547 0afe 91       		.byte	0x91
 5548 0aff 74       		.sleb128 -12
 5549 0b00 19       		.uleb128 0x19
 5550 0b01 C5010000 		.4byte	.LASF178
 5551 0b05 01       		.byte	0x1
 5552 0b06 C402     		.2byte	0x2c4
 5553 0b08 B8000000 		.4byte	0xb8
 5554 0b0c 02       		.uleb128 0x2
 5555 0b0d 91       		.byte	0x91
 5556 0b0e 70       		.sleb128 -16
 5557 0b0f 00       		.byte	0
 5558 0b10 18       		.uleb128 0x18
 5559 0b11 03060000 		.4byte	.LASF185
 5560 0b15 01       		.byte	0x1
 5561 0b16 D902     		.2byte	0x2d9
 5562 0b18 B8000000 		.4byte	0xb8
 5563 0b1c 00000000 		.4byte	.LFB165
 5564 0b20 1E000000 		.4byte	.LFE165-.LFB165
 5565 0b24 01       		.uleb128 0x1
 5566 0b25 9C       		.byte	0x9c
ARM GAS  C:\Users\ikomb\AppData\Local\Temp\cctq3ka9.s 			page 180


 5567 0b26 3A0B0000 		.4byte	0xb3a
 5568 0b2a 19       		.uleb128 0x19
 5569 0b2b 42000000 		.4byte	.LASF106
 5570 0b2f 01       		.byte	0x1
 5571 0b30 D902     		.2byte	0x2d9
 5572 0b32 360A0000 		.4byte	0xa36
 5573 0b36 02       		.uleb128 0x2
 5574 0b37 91       		.byte	0x91
 5575 0b38 74       		.sleb128 -12
 5576 0b39 00       		.byte	0
 5577 0b3a 18       		.uleb128 0x18
 5578 0b3b EF090000 		.4byte	.LASF186
 5579 0b3f 01       		.byte	0x1
 5580 0b40 EC02     		.2byte	0x2ec
 5581 0b42 B8000000 		.4byte	0xb8
 5582 0b46 00000000 		.4byte	.LFB166
 5583 0b4a 20000000 		.4byte	.LFE166-.LFB166
 5584 0b4e 01       		.uleb128 0x1
 5585 0b4f 9C       		.byte	0x9c
 5586 0b50 640B0000 		.4byte	0xb64
 5587 0b54 19       		.uleb128 0x19
 5588 0b55 42000000 		.4byte	.LASF106
 5589 0b59 01       		.byte	0x1
 5590 0b5a EC02     		.2byte	0x2ec
 5591 0b5c 360A0000 		.4byte	0xa36
 5592 0b60 02       		.uleb128 0x2
 5593 0b61 91       		.byte	0x91
 5594 0b62 74       		.sleb128 -12
 5595 0b63 00       		.byte	0
 5596 0b64 1C       		.uleb128 0x1c
 5597 0b65 2B070000 		.4byte	.LASF187
 5598 0b69 01       		.byte	0x1
 5599 0b6a FF02     		.2byte	0x2ff
 5600 0b6c 29090000 		.4byte	0x929
 5601 0b70 00000000 		.4byte	.LFB167
 5602 0b74 2C000000 		.4byte	.LFE167-.LFB167
 5603 0b78 01       		.uleb128 0x1
 5604 0b79 9C       		.byte	0x9c
 5605 0b7a 8E0B0000 		.4byte	0xb8e
 5606 0b7e 19       		.uleb128 0x19
 5607 0b7f 42000000 		.4byte	.LASF106
 5608 0b83 01       		.byte	0x1
 5609 0b84 FF02     		.2byte	0x2ff
 5610 0b86 360A0000 		.4byte	0xa36
 5611 0b8a 02       		.uleb128 0x2
 5612 0b8b 91       		.byte	0x91
 5613 0b8c 6C       		.sleb128 -20
 5614 0b8d 00       		.byte	0
 5615 0b8e 1B       		.uleb128 0x1b
 5616 0b8f DD020000 		.4byte	.LASF188
 5617 0b93 01       		.byte	0x1
 5618 0b94 1403     		.2byte	0x314
 5619 0b96 00000000 		.4byte	.LFB168
 5620 0b9a 3A000000 		.4byte	.LFE168-.LFB168
 5621 0b9e 01       		.uleb128 0x1
 5622 0b9f 9C       		.byte	0x9c
 5623 0ba0 B40B0000 		.4byte	0xbb4
ARM GAS  C:\Users\ikomb\AppData\Local\Temp\cctq3ka9.s 			page 181


 5624 0ba4 19       		.uleb128 0x19
 5625 0ba5 42000000 		.4byte	.LASF106
 5626 0ba9 01       		.byte	0x1
 5627 0baa 1403     		.2byte	0x314
 5628 0bac 760A0000 		.4byte	0xa76
 5629 0bb0 02       		.uleb128 0x2
 5630 0bb1 91       		.byte	0x91
 5631 0bb2 74       		.sleb128 -12
 5632 0bb3 00       		.byte	0
 5633 0bb4 18       		.uleb128 0x18
 5634 0bb5 CF080000 		.4byte	.LASF189
 5635 0bb9 01       		.byte	0x1
 5636 0bba 4A03     		.2byte	0x34a
 5637 0bbc B8000000 		.4byte	0xb8
 5638 0bc0 00000000 		.4byte	.LFB170
 5639 0bc4 1A000000 		.4byte	.LFE170-.LFB170
 5640 0bc8 01       		.uleb128 0x1
 5641 0bc9 9C       		.byte	0x9c
 5642 0bca DE0B0000 		.4byte	0xbde
 5643 0bce 19       		.uleb128 0x19
 5644 0bcf 42000000 		.4byte	.LASF106
 5645 0bd3 01       		.byte	0x1
 5646 0bd4 4A03     		.2byte	0x34a
 5647 0bd6 360A0000 		.4byte	0xa36
 5648 0bda 02       		.uleb128 0x2
 5649 0bdb 91       		.byte	0x91
 5650 0bdc 74       		.sleb128 -12
 5651 0bdd 00       		.byte	0
 5652 0bde 1A       		.uleb128 0x1a
 5653 0bdf D50B0000 		.4byte	.LASF190
 5654 0be3 01       		.byte	0x1
 5655 0be4 7603     		.2byte	0x376
 5656 0be6 00000000 		.4byte	.LFB172
 5657 0bea 38000000 		.4byte	.LFE172-.LFB172
 5658 0bee 01       		.uleb128 0x1
 5659 0bef 9C       		.byte	0x9c
 5660 0bf0 130C0000 		.4byte	0xc13
 5661 0bf4 19       		.uleb128 0x19
 5662 0bf5 42000000 		.4byte	.LASF106
 5663 0bf9 01       		.byte	0x1
 5664 0bfa 7603     		.2byte	0x376
 5665 0bfc 760A0000 		.4byte	0xa76
 5666 0c00 02       		.uleb128 0x2
 5667 0c01 91       		.byte	0x91
 5668 0c02 74       		.sleb128 -12
 5669 0c03 19       		.uleb128 0x19
 5670 0c04 42100000 		.4byte	.LASF191
 5671 0c08 01       		.byte	0x1
 5672 0c09 7603     		.2byte	0x376
 5673 0c0b B8000000 		.4byte	0xb8
 5674 0c0f 02       		.uleb128 0x2
 5675 0c10 91       		.byte	0x91
 5676 0c11 70       		.sleb128 -16
 5677 0c12 00       		.byte	0
 5678 0c13 18       		.uleb128 0x18
 5679 0c14 F5040000 		.4byte	.LASF192
 5680 0c18 01       		.byte	0x1
ARM GAS  C:\Users\ikomb\AppData\Local\Temp\cctq3ka9.s 			page 182


 5681 0c19 A503     		.2byte	0x3a5
 5682 0c1b B8000000 		.4byte	0xb8
 5683 0c1f 00000000 		.4byte	.LFB174
 5684 0c23 1A000000 		.4byte	.LFE174-.LFB174
 5685 0c27 01       		.uleb128 0x1
 5686 0c28 9C       		.byte	0x9c
 5687 0c29 3D0C0000 		.4byte	0xc3d
 5688 0c2d 19       		.uleb128 0x19
 5689 0c2e 42000000 		.4byte	.LASF106
 5690 0c32 01       		.byte	0x1
 5691 0c33 A503     		.2byte	0x3a5
 5692 0c35 360A0000 		.4byte	0xa36
 5693 0c39 02       		.uleb128 0x2
 5694 0c3a 91       		.byte	0x91
 5695 0c3b 74       		.sleb128 -12
 5696 0c3c 00       		.byte	0
 5697 0c3d 1A       		.uleb128 0x1a
 5698 0c3e A7090000 		.4byte	.LASF193
 5699 0c42 01       		.byte	0x1
 5700 0c43 C103     		.2byte	0x3c1
 5701 0c45 00000000 		.4byte	.LFB175
 5702 0c49 3C000000 		.4byte	.LFE175-.LFB175
 5703 0c4d 01       		.uleb128 0x1
 5704 0c4e 9C       		.byte	0x9c
 5705 0c4f 720C0000 		.4byte	0xc72
 5706 0c53 19       		.uleb128 0x19
 5707 0c54 42000000 		.4byte	.LASF106
 5708 0c58 01       		.byte	0x1
 5709 0c59 C103     		.2byte	0x3c1
 5710 0c5b 760A0000 		.4byte	0xa76
 5711 0c5f 02       		.uleb128 0x2
 5712 0c60 91       		.byte	0x91
 5713 0c61 74       		.sleb128 -12
 5714 0c62 19       		.uleb128 0x19
 5715 0c63 42100000 		.4byte	.LASF191
 5716 0c67 01       		.byte	0x1
 5717 0c68 C103     		.2byte	0x3c1
 5718 0c6a B8000000 		.4byte	0xb8
 5719 0c6e 02       		.uleb128 0x2
 5720 0c6f 91       		.byte	0x91
 5721 0c70 70       		.sleb128 -16
 5722 0c71 00       		.byte	0
 5723 0c72 18       		.uleb128 0x18
 5724 0c73 C1070000 		.4byte	.LASF194
 5725 0c77 01       		.byte	0x1
 5726 0c78 F103     		.2byte	0x3f1
 5727 0c7a B8000000 		.4byte	0xb8
 5728 0c7e 00000000 		.4byte	.LFB177
 5729 0c82 20000000 		.4byte	.LFE177-.LFB177
 5730 0c86 01       		.uleb128 0x1
 5731 0c87 9C       		.byte	0x9c
 5732 0c88 9C0C0000 		.4byte	0xc9c
 5733 0c8c 19       		.uleb128 0x19
 5734 0c8d 42000000 		.4byte	.LASF106
 5735 0c91 01       		.byte	0x1
 5736 0c92 F103     		.2byte	0x3f1
 5737 0c94 360A0000 		.4byte	0xa36
ARM GAS  C:\Users\ikomb\AppData\Local\Temp\cctq3ka9.s 			page 183


 5738 0c98 02       		.uleb128 0x2
 5739 0c99 91       		.byte	0x91
 5740 0c9a 74       		.sleb128 -12
 5741 0c9b 00       		.byte	0
 5742 0c9c 1A       		.uleb128 0x1a
 5743 0c9d 3C0B0000 		.4byte	.LASF195
 5744 0ca1 01       		.byte	0x1
 5745 0ca2 0604     		.2byte	0x406
 5746 0ca4 00000000 		.4byte	.LFB178
 5747 0ca8 38000000 		.4byte	.LFE178-.LFB178
 5748 0cac 01       		.uleb128 0x1
 5749 0cad 9C       		.byte	0x9c
 5750 0cae D10C0000 		.4byte	0xcd1
 5751 0cb2 19       		.uleb128 0x19
 5752 0cb3 42000000 		.4byte	.LASF106
 5753 0cb7 01       		.byte	0x1
 5754 0cb8 0604     		.2byte	0x406
 5755 0cba 760A0000 		.4byte	0xa76
 5756 0cbe 02       		.uleb128 0x2
 5757 0cbf 91       		.byte	0x91
 5758 0cc0 74       		.sleb128 -12
 5759 0cc1 19       		.uleb128 0x19
 5760 0cc2 42100000 		.4byte	.LASF191
 5761 0cc6 01       		.byte	0x1
 5762 0cc7 0604     		.2byte	0x406
 5763 0cc9 B8000000 		.4byte	0xb8
 5764 0ccd 02       		.uleb128 0x2
 5765 0cce 91       		.byte	0x91
 5766 0ccf 70       		.sleb128 -16
 5767 0cd0 00       		.byte	0
 5768 0cd1 18       		.uleb128 0x18
 5769 0cd2 D5000000 		.4byte	.LASF196
 5770 0cd6 01       		.byte	0x1
 5771 0cd7 1D04     		.2byte	0x41d
 5772 0cd9 B8000000 		.4byte	0xb8
 5773 0cdd 00000000 		.4byte	.LFB179
 5774 0ce1 1A000000 		.4byte	.LFE179-.LFB179
 5775 0ce5 01       		.uleb128 0x1
 5776 0ce6 9C       		.byte	0x9c
 5777 0ce7 FB0C0000 		.4byte	0xcfb
 5778 0ceb 19       		.uleb128 0x19
 5779 0cec 42000000 		.4byte	.LASF106
 5780 0cf0 01       		.byte	0x1
 5781 0cf1 1D04     		.2byte	0x41d
 5782 0cf3 360A0000 		.4byte	0xa36
 5783 0cf7 02       		.uleb128 0x2
 5784 0cf8 91       		.byte	0x91
 5785 0cf9 74       		.sleb128 -12
 5786 0cfa 00       		.byte	0
 5787 0cfb 18       		.uleb128 0x18
 5788 0cfc F6000000 		.4byte	.LASF197
 5789 0d00 01       		.byte	0x1
 5790 0d01 3504     		.2byte	0x435
 5791 0d03 B8000000 		.4byte	0xb8
 5792 0d07 00000000 		.4byte	.LFB180
 5793 0d0b 1A000000 		.4byte	.LFE180-.LFB180
 5794 0d0f 01       		.uleb128 0x1
ARM GAS  C:\Users\ikomb\AppData\Local\Temp\cctq3ka9.s 			page 184


 5795 0d10 9C       		.byte	0x9c
 5796 0d11 250D0000 		.4byte	0xd25
 5797 0d15 19       		.uleb128 0x19
 5798 0d16 42000000 		.4byte	.LASF106
 5799 0d1a 01       		.byte	0x1
 5800 0d1b 3504     		.2byte	0x435
 5801 0d1d 360A0000 		.4byte	0xa36
 5802 0d21 02       		.uleb128 0x2
 5803 0d22 91       		.byte	0x91
 5804 0d23 74       		.sleb128 -12
 5805 0d24 00       		.byte	0
 5806 0d25 1A       		.uleb128 0x1a
 5807 0d26 B1050000 		.4byte	.LASF198
 5808 0d2a 01       		.byte	0x1
 5809 0d2b 5304     		.2byte	0x453
 5810 0d2d 00000000 		.4byte	.LFB181
 5811 0d31 3C000000 		.4byte	.LFE181-.LFB181
 5812 0d35 01       		.uleb128 0x1
 5813 0d36 9C       		.byte	0x9c
 5814 0d37 5A0D0000 		.4byte	0xd5a
 5815 0d3b 19       		.uleb128 0x19
 5816 0d3c 42000000 		.4byte	.LASF106
 5817 0d40 01       		.byte	0x1
 5818 0d41 5304     		.2byte	0x453
 5819 0d43 760A0000 		.4byte	0xa76
 5820 0d47 02       		.uleb128 0x2
 5821 0d48 91       		.byte	0x91
 5822 0d49 74       		.sleb128 -12
 5823 0d4a 19       		.uleb128 0x19
 5824 0d4b 42100000 		.4byte	.LASF191
 5825 0d4f 01       		.byte	0x1
 5826 0d50 5304     		.2byte	0x453
 5827 0d52 B8000000 		.4byte	0xb8
 5828 0d56 02       		.uleb128 0x2
 5829 0d57 91       		.byte	0x91
 5830 0d58 70       		.sleb128 -16
 5831 0d59 00       		.byte	0
 5832 0d5a 18       		.uleb128 0x18
 5833 0d5b A7010000 		.4byte	.LASF199
 5834 0d5f 01       		.byte	0x1
 5835 0d60 7606     		.2byte	0x676
 5836 0d62 B8000000 		.4byte	0xb8
 5837 0d66 00000000 		.4byte	.LFB205
 5838 0d6a 26000000 		.4byte	.LFE205-.LFB205
 5839 0d6e 01       		.uleb128 0x1
 5840 0d6f 9C       		.byte	0x9c
 5841 0d70 840D0000 		.4byte	0xd84
 5842 0d74 19       		.uleb128 0x19
 5843 0d75 42000000 		.4byte	.LASF106
 5844 0d79 01       		.byte	0x1
 5845 0d7a 7606     		.2byte	0x676
 5846 0d7c 360A0000 		.4byte	0xa36
 5847 0d80 02       		.uleb128 0x2
 5848 0d81 91       		.byte	0x91
 5849 0d82 74       		.sleb128 -12
 5850 0d83 00       		.byte	0
 5851 0d84 18       		.uleb128 0x18
ARM GAS  C:\Users\ikomb\AppData\Local\Temp\cctq3ka9.s 			page 185


 5852 0d85 230B0000 		.4byte	.LASF200
 5853 0d89 01       		.byte	0x1
 5854 0d8a 8A06     		.2byte	0x68a
 5855 0d8c 29090000 		.4byte	0x929
 5856 0d90 00000000 		.4byte	.LFB206
 5857 0d94 28000000 		.4byte	.LFE206-.LFB206
 5858 0d98 01       		.uleb128 0x1
 5859 0d99 9C       		.byte	0x9c
 5860 0d9a AE0D0000 		.4byte	0xdae
 5861 0d9e 19       		.uleb128 0x19
 5862 0d9f 42000000 		.4byte	.LASF106
 5863 0da3 01       		.byte	0x1
 5864 0da4 8A06     		.2byte	0x68a
 5865 0da6 360A0000 		.4byte	0xa36
 5866 0daa 02       		.uleb128 0x2
 5867 0dab 91       		.byte	0x91
 5868 0dac 74       		.sleb128 -12
 5869 0dad 00       		.byte	0
 5870 0dae 18       		.uleb128 0x18
 5871 0daf 87030000 		.4byte	.LASF201
 5872 0db3 01       		.byte	0x1
 5873 0db4 9D06     		.2byte	0x69d
 5874 0db6 29090000 		.4byte	0x929
 5875 0dba 00000000 		.4byte	.LFB207
 5876 0dbe 28000000 		.4byte	.LFE207-.LFB207
 5877 0dc2 01       		.uleb128 0x1
 5878 0dc3 9C       		.byte	0x9c
 5879 0dc4 D80D0000 		.4byte	0xdd8
 5880 0dc8 19       		.uleb128 0x19
 5881 0dc9 42000000 		.4byte	.LASF106
 5882 0dcd 01       		.byte	0x1
 5883 0dce 9D06     		.2byte	0x69d
 5884 0dd0 360A0000 		.4byte	0xa36
 5885 0dd4 02       		.uleb128 0x2
 5886 0dd5 91       		.byte	0x91
 5887 0dd6 74       		.sleb128 -12
 5888 0dd7 00       		.byte	0
 5889 0dd8 1B       		.uleb128 0x1b
 5890 0dd9 B90A0000 		.4byte	.LASF202
 5891 0ddd 02       		.byte	0x2
 5892 0dde D003     		.2byte	0x3d0
 5893 0de0 00000000 		.4byte	.LFB210
 5894 0de4 20000000 		.4byte	.LFE210-.LFB210
 5895 0de8 01       		.uleb128 0x1
 5896 0de9 9C       		.byte	0x9c
 5897 0dea FE0D0000 		.4byte	0xdfe
 5898 0dee 19       		.uleb128 0x19
 5899 0def 42000000 		.4byte	.LASF106
 5900 0df3 02       		.byte	0x2
 5901 0df4 D003     		.2byte	0x3d0
 5902 0df6 760A0000 		.4byte	0xa76
 5903 0dfa 02       		.uleb128 0x2
 5904 0dfb 91       		.byte	0x91
 5905 0dfc 74       		.sleb128 -12
 5906 0dfd 00       		.byte	0
 5907 0dfe 1C       		.uleb128 0x1c
 5908 0dff 460C0000 		.4byte	.LASF203
ARM GAS  C:\Users\ikomb\AppData\Local\Temp\cctq3ka9.s 			page 186


 5909 0e03 02       		.byte	0x2
 5910 0e04 7E04     		.2byte	0x47e
 5911 0e06 B8000000 		.4byte	0xb8
 5912 0e0a 00000000 		.4byte	.LFB218
 5913 0e0e 3C000000 		.4byte	.LFE218-.LFB218
 5914 0e12 01       		.uleb128 0x1
 5915 0e13 9C       		.byte	0x9c
 5916 0e14 460E0000 		.4byte	0xe46
 5917 0e18 19       		.uleb128 0x19
 5918 0e19 42000000 		.4byte	.LASF106
 5919 0e1d 02       		.byte	0x2
 5920 0e1e 7E04     		.2byte	0x47e
 5921 0e20 360A0000 		.4byte	0xa36
 5922 0e24 02       		.uleb128 0x2
 5923 0e25 91       		.byte	0x91
 5924 0e26 74       		.sleb128 -12
 5925 0e27 19       		.uleb128 0x19
 5926 0e28 EF000000 		.4byte	.LASF204
 5927 0e2c 02       		.byte	0x2
 5928 0e2d 7E04     		.2byte	0x47e
 5929 0e2f A8060000 		.4byte	0x6a8
 5930 0e33 02       		.uleb128 0x2
 5931 0e34 91       		.byte	0x91
 5932 0e35 70       		.sleb128 -16
 5933 0e36 19       		.uleb128 0x19
 5934 0e37 54090000 		.4byte	.LASF205
 5935 0e3b 02       		.byte	0x2
 5936 0e3c 7E04     		.2byte	0x47e
 5937 0e3e B8000000 		.4byte	0xb8
 5938 0e42 02       		.uleb128 0x2
 5939 0e43 91       		.byte	0x91
 5940 0e44 6C       		.sleb128 -20
 5941 0e45 00       		.byte	0
 5942 0e46 1C       		.uleb128 0x1c
 5943 0e47 DB0C0000 		.4byte	.LASF206
 5944 0e4b 02       		.byte	0x2
 5945 0e4c E104     		.2byte	0x4e1
 5946 0e4e B8000000 		.4byte	0xb8
 5947 0e52 00000000 		.4byte	.LFB222
 5948 0e56 18000000 		.4byte	.LFE222-.LFB222
 5949 0e5a 01       		.uleb128 0x1
 5950 0e5b 9C       		.byte	0x9c
 5951 0e5c 700E0000 		.4byte	0xe70
 5952 0e60 19       		.uleb128 0x19
 5953 0e61 42000000 		.4byte	.LASF106
 5954 0e65 02       		.byte	0x2
 5955 0e66 E104     		.2byte	0x4e1
 5956 0e68 360A0000 		.4byte	0xa36
 5957 0e6c 02       		.uleb128 0x2
 5958 0e6d 91       		.byte	0x91
 5959 0e6e 74       		.sleb128 -12
 5960 0e6f 00       		.byte	0
 5961 0e70 1C       		.uleb128 0x1c
 5962 0e71 14100000 		.4byte	.LASF207
 5963 0e75 02       		.byte	0x2
 5964 0e76 2A05     		.2byte	0x52a
 5965 0e78 B8000000 		.4byte	0xb8
ARM GAS  C:\Users\ikomb\AppData\Local\Temp\cctq3ka9.s 			page 187


 5966 0e7c 00000000 		.4byte	.LFB225
 5967 0e80 3C000000 		.4byte	.LFE225-.LFB225
 5968 0e84 01       		.uleb128 0x1
 5969 0e85 9C       		.byte	0x9c
 5970 0e86 B80E0000 		.4byte	0xeb8
 5971 0e8a 19       		.uleb128 0x19
 5972 0e8b 42000000 		.4byte	.LASF106
 5973 0e8f 02       		.byte	0x2
 5974 0e90 2A05     		.2byte	0x52a
 5975 0e92 760A0000 		.4byte	0xa76
 5976 0e96 02       		.uleb128 0x2
 5977 0e97 91       		.byte	0x91
 5978 0e98 74       		.sleb128 -12
 5979 0e99 19       		.uleb128 0x19
 5980 0e9a EF000000 		.4byte	.LASF204
 5981 0e9e 02       		.byte	0x2
 5982 0e9f 2A05     		.2byte	0x52a
 5983 0ea1 A8060000 		.4byte	0x6a8
 5984 0ea5 02       		.uleb128 0x2
 5985 0ea6 91       		.byte	0x91
 5986 0ea7 70       		.sleb128 -16
 5987 0ea8 19       		.uleb128 0x19
 5988 0ea9 54090000 		.4byte	.LASF205
 5989 0ead 02       		.byte	0x2
 5990 0eae 2A05     		.2byte	0x52a
 5991 0eb0 B8000000 		.4byte	0xb8
 5992 0eb4 02       		.uleb128 0x2
 5993 0eb5 91       		.byte	0x91
 5994 0eb6 6C       		.sleb128 -20
 5995 0eb7 00       		.byte	0
 5996 0eb8 1C       		.uleb128 0x1c
 5997 0eb9 81040000 		.4byte	.LASF208
 5998 0ebd 02       		.byte	0x2
 5999 0ebe B905     		.2byte	0x5b9
 6000 0ec0 29090000 		.4byte	0x929
 6001 0ec4 00000000 		.4byte	.LFB231
 6002 0ec8 18000000 		.4byte	.LFE231-.LFB231
 6003 0ecc 01       		.uleb128 0x1
 6004 0ecd 9C       		.byte	0x9c
 6005 0ece E20E0000 		.4byte	0xee2
 6006 0ed2 19       		.uleb128 0x19
 6007 0ed3 42000000 		.4byte	.LASF106
 6008 0ed7 02       		.byte	0x2
 6009 0ed8 B905     		.2byte	0x5b9
 6010 0eda 360A0000 		.4byte	0xa36
 6011 0ede 02       		.uleb128 0x2
 6012 0edf 91       		.byte	0x91
 6013 0ee0 74       		.sleb128 -12
 6014 0ee1 00       		.byte	0
 6015 0ee2 1A       		.uleb128 0x1a
 6016 0ee3 0B0B0000 		.4byte	.LASF209
 6017 0ee7 02       		.byte	0x2
 6018 0ee8 CF05     		.2byte	0x5cf
 6019 0eea 00000000 		.4byte	.LFB232
 6020 0eee 16000000 		.4byte	.LFE232-.LFB232
 6021 0ef2 01       		.uleb128 0x1
 6022 0ef3 9C       		.byte	0x9c
ARM GAS  C:\Users\ikomb\AppData\Local\Temp\cctq3ka9.s 			page 188


 6023 0ef4 080F0000 		.4byte	0xf08
 6024 0ef8 19       		.uleb128 0x19
 6025 0ef9 42000000 		.4byte	.LASF106
 6026 0efd 02       		.byte	0x2
 6027 0efe CF05     		.2byte	0x5cf
 6028 0f00 760A0000 		.4byte	0xa76
 6029 0f04 02       		.uleb128 0x2
 6030 0f05 91       		.byte	0x91
 6031 0f06 74       		.sleb128 -12
 6032 0f07 00       		.byte	0
 6033 0f08 1D       		.uleb128 0x1d
 6034 0f09 FF0E0000 		.4byte	.LASF213
 6035 0f0d 03       		.byte	0x3
 6036 0f0e 36       		.byte	0x36
 6037 0f0f EB060000 		.4byte	0x6eb
 6038 0f13 00000000 		.4byte	.LFB234
 6039 0f17 F0040000 		.4byte	.LFE234-.LFB234
 6040 0f1b 01       		.uleb128 0x1
 6041 0f1c 9C       		.byte	0x9c
 6042 0f1d 5A0F0000 		.4byte	0xf5a
 6043 0f21 1E       		.uleb128 0x1e
 6044 0f22 42000000 		.4byte	.LASF106
 6045 0f26 03       		.byte	0x3
 6046 0f27 36       		.byte	0x36
 6047 0f28 760A0000 		.4byte	0xa76
 6048 0f2c 02       		.uleb128 0x2
 6049 0f2d 91       		.byte	0x91
 6050 0f2e 64       		.sleb128 -28
 6051 0f2f 1E       		.uleb128 0x1e
 6052 0f30 3B0A0000 		.4byte	.LASF210
 6053 0f34 03       		.byte	0x3
 6054 0f35 36       		.byte	0x36
 6055 0f36 5A0F0000 		.4byte	0xf5a
 6056 0f3a 02       		.uleb128 0x2
 6057 0f3b 91       		.byte	0x91
 6058 0f3c 60       		.sleb128 -32
 6059 0f3d 1E       		.uleb128 0x1e
 6060 0f3e 5C080000 		.4byte	.LASF107
 6061 0f42 03       		.byte	0x3
 6062 0f43 36       		.byte	0x36
 6063 0f44 650F0000 		.4byte	0xf65
 6064 0f48 02       		.uleb128 0x2
 6065 0f49 91       		.byte	0x91
 6066 0f4a 5C       		.sleb128 -36
 6067 0f4b 1F       		.uleb128 0x1f
 6068 0f4c 6F767300 		.ascii	"ovs\000"
 6069 0f50 03       		.byte	0x3
 6070 0f51 52       		.byte	0x52
 6071 0f52 B8000000 		.4byte	0xb8
 6072 0f56 02       		.uleb128 0x2
 6073 0f57 91       		.byte	0x91
 6074 0f58 6C       		.sleb128 -20
 6075 0f59 00       		.byte	0
 6076 0f5a 14       		.uleb128 0x14
 6077 0f5b 04       		.byte	0x4
 6078 0f5c 600F0000 		.4byte	0xf60
 6079 0f60 06       		.uleb128 0x6
ARM GAS  C:\Users\ikomb\AppData\Local\Temp\cctq3ka9.s 			page 189


 6080 0f61 30090000 		.4byte	0x930
 6081 0f65 14       		.uleb128 0x14
 6082 0f66 04       		.byte	0x4
 6083 0f67 000A0000 		.4byte	0xa00
 6084 0f6b 20       		.uleb128 0x20
 6085 0f6c 8A0E0000 		.4byte	.LASF211
 6086 0f70 03       		.byte	0x3
 6087 0f71 BE       		.byte	0xbe
 6088 0f72 00000000 		.4byte	.LFB235
 6089 0f76 94000000 		.4byte	.LFE235-.LFB235
 6090 0f7a 01       		.uleb128 0x1
 6091 0f7b 9C       		.byte	0x9c
 6092 0f7c 8F0F0000 		.4byte	0xf8f
 6093 0f80 1E       		.uleb128 0x1e
 6094 0f81 42000000 		.4byte	.LASF106
 6095 0f85 03       		.byte	0x3
 6096 0f86 BE       		.byte	0xbe
 6097 0f87 760A0000 		.4byte	0xa76
 6098 0f8b 02       		.uleb128 0x2
 6099 0f8c 91       		.byte	0x91
 6100 0f8d 74       		.sleb128 -12
 6101 0f8e 00       		.byte	0
 6102 0f8f 20       		.uleb128 0x20
 6103 0f90 2E050000 		.4byte	.LASF212
 6104 0f94 03       		.byte	0x3
 6105 0f95 F8       		.byte	0xf8
 6106 0f96 00000000 		.4byte	.LFB236
 6107 0f9a 40000000 		.4byte	.LFE236-.LFB236
 6108 0f9e 01       		.uleb128 0x1
 6109 0f9f 9C       		.byte	0x9c
 6110 0fa0 C10F0000 		.4byte	0xfc1
 6111 0fa4 1E       		.uleb128 0x1e
 6112 0fa5 42000000 		.4byte	.LASF106
 6113 0fa9 03       		.byte	0x3
 6114 0faa F8       		.byte	0xf8
 6115 0fab 760A0000 		.4byte	0xa76
 6116 0faf 02       		.uleb128 0x2
 6117 0fb0 91       		.byte	0x91
 6118 0fb1 74       		.sleb128 -12
 6119 0fb2 1E       		.uleb128 0x1e
 6120 0fb3 5C080000 		.4byte	.LASF107
 6121 0fb7 03       		.byte	0x3
 6122 0fb8 F8       		.byte	0xf8
 6123 0fb9 650F0000 		.4byte	0xf65
 6124 0fbd 02       		.uleb128 0x2
 6125 0fbe 91       		.byte	0x91
 6126 0fbf 70       		.sleb128 -16
 6127 0fc0 00       		.byte	0
 6128 0fc1 21       		.uleb128 0x21
 6129 0fc2 E8080000 		.4byte	.LASF214
 6130 0fc6 03       		.byte	0x3
 6131 0fc7 2001     		.2byte	0x120
 6132 0fc9 39060000 		.4byte	0x639
 6133 0fcd 00000000 		.4byte	.LFB237
 6134 0fd1 C0000000 		.4byte	.LFE237-.LFB237
 6135 0fd5 01       		.uleb128 0x1
 6136 0fd6 9C       		.byte	0x9c
ARM GAS  C:\Users\ikomb\AppData\Local\Temp\cctq3ka9.s 			page 190


 6137 0fd7 18100000 		.4byte	0x1018
 6138 0fdb 19       		.uleb128 0x19
 6139 0fdc 06090000 		.4byte	.LASF215
 6140 0fe0 03       		.byte	0x3
 6141 0fe1 2001     		.2byte	0x120
 6142 0fe3 B6060000 		.4byte	0x6b6
 6143 0fe7 02       		.uleb128 0x2
 6144 0fe8 91       		.byte	0x91
 6145 0fe9 64       		.sleb128 -28
 6146 0fea 22       		.uleb128 0x22
 6147 0feb 420A0000 		.4byte	.LASF216
 6148 0fef 03       		.byte	0x3
 6149 0ff0 2201     		.2byte	0x122
 6150 0ff2 39060000 		.4byte	0x639
 6151 0ff6 02       		.uleb128 0x2
 6152 0ff7 91       		.byte	0x91
 6153 0ff8 74       		.sleb128 -12
 6154 0ff9 22       		.uleb128 0x22
 6155 0ffa 330A0000 		.4byte	.LASF217
 6156 0ffe 03       		.byte	0x3
 6157 0fff 2401     		.2byte	0x124
 6158 1001 760A0000 		.4byte	0xa76
 6159 1005 02       		.uleb128 0x2
 6160 1006 91       		.byte	0x91
 6161 1007 70       		.sleb128 -16
 6162 1008 22       		.uleb128 0x22
 6163 1009 1E0D0000 		.4byte	.LASF218
 6164 100d 03       		.byte	0x3
 6165 100e 2501     		.2byte	0x125
 6166 1010 650F0000 		.4byte	0xf65
 6167 1014 02       		.uleb128 0x2
 6168 1015 91       		.byte	0x91
 6169 1016 6C       		.sleb128 -20
 6170 1017 00       		.byte	0
 6171 1018 21       		.uleb128 0x21
 6172 1019 E10E0000 		.4byte	.LASF219
 6173 101d 03       		.byte	0x3
 6174 101e 8401     		.2byte	0x184
 6175 1020 39060000 		.4byte	0x639
 6176 1024 00000000 		.4byte	.LFB238
 6177 1028 18000000 		.4byte	.LFE238-.LFB238
 6178 102c 01       		.uleb128 0x1
 6179 102d 9C       		.byte	0x9c
 6180 102e 42100000 		.4byte	0x1042
 6181 1032 19       		.uleb128 0x19
 6182 1033 06090000 		.4byte	.LASF215
 6183 1037 03       		.byte	0x3
 6184 1038 8401     		.2byte	0x184
 6185 103a B6060000 		.4byte	0x6b6
 6186 103e 02       		.uleb128 0x2
 6187 103f 91       		.byte	0x91
 6188 1040 74       		.sleb128 -12
 6189 1041 00       		.byte	0
 6190 1042 23       		.uleb128 0x23
 6191 1043 5B000000 		.4byte	.LASF220
 6192 1047 03       		.byte	0x3
 6193 1048 B401     		.2byte	0x1b4
ARM GAS  C:\Users\ikomb\AppData\Local\Temp\cctq3ka9.s 			page 191


 6194 104a 00000000 		.4byte	.LFB239
 6195 104e AC000000 		.4byte	.LFE239-.LFB239
 6196 1052 01       		.uleb128 0x1
 6197 1053 9C       		.byte	0x9c
 6198 1054 AE100000 		.4byte	0x10ae
 6199 1058 19       		.uleb128 0x19
 6200 1059 42000000 		.4byte	.LASF106
 6201 105d 03       		.byte	0x3
 6202 105e B401     		.2byte	0x1b4
 6203 1060 760A0000 		.4byte	0xa76
 6204 1064 02       		.uleb128 0x2
 6205 1065 91       		.byte	0x91
 6206 1066 6C       		.sleb128 -20
 6207 1067 19       		.uleb128 0x19
 6208 1068 EF000000 		.4byte	.LASF204
 6209 106c 03       		.byte	0x3
 6210 106d B401     		.2byte	0x1b4
 6211 106f A8060000 		.4byte	0x6a8
 6212 1073 02       		.uleb128 0x2
 6213 1074 91       		.byte	0x91
 6214 1075 68       		.sleb128 -24
 6215 1076 19       		.uleb128 0x19
 6216 1077 54090000 		.4byte	.LASF205
 6217 107b 03       		.byte	0x3
 6218 107c B401     		.2byte	0x1b4
 6219 107e B8000000 		.4byte	0xb8
 6220 1082 02       		.uleb128 0x2
 6221 1083 91       		.byte	0x91
 6222 1084 64       		.sleb128 -28
 6223 1085 19       		.uleb128 0x19
 6224 1086 5C080000 		.4byte	.LASF107
 6225 108a 03       		.byte	0x3
 6226 108b B401     		.2byte	0x1b4
 6227 108d 650F0000 		.4byte	0xf65
 6228 1091 02       		.uleb128 0x2
 6229 1092 91       		.byte	0x91
 6230 1093 60       		.sleb128 -32
 6231 1094 24       		.uleb128 0x24
 6232 1095 54000000 		.4byte	.LBB2
 6233 1099 46000000 		.4byte	.LBE2-.LBB2
 6234 109d 22       		.uleb128 0x22
 6235 109e C0060000 		.4byte	.LASF221
 6236 10a2 03       		.byte	0x3
 6237 10a3 BC01     		.2byte	0x1bc
 6238 10a5 B8000000 		.4byte	0xb8
 6239 10a9 02       		.uleb128 0x2
 6240 10aa 91       		.byte	0x91
 6241 10ab 74       		.sleb128 -12
 6242 10ac 00       		.byte	0
 6243 10ad 00       		.byte	0
 6244 10ae 23       		.uleb128 0x23
 6245 10af 100F0000 		.4byte	.LASF222
 6246 10b3 03       		.byte	0x3
 6247 10b4 DB01     		.2byte	0x1db
 6248 10b6 00000000 		.4byte	.LFB240
 6249 10ba 2E000000 		.4byte	.LFE240-.LFB240
 6250 10be 01       		.uleb128 0x1
ARM GAS  C:\Users\ikomb\AppData\Local\Temp\cctq3ka9.s 			page 192


 6251 10bf 9C       		.byte	0x9c
 6252 10c0 E3100000 		.4byte	0x10e3
 6253 10c4 19       		.uleb128 0x19
 6254 10c5 42000000 		.4byte	.LASF106
 6255 10c9 03       		.byte	0x3
 6256 10ca DB01     		.2byte	0x1db
 6257 10cc 760A0000 		.4byte	0xa76
 6258 10d0 02       		.uleb128 0x2
 6259 10d1 91       		.byte	0x91
 6260 10d2 74       		.sleb128 -12
 6261 10d3 19       		.uleb128 0x19
 6262 10d4 5C080000 		.4byte	.LASF107
 6263 10d8 03       		.byte	0x3
 6264 10d9 DB01     		.2byte	0x1db
 6265 10db 650F0000 		.4byte	0xf65
 6266 10df 02       		.uleb128 0x2
 6267 10e0 91       		.byte	0x91
 6268 10e1 70       		.sleb128 -16
 6269 10e2 00       		.byte	0
 6270 10e3 25       		.uleb128 0x25
 6271 10e4 030A0000 		.4byte	.LASF223
 6272 10e8 03       		.byte	0x3
 6273 10e9 FC01     		.2byte	0x1fc
 6274 10eb B8000000 		.4byte	0xb8
 6275 10ef 00000000 		.4byte	.LFB241
 6276 10f3 44000000 		.4byte	.LFE241-.LFB241
 6277 10f7 01       		.uleb128 0x1
 6278 10f8 9C       		.byte	0x9c
 6279 10f9 3A110000 		.4byte	0x113a
 6280 10fd 19       		.uleb128 0x19
 6281 10fe 42000000 		.4byte	.LASF106
 6282 1102 03       		.byte	0x3
 6283 1103 FC01     		.2byte	0x1fc
 6284 1105 360A0000 		.4byte	0xa36
 6285 1109 02       		.uleb128 0x2
 6286 110a 91       		.byte	0x91
 6287 110b 6C       		.sleb128 -20
 6288 110c 19       		.uleb128 0x19
 6289 110d 5C080000 		.4byte	.LASF107
 6290 1111 03       		.byte	0x3
 6291 1112 FC01     		.2byte	0x1fc
 6292 1114 3A110000 		.4byte	0x113a
 6293 1118 02       		.uleb128 0x2
 6294 1119 91       		.byte	0x91
 6295 111a 68       		.sleb128 -24
 6296 111b 22       		.uleb128 0x22
 6297 111c 54090000 		.4byte	.LASF205
 6298 1120 03       		.byte	0x3
 6299 1121 FE01     		.2byte	0x1fe
 6300 1123 B8000000 		.4byte	0xb8
 6301 1127 02       		.uleb128 0x2
 6302 1128 91       		.byte	0x91
 6303 1129 74       		.sleb128 -12
 6304 112a 22       		.uleb128 0x22
 6305 112b 7F080000 		.4byte	.LASF224
 6306 112f 03       		.byte	0x3
 6307 1130 FF01     		.2byte	0x1ff
ARM GAS  C:\Users\ikomb\AppData\Local\Temp\cctq3ka9.s 			page 193


 6308 1132 B8000000 		.4byte	0xb8
 6309 1136 02       		.uleb128 0x2
 6310 1137 91       		.byte	0x91
 6311 1138 70       		.sleb128 -16
 6312 1139 00       		.byte	0
 6313 113a 14       		.uleb128 0x14
 6314 113b 04       		.byte	0x4
 6315 113c 40110000 		.4byte	0x1140
 6316 1140 06       		.uleb128 0x6
 6317 1141 000A0000 		.4byte	0xa00
 6318 1145 26       		.uleb128 0x26
 6319 1146 77070000 		.4byte	.LASF225
 6320 114a 03       		.byte	0x3
 6321 114b 2102     		.2byte	0x221
 6322 114d 00000000 		.4byte	.LFB242
 6323 1151 1E000000 		.4byte	.LFE242-.LFB242
 6324 1155 01       		.uleb128 0x1
 6325 1156 9C       		.byte	0x9c
 6326 1157 7A110000 		.4byte	0x117a
 6327 115b 19       		.uleb128 0x19
 6328 115c 42000000 		.4byte	.LASF106
 6329 1160 03       		.byte	0x3
 6330 1161 2102     		.2byte	0x221
 6331 1163 360A0000 		.4byte	0xa36
 6332 1167 02       		.uleb128 0x2
 6333 1168 91       		.byte	0x91
 6334 1169 74       		.sleb128 -12
 6335 116a 19       		.uleb128 0x19
 6336 116b 5C080000 		.4byte	.LASF107
 6337 116f 03       		.byte	0x3
 6338 1170 2102     		.2byte	0x221
 6339 1172 650F0000 		.4byte	0xf65
 6340 1176 02       		.uleb128 0x2
 6341 1177 91       		.byte	0x91
 6342 1178 70       		.sleb128 -16
 6343 1179 00       		.byte	0
 6344 117a 21       		.uleb128 0x21
 6345 117b 47000000 		.4byte	.LASF226
 6346 117f 03       		.byte	0x3
 6347 1180 5602     		.2byte	0x256
 6348 1182 EB060000 		.4byte	0x6eb
 6349 1186 00000000 		.4byte	.LFB243
 6350 118a C8010000 		.4byte	.LFE243-.LFB243
 6351 118e 01       		.uleb128 0x1
 6352 118f 9C       		.byte	0x9c
 6353 1190 92120000 		.4byte	0x1292
 6354 1194 19       		.uleb128 0x19
 6355 1195 42000000 		.4byte	.LASF106
 6356 1199 03       		.byte	0x3
 6357 119a 5602     		.2byte	0x256
 6358 119c 760A0000 		.4byte	0xa76
 6359 11a0 02       		.uleb128 0x2
 6360 11a1 91       		.byte	0x91
 6361 11a2 4C       		.sleb128 -52
 6362 11a3 19       		.uleb128 0x19
 6363 11a4 EF000000 		.4byte	.LASF204
 6364 11a8 03       		.byte	0x3
ARM GAS  C:\Users\ikomb\AppData\Local\Temp\cctq3ka9.s 			page 194


 6365 11a9 5602     		.2byte	0x256
 6366 11ab A8060000 		.4byte	0x6a8
 6367 11af 02       		.uleb128 0x2
 6368 11b0 91       		.byte	0x91
 6369 11b1 48       		.sleb128 -56
 6370 11b2 19       		.uleb128 0x19
 6371 11b3 54090000 		.4byte	.LASF205
 6372 11b7 03       		.byte	0x3
 6373 11b8 5602     		.2byte	0x256
 6374 11ba B8000000 		.4byte	0xb8
 6375 11be 02       		.uleb128 0x2
 6376 11bf 91       		.byte	0x91
 6377 11c0 44       		.sleb128 -60
 6378 11c1 19       		.uleb128 0x19
 6379 11c2 5C080000 		.4byte	.LASF107
 6380 11c6 03       		.byte	0x3
 6381 11c7 5602     		.2byte	0x256
 6382 11c9 650F0000 		.4byte	0xf65
 6383 11cd 02       		.uleb128 0x2
 6384 11ce 91       		.byte	0x91
 6385 11cf 40       		.sleb128 -64
 6386 11d0 22       		.uleb128 0x22
 6387 11d1 420A0000 		.4byte	.LASF216
 6388 11d5 03       		.byte	0x3
 6389 11d6 5C02     		.2byte	0x25c
 6390 11d8 EB060000 		.4byte	0x6eb
 6391 11dc 02       		.uleb128 0x2
 6392 11dd 91       		.byte	0x91
 6393 11de 74       		.sleb128 -12
 6394 11df 24       		.uleb128 0x24
 6395 11e0 5A000000 		.4byte	.LBB3
 6396 11e4 56010000 		.4byte	.LBE3-.LBB3
 6397 11e8 22       		.uleb128 0x22
 6398 11e9 320F0000 		.4byte	.LASF227
 6399 11ed 03       		.byte	0x3
 6400 11ee 6102     		.2byte	0x261
 6401 11f0 92120000 		.4byte	0x1292
 6402 11f4 02       		.uleb128 0x2
 6403 11f5 91       		.byte	0x91
 6404 11f6 70       		.sleb128 -16
 6405 11f7 22       		.uleb128 0x22
 6406 11f8 06020000 		.4byte	.LASF228
 6407 11fc 03       		.byte	0x3
 6408 11fd 6202     		.2byte	0x262
 6409 11ff B8000000 		.4byte	0xb8
 6410 1203 02       		.uleb128 0x2
 6411 1204 91       		.byte	0x91
 6412 1205 6C       		.sleb128 -20
 6413 1206 27       		.uleb128 0x27
 6414 1207 82000000 		.4byte	.LBB4
 6415 120b DC000000 		.4byte	.LBE4-.LBB4
 6416 120f 77120000 		.4byte	0x1277
 6417 1213 28       		.uleb128 0x28
 6418 1214 69647800 		.ascii	"idx\000"
 6419 1218 03       		.byte	0x3
 6420 1219 6E02     		.2byte	0x26e
 6421 121b B8000000 		.4byte	0xb8
ARM GAS  C:\Users\ikomb\AppData\Local\Temp\cctq3ka9.s 			page 195


 6422 121f 02       		.uleb128 0x2
 6423 1220 91       		.byte	0x91
 6424 1221 68       		.sleb128 -24
 6425 1222 22       		.uleb128 0x22
 6426 1223 90060000 		.4byte	.LASF229
 6427 1227 03       		.byte	0x3
 6428 1228 6F02     		.2byte	0x26f
 6429 122a B8000000 		.4byte	0xb8
 6430 122e 02       		.uleb128 0x2
 6431 122f 91       		.byte	0x91
 6432 1230 64       		.sleb128 -28
 6433 1231 22       		.uleb128 0x22
 6434 1232 560A0000 		.4byte	.LASF230
 6435 1236 03       		.byte	0x3
 6436 1237 7002     		.2byte	0x270
 6437 1239 29090000 		.4byte	0x929
 6438 123d 02       		.uleb128 0x2
 6439 123e 91       		.byte	0x91
 6440 123f 63       		.sleb128 -29
 6441 1240 27       		.uleb128 0x27
 6442 1241 C2000000 		.4byte	.LBB5
 6443 1245 16000000 		.4byte	.LBE5-.LBB5
 6444 1249 5D120000 		.4byte	0x125d
 6445 124d 28       		.uleb128 0x28
 6446 124e 62756600 		.ascii	"buf\000"
 6447 1252 03       		.byte	0x3
 6448 1253 8402     		.2byte	0x284
 6449 1255 92120000 		.4byte	0x1292
 6450 1259 02       		.uleb128 0x2
 6451 125a 91       		.byte	0x91
 6452 125b 5C       		.sleb128 -36
 6453 125c 00       		.byte	0
 6454 125d 24       		.uleb128 0x24
 6455 125e DA000000 		.4byte	.LBB6
 6456 1262 1A000000 		.4byte	.LBE6-.LBB6
 6457 1266 28       		.uleb128 0x28
 6458 1267 62756600 		.ascii	"buf\000"
 6459 126b 03       		.byte	0x3
 6460 126c 8902     		.2byte	0x289
 6461 126e 98120000 		.4byte	0x1298
 6462 1272 02       		.uleb128 0x2
 6463 1273 91       		.byte	0x91
 6464 1274 58       		.sleb128 -40
 6465 1275 00       		.byte	0
 6466 1276 00       		.byte	0
 6467 1277 24       		.uleb128 0x24
 6468 1278 64010000 		.4byte	.LBB7
 6469 127c 48000000 		.4byte	.LBE7-.LBB7
 6470 1280 22       		.uleb128 0x22
 6471 1281 C0060000 		.4byte	.LASF221
 6472 1285 03       		.byte	0x3
 6473 1286 B302     		.2byte	0x2b3
 6474 1288 B8000000 		.4byte	0xb8
 6475 128c 02       		.uleb128 0x2
 6476 128d 91       		.byte	0x91
 6477 128e 54       		.sleb128 -44
 6478 128f 00       		.byte	0
ARM GAS  C:\Users\ikomb\AppData\Local\Temp\cctq3ka9.s 			page 196


 6479 1290 00       		.byte	0
 6480 1291 00       		.byte	0
 6481 1292 14       		.uleb128 0x14
 6482 1293 04       		.byte	0x4
 6483 1294 97000000 		.4byte	0x97
 6484 1298 14       		.uleb128 0x14
 6485 1299 04       		.byte	0x4
 6486 129a A2000000 		.4byte	0xa2
 6487 129e 23       		.uleb128 0x23
 6488 129f 29100000 		.4byte	.LASF231
 6489 12a3 03       		.byte	0x3
 6490 12a4 E602     		.2byte	0x2e6
 6491 12a6 00000000 		.4byte	.LFB244
 6492 12aa 34000000 		.4byte	.LFE244-.LFB244
 6493 12ae 01       		.uleb128 0x1
 6494 12af 9C       		.byte	0x9c
 6495 12b0 D3120000 		.4byte	0x12d3
 6496 12b4 19       		.uleb128 0x19
 6497 12b5 42000000 		.4byte	.LASF106
 6498 12b9 03       		.byte	0x3
 6499 12ba E602     		.2byte	0x2e6
 6500 12bc 760A0000 		.4byte	0xa76
 6501 12c0 02       		.uleb128 0x2
 6502 12c1 91       		.byte	0x91
 6503 12c2 74       		.sleb128 -12
 6504 12c3 19       		.uleb128 0x19
 6505 12c4 5C080000 		.4byte	.LASF107
 6506 12c8 03       		.byte	0x3
 6507 12c9 E602     		.2byte	0x2e6
 6508 12cb 650F0000 		.4byte	0xf65
 6509 12cf 02       		.uleb128 0x2
 6510 12d0 91       		.byte	0x91
 6511 12d1 70       		.sleb128 -16
 6512 12d2 00       		.byte	0
 6513 12d3 25       		.uleb128 0x25
 6514 12d4 FF030000 		.4byte	.LASF232
 6515 12d8 03       		.byte	0x3
 6516 12d9 0803     		.2byte	0x308
 6517 12db B8000000 		.4byte	0xb8
 6518 12df 00000000 		.4byte	.LFB245
 6519 12e3 1A000000 		.4byte	.LFE245-.LFB245
 6520 12e7 01       		.uleb128 0x1
 6521 12e8 9C       		.byte	0x9c
 6522 12e9 0C130000 		.4byte	0x130c
 6523 12ed 19       		.uleb128 0x19
 6524 12ee 42000000 		.4byte	.LASF106
 6525 12f2 03       		.byte	0x3
 6526 12f3 0803     		.2byte	0x308
 6527 12f5 360A0000 		.4byte	0xa36
 6528 12f9 02       		.uleb128 0x2
 6529 12fa 91       		.byte	0x91
 6530 12fb 74       		.sleb128 -12
 6531 12fc 19       		.uleb128 0x19
 6532 12fd 5C080000 		.4byte	.LASF107
 6533 1301 03       		.byte	0x3
 6534 1302 0803     		.2byte	0x308
 6535 1304 3A110000 		.4byte	0x113a
ARM GAS  C:\Users\ikomb\AppData\Local\Temp\cctq3ka9.s 			page 197


 6536 1308 02       		.uleb128 0x2
 6537 1309 91       		.byte	0x91
 6538 130a 70       		.sleb128 -16
 6539 130b 00       		.byte	0
 6540 130c 25       		.uleb128 0x25
 6541 130d 560B0000 		.4byte	.LASF233
 6542 1311 03       		.byte	0x3
 6543 1312 2803     		.2byte	0x328
 6544 1314 B8000000 		.4byte	0xb8
 6545 1318 00000000 		.4byte	.LFB246
 6546 131c 1A000000 		.4byte	.LFE246-.LFB246
 6547 1320 01       		.uleb128 0x1
 6548 1321 9C       		.byte	0x9c
 6549 1322 45130000 		.4byte	0x1345
 6550 1326 19       		.uleb128 0x19
 6551 1327 42000000 		.4byte	.LASF106
 6552 132b 03       		.byte	0x3
 6553 132c 2803     		.2byte	0x328
 6554 132e 360A0000 		.4byte	0xa36
 6555 1332 02       		.uleb128 0x2
 6556 1333 91       		.byte	0x91
 6557 1334 74       		.sleb128 -12
 6558 1335 19       		.uleb128 0x19
 6559 1336 5C080000 		.4byte	.LASF107
 6560 133a 03       		.byte	0x3
 6561 133b 2803     		.2byte	0x328
 6562 133d 3A110000 		.4byte	0x113a
 6563 1341 02       		.uleb128 0x2
 6564 1342 91       		.byte	0x91
 6565 1343 70       		.sleb128 -16
 6566 1344 00       		.byte	0
 6567 1345 21       		.uleb128 0x21
 6568 1346 8C090000 		.4byte	.LASF234
 6569 134a 03       		.byte	0x3
 6570 134b 5803     		.2byte	0x358
 6571 134d EB060000 		.4byte	0x6eb
 6572 1351 00000000 		.4byte	.LFB247
 6573 1355 B8000000 		.4byte	.LFE247-.LFB247
 6574 1359 01       		.uleb128 0x1
 6575 135a 9C       		.byte	0x9c
 6576 135b AB130000 		.4byte	0x13ab
 6577 135f 19       		.uleb128 0x19
 6578 1360 42000000 		.4byte	.LASF106
 6579 1364 03       		.byte	0x3
 6580 1365 5803     		.2byte	0x358
 6581 1367 760A0000 		.4byte	0xa76
 6582 136b 02       		.uleb128 0x2
 6583 136c 91       		.byte	0x91
 6584 136d 6C       		.sleb128 -20
 6585 136e 19       		.uleb128 0x19
 6586 136f EF000000 		.4byte	.LASF204
 6587 1373 03       		.byte	0x3
 6588 1374 5803     		.2byte	0x358
 6589 1376 A8060000 		.4byte	0x6a8
 6590 137a 02       		.uleb128 0x2
 6591 137b 91       		.byte	0x91
 6592 137c 68       		.sleb128 -24
ARM GAS  C:\Users\ikomb\AppData\Local\Temp\cctq3ka9.s 			page 198


 6593 137d 19       		.uleb128 0x19
 6594 137e 54090000 		.4byte	.LASF205
 6595 1382 03       		.byte	0x3
 6596 1383 5803     		.2byte	0x358
 6597 1385 B8000000 		.4byte	0xb8
 6598 1389 02       		.uleb128 0x2
 6599 138a 91       		.byte	0x91
 6600 138b 64       		.sleb128 -28
 6601 138c 19       		.uleb128 0x19
 6602 138d 5C080000 		.4byte	.LASF107
 6603 1391 03       		.byte	0x3
 6604 1392 5803     		.2byte	0x358
 6605 1394 650F0000 		.4byte	0xf65
 6606 1398 02       		.uleb128 0x2
 6607 1399 91       		.byte	0x91
 6608 139a 60       		.sleb128 -32
 6609 139b 22       		.uleb128 0x22
 6610 139c 420A0000 		.4byte	.LASF216
 6611 13a0 03       		.byte	0x3
 6612 13a1 5E03     		.2byte	0x35e
 6613 13a3 EB060000 		.4byte	0x6eb
 6614 13a7 02       		.uleb128 0x2
 6615 13a8 91       		.byte	0x91
 6616 13a9 74       		.sleb128 -12
 6617 13aa 00       		.byte	0
 6618 13ab 23       		.uleb128 0x23
 6619 13ac DB040000 		.4byte	.LASF235
 6620 13b0 03       		.byte	0x3
 6621 13b1 9703     		.2byte	0x397
 6622 13b3 00000000 		.4byte	.LFB248
 6623 13b7 32000000 		.4byte	.LFE248-.LFB248
 6624 13bb 01       		.uleb128 0x1
 6625 13bc 9C       		.byte	0x9c
 6626 13bd E0130000 		.4byte	0x13e0
 6627 13c1 19       		.uleb128 0x19
 6628 13c2 42000000 		.4byte	.LASF106
 6629 13c6 03       		.byte	0x3
 6630 13c7 9703     		.2byte	0x397
 6631 13c9 760A0000 		.4byte	0xa76
 6632 13cd 02       		.uleb128 0x2
 6633 13ce 91       		.byte	0x91
 6634 13cf 74       		.sleb128 -12
 6635 13d0 19       		.uleb128 0x19
 6636 13d1 5C080000 		.4byte	.LASF107
 6637 13d5 03       		.byte	0x3
 6638 13d6 9703     		.2byte	0x397
 6639 13d8 650F0000 		.4byte	0xf65
 6640 13dc 02       		.uleb128 0x2
 6641 13dd 91       		.byte	0x91
 6642 13de 70       		.sleb128 -16
 6643 13df 00       		.byte	0
 6644 13e0 25       		.uleb128 0x25
 6645 13e1 9B0C0000 		.4byte	.LASF236
 6646 13e5 03       		.byte	0x3
 6647 13e6 B803     		.2byte	0x3b8
 6648 13e8 B8000000 		.4byte	0xb8
 6649 13ec 00000000 		.4byte	.LFB249
ARM GAS  C:\Users\ikomb\AppData\Local\Temp\cctq3ka9.s 			page 199


 6650 13f0 1A000000 		.4byte	.LFE249-.LFB249
 6651 13f4 01       		.uleb128 0x1
 6652 13f5 9C       		.byte	0x9c
 6653 13f6 19140000 		.4byte	0x1419
 6654 13fa 19       		.uleb128 0x19
 6655 13fb 42000000 		.4byte	.LASF106
 6656 13ff 03       		.byte	0x3
 6657 1400 B803     		.2byte	0x3b8
 6658 1402 360A0000 		.4byte	0xa36
 6659 1406 02       		.uleb128 0x2
 6660 1407 91       		.byte	0x91
 6661 1408 74       		.sleb128 -12
 6662 1409 19       		.uleb128 0x19
 6663 140a 5C080000 		.4byte	.LASF107
 6664 140e 03       		.byte	0x3
 6665 140f B803     		.2byte	0x3b8
 6666 1411 3A110000 		.4byte	0x113a
 6667 1415 02       		.uleb128 0x2
 6668 1416 91       		.byte	0x91
 6669 1417 70       		.sleb128 -16
 6670 1418 00       		.byte	0
 6671 1419 25       		.uleb128 0x25
 6672 141a A3070000 		.4byte	.LASF237
 6673 141e 03       		.byte	0x3
 6674 141f D903     		.2byte	0x3d9
 6675 1421 B8000000 		.4byte	0xb8
 6676 1425 00000000 		.4byte	.LFB250
 6677 1429 1A000000 		.4byte	.LFE250-.LFB250
 6678 142d 01       		.uleb128 0x1
 6679 142e 9C       		.byte	0x9c
 6680 142f 52140000 		.4byte	0x1452
 6681 1433 19       		.uleb128 0x19
 6682 1434 42000000 		.4byte	.LASF106
 6683 1438 03       		.byte	0x3
 6684 1439 D903     		.2byte	0x3d9
 6685 143b 360A0000 		.4byte	0xa36
 6686 143f 02       		.uleb128 0x2
 6687 1440 91       		.byte	0x91
 6688 1441 74       		.sleb128 -12
 6689 1442 19       		.uleb128 0x19
 6690 1443 5C080000 		.4byte	.LASF107
 6691 1447 03       		.byte	0x3
 6692 1448 D903     		.2byte	0x3d9
 6693 144a 3A110000 		.4byte	0x113a
 6694 144e 02       		.uleb128 0x2
 6695 144f 91       		.byte	0x91
 6696 1450 70       		.sleb128 -16
 6697 1451 00       		.byte	0
 6698 1452 23       		.uleb128 0x23
 6699 1453 2A020000 		.4byte	.LASF238
 6700 1457 03       		.byte	0x3
 6701 1458 F903     		.2byte	0x3f9
 6702 145a 00000000 		.4byte	.LFB251
 6703 145e 9C000000 		.4byte	.LFE251-.LFB251
 6704 1462 01       		.uleb128 0x1
 6705 1463 9C       		.byte	0x9c
 6706 1464 A5140000 		.4byte	0x14a5
ARM GAS  C:\Users\ikomb\AppData\Local\Temp\cctq3ka9.s 			page 200


 6707 1468 19       		.uleb128 0x19
 6708 1469 42000000 		.4byte	.LASF106
 6709 146d 03       		.byte	0x3
 6710 146e F903     		.2byte	0x3f9
 6711 1470 760A0000 		.4byte	0xa76
 6712 1474 02       		.uleb128 0x2
 6713 1475 91       		.byte	0x91
 6714 1476 6C       		.sleb128 -20
 6715 1477 19       		.uleb128 0x19
 6716 1478 01070000 		.4byte	.LASF154
 6717 147c 03       		.byte	0x3
 6718 147d F903     		.2byte	0x3f9
 6719 147f B8000000 		.4byte	0xb8
 6720 1483 02       		.uleb128 0x2
 6721 1484 91       		.byte	0x91
 6722 1485 68       		.sleb128 -24
 6723 1486 22       		.uleb128 0x22
 6724 1487 A1050000 		.4byte	.LASF239
 6725 148b 03       		.byte	0x3
 6726 148c FB03     		.2byte	0x3fb
 6727 148e B8000000 		.4byte	0xb8
 6728 1492 02       		.uleb128 0x2
 6729 1493 91       		.byte	0x91
 6730 1494 70       		.sleb128 -16
 6731 1495 22       		.uleb128 0x22
 6732 1496 0C0C0000 		.4byte	.LASF240
 6733 149a 03       		.byte	0x3
 6734 149b FC03     		.2byte	0x3fc
 6735 149d B8000000 		.4byte	0xb8
 6736 14a1 02       		.uleb128 0x2
 6737 14a2 91       		.byte	0x91
 6738 14a3 74       		.sleb128 -12
 6739 14a4 00       		.byte	0
 6740 14a5 23       		.uleb128 0x23
 6741 14a6 260E0000 		.4byte	.LASF241
 6742 14aa 03       		.byte	0x3
 6743 14ab 2F04     		.2byte	0x42f
 6744 14ad 00000000 		.4byte	.LFB252
 6745 14b1 5C010000 		.4byte	.LFE252-.LFB252
 6746 14b5 01       		.uleb128 0x1
 6747 14b6 9C       		.byte	0x9c
 6748 14b7 10150000 		.4byte	0x1510
 6749 14bb 19       		.uleb128 0x19
 6750 14bc 42000000 		.4byte	.LASF106
 6751 14c0 03       		.byte	0x3
 6752 14c1 2F04     		.2byte	0x42f
 6753 14c3 760A0000 		.4byte	0xa76
 6754 14c7 02       		.uleb128 0x2
 6755 14c8 91       		.byte	0x91
 6756 14c9 6C       		.sleb128 -20
 6757 14ca 19       		.uleb128 0x19
 6758 14cb 5C080000 		.4byte	.LASF107
 6759 14cf 03       		.byte	0x3
 6760 14d0 2F04     		.2byte	0x42f
 6761 14d2 650F0000 		.4byte	0xf65
 6762 14d6 02       		.uleb128 0x2
 6763 14d7 91       		.byte	0x91
ARM GAS  C:\Users\ikomb\AppData\Local\Temp\cctq3ka9.s 			page 201


 6764 14d8 68       		.sleb128 -24
 6765 14d9 27       		.uleb128 0x27
 6766 14da 1A000000 		.4byte	.LBB8
 6767 14de 98000000 		.4byte	.LBE8-.LBB8
 6768 14e2 F6140000 		.4byte	0x14f6
 6769 14e6 22       		.uleb128 0x22
 6770 14e7 D4020000 		.4byte	.LASF242
 6771 14eb 03       		.byte	0x3
 6772 14ec 3404     		.2byte	0x434
 6773 14ee B8000000 		.4byte	0xb8
 6774 14f2 02       		.uleb128 0x2
 6775 14f3 91       		.byte	0x91
 6776 14f4 74       		.sleb128 -12
 6777 14f5 00       		.byte	0
 6778 14f6 24       		.uleb128 0x24
 6779 14f7 C2000000 		.4byte	.LBB9
 6780 14fb 92000000 		.4byte	.LBE9-.LBB9
 6781 14ff 22       		.uleb128 0x22
 6782 1500 9A040000 		.4byte	.LASF243
 6783 1504 03       		.byte	0x3
 6784 1505 6004     		.2byte	0x460
 6785 1507 B8000000 		.4byte	0xb8
 6786 150b 02       		.uleb128 0x2
 6787 150c 91       		.byte	0x91
 6788 150d 70       		.sleb128 -16
 6789 150e 00       		.byte	0
 6790 150f 00       		.byte	0
 6791 1510 1A       		.uleb128 0x1a
 6792 1511 CB030000 		.4byte	.LASF244
 6793 1515 03       		.byte	0x3
 6794 1516 9A04     		.2byte	0x49a
 6795 1518 00000000 		.4byte	.LFB253
 6796 151c E4000000 		.4byte	.LFE253-.LFB253
 6797 1520 01       		.uleb128 0x1
 6798 1521 9C       		.byte	0x9c
 6799 1522 7C150000 		.4byte	0x157c
 6800 1526 19       		.uleb128 0x19
 6801 1527 42000000 		.4byte	.LASF106
 6802 152b 03       		.byte	0x3
 6803 152c 9A04     		.2byte	0x49a
 6804 152e 760A0000 		.4byte	0xa76
 6805 1532 02       		.uleb128 0x2
 6806 1533 91       		.byte	0x91
 6807 1534 64       		.sleb128 -28
 6808 1535 19       		.uleb128 0x19
 6809 1536 5C080000 		.4byte	.LASF107
 6810 153a 03       		.byte	0x3
 6811 153b 9A04     		.2byte	0x49a
 6812 153d 650F0000 		.4byte	0xf65
 6813 1541 02       		.uleb128 0x2
 6814 1542 91       		.byte	0x91
 6815 1543 60       		.sleb128 -32
 6816 1544 22       		.uleb128 0x22
 6817 1545 AB0B0000 		.4byte	.LASF245
 6818 1549 03       		.byte	0x3
 6819 154a 9C04     		.2byte	0x49c
 6820 154c B8000000 		.4byte	0xb8
ARM GAS  C:\Users\ikomb\AppData\Local\Temp\cctq3ka9.s 			page 202


 6821 1550 02       		.uleb128 0x2
 6822 1551 91       		.byte	0x91
 6823 1552 70       		.sleb128 -16
 6824 1553 22       		.uleb128 0x22
 6825 1554 C0060000 		.4byte	.LASF221
 6826 1558 03       		.byte	0x3
 6827 1559 9D04     		.2byte	0x49d
 6828 155b B8000000 		.4byte	0xb8
 6829 155f 02       		.uleb128 0x2
 6830 1560 91       		.byte	0x91
 6831 1561 74       		.sleb128 -12
 6832 1562 24       		.uleb128 0x24
 6833 1563 9E000000 		.4byte	.LBB10
 6834 1567 3E000000 		.4byte	.LBE10-.LBB10
 6835 156b 28       		.uleb128 0x28
 6836 156c 62756600 		.ascii	"buf\000"
 6837 1570 03       		.byte	0x3
 6838 1571 C004     		.2byte	0x4c0
 6839 1573 92120000 		.4byte	0x1292
 6840 1577 02       		.uleb128 0x2
 6841 1578 91       		.byte	0x91
 6842 1579 6C       		.sleb128 -20
 6843 157a 00       		.byte	0
 6844 157b 00       		.byte	0
 6845 157c 1A       		.uleb128 0x1a
 6846 157d CD060000 		.4byte	.LASF246
 6847 1581 03       		.byte	0x3
 6848 1582 DE04     		.2byte	0x4de
 6849 1584 00000000 		.4byte	.LFB254
 6850 1588 FC000000 		.4byte	.LFE254-.LFB254
 6851 158c 01       		.uleb128 0x1
 6852 158d 9C       		.byte	0x9c
 6853 158e 06160000 		.4byte	0x1606
 6854 1592 19       		.uleb128 0x19
 6855 1593 42000000 		.4byte	.LASF106
 6856 1597 03       		.byte	0x3
 6857 1598 DE04     		.2byte	0x4de
 6858 159a 760A0000 		.4byte	0xa76
 6859 159e 02       		.uleb128 0x2
 6860 159f 91       		.byte	0x91
 6861 15a0 54       		.sleb128 -44
 6862 15a1 19       		.uleb128 0x19
 6863 15a2 5C080000 		.4byte	.LASF107
 6864 15a6 03       		.byte	0x3
 6865 15a7 DE04     		.2byte	0x4de
 6866 15a9 650F0000 		.4byte	0xf65
 6867 15ad 02       		.uleb128 0x2
 6868 15ae 91       		.byte	0x91
 6869 15af 50       		.sleb128 -48
 6870 15b0 22       		.uleb128 0x22
 6871 15b1 C0060000 		.4byte	.LASF221
 6872 15b5 03       		.byte	0x3
 6873 15b6 E004     		.2byte	0x4e0
 6874 15b8 B8000000 		.4byte	0xb8
 6875 15bc 02       		.uleb128 0x2
 6876 15bd 91       		.byte	0x91
 6877 15be 64       		.sleb128 -28
ARM GAS  C:\Users\ikomb\AppData\Local\Temp\cctq3ka9.s 			page 203


 6878 15bf 22       		.uleb128 0x22
 6879 15c0 06020000 		.4byte	.LASF228
 6880 15c4 03       		.byte	0x3
 6881 15c5 E104     		.2byte	0x4e1
 6882 15c7 B8000000 		.4byte	0xb8
 6883 15cb 02       		.uleb128 0x2
 6884 15cc 91       		.byte	0x91
 6885 15cd 6C       		.sleb128 -20
 6886 15ce 22       		.uleb128 0x22
 6887 15cf 7F080000 		.4byte	.LASF224
 6888 15d3 03       		.byte	0x3
 6889 15d4 E204     		.2byte	0x4e2
 6890 15d6 B8000000 		.4byte	0xb8
 6891 15da 02       		.uleb128 0x2
 6892 15db 91       		.byte	0x91
 6893 15dc 68       		.sleb128 -24
 6894 15dd 22       		.uleb128 0x22
 6895 15de 27010000 		.4byte	.LASF247
 6896 15e2 03       		.byte	0x3
 6897 15e3 E304     		.2byte	0x4e3
 6898 15e5 B8000000 		.4byte	0xb8
 6899 15e9 02       		.uleb128 0x2
 6900 15ea 91       		.byte	0x91
 6901 15eb 60       		.sleb128 -32
 6902 15ec 24       		.uleb128 0x24
 6903 15ed DC000000 		.4byte	.LBB11
 6904 15f1 18000000 		.4byte	.LBE11-.LBB11
 6905 15f5 22       		.uleb128 0x22
 6906 15f6 C5010000 		.4byte	.LASF178
 6907 15fa 03       		.byte	0x3
 6908 15fb 1C05     		.2byte	0x51c
 6909 15fd B8000000 		.4byte	0xb8
 6910 1601 02       		.uleb128 0x2
 6911 1602 91       		.byte	0x91
 6912 1603 5C       		.sleb128 -36
 6913 1604 00       		.byte	0
 6914 1605 00       		.byte	0
 6915 1606 1A       		.uleb128 0x1a
 6916 1607 BC0C0000 		.4byte	.LASF248
 6917 160b 03       		.byte	0x3
 6918 160c 3205     		.2byte	0x532
 6919 160e 00000000 		.4byte	.LFB255
 6920 1612 FC000000 		.4byte	.LFE255-.LFB255
 6921 1616 01       		.uleb128 0x1
 6922 1617 9C       		.byte	0x9c
 6923 1618 AD160000 		.4byte	0x16ad
 6924 161c 19       		.uleb128 0x19
 6925 161d 42000000 		.4byte	.LASF106
 6926 1621 03       		.byte	0x3
 6927 1622 3205     		.2byte	0x532
 6928 1624 760A0000 		.4byte	0xa76
 6929 1628 02       		.uleb128 0x2
 6930 1629 91       		.byte	0x91
 6931 162a 5C       		.sleb128 -36
 6932 162b 19       		.uleb128 0x19
 6933 162c 5C080000 		.4byte	.LASF107
 6934 1630 03       		.byte	0x3
ARM GAS  C:\Users\ikomb\AppData\Local\Temp\cctq3ka9.s 			page 204


 6935 1631 3205     		.2byte	0x532
 6936 1633 650F0000 		.4byte	0xf65
 6937 1637 02       		.uleb128 0x2
 6938 1638 91       		.byte	0x91
 6939 1639 58       		.sleb128 -40
 6940 163a 22       		.uleb128 0x22
 6941 163b 06020000 		.4byte	.LASF228
 6942 163f 03       		.byte	0x3
 6943 1640 3405     		.2byte	0x534
 6944 1642 B8000000 		.4byte	0xb8
 6945 1646 02       		.uleb128 0x2
 6946 1647 91       		.byte	0x91
 6947 1648 68       		.sleb128 -24
 6948 1649 22       		.uleb128 0x22
 6949 164a 350C0000 		.4byte	.LASF249
 6950 164e 03       		.byte	0x3
 6951 164f 3505     		.2byte	0x535
 6952 1651 B8000000 		.4byte	0xb8
 6953 1655 02       		.uleb128 0x2
 6954 1656 91       		.byte	0x91
 6955 1657 74       		.sleb128 -12
 6956 1658 22       		.uleb128 0x22
 6957 1659 560A0000 		.4byte	.LASF230
 6958 165d 03       		.byte	0x3
 6959 165e 3605     		.2byte	0x536
 6960 1660 29090000 		.4byte	0x929
 6961 1664 02       		.uleb128 0x2
 6962 1665 91       		.byte	0x91
 6963 1666 73       		.sleb128 -13
 6964 1667 27       		.uleb128 0x27
 6965 1668 24000000 		.4byte	.LBB12
 6966 166c 48000000 		.4byte	.LBE12-.LBB12
 6967 1670 84160000 		.4byte	0x1684
 6968 1674 28       		.uleb128 0x28
 6969 1675 62756600 		.ascii	"buf\000"
 6970 1679 03       		.byte	0x3
 6971 167a 3A05     		.2byte	0x53a
 6972 167c 92120000 		.4byte	0x1292
 6973 1680 02       		.uleb128 0x2
 6974 1681 91       		.byte	0x91
 6975 1682 6C       		.sleb128 -20
 6976 1683 00       		.byte	0
 6977 1684 24       		.uleb128 0x24
 6978 1685 82000000 		.4byte	.LBB13
 6979 1689 72000000 		.4byte	.LBE13-.LBB13
 6980 168d 22       		.uleb128 0x22
 6981 168e E3050000 		.4byte	.LASF250
 6982 1692 03       		.byte	0x3
 6983 1693 4C05     		.2byte	0x54c
 6984 1695 B8000000 		.4byte	0xb8
 6985 1699 02       		.uleb128 0x2
 6986 169a 91       		.byte	0x91
 6987 169b 64       		.sleb128 -28
 6988 169c 22       		.uleb128 0x22
 6989 169d 7D100000 		.4byte	.LASF251
 6990 16a1 03       		.byte	0x3
 6991 16a2 4D05     		.2byte	0x54d
ARM GAS  C:\Users\ikomb\AppData\Local\Temp\cctq3ka9.s 			page 205


 6992 16a4 B8000000 		.4byte	0xb8
 6993 16a8 02       		.uleb128 0x2
 6994 16a9 91       		.byte	0x91
 6995 16aa 60       		.sleb128 -32
 6996 16ab 00       		.byte	0
 6997 16ac 00       		.byte	0
 6998 16ad 29       		.uleb128 0x29
 6999 16ae EA050000 		.4byte	.LASF255
 7000 16b2 09       		.byte	0x9
 7001 16b3 EA07     		.2byte	0x7ea
 7002 16b5 B9160000 		.4byte	0x16b9
 7003 16b9 05       		.uleb128 0x5
 7004 16ba AD000000 		.4byte	0xad
 7005 16be 00       		.byte	0
 7006              		.section	.debug_abbrev,"",%progbits
 7007              	.Ldebug_abbrev0:
 7008 0000 01       		.uleb128 0x1
 7009 0001 11       		.uleb128 0x11
 7010 0002 01       		.byte	0x1
 7011 0003 25       		.uleb128 0x25
 7012 0004 0E       		.uleb128 0xe
 7013 0005 13       		.uleb128 0x13
 7014 0006 0B       		.uleb128 0xb
 7015 0007 03       		.uleb128 0x3
 7016 0008 0E       		.uleb128 0xe
 7017 0009 1B       		.uleb128 0x1b
 7018 000a 0E       		.uleb128 0xe
 7019 000b 55       		.uleb128 0x55
 7020 000c 17       		.uleb128 0x17
 7021 000d 11       		.uleb128 0x11
 7022 000e 01       		.uleb128 0x1
 7023 000f 10       		.uleb128 0x10
 7024 0010 17       		.uleb128 0x17
 7025 0011 00       		.byte	0
 7026 0012 00       		.byte	0
 7027 0013 02       		.uleb128 0x2
 7028 0014 24       		.uleb128 0x24
 7029 0015 00       		.byte	0
 7030 0016 0B       		.uleb128 0xb
 7031 0017 0B       		.uleb128 0xb
 7032 0018 3E       		.uleb128 0x3e
 7033 0019 0B       		.uleb128 0xb
 7034 001a 03       		.uleb128 0x3
 7035 001b 0E       		.uleb128 0xe
 7036 001c 00       		.byte	0
 7037 001d 00       		.byte	0
 7038 001e 03       		.uleb128 0x3
 7039 001f 16       		.uleb128 0x16
 7040 0020 00       		.byte	0
 7041 0021 03       		.uleb128 0x3
 7042 0022 0E       		.uleb128 0xe
 7043 0023 3A       		.uleb128 0x3a
 7044 0024 0B       		.uleb128 0xb
 7045 0025 3B       		.uleb128 0x3b
 7046 0026 0B       		.uleb128 0xb
 7047 0027 49       		.uleb128 0x49
 7048 0028 13       		.uleb128 0x13
ARM GAS  C:\Users\ikomb\AppData\Local\Temp\cctq3ka9.s 			page 206


 7049 0029 00       		.byte	0
 7050 002a 00       		.byte	0
 7051 002b 04       		.uleb128 0x4
 7052 002c 24       		.uleb128 0x24
 7053 002d 00       		.byte	0
 7054 002e 0B       		.uleb128 0xb
 7055 002f 0B       		.uleb128 0xb
 7056 0030 3E       		.uleb128 0x3e
 7057 0031 0B       		.uleb128 0xb
 7058 0032 03       		.uleb128 0x3
 7059 0033 08       		.uleb128 0x8
 7060 0034 00       		.byte	0
 7061 0035 00       		.byte	0
 7062 0036 05       		.uleb128 0x5
 7063 0037 35       		.uleb128 0x35
 7064 0038 00       		.byte	0
 7065 0039 49       		.uleb128 0x49
 7066 003a 13       		.uleb128 0x13
 7067 003b 00       		.byte	0
 7068 003c 00       		.byte	0
 7069 003d 06       		.uleb128 0x6
 7070 003e 26       		.uleb128 0x26
 7071 003f 00       		.byte	0
 7072 0040 49       		.uleb128 0x49
 7073 0041 13       		.uleb128 0x13
 7074 0042 00       		.byte	0
 7075 0043 00       		.byte	0
 7076 0044 07       		.uleb128 0x7
 7077 0045 01       		.uleb128 0x1
 7078 0046 01       		.byte	0x1
 7079 0047 49       		.uleb128 0x49
 7080 0048 13       		.uleb128 0x13
 7081 0049 01       		.uleb128 0x1
 7082 004a 13       		.uleb128 0x13
 7083 004b 00       		.byte	0
 7084 004c 00       		.byte	0
 7085 004d 08       		.uleb128 0x8
 7086 004e 21       		.uleb128 0x21
 7087 004f 00       		.byte	0
 7088 0050 49       		.uleb128 0x49
 7089 0051 13       		.uleb128 0x13
 7090 0052 2F       		.uleb128 0x2f
 7091 0053 0B       		.uleb128 0xb
 7092 0054 00       		.byte	0
 7093 0055 00       		.byte	0
 7094 0056 09       		.uleb128 0x9
 7095 0057 13       		.uleb128 0x13
 7096 0058 01       		.byte	0x1
 7097 0059 0B       		.uleb128 0xb
 7098 005a 05       		.uleb128 0x5
 7099 005b 3A       		.uleb128 0x3a
 7100 005c 0B       		.uleb128 0xb
 7101 005d 3B       		.uleb128 0x3b
 7102 005e 0B       		.uleb128 0xb
 7103 005f 01       		.uleb128 0x1
 7104 0060 13       		.uleb128 0x13
 7105 0061 00       		.byte	0
ARM GAS  C:\Users\ikomb\AppData\Local\Temp\cctq3ka9.s 			page 207


 7106 0062 00       		.byte	0
 7107 0063 0A       		.uleb128 0xa
 7108 0064 0D       		.uleb128 0xd
 7109 0065 00       		.byte	0
 7110 0066 03       		.uleb128 0x3
 7111 0067 0E       		.uleb128 0xe
 7112 0068 3A       		.uleb128 0x3a
 7113 0069 0B       		.uleb128 0xb
 7114 006a 3B       		.uleb128 0x3b
 7115 006b 0B       		.uleb128 0xb
 7116 006c 49       		.uleb128 0x49
 7117 006d 13       		.uleb128 0x13
 7118 006e 38       		.uleb128 0x38
 7119 006f 0B       		.uleb128 0xb
 7120 0070 00       		.byte	0
 7121 0071 00       		.byte	0
 7122 0072 0B       		.uleb128 0xb
 7123 0073 0D       		.uleb128 0xd
 7124 0074 00       		.byte	0
 7125 0075 03       		.uleb128 0x3
 7126 0076 0E       		.uleb128 0xe
 7127 0077 3A       		.uleb128 0x3a
 7128 0078 0B       		.uleb128 0xb
 7129 0079 3B       		.uleb128 0x3b
 7130 007a 0B       		.uleb128 0xb
 7131 007b 49       		.uleb128 0x49
 7132 007c 13       		.uleb128 0x13
 7133 007d 38       		.uleb128 0x38
 7134 007e 05       		.uleb128 0x5
 7135 007f 00       		.byte	0
 7136 0080 00       		.byte	0
 7137 0081 0C       		.uleb128 0xc
 7138 0082 21       		.uleb128 0x21
 7139 0083 00       		.byte	0
 7140 0084 49       		.uleb128 0x49
 7141 0085 13       		.uleb128 0x13
 7142 0086 2F       		.uleb128 0x2f
 7143 0087 05       		.uleb128 0x5
 7144 0088 00       		.byte	0
 7145 0089 00       		.byte	0
 7146 008a 0D       		.uleb128 0xd
 7147 008b 16       		.uleb128 0x16
 7148 008c 00       		.byte	0
 7149 008d 03       		.uleb128 0x3
 7150 008e 0E       		.uleb128 0xe
 7151 008f 3A       		.uleb128 0x3a
 7152 0090 0B       		.uleb128 0xb
 7153 0091 3B       		.uleb128 0x3b
 7154 0092 05       		.uleb128 0x5
 7155 0093 49       		.uleb128 0x49
 7156 0094 13       		.uleb128 0x13
 7157 0095 00       		.byte	0
 7158 0096 00       		.byte	0
 7159 0097 0E       		.uleb128 0xe
 7160 0098 04       		.uleb128 0x4
 7161 0099 01       		.byte	0x1
 7162 009a 0B       		.uleb128 0xb
ARM GAS  C:\Users\ikomb\AppData\Local\Temp\cctq3ka9.s 			page 208


 7163 009b 0B       		.uleb128 0xb
 7164 009c 49       		.uleb128 0x49
 7165 009d 13       		.uleb128 0x13
 7166 009e 3A       		.uleb128 0x3a
 7167 009f 0B       		.uleb128 0xb
 7168 00a0 3B       		.uleb128 0x3b
 7169 00a1 05       		.uleb128 0x5
 7170 00a2 01       		.uleb128 0x1
 7171 00a3 13       		.uleb128 0x13
 7172 00a4 00       		.byte	0
 7173 00a5 00       		.byte	0
 7174 00a6 0F       		.uleb128 0xf
 7175 00a7 28       		.uleb128 0x28
 7176 00a8 00       		.byte	0
 7177 00a9 03       		.uleb128 0x3
 7178 00aa 0E       		.uleb128 0xe
 7179 00ab 1C       		.uleb128 0x1c
 7180 00ac 0B       		.uleb128 0xb
 7181 00ad 00       		.byte	0
 7182 00ae 00       		.byte	0
 7183 00af 10       		.uleb128 0x10
 7184 00b0 28       		.uleb128 0x28
 7185 00b1 00       		.byte	0
 7186 00b2 03       		.uleb128 0x3
 7187 00b3 0E       		.uleb128 0xe
 7188 00b4 1C       		.uleb128 0x1c
 7189 00b5 06       		.uleb128 0x6
 7190 00b6 00       		.byte	0
 7191 00b7 00       		.byte	0
 7192 00b8 11       		.uleb128 0x11
 7193 00b9 13       		.uleb128 0x13
 7194 00ba 01       		.byte	0x1
 7195 00bb 0B       		.uleb128 0xb
 7196 00bc 0B       		.uleb128 0xb
 7197 00bd 3A       		.uleb128 0x3a
 7198 00be 0B       		.uleb128 0xb
 7199 00bf 3B       		.uleb128 0x3b
 7200 00c0 05       		.uleb128 0x5
 7201 00c1 01       		.uleb128 0x1
 7202 00c2 13       		.uleb128 0x13
 7203 00c3 00       		.byte	0
 7204 00c4 00       		.byte	0
 7205 00c5 12       		.uleb128 0x12
 7206 00c6 0D       		.uleb128 0xd
 7207 00c7 00       		.byte	0
 7208 00c8 03       		.uleb128 0x3
 7209 00c9 0E       		.uleb128 0xe
 7210 00ca 3A       		.uleb128 0x3a
 7211 00cb 0B       		.uleb128 0xb
 7212 00cc 3B       		.uleb128 0x3b
 7213 00cd 05       		.uleb128 0x5
 7214 00ce 49       		.uleb128 0x49
 7215 00cf 13       		.uleb128 0x13
 7216 00d0 38       		.uleb128 0x38
 7217 00d1 0B       		.uleb128 0xb
 7218 00d2 00       		.byte	0
 7219 00d3 00       		.byte	0
ARM GAS  C:\Users\ikomb\AppData\Local\Temp\cctq3ka9.s 			page 209


 7220 00d4 13       		.uleb128 0x13
 7221 00d5 0F       		.uleb128 0xf
 7222 00d6 00       		.byte	0
 7223 00d7 0B       		.uleb128 0xb
 7224 00d8 0B       		.uleb128 0xb
 7225 00d9 00       		.byte	0
 7226 00da 00       		.byte	0
 7227 00db 14       		.uleb128 0x14
 7228 00dc 0F       		.uleb128 0xf
 7229 00dd 00       		.byte	0
 7230 00de 0B       		.uleb128 0xb
 7231 00df 0B       		.uleb128 0xb
 7232 00e0 49       		.uleb128 0x49
 7233 00e1 13       		.uleb128 0x13
 7234 00e2 00       		.byte	0
 7235 00e3 00       		.byte	0
 7236 00e4 15       		.uleb128 0x15
 7237 00e5 15       		.uleb128 0x15
 7238 00e6 01       		.byte	0x1
 7239 00e7 27       		.uleb128 0x27
 7240 00e8 19       		.uleb128 0x19
 7241 00e9 01       		.uleb128 0x1
 7242 00ea 13       		.uleb128 0x13
 7243 00eb 00       		.byte	0
 7244 00ec 00       		.byte	0
 7245 00ed 16       		.uleb128 0x16
 7246 00ee 05       		.uleb128 0x5
 7247 00ef 00       		.byte	0
 7248 00f0 49       		.uleb128 0x49
 7249 00f1 13       		.uleb128 0x13
 7250 00f2 00       		.byte	0
 7251 00f3 00       		.byte	0
 7252 00f4 17       		.uleb128 0x17
 7253 00f5 13       		.uleb128 0x13
 7254 00f6 01       		.byte	0x1
 7255 00f7 03       		.uleb128 0x3
 7256 00f8 0E       		.uleb128 0xe
 7257 00f9 0B       		.uleb128 0xb
 7258 00fa 0B       		.uleb128 0xb
 7259 00fb 3A       		.uleb128 0x3a
 7260 00fc 0B       		.uleb128 0xb
 7261 00fd 3B       		.uleb128 0x3b
 7262 00fe 05       		.uleb128 0x5
 7263 00ff 01       		.uleb128 0x1
 7264 0100 13       		.uleb128 0x13
 7265 0101 00       		.byte	0
 7266 0102 00       		.byte	0
 7267 0103 18       		.uleb128 0x18
 7268 0104 2E       		.uleb128 0x2e
 7269 0105 01       		.byte	0x1
 7270 0106 03       		.uleb128 0x3
 7271 0107 0E       		.uleb128 0xe
 7272 0108 3A       		.uleb128 0x3a
 7273 0109 0B       		.uleb128 0xb
 7274 010a 3B       		.uleb128 0x3b
 7275 010b 05       		.uleb128 0x5
 7276 010c 27       		.uleb128 0x27
ARM GAS  C:\Users\ikomb\AppData\Local\Temp\cctq3ka9.s 			page 210


 7277 010d 19       		.uleb128 0x19
 7278 010e 49       		.uleb128 0x49
 7279 010f 13       		.uleb128 0x13
 7280 0110 11       		.uleb128 0x11
 7281 0111 01       		.uleb128 0x1
 7282 0112 12       		.uleb128 0x12
 7283 0113 06       		.uleb128 0x6
 7284 0114 40       		.uleb128 0x40
 7285 0115 18       		.uleb128 0x18
 7286 0116 9742     		.uleb128 0x2117
 7287 0118 19       		.uleb128 0x19
 7288 0119 01       		.uleb128 0x1
 7289 011a 13       		.uleb128 0x13
 7290 011b 00       		.byte	0
 7291 011c 00       		.byte	0
 7292 011d 19       		.uleb128 0x19
 7293 011e 05       		.uleb128 0x5
 7294 011f 00       		.byte	0
 7295 0120 03       		.uleb128 0x3
 7296 0121 0E       		.uleb128 0xe
 7297 0122 3A       		.uleb128 0x3a
 7298 0123 0B       		.uleb128 0xb
 7299 0124 3B       		.uleb128 0x3b
 7300 0125 05       		.uleb128 0x5
 7301 0126 49       		.uleb128 0x49
 7302 0127 13       		.uleb128 0x13
 7303 0128 02       		.uleb128 0x2
 7304 0129 18       		.uleb128 0x18
 7305 012a 00       		.byte	0
 7306 012b 00       		.byte	0
 7307 012c 1A       		.uleb128 0x1a
 7308 012d 2E       		.uleb128 0x2e
 7309 012e 01       		.byte	0x1
 7310 012f 03       		.uleb128 0x3
 7311 0130 0E       		.uleb128 0xe
 7312 0131 3A       		.uleb128 0x3a
 7313 0132 0B       		.uleb128 0xb
 7314 0133 3B       		.uleb128 0x3b
 7315 0134 05       		.uleb128 0x5
 7316 0135 27       		.uleb128 0x27
 7317 0136 19       		.uleb128 0x19
 7318 0137 11       		.uleb128 0x11
 7319 0138 01       		.uleb128 0x1
 7320 0139 12       		.uleb128 0x12
 7321 013a 06       		.uleb128 0x6
 7322 013b 40       		.uleb128 0x40
 7323 013c 18       		.uleb128 0x18
 7324 013d 9642     		.uleb128 0x2116
 7325 013f 19       		.uleb128 0x19
 7326 0140 01       		.uleb128 0x1
 7327 0141 13       		.uleb128 0x13
 7328 0142 00       		.byte	0
 7329 0143 00       		.byte	0
 7330 0144 1B       		.uleb128 0x1b
 7331 0145 2E       		.uleb128 0x2e
 7332 0146 01       		.byte	0x1
 7333 0147 03       		.uleb128 0x3
ARM GAS  C:\Users\ikomb\AppData\Local\Temp\cctq3ka9.s 			page 211


 7334 0148 0E       		.uleb128 0xe
 7335 0149 3A       		.uleb128 0x3a
 7336 014a 0B       		.uleb128 0xb
 7337 014b 3B       		.uleb128 0x3b
 7338 014c 05       		.uleb128 0x5
 7339 014d 27       		.uleb128 0x27
 7340 014e 19       		.uleb128 0x19
 7341 014f 11       		.uleb128 0x11
 7342 0150 01       		.uleb128 0x1
 7343 0151 12       		.uleb128 0x12
 7344 0152 06       		.uleb128 0x6
 7345 0153 40       		.uleb128 0x40
 7346 0154 18       		.uleb128 0x18
 7347 0155 9742     		.uleb128 0x2117
 7348 0157 19       		.uleb128 0x19
 7349 0158 01       		.uleb128 0x1
 7350 0159 13       		.uleb128 0x13
 7351 015a 00       		.byte	0
 7352 015b 00       		.byte	0
 7353 015c 1C       		.uleb128 0x1c
 7354 015d 2E       		.uleb128 0x2e
 7355 015e 01       		.byte	0x1
 7356 015f 03       		.uleb128 0x3
 7357 0160 0E       		.uleb128 0xe
 7358 0161 3A       		.uleb128 0x3a
 7359 0162 0B       		.uleb128 0xb
 7360 0163 3B       		.uleb128 0x3b
 7361 0164 05       		.uleb128 0x5
 7362 0165 27       		.uleb128 0x27
 7363 0166 19       		.uleb128 0x19
 7364 0167 49       		.uleb128 0x49
 7365 0168 13       		.uleb128 0x13
 7366 0169 11       		.uleb128 0x11
 7367 016a 01       		.uleb128 0x1
 7368 016b 12       		.uleb128 0x12
 7369 016c 06       		.uleb128 0x6
 7370 016d 40       		.uleb128 0x40
 7371 016e 18       		.uleb128 0x18
 7372 016f 9642     		.uleb128 0x2116
 7373 0171 19       		.uleb128 0x19
 7374 0172 01       		.uleb128 0x1
 7375 0173 13       		.uleb128 0x13
 7376 0174 00       		.byte	0
 7377 0175 00       		.byte	0
 7378 0176 1D       		.uleb128 0x1d
 7379 0177 2E       		.uleb128 0x2e
 7380 0178 01       		.byte	0x1
 7381 0179 3F       		.uleb128 0x3f
 7382 017a 19       		.uleb128 0x19
 7383 017b 03       		.uleb128 0x3
 7384 017c 0E       		.uleb128 0xe
 7385 017d 3A       		.uleb128 0x3a
 7386 017e 0B       		.uleb128 0xb
 7387 017f 3B       		.uleb128 0x3b
 7388 0180 0B       		.uleb128 0xb
 7389 0181 27       		.uleb128 0x27
 7390 0182 19       		.uleb128 0x19
ARM GAS  C:\Users\ikomb\AppData\Local\Temp\cctq3ka9.s 			page 212


 7391 0183 49       		.uleb128 0x49
 7392 0184 13       		.uleb128 0x13
 7393 0185 11       		.uleb128 0x11
 7394 0186 01       		.uleb128 0x1
 7395 0187 12       		.uleb128 0x12
 7396 0188 06       		.uleb128 0x6
 7397 0189 40       		.uleb128 0x40
 7398 018a 18       		.uleb128 0x18
 7399 018b 9642     		.uleb128 0x2116
 7400 018d 19       		.uleb128 0x19
 7401 018e 01       		.uleb128 0x1
 7402 018f 13       		.uleb128 0x13
 7403 0190 00       		.byte	0
 7404 0191 00       		.byte	0
 7405 0192 1E       		.uleb128 0x1e
 7406 0193 05       		.uleb128 0x5
 7407 0194 00       		.byte	0
 7408 0195 03       		.uleb128 0x3
 7409 0196 0E       		.uleb128 0xe
 7410 0197 3A       		.uleb128 0x3a
 7411 0198 0B       		.uleb128 0xb
 7412 0199 3B       		.uleb128 0x3b
 7413 019a 0B       		.uleb128 0xb
 7414 019b 49       		.uleb128 0x49
 7415 019c 13       		.uleb128 0x13
 7416 019d 02       		.uleb128 0x2
 7417 019e 18       		.uleb128 0x18
 7418 019f 00       		.byte	0
 7419 01a0 00       		.byte	0
 7420 01a1 1F       		.uleb128 0x1f
 7421 01a2 34       		.uleb128 0x34
 7422 01a3 00       		.byte	0
 7423 01a4 03       		.uleb128 0x3
 7424 01a5 08       		.uleb128 0x8
 7425 01a6 3A       		.uleb128 0x3a
 7426 01a7 0B       		.uleb128 0xb
 7427 01a8 3B       		.uleb128 0x3b
 7428 01a9 0B       		.uleb128 0xb
 7429 01aa 49       		.uleb128 0x49
 7430 01ab 13       		.uleb128 0x13
 7431 01ac 02       		.uleb128 0x2
 7432 01ad 18       		.uleb128 0x18
 7433 01ae 00       		.byte	0
 7434 01af 00       		.byte	0
 7435 01b0 20       		.uleb128 0x20
 7436 01b1 2E       		.uleb128 0x2e
 7437 01b2 01       		.byte	0x1
 7438 01b3 3F       		.uleb128 0x3f
 7439 01b4 19       		.uleb128 0x19
 7440 01b5 03       		.uleb128 0x3
 7441 01b6 0E       		.uleb128 0xe
 7442 01b7 3A       		.uleb128 0x3a
 7443 01b8 0B       		.uleb128 0xb
 7444 01b9 3B       		.uleb128 0x3b
 7445 01ba 0B       		.uleb128 0xb
 7446 01bb 27       		.uleb128 0x27
 7447 01bc 19       		.uleb128 0x19
ARM GAS  C:\Users\ikomb\AppData\Local\Temp\cctq3ka9.s 			page 213


 7448 01bd 11       		.uleb128 0x11
 7449 01be 01       		.uleb128 0x1
 7450 01bf 12       		.uleb128 0x12
 7451 01c0 06       		.uleb128 0x6
 7452 01c1 40       		.uleb128 0x40
 7453 01c2 18       		.uleb128 0x18
 7454 01c3 9742     		.uleb128 0x2117
 7455 01c5 19       		.uleb128 0x19
 7456 01c6 01       		.uleb128 0x1
 7457 01c7 13       		.uleb128 0x13
 7458 01c8 00       		.byte	0
 7459 01c9 00       		.byte	0
 7460 01ca 21       		.uleb128 0x21
 7461 01cb 2E       		.uleb128 0x2e
 7462 01cc 01       		.byte	0x1
 7463 01cd 3F       		.uleb128 0x3f
 7464 01ce 19       		.uleb128 0x19
 7465 01cf 03       		.uleb128 0x3
 7466 01d0 0E       		.uleb128 0xe
 7467 01d1 3A       		.uleb128 0x3a
 7468 01d2 0B       		.uleb128 0xb
 7469 01d3 3B       		.uleb128 0x3b
 7470 01d4 05       		.uleb128 0x5
 7471 01d5 27       		.uleb128 0x27
 7472 01d6 19       		.uleb128 0x19
 7473 01d7 49       		.uleb128 0x49
 7474 01d8 13       		.uleb128 0x13
 7475 01d9 11       		.uleb128 0x11
 7476 01da 01       		.uleb128 0x1
 7477 01db 12       		.uleb128 0x12
 7478 01dc 06       		.uleb128 0x6
 7479 01dd 40       		.uleb128 0x40
 7480 01de 18       		.uleb128 0x18
 7481 01df 9642     		.uleb128 0x2116
 7482 01e1 19       		.uleb128 0x19
 7483 01e2 01       		.uleb128 0x1
 7484 01e3 13       		.uleb128 0x13
 7485 01e4 00       		.byte	0
 7486 01e5 00       		.byte	0
 7487 01e6 22       		.uleb128 0x22
 7488 01e7 34       		.uleb128 0x34
 7489 01e8 00       		.byte	0
 7490 01e9 03       		.uleb128 0x3
 7491 01ea 0E       		.uleb128 0xe
 7492 01eb 3A       		.uleb128 0x3a
 7493 01ec 0B       		.uleb128 0xb
 7494 01ed 3B       		.uleb128 0x3b
 7495 01ee 05       		.uleb128 0x5
 7496 01ef 49       		.uleb128 0x49
 7497 01f0 13       		.uleb128 0x13
 7498 01f1 02       		.uleb128 0x2
 7499 01f2 18       		.uleb128 0x18
 7500 01f3 00       		.byte	0
 7501 01f4 00       		.byte	0
 7502 01f5 23       		.uleb128 0x23
 7503 01f6 2E       		.uleb128 0x2e
 7504 01f7 01       		.byte	0x1
ARM GAS  C:\Users\ikomb\AppData\Local\Temp\cctq3ka9.s 			page 214


 7505 01f8 3F       		.uleb128 0x3f
 7506 01f9 19       		.uleb128 0x19
 7507 01fa 03       		.uleb128 0x3
 7508 01fb 0E       		.uleb128 0xe
 7509 01fc 3A       		.uleb128 0x3a
 7510 01fd 0B       		.uleb128 0xb
 7511 01fe 3B       		.uleb128 0x3b
 7512 01ff 05       		.uleb128 0x5
 7513 0200 27       		.uleb128 0x27
 7514 0201 19       		.uleb128 0x19
 7515 0202 11       		.uleb128 0x11
 7516 0203 01       		.uleb128 0x1
 7517 0204 12       		.uleb128 0x12
 7518 0205 06       		.uleb128 0x6
 7519 0206 40       		.uleb128 0x40
 7520 0207 18       		.uleb128 0x18
 7521 0208 9642     		.uleb128 0x2116
 7522 020a 19       		.uleb128 0x19
 7523 020b 01       		.uleb128 0x1
 7524 020c 13       		.uleb128 0x13
 7525 020d 00       		.byte	0
 7526 020e 00       		.byte	0
 7527 020f 24       		.uleb128 0x24
 7528 0210 0B       		.uleb128 0xb
 7529 0211 01       		.byte	0x1
 7530 0212 11       		.uleb128 0x11
 7531 0213 01       		.uleb128 0x1
 7532 0214 12       		.uleb128 0x12
 7533 0215 06       		.uleb128 0x6
 7534 0216 00       		.byte	0
 7535 0217 00       		.byte	0
 7536 0218 25       		.uleb128 0x25
 7537 0219 2E       		.uleb128 0x2e
 7538 021a 01       		.byte	0x1
 7539 021b 3F       		.uleb128 0x3f
 7540 021c 19       		.uleb128 0x19
 7541 021d 03       		.uleb128 0x3
 7542 021e 0E       		.uleb128 0xe
 7543 021f 3A       		.uleb128 0x3a
 7544 0220 0B       		.uleb128 0xb
 7545 0221 3B       		.uleb128 0x3b
 7546 0222 05       		.uleb128 0x5
 7547 0223 27       		.uleb128 0x27
 7548 0224 19       		.uleb128 0x19
 7549 0225 49       		.uleb128 0x49
 7550 0226 13       		.uleb128 0x13
 7551 0227 11       		.uleb128 0x11
 7552 0228 01       		.uleb128 0x1
 7553 0229 12       		.uleb128 0x12
 7554 022a 06       		.uleb128 0x6
 7555 022b 40       		.uleb128 0x40
 7556 022c 18       		.uleb128 0x18
 7557 022d 9742     		.uleb128 0x2117
 7558 022f 19       		.uleb128 0x19
 7559 0230 01       		.uleb128 0x1
 7560 0231 13       		.uleb128 0x13
 7561 0232 00       		.byte	0
ARM GAS  C:\Users\ikomb\AppData\Local\Temp\cctq3ka9.s 			page 215


 7562 0233 00       		.byte	0
 7563 0234 26       		.uleb128 0x26
 7564 0235 2E       		.uleb128 0x2e
 7565 0236 01       		.byte	0x1
 7566 0237 3F       		.uleb128 0x3f
 7567 0238 19       		.uleb128 0x19
 7568 0239 03       		.uleb128 0x3
 7569 023a 0E       		.uleb128 0xe
 7570 023b 3A       		.uleb128 0x3a
 7571 023c 0B       		.uleb128 0xb
 7572 023d 3B       		.uleb128 0x3b
 7573 023e 05       		.uleb128 0x5
 7574 023f 27       		.uleb128 0x27
 7575 0240 19       		.uleb128 0x19
 7576 0241 11       		.uleb128 0x11
 7577 0242 01       		.uleb128 0x1
 7578 0243 12       		.uleb128 0x12
 7579 0244 06       		.uleb128 0x6
 7580 0245 40       		.uleb128 0x40
 7581 0246 18       		.uleb128 0x18
 7582 0247 9742     		.uleb128 0x2117
 7583 0249 19       		.uleb128 0x19
 7584 024a 01       		.uleb128 0x1
 7585 024b 13       		.uleb128 0x13
 7586 024c 00       		.byte	0
 7587 024d 00       		.byte	0
 7588 024e 27       		.uleb128 0x27
 7589 024f 0B       		.uleb128 0xb
 7590 0250 01       		.byte	0x1
 7591 0251 11       		.uleb128 0x11
 7592 0252 01       		.uleb128 0x1
 7593 0253 12       		.uleb128 0x12
 7594 0254 06       		.uleb128 0x6
 7595 0255 01       		.uleb128 0x1
 7596 0256 13       		.uleb128 0x13
 7597 0257 00       		.byte	0
 7598 0258 00       		.byte	0
 7599 0259 28       		.uleb128 0x28
 7600 025a 34       		.uleb128 0x34
 7601 025b 00       		.byte	0
 7602 025c 03       		.uleb128 0x3
 7603 025d 08       		.uleb128 0x8
 7604 025e 3A       		.uleb128 0x3a
 7605 025f 0B       		.uleb128 0xb
 7606 0260 3B       		.uleb128 0x3b
 7607 0261 05       		.uleb128 0x5
 7608 0262 49       		.uleb128 0x49
 7609 0263 13       		.uleb128 0x13
 7610 0264 02       		.uleb128 0x2
 7611 0265 18       		.uleb128 0x18
 7612 0266 00       		.byte	0
 7613 0267 00       		.byte	0
 7614 0268 29       		.uleb128 0x29
 7615 0269 34       		.uleb128 0x34
 7616 026a 00       		.byte	0
 7617 026b 03       		.uleb128 0x3
 7618 026c 0E       		.uleb128 0xe
ARM GAS  C:\Users\ikomb\AppData\Local\Temp\cctq3ka9.s 			page 216


 7619 026d 3A       		.uleb128 0x3a
 7620 026e 0B       		.uleb128 0xb
 7621 026f 3B       		.uleb128 0x3b
 7622 0270 05       		.uleb128 0x5
 7623 0271 49       		.uleb128 0x49
 7624 0272 13       		.uleb128 0x13
 7625 0273 3F       		.uleb128 0x3f
 7626 0274 19       		.uleb128 0x19
 7627 0275 3C       		.uleb128 0x3c
 7628 0276 19       		.uleb128 0x19
 7629 0277 00       		.byte	0
 7630 0278 00       		.byte	0
 7631 0279 00       		.byte	0
 7632              		.section	.debug_aranges,"",%progbits
 7633 0000 9C010000 		.4byte	0x19c
 7634 0004 0200     		.2byte	0x2
 7635 0006 00000000 		.4byte	.Ldebug_info0
 7636 000a 04       		.byte	0x4
 7637 000b 00       		.byte	0
 7638 000c 0000     		.2byte	0
 7639 000e 0000     		.2byte	0
 7640 0010 00000000 		.4byte	.LFB158
 7641 0014 1A000000 		.4byte	.LFE158-.LFB158
 7642 0018 00000000 		.4byte	.LFB159
 7643 001c 44000000 		.4byte	.LFE159-.LFB159
 7644 0020 00000000 		.4byte	.LFB160
 7645 0024 1E000000 		.4byte	.LFE160-.LFB160
 7646 0028 00000000 		.4byte	.LFB163
 7647 002c 1E000000 		.4byte	.LFE163-.LFB163
 7648 0030 00000000 		.4byte	.LFB164
 7649 0034 44000000 		.4byte	.LFE164-.LFB164
 7650 0038 00000000 		.4byte	.LFB165
 7651 003c 1E000000 		.4byte	.LFE165-.LFB165
 7652 0040 00000000 		.4byte	.LFB166
 7653 0044 20000000 		.4byte	.LFE166-.LFB166
 7654 0048 00000000 		.4byte	.LFB167
 7655 004c 2C000000 		.4byte	.LFE167-.LFB167
 7656 0050 00000000 		.4byte	.LFB168
 7657 0054 3A000000 		.4byte	.LFE168-.LFB168
 7658 0058 00000000 		.4byte	.LFB170
 7659 005c 1A000000 		.4byte	.LFE170-.LFB170
 7660 0060 00000000 		.4byte	.LFB172
 7661 0064 38000000 		.4byte	.LFE172-.LFB172
 7662 0068 00000000 		.4byte	.LFB174
 7663 006c 1A000000 		.4byte	.LFE174-.LFB174
 7664 0070 00000000 		.4byte	.LFB175
 7665 0074 3C000000 		.4byte	.LFE175-.LFB175
 7666 0078 00000000 		.4byte	.LFB177
 7667 007c 20000000 		.4byte	.LFE177-.LFB177
 7668 0080 00000000 		.4byte	.LFB178
 7669 0084 38000000 		.4byte	.LFE178-.LFB178
 7670 0088 00000000 		.4byte	.LFB179
 7671 008c 1A000000 		.4byte	.LFE179-.LFB179
 7672 0090 00000000 		.4byte	.LFB180
 7673 0094 1A000000 		.4byte	.LFE180-.LFB180
 7674 0098 00000000 		.4byte	.LFB181
 7675 009c 3C000000 		.4byte	.LFE181-.LFB181
ARM GAS  C:\Users\ikomb\AppData\Local\Temp\cctq3ka9.s 			page 217


 7676 00a0 00000000 		.4byte	.LFB205
 7677 00a4 26000000 		.4byte	.LFE205-.LFB205
 7678 00a8 00000000 		.4byte	.LFB206
 7679 00ac 28000000 		.4byte	.LFE206-.LFB206
 7680 00b0 00000000 		.4byte	.LFB207
 7681 00b4 28000000 		.4byte	.LFE207-.LFB207
 7682 00b8 00000000 		.4byte	.LFB210
 7683 00bc 20000000 		.4byte	.LFE210-.LFB210
 7684 00c0 00000000 		.4byte	.LFB218
 7685 00c4 3C000000 		.4byte	.LFE218-.LFB218
 7686 00c8 00000000 		.4byte	.LFB222
 7687 00cc 18000000 		.4byte	.LFE222-.LFB222
 7688 00d0 00000000 		.4byte	.LFB225
 7689 00d4 3C000000 		.4byte	.LFE225-.LFB225
 7690 00d8 00000000 		.4byte	.LFB231
 7691 00dc 18000000 		.4byte	.LFE231-.LFB231
 7692 00e0 00000000 		.4byte	.LFB232
 7693 00e4 16000000 		.4byte	.LFE232-.LFB232
 7694 00e8 00000000 		.4byte	.LFB234
 7695 00ec F0040000 		.4byte	.LFE234-.LFB234
 7696 00f0 00000000 		.4byte	.LFB235
 7697 00f4 94000000 		.4byte	.LFE235-.LFB235
 7698 00f8 00000000 		.4byte	.LFB236
 7699 00fc 40000000 		.4byte	.LFE236-.LFB236
 7700 0100 00000000 		.4byte	.LFB237
 7701 0104 C0000000 		.4byte	.LFE237-.LFB237
 7702 0108 00000000 		.4byte	.LFB238
 7703 010c 18000000 		.4byte	.LFE238-.LFB238
 7704 0110 00000000 		.4byte	.LFB239
 7705 0114 AC000000 		.4byte	.LFE239-.LFB239
 7706 0118 00000000 		.4byte	.LFB240
 7707 011c 2E000000 		.4byte	.LFE240-.LFB240
 7708 0120 00000000 		.4byte	.LFB241
 7709 0124 44000000 		.4byte	.LFE241-.LFB241
 7710 0128 00000000 		.4byte	.LFB242
 7711 012c 1E000000 		.4byte	.LFE242-.LFB242
 7712 0130 00000000 		.4byte	.LFB243
 7713 0134 C8010000 		.4byte	.LFE243-.LFB243
 7714 0138 00000000 		.4byte	.LFB244
 7715 013c 34000000 		.4byte	.LFE244-.LFB244
 7716 0140 00000000 		.4byte	.LFB245
 7717 0144 1A000000 		.4byte	.LFE245-.LFB245
 7718 0148 00000000 		.4byte	.LFB246
 7719 014c 1A000000 		.4byte	.LFE246-.LFB246
 7720 0150 00000000 		.4byte	.LFB247
 7721 0154 B8000000 		.4byte	.LFE247-.LFB247
 7722 0158 00000000 		.4byte	.LFB248
 7723 015c 32000000 		.4byte	.LFE248-.LFB248
 7724 0160 00000000 		.4byte	.LFB249
 7725 0164 1A000000 		.4byte	.LFE249-.LFB249
 7726 0168 00000000 		.4byte	.LFB250
 7727 016c 1A000000 		.4byte	.LFE250-.LFB250
 7728 0170 00000000 		.4byte	.LFB251
 7729 0174 9C000000 		.4byte	.LFE251-.LFB251
 7730 0178 00000000 		.4byte	.LFB252
 7731 017c 5C010000 		.4byte	.LFE252-.LFB252
 7732 0180 00000000 		.4byte	.LFB253
ARM GAS  C:\Users\ikomb\AppData\Local\Temp\cctq3ka9.s 			page 218


 7733 0184 E4000000 		.4byte	.LFE253-.LFB253
 7734 0188 00000000 		.4byte	.LFB254
 7735 018c FC000000 		.4byte	.LFE254-.LFB254
 7736 0190 00000000 		.4byte	.LFB255
 7737 0194 FC000000 		.4byte	.LFE255-.LFB255
 7738 0198 00000000 		.4byte	0
 7739 019c 00000000 		.4byte	0
 7740              		.section	.debug_ranges,"",%progbits
 7741              	.Ldebug_ranges0:
 7742 0000 00000000 		.4byte	.LFB158
 7743 0004 1A000000 		.4byte	.LFE158
 7744 0008 00000000 		.4byte	.LFB159
 7745 000c 44000000 		.4byte	.LFE159
 7746 0010 00000000 		.4byte	.LFB160
 7747 0014 1E000000 		.4byte	.LFE160
 7748 0018 00000000 		.4byte	.LFB163
 7749 001c 1E000000 		.4byte	.LFE163
 7750 0020 00000000 		.4byte	.LFB164
 7751 0024 44000000 		.4byte	.LFE164
 7752 0028 00000000 		.4byte	.LFB165
 7753 002c 1E000000 		.4byte	.LFE165
 7754 0030 00000000 		.4byte	.LFB166
 7755 0034 20000000 		.4byte	.LFE166
 7756 0038 00000000 		.4byte	.LFB167
 7757 003c 2C000000 		.4byte	.LFE167
 7758 0040 00000000 		.4byte	.LFB168
 7759 0044 3A000000 		.4byte	.LFE168
 7760 0048 00000000 		.4byte	.LFB170
 7761 004c 1A000000 		.4byte	.LFE170
 7762 0050 00000000 		.4byte	.LFB172
 7763 0054 38000000 		.4byte	.LFE172
 7764 0058 00000000 		.4byte	.LFB174
 7765 005c 1A000000 		.4byte	.LFE174
 7766 0060 00000000 		.4byte	.LFB175
 7767 0064 3C000000 		.4byte	.LFE175
 7768 0068 00000000 		.4byte	.LFB177
 7769 006c 20000000 		.4byte	.LFE177
 7770 0070 00000000 		.4byte	.LFB178
 7771 0074 38000000 		.4byte	.LFE178
 7772 0078 00000000 		.4byte	.LFB179
 7773 007c 1A000000 		.4byte	.LFE179
 7774 0080 00000000 		.4byte	.LFB180
 7775 0084 1A000000 		.4byte	.LFE180
 7776 0088 00000000 		.4byte	.LFB181
 7777 008c 3C000000 		.4byte	.LFE181
 7778 0090 00000000 		.4byte	.LFB205
 7779 0094 26000000 		.4byte	.LFE205
 7780 0098 00000000 		.4byte	.LFB206
 7781 009c 28000000 		.4byte	.LFE206
 7782 00a0 00000000 		.4byte	.LFB207
 7783 00a4 28000000 		.4byte	.LFE207
 7784 00a8 00000000 		.4byte	.LFB210
 7785 00ac 20000000 		.4byte	.LFE210
 7786 00b0 00000000 		.4byte	.LFB218
 7787 00b4 3C000000 		.4byte	.LFE218
 7788 00b8 00000000 		.4byte	.LFB222
 7789 00bc 18000000 		.4byte	.LFE222
ARM GAS  C:\Users\ikomb\AppData\Local\Temp\cctq3ka9.s 			page 219


 7790 00c0 00000000 		.4byte	.LFB225
 7791 00c4 3C000000 		.4byte	.LFE225
 7792 00c8 00000000 		.4byte	.LFB231
 7793 00cc 18000000 		.4byte	.LFE231
 7794 00d0 00000000 		.4byte	.LFB232
 7795 00d4 16000000 		.4byte	.LFE232
 7796 00d8 00000000 		.4byte	.LFB234
 7797 00dc F0040000 		.4byte	.LFE234
 7798 00e0 00000000 		.4byte	.LFB235
 7799 00e4 94000000 		.4byte	.LFE235
 7800 00e8 00000000 		.4byte	.LFB236
 7801 00ec 40000000 		.4byte	.LFE236
 7802 00f0 00000000 		.4byte	.LFB237
 7803 00f4 C0000000 		.4byte	.LFE237
 7804 00f8 00000000 		.4byte	.LFB238
 7805 00fc 18000000 		.4byte	.LFE238
 7806 0100 00000000 		.4byte	.LFB239
 7807 0104 AC000000 		.4byte	.LFE239
 7808 0108 00000000 		.4byte	.LFB240
 7809 010c 2E000000 		.4byte	.LFE240
 7810 0110 00000000 		.4byte	.LFB241
 7811 0114 44000000 		.4byte	.LFE241
 7812 0118 00000000 		.4byte	.LFB242
 7813 011c 1E000000 		.4byte	.LFE242
 7814 0120 00000000 		.4byte	.LFB243
 7815 0124 C8010000 		.4byte	.LFE243
 7816 0128 00000000 		.4byte	.LFB244
 7817 012c 34000000 		.4byte	.LFE244
 7818 0130 00000000 		.4byte	.LFB245
 7819 0134 1A000000 		.4byte	.LFE245
 7820 0138 00000000 		.4byte	.LFB246
 7821 013c 1A000000 		.4byte	.LFE246
 7822 0140 00000000 		.4byte	.LFB247
 7823 0144 B8000000 		.4byte	.LFE247
 7824 0148 00000000 		.4byte	.LFB248
 7825 014c 32000000 		.4byte	.LFE248
 7826 0150 00000000 		.4byte	.LFB249
 7827 0154 1A000000 		.4byte	.LFE249
 7828 0158 00000000 		.4byte	.LFB250
 7829 015c 1A000000 		.4byte	.LFE250
 7830 0160 00000000 		.4byte	.LFB251
 7831 0164 9C000000 		.4byte	.LFE251
 7832 0168 00000000 		.4byte	.LFB252
 7833 016c 5C010000 		.4byte	.LFE252
 7834 0170 00000000 		.4byte	.LFB253
 7835 0174 E4000000 		.4byte	.LFE253
 7836 0178 00000000 		.4byte	.LFB254
 7837 017c FC000000 		.4byte	.LFE254
 7838 0180 00000000 		.4byte	.LFB255
 7839 0184 FC000000 		.4byte	.LFE255
 7840 0188 00000000 		.4byte	0
 7841 018c 00000000 		.4byte	0
 7842              		.section	.debug_line,"",%progbits
 7843              	.Ldebug_line0:
 7844 0000 4A0B0000 		.section	.debug_str,"MS",%progbits,1
 7844      02006E02 
 7844      00000201 
ARM GAS  C:\Users\ikomb\AppData\Local\Temp\cctq3ka9.s 			page 220


 7844      FB0E0D00 
 7844      01010101 
 7845              	.LASF182:
 7846 0000 43795F53 		.ascii	"Cy_SCB_WriteTxFifo\000"
 7846      43425F57 
 7846      72697465 
 7846      54784669 
 7846      666F00
 7847              	.LASF23:
 7848 0013 52455345 		.ascii	"RESERVED\000"
 7848      52564544 
 7848      00
 7849              	.LASF139:
 7850 001c 70617269 		.ascii	"parity\000"
 7850      747900
 7851              	.LASF108:
 7852 0023 63795F73 		.ascii	"cy_stc_syspm_callback_params_t\000"
 7852      74635F73 
 7852      7973706D 
 7852      5F63616C 
 7852      6C626163 
 7853              	.LASF106:
 7854 0042 62617365 		.ascii	"base\000"
 7854      00
 7855              	.LASF226:
 7856 0047 43795F53 		.ascii	"Cy_SCB_UART_Receive\000"
 7856      43425F55 
 7856      4152545F 
 7856      52656365 
 7856      69766500 
 7857              	.LASF220:
 7858 005b 43795F53 		.ascii	"Cy_SCB_UART_StartRingBuffer\000"
 7858      43425F55 
 7858      4152545F 
 7858      53746172 
 7858      7452696E 
 7859              	.LASF137:
 7860 0077 656E6162 		.ascii	"enableMsbFirst\000"
 7860      6C654D73 
 7860      62466972 
 7860      737400
 7861              	.LASF163:
 7862 0086 74785374 		.ascii	"txStatus\000"
 7862      61747573 
 7862      00
 7863              	.LASF109:
 7864 008f 43595F53 		.ascii	"CY_SCB_UART_SUCCESS\000"
 7864      43425F55 
 7864      4152545F 
 7864      53554343 
 7864      45535300 
 7865              	.LASF22:
 7866 00a3 434D445F 		.ascii	"CMD_RESP_STATUS\000"
 7866      52455350 
 7866      5F535441 
 7866      54555300 
 7867              	.LASF99:
ARM GAS  C:\Users\ikomb\AppData\Local\Temp\cctq3ka9.s 			page 221


 7868 00b3 63795F65 		.ascii	"cy_en_syspm_status_t\000"
 7868      6E5F7379 
 7868      73706D5F 
 7868      73746174 
 7868      75735F74 
 7869              	.LASF82:
 7870 00c8 494E5452 		.ascii	"INTR_TX_MASK\000"
 7870      5F54585F 
 7870      4D41534B 
 7870      00
 7871              	.LASF196:
 7872 00d5 43795F53 		.ascii	"Cy_SCB_GetTxInterruptMask\000"
 7872      43425F47 
 7872      65745478 
 7872      496E7465 
 7872      72727570 
 7873              	.LASF204:
 7874 00ef 62756666 		.ascii	"buffer\000"
 7874      657200
 7875              	.LASF197:
 7876 00f6 43795F53 		.ascii	"Cy_SCB_GetTxInterruptStatusMasked\000"
 7876      43425F47 
 7876      65745478 
 7876      496E7465 
 7876      72727570 
 7877              	.LASF43:
 7878 0118 54585F46 		.ascii	"TX_FIFO_STATUS\000"
 7878      49464F5F 
 7878      53544154 
 7878      555300
 7879              	.LASF247:
 7880 0127 72784461 		.ascii	"rxData\000"
 7880      746100
 7881              	.LASF12:
 7882 012e 756E7369 		.ascii	"unsigned int\000"
 7882      676E6564 
 7882      20696E74 
 7882      00
 7883              	.LASF58:
 7884 013b 494E5452 		.ascii	"INTR_CAUSE\000"
 7884      5F434155 
 7884      534500
 7885              	.LASF130:
 7886 0146 43595F53 		.ascii	"CY_SCB_UART_ACTIVE_LOW\000"
 7886      43425F55 
 7886      4152545F 
 7886      41435449 
 7886      56455F4C 
 7887              	.LASF143:
 7888 015d 656E6162 		.ascii	"enableMutliProcessorMode\000"
 7888      6C654D75 
 7888      746C6950 
 7888      726F6365 
 7888      73736F72 
 7889              	.LASF48:
 7890 0176 52585F46 		.ascii	"RX_FIFO_CTRL\000"
 7890      49464F5F 
ARM GAS  C:\Users\ikomb\AppData\Local\Temp\cctq3ka9.s 			page 222


 7890      4354524C 
 7890      00
 7891              	.LASF6:
 7892 0183 5F5F696E 		.ascii	"__int32_t\000"
 7892      7433325F 
 7892      7400
 7893              	.LASF177:
 7894 018d 63795F73 		.ascii	"cy_stc_scb_uart_context_t\000"
 7894      74635F73 
 7894      63625F75 
 7894      6172745F 
 7894      636F6E74 
 7895              	.LASF199:
 7896 01a7 43795F53 		.ascii	"Cy_SCB_GetFifoSize\000"
 7896      43425F47 
 7896      65744669 
 7896      666F5369 
 7896      7A6500
 7897              	.LASF76:
 7898 01ba 494E5452 		.ascii	"INTR_S_SET\000"
 7898      5F535F53 
 7898      455400
 7899              	.LASF178:
 7900 01c5 6C657665 		.ascii	"level\000"
 7900      6C00
 7901              	.LASF81:
 7902 01cb 494E5452 		.ascii	"INTR_TX_SET\000"
 7902      5F54585F 
 7902      53455400 
 7903              	.LASF88:
 7904 01d7 494E5452 		.ascii	"INTR_RX_MASKED\000"
 7904      5F52585F 
 7904      4D41534B 
 7904      454400
 7905              	.LASF140:
 7906 01e6 656E6162 		.ascii	"enableInputFilter\000"
 7906      6C65496E 
 7906      70757446 
 7906      696C7465 
 7906      7200
 7907              	.LASF166:
 7908 01f8 72785269 		.ascii	"rxRingBufSize\000"
 7908      6E674275 
 7908      6653697A 
 7908      6500
 7909              	.LASF228:
 7910 0206 6E756D54 		.ascii	"numToCopy\000"
 7910      6F436F70 
 7910      7900
 7911              	.LASF123:
 7912 0210 43595F53 		.ascii	"CY_SCB_UART_STOP_BITS_3_5\000"
 7912      43425F55 
 7912      4152545F 
 7912      53544F50 
 7912      5F424954 
 7913              	.LASF238:
 7914 022a 43795F53 		.ascii	"Cy_SCB_UART_SendBreakBlocking\000"
ARM GAS  C:\Users\ikomb\AppData\Local\Temp\cctq3ka9.s 			page 223


 7914      43425F55 
 7914      4152545F 
 7914      53656E64 
 7914      42726561 
 7915              	.LASF105:
 7916 0248 6D6F6465 		.ascii	"mode\000"
 7916      00
 7917              	.LASF49:
 7918 024d 52585F46 		.ascii	"RX_FIFO_STATUS\000"
 7918      49464F5F 
 7918      53544154 
 7918      555300
 7919              	.LASF113:
 7920 025c 63795F65 		.ascii	"cy_en_scb_uart_status_t\000"
 7920      6E5F7363 
 7920      625F7561 
 7920      72745F73 
 7920      74617475 
 7921              	.LASF254:
 7922 0274 433A5C55 		.ascii	"C:\\Users\\ikomb\\Documents\\PSoC Creator\\CE222221"
 7922      73657273 
 7922      5C696B6F 
 7922      6D625C44 
 7922      6F63756D 
 7923 02a2 5F566F69 		.ascii	"_Voice_Recorder01\\CE222221_Voice_Recorder01.cydsn\000"
 7923      63655F52 
 7923      65636F72 
 7923      64657230 
 7923      315C4345 
 7924              	.LASF242:
 7925 02d4 6C6F6352 		.ascii	"locRxErr\000"
 7925      78457272 
 7925      00
 7926              	.LASF188:
 7927 02dd 43795F53 		.ascii	"Cy_SCB_ClearTxFifo\000"
 7927      43425F43 
 7927      6C656172 
 7927      54784669 
 7927      666F00
 7928              	.LASF29:
 7929 02f0 55415254 		.ascii	"UART_RX_CTRL\000"
 7929      5F52585F 
 7929      4354524C 
 7929      00
 7930              	.LASF89:
 7931 02fd 43795343 		.ascii	"CySCB_Type\000"
 7931      425F5479 
 7931      706500
 7932              	.LASF101:
 7933 0308 43595F53 		.ascii	"CY_SYSPM_CHECK_FAIL\000"
 7933      5953504D 
 7933      5F434845 
 7933      434B5F46 
 7933      41494C00 
 7934              	.LASF127:
 7935 031c 43595F53 		.ascii	"CY_SCB_UART_PARITY_EVEN\000"
 7935      43425F55 
ARM GAS  C:\Users\ikomb\AppData\Local\Temp\cctq3ka9.s 			page 224


 7935      4152545F 
 7935      50415249 
 7935      54595F45 
 7936              	.LASF164:
 7937 0334 72785374 		.ascii	"rxStatus\000"
 7937      61747573 
 7937      00
 7938              	.LASF37:
 7939 033d 4932435F 		.ascii	"I2C_CFG\000"
 7939      43464700 
 7940              	.LASF54:
 7941 0345 52585F46 		.ascii	"RX_FIFO_RD_SILENT\000"
 7941      49464F5F 
 7941      52445F53 
 7941      494C454E 
 7941      5400
 7942              	.LASF180:
 7943 0357 43795F53 		.ascii	"Cy_SCB_GetNumInRxFifo\000"
 7943      43425F47 
 7943      65744E75 
 7943      6D496E52 
 7943      78466966 
 7944              	.LASF116:
 7945 036d 43595F53 		.ascii	"CY_SCB_UART_IRDA\000"
 7945      43425F55 
 7945      4152545F 
 7945      49524441 
 7945      00
 7946              	.LASF16:
 7947 037e 75696E74 		.ascii	"uint32_t\000"
 7947      33325F74 
 7947      00
 7948              	.LASF201:
 7949 0387 43795F53 		.ascii	"Cy_SCB_IsTxDataWidthByte\000"
 7949      43425F49 
 7949      73547844 
 7949      61746157 
 7949      69647468 
 7950              	.LASF155:
 7951 03a0 72784669 		.ascii	"rxFifoTriggerLevel\000"
 7951      666F5472 
 7951      69676765 
 7951      724C6576 
 7951      656C00
 7952              	.LASF71:
 7953 03b3 494E5452 		.ascii	"INTR_M_SET\000"
 7953      5F4D5F53 
 7953      455400
 7954              	.LASF147:
 7955 03be 69726461 		.ascii	"irdaInvertRx\000"
 7955      496E7665 
 7955      72745278 
 7955      00
 7956              	.LASF244:
 7957 03cb 48616E64 		.ascii	"HandleDataReceive\000"
 7957      6C654461 
 7957      74615265 
ARM GAS  C:\Users\ikomb\AppData\Local\Temp\cctq3ka9.s 			page 225


 7957      63656976 
 7957      6500
 7958              	.LASF161:
 7959 03dd 7374635F 		.ascii	"stc_scb_uart_config\000"
 7959      7363625F 
 7959      75617274 
 7959      5F636F6E 
 7959      66696700 
 7960              	.LASF73:
 7961 03f1 494E5452 		.ascii	"INTR_M_MASKED\000"
 7961      5F4D5F4D 
 7961      41534B45 
 7961      4400
 7962              	.LASF232:
 7963 03ff 43795F53 		.ascii	"Cy_SCB_UART_GetNumReceived\000"
 7963      43425F55 
 7963      4152545F 
 7963      4765744E 
 7963      756D5265 
 7964              	.LASF162:
 7965 041a 63795F73 		.ascii	"cy_stc_scb_uart_context\000"
 7965      74635F73 
 7965      63625F75 
 7965      6172745F 
 7965      636F6E74 
 7966              	.LASF153:
 7967 0432 72747350 		.ascii	"rtsPolarity\000"
 7967      6F6C6172 
 7967      69747900 
 7968              	.LASF179:
 7969 043e 43795F53 		.ascii	"Cy_SCB_ReadRxFifo\000"
 7969      43425F52 
 7969      65616452 
 7969      78466966 
 7969      6F00
 7970              	.LASF112:
 7971 0450 43595F53 		.ascii	"CY_SCB_UART_TRANSMIT_BUSY\000"
 7971      43425F55 
 7971      4152545F 
 7971      5452414E 
 7971      534D4954 
 7972              	.LASF11:
 7973 046a 6C6F6E67 		.ascii	"long long unsigned int\000"
 7973      206C6F6E 
 7973      6720756E 
 7973      7369676E 
 7973      65642069 
 7974              	.LASF208:
 7975 0481 43795F53 		.ascii	"Cy_SCB_UART_IsTxComplete\000"
 7975      43425F55 
 7975      4152545F 
 7975      49735478 
 7975      436F6D70 
 7976              	.LASF243:
 7977 049a 6C6F6354 		.ascii	"locTxErr\000"
 7977      78457272 
 7977      00
ARM GAS  C:\Users\ikomb\AppData\Local\Temp\cctq3ka9.s 			page 226


 7978              	.LASF131:
 7979 04a3 43595F53 		.ascii	"CY_SCB_UART_ACTIVE_HIGH\000"
 7979      43425F55 
 7979      4152545F 
 7979      41435449 
 7979      56455F48 
 7980              	.LASF4:
 7981 04bb 5F5F7569 		.ascii	"__uint16_t\000"
 7981      6E743136 
 7981      5F7400
 7982              	.LASF41:
 7983 04c6 54585F43 		.ascii	"TX_CTRL\000"
 7983      54524C00 
 7984              	.LASF28:
 7985 04ce 55415254 		.ascii	"UART_TX_CTRL\000"
 7985      5F54585F 
 7985      4354524C 
 7985      00
 7986              	.LASF235:
 7987 04db 43795F53 		.ascii	"Cy_SCB_UART_AbortTransmit\000"
 7987      43425F55 
 7987      4152545F 
 7987      41626F72 
 7987      74547261 
 7988              	.LASF192:
 7989 04f5 43795F53 		.ascii	"Cy_SCB_GetRxInterruptStatusMasked\000"
 7989      43425F47 
 7989      65745278 
 7989      496E7465 
 7989      72727570 
 7990              	.LASF169:
 7991 0517 72784275 		.ascii	"rxBuf\000"
 7991      6600
 7992              	.LASF94:
 7993 051d 43595F53 		.ascii	"CY_SYSPM_SUCCESS\000"
 7993      5953504D 
 7993      5F535543 
 7993      43455353 
 7993      00
 7994              	.LASF212:
 7995 052e 43795F53 		.ascii	"Cy_SCB_UART_Disable\000"
 7995      43425F55 
 7995      4152545F 
 7995      44697361 
 7995      626C6500 
 7996              	.LASF132:
 7997 0542 63795F65 		.ascii	"cy_en_scb_uart_polarity_t\000"
 7997      6E5F7363 
 7997      625F7561 
 7997      72745F70 
 7997      6F6C6172 
 7998              	.LASF65:
 7999 055c 494E5452 		.ascii	"INTR_SPI_EC\000"
 7999      5F535049 
 7999      5F454300 
 8000              	.LASF121:
 8001 0568 43595F53 		.ascii	"CY_SCB_UART_STOP_BITS_2_5\000"
ARM GAS  C:\Users\ikomb\AppData\Local\Temp\cctq3ka9.s 			page 227


 8001      43425F55 
 8001      4152545F 
 8001      53544F50 
 8001      5F424954 
 8002              	.LASF115:
 8003 0582 43595F53 		.ascii	"CY_SCB_UART_SMARTCARD\000"
 8003      43425F55 
 8003      4152545F 
 8003      534D4152 
 8003      54434152 
 8004              	.LASF175:
 8005 0598 63624576 		.ascii	"cbEvents\000"
 8005      656E7473 
 8005      00
 8006              	.LASF239:
 8007 05a1 74784374 		.ascii	"txCtrlReg\000"
 8007      726C5265 
 8007      6700
 8008              	.LASF159:
 8009 05ab 5F426F6F 		.ascii	"_Bool\000"
 8009      6C00
 8010              	.LASF198:
 8011 05b1 43795F53 		.ascii	"Cy_SCB_ClearTxInterrupt\000"
 8011      43425F43 
 8011      6C656172 
 8011      5478496E 
 8011      74657272 
 8012              	.LASF119:
 8013 05c9 43595F53 		.ascii	"CY_SCB_UART_STOP_BITS_1_5\000"
 8013      43425F55 
 8013      4152545F 
 8013      53544F50 
 8013      5F424954 
 8014              	.LASF250:
 8015 05e3 74784461 		.ascii	"txData\000"
 8015      746100
 8016              	.LASF255:
 8017 05ea 49544D5F 		.ascii	"ITM_RxBuffer\000"
 8017      52784275 
 8017      66666572 
 8017      00
 8018              	.LASF60:
 8019 05f7 494E5452 		.ascii	"INTR_I2C_EC\000"
 8019      5F493243 
 8019      5F454300 
 8020              	.LASF185:
 8021 0603 43795F53 		.ascii	"Cy_SCB_GetNumInTxFifo\000"
 8021      43425F47 
 8021      65744E75 
 8021      6D496E54 
 8021      78466966 
 8022              	.LASF78:
 8023 0619 494E5452 		.ascii	"INTR_S_MASKED\000"
 8023      5F535F4D 
 8023      41534B45 
 8023      4400
 8024              	.LASF129:
ARM GAS  C:\Users\ikomb\AppData\Local\Temp\cctq3ka9.s 			page 228


 8025 0627 63795F65 		.ascii	"cy_en_scb_uart_parity_t\000"
 8025      6E5F7363 
 8025      625F7561 
 8025      72745F70 
 8025      61726974 
 8026              	.LASF253:
 8027 063f 47656E65 		.ascii	"Generated_Source\\PSoC6\\pdl\\drivers\\peripheral\\"
 8027      72617465 
 8027      645F536F 
 8027      75726365 
 8027      5C50536F 
 8028 066d 7363625C 		.ascii	"scb\\cy_scb_uart.c\000"
 8028      63795F73 
 8028      63625F75 
 8028      6172742E 
 8028      6300
 8029              	.LASF146:
 8030 067f 61636365 		.ascii	"acceptAddrInFifo\000"
 8030      70744164 
 8030      6472496E 
 8030      4669666F 
 8030      00
 8031              	.LASF229:
 8032 0690 6C6F6354 		.ascii	"locTail\000"
 8032      61696C00 
 8033              	.LASF96:
 8034 0698 43595F53 		.ascii	"CY_SYSPM_TIMEOUT\000"
 8034      5953504D 
 8034      5F54494D 
 8034      454F5554 
 8034      00
 8035              	.LASF97:
 8036 06a9 43595F53 		.ascii	"CY_SYSPM_INVALID_STATE\000"
 8036      5953504D 
 8036      5F494E56 
 8036      414C4944 
 8036      5F535441 
 8037              	.LASF221:
 8038 06c0 68616C66 		.ascii	"halfFifoSize\000"
 8038      4669666F 
 8038      53697A65 
 8038      00
 8039              	.LASF246:
 8040 06cd 48616E64 		.ascii	"HandleRingBuffer\000"
 8040      6C655269 
 8040      6E674275 
 8040      66666572 
 8040      00
 8041              	.LASF91:
 8042 06de 63686172 		.ascii	"char\000"
 8042      00
 8043              	.LASF168:
 8044 06e3 72785269 		.ascii	"rxRingBufTail\000"
 8044      6E674275 
 8044      66546169 
 8044      6C00
 8045              	.LASF144:
ARM GAS  C:\Users\ikomb\AppData\Local\Temp\cctq3ka9.s 			page 229


 8046 06f1 72656365 		.ascii	"receiverAddress\000"
 8046      69766572 
 8046      41646472 
 8046      65737300 
 8047              	.LASF154:
 8048 0701 62726561 		.ascii	"breakWidth\000"
 8048      6B576964 
 8048      746800
 8049              	.LASF77:
 8050 070c 494E5452 		.ascii	"INTR_S_MASK\000"
 8050      5F535F4D 
 8050      41534B00 
 8051              	.LASF63:
 8052 0718 494E5452 		.ascii	"INTR_I2C_EC_MASKED\000"
 8052      5F493243 
 8052      5F45435F 
 8052      4D41534B 
 8052      454400
 8053              	.LASF187:
 8054 072b 43795F53 		.ascii	"Cy_SCB_IsTxComplete\000"
 8054      43425F49 
 8054      73547843 
 8054      6F6D706C 
 8054      65746500 
 8055              	.LASF183:
 8056 073f 64617461 		.ascii	"data\000"
 8056      00
 8057              	.LASF145:
 8058 0744 72656365 		.ascii	"receiverAddressMask\000"
 8058      69766572 
 8058      41646472 
 8058      6573734D 
 8058      61736B00 
 8059              	.LASF171:
 8060 0758 72784275 		.ascii	"rxBufIdx\000"
 8060      66496478 
 8060      00
 8061              	.LASF184:
 8062 0761 43795F53 		.ascii	"Cy_SCB_SetTxFifoLevel\000"
 8062      43425F53 
 8062      65745478 
 8062      4669666F 
 8062      4C657665 
 8063              	.LASF225:
 8064 0777 43795F53 		.ascii	"Cy_SCB_UART_ClearRingBuffer\000"
 8064      43425F55 
 8064      4152545F 
 8064      436C6561 
 8064      7252696E 
 8065              	.LASF176:
 8066 0793 696E6974 		.ascii	"initKey\000"
 8066      4B657900 
 8067              	.LASF13:
 8068 079b 75696E74 		.ascii	"uint8_t\000"
 8068      385F7400 
 8069              	.LASF237:
 8070 07a3 43795F53 		.ascii	"Cy_SCB_UART_GetTransmitStatus\000"
ARM GAS  C:\Users\ikomb\AppData\Local\Temp\cctq3ka9.s 			page 230


 8070      43425F55 
 8070      4152545F 
 8070      47657454 
 8070      72616E73 
 8071              	.LASF194:
 8072 07c1 43795F53 		.ascii	"Cy_SCB_GetTxInterruptStatus\000"
 8072      43425F47 
 8072      65745478 
 8072      496E7465 
 8072      72727570 
 8073              	.LASF133:
 8074 07dd 63795F63 		.ascii	"cy_cb_scb_uart_handle_events_t\000"
 8074      625F7363 
 8074      625F7561 
 8074      72745F68 
 8074      616E646C 
 8075              	.LASF149:
 8076 07fc 736D6172 		.ascii	"smartCardRetryOnNack\000"
 8076      74436172 
 8076      64526574 
 8076      72794F6E 
 8076      4E61636B 
 8077              	.LASF53:
 8078 0811 52585F46 		.ascii	"RX_FIFO_RD\000"
 8078      49464F5F 
 8078      524400
 8079              	.LASF141:
 8080 081c 64726F70 		.ascii	"dropOnParityError\000"
 8080      4F6E5061 
 8080      72697479 
 8080      4572726F 
 8080      7200
 8081              	.LASF10:
 8082 082e 6C6F6E67 		.ascii	"long long int\000"
 8082      206C6F6E 
 8082      6720696E 
 8082      7400
 8083              	.LASF39:
 8084 083c 44444654 		.ascii	"DDFT_CTRL\000"
 8084      5F435452 
 8084      4C00
 8085              	.LASF110:
 8086 0846 43595F53 		.ascii	"CY_SCB_UART_BAD_PARAM\000"
 8086      43425F55 
 8086      4152545F 
 8086      4241445F 
 8086      50415241 
 8087              	.LASF107:
 8088 085c 636F6E74 		.ascii	"context\000"
 8088      65787400 
 8089              	.LASF148:
 8090 0864 69726461 		.ascii	"irdaEnableLowPowerReceiver\000"
 8090      456E6162 
 8090      6C654C6F 
 8090      77506F77 
 8090      65725265 
 8091              	.LASF224:
ARM GAS  C:\Users\ikomb\AppData\Local\Temp\cctq3ka9.s 			page 231


 8092 087f 6C6F6348 		.ascii	"locHead\000"
 8092      65616400 
 8093              	.LASF118:
 8094 0887 43595F53 		.ascii	"CY_SCB_UART_STOP_BITS_1\000"
 8094      43425F55 
 8094      4152545F 
 8094      53544F50 
 8094      5F424954 
 8095              	.LASF120:
 8096 089f 43595F53 		.ascii	"CY_SCB_UART_STOP_BITS_2\000"
 8096      43425F55 
 8096      4152545F 
 8096      53544F50 
 8096      5F424954 
 8097              	.LASF122:
 8098 08b7 43595F53 		.ascii	"CY_SCB_UART_STOP_BITS_3\000"
 8098      43425F55 
 8098      4152545F 
 8098      53544F50 
 8098      5F424954 
 8099              	.LASF189:
 8100 08cf 43795F53 		.ascii	"Cy_SCB_GetInterruptCause\000"
 8100      43425F47 
 8100      6574496E 
 8100      74657272 
 8100      75707443 
 8101              	.LASF214:
 8102 08e8 43795F53 		.ascii	"Cy_SCB_UART_DeepSleepCallback\000"
 8102      43425F55 
 8102      4152545F 
 8102      44656570 
 8102      536C6565 
 8103              	.LASF215:
 8104 0906 63616C6C 		.ascii	"callbackParams\000"
 8104      6261636B 
 8104      50617261 
 8104      6D7300
 8105              	.LASF31:
 8106 0915 55415254 		.ascii	"UART_FLOW_CTRL\000"
 8106      5F464C4F 
 8106      575F4354 
 8106      524C00
 8107              	.LASF111:
 8108 0924 43595F53 		.ascii	"CY_SCB_UART_RECEIVE_BUSY\000"
 8108      43425F55 
 8108      4152545F 
 8108      52454345 
 8108      4956455F 
 8109              	.LASF138:
 8110 093d 73746F70 		.ascii	"stopBits\000"
 8110      42697473 
 8110      00
 8111              	.LASF167:
 8112 0946 72785269 		.ascii	"rxRingBufHead\000"
 8112      6E674275 
 8112      66486561 
 8112      6400
ARM GAS  C:\Users\ikomb\AppData\Local\Temp\cctq3ka9.s 			page 232


 8113              	.LASF205:
 8114 0954 73697A65 		.ascii	"size\000"
 8114      00
 8115              	.LASF173:
 8116 0959 74784275 		.ascii	"txBufSize\000"
 8116      6653697A 
 8116      6500
 8117              	.LASF2:
 8118 0963 73686F72 		.ascii	"short int\000"
 8118      7420696E 
 8118      7400
 8119              	.LASF128:
 8120 096d 43595F53 		.ascii	"CY_SCB_UART_PARITY_ODD\000"
 8120      43425F55 
 8120      4152545F 
 8120      50415249 
 8120      54595F4F 
 8121              	.LASF85:
 8122 0984 494E5452 		.ascii	"INTR_RX\000"
 8122      5F525800 
 8123              	.LASF234:
 8124 098c 43795F53 		.ascii	"Cy_SCB_UART_Transmit\000"
 8124      43425F55 
 8124      4152545F 
 8124      5472616E 
 8124      736D6974 
 8125              	.LASF172:
 8126 09a1 74784275 		.ascii	"txBuf\000"
 8126      6600
 8127              	.LASF193:
 8128 09a7 43795F53 		.ascii	"Cy_SCB_ClearRxInterrupt\000"
 8128      43425F43 
 8128      6C656172 
 8128      5278496E 
 8128      74657272 
 8129              	.LASF165:
 8130 09bf 72785269 		.ascii	"rxRingBuf\000"
 8130      6E674275 
 8130      6600
 8131              	.LASF17:
 8132 09c9 6C6F6E67 		.ascii	"long double\000"
 8132      20646F75 
 8132      626C6500 
 8133              	.LASF14:
 8134 09d5 75696E74 		.ascii	"uint16_t\000"
 8134      31365F74 
 8134      00
 8135              	.LASF62:
 8136 09de 494E5452 		.ascii	"INTR_I2C_EC_MASK\000"
 8136      5F493243 
 8136      5F45435F 
 8136      4D41534B 
 8136      00
 8137              	.LASF186:
 8138 09ef 43795F53 		.ascii	"Cy_SCB_GetTxSrValid\000"
 8138      43425F47 
 8138      65745478 
ARM GAS  C:\Users\ikomb\AppData\Local\Temp\cctq3ka9.s 			page 233


 8138      53725661 
 8138      6C696400 
 8139              	.LASF223:
 8140 0a03 43795F53 		.ascii	"Cy_SCB_UART_GetNumInRingBuffer\000"
 8140      43425F55 
 8140      4152545F 
 8140      4765744E 
 8140      756D496E 
 8141              	.LASF67:
 8142 0a22 494E5452 		.ascii	"INTR_SPI_EC_MASK\000"
 8142      5F535049 
 8142      5F45435F 
 8142      4D41534B 
 8142      00
 8143              	.LASF217:
 8144 0a33 6C6F6342 		.ascii	"locBase\000"
 8144      61736500 
 8145              	.LASF210:
 8146 0a3b 636F6E66 		.ascii	"config\000"
 8146      696700
 8147              	.LASF216:
 8148 0a42 72657453 		.ascii	"retStatus\000"
 8148      74617475 
 8148      7300
 8149              	.LASF36:
 8150 0a4c 4932435F 		.ascii	"I2C_S_CMD\000"
 8150      535F434D 
 8150      4400
 8151              	.LASF230:
 8152 0a56 62797465 		.ascii	"byteMode\000"
 8152      4D6F6465 
 8152      00
 8153              	.LASF26:
 8154 0a5f 52455345 		.ascii	"RESERVED1\000"
 8154      52564544 
 8154      3100
 8155              	.LASF32:
 8156 0a69 52455345 		.ascii	"RESERVED2\000"
 8156      52564544 
 8156      3200
 8157              	.LASF38:
 8158 0a73 52455345 		.ascii	"RESERVED3\000"
 8158      52564544 
 8158      3300
 8159              	.LASF40:
 8160 0a7d 52455345 		.ascii	"RESERVED4\000"
 8160      52564544 
 8160      3400
 8161              	.LASF44:
 8162 0a87 52455345 		.ascii	"RESERVED5\000"
 8162      52564544 
 8162      3500
 8163              	.LASF46:
 8164 0a91 52455345 		.ascii	"RESERVED6\000"
 8164      52564544 
 8164      3600
 8165              	.LASF50:
ARM GAS  C:\Users\ikomb\AppData\Local\Temp\cctq3ka9.s 			page 234


 8166 0a9b 52455345 		.ascii	"RESERVED7\000"
 8166      52564544 
 8166      3700
 8167              	.LASF52:
 8168 0aa5 52455345 		.ascii	"RESERVED8\000"
 8168      52564544 
 8168      3800
 8169              	.LASF55:
 8170 0aaf 52455345 		.ascii	"RESERVED9\000"
 8170      52564544 
 8170      3900
 8171              	.LASF202:
 8172 0ab9 43795F53 		.ascii	"Cy_SCB_UART_Enable\000"
 8172      43425F55 
 8172      4152545F 
 8172      456E6162 
 8172      6C6500
 8173              	.LASF104:
 8174 0acc 63795F65 		.ascii	"cy_en_syspm_callback_mode_t\000"
 8174      6E5F7379 
 8174      73706D5F 
 8174      63616C6C 
 8174      6261636B 
 8175              	.LASF7:
 8176 0ae8 6C6F6E67 		.ascii	"long int\000"
 8176      20696E74 
 8176      00
 8177              	.LASF34:
 8178 0af1 4932435F 		.ascii	"I2C_STATUS\000"
 8178      53544154 
 8178      555300
 8179              	.LASF83:
 8180 0afc 494E5452 		.ascii	"INTR_TX_MASKED\000"
 8180      5F54585F 
 8180      4D41534B 
 8180      454400
 8181              	.LASF209:
 8182 0b0b 43795F53 		.ascii	"Cy_SCB_UART_ClearTxFifo\000"
 8182      43425F55 
 8182      4152545F 
 8182      436C6561 
 8182      72547846 
 8183              	.LASF200:
 8184 0b23 43795F53 		.ascii	"Cy_SCB_IsRxDataWidthByte\000"
 8184      43425F49 
 8184      73527844 
 8184      61746157 
 8184      69647468 
 8185              	.LASF195:
 8186 0b3c 43795F53 		.ascii	"Cy_SCB_SetTxInterruptMask\000"
 8186      43425F53 
 8186      65745478 
 8186      496E7465 
 8186      72727570 
 8187              	.LASF233:
 8188 0b56 43795F53 		.ascii	"Cy_SCB_UART_GetReceiveStatus\000"
 8188      43425F55 
ARM GAS  C:\Users\ikomb\AppData\Local\Temp\cctq3ka9.s 			page 235


 8188      4152545F 
 8188      47657452 
 8188      65636569 
 8189              	.LASF90:
 8190 0b73 63686172 		.ascii	"char_t\000"
 8190      5F7400
 8191              	.LASF51:
 8192 0b7a 52585F4D 		.ascii	"RX_MATCH\000"
 8192      41544348 
 8192      00
 8193              	.LASF80:
 8194 0b83 494E5452 		.ascii	"INTR_TX\000"
 8194      5F545800 
 8195              	.LASF30:
 8196 0b8b 55415254 		.ascii	"UART_RX_STATUS\000"
 8196      5F52585F 
 8196      53544154 
 8196      555300
 8197              	.LASF174:
 8198 0b9a 74784C65 		.ascii	"txLeftToTransmit\000"
 8198      6674546F 
 8198      5472616E 
 8198      736D6974 
 8198      00
 8199              	.LASF245:
 8200 0bab 6E756D43 		.ascii	"numCopied\000"
 8200      6F706965 
 8200      6400
 8201              	.LASF134:
 8202 0bb5 75617274 		.ascii	"uartMode\000"
 8202      4D6F6465 
 8202      00
 8203              	.LASF3:
 8204 0bbe 5F5F7569 		.ascii	"__uint8_t\000"
 8204      6E74385F 
 8204      7400
 8205              	.LASF42:
 8206 0bc8 54585F46 		.ascii	"TX_FIFO_CTRL\000"
 8206      49464F5F 
 8206      4354524C 
 8206      00
 8207              	.LASF190:
 8208 0bd5 43795F53 		.ascii	"Cy_SCB_SetRxInterruptMask\000"
 8208      43425F53 
 8208      65745278 
 8208      496E7465 
 8208      72727570 
 8209              	.LASF35:
 8210 0bef 4932435F 		.ascii	"I2C_M_CMD\000"
 8210      4D5F434D 
 8210      4400
 8211              	.LASF68:
 8212 0bf9 494E5452 		.ascii	"INTR_SPI_EC_MASKED\000"
 8212      5F535049 
 8212      5F45435F 
 8212      4D41534B 
 8212      454400
ARM GAS  C:\Users\ikomb\AppData\Local\Temp\cctq3ka9.s 			page 236


 8213              	.LASF240:
 8214 0c0c 7478496E 		.ascii	"txIntrReg\000"
 8214      74725265 
 8214      6700
 8215              	.LASF24:
 8216 0c16 5350495F 		.ascii	"SPI_CTRL\000"
 8216      4354524C 
 8216      00
 8217              	.LASF117:
 8218 0c1f 63795F65 		.ascii	"cy_en_scb_uart_mode_t\000"
 8218      6E5F7363 
 8218      625F7561 
 8218      72745F6D 
 8218      6F64655F 
 8219              	.LASF249:
 8220 0c35 6669666F 		.ascii	"fifoSize\000"
 8220      53697A65 
 8220      00
 8221              	.LASF47:
 8222 0c3e 52585F43 		.ascii	"RX_CTRL\000"
 8222      54524C00 
 8223              	.LASF203:
 8224 0c46 43795F53 		.ascii	"Cy_SCB_UART_GetArray\000"
 8224      43425F55 
 8224      4152545F 
 8224      47657441 
 8224      72726179 
 8225              	.LASF33:
 8226 0c5b 4932435F 		.ascii	"I2C_CTRL\000"
 8226      4354524C 
 8226      00
 8227              	.LASF18:
 8228 0c64 73697A65 		.ascii	"sizetype\000"
 8228      74797065 
 8228      00
 8229              	.LASF9:
 8230 0c6d 6C6F6E67 		.ascii	"long unsigned int\000"
 8230      20756E73 
 8230      69676E65 
 8230      6420696E 
 8230      7400
 8231              	.LASF70:
 8232 0c7f 494E5452 		.ascii	"INTR_M\000"
 8232      5F4D00
 8233              	.LASF92:
 8234 0c86 666C6F61 		.ascii	"float\000"
 8234      7400
 8235              	.LASF75:
 8236 0c8c 494E5452 		.ascii	"INTR_S\000"
 8236      5F5300
 8237              	.LASF15:
 8238 0c93 696E7433 		.ascii	"int32_t\000"
 8238      325F7400 
 8239              	.LASF236:
 8240 0c9b 43795F53 		.ascii	"Cy_SCB_UART_GetNumLeftToTransmit\000"
 8240      43425F55 
 8240      4152545F 
ARM GAS  C:\Users\ikomb\AppData\Local\Temp\cctq3ka9.s 			page 237


 8240      4765744E 
 8240      756D4C65 
 8241              	.LASF248:
 8242 0cbc 48616E64 		.ascii	"HandleDataTransmit\000"
 8242      6C654461 
 8242      74615472 
 8242      616E736D 
 8242      697400
 8243              	.LASF72:
 8244 0ccf 494E5452 		.ascii	"INTR_M_MASK\000"
 8244      5F4D5F4D 
 8244      41534B00 
 8245              	.LASF206:
 8246 0cdb 43795F53 		.ascii	"Cy_SCB_UART_GetNumInRxFifo\000"
 8246      43425F55 
 8246      4152545F 
 8246      4765744E 
 8246      756D496E 
 8247              	.LASF157:
 8248 0cf6 74784669 		.ascii	"txFifoTriggerLevel\000"
 8248      666F5472 
 8248      69676765 
 8248      724C6576 
 8248      656C00
 8249              	.LASF114:
 8250 0d09 43595F53 		.ascii	"CY_SCB_UART_STANDARD\000"
 8250      43425F55 
 8250      4152545F 
 8250      5354414E 
 8250      44415244 
 8251              	.LASF218:
 8252 0d1e 6C6F6343 		.ascii	"locContext\000"
 8252      6F6E7465 
 8252      787400
 8253              	.LASF150:
 8254 0d29 656E6162 		.ascii	"enableCts\000"
 8254      6C654374 
 8254      7300
 8255              	.LASF25:
 8256 0d33 5350495F 		.ascii	"SPI_STATUS\000"
 8256      53544154 
 8256      555300
 8257              	.LASF98:
 8258 0d3e 43595F53 		.ascii	"CY_SYSPM_FAIL\000"
 8258      5953504D 
 8258      5F464149 
 8258      4C00
 8259              	.LASF1:
 8260 0d4c 756E7369 		.ascii	"unsigned char\000"
 8260      676E6564 
 8260      20636861 
 8260      7200
 8261              	.LASF124:
 8262 0d5a 43595F53 		.ascii	"CY_SCB_UART_STOP_BITS_4\000"
 8262      43425F55 
 8262      4152545F 
 8262      53544F50 
ARM GAS  C:\Users\ikomb\AppData\Local\Temp\cctq3ka9.s 			page 238


 8262      5F424954 
 8263              	.LASF181:
 8264 0d72 43795F53 		.ascii	"Cy_SCB_SetRxFifoLevel\000"
 8264      43425F53 
 8264      65745278 
 8264      4669666F 
 8264      4C657665 
 8265              	.LASF8:
 8266 0d88 5F5F7569 		.ascii	"__uint32_t\000"
 8266      6E743332 
 8266      5F7400
 8267              	.LASF57:
 8268 0d93 52455345 		.ascii	"RESERVED10\000"
 8268      52564544 
 8268      313000
 8269              	.LASF59:
 8270 0d9e 52455345 		.ascii	"RESERVED11\000"
 8270      52564544 
 8270      313100
 8271              	.LASF61:
 8272 0da9 52455345 		.ascii	"RESERVED12\000"
 8272      52564544 
 8272      313200
 8273              	.LASF64:
 8274 0db4 52455345 		.ascii	"RESERVED13\000"
 8274      52564544 
 8274      313300
 8275              	.LASF66:
 8276 0dbf 52455345 		.ascii	"RESERVED14\000"
 8276      52564544 
 8276      313400
 8277              	.LASF69:
 8278 0dca 52455345 		.ascii	"RESERVED15\000"
 8278      52564544 
 8278      313500
 8279              	.LASF74:
 8280 0dd5 52455345 		.ascii	"RESERVED16\000"
 8280      52564544 
 8280      313600
 8281              	.LASF79:
 8282 0de0 52455345 		.ascii	"RESERVED17\000"
 8282      52564544 
 8282      313700
 8283              	.LASF84:
 8284 0deb 52455345 		.ascii	"RESERVED18\000"
 8284      52564544 
 8284      313800
 8285              	.LASF45:
 8286 0df6 54585F46 		.ascii	"TX_FIFO_WR\000"
 8286      49464F5F 
 8286      575200
 8287              	.LASF151:
 8288 0e01 63747350 		.ascii	"ctsPolarity\000"
 8288      6F6C6172 
 8288      69747900 
 8289              	.LASF160:
 8290 0e0d 63795F73 		.ascii	"cy_stc_scb_uart_config_t\000"
ARM GAS  C:\Users\ikomb\AppData\Local\Temp\cctq3ka9.s 			page 239


 8290      74635F73 
 8290      63625F75 
 8290      6172745F 
 8290      636F6E66 
 8291              	.LASF241:
 8292 0e26 43795F53 		.ascii	"Cy_SCB_UART_Interrupt\000"
 8292      43425F55 
 8292      4152545F 
 8292      496E7465 
 8292      72727570 
 8293              	.LASF152:
 8294 0e3c 72747352 		.ascii	"rtsRxFifoLevel\000"
 8294      78466966 
 8294      6F4C6576 
 8294      656C00
 8295              	.LASF126:
 8296 0e4b 43595F53 		.ascii	"CY_SCB_UART_PARITY_NONE\000"
 8296      43425F55 
 8296      4152545F 
 8296      50415249 
 8296      54595F4E 
 8297              	.LASF158:
 8298 0e63 74784669 		.ascii	"txFifoIntEnableMask\000"
 8298      666F496E 
 8298      74456E61 
 8298      626C654D 
 8298      61736B00 
 8299              	.LASF95:
 8300 0e77 43595F53 		.ascii	"CY_SYSPM_BAD_PARAM\000"
 8300      5953504D 
 8300      5F424144 
 8300      5F504152 
 8300      414D00
 8301              	.LASF211:
 8302 0e8a 43795F53 		.ascii	"Cy_SCB_UART_DeInit\000"
 8302      43425F55 
 8302      4152545F 
 8302      4465496E 
 8302      697400
 8303              	.LASF0:
 8304 0e9d 7369676E 		.ascii	"signed char\000"
 8304      65642063 
 8304      68617200 
 8305              	.LASF27:
 8306 0ea9 55415254 		.ascii	"UART_CTRL\000"
 8306      5F435452 
 8306      4C00
 8307              	.LASF5:
 8308 0eb3 73686F72 		.ascii	"short unsigned int\000"
 8308      7420756E 
 8308      7369676E 
 8308      65642069 
 8308      6E7400
 8309              	.LASF87:
 8310 0ec6 494E5452 		.ascii	"INTR_RX_MASK\000"
 8310      5F52585F 
 8310      4D41534B 
ARM GAS  C:\Users\ikomb\AppData\Local\Temp\cctq3ka9.s 			page 240


 8310      00
 8311              	.LASF21:
 8312 0ed3 434D445F 		.ascii	"CMD_RESP_CTRL\000"
 8312      52455350 
 8312      5F435452 
 8312      4C00
 8313              	.LASF219:
 8314 0ee1 43795F53 		.ascii	"Cy_SCB_UART_HibernateCallback\000"
 8314      43425F55 
 8314      4152545F 
 8314      48696265 
 8314      726E6174 
 8315              	.LASF213:
 8316 0eff 43795F53 		.ascii	"Cy_SCB_UART_Init\000"
 8316      43425F55 
 8316      4152545F 
 8316      496E6974 
 8316      00
 8317              	.LASF222:
 8318 0f10 43795F53 		.ascii	"Cy_SCB_UART_StopRingBuffer\000"
 8318      43425F55 
 8318      4152545F 
 8318      53746F70 
 8318      52696E67 
 8319              	.LASF93:
 8320 0f2b 646F7562 		.ascii	"double\000"
 8320      6C6500
 8321              	.LASF227:
 8322 0f32 746D7042 		.ascii	"tmpBuf\000"
 8322      756600
 8323              	.LASF86:
 8324 0f39 494E5452 		.ascii	"INTR_RX_SET\000"
 8324      5F52585F 
 8324      53455400 
 8325              	.LASF20:
 8326 0f45 53544154 		.ascii	"STATUS\000"
 8326      555300
 8327              	.LASF135:
 8328 0f4c 6F766572 		.ascii	"oversample\000"
 8328      73616D70 
 8328      6C6500
 8329              	.LASF136:
 8330 0f57 64617461 		.ascii	"dataWidth\000"
 8330      57696474 
 8330      6800
 8331              	.LASF252:
 8332 0f61 474E5520 		.ascii	"GNU C11 5.4.1 20160609 (release) [ARM/embedded-5-br"
 8332      43313120 
 8332      352E342E 
 8332      31203230 
 8332      31363036 
 8333 0f94 616E6368 		.ascii	"anch revision 237715] -mcpu=cortex-m4 -mfloat-abi=s"
 8333      20726576 
 8333      6973696F 
 8333      6E203233 
 8333      37373135 
 8334 0fc7 6F667466 		.ascii	"oftfp -mfpu=fpv4-sp-d16 -mthumb -g -O0 -ffunction-s"
ARM GAS  C:\Users\ikomb\AppData\Local\Temp\cctq3ka9.s 			page 241


 8334      70202D6D 
 8334      6670753D 
 8334      66707634 
 8334      2D73702D 
 8335 0ffa 65637469 		.ascii	"ections -ffat-lto-objects\000"
 8335      6F6E7320 
 8335      2D666661 
 8335      742D6C74 
 8335      6F2D6F62 
 8336              	.LASF207:
 8337 1014 43795F53 		.ascii	"Cy_SCB_UART_PutArray\000"
 8337      43425F55 
 8337      4152545F 
 8337      50757441 
 8337      72726179 
 8338              	.LASF231:
 8339 1029 43795F53 		.ascii	"Cy_SCB_UART_AbortReceive\000"
 8339      43425F55 
 8339      4152545F 
 8339      41626F72 
 8339      74526563 
 8340              	.LASF191:
 8341 1042 696E7465 		.ascii	"interruptMask\000"
 8341      72727570 
 8341      744D6173 
 8341      6B00
 8342              	.LASF142:
 8343 1050 64726F70 		.ascii	"dropOnFrameError\000"
 8343      4F6E4672 
 8343      616D6545 
 8343      72726F72 
 8343      00
 8344              	.LASF156:
 8345 1061 72784669 		.ascii	"rxFifoIntEnableMask\000"
 8345      666F496E 
 8345      74456E61 
 8345      626C654D 
 8345      61736B00 
 8346              	.LASF56:
 8347 1075 455A5F44 		.ascii	"EZ_DATA\000"
 8347      41544100 
 8348              	.LASF251:
 8349 107d 696E7472 		.ascii	"intrStatus\000"
 8349      53746174 
 8349      757300
 8350              	.LASF125:
 8351 1088 63795F65 		.ascii	"cy_en_scb_uart_stop_bits_t\000"
 8351      6E5F7363 
 8351      625F7561 
 8351      72745F73 
 8351      746F705F 
 8352              	.LASF170:
 8353 10a3 72784275 		.ascii	"rxBufSize\000"
 8353      6653697A 
 8353      6500
 8354              	.LASF19:
 8355 10ad 4354524C 		.ascii	"CTRL\000"
ARM GAS  C:\Users\ikomb\AppData\Local\Temp\cctq3ka9.s 			page 242


 8355      00
 8356              	.LASF102:
 8357 10b2 43595F53 		.ascii	"CY_SYSPM_BEFORE_TRANSITION\000"
 8357      5953504D 
 8357      5F424546 
 8357      4F52455F 
 8357      5452414E 
 8358              	.LASF103:
 8359 10cd 43595F53 		.ascii	"CY_SYSPM_AFTER_TRANSITION\000"
 8359      5953504D 
 8359      5F414654 
 8359      45525F54 
 8359      52414E53 
 8360              	.LASF100:
 8361 10e7 43595F53 		.ascii	"CY_SYSPM_CHECK_READY\000"
 8361      5953504D 
 8361      5F434845 
 8361      434B5F52 
 8361      45414459 
 8362              		.ident	"GCC: (GNU Tools for ARM Embedded Processors) 5.4.1 20160609 (release) [ARM/embedded-5-bran
