ARM GAS  C:\Users\ikomb\AppData\Local\Temp\ccqJLUw6.s 			page 1


   1              		.syntax unified
   2              		.cpu cortex-m4
   3              		.eabi_attribute 27, 1
   4              		.fpu fpv4-sp-d16
   5              		.eabi_attribute 20, 1
   6              		.eabi_attribute 21, 1
   7              		.eabi_attribute 23, 3
   8              		.eabi_attribute 24, 1
   9              		.eabi_attribute 25, 1
  10              		.eabi_attribute 26, 1
  11              		.eabi_attribute 30, 6
  12              		.eabi_attribute 34, 1
  13              		.eabi_attribute 18, 4
  14              		.thumb
  15              		.syntax unified
  16              		.file	"cy_scb_common.c"
  17              		.text
  18              	.Ltext0:
  19              		.cfi_sections	.debug_frame
  20              		.section	.text.Cy_SCB_ReadRxFifo,"ax",%progbits
  21              		.align	2
  22              		.thumb
  23              		.thumb_func
  24              		.type	Cy_SCB_ReadRxFifo, %function
  25              	Cy_SCB_ReadRxFifo:
  26              	.LFB158:
  27              		.file 1 "Generated_Source\\PSoC6\\pdl\\drivers\\peripheral\\scb\\cy_scb_common.h"
   1:Generated_Source\PSoC6\pdl\drivers\peripheral\scb/cy_scb_common.h **** /***************************************************************************//**
   2:Generated_Source\PSoC6\pdl\drivers\peripheral\scb/cy_scb_common.h **** * \file cy_scb_common.h
   3:Generated_Source\PSoC6\pdl\drivers\peripheral\scb/cy_scb_common.h **** * \version 2.10
   4:Generated_Source\PSoC6\pdl\drivers\peripheral\scb/cy_scb_common.h **** *
   5:Generated_Source\PSoC6\pdl\drivers\peripheral\scb/cy_scb_common.h **** * Provides common API declarations of the SCB driver.
   6:Generated_Source\PSoC6\pdl\drivers\peripheral\scb/cy_scb_common.h **** *
   7:Generated_Source\PSoC6\pdl\drivers\peripheral\scb/cy_scb_common.h **** ********************************************************************************
   8:Generated_Source\PSoC6\pdl\drivers\peripheral\scb/cy_scb_common.h **** * \copyright
   9:Generated_Source\PSoC6\pdl\drivers\peripheral\scb/cy_scb_common.h **** * Copyright 2016-2018, Cypress Semiconductor Corporation.  All rights reserved.
  10:Generated_Source\PSoC6\pdl\drivers\peripheral\scb/cy_scb_common.h **** * You may use this file only in accordance with the license, terms, conditions,
  11:Generated_Source\PSoC6\pdl\drivers\peripheral\scb/cy_scb_common.h **** * disclaimers, and limitations in the end user license agreement accompanying
  12:Generated_Source\PSoC6\pdl\drivers\peripheral\scb/cy_scb_common.h **** * the software package with which this file was provided.
  13:Generated_Source\PSoC6\pdl\drivers\peripheral\scb/cy_scb_common.h **** *******************************************************************************/
  14:Generated_Source\PSoC6\pdl\drivers\peripheral\scb/cy_scb_common.h **** 
  15:Generated_Source\PSoC6\pdl\drivers\peripheral\scb/cy_scb_common.h **** /**
  16:Generated_Source\PSoC6\pdl\drivers\peripheral\scb/cy_scb_common.h **** * \defgroup group_scb Serial Communication Block (SCB)
  17:Generated_Source\PSoC6\pdl\drivers\peripheral\scb/cy_scb_common.h **** * \{
  18:Generated_Source\PSoC6\pdl\drivers\peripheral\scb/cy_scb_common.h **** * \defgroup group_scb_common Common
  19:Generated_Source\PSoC6\pdl\drivers\peripheral\scb/cy_scb_common.h **** * \defgroup group_scb_ezi2c  EZI2C (SCB)
  20:Generated_Source\PSoC6\pdl\drivers\peripheral\scb/cy_scb_common.h **** * \defgroup group_scb_i2c    I2C (SCB)
  21:Generated_Source\PSoC6\pdl\drivers\peripheral\scb/cy_scb_common.h **** * \defgroup group_scb_spi    SPI (SCB)
  22:Generated_Source\PSoC6\pdl\drivers\peripheral\scb/cy_scb_common.h **** * \defgroup group_scb_uart   UART (SCB)
  23:Generated_Source\PSoC6\pdl\drivers\peripheral\scb/cy_scb_common.h **** * \} */
  24:Generated_Source\PSoC6\pdl\drivers\peripheral\scb/cy_scb_common.h **** 
  25:Generated_Source\PSoC6\pdl\drivers\peripheral\scb/cy_scb_common.h **** /**
  26:Generated_Source\PSoC6\pdl\drivers\peripheral\scb/cy_scb_common.h **** * \addtogroup group_scb_common
  27:Generated_Source\PSoC6\pdl\drivers\peripheral\scb/cy_scb_common.h **** * \{
  28:Generated_Source\PSoC6\pdl\drivers\peripheral\scb/cy_scb_common.h **** *
  29:Generated_Source\PSoC6\pdl\drivers\peripheral\scb/cy_scb_common.h **** * Common API for the Serial Communication Block.
  30:Generated_Source\PSoC6\pdl\drivers\peripheral\scb/cy_scb_common.h **** *
ARM GAS  C:\Users\ikomb\AppData\Local\Temp\ccqJLUw6.s 			page 2


  31:Generated_Source\PSoC6\pdl\drivers\peripheral\scb/cy_scb_common.h **** * This is the common API that provides an interface to the SCB hardware.
  32:Generated_Source\PSoC6\pdl\drivers\peripheral\scb/cy_scb_common.h **** * The I2C, SPI, and UART drivers use this common API.
  33:Generated_Source\PSoC6\pdl\drivers\peripheral\scb/cy_scb_common.h **** * Most users will use individual drivers and do not need to use the common
  34:Generated_Source\PSoC6\pdl\drivers\peripheral\scb/cy_scb_common.h **** * API for the SCB. However, you can use the common SCB API to implement
  35:Generated_Source\PSoC6\pdl\drivers\peripheral\scb/cy_scb_common.h **** * a custom driver based on the SCB hardware.
  36:Generated_Source\PSoC6\pdl\drivers\peripheral\scb/cy_scb_common.h **** *
  37:Generated_Source\PSoC6\pdl\drivers\peripheral\scb/cy_scb_common.h **** * \section group_scb_common_configuration Configuration Considerations
  38:Generated_Source\PSoC6\pdl\drivers\peripheral\scb/cy_scb_common.h **** *
  39:Generated_Source\PSoC6\pdl\drivers\peripheral\scb/cy_scb_common.h **** * This is not a driver and it does not require configuration.
  40:Generated_Source\PSoC6\pdl\drivers\peripheral\scb/cy_scb_common.h **** *
  41:Generated_Source\PSoC6\pdl\drivers\peripheral\scb/cy_scb_common.h **** * \section group_scb_common_more_information More Information
  42:Generated_Source\PSoC6\pdl\drivers\peripheral\scb/cy_scb_common.h **** *
  43:Generated_Source\PSoC6\pdl\drivers\peripheral\scb/cy_scb_common.h **** * Refer to the SCB chapter of the technical reference manual (TRM).
  44:Generated_Source\PSoC6\pdl\drivers\peripheral\scb/cy_scb_common.h **** *
  45:Generated_Source\PSoC6\pdl\drivers\peripheral\scb/cy_scb_common.h **** * \section group_scb_common_MISRA MISRA-C Compliance
  46:Generated_Source\PSoC6\pdl\drivers\peripheral\scb/cy_scb_common.h **** * <table class="doxtable">
  47:Generated_Source\PSoC6\pdl\drivers\peripheral\scb/cy_scb_common.h **** *   <tr>
  48:Generated_Source\PSoC6\pdl\drivers\peripheral\scb/cy_scb_common.h **** *     <th>MISRA rule</th>
  49:Generated_Source\PSoC6\pdl\drivers\peripheral\scb/cy_scb_common.h **** *     <th>Rule Class (Required/Advisory)</th>
  50:Generated_Source\PSoC6\pdl\drivers\peripheral\scb/cy_scb_common.h **** *     <th>Rule Description</th>
  51:Generated_Source\PSoC6\pdl\drivers\peripheral\scb/cy_scb_common.h **** *     <th>Description of Deviation(s)</th>
  52:Generated_Source\PSoC6\pdl\drivers\peripheral\scb/cy_scb_common.h **** *   </tr>
  53:Generated_Source\PSoC6\pdl\drivers\peripheral\scb/cy_scb_common.h **** *   <tr>
  54:Generated_Source\PSoC6\pdl\drivers\peripheral\scb/cy_scb_common.h **** *     <td>11.4</td>
  55:Generated_Source\PSoC6\pdl\drivers\peripheral\scb/cy_scb_common.h **** *     <td>A</td>
  56:Generated_Source\PSoC6\pdl\drivers\peripheral\scb/cy_scb_common.h **** *     <td>A cast should not be performed between a pointer to object type and
  57:Generated_Source\PSoC6\pdl\drivers\peripheral\scb/cy_scb_common.h **** *         a different pointer to object type.</td>
  58:Generated_Source\PSoC6\pdl\drivers\peripheral\scb/cy_scb_common.h **** *     <td>The pointer to the buffer memory is void to allow handling of
  59:Generated_Source\PSoC6\pdl\drivers\peripheral\scb/cy_scb_common.h **** *         different data types: uint8_t (4-8 bits) or uint16_t (9-16 bits).
  60:Generated_Source\PSoC6\pdl\drivers\peripheral\scb/cy_scb_common.h **** *         The cast operation is safe because the configuration is verified
  61:Generated_Source\PSoC6\pdl\drivers\peripheral\scb/cy_scb_common.h **** *         before operation is performed.
  62:Generated_Source\PSoC6\pdl\drivers\peripheral\scb/cy_scb_common.h **** *         </td>
  63:Generated_Source\PSoC6\pdl\drivers\peripheral\scb/cy_scb_common.h **** *   </tr>
  64:Generated_Source\PSoC6\pdl\drivers\peripheral\scb/cy_scb_common.h **** * </table>
  65:Generated_Source\PSoC6\pdl\drivers\peripheral\scb/cy_scb_common.h **** *
  66:Generated_Source\PSoC6\pdl\drivers\peripheral\scb/cy_scb_common.h **** * \section group_scb_common_changelog Changelog
  67:Generated_Source\PSoC6\pdl\drivers\peripheral\scb/cy_scb_common.h **** * <table class="doxtable">
  68:Generated_Source\PSoC6\pdl\drivers\peripheral\scb/cy_scb_common.h **** *   <tr><th>Version</th><th>Changes</th><th>Reason for Change</th></tr>
  69:Generated_Source\PSoC6\pdl\drivers\peripheral\scb/cy_scb_common.h **** *   <tr>
  70:Generated_Source\PSoC6\pdl\drivers\peripheral\scb/cy_scb_common.h **** *     <td>2.10</td>
  71:Generated_Source\PSoC6\pdl\drivers\peripheral\scb/cy_scb_common.h **** *     <td>None.</td>
  72:Generated_Source\PSoC6\pdl\drivers\peripheral\scb/cy_scb_common.h **** *     <td>SCB I2C driver updated.</td>
  73:Generated_Source\PSoC6\pdl\drivers\peripheral\scb/cy_scb_common.h **** *   </tr>
  74:Generated_Source\PSoC6\pdl\drivers\peripheral\scb/cy_scb_common.h **** *   <tr>
  75:Generated_Source\PSoC6\pdl\drivers\peripheral\scb/cy_scb_common.h **** *     <td rowspan="2"> 2.0</td>
  76:Generated_Source\PSoC6\pdl\drivers\peripheral\scb/cy_scb_common.h **** *     <td>Added parameters validation for public API.
  77:Generated_Source\PSoC6\pdl\drivers\peripheral\scb/cy_scb_common.h **** *     <td></td>
  78:Generated_Source\PSoC6\pdl\drivers\peripheral\scb/cy_scb_common.h **** *   </tr>
  79:Generated_Source\PSoC6\pdl\drivers\peripheral\scb/cy_scb_common.h **** *   <tr>
  80:Generated_Source\PSoC6\pdl\drivers\peripheral\scb/cy_scb_common.h **** *     <td>Fixed functions which return interrupt status to return only defined
  81:Generated_Source\PSoC6\pdl\drivers\peripheral\scb/cy_scb_common.h **** *         set of interrupt statuses.</td>
  82:Generated_Source\PSoC6\pdl\drivers\peripheral\scb/cy_scb_common.h **** *     <td></td>
  83:Generated_Source\PSoC6\pdl\drivers\peripheral\scb/cy_scb_common.h **** *   </tr>
  84:Generated_Source\PSoC6\pdl\drivers\peripheral\scb/cy_scb_common.h **** *   <tr>
  85:Generated_Source\PSoC6\pdl\drivers\peripheral\scb/cy_scb_common.h **** *     <td>1.0</td>
  86:Generated_Source\PSoC6\pdl\drivers\peripheral\scb/cy_scb_common.h **** *     <td>Initial version.</td>
  87:Generated_Source\PSoC6\pdl\drivers\peripheral\scb/cy_scb_common.h **** *     <td></td>
ARM GAS  C:\Users\ikomb\AppData\Local\Temp\ccqJLUw6.s 			page 3


  88:Generated_Source\PSoC6\pdl\drivers\peripheral\scb/cy_scb_common.h **** *   </tr>
  89:Generated_Source\PSoC6\pdl\drivers\peripheral\scb/cy_scb_common.h **** * </table>
  90:Generated_Source\PSoC6\pdl\drivers\peripheral\scb/cy_scb_common.h **** *
  91:Generated_Source\PSoC6\pdl\drivers\peripheral\scb/cy_scb_common.h **** * \defgroup group_scb_common_macros Macros
  92:Generated_Source\PSoC6\pdl\drivers\peripheral\scb/cy_scb_common.h **** * \defgroup group_scb_common_functions Functions
  93:Generated_Source\PSoC6\pdl\drivers\peripheral\scb/cy_scb_common.h **** * \defgroup group_scb_common_data_structures Data Structures
  94:Generated_Source\PSoC6\pdl\drivers\peripheral\scb/cy_scb_common.h **** *
  95:Generated_Source\PSoC6\pdl\drivers\peripheral\scb/cy_scb_common.h **** */
  96:Generated_Source\PSoC6\pdl\drivers\peripheral\scb/cy_scb_common.h **** 
  97:Generated_Source\PSoC6\pdl\drivers\peripheral\scb/cy_scb_common.h **** #if !defined(CY_SCB_COMMON_H)
  98:Generated_Source\PSoC6\pdl\drivers\peripheral\scb/cy_scb_common.h **** #define CY_SCB_COMMON_H
  99:Generated_Source\PSoC6\pdl\drivers\peripheral\scb/cy_scb_common.h **** 
 100:Generated_Source\PSoC6\pdl\drivers\peripheral\scb/cy_scb_common.h **** #include <stdint.h>
 101:Generated_Source\PSoC6\pdl\drivers\peripheral\scb/cy_scb_common.h **** #include <stddef.h>
 102:Generated_Source\PSoC6\pdl\drivers\peripheral\scb/cy_scb_common.h **** #include <stdbool.h>
 103:Generated_Source\PSoC6\pdl\drivers\peripheral\scb/cy_scb_common.h **** #include "cy_device_headers.h"
 104:Generated_Source\PSoC6\pdl\drivers\peripheral\scb/cy_scb_common.h **** #include "syslib/cy_syslib.h"
 105:Generated_Source\PSoC6\pdl\drivers\peripheral\scb/cy_scb_common.h **** #include "syspm/cy_syspm.h"
 106:Generated_Source\PSoC6\pdl\drivers\peripheral\scb/cy_scb_common.h **** 
 107:Generated_Source\PSoC6\pdl\drivers\peripheral\scb/cy_scb_common.h **** #ifndef CY_IP_MXSCB
 108:Generated_Source\PSoC6\pdl\drivers\peripheral\scb/cy_scb_common.h ****     #error "The SCB driver is not supported on this device"
 109:Generated_Source\PSoC6\pdl\drivers\peripheral\scb/cy_scb_common.h **** #endif
 110:Generated_Source\PSoC6\pdl\drivers\peripheral\scb/cy_scb_common.h **** 
 111:Generated_Source\PSoC6\pdl\drivers\peripheral\scb/cy_scb_common.h **** #if defined(__cplusplus)
 112:Generated_Source\PSoC6\pdl\drivers\peripheral\scb/cy_scb_common.h **** extern "C" {
 113:Generated_Source\PSoC6\pdl\drivers\peripheral\scb/cy_scb_common.h **** #endif
 114:Generated_Source\PSoC6\pdl\drivers\peripheral\scb/cy_scb_common.h **** 
 115:Generated_Source\PSoC6\pdl\drivers\peripheral\scb/cy_scb_common.h **** 
 116:Generated_Source\PSoC6\pdl\drivers\peripheral\scb/cy_scb_common.h **** /***************************************
 117:Generated_Source\PSoC6\pdl\drivers\peripheral\scb/cy_scb_common.h **** *        Function Prototypes
 118:Generated_Source\PSoC6\pdl\drivers\peripheral\scb/cy_scb_common.h **** ***************************************/
 119:Generated_Source\PSoC6\pdl\drivers\peripheral\scb/cy_scb_common.h **** 
 120:Generated_Source\PSoC6\pdl\drivers\peripheral\scb/cy_scb_common.h **** /**
 121:Generated_Source\PSoC6\pdl\drivers\peripheral\scb/cy_scb_common.h **** * \addtogroup group_scb_common_functions
 122:Generated_Source\PSoC6\pdl\drivers\peripheral\scb/cy_scb_common.h **** * \{
 123:Generated_Source\PSoC6\pdl\drivers\peripheral\scb/cy_scb_common.h **** */
 124:Generated_Source\PSoC6\pdl\drivers\peripheral\scb/cy_scb_common.h **** __STATIC_INLINE uint32_t Cy_SCB_ReadRxFifo    (CySCB_Type const *base);
 125:Generated_Source\PSoC6\pdl\drivers\peripheral\scb/cy_scb_common.h **** __STATIC_INLINE void     Cy_SCB_SetRxFifoLevel(CySCB_Type *base, uint32_t level);
 126:Generated_Source\PSoC6\pdl\drivers\peripheral\scb/cy_scb_common.h **** __STATIC_INLINE uint32_t Cy_SCB_GetNumInRxFifo(CySCB_Type const *base);
 127:Generated_Source\PSoC6\pdl\drivers\peripheral\scb/cy_scb_common.h **** __STATIC_INLINE uint32_t Cy_SCB_GetRxSrValid  (CySCB_Type const *base);
 128:Generated_Source\PSoC6\pdl\drivers\peripheral\scb/cy_scb_common.h **** __STATIC_INLINE void     Cy_SCB_ClearRxFifo   (CySCB_Type *base);
 129:Generated_Source\PSoC6\pdl\drivers\peripheral\scb/cy_scb_common.h **** 
 130:Generated_Source\PSoC6\pdl\drivers\peripheral\scb/cy_scb_common.h **** __STATIC_INLINE void     Cy_SCB_WriteTxFifo   (CySCB_Type *base, uint32_t data);
 131:Generated_Source\PSoC6\pdl\drivers\peripheral\scb/cy_scb_common.h **** __STATIC_INLINE void     Cy_SCB_SetTxFifoLevel(CySCB_Type *base, uint32_t level);
 132:Generated_Source\PSoC6\pdl\drivers\peripheral\scb/cy_scb_common.h **** __STATIC_INLINE uint32_t Cy_SCB_GetNumInTxFifo(CySCB_Type const *base);
 133:Generated_Source\PSoC6\pdl\drivers\peripheral\scb/cy_scb_common.h **** __STATIC_INLINE uint32_t Cy_SCB_GetTxSrValid  (CySCB_Type const *base);
 134:Generated_Source\PSoC6\pdl\drivers\peripheral\scb/cy_scb_common.h **** __STATIC_INLINE bool     Cy_SCB_IsTxComplete  (CySCB_Type const *base);
 135:Generated_Source\PSoC6\pdl\drivers\peripheral\scb/cy_scb_common.h **** __STATIC_INLINE void     Cy_SCB_ClearTxFifo   (CySCB_Type *base);
 136:Generated_Source\PSoC6\pdl\drivers\peripheral\scb/cy_scb_common.h **** 
 137:Generated_Source\PSoC6\pdl\drivers\peripheral\scb/cy_scb_common.h **** __STATIC_INLINE void     Cy_SCB_SetByteMode(CySCB_Type *base, bool byteMode);
 138:Generated_Source\PSoC6\pdl\drivers\peripheral\scb/cy_scb_common.h **** 
 139:Generated_Source\PSoC6\pdl\drivers\peripheral\scb/cy_scb_common.h **** __STATIC_INLINE uint32_t Cy_SCB_GetInterruptCause(CySCB_Type const *base);
 140:Generated_Source\PSoC6\pdl\drivers\peripheral\scb/cy_scb_common.h **** 
 141:Generated_Source\PSoC6\pdl\drivers\peripheral\scb/cy_scb_common.h **** __STATIC_INLINE uint32_t Cy_SCB_GetRxInterruptStatus(CySCB_Type const *base);
 142:Generated_Source\PSoC6\pdl\drivers\peripheral\scb/cy_scb_common.h **** __STATIC_INLINE void     Cy_SCB_SetRxInterruptMask  (CySCB_Type *base, uint32_t interruptMask);
 143:Generated_Source\PSoC6\pdl\drivers\peripheral\scb/cy_scb_common.h **** __STATIC_INLINE uint32_t Cy_SCB_GetRxInterruptMask  (CySCB_Type const *base);
 144:Generated_Source\PSoC6\pdl\drivers\peripheral\scb/cy_scb_common.h **** __STATIC_INLINE uint32_t Cy_SCB_GetRxInterruptStatusMasked(CySCB_Type const *base);
ARM GAS  C:\Users\ikomb\AppData\Local\Temp\ccqJLUw6.s 			page 4


 145:Generated_Source\PSoC6\pdl\drivers\peripheral\scb/cy_scb_common.h **** __STATIC_INLINE void     Cy_SCB_ClearRxInterrupt    (CySCB_Type *base, uint32_t interruptMask);
 146:Generated_Source\PSoC6\pdl\drivers\peripheral\scb/cy_scb_common.h **** __STATIC_INLINE void     Cy_SCB_SetRxInterrupt      (CySCB_Type *base, uint32_t interruptMask);
 147:Generated_Source\PSoC6\pdl\drivers\peripheral\scb/cy_scb_common.h **** 
 148:Generated_Source\PSoC6\pdl\drivers\peripheral\scb/cy_scb_common.h **** __STATIC_INLINE uint32_t Cy_SCB_GetTxInterruptStatus(CySCB_Type const *base);
 149:Generated_Source\PSoC6\pdl\drivers\peripheral\scb/cy_scb_common.h **** __STATIC_INLINE void     Cy_SCB_SetTxInterruptMask  (CySCB_Type *base, uint32_t interruptMask);
 150:Generated_Source\PSoC6\pdl\drivers\peripheral\scb/cy_scb_common.h **** __STATIC_INLINE uint32_t Cy_SCB_GetTxInterruptMask  (CySCB_Type const *base);
 151:Generated_Source\PSoC6\pdl\drivers\peripheral\scb/cy_scb_common.h **** __STATIC_INLINE uint32_t Cy_SCB_GetTxInterruptStatusMasked(CySCB_Type const *base);
 152:Generated_Source\PSoC6\pdl\drivers\peripheral\scb/cy_scb_common.h **** __STATIC_INLINE void     Cy_SCB_ClearTxInterrupt    (CySCB_Type *base, uint32_t interruptMask);
 153:Generated_Source\PSoC6\pdl\drivers\peripheral\scb/cy_scb_common.h **** __STATIC_INLINE void     Cy_SCB_SetTxInterrupt      (CySCB_Type *base, uint32_t interruptMask);
 154:Generated_Source\PSoC6\pdl\drivers\peripheral\scb/cy_scb_common.h **** 
 155:Generated_Source\PSoC6\pdl\drivers\peripheral\scb/cy_scb_common.h **** __STATIC_INLINE uint32_t Cy_SCB_GetMasterInterruptStatus(CySCB_Type const *base);
 156:Generated_Source\PSoC6\pdl\drivers\peripheral\scb/cy_scb_common.h **** __STATIC_INLINE void     Cy_SCB_SetMasterInterruptMask  (CySCB_Type *base, uint32_t interruptMask);
 157:Generated_Source\PSoC6\pdl\drivers\peripheral\scb/cy_scb_common.h **** __STATIC_INLINE uint32_t Cy_SCB_GetMasterInterruptMask  (CySCB_Type const *base);
 158:Generated_Source\PSoC6\pdl\drivers\peripheral\scb/cy_scb_common.h **** __STATIC_INLINE uint32_t Cy_SCB_GetMasterInterruptStatusMasked(CySCB_Type const *base);
 159:Generated_Source\PSoC6\pdl\drivers\peripheral\scb/cy_scb_common.h **** __STATIC_INLINE void     Cy_SCB_ClearMasterInterrupt    (CySCB_Type *base, uint32_t interruptMask);
 160:Generated_Source\PSoC6\pdl\drivers\peripheral\scb/cy_scb_common.h **** __STATIC_INLINE void     Cy_SCB_SetMasterInterrupt      (CySCB_Type *base, uint32_t interruptMask);
 161:Generated_Source\PSoC6\pdl\drivers\peripheral\scb/cy_scb_common.h **** 
 162:Generated_Source\PSoC6\pdl\drivers\peripheral\scb/cy_scb_common.h **** __STATIC_INLINE uint32_t Cy_SCB_GetSlaveInterruptStatus(CySCB_Type const *base);
 163:Generated_Source\PSoC6\pdl\drivers\peripheral\scb/cy_scb_common.h **** __STATIC_INLINE void     Cy_SCB_SetSlaveInterruptMask  (CySCB_Type *base, uint32_t interruptMask);
 164:Generated_Source\PSoC6\pdl\drivers\peripheral\scb/cy_scb_common.h **** __STATIC_INLINE uint32_t Cy_SCB_GetSlaveInterruptMask  (CySCB_Type const *base);
 165:Generated_Source\PSoC6\pdl\drivers\peripheral\scb/cy_scb_common.h **** __STATIC_INLINE uint32_t Cy_SCB_GetSlaveInterruptStatusMasked(CySCB_Type const *base);
 166:Generated_Source\PSoC6\pdl\drivers\peripheral\scb/cy_scb_common.h **** __STATIC_INLINE void     Cy_SCB_ClearSlaveInterrupt    (CySCB_Type *base, uint32_t interruptMask);
 167:Generated_Source\PSoC6\pdl\drivers\peripheral\scb/cy_scb_common.h **** __STATIC_INLINE void     Cy_SCB_SetSlaveInterrupt      (CySCB_Type *base, uint32_t interruptMask);
 168:Generated_Source\PSoC6\pdl\drivers\peripheral\scb/cy_scb_common.h **** 
 169:Generated_Source\PSoC6\pdl\drivers\peripheral\scb/cy_scb_common.h **** __STATIC_INLINE uint32_t Cy_SCB_GetI2CInterruptStatus(CySCB_Type const *base);
 170:Generated_Source\PSoC6\pdl\drivers\peripheral\scb/cy_scb_common.h **** __STATIC_INLINE void     Cy_SCB_SetI2CInterruptMask  (CySCB_Type *base, uint32_t interruptMask);
 171:Generated_Source\PSoC6\pdl\drivers\peripheral\scb/cy_scb_common.h **** __STATIC_INLINE uint32_t Cy_SCB_GetI2CInterruptMask  (CySCB_Type const *base);
 172:Generated_Source\PSoC6\pdl\drivers\peripheral\scb/cy_scb_common.h **** __STATIC_INLINE uint32_t Cy_SCB_GetI2CInterruptStatusMasked(CySCB_Type const *base);
 173:Generated_Source\PSoC6\pdl\drivers\peripheral\scb/cy_scb_common.h **** __STATIC_INLINE void     Cy_SCB_ClearI2CInterrupt    (CySCB_Type *base, uint32_t interruptMask);
 174:Generated_Source\PSoC6\pdl\drivers\peripheral\scb/cy_scb_common.h **** 
 175:Generated_Source\PSoC6\pdl\drivers\peripheral\scb/cy_scb_common.h **** __STATIC_INLINE uint32_t Cy_SCB_GetSpiInterruptStatus(CySCB_Type const *base);
 176:Generated_Source\PSoC6\pdl\drivers\peripheral\scb/cy_scb_common.h **** __STATIC_INLINE void     Cy_SCB_SetSpiInterruptMask  (CySCB_Type *base, uint32_t interruptMask);
 177:Generated_Source\PSoC6\pdl\drivers\peripheral\scb/cy_scb_common.h **** __STATIC_INLINE uint32_t Cy_SCB_GetSpiInterruptMask  (CySCB_Type const *base);
 178:Generated_Source\PSoC6\pdl\drivers\peripheral\scb/cy_scb_common.h **** __STATIC_INLINE uint32_t Cy_SCB_GetSpiInterruptStatusMasked(CySCB_Type const *base);
 179:Generated_Source\PSoC6\pdl\drivers\peripheral\scb/cy_scb_common.h **** __STATIC_INLINE void     Cy_SCB_ClearSpiInterrupt    (CySCB_Type *base, uint32_t interruptMask);
 180:Generated_Source\PSoC6\pdl\drivers\peripheral\scb/cy_scb_common.h **** 
 181:Generated_Source\PSoC6\pdl\drivers\peripheral\scb/cy_scb_common.h **** 
 182:Generated_Source\PSoC6\pdl\drivers\peripheral\scb/cy_scb_common.h **** /***************************************
 183:Generated_Source\PSoC6\pdl\drivers\peripheral\scb/cy_scb_common.h **** *     Internal Function Prototypes
 184:Generated_Source\PSoC6\pdl\drivers\peripheral\scb/cy_scb_common.h **** ***************************************/
 185:Generated_Source\PSoC6\pdl\drivers\peripheral\scb/cy_scb_common.h **** 
 186:Generated_Source\PSoC6\pdl\drivers\peripheral\scb/cy_scb_common.h **** /** \cond INTERNAL */
 187:Generated_Source\PSoC6\pdl\drivers\peripheral\scb/cy_scb_common.h **** void     Cy_SCB_ReadArrayNoCheck  (CySCB_Type const *base, void *buffer, uint32_t size);
 188:Generated_Source\PSoC6\pdl\drivers\peripheral\scb/cy_scb_common.h **** uint32_t Cy_SCB_ReadArray         (CySCB_Type const *base, void *buffer, uint32_t size);
 189:Generated_Source\PSoC6\pdl\drivers\peripheral\scb/cy_scb_common.h **** void     Cy_SCB_ReadArrayBlocking (CySCB_Type const *base, void *buffer, uint32_t size);
 190:Generated_Source\PSoC6\pdl\drivers\peripheral\scb/cy_scb_common.h **** uint32_t Cy_SCB_Write             (CySCB_Type *base, uint32_t data);
 191:Generated_Source\PSoC6\pdl\drivers\peripheral\scb/cy_scb_common.h **** void     Cy_SCB_WriteArrayNoCheck (CySCB_Type *base, void *buffer, uint32_t size);
 192:Generated_Source\PSoC6\pdl\drivers\peripheral\scb/cy_scb_common.h **** uint32_t Cy_SCB_WriteArray        (CySCB_Type *base, void *buffer, uint32_t size);
 193:Generated_Source\PSoC6\pdl\drivers\peripheral\scb/cy_scb_common.h **** void     Cy_SCB_WriteArrayBlocking(CySCB_Type *base, void *buffer, uint32_t size);
 194:Generated_Source\PSoC6\pdl\drivers\peripheral\scb/cy_scb_common.h **** void     Cy_SCB_WriteString       (CySCB_Type *base, char_t const string[]);
 195:Generated_Source\PSoC6\pdl\drivers\peripheral\scb/cy_scb_common.h **** void     Cy_SCB_WriteDefaultArrayNoCheck(CySCB_Type *base, uint32_t txData, uint32_t size);
 196:Generated_Source\PSoC6\pdl\drivers\peripheral\scb/cy_scb_common.h **** uint32_t Cy_SCB_WriteDefaultArray (CySCB_Type *base, uint32_t txData, uint32_t size);
 197:Generated_Source\PSoC6\pdl\drivers\peripheral\scb/cy_scb_common.h **** 
 198:Generated_Source\PSoC6\pdl\drivers\peripheral\scb/cy_scb_common.h **** __STATIC_INLINE uint32_t Cy_SCB_GetFifoSize (CySCB_Type const *base);
 199:Generated_Source\PSoC6\pdl\drivers\peripheral\scb/cy_scb_common.h **** __STATIC_INLINE void     Cy_SCB_FwBlockReset(CySCB_Type *base);
 200:Generated_Source\PSoC6\pdl\drivers\peripheral\scb/cy_scb_common.h **** __STATIC_INLINE bool     Cy_SCB_IsRxDataWidthByte(CySCB_Type const *base);
 201:Generated_Source\PSoC6\pdl\drivers\peripheral\scb/cy_scb_common.h **** __STATIC_INLINE bool     Cy_SCB_IsTxDataWidthByte(CySCB_Type const *base);
ARM GAS  C:\Users\ikomb\AppData\Local\Temp\ccqJLUw6.s 			page 5


 202:Generated_Source\PSoC6\pdl\drivers\peripheral\scb/cy_scb_common.h **** __STATIC_INLINE uint32_t Cy_SCB_GetRxFifoLevel   (CySCB_Type const *base);
 203:Generated_Source\PSoC6\pdl\drivers\peripheral\scb/cy_scb_common.h **** /** \endcond */
 204:Generated_Source\PSoC6\pdl\drivers\peripheral\scb/cy_scb_common.h **** 
 205:Generated_Source\PSoC6\pdl\drivers\peripheral\scb/cy_scb_common.h **** /** \} group_scb_common_functions */
 206:Generated_Source\PSoC6\pdl\drivers\peripheral\scb/cy_scb_common.h **** 
 207:Generated_Source\PSoC6\pdl\drivers\peripheral\scb/cy_scb_common.h **** /***************************************
 208:Generated_Source\PSoC6\pdl\drivers\peripheral\scb/cy_scb_common.h **** *            API Constants
 209:Generated_Source\PSoC6\pdl\drivers\peripheral\scb/cy_scb_common.h **** ***************************************/
 210:Generated_Source\PSoC6\pdl\drivers\peripheral\scb/cy_scb_common.h **** 
 211:Generated_Source\PSoC6\pdl\drivers\peripheral\scb/cy_scb_common.h **** /**
 212:Generated_Source\PSoC6\pdl\drivers\peripheral\scb/cy_scb_common.h **** * \addtogroup group_scb_common_macros
 213:Generated_Source\PSoC6\pdl\drivers\peripheral\scb/cy_scb_common.h **** * \{
 214:Generated_Source\PSoC6\pdl\drivers\peripheral\scb/cy_scb_common.h **** */
 215:Generated_Source\PSoC6\pdl\drivers\peripheral\scb/cy_scb_common.h **** 
 216:Generated_Source\PSoC6\pdl\drivers\peripheral\scb/cy_scb_common.h **** /** Driver major version */
 217:Generated_Source\PSoC6\pdl\drivers\peripheral\scb/cy_scb_common.h **** #define CY_SCB_DRV_VERSION_MAJOR    (2)
 218:Generated_Source\PSoC6\pdl\drivers\peripheral\scb/cy_scb_common.h **** 
 219:Generated_Source\PSoC6\pdl\drivers\peripheral\scb/cy_scb_common.h **** /** Driver minor version */
 220:Generated_Source\PSoC6\pdl\drivers\peripheral\scb/cy_scb_common.h **** #define CY_SCB_DRV_VERSION_MINOR    (10)
 221:Generated_Source\PSoC6\pdl\drivers\peripheral\scb/cy_scb_common.h **** 
 222:Generated_Source\PSoC6\pdl\drivers\peripheral\scb/cy_scb_common.h **** /** SCB driver identifier */
 223:Generated_Source\PSoC6\pdl\drivers\peripheral\scb/cy_scb_common.h **** #define CY_SCB_ID           CY_PDL_DRV_ID(0x2AU)
 224:Generated_Source\PSoC6\pdl\drivers\peripheral\scb/cy_scb_common.h **** 
 225:Generated_Source\PSoC6\pdl\drivers\peripheral\scb/cy_scb_common.h **** /** Position for SCB driver sub mode */
 226:Generated_Source\PSoC6\pdl\drivers\peripheral\scb/cy_scb_common.h **** #define CY_SCB_SUB_MODE_Pos (13UL)
 227:Generated_Source\PSoC6\pdl\drivers\peripheral\scb/cy_scb_common.h **** 
 228:Generated_Source\PSoC6\pdl\drivers\peripheral\scb/cy_scb_common.h **** /** EZI2C mode identifier */
 229:Generated_Source\PSoC6\pdl\drivers\peripheral\scb/cy_scb_common.h **** #define CY_SCB_EZI2C_ID     (0x0UL << CY_SCB_SUB_MODE_Pos)
 230:Generated_Source\PSoC6\pdl\drivers\peripheral\scb/cy_scb_common.h **** 
 231:Generated_Source\PSoC6\pdl\drivers\peripheral\scb/cy_scb_common.h **** /** EZI2C mode identifier */
 232:Generated_Source\PSoC6\pdl\drivers\peripheral\scb/cy_scb_common.h **** #define CY_SCB_I2C_ID       (0x1UL << CY_SCB_SUB_MODE_Pos)
 233:Generated_Source\PSoC6\pdl\drivers\peripheral\scb/cy_scb_common.h **** 
 234:Generated_Source\PSoC6\pdl\drivers\peripheral\scb/cy_scb_common.h **** /** EZI2C mode identifier */
 235:Generated_Source\PSoC6\pdl\drivers\peripheral\scb/cy_scb_common.h **** #define CY_SCB_SPI_ID       (0x2UL << CY_SCB_SUB_MODE_Pos)
 236:Generated_Source\PSoC6\pdl\drivers\peripheral\scb/cy_scb_common.h **** 
 237:Generated_Source\PSoC6\pdl\drivers\peripheral\scb/cy_scb_common.h **** /** EZI2C mode identifier */
 238:Generated_Source\PSoC6\pdl\drivers\peripheral\scb/cy_scb_common.h **** #define CY_SCB_UART_ID      (0x3UL << CY_SCB_SUB_MODE_Pos)
 239:Generated_Source\PSoC6\pdl\drivers\peripheral\scb/cy_scb_common.h **** 
 240:Generated_Source\PSoC6\pdl\drivers\peripheral\scb/cy_scb_common.h **** /**
 241:Generated_Source\PSoC6\pdl\drivers\peripheral\scb/cy_scb_common.h **** * \defgroup group_scb_common_macros_intr_cause SCB Interrupt Causes
 242:Generated_Source\PSoC6\pdl\drivers\peripheral\scb/cy_scb_common.h **** * \{
 243:Generated_Source\PSoC6\pdl\drivers\peripheral\scb/cy_scb_common.h **** */
 244:Generated_Source\PSoC6\pdl\drivers\peripheral\scb/cy_scb_common.h **** /** Interrupt from Master interrupt sources */
 245:Generated_Source\PSoC6\pdl\drivers\peripheral\scb/cy_scb_common.h **** #define CY_SCB_MASTER_INTR SCB_INTR_CAUSE_M_Msk
 246:Generated_Source\PSoC6\pdl\drivers\peripheral\scb/cy_scb_common.h **** 
 247:Generated_Source\PSoC6\pdl\drivers\peripheral\scb/cy_scb_common.h **** /** Interrupt from Slave interrupt sources  */
 248:Generated_Source\PSoC6\pdl\drivers\peripheral\scb/cy_scb_common.h **** #define CY_SCB_SLAVE_INTR  SCB_INTR_CAUSE_S_Msk
 249:Generated_Source\PSoC6\pdl\drivers\peripheral\scb/cy_scb_common.h **** 
 250:Generated_Source\PSoC6\pdl\drivers\peripheral\scb/cy_scb_common.h **** /** Interrupt from TX interrupt sources */
 251:Generated_Source\PSoC6\pdl\drivers\peripheral\scb/cy_scb_common.h **** #define CY_SCB_TX_INTR     SCB_INTR_CAUSE_TX_Msk
 252:Generated_Source\PSoC6\pdl\drivers\peripheral\scb/cy_scb_common.h **** 
 253:Generated_Source\PSoC6\pdl\drivers\peripheral\scb/cy_scb_common.h **** /** Interrupt from RX interrupt sources */
 254:Generated_Source\PSoC6\pdl\drivers\peripheral\scb/cy_scb_common.h **** #define CY_SCB_RX_INTR     SCB_INTR_CAUSE_RX_Msk
 255:Generated_Source\PSoC6\pdl\drivers\peripheral\scb/cy_scb_common.h **** 
 256:Generated_Source\PSoC6\pdl\drivers\peripheral\scb/cy_scb_common.h **** /** Interrupt from I2C externally clocked interrupt sources */
 257:Generated_Source\PSoC6\pdl\drivers\peripheral\scb/cy_scb_common.h **** #define CY_SCB_I2C_INTR    SCB_INTR_CAUSE_I2C_EC_Msk
 258:Generated_Source\PSoC6\pdl\drivers\peripheral\scb/cy_scb_common.h **** 
ARM GAS  C:\Users\ikomb\AppData\Local\Temp\ccqJLUw6.s 			page 6


 259:Generated_Source\PSoC6\pdl\drivers\peripheral\scb/cy_scb_common.h **** /** Interrupt from SPI externally clocked interrupt sources */
 260:Generated_Source\PSoC6\pdl\drivers\peripheral\scb/cy_scb_common.h **** #define CY_SCB_SPI_INTR    SCB_INTR_CAUSE_SPI_EC_Msk
 261:Generated_Source\PSoC6\pdl\drivers\peripheral\scb/cy_scb_common.h **** /** \} group_scb_common_macros_intr_cause */
 262:Generated_Source\PSoC6\pdl\drivers\peripheral\scb/cy_scb_common.h **** 
 263:Generated_Source\PSoC6\pdl\drivers\peripheral\scb/cy_scb_common.h **** /**
 264:Generated_Source\PSoC6\pdl\drivers\peripheral\scb/cy_scb_common.h **** * \defgroup group_scb_common_macros_tx_intr TX Interrupt Statuses
 265:Generated_Source\PSoC6\pdl\drivers\peripheral\scb/cy_scb_common.h **** * \{
 266:Generated_Source\PSoC6\pdl\drivers\peripheral\scb/cy_scb_common.h **** */
 267:Generated_Source\PSoC6\pdl\drivers\peripheral\scb/cy_scb_common.h **** /**
 268:Generated_Source\PSoC6\pdl\drivers\peripheral\scb/cy_scb_common.h **** * The number of data elements in the TX FIFO is less than the value
 269:Generated_Source\PSoC6\pdl\drivers\peripheral\scb/cy_scb_common.h **** * of the TX FIFO level
 270:Generated_Source\PSoC6\pdl\drivers\peripheral\scb/cy_scb_common.h **** */
 271:Generated_Source\PSoC6\pdl\drivers\peripheral\scb/cy_scb_common.h **** #define CY_SCB_TX_INTR_LEVEL           SCB_INTR_TX_TRIGGER_Msk
 272:Generated_Source\PSoC6\pdl\drivers\peripheral\scb/cy_scb_common.h **** 
 273:Generated_Source\PSoC6\pdl\drivers\peripheral\scb/cy_scb_common.h **** /** The TX FIFO is not full */
 274:Generated_Source\PSoC6\pdl\drivers\peripheral\scb/cy_scb_common.h **** #define CY_SCB_TX_INTR_NOT_FULL        SCB_INTR_TX_NOT_FULL_Msk
 275:Generated_Source\PSoC6\pdl\drivers\peripheral\scb/cy_scb_common.h **** 
 276:Generated_Source\PSoC6\pdl\drivers\peripheral\scb/cy_scb_common.h **** /** The TX FIFO is empty */
 277:Generated_Source\PSoC6\pdl\drivers\peripheral\scb/cy_scb_common.h **** #define CY_SCB_TX_INTR_EMPTY           SCB_INTR_TX_EMPTY_Msk
 278:Generated_Source\PSoC6\pdl\drivers\peripheral\scb/cy_scb_common.h **** 
 279:Generated_Source\PSoC6\pdl\drivers\peripheral\scb/cy_scb_common.h **** /** An attempt to write to a full TX FIFO */
 280:Generated_Source\PSoC6\pdl\drivers\peripheral\scb/cy_scb_common.h **** #define CY_SCB_TX_INTR_OVERFLOW        SCB_INTR_TX_OVERFLOW_Msk
 281:Generated_Source\PSoC6\pdl\drivers\peripheral\scb/cy_scb_common.h **** 
 282:Generated_Source\PSoC6\pdl\drivers\peripheral\scb/cy_scb_common.h **** /** An attempt to read from an empty TX FIFO */
 283:Generated_Source\PSoC6\pdl\drivers\peripheral\scb/cy_scb_common.h **** #define CY_SCB_TX_INTR_UNDERFLOW       SCB_INTR_TX_UNDERFLOW_Msk
 284:Generated_Source\PSoC6\pdl\drivers\peripheral\scb/cy_scb_common.h **** 
 285:Generated_Source\PSoC6\pdl\drivers\peripheral\scb/cy_scb_common.h **** /** The UART transfer is complete: all data elements from the TX FIFO are sent
 286:Generated_Source\PSoC6\pdl\drivers\peripheral\scb/cy_scb_common.h **** */
 287:Generated_Source\PSoC6\pdl\drivers\peripheral\scb/cy_scb_common.h **** #define CY_SCB_TX_INTR_UART_DONE       SCB_INTR_TX_UART_DONE_Msk
 288:Generated_Source\PSoC6\pdl\drivers\peripheral\scb/cy_scb_common.h **** 
 289:Generated_Source\PSoC6\pdl\drivers\peripheral\scb/cy_scb_common.h **** /** SmartCard only: UART received a NACK */
 290:Generated_Source\PSoC6\pdl\drivers\peripheral\scb/cy_scb_common.h **** #define CY_SCB_TX_INTR_UART_NACK       SCB_INTR_TX_UART_NACK_Msk
 291:Generated_Source\PSoC6\pdl\drivers\peripheral\scb/cy_scb_common.h **** 
 292:Generated_Source\PSoC6\pdl\drivers\peripheral\scb/cy_scb_common.h **** /**
 293:Generated_Source\PSoC6\pdl\drivers\peripheral\scb/cy_scb_common.h **** * SmartCard only: the value on the TX line of the UART does not match the
 294:Generated_Source\PSoC6\pdl\drivers\peripheral\scb/cy_scb_common.h **** * value on the RX line
 295:Generated_Source\PSoC6\pdl\drivers\peripheral\scb/cy_scb_common.h **** */
 296:Generated_Source\PSoC6\pdl\drivers\peripheral\scb/cy_scb_common.h **** #define CY_SCB_TX_INTR_UART_ARB_LOST   SCB_INTR_TX_UART_ARB_LOST_Msk
 297:Generated_Source\PSoC6\pdl\drivers\peripheral\scb/cy_scb_common.h **** /** \} group_scb_common_macros_tx_intr */
 298:Generated_Source\PSoC6\pdl\drivers\peripheral\scb/cy_scb_common.h **** 
 299:Generated_Source\PSoC6\pdl\drivers\peripheral\scb/cy_scb_common.h **** /**
 300:Generated_Source\PSoC6\pdl\drivers\peripheral\scb/cy_scb_common.h **** * \defgroup group_scb_common_macros_rx_intr RX Interrupt Statuses
 301:Generated_Source\PSoC6\pdl\drivers\peripheral\scb/cy_scb_common.h **** * \{
 302:Generated_Source\PSoC6\pdl\drivers\peripheral\scb/cy_scb_common.h **** */
 303:Generated_Source\PSoC6\pdl\drivers\peripheral\scb/cy_scb_common.h **** /**
 304:Generated_Source\PSoC6\pdl\drivers\peripheral\scb/cy_scb_common.h **** * The number of data elements in the RX FIFO is greater than the value of the
 305:Generated_Source\PSoC6\pdl\drivers\peripheral\scb/cy_scb_common.h **** * RX FIFO level
 306:Generated_Source\PSoC6\pdl\drivers\peripheral\scb/cy_scb_common.h **** */
 307:Generated_Source\PSoC6\pdl\drivers\peripheral\scb/cy_scb_common.h **** #define CY_SCB_RX_INTR_LEVEL             SCB_INTR_RX_TRIGGER_Msk
 308:Generated_Source\PSoC6\pdl\drivers\peripheral\scb/cy_scb_common.h **** 
 309:Generated_Source\PSoC6\pdl\drivers\peripheral\scb/cy_scb_common.h **** /** The RX FIFO is not empty */
 310:Generated_Source\PSoC6\pdl\drivers\peripheral\scb/cy_scb_common.h **** #define CY_SCB_RX_INTR_NOT_EMPTY         SCB_INTR_RX_NOT_EMPTY_Msk
 311:Generated_Source\PSoC6\pdl\drivers\peripheral\scb/cy_scb_common.h **** 
 312:Generated_Source\PSoC6\pdl\drivers\peripheral\scb/cy_scb_common.h **** /** The RX FIFO is full */
 313:Generated_Source\PSoC6\pdl\drivers\peripheral\scb/cy_scb_common.h **** #define CY_SCB_RX_INTR_FULL              SCB_INTR_RX_FULL_Msk
 314:Generated_Source\PSoC6\pdl\drivers\peripheral\scb/cy_scb_common.h **** 
 315:Generated_Source\PSoC6\pdl\drivers\peripheral\scb/cy_scb_common.h **** /** An attempt to write to a full RX FIFO */
ARM GAS  C:\Users\ikomb\AppData\Local\Temp\ccqJLUw6.s 			page 7


 316:Generated_Source\PSoC6\pdl\drivers\peripheral\scb/cy_scb_common.h **** #define CY_SCB_RX_INTR_OVERFLOW          SCB_INTR_RX_OVERFLOW_Msk
 317:Generated_Source\PSoC6\pdl\drivers\peripheral\scb/cy_scb_common.h **** 
 318:Generated_Source\PSoC6\pdl\drivers\peripheral\scb/cy_scb_common.h **** /** An attempt to read from an empty RX FIFO */
 319:Generated_Source\PSoC6\pdl\drivers\peripheral\scb/cy_scb_common.h **** #define CY_SCB_RX_INTR_UNDERFLOW         SCB_INTR_RX_UNDERFLOW_Msk
 320:Generated_Source\PSoC6\pdl\drivers\peripheral\scb/cy_scb_common.h **** 
 321:Generated_Source\PSoC6\pdl\drivers\peripheral\scb/cy_scb_common.h **** /** A UART framing error detected */
 322:Generated_Source\PSoC6\pdl\drivers\peripheral\scb/cy_scb_common.h **** #define CY_SCB_RX_INTR_UART_FRAME_ERROR  SCB_INTR_RX_FRAME_ERROR_Msk
 323:Generated_Source\PSoC6\pdl\drivers\peripheral\scb/cy_scb_common.h **** 
 324:Generated_Source\PSoC6\pdl\drivers\peripheral\scb/cy_scb_common.h **** /** A UART parity error detected  */
 325:Generated_Source\PSoC6\pdl\drivers\peripheral\scb/cy_scb_common.h **** #define CY_SCB_RX_INTR_UART_PARITY_ERROR SCB_INTR_RX_PARITY_ERROR_Msk
 326:Generated_Source\PSoC6\pdl\drivers\peripheral\scb/cy_scb_common.h **** 
 327:Generated_Source\PSoC6\pdl\drivers\peripheral\scb/cy_scb_common.h **** /** A UART break detected */
 328:Generated_Source\PSoC6\pdl\drivers\peripheral\scb/cy_scb_common.h **** #define CY_SCB_RX_INTR_UART_BREAK_DETECT SCB_INTR_RX_BREAK_DETECT_Msk
 329:Generated_Source\PSoC6\pdl\drivers\peripheral\scb/cy_scb_common.h **** /** \} group_scb_common_macros_rx_intr */
 330:Generated_Source\PSoC6\pdl\drivers\peripheral\scb/cy_scb_common.h **** 
 331:Generated_Source\PSoC6\pdl\drivers\peripheral\scb/cy_scb_common.h **** /**
 332:Generated_Source\PSoC6\pdl\drivers\peripheral\scb/cy_scb_common.h **** * \defgroup group_scb_common_macros_slave_intr Slave Interrupt Statuses
 333:Generated_Source\PSoC6\pdl\drivers\peripheral\scb/cy_scb_common.h **** * \{
 334:Generated_Source\PSoC6\pdl\drivers\peripheral\scb/cy_scb_common.h **** */
 335:Generated_Source\PSoC6\pdl\drivers\peripheral\scb/cy_scb_common.h **** /**
 336:Generated_Source\PSoC6\pdl\drivers\peripheral\scb/cy_scb_common.h **** * I2C slave lost arbitration: the value driven on the SDA line is not the same
 337:Generated_Source\PSoC6\pdl\drivers\peripheral\scb/cy_scb_common.h **** * as the value observed on the SDA line
 338:Generated_Source\PSoC6\pdl\drivers\peripheral\scb/cy_scb_common.h **** */
 339:Generated_Source\PSoC6\pdl\drivers\peripheral\scb/cy_scb_common.h **** #define CY_SCB_SLAVE_INTR_I2C_ARB_LOST      SCB_INTR_S_I2C_ARB_LOST_Msk
 340:Generated_Source\PSoC6\pdl\drivers\peripheral\scb/cy_scb_common.h **** 
 341:Generated_Source\PSoC6\pdl\drivers\peripheral\scb/cy_scb_common.h **** /** The I2C slave received a NAK */
 342:Generated_Source\PSoC6\pdl\drivers\peripheral\scb/cy_scb_common.h **** #define CY_SCB_SLAVE_INTR_I2C_NACK          SCB_INTR_S_I2C_NACK_Msk
 343:Generated_Source\PSoC6\pdl\drivers\peripheral\scb/cy_scb_common.h **** 
 344:Generated_Source\PSoC6\pdl\drivers\peripheral\scb/cy_scb_common.h **** /** The I2C slave received  an ACK */
 345:Generated_Source\PSoC6\pdl\drivers\peripheral\scb/cy_scb_common.h **** #define CY_SCB_SLAVE_INTR_I2C_ACK           SCB_INTR_S_I2C_ACK_Msk
 346:Generated_Source\PSoC6\pdl\drivers\peripheral\scb/cy_scb_common.h **** 
 347:Generated_Source\PSoC6\pdl\drivers\peripheral\scb/cy_scb_common.h **** /**
 348:Generated_Source\PSoC6\pdl\drivers\peripheral\scb/cy_scb_common.h **** * A Stop or Repeated Start event for a write transfer intended for this slave
 349:Generated_Source\PSoC6\pdl\drivers\peripheral\scb/cy_scb_common.h **** * was detected.
 350:Generated_Source\PSoC6\pdl\drivers\peripheral\scb/cy_scb_common.h **** */
 351:Generated_Source\PSoC6\pdl\drivers\peripheral\scb/cy_scb_common.h **** #define CY_SCB_SLAVE_INTR_I2C_WRITE_STOP    SCB_INTR_S_I2C_WRITE_STOP_Msk
 352:Generated_Source\PSoC6\pdl\drivers\peripheral\scb/cy_scb_common.h **** 
 353:Generated_Source\PSoC6\pdl\drivers\peripheral\scb/cy_scb_common.h **** /** A Stop or Repeated Start event intended for this slave was detected */
 354:Generated_Source\PSoC6\pdl\drivers\peripheral\scb/cy_scb_common.h **** #define CY_SCB_SLAVE_INTR_I2C_STOP          SCB_INTR_S_I2C_STOP_Msk
 355:Generated_Source\PSoC6\pdl\drivers\peripheral\scb/cy_scb_common.h **** 
 356:Generated_Source\PSoC6\pdl\drivers\peripheral\scb/cy_scb_common.h **** /** The I2C slave received a Start condition */
 357:Generated_Source\PSoC6\pdl\drivers\peripheral\scb/cy_scb_common.h **** #define CY_SCB_SLAVE_INTR_I2C_START         SCB_INTR_S_I2C_START_Msk
 358:Generated_Source\PSoC6\pdl\drivers\peripheral\scb/cy_scb_common.h **** 
 359:Generated_Source\PSoC6\pdl\drivers\peripheral\scb/cy_scb_common.h **** /** The I2C slave received the matching address */
 360:Generated_Source\PSoC6\pdl\drivers\peripheral\scb/cy_scb_common.h **** #define CY_SCB_SLAVE_INTR_I2C_ADDR_MATCH    SCB_INTR_S_I2C_ADDR_MATCH_Msk
 361:Generated_Source\PSoC6\pdl\drivers\peripheral\scb/cy_scb_common.h **** 
 362:Generated_Source\PSoC6\pdl\drivers\peripheral\scb/cy_scb_common.h **** /** The I2C Slave received the general call address */
 363:Generated_Source\PSoC6\pdl\drivers\peripheral\scb/cy_scb_common.h **** #define CY_SCB_SLAVE_INTR_I2C_GENERAL_ADDR  SCB_INTR_S_I2C_GENERAL_Msk
 364:Generated_Source\PSoC6\pdl\drivers\peripheral\scb/cy_scb_common.h **** 
 365:Generated_Source\PSoC6\pdl\drivers\peripheral\scb/cy_scb_common.h **** /** The I2C slave bus error (detection of unexpected Start or Stop condition) */
 366:Generated_Source\PSoC6\pdl\drivers\peripheral\scb/cy_scb_common.h **** #define CY_SCB_SLAVE_INTR_I2C_BUS_ERROR     SCB_INTR_S_I2C_BUS_ERROR_Msk
 367:Generated_Source\PSoC6\pdl\drivers\peripheral\scb/cy_scb_common.h **** 
 368:Generated_Source\PSoC6\pdl\drivers\peripheral\scb/cy_scb_common.h **** /**
 369:Generated_Source\PSoC6\pdl\drivers\peripheral\scb/cy_scb_common.h **** * The SPI slave select line is deselected at an expected time during an
 370:Generated_Source\PSoC6\pdl\drivers\peripheral\scb/cy_scb_common.h **** * SPI transfer.
 371:Generated_Source\PSoC6\pdl\drivers\peripheral\scb/cy_scb_common.h **** */
 372:Generated_Source\PSoC6\pdl\drivers\peripheral\scb/cy_scb_common.h **** #define CY_SCB_SLAVE_INTR_SPI_BUS_ERROR     SCB_INTR_S_SPI_BUS_ERROR_Msk
ARM GAS  C:\Users\ikomb\AppData\Local\Temp\ccqJLUw6.s 			page 8


 373:Generated_Source\PSoC6\pdl\drivers\peripheral\scb/cy_scb_common.h **** /** \} group_scb_common_macros_slave_intr */
 374:Generated_Source\PSoC6\pdl\drivers\peripheral\scb/cy_scb_common.h **** 
 375:Generated_Source\PSoC6\pdl\drivers\peripheral\scb/cy_scb_common.h **** /**
 376:Generated_Source\PSoC6\pdl\drivers\peripheral\scb/cy_scb_common.h **** * \defgroup group_scb_common_macros_master_intr Master Interrupt Statuses
 377:Generated_Source\PSoC6\pdl\drivers\peripheral\scb/cy_scb_common.h **** * \{
 378:Generated_Source\PSoC6\pdl\drivers\peripheral\scb/cy_scb_common.h **** */
 379:Generated_Source\PSoC6\pdl\drivers\peripheral\scb/cy_scb_common.h **** /** The I2C master lost arbitration */
 380:Generated_Source\PSoC6\pdl\drivers\peripheral\scb/cy_scb_common.h **** #define CY_SCB_MASTER_INTR_I2C_ARB_LOST    SCB_INTR_M_I2C_ARB_LOST_Msk
 381:Generated_Source\PSoC6\pdl\drivers\peripheral\scb/cy_scb_common.h **** 
 382:Generated_Source\PSoC6\pdl\drivers\peripheral\scb/cy_scb_common.h **** /** The I2C master received a NACK */
 383:Generated_Source\PSoC6\pdl\drivers\peripheral\scb/cy_scb_common.h **** #define CY_SCB_MASTER_INTR_I2C_NACK        SCB_INTR_M_I2C_NACK_Msk
 384:Generated_Source\PSoC6\pdl\drivers\peripheral\scb/cy_scb_common.h **** 
 385:Generated_Source\PSoC6\pdl\drivers\peripheral\scb/cy_scb_common.h **** /** The I2C master received an ACK */
 386:Generated_Source\PSoC6\pdl\drivers\peripheral\scb/cy_scb_common.h **** #define CY_SCB_MASTER_INTR_I2C_ACK         SCB_INTR_M_I2C_ACK_Msk
 387:Generated_Source\PSoC6\pdl\drivers\peripheral\scb/cy_scb_common.h **** 
 388:Generated_Source\PSoC6\pdl\drivers\peripheral\scb/cy_scb_common.h **** /** The I2C master generated a Stop */
 389:Generated_Source\PSoC6\pdl\drivers\peripheral\scb/cy_scb_common.h **** #define CY_SCB_MASTER_INTR_I2C_STOP        SCB_INTR_M_I2C_STOP_Msk
 390:Generated_Source\PSoC6\pdl\drivers\peripheral\scb/cy_scb_common.h **** 
 391:Generated_Source\PSoC6\pdl\drivers\peripheral\scb/cy_scb_common.h **** /** The I2C master bus error (detection of unexpected START or STOP condition)
 392:Generated_Source\PSoC6\pdl\drivers\peripheral\scb/cy_scb_common.h **** */
 393:Generated_Source\PSoC6\pdl\drivers\peripheral\scb/cy_scb_common.h **** #define CY_SCB_MASTER_INTR_I2C_BUS_ERROR   SCB_INTR_M_I2C_BUS_ERROR_Msk
 394:Generated_Source\PSoC6\pdl\drivers\peripheral\scb/cy_scb_common.h **** 
 395:Generated_Source\PSoC6\pdl\drivers\peripheral\scb/cy_scb_common.h **** /**
 396:Generated_Source\PSoC6\pdl\drivers\peripheral\scb/cy_scb_common.h **** * The SPI master transfer is complete: all data elements transferred from the
 397:Generated_Source\PSoC6\pdl\drivers\peripheral\scb/cy_scb_common.h **** * TX FIFO and TX shift register.
 398:Generated_Source\PSoC6\pdl\drivers\peripheral\scb/cy_scb_common.h **** */
 399:Generated_Source\PSoC6\pdl\drivers\peripheral\scb/cy_scb_common.h **** #define CY_SCB_MASTER_INTR_SPI_DONE        SCB_INTR_M_SPI_DONE_Msk
 400:Generated_Source\PSoC6\pdl\drivers\peripheral\scb/cy_scb_common.h **** /** \} group_scb_common_macros_master_intr */
 401:Generated_Source\PSoC6\pdl\drivers\peripheral\scb/cy_scb_common.h **** 
 402:Generated_Source\PSoC6\pdl\drivers\peripheral\scb/cy_scb_common.h **** /**
 403:Generated_Source\PSoC6\pdl\drivers\peripheral\scb/cy_scb_common.h **** * \defgroup group_scb_common_macros_i2c_intr I2C Interrupt Statuses
 404:Generated_Source\PSoC6\pdl\drivers\peripheral\scb/cy_scb_common.h **** * \{
 405:Generated_Source\PSoC6\pdl\drivers\peripheral\scb/cy_scb_common.h **** */
 406:Generated_Source\PSoC6\pdl\drivers\peripheral\scb/cy_scb_common.h **** /**
 407:Generated_Source\PSoC6\pdl\drivers\peripheral\scb/cy_scb_common.h **** * Wake up request: the I2C slave received the matching address.
 408:Generated_Source\PSoC6\pdl\drivers\peripheral\scb/cy_scb_common.h **** * Note that this interrupt source triggers in active mode.
 409:Generated_Source\PSoC6\pdl\drivers\peripheral\scb/cy_scb_common.h **** */
 410:Generated_Source\PSoC6\pdl\drivers\peripheral\scb/cy_scb_common.h **** #define CY_SCB_I2C_INTR_WAKEUP     SCB_INTR_I2C_EC_WAKE_UP_Msk
 411:Generated_Source\PSoC6\pdl\drivers\peripheral\scb/cy_scb_common.h **** /** \} group_scb_common_macros_i2c_intr */
 412:Generated_Source\PSoC6\pdl\drivers\peripheral\scb/cy_scb_common.h **** 
 413:Generated_Source\PSoC6\pdl\drivers\peripheral\scb/cy_scb_common.h **** /**
 414:Generated_Source\PSoC6\pdl\drivers\peripheral\scb/cy_scb_common.h **** * \defgroup group_scb_common_macros_SpiIntrStatuses SPI Interrupt Statuses
 415:Generated_Source\PSoC6\pdl\drivers\peripheral\scb/cy_scb_common.h **** * \{
 416:Generated_Source\PSoC6\pdl\drivers\peripheral\scb/cy_scb_common.h **** */
 417:Generated_Source\PSoC6\pdl\drivers\peripheral\scb/cy_scb_common.h **** /**
 418:Generated_Source\PSoC6\pdl\drivers\peripheral\scb/cy_scb_common.h **** * Wake up request: the SPI slave detects an active edge of the slave select
 419:Generated_Source\PSoC6\pdl\drivers\peripheral\scb/cy_scb_common.h **** * signal. Note that this interrupt source triggers in active mode.
 420:Generated_Source\PSoC6\pdl\drivers\peripheral\scb/cy_scb_common.h **** */
 421:Generated_Source\PSoC6\pdl\drivers\peripheral\scb/cy_scb_common.h **** #define CY_SCB_SPI_INTR_WAKEUP     SCB_INTR_SPI_EC_WAKE_UP_Msk
 422:Generated_Source\PSoC6\pdl\drivers\peripheral\scb/cy_scb_common.h **** /** \} group_scb_common_macros_SpiIntrStatuses */
 423:Generated_Source\PSoC6\pdl\drivers\peripheral\scb/cy_scb_common.h **** 
 424:Generated_Source\PSoC6\pdl\drivers\peripheral\scb/cy_scb_common.h **** 
 425:Generated_Source\PSoC6\pdl\drivers\peripheral\scb/cy_scb_common.h **** /***************************************
 426:Generated_Source\PSoC6\pdl\drivers\peripheral\scb/cy_scb_common.h **** *         Internal Constants
 427:Generated_Source\PSoC6\pdl\drivers\peripheral\scb/cy_scb_common.h **** ***************************************/
 428:Generated_Source\PSoC6\pdl\drivers\peripheral\scb/cy_scb_common.h **** 
 429:Generated_Source\PSoC6\pdl\drivers\peripheral\scb/cy_scb_common.h **** /** \cond INTERNAL */
ARM GAS  C:\Users\ikomb\AppData\Local\Temp\ccqJLUw6.s 			page 9


 430:Generated_Source\PSoC6\pdl\drivers\peripheral\scb/cy_scb_common.h **** 
 431:Generated_Source\PSoC6\pdl\drivers\peripheral\scb/cy_scb_common.h **** /* Default registers values */
 432:Generated_Source\PSoC6\pdl\drivers\peripheral\scb/cy_scb_common.h **** #define CY_SCB_CTRL_DEF_VAL         (_VAL2FLD(SCB_CTRL_OVS, 15UL) | \
 433:Generated_Source\PSoC6\pdl\drivers\peripheral\scb/cy_scb_common.h ****                                      _VAL2FLD(SCB_CTRL_MODE, 3UL))
 434:Generated_Source\PSoC6\pdl\drivers\peripheral\scb/cy_scb_common.h **** 
 435:Generated_Source\PSoC6\pdl\drivers\peripheral\scb/cy_scb_common.h **** #define CY_SCB_I2C_CTRL_DEF_VAL     (_VAL2FLD(SCB_I2C_CTRL_HIGH_PHASE_OVS, 8UL)        | \
 436:Generated_Source\PSoC6\pdl\drivers\peripheral\scb/cy_scb_common.h ****                                      _VAL2FLD(SCB_I2C_CTRL_HIGH_PHASE_OVS, 8UL)        | \
 437:Generated_Source\PSoC6\pdl\drivers\peripheral\scb/cy_scb_common.h ****                                      _VAL2FLD(SCB_I2C_CTRL_M_READY_DATA_ACK, 1UL)      | \
 438:Generated_Source\PSoC6\pdl\drivers\peripheral\scb/cy_scb_common.h ****                                      _VAL2FLD(SCB_I2C_CTRL_M_NOT_READY_DATA_NACK, 1UL) | \
 439:Generated_Source\PSoC6\pdl\drivers\peripheral\scb/cy_scb_common.h ****                                      _VAL2FLD(SCB_I2C_CTRL_S_GENERAL_IGNORE, 1UL)      | \
 440:Generated_Source\PSoC6\pdl\drivers\peripheral\scb/cy_scb_common.h ****                                      _VAL2FLD(SCB_I2C_CTRL_S_READY_ADDR_ACK, 1UL)      | \
 441:Generated_Source\PSoC6\pdl\drivers\peripheral\scb/cy_scb_common.h ****                                      _VAL2FLD(SCB_I2C_CTRL_S_READY_DATA_ACK, 1UL)      | \
 442:Generated_Source\PSoC6\pdl\drivers\peripheral\scb/cy_scb_common.h ****                                      _VAL2FLD(SCB_I2C_CTRL_S_NOT_READY_ADDR_NACK, 1UL) | \
 443:Generated_Source\PSoC6\pdl\drivers\peripheral\scb/cy_scb_common.h ****                                      _VAL2FLD(SCB_I2C_CTRL_S_NOT_READY_DATA_NACK, 1UL))
 444:Generated_Source\PSoC6\pdl\drivers\peripheral\scb/cy_scb_common.h **** 
 445:Generated_Source\PSoC6\pdl\drivers\peripheral\scb/cy_scb_common.h **** #define CY_SCB_I2C_CFG_DEF_VAL      (_VAL2FLD(SCB_I2C_CFG_SDA_IN_FILT_TRIM, 3UL)   | \
 446:Generated_Source\PSoC6\pdl\drivers\peripheral\scb/cy_scb_common.h ****                                      _VAL2FLD(SCB_I2C_CFG_SDA_IN_FILT_SEL, 1UL)    | \
 447:Generated_Source\PSoC6\pdl\drivers\peripheral\scb/cy_scb_common.h ****                                      _VAL2FLD(SCB_I2C_CFG_SCL_IN_FILT_SEL, 1UL)    | \
 448:Generated_Source\PSoC6\pdl\drivers\peripheral\scb/cy_scb_common.h ****                                      _VAL2FLD(SCB_I2C_CFG_SDA_OUT_FILT0_TRIM, 2UL) | \
 449:Generated_Source\PSoC6\pdl\drivers\peripheral\scb/cy_scb_common.h ****                                      _VAL2FLD(SCB_I2C_CFG_SDA_OUT_FILT1_TRIM, 2UL) | \
 450:Generated_Source\PSoC6\pdl\drivers\peripheral\scb/cy_scb_common.h ****                                      _VAL2FLD(SCB_I2C_CFG_SDA_OUT_FILT2_TRIM, 2UL))
 451:Generated_Source\PSoC6\pdl\drivers\peripheral\scb/cy_scb_common.h **** 
 452:Generated_Source\PSoC6\pdl\drivers\peripheral\scb/cy_scb_common.h **** #define CY_SCB_SPI_CTRL_DEF_VAL     _VAL2FLD(SCB_SPI_CTRL_MODE, 3UL)
 453:Generated_Source\PSoC6\pdl\drivers\peripheral\scb/cy_scb_common.h **** #define CY_SCB_UART_CTRL_DEF_VAL    _VAL2FLD(SCB_UART_CTRL_MODE, 3UL)
 454:Generated_Source\PSoC6\pdl\drivers\peripheral\scb/cy_scb_common.h **** 
 455:Generated_Source\PSoC6\pdl\drivers\peripheral\scb/cy_scb_common.h **** #define CY_SCB_UART_RX_CTRL_DEF_VAL (_VAL2FLD(SCB_UART_RX_CTRL_STOP_BITS, 2UL) | \
 456:Generated_Source\PSoC6\pdl\drivers\peripheral\scb/cy_scb_common.h ****                                      _VAL2FLD(SCB_UART_RX_CTRL_BREAK_WIDTH, 10UL))
 457:Generated_Source\PSoC6\pdl\drivers\peripheral\scb/cy_scb_common.h **** 
 458:Generated_Source\PSoC6\pdl\drivers\peripheral\scb/cy_scb_common.h **** #define CY_SCB_UART_TX_CTRL_DEF_VAL _VAL2FLD(SCB_UART_TX_CTRL_STOP_BITS, 2UL)
 459:Generated_Source\PSoC6\pdl\drivers\peripheral\scb/cy_scb_common.h **** 
 460:Generated_Source\PSoC6\pdl\drivers\peripheral\scb/cy_scb_common.h **** #define CY_SCB_RX_CTRL_DEF_VAL      (_VAL2FLD(SCB_RX_CTRL_DATA_WIDTH, 7UL) | \
 461:Generated_Source\PSoC6\pdl\drivers\peripheral\scb/cy_scb_common.h ****                                      _VAL2FLD(SCB_RX_CTRL_MSB_FIRST,  1UL))
 462:Generated_Source\PSoC6\pdl\drivers\peripheral\scb/cy_scb_common.h **** 
 463:Generated_Source\PSoC6\pdl\drivers\peripheral\scb/cy_scb_common.h **** #define CY_SCB_TX_CTRL_DEF_VAL      (_VAL2FLD(SCB_TX_CTRL_DATA_WIDTH, 7UL) | \
 464:Generated_Source\PSoC6\pdl\drivers\peripheral\scb/cy_scb_common.h ****                                      _VAL2FLD(SCB_TX_CTRL_MSB_FIRST,  1UL))
 465:Generated_Source\PSoC6\pdl\drivers\peripheral\scb/cy_scb_common.h **** 
 466:Generated_Source\PSoC6\pdl\drivers\peripheral\scb/cy_scb_common.h **** /* SCB CTRL modes */
 467:Generated_Source\PSoC6\pdl\drivers\peripheral\scb/cy_scb_common.h **** #define CY_SCB_CTRL_MODE_I2C   (0UL)
 468:Generated_Source\PSoC6\pdl\drivers\peripheral\scb/cy_scb_common.h **** #define CY_SCB_CTRL_MODE_SPI   (1UL)
 469:Generated_Source\PSoC6\pdl\drivers\peripheral\scb/cy_scb_common.h **** #define CY_SCB_CTRL_MODE_UART  (2UL)
 470:Generated_Source\PSoC6\pdl\drivers\peripheral\scb/cy_scb_common.h **** 
 471:Generated_Source\PSoC6\pdl\drivers\peripheral\scb/cy_scb_common.h **** /* The position and mask to set the I2C mode */
 472:Generated_Source\PSoC6\pdl\drivers\peripheral\scb/cy_scb_common.h **** #define CY_SCB_I2C_CTRL_MODE_Pos    SCB_I2C_CTRL_SLAVE_MODE_Pos
 473:Generated_Source\PSoC6\pdl\drivers\peripheral\scb/cy_scb_common.h **** #define CY_SCB_I2C_CTRL_MODE_Msk    (SCB_I2C_CTRL_SLAVE_MODE_Msk | \
 474:Generated_Source\PSoC6\pdl\drivers\peripheral\scb/cy_scb_common.h ****                                      SCB_I2C_CTRL_MASTER_MODE_Msk)
 475:Generated_Source\PSoC6\pdl\drivers\peripheral\scb/cy_scb_common.h **** 
 476:Generated_Source\PSoC6\pdl\drivers\peripheral\scb/cy_scb_common.h **** /* Cypress ID #282226:
 477:Generated_Source\PSoC6\pdl\drivers\peripheral\scb/cy_scb_common.h **** * SCB_I2C_CFG_SDA_IN_FILT_TRIM[1]: SCB clock enable (1), clock disable (0).
 478:Generated_Source\PSoC6\pdl\drivers\peripheral\scb/cy_scb_common.h **** */
 479:Generated_Source\PSoC6\pdl\drivers\peripheral\scb/cy_scb_common.h **** #define CY_SCB_I2C_CFG_CLK_ENABLE_Msk  (_VAL2FLD(SCB_I2C_CFG_SDA_IN_FILT_TRIM, 2UL))
 480:Generated_Source\PSoC6\pdl\drivers\peripheral\scb/cy_scb_common.h **** 
 481:Generated_Source\PSoC6\pdl\drivers\peripheral\scb/cy_scb_common.h **** /* I2C has fixed data width */
 482:Generated_Source\PSoC6\pdl\drivers\peripheral\scb/cy_scb_common.h **** #define CY_SCB_I2C_DATA_WIDTH   (7UL)
 483:Generated_Source\PSoC6\pdl\drivers\peripheral\scb/cy_scb_common.h **** 
 484:Generated_Source\PSoC6\pdl\drivers\peripheral\scb/cy_scb_common.h **** /* RX and TX control register values */
 485:Generated_Source\PSoC6\pdl\drivers\peripheral\scb/cy_scb_common.h **** #define CY_SCB_I2C_RX_CTRL      (_VAL2FLD(SCB_RX_CTRL_DATA_WIDTH, CY_SCB_I2C_DATA_WIDTH) | \
 486:Generated_Source\PSoC6\pdl\drivers\peripheral\scb/cy_scb_common.h ****                                  SCB_RX_CTRL_MSB_FIRST_Msk)
ARM GAS  C:\Users\ikomb\AppData\Local\Temp\ccqJLUw6.s 			page 10


 487:Generated_Source\PSoC6\pdl\drivers\peripheral\scb/cy_scb_common.h **** #define CY_SCB_I2C_TX_CTRL      (_VAL2FLD(SCB_TX_CTRL_DATA_WIDTH, CY_SCB_I2C_DATA_WIDTH) | \
 488:Generated_Source\PSoC6\pdl\drivers\peripheral\scb/cy_scb_common.h ****                                  SCB_TX_CTRL_MSB_FIRST_Msk | SCB_TX_CTRL_OPEN_DRAIN_Msk)
 489:Generated_Source\PSoC6\pdl\drivers\peripheral\scb/cy_scb_common.h **** 
 490:Generated_Source\PSoC6\pdl\drivers\peripheral\scb/cy_scb_common.h **** /* The position and mask to make an address byte */
 491:Generated_Source\PSoC6\pdl\drivers\peripheral\scb/cy_scb_common.h **** #define CY_SCB_I2C_ADDRESS_Pos  (1UL)
 492:Generated_Source\PSoC6\pdl\drivers\peripheral\scb/cy_scb_common.h **** #define CY_SCB_I2C_ADDRESS_Msk  (0xFEUL)
 493:Generated_Source\PSoC6\pdl\drivers\peripheral\scb/cy_scb_common.h **** 
 494:Generated_Source\PSoC6\pdl\drivers\peripheral\scb/cy_scb_common.h **** /* SPI slave select polarity */
 495:Generated_Source\PSoC6\pdl\drivers\peripheral\scb/cy_scb_common.h **** #define CY_SCB_SPI_CTRL_SSEL_POLARITY_Pos   SCB_SPI_CTRL_SSEL_POLARITY0_Pos
 496:Generated_Source\PSoC6\pdl\drivers\peripheral\scb/cy_scb_common.h **** #define CY_SCB_SPI_CTRL_SSEL_POLARITY_Msk   (SCB_SPI_CTRL_SSEL_POLARITY0_Msk | \
 497:Generated_Source\PSoC6\pdl\drivers\peripheral\scb/cy_scb_common.h ****                                              SCB_SPI_CTRL_SSEL_POLARITY1_Msk | \
 498:Generated_Source\PSoC6\pdl\drivers\peripheral\scb/cy_scb_common.h ****                                              SCB_SPI_CTRL_SSEL_POLARITY2_Msk | \
 499:Generated_Source\PSoC6\pdl\drivers\peripheral\scb/cy_scb_common.h ****                                              SCB_SPI_CTRL_SSEL_POLARITY3_Msk)
 500:Generated_Source\PSoC6\pdl\drivers\peripheral\scb/cy_scb_common.h **** 
 501:Generated_Source\PSoC6\pdl\drivers\peripheral\scb/cy_scb_common.h **** /* SPI clock modes: CPHA and CPOL */
 502:Generated_Source\PSoC6\pdl\drivers\peripheral\scb/cy_scb_common.h **** #define CY_SCB_SPI_CTRL_CLK_MODE_Pos    SCB_SPI_CTRL_CPHA_Pos
 503:Generated_Source\PSoC6\pdl\drivers\peripheral\scb/cy_scb_common.h **** #define CY_SCB_SPI_CTRL_CLK_MODE_Msk    (SCB_SPI_CTRL_CPHA_Msk | SCB_SPI_CTRL_CPOL_Msk)
 504:Generated_Source\PSoC6\pdl\drivers\peripheral\scb/cy_scb_common.h **** 
 505:Generated_Source\PSoC6\pdl\drivers\peripheral\scb/cy_scb_common.h **** /* UART parity and parity enable combination */
 506:Generated_Source\PSoC6\pdl\drivers\peripheral\scb/cy_scb_common.h **** #define CY_SCB_UART_RX_CTRL_SET_PARITY_Msk      (SCB_UART_RX_CTRL_PARITY_ENABLED_Msk | \
 507:Generated_Source\PSoC6\pdl\drivers\peripheral\scb/cy_scb_common.h ****                                                  SCB_UART_RX_CTRL_PARITY_Msk)
 508:Generated_Source\PSoC6\pdl\drivers\peripheral\scb/cy_scb_common.h **** #define CY_SCB_UART_RX_CTRL_SET_PARITY_Pos      SCB_UART_RX_CTRL_PARITY_Pos
 509:Generated_Source\PSoC6\pdl\drivers\peripheral\scb/cy_scb_common.h **** 
 510:Generated_Source\PSoC6\pdl\drivers\peripheral\scb/cy_scb_common.h **** #define CY_SCB_UART_TX_CTRL_SET_PARITY_Msk      (SCB_UART_TX_CTRL_PARITY_ENABLED_Msk | \
 511:Generated_Source\PSoC6\pdl\drivers\peripheral\scb/cy_scb_common.h ****                                                  SCB_UART_TX_CTRL_PARITY_Msk)
 512:Generated_Source\PSoC6\pdl\drivers\peripheral\scb/cy_scb_common.h **** #define CY_SCB_UART_TX_CTRL_SET_PARITY_Pos      SCB_UART_TX_CTRL_PARITY_Pos
 513:Generated_Source\PSoC6\pdl\drivers\peripheral\scb/cy_scb_common.h **** 
 514:Generated_Source\PSoC6\pdl\drivers\peripheral\scb/cy_scb_common.h **** /* Max number of bits for byte mode */
 515:Generated_Source\PSoC6\pdl\drivers\peripheral\scb/cy_scb_common.h **** #define CY_SCB_BYTE_WIDTH   (8UL)
 516:Generated_Source\PSoC6\pdl\drivers\peripheral\scb/cy_scb_common.h **** 
 517:Generated_Source\PSoC6\pdl\drivers\peripheral\scb/cy_scb_common.h **** /* Single unit to wait */
 518:Generated_Source\PSoC6\pdl\drivers\peripheral\scb/cy_scb_common.h **** #define CY_SCB_WAIT_1_UNIT  (1U)
 519:Generated_Source\PSoC6\pdl\drivers\peripheral\scb/cy_scb_common.h **** 
 520:Generated_Source\PSoC6\pdl\drivers\peripheral\scb/cy_scb_common.h **** /* Clear interrupt sources */
 521:Generated_Source\PSoC6\pdl\drivers\peripheral\scb/cy_scb_common.h **** #define CY_SCB_CLEAR_ALL_INTR_SRC   (0UL)
 522:Generated_Source\PSoC6\pdl\drivers\peripheral\scb/cy_scb_common.h **** 
 523:Generated_Source\PSoC6\pdl\drivers\peripheral\scb/cy_scb_common.h **** /* Hardware FIFO size */
 524:Generated_Source\PSoC6\pdl\drivers\peripheral\scb/cy_scb_common.h **** #define CY_SCB_FIFO_SIZE(base)    (SCB_GET_EZ_DATA_NR(base) / 2UL)
 525:Generated_Source\PSoC6\pdl\drivers\peripheral\scb/cy_scb_common.h **** 
 526:Generated_Source\PSoC6\pdl\drivers\peripheral\scb/cy_scb_common.h **** /* Provides a list of allowed sources */
 527:Generated_Source\PSoC6\pdl\drivers\peripheral\scb/cy_scb_common.h **** #define CY_SCB_TX_INTR_MASK     (CY_SCB_TX_INTR_LEVEL     | CY_SCB_TX_INTR_NOT_FULL  | CY_SCB_TX_IN
 528:Generated_Source\PSoC6\pdl\drivers\peripheral\scb/cy_scb_common.h ****                                  CY_SCB_TX_INTR_OVERFLOW  | CY_SCB_TX_INTR_UNDERFLOW | CY_SCB_TX_IN
 529:Generated_Source\PSoC6\pdl\drivers\peripheral\scb/cy_scb_common.h ****                                  CY_SCB_TX_INTR_UART_NACK | CY_SCB_TX_INTR_UART_ARB_LOST)
 530:Generated_Source\PSoC6\pdl\drivers\peripheral\scb/cy_scb_common.h **** 
 531:Generated_Source\PSoC6\pdl\drivers\peripheral\scb/cy_scb_common.h **** #define CY_SCB_RX_INTR_MASK     (CY_SCB_RX_INTR_LEVEL             | CY_SCB_RX_INTR_NOT_EMPTY | CY_S
 532:Generated_Source\PSoC6\pdl\drivers\peripheral\scb/cy_scb_common.h ****                                  CY_SCB_RX_INTR_OVERFLOW          | CY_SCB_RX_INTR_UNDERFLOW       
 533:Generated_Source\PSoC6\pdl\drivers\peripheral\scb/cy_scb_common.h ****                                  CY_SCB_RX_INTR_UART_FRAME_ERROR  | CY_SCB_RX_INTR_UART_PARITY_ERRO
 534:Generated_Source\PSoC6\pdl\drivers\peripheral\scb/cy_scb_common.h ****                                  CY_SCB_RX_INTR_UART_BREAK_DETECT)
 535:Generated_Source\PSoC6\pdl\drivers\peripheral\scb/cy_scb_common.h **** 
 536:Generated_Source\PSoC6\pdl\drivers\peripheral\scb/cy_scb_common.h **** 
 537:Generated_Source\PSoC6\pdl\drivers\peripheral\scb/cy_scb_common.h **** #define CY_SCB_SLAVE_INTR_MASK  (CY_SCB_SLAVE_INTR_I2C_ARB_LOST   | CY_SCB_SLAVE_INTR_I2C_NACK | CY
 538:Generated_Source\PSoC6\pdl\drivers\peripheral\scb/cy_scb_common.h ****                                  CY_SCB_SLAVE_INTR_I2C_WRITE_STOP | CY_SCB_SLAVE_INTR_I2C_STOP | CY
 539:Generated_Source\PSoC6\pdl\drivers\peripheral\scb/cy_scb_common.h ****                                  CY_SCB_SLAVE_INTR_I2C_ADDR_MATCH | CY_SCB_SLAVE_INTR_I2C_GENERAL_A
 540:Generated_Source\PSoC6\pdl\drivers\peripheral\scb/cy_scb_common.h ****                                  CY_SCB_SLAVE_INTR_I2C_BUS_ERROR  | CY_SCB_SLAVE_INTR_SPI_BUS_ERROR
 541:Generated_Source\PSoC6\pdl\drivers\peripheral\scb/cy_scb_common.h **** 
 542:Generated_Source\PSoC6\pdl\drivers\peripheral\scb/cy_scb_common.h **** #define CY_SCB_MASTER_INTR_MASK (CY_SCB_MASTER_INTR_I2C_ARB_LOST  | CY_SCB_MASTER_INTR_I2C_NACK | \
 543:Generated_Source\PSoC6\pdl\drivers\peripheral\scb/cy_scb_common.h ****                                  CY_SCB_MASTER_INTR_I2C_ACK       | CY_SCB_MASTER_INTR_I2C_STOP | \
ARM GAS  C:\Users\ikomb\AppData\Local\Temp\ccqJLUw6.s 			page 11


 544:Generated_Source\PSoC6\pdl\drivers\peripheral\scb/cy_scb_common.h ****                                  CY_SCB_MASTER_INTR_I2C_BUS_ERROR | CY_SCB_MASTER_INTR_SPI_DONE)
 545:Generated_Source\PSoC6\pdl\drivers\peripheral\scb/cy_scb_common.h **** 
 546:Generated_Source\PSoC6\pdl\drivers\peripheral\scb/cy_scb_common.h **** #define CY_SCB_I2C_INTR_MASK    CY_SCB_I2C_INTR_WAKEUP
 547:Generated_Source\PSoC6\pdl\drivers\peripheral\scb/cy_scb_common.h **** 
 548:Generated_Source\PSoC6\pdl\drivers\peripheral\scb/cy_scb_common.h **** #define CY_SCB_SPI_INTR_MASK    CY_SCB_SPI_INTR_WAKEUP
 549:Generated_Source\PSoC6\pdl\drivers\peripheral\scb/cy_scb_common.h **** 
 550:Generated_Source\PSoC6\pdl\drivers\peripheral\scb/cy_scb_common.h **** #define CY_SCB_IS_INTR_VALID(intr, mask)            ( 0UL == ((intr) & ((uint32_t) ~(mask))) )
 551:Generated_Source\PSoC6\pdl\drivers\peripheral\scb/cy_scb_common.h **** #define CY_SCB_IS_TRIGGER_LEVEL_VALID(base, level)  ((level) < Cy_SCB_GetFifoSize(base))
 552:Generated_Source\PSoC6\pdl\drivers\peripheral\scb/cy_scb_common.h **** 
 553:Generated_Source\PSoC6\pdl\drivers\peripheral\scb/cy_scb_common.h **** #define CY_SCB_IS_I2C_ADDR_VALID(addr)              ( (0U == ((addr) & 0x80U)) )
 554:Generated_Source\PSoC6\pdl\drivers\peripheral\scb/cy_scb_common.h **** #define CY_SCB_IS_BUFFER_VALID(buffer, size)        ( (NULL != (buffer)) && ((size) > 0UL) )
 555:Generated_Source\PSoC6\pdl\drivers\peripheral\scb/cy_scb_common.h **** #define CY_SCB_IS_I2C_BUFFER_VALID(buffer, size)    ( (0UL == (size)) ? true : (NULL != (buffer)) )
 556:Generated_Source\PSoC6\pdl\drivers\peripheral\scb/cy_scb_common.h **** /** \endcond */
 557:Generated_Source\PSoC6\pdl\drivers\peripheral\scb/cy_scb_common.h **** 
 558:Generated_Source\PSoC6\pdl\drivers\peripheral\scb/cy_scb_common.h **** /** \} group_scb_common_macros */
 559:Generated_Source\PSoC6\pdl\drivers\peripheral\scb/cy_scb_common.h **** 
 560:Generated_Source\PSoC6\pdl\drivers\peripheral\scb/cy_scb_common.h **** 
 561:Generated_Source\PSoC6\pdl\drivers\peripheral\scb/cy_scb_common.h **** /***************************************
 562:Generated_Source\PSoC6\pdl\drivers\peripheral\scb/cy_scb_common.h **** * Inline Function Implementation
 563:Generated_Source\PSoC6\pdl\drivers\peripheral\scb/cy_scb_common.h **** ***************************************/
 564:Generated_Source\PSoC6\pdl\drivers\peripheral\scb/cy_scb_common.h **** 
 565:Generated_Source\PSoC6\pdl\drivers\peripheral\scb/cy_scb_common.h **** /**
 566:Generated_Source\PSoC6\pdl\drivers\peripheral\scb/cy_scb_common.h **** * \addtogroup group_scb_common_functions
 567:Generated_Source\PSoC6\pdl\drivers\peripheral\scb/cy_scb_common.h **** * \{
 568:Generated_Source\PSoC6\pdl\drivers\peripheral\scb/cy_scb_common.h **** */
 569:Generated_Source\PSoC6\pdl\drivers\peripheral\scb/cy_scb_common.h **** 
 570:Generated_Source\PSoC6\pdl\drivers\peripheral\scb/cy_scb_common.h **** /*******************************************************************************
 571:Generated_Source\PSoC6\pdl\drivers\peripheral\scb/cy_scb_common.h **** * Function Name: Cy_SCB_ReadRxFifo
 572:Generated_Source\PSoC6\pdl\drivers\peripheral\scb/cy_scb_common.h **** ****************************************************************************//**
 573:Generated_Source\PSoC6\pdl\drivers\peripheral\scb/cy_scb_common.h **** *
 574:Generated_Source\PSoC6\pdl\drivers\peripheral\scb/cy_scb_common.h **** * Reads a data element directly out of the RX FIFO.
 575:Generated_Source\PSoC6\pdl\drivers\peripheral\scb/cy_scb_common.h **** * This function does not check whether the RX FIFO has data before reading it.
 576:Generated_Source\PSoC6\pdl\drivers\peripheral\scb/cy_scb_common.h **** *
 577:Generated_Source\PSoC6\pdl\drivers\peripheral\scb/cy_scb_common.h **** * \param base
 578:Generated_Source\PSoC6\pdl\drivers\peripheral\scb/cy_scb_common.h **** * The pointer to the SCB instance.
 579:Generated_Source\PSoC6\pdl\drivers\peripheral\scb/cy_scb_common.h **** *
 580:Generated_Source\PSoC6\pdl\drivers\peripheral\scb/cy_scb_common.h **** * \return
 581:Generated_Source\PSoC6\pdl\drivers\peripheral\scb/cy_scb_common.h **** * Data from RX FIFO.
 582:Generated_Source\PSoC6\pdl\drivers\peripheral\scb/cy_scb_common.h **** *
 583:Generated_Source\PSoC6\pdl\drivers\peripheral\scb/cy_scb_common.h **** *******************************************************************************/
 584:Generated_Source\PSoC6\pdl\drivers\peripheral\scb/cy_scb_common.h **** __STATIC_INLINE uint32_t Cy_SCB_ReadRxFifo(CySCB_Type const *base)
 585:Generated_Source\PSoC6\pdl\drivers\peripheral\scb/cy_scb_common.h **** {
  28              		.loc 1 585 0
  29              		.cfi_startproc
  30              		@ args = 0, pretend = 0, frame = 8
  31              		@ frame_needed = 1, uses_anonymous_args = 0
  32              		@ link register save eliminated.
  33 0000 80B4     		push	{r7}
  34              		.cfi_def_cfa_offset 4
  35              		.cfi_offset 7, -4
  36 0002 83B0     		sub	sp, sp, #12
  37              		.cfi_def_cfa_offset 16
  38 0004 00AF     		add	r7, sp, #0
  39              		.cfi_def_cfa_register 7
  40 0006 7860     		str	r0, [r7, #4]
 586:Generated_Source\PSoC6\pdl\drivers\peripheral\scb/cy_scb_common.h ****     return (base->RX_FIFO_RD);
  41              		.loc 1 586 0
ARM GAS  C:\Users\ikomb\AppData\Local\Temp\ccqJLUw6.s 			page 12


  42 0008 7B68     		ldr	r3, [r7, #4]
  43 000a D3F84033 		ldr	r3, [r3, #832]
 587:Generated_Source\PSoC6\pdl\drivers\peripheral\scb/cy_scb_common.h **** }
  44              		.loc 1 587 0
  45 000e 1846     		mov	r0, r3
  46 0010 0C37     		adds	r7, r7, #12
  47              		.cfi_def_cfa_offset 4
  48 0012 BD46     		mov	sp, r7
  49              		.cfi_def_cfa_register 13
  50              		@ sp needed
  51 0014 5DF8047B 		ldr	r7, [sp], #4
  52              		.cfi_restore 7
  53              		.cfi_def_cfa_offset 0
  54 0018 7047     		bx	lr
  55              		.cfi_endproc
  56              	.LFE158:
  57              		.size	Cy_SCB_ReadRxFifo, .-Cy_SCB_ReadRxFifo
  58 001a 00BF     		.section	.text.Cy_SCB_GetNumInRxFifo,"ax",%progbits
  59              		.align	2
  60              		.thumb
  61              		.thumb_func
  62              		.type	Cy_SCB_GetNumInRxFifo, %function
  63              	Cy_SCB_GetNumInRxFifo:
  64              	.LFB160:
 588:Generated_Source\PSoC6\pdl\drivers\peripheral\scb/cy_scb_common.h **** 
 589:Generated_Source\PSoC6\pdl\drivers\peripheral\scb/cy_scb_common.h **** /*******************************************************************************
 590:Generated_Source\PSoC6\pdl\drivers\peripheral\scb/cy_scb_common.h **** * Function Name: Cy_SCB_SetRxFifoLevel
 591:Generated_Source\PSoC6\pdl\drivers\peripheral\scb/cy_scb_common.h **** ****************************************************************************//**
 592:Generated_Source\PSoC6\pdl\drivers\peripheral\scb/cy_scb_common.h **** *
 593:Generated_Source\PSoC6\pdl\drivers\peripheral\scb/cy_scb_common.h **** * Sets the RX FIFO level. When there are more data elements in the RX FIFO than
 594:Generated_Source\PSoC6\pdl\drivers\peripheral\scb/cy_scb_common.h **** * this level, the RX FIFO level interrupt is triggered.
 595:Generated_Source\PSoC6\pdl\drivers\peripheral\scb/cy_scb_common.h **** *
 596:Generated_Source\PSoC6\pdl\drivers\peripheral\scb/cy_scb_common.h **** * \param base
 597:Generated_Source\PSoC6\pdl\drivers\peripheral\scb/cy_scb_common.h **** * The pointer to the SCB instance.
 598:Generated_Source\PSoC6\pdl\drivers\peripheral\scb/cy_scb_common.h **** *
 599:Generated_Source\PSoC6\pdl\drivers\peripheral\scb/cy_scb_common.h **** * \param level
 600:Generated_Source\PSoC6\pdl\drivers\peripheral\scb/cy_scb_common.h **** * When there are more data elements in the FIFO than this level, the RX level
 601:Generated_Source\PSoC6\pdl\drivers\peripheral\scb/cy_scb_common.h **** * interrupt is triggered.
 602:Generated_Source\PSoC6\pdl\drivers\peripheral\scb/cy_scb_common.h **** *
 603:Generated_Source\PSoC6\pdl\drivers\peripheral\scb/cy_scb_common.h **** *******************************************************************************/
 604:Generated_Source\PSoC6\pdl\drivers\peripheral\scb/cy_scb_common.h **** __STATIC_INLINE void Cy_SCB_SetRxFifoLevel(CySCB_Type *base, uint32_t level)
 605:Generated_Source\PSoC6\pdl\drivers\peripheral\scb/cy_scb_common.h **** {
 606:Generated_Source\PSoC6\pdl\drivers\peripheral\scb/cy_scb_common.h ****     CY_ASSERT_L2(CY_SCB_IS_TRIGGER_LEVEL_VALID(base, level));
 607:Generated_Source\PSoC6\pdl\drivers\peripheral\scb/cy_scb_common.h **** 
 608:Generated_Source\PSoC6\pdl\drivers\peripheral\scb/cy_scb_common.h ****     base->RX_FIFO_CTRL = _CLR_SET_FLD32U(base->RX_FIFO_CTRL, SCB_RX_FIFO_CTRL_TRIGGER_LEVEL, level)
 609:Generated_Source\PSoC6\pdl\drivers\peripheral\scb/cy_scb_common.h **** }
 610:Generated_Source\PSoC6\pdl\drivers\peripheral\scb/cy_scb_common.h **** 
 611:Generated_Source\PSoC6\pdl\drivers\peripheral\scb/cy_scb_common.h **** 
 612:Generated_Source\PSoC6\pdl\drivers\peripheral\scb/cy_scb_common.h **** /*******************************************************************************
 613:Generated_Source\PSoC6\pdl\drivers\peripheral\scb/cy_scb_common.h **** * Function Name: Cy_SCB_GetNumInRxFifo
 614:Generated_Source\PSoC6\pdl\drivers\peripheral\scb/cy_scb_common.h **** ****************************************************************************//**
 615:Generated_Source\PSoC6\pdl\drivers\peripheral\scb/cy_scb_common.h **** *
 616:Generated_Source\PSoC6\pdl\drivers\peripheral\scb/cy_scb_common.h **** * Returns the number of data elements currently in the RX FIFO.
 617:Generated_Source\PSoC6\pdl\drivers\peripheral\scb/cy_scb_common.h **** *
 618:Generated_Source\PSoC6\pdl\drivers\peripheral\scb/cy_scb_common.h **** * \param base
 619:Generated_Source\PSoC6\pdl\drivers\peripheral\scb/cy_scb_common.h **** * The pointer to the SCB instance.
 620:Generated_Source\PSoC6\pdl\drivers\peripheral\scb/cy_scb_common.h **** *
ARM GAS  C:\Users\ikomb\AppData\Local\Temp\ccqJLUw6.s 			page 13


 621:Generated_Source\PSoC6\pdl\drivers\peripheral\scb/cy_scb_common.h **** * \return
 622:Generated_Source\PSoC6\pdl\drivers\peripheral\scb/cy_scb_common.h **** * The number or data elements in RX FIFO.
 623:Generated_Source\PSoC6\pdl\drivers\peripheral\scb/cy_scb_common.h **** *
 624:Generated_Source\PSoC6\pdl\drivers\peripheral\scb/cy_scb_common.h **** *******************************************************************************/
 625:Generated_Source\PSoC6\pdl\drivers\peripheral\scb/cy_scb_common.h **** __STATIC_INLINE uint32_t Cy_SCB_GetNumInRxFifo(CySCB_Type const *base)
 626:Generated_Source\PSoC6\pdl\drivers\peripheral\scb/cy_scb_common.h **** {
  65              		.loc 1 626 0
  66              		.cfi_startproc
  67              		@ args = 0, pretend = 0, frame = 8
  68              		@ frame_needed = 1, uses_anonymous_args = 0
  69              		@ link register save eliminated.
  70 0000 80B4     		push	{r7}
  71              		.cfi_def_cfa_offset 4
  72              		.cfi_offset 7, -4
  73 0002 83B0     		sub	sp, sp, #12
  74              		.cfi_def_cfa_offset 16
  75 0004 00AF     		add	r7, sp, #0
  76              		.cfi_def_cfa_register 7
  77 0006 7860     		str	r0, [r7, #4]
 627:Generated_Source\PSoC6\pdl\drivers\peripheral\scb/cy_scb_common.h ****     return _FLD2VAL(SCB_RX_FIFO_STATUS_USED, base->RX_FIFO_STATUS);
  78              		.loc 1 627 0
  79 0008 7B68     		ldr	r3, [r7, #4]
  80 000a D3F80833 		ldr	r3, [r3, #776]
  81 000e C3F30803 		ubfx	r3, r3, #0, #9
 628:Generated_Source\PSoC6\pdl\drivers\peripheral\scb/cy_scb_common.h **** }
  82              		.loc 1 628 0
  83 0012 1846     		mov	r0, r3
  84 0014 0C37     		adds	r7, r7, #12
  85              		.cfi_def_cfa_offset 4
  86 0016 BD46     		mov	sp, r7
  87              		.cfi_def_cfa_register 13
  88              		@ sp needed
  89 0018 5DF8047B 		ldr	r7, [sp], #4
  90              		.cfi_restore 7
  91              		.cfi_def_cfa_offset 0
  92 001c 7047     		bx	lr
  93              		.cfi_endproc
  94              	.LFE160:
  95              		.size	Cy_SCB_GetNumInRxFifo, .-Cy_SCB_GetNumInRxFifo
  96 001e 00BF     		.section	.text.Cy_SCB_WriteTxFifo,"ax",%progbits
  97              		.align	2
  98              		.thumb
  99              		.thumb_func
 100              		.type	Cy_SCB_WriteTxFifo, %function
 101              	Cy_SCB_WriteTxFifo:
 102              	.LFB163:
 629:Generated_Source\PSoC6\pdl\drivers\peripheral\scb/cy_scb_common.h **** 
 630:Generated_Source\PSoC6\pdl\drivers\peripheral\scb/cy_scb_common.h **** 
 631:Generated_Source\PSoC6\pdl\drivers\peripheral\scb/cy_scb_common.h **** /*******************************************************************************
 632:Generated_Source\PSoC6\pdl\drivers\peripheral\scb/cy_scb_common.h **** * Function Name: Cy_SCB_GetRxSrValid
 633:Generated_Source\PSoC6\pdl\drivers\peripheral\scb/cy_scb_common.h **** ****************************************************************************//**
 634:Generated_Source\PSoC6\pdl\drivers\peripheral\scb/cy_scb_common.h **** *
 635:Generated_Source\PSoC6\pdl\drivers\peripheral\scb/cy_scb_common.h **** * Returns the status of the RX FIFO Shift Register valid bit.
 636:Generated_Source\PSoC6\pdl\drivers\peripheral\scb/cy_scb_common.h **** *
 637:Generated_Source\PSoC6\pdl\drivers\peripheral\scb/cy_scb_common.h **** * \param base
 638:Generated_Source\PSoC6\pdl\drivers\peripheral\scb/cy_scb_common.h **** * The pointer to the SCB instance.
 639:Generated_Source\PSoC6\pdl\drivers\peripheral\scb/cy_scb_common.h **** *
ARM GAS  C:\Users\ikomb\AppData\Local\Temp\ccqJLUw6.s 			page 14


 640:Generated_Source\PSoC6\pdl\drivers\peripheral\scb/cy_scb_common.h **** * \return
 641:Generated_Source\PSoC6\pdl\drivers\peripheral\scb/cy_scb_common.h **** * 1 - RX shift register valid; 0 - RX shift register not valid.
 642:Generated_Source\PSoC6\pdl\drivers\peripheral\scb/cy_scb_common.h **** *
 643:Generated_Source\PSoC6\pdl\drivers\peripheral\scb/cy_scb_common.h **** *******************************************************************************/
 644:Generated_Source\PSoC6\pdl\drivers\peripheral\scb/cy_scb_common.h **** __STATIC_INLINE uint32_t Cy_SCB_GetRxSrValid(CySCB_Type const *base)
 645:Generated_Source\PSoC6\pdl\drivers\peripheral\scb/cy_scb_common.h **** {
 646:Generated_Source\PSoC6\pdl\drivers\peripheral\scb/cy_scb_common.h ****     return _FLD2VAL(SCB_RX_FIFO_STATUS_SR_VALID, base->RX_FIFO_STATUS);
 647:Generated_Source\PSoC6\pdl\drivers\peripheral\scb/cy_scb_common.h **** }
 648:Generated_Source\PSoC6\pdl\drivers\peripheral\scb/cy_scb_common.h **** 
 649:Generated_Source\PSoC6\pdl\drivers\peripheral\scb/cy_scb_common.h **** 
 650:Generated_Source\PSoC6\pdl\drivers\peripheral\scb/cy_scb_common.h **** /*******************************************************************************
 651:Generated_Source\PSoC6\pdl\drivers\peripheral\scb/cy_scb_common.h **** * Function Name: Cy_SCB_ClearRxFifo
 652:Generated_Source\PSoC6\pdl\drivers\peripheral\scb/cy_scb_common.h **** ****************************************************************************//**
 653:Generated_Source\PSoC6\pdl\drivers\peripheral\scb/cy_scb_common.h **** *
 654:Generated_Source\PSoC6\pdl\drivers\peripheral\scb/cy_scb_common.h **** * Clears the RX FIFO and shifter.
 655:Generated_Source\PSoC6\pdl\drivers\peripheral\scb/cy_scb_common.h **** *
 656:Generated_Source\PSoC6\pdl\drivers\peripheral\scb/cy_scb_common.h **** * \param base
 657:Generated_Source\PSoC6\pdl\drivers\peripheral\scb/cy_scb_common.h **** * The pointer to the SCB instance.
 658:Generated_Source\PSoC6\pdl\drivers\peripheral\scb/cy_scb_common.h **** *
 659:Generated_Source\PSoC6\pdl\drivers\peripheral\scb/cy_scb_common.h **** * \note
 660:Generated_Source\PSoC6\pdl\drivers\peripheral\scb/cy_scb_common.h **** * If there is partial data in the shifter, it is cleared and lost.
 661:Generated_Source\PSoC6\pdl\drivers\peripheral\scb/cy_scb_common.h **** *
 662:Generated_Source\PSoC6\pdl\drivers\peripheral\scb/cy_scb_common.h **** *******************************************************************************/
 663:Generated_Source\PSoC6\pdl\drivers\peripheral\scb/cy_scb_common.h **** __STATIC_INLINE void Cy_SCB_ClearRxFifo(CySCB_Type* base)
 664:Generated_Source\PSoC6\pdl\drivers\peripheral\scb/cy_scb_common.h **** {
 665:Generated_Source\PSoC6\pdl\drivers\peripheral\scb/cy_scb_common.h ****     base->RX_FIFO_CTRL |= (uint32_t)  SCB_RX_FIFO_CTRL_CLEAR_Msk;
 666:Generated_Source\PSoC6\pdl\drivers\peripheral\scb/cy_scb_common.h ****     base->RX_FIFO_CTRL &= (uint32_t) ~SCB_RX_FIFO_CTRL_CLEAR_Msk;
 667:Generated_Source\PSoC6\pdl\drivers\peripheral\scb/cy_scb_common.h **** 
 668:Generated_Source\PSoC6\pdl\drivers\peripheral\scb/cy_scb_common.h ****     (void) base->RX_FIFO_CTRL;
 669:Generated_Source\PSoC6\pdl\drivers\peripheral\scb/cy_scb_common.h **** }
 670:Generated_Source\PSoC6\pdl\drivers\peripheral\scb/cy_scb_common.h **** 
 671:Generated_Source\PSoC6\pdl\drivers\peripheral\scb/cy_scb_common.h **** 
 672:Generated_Source\PSoC6\pdl\drivers\peripheral\scb/cy_scb_common.h **** /*******************************************************************************
 673:Generated_Source\PSoC6\pdl\drivers\peripheral\scb/cy_scb_common.h **** * Function Name: Cy_SCB_WriteTxFifo
 674:Generated_Source\PSoC6\pdl\drivers\peripheral\scb/cy_scb_common.h **** ****************************************************************************//**
 675:Generated_Source\PSoC6\pdl\drivers\peripheral\scb/cy_scb_common.h **** *
 676:Generated_Source\PSoC6\pdl\drivers\peripheral\scb/cy_scb_common.h **** * Writes data directly into the TX FIFO.
 677:Generated_Source\PSoC6\pdl\drivers\peripheral\scb/cy_scb_common.h **** * This function does not check whether the TX FIFO is not full before writing
 678:Generated_Source\PSoC6\pdl\drivers\peripheral\scb/cy_scb_common.h **** * into it.
 679:Generated_Source\PSoC6\pdl\drivers\peripheral\scb/cy_scb_common.h **** *
 680:Generated_Source\PSoC6\pdl\drivers\peripheral\scb/cy_scb_common.h **** * \param base
 681:Generated_Source\PSoC6\pdl\drivers\peripheral\scb/cy_scb_common.h **** * The pointer to the SCB instance.
 682:Generated_Source\PSoC6\pdl\drivers\peripheral\scb/cy_scb_common.h **** *
 683:Generated_Source\PSoC6\pdl\drivers\peripheral\scb/cy_scb_common.h **** * \param data
 684:Generated_Source\PSoC6\pdl\drivers\peripheral\scb/cy_scb_common.h **** * Data to write to the TX FIFO.
 685:Generated_Source\PSoC6\pdl\drivers\peripheral\scb/cy_scb_common.h **** *
 686:Generated_Source\PSoC6\pdl\drivers\peripheral\scb/cy_scb_common.h **** *******************************************************************************/
 687:Generated_Source\PSoC6\pdl\drivers\peripheral\scb/cy_scb_common.h **** __STATIC_INLINE void Cy_SCB_WriteTxFifo(CySCB_Type* base, uint32_t data)
 688:Generated_Source\PSoC6\pdl\drivers\peripheral\scb/cy_scb_common.h **** {
 103              		.loc 1 688 0
 104              		.cfi_startproc
 105              		@ args = 0, pretend = 0, frame = 8
 106              		@ frame_needed = 1, uses_anonymous_args = 0
 107              		@ link register save eliminated.
 108 0000 80B4     		push	{r7}
 109              		.cfi_def_cfa_offset 4
 110              		.cfi_offset 7, -4
ARM GAS  C:\Users\ikomb\AppData\Local\Temp\ccqJLUw6.s 			page 15


 111 0002 83B0     		sub	sp, sp, #12
 112              		.cfi_def_cfa_offset 16
 113 0004 00AF     		add	r7, sp, #0
 114              		.cfi_def_cfa_register 7
 115 0006 7860     		str	r0, [r7, #4]
 116 0008 3960     		str	r1, [r7]
 689:Generated_Source\PSoC6\pdl\drivers\peripheral\scb/cy_scb_common.h ****     base->TX_FIFO_WR = data;
 117              		.loc 1 689 0
 118 000a 7B68     		ldr	r3, [r7, #4]
 119 000c 3A68     		ldr	r2, [r7]
 120 000e C3F84022 		str	r2, [r3, #576]
 690:Generated_Source\PSoC6\pdl\drivers\peripheral\scb/cy_scb_common.h **** }
 121              		.loc 1 690 0
 122 0012 00BF     		nop
 123 0014 0C37     		adds	r7, r7, #12
 124              		.cfi_def_cfa_offset 4
 125 0016 BD46     		mov	sp, r7
 126              		.cfi_def_cfa_register 13
 127              		@ sp needed
 128 0018 5DF8047B 		ldr	r7, [sp], #4
 129              		.cfi_restore 7
 130              		.cfi_def_cfa_offset 0
 131 001c 7047     		bx	lr
 132              		.cfi_endproc
 133              	.LFE163:
 134              		.size	Cy_SCB_WriteTxFifo, .-Cy_SCB_WriteTxFifo
 135 001e 00BF     		.section	.text.Cy_SCB_GetNumInTxFifo,"ax",%progbits
 136              		.align	2
 137              		.thumb
 138              		.thumb_func
 139              		.type	Cy_SCB_GetNumInTxFifo, %function
 140              	Cy_SCB_GetNumInTxFifo:
 141              	.LFB165:
 691:Generated_Source\PSoC6\pdl\drivers\peripheral\scb/cy_scb_common.h **** 
 692:Generated_Source\PSoC6\pdl\drivers\peripheral\scb/cy_scb_common.h **** 
 693:Generated_Source\PSoC6\pdl\drivers\peripheral\scb/cy_scb_common.h **** /*******************************************************************************
 694:Generated_Source\PSoC6\pdl\drivers\peripheral\scb/cy_scb_common.h **** * Function Name: Cy_SCB_SetTxFifoLevel
 695:Generated_Source\PSoC6\pdl\drivers\peripheral\scb/cy_scb_common.h **** ****************************************************************************//**
 696:Generated_Source\PSoC6\pdl\drivers\peripheral\scb/cy_scb_common.h **** *
 697:Generated_Source\PSoC6\pdl\drivers\peripheral\scb/cy_scb_common.h **** * Sets the TX FIFO level. When there are fewer data elements in the TX FIFO than
 698:Generated_Source\PSoC6\pdl\drivers\peripheral\scb/cy_scb_common.h **** * this level, the TX FIFO level interrupt is triggered.
 699:Generated_Source\PSoC6\pdl\drivers\peripheral\scb/cy_scb_common.h **** *
 700:Generated_Source\PSoC6\pdl\drivers\peripheral\scb/cy_scb_common.h **** * \param base
 701:Generated_Source\PSoC6\pdl\drivers\peripheral\scb/cy_scb_common.h **** * The pointer to the SCB instance.
 702:Generated_Source\PSoC6\pdl\drivers\peripheral\scb/cy_scb_common.h **** *
 703:Generated_Source\PSoC6\pdl\drivers\peripheral\scb/cy_scb_common.h **** * \param level
 704:Generated_Source\PSoC6\pdl\drivers\peripheral\scb/cy_scb_common.h **** * When there are fewer data elements in the FIFO than this level, the TX level
 705:Generated_Source\PSoC6\pdl\drivers\peripheral\scb/cy_scb_common.h **** * interrupt is triggered.
 706:Generated_Source\PSoC6\pdl\drivers\peripheral\scb/cy_scb_common.h **** *
 707:Generated_Source\PSoC6\pdl\drivers\peripheral\scb/cy_scb_common.h **** *******************************************************************************/
 708:Generated_Source\PSoC6\pdl\drivers\peripheral\scb/cy_scb_common.h **** __STATIC_INLINE void Cy_SCB_SetTxFifoLevel(CySCB_Type *base, uint32_t level)
 709:Generated_Source\PSoC6\pdl\drivers\peripheral\scb/cy_scb_common.h **** {
 710:Generated_Source\PSoC6\pdl\drivers\peripheral\scb/cy_scb_common.h ****     CY_ASSERT_L2(CY_SCB_IS_TRIGGER_LEVEL_VALID(base, level));
 711:Generated_Source\PSoC6\pdl\drivers\peripheral\scb/cy_scb_common.h **** 
 712:Generated_Source\PSoC6\pdl\drivers\peripheral\scb/cy_scb_common.h ****     base->TX_FIFO_CTRL = _CLR_SET_FLD32U(base->TX_FIFO_CTRL, SCB_TX_FIFO_CTRL_TRIGGER_LEVEL, level)
 713:Generated_Source\PSoC6\pdl\drivers\peripheral\scb/cy_scb_common.h **** }
 714:Generated_Source\PSoC6\pdl\drivers\peripheral\scb/cy_scb_common.h **** 
ARM GAS  C:\Users\ikomb\AppData\Local\Temp\ccqJLUw6.s 			page 16


 715:Generated_Source\PSoC6\pdl\drivers\peripheral\scb/cy_scb_common.h **** 
 716:Generated_Source\PSoC6\pdl\drivers\peripheral\scb/cy_scb_common.h **** /*******************************************************************************
 717:Generated_Source\PSoC6\pdl\drivers\peripheral\scb/cy_scb_common.h **** * Function Name: Cy_SCB_GetNumInTxFifo
 718:Generated_Source\PSoC6\pdl\drivers\peripheral\scb/cy_scb_common.h **** ****************************************************************************//**
 719:Generated_Source\PSoC6\pdl\drivers\peripheral\scb/cy_scb_common.h **** *
 720:Generated_Source\PSoC6\pdl\drivers\peripheral\scb/cy_scb_common.h **** * Returns the number of data elements currently in the TX FIFO.
 721:Generated_Source\PSoC6\pdl\drivers\peripheral\scb/cy_scb_common.h **** *
 722:Generated_Source\PSoC6\pdl\drivers\peripheral\scb/cy_scb_common.h **** * \param base
 723:Generated_Source\PSoC6\pdl\drivers\peripheral\scb/cy_scb_common.h **** * The pointer to the SCB instance.
 724:Generated_Source\PSoC6\pdl\drivers\peripheral\scb/cy_scb_common.h **** *
 725:Generated_Source\PSoC6\pdl\drivers\peripheral\scb/cy_scb_common.h **** * \return
 726:Generated_Source\PSoC6\pdl\drivers\peripheral\scb/cy_scb_common.h **** * The number or data elements in the TX FIFO.
 727:Generated_Source\PSoC6\pdl\drivers\peripheral\scb/cy_scb_common.h **** *
 728:Generated_Source\PSoC6\pdl\drivers\peripheral\scb/cy_scb_common.h **** *******************************************************************************/
 729:Generated_Source\PSoC6\pdl\drivers\peripheral\scb/cy_scb_common.h **** __STATIC_INLINE uint32_t Cy_SCB_GetNumInTxFifo(CySCB_Type const *base)
 730:Generated_Source\PSoC6\pdl\drivers\peripheral\scb/cy_scb_common.h **** {
 142              		.loc 1 730 0
 143              		.cfi_startproc
 144              		@ args = 0, pretend = 0, frame = 8
 145              		@ frame_needed = 1, uses_anonymous_args = 0
 146              		@ link register save eliminated.
 147 0000 80B4     		push	{r7}
 148              		.cfi_def_cfa_offset 4
 149              		.cfi_offset 7, -4
 150 0002 83B0     		sub	sp, sp, #12
 151              		.cfi_def_cfa_offset 16
 152 0004 00AF     		add	r7, sp, #0
 153              		.cfi_def_cfa_register 7
 154 0006 7860     		str	r0, [r7, #4]
 731:Generated_Source\PSoC6\pdl\drivers\peripheral\scb/cy_scb_common.h ****     return _FLD2VAL(SCB_TX_FIFO_STATUS_USED, base->TX_FIFO_STATUS);
 155              		.loc 1 731 0
 156 0008 7B68     		ldr	r3, [r7, #4]
 157 000a D3F80832 		ldr	r3, [r3, #520]
 158 000e C3F30803 		ubfx	r3, r3, #0, #9
 732:Generated_Source\PSoC6\pdl\drivers\peripheral\scb/cy_scb_common.h **** }
 159              		.loc 1 732 0
 160 0012 1846     		mov	r0, r3
 161 0014 0C37     		adds	r7, r7, #12
 162              		.cfi_def_cfa_offset 4
 163 0016 BD46     		mov	sp, r7
 164              		.cfi_def_cfa_register 13
 165              		@ sp needed
 166 0018 5DF8047B 		ldr	r7, [sp], #4
 167              		.cfi_restore 7
 168              		.cfi_def_cfa_offset 0
 169 001c 7047     		bx	lr
 170              		.cfi_endproc
 171              	.LFE165:
 172              		.size	Cy_SCB_GetNumInTxFifo, .-Cy_SCB_GetNumInTxFifo
 173 001e 00BF     		.section	.text.Cy_SCB_GetFifoSize,"ax",%progbits
 174              		.align	2
 175              		.thumb
 176              		.thumb_func
 177              		.type	Cy_SCB_GetFifoSize, %function
 178              	Cy_SCB_GetFifoSize:
 179              	.LFB205:
 733:Generated_Source\PSoC6\pdl\drivers\peripheral\scb/cy_scb_common.h **** 
ARM GAS  C:\Users\ikomb\AppData\Local\Temp\ccqJLUw6.s 			page 17


 734:Generated_Source\PSoC6\pdl\drivers\peripheral\scb/cy_scb_common.h **** 
 735:Generated_Source\PSoC6\pdl\drivers\peripheral\scb/cy_scb_common.h **** /*******************************************************************************
 736:Generated_Source\PSoC6\pdl\drivers\peripheral\scb/cy_scb_common.h **** * Function Name: Cy_SCB_GetTxSrValid
 737:Generated_Source\PSoC6\pdl\drivers\peripheral\scb/cy_scb_common.h **** ****************************************************************************//**
 738:Generated_Source\PSoC6\pdl\drivers\peripheral\scb/cy_scb_common.h **** *
 739:Generated_Source\PSoC6\pdl\drivers\peripheral\scb/cy_scb_common.h **** * Returns the status of the TX FIFO Shift Register valid bit.
 740:Generated_Source\PSoC6\pdl\drivers\peripheral\scb/cy_scb_common.h **** *
 741:Generated_Source\PSoC6\pdl\drivers\peripheral\scb/cy_scb_common.h **** * \param base
 742:Generated_Source\PSoC6\pdl\drivers\peripheral\scb/cy_scb_common.h **** * The pointer to the SCB instance.
 743:Generated_Source\PSoC6\pdl\drivers\peripheral\scb/cy_scb_common.h **** *
 744:Generated_Source\PSoC6\pdl\drivers\peripheral\scb/cy_scb_common.h **** * \return
 745:Generated_Source\PSoC6\pdl\drivers\peripheral\scb/cy_scb_common.h **** * 1 - TX shift register valid; 0 - TX shift register not valid.
 746:Generated_Source\PSoC6\pdl\drivers\peripheral\scb/cy_scb_common.h **** *
 747:Generated_Source\PSoC6\pdl\drivers\peripheral\scb/cy_scb_common.h **** *******************************************************************************/
 748:Generated_Source\PSoC6\pdl\drivers\peripheral\scb/cy_scb_common.h **** __STATIC_INLINE uint32_t Cy_SCB_GetTxSrValid(CySCB_Type const *base)
 749:Generated_Source\PSoC6\pdl\drivers\peripheral\scb/cy_scb_common.h **** {
 750:Generated_Source\PSoC6\pdl\drivers\peripheral\scb/cy_scb_common.h ****     return _FLD2VAL(SCB_TX_FIFO_STATUS_SR_VALID, base->TX_FIFO_STATUS);
 751:Generated_Source\PSoC6\pdl\drivers\peripheral\scb/cy_scb_common.h **** }
 752:Generated_Source\PSoC6\pdl\drivers\peripheral\scb/cy_scb_common.h **** 
 753:Generated_Source\PSoC6\pdl\drivers\peripheral\scb/cy_scb_common.h **** 
 754:Generated_Source\PSoC6\pdl\drivers\peripheral\scb/cy_scb_common.h **** /*******************************************************************************
 755:Generated_Source\PSoC6\pdl\drivers\peripheral\scb/cy_scb_common.h **** * Function Name: Cy_SCB_IsTxComplete
 756:Generated_Source\PSoC6\pdl\drivers\peripheral\scb/cy_scb_common.h **** ****************************************************************************//**
 757:Generated_Source\PSoC6\pdl\drivers\peripheral\scb/cy_scb_common.h **** *
 758:Generated_Source\PSoC6\pdl\drivers\peripheral\scb/cy_scb_common.h **** * Checks whether the TX FIFO and Shifter are empty and there is no more data to send.
 759:Generated_Source\PSoC6\pdl\drivers\peripheral\scb/cy_scb_common.h **** *
 760:Generated_Source\PSoC6\pdl\drivers\peripheral\scb/cy_scb_common.h **** * \param base
 761:Generated_Source\PSoC6\pdl\drivers\peripheral\scb/cy_scb_common.h **** * Pointer to SPI the SCB instance.
 762:Generated_Source\PSoC6\pdl\drivers\peripheral\scb/cy_scb_common.h **** *
 763:Generated_Source\PSoC6\pdl\drivers\peripheral\scb/cy_scb_common.h **** * \return
 764:Generated_Source\PSoC6\pdl\drivers\peripheral\scb/cy_scb_common.h **** * If true, transmission complete. If false, transmission is not complete.
 765:Generated_Source\PSoC6\pdl\drivers\peripheral\scb/cy_scb_common.h **** *
 766:Generated_Source\PSoC6\pdl\drivers\peripheral\scb/cy_scb_common.h **** *******************************************************************************/
 767:Generated_Source\PSoC6\pdl\drivers\peripheral\scb/cy_scb_common.h **** __STATIC_INLINE bool Cy_SCB_IsTxComplete(CySCB_Type const *base)
 768:Generated_Source\PSoC6\pdl\drivers\peripheral\scb/cy_scb_common.h **** {
 769:Generated_Source\PSoC6\pdl\drivers\peripheral\scb/cy_scb_common.h ****      return (0UL == (Cy_SCB_GetNumInTxFifo(base) + Cy_SCB_GetTxSrValid(base)));
 770:Generated_Source\PSoC6\pdl\drivers\peripheral\scb/cy_scb_common.h **** }
 771:Generated_Source\PSoC6\pdl\drivers\peripheral\scb/cy_scb_common.h **** 
 772:Generated_Source\PSoC6\pdl\drivers\peripheral\scb/cy_scb_common.h **** 
 773:Generated_Source\PSoC6\pdl\drivers\peripheral\scb/cy_scb_common.h **** /*******************************************************************************
 774:Generated_Source\PSoC6\pdl\drivers\peripheral\scb/cy_scb_common.h **** * Function Name: Cy_SCB_ClearTxFifo
 775:Generated_Source\PSoC6\pdl\drivers\peripheral\scb/cy_scb_common.h **** ****************************************************************************//**
 776:Generated_Source\PSoC6\pdl\drivers\peripheral\scb/cy_scb_common.h **** *
 777:Generated_Source\PSoC6\pdl\drivers\peripheral\scb/cy_scb_common.h **** * Clears the TX FIFO.
 778:Generated_Source\PSoC6\pdl\drivers\peripheral\scb/cy_scb_common.h **** *
 779:Generated_Source\PSoC6\pdl\drivers\peripheral\scb/cy_scb_common.h **** * \param base
 780:Generated_Source\PSoC6\pdl\drivers\peripheral\scb/cy_scb_common.h **** * The pointer to the SCB instance.
 781:Generated_Source\PSoC6\pdl\drivers\peripheral\scb/cy_scb_common.h **** *
 782:Generated_Source\PSoC6\pdl\drivers\peripheral\scb/cy_scb_common.h **** * \note
 783:Generated_Source\PSoC6\pdl\drivers\peripheral\scb/cy_scb_common.h **** * The TX FIFO clear operation also clears the shift register. Thus the shifter
 784:Generated_Source\PSoC6\pdl\drivers\peripheral\scb/cy_scb_common.h **** * could be cleared in the middle of a data element transfer. Thia results in
 785:Generated_Source\PSoC6\pdl\drivers\peripheral\scb/cy_scb_common.h **** * "ones" being sent on the bus for the remainder of the transfer.
 786:Generated_Source\PSoC6\pdl\drivers\peripheral\scb/cy_scb_common.h **** *
 787:Generated_Source\PSoC6\pdl\drivers\peripheral\scb/cy_scb_common.h **** *******************************************************************************/
 788:Generated_Source\PSoC6\pdl\drivers\peripheral\scb/cy_scb_common.h **** __STATIC_INLINE void Cy_SCB_ClearTxFifo(CySCB_Type *base)
 789:Generated_Source\PSoC6\pdl\drivers\peripheral\scb/cy_scb_common.h **** {
 790:Generated_Source\PSoC6\pdl\drivers\peripheral\scb/cy_scb_common.h ****     base->TX_FIFO_CTRL |= (uint32_t)  SCB_TX_FIFO_CTRL_CLEAR_Msk;
ARM GAS  C:\Users\ikomb\AppData\Local\Temp\ccqJLUw6.s 			page 18


 791:Generated_Source\PSoC6\pdl\drivers\peripheral\scb/cy_scb_common.h ****     base->TX_FIFO_CTRL &= (uint32_t) ~SCB_TX_FIFO_CTRL_CLEAR_Msk;
 792:Generated_Source\PSoC6\pdl\drivers\peripheral\scb/cy_scb_common.h **** 
 793:Generated_Source\PSoC6\pdl\drivers\peripheral\scb/cy_scb_common.h ****     (void) base->TX_FIFO_CTRL;
 794:Generated_Source\PSoC6\pdl\drivers\peripheral\scb/cy_scb_common.h **** }
 795:Generated_Source\PSoC6\pdl\drivers\peripheral\scb/cy_scb_common.h **** 
 796:Generated_Source\PSoC6\pdl\drivers\peripheral\scb/cy_scb_common.h **** 
 797:Generated_Source\PSoC6\pdl\drivers\peripheral\scb/cy_scb_common.h **** /*******************************************************************************
 798:Generated_Source\PSoC6\pdl\drivers\peripheral\scb/cy_scb_common.h **** * Function Name: Cy_SCB_SetByteMode
 799:Generated_Source\PSoC6\pdl\drivers\peripheral\scb/cy_scb_common.h **** ****************************************************************************//**
 800:Generated_Source\PSoC6\pdl\drivers\peripheral\scb/cy_scb_common.h **** *
 801:Generated_Source\PSoC6\pdl\drivers\peripheral\scb/cy_scb_common.h **** * Sets whether the RX and TX FIFOs are in byte mode.
 802:Generated_Source\PSoC6\pdl\drivers\peripheral\scb/cy_scb_common.h **** * The FIFOs are either 16-bit wide or 8-bit wide (byte mode).
 803:Generated_Source\PSoC6\pdl\drivers\peripheral\scb/cy_scb_common.h **** * When the FIFO is in byte mode it is twice as deep. See the device datasheet
 804:Generated_Source\PSoC6\pdl\drivers\peripheral\scb/cy_scb_common.h **** * for FIFO depths.
 805:Generated_Source\PSoC6\pdl\drivers\peripheral\scb/cy_scb_common.h **** *
 806:Generated_Source\PSoC6\pdl\drivers\peripheral\scb/cy_scb_common.h **** * \param base
 807:Generated_Source\PSoC6\pdl\drivers\peripheral\scb/cy_scb_common.h **** * The pointer to the SCB instance.
 808:Generated_Source\PSoC6\pdl\drivers\peripheral\scb/cy_scb_common.h **** *
 809:Generated_Source\PSoC6\pdl\drivers\peripheral\scb/cy_scb_common.h **** * \param byteMode
 810:Generated_Source\PSoC6\pdl\drivers\peripheral\scb/cy_scb_common.h **** * If true, TX and RX FIFOs are 8-bit wide. If false, the FIFOs are 16-bit wide.
 811:Generated_Source\PSoC6\pdl\drivers\peripheral\scb/cy_scb_common.h **** *
 812:Generated_Source\PSoC6\pdl\drivers\peripheral\scb/cy_scb_common.h **** *******************************************************************************/
 813:Generated_Source\PSoC6\pdl\drivers\peripheral\scb/cy_scb_common.h **** __STATIC_INLINE void Cy_SCB_SetByteMode(CySCB_Type *base, bool byteMode)
 814:Generated_Source\PSoC6\pdl\drivers\peripheral\scb/cy_scb_common.h **** {
 815:Generated_Source\PSoC6\pdl\drivers\peripheral\scb/cy_scb_common.h ****     if (byteMode)
 816:Generated_Source\PSoC6\pdl\drivers\peripheral\scb/cy_scb_common.h ****     {
 817:Generated_Source\PSoC6\pdl\drivers\peripheral\scb/cy_scb_common.h ****         base->CTRL |=  SCB_CTRL_BYTE_MODE_Msk;
 818:Generated_Source\PSoC6\pdl\drivers\peripheral\scb/cy_scb_common.h ****     }
 819:Generated_Source\PSoC6\pdl\drivers\peripheral\scb/cy_scb_common.h ****     else
 820:Generated_Source\PSoC6\pdl\drivers\peripheral\scb/cy_scb_common.h ****     {
 821:Generated_Source\PSoC6\pdl\drivers\peripheral\scb/cy_scb_common.h ****         base->CTRL &= ~SCB_CTRL_BYTE_MODE_Msk;
 822:Generated_Source\PSoC6\pdl\drivers\peripheral\scb/cy_scb_common.h ****     }
 823:Generated_Source\PSoC6\pdl\drivers\peripheral\scb/cy_scb_common.h **** }
 824:Generated_Source\PSoC6\pdl\drivers\peripheral\scb/cy_scb_common.h **** 
 825:Generated_Source\PSoC6\pdl\drivers\peripheral\scb/cy_scb_common.h **** 
 826:Generated_Source\PSoC6\pdl\drivers\peripheral\scb/cy_scb_common.h **** /*******************************************************************************
 827:Generated_Source\PSoC6\pdl\drivers\peripheral\scb/cy_scb_common.h **** * Function Name: Cy_SCB_GetInterruptCause
 828:Generated_Source\PSoC6\pdl\drivers\peripheral\scb/cy_scb_common.h **** ****************************************************************************//**
 829:Generated_Source\PSoC6\pdl\drivers\peripheral\scb/cy_scb_common.h **** *
 830:Generated_Source\PSoC6\pdl\drivers\peripheral\scb/cy_scb_common.h **** * Returns the mask of bits showing the source of the current triggered
 831:Generated_Source\PSoC6\pdl\drivers\peripheral\scb/cy_scb_common.h **** * interrupt. This is useful for modes of operation where an interrupt can
 832:Generated_Source\PSoC6\pdl\drivers\peripheral\scb/cy_scb_common.h **** * be generated by conditions in multiple interrupt source registers.
 833:Generated_Source\PSoC6\pdl\drivers\peripheral\scb/cy_scb_common.h **** *
 834:Generated_Source\PSoC6\pdl\drivers\peripheral\scb/cy_scb_common.h **** * \param base
 835:Generated_Source\PSoC6\pdl\drivers\peripheral\scb/cy_scb_common.h **** * The pointer to the SCB instance.
 836:Generated_Source\PSoC6\pdl\drivers\peripheral\scb/cy_scb_common.h **** *
 837:Generated_Source\PSoC6\pdl\drivers\peripheral\scb/cy_scb_common.h **** * \return
 838:Generated_Source\PSoC6\pdl\drivers\peripheral\scb/cy_scb_common.h **** * The mask with the OR of the following conditions that have been triggered.
 839:Generated_Source\PSoC6\pdl\drivers\peripheral\scb/cy_scb_common.h **** * See \ref group_scb_common_macros_intr_cause for the set of constants.
 840:Generated_Source\PSoC6\pdl\drivers\peripheral\scb/cy_scb_common.h **** *
 841:Generated_Source\PSoC6\pdl\drivers\peripheral\scb/cy_scb_common.h **** *******************************************************************************/
 842:Generated_Source\PSoC6\pdl\drivers\peripheral\scb/cy_scb_common.h **** __STATIC_INLINE uint32_t Cy_SCB_GetInterruptCause(CySCB_Type const *base)
 843:Generated_Source\PSoC6\pdl\drivers\peripheral\scb/cy_scb_common.h **** {
 844:Generated_Source\PSoC6\pdl\drivers\peripheral\scb/cy_scb_common.h ****     return (base->INTR_CAUSE);
 845:Generated_Source\PSoC6\pdl\drivers\peripheral\scb/cy_scb_common.h **** }
 846:Generated_Source\PSoC6\pdl\drivers\peripheral\scb/cy_scb_common.h **** 
 847:Generated_Source\PSoC6\pdl\drivers\peripheral\scb/cy_scb_common.h **** 
ARM GAS  C:\Users\ikomb\AppData\Local\Temp\ccqJLUw6.s 			page 19


 848:Generated_Source\PSoC6\pdl\drivers\peripheral\scb/cy_scb_common.h **** /*******************************************************************************
 849:Generated_Source\PSoC6\pdl\drivers\peripheral\scb/cy_scb_common.h **** * Function Name: Cy_SCB_GetRxInterruptStatus
 850:Generated_Source\PSoC6\pdl\drivers\peripheral\scb/cy_scb_common.h **** ****************************************************************************//**
 851:Generated_Source\PSoC6\pdl\drivers\peripheral\scb/cy_scb_common.h **** *
 852:Generated_Source\PSoC6\pdl\drivers\peripheral\scb/cy_scb_common.h **** * Returns the RX interrupt request register. This register contains the current
 853:Generated_Source\PSoC6\pdl\drivers\peripheral\scb/cy_scb_common.h **** * status of the RX interrupt sources.
 854:Generated_Source\PSoC6\pdl\drivers\peripheral\scb/cy_scb_common.h **** *
 855:Generated_Source\PSoC6\pdl\drivers\peripheral\scb/cy_scb_common.h **** * \param base
 856:Generated_Source\PSoC6\pdl\drivers\peripheral\scb/cy_scb_common.h **** * The pointer to the SCB instance.
 857:Generated_Source\PSoC6\pdl\drivers\peripheral\scb/cy_scb_common.h **** *
 858:Generated_Source\PSoC6\pdl\drivers\peripheral\scb/cy_scb_common.h **** * \return
 859:Generated_Source\PSoC6\pdl\drivers\peripheral\scb/cy_scb_common.h **** * The current status of the RX interrupt sources. Each constant is a bit field
 860:Generated_Source\PSoC6\pdl\drivers\peripheral\scb/cy_scb_common.h **** * value. The value returned may have multiple bits set to indicate the
 861:Generated_Source\PSoC6\pdl\drivers\peripheral\scb/cy_scb_common.h **** * current status.
 862:Generated_Source\PSoC6\pdl\drivers\peripheral\scb/cy_scb_common.h **** * See \ref group_scb_common_macros_rx_intr for the set of constants.
 863:Generated_Source\PSoC6\pdl\drivers\peripheral\scb/cy_scb_common.h **** *
 864:Generated_Source\PSoC6\pdl\drivers\peripheral\scb/cy_scb_common.h **** *******************************************************************************/
 865:Generated_Source\PSoC6\pdl\drivers\peripheral\scb/cy_scb_common.h **** __STATIC_INLINE uint32_t Cy_SCB_GetRxInterruptStatus(CySCB_Type const *base)
 866:Generated_Source\PSoC6\pdl\drivers\peripheral\scb/cy_scb_common.h **** {
 867:Generated_Source\PSoC6\pdl\drivers\peripheral\scb/cy_scb_common.h ****     return (base->INTR_RX & CY_SCB_RX_INTR_MASK);
 868:Generated_Source\PSoC6\pdl\drivers\peripheral\scb/cy_scb_common.h **** }
 869:Generated_Source\PSoC6\pdl\drivers\peripheral\scb/cy_scb_common.h **** 
 870:Generated_Source\PSoC6\pdl\drivers\peripheral\scb/cy_scb_common.h **** 
 871:Generated_Source\PSoC6\pdl\drivers\peripheral\scb/cy_scb_common.h **** /*******************************************************************************
 872:Generated_Source\PSoC6\pdl\drivers\peripheral\scb/cy_scb_common.h **** * Function Name: Cy_SCB_SetRxInterruptMask
 873:Generated_Source\PSoC6\pdl\drivers\peripheral\scb/cy_scb_common.h **** ****************************************************************************//**
 874:Generated_Source\PSoC6\pdl\drivers\peripheral\scb/cy_scb_common.h **** *
 875:Generated_Source\PSoC6\pdl\drivers\peripheral\scb/cy_scb_common.h **** * Writes the RX interrupt mask register. This register configures which bits
 876:Generated_Source\PSoC6\pdl\drivers\peripheral\scb/cy_scb_common.h **** * from the RX interrupt request register can trigger an interrupt event.
 877:Generated_Source\PSoC6\pdl\drivers\peripheral\scb/cy_scb_common.h **** *
 878:Generated_Source\PSoC6\pdl\drivers\peripheral\scb/cy_scb_common.h **** * \param base
 879:Generated_Source\PSoC6\pdl\drivers\peripheral\scb/cy_scb_common.h **** * The pointer to the SCB instance.
 880:Generated_Source\PSoC6\pdl\drivers\peripheral\scb/cy_scb_common.h **** *
 881:Generated_Source\PSoC6\pdl\drivers\peripheral\scb/cy_scb_common.h **** * \param interruptMask
 882:Generated_Source\PSoC6\pdl\drivers\peripheral\scb/cy_scb_common.h **** * Enabled RX interrupt sources.
 883:Generated_Source\PSoC6\pdl\drivers\peripheral\scb/cy_scb_common.h **** * See \ref group_scb_common_macros_rx_intr.
 884:Generated_Source\PSoC6\pdl\drivers\peripheral\scb/cy_scb_common.h **** *
 885:Generated_Source\PSoC6\pdl\drivers\peripheral\scb/cy_scb_common.h **** *******************************************************************************/
 886:Generated_Source\PSoC6\pdl\drivers\peripheral\scb/cy_scb_common.h **** __STATIC_INLINE void Cy_SCB_SetRxInterruptMask(CySCB_Type *base, uint32_t interruptMask)
 887:Generated_Source\PSoC6\pdl\drivers\peripheral\scb/cy_scb_common.h **** {
 888:Generated_Source\PSoC6\pdl\drivers\peripheral\scb/cy_scb_common.h ****     CY_ASSERT_L2(CY_SCB_IS_INTR_VALID(interruptMask, CY_SCB_RX_INTR_MASK));
 889:Generated_Source\PSoC6\pdl\drivers\peripheral\scb/cy_scb_common.h **** 
 890:Generated_Source\PSoC6\pdl\drivers\peripheral\scb/cy_scb_common.h ****     base->INTR_RX_MASK = interruptMask;
 891:Generated_Source\PSoC6\pdl\drivers\peripheral\scb/cy_scb_common.h **** }
 892:Generated_Source\PSoC6\pdl\drivers\peripheral\scb/cy_scb_common.h **** 
 893:Generated_Source\PSoC6\pdl\drivers\peripheral\scb/cy_scb_common.h **** 
 894:Generated_Source\PSoC6\pdl\drivers\peripheral\scb/cy_scb_common.h **** /*******************************************************************************
 895:Generated_Source\PSoC6\pdl\drivers\peripheral\scb/cy_scb_common.h **** * Function Name: Cy_SCB_GetRxInterruptMask
 896:Generated_Source\PSoC6\pdl\drivers\peripheral\scb/cy_scb_common.h **** ****************************************************************************//**
 897:Generated_Source\PSoC6\pdl\drivers\peripheral\scb/cy_scb_common.h **** *
 898:Generated_Source\PSoC6\pdl\drivers\peripheral\scb/cy_scb_common.h **** * Returns the RX interrupt mask register. This register specifies which bits
 899:Generated_Source\PSoC6\pdl\drivers\peripheral\scb/cy_scb_common.h **** * from the RX interrupt request register trigger can an interrupt event.
 900:Generated_Source\PSoC6\pdl\drivers\peripheral\scb/cy_scb_common.h **** *
 901:Generated_Source\PSoC6\pdl\drivers\peripheral\scb/cy_scb_common.h **** * \param base
 902:Generated_Source\PSoC6\pdl\drivers\peripheral\scb/cy_scb_common.h **** * The pointer to the SCB instance.
 903:Generated_Source\PSoC6\pdl\drivers\peripheral\scb/cy_scb_common.h **** *
 904:Generated_Source\PSoC6\pdl\drivers\peripheral\scb/cy_scb_common.h **** * \return
ARM GAS  C:\Users\ikomb\AppData\Local\Temp\ccqJLUw6.s 			page 20


 905:Generated_Source\PSoC6\pdl\drivers\peripheral\scb/cy_scb_common.h **** * Enabled RX interrupt sources.
 906:Generated_Source\PSoC6\pdl\drivers\peripheral\scb/cy_scb_common.h **** * See \ref group_scb_common_macros_rx_intr for the set of constants.
 907:Generated_Source\PSoC6\pdl\drivers\peripheral\scb/cy_scb_common.h **** *
 908:Generated_Source\PSoC6\pdl\drivers\peripheral\scb/cy_scb_common.h **** *******************************************************************************/
 909:Generated_Source\PSoC6\pdl\drivers\peripheral\scb/cy_scb_common.h **** __STATIC_INLINE uint32_t Cy_SCB_GetRxInterruptMask(CySCB_Type const *base)
 910:Generated_Source\PSoC6\pdl\drivers\peripheral\scb/cy_scb_common.h **** {
 911:Generated_Source\PSoC6\pdl\drivers\peripheral\scb/cy_scb_common.h ****     return (base->INTR_RX_MASK);
 912:Generated_Source\PSoC6\pdl\drivers\peripheral\scb/cy_scb_common.h **** }
 913:Generated_Source\PSoC6\pdl\drivers\peripheral\scb/cy_scb_common.h **** 
 914:Generated_Source\PSoC6\pdl\drivers\peripheral\scb/cy_scb_common.h **** 
 915:Generated_Source\PSoC6\pdl\drivers\peripheral\scb/cy_scb_common.h **** /*******************************************************************************
 916:Generated_Source\PSoC6\pdl\drivers\peripheral\scb/cy_scb_common.h **** * Function Name: Cy_SCB_GetRxInterruptStatusMasked
 917:Generated_Source\PSoC6\pdl\drivers\peripheral\scb/cy_scb_common.h **** ****************************************************************************//**
 918:Generated_Source\PSoC6\pdl\drivers\peripheral\scb/cy_scb_common.h **** *
 919:Generated_Source\PSoC6\pdl\drivers\peripheral\scb/cy_scb_common.h **** * Returns the RX interrupt masked request register. This register contains
 920:Generated_Source\PSoC6\pdl\drivers\peripheral\scb/cy_scb_common.h **** * a logical AND of corresponding bits from the RX interrupt request and
 921:Generated_Source\PSoC6\pdl\drivers\peripheral\scb/cy_scb_common.h **** * mask registers.
 922:Generated_Source\PSoC6\pdl\drivers\peripheral\scb/cy_scb_common.h **** * This function is intended to be used in the interrupt service routine to
 923:Generated_Source\PSoC6\pdl\drivers\peripheral\scb/cy_scb_common.h **** * identify which of the enabled RX interrupt sources caused the interrupt event.
 924:Generated_Source\PSoC6\pdl\drivers\peripheral\scb/cy_scb_common.h **** *
 925:Generated_Source\PSoC6\pdl\drivers\peripheral\scb/cy_scb_common.h **** * \param base
 926:Generated_Source\PSoC6\pdl\drivers\peripheral\scb/cy_scb_common.h **** * The pointer to the SCB instance.
 927:Generated_Source\PSoC6\pdl\drivers\peripheral\scb/cy_scb_common.h **** *
 928:Generated_Source\PSoC6\pdl\drivers\peripheral\scb/cy_scb_common.h **** * \return
 929:Generated_Source\PSoC6\pdl\drivers\peripheral\scb/cy_scb_common.h **** * The current status of enabled RX interrupt sources.
 930:Generated_Source\PSoC6\pdl\drivers\peripheral\scb/cy_scb_common.h **** * See \ref group_scb_common_macros_rx_intr for the set of constants.
 931:Generated_Source\PSoC6\pdl\drivers\peripheral\scb/cy_scb_common.h **** *
 932:Generated_Source\PSoC6\pdl\drivers\peripheral\scb/cy_scb_common.h **** *******************************************************************************/
 933:Generated_Source\PSoC6\pdl\drivers\peripheral\scb/cy_scb_common.h **** __STATIC_INLINE uint32_t Cy_SCB_GetRxInterruptStatusMasked(CySCB_Type const *base)
 934:Generated_Source\PSoC6\pdl\drivers\peripheral\scb/cy_scb_common.h **** {
 935:Generated_Source\PSoC6\pdl\drivers\peripheral\scb/cy_scb_common.h ****     return (base->INTR_RX_MASKED);
 936:Generated_Source\PSoC6\pdl\drivers\peripheral\scb/cy_scb_common.h **** }
 937:Generated_Source\PSoC6\pdl\drivers\peripheral\scb/cy_scb_common.h **** 
 938:Generated_Source\PSoC6\pdl\drivers\peripheral\scb/cy_scb_common.h **** 
 939:Generated_Source\PSoC6\pdl\drivers\peripheral\scb/cy_scb_common.h **** /*******************************************************************************
 940:Generated_Source\PSoC6\pdl\drivers\peripheral\scb/cy_scb_common.h **** * Function Name: Cy_SCB_ClearRxInterrupt
 941:Generated_Source\PSoC6\pdl\drivers\peripheral\scb/cy_scb_common.h **** ****************************************************************************//**
 942:Generated_Source\PSoC6\pdl\drivers\peripheral\scb/cy_scb_common.h **** *
 943:Generated_Source\PSoC6\pdl\drivers\peripheral\scb/cy_scb_common.h **** * Clears the RX interrupt sources in the interrupt request register.
 944:Generated_Source\PSoC6\pdl\drivers\peripheral\scb/cy_scb_common.h **** *
 945:Generated_Source\PSoC6\pdl\drivers\peripheral\scb/cy_scb_common.h **** * \param base
 946:Generated_Source\PSoC6\pdl\drivers\peripheral\scb/cy_scb_common.h **** * The pointer to the SCB instance.
 947:Generated_Source\PSoC6\pdl\drivers\peripheral\scb/cy_scb_common.h **** *
 948:Generated_Source\PSoC6\pdl\drivers\peripheral\scb/cy_scb_common.h **** * \param interruptMask
 949:Generated_Source\PSoC6\pdl\drivers\peripheral\scb/cy_scb_common.h **** * The RX interrupt sources to be cleared.
 950:Generated_Source\PSoC6\pdl\drivers\peripheral\scb/cy_scb_common.h **** * See \ref group_scb_common_macros_rx_intr for the set of constants.
 951:Generated_Source\PSoC6\pdl\drivers\peripheral\scb/cy_scb_common.h **** *
 952:Generated_Source\PSoC6\pdl\drivers\peripheral\scb/cy_scb_common.h **** * \note
 953:Generated_Source\PSoC6\pdl\drivers\peripheral\scb/cy_scb_common.h **** *  - CY_SCB_INTR_RX_FIFO_LEVEL interrupt source is not cleared when
 954:Generated_Source\PSoC6\pdl\drivers\peripheral\scb/cy_scb_common.h **** *    the RX FIFO has more entries than the level.
 955:Generated_Source\PSoC6\pdl\drivers\peripheral\scb/cy_scb_common.h **** *  - CY_SCB_INTR_RX_NOT_EMPTY interrupt source is not cleared when the
 956:Generated_Source\PSoC6\pdl\drivers\peripheral\scb/cy_scb_common.h **** *    RX FIFO is not empty.
 957:Generated_Source\PSoC6\pdl\drivers\peripheral\scb/cy_scb_common.h **** *  - CY_SCB_INTR_RX_FULL interrupt source is not cleared when the
 958:Generated_Source\PSoC6\pdl\drivers\peripheral\scb/cy_scb_common.h **** *    RX FIFO is full.
 959:Generated_Source\PSoC6\pdl\drivers\peripheral\scb/cy_scb_common.h **** *
 960:Generated_Source\PSoC6\pdl\drivers\peripheral\scb/cy_scb_common.h **** *******************************************************************************/
 961:Generated_Source\PSoC6\pdl\drivers\peripheral\scb/cy_scb_common.h **** __STATIC_INLINE void Cy_SCB_ClearRxInterrupt(CySCB_Type *base, uint32_t interruptMask)
ARM GAS  C:\Users\ikomb\AppData\Local\Temp\ccqJLUw6.s 			page 21


 962:Generated_Source\PSoC6\pdl\drivers\peripheral\scb/cy_scb_common.h **** {
 963:Generated_Source\PSoC6\pdl\drivers\peripheral\scb/cy_scb_common.h ****     CY_ASSERT_L2(CY_SCB_IS_INTR_VALID(interruptMask, CY_SCB_RX_INTR_MASK));
 964:Generated_Source\PSoC6\pdl\drivers\peripheral\scb/cy_scb_common.h **** 
 965:Generated_Source\PSoC6\pdl\drivers\peripheral\scb/cy_scb_common.h ****     base->INTR_RX = interruptMask;
 966:Generated_Source\PSoC6\pdl\drivers\peripheral\scb/cy_scb_common.h ****     (void) base->INTR_RX;
 967:Generated_Source\PSoC6\pdl\drivers\peripheral\scb/cy_scb_common.h **** }
 968:Generated_Source\PSoC6\pdl\drivers\peripheral\scb/cy_scb_common.h **** 
 969:Generated_Source\PSoC6\pdl\drivers\peripheral\scb/cy_scb_common.h **** 
 970:Generated_Source\PSoC6\pdl\drivers\peripheral\scb/cy_scb_common.h **** /*******************************************************************************
 971:Generated_Source\PSoC6\pdl\drivers\peripheral\scb/cy_scb_common.h **** * Function Name: Cy_SCB_SetRxInterrupt
 972:Generated_Source\PSoC6\pdl\drivers\peripheral\scb/cy_scb_common.h **** ****************************************************************************//**
 973:Generated_Source\PSoC6\pdl\drivers\peripheral\scb/cy_scb_common.h **** *
 974:Generated_Source\PSoC6\pdl\drivers\peripheral\scb/cy_scb_common.h **** * Sets the RX interrupt sources in the interrupt request register.
 975:Generated_Source\PSoC6\pdl\drivers\peripheral\scb/cy_scb_common.h **** *
 976:Generated_Source\PSoC6\pdl\drivers\peripheral\scb/cy_scb_common.h **** * \param base
 977:Generated_Source\PSoC6\pdl\drivers\peripheral\scb/cy_scb_common.h **** * The pointer to the SCB instance.
 978:Generated_Source\PSoC6\pdl\drivers\peripheral\scb/cy_scb_common.h **** *
 979:Generated_Source\PSoC6\pdl\drivers\peripheral\scb/cy_scb_common.h **** * \param interruptMask
 980:Generated_Source\PSoC6\pdl\drivers\peripheral\scb/cy_scb_common.h **** * The RX interrupt sources to set in the RX interrupt request register.
 981:Generated_Source\PSoC6\pdl\drivers\peripheral\scb/cy_scb_common.h **** * See \ref group_scb_common_macros_rx_intr for the set of constants.
 982:Generated_Source\PSoC6\pdl\drivers\peripheral\scb/cy_scb_common.h **** *
 983:Generated_Source\PSoC6\pdl\drivers\peripheral\scb/cy_scb_common.h **** *******************************************************************************/
 984:Generated_Source\PSoC6\pdl\drivers\peripheral\scb/cy_scb_common.h **** __STATIC_INLINE void Cy_SCB_SetRxInterrupt(CySCB_Type *base, uint32_t interruptMask)
 985:Generated_Source\PSoC6\pdl\drivers\peripheral\scb/cy_scb_common.h **** {
 986:Generated_Source\PSoC6\pdl\drivers\peripheral\scb/cy_scb_common.h ****     CY_ASSERT_L2(CY_SCB_IS_INTR_VALID(interruptMask, CY_SCB_RX_INTR_MASK));
 987:Generated_Source\PSoC6\pdl\drivers\peripheral\scb/cy_scb_common.h **** 
 988:Generated_Source\PSoC6\pdl\drivers\peripheral\scb/cy_scb_common.h ****     base->INTR_RX_SET = interruptMask;
 989:Generated_Source\PSoC6\pdl\drivers\peripheral\scb/cy_scb_common.h **** }
 990:Generated_Source\PSoC6\pdl\drivers\peripheral\scb/cy_scb_common.h **** 
 991:Generated_Source\PSoC6\pdl\drivers\peripheral\scb/cy_scb_common.h **** 
 992:Generated_Source\PSoC6\pdl\drivers\peripheral\scb/cy_scb_common.h **** /*******************************************************************************
 993:Generated_Source\PSoC6\pdl\drivers\peripheral\scb/cy_scb_common.h **** * Function Name: Cy_SCB_GetTxInterruptStatus
 994:Generated_Source\PSoC6\pdl\drivers\peripheral\scb/cy_scb_common.h **** ****************************************************************************//**
 995:Generated_Source\PSoC6\pdl\drivers\peripheral\scb/cy_scb_common.h **** *
 996:Generated_Source\PSoC6\pdl\drivers\peripheral\scb/cy_scb_common.h **** * Returns the TX interrupt request register. This register contains the current
 997:Generated_Source\PSoC6\pdl\drivers\peripheral\scb/cy_scb_common.h **** * status of the TX interrupt sources.
 998:Generated_Source\PSoC6\pdl\drivers\peripheral\scb/cy_scb_common.h **** *
 999:Generated_Source\PSoC6\pdl\drivers\peripheral\scb/cy_scb_common.h **** * \param base
1000:Generated_Source\PSoC6\pdl\drivers\peripheral\scb/cy_scb_common.h **** * The pointer to the SCB instance.
1001:Generated_Source\PSoC6\pdl\drivers\peripheral\scb/cy_scb_common.h **** *
1002:Generated_Source\PSoC6\pdl\drivers\peripheral\scb/cy_scb_common.h **** * \return
1003:Generated_Source\PSoC6\pdl\drivers\peripheral\scb/cy_scb_common.h **** * The current status of TX interrupt sources.
1004:Generated_Source\PSoC6\pdl\drivers\peripheral\scb/cy_scb_common.h **** * Each constant is a bit field value. The value returned may have multiple
1005:Generated_Source\PSoC6\pdl\drivers\peripheral\scb/cy_scb_common.h **** * bits set to indicate the current status.
1006:Generated_Source\PSoC6\pdl\drivers\peripheral\scb/cy_scb_common.h **** * See \ref group_scb_common_macros_tx_intr for the set of constants.
1007:Generated_Source\PSoC6\pdl\drivers\peripheral\scb/cy_scb_common.h **** *
1008:Generated_Source\PSoC6\pdl\drivers\peripheral\scb/cy_scb_common.h **** *******************************************************************************/
1009:Generated_Source\PSoC6\pdl\drivers\peripheral\scb/cy_scb_common.h **** __STATIC_INLINE uint32_t Cy_SCB_GetTxInterruptStatus(CySCB_Type const *base)
1010:Generated_Source\PSoC6\pdl\drivers\peripheral\scb/cy_scb_common.h **** {
1011:Generated_Source\PSoC6\pdl\drivers\peripheral\scb/cy_scb_common.h ****     return (base->INTR_TX & CY_SCB_TX_INTR_MASK);
1012:Generated_Source\PSoC6\pdl\drivers\peripheral\scb/cy_scb_common.h **** }
1013:Generated_Source\PSoC6\pdl\drivers\peripheral\scb/cy_scb_common.h **** 
1014:Generated_Source\PSoC6\pdl\drivers\peripheral\scb/cy_scb_common.h **** 
1015:Generated_Source\PSoC6\pdl\drivers\peripheral\scb/cy_scb_common.h **** /*******************************************************************************
1016:Generated_Source\PSoC6\pdl\drivers\peripheral\scb/cy_scb_common.h **** * Function Name: Cy_SCB_SetTxInterruptMask
1017:Generated_Source\PSoC6\pdl\drivers\peripheral\scb/cy_scb_common.h **** ****************************************************************************//**
1018:Generated_Source\PSoC6\pdl\drivers\peripheral\scb/cy_scb_common.h **** *
ARM GAS  C:\Users\ikomb\AppData\Local\Temp\ccqJLUw6.s 			page 22


1019:Generated_Source\PSoC6\pdl\drivers\peripheral\scb/cy_scb_common.h **** * Writes the TX interrupt mask register. This register configures which bits
1020:Generated_Source\PSoC6\pdl\drivers\peripheral\scb/cy_scb_common.h **** * from the TX interrupt request register can trigger an interrupt event.
1021:Generated_Source\PSoC6\pdl\drivers\peripheral\scb/cy_scb_common.h **** *
1022:Generated_Source\PSoC6\pdl\drivers\peripheral\scb/cy_scb_common.h **** * \param base
1023:Generated_Source\PSoC6\pdl\drivers\peripheral\scb/cy_scb_common.h **** * The pointer to the SCB instance.
1024:Generated_Source\PSoC6\pdl\drivers\peripheral\scb/cy_scb_common.h **** *
1025:Generated_Source\PSoC6\pdl\drivers\peripheral\scb/cy_scb_common.h **** * \param interruptMask
1026:Generated_Source\PSoC6\pdl\drivers\peripheral\scb/cy_scb_common.h **** * Enabled TX interrupt sources.
1027:Generated_Source\PSoC6\pdl\drivers\peripheral\scb/cy_scb_common.h **** * See \ref group_scb_common_macros_tx_intr for the set of constants.
1028:Generated_Source\PSoC6\pdl\drivers\peripheral\scb/cy_scb_common.h **** *
1029:Generated_Source\PSoC6\pdl\drivers\peripheral\scb/cy_scb_common.h **** *******************************************************************************/
1030:Generated_Source\PSoC6\pdl\drivers\peripheral\scb/cy_scb_common.h **** __STATIC_INLINE void Cy_SCB_SetTxInterruptMask(CySCB_Type *base, uint32_t interruptMask)
1031:Generated_Source\PSoC6\pdl\drivers\peripheral\scb/cy_scb_common.h **** {
1032:Generated_Source\PSoC6\pdl\drivers\peripheral\scb/cy_scb_common.h ****     CY_ASSERT_L2(CY_SCB_IS_INTR_VALID(interruptMask, CY_SCB_TX_INTR_MASK));
1033:Generated_Source\PSoC6\pdl\drivers\peripheral\scb/cy_scb_common.h **** 
1034:Generated_Source\PSoC6\pdl\drivers\peripheral\scb/cy_scb_common.h ****     base->INTR_TX_MASK = interruptMask;
1035:Generated_Source\PSoC6\pdl\drivers\peripheral\scb/cy_scb_common.h **** }
1036:Generated_Source\PSoC6\pdl\drivers\peripheral\scb/cy_scb_common.h **** 
1037:Generated_Source\PSoC6\pdl\drivers\peripheral\scb/cy_scb_common.h **** 
1038:Generated_Source\PSoC6\pdl\drivers\peripheral\scb/cy_scb_common.h **** /*******************************************************************************
1039:Generated_Source\PSoC6\pdl\drivers\peripheral\scb/cy_scb_common.h **** * Function Name: Cy_SCB_GetTxInterruptMask
1040:Generated_Source\PSoC6\pdl\drivers\peripheral\scb/cy_scb_common.h **** ****************************************************************************//**
1041:Generated_Source\PSoC6\pdl\drivers\peripheral\scb/cy_scb_common.h **** *
1042:Generated_Source\PSoC6\pdl\drivers\peripheral\scb/cy_scb_common.h **** * Returns the TX interrupt mask register. This register specifies which
1043:Generated_Source\PSoC6\pdl\drivers\peripheral\scb/cy_scb_common.h **** * bits from the TX interrupt request register can trigger an interrupt event.
1044:Generated_Source\PSoC6\pdl\drivers\peripheral\scb/cy_scb_common.h **** *
1045:Generated_Source\PSoC6\pdl\drivers\peripheral\scb/cy_scb_common.h **** * \param base
1046:Generated_Source\PSoC6\pdl\drivers\peripheral\scb/cy_scb_common.h **** * The pointer to the SCB instance.
1047:Generated_Source\PSoC6\pdl\drivers\peripheral\scb/cy_scb_common.h **** *
1048:Generated_Source\PSoC6\pdl\drivers\peripheral\scb/cy_scb_common.h **** * \return
1049:Generated_Source\PSoC6\pdl\drivers\peripheral\scb/cy_scb_common.h **** * Enabled TX interrupt sources.
1050:Generated_Source\PSoC6\pdl\drivers\peripheral\scb/cy_scb_common.h **** * See \ref group_scb_common_macros_tx_intr for the set of constants.
1051:Generated_Source\PSoC6\pdl\drivers\peripheral\scb/cy_scb_common.h **** *
1052:Generated_Source\PSoC6\pdl\drivers\peripheral\scb/cy_scb_common.h **** *******************************************************************************/
1053:Generated_Source\PSoC6\pdl\drivers\peripheral\scb/cy_scb_common.h **** __STATIC_INLINE uint32_t Cy_SCB_GetTxInterruptMask(CySCB_Type const *base)
1054:Generated_Source\PSoC6\pdl\drivers\peripheral\scb/cy_scb_common.h **** {
1055:Generated_Source\PSoC6\pdl\drivers\peripheral\scb/cy_scb_common.h ****     return (base->INTR_TX_MASK);
1056:Generated_Source\PSoC6\pdl\drivers\peripheral\scb/cy_scb_common.h **** }
1057:Generated_Source\PSoC6\pdl\drivers\peripheral\scb/cy_scb_common.h **** 
1058:Generated_Source\PSoC6\pdl\drivers\peripheral\scb/cy_scb_common.h **** 
1059:Generated_Source\PSoC6\pdl\drivers\peripheral\scb/cy_scb_common.h **** /*******************************************************************************
1060:Generated_Source\PSoC6\pdl\drivers\peripheral\scb/cy_scb_common.h **** * Function Name: Cy_SCB_GetTxInterruptStatusMasked
1061:Generated_Source\PSoC6\pdl\drivers\peripheral\scb/cy_scb_common.h **** ****************************************************************************//**
1062:Generated_Source\PSoC6\pdl\drivers\peripheral\scb/cy_scb_common.h **** *
1063:Generated_Source\PSoC6\pdl\drivers\peripheral\scb/cy_scb_common.h **** * Returns the TX interrupt masked request register. This register contains
1064:Generated_Source\PSoC6\pdl\drivers\peripheral\scb/cy_scb_common.h **** * a logical AND of corresponding bits from the TX interrupt request and
1065:Generated_Source\PSoC6\pdl\drivers\peripheral\scb/cy_scb_common.h **** * mask registers.
1066:Generated_Source\PSoC6\pdl\drivers\peripheral\scb/cy_scb_common.h **** * This function is intended to be used in the interrupt service routine to
1067:Generated_Source\PSoC6\pdl\drivers\peripheral\scb/cy_scb_common.h **** * identify which of enabled TX interrupt sources caused the interrupt event.
1068:Generated_Source\PSoC6\pdl\drivers\peripheral\scb/cy_scb_common.h **** *
1069:Generated_Source\PSoC6\pdl\drivers\peripheral\scb/cy_scb_common.h **** * \param base
1070:Generated_Source\PSoC6\pdl\drivers\peripheral\scb/cy_scb_common.h **** * The pointer to the SCB instance.
1071:Generated_Source\PSoC6\pdl\drivers\peripheral\scb/cy_scb_common.h **** *
1072:Generated_Source\PSoC6\pdl\drivers\peripheral\scb/cy_scb_common.h **** * \return
1073:Generated_Source\PSoC6\pdl\drivers\peripheral\scb/cy_scb_common.h **** * The current status of enabled TX interrupt sources.
1074:Generated_Source\PSoC6\pdl\drivers\peripheral\scb/cy_scb_common.h **** * See \ref group_scb_common_macros_tx_intr for the set of constants.
1075:Generated_Source\PSoC6\pdl\drivers\peripheral\scb/cy_scb_common.h **** *
ARM GAS  C:\Users\ikomb\AppData\Local\Temp\ccqJLUw6.s 			page 23


1076:Generated_Source\PSoC6\pdl\drivers\peripheral\scb/cy_scb_common.h **** *******************************************************************************/
1077:Generated_Source\PSoC6\pdl\drivers\peripheral\scb/cy_scb_common.h **** __STATIC_INLINE uint32_t Cy_SCB_GetTxInterruptStatusMasked(CySCB_Type const *base)
1078:Generated_Source\PSoC6\pdl\drivers\peripheral\scb/cy_scb_common.h **** {
1079:Generated_Source\PSoC6\pdl\drivers\peripheral\scb/cy_scb_common.h ****     return (base->INTR_TX_MASKED);
1080:Generated_Source\PSoC6\pdl\drivers\peripheral\scb/cy_scb_common.h **** }
1081:Generated_Source\PSoC6\pdl\drivers\peripheral\scb/cy_scb_common.h **** 
1082:Generated_Source\PSoC6\pdl\drivers\peripheral\scb/cy_scb_common.h **** 
1083:Generated_Source\PSoC6\pdl\drivers\peripheral\scb/cy_scb_common.h **** /*******************************************************************************
1084:Generated_Source\PSoC6\pdl\drivers\peripheral\scb/cy_scb_common.h **** * Function Name: Cy_SCB_ClearTxInterrupt
1085:Generated_Source\PSoC6\pdl\drivers\peripheral\scb/cy_scb_common.h **** ****************************************************************************//**
1086:Generated_Source\PSoC6\pdl\drivers\peripheral\scb/cy_scb_common.h **** *
1087:Generated_Source\PSoC6\pdl\drivers\peripheral\scb/cy_scb_common.h **** * Clears the TX interrupt sources in the interrupt request register.
1088:Generated_Source\PSoC6\pdl\drivers\peripheral\scb/cy_scb_common.h **** *
1089:Generated_Source\PSoC6\pdl\drivers\peripheral\scb/cy_scb_common.h **** * \param base
1090:Generated_Source\PSoC6\pdl\drivers\peripheral\scb/cy_scb_common.h **** * The pointer to the SCB instance.
1091:Generated_Source\PSoC6\pdl\drivers\peripheral\scb/cy_scb_common.h **** *
1092:Generated_Source\PSoC6\pdl\drivers\peripheral\scb/cy_scb_common.h **** * \param interruptMask
1093:Generated_Source\PSoC6\pdl\drivers\peripheral\scb/cy_scb_common.h **** * The TX interrupt sources to be cleared.
1094:Generated_Source\PSoC6\pdl\drivers\peripheral\scb/cy_scb_common.h **** * See \ref group_scb_common_macros_tx_intr for the set of constants.
1095:Generated_Source\PSoC6\pdl\drivers\peripheral\scb/cy_scb_common.h **** *
1096:Generated_Source\PSoC6\pdl\drivers\peripheral\scb/cy_scb_common.h **** * \note
1097:Generated_Source\PSoC6\pdl\drivers\peripheral\scb/cy_scb_common.h **** *  - CY_SCB_INTR_TX_FIFO_LEVEL interrupt source is not cleared when the
1098:Generated_Source\PSoC6\pdl\drivers\peripheral\scb/cy_scb_common.h **** *    TX FIFO has fewer entries than the TX level.
1099:Generated_Source\PSoC6\pdl\drivers\peripheral\scb/cy_scb_common.h **** *  - CY_SCB_INTR_TX_NOT_FULL interrupt source is not cleared when the
1100:Generated_Source\PSoC6\pdl\drivers\peripheral\scb/cy_scb_common.h **** *    TX FIFO has empty entries in the TX FIFO.
1101:Generated_Source\PSoC6\pdl\drivers\peripheral\scb/cy_scb_common.h **** *  - CY_SCB_INTR_TX_EMPTY interrupt source is not cleared when the
1102:Generated_Source\PSoC6\pdl\drivers\peripheral\scb/cy_scb_common.h **** *    TX FIFO is empty.
1103:Generated_Source\PSoC6\pdl\drivers\peripheral\scb/cy_scb_common.h **** *  - CY_SCB_INTR_TX_UNDERFLOW interrupt source is not cleared when the
1104:Generated_Source\PSoC6\pdl\drivers\peripheral\scb/cy_scb_common.h **** *    TX FIFO is empty. Put data into the TX FIFO before clearing it.
1105:Generated_Source\PSoC6\pdl\drivers\peripheral\scb/cy_scb_common.h **** *
1106:Generated_Source\PSoC6\pdl\drivers\peripheral\scb/cy_scb_common.h **** *******************************************************************************/
1107:Generated_Source\PSoC6\pdl\drivers\peripheral\scb/cy_scb_common.h **** __STATIC_INLINE void Cy_SCB_ClearTxInterrupt(CySCB_Type *base, uint32_t interruptMask)
1108:Generated_Source\PSoC6\pdl\drivers\peripheral\scb/cy_scb_common.h **** {
1109:Generated_Source\PSoC6\pdl\drivers\peripheral\scb/cy_scb_common.h ****     CY_ASSERT_L2(CY_SCB_IS_INTR_VALID(interruptMask, CY_SCB_TX_INTR_MASK));
1110:Generated_Source\PSoC6\pdl\drivers\peripheral\scb/cy_scb_common.h **** 
1111:Generated_Source\PSoC6\pdl\drivers\peripheral\scb/cy_scb_common.h ****     base->INTR_TX = interruptMask;
1112:Generated_Source\PSoC6\pdl\drivers\peripheral\scb/cy_scb_common.h ****     (void) base->INTR_TX;
1113:Generated_Source\PSoC6\pdl\drivers\peripheral\scb/cy_scb_common.h **** }
1114:Generated_Source\PSoC6\pdl\drivers\peripheral\scb/cy_scb_common.h **** 
1115:Generated_Source\PSoC6\pdl\drivers\peripheral\scb/cy_scb_common.h **** 
1116:Generated_Source\PSoC6\pdl\drivers\peripheral\scb/cy_scb_common.h **** /*******************************************************************************
1117:Generated_Source\PSoC6\pdl\drivers\peripheral\scb/cy_scb_common.h **** * Function Name: Cy_SCB_SetTxInterrupt
1118:Generated_Source\PSoC6\pdl\drivers\peripheral\scb/cy_scb_common.h **** ****************************************************************************//**
1119:Generated_Source\PSoC6\pdl\drivers\peripheral\scb/cy_scb_common.h **** *
1120:Generated_Source\PSoC6\pdl\drivers\peripheral\scb/cy_scb_common.h **** * Sets TX interrupt sources in the interrupt request register.
1121:Generated_Source\PSoC6\pdl\drivers\peripheral\scb/cy_scb_common.h **** *
1122:Generated_Source\PSoC6\pdl\drivers\peripheral\scb/cy_scb_common.h **** * \param base
1123:Generated_Source\PSoC6\pdl\drivers\peripheral\scb/cy_scb_common.h **** * The pointer to the SCB instance.
1124:Generated_Source\PSoC6\pdl\drivers\peripheral\scb/cy_scb_common.h **** *
1125:Generated_Source\PSoC6\pdl\drivers\peripheral\scb/cy_scb_common.h **** * \param interruptMask
1126:Generated_Source\PSoC6\pdl\drivers\peripheral\scb/cy_scb_common.h **** * The TX interrupt sources to set in the TX interrupt request register.
1127:Generated_Source\PSoC6\pdl\drivers\peripheral\scb/cy_scb_common.h **** * See \ref group_scb_common_macros_tx_intr for the set of constants.
1128:Generated_Source\PSoC6\pdl\drivers\peripheral\scb/cy_scb_common.h **** *
1129:Generated_Source\PSoC6\pdl\drivers\peripheral\scb/cy_scb_common.h **** *******************************************************************************/
1130:Generated_Source\PSoC6\pdl\drivers\peripheral\scb/cy_scb_common.h **** __STATIC_INLINE void Cy_SCB_SetTxInterrupt(CySCB_Type *base, uint32_t interruptMask)
1131:Generated_Source\PSoC6\pdl\drivers\peripheral\scb/cy_scb_common.h **** {
1132:Generated_Source\PSoC6\pdl\drivers\peripheral\scb/cy_scb_common.h ****     CY_ASSERT_L2(CY_SCB_IS_INTR_VALID(interruptMask, CY_SCB_TX_INTR_MASK));
ARM GAS  C:\Users\ikomb\AppData\Local\Temp\ccqJLUw6.s 			page 24


1133:Generated_Source\PSoC6\pdl\drivers\peripheral\scb/cy_scb_common.h **** 
1134:Generated_Source\PSoC6\pdl\drivers\peripheral\scb/cy_scb_common.h ****     base->INTR_TX_SET = interruptMask;
1135:Generated_Source\PSoC6\pdl\drivers\peripheral\scb/cy_scb_common.h **** }
1136:Generated_Source\PSoC6\pdl\drivers\peripheral\scb/cy_scb_common.h **** 
1137:Generated_Source\PSoC6\pdl\drivers\peripheral\scb/cy_scb_common.h **** 
1138:Generated_Source\PSoC6\pdl\drivers\peripheral\scb/cy_scb_common.h **** /*******************************************************************************
1139:Generated_Source\PSoC6\pdl\drivers\peripheral\scb/cy_scb_common.h **** * Function Name: Cy_SCB_GetMasterInterruptStatus
1140:Generated_Source\PSoC6\pdl\drivers\peripheral\scb/cy_scb_common.h **** ****************************************************************************//**
1141:Generated_Source\PSoC6\pdl\drivers\peripheral\scb/cy_scb_common.h **** *
1142:Generated_Source\PSoC6\pdl\drivers\peripheral\scb/cy_scb_common.h **** * Returns the master interrupt request register. This register contains the current
1143:Generated_Source\PSoC6\pdl\drivers\peripheral\scb/cy_scb_common.h **** * status of the master interrupt sources.
1144:Generated_Source\PSoC6\pdl\drivers\peripheral\scb/cy_scb_common.h **** *
1145:Generated_Source\PSoC6\pdl\drivers\peripheral\scb/cy_scb_common.h **** * \param base
1146:Generated_Source\PSoC6\pdl\drivers\peripheral\scb/cy_scb_common.h **** * The pointer to the SCB instance.
1147:Generated_Source\PSoC6\pdl\drivers\peripheral\scb/cy_scb_common.h **** *
1148:Generated_Source\PSoC6\pdl\drivers\peripheral\scb/cy_scb_common.h **** * \return
1149:Generated_Source\PSoC6\pdl\drivers\peripheral\scb/cy_scb_common.h **** * The current status of the master interrupt sources.
1150:Generated_Source\PSoC6\pdl\drivers\peripheral\scb/cy_scb_common.h **** * Each constant is a bit field value. The value returned may have multiple
1151:Generated_Source\PSoC6\pdl\drivers\peripheral\scb/cy_scb_common.h **** * bits set to indicate the current status.
1152:Generated_Source\PSoC6\pdl\drivers\peripheral\scb/cy_scb_common.h **** * See \ref group_scb_common_macros_master_intr for the set of constants.
1153:Generated_Source\PSoC6\pdl\drivers\peripheral\scb/cy_scb_common.h **** *
1154:Generated_Source\PSoC6\pdl\drivers\peripheral\scb/cy_scb_common.h **** *******************************************************************************/
1155:Generated_Source\PSoC6\pdl\drivers\peripheral\scb/cy_scb_common.h **** __STATIC_INLINE uint32_t Cy_SCB_GetMasterInterruptStatus(CySCB_Type const *base)
1156:Generated_Source\PSoC6\pdl\drivers\peripheral\scb/cy_scb_common.h **** {
1157:Generated_Source\PSoC6\pdl\drivers\peripheral\scb/cy_scb_common.h ****     return (base->INTR_M & CY_SCB_MASTER_INTR_MASK);
1158:Generated_Source\PSoC6\pdl\drivers\peripheral\scb/cy_scb_common.h **** }
1159:Generated_Source\PSoC6\pdl\drivers\peripheral\scb/cy_scb_common.h **** 
1160:Generated_Source\PSoC6\pdl\drivers\peripheral\scb/cy_scb_common.h **** 
1161:Generated_Source\PSoC6\pdl\drivers\peripheral\scb/cy_scb_common.h **** /*******************************************************************************
1162:Generated_Source\PSoC6\pdl\drivers\peripheral\scb/cy_scb_common.h **** * Function Name: Cy_SCB_SetMasterInterruptMask
1163:Generated_Source\PSoC6\pdl\drivers\peripheral\scb/cy_scb_common.h **** ****************************************************************************//**
1164:Generated_Source\PSoC6\pdl\drivers\peripheral\scb/cy_scb_common.h **** *
1165:Generated_Source\PSoC6\pdl\drivers\peripheral\scb/cy_scb_common.h **** * Writes the master interrupt mask register. This register specifies which bits
1166:Generated_Source\PSoC6\pdl\drivers\peripheral\scb/cy_scb_common.h **** * from the master interrupt request register can trigger an interrupt event.
1167:Generated_Source\PSoC6\pdl\drivers\peripheral\scb/cy_scb_common.h **** *
1168:Generated_Source\PSoC6\pdl\drivers\peripheral\scb/cy_scb_common.h **** * \param base
1169:Generated_Source\PSoC6\pdl\drivers\peripheral\scb/cy_scb_common.h **** * The pointer to the SCB instance.
1170:Generated_Source\PSoC6\pdl\drivers\peripheral\scb/cy_scb_common.h **** *
1171:Generated_Source\PSoC6\pdl\drivers\peripheral\scb/cy_scb_common.h **** * \param interruptMask
1172:Generated_Source\PSoC6\pdl\drivers\peripheral\scb/cy_scb_common.h **** * The master interrupt sources to be enable.
1173:Generated_Source\PSoC6\pdl\drivers\peripheral\scb/cy_scb_common.h **** * See \ref group_scb_common_macros_master_intr for the set of constants.
1174:Generated_Source\PSoC6\pdl\drivers\peripheral\scb/cy_scb_common.h **** *
1175:Generated_Source\PSoC6\pdl\drivers\peripheral\scb/cy_scb_common.h **** *******************************************************************************/
1176:Generated_Source\PSoC6\pdl\drivers\peripheral\scb/cy_scb_common.h **** __STATIC_INLINE void Cy_SCB_SetMasterInterruptMask(CySCB_Type *base, uint32_t interruptMask)
1177:Generated_Source\PSoC6\pdl\drivers\peripheral\scb/cy_scb_common.h **** {
1178:Generated_Source\PSoC6\pdl\drivers\peripheral\scb/cy_scb_common.h ****     CY_ASSERT_L2(CY_SCB_IS_INTR_VALID(interruptMask, CY_SCB_MASTER_INTR_MASK));
1179:Generated_Source\PSoC6\pdl\drivers\peripheral\scb/cy_scb_common.h **** 
1180:Generated_Source\PSoC6\pdl\drivers\peripheral\scb/cy_scb_common.h ****     base->INTR_M_MASK = interruptMask;
1181:Generated_Source\PSoC6\pdl\drivers\peripheral\scb/cy_scb_common.h **** }
1182:Generated_Source\PSoC6\pdl\drivers\peripheral\scb/cy_scb_common.h **** 
1183:Generated_Source\PSoC6\pdl\drivers\peripheral\scb/cy_scb_common.h **** 
1184:Generated_Source\PSoC6\pdl\drivers\peripheral\scb/cy_scb_common.h **** /*******************************************************************************
1185:Generated_Source\PSoC6\pdl\drivers\peripheral\scb/cy_scb_common.h **** * Function Name: Cy_SCB_GetMasterInterruptMask
1186:Generated_Source\PSoC6\pdl\drivers\peripheral\scb/cy_scb_common.h **** ****************************************************************************//**
1187:Generated_Source\PSoC6\pdl\drivers\peripheral\scb/cy_scb_common.h **** *
1188:Generated_Source\PSoC6\pdl\drivers\peripheral\scb/cy_scb_common.h **** * Returns the master interrupt mask register. This register specifies which bits
1189:Generated_Source\PSoC6\pdl\drivers\peripheral\scb/cy_scb_common.h **** * from the master interrupt request register can trigger an interrupt event.
ARM GAS  C:\Users\ikomb\AppData\Local\Temp\ccqJLUw6.s 			page 25


1190:Generated_Source\PSoC6\pdl\drivers\peripheral\scb/cy_scb_common.h **** *
1191:Generated_Source\PSoC6\pdl\drivers\peripheral\scb/cy_scb_common.h **** * \param base
1192:Generated_Source\PSoC6\pdl\drivers\peripheral\scb/cy_scb_common.h **** * The pointer to the SCB instance.
1193:Generated_Source\PSoC6\pdl\drivers\peripheral\scb/cy_scb_common.h **** *
1194:Generated_Source\PSoC6\pdl\drivers\peripheral\scb/cy_scb_common.h **** * \return
1195:Generated_Source\PSoC6\pdl\drivers\peripheral\scb/cy_scb_common.h **** * Enabled master interrupt sources.
1196:Generated_Source\PSoC6\pdl\drivers\peripheral\scb/cy_scb_common.h **** * See \ref group_scb_common_macros_master_intr for the set of constants.
1197:Generated_Source\PSoC6\pdl\drivers\peripheral\scb/cy_scb_common.h **** *
1198:Generated_Source\PSoC6\pdl\drivers\peripheral\scb/cy_scb_common.h **** *******************************************************************************/
1199:Generated_Source\PSoC6\pdl\drivers\peripheral\scb/cy_scb_common.h **** __STATIC_INLINE uint32_t Cy_SCB_GetMasterInterruptMask(CySCB_Type const *base)
1200:Generated_Source\PSoC6\pdl\drivers\peripheral\scb/cy_scb_common.h **** {
1201:Generated_Source\PSoC6\pdl\drivers\peripheral\scb/cy_scb_common.h ****     return (base->INTR_M_MASK);
1202:Generated_Source\PSoC6\pdl\drivers\peripheral\scb/cy_scb_common.h **** }
1203:Generated_Source\PSoC6\pdl\drivers\peripheral\scb/cy_scb_common.h **** 
1204:Generated_Source\PSoC6\pdl\drivers\peripheral\scb/cy_scb_common.h **** 
1205:Generated_Source\PSoC6\pdl\drivers\peripheral\scb/cy_scb_common.h **** /*******************************************************************************
1206:Generated_Source\PSoC6\pdl\drivers\peripheral\scb/cy_scb_common.h **** * Function Name: Cy_SCB_GetMasterInterruptStatusMasked
1207:Generated_Source\PSoC6\pdl\drivers\peripheral\scb/cy_scb_common.h **** ****************************************************************************//**
1208:Generated_Source\PSoC6\pdl\drivers\peripheral\scb/cy_scb_common.h **** *
1209:Generated_Source\PSoC6\pdl\drivers\peripheral\scb/cy_scb_common.h **** * Returns the master interrupt masked request register. This register contains a
1210:Generated_Source\PSoC6\pdl\drivers\peripheral\scb/cy_scb_common.h **** * logical AND of corresponding bits from the master interrupt request and mask
1211:Generated_Source\PSoC6\pdl\drivers\peripheral\scb/cy_scb_common.h **** * registers.
1212:Generated_Source\PSoC6\pdl\drivers\peripheral\scb/cy_scb_common.h **** * This function is intended to be used in the interrupt service routine to
1213:Generated_Source\PSoC6\pdl\drivers\peripheral\scb/cy_scb_common.h **** * identify which of the enabled master interrupt sources caused the interrupt
1214:Generated_Source\PSoC6\pdl\drivers\peripheral\scb/cy_scb_common.h **** * event.
1215:Generated_Source\PSoC6\pdl\drivers\peripheral\scb/cy_scb_common.h **** *
1216:Generated_Source\PSoC6\pdl\drivers\peripheral\scb/cy_scb_common.h **** * \param base
1217:Generated_Source\PSoC6\pdl\drivers\peripheral\scb/cy_scb_common.h **** * The pointer to the SCB instance.
1218:Generated_Source\PSoC6\pdl\drivers\peripheral\scb/cy_scb_common.h **** *
1219:Generated_Source\PSoC6\pdl\drivers\peripheral\scb/cy_scb_common.h **** * \return
1220:Generated_Source\PSoC6\pdl\drivers\peripheral\scb/cy_scb_common.h **** * The current status of enabled master interrupt sources.
1221:Generated_Source\PSoC6\pdl\drivers\peripheral\scb/cy_scb_common.h **** * See \ref group_scb_common_macros_master_intr for the set of constants.
1222:Generated_Source\PSoC6\pdl\drivers\peripheral\scb/cy_scb_common.h **** *
1223:Generated_Source\PSoC6\pdl\drivers\peripheral\scb/cy_scb_common.h **** *******************************************************************************/
1224:Generated_Source\PSoC6\pdl\drivers\peripheral\scb/cy_scb_common.h **** __STATIC_INLINE uint32_t Cy_SCB_GetMasterInterruptStatusMasked(CySCB_Type const *base)
1225:Generated_Source\PSoC6\pdl\drivers\peripheral\scb/cy_scb_common.h **** {
1226:Generated_Source\PSoC6\pdl\drivers\peripheral\scb/cy_scb_common.h ****     return (base->INTR_M_MASKED);
1227:Generated_Source\PSoC6\pdl\drivers\peripheral\scb/cy_scb_common.h **** }
1228:Generated_Source\PSoC6\pdl\drivers\peripheral\scb/cy_scb_common.h **** 
1229:Generated_Source\PSoC6\pdl\drivers\peripheral\scb/cy_scb_common.h **** 
1230:Generated_Source\PSoC6\pdl\drivers\peripheral\scb/cy_scb_common.h **** /*******************************************************************************
1231:Generated_Source\PSoC6\pdl\drivers\peripheral\scb/cy_scb_common.h **** * Function Name: Cy_SCB_ClearMasterInterrupt
1232:Generated_Source\PSoC6\pdl\drivers\peripheral\scb/cy_scb_common.h **** ****************************************************************************//**
1233:Generated_Source\PSoC6\pdl\drivers\peripheral\scb/cy_scb_common.h **** *
1234:Generated_Source\PSoC6\pdl\drivers\peripheral\scb/cy_scb_common.h **** * Clears master interrupt sources in the interrupt request register.
1235:Generated_Source\PSoC6\pdl\drivers\peripheral\scb/cy_scb_common.h **** *
1236:Generated_Source\PSoC6\pdl\drivers\peripheral\scb/cy_scb_common.h **** * \param base
1237:Generated_Source\PSoC6\pdl\drivers\peripheral\scb/cy_scb_common.h **** * The pointer to the SCB instance.
1238:Generated_Source\PSoC6\pdl\drivers\peripheral\scb/cy_scb_common.h **** *
1239:Generated_Source\PSoC6\pdl\drivers\peripheral\scb/cy_scb_common.h **** * \param interruptMask
1240:Generated_Source\PSoC6\pdl\drivers\peripheral\scb/cy_scb_common.h **** * The master interrupt sources to be cleared.
1241:Generated_Source\PSoC6\pdl\drivers\peripheral\scb/cy_scb_common.h **** * See \ref group_scb_common_macros_master_intr for the set of constants.
1242:Generated_Source\PSoC6\pdl\drivers\peripheral\scb/cy_scb_common.h **** *
1243:Generated_Source\PSoC6\pdl\drivers\peripheral\scb/cy_scb_common.h **** *******************************************************************************/
1244:Generated_Source\PSoC6\pdl\drivers\peripheral\scb/cy_scb_common.h **** __STATIC_INLINE void Cy_SCB_ClearMasterInterrupt(CySCB_Type *base, uint32_t interruptMask)
1245:Generated_Source\PSoC6\pdl\drivers\peripheral\scb/cy_scb_common.h **** {
1246:Generated_Source\PSoC6\pdl\drivers\peripheral\scb/cy_scb_common.h ****     CY_ASSERT_L2(CY_SCB_IS_INTR_VALID(interruptMask, CY_SCB_MASTER_INTR_MASK));
ARM GAS  C:\Users\ikomb\AppData\Local\Temp\ccqJLUw6.s 			page 26


1247:Generated_Source\PSoC6\pdl\drivers\peripheral\scb/cy_scb_common.h **** 
1248:Generated_Source\PSoC6\pdl\drivers\peripheral\scb/cy_scb_common.h ****     base->INTR_M = interruptMask;
1249:Generated_Source\PSoC6\pdl\drivers\peripheral\scb/cy_scb_common.h ****     (void) base->INTR_M;
1250:Generated_Source\PSoC6\pdl\drivers\peripheral\scb/cy_scb_common.h **** }
1251:Generated_Source\PSoC6\pdl\drivers\peripheral\scb/cy_scb_common.h **** 
1252:Generated_Source\PSoC6\pdl\drivers\peripheral\scb/cy_scb_common.h **** 
1253:Generated_Source\PSoC6\pdl\drivers\peripheral\scb/cy_scb_common.h **** /*******************************************************************************
1254:Generated_Source\PSoC6\pdl\drivers\peripheral\scb/cy_scb_common.h **** * Function Name: Cy_SCB_SetMasterInterrupt
1255:Generated_Source\PSoC6\pdl\drivers\peripheral\scb/cy_scb_common.h **** ****************************************************************************//**
1256:Generated_Source\PSoC6\pdl\drivers\peripheral\scb/cy_scb_common.h **** *
1257:Generated_Source\PSoC6\pdl\drivers\peripheral\scb/cy_scb_common.h **** * Sets master interrupt sources in the interrupt request register.
1258:Generated_Source\PSoC6\pdl\drivers\peripheral\scb/cy_scb_common.h **** *
1259:Generated_Source\PSoC6\pdl\drivers\peripheral\scb/cy_scb_common.h **** * \param base
1260:Generated_Source\PSoC6\pdl\drivers\peripheral\scb/cy_scb_common.h **** * The pointer to the SCB instance.
1261:Generated_Source\PSoC6\pdl\drivers\peripheral\scb/cy_scb_common.h **** *
1262:Generated_Source\PSoC6\pdl\drivers\peripheral\scb/cy_scb_common.h **** * \param interruptMask
1263:Generated_Source\PSoC6\pdl\drivers\peripheral\scb/cy_scb_common.h **** * The master interrupt sources to set in the master interrupt request register.
1264:Generated_Source\PSoC6\pdl\drivers\peripheral\scb/cy_scb_common.h **** * See \ref group_scb_common_macros_master_intr for the set of constants.
1265:Generated_Source\PSoC6\pdl\drivers\peripheral\scb/cy_scb_common.h **** *
1266:Generated_Source\PSoC6\pdl\drivers\peripheral\scb/cy_scb_common.h **** *******************************************************************************/
1267:Generated_Source\PSoC6\pdl\drivers\peripheral\scb/cy_scb_common.h **** __STATIC_INLINE void Cy_SCB_SetMasterInterrupt(CySCB_Type *base, uint32_t interruptMask)
1268:Generated_Source\PSoC6\pdl\drivers\peripheral\scb/cy_scb_common.h **** {
1269:Generated_Source\PSoC6\pdl\drivers\peripheral\scb/cy_scb_common.h ****     CY_ASSERT_L2(CY_SCB_IS_INTR_VALID(interruptMask, CY_SCB_MASTER_INTR_MASK));
1270:Generated_Source\PSoC6\pdl\drivers\peripheral\scb/cy_scb_common.h **** 
1271:Generated_Source\PSoC6\pdl\drivers\peripheral\scb/cy_scb_common.h ****     base->INTR_M_SET = interruptMask;
1272:Generated_Source\PSoC6\pdl\drivers\peripheral\scb/cy_scb_common.h **** }
1273:Generated_Source\PSoC6\pdl\drivers\peripheral\scb/cy_scb_common.h **** 
1274:Generated_Source\PSoC6\pdl\drivers\peripheral\scb/cy_scb_common.h **** 
1275:Generated_Source\PSoC6\pdl\drivers\peripheral\scb/cy_scb_common.h **** /*******************************************************************************
1276:Generated_Source\PSoC6\pdl\drivers\peripheral\scb/cy_scb_common.h **** * Function Name: Cy_SCB_GetSlaveInterruptStatus
1277:Generated_Source\PSoC6\pdl\drivers\peripheral\scb/cy_scb_common.h **** ****************************************************************************//**
1278:Generated_Source\PSoC6\pdl\drivers\peripheral\scb/cy_scb_common.h **** *
1279:Generated_Source\PSoC6\pdl\drivers\peripheral\scb/cy_scb_common.h **** * Returns the slave interrupt request register. This register contains the current
1280:Generated_Source\PSoC6\pdl\drivers\peripheral\scb/cy_scb_common.h **** * status of the slave interrupt sources.
1281:Generated_Source\PSoC6\pdl\drivers\peripheral\scb/cy_scb_common.h **** *
1282:Generated_Source\PSoC6\pdl\drivers\peripheral\scb/cy_scb_common.h **** * \param base
1283:Generated_Source\PSoC6\pdl\drivers\peripheral\scb/cy_scb_common.h **** * The pointer to the SCB instance.
1284:Generated_Source\PSoC6\pdl\drivers\peripheral\scb/cy_scb_common.h **** *
1285:Generated_Source\PSoC6\pdl\drivers\peripheral\scb/cy_scb_common.h **** * \return
1286:Generated_Source\PSoC6\pdl\drivers\peripheral\scb/cy_scb_common.h **** * The current status of the slave interrupt sources.
1287:Generated_Source\PSoC6\pdl\drivers\peripheral\scb/cy_scb_common.h **** * Each constant is a bit field value. The value returned may have multiple
1288:Generated_Source\PSoC6\pdl\drivers\peripheral\scb/cy_scb_common.h **** * bits set to indicate the current status.
1289:Generated_Source\PSoC6\pdl\drivers\peripheral\scb/cy_scb_common.h **** * See \ref group_scb_common_macros_slave_intr for the set of constants.
1290:Generated_Source\PSoC6\pdl\drivers\peripheral\scb/cy_scb_common.h **** *
1291:Generated_Source\PSoC6\pdl\drivers\peripheral\scb/cy_scb_common.h **** *******************************************************************************/
1292:Generated_Source\PSoC6\pdl\drivers\peripheral\scb/cy_scb_common.h **** __STATIC_INLINE uint32_t Cy_SCB_GetSlaveInterruptStatus(CySCB_Type const *base)
1293:Generated_Source\PSoC6\pdl\drivers\peripheral\scb/cy_scb_common.h **** {
1294:Generated_Source\PSoC6\pdl\drivers\peripheral\scb/cy_scb_common.h ****     return (base->INTR_S & CY_SCB_SLAVE_INTR_MASK);
1295:Generated_Source\PSoC6\pdl\drivers\peripheral\scb/cy_scb_common.h **** }
1296:Generated_Source\PSoC6\pdl\drivers\peripheral\scb/cy_scb_common.h **** 
1297:Generated_Source\PSoC6\pdl\drivers\peripheral\scb/cy_scb_common.h **** 
1298:Generated_Source\PSoC6\pdl\drivers\peripheral\scb/cy_scb_common.h **** /*******************************************************************************
1299:Generated_Source\PSoC6\pdl\drivers\peripheral\scb/cy_scb_common.h **** * Function Name: Cy_SCB_SetSlaveInterruptMask
1300:Generated_Source\PSoC6\pdl\drivers\peripheral\scb/cy_scb_common.h **** ****************************************************************************//**
1301:Generated_Source\PSoC6\pdl\drivers\peripheral\scb/cy_scb_common.h **** *
1302:Generated_Source\PSoC6\pdl\drivers\peripheral\scb/cy_scb_common.h **** * Writes slave interrupt mask register.
1303:Generated_Source\PSoC6\pdl\drivers\peripheral\scb/cy_scb_common.h **** * This register specifies which bits from the slave interrupt request register
ARM GAS  C:\Users\ikomb\AppData\Local\Temp\ccqJLUw6.s 			page 27


1304:Generated_Source\PSoC6\pdl\drivers\peripheral\scb/cy_scb_common.h **** * can trigger an interrupt event.
1305:Generated_Source\PSoC6\pdl\drivers\peripheral\scb/cy_scb_common.h **** *
1306:Generated_Source\PSoC6\pdl\drivers\peripheral\scb/cy_scb_common.h **** * \param base
1307:Generated_Source\PSoC6\pdl\drivers\peripheral\scb/cy_scb_common.h **** * The pointer to the SCB instance.
1308:Generated_Source\PSoC6\pdl\drivers\peripheral\scb/cy_scb_common.h **** *
1309:Generated_Source\PSoC6\pdl\drivers\peripheral\scb/cy_scb_common.h **** * \param interruptMask
1310:Generated_Source\PSoC6\pdl\drivers\peripheral\scb/cy_scb_common.h **** * Enabled slave interrupt sources.
1311:Generated_Source\PSoC6\pdl\drivers\peripheral\scb/cy_scb_common.h **** * See \ref group_scb_common_macros_slave_intr for the set of constants.
1312:Generated_Source\PSoC6\pdl\drivers\peripheral\scb/cy_scb_common.h **** *
1313:Generated_Source\PSoC6\pdl\drivers\peripheral\scb/cy_scb_common.h **** *******************************************************************************/
1314:Generated_Source\PSoC6\pdl\drivers\peripheral\scb/cy_scb_common.h **** __STATIC_INLINE void Cy_SCB_SetSlaveInterruptMask(CySCB_Type *base, uint32_t interruptMask)
1315:Generated_Source\PSoC6\pdl\drivers\peripheral\scb/cy_scb_common.h **** {
1316:Generated_Source\PSoC6\pdl\drivers\peripheral\scb/cy_scb_common.h ****     CY_ASSERT_L2(CY_SCB_IS_INTR_VALID(interruptMask, CY_SCB_SLAVE_INTR_MASK));
1317:Generated_Source\PSoC6\pdl\drivers\peripheral\scb/cy_scb_common.h **** 
1318:Generated_Source\PSoC6\pdl\drivers\peripheral\scb/cy_scb_common.h ****     base->INTR_S_MASK = interruptMask;
1319:Generated_Source\PSoC6\pdl\drivers\peripheral\scb/cy_scb_common.h **** }
1320:Generated_Source\PSoC6\pdl\drivers\peripheral\scb/cy_scb_common.h **** 
1321:Generated_Source\PSoC6\pdl\drivers\peripheral\scb/cy_scb_common.h **** 
1322:Generated_Source\PSoC6\pdl\drivers\peripheral\scb/cy_scb_common.h **** /*******************************************************************************
1323:Generated_Source\PSoC6\pdl\drivers\peripheral\scb/cy_scb_common.h **** * Function Name: Cy_SCB_GetSlaveInterruptMask
1324:Generated_Source\PSoC6\pdl\drivers\peripheral\scb/cy_scb_common.h **** ****************************************************************************//**
1325:Generated_Source\PSoC6\pdl\drivers\peripheral\scb/cy_scb_common.h **** *
1326:Generated_Source\PSoC6\pdl\drivers\peripheral\scb/cy_scb_common.h **** * Returns the slave interrupt mask register.
1327:Generated_Source\PSoC6\pdl\drivers\peripheral\scb/cy_scb_common.h **** * This register specifies which bits from the slave interrupt request register
1328:Generated_Source\PSoC6\pdl\drivers\peripheral\scb/cy_scb_common.h **** * can trigger an interrupt event.
1329:Generated_Source\PSoC6\pdl\drivers\peripheral\scb/cy_scb_common.h **** *
1330:Generated_Source\PSoC6\pdl\drivers\peripheral\scb/cy_scb_common.h **** * \param base
1331:Generated_Source\PSoC6\pdl\drivers\peripheral\scb/cy_scb_common.h **** * The pointer to the SCB instance.
1332:Generated_Source\PSoC6\pdl\drivers\peripheral\scb/cy_scb_common.h **** *
1333:Generated_Source\PSoC6\pdl\drivers\peripheral\scb/cy_scb_common.h **** * \return
1334:Generated_Source\PSoC6\pdl\drivers\peripheral\scb/cy_scb_common.h **** * Enabled slave interrupt sources.
1335:Generated_Source\PSoC6\pdl\drivers\peripheral\scb/cy_scb_common.h **** * See \ref group_scb_common_macros_slave_intr for the set of constants.
1336:Generated_Source\PSoC6\pdl\drivers\peripheral\scb/cy_scb_common.h **** *
1337:Generated_Source\PSoC6\pdl\drivers\peripheral\scb/cy_scb_common.h **** *******************************************************************************/
1338:Generated_Source\PSoC6\pdl\drivers\peripheral\scb/cy_scb_common.h **** __STATIC_INLINE uint32_t Cy_SCB_GetSlaveInterruptMask(CySCB_Type const *base)
1339:Generated_Source\PSoC6\pdl\drivers\peripheral\scb/cy_scb_common.h **** {
1340:Generated_Source\PSoC6\pdl\drivers\peripheral\scb/cy_scb_common.h ****     return (base->INTR_S_MASK);
1341:Generated_Source\PSoC6\pdl\drivers\peripheral\scb/cy_scb_common.h **** }
1342:Generated_Source\PSoC6\pdl\drivers\peripheral\scb/cy_scb_common.h **** 
1343:Generated_Source\PSoC6\pdl\drivers\peripheral\scb/cy_scb_common.h **** 
1344:Generated_Source\PSoC6\pdl\drivers\peripheral\scb/cy_scb_common.h **** /*******************************************************************************
1345:Generated_Source\PSoC6\pdl\drivers\peripheral\scb/cy_scb_common.h **** * Function Name: Cy_SCB_GetSlaveInterruptStatusMasked
1346:Generated_Source\PSoC6\pdl\drivers\peripheral\scb/cy_scb_common.h **** ****************************************************************************//**
1347:Generated_Source\PSoC6\pdl\drivers\peripheral\scb/cy_scb_common.h **** *
1348:Generated_Source\PSoC6\pdl\drivers\peripheral\scb/cy_scb_common.h **** * Returns the slave interrupt masked request register. This register contains a
1349:Generated_Source\PSoC6\pdl\drivers\peripheral\scb/cy_scb_common.h **** * logical AND of corresponding bits from the slave interrupt request and mask
1350:Generated_Source\PSoC6\pdl\drivers\peripheral\scb/cy_scb_common.h **** * registers.
1351:Generated_Source\PSoC6\pdl\drivers\peripheral\scb/cy_scb_common.h **** * This function is intended to be used in the interrupt service routine to
1352:Generated_Source\PSoC6\pdl\drivers\peripheral\scb/cy_scb_common.h **** * identify which of enabled slave interrupt sources caused the interrupt
1353:Generated_Source\PSoC6\pdl\drivers\peripheral\scb/cy_scb_common.h **** * event.
1354:Generated_Source\PSoC6\pdl\drivers\peripheral\scb/cy_scb_common.h **** *
1355:Generated_Source\PSoC6\pdl\drivers\peripheral\scb/cy_scb_common.h **** * \param base
1356:Generated_Source\PSoC6\pdl\drivers\peripheral\scb/cy_scb_common.h **** * The pointer to the SCB instance.
1357:Generated_Source\PSoC6\pdl\drivers\peripheral\scb/cy_scb_common.h **** *
1358:Generated_Source\PSoC6\pdl\drivers\peripheral\scb/cy_scb_common.h **** * \return
1359:Generated_Source\PSoC6\pdl\drivers\peripheral\scb/cy_scb_common.h **** * The current status of enabled slave interrupt sources.
1360:Generated_Source\PSoC6\pdl\drivers\peripheral\scb/cy_scb_common.h **** * See \ref group_scb_common_macros_slave_intr for the set of constants.
ARM GAS  C:\Users\ikomb\AppData\Local\Temp\ccqJLUw6.s 			page 28


1361:Generated_Source\PSoC6\pdl\drivers\peripheral\scb/cy_scb_common.h **** *
1362:Generated_Source\PSoC6\pdl\drivers\peripheral\scb/cy_scb_common.h **** *******************************************************************************/
1363:Generated_Source\PSoC6\pdl\drivers\peripheral\scb/cy_scb_common.h **** __STATIC_INLINE uint32_t Cy_SCB_GetSlaveInterruptStatusMasked(CySCB_Type const *base)
1364:Generated_Source\PSoC6\pdl\drivers\peripheral\scb/cy_scb_common.h **** {
1365:Generated_Source\PSoC6\pdl\drivers\peripheral\scb/cy_scb_common.h ****     return (base->INTR_S_MASKED);
1366:Generated_Source\PSoC6\pdl\drivers\peripheral\scb/cy_scb_common.h **** }
1367:Generated_Source\PSoC6\pdl\drivers\peripheral\scb/cy_scb_common.h **** 
1368:Generated_Source\PSoC6\pdl\drivers\peripheral\scb/cy_scb_common.h **** 
1369:Generated_Source\PSoC6\pdl\drivers\peripheral\scb/cy_scb_common.h **** /*******************************************************************************
1370:Generated_Source\PSoC6\pdl\drivers\peripheral\scb/cy_scb_common.h **** * Function Name: Cy_SCB_ClearSlaveInterrupt
1371:Generated_Source\PSoC6\pdl\drivers\peripheral\scb/cy_scb_common.h **** ****************************************************************************//**
1372:Generated_Source\PSoC6\pdl\drivers\peripheral\scb/cy_scb_common.h **** *
1373:Generated_Source\PSoC6\pdl\drivers\peripheral\scb/cy_scb_common.h **** * Clears the slave interrupt sources in the interrupt request register.
1374:Generated_Source\PSoC6\pdl\drivers\peripheral\scb/cy_scb_common.h **** *
1375:Generated_Source\PSoC6\pdl\drivers\peripheral\scb/cy_scb_common.h **** * \param base
1376:Generated_Source\PSoC6\pdl\drivers\peripheral\scb/cy_scb_common.h **** * The pointer to the SCB instance.
1377:Generated_Source\PSoC6\pdl\drivers\peripheral\scb/cy_scb_common.h **** *
1378:Generated_Source\PSoC6\pdl\drivers\peripheral\scb/cy_scb_common.h **** * \param interruptMask
1379:Generated_Source\PSoC6\pdl\drivers\peripheral\scb/cy_scb_common.h **** * Slave interrupt sources to be cleared.
1380:Generated_Source\PSoC6\pdl\drivers\peripheral\scb/cy_scb_common.h **** * See \ref group_scb_common_macros_slave_intr for the set of constants.
1381:Generated_Source\PSoC6\pdl\drivers\peripheral\scb/cy_scb_common.h **** *
1382:Generated_Source\PSoC6\pdl\drivers\peripheral\scb/cy_scb_common.h **** *******************************************************************************/
1383:Generated_Source\PSoC6\pdl\drivers\peripheral\scb/cy_scb_common.h **** __STATIC_INLINE void Cy_SCB_ClearSlaveInterrupt(CySCB_Type *base, uint32_t interruptMask)
1384:Generated_Source\PSoC6\pdl\drivers\peripheral\scb/cy_scb_common.h **** {
1385:Generated_Source\PSoC6\pdl\drivers\peripheral\scb/cy_scb_common.h ****     CY_ASSERT_L2(CY_SCB_IS_INTR_VALID(interruptMask, CY_SCB_SLAVE_INTR_MASK));
1386:Generated_Source\PSoC6\pdl\drivers\peripheral\scb/cy_scb_common.h **** 
1387:Generated_Source\PSoC6\pdl\drivers\peripheral\scb/cy_scb_common.h ****     base->INTR_S = interruptMask;
1388:Generated_Source\PSoC6\pdl\drivers\peripheral\scb/cy_scb_common.h ****     (void) base->INTR_S;
1389:Generated_Source\PSoC6\pdl\drivers\peripheral\scb/cy_scb_common.h **** }
1390:Generated_Source\PSoC6\pdl\drivers\peripheral\scb/cy_scb_common.h **** 
1391:Generated_Source\PSoC6\pdl\drivers\peripheral\scb/cy_scb_common.h **** 
1392:Generated_Source\PSoC6\pdl\drivers\peripheral\scb/cy_scb_common.h **** /*******************************************************************************
1393:Generated_Source\PSoC6\pdl\drivers\peripheral\scb/cy_scb_common.h **** * Function Name: Cy_SCB_SetSlaveInterrupt
1394:Generated_Source\PSoC6\pdl\drivers\peripheral\scb/cy_scb_common.h **** ****************************************************************************//**
1395:Generated_Source\PSoC6\pdl\drivers\peripheral\scb/cy_scb_common.h **** *
1396:Generated_Source\PSoC6\pdl\drivers\peripheral\scb/cy_scb_common.h **** * Sets slave interrupt sources in the interrupt request register.
1397:Generated_Source\PSoC6\pdl\drivers\peripheral\scb/cy_scb_common.h **** *
1398:Generated_Source\PSoC6\pdl\drivers\peripheral\scb/cy_scb_common.h **** * \param base
1399:Generated_Source\PSoC6\pdl\drivers\peripheral\scb/cy_scb_common.h **** * The pointer to the SCB instance.
1400:Generated_Source\PSoC6\pdl\drivers\peripheral\scb/cy_scb_common.h **** *
1401:Generated_Source\PSoC6\pdl\drivers\peripheral\scb/cy_scb_common.h **** * \param interruptMask
1402:Generated_Source\PSoC6\pdl\drivers\peripheral\scb/cy_scb_common.h **** * The slave interrupt sources to set in the slave interrupt request register
1403:Generated_Source\PSoC6\pdl\drivers\peripheral\scb/cy_scb_common.h **** * See \ref group_scb_common_macros_slave_intr for the set of constants.
1404:Generated_Source\PSoC6\pdl\drivers\peripheral\scb/cy_scb_common.h **** *
1405:Generated_Source\PSoC6\pdl\drivers\peripheral\scb/cy_scb_common.h **** *******************************************************************************/
1406:Generated_Source\PSoC6\pdl\drivers\peripheral\scb/cy_scb_common.h **** __STATIC_INLINE void Cy_SCB_SetSlaveInterrupt(CySCB_Type *base, uint32_t interruptMask)
1407:Generated_Source\PSoC6\pdl\drivers\peripheral\scb/cy_scb_common.h **** {
1408:Generated_Source\PSoC6\pdl\drivers\peripheral\scb/cy_scb_common.h ****     CY_ASSERT_L2(CY_SCB_IS_INTR_VALID(interruptMask, CY_SCB_SLAVE_INTR_MASK));
1409:Generated_Source\PSoC6\pdl\drivers\peripheral\scb/cy_scb_common.h **** 
1410:Generated_Source\PSoC6\pdl\drivers\peripheral\scb/cy_scb_common.h ****     base->INTR_S_SET = interruptMask;
1411:Generated_Source\PSoC6\pdl\drivers\peripheral\scb/cy_scb_common.h **** }
1412:Generated_Source\PSoC6\pdl\drivers\peripheral\scb/cy_scb_common.h **** 
1413:Generated_Source\PSoC6\pdl\drivers\peripheral\scb/cy_scb_common.h **** 
1414:Generated_Source\PSoC6\pdl\drivers\peripheral\scb/cy_scb_common.h **** /*******************************************************************************
1415:Generated_Source\PSoC6\pdl\drivers\peripheral\scb/cy_scb_common.h **** * Function Name: Cy_SCB_GetI2CInterruptStatus
1416:Generated_Source\PSoC6\pdl\drivers\peripheral\scb/cy_scb_common.h **** ****************************************************************************//**
1417:Generated_Source\PSoC6\pdl\drivers\peripheral\scb/cy_scb_common.h **** *
ARM GAS  C:\Users\ikomb\AppData\Local\Temp\ccqJLUw6.s 			page 29


1418:Generated_Source\PSoC6\pdl\drivers\peripheral\scb/cy_scb_common.h **** * Returns the I2C interrupt request register. This register contains the
1419:Generated_Source\PSoC6\pdl\drivers\peripheral\scb/cy_scb_common.h **** * current status of the I2C interrupt sources.
1420:Generated_Source\PSoC6\pdl\drivers\peripheral\scb/cy_scb_common.h **** *
1421:Generated_Source\PSoC6\pdl\drivers\peripheral\scb/cy_scb_common.h **** * \param base
1422:Generated_Source\PSoC6\pdl\drivers\peripheral\scb/cy_scb_common.h **** * The pointer to the SCB instance.
1423:Generated_Source\PSoC6\pdl\drivers\peripheral\scb/cy_scb_common.h **** *
1424:Generated_Source\PSoC6\pdl\drivers\peripheral\scb/cy_scb_common.h **** * \return
1425:Generated_Source\PSoC6\pdl\drivers\peripheral\scb/cy_scb_common.h **** * The current status of the I2C interrupt sources. Each constant is a bit
1426:Generated_Source\PSoC6\pdl\drivers\peripheral\scb/cy_scb_common.h **** * field value.
1427:Generated_Source\PSoC6\pdl\drivers\peripheral\scb/cy_scb_common.h **** * The value returned may have multiple bits set to indicate the current status.
1428:Generated_Source\PSoC6\pdl\drivers\peripheral\scb/cy_scb_common.h **** * See \ref group_scb_common_macros_slave_intr for the set of constants.
1429:Generated_Source\PSoC6\pdl\drivers\peripheral\scb/cy_scb_common.h **** *
1430:Generated_Source\PSoC6\pdl\drivers\peripheral\scb/cy_scb_common.h **** *******************************************************************************/
1431:Generated_Source\PSoC6\pdl\drivers\peripheral\scb/cy_scb_common.h **** __STATIC_INLINE uint32_t Cy_SCB_GetI2CInterruptStatus(CySCB_Type const *base)
1432:Generated_Source\PSoC6\pdl\drivers\peripheral\scb/cy_scb_common.h **** {
1433:Generated_Source\PSoC6\pdl\drivers\peripheral\scb/cy_scb_common.h ****     return (base->INTR_I2C_EC & CY_SCB_I2C_INTR_MASK);
1434:Generated_Source\PSoC6\pdl\drivers\peripheral\scb/cy_scb_common.h **** }
1435:Generated_Source\PSoC6\pdl\drivers\peripheral\scb/cy_scb_common.h **** 
1436:Generated_Source\PSoC6\pdl\drivers\peripheral\scb/cy_scb_common.h **** 
1437:Generated_Source\PSoC6\pdl\drivers\peripheral\scb/cy_scb_common.h **** /*******************************************************************************
1438:Generated_Source\PSoC6\pdl\drivers\peripheral\scb/cy_scb_common.h **** * Function Name: Cy_SCB_SetI2CInterruptMask
1439:Generated_Source\PSoC6\pdl\drivers\peripheral\scb/cy_scb_common.h **** ****************************************************************************//**
1440:Generated_Source\PSoC6\pdl\drivers\peripheral\scb/cy_scb_common.h **** *
1441:Generated_Source\PSoC6\pdl\drivers\peripheral\scb/cy_scb_common.h **** * Writes the I2C interrupt mask register. This register specifies which bits
1442:Generated_Source\PSoC6\pdl\drivers\peripheral\scb/cy_scb_common.h **** * from the I2C interrupt request register can trigger an interrupt event.
1443:Generated_Source\PSoC6\pdl\drivers\peripheral\scb/cy_scb_common.h **** *
1444:Generated_Source\PSoC6\pdl\drivers\peripheral\scb/cy_scb_common.h **** * \param base
1445:Generated_Source\PSoC6\pdl\drivers\peripheral\scb/cy_scb_common.h **** * The pointer to the SCB instance.
1446:Generated_Source\PSoC6\pdl\drivers\peripheral\scb/cy_scb_common.h **** *
1447:Generated_Source\PSoC6\pdl\drivers\peripheral\scb/cy_scb_common.h **** * \param interruptMask
1448:Generated_Source\PSoC6\pdl\drivers\peripheral\scb/cy_scb_common.h **** * Enabled I2C interrupt sources.
1449:Generated_Source\PSoC6\pdl\drivers\peripheral\scb/cy_scb_common.h **** * See \ref group_scb_common_macros_i2c_intr for the set of constants.
1450:Generated_Source\PSoC6\pdl\drivers\peripheral\scb/cy_scb_common.h **** *
1451:Generated_Source\PSoC6\pdl\drivers\peripheral\scb/cy_scb_common.h **** *******************************************************************************/
1452:Generated_Source\PSoC6\pdl\drivers\peripheral\scb/cy_scb_common.h **** __STATIC_INLINE void Cy_SCB_SetI2CInterruptMask(CySCB_Type *base, uint32_t interruptMask)
1453:Generated_Source\PSoC6\pdl\drivers\peripheral\scb/cy_scb_common.h **** {
1454:Generated_Source\PSoC6\pdl\drivers\peripheral\scb/cy_scb_common.h ****     CY_ASSERT_L2(CY_SCB_IS_INTR_VALID(interruptMask, CY_SCB_I2C_INTR_MASK));
1455:Generated_Source\PSoC6\pdl\drivers\peripheral\scb/cy_scb_common.h **** 
1456:Generated_Source\PSoC6\pdl\drivers\peripheral\scb/cy_scb_common.h ****     base->INTR_I2C_EC_MASK = interruptMask;
1457:Generated_Source\PSoC6\pdl\drivers\peripheral\scb/cy_scb_common.h **** }
1458:Generated_Source\PSoC6\pdl\drivers\peripheral\scb/cy_scb_common.h **** 
1459:Generated_Source\PSoC6\pdl\drivers\peripheral\scb/cy_scb_common.h **** 
1460:Generated_Source\PSoC6\pdl\drivers\peripheral\scb/cy_scb_common.h **** /*******************************************************************************
1461:Generated_Source\PSoC6\pdl\drivers\peripheral\scb/cy_scb_common.h **** * Function Name: Cy_SCB_GetI2CInterruptMask
1462:Generated_Source\PSoC6\pdl\drivers\peripheral\scb/cy_scb_common.h **** ****************************************************************************//**
1463:Generated_Source\PSoC6\pdl\drivers\peripheral\scb/cy_scb_common.h **** *
1464:Generated_Source\PSoC6\pdl\drivers\peripheral\scb/cy_scb_common.h **** * Returns the I2C interrupt mask register. This register specifies which bits
1465:Generated_Source\PSoC6\pdl\drivers\peripheral\scb/cy_scb_common.h **** * from the I2C interrupt request register can trigger an interrupt event.
1466:Generated_Source\PSoC6\pdl\drivers\peripheral\scb/cy_scb_common.h **** *
1467:Generated_Source\PSoC6\pdl\drivers\peripheral\scb/cy_scb_common.h **** * \param base
1468:Generated_Source\PSoC6\pdl\drivers\peripheral\scb/cy_scb_common.h **** * The pointer to the SCB instance.
1469:Generated_Source\PSoC6\pdl\drivers\peripheral\scb/cy_scb_common.h **** *
1470:Generated_Source\PSoC6\pdl\drivers\peripheral\scb/cy_scb_common.h **** * \return
1471:Generated_Source\PSoC6\pdl\drivers\peripheral\scb/cy_scb_common.h **** * Enabled I2C interrupt sources.
1472:Generated_Source\PSoC6\pdl\drivers\peripheral\scb/cy_scb_common.h **** * See \ref group_scb_common_macros_i2c_intr.
1473:Generated_Source\PSoC6\pdl\drivers\peripheral\scb/cy_scb_common.h **** *
1474:Generated_Source\PSoC6\pdl\drivers\peripheral\scb/cy_scb_common.h **** *******************************************************************************/
ARM GAS  C:\Users\ikomb\AppData\Local\Temp\ccqJLUw6.s 			page 30


1475:Generated_Source\PSoC6\pdl\drivers\peripheral\scb/cy_scb_common.h **** __STATIC_INLINE uint32_t Cy_SCB_GetI2CInterruptMask(CySCB_Type const *base)
1476:Generated_Source\PSoC6\pdl\drivers\peripheral\scb/cy_scb_common.h **** {
1477:Generated_Source\PSoC6\pdl\drivers\peripheral\scb/cy_scb_common.h ****     return (base->INTR_I2C_EC_MASK);
1478:Generated_Source\PSoC6\pdl\drivers\peripheral\scb/cy_scb_common.h **** }
1479:Generated_Source\PSoC6\pdl\drivers\peripheral\scb/cy_scb_common.h **** 
1480:Generated_Source\PSoC6\pdl\drivers\peripheral\scb/cy_scb_common.h **** 
1481:Generated_Source\PSoC6\pdl\drivers\peripheral\scb/cy_scb_common.h **** /*******************************************************************************
1482:Generated_Source\PSoC6\pdl\drivers\peripheral\scb/cy_scb_common.h **** * Function Name: Cy_SCB_GetI2CInterruptStatusMasked
1483:Generated_Source\PSoC6\pdl\drivers\peripheral\scb/cy_scb_common.h **** ****************************************************************************//**
1484:Generated_Source\PSoC6\pdl\drivers\peripheral\scb/cy_scb_common.h **** *
1485:Generated_Source\PSoC6\pdl\drivers\peripheral\scb/cy_scb_common.h **** * Returns the I2C interrupt masked request register. This register contains
1486:Generated_Source\PSoC6\pdl\drivers\peripheral\scb/cy_scb_common.h **** * a logical AND of corresponding bits from I2C interrupt request and mask
1487:Generated_Source\PSoC6\pdl\drivers\peripheral\scb/cy_scb_common.h **** * registers.
1488:Generated_Source\PSoC6\pdl\drivers\peripheral\scb/cy_scb_common.h **** * This function is intended to be used in the interrupt service routine to
1489:Generated_Source\PSoC6\pdl\drivers\peripheral\scb/cy_scb_common.h **** * identify which of enabled I2C interrupt sources caused the interrupt event.
1490:Generated_Source\PSoC6\pdl\drivers\peripheral\scb/cy_scb_common.h **** *
1491:Generated_Source\PSoC6\pdl\drivers\peripheral\scb/cy_scb_common.h **** * \param base
1492:Generated_Source\PSoC6\pdl\drivers\peripheral\scb/cy_scb_common.h **** * The pointer to the SCB instance.
1493:Generated_Source\PSoC6\pdl\drivers\peripheral\scb/cy_scb_common.h **** *
1494:Generated_Source\PSoC6\pdl\drivers\peripheral\scb/cy_scb_common.h **** * \return
1495:Generated_Source\PSoC6\pdl\drivers\peripheral\scb/cy_scb_common.h **** * The current status of enabled I2C interrupt sources.
1496:Generated_Source\PSoC6\pdl\drivers\peripheral\scb/cy_scb_common.h **** * See \ref group_scb_common_macros_i2c_intr for the set of constants.
1497:Generated_Source\PSoC6\pdl\drivers\peripheral\scb/cy_scb_common.h **** *
1498:Generated_Source\PSoC6\pdl\drivers\peripheral\scb/cy_scb_common.h **** *******************************************************************************/
1499:Generated_Source\PSoC6\pdl\drivers\peripheral\scb/cy_scb_common.h **** __STATIC_INLINE uint32_t Cy_SCB_GetI2CInterruptStatusMasked(CySCB_Type const *base)
1500:Generated_Source\PSoC6\pdl\drivers\peripheral\scb/cy_scb_common.h **** {
1501:Generated_Source\PSoC6\pdl\drivers\peripheral\scb/cy_scb_common.h ****     return (base->INTR_I2C_EC_MASKED);
1502:Generated_Source\PSoC6\pdl\drivers\peripheral\scb/cy_scb_common.h **** }
1503:Generated_Source\PSoC6\pdl\drivers\peripheral\scb/cy_scb_common.h **** 
1504:Generated_Source\PSoC6\pdl\drivers\peripheral\scb/cy_scb_common.h **** 
1505:Generated_Source\PSoC6\pdl\drivers\peripheral\scb/cy_scb_common.h **** /*******************************************************************************
1506:Generated_Source\PSoC6\pdl\drivers\peripheral\scb/cy_scb_common.h **** * Function Name: Cy_SCB_ClearI2CInterrupt
1507:Generated_Source\PSoC6\pdl\drivers\peripheral\scb/cy_scb_common.h **** ****************************************************************************//**
1508:Generated_Source\PSoC6\pdl\drivers\peripheral\scb/cy_scb_common.h **** *
1509:Generated_Source\PSoC6\pdl\drivers\peripheral\scb/cy_scb_common.h **** * Clears I2C interrupt sources in the interrupt request register.
1510:Generated_Source\PSoC6\pdl\drivers\peripheral\scb/cy_scb_common.h **** *
1511:Generated_Source\PSoC6\pdl\drivers\peripheral\scb/cy_scb_common.h **** * \param base
1512:Generated_Source\PSoC6\pdl\drivers\peripheral\scb/cy_scb_common.h **** * The pointer to the SCB instance.
1513:Generated_Source\PSoC6\pdl\drivers\peripheral\scb/cy_scb_common.h **** *
1514:Generated_Source\PSoC6\pdl\drivers\peripheral\scb/cy_scb_common.h **** * \param interruptMask
1515:Generated_Source\PSoC6\pdl\drivers\peripheral\scb/cy_scb_common.h **** * The I2C interrupt sources to be cleared.
1516:Generated_Source\PSoC6\pdl\drivers\peripheral\scb/cy_scb_common.h **** * See \ref group_scb_common_macros_i2c_intr for the set of constants.
1517:Generated_Source\PSoC6\pdl\drivers\peripheral\scb/cy_scb_common.h **** *
1518:Generated_Source\PSoC6\pdl\drivers\peripheral\scb/cy_scb_common.h **** *******************************************************************************/
1519:Generated_Source\PSoC6\pdl\drivers\peripheral\scb/cy_scb_common.h **** __STATIC_INLINE void Cy_SCB_ClearI2CInterrupt(CySCB_Type *base, uint32_t interruptMask)
1520:Generated_Source\PSoC6\pdl\drivers\peripheral\scb/cy_scb_common.h **** {
1521:Generated_Source\PSoC6\pdl\drivers\peripheral\scb/cy_scb_common.h ****     CY_ASSERT_L2(CY_SCB_IS_INTR_VALID(interruptMask, CY_SCB_I2C_INTR_MASK));
1522:Generated_Source\PSoC6\pdl\drivers\peripheral\scb/cy_scb_common.h **** 
1523:Generated_Source\PSoC6\pdl\drivers\peripheral\scb/cy_scb_common.h ****     base->INTR_I2C_EC = interruptMask;
1524:Generated_Source\PSoC6\pdl\drivers\peripheral\scb/cy_scb_common.h ****     (void) base->INTR_I2C_EC;
1525:Generated_Source\PSoC6\pdl\drivers\peripheral\scb/cy_scb_common.h **** }
1526:Generated_Source\PSoC6\pdl\drivers\peripheral\scb/cy_scb_common.h **** 
1527:Generated_Source\PSoC6\pdl\drivers\peripheral\scb/cy_scb_common.h **** 
1528:Generated_Source\PSoC6\pdl\drivers\peripheral\scb/cy_scb_common.h **** /*******************************************************************************
1529:Generated_Source\PSoC6\pdl\drivers\peripheral\scb/cy_scb_common.h **** * Function Name: Cy_SCB_GetSpiInterruptStatus
1530:Generated_Source\PSoC6\pdl\drivers\peripheral\scb/cy_scb_common.h **** ****************************************************************************//**
1531:Generated_Source\PSoC6\pdl\drivers\peripheral\scb/cy_scb_common.h **** *
ARM GAS  C:\Users\ikomb\AppData\Local\Temp\ccqJLUw6.s 			page 31


1532:Generated_Source\PSoC6\pdl\drivers\peripheral\scb/cy_scb_common.h **** * Returns the SPI interrupt request register. This register contains the current
1533:Generated_Source\PSoC6\pdl\drivers\peripheral\scb/cy_scb_common.h **** * status of the SPI interrupt sources.
1534:Generated_Source\PSoC6\pdl\drivers\peripheral\scb/cy_scb_common.h **** *
1535:Generated_Source\PSoC6\pdl\drivers\peripheral\scb/cy_scb_common.h **** * \param base
1536:Generated_Source\PSoC6\pdl\drivers\peripheral\scb/cy_scb_common.h **** * The pointer to the SCB instance.
1537:Generated_Source\PSoC6\pdl\drivers\peripheral\scb/cy_scb_common.h **** *
1538:Generated_Source\PSoC6\pdl\drivers\peripheral\scb/cy_scb_common.h **** * \return
1539:Generated_Source\PSoC6\pdl\drivers\peripheral\scb/cy_scb_common.h **** * The current status of SPI interrupt sources. Each constant is a bit field value.
1540:Generated_Source\PSoC6\pdl\drivers\peripheral\scb/cy_scb_common.h **** * The value returned may have multiple bits set to indicate the current status
1541:Generated_Source\PSoC6\pdl\drivers\peripheral\scb/cy_scb_common.h **** * See \ref group_scb_common_macros_SpiIntrStatuses for the set of constants.
1542:Generated_Source\PSoC6\pdl\drivers\peripheral\scb/cy_scb_common.h **** *
1543:Generated_Source\PSoC6\pdl\drivers\peripheral\scb/cy_scb_common.h **** *******************************************************************************/
1544:Generated_Source\PSoC6\pdl\drivers\peripheral\scb/cy_scb_common.h **** __STATIC_INLINE uint32_t Cy_SCB_GetSpiInterruptStatus(CySCB_Type const *base)
1545:Generated_Source\PSoC6\pdl\drivers\peripheral\scb/cy_scb_common.h **** {
1546:Generated_Source\PSoC6\pdl\drivers\peripheral\scb/cy_scb_common.h ****     return (base->INTR_SPI_EC & CY_SCB_SPI_INTR_MASK);
1547:Generated_Source\PSoC6\pdl\drivers\peripheral\scb/cy_scb_common.h **** }
1548:Generated_Source\PSoC6\pdl\drivers\peripheral\scb/cy_scb_common.h **** 
1549:Generated_Source\PSoC6\pdl\drivers\peripheral\scb/cy_scb_common.h **** 
1550:Generated_Source\PSoC6\pdl\drivers\peripheral\scb/cy_scb_common.h **** /*******************************************************************************
1551:Generated_Source\PSoC6\pdl\drivers\peripheral\scb/cy_scb_common.h **** * Function Name: Cy_SCB_SetSpiInterruptMask
1552:Generated_Source\PSoC6\pdl\drivers\peripheral\scb/cy_scb_common.h **** ****************************************************************************//**
1553:Generated_Source\PSoC6\pdl\drivers\peripheral\scb/cy_scb_common.h **** *
1554:Generated_Source\PSoC6\pdl\drivers\peripheral\scb/cy_scb_common.h **** * Writes the SPI interrupt mask register. This register specifies which
1555:Generated_Source\PSoC6\pdl\drivers\peripheral\scb/cy_scb_common.h **** * bits from the SPI interrupt request register can trigger an interrupt event.
1556:Generated_Source\PSoC6\pdl\drivers\peripheral\scb/cy_scb_common.h **** *
1557:Generated_Source\PSoC6\pdl\drivers\peripheral\scb/cy_scb_common.h **** * \param base
1558:Generated_Source\PSoC6\pdl\drivers\peripheral\scb/cy_scb_common.h **** * The pointer to the SCB instance.
1559:Generated_Source\PSoC6\pdl\drivers\peripheral\scb/cy_scb_common.h **** *
1560:Generated_Source\PSoC6\pdl\drivers\peripheral\scb/cy_scb_common.h **** * \param interruptMask
1561:Generated_Source\PSoC6\pdl\drivers\peripheral\scb/cy_scb_common.h **** * Enabled SPI interrupt sources.
1562:Generated_Source\PSoC6\pdl\drivers\peripheral\scb/cy_scb_common.h **** * See \ref group_scb_common_macros_SpiIntrStatuses for the set of constants.
1563:Generated_Source\PSoC6\pdl\drivers\peripheral\scb/cy_scb_common.h **** *
1564:Generated_Source\PSoC6\pdl\drivers\peripheral\scb/cy_scb_common.h **** *******************************************************************************/
1565:Generated_Source\PSoC6\pdl\drivers\peripheral\scb/cy_scb_common.h **** __STATIC_INLINE void Cy_SCB_SetSpiInterruptMask(CySCB_Type *base, uint32_t interruptMask)
1566:Generated_Source\PSoC6\pdl\drivers\peripheral\scb/cy_scb_common.h **** {
1567:Generated_Source\PSoC6\pdl\drivers\peripheral\scb/cy_scb_common.h ****     CY_ASSERT_L2(CY_SCB_IS_INTR_VALID(interruptMask, CY_SCB_SPI_INTR_MASK));
1568:Generated_Source\PSoC6\pdl\drivers\peripheral\scb/cy_scb_common.h **** 
1569:Generated_Source\PSoC6\pdl\drivers\peripheral\scb/cy_scb_common.h ****     base->INTR_SPI_EC_MASK = interruptMask;
1570:Generated_Source\PSoC6\pdl\drivers\peripheral\scb/cy_scb_common.h **** }
1571:Generated_Source\PSoC6\pdl\drivers\peripheral\scb/cy_scb_common.h **** 
1572:Generated_Source\PSoC6\pdl\drivers\peripheral\scb/cy_scb_common.h **** 
1573:Generated_Source\PSoC6\pdl\drivers\peripheral\scb/cy_scb_common.h **** /*******************************************************************************
1574:Generated_Source\PSoC6\pdl\drivers\peripheral\scb/cy_scb_common.h **** * Function Name: Cy_SCB_GetSpiInterruptMask
1575:Generated_Source\PSoC6\pdl\drivers\peripheral\scb/cy_scb_common.h **** ****************************************************************************//**
1576:Generated_Source\PSoC6\pdl\drivers\peripheral\scb/cy_scb_common.h **** *
1577:Generated_Source\PSoC6\pdl\drivers\peripheral\scb/cy_scb_common.h **** * Returns the SPI interrupt mask register. This register specifies which bits
1578:Generated_Source\PSoC6\pdl\drivers\peripheral\scb/cy_scb_common.h **** * from the SPI interrupt request register can trigger an interrupt event.
1579:Generated_Source\PSoC6\pdl\drivers\peripheral\scb/cy_scb_common.h **** *
1580:Generated_Source\PSoC6\pdl\drivers\peripheral\scb/cy_scb_common.h **** * \param base
1581:Generated_Source\PSoC6\pdl\drivers\peripheral\scb/cy_scb_common.h **** * The pointer to the SCB instance.
1582:Generated_Source\PSoC6\pdl\drivers\peripheral\scb/cy_scb_common.h **** *
1583:Generated_Source\PSoC6\pdl\drivers\peripheral\scb/cy_scb_common.h **** * \return
1584:Generated_Source\PSoC6\pdl\drivers\peripheral\scb/cy_scb_common.h **** * Enabled SPI interrupt sources.
1585:Generated_Source\PSoC6\pdl\drivers\peripheral\scb/cy_scb_common.h **** * See \ref group_scb_common_macros_SpiIntrStatuses for the set of constants.
1586:Generated_Source\PSoC6\pdl\drivers\peripheral\scb/cy_scb_common.h **** *
1587:Generated_Source\PSoC6\pdl\drivers\peripheral\scb/cy_scb_common.h **** *******************************************************************************/
1588:Generated_Source\PSoC6\pdl\drivers\peripheral\scb/cy_scb_common.h **** __STATIC_INLINE uint32_t Cy_SCB_GetSpiInterruptMask(CySCB_Type const *base)
ARM GAS  C:\Users\ikomb\AppData\Local\Temp\ccqJLUw6.s 			page 32


1589:Generated_Source\PSoC6\pdl\drivers\peripheral\scb/cy_scb_common.h **** {
1590:Generated_Source\PSoC6\pdl\drivers\peripheral\scb/cy_scb_common.h ****     return (base->INTR_SPI_EC_MASK);
1591:Generated_Source\PSoC6\pdl\drivers\peripheral\scb/cy_scb_common.h **** }
1592:Generated_Source\PSoC6\pdl\drivers\peripheral\scb/cy_scb_common.h **** 
1593:Generated_Source\PSoC6\pdl\drivers\peripheral\scb/cy_scb_common.h **** 
1594:Generated_Source\PSoC6\pdl\drivers\peripheral\scb/cy_scb_common.h **** /*******************************************************************************
1595:Generated_Source\PSoC6\pdl\drivers\peripheral\scb/cy_scb_common.h **** * Function Name: Cy_SCB_GetSpiInterruptStatusMasked
1596:Generated_Source\PSoC6\pdl\drivers\peripheral\scb/cy_scb_common.h **** ****************************************************************************//**
1597:Generated_Source\PSoC6\pdl\drivers\peripheral\scb/cy_scb_common.h **** *
1598:Generated_Source\PSoC6\pdl\drivers\peripheral\scb/cy_scb_common.h **** * Returns the SPI interrupt masked request register. This register contains
1599:Generated_Source\PSoC6\pdl\drivers\peripheral\scb/cy_scb_common.h **** * a logical AND of corresponding bits from the SPI interrupt request and
1600:Generated_Source\PSoC6\pdl\drivers\peripheral\scb/cy_scb_common.h **** * mask registers.
1601:Generated_Source\PSoC6\pdl\drivers\peripheral\scb/cy_scb_common.h **** * This function is intended to be used in the interrupt service routine to
1602:Generated_Source\PSoC6\pdl\drivers\peripheral\scb/cy_scb_common.h **** * identify which of enabled SPI interrupt sources caused the interrupt event.
1603:Generated_Source\PSoC6\pdl\drivers\peripheral\scb/cy_scb_common.h **** *
1604:Generated_Source\PSoC6\pdl\drivers\peripheral\scb/cy_scb_common.h **** * \param base
1605:Generated_Source\PSoC6\pdl\drivers\peripheral\scb/cy_scb_common.h **** * The pointer to the SCB instance.
1606:Generated_Source\PSoC6\pdl\drivers\peripheral\scb/cy_scb_common.h **** *
1607:Generated_Source\PSoC6\pdl\drivers\peripheral\scb/cy_scb_common.h **** * \return
1608:Generated_Source\PSoC6\pdl\drivers\peripheral\scb/cy_scb_common.h **** * The current status of enabled SPI interrupt sources.
1609:Generated_Source\PSoC6\pdl\drivers\peripheral\scb/cy_scb_common.h **** * See \ref group_scb_common_macros_SpiIntrStatuses for the set of constants.
1610:Generated_Source\PSoC6\pdl\drivers\peripheral\scb/cy_scb_common.h **** *
1611:Generated_Source\PSoC6\pdl\drivers\peripheral\scb/cy_scb_common.h **** *******************************************************************************/
1612:Generated_Source\PSoC6\pdl\drivers\peripheral\scb/cy_scb_common.h **** __STATIC_INLINE uint32_t Cy_SCB_GetSpiInterruptStatusMasked(CySCB_Type const *base)
1613:Generated_Source\PSoC6\pdl\drivers\peripheral\scb/cy_scb_common.h **** {
1614:Generated_Source\PSoC6\pdl\drivers\peripheral\scb/cy_scb_common.h ****     return (base->INTR_SPI_EC_MASKED);
1615:Generated_Source\PSoC6\pdl\drivers\peripheral\scb/cy_scb_common.h **** }
1616:Generated_Source\PSoC6\pdl\drivers\peripheral\scb/cy_scb_common.h **** 
1617:Generated_Source\PSoC6\pdl\drivers\peripheral\scb/cy_scb_common.h **** 
1618:Generated_Source\PSoC6\pdl\drivers\peripheral\scb/cy_scb_common.h **** /*******************************************************************************
1619:Generated_Source\PSoC6\pdl\drivers\peripheral\scb/cy_scb_common.h **** * Function Name: Cy_SCB_ClearSpiInterrupt
1620:Generated_Source\PSoC6\pdl\drivers\peripheral\scb/cy_scb_common.h **** ****************************************************************************//**
1621:Generated_Source\PSoC6\pdl\drivers\peripheral\scb/cy_scb_common.h **** *
1622:Generated_Source\PSoC6\pdl\drivers\peripheral\scb/cy_scb_common.h **** * Clears SPI interrupt sources in the interrupt request register.
1623:Generated_Source\PSoC6\pdl\drivers\peripheral\scb/cy_scb_common.h **** *
1624:Generated_Source\PSoC6\pdl\drivers\peripheral\scb/cy_scb_common.h **** * \param base
1625:Generated_Source\PSoC6\pdl\drivers\peripheral\scb/cy_scb_common.h **** * The pointer to the SCB instance.
1626:Generated_Source\PSoC6\pdl\drivers\peripheral\scb/cy_scb_common.h **** *
1627:Generated_Source\PSoC6\pdl\drivers\peripheral\scb/cy_scb_common.h **** * \param interruptMask
1628:Generated_Source\PSoC6\pdl\drivers\peripheral\scb/cy_scb_common.h **** * The SPI interrupt sources to be cleared.
1629:Generated_Source\PSoC6\pdl\drivers\peripheral\scb/cy_scb_common.h **** * See \ref group_scb_common_macros_SpiIntrStatuses for the set of constants.
1630:Generated_Source\PSoC6\pdl\drivers\peripheral\scb/cy_scb_common.h **** *
1631:Generated_Source\PSoC6\pdl\drivers\peripheral\scb/cy_scb_common.h **** *******************************************************************************/
1632:Generated_Source\PSoC6\pdl\drivers\peripheral\scb/cy_scb_common.h **** __STATIC_INLINE void Cy_SCB_ClearSpiInterrupt(CySCB_Type *base, uint32_t interruptMask)
1633:Generated_Source\PSoC6\pdl\drivers\peripheral\scb/cy_scb_common.h **** {
1634:Generated_Source\PSoC6\pdl\drivers\peripheral\scb/cy_scb_common.h ****     CY_ASSERT_L2(CY_SCB_IS_INTR_VALID(interruptMask, CY_SCB_SPI_INTR_MASK));
1635:Generated_Source\PSoC6\pdl\drivers\peripheral\scb/cy_scb_common.h **** 
1636:Generated_Source\PSoC6\pdl\drivers\peripheral\scb/cy_scb_common.h ****     base->INTR_SPI_EC = interruptMask;
1637:Generated_Source\PSoC6\pdl\drivers\peripheral\scb/cy_scb_common.h ****     (void) base->INTR_SPI_EC;
1638:Generated_Source\PSoC6\pdl\drivers\peripheral\scb/cy_scb_common.h **** }
1639:Generated_Source\PSoC6\pdl\drivers\peripheral\scb/cy_scb_common.h **** 
1640:Generated_Source\PSoC6\pdl\drivers\peripheral\scb/cy_scb_common.h **** /** \cond INTERNAL */
1641:Generated_Source\PSoC6\pdl\drivers\peripheral\scb/cy_scb_common.h **** /*******************************************************************************
1642:Generated_Source\PSoC6\pdl\drivers\peripheral\scb/cy_scb_common.h **** * Function Name: Cy_SCB_GetFifoSize
1643:Generated_Source\PSoC6\pdl\drivers\peripheral\scb/cy_scb_common.h **** ****************************************************************************//**
1644:Generated_Source\PSoC6\pdl\drivers\peripheral\scb/cy_scb_common.h **** *
1645:Generated_Source\PSoC6\pdl\drivers\peripheral\scb/cy_scb_common.h **** * Returns the RX and TX FIFO depth.
ARM GAS  C:\Users\ikomb\AppData\Local\Temp\ccqJLUw6.s 			page 33


1646:Generated_Source\PSoC6\pdl\drivers\peripheral\scb/cy_scb_common.h **** *
1647:Generated_Source\PSoC6\pdl\drivers\peripheral\scb/cy_scb_common.h **** * \param base
1648:Generated_Source\PSoC6\pdl\drivers\peripheral\scb/cy_scb_common.h **** * The pointer to the SCB instance.
1649:Generated_Source\PSoC6\pdl\drivers\peripheral\scb/cy_scb_common.h **** *
1650:Generated_Source\PSoC6\pdl\drivers\peripheral\scb/cy_scb_common.h **** * \return
1651:Generated_Source\PSoC6\pdl\drivers\peripheral\scb/cy_scb_common.h **** * FIFO depth.
1652:Generated_Source\PSoC6\pdl\drivers\peripheral\scb/cy_scb_common.h **** *
1653:Generated_Source\PSoC6\pdl\drivers\peripheral\scb/cy_scb_common.h **** *******************************************************************************/
1654:Generated_Source\PSoC6\pdl\drivers\peripheral\scb/cy_scb_common.h **** __STATIC_INLINE uint32_t Cy_SCB_GetFifoSize(CySCB_Type const *base)
1655:Generated_Source\PSoC6\pdl\drivers\peripheral\scb/cy_scb_common.h **** {
 180              		.loc 1 1655 0
 181              		.cfi_startproc
 182              		@ args = 0, pretend = 0, frame = 8
 183              		@ frame_needed = 1, uses_anonymous_args = 0
 184              		@ link register save eliminated.
 185 0000 80B4     		push	{r7}
 186              		.cfi_def_cfa_offset 4
 187              		.cfi_offset 7, -4
 188 0002 83B0     		sub	sp, sp, #12
 189              		.cfi_def_cfa_offset 16
 190 0004 00AF     		add	r7, sp, #0
 191              		.cfi_def_cfa_register 7
 192 0006 7860     		str	r0, [r7, #4]
1656:Generated_Source\PSoC6\pdl\drivers\peripheral\scb/cy_scb_common.h ****     return (_FLD2BOOL(SCB_CTRL_BYTE_MODE, base->CTRL) ?
 193              		.loc 1 1656 0
 194 0008 7B68     		ldr	r3, [r7, #4]
 195 000a 1B68     		ldr	r3, [r3]
 196 000c 03F40063 		and	r3, r3, #2048
1657:Generated_Source\PSoC6\pdl\drivers\peripheral\scb/cy_scb_common.h ****                 (CY_SCB_FIFO_SIZE(base)) : (CY_SCB_FIFO_SIZE(base) / 2UL));
 197              		.loc 1 1657 0
 198 0010 002B     		cmp	r3, #0
 199 0012 01D0     		beq	.L9
 200              		.loc 1 1657 0 is_stmt 0 discriminator 1
 201 0014 8023     		movs	r3, #128
1656:Generated_Source\PSoC6\pdl\drivers\peripheral\scb/cy_scb_common.h ****     return (_FLD2BOOL(SCB_CTRL_BYTE_MODE, base->CTRL) ?
 202              		.loc 1 1656 0 is_stmt 1 discriminator 1
 203 0016 00E0     		b	.L11
 204              	.L9:
 205              		.loc 1 1657 0 discriminator 2
 206 0018 4023     		movs	r3, #64
 207              	.L11:
1658:Generated_Source\PSoC6\pdl\drivers\peripheral\scb/cy_scb_common.h **** }
 208              		.loc 1 1658 0 discriminator 1
 209 001a 1846     		mov	r0, r3
 210 001c 0C37     		adds	r7, r7, #12
 211              		.cfi_def_cfa_offset 4
 212 001e BD46     		mov	sp, r7
 213              		.cfi_def_cfa_register 13
 214              		@ sp needed
 215 0020 5DF8047B 		ldr	r7, [sp], #4
 216              		.cfi_restore 7
 217              		.cfi_def_cfa_offset 0
 218 0024 7047     		bx	lr
 219              		.cfi_endproc
 220              	.LFE205:
 221              		.size	Cy_SCB_GetFifoSize, .-Cy_SCB_GetFifoSize
 222 0026 00BF     		.section	.text.Cy_SCB_IsRxDataWidthByte,"ax",%progbits
ARM GAS  C:\Users\ikomb\AppData\Local\Temp\ccqJLUw6.s 			page 34


 223              		.align	2
 224              		.thumb
 225              		.thumb_func
 226              		.type	Cy_SCB_IsRxDataWidthByte, %function
 227              	Cy_SCB_IsRxDataWidthByte:
 228              	.LFB206:
1659:Generated_Source\PSoC6\pdl\drivers\peripheral\scb/cy_scb_common.h **** 
1660:Generated_Source\PSoC6\pdl\drivers\peripheral\scb/cy_scb_common.h **** 
1661:Generated_Source\PSoC6\pdl\drivers\peripheral\scb/cy_scb_common.h **** /*******************************************************************************
1662:Generated_Source\PSoC6\pdl\drivers\peripheral\scb/cy_scb_common.h **** * Function Name: Cy_SCB_IsRxDataWidthByte
1663:Generated_Source\PSoC6\pdl\drivers\peripheral\scb/cy_scb_common.h **** ****************************************************************************//**
1664:Generated_Source\PSoC6\pdl\drivers\peripheral\scb/cy_scb_common.h **** *
1665:Generated_Source\PSoC6\pdl\drivers\peripheral\scb/cy_scb_common.h **** * Returns true if the RX data width is a byte (8 bits).
1666:Generated_Source\PSoC6\pdl\drivers\peripheral\scb/cy_scb_common.h **** *
1667:Generated_Source\PSoC6\pdl\drivers\peripheral\scb/cy_scb_common.h **** * \param base
1668:Generated_Source\PSoC6\pdl\drivers\peripheral\scb/cy_scb_common.h **** * The pointer to the SCB instance.
1669:Generated_Source\PSoC6\pdl\drivers\peripheral\scb/cy_scb_common.h **** *
1670:Generated_Source\PSoC6\pdl\drivers\peripheral\scb/cy_scb_common.h **** * \return
1671:Generated_Source\PSoC6\pdl\drivers\peripheral\scb/cy_scb_common.h **** * True if the RX data width is a byte (8 bits).
1672:Generated_Source\PSoC6\pdl\drivers\peripheral\scb/cy_scb_common.h **** *
1673:Generated_Source\PSoC6\pdl\drivers\peripheral\scb/cy_scb_common.h **** *******************************************************************************/
1674:Generated_Source\PSoC6\pdl\drivers\peripheral\scb/cy_scb_common.h **** __STATIC_INLINE bool Cy_SCB_IsRxDataWidthByte(CySCB_Type const *base)
1675:Generated_Source\PSoC6\pdl\drivers\peripheral\scb/cy_scb_common.h **** {
 229              		.loc 1 1675 0
 230              		.cfi_startproc
 231              		@ args = 0, pretend = 0, frame = 8
 232              		@ frame_needed = 1, uses_anonymous_args = 0
 233              		@ link register save eliminated.
 234 0000 80B4     		push	{r7}
 235              		.cfi_def_cfa_offset 4
 236              		.cfi_offset 7, -4
 237 0002 83B0     		sub	sp, sp, #12
 238              		.cfi_def_cfa_offset 16
 239 0004 00AF     		add	r7, sp, #0
 240              		.cfi_def_cfa_register 7
 241 0006 7860     		str	r0, [r7, #4]
1676:Generated_Source\PSoC6\pdl\drivers\peripheral\scb/cy_scb_common.h ****     return (_FLD2VAL(SCB_RX_CTRL_DATA_WIDTH, base->RX_CTRL) < CY_SCB_BYTE_WIDTH);
 242              		.loc 1 1676 0
 243 0008 7B68     		ldr	r3, [r7, #4]
 244 000a D3F80033 		ldr	r3, [r3, #768]
 245 000e 03F00F03 		and	r3, r3, #15
 246 0012 072B     		cmp	r3, #7
 247 0014 94BF     		ite	ls
 248 0016 0123     		movls	r3, #1
 249 0018 0023     		movhi	r3, #0
 250 001a DBB2     		uxtb	r3, r3
1677:Generated_Source\PSoC6\pdl\drivers\peripheral\scb/cy_scb_common.h **** }
 251              		.loc 1 1677 0
 252 001c 1846     		mov	r0, r3
 253 001e 0C37     		adds	r7, r7, #12
 254              		.cfi_def_cfa_offset 4
 255 0020 BD46     		mov	sp, r7
 256              		.cfi_def_cfa_register 13
 257              		@ sp needed
 258 0022 5DF8047B 		ldr	r7, [sp], #4
 259              		.cfi_restore 7
 260              		.cfi_def_cfa_offset 0
ARM GAS  C:\Users\ikomb\AppData\Local\Temp\ccqJLUw6.s 			page 35


 261 0026 7047     		bx	lr
 262              		.cfi_endproc
 263              	.LFE206:
 264              		.size	Cy_SCB_IsRxDataWidthByte, .-Cy_SCB_IsRxDataWidthByte
 265              		.section	.text.Cy_SCB_IsTxDataWidthByte,"ax",%progbits
 266              		.align	2
 267              		.thumb
 268              		.thumb_func
 269              		.type	Cy_SCB_IsTxDataWidthByte, %function
 270              	Cy_SCB_IsTxDataWidthByte:
 271              	.LFB207:
1678:Generated_Source\PSoC6\pdl\drivers\peripheral\scb/cy_scb_common.h **** 
1679:Generated_Source\PSoC6\pdl\drivers\peripheral\scb/cy_scb_common.h **** 
1680:Generated_Source\PSoC6\pdl\drivers\peripheral\scb/cy_scb_common.h **** /*******************************************************************************
1681:Generated_Source\PSoC6\pdl\drivers\peripheral\scb/cy_scb_common.h **** * Function Name: Cy_SCB_IsTxDataWidthByte
1682:Generated_Source\PSoC6\pdl\drivers\peripheral\scb/cy_scb_common.h **** ****************************************************************************//**
1683:Generated_Source\PSoC6\pdl\drivers\peripheral\scb/cy_scb_common.h **** *
1684:Generated_Source\PSoC6\pdl\drivers\peripheral\scb/cy_scb_common.h **** * Returns true if the TX data width is a byte (8 bits).
1685:Generated_Source\PSoC6\pdl\drivers\peripheral\scb/cy_scb_common.h **** *
1686:Generated_Source\PSoC6\pdl\drivers\peripheral\scb/cy_scb_common.h **** * \param base
1687:Generated_Source\PSoC6\pdl\drivers\peripheral\scb/cy_scb_common.h **** * The pointer to the SCB instance.
1688:Generated_Source\PSoC6\pdl\drivers\peripheral\scb/cy_scb_common.h **** *
1689:Generated_Source\PSoC6\pdl\drivers\peripheral\scb/cy_scb_common.h **** * \return
1690:Generated_Source\PSoC6\pdl\drivers\peripheral\scb/cy_scb_common.h **** * If true, the TX data width is a byte (8 bits). Otherwise, false.
1691:Generated_Source\PSoC6\pdl\drivers\peripheral\scb/cy_scb_common.h **** *
1692:Generated_Source\PSoC6\pdl\drivers\peripheral\scb/cy_scb_common.h **** *******************************************************************************/
1693:Generated_Source\PSoC6\pdl\drivers\peripheral\scb/cy_scb_common.h **** __STATIC_INLINE bool Cy_SCB_IsTxDataWidthByte(CySCB_Type const *base)
1694:Generated_Source\PSoC6\pdl\drivers\peripheral\scb/cy_scb_common.h **** {
 272              		.loc 1 1694 0
 273              		.cfi_startproc
 274              		@ args = 0, pretend = 0, frame = 8
 275              		@ frame_needed = 1, uses_anonymous_args = 0
 276              		@ link register save eliminated.
 277 0000 80B4     		push	{r7}
 278              		.cfi_def_cfa_offset 4
 279              		.cfi_offset 7, -4
 280 0002 83B0     		sub	sp, sp, #12
 281              		.cfi_def_cfa_offset 16
 282 0004 00AF     		add	r7, sp, #0
 283              		.cfi_def_cfa_register 7
 284 0006 7860     		str	r0, [r7, #4]
1695:Generated_Source\PSoC6\pdl\drivers\peripheral\scb/cy_scb_common.h ****     return (_FLD2VAL(SCB_TX_CTRL_DATA_WIDTH, base->TX_CTRL) < CY_SCB_BYTE_WIDTH);
 285              		.loc 1 1695 0
 286 0008 7B68     		ldr	r3, [r7, #4]
 287 000a D3F80032 		ldr	r3, [r3, #512]
 288 000e 03F00F03 		and	r3, r3, #15
 289 0012 072B     		cmp	r3, #7
 290 0014 94BF     		ite	ls
 291 0016 0123     		movls	r3, #1
 292 0018 0023     		movhi	r3, #0
 293 001a DBB2     		uxtb	r3, r3
1696:Generated_Source\PSoC6\pdl\drivers\peripheral\scb/cy_scb_common.h **** }
 294              		.loc 1 1696 0
 295 001c 1846     		mov	r0, r3
 296 001e 0C37     		adds	r7, r7, #12
 297              		.cfi_def_cfa_offset 4
 298 0020 BD46     		mov	sp, r7
ARM GAS  C:\Users\ikomb\AppData\Local\Temp\ccqJLUw6.s 			page 36


 299              		.cfi_def_cfa_register 13
 300              		@ sp needed
 301 0022 5DF8047B 		ldr	r7, [sp], #4
 302              		.cfi_restore 7
 303              		.cfi_def_cfa_offset 0
 304 0026 7047     		bx	lr
 305              		.cfi_endproc
 306              	.LFE207:
 307              		.size	Cy_SCB_IsTxDataWidthByte, .-Cy_SCB_IsTxDataWidthByte
 308              		.section	.text.Cy_SCB_ReadArrayNoCheck,"ax",%progbits
 309              		.align	2
 310              		.global	Cy_SCB_ReadArrayNoCheck
 311              		.thumb
 312              		.thumb_func
 313              		.type	Cy_SCB_ReadArrayNoCheck, %function
 314              	Cy_SCB_ReadArrayNoCheck:
 315              	.LFB210:
 316              		.file 2 "Generated_Source\\PSoC6\\pdl\\drivers\\peripheral\\scb\\cy_scb_common.c"
   1:Generated_Source\PSoC6\pdl\drivers\peripheral\scb/cy_scb_common.c **** /***************************************************************************//**
   2:Generated_Source\PSoC6\pdl\drivers\peripheral\scb/cy_scb_common.c **** * \file cy_scb_common.c
   3:Generated_Source\PSoC6\pdl\drivers\peripheral\scb/cy_scb_common.c **** * \version 2.10
   4:Generated_Source\PSoC6\pdl\drivers\peripheral\scb/cy_scb_common.c **** *
   5:Generated_Source\PSoC6\pdl\drivers\peripheral\scb/cy_scb_common.c **** * Provides common API implementation of the SCB driver.
   6:Generated_Source\PSoC6\pdl\drivers\peripheral\scb/cy_scb_common.c **** *
   7:Generated_Source\PSoC6\pdl\drivers\peripheral\scb/cy_scb_common.c **** ********************************************************************************
   8:Generated_Source\PSoC6\pdl\drivers\peripheral\scb/cy_scb_common.c **** * \copyright
   9:Generated_Source\PSoC6\pdl\drivers\peripheral\scb/cy_scb_common.c **** * Copyright 2016-2018, Cypress Semiconductor Corporation. All rights reserved.
  10:Generated_Source\PSoC6\pdl\drivers\peripheral\scb/cy_scb_common.c **** * You may use this file only in accordance with the license, terms, conditions,
  11:Generated_Source\PSoC6\pdl\drivers\peripheral\scb/cy_scb_common.c **** * disclaimers, and limitations in the end user license agreement accompanying
  12:Generated_Source\PSoC6\pdl\drivers\peripheral\scb/cy_scb_common.c **** * the software package with which this file was provided.
  13:Generated_Source\PSoC6\pdl\drivers\peripheral\scb/cy_scb_common.c **** *******************************************************************************/
  14:Generated_Source\PSoC6\pdl\drivers\peripheral\scb/cy_scb_common.c **** 
  15:Generated_Source\PSoC6\pdl\drivers\peripheral\scb/cy_scb_common.c **** #include "cy_scb_common.h"
  16:Generated_Source\PSoC6\pdl\drivers\peripheral\scb/cy_scb_common.c **** 
  17:Generated_Source\PSoC6\pdl\drivers\peripheral\scb/cy_scb_common.c **** #if defined(__cplusplus)
  18:Generated_Source\PSoC6\pdl\drivers\peripheral\scb/cy_scb_common.c **** extern "C" {
  19:Generated_Source\PSoC6\pdl\drivers\peripheral\scb/cy_scb_common.c **** #endif
  20:Generated_Source\PSoC6\pdl\drivers\peripheral\scb/cy_scb_common.c **** 
  21:Generated_Source\PSoC6\pdl\drivers\peripheral\scb/cy_scb_common.c **** /*******************************************************************************
  22:Generated_Source\PSoC6\pdl\drivers\peripheral\scb/cy_scb_common.c **** * Function Name: Cy_SCB_ReadArrayNoCheck
  23:Generated_Source\PSoC6\pdl\drivers\peripheral\scb/cy_scb_common.c **** ****************************************************************************//**
  24:Generated_Source\PSoC6\pdl\drivers\peripheral\scb/cy_scb_common.c **** *
  25:Generated_Source\PSoC6\pdl\drivers\peripheral\scb/cy_scb_common.c **** * Reads an array of data out of the SCB receive FIFO without checking if the
  26:Generated_Source\PSoC6\pdl\drivers\peripheral\scb/cy_scb_common.c **** * receive FIFO has enough data elements.
  27:Generated_Source\PSoC6\pdl\drivers\peripheral\scb/cy_scb_common.c **** * Before calling this function, make sure that the receive FIFO has enough data
  28:Generated_Source\PSoC6\pdl\drivers\peripheral\scb/cy_scb_common.c **** * elements to be read.
  29:Generated_Source\PSoC6\pdl\drivers\peripheral\scb/cy_scb_common.c **** *
  30:Generated_Source\PSoC6\pdl\drivers\peripheral\scb/cy_scb_common.c **** * \param base
  31:Generated_Source\PSoC6\pdl\drivers\peripheral\scb/cy_scb_common.c **** * The pointer to the SCB instance.
  32:Generated_Source\PSoC6\pdl\drivers\peripheral\scb/cy_scb_common.c **** *
  33:Generated_Source\PSoC6\pdl\drivers\peripheral\scb/cy_scb_common.c **** * \param buffer
  34:Generated_Source\PSoC6\pdl\drivers\peripheral\scb/cy_scb_common.c **** * The pointer to location to place data read from the receive FIFO.
  35:Generated_Source\PSoC6\pdl\drivers\peripheral\scb/cy_scb_common.c **** * The size of the data element defined by the configured data width.
  36:Generated_Source\PSoC6\pdl\drivers\peripheral\scb/cy_scb_common.c **** *
  37:Generated_Source\PSoC6\pdl\drivers\peripheral\scb/cy_scb_common.c **** * \param size
  38:Generated_Source\PSoC6\pdl\drivers\peripheral\scb/cy_scb_common.c **** * The number of data elements read from the receive FIFO.
  39:Generated_Source\PSoC6\pdl\drivers\peripheral\scb/cy_scb_common.c **** *
ARM GAS  C:\Users\ikomb\AppData\Local\Temp\ccqJLUw6.s 			page 37


  40:Generated_Source\PSoC6\pdl\drivers\peripheral\scb/cy_scb_common.c **** *******************************************************************************/
  41:Generated_Source\PSoC6\pdl\drivers\peripheral\scb/cy_scb_common.c **** void Cy_SCB_ReadArrayNoCheck(CySCB_Type const *base, void *buffer, uint32_t size)
  42:Generated_Source\PSoC6\pdl\drivers\peripheral\scb/cy_scb_common.c **** {
 317              		.loc 2 42 0
 318              		.cfi_startproc
 319              		@ args = 0, pretend = 0, frame = 32
 320              		@ frame_needed = 1, uses_anonymous_args = 0
 321 0000 90B5     		push	{r4, r7, lr}
 322              		.cfi_def_cfa_offset 12
 323              		.cfi_offset 4, -12
 324              		.cfi_offset 7, -8
 325              		.cfi_offset 14, -4
 326 0002 89B0     		sub	sp, sp, #36
 327              		.cfi_def_cfa_offset 48
 328 0004 00AF     		add	r7, sp, #0
 329              		.cfi_def_cfa_register 7
 330 0006 F860     		str	r0, [r7, #12]
 331 0008 B960     		str	r1, [r7, #8]
 332 000a 7A60     		str	r2, [r7, #4]
  43:Generated_Source\PSoC6\pdl\drivers\peripheral\scb/cy_scb_common.c ****     uint32_t idx;
  44:Generated_Source\PSoC6\pdl\drivers\peripheral\scb/cy_scb_common.c **** 
  45:Generated_Source\PSoC6\pdl\drivers\peripheral\scb/cy_scb_common.c ****     if (Cy_SCB_IsRxDataWidthByte(base))
 333              		.loc 2 45 0
 334 000c F868     		ldr	r0, [r7, #12]
 335 000e FFF7FEFF 		bl	Cy_SCB_IsRxDataWidthByte
 336 0012 0346     		mov	r3, r0
 337 0014 002B     		cmp	r3, #0
 338 0016 15D0     		beq	.L17
 339              	.LBB2:
  46:Generated_Source\PSoC6\pdl\drivers\peripheral\scb/cy_scb_common.c ****     {
  47:Generated_Source\PSoC6\pdl\drivers\peripheral\scb/cy_scb_common.c ****         uint8_t *buf = (uint8_t *) buffer;
 340              		.loc 2 47 0
 341 0018 BB68     		ldr	r3, [r7, #8]
 342 001a BB61     		str	r3, [r7, #24]
  48:Generated_Source\PSoC6\pdl\drivers\peripheral\scb/cy_scb_common.c **** 
  49:Generated_Source\PSoC6\pdl\drivers\peripheral\scb/cy_scb_common.c ****         /* Get data available in RX FIFO */
  50:Generated_Source\PSoC6\pdl\drivers\peripheral\scb/cy_scb_common.c ****         for (idx = 0UL; idx < size; ++idx)
 343              		.loc 2 50 0
 344 001c 0023     		movs	r3, #0
 345 001e FB61     		str	r3, [r7, #28]
 346 0020 0BE0     		b	.L18
 347              	.L19:
  51:Generated_Source\PSoC6\pdl\drivers\peripheral\scb/cy_scb_common.c ****         {
  52:Generated_Source\PSoC6\pdl\drivers\peripheral\scb/cy_scb_common.c ****             buf[idx] = (uint8_t) Cy_SCB_ReadRxFifo(base);
 348              		.loc 2 52 0 discriminator 3
 349 0022 BA69     		ldr	r2, [r7, #24]
 350 0024 FB69     		ldr	r3, [r7, #28]
 351 0026 D418     		adds	r4, r2, r3
 352 0028 F868     		ldr	r0, [r7, #12]
 353 002a FFF7FEFF 		bl	Cy_SCB_ReadRxFifo
 354 002e 0346     		mov	r3, r0
 355 0030 DBB2     		uxtb	r3, r3
 356 0032 2370     		strb	r3, [r4]
  50:Generated_Source\PSoC6\pdl\drivers\peripheral\scb/cy_scb_common.c ****         {
 357              		.loc 2 50 0 discriminator 3
 358 0034 FB69     		ldr	r3, [r7, #28]
 359 0036 0133     		adds	r3, r3, #1
ARM GAS  C:\Users\ikomb\AppData\Local\Temp\ccqJLUw6.s 			page 38


 360 0038 FB61     		str	r3, [r7, #28]
 361              	.L18:
  50:Generated_Source\PSoC6\pdl\drivers\peripheral\scb/cy_scb_common.c ****         {
 362              		.loc 2 50 0 is_stmt 0 discriminator 1
 363 003a FA69     		ldr	r2, [r7, #28]
 364 003c 7B68     		ldr	r3, [r7, #4]
 365 003e 9A42     		cmp	r2, r3
 366 0040 EFD3     		bcc	.L19
 367              	.LBE2:
  53:Generated_Source\PSoC6\pdl\drivers\peripheral\scb/cy_scb_common.c ****         }
  54:Generated_Source\PSoC6\pdl\drivers\peripheral\scb/cy_scb_common.c ****     }
  55:Generated_Source\PSoC6\pdl\drivers\peripheral\scb/cy_scb_common.c ****     else
  56:Generated_Source\PSoC6\pdl\drivers\peripheral\scb/cy_scb_common.c ****     {
  57:Generated_Source\PSoC6\pdl\drivers\peripheral\scb/cy_scb_common.c ****         uint16_t *buf = (uint16_t *) buffer;
  58:Generated_Source\PSoC6\pdl\drivers\peripheral\scb/cy_scb_common.c **** 
  59:Generated_Source\PSoC6\pdl\drivers\peripheral\scb/cy_scb_common.c ****         /* Get data available in RX FIFO */
  60:Generated_Source\PSoC6\pdl\drivers\peripheral\scb/cy_scb_common.c ****         for (idx = 0UL; idx < size; ++idx)
  61:Generated_Source\PSoC6\pdl\drivers\peripheral\scb/cy_scb_common.c ****         {
  62:Generated_Source\PSoC6\pdl\drivers\peripheral\scb/cy_scb_common.c ****             buf[idx] = (uint16_t) Cy_SCB_ReadRxFifo(base);
  63:Generated_Source\PSoC6\pdl\drivers\peripheral\scb/cy_scb_common.c ****         }
  64:Generated_Source\PSoC6\pdl\drivers\peripheral\scb/cy_scb_common.c ****     }
  65:Generated_Source\PSoC6\pdl\drivers\peripheral\scb/cy_scb_common.c **** }
 368              		.loc 2 65 0 is_stmt 1
 369 0042 15E0     		b	.L23
 370              	.L17:
 371              	.LBB3:
  57:Generated_Source\PSoC6\pdl\drivers\peripheral\scb/cy_scb_common.c **** 
 372              		.loc 2 57 0
 373 0044 BB68     		ldr	r3, [r7, #8]
 374 0046 7B61     		str	r3, [r7, #20]
  60:Generated_Source\PSoC6\pdl\drivers\peripheral\scb/cy_scb_common.c ****         {
 375              		.loc 2 60 0
 376 0048 0023     		movs	r3, #0
 377 004a FB61     		str	r3, [r7, #28]
 378 004c 0CE0     		b	.L21
 379              	.L22:
  62:Generated_Source\PSoC6\pdl\drivers\peripheral\scb/cy_scb_common.c ****         }
 380              		.loc 2 62 0 discriminator 3
 381 004e FB69     		ldr	r3, [r7, #28]
 382 0050 5B00     		lsls	r3, r3, #1
 383 0052 7A69     		ldr	r2, [r7, #20]
 384 0054 D418     		adds	r4, r2, r3
 385 0056 F868     		ldr	r0, [r7, #12]
 386 0058 FFF7FEFF 		bl	Cy_SCB_ReadRxFifo
 387 005c 0346     		mov	r3, r0
 388 005e 9BB2     		uxth	r3, r3
 389 0060 2380     		strh	r3, [r4]	@ movhi
  60:Generated_Source\PSoC6\pdl\drivers\peripheral\scb/cy_scb_common.c ****         {
 390              		.loc 2 60 0 discriminator 3
 391 0062 FB69     		ldr	r3, [r7, #28]
 392 0064 0133     		adds	r3, r3, #1
 393 0066 FB61     		str	r3, [r7, #28]
 394              	.L21:
  60:Generated_Source\PSoC6\pdl\drivers\peripheral\scb/cy_scb_common.c ****         {
 395              		.loc 2 60 0 is_stmt 0 discriminator 1
 396 0068 FA69     		ldr	r2, [r7, #28]
 397 006a 7B68     		ldr	r3, [r7, #4]
ARM GAS  C:\Users\ikomb\AppData\Local\Temp\ccqJLUw6.s 			page 39


 398 006c 9A42     		cmp	r2, r3
 399 006e EED3     		bcc	.L22
 400              	.L23:
 401              	.LBE3:
 402              		.loc 2 65 0 is_stmt 1
 403 0070 00BF     		nop
 404 0072 2437     		adds	r7, r7, #36
 405              		.cfi_def_cfa_offset 12
 406 0074 BD46     		mov	sp, r7
 407              		.cfi_def_cfa_register 13
 408              		@ sp needed
 409 0076 90BD     		pop	{r4, r7, pc}
 410              		.cfi_endproc
 411              	.LFE210:
 412              		.size	Cy_SCB_ReadArrayNoCheck, .-Cy_SCB_ReadArrayNoCheck
 413              		.section	.text.Cy_SCB_ReadArray,"ax",%progbits
 414              		.align	2
 415              		.global	Cy_SCB_ReadArray
 416              		.thumb
 417              		.thumb_func
 418              		.type	Cy_SCB_ReadArray, %function
 419              	Cy_SCB_ReadArray:
 420              	.LFB211:
  66:Generated_Source\PSoC6\pdl\drivers\peripheral\scb/cy_scb_common.c **** 
  67:Generated_Source\PSoC6\pdl\drivers\peripheral\scb/cy_scb_common.c **** 
  68:Generated_Source\PSoC6\pdl\drivers\peripheral\scb/cy_scb_common.c **** /*******************************************************************************
  69:Generated_Source\PSoC6\pdl\drivers\peripheral\scb/cy_scb_common.c **** * Function Name: Cy_SCB_ReadArray
  70:Generated_Source\PSoC6\pdl\drivers\peripheral\scb/cy_scb_common.c **** ****************************************************************************//**
  71:Generated_Source\PSoC6\pdl\drivers\peripheral\scb/cy_scb_common.c **** *
  72:Generated_Source\PSoC6\pdl\drivers\peripheral\scb/cy_scb_common.c **** * Reads an array of data out of the SCB receive FIFO.
  73:Generated_Source\PSoC6\pdl\drivers\peripheral\scb/cy_scb_common.c **** * This function does not block; it returns how many data elements are
  74:Generated_Source\PSoC6\pdl\drivers\peripheral\scb/cy_scb_common.c **** * read from the receive FIFO.
  75:Generated_Source\PSoC6\pdl\drivers\peripheral\scb/cy_scb_common.c **** *
  76:Generated_Source\PSoC6\pdl\drivers\peripheral\scb/cy_scb_common.c **** * \param base
  77:Generated_Source\PSoC6\pdl\drivers\peripheral\scb/cy_scb_common.c **** * The pointer to the SCB instance.
  78:Generated_Source\PSoC6\pdl\drivers\peripheral\scb/cy_scb_common.c **** *
  79:Generated_Source\PSoC6\pdl\drivers\peripheral\scb/cy_scb_common.c **** * \param buffer
  80:Generated_Source\PSoC6\pdl\drivers\peripheral\scb/cy_scb_common.c **** * The pointer to location to place data read from receive FIFO.
  81:Generated_Source\PSoC6\pdl\drivers\peripheral\scb/cy_scb_common.c **** * The item size is defined by the data type, which depends on the configured
  82:Generated_Source\PSoC6\pdl\drivers\peripheral\scb/cy_scb_common.c **** * data width.
  83:Generated_Source\PSoC6\pdl\drivers\peripheral\scb/cy_scb_common.c **** *
  84:Generated_Source\PSoC6\pdl\drivers\peripheral\scb/cy_scb_common.c **** * \param size
  85:Generated_Source\PSoC6\pdl\drivers\peripheral\scb/cy_scb_common.c **** * The number of data elements to read from the receive FIFO.
  86:Generated_Source\PSoC6\pdl\drivers\peripheral\scb/cy_scb_common.c **** *
  87:Generated_Source\PSoC6\pdl\drivers\peripheral\scb/cy_scb_common.c **** * \return
  88:Generated_Source\PSoC6\pdl\drivers\peripheral\scb/cy_scb_common.c **** * The number of data elements read from the receive FIFO.
  89:Generated_Source\PSoC6\pdl\drivers\peripheral\scb/cy_scb_common.c **** *
  90:Generated_Source\PSoC6\pdl\drivers\peripheral\scb/cy_scb_common.c **** *******************************************************************************/
  91:Generated_Source\PSoC6\pdl\drivers\peripheral\scb/cy_scb_common.c **** uint32_t Cy_SCB_ReadArray(CySCB_Type const *base, void *buffer, uint32_t size)
  92:Generated_Source\PSoC6\pdl\drivers\peripheral\scb/cy_scb_common.c **** {
 421              		.loc 2 92 0
 422              		.cfi_startproc
 423              		@ args = 0, pretend = 0, frame = 24
 424              		@ frame_needed = 1, uses_anonymous_args = 0
 425 0000 80B5     		push	{r7, lr}
 426              		.cfi_def_cfa_offset 8
 427              		.cfi_offset 7, -8
ARM GAS  C:\Users\ikomb\AppData\Local\Temp\ccqJLUw6.s 			page 40


 428              		.cfi_offset 14, -4
 429 0002 86B0     		sub	sp, sp, #24
 430              		.cfi_def_cfa_offset 32
 431 0004 00AF     		add	r7, sp, #0
 432              		.cfi_def_cfa_register 7
 433 0006 F860     		str	r0, [r7, #12]
 434 0008 B960     		str	r1, [r7, #8]
 435 000a 7A60     		str	r2, [r7, #4]
  93:Generated_Source\PSoC6\pdl\drivers\peripheral\scb/cy_scb_common.c ****     /* Get available items in RX FIFO */
  94:Generated_Source\PSoC6\pdl\drivers\peripheral\scb/cy_scb_common.c ****     uint32_t numToCopy = Cy_SCB_GetNumInRxFifo(base);
 436              		.loc 2 94 0
 437 000c F868     		ldr	r0, [r7, #12]
 438 000e FFF7FEFF 		bl	Cy_SCB_GetNumInRxFifo
 439 0012 7861     		str	r0, [r7, #20]
  95:Generated_Source\PSoC6\pdl\drivers\peripheral\scb/cy_scb_common.c **** 
  96:Generated_Source\PSoC6\pdl\drivers\peripheral\scb/cy_scb_common.c ****     /* Adjust items that will be read */
  97:Generated_Source\PSoC6\pdl\drivers\peripheral\scb/cy_scb_common.c ****     if (numToCopy > size)
 440              		.loc 2 97 0
 441 0014 7A69     		ldr	r2, [r7, #20]
 442 0016 7B68     		ldr	r3, [r7, #4]
 443 0018 9A42     		cmp	r2, r3
 444 001a 01D9     		bls	.L25
  98:Generated_Source\PSoC6\pdl\drivers\peripheral\scb/cy_scb_common.c ****     {
  99:Generated_Source\PSoC6\pdl\drivers\peripheral\scb/cy_scb_common.c ****         numToCopy = size;
 445              		.loc 2 99 0
 446 001c 7B68     		ldr	r3, [r7, #4]
 447 001e 7B61     		str	r3, [r7, #20]
 448              	.L25:
 100:Generated_Source\PSoC6\pdl\drivers\peripheral\scb/cy_scb_common.c ****     }
 101:Generated_Source\PSoC6\pdl\drivers\peripheral\scb/cy_scb_common.c **** 
 102:Generated_Source\PSoC6\pdl\drivers\peripheral\scb/cy_scb_common.c ****     /* Get data available in RX FIFO */
 103:Generated_Source\PSoC6\pdl\drivers\peripheral\scb/cy_scb_common.c ****     Cy_SCB_ReadArrayNoCheck(base, buffer, numToCopy);
 449              		.loc 2 103 0
 450 0020 7A69     		ldr	r2, [r7, #20]
 451 0022 B968     		ldr	r1, [r7, #8]
 452 0024 F868     		ldr	r0, [r7, #12]
 453 0026 FFF7FEFF 		bl	Cy_SCB_ReadArrayNoCheck
 104:Generated_Source\PSoC6\pdl\drivers\peripheral\scb/cy_scb_common.c **** 
 105:Generated_Source\PSoC6\pdl\drivers\peripheral\scb/cy_scb_common.c ****     return (numToCopy);
 454              		.loc 2 105 0
 455 002a 7B69     		ldr	r3, [r7, #20]
 106:Generated_Source\PSoC6\pdl\drivers\peripheral\scb/cy_scb_common.c **** }
 456              		.loc 2 106 0
 457 002c 1846     		mov	r0, r3
 458 002e 1837     		adds	r7, r7, #24
 459              		.cfi_def_cfa_offset 8
 460 0030 BD46     		mov	sp, r7
 461              		.cfi_def_cfa_register 13
 462              		@ sp needed
 463 0032 80BD     		pop	{r7, pc}
 464              		.cfi_endproc
 465              	.LFE211:
 466              		.size	Cy_SCB_ReadArray, .-Cy_SCB_ReadArray
 467              		.section	.text.Cy_SCB_ReadArrayBlocking,"ax",%progbits
 468              		.align	2
 469              		.global	Cy_SCB_ReadArrayBlocking
 470              		.thumb
ARM GAS  C:\Users\ikomb\AppData\Local\Temp\ccqJLUw6.s 			page 41


 471              		.thumb_func
 472              		.type	Cy_SCB_ReadArrayBlocking, %function
 473              	Cy_SCB_ReadArrayBlocking:
 474              	.LFB212:
 107:Generated_Source\PSoC6\pdl\drivers\peripheral\scb/cy_scb_common.c **** 
 108:Generated_Source\PSoC6\pdl\drivers\peripheral\scb/cy_scb_common.c **** 
 109:Generated_Source\PSoC6\pdl\drivers\peripheral\scb/cy_scb_common.c **** /*******************************************************************************
 110:Generated_Source\PSoC6\pdl\drivers\peripheral\scb/cy_scb_common.c **** * Function Name: Cy_SCB_ReadArrayBlocking
 111:Generated_Source\PSoC6\pdl\drivers\peripheral\scb/cy_scb_common.c **** ****************************************************************************//**
 112:Generated_Source\PSoC6\pdl\drivers\peripheral\scb/cy_scb_common.c **** *
 113:Generated_Source\PSoC6\pdl\drivers\peripheral\scb/cy_scb_common.c **** * Reads an array of data out of the SCB receive FIFO.
 114:Generated_Source\PSoC6\pdl\drivers\peripheral\scb/cy_scb_common.c **** * This function blocks until the number of data elements specified by the
 115:Generated_Source\PSoC6\pdl\drivers\peripheral\scb/cy_scb_common.c **** * size has been read from the receive FIFO.
 116:Generated_Source\PSoC6\pdl\drivers\peripheral\scb/cy_scb_common.c **** *
 117:Generated_Source\PSoC6\pdl\drivers\peripheral\scb/cy_scb_common.c **** * \param base
 118:Generated_Source\PSoC6\pdl\drivers\peripheral\scb/cy_scb_common.c **** * The pointer to the SCB instance.
 119:Generated_Source\PSoC6\pdl\drivers\peripheral\scb/cy_scb_common.c **** *
 120:Generated_Source\PSoC6\pdl\drivers\peripheral\scb/cy_scb_common.c **** * \param buffer
 121:Generated_Source\PSoC6\pdl\drivers\peripheral\scb/cy_scb_common.c **** * The pointer to the location to place data read from the receive FIFO.
 122:Generated_Source\PSoC6\pdl\drivers\peripheral\scb/cy_scb_common.c **** * The item size is defined by the data type, which depends on the configured
 123:Generated_Source\PSoC6\pdl\drivers\peripheral\scb/cy_scb_common.c **** * data width.
 124:Generated_Source\PSoC6\pdl\drivers\peripheral\scb/cy_scb_common.c **** *
 125:Generated_Source\PSoC6\pdl\drivers\peripheral\scb/cy_scb_common.c **** * \param size
 126:Generated_Source\PSoC6\pdl\drivers\peripheral\scb/cy_scb_common.c **** * The number of data elements to read from receive FIFO.
 127:Generated_Source\PSoC6\pdl\drivers\peripheral\scb/cy_scb_common.c **** *
 128:Generated_Source\PSoC6\pdl\drivers\peripheral\scb/cy_scb_common.c **** *******************************************************************************/
 129:Generated_Source\PSoC6\pdl\drivers\peripheral\scb/cy_scb_common.c **** void Cy_SCB_ReadArrayBlocking(CySCB_Type const *base, void *buffer, uint32_t size)
 130:Generated_Source\PSoC6\pdl\drivers\peripheral\scb/cy_scb_common.c **** {
 475              		.loc 2 130 0
 476              		.cfi_startproc
 477              		@ args = 0, pretend = 0, frame = 32
 478              		@ frame_needed = 1, uses_anonymous_args = 0
 479 0000 80B5     		push	{r7, lr}
 480              		.cfi_def_cfa_offset 8
 481              		.cfi_offset 7, -8
 482              		.cfi_offset 14, -4
 483 0002 88B0     		sub	sp, sp, #32
 484              		.cfi_def_cfa_offset 40
 485 0004 00AF     		add	r7, sp, #0
 486              		.cfi_def_cfa_register 7
 487 0006 F860     		str	r0, [r7, #12]
 488 0008 B960     		str	r1, [r7, #8]
 489 000a 7A60     		str	r2, [r7, #4]
 131:Generated_Source\PSoC6\pdl\drivers\peripheral\scb/cy_scb_common.c ****     uint32_t numCopied;
 132:Generated_Source\PSoC6\pdl\drivers\peripheral\scb/cy_scb_common.c ****     uint8_t  *buf = (uint8_t *) buffer;
 490              		.loc 2 132 0
 491 000c BB68     		ldr	r3, [r7, #8]
 492 000e FB61     		str	r3, [r7, #28]
 133:Generated_Source\PSoC6\pdl\drivers\peripheral\scb/cy_scb_common.c ****     bool     byteMode = Cy_SCB_IsRxDataWidthByte(base);
 493              		.loc 2 133 0
 494 0010 F868     		ldr	r0, [r7, #12]
 495 0012 FFF7FEFF 		bl	Cy_SCB_IsRxDataWidthByte
 496 0016 0346     		mov	r3, r0
 497 0018 FB76     		strb	r3, [r7, #27]
 134:Generated_Source\PSoC6\pdl\drivers\peripheral\scb/cy_scb_common.c **** 
 135:Generated_Source\PSoC6\pdl\drivers\peripheral\scb/cy_scb_common.c ****     /* Get data from RX FIFO. Stop when the requested size is read. */
 136:Generated_Source\PSoC6\pdl\drivers\peripheral\scb/cy_scb_common.c ****     while (size > 0UL)
ARM GAS  C:\Users\ikomb\AppData\Local\Temp\ccqJLUw6.s 			page 42


 498              		.loc 2 136 0
 499 001a 13E0     		b	.L28
 500              	.L31:
 137:Generated_Source\PSoC6\pdl\drivers\peripheral\scb/cy_scb_common.c ****     {
 138:Generated_Source\PSoC6\pdl\drivers\peripheral\scb/cy_scb_common.c ****         numCopied = Cy_SCB_ReadArray(base, (void *) buf, size);
 501              		.loc 2 138 0
 502 001c 7A68     		ldr	r2, [r7, #4]
 503 001e F969     		ldr	r1, [r7, #28]
 504 0020 F868     		ldr	r0, [r7, #12]
 505 0022 FFF7FEFF 		bl	Cy_SCB_ReadArray
 506 0026 7861     		str	r0, [r7, #20]
 139:Generated_Source\PSoC6\pdl\drivers\peripheral\scb/cy_scb_common.c **** 
 140:Generated_Source\PSoC6\pdl\drivers\peripheral\scb/cy_scb_common.c ****         buf = &buf[(byteMode ? (numCopied) : (2UL * numCopied))];
 507              		.loc 2 140 0
 508 0028 FB7E     		ldrb	r3, [r7, #27]	@ zero_extendqisi2
 509 002a 002B     		cmp	r3, #0
 510 002c 01D0     		beq	.L29
 511              		.loc 2 140 0 is_stmt 0 discriminator 1
 512 002e 7B69     		ldr	r3, [r7, #20]
 513 0030 01E0     		b	.L30
 514              	.L29:
 515              		.loc 2 140 0 discriminator 2
 516 0032 7B69     		ldr	r3, [r7, #20]
 517 0034 5B00     		lsls	r3, r3, #1
 518              	.L30:
 519              		.loc 2 140 0 discriminator 4
 520 0036 FA69     		ldr	r2, [r7, #28]
 521 0038 1344     		add	r3, r3, r2
 522 003a FB61     		str	r3, [r7, #28]
 141:Generated_Source\PSoC6\pdl\drivers\peripheral\scb/cy_scb_common.c ****         size -= numCopied;
 523              		.loc 2 141 0 is_stmt 1 discriminator 4
 524 003c 7A68     		ldr	r2, [r7, #4]
 525 003e 7B69     		ldr	r3, [r7, #20]
 526 0040 D31A     		subs	r3, r2, r3
 527 0042 7B60     		str	r3, [r7, #4]
 528              	.L28:
 136:Generated_Source\PSoC6\pdl\drivers\peripheral\scb/cy_scb_common.c ****     {
 529              		.loc 2 136 0
 530 0044 7B68     		ldr	r3, [r7, #4]
 531 0046 002B     		cmp	r3, #0
 532 0048 E8D1     		bne	.L31
 142:Generated_Source\PSoC6\pdl\drivers\peripheral\scb/cy_scb_common.c ****     }
 143:Generated_Source\PSoC6\pdl\drivers\peripheral\scb/cy_scb_common.c **** }
 533              		.loc 2 143 0
 534 004a 00BF     		nop
 535 004c 2037     		adds	r7, r7, #32
 536              		.cfi_def_cfa_offset 8
 537 004e BD46     		mov	sp, r7
 538              		.cfi_def_cfa_register 13
 539              		@ sp needed
 540 0050 80BD     		pop	{r7, pc}
 541              		.cfi_endproc
 542              	.LFE212:
 543              		.size	Cy_SCB_ReadArrayBlocking, .-Cy_SCB_ReadArrayBlocking
 544 0052 00BF     		.section	.text.Cy_SCB_Write,"ax",%progbits
 545              		.align	2
 546              		.global	Cy_SCB_Write
ARM GAS  C:\Users\ikomb\AppData\Local\Temp\ccqJLUw6.s 			page 43


 547              		.thumb
 548              		.thumb_func
 549              		.type	Cy_SCB_Write, %function
 550              	Cy_SCB_Write:
 551              	.LFB213:
 144:Generated_Source\PSoC6\pdl\drivers\peripheral\scb/cy_scb_common.c **** 
 145:Generated_Source\PSoC6\pdl\drivers\peripheral\scb/cy_scb_common.c **** 
 146:Generated_Source\PSoC6\pdl\drivers\peripheral\scb/cy_scb_common.c **** /*******************************************************************************
 147:Generated_Source\PSoC6\pdl\drivers\peripheral\scb/cy_scb_common.c **** * Function Name: Cy_SCB_Write
 148:Generated_Source\PSoC6\pdl\drivers\peripheral\scb/cy_scb_common.c **** ****************************************************************************//**
 149:Generated_Source\PSoC6\pdl\drivers\peripheral\scb/cy_scb_common.c **** *
 150:Generated_Source\PSoC6\pdl\drivers\peripheral\scb/cy_scb_common.c **** * Places a single data element in the SCB transmit FIFO.
 151:Generated_Source\PSoC6\pdl\drivers\peripheral\scb/cy_scb_common.c **** * This function does not block. It returns how many data elements are placed
 152:Generated_Source\PSoC6\pdl\drivers\peripheral\scb/cy_scb_common.c **** * in the transmit FIFO.
 153:Generated_Source\PSoC6\pdl\drivers\peripheral\scb/cy_scb_common.c **** *
 154:Generated_Source\PSoC6\pdl\drivers\peripheral\scb/cy_scb_common.c **** * \param base
 155:Generated_Source\PSoC6\pdl\drivers\peripheral\scb/cy_scb_common.c **** * The pointer to the SCB instance.
 156:Generated_Source\PSoC6\pdl\drivers\peripheral\scb/cy_scb_common.c **** *
 157:Generated_Source\PSoC6\pdl\drivers\peripheral\scb/cy_scb_common.c **** * \param data
 158:Generated_Source\PSoC6\pdl\drivers\peripheral\scb/cy_scb_common.c **** * Data to put in the transmit FIFO.
 159:Generated_Source\PSoC6\pdl\drivers\peripheral\scb/cy_scb_common.c **** * The item size is defined by the data type, which depends on the configured
 160:Generated_Source\PSoC6\pdl\drivers\peripheral\scb/cy_scb_common.c **** * data width.
 161:Generated_Source\PSoC6\pdl\drivers\peripheral\scb/cy_scb_common.c **** *
 162:Generated_Source\PSoC6\pdl\drivers\peripheral\scb/cy_scb_common.c **** * \return
 163:Generated_Source\PSoC6\pdl\drivers\peripheral\scb/cy_scb_common.c **** * The number of data elements placed in the transmit FIFO: 0 or 1.
 164:Generated_Source\PSoC6\pdl\drivers\peripheral\scb/cy_scb_common.c **** *
 165:Generated_Source\PSoC6\pdl\drivers\peripheral\scb/cy_scb_common.c **** *******************************************************************************/
 166:Generated_Source\PSoC6\pdl\drivers\peripheral\scb/cy_scb_common.c **** uint32_t Cy_SCB_Write(CySCB_Type *base, uint32_t data)
 167:Generated_Source\PSoC6\pdl\drivers\peripheral\scb/cy_scb_common.c **** {
 552              		.loc 2 167 0
 553              		.cfi_startproc
 554              		@ args = 0, pretend = 0, frame = 16
 555              		@ frame_needed = 1, uses_anonymous_args = 0
 556 0000 90B5     		push	{r4, r7, lr}
 557              		.cfi_def_cfa_offset 12
 558              		.cfi_offset 4, -12
 559              		.cfi_offset 7, -8
 560              		.cfi_offset 14, -4
 561 0002 85B0     		sub	sp, sp, #20
 562              		.cfi_def_cfa_offset 32
 563 0004 00AF     		add	r7, sp, #0
 564              		.cfi_def_cfa_register 7
 565 0006 7860     		str	r0, [r7, #4]
 566 0008 3960     		str	r1, [r7]
 168:Generated_Source\PSoC6\pdl\drivers\peripheral\scb/cy_scb_common.c ****     uint32_t numCopied = 0UL;
 567              		.loc 2 168 0
 568 000a 0023     		movs	r3, #0
 569 000c FB60     		str	r3, [r7, #12]
 169:Generated_Source\PSoC6\pdl\drivers\peripheral\scb/cy_scb_common.c **** 
 170:Generated_Source\PSoC6\pdl\drivers\peripheral\scb/cy_scb_common.c ****     if (Cy_SCB_GetFifoSize(base) != Cy_SCB_GetNumInTxFifo(base))
 570              		.loc 2 170 0
 571 000e 7868     		ldr	r0, [r7, #4]
 572 0010 FFF7FEFF 		bl	Cy_SCB_GetFifoSize
 573 0014 0446     		mov	r4, r0
 574 0016 7868     		ldr	r0, [r7, #4]
 575 0018 FFF7FEFF 		bl	Cy_SCB_GetNumInTxFifo
 576 001c 0346     		mov	r3, r0
ARM GAS  C:\Users\ikomb\AppData\Local\Temp\ccqJLUw6.s 			page 44


 577 001e 9C42     		cmp	r4, r3
 578 0020 05D0     		beq	.L33
 171:Generated_Source\PSoC6\pdl\drivers\peripheral\scb/cy_scb_common.c ****     {
 172:Generated_Source\PSoC6\pdl\drivers\peripheral\scb/cy_scb_common.c ****         Cy_SCB_WriteTxFifo(base, data);
 579              		.loc 2 172 0
 580 0022 3968     		ldr	r1, [r7]
 581 0024 7868     		ldr	r0, [r7, #4]
 582 0026 FFF7FEFF 		bl	Cy_SCB_WriteTxFifo
 173:Generated_Source\PSoC6\pdl\drivers\peripheral\scb/cy_scb_common.c **** 
 174:Generated_Source\PSoC6\pdl\drivers\peripheral\scb/cy_scb_common.c ****         numCopied = 1UL;
 583              		.loc 2 174 0
 584 002a 0123     		movs	r3, #1
 585 002c FB60     		str	r3, [r7, #12]
 586              	.L33:
 175:Generated_Source\PSoC6\pdl\drivers\peripheral\scb/cy_scb_common.c ****     }
 176:Generated_Source\PSoC6\pdl\drivers\peripheral\scb/cy_scb_common.c **** 
 177:Generated_Source\PSoC6\pdl\drivers\peripheral\scb/cy_scb_common.c ****     return (numCopied);
 587              		.loc 2 177 0
 588 002e FB68     		ldr	r3, [r7, #12]
 178:Generated_Source\PSoC6\pdl\drivers\peripheral\scb/cy_scb_common.c **** }
 589              		.loc 2 178 0
 590 0030 1846     		mov	r0, r3
 591 0032 1437     		adds	r7, r7, #20
 592              		.cfi_def_cfa_offset 12
 593 0034 BD46     		mov	sp, r7
 594              		.cfi_def_cfa_register 13
 595              		@ sp needed
 596 0036 90BD     		pop	{r4, r7, pc}
 597              		.cfi_endproc
 598              	.LFE213:
 599              		.size	Cy_SCB_Write, .-Cy_SCB_Write
 600              		.section	.text.Cy_SCB_WriteArrayNoCheck,"ax",%progbits
 601              		.align	2
 602              		.global	Cy_SCB_WriteArrayNoCheck
 603              		.thumb
 604              		.thumb_func
 605              		.type	Cy_SCB_WriteArrayNoCheck, %function
 606              	Cy_SCB_WriteArrayNoCheck:
 607              	.LFB214:
 179:Generated_Source\PSoC6\pdl\drivers\peripheral\scb/cy_scb_common.c **** 
 180:Generated_Source\PSoC6\pdl\drivers\peripheral\scb/cy_scb_common.c **** 
 181:Generated_Source\PSoC6\pdl\drivers\peripheral\scb/cy_scb_common.c **** /*******************************************************************************
 182:Generated_Source\PSoC6\pdl\drivers\peripheral\scb/cy_scb_common.c **** * Function Name: Cy_SCB_WriteArrayNoCheck
 183:Generated_Source\PSoC6\pdl\drivers\peripheral\scb/cy_scb_common.c **** ****************************************************************************//**
 184:Generated_Source\PSoC6\pdl\drivers\peripheral\scb/cy_scb_common.c **** *
 185:Generated_Source\PSoC6\pdl\drivers\peripheral\scb/cy_scb_common.c **** * Places an array of data in the SCB transmit FIFO without checking whether the
 186:Generated_Source\PSoC6\pdl\drivers\peripheral\scb/cy_scb_common.c **** * transmit FIFO has enough space.
 187:Generated_Source\PSoC6\pdl\drivers\peripheral\scb/cy_scb_common.c **** * Before calling this function, make sure that the transmit FIFO has enough
 188:Generated_Source\PSoC6\pdl\drivers\peripheral\scb/cy_scb_common.c **** * space to put all requested data elements.
 189:Generated_Source\PSoC6\pdl\drivers\peripheral\scb/cy_scb_common.c **** *
 190:Generated_Source\PSoC6\pdl\drivers\peripheral\scb/cy_scb_common.c **** * \param base
 191:Generated_Source\PSoC6\pdl\drivers\peripheral\scb/cy_scb_common.c **** * The pointer to the SCB instance.
 192:Generated_Source\PSoC6\pdl\drivers\peripheral\scb/cy_scb_common.c **** *
 193:Generated_Source\PSoC6\pdl\drivers\peripheral\scb/cy_scb_common.c **** * \param buffer
 194:Generated_Source\PSoC6\pdl\drivers\peripheral\scb/cy_scb_common.c **** * The pointer to data to place in the transmit FIFO.
 195:Generated_Source\PSoC6\pdl\drivers\peripheral\scb/cy_scb_common.c **** * The item size is defined by the data type, which depends on the configured
 196:Generated_Source\PSoC6\pdl\drivers\peripheral\scb/cy_scb_common.c **** * TX data width.
ARM GAS  C:\Users\ikomb\AppData\Local\Temp\ccqJLUw6.s 			page 45


 197:Generated_Source\PSoC6\pdl\drivers\peripheral\scb/cy_scb_common.c **** *
 198:Generated_Source\PSoC6\pdl\drivers\peripheral\scb/cy_scb_common.c **** * \param size
 199:Generated_Source\PSoC6\pdl\drivers\peripheral\scb/cy_scb_common.c **** * The number of data elements to transmit.
 200:Generated_Source\PSoC6\pdl\drivers\peripheral\scb/cy_scb_common.c **** *
 201:Generated_Source\PSoC6\pdl\drivers\peripheral\scb/cy_scb_common.c **** * \return
 202:Generated_Source\PSoC6\pdl\drivers\peripheral\scb/cy_scb_common.c **** * The number of data elements placed in the transmit FIFO.
 203:Generated_Source\PSoC6\pdl\drivers\peripheral\scb/cy_scb_common.c **** *
 204:Generated_Source\PSoC6\pdl\drivers\peripheral\scb/cy_scb_common.c **** *******************************************************************************/
 205:Generated_Source\PSoC6\pdl\drivers\peripheral\scb/cy_scb_common.c **** void Cy_SCB_WriteArrayNoCheck(CySCB_Type *base, void *buffer, uint32_t size)
 206:Generated_Source\PSoC6\pdl\drivers\peripheral\scb/cy_scb_common.c **** {
 608              		.loc 2 206 0
 609              		.cfi_startproc
 610              		@ args = 0, pretend = 0, frame = 32
 611              		@ frame_needed = 1, uses_anonymous_args = 0
 612 0000 80B5     		push	{r7, lr}
 613              		.cfi_def_cfa_offset 8
 614              		.cfi_offset 7, -8
 615              		.cfi_offset 14, -4
 616 0002 88B0     		sub	sp, sp, #32
 617              		.cfi_def_cfa_offset 40
 618 0004 00AF     		add	r7, sp, #0
 619              		.cfi_def_cfa_register 7
 620 0006 F860     		str	r0, [r7, #12]
 621 0008 B960     		str	r1, [r7, #8]
 622 000a 7A60     		str	r2, [r7, #4]
 207:Generated_Source\PSoC6\pdl\drivers\peripheral\scb/cy_scb_common.c ****     uint32_t idx;
 208:Generated_Source\PSoC6\pdl\drivers\peripheral\scb/cy_scb_common.c **** 
 209:Generated_Source\PSoC6\pdl\drivers\peripheral\scb/cy_scb_common.c ****     if (Cy_SCB_IsTxDataWidthByte(base))
 623              		.loc 2 209 0
 624 000c F868     		ldr	r0, [r7, #12]
 625 000e FFF7FEFF 		bl	Cy_SCB_IsTxDataWidthByte
 626 0012 0346     		mov	r3, r0
 627 0014 002B     		cmp	r3, #0
 628 0016 14D0     		beq	.L36
 629              	.LBB4:
 210:Generated_Source\PSoC6\pdl\drivers\peripheral\scb/cy_scb_common.c ****     {
 211:Generated_Source\PSoC6\pdl\drivers\peripheral\scb/cy_scb_common.c ****         uint8_t *buf = (uint8_t *) buffer;
 630              		.loc 2 211 0
 631 0018 BB68     		ldr	r3, [r7, #8]
 632 001a BB61     		str	r3, [r7, #24]
 212:Generated_Source\PSoC6\pdl\drivers\peripheral\scb/cy_scb_common.c **** 
 213:Generated_Source\PSoC6\pdl\drivers\peripheral\scb/cy_scb_common.c ****         /* Put data into TX FIFO */
 214:Generated_Source\PSoC6\pdl\drivers\peripheral\scb/cy_scb_common.c ****         for (idx = 0UL; idx < size; ++idx)
 633              		.loc 2 214 0
 634 001c 0023     		movs	r3, #0
 635 001e FB61     		str	r3, [r7, #28]
 636 0020 0AE0     		b	.L37
 637              	.L38:
 215:Generated_Source\PSoC6\pdl\drivers\peripheral\scb/cy_scb_common.c ****         {
 216:Generated_Source\PSoC6\pdl\drivers\peripheral\scb/cy_scb_common.c ****             Cy_SCB_WriteTxFifo(base, (uint32_t) buf[idx]);
 638              		.loc 2 216 0 discriminator 3
 639 0022 BA69     		ldr	r2, [r7, #24]
 640 0024 FB69     		ldr	r3, [r7, #28]
 641 0026 1344     		add	r3, r3, r2
 642 0028 1B78     		ldrb	r3, [r3]	@ zero_extendqisi2
 643 002a 1946     		mov	r1, r3
 644 002c F868     		ldr	r0, [r7, #12]
ARM GAS  C:\Users\ikomb\AppData\Local\Temp\ccqJLUw6.s 			page 46


 645 002e FFF7FEFF 		bl	Cy_SCB_WriteTxFifo
 214:Generated_Source\PSoC6\pdl\drivers\peripheral\scb/cy_scb_common.c ****         {
 646              		.loc 2 214 0 discriminator 3
 647 0032 FB69     		ldr	r3, [r7, #28]
 648 0034 0133     		adds	r3, r3, #1
 649 0036 FB61     		str	r3, [r7, #28]
 650              	.L37:
 214:Generated_Source\PSoC6\pdl\drivers\peripheral\scb/cy_scb_common.c ****         {
 651              		.loc 2 214 0 is_stmt 0 discriminator 1
 652 0038 FA69     		ldr	r2, [r7, #28]
 653 003a 7B68     		ldr	r3, [r7, #4]
 654 003c 9A42     		cmp	r2, r3
 655 003e F0D3     		bcc	.L38
 656              	.LBE4:
 217:Generated_Source\PSoC6\pdl\drivers\peripheral\scb/cy_scb_common.c ****         }
 218:Generated_Source\PSoC6\pdl\drivers\peripheral\scb/cy_scb_common.c ****     }
 219:Generated_Source\PSoC6\pdl\drivers\peripheral\scb/cy_scb_common.c ****     else
 220:Generated_Source\PSoC6\pdl\drivers\peripheral\scb/cy_scb_common.c ****     {
 221:Generated_Source\PSoC6\pdl\drivers\peripheral\scb/cy_scb_common.c ****         uint16_t *buf = (uint16_t *) buffer;
 222:Generated_Source\PSoC6\pdl\drivers\peripheral\scb/cy_scb_common.c **** 
 223:Generated_Source\PSoC6\pdl\drivers\peripheral\scb/cy_scb_common.c ****         /* Put data into TX FIFO */
 224:Generated_Source\PSoC6\pdl\drivers\peripheral\scb/cy_scb_common.c ****         for (idx = 0UL; idx < size; ++idx)
 225:Generated_Source\PSoC6\pdl\drivers\peripheral\scb/cy_scb_common.c ****         {
 226:Generated_Source\PSoC6\pdl\drivers\peripheral\scb/cy_scb_common.c ****             Cy_SCB_WriteTxFifo(base, (uint32_t) buf[idx]);
 227:Generated_Source\PSoC6\pdl\drivers\peripheral\scb/cy_scb_common.c ****         }
 228:Generated_Source\PSoC6\pdl\drivers\peripheral\scb/cy_scb_common.c ****     }
 229:Generated_Source\PSoC6\pdl\drivers\peripheral\scb/cy_scb_common.c **** }
 657              		.loc 2 229 0 is_stmt 1
 658 0040 14E0     		b	.L42
 659              	.L36:
 660              	.LBB5:
 221:Generated_Source\PSoC6\pdl\drivers\peripheral\scb/cy_scb_common.c **** 
 661              		.loc 2 221 0
 662 0042 BB68     		ldr	r3, [r7, #8]
 663 0044 7B61     		str	r3, [r7, #20]
 224:Generated_Source\PSoC6\pdl\drivers\peripheral\scb/cy_scb_common.c ****         {
 664              		.loc 2 224 0
 665 0046 0023     		movs	r3, #0
 666 0048 FB61     		str	r3, [r7, #28]
 667 004a 0BE0     		b	.L40
 668              	.L41:
 226:Generated_Source\PSoC6\pdl\drivers\peripheral\scb/cy_scb_common.c ****         }
 669              		.loc 2 226 0 discriminator 3
 670 004c FB69     		ldr	r3, [r7, #28]
 671 004e 5B00     		lsls	r3, r3, #1
 672 0050 7A69     		ldr	r2, [r7, #20]
 673 0052 1344     		add	r3, r3, r2
 674 0054 1B88     		ldrh	r3, [r3]
 675 0056 1946     		mov	r1, r3
 676 0058 F868     		ldr	r0, [r7, #12]
 677 005a FFF7FEFF 		bl	Cy_SCB_WriteTxFifo
 224:Generated_Source\PSoC6\pdl\drivers\peripheral\scb/cy_scb_common.c ****         {
 678              		.loc 2 224 0 discriminator 3
 679 005e FB69     		ldr	r3, [r7, #28]
 680 0060 0133     		adds	r3, r3, #1
 681 0062 FB61     		str	r3, [r7, #28]
 682              	.L40:
ARM GAS  C:\Users\ikomb\AppData\Local\Temp\ccqJLUw6.s 			page 47


 224:Generated_Source\PSoC6\pdl\drivers\peripheral\scb/cy_scb_common.c ****         {
 683              		.loc 2 224 0 is_stmt 0 discriminator 1
 684 0064 FA69     		ldr	r2, [r7, #28]
 685 0066 7B68     		ldr	r3, [r7, #4]
 686 0068 9A42     		cmp	r2, r3
 687 006a EFD3     		bcc	.L41
 688              	.L42:
 689              	.LBE5:
 690              		.loc 2 229 0 is_stmt 1
 691 006c 00BF     		nop
 692 006e 2037     		adds	r7, r7, #32
 693              		.cfi_def_cfa_offset 8
 694 0070 BD46     		mov	sp, r7
 695              		.cfi_def_cfa_register 13
 696              		@ sp needed
 697 0072 80BD     		pop	{r7, pc}
 698              		.cfi_endproc
 699              	.LFE214:
 700              		.size	Cy_SCB_WriteArrayNoCheck, .-Cy_SCB_WriteArrayNoCheck
 701              		.section	.text.Cy_SCB_WriteArray,"ax",%progbits
 702              		.align	2
 703              		.global	Cy_SCB_WriteArray
 704              		.thumb
 705              		.thumb_func
 706              		.type	Cy_SCB_WriteArray, %function
 707              	Cy_SCB_WriteArray:
 708              	.LFB215:
 230:Generated_Source\PSoC6\pdl\drivers\peripheral\scb/cy_scb_common.c **** 
 231:Generated_Source\PSoC6\pdl\drivers\peripheral\scb/cy_scb_common.c **** 
 232:Generated_Source\PSoC6\pdl\drivers\peripheral\scb/cy_scb_common.c **** /*******************************************************************************
 233:Generated_Source\PSoC6\pdl\drivers\peripheral\scb/cy_scb_common.c **** * Function Name: Cy_SCB_WriteArray
 234:Generated_Source\PSoC6\pdl\drivers\peripheral\scb/cy_scb_common.c **** ****************************************************************************//**
 235:Generated_Source\PSoC6\pdl\drivers\peripheral\scb/cy_scb_common.c **** *
 236:Generated_Source\PSoC6\pdl\drivers\peripheral\scb/cy_scb_common.c **** * Places an array of data in the SCB transmit FIFO.
 237:Generated_Source\PSoC6\pdl\drivers\peripheral\scb/cy_scb_common.c **** * This function does not block. It returns how many data elements were
 238:Generated_Source\PSoC6\pdl\drivers\peripheral\scb/cy_scb_common.c **** * placed in the transmit FIFO.
 239:Generated_Source\PSoC6\pdl\drivers\peripheral\scb/cy_scb_common.c **** *
 240:Generated_Source\PSoC6\pdl\drivers\peripheral\scb/cy_scb_common.c **** * \param base
 241:Generated_Source\PSoC6\pdl\drivers\peripheral\scb/cy_scb_common.c **** * The pointer to the SCB instance.
 242:Generated_Source\PSoC6\pdl\drivers\peripheral\scb/cy_scb_common.c **** *
 243:Generated_Source\PSoC6\pdl\drivers\peripheral\scb/cy_scb_common.c **** * \param buffer
 244:Generated_Source\PSoC6\pdl\drivers\peripheral\scb/cy_scb_common.c **** * The pointer to data to place in the transmit FIFO.
 245:Generated_Source\PSoC6\pdl\drivers\peripheral\scb/cy_scb_common.c **** * The item size is defined by the data type which depends on the configured
