ARM GAS  C:\Users\ikomb\AppData\Local\Temp\ccZduaXD.s 			page 1


   1              		.syntax unified
   2              		.cpu cortex-m4
   3              		.eabi_attribute 27, 1
   4              		.fpu fpv4-sp-d16
   5              		.eabi_attribute 20, 1
   6              		.eabi_attribute 21, 1
   7              		.eabi_attribute 23, 3
   8              		.eabi_attribute 24, 1
   9              		.eabi_attribute 25, 1
  10              		.eabi_attribute 26, 1
  11              		.eabi_attribute 30, 6
  12              		.eabi_attribute 34, 1
  13              		.eabi_attribute 18, 4
  14              		.thumb
  15              		.syntax unified
  16              		.file	"DMA_PlayLeft.c"
  17              		.text
  18              	.Ltext0:
  19              		.cfi_sections	.debug_frame
  20              		.section	.text.Cy_DMA_Enable,"ax",%progbits
  21              		.align	2
  22              		.thumb
  23              		.thumb_func
  24              		.type	Cy_DMA_Enable, %function
  25              	Cy_DMA_Enable:
  26              	.LFB125:
  27              		.file 1 "Generated_Source\\PSoC6\\pdl\\drivers/peripheral/dma/cy_dma.h"
   1:Generated_Source\PSoC6\pdl\drivers/peripheral/dma/cy_dma.h **** /***************************************************************************//**
   2:Generated_Source\PSoC6\pdl\drivers/peripheral/dma/cy_dma.h **** * \file cy_dma.h
   3:Generated_Source\PSoC6\pdl\drivers/peripheral/dma/cy_dma.h **** * \version 2.0.1
   4:Generated_Source\PSoC6\pdl\drivers/peripheral/dma/cy_dma.h **** *
   5:Generated_Source\PSoC6\pdl\drivers/peripheral/dma/cy_dma.h **** * \brief
   6:Generated_Source\PSoC6\pdl\drivers/peripheral/dma/cy_dma.h **** * The header file of the DMA driver.
   7:Generated_Source\PSoC6\pdl\drivers/peripheral/dma/cy_dma.h **** *
   8:Generated_Source\PSoC6\pdl\drivers/peripheral/dma/cy_dma.h **** ********************************************************************************
   9:Generated_Source\PSoC6\pdl\drivers/peripheral/dma/cy_dma.h **** * \copyright
  10:Generated_Source\PSoC6\pdl\drivers/peripheral/dma/cy_dma.h **** * Copyright 2016-2018, Cypress Semiconductor Corporation. All rights reserved.
  11:Generated_Source\PSoC6\pdl\drivers/peripheral/dma/cy_dma.h **** * You may use this file only in accordance with the license, terms, conditions,
  12:Generated_Source\PSoC6\pdl\drivers/peripheral/dma/cy_dma.h **** * disclaimers, and limitations in the end user license agreement accompanying
  13:Generated_Source\PSoC6\pdl\drivers/peripheral/dma/cy_dma.h **** * the software package with which this file was provided.
  14:Generated_Source\PSoC6\pdl\drivers/peripheral/dma/cy_dma.h **** *******************************************************************************/
  15:Generated_Source\PSoC6\pdl\drivers/peripheral/dma/cy_dma.h **** 
  16:Generated_Source\PSoC6\pdl\drivers/peripheral/dma/cy_dma.h **** /**
  17:Generated_Source\PSoC6\pdl\drivers/peripheral/dma/cy_dma.h **** * \defgroup group_dma Direct Memory Access (DMA)
  18:Generated_Source\PSoC6\pdl\drivers/peripheral/dma/cy_dma.h **** * \{
  19:Generated_Source\PSoC6\pdl\drivers/peripheral/dma/cy_dma.h **** * Configures a DMA channel and its descriptor(s).
  20:Generated_Source\PSoC6\pdl\drivers/peripheral/dma/cy_dma.h **** *
  21:Generated_Source\PSoC6\pdl\drivers/peripheral/dma/cy_dma.h **** * The DMA channel can be used in any project to transfer data
  22:Generated_Source\PSoC6\pdl\drivers/peripheral/dma/cy_dma.h **** * without CPU intervention basing on a hardware trigger signal from another component.
  23:Generated_Source\PSoC6\pdl\drivers/peripheral/dma/cy_dma.h **** *
  24:Generated_Source\PSoC6\pdl\drivers/peripheral/dma/cy_dma.h **** * A device may support more than one DMA hardware block. Each block has a set of 
  25:Generated_Source\PSoC6\pdl\drivers/peripheral/dma/cy_dma.h **** * registers, a base hardware address, and supports multiple channels. 
  26:Generated_Source\PSoC6\pdl\drivers/peripheral/dma/cy_dma.h **** * Many API functions for the DMA driver require a base hardware address and  
  27:Generated_Source\PSoC6\pdl\drivers/peripheral/dma/cy_dma.h **** * channel number. Ensure that you use the correct hardware address for the DMA block in use.
  28:Generated_Source\PSoC6\pdl\drivers/peripheral/dma/cy_dma.h **** * 
  29:Generated_Source\PSoC6\pdl\drivers/peripheral/dma/cy_dma.h **** * Features:
  30:Generated_Source\PSoC6\pdl\drivers/peripheral/dma/cy_dma.h **** * * Devices support up to two DMA hardware blocks
ARM GAS  C:\Users\ikomb\AppData\Local\Temp\ccZduaXD.s 			page 2


  31:Generated_Source\PSoC6\pdl\drivers/peripheral/dma/cy_dma.h **** * * Each DMA block supports up to 16 DMA channels
  32:Generated_Source\PSoC6\pdl\drivers/peripheral/dma/cy_dma.h **** * * Supports channel descriptors in SRAM
  33:Generated_Source\PSoC6\pdl\drivers/peripheral/dma/cy_dma.h **** * * Four priority levels for each channel
  34:Generated_Source\PSoC6\pdl\drivers/peripheral/dma/cy_dma.h **** * * Byte, half-word (2-byte), and word (4-byte) transfers
  35:Generated_Source\PSoC6\pdl\drivers/peripheral/dma/cy_dma.h **** * * Configurable source and destination addresses
  36:Generated_Source\PSoC6\pdl\drivers/peripheral/dma/cy_dma.h **** *
  37:Generated_Source\PSoC6\pdl\drivers/peripheral/dma/cy_dma.h **** * \section group_dma_configuration Configuration Considerations
  38:Generated_Source\PSoC6\pdl\drivers/peripheral/dma/cy_dma.h **** *
  39:Generated_Source\PSoC6\pdl\drivers/peripheral/dma/cy_dma.h **** * To set up a DMA driver, initialize a descriptor,
  40:Generated_Source\PSoC6\pdl\drivers/peripheral/dma/cy_dma.h **** * intialize and enable a channel, and enable the DMA block.
  41:Generated_Source\PSoC6\pdl\drivers/peripheral/dma/cy_dma.h **** * 
  42:Generated_Source\PSoC6\pdl\drivers/peripheral/dma/cy_dma.h **** * To set up a descriptor, provide the configuration parameters for the 
  43:Generated_Source\PSoC6\pdl\drivers/peripheral/dma/cy_dma.h **** * descriptor in the \ref cy_stc_dma_descriptor_config_t structure. Then call the 
  44:Generated_Source\PSoC6\pdl\drivers/peripheral/dma/cy_dma.h **** * \ref Cy_DMA_Descriptor_Init function to initialize the descriptor in SRAM. You can 
  45:Generated_Source\PSoC6\pdl\drivers/peripheral/dma/cy_dma.h **** * modify the source and destination addresses dynamically by calling 
  46:Generated_Source\PSoC6\pdl\drivers/peripheral/dma/cy_dma.h **** * \ref Cy_DMA_Descriptor_SetSrcAddress and \ref Cy_DMA_Descriptor_SetDstAddress.
  47:Generated_Source\PSoC6\pdl\drivers/peripheral/dma/cy_dma.h **** * 
  48:Generated_Source\PSoC6\pdl\drivers/peripheral/dma/cy_dma.h **** * To set up a DMA channel, provide a filled \ref cy_stc_dma_channel_config_t 
  49:Generated_Source\PSoC6\pdl\drivers/peripheral/dma/cy_dma.h **** * structure. Call the \ref Cy_DMA_Channel_Init function, specifying the channel
  50:Generated_Source\PSoC6\pdl\drivers/peripheral/dma/cy_dma.h **** * number. Use \ref Cy_DMA_Channel_Enable to enable the configured DMA channel.
  51:Generated_Source\PSoC6\pdl\drivers/peripheral/dma/cy_dma.h **** *
  52:Generated_Source\PSoC6\pdl\drivers/peripheral/dma/cy_dma.h **** * Call \ref Cy_DMA_Channel_Enable for each DMA channel in use.
  53:Generated_Source\PSoC6\pdl\drivers/peripheral/dma/cy_dma.h **** *
  54:Generated_Source\PSoC6\pdl\drivers/peripheral/dma/cy_dma.h **** * When configured, another peripheral typically triggers the DMA. The trigger is
  55:Generated_Source\PSoC6\pdl\drivers/peripheral/dma/cy_dma.h **** * connected to the DMA using the trigger multiplexer. The trigger multiplexer
  56:Generated_Source\PSoC6\pdl\drivers/peripheral/dma/cy_dma.h **** * driver has a software trigger you can use in firmware to trigger the DMA. See the
  57:Generated_Source\PSoC6\pdl\drivers/peripheral/dma/cy_dma.h **** * <a href="group__group__trigmux.html">Trigger Multiplexer</a> documentation.
  58:Generated_Source\PSoC6\pdl\drivers/peripheral/dma/cy_dma.h **** *
  59:Generated_Source\PSoC6\pdl\drivers/peripheral/dma/cy_dma.h **** * The following is a simplified structure of the DMA driver API interdependencies
  60:Generated_Source\PSoC6\pdl\drivers/peripheral/dma/cy_dma.h **** * in a typical user application:
  61:Generated_Source\PSoC6\pdl\drivers/peripheral/dma/cy_dma.h **** * \image html dma.png
  62:Generated_Source\PSoC6\pdl\drivers/peripheral/dma/cy_dma.h **** *
  63:Generated_Source\PSoC6\pdl\drivers/peripheral/dma/cy_dma.h **** * <B>NOTE:</B> Even if a DMA channel is enabled, it is not operational until 
  64:Generated_Source\PSoC6\pdl\drivers/peripheral/dma/cy_dma.h **** * the DMA block is enabled using function \ref Cy_DMA_Enable.\n
  65:Generated_Source\PSoC6\pdl\drivers/peripheral/dma/cy_dma.h **** * <B>NOTE:</B> if the DMA descriptor is configured to generate an interrupt, 
  66:Generated_Source\PSoC6\pdl\drivers/peripheral/dma/cy_dma.h **** * the interrupt must be enabled using the \ref Cy_DMA_Channel_SetInterruptMask 
  67:Generated_Source\PSoC6\pdl\drivers/peripheral/dma/cy_dma.h **** * function for each DMA channel.
  68:Generated_Source\PSoC6\pdl\drivers/peripheral/dma/cy_dma.h **** *
  69:Generated_Source\PSoC6\pdl\drivers/peripheral/dma/cy_dma.h **** * For example:
  70:Generated_Source\PSoC6\pdl\drivers/peripheral/dma/cy_dma.h **** * \snippet dma/dma_v2_0_sut_00.cydsn/main_cm4.c Cy_DMA_Snippet
  71:Generated_Source\PSoC6\pdl\drivers/peripheral/dma/cy_dma.h **** * 
  72:Generated_Source\PSoC6\pdl\drivers/peripheral/dma/cy_dma.h **** * \section group_dma_more_information More Information.
  73:Generated_Source\PSoC6\pdl\drivers/peripheral/dma/cy_dma.h **** * See: the DMA chapter of the device technical reference manual (TRM);
  74:Generated_Source\PSoC6\pdl\drivers/peripheral/dma/cy_dma.h **** *      the DMA Component datasheet;
  75:Generated_Source\PSoC6\pdl\drivers/peripheral/dma/cy_dma.h **** *      CE219940 - PSoC 6 MCU Multiple DMA Concatenation.
  76:Generated_Source\PSoC6\pdl\drivers/peripheral/dma/cy_dma.h **** *
  77:Generated_Source\PSoC6\pdl\drivers/peripheral/dma/cy_dma.h **** * \section group_dma_MISRA MISRA-C Compliance
  78:Generated_Source\PSoC6\pdl\drivers/peripheral/dma/cy_dma.h **** * The DMA driver has the following specific deviations:
  79:Generated_Source\PSoC6\pdl\drivers/peripheral/dma/cy_dma.h **** *
  80:Generated_Source\PSoC6\pdl\drivers/peripheral/dma/cy_dma.h **** * <table class="doxtable">
  81:Generated_Source\PSoC6\pdl\drivers/peripheral/dma/cy_dma.h **** *   <tr>
  82:Generated_Source\PSoC6\pdl\drivers/peripheral/dma/cy_dma.h **** *     <th>MISRA Rule</th>
  83:Generated_Source\PSoC6\pdl\drivers/peripheral/dma/cy_dma.h **** *     <th>Rule Class (Required/Advisory)</th>
  84:Generated_Source\PSoC6\pdl\drivers/peripheral/dma/cy_dma.h **** *     <th>Rule Description</th>
  85:Generated_Source\PSoC6\pdl\drivers/peripheral/dma/cy_dma.h **** *     <th>Description of Deviation(s)</th>
  86:Generated_Source\PSoC6\pdl\drivers/peripheral/dma/cy_dma.h **** *   </tr>
  87:Generated_Source\PSoC6\pdl\drivers/peripheral/dma/cy_dma.h **** *   <tr>
ARM GAS  C:\Users\ikomb\AppData\Local\Temp\ccZduaXD.s 			page 3


  88:Generated_Source\PSoC6\pdl\drivers/peripheral/dma/cy_dma.h **** *     <td>10.3</td>
  89:Generated_Source\PSoC6\pdl\drivers/peripheral/dma/cy_dma.h **** *     <td>R</td>
  90:Generated_Source\PSoC6\pdl\drivers/peripheral/dma/cy_dma.h **** *     <td>A composite expression of the "essentially unsigned" type is being
  91:Generated_Source\PSoC6\pdl\drivers/peripheral/dma/cy_dma.h **** *         cast to a different type category.</td>
  92:Generated_Source\PSoC6\pdl\drivers/peripheral/dma/cy_dma.h **** *     <td>The value got from the bitfield physically cannot exceed the enumeration
  93:Generated_Source\PSoC6\pdl\drivers/peripheral/dma/cy_dma.h **** *         that describes this bitfield. So, the code is safe by design.</td>
  94:Generated_Source\PSoC6\pdl\drivers/peripheral/dma/cy_dma.h **** *   </tr>
  95:Generated_Source\PSoC6\pdl\drivers/peripheral/dma/cy_dma.h **** *   <tr>
  96:Generated_Source\PSoC6\pdl\drivers/peripheral/dma/cy_dma.h **** *     <td>14.2</td>
  97:Generated_Source\PSoC6\pdl\drivers/peripheral/dma/cy_dma.h **** *     <td>R</td>
  98:Generated_Source\PSoC6\pdl\drivers/peripheral/dma/cy_dma.h **** *     <td>All non-null statements will either:
  99:Generated_Source\PSoC6\pdl\drivers/peripheral/dma/cy_dma.h **** *       a) have at least one-side effect however executed;
 100:Generated_Source\PSoC6\pdl\drivers/peripheral/dma/cy_dma.h **** *       b) cause the control flow to change</td>
 101:Generated_Source\PSoC6\pdl\drivers/peripheral/dma/cy_dma.h **** *     <td>A Read operation result is ignored when this read is just intended
 102:Generated_Source\PSoC6\pdl\drivers/peripheral/dma/cy_dma.h **** *         to ensure the previous Write operation is flushed out to the hardware.</td>
 103:Generated_Source\PSoC6\pdl\drivers/peripheral/dma/cy_dma.h **** *   </tr>
 104:Generated_Source\PSoC6\pdl\drivers/peripheral/dma/cy_dma.h **** * </table>
 105:Generated_Source\PSoC6\pdl\drivers/peripheral/dma/cy_dma.h **** *
 106:Generated_Source\PSoC6\pdl\drivers/peripheral/dma/cy_dma.h **** * \section group_dma_changelog Changelog
 107:Generated_Source\PSoC6\pdl\drivers/peripheral/dma/cy_dma.h **** *
 108:Generated_Source\PSoC6\pdl\drivers/peripheral/dma/cy_dma.h **** * <table class="doxtable">
 109:Generated_Source\PSoC6\pdl\drivers/peripheral/dma/cy_dma.h **** *   <tr><th>Version</th><th>Changes</th><th>Reason for Change</th></tr>
 110:Generated_Source\PSoC6\pdl\drivers/peripheral/dma/cy_dma.h **** *   <tr>
 111:Generated_Source\PSoC6\pdl\drivers/peripheral/dma/cy_dma.h **** *     <td>2.0.1</td>
 112:Generated_Source\PSoC6\pdl\drivers/peripheral/dma/cy_dma.h **** *     <td>Changed \ref CY_DMA_BWC macro values from Boolean to numeric</td>
 113:Generated_Source\PSoC6\pdl\drivers/peripheral/dma/cy_dma.h **** *     <td>Improvements made based on usability feedback</td>
 114:Generated_Source\PSoC6\pdl\drivers/peripheral/dma/cy_dma.h **** *   </tr>
 115:Generated_Source\PSoC6\pdl\drivers/peripheral/dma/cy_dma.h **** *   <tr>
 116:Generated_Source\PSoC6\pdl\drivers/peripheral/dma/cy_dma.h **** *     <td>2.0</td>
 117:Generated_Source\PSoC6\pdl\drivers/peripheral/dma/cy_dma.h **** *     <td>* All the API is refactored to be consistent within itself and with the
 118:Generated_Source\PSoC6\pdl\drivers/peripheral/dma/cy_dma.h **** *           rest of the PDL content.
 119:Generated_Source\PSoC6\pdl\drivers/peripheral/dma/cy_dma.h **** *         * The descriptor API is updated as follows:
 120:Generated_Source\PSoC6\pdl\drivers/peripheral/dma/cy_dma.h **** *           The \ref Cy_DMA_Descriptor_Init function sets a full bunch of descriptor
 121:Generated_Source\PSoC6\pdl\drivers/peripheral/dma/cy_dma.h **** *           settings, and the rest of the descriptor API is a get/set interface
 122:Generated_Source\PSoC6\pdl\drivers/peripheral/dma/cy_dma.h **** *           to each of the descriptor settings.
 123:Generated_Source\PSoC6\pdl\drivers/peripheral/dma/cy_dma.h **** *         * There is a group of macros to support the backward compatibility with most 
 124:Generated_Source\PSoC6\pdl\drivers/peripheral/dma/cy_dma.h **** *           of the driver version 1.0 API. But, it is strongly recommended to use
 125:Generated_Source\PSoC6\pdl\drivers/peripheral/dma/cy_dma.h **** *           the new v2.0 interface in new designs (do not just copy-paste from old
 126:Generated_Source\PSoC6\pdl\drivers/peripheral/dma/cy_dma.h **** *           projects). To enable the backward compatibility support, the CY_DMA_BWC 
 127:Generated_Source\PSoC6\pdl\drivers/peripheral/dma/cy_dma.h **** *           definition should be changed to "1".</td>
 128:Generated_Source\PSoC6\pdl\drivers/peripheral/dma/cy_dma.h **** *     <td></td>
 129:Generated_Source\PSoC6\pdl\drivers/peripheral/dma/cy_dma.h **** *   </tr>
 130:Generated_Source\PSoC6\pdl\drivers/peripheral/dma/cy_dma.h **** *   <tr>
 131:Generated_Source\PSoC6\pdl\drivers/peripheral/dma/cy_dma.h **** *     <td>1.0</td>
 132:Generated_Source\PSoC6\pdl\drivers/peripheral/dma/cy_dma.h **** *     <td>Initial version</td>
 133:Generated_Source\PSoC6\pdl\drivers/peripheral/dma/cy_dma.h **** *     <td></td>
 134:Generated_Source\PSoC6\pdl\drivers/peripheral/dma/cy_dma.h **** *   </tr>
 135:Generated_Source\PSoC6\pdl\drivers/peripheral/dma/cy_dma.h **** * </table>
 136:Generated_Source\PSoC6\pdl\drivers/peripheral/dma/cy_dma.h **** *
 137:Generated_Source\PSoC6\pdl\drivers/peripheral/dma/cy_dma.h **** 
 138:Generated_Source\PSoC6\pdl\drivers/peripheral/dma/cy_dma.h **** * \defgroup group_dma_macros Macros
 139:Generated_Source\PSoC6\pdl\drivers/peripheral/dma/cy_dma.h **** * \defgroup group_dma_functions Functions
 140:Generated_Source\PSoC6\pdl\drivers/peripheral/dma/cy_dma.h **** * \{
 141:Generated_Source\PSoC6\pdl\drivers/peripheral/dma/cy_dma.h **** * \defgroup group_dma_block_functions Block Functions
 142:Generated_Source\PSoC6\pdl\drivers/peripheral/dma/cy_dma.h **** * \defgroup group_dma_descriptor_functions Descriptor Functions
 143:Generated_Source\PSoC6\pdl\drivers/peripheral/dma/cy_dma.h **** * \defgroup group_dma_channel_functions Channel Functions
 144:Generated_Source\PSoC6\pdl\drivers/peripheral/dma/cy_dma.h **** * \}
ARM GAS  C:\Users\ikomb\AppData\Local\Temp\ccZduaXD.s 			page 4


 145:Generated_Source\PSoC6\pdl\drivers/peripheral/dma/cy_dma.h **** * \defgroup group_dma_data_structures Data Structures
 146:Generated_Source\PSoC6\pdl\drivers/peripheral/dma/cy_dma.h **** * \defgroup group_dma_enums Enumerated Types
 147:Generated_Source\PSoC6\pdl\drivers/peripheral/dma/cy_dma.h **** */
 148:Generated_Source\PSoC6\pdl\drivers/peripheral/dma/cy_dma.h **** 
 149:Generated_Source\PSoC6\pdl\drivers/peripheral/dma/cy_dma.h **** #if !defined(CY_DMA_H)
 150:Generated_Source\PSoC6\pdl\drivers/peripheral/dma/cy_dma.h **** #define CY_DMA_H
 151:Generated_Source\PSoC6\pdl\drivers/peripheral/dma/cy_dma.h **** 
 152:Generated_Source\PSoC6\pdl\drivers/peripheral/dma/cy_dma.h **** #include <stdint.h>
 153:Generated_Source\PSoC6\pdl\drivers/peripheral/dma/cy_dma.h **** #include <stdbool.h>
 154:Generated_Source\PSoC6\pdl\drivers/peripheral/dma/cy_dma.h **** #include <stddef.h>
 155:Generated_Source\PSoC6\pdl\drivers/peripheral/dma/cy_dma.h **** #include "syslib/cy_syslib.h"
 156:Generated_Source\PSoC6\pdl\drivers/peripheral/dma/cy_dma.h **** #include "cy_device_headers.h"
 157:Generated_Source\PSoC6\pdl\drivers/peripheral/dma/cy_dma.h **** 
 158:Generated_Source\PSoC6\pdl\drivers/peripheral/dma/cy_dma.h **** #ifndef CY_IP_M4CPUSS_DMA
 159:Generated_Source\PSoC6\pdl\drivers/peripheral/dma/cy_dma.h ****     #error "The DMA driver is not supported on this device"
 160:Generated_Source\PSoC6\pdl\drivers/peripheral/dma/cy_dma.h **** #endif
 161:Generated_Source\PSoC6\pdl\drivers/peripheral/dma/cy_dma.h **** 
 162:Generated_Source\PSoC6\pdl\drivers/peripheral/dma/cy_dma.h **** #if defined(__cplusplus)
 163:Generated_Source\PSoC6\pdl\drivers/peripheral/dma/cy_dma.h **** extern "C" {
 164:Generated_Source\PSoC6\pdl\drivers/peripheral/dma/cy_dma.h **** #endif
 165:Generated_Source\PSoC6\pdl\drivers/peripheral/dma/cy_dma.h **** 
 166:Generated_Source\PSoC6\pdl\drivers/peripheral/dma/cy_dma.h **** /******************************************************************************
 167:Generated_Source\PSoC6\pdl\drivers/peripheral/dma/cy_dma.h ****  * Macro definitions                                                          *
 168:Generated_Source\PSoC6\pdl\drivers/peripheral/dma/cy_dma.h ****  ******************************************************************************/
 169:Generated_Source\PSoC6\pdl\drivers/peripheral/dma/cy_dma.h **** 
 170:Generated_Source\PSoC6\pdl\drivers/peripheral/dma/cy_dma.h **** /**
 171:Generated_Source\PSoC6\pdl\drivers/peripheral/dma/cy_dma.h **** * \addtogroup group_dma_macros
 172:Generated_Source\PSoC6\pdl\drivers/peripheral/dma/cy_dma.h **** * \{
 173:Generated_Source\PSoC6\pdl\drivers/peripheral/dma/cy_dma.h **** */
 174:Generated_Source\PSoC6\pdl\drivers/peripheral/dma/cy_dma.h **** 
 175:Generated_Source\PSoC6\pdl\drivers/peripheral/dma/cy_dma.h **** /** The driver major version */
 176:Generated_Source\PSoC6\pdl\drivers/peripheral/dma/cy_dma.h **** #define CY_DMA_DRV_VERSION_MAJOR       2
 177:Generated_Source\PSoC6\pdl\drivers/peripheral/dma/cy_dma.h **** 
 178:Generated_Source\PSoC6\pdl\drivers/peripheral/dma/cy_dma.h **** /** The driver minor version */
 179:Generated_Source\PSoC6\pdl\drivers/peripheral/dma/cy_dma.h **** #define CY_DMA_DRV_VERSION_MINOR       0
 180:Generated_Source\PSoC6\pdl\drivers/peripheral/dma/cy_dma.h **** 
 181:Generated_Source\PSoC6\pdl\drivers/peripheral/dma/cy_dma.h **** /** The DMA driver identifier */
 182:Generated_Source\PSoC6\pdl\drivers/peripheral/dma/cy_dma.h **** #define CY_DMA_ID                      (CY_PDL_DRV_ID(0x13U))
 183:Generated_Source\PSoC6\pdl\drivers/peripheral/dma/cy_dma.h ****  
 184:Generated_Source\PSoC6\pdl\drivers/peripheral/dma/cy_dma.h **** /** The DMA channel interrupt mask */
 185:Generated_Source\PSoC6\pdl\drivers/peripheral/dma/cy_dma.h **** #define CY_DMA_INTR_MASK               (0x01UL)
 186:Generated_Source\PSoC6\pdl\drivers/peripheral/dma/cy_dma.h **** 
 187:Generated_Source\PSoC6\pdl\drivers/peripheral/dma/cy_dma.h **** /** The backward compatibility flag. Enables a group of macros which provide 
 188:Generated_Source\PSoC6\pdl\drivers/peripheral/dma/cy_dma.h **** * the backward compatibility with most of the DMA driver version 1.0 interface. */
 189:Generated_Source\PSoC6\pdl\drivers/peripheral/dma/cy_dma.h **** #ifndef CY_DMA_BWC
 190:Generated_Source\PSoC6\pdl\drivers/peripheral/dma/cy_dma.h ****     #define CY_DMA_BWC                 (0U)
 191:Generated_Source\PSoC6\pdl\drivers/peripheral/dma/cy_dma.h **** #endif
 192:Generated_Source\PSoC6\pdl\drivers/peripheral/dma/cy_dma.h **** 
 193:Generated_Source\PSoC6\pdl\drivers/peripheral/dma/cy_dma.h **** /** \} group_dma_macros */
 194:Generated_Source\PSoC6\pdl\drivers/peripheral/dma/cy_dma.h **** 
 195:Generated_Source\PSoC6\pdl\drivers/peripheral/dma/cy_dma.h **** 
 196:Generated_Source\PSoC6\pdl\drivers/peripheral/dma/cy_dma.h **** /**
 197:Generated_Source\PSoC6\pdl\drivers/peripheral/dma/cy_dma.h **** * \addtogroup group_dma_enums
 198:Generated_Source\PSoC6\pdl\drivers/peripheral/dma/cy_dma.h **** * \{
 199:Generated_Source\PSoC6\pdl\drivers/peripheral/dma/cy_dma.h **** */
 200:Generated_Source\PSoC6\pdl\drivers/peripheral/dma/cy_dma.h **** 
 201:Generated_Source\PSoC6\pdl\drivers/peripheral/dma/cy_dma.h **** /** Contains the possible interrupt cause values */
ARM GAS  C:\Users\ikomb\AppData\Local\Temp\ccZduaXD.s 			page 5


 202:Generated_Source\PSoC6\pdl\drivers/peripheral/dma/cy_dma.h **** typedef enum
 203:Generated_Source\PSoC6\pdl\drivers/peripheral/dma/cy_dma.h **** {
 204:Generated_Source\PSoC6\pdl\drivers/peripheral/dma/cy_dma.h ****     CY_DMA_INTR_CAUSE_NO_INTR            = 0U, /**< No interrupt                         */
 205:Generated_Source\PSoC6\pdl\drivers/peripheral/dma/cy_dma.h ****     CY_DMA_INTR_CAUSE_COMPLETION         = 1U, /**< Completion                           */
 206:Generated_Source\PSoC6\pdl\drivers/peripheral/dma/cy_dma.h ****     CY_DMA_INTR_CAUSE_SRC_BUS_ERROR      = 2U, /**< Source bus error                     */
 207:Generated_Source\PSoC6\pdl\drivers/peripheral/dma/cy_dma.h ****     CY_DMA_INTR_CAUSE_DST_BUS_ERROR      = 3U, /**< Destination bus error                */
 208:Generated_Source\PSoC6\pdl\drivers/peripheral/dma/cy_dma.h ****     CY_DMA_INTR_CAUSE_SRC_MISAL          = 4U, /**< Source address is not aligned        */
 209:Generated_Source\PSoC6\pdl\drivers/peripheral/dma/cy_dma.h ****     CY_DMA_INTR_CAUSE_DST_MISAL          = 5U, /**< Destination address is not aligned   */
 210:Generated_Source\PSoC6\pdl\drivers/peripheral/dma/cy_dma.h ****     CY_DMA_INTR_CAUSE_CURR_PTR_NULL      = 6U, /**< Current descripror pointer is NULL   */
 211:Generated_Source\PSoC6\pdl\drivers/peripheral/dma/cy_dma.h ****     CY_DMA_INTR_CAUSE_ACTIVE_CH_DISABLED = 7U, /**< Active channel is disabled           */
 212:Generated_Source\PSoC6\pdl\drivers/peripheral/dma/cy_dma.h ****     CY_DMA_INTR_CAUSE_DESCR_BUS_ERROR    = 8U  /**< Descriptor bus error                 */
 213:Generated_Source\PSoC6\pdl\drivers/peripheral/dma/cy_dma.h **** } cy_en_dma_intr_cause_t;
 214:Generated_Source\PSoC6\pdl\drivers/peripheral/dma/cy_dma.h **** 
 215:Generated_Source\PSoC6\pdl\drivers/peripheral/dma/cy_dma.h **** /** Contains the options for the descriptor type */
 216:Generated_Source\PSoC6\pdl\drivers/peripheral/dma/cy_dma.h **** typedef enum
 217:Generated_Source\PSoC6\pdl\drivers/peripheral/dma/cy_dma.h **** {
 218:Generated_Source\PSoC6\pdl\drivers/peripheral/dma/cy_dma.h ****     CY_DMA_SINGLE_TRANSFER = 0UL,          /**< Single transfer. */
 219:Generated_Source\PSoC6\pdl\drivers/peripheral/dma/cy_dma.h ****     CY_DMA_1D_TRANSFER     = 1UL,          /**< 1D transfer.     */
 220:Generated_Source\PSoC6\pdl\drivers/peripheral/dma/cy_dma.h ****     CY_DMA_2D_TRANSFER     = 2UL           /**< 2D transfer.     */
 221:Generated_Source\PSoC6\pdl\drivers/peripheral/dma/cy_dma.h **** } cy_en_dma_descriptor_type_t;
 222:Generated_Source\PSoC6\pdl\drivers/peripheral/dma/cy_dma.h **** 
 223:Generated_Source\PSoC6\pdl\drivers/peripheral/dma/cy_dma.h **** /** Contains the options for the interrupt, trig-in and trig-out type parameters of the descriptor 
 224:Generated_Source\PSoC6\pdl\drivers/peripheral/dma/cy_dma.h **** typedef enum
 225:Generated_Source\PSoC6\pdl\drivers/peripheral/dma/cy_dma.h **** {
 226:Generated_Source\PSoC6\pdl\drivers/peripheral/dma/cy_dma.h ****     CY_DMA_1ELEMENT    = 0UL,               /**< One element transfer.             */
 227:Generated_Source\PSoC6\pdl\drivers/peripheral/dma/cy_dma.h ****     CY_DMA_X_LOOP      = 1UL,               /**< One X loop transfer.              */
 228:Generated_Source\PSoC6\pdl\drivers/peripheral/dma/cy_dma.h ****     CY_DMA_DESCR       = 2UL,               /**< One descriptor transfer.          */
 229:Generated_Source\PSoC6\pdl\drivers/peripheral/dma/cy_dma.h ****     CY_DMA_DESCR_CHAIN = 3UL                /**< Entire descriptor chain transfer. */
 230:Generated_Source\PSoC6\pdl\drivers/peripheral/dma/cy_dma.h **** } cy_en_dma_trigger_type_t;
 231:Generated_Source\PSoC6\pdl\drivers/peripheral/dma/cy_dma.h **** 
 232:Generated_Source\PSoC6\pdl\drivers/peripheral/dma/cy_dma.h **** /** This enum has the options for the data size */
 233:Generated_Source\PSoC6\pdl\drivers/peripheral/dma/cy_dma.h **** typedef enum
 234:Generated_Source\PSoC6\pdl\drivers/peripheral/dma/cy_dma.h **** {
 235:Generated_Source\PSoC6\pdl\drivers/peripheral/dma/cy_dma.h ****     CY_DMA_BYTE     = 0UL,                 /**< One byte               */
 236:Generated_Source\PSoC6\pdl\drivers/peripheral/dma/cy_dma.h ****     CY_DMA_HALFWORD = 1UL,                 /**< Half word (two bytes)  */
 237:Generated_Source\PSoC6\pdl\drivers/peripheral/dma/cy_dma.h ****     CY_DMA_WORD     = 2UL                  /**< Full word (four bytes) */
 238:Generated_Source\PSoC6\pdl\drivers/peripheral/dma/cy_dma.h **** } cy_en_dma_data_size_t;
 239:Generated_Source\PSoC6\pdl\drivers/peripheral/dma/cy_dma.h **** 
 240:Generated_Source\PSoC6\pdl\drivers/peripheral/dma/cy_dma.h **** /** This enum has the options for descriptor retriggering */
 241:Generated_Source\PSoC6\pdl\drivers/peripheral/dma/cy_dma.h **** typedef enum
 242:Generated_Source\PSoC6\pdl\drivers/peripheral/dma/cy_dma.h **** {
 243:Generated_Source\PSoC6\pdl\drivers/peripheral/dma/cy_dma.h ****     CY_DMA_RETRIG_IM    = 0UL,             /**< Retrigger immediatelly            */
 244:Generated_Source\PSoC6\pdl\drivers/peripheral/dma/cy_dma.h ****     CY_DMA_RETRIG_4CYC  = 1UL,             /**< Retrigger after 4 Clk_Slow cycles  */
 245:Generated_Source\PSoC6\pdl\drivers/peripheral/dma/cy_dma.h ****     CY_DMA_RETRIG_16CYC = 2UL,             /**< Retrigger after 16 Clk_Slow cycles */
 246:Generated_Source\PSoC6\pdl\drivers/peripheral/dma/cy_dma.h ****     CY_DMA_WAIT_FOR_REACT = 3UL            /**< Wait for trigger reactivation     */
 247:Generated_Source\PSoC6\pdl\drivers/peripheral/dma/cy_dma.h **** } cy_en_dma_retrigger_t;
 248:Generated_Source\PSoC6\pdl\drivers/peripheral/dma/cy_dma.h **** 
 249:Generated_Source\PSoC6\pdl\drivers/peripheral/dma/cy_dma.h **** /** This enum has the options for the transfer size */
 250:Generated_Source\PSoC6\pdl\drivers/peripheral/dma/cy_dma.h **** typedef enum
 251:Generated_Source\PSoC6\pdl\drivers/peripheral/dma/cy_dma.h **** {
 252:Generated_Source\PSoC6\pdl\drivers/peripheral/dma/cy_dma.h ****     CY_DMA_TRANSFER_SIZE_DATA = 0UL,           /**< As specified by dataSize. */
 253:Generated_Source\PSoC6\pdl\drivers/peripheral/dma/cy_dma.h ****     CY_DMA_TRANSFER_SIZE_WORD = 1UL,           /**< A full word (four bytes). */
 254:Generated_Source\PSoC6\pdl\drivers/peripheral/dma/cy_dma.h **** } cy_en_dma_transfer_size_t;
 255:Generated_Source\PSoC6\pdl\drivers/peripheral/dma/cy_dma.h **** 
 256:Generated_Source\PSoC6\pdl\drivers/peripheral/dma/cy_dma.h **** /** This enum has the options for the state of the channel when the descriptor is completed   */
 257:Generated_Source\PSoC6\pdl\drivers/peripheral/dma/cy_dma.h **** typedef enum
 258:Generated_Source\PSoC6\pdl\drivers/peripheral/dma/cy_dma.h **** {
ARM GAS  C:\Users\ikomb\AppData\Local\Temp\ccZduaXD.s 			page 6


 259:Generated_Source\PSoC6\pdl\drivers/peripheral/dma/cy_dma.h ****     CY_DMA_CHANNEL_ENABLED  = 0UL,         /**< Channel stays enabled  */
 260:Generated_Source\PSoC6\pdl\drivers/peripheral/dma/cy_dma.h ****     CY_DMA_CHANNEL_DISABLED = 1UL          /**< Channel is disabled */
 261:Generated_Source\PSoC6\pdl\drivers/peripheral/dma/cy_dma.h **** } cy_en_dma_channel_state_t;
 262:Generated_Source\PSoC6\pdl\drivers/peripheral/dma/cy_dma.h **** 
 263:Generated_Source\PSoC6\pdl\drivers/peripheral/dma/cy_dma.h **** /** This enum has the return values of the DMA driver */
 264:Generated_Source\PSoC6\pdl\drivers/peripheral/dma/cy_dma.h **** typedef enum 
 265:Generated_Source\PSoC6\pdl\drivers/peripheral/dma/cy_dma.h **** {
 266:Generated_Source\PSoC6\pdl\drivers/peripheral/dma/cy_dma.h ****     CY_DMA_SUCCESS          = 0x00UL, /**< Success. */
 267:Generated_Source\PSoC6\pdl\drivers/peripheral/dma/cy_dma.h ****     CY_DMA_BAD_PARAM        = CY_DMA_ID | CY_PDL_STATUS_ERROR | 0x01UL /**< The input parameters pa
 268:Generated_Source\PSoC6\pdl\drivers/peripheral/dma/cy_dma.h **** } cy_en_dma_status_t;
 269:Generated_Source\PSoC6\pdl\drivers/peripheral/dma/cy_dma.h **** 
 270:Generated_Source\PSoC6\pdl\drivers/peripheral/dma/cy_dma.h **** /** \} group_dma_enums */
 271:Generated_Source\PSoC6\pdl\drivers/peripheral/dma/cy_dma.h **** 
 272:Generated_Source\PSoC6\pdl\drivers/peripheral/dma/cy_dma.h **** 
 273:Generated_Source\PSoC6\pdl\drivers/peripheral/dma/cy_dma.h **** /** \cond Macros for the conditions used by CY_ASSERT calls */
 274:Generated_Source\PSoC6\pdl\drivers/peripheral/dma/cy_dma.h **** 
 275:Generated_Source\PSoC6\pdl\drivers/peripheral/dma/cy_dma.h **** #define CY_DMA_IS_COUNT_VALID(count)          (((count) >= 1UL) && ((count) <= 256UL))
 276:Generated_Source\PSoC6\pdl\drivers/peripheral/dma/cy_dma.h **** #define CY_DMA_IS_INCR_VALID(incr)            (((incr) >= -2048L) && ((incr) <= 2047L))
 277:Generated_Source\PSoC6\pdl\drivers/peripheral/dma/cy_dma.h **** #define CY_DMA_IS_PRIORITY_VALID(prio)        ((prio) <= 3UL)
 278:Generated_Source\PSoC6\pdl\drivers/peripheral/dma/cy_dma.h **** #define CY_DMA_IS_INTR_MASK_VALID(interrupt)  (0UL == ((interrupt) & ((uint32_t) ~CY_DMA_INTR_MASK)
 279:Generated_Source\PSoC6\pdl\drivers/peripheral/dma/cy_dma.h **** 
 280:Generated_Source\PSoC6\pdl\drivers/peripheral/dma/cy_dma.h **** #define CY_DMA_IS_RETRIGGER_VALID(retrigger)  ((CY_DMA_RETRIG_IM      == (retrigger)) || \
 281:Generated_Source\PSoC6\pdl\drivers/peripheral/dma/cy_dma.h ****                                                (CY_DMA_RETRIG_4CYC    == (retrigger)) || \
 282:Generated_Source\PSoC6\pdl\drivers/peripheral/dma/cy_dma.h ****                                                (CY_DMA_RETRIG_16CYC   == (retrigger)) || \
 283:Generated_Source\PSoC6\pdl\drivers/peripheral/dma/cy_dma.h ****                                                (CY_DMA_WAIT_FOR_REACT == (retrigger)))
 284:Generated_Source\PSoC6\pdl\drivers/peripheral/dma/cy_dma.h ****                                               
 285:Generated_Source\PSoC6\pdl\drivers/peripheral/dma/cy_dma.h **** #define CY_DMA_IS_TRIG_TYPE_VALID(trigType)   ((CY_DMA_1ELEMENT    == (trigType)) || \
 286:Generated_Source\PSoC6\pdl\drivers/peripheral/dma/cy_dma.h ****                                                (CY_DMA_X_LOOP      == (trigType)) || \
 287:Generated_Source\PSoC6\pdl\drivers/peripheral/dma/cy_dma.h ****                                                (CY_DMA_DESCR       == (trigType)) || \
 288:Generated_Source\PSoC6\pdl\drivers/peripheral/dma/cy_dma.h ****                                                (CY_DMA_DESCR_CHAIN == (trigType)))
 289:Generated_Source\PSoC6\pdl\drivers/peripheral/dma/cy_dma.h ****                                               
 290:Generated_Source\PSoC6\pdl\drivers/peripheral/dma/cy_dma.h **** #define CY_DMA_IS_XFER_SIZE_VALID(xferSize)   ((CY_DMA_TRANSFER_SIZE_DATA == (xferSize)) || \
 291:Generated_Source\PSoC6\pdl\drivers/peripheral/dma/cy_dma.h ****                                                (CY_DMA_TRANSFER_SIZE_WORD == (xferSize)))
 292:Generated_Source\PSoC6\pdl\drivers/peripheral/dma/cy_dma.h ****                                               
 293:Generated_Source\PSoC6\pdl\drivers/peripheral/dma/cy_dma.h **** #define CY_DMA_IS_CHANNEL_STATE_VALID(state)  ((CY_DMA_CHANNEL_ENABLED  == (state)) || \
 294:Generated_Source\PSoC6\pdl\drivers/peripheral/dma/cy_dma.h ****                                                (CY_DMA_CHANNEL_DISABLED == (state)))
 295:Generated_Source\PSoC6\pdl\drivers/peripheral/dma/cy_dma.h ****                                                
 296:Generated_Source\PSoC6\pdl\drivers/peripheral/dma/cy_dma.h **** #define CY_DMA_IS_DATA_SIZE_VALID(dataSize)   ((CY_DMA_BYTE     == (dataSize)) || \
 297:Generated_Source\PSoC6\pdl\drivers/peripheral/dma/cy_dma.h ****                                                (CY_DMA_HALFWORD == (dataSize)) || \
 298:Generated_Source\PSoC6\pdl\drivers/peripheral/dma/cy_dma.h ****                                                (CY_DMA_WORD     == (dataSize)))
 299:Generated_Source\PSoC6\pdl\drivers/peripheral/dma/cy_dma.h ****                                                
 300:Generated_Source\PSoC6\pdl\drivers/peripheral/dma/cy_dma.h **** #define CY_DMA_IS_TYPE_VALID(descrType)       ((CY_DMA_SINGLE_TRANSFER == (descrType)) || \
 301:Generated_Source\PSoC6\pdl\drivers/peripheral/dma/cy_dma.h ****                                                (CY_DMA_1D_TRANSFER     == (descrType)) || \
 302:Generated_Source\PSoC6\pdl\drivers/peripheral/dma/cy_dma.h ****                                                (CY_DMA_2D_TRANSFER     == (descrType)))
 303:Generated_Source\PSoC6\pdl\drivers/peripheral/dma/cy_dma.h ****                                                
 304:Generated_Source\PSoC6\pdl\drivers/peripheral/dma/cy_dma.h **** #define CY_DMA_IS_DW_CH_NR_VALID(dwNr, chNr)  (((0U != CPUSS_DW0_PRESENT) && (DW0 == (dwNr)) && ((c
 305:Generated_Source\PSoC6\pdl\drivers/peripheral/dma/cy_dma.h ****                                                ((0U != CPUSS_DW1_PRESENT) && (DW1 == (dwNr)) && ((c
 306:Generated_Source\PSoC6\pdl\drivers/peripheral/dma/cy_dma.h **** 
 307:Generated_Source\PSoC6\pdl\drivers/peripheral/dma/cy_dma.h **** /* The descriptor structure bit-filed definitions */
 308:Generated_Source\PSoC6\pdl\drivers/peripheral/dma/cy_dma.h **** #define CY_DMA_CTL_RETRIG_Pos      0UL
 309:Generated_Source\PSoC6\pdl\drivers/peripheral/dma/cy_dma.h **** #define CY_DMA_CTL_RETRIG_Msk      0x3UL
 310:Generated_Source\PSoC6\pdl\drivers/peripheral/dma/cy_dma.h **** #define CY_DMA_CTL_INTR_TYPE_Pos   2UL
 311:Generated_Source\PSoC6\pdl\drivers/peripheral/dma/cy_dma.h **** #define CY_DMA_CTL_INTR_TYPE_Msk   0xCUL
 312:Generated_Source\PSoC6\pdl\drivers/peripheral/dma/cy_dma.h **** #define CY_DMA_CTL_TR_OUT_TYPE_Pos 4UL
 313:Generated_Source\PSoC6\pdl\drivers/peripheral/dma/cy_dma.h **** #define CY_DMA_CTL_TR_OUT_TYPE_Msk 0x30UL
 314:Generated_Source\PSoC6\pdl\drivers/peripheral/dma/cy_dma.h **** #define CY_DMA_CTL_TR_IN_TYPE_Pos  6UL
 315:Generated_Source\PSoC6\pdl\drivers/peripheral/dma/cy_dma.h **** #define CY_DMA_CTL_TR_IN_TYPE_Msk  0xC0UL
ARM GAS  C:\Users\ikomb\AppData\Local\Temp\ccZduaXD.s 			page 7


 316:Generated_Source\PSoC6\pdl\drivers/peripheral/dma/cy_dma.h **** #define CY_DMA_CTL_CH_DISABLE_Pos  24UL
 317:Generated_Source\PSoC6\pdl\drivers/peripheral/dma/cy_dma.h **** #define CY_DMA_CTL_CH_DISABLE_Msk  0x1000000UL
 318:Generated_Source\PSoC6\pdl\drivers/peripheral/dma/cy_dma.h **** #define CY_DMA_CTL_SRC_SIZE_Pos    26UL
 319:Generated_Source\PSoC6\pdl\drivers/peripheral/dma/cy_dma.h **** #define CY_DMA_CTL_SRC_SIZE_Msk    0x4000000UL
 320:Generated_Source\PSoC6\pdl\drivers/peripheral/dma/cy_dma.h **** #define CY_DMA_CTL_DST_SIZE_Pos    27UL
 321:Generated_Source\PSoC6\pdl\drivers/peripheral/dma/cy_dma.h **** #define CY_DMA_CTL_DST_SIZE_Msk    0x8000000UL
 322:Generated_Source\PSoC6\pdl\drivers/peripheral/dma/cy_dma.h **** #define CY_DMA_CTL_DATA_SIZE_Pos   28UL
 323:Generated_Source\PSoC6\pdl\drivers/peripheral/dma/cy_dma.h **** #define CY_DMA_CTL_DATA_SIZE_Msk   0x30000000UL
 324:Generated_Source\PSoC6\pdl\drivers/peripheral/dma/cy_dma.h **** #define CY_DMA_CTL_TYPE_Pos        30UL
 325:Generated_Source\PSoC6\pdl\drivers/peripheral/dma/cy_dma.h **** #define CY_DMA_CTL_TYPE_Msk        0xC0000000UL
 326:Generated_Source\PSoC6\pdl\drivers/peripheral/dma/cy_dma.h **** 
 327:Generated_Source\PSoC6\pdl\drivers/peripheral/dma/cy_dma.h **** #define CY_DMA_CTL_SRC_INCR_Pos    0UL
 328:Generated_Source\PSoC6\pdl\drivers/peripheral/dma/cy_dma.h **** #define CY_DMA_CTL_SRC_INCR_Msk    0xFFFUL
 329:Generated_Source\PSoC6\pdl\drivers/peripheral/dma/cy_dma.h **** #define CY_DMA_CTL_DST_INCR_Pos    12UL
 330:Generated_Source\PSoC6\pdl\drivers/peripheral/dma/cy_dma.h **** #define CY_DMA_CTL_DST_INCR_Msk    0xFFF000UL
 331:Generated_Source\PSoC6\pdl\drivers/peripheral/dma/cy_dma.h **** #define CY_DMA_CTL_COUNT_Pos       24UL
 332:Generated_Source\PSoC6\pdl\drivers/peripheral/dma/cy_dma.h **** #define CY_DMA_CTL_COUNT_Msk       0xFF000000UL
 333:Generated_Source\PSoC6\pdl\drivers/peripheral/dma/cy_dma.h **** 
 334:Generated_Source\PSoC6\pdl\drivers/peripheral/dma/cy_dma.h **** /** \endcond */
 335:Generated_Source\PSoC6\pdl\drivers/peripheral/dma/cy_dma.h **** 
 336:Generated_Source\PSoC6\pdl\drivers/peripheral/dma/cy_dma.h **** 
 337:Generated_Source\PSoC6\pdl\drivers/peripheral/dma/cy_dma.h **** /**
 338:Generated_Source\PSoC6\pdl\drivers/peripheral/dma/cy_dma.h **** * \addtogroup group_dma_data_structures
 339:Generated_Source\PSoC6\pdl\drivers/peripheral/dma/cy_dma.h **** * \{
 340:Generated_Source\PSoC6\pdl\drivers/peripheral/dma/cy_dma.h **** */
 341:Generated_Source\PSoC6\pdl\drivers/peripheral/dma/cy_dma.h **** 
 342:Generated_Source\PSoC6\pdl\drivers/peripheral/dma/cy_dma.h **** /** 
 343:Generated_Source\PSoC6\pdl\drivers/peripheral/dma/cy_dma.h **** * DMA descriptor structure type. It is a user/component-declared structure 
 344:Generated_Source\PSoC6\pdl\drivers/peripheral/dma/cy_dma.h **** * allocated in RAM. The DMA HW requires a pointer to this structure to work with it.
 345:Generated_Source\PSoC6\pdl\drivers/peripheral/dma/cy_dma.h **** *
 346:Generated_Source\PSoC6\pdl\drivers/peripheral/dma/cy_dma.h **** * For advanced users: the descriptor can be allocated even in Flash, then the user
 347:Generated_Source\PSoC6\pdl\drivers/peripheral/dma/cy_dma.h **** * manually predefines all the structure items with constants, 
 348:Generated_Source\PSoC6\pdl\drivers/peripheral/dma/cy_dma.h **** * bacause most of the driver's API (especially functions modifying
 349:Generated_Source\PSoC6\pdl\drivers/peripheral/dma/cy_dma.h **** * descriptors, including \ref Cy_DMA_Descriptor_Init()) can't work with 
 350:Generated_Source\PSoC6\pdl\drivers/peripheral/dma/cy_dma.h **** * read-only descriptors.
 351:Generated_Source\PSoC6\pdl\drivers/peripheral/dma/cy_dma.h **** */
 352:Generated_Source\PSoC6\pdl\drivers/peripheral/dma/cy_dma.h **** typedef struct
 353:Generated_Source\PSoC6\pdl\drivers/peripheral/dma/cy_dma.h **** {
 354:Generated_Source\PSoC6\pdl\drivers/peripheral/dma/cy_dma.h ****     uint32_t ctl;                    /*!< 0x00000000 Descriptor control */
 355:Generated_Source\PSoC6\pdl\drivers/peripheral/dma/cy_dma.h ****     uint32_t src;                    /*!< 0x00000004 Descriptor source */
 356:Generated_Source\PSoC6\pdl\drivers/peripheral/dma/cy_dma.h ****     uint32_t dst;                    /*!< 0x00000008 Descriptor destination */
 357:Generated_Source\PSoC6\pdl\drivers/peripheral/dma/cy_dma.h ****     uint32_t xCtl;                   /*!< 0x0000000C Descriptor X loop control */
 358:Generated_Source\PSoC6\pdl\drivers/peripheral/dma/cy_dma.h ****     uint32_t yCtl;                   /*!< 0x00000010 Descriptor Y loop control */
 359:Generated_Source\PSoC6\pdl\drivers/peripheral/dma/cy_dma.h ****     uint32_t nextPtr;                /*!< 0x00000014 Descriptor next pointer */
 360:Generated_Source\PSoC6\pdl\drivers/peripheral/dma/cy_dma.h **** } cy_stc_dma_descriptor_t;
 361:Generated_Source\PSoC6\pdl\drivers/peripheral/dma/cy_dma.h **** 
 362:Generated_Source\PSoC6\pdl\drivers/peripheral/dma/cy_dma.h **** /**
 363:Generated_Source\PSoC6\pdl\drivers/peripheral/dma/cy_dma.h **** * This structure is a configuration structure pre-initialized by the user and
 364:Generated_Source\PSoC6\pdl\drivers/peripheral/dma/cy_dma.h **** * passed as a parameter to the \ref Cy_DMA_Descriptor_Init().
 365:Generated_Source\PSoC6\pdl\drivers/peripheral/dma/cy_dma.h **** * It can be allocated in RAM/Flash (on user's choice).
 366:Generated_Source\PSoC6\pdl\drivers/peripheral/dma/cy_dma.h **** * In case of Flash allocation there is a possibility to reinitialize the descriptor in runtime.
 367:Generated_Source\PSoC6\pdl\drivers/peripheral/dma/cy_dma.h **** * This structure has all the parameters of the descriptor as separate parameters.
 368:Generated_Source\PSoC6\pdl\drivers/peripheral/dma/cy_dma.h **** * Most of these parameters are represented in the \ref cy_stc_dma_descriptor_t structure as bit fie
 369:Generated_Source\PSoC6\pdl\drivers/peripheral/dma/cy_dma.h **** */
 370:Generated_Source\PSoC6\pdl\drivers/peripheral/dma/cy_dma.h **** typedef struct
 371:Generated_Source\PSoC6\pdl\drivers/peripheral/dma/cy_dma.h **** {
 372:Generated_Source\PSoC6\pdl\drivers/peripheral/dma/cy_dma.h ****     cy_en_dma_retrigger_t       retrigger;       /**< Specifies whether the DW controller should wa
ARM GAS  C:\Users\ikomb\AppData\Local\Temp\ccZduaXD.s 			page 8


 373:Generated_Source\PSoC6\pdl\drivers/peripheral/dma/cy_dma.h ****     cy_en_dma_trigger_type_t    interruptType;   /**< Sets the event that triggers an interrupt, se
 374:Generated_Source\PSoC6\pdl\drivers/peripheral/dma/cy_dma.h ****     cy_en_dma_trigger_type_t    triggerOutType;  /**< Sets the event that triggers an output,    se
 375:Generated_Source\PSoC6\pdl\drivers/peripheral/dma/cy_dma.h ****     cy_en_dma_channel_state_t   channelState;    /**< Specifies if the channel is enabled or disabl
 376:Generated_Source\PSoC6\pdl\drivers/peripheral/dma/cy_dma.h ****     cy_en_dma_trigger_type_t    triggerInType;   /**< Sets what type of transfer is triggered,   se
 377:Generated_Source\PSoC6\pdl\drivers/peripheral/dma/cy_dma.h ****     cy_en_dma_data_size_t       dataSize;        /**< The size of the data bus for transfer,     se
 378:Generated_Source\PSoC6\pdl\drivers/peripheral/dma/cy_dma.h ****     cy_en_dma_transfer_size_t   srcTransferSize; /**< The source transfer size. */
 379:Generated_Source\PSoC6\pdl\drivers/peripheral/dma/cy_dma.h ****     cy_en_dma_transfer_size_t   dstTransferSize; /**< The destination transfer size. */
 380:Generated_Source\PSoC6\pdl\drivers/peripheral/dma/cy_dma.h ****     cy_en_dma_descriptor_type_t descriptorType;  /**< The type of the descriptor                 se
 381:Generated_Source\PSoC6\pdl\drivers/peripheral/dma/cy_dma.h ****     void *                      srcAddress;      /**< The source address of the transfer. */
 382:Generated_Source\PSoC6\pdl\drivers/peripheral/dma/cy_dma.h ****     void *                      dstAddress;      /**< The destination address of the transfer. */
 383:Generated_Source\PSoC6\pdl\drivers/peripheral/dma/cy_dma.h ****     int32_t                     srcXincrement;   /**< The address increment of the source after eac
 384:Generated_Source\PSoC6\pdl\drivers/peripheral/dma/cy_dma.h ****     int32_t                     dstXincrement;   /**< The address increment of the destination afte
 385:Generated_Source\PSoC6\pdl\drivers/peripheral/dma/cy_dma.h ****     uint32_t                    xCount;          /**< The number of transfers in an X-loop. Valid r
 386:Generated_Source\PSoC6\pdl\drivers/peripheral/dma/cy_dma.h ****     int32_t                     srcYincrement;   /**< The address increment of the source after eac
 387:Generated_Source\PSoC6\pdl\drivers/peripheral/dma/cy_dma.h ****     int32_t                     dstYincrement;   /**< The address increment of the destination afte
 388:Generated_Source\PSoC6\pdl\drivers/peripheral/dma/cy_dma.h ****     uint32_t                    yCount;          /**< The number of X-loops in the Y-loop. Valid ra
 389:Generated_Source\PSoC6\pdl\drivers/peripheral/dma/cy_dma.h ****     cy_stc_dma_descriptor_t *   nextDescriptor;  /**< The next descriptor to chain after completion
 390:Generated_Source\PSoC6\pdl\drivers/peripheral/dma/cy_dma.h **** } cy_stc_dma_descriptor_config_t;
 391:Generated_Source\PSoC6\pdl\drivers/peripheral/dma/cy_dma.h **** 
 392:Generated_Source\PSoC6\pdl\drivers/peripheral/dma/cy_dma.h **** /** This structure holds the initialization values for the DMA channel */
 393:Generated_Source\PSoC6\pdl\drivers/peripheral/dma/cy_dma.h **** typedef struct
 394:Generated_Source\PSoC6\pdl\drivers/peripheral/dma/cy_dma.h **** {
 395:Generated_Source\PSoC6\pdl\drivers/peripheral/dma/cy_dma.h ****     cy_stc_dma_descriptor_t * descriptor;      /**< The DMA descriptor associated with the channel 
 396:Generated_Source\PSoC6\pdl\drivers/peripheral/dma/cy_dma.h ****     bool     preemptable;                      /**< Specifies if the channel is preemptable by anot
 397:Generated_Source\PSoC6\pdl\drivers/peripheral/dma/cy_dma.h ****     uint32_t priority;                         /**< This parameter specifies the channel's priority
 398:Generated_Source\PSoC6\pdl\drivers/peripheral/dma/cy_dma.h ****     bool     enable;                           /**< This parameter specifies if the channel is enab
 399:Generated_Source\PSoC6\pdl\drivers/peripheral/dma/cy_dma.h ****     bool     bufferable;                       /**< This parameter specifies whether a write transa
 400:Generated_Source\PSoC6\pdl\drivers/peripheral/dma/cy_dma.h ****                                                     without waiting for the destination to accept t
 401:Generated_Source\PSoC6\pdl\drivers/peripheral/dma/cy_dma.h **** } cy_stc_dma_channel_config_t;
 402:Generated_Source\PSoC6\pdl\drivers/peripheral/dma/cy_dma.h **** 
 403:Generated_Source\PSoC6\pdl\drivers/peripheral/dma/cy_dma.h **** /** \} group_dma_data_structures */
 404:Generated_Source\PSoC6\pdl\drivers/peripheral/dma/cy_dma.h **** 
 405:Generated_Source\PSoC6\pdl\drivers/peripheral/dma/cy_dma.h **** 
 406:Generated_Source\PSoC6\pdl\drivers/peripheral/dma/cy_dma.h **** /**
 407:Generated_Source\PSoC6\pdl\drivers/peripheral/dma/cy_dma.h **** * \addtogroup group_dma_functions
 408:Generated_Source\PSoC6\pdl\drivers/peripheral/dma/cy_dma.h **** * \{
 409:Generated_Source\PSoC6\pdl\drivers/peripheral/dma/cy_dma.h **** */
 410:Generated_Source\PSoC6\pdl\drivers/peripheral/dma/cy_dma.h **** 
 411:Generated_Source\PSoC6\pdl\drivers/peripheral/dma/cy_dma.h **** __STATIC_INLINE void     Cy_DMA_Enable             (DW_Type * base);
 412:Generated_Source\PSoC6\pdl\drivers/peripheral/dma/cy_dma.h **** __STATIC_INLINE void     Cy_DMA_Disable            (DW_Type * base);
 413:Generated_Source\PSoC6\pdl\drivers/peripheral/dma/cy_dma.h **** __STATIC_INLINE uint32_t Cy_DMA_GetActiveChannel   (DW_Type const * base);
 414:Generated_Source\PSoC6\pdl\drivers/peripheral/dma/cy_dma.h **** __STATIC_INLINE void *   Cy_DMA_GetActiveSrcAddress(DW_Type const * base);
 415:Generated_Source\PSoC6\pdl\drivers/peripheral/dma/cy_dma.h **** __STATIC_INLINE void *   Cy_DMA_GetActiveDstAddress(DW_Type const * base);
 416:Generated_Source\PSoC6\pdl\drivers/peripheral/dma/cy_dma.h **** 
 417:Generated_Source\PSoC6\pdl\drivers/peripheral/dma/cy_dma.h **** 
 418:Generated_Source\PSoC6\pdl\drivers/peripheral/dma/cy_dma.h **** /**
 419:Generated_Source\PSoC6\pdl\drivers/peripheral/dma/cy_dma.h **** * \addtogroup group_dma_descriptor_functions
 420:Generated_Source\PSoC6\pdl\drivers/peripheral/dma/cy_dma.h **** * \{
 421:Generated_Source\PSoC6\pdl\drivers/peripheral/dma/cy_dma.h **** */
 422:Generated_Source\PSoC6\pdl\drivers/peripheral/dma/cy_dma.h **** 
 423:Generated_Source\PSoC6\pdl\drivers/peripheral/dma/cy_dma.h ****   cy_en_dma_status_t Cy_DMA_Descriptor_Init  (cy_stc_dma_descriptor_t * descriptor, cy_stc_dma_desc
 424:Generated_Source\PSoC6\pdl\drivers/peripheral/dma/cy_dma.h ****                 void Cy_DMA_Descriptor_DeInit(cy_stc_dma_descriptor_t * descriptor);
 425:Generated_Source\PSoC6\pdl\drivers/peripheral/dma/cy_dma.h ****                 
 426:Generated_Source\PSoC6\pdl\drivers/peripheral/dma/cy_dma.h ****                 void Cy_DMA_Descriptor_SetNextDescriptor   (cy_stc_dma_descriptor_t * descriptor, c
 427:Generated_Source\PSoC6\pdl\drivers/peripheral/dma/cy_dma.h ****                 void Cy_DMA_Descriptor_SetDescriptorType   (cy_stc_dma_descriptor_t * descriptor, c
 428:Generated_Source\PSoC6\pdl\drivers/peripheral/dma/cy_dma.h **** __STATIC_INLINE void Cy_DMA_Descriptor_SetSrcAddress       (cy_stc_dma_descriptor_t * descriptor, v
 429:Generated_Source\PSoC6\pdl\drivers/peripheral/dma/cy_dma.h **** __STATIC_INLINE void Cy_DMA_Descriptor_SetDstAddress       (cy_stc_dma_descriptor_t * descriptor, v
ARM GAS  C:\Users\ikomb\AppData\Local\Temp\ccZduaXD.s 			page 9


 430:Generated_Source\PSoC6\pdl\drivers/peripheral/dma/cy_dma.h **** __STATIC_INLINE void Cy_DMA_Descriptor_SetXloopDataCount   (cy_stc_dma_descriptor_t * descriptor, u
 431:Generated_Source\PSoC6\pdl\drivers/peripheral/dma/cy_dma.h **** __STATIC_INLINE void Cy_DMA_Descriptor_SetYloopDataCount   (cy_stc_dma_descriptor_t * descriptor, u
 432:Generated_Source\PSoC6\pdl\drivers/peripheral/dma/cy_dma.h **** __STATIC_INLINE void Cy_DMA_Descriptor_SetXloopSrcIncrement(cy_stc_dma_descriptor_t * descriptor, i
 433:Generated_Source\PSoC6\pdl\drivers/peripheral/dma/cy_dma.h **** __STATIC_INLINE void Cy_DMA_Descriptor_SetXloopDstIncrement(cy_stc_dma_descriptor_t * descriptor, i
 434:Generated_Source\PSoC6\pdl\drivers/peripheral/dma/cy_dma.h **** __STATIC_INLINE void Cy_DMA_Descriptor_SetYloopSrcIncrement(cy_stc_dma_descriptor_t * descriptor, i
 435:Generated_Source\PSoC6\pdl\drivers/peripheral/dma/cy_dma.h **** __STATIC_INLINE void Cy_DMA_Descriptor_SetYloopDstIncrement(cy_stc_dma_descriptor_t * descriptor, i
 436:Generated_Source\PSoC6\pdl\drivers/peripheral/dma/cy_dma.h **** __STATIC_INLINE void Cy_DMA_Descriptor_SetInterruptType    (cy_stc_dma_descriptor_t * descriptor, c
 437:Generated_Source\PSoC6\pdl\drivers/peripheral/dma/cy_dma.h **** __STATIC_INLINE void Cy_DMA_Descriptor_SetTriggerInType    (cy_stc_dma_descriptor_t * descriptor, c
 438:Generated_Source\PSoC6\pdl\drivers/peripheral/dma/cy_dma.h **** __STATIC_INLINE void Cy_DMA_Descriptor_SetTriggerOutType   (cy_stc_dma_descriptor_t * descriptor, c
 439:Generated_Source\PSoC6\pdl\drivers/peripheral/dma/cy_dma.h **** __STATIC_INLINE void Cy_DMA_Descriptor_SetDataSize         (cy_stc_dma_descriptor_t * descriptor, c
 440:Generated_Source\PSoC6\pdl\drivers/peripheral/dma/cy_dma.h **** __STATIC_INLINE void Cy_DMA_Descriptor_SetSrcTransferSize  (cy_stc_dma_descriptor_t * descriptor, c
 441:Generated_Source\PSoC6\pdl\drivers/peripheral/dma/cy_dma.h **** __STATIC_INLINE void Cy_DMA_Descriptor_SetDstTransferSize  (cy_stc_dma_descriptor_t * descriptor, c
 442:Generated_Source\PSoC6\pdl\drivers/peripheral/dma/cy_dma.h **** __STATIC_INLINE void Cy_DMA_Descriptor_SetRetrigger        (cy_stc_dma_descriptor_t * descriptor, c
 443:Generated_Source\PSoC6\pdl\drivers/peripheral/dma/cy_dma.h **** __STATIC_INLINE void Cy_DMA_Descriptor_SetChannelState     (cy_stc_dma_descriptor_t * descriptor, c
 444:Generated_Source\PSoC6\pdl\drivers/peripheral/dma/cy_dma.h **** 
 445:Generated_Source\PSoC6\pdl\drivers/peripheral/dma/cy_dma.h ****                 cy_stc_dma_descriptor_t *   Cy_DMA_Descriptor_GetNextDescriptor   (cy_stc_dma_descr
 446:Generated_Source\PSoC6\pdl\drivers/peripheral/dma/cy_dma.h **** __STATIC_INLINE cy_en_dma_descriptor_type_t Cy_DMA_Descriptor_GetDescriptorType   (cy_stc_dma_descr
 447:Generated_Source\PSoC6\pdl\drivers/peripheral/dma/cy_dma.h **** __STATIC_INLINE void *                      Cy_DMA_Descriptor_GetSrcAddress       (cy_stc_dma_descr
 448:Generated_Source\PSoC6\pdl\drivers/peripheral/dma/cy_dma.h **** __STATIC_INLINE void *                      Cy_DMA_Descriptor_GetDstAddress       (cy_stc_dma_descr
 449:Generated_Source\PSoC6\pdl\drivers/peripheral/dma/cy_dma.h **** __STATIC_INLINE uint32_t                    Cy_DMA_Descriptor_GetXloopDataCount   (cy_stc_dma_descr
 450:Generated_Source\PSoC6\pdl\drivers/peripheral/dma/cy_dma.h **** __STATIC_INLINE uint32_t                    Cy_DMA_Descriptor_GetYloopDataCount   (cy_stc_dma_descr
 451:Generated_Source\PSoC6\pdl\drivers/peripheral/dma/cy_dma.h **** __STATIC_INLINE int32_t                     Cy_DMA_Descriptor_GetXloopSrcIncrement(cy_stc_dma_descr
 452:Generated_Source\PSoC6\pdl\drivers/peripheral/dma/cy_dma.h **** __STATIC_INLINE int32_t                     Cy_DMA_Descriptor_GetXloopDstIncrement(cy_stc_dma_descr
 453:Generated_Source\PSoC6\pdl\drivers/peripheral/dma/cy_dma.h **** __STATIC_INLINE int32_t                     Cy_DMA_Descriptor_GetYloopSrcIncrement(cy_stc_dma_descr
 454:Generated_Source\PSoC6\pdl\drivers/peripheral/dma/cy_dma.h **** __STATIC_INLINE int32_t                     Cy_DMA_Descriptor_GetYloopDstIncrement(cy_stc_dma_descr
 455:Generated_Source\PSoC6\pdl\drivers/peripheral/dma/cy_dma.h **** __STATIC_INLINE cy_en_dma_trigger_type_t    Cy_DMA_Descriptor_GetInterruptType    (cy_stc_dma_descr
 456:Generated_Source\PSoC6\pdl\drivers/peripheral/dma/cy_dma.h **** __STATIC_INLINE cy_en_dma_trigger_type_t    Cy_DMA_Descriptor_GetTriggerInType    (cy_stc_dma_descr
 457:Generated_Source\PSoC6\pdl\drivers/peripheral/dma/cy_dma.h **** __STATIC_INLINE cy_en_dma_trigger_type_t    Cy_DMA_Descriptor_GetTriggerOutType   (cy_stc_dma_descr
 458:Generated_Source\PSoC6\pdl\drivers/peripheral/dma/cy_dma.h **** __STATIC_INLINE cy_en_dma_data_size_t       Cy_DMA_Descriptor_GetDataSize         (cy_stc_dma_descr
 459:Generated_Source\PSoC6\pdl\drivers/peripheral/dma/cy_dma.h **** __STATIC_INLINE cy_en_dma_transfer_size_t   Cy_DMA_Descriptor_GetSrcTransferSize  (cy_stc_dma_descr
 460:Generated_Source\PSoC6\pdl\drivers/peripheral/dma/cy_dma.h **** __STATIC_INLINE cy_en_dma_transfer_size_t   Cy_DMA_Descriptor_GetDstTransferSize  (cy_stc_dma_descr
 461:Generated_Source\PSoC6\pdl\drivers/peripheral/dma/cy_dma.h **** __STATIC_INLINE cy_en_dma_retrigger_t       Cy_DMA_Descriptor_GetRetrigger        (cy_stc_dma_descr
 462:Generated_Source\PSoC6\pdl\drivers/peripheral/dma/cy_dma.h **** __STATIC_INLINE cy_en_dma_channel_state_t   Cy_DMA_Descriptor_GetChannelState     (cy_stc_dma_descr
 463:Generated_Source\PSoC6\pdl\drivers/peripheral/dma/cy_dma.h **** 
 464:Generated_Source\PSoC6\pdl\drivers/peripheral/dma/cy_dma.h **** /** \} group_dma_descriptor_functions */
 465:Generated_Source\PSoC6\pdl\drivers/peripheral/dma/cy_dma.h **** 
 466:Generated_Source\PSoC6\pdl\drivers/peripheral/dma/cy_dma.h **** 
 467:Generated_Source\PSoC6\pdl\drivers/peripheral/dma/cy_dma.h **** /**
 468:Generated_Source\PSoC6\pdl\drivers/peripheral/dma/cy_dma.h **** * \addtogroup group_dma_channel_functions
 469:Generated_Source\PSoC6\pdl\drivers/peripheral/dma/cy_dma.h **** * \{
 470:Generated_Source\PSoC6\pdl\drivers/peripheral/dma/cy_dma.h **** */
 471:Generated_Source\PSoC6\pdl\drivers/peripheral/dma/cy_dma.h **** 
 472:Generated_Source\PSoC6\pdl\drivers/peripheral/dma/cy_dma.h ****       cy_en_dma_status_t Cy_DMA_Channel_Init         (DW_Type * base, uint32_t channel, cy_stc_dma_
 473:Generated_Source\PSoC6\pdl\drivers/peripheral/dma/cy_dma.h ****                 void     Cy_DMA_Channel_DeInit       (DW_Type * base, uint32_t channel);
 474:Generated_Source\PSoC6\pdl\drivers/peripheral/dma/cy_dma.h **** __STATIC_INLINE void     Cy_DMA_Channel_SetDescriptor(DW_Type * base, uint32_t channel, cy_stc_dma_
 475:Generated_Source\PSoC6\pdl\drivers/peripheral/dma/cy_dma.h **** __STATIC_INLINE void     Cy_DMA_Channel_Enable       (DW_Type * base, uint32_t channel);
 476:Generated_Source\PSoC6\pdl\drivers/peripheral/dma/cy_dma.h **** __STATIC_INLINE void     Cy_DMA_Channel_Disable      (DW_Type * base, uint32_t channel);
 477:Generated_Source\PSoC6\pdl\drivers/peripheral/dma/cy_dma.h **** __STATIC_INLINE void     Cy_DMA_Channel_SetPriority  (DW_Type * base, uint32_t channel, uint32_t pr
 478:Generated_Source\PSoC6\pdl\drivers/peripheral/dma/cy_dma.h **** __STATIC_INLINE uint32_t Cy_DMA_Channel_GetPriority  (DW_Type const * base, uint32_t channel);
 479:Generated_Source\PSoC6\pdl\drivers/peripheral/dma/cy_dma.h **** __STATIC_INLINE cy_en_dma_intr_cause_t Cy_DMA_Channel_GetStatus(DW_Type const * base, uint32_t chan
 480:Generated_Source\PSoC6\pdl\drivers/peripheral/dma/cy_dma.h **** __STATIC_INLINE cy_stc_dma_descriptor_t * Cy_DMA_Channel_GetCurrentDescriptor(DW_Type const * base,
 481:Generated_Source\PSoC6\pdl\drivers/peripheral/dma/cy_dma.h **** 
 482:Generated_Source\PSoC6\pdl\drivers/peripheral/dma/cy_dma.h **** __STATIC_INLINE uint32_t Cy_DMA_Channel_GetInterruptStatus      (DW_Type const * base, uint32_t cha
 483:Generated_Source\PSoC6\pdl\drivers/peripheral/dma/cy_dma.h **** __STATIC_INLINE void     Cy_DMA_Channel_ClearInterrupt          (DW_Type       * base, uint32_t cha
 484:Generated_Source\PSoC6\pdl\drivers/peripheral/dma/cy_dma.h **** __STATIC_INLINE void     Cy_DMA_Channel_SetInterrupt            (DW_Type       * base, uint32_t cha
 485:Generated_Source\PSoC6\pdl\drivers/peripheral/dma/cy_dma.h **** __STATIC_INLINE uint32_t Cy_DMA_Channel_GetInterruptMask        (DW_Type const * base, uint32_t cha
 486:Generated_Source\PSoC6\pdl\drivers/peripheral/dma/cy_dma.h **** __STATIC_INLINE void     Cy_DMA_Channel_SetInterruptMask        (DW_Type       * base, uint32_t cha
ARM GAS  C:\Users\ikomb\AppData\Local\Temp\ccZduaXD.s 			page 10


 487:Generated_Source\PSoC6\pdl\drivers/peripheral/dma/cy_dma.h **** __STATIC_INLINE uint32_t Cy_DMA_Channel_GetInterruptStatusMasked(DW_Type const * base, uint32_t cha
 488:Generated_Source\PSoC6\pdl\drivers/peripheral/dma/cy_dma.h **** 
 489:Generated_Source\PSoC6\pdl\drivers/peripheral/dma/cy_dma.h **** /** \} group_dma_channel_functions */
 490:Generated_Source\PSoC6\pdl\drivers/peripheral/dma/cy_dma.h **** 
 491:Generated_Source\PSoC6\pdl\drivers/peripheral/dma/cy_dma.h **** 
 492:Generated_Source\PSoC6\pdl\drivers/peripheral/dma/cy_dma.h **** /***************************************
 493:Generated_Source\PSoC6\pdl\drivers/peripheral/dma/cy_dma.h **** *    In-line Function Implementation
 494:Generated_Source\PSoC6\pdl\drivers/peripheral/dma/cy_dma.h **** ***************************************/
 495:Generated_Source\PSoC6\pdl\drivers/peripheral/dma/cy_dma.h **** 
 496:Generated_Source\PSoC6\pdl\drivers/peripheral/dma/cy_dma.h **** 
 497:Generated_Source\PSoC6\pdl\drivers/peripheral/dma/cy_dma.h **** /**
 498:Generated_Source\PSoC6\pdl\drivers/peripheral/dma/cy_dma.h **** * \addtogroup group_dma_block_functions
 499:Generated_Source\PSoC6\pdl\drivers/peripheral/dma/cy_dma.h **** * \{
 500:Generated_Source\PSoC6\pdl\drivers/peripheral/dma/cy_dma.h **** */
 501:Generated_Source\PSoC6\pdl\drivers/peripheral/dma/cy_dma.h **** 
 502:Generated_Source\PSoC6\pdl\drivers/peripheral/dma/cy_dma.h **** 
 503:Generated_Source\PSoC6\pdl\drivers/peripheral/dma/cy_dma.h **** /*******************************************************************************
 504:Generated_Source\PSoC6\pdl\drivers/peripheral/dma/cy_dma.h **** * Function Name: Cy_DMA_Enable
 505:Generated_Source\PSoC6\pdl\drivers/peripheral/dma/cy_dma.h **** ****************************************************************************//**
 506:Generated_Source\PSoC6\pdl\drivers/peripheral/dma/cy_dma.h **** *
 507:Generated_Source\PSoC6\pdl\drivers/peripheral/dma/cy_dma.h **** * Enables the DMA block.
 508:Generated_Source\PSoC6\pdl\drivers/peripheral/dma/cy_dma.h **** *
 509:Generated_Source\PSoC6\pdl\drivers/peripheral/dma/cy_dma.h **** * \param base
 510:Generated_Source\PSoC6\pdl\drivers/peripheral/dma/cy_dma.h **** * The pointer to the hardware DMA block.
 511:Generated_Source\PSoC6\pdl\drivers/peripheral/dma/cy_dma.h **** *
 512:Generated_Source\PSoC6\pdl\drivers/peripheral/dma/cy_dma.h **** *******************************************************************************/
 513:Generated_Source\PSoC6\pdl\drivers/peripheral/dma/cy_dma.h **** __STATIC_INLINE void Cy_DMA_Enable(DW_Type * base)
 514:Generated_Source\PSoC6\pdl\drivers/peripheral/dma/cy_dma.h **** {
  28              		.loc 1 514 0
  29              		.cfi_startproc
  30              		@ args = 0, pretend = 0, frame = 8
  31              		@ frame_needed = 1, uses_anonymous_args = 0
  32              		@ link register save eliminated.
  33 0000 80B4     		push	{r7}
  34              		.cfi_def_cfa_offset 4
  35              		.cfi_offset 7, -4
  36 0002 83B0     		sub	sp, sp, #12
  37              		.cfi_def_cfa_offset 16
  38 0004 00AF     		add	r7, sp, #0
  39              		.cfi_def_cfa_register 7
  40 0006 7860     		str	r0, [r7, #4]
 515:Generated_Source\PSoC6\pdl\drivers/peripheral/dma/cy_dma.h ****     base->CTL |= DW_CTL_ENABLED_Msk;
  41              		.loc 1 515 0
  42 0008 7B68     		ldr	r3, [r7, #4]
  43 000a 1B68     		ldr	r3, [r3]
  44 000c 43F00042 		orr	r2, r3, #-2147483648
  45 0010 7B68     		ldr	r3, [r7, #4]
  46 0012 1A60     		str	r2, [r3]
 516:Generated_Source\PSoC6\pdl\drivers/peripheral/dma/cy_dma.h **** }
  47              		.loc 1 516 0
  48 0014 00BF     		nop
  49 0016 0C37     		adds	r7, r7, #12
  50              		.cfi_def_cfa_offset 4
  51 0018 BD46     		mov	sp, r7
  52              		.cfi_def_cfa_register 13
  53              		@ sp needed
  54 001a 5DF8047B 		ldr	r7, [sp], #4
ARM GAS  C:\Users\ikomb\AppData\Local\Temp\ccZduaXD.s 			page 11


  55              		.cfi_restore 7
  56              		.cfi_def_cfa_offset 0
  57 001e 7047     		bx	lr
  58              		.cfi_endproc
  59              	.LFE125:
  60              		.size	Cy_DMA_Enable, .-Cy_DMA_Enable
  61              		.section	.text.Cy_DMA_Descriptor_SetSrcAddress,"ax",%progbits
  62              		.align	2
  63              		.thumb
  64              		.thumb_func
  65              		.type	Cy_DMA_Descriptor_SetSrcAddress, %function
  66              	Cy_DMA_Descriptor_SetSrcAddress:
  67              	.LFB130:
 517:Generated_Source\PSoC6\pdl\drivers/peripheral/dma/cy_dma.h **** 
 518:Generated_Source\PSoC6\pdl\drivers/peripheral/dma/cy_dma.h **** 
 519:Generated_Source\PSoC6\pdl\drivers/peripheral/dma/cy_dma.h **** /*******************************************************************************
 520:Generated_Source\PSoC6\pdl\drivers/peripheral/dma/cy_dma.h **** * Function Name: Cy_DMA_Disable
 521:Generated_Source\PSoC6\pdl\drivers/peripheral/dma/cy_dma.h **** ****************************************************************************//**
 522:Generated_Source\PSoC6\pdl\drivers/peripheral/dma/cy_dma.h **** *
 523:Generated_Source\PSoC6\pdl\drivers/peripheral/dma/cy_dma.h **** * Disables the DMA block.
 524:Generated_Source\PSoC6\pdl\drivers/peripheral/dma/cy_dma.h **** *
 525:Generated_Source\PSoC6\pdl\drivers/peripheral/dma/cy_dma.h **** * \param base
 526:Generated_Source\PSoC6\pdl\drivers/peripheral/dma/cy_dma.h **** * The pointer to the hardware DMA block.
 527:Generated_Source\PSoC6\pdl\drivers/peripheral/dma/cy_dma.h **** *
 528:Generated_Source\PSoC6\pdl\drivers/peripheral/dma/cy_dma.h **** *******************************************************************************/
 529:Generated_Source\PSoC6\pdl\drivers/peripheral/dma/cy_dma.h **** __STATIC_INLINE void Cy_DMA_Disable(DW_Type * base)
 530:Generated_Source\PSoC6\pdl\drivers/peripheral/dma/cy_dma.h **** {
 531:Generated_Source\PSoC6\pdl\drivers/peripheral/dma/cy_dma.h ****     base->CTL &= (uint32_t) ~DW_CTL_ENABLED_Msk;
 532:Generated_Source\PSoC6\pdl\drivers/peripheral/dma/cy_dma.h **** }
 533:Generated_Source\PSoC6\pdl\drivers/peripheral/dma/cy_dma.h **** 
 534:Generated_Source\PSoC6\pdl\drivers/peripheral/dma/cy_dma.h **** 
 535:Generated_Source\PSoC6\pdl\drivers/peripheral/dma/cy_dma.h **** /*******************************************************************************
 536:Generated_Source\PSoC6\pdl\drivers/peripheral/dma/cy_dma.h **** * Function Name: Cy_DMA_GetActiveChannel
 537:Generated_Source\PSoC6\pdl\drivers/peripheral/dma/cy_dma.h **** ****************************************************************************//**
 538:Generated_Source\PSoC6\pdl\drivers/peripheral/dma/cy_dma.h **** *
 539:Generated_Source\PSoC6\pdl\drivers/peripheral/dma/cy_dma.h **** * Returns the status of the active/pending channels.
 540:Generated_Source\PSoC6\pdl\drivers/peripheral/dma/cy_dma.h **** * the DMA block.
 541:Generated_Source\PSoC6\pdl\drivers/peripheral/dma/cy_dma.h **** *
 542:Generated_Source\PSoC6\pdl\drivers/peripheral/dma/cy_dma.h **** * \param base
 543:Generated_Source\PSoC6\pdl\drivers/peripheral/dma/cy_dma.h **** * The pointer to the hardware DMA block.
 544:Generated_Source\PSoC6\pdl\drivers/peripheral/dma/cy_dma.h **** *
 545:Generated_Source\PSoC6\pdl\drivers/peripheral/dma/cy_dma.h **** * \return
 546:Generated_Source\PSoC6\pdl\drivers/peripheral/dma/cy_dma.h **** * Returns a bit-field with all of the currently active/pending channels in the
 547:Generated_Source\PSoC6\pdl\drivers/peripheral/dma/cy_dma.h **** * DMA block.
 548:Generated_Source\PSoC6\pdl\drivers/peripheral/dma/cy_dma.h **** *
 549:Generated_Source\PSoC6\pdl\drivers/peripheral/dma/cy_dma.h **** *******************************************************************************/
 550:Generated_Source\PSoC6\pdl\drivers/peripheral/dma/cy_dma.h **** __STATIC_INLINE uint32_t Cy_DMA_GetActiveChannel(DW_Type const * base)
 551:Generated_Source\PSoC6\pdl\drivers/peripheral/dma/cy_dma.h **** {
 552:Generated_Source\PSoC6\pdl\drivers/peripheral/dma/cy_dma.h ****     return(_FLD2VAL(DW_STATUS_CH_IDX, base->STATUS));
 553:Generated_Source\PSoC6\pdl\drivers/peripheral/dma/cy_dma.h **** }
 554:Generated_Source\PSoC6\pdl\drivers/peripheral/dma/cy_dma.h **** 
 555:Generated_Source\PSoC6\pdl\drivers/peripheral/dma/cy_dma.h **** 
 556:Generated_Source\PSoC6\pdl\drivers/peripheral/dma/cy_dma.h **** /*******************************************************************************
 557:Generated_Source\PSoC6\pdl\drivers/peripheral/dma/cy_dma.h **** * Function Name: Cy_DMA_GetActiveSrcAddress
 558:Generated_Source\PSoC6\pdl\drivers/peripheral/dma/cy_dma.h **** ****************************************************************************//**
 559:Generated_Source\PSoC6\pdl\drivers/peripheral/dma/cy_dma.h **** *
 560:Generated_Source\PSoC6\pdl\drivers/peripheral/dma/cy_dma.h **** * Returns the source address being used for the current transfer.
ARM GAS  C:\Users\ikomb\AppData\Local\Temp\ccZduaXD.s 			page 12


 561:Generated_Source\PSoC6\pdl\drivers/peripheral/dma/cy_dma.h **** *
 562:Generated_Source\PSoC6\pdl\drivers/peripheral/dma/cy_dma.h **** * \param base
 563:Generated_Source\PSoC6\pdl\drivers/peripheral/dma/cy_dma.h **** * The pointer to the hardware DMA block.
 564:Generated_Source\PSoC6\pdl\drivers/peripheral/dma/cy_dma.h **** *
 565:Generated_Source\PSoC6\pdl\drivers/peripheral/dma/cy_dma.h **** * \return
 566:Generated_Source\PSoC6\pdl\drivers/peripheral/dma/cy_dma.h **** * Returns the pointer to the source of transfer.
 567:Generated_Source\PSoC6\pdl\drivers/peripheral/dma/cy_dma.h **** *
 568:Generated_Source\PSoC6\pdl\drivers/peripheral/dma/cy_dma.h **** *******************************************************************************/
 569:Generated_Source\PSoC6\pdl\drivers/peripheral/dma/cy_dma.h **** __STATIC_INLINE void * Cy_DMA_GetActiveSrcAddress(DW_Type const * base)
 570:Generated_Source\PSoC6\pdl\drivers/peripheral/dma/cy_dma.h **** {
 571:Generated_Source\PSoC6\pdl\drivers/peripheral/dma/cy_dma.h ****     return ((void *)base->ACT_DESCR_SRC);
 572:Generated_Source\PSoC6\pdl\drivers/peripheral/dma/cy_dma.h **** }
 573:Generated_Source\PSoC6\pdl\drivers/peripheral/dma/cy_dma.h **** 
 574:Generated_Source\PSoC6\pdl\drivers/peripheral/dma/cy_dma.h **** 
 575:Generated_Source\PSoC6\pdl\drivers/peripheral/dma/cy_dma.h **** /*******************************************************************************
 576:Generated_Source\PSoC6\pdl\drivers/peripheral/dma/cy_dma.h **** * Function Name: Cy_DMA_GetActiveDstAddress
 577:Generated_Source\PSoC6\pdl\drivers/peripheral/dma/cy_dma.h **** ****************************************************************************//**
 578:Generated_Source\PSoC6\pdl\drivers/peripheral/dma/cy_dma.h **** *
 579:Generated_Source\PSoC6\pdl\drivers/peripheral/dma/cy_dma.h **** * Returns the destination address being used for the current transfer.
 580:Generated_Source\PSoC6\pdl\drivers/peripheral/dma/cy_dma.h **** *
 581:Generated_Source\PSoC6\pdl\drivers/peripheral/dma/cy_dma.h **** * \param base
 582:Generated_Source\PSoC6\pdl\drivers/peripheral/dma/cy_dma.h **** * The pointer to the hardware DMA block.
 583:Generated_Source\PSoC6\pdl\drivers/peripheral/dma/cy_dma.h **** *
 584:Generated_Source\PSoC6\pdl\drivers/peripheral/dma/cy_dma.h **** * \return
 585:Generated_Source\PSoC6\pdl\drivers/peripheral/dma/cy_dma.h **** * Returns the pointer to the destination of transfer.
 586:Generated_Source\PSoC6\pdl\drivers/peripheral/dma/cy_dma.h **** *
 587:Generated_Source\PSoC6\pdl\drivers/peripheral/dma/cy_dma.h **** *******************************************************************************/
 588:Generated_Source\PSoC6\pdl\drivers/peripheral/dma/cy_dma.h **** __STATIC_INLINE void * Cy_DMA_GetActiveDstAddress(DW_Type const * base)
 589:Generated_Source\PSoC6\pdl\drivers/peripheral/dma/cy_dma.h **** {
 590:Generated_Source\PSoC6\pdl\drivers/peripheral/dma/cy_dma.h ****     return ((void *) base->ACT_DESCR_DST);
 591:Generated_Source\PSoC6\pdl\drivers/peripheral/dma/cy_dma.h **** }
 592:Generated_Source\PSoC6\pdl\drivers/peripheral/dma/cy_dma.h **** 
 593:Generated_Source\PSoC6\pdl\drivers/peripheral/dma/cy_dma.h **** /** \} group_dma_block_functions */
 594:Generated_Source\PSoC6\pdl\drivers/peripheral/dma/cy_dma.h **** 
 595:Generated_Source\PSoC6\pdl\drivers/peripheral/dma/cy_dma.h **** 
 596:Generated_Source\PSoC6\pdl\drivers/peripheral/dma/cy_dma.h **** /**
 597:Generated_Source\PSoC6\pdl\drivers/peripheral/dma/cy_dma.h **** * \addtogroup group_dma_descriptor_functions
 598:Generated_Source\PSoC6\pdl\drivers/peripheral/dma/cy_dma.h **** * \{
 599:Generated_Source\PSoC6\pdl\drivers/peripheral/dma/cy_dma.h **** */
 600:Generated_Source\PSoC6\pdl\drivers/peripheral/dma/cy_dma.h **** 
 601:Generated_Source\PSoC6\pdl\drivers/peripheral/dma/cy_dma.h **** 
 602:Generated_Source\PSoC6\pdl\drivers/peripheral/dma/cy_dma.h **** /*******************************************************************************
 603:Generated_Source\PSoC6\pdl\drivers/peripheral/dma/cy_dma.h **** * Function Name: Cy_DMA_Descriptor_SetSrcAddress
 604:Generated_Source\PSoC6\pdl\drivers/peripheral/dma/cy_dma.h **** ****************************************************************************//**
 605:Generated_Source\PSoC6\pdl\drivers/peripheral/dma/cy_dma.h **** *
 606:Generated_Source\PSoC6\pdl\drivers/peripheral/dma/cy_dma.h **** * Sets the source address parameter for the specified descriptor.
 607:Generated_Source\PSoC6\pdl\drivers/peripheral/dma/cy_dma.h **** *
 608:Generated_Source\PSoC6\pdl\drivers/peripheral/dma/cy_dma.h **** * \param descriptor
 609:Generated_Source\PSoC6\pdl\drivers/peripheral/dma/cy_dma.h **** * The descriptor structure instance declared by the user/component.
 610:Generated_Source\PSoC6\pdl\drivers/peripheral/dma/cy_dma.h **** *
 611:Generated_Source\PSoC6\pdl\drivers/peripheral/dma/cy_dma.h **** * \param srcAddress
 612:Generated_Source\PSoC6\pdl\drivers/peripheral/dma/cy_dma.h **** * The source address value for the descriptor.
 613:Generated_Source\PSoC6\pdl\drivers/peripheral/dma/cy_dma.h **** *
 614:Generated_Source\PSoC6\pdl\drivers/peripheral/dma/cy_dma.h **** *******************************************************************************/
 615:Generated_Source\PSoC6\pdl\drivers/peripheral/dma/cy_dma.h **** __STATIC_INLINE void Cy_DMA_Descriptor_SetSrcAddress(cy_stc_dma_descriptor_t * descriptor, void con
 616:Generated_Source\PSoC6\pdl\drivers/peripheral/dma/cy_dma.h **** {
  68              		.loc 1 616 0
ARM GAS  C:\Users\ikomb\AppData\Local\Temp\ccZduaXD.s 			page 13


  69              		.cfi_startproc
  70              		@ args = 0, pretend = 0, frame = 8
  71              		@ frame_needed = 1, uses_anonymous_args = 0
  72              		@ link register save eliminated.
  73 0000 80B4     		push	{r7}
  74              		.cfi_def_cfa_offset 4
  75              		.cfi_offset 7, -4
  76 0002 83B0     		sub	sp, sp, #12
  77              		.cfi_def_cfa_offset 16
  78 0004 00AF     		add	r7, sp, #0
  79              		.cfi_def_cfa_register 7
  80 0006 7860     		str	r0, [r7, #4]
  81 0008 3960     		str	r1, [r7]
 617:Generated_Source\PSoC6\pdl\drivers/peripheral/dma/cy_dma.h ****     descriptor->src = (uint32_t) srcAddress;
  82              		.loc 1 617 0
  83 000a 3A68     		ldr	r2, [r7]
  84 000c 7B68     		ldr	r3, [r7, #4]
  85 000e 5A60     		str	r2, [r3, #4]
 618:Generated_Source\PSoC6\pdl\drivers/peripheral/dma/cy_dma.h **** }
  86              		.loc 1 618 0
  87 0010 00BF     		nop
  88 0012 0C37     		adds	r7, r7, #12
  89              		.cfi_def_cfa_offset 4
  90 0014 BD46     		mov	sp, r7
  91              		.cfi_def_cfa_register 13
  92              		@ sp needed
  93 0016 5DF8047B 		ldr	r7, [sp], #4
  94              		.cfi_restore 7
  95              		.cfi_def_cfa_offset 0
  96 001a 7047     		bx	lr
  97              		.cfi_endproc
  98              	.LFE130:
  99              		.size	Cy_DMA_Descriptor_SetSrcAddress, .-Cy_DMA_Descriptor_SetSrcAddress
 100              		.section	.text.Cy_DMA_Descriptor_SetDstAddress,"ax",%progbits
 101              		.align	2
 102              		.thumb
 103              		.thumb_func
 104              		.type	Cy_DMA_Descriptor_SetDstAddress, %function
 105              	Cy_DMA_Descriptor_SetDstAddress:
 106              	.LFB132:
 619:Generated_Source\PSoC6\pdl\drivers/peripheral/dma/cy_dma.h **** 
 620:Generated_Source\PSoC6\pdl\drivers/peripheral/dma/cy_dma.h **** 
 621:Generated_Source\PSoC6\pdl\drivers/peripheral/dma/cy_dma.h **** /*******************************************************************************
 622:Generated_Source\PSoC6\pdl\drivers/peripheral/dma/cy_dma.h **** * Function Name: Cy_DMA_Descriptor_GetSrcAddress
 623:Generated_Source\PSoC6\pdl\drivers/peripheral/dma/cy_dma.h **** ****************************************************************************//**
 624:Generated_Source\PSoC6\pdl\drivers/peripheral/dma/cy_dma.h **** *
 625:Generated_Source\PSoC6\pdl\drivers/peripheral/dma/cy_dma.h **** * Returns the source address parameter of the specified descriptor.
 626:Generated_Source\PSoC6\pdl\drivers/peripheral/dma/cy_dma.h **** * 
 627:Generated_Source\PSoC6\pdl\drivers/peripheral/dma/cy_dma.h **** * \param descriptor
 628:Generated_Source\PSoC6\pdl\drivers/peripheral/dma/cy_dma.h **** * The descriptor structure instance declared by the user/component.
 629:Generated_Source\PSoC6\pdl\drivers/peripheral/dma/cy_dma.h **** *
 630:Generated_Source\PSoC6\pdl\drivers/peripheral/dma/cy_dma.h **** * \return
 631:Generated_Source\PSoC6\pdl\drivers/peripheral/dma/cy_dma.h **** * The source address value of the descriptor.
 632:Generated_Source\PSoC6\pdl\drivers/peripheral/dma/cy_dma.h **** *
 633:Generated_Source\PSoC6\pdl\drivers/peripheral/dma/cy_dma.h **** *******************************************************************************/
 634:Generated_Source\PSoC6\pdl\drivers/peripheral/dma/cy_dma.h **** __STATIC_INLINE void * Cy_DMA_Descriptor_GetSrcAddress(cy_stc_dma_descriptor_t const * descriptor)
 635:Generated_Source\PSoC6\pdl\drivers/peripheral/dma/cy_dma.h **** {
ARM GAS  C:\Users\ikomb\AppData\Local\Temp\ccZduaXD.s 			page 14


 636:Generated_Source\PSoC6\pdl\drivers/peripheral/dma/cy_dma.h ****     return ((void *) descriptor->src);
 637:Generated_Source\PSoC6\pdl\drivers/peripheral/dma/cy_dma.h **** }
 638:Generated_Source\PSoC6\pdl\drivers/peripheral/dma/cy_dma.h **** 
 639:Generated_Source\PSoC6\pdl\drivers/peripheral/dma/cy_dma.h **** 
 640:Generated_Source\PSoC6\pdl\drivers/peripheral/dma/cy_dma.h **** /*******************************************************************************
 641:Generated_Source\PSoC6\pdl\drivers/peripheral/dma/cy_dma.h **** * Function Name: Cy_DMA_Descriptor_SetDstAddress
 642:Generated_Source\PSoC6\pdl\drivers/peripheral/dma/cy_dma.h **** ****************************************************************************//**
 643:Generated_Source\PSoC6\pdl\drivers/peripheral/dma/cy_dma.h **** *
 644:Generated_Source\PSoC6\pdl\drivers/peripheral/dma/cy_dma.h **** * Sets the destination address parameter for the specified descriptor.
 645:Generated_Source\PSoC6\pdl\drivers/peripheral/dma/cy_dma.h **** *
 646:Generated_Source\PSoC6\pdl\drivers/peripheral/dma/cy_dma.h **** * \param descriptor
 647:Generated_Source\PSoC6\pdl\drivers/peripheral/dma/cy_dma.h **** * The descriptor structure instance declared by the user/component.
 648:Generated_Source\PSoC6\pdl\drivers/peripheral/dma/cy_dma.h **** *
 649:Generated_Source\PSoC6\pdl\drivers/peripheral/dma/cy_dma.h **** * \param dstAddress
 650:Generated_Source\PSoC6\pdl\drivers/peripheral/dma/cy_dma.h **** * The destination address value for the descriptor.
 651:Generated_Source\PSoC6\pdl\drivers/peripheral/dma/cy_dma.h **** *
 652:Generated_Source\PSoC6\pdl\drivers/peripheral/dma/cy_dma.h **** *******************************************************************************/
 653:Generated_Source\PSoC6\pdl\drivers/peripheral/dma/cy_dma.h **** __STATIC_INLINE void Cy_DMA_Descriptor_SetDstAddress(cy_stc_dma_descriptor_t * descriptor, void con
 654:Generated_Source\PSoC6\pdl\drivers/peripheral/dma/cy_dma.h **** {
 107              		.loc 1 654 0
 108              		.cfi_startproc
 109              		@ args = 0, pretend = 0, frame = 8
 110              		@ frame_needed = 1, uses_anonymous_args = 0
 111              		@ link register save eliminated.
 112 0000 80B4     		push	{r7}
 113              		.cfi_def_cfa_offset 4
 114              		.cfi_offset 7, -4
 115 0002 83B0     		sub	sp, sp, #12
 116              		.cfi_def_cfa_offset 16
 117 0004 00AF     		add	r7, sp, #0
 118              		.cfi_def_cfa_register 7
 119 0006 7860     		str	r0, [r7, #4]
 120 0008 3960     		str	r1, [r7]
 655:Generated_Source\PSoC6\pdl\drivers/peripheral/dma/cy_dma.h ****     descriptor->dst = (uint32_t) dstAddress;
 121              		.loc 1 655 0
 122 000a 3A68     		ldr	r2, [r7]
 123 000c 7B68     		ldr	r3, [r7, #4]
 124 000e 9A60     		str	r2, [r3, #8]
 656:Generated_Source\PSoC6\pdl\drivers/peripheral/dma/cy_dma.h **** }
 125              		.loc 1 656 0
 126 0010 00BF     		nop
 127 0012 0C37     		adds	r7, r7, #12
 128              		.cfi_def_cfa_offset 4
 129 0014 BD46     		mov	sp, r7
 130              		.cfi_def_cfa_register 13
 131              		@ sp needed
 132 0016 5DF8047B 		ldr	r7, [sp], #4
 133              		.cfi_restore 7
 134              		.cfi_def_cfa_offset 0
 135 001a 7047     		bx	lr
 136              		.cfi_endproc
 137              	.LFE132:
 138              		.size	Cy_DMA_Descriptor_SetDstAddress, .-Cy_DMA_Descriptor_SetDstAddress
 139              		.section	.rodata
 140              		.align	2
 141              	.LC0:
 142 0000 47656E65 		.ascii	"Generated_Source\\PSoC6\\pdl\\drivers/peripheral/dm"
ARM GAS  C:\Users\ikomb\AppData\Local\Temp\ccZduaXD.s 			page 15


 142      72617465 
 142      645F536F 
 142      75726365 
 142      5C50536F 
 143 0030 612F6379 		.ascii	"a/cy_dma.h\000"
 143      5F646D61 
 143      2E6800
 144              		.section	.text.Cy_DMA_Channel_Enable,"ax",%progbits
 145              		.align	2
 146              		.thumb
 147              		.thumb_func
 148              		.type	Cy_DMA_Channel_Enable, %function
 149              	Cy_DMA_Channel_Enable:
 150              	.LFB164:
 657:Generated_Source\PSoC6\pdl\drivers/peripheral/dma/cy_dma.h **** 
 658:Generated_Source\PSoC6\pdl\drivers/peripheral/dma/cy_dma.h **** 
 659:Generated_Source\PSoC6\pdl\drivers/peripheral/dma/cy_dma.h **** /*******************************************************************************
 660:Generated_Source\PSoC6\pdl\drivers/peripheral/dma/cy_dma.h **** * Function Name: Cy_DMA_Descriptor_GetDstAddress
 661:Generated_Source\PSoC6\pdl\drivers/peripheral/dma/cy_dma.h **** ****************************************************************************//**
 662:Generated_Source\PSoC6\pdl\drivers/peripheral/dma/cy_dma.h **** *
 663:Generated_Source\PSoC6\pdl\drivers/peripheral/dma/cy_dma.h **** * Returns the destination address parameter of the specified descriptor.
 664:Generated_Source\PSoC6\pdl\drivers/peripheral/dma/cy_dma.h **** * 
 665:Generated_Source\PSoC6\pdl\drivers/peripheral/dma/cy_dma.h **** * \param descriptor
 666:Generated_Source\PSoC6\pdl\drivers/peripheral/dma/cy_dma.h **** * The descriptor structure instance declared by the user/component.
 667:Generated_Source\PSoC6\pdl\drivers/peripheral/dma/cy_dma.h **** *
 668:Generated_Source\PSoC6\pdl\drivers/peripheral/dma/cy_dma.h **** * \return
 669:Generated_Source\PSoC6\pdl\drivers/peripheral/dma/cy_dma.h **** * The destination address value of the descriptor.
 670:Generated_Source\PSoC6\pdl\drivers/peripheral/dma/cy_dma.h **** *
 671:Generated_Source\PSoC6\pdl\drivers/peripheral/dma/cy_dma.h **** *******************************************************************************/
 672:Generated_Source\PSoC6\pdl\drivers/peripheral/dma/cy_dma.h **** __STATIC_INLINE void * Cy_DMA_Descriptor_GetDstAddress(cy_stc_dma_descriptor_t const * descriptor)
 673:Generated_Source\PSoC6\pdl\drivers/peripheral/dma/cy_dma.h **** {
 674:Generated_Source\PSoC6\pdl\drivers/peripheral/dma/cy_dma.h ****     return ((void *) descriptor->dst);
 675:Generated_Source\PSoC6\pdl\drivers/peripheral/dma/cy_dma.h **** }
 676:Generated_Source\PSoC6\pdl\drivers/peripheral/dma/cy_dma.h **** 
 677:Generated_Source\PSoC6\pdl\drivers/peripheral/dma/cy_dma.h **** 
 678:Generated_Source\PSoC6\pdl\drivers/peripheral/dma/cy_dma.h **** /*******************************************************************************
 679:Generated_Source\PSoC6\pdl\drivers/peripheral/dma/cy_dma.h **** * Function Name: Cy_DMA_Descriptor_SetInterruptType
 680:Generated_Source\PSoC6\pdl\drivers/peripheral/dma/cy_dma.h **** ****************************************************************************//**
 681:Generated_Source\PSoC6\pdl\drivers/peripheral/dma/cy_dma.h **** *
 682:Generated_Source\PSoC6\pdl\drivers/peripheral/dma/cy_dma.h **** * Sets the interrupt type parameter for the specified descriptor.
 683:Generated_Source\PSoC6\pdl\drivers/peripheral/dma/cy_dma.h **** *
 684:Generated_Source\PSoC6\pdl\drivers/peripheral/dma/cy_dma.h **** * \param descriptor
 685:Generated_Source\PSoC6\pdl\drivers/peripheral/dma/cy_dma.h **** * The descriptor structure instance declared by the user/component.
 686:Generated_Source\PSoC6\pdl\drivers/peripheral/dma/cy_dma.h **** *
 687:Generated_Source\PSoC6\pdl\drivers/peripheral/dma/cy_dma.h **** * \param interruptType
 688:Generated_Source\PSoC6\pdl\drivers/peripheral/dma/cy_dma.h **** * The interrupt type set for the descriptor. \ref cy_en_dma_trigger_type_t
 689:Generated_Source\PSoC6\pdl\drivers/peripheral/dma/cy_dma.h **** *
 690:Generated_Source\PSoC6\pdl\drivers/peripheral/dma/cy_dma.h **** *******************************************************************************/
 691:Generated_Source\PSoC6\pdl\drivers/peripheral/dma/cy_dma.h **** __STATIC_INLINE void Cy_DMA_Descriptor_SetInterruptType(cy_stc_dma_descriptor_t * descriptor, cy_en
 692:Generated_Source\PSoC6\pdl\drivers/peripheral/dma/cy_dma.h **** {
 693:Generated_Source\PSoC6\pdl\drivers/peripheral/dma/cy_dma.h ****     CY_ASSERT_L1(NULL != descriptor);
 694:Generated_Source\PSoC6\pdl\drivers/peripheral/dma/cy_dma.h ****     CY_ASSERT_L3(CY_DMA_IS_TRIG_TYPE_VALID(interruptType));
 695:Generated_Source\PSoC6\pdl\drivers/peripheral/dma/cy_dma.h ****     
 696:Generated_Source\PSoC6\pdl\drivers/peripheral/dma/cy_dma.h ****     descriptor->ctl = _CLR_SET_FLD32U(descriptor->ctl, CY_DMA_CTL_INTR_TYPE, interruptType);
 697:Generated_Source\PSoC6\pdl\drivers/peripheral/dma/cy_dma.h **** }
 698:Generated_Source\PSoC6\pdl\drivers/peripheral/dma/cy_dma.h **** 
 699:Generated_Source\PSoC6\pdl\drivers/peripheral/dma/cy_dma.h **** 
ARM GAS  C:\Users\ikomb\AppData\Local\Temp\ccZduaXD.s 			page 16


 700:Generated_Source\PSoC6\pdl\drivers/peripheral/dma/cy_dma.h **** /*******************************************************************************
 701:Generated_Source\PSoC6\pdl\drivers/peripheral/dma/cy_dma.h **** * Function Name: Cy_DMA_Descriptor_GetInterruptType
 702:Generated_Source\PSoC6\pdl\drivers/peripheral/dma/cy_dma.h **** ****************************************************************************//**
 703:Generated_Source\PSoC6\pdl\drivers/peripheral/dma/cy_dma.h **** *
 704:Generated_Source\PSoC6\pdl\drivers/peripheral/dma/cy_dma.h **** * Returns the Interrupt-Type of the specified descriptor.
 705:Generated_Source\PSoC6\pdl\drivers/peripheral/dma/cy_dma.h **** *
 706:Generated_Source\PSoC6\pdl\drivers/peripheral/dma/cy_dma.h **** * \param descriptor
 707:Generated_Source\PSoC6\pdl\drivers/peripheral/dma/cy_dma.h **** * The descriptor structure instance declared by the user/component.
 708:Generated_Source\PSoC6\pdl\drivers/peripheral/dma/cy_dma.h **** *
 709:Generated_Source\PSoC6\pdl\drivers/peripheral/dma/cy_dma.h **** * \return
 710:Generated_Source\PSoC6\pdl\drivers/peripheral/dma/cy_dma.h **** * The Interrupt-Type \ref cy_en_dma_trigger_type_t.
 711:Generated_Source\PSoC6\pdl\drivers/peripheral/dma/cy_dma.h **** *  
 712:Generated_Source\PSoC6\pdl\drivers/peripheral/dma/cy_dma.h **** *******************************************************************************/
 713:Generated_Source\PSoC6\pdl\drivers/peripheral/dma/cy_dma.h **** __STATIC_INLINE cy_en_dma_trigger_type_t Cy_DMA_Descriptor_GetInterruptType(cy_stc_dma_descriptor_t
 714:Generated_Source\PSoC6\pdl\drivers/peripheral/dma/cy_dma.h **** {
 715:Generated_Source\PSoC6\pdl\drivers/peripheral/dma/cy_dma.h ****     CY_ASSERT_L1(NULL != descriptor);
 716:Generated_Source\PSoC6\pdl\drivers/peripheral/dma/cy_dma.h ****     
 717:Generated_Source\PSoC6\pdl\drivers/peripheral/dma/cy_dma.h ****     return((cy_en_dma_trigger_type_t) _FLD2VAL(CY_DMA_CTL_INTR_TYPE, descriptor->ctl));
 718:Generated_Source\PSoC6\pdl\drivers/peripheral/dma/cy_dma.h **** }
 719:Generated_Source\PSoC6\pdl\drivers/peripheral/dma/cy_dma.h **** 
 720:Generated_Source\PSoC6\pdl\drivers/peripheral/dma/cy_dma.h **** 
 721:Generated_Source\PSoC6\pdl\drivers/peripheral/dma/cy_dma.h **** /*******************************************************************************
 722:Generated_Source\PSoC6\pdl\drivers/peripheral/dma/cy_dma.h **** * Function Name: Cy_DMA_Descriptor_SetTriggerInType
 723:Generated_Source\PSoC6\pdl\drivers/peripheral/dma/cy_dma.h **** ****************************************************************************//**
 724:Generated_Source\PSoC6\pdl\drivers/peripheral/dma/cy_dma.h **** *
 725:Generated_Source\PSoC6\pdl\drivers/peripheral/dma/cy_dma.h **** * Sets the Trigger-In-Type parameter for the specified descriptor.
 726:Generated_Source\PSoC6\pdl\drivers/peripheral/dma/cy_dma.h **** *
 727:Generated_Source\PSoC6\pdl\drivers/peripheral/dma/cy_dma.h **** * \param descriptor
 728:Generated_Source\PSoC6\pdl\drivers/peripheral/dma/cy_dma.h **** * The descriptor structure instance declared by the user/component.
 729:Generated_Source\PSoC6\pdl\drivers/peripheral/dma/cy_dma.h **** *
 730:Generated_Source\PSoC6\pdl\drivers/peripheral/dma/cy_dma.h **** * \param triggerInType
 731:Generated_Source\PSoC6\pdl\drivers/peripheral/dma/cy_dma.h **** * The Trigger In Type parameter \ref cy_en_dma_trigger_type_t
 732:Generated_Source\PSoC6\pdl\drivers/peripheral/dma/cy_dma.h **** *
 733:Generated_Source\PSoC6\pdl\drivers/peripheral/dma/cy_dma.h **** *******************************************************************************/
 734:Generated_Source\PSoC6\pdl\drivers/peripheral/dma/cy_dma.h **** __STATIC_INLINE void Cy_DMA_Descriptor_SetTriggerInType(cy_stc_dma_descriptor_t * descriptor, cy_en
 735:Generated_Source\PSoC6\pdl\drivers/peripheral/dma/cy_dma.h **** {
 736:Generated_Source\PSoC6\pdl\drivers/peripheral/dma/cy_dma.h ****     CY_ASSERT_L1(NULL != descriptor);
 737:Generated_Source\PSoC6\pdl\drivers/peripheral/dma/cy_dma.h ****     CY_ASSERT_L3(CY_DMA_IS_TRIG_TYPE_VALID(triggerInType));
 738:Generated_Source\PSoC6\pdl\drivers/peripheral/dma/cy_dma.h ****     
 739:Generated_Source\PSoC6\pdl\drivers/peripheral/dma/cy_dma.h ****     descriptor->ctl = _CLR_SET_FLD32U(descriptor->ctl, CY_DMA_CTL_TR_IN_TYPE, triggerInType);
 740:Generated_Source\PSoC6\pdl\drivers/peripheral/dma/cy_dma.h **** }
 741:Generated_Source\PSoC6\pdl\drivers/peripheral/dma/cy_dma.h **** 
 742:Generated_Source\PSoC6\pdl\drivers/peripheral/dma/cy_dma.h **** 
 743:Generated_Source\PSoC6\pdl\drivers/peripheral/dma/cy_dma.h **** /*******************************************************************************
 744:Generated_Source\PSoC6\pdl\drivers/peripheral/dma/cy_dma.h **** * Function Name: Cy_DMA_Descriptor_GetTriggerInType
 745:Generated_Source\PSoC6\pdl\drivers/peripheral/dma/cy_dma.h **** ****************************************************************************//**
 746:Generated_Source\PSoC6\pdl\drivers/peripheral/dma/cy_dma.h **** *
 747:Generated_Source\PSoC6\pdl\drivers/peripheral/dma/cy_dma.h **** * Returns the Trigger-In-Type parameter of the specified descriptor.
 748:Generated_Source\PSoC6\pdl\drivers/peripheral/dma/cy_dma.h **** *
 749:Generated_Source\PSoC6\pdl\drivers/peripheral/dma/cy_dma.h **** * \param descriptor
 750:Generated_Source\PSoC6\pdl\drivers/peripheral/dma/cy_dma.h **** * The descriptor structure instance declared by the user/component.
 751:Generated_Source\PSoC6\pdl\drivers/peripheral/dma/cy_dma.h **** *
 752:Generated_Source\PSoC6\pdl\drivers/peripheral/dma/cy_dma.h **** * \return
 753:Generated_Source\PSoC6\pdl\drivers/peripheral/dma/cy_dma.h **** * The Trigger-In-Type \ref cy_en_dma_trigger_type_t
 754:Generated_Source\PSoC6\pdl\drivers/peripheral/dma/cy_dma.h **** *  
 755:Generated_Source\PSoC6\pdl\drivers/peripheral/dma/cy_dma.h **** *******************************************************************************/
 756:Generated_Source\PSoC6\pdl\drivers/peripheral/dma/cy_dma.h **** __STATIC_INLINE cy_en_dma_trigger_type_t Cy_DMA_Descriptor_GetTriggerInType(cy_stc_dma_descriptor_t
ARM GAS  C:\Users\ikomb\AppData\Local\Temp\ccZduaXD.s 			page 17


 757:Generated_Source\PSoC6\pdl\drivers/peripheral/dma/cy_dma.h **** {
 758:Generated_Source\PSoC6\pdl\drivers/peripheral/dma/cy_dma.h ****     CY_ASSERT_L1(NULL != descriptor);
 759:Generated_Source\PSoC6\pdl\drivers/peripheral/dma/cy_dma.h ****     
 760:Generated_Source\PSoC6\pdl\drivers/peripheral/dma/cy_dma.h ****     return((cy_en_dma_trigger_type_t) _FLD2VAL(CY_DMA_CTL_TR_IN_TYPE, descriptor->ctl));
 761:Generated_Source\PSoC6\pdl\drivers/peripheral/dma/cy_dma.h **** }
 762:Generated_Source\PSoC6\pdl\drivers/peripheral/dma/cy_dma.h **** 
 763:Generated_Source\PSoC6\pdl\drivers/peripheral/dma/cy_dma.h **** 
 764:Generated_Source\PSoC6\pdl\drivers/peripheral/dma/cy_dma.h **** /*******************************************************************************
 765:Generated_Source\PSoC6\pdl\drivers/peripheral/dma/cy_dma.h **** * Function Name: Cy_DMA_Descriptor_SetTriggerOutType
 766:Generated_Source\PSoC6\pdl\drivers/peripheral/dma/cy_dma.h **** ****************************************************************************//**
 767:Generated_Source\PSoC6\pdl\drivers/peripheral/dma/cy_dma.h **** *
 768:Generated_Source\PSoC6\pdl\drivers/peripheral/dma/cy_dma.h **** * Sets the Trigger-Out-Type parameter for the specified descriptor.
 769:Generated_Source\PSoC6\pdl\drivers/peripheral/dma/cy_dma.h **** *
 770:Generated_Source\PSoC6\pdl\drivers/peripheral/dma/cy_dma.h **** * \param descriptor
 771:Generated_Source\PSoC6\pdl\drivers/peripheral/dma/cy_dma.h **** * The descriptor structure instance declared by the user/component.
 772:Generated_Source\PSoC6\pdl\drivers/peripheral/dma/cy_dma.h **** *
 773:Generated_Source\PSoC6\pdl\drivers/peripheral/dma/cy_dma.h **** * \param triggerOutType
 774:Generated_Source\PSoC6\pdl\drivers/peripheral/dma/cy_dma.h **** * The Trigger-Out-Type set for the descriptor. \ref cy_en_dma_trigger_type_t
 775:Generated_Source\PSoC6\pdl\drivers/peripheral/dma/cy_dma.h **** *
 776:Generated_Source\PSoC6\pdl\drivers/peripheral/dma/cy_dma.h **** *******************************************************************************/
 777:Generated_Source\PSoC6\pdl\drivers/peripheral/dma/cy_dma.h **** __STATIC_INLINE void Cy_DMA_Descriptor_SetTriggerOutType(cy_stc_dma_descriptor_t * descriptor, cy_e
 778:Generated_Source\PSoC6\pdl\drivers/peripheral/dma/cy_dma.h **** {
 779:Generated_Source\PSoC6\pdl\drivers/peripheral/dma/cy_dma.h ****     CY_ASSERT_L1(NULL != descriptor);
 780:Generated_Source\PSoC6\pdl\drivers/peripheral/dma/cy_dma.h ****     CY_ASSERT_L3(CY_DMA_IS_TRIG_TYPE_VALID(triggerOutType));
 781:Generated_Source\PSoC6\pdl\drivers/peripheral/dma/cy_dma.h ****     
 782:Generated_Source\PSoC6\pdl\drivers/peripheral/dma/cy_dma.h ****     descriptor->ctl = _CLR_SET_FLD32U(descriptor->ctl, CY_DMA_CTL_TR_OUT_TYPE, triggerOutType);
 783:Generated_Source\PSoC6\pdl\drivers/peripheral/dma/cy_dma.h **** }
 784:Generated_Source\PSoC6\pdl\drivers/peripheral/dma/cy_dma.h **** 
 785:Generated_Source\PSoC6\pdl\drivers/peripheral/dma/cy_dma.h **** 
 786:Generated_Source\PSoC6\pdl\drivers/peripheral/dma/cy_dma.h **** /*******************************************************************************
 787:Generated_Source\PSoC6\pdl\drivers/peripheral/dma/cy_dma.h **** * Function Name: Cy_DMA_Descriptor_GetTriggerOutType
 788:Generated_Source\PSoC6\pdl\drivers/peripheral/dma/cy_dma.h **** ****************************************************************************//**
 789:Generated_Source\PSoC6\pdl\drivers/peripheral/dma/cy_dma.h **** *
 790:Generated_Source\PSoC6\pdl\drivers/peripheral/dma/cy_dma.h **** * Returns the Trigger-Out-Type parameter of the specified descriptor.
 791:Generated_Source\PSoC6\pdl\drivers/peripheral/dma/cy_dma.h **** *
 792:Generated_Source\PSoC6\pdl\drivers/peripheral/dma/cy_dma.h **** * \param descriptor
 793:Generated_Source\PSoC6\pdl\drivers/peripheral/dma/cy_dma.h **** * The descriptor structure instance declared by the user/component.
 794:Generated_Source\PSoC6\pdl\drivers/peripheral/dma/cy_dma.h **** *
 795:Generated_Source\PSoC6\pdl\drivers/peripheral/dma/cy_dma.h **** * \return
 796:Generated_Source\PSoC6\pdl\drivers/peripheral/dma/cy_dma.h **** * The Trigger-Out-Type parameter \ref cy_en_dma_trigger_type_t.
 797:Generated_Source\PSoC6\pdl\drivers/peripheral/dma/cy_dma.h **** *  
 798:Generated_Source\PSoC6\pdl\drivers/peripheral/dma/cy_dma.h **** *******************************************************************************/
 799:Generated_Source\PSoC6\pdl\drivers/peripheral/dma/cy_dma.h **** __STATIC_INLINE cy_en_dma_trigger_type_t Cy_DMA_Descriptor_GetTriggerOutType(cy_stc_dma_descriptor_
 800:Generated_Source\PSoC6\pdl\drivers/peripheral/dma/cy_dma.h **** {
 801:Generated_Source\PSoC6\pdl\drivers/peripheral/dma/cy_dma.h ****     CY_ASSERT_L1(NULL != descriptor);
 802:Generated_Source\PSoC6\pdl\drivers/peripheral/dma/cy_dma.h ****     
 803:Generated_Source\PSoC6\pdl\drivers/peripheral/dma/cy_dma.h ****     return((cy_en_dma_trigger_type_t) _FLD2VAL(CY_DMA_CTL_TR_OUT_TYPE, descriptor->ctl));
 804:Generated_Source\PSoC6\pdl\drivers/peripheral/dma/cy_dma.h **** }
 805:Generated_Source\PSoC6\pdl\drivers/peripheral/dma/cy_dma.h **** 
 806:Generated_Source\PSoC6\pdl\drivers/peripheral/dma/cy_dma.h **** 
 807:Generated_Source\PSoC6\pdl\drivers/peripheral/dma/cy_dma.h **** /*******************************************************************************
 808:Generated_Source\PSoC6\pdl\drivers/peripheral/dma/cy_dma.h **** * Function Name: Cy_DMA_Descriptor_SetDataSize
 809:Generated_Source\PSoC6\pdl\drivers/peripheral/dma/cy_dma.h **** ****************************************************************************//**
 810:Generated_Source\PSoC6\pdl\drivers/peripheral/dma/cy_dma.h **** *
 811:Generated_Source\PSoC6\pdl\drivers/peripheral/dma/cy_dma.h **** * Sets the Data Element Size parameter for the specified descriptor.
 812:Generated_Source\PSoC6\pdl\drivers/peripheral/dma/cy_dma.h **** *
 813:Generated_Source\PSoC6\pdl\drivers/peripheral/dma/cy_dma.h **** * \param descriptor
ARM GAS  C:\Users\ikomb\AppData\Local\Temp\ccZduaXD.s 			page 18


 814:Generated_Source\PSoC6\pdl\drivers/peripheral/dma/cy_dma.h **** * The descriptor structure instance declared by the user/component.
 815:Generated_Source\PSoC6\pdl\drivers/peripheral/dma/cy_dma.h **** *
 816:Generated_Source\PSoC6\pdl\drivers/peripheral/dma/cy_dma.h **** * \param dataSize
 817:Generated_Source\PSoC6\pdl\drivers/peripheral/dma/cy_dma.h **** * The Data Element Size \ref cy_en_dma_data_size_t
 818:Generated_Source\PSoC6\pdl\drivers/peripheral/dma/cy_dma.h **** *  
 819:Generated_Source\PSoC6\pdl\drivers/peripheral/dma/cy_dma.h **** *******************************************************************************/
 820:Generated_Source\PSoC6\pdl\drivers/peripheral/dma/cy_dma.h **** __STATIC_INLINE void Cy_DMA_Descriptor_SetDataSize(cy_stc_dma_descriptor_t * descriptor, cy_en_dma_
 821:Generated_Source\PSoC6\pdl\drivers/peripheral/dma/cy_dma.h **** {
 822:Generated_Source\PSoC6\pdl\drivers/peripheral/dma/cy_dma.h ****     CY_ASSERT_L1(NULL != descriptor);
 823:Generated_Source\PSoC6\pdl\drivers/peripheral/dma/cy_dma.h ****     CY_ASSERT_L3(CY_DMA_IS_DATA_SIZE_VALID(dataSize));
 824:Generated_Source\PSoC6\pdl\drivers/peripheral/dma/cy_dma.h ****     
 825:Generated_Source\PSoC6\pdl\drivers/peripheral/dma/cy_dma.h ****     descriptor->ctl = _CLR_SET_FLD32U(descriptor->ctl, CY_DMA_CTL_DATA_SIZE, dataSize);
 826:Generated_Source\PSoC6\pdl\drivers/peripheral/dma/cy_dma.h **** }
 827:Generated_Source\PSoC6\pdl\drivers/peripheral/dma/cy_dma.h **** 
 828:Generated_Source\PSoC6\pdl\drivers/peripheral/dma/cy_dma.h **** 
 829:Generated_Source\PSoC6\pdl\drivers/peripheral/dma/cy_dma.h **** /*******************************************************************************
 830:Generated_Source\PSoC6\pdl\drivers/peripheral/dma/cy_dma.h **** * Function Name: Cy_DMA_Descriptor_GetDataSize
 831:Generated_Source\PSoC6\pdl\drivers/peripheral/dma/cy_dma.h **** ****************************************************************************//**
 832:Generated_Source\PSoC6\pdl\drivers/peripheral/dma/cy_dma.h **** *
 833:Generated_Source\PSoC6\pdl\drivers/peripheral/dma/cy_dma.h **** * Returns the Data Element Size parameter of the specified descriptor.
 834:Generated_Source\PSoC6\pdl\drivers/peripheral/dma/cy_dma.h **** *
 835:Generated_Source\PSoC6\pdl\drivers/peripheral/dma/cy_dma.h **** * \param descriptor
 836:Generated_Source\PSoC6\pdl\drivers/peripheral/dma/cy_dma.h **** * The descriptor structure instance declared by the user/component.
 837:Generated_Source\PSoC6\pdl\drivers/peripheral/dma/cy_dma.h **** *
 838:Generated_Source\PSoC6\pdl\drivers/peripheral/dma/cy_dma.h **** * \return
 839:Generated_Source\PSoC6\pdl\drivers/peripheral/dma/cy_dma.h **** * The Data Element Size \ref cy_en_dma_data_size_t.
 840:Generated_Source\PSoC6\pdl\drivers/peripheral/dma/cy_dma.h **** *  
 841:Generated_Source\PSoC6\pdl\drivers/peripheral/dma/cy_dma.h **** *******************************************************************************/
 842:Generated_Source\PSoC6\pdl\drivers/peripheral/dma/cy_dma.h **** __STATIC_INLINE cy_en_dma_data_size_t Cy_DMA_Descriptor_GetDataSize(cy_stc_dma_descriptor_t const *
 843:Generated_Source\PSoC6\pdl\drivers/peripheral/dma/cy_dma.h **** {
 844:Generated_Source\PSoC6\pdl\drivers/peripheral/dma/cy_dma.h ****     CY_ASSERT_L1(NULL != descriptor);
 845:Generated_Source\PSoC6\pdl\drivers/peripheral/dma/cy_dma.h ****     
 846:Generated_Source\PSoC6\pdl\drivers/peripheral/dma/cy_dma.h ****     return((cy_en_dma_data_size_t) _FLD2VAL(CY_DMA_CTL_DATA_SIZE, descriptor->ctl));
 847:Generated_Source\PSoC6\pdl\drivers/peripheral/dma/cy_dma.h **** }
 848:Generated_Source\PSoC6\pdl\drivers/peripheral/dma/cy_dma.h **** 
 849:Generated_Source\PSoC6\pdl\drivers/peripheral/dma/cy_dma.h **** 
 850:Generated_Source\PSoC6\pdl\drivers/peripheral/dma/cy_dma.h **** /*******************************************************************************
 851:Generated_Source\PSoC6\pdl\drivers/peripheral/dma/cy_dma.h **** * Function Name: Cy_DMA_Descriptor_SetSrcTransferSize
 852:Generated_Source\PSoC6\pdl\drivers/peripheral/dma/cy_dma.h **** ****************************************************************************//**
 853:Generated_Source\PSoC6\pdl\drivers/peripheral/dma/cy_dma.h **** *
 854:Generated_Source\PSoC6\pdl\drivers/peripheral/dma/cy_dma.h **** * Sets the Source Transfer Size parameter for the specified descriptor.
 855:Generated_Source\PSoC6\pdl\drivers/peripheral/dma/cy_dma.h **** *
 856:Generated_Source\PSoC6\pdl\drivers/peripheral/dma/cy_dma.h **** * \param descriptor
 857:Generated_Source\PSoC6\pdl\drivers/peripheral/dma/cy_dma.h **** * The descriptor structure instance declared by the user/component.
 858:Generated_Source\PSoC6\pdl\drivers/peripheral/dma/cy_dma.h **** *
 859:Generated_Source\PSoC6\pdl\drivers/peripheral/dma/cy_dma.h **** * \param srcTransferSize
 860:Generated_Source\PSoC6\pdl\drivers/peripheral/dma/cy_dma.h **** * The Source Transfer Size \ref cy_en_dma_transfer_size_t.
 861:Generated_Source\PSoC6\pdl\drivers/peripheral/dma/cy_dma.h **** *
 862:Generated_Source\PSoC6\pdl\drivers/peripheral/dma/cy_dma.h **** *******************************************************************************/
 863:Generated_Source\PSoC6\pdl\drivers/peripheral/dma/cy_dma.h **** __STATIC_INLINE void Cy_DMA_Descriptor_SetSrcTransferSize(cy_stc_dma_descriptor_t * descriptor, cy_
 864:Generated_Source\PSoC6\pdl\drivers/peripheral/dma/cy_dma.h **** {
 865:Generated_Source\PSoC6\pdl\drivers/peripheral/dma/cy_dma.h ****     CY_ASSERT_L1(NULL != descriptor);
 866:Generated_Source\PSoC6\pdl\drivers/peripheral/dma/cy_dma.h ****     CY_ASSERT_L3(CY_DMA_IS_XFER_SIZE_VALID(srcTransferSize));
 867:Generated_Source\PSoC6\pdl\drivers/peripheral/dma/cy_dma.h **** 
 868:Generated_Source\PSoC6\pdl\drivers/peripheral/dma/cy_dma.h ****     descriptor->ctl = _CLR_SET_FLD32U(descriptor->ctl, CY_DMA_CTL_SRC_SIZE, srcTransferSize);
 869:Generated_Source\PSoC6\pdl\drivers/peripheral/dma/cy_dma.h **** }
 870:Generated_Source\PSoC6\pdl\drivers/peripheral/dma/cy_dma.h **** 
ARM GAS  C:\Users\ikomb\AppData\Local\Temp\ccZduaXD.s 			page 19


 871:Generated_Source\PSoC6\pdl\drivers/peripheral/dma/cy_dma.h **** 
 872:Generated_Source\PSoC6\pdl\drivers/peripheral/dma/cy_dma.h **** /*******************************************************************************
 873:Generated_Source\PSoC6\pdl\drivers/peripheral/dma/cy_dma.h **** * Function Name: Cy_DMA_Descriptor_GetSrcTransferSize
 874:Generated_Source\PSoC6\pdl\drivers/peripheral/dma/cy_dma.h **** ****************************************************************************//**
 875:Generated_Source\PSoC6\pdl\drivers/peripheral/dma/cy_dma.h **** *
 876:Generated_Source\PSoC6\pdl\drivers/peripheral/dma/cy_dma.h **** * Returns the Source Transfer Size parameter of the specified descriptor.
 877:Generated_Source\PSoC6\pdl\drivers/peripheral/dma/cy_dma.h **** *
 878:Generated_Source\PSoC6\pdl\drivers/peripheral/dma/cy_dma.h **** * \param descriptor
 879:Generated_Source\PSoC6\pdl\drivers/peripheral/dma/cy_dma.h **** * The descriptor structure instance declared by the user/component.
 880:Generated_Source\PSoC6\pdl\drivers/peripheral/dma/cy_dma.h **** *
 881:Generated_Source\PSoC6\pdl\drivers/peripheral/dma/cy_dma.h **** * \return
 882:Generated_Source\PSoC6\pdl\drivers/peripheral/dma/cy_dma.h **** * The Source Transfer Size \ref cy_en_dma_transfer_size_t.
 883:Generated_Source\PSoC6\pdl\drivers/peripheral/dma/cy_dma.h **** *  
 884:Generated_Source\PSoC6\pdl\drivers/peripheral/dma/cy_dma.h **** *******************************************************************************/
 885:Generated_Source\PSoC6\pdl\drivers/peripheral/dma/cy_dma.h **** __STATIC_INLINE cy_en_dma_transfer_size_t Cy_DMA_Descriptor_GetSrcTransferSize(cy_stc_dma_descripto
 886:Generated_Source\PSoC6\pdl\drivers/peripheral/dma/cy_dma.h **** {
 887:Generated_Source\PSoC6\pdl\drivers/peripheral/dma/cy_dma.h ****     CY_ASSERT_L1(NULL != descriptor);
 888:Generated_Source\PSoC6\pdl\drivers/peripheral/dma/cy_dma.h ****     
 889:Generated_Source\PSoC6\pdl\drivers/peripheral/dma/cy_dma.h ****     return((cy_en_dma_transfer_size_t) _FLD2VAL(CY_DMA_CTL_SRC_SIZE, descriptor->ctl));
 890:Generated_Source\PSoC6\pdl\drivers/peripheral/dma/cy_dma.h **** }
 891:Generated_Source\PSoC6\pdl\drivers/peripheral/dma/cy_dma.h **** 
 892:Generated_Source\PSoC6\pdl\drivers/peripheral/dma/cy_dma.h **** 
 893:Generated_Source\PSoC6\pdl\drivers/peripheral/dma/cy_dma.h **** /*******************************************************************************
 894:Generated_Source\PSoC6\pdl\drivers/peripheral/dma/cy_dma.h **** * Function Name: Cy_DMA_Descriptor_SetDstTransferSize
 895:Generated_Source\PSoC6\pdl\drivers/peripheral/dma/cy_dma.h **** ****************************************************************************//**
 896:Generated_Source\PSoC6\pdl\drivers/peripheral/dma/cy_dma.h **** *
 897:Generated_Source\PSoC6\pdl\drivers/peripheral/dma/cy_dma.h **** * Sets the Destination Transfer Size parameter for the specified descriptor.
 898:Generated_Source\PSoC6\pdl\drivers/peripheral/dma/cy_dma.h **** *
 899:Generated_Source\PSoC6\pdl\drivers/peripheral/dma/cy_dma.h **** * \param descriptor
 900:Generated_Source\PSoC6\pdl\drivers/peripheral/dma/cy_dma.h **** * The descriptor structure instance declared by the user/component.
 901:Generated_Source\PSoC6\pdl\drivers/peripheral/dma/cy_dma.h **** *
 902:Generated_Source\PSoC6\pdl\drivers/peripheral/dma/cy_dma.h **** * \param dstTransferSize
 903:Generated_Source\PSoC6\pdl\drivers/peripheral/dma/cy_dma.h **** * The Destination Transfer Size \ref cy_en_dma_transfer_size_t.
 904:Generated_Source\PSoC6\pdl\drivers/peripheral/dma/cy_dma.h **** *
 905:Generated_Source\PSoC6\pdl\drivers/peripheral/dma/cy_dma.h **** *******************************************************************************/
 906:Generated_Source\PSoC6\pdl\drivers/peripheral/dma/cy_dma.h **** __STATIC_INLINE void Cy_DMA_Descriptor_SetDstTransferSize(cy_stc_dma_descriptor_t * descriptor, cy_
 907:Generated_Source\PSoC6\pdl\drivers/peripheral/dma/cy_dma.h **** {
 908:Generated_Source\PSoC6\pdl\drivers/peripheral/dma/cy_dma.h ****     CY_ASSERT_L1(NULL != descriptor);
 909:Generated_Source\PSoC6\pdl\drivers/peripheral/dma/cy_dma.h ****     CY_ASSERT_L3(CY_DMA_IS_XFER_SIZE_VALID(dstTransferSize));
 910:Generated_Source\PSoC6\pdl\drivers/peripheral/dma/cy_dma.h ****     
 911:Generated_Source\PSoC6\pdl\drivers/peripheral/dma/cy_dma.h ****     descriptor->ctl = _CLR_SET_FLD32U(descriptor->ctl, CY_DMA_CTL_DST_SIZE, dstTransferSize);
 912:Generated_Source\PSoC6\pdl\drivers/peripheral/dma/cy_dma.h **** }
 913:Generated_Source\PSoC6\pdl\drivers/peripheral/dma/cy_dma.h **** 
 914:Generated_Source\PSoC6\pdl\drivers/peripheral/dma/cy_dma.h **** 
 915:Generated_Source\PSoC6\pdl\drivers/peripheral/dma/cy_dma.h **** /*******************************************************************************
 916:Generated_Source\PSoC6\pdl\drivers/peripheral/dma/cy_dma.h **** * Function Name: Cy_DMA_Descriptor_GetDstTransferSize
 917:Generated_Source\PSoC6\pdl\drivers/peripheral/dma/cy_dma.h **** ****************************************************************************//**
 918:Generated_Source\PSoC6\pdl\drivers/peripheral/dma/cy_dma.h **** *
 919:Generated_Source\PSoC6\pdl\drivers/peripheral/dma/cy_dma.h **** * Returns the Destination Transfer Size parameter of the specified descriptor.
 920:Generated_Source\PSoC6\pdl\drivers/peripheral/dma/cy_dma.h **** *
 921:Generated_Source\PSoC6\pdl\drivers/peripheral/dma/cy_dma.h **** * \param descriptor
 922:Generated_Source\PSoC6\pdl\drivers/peripheral/dma/cy_dma.h **** * The descriptor structure instance declared by the user/component.
 923:Generated_Source\PSoC6\pdl\drivers/peripheral/dma/cy_dma.h **** *
 924:Generated_Source\PSoC6\pdl\drivers/peripheral/dma/cy_dma.h **** * \return
 925:Generated_Source\PSoC6\pdl\drivers/peripheral/dma/cy_dma.h **** * The Destination Transfer Size \ref cy_en_dma_transfer_size_t
 926:Generated_Source\PSoC6\pdl\drivers/peripheral/dma/cy_dma.h **** *  
 927:Generated_Source\PSoC6\pdl\drivers/peripheral/dma/cy_dma.h **** *******************************************************************************/
ARM GAS  C:\Users\ikomb\AppData\Local\Temp\ccZduaXD.s 			page 20


 928:Generated_Source\PSoC6\pdl\drivers/peripheral/dma/cy_dma.h **** __STATIC_INLINE cy_en_dma_transfer_size_t Cy_DMA_Descriptor_GetDstTransferSize(cy_stc_dma_descripto
 929:Generated_Source\PSoC6\pdl\drivers/peripheral/dma/cy_dma.h **** {
 930:Generated_Source\PSoC6\pdl\drivers/peripheral/dma/cy_dma.h ****     CY_ASSERT_L1(NULL != descriptor);
 931:Generated_Source\PSoC6\pdl\drivers/peripheral/dma/cy_dma.h ****     
 932:Generated_Source\PSoC6\pdl\drivers/peripheral/dma/cy_dma.h ****     return((cy_en_dma_transfer_size_t) _FLD2VAL(CY_DMA_CTL_DST_SIZE, descriptor->ctl));
 933:Generated_Source\PSoC6\pdl\drivers/peripheral/dma/cy_dma.h **** }
 934:Generated_Source\PSoC6\pdl\drivers/peripheral/dma/cy_dma.h **** 
 935:Generated_Source\PSoC6\pdl\drivers/peripheral/dma/cy_dma.h **** 
 936:Generated_Source\PSoC6\pdl\drivers/peripheral/dma/cy_dma.h **** /*******************************************************************************
 937:Generated_Source\PSoC6\pdl\drivers/peripheral/dma/cy_dma.h **** * Function Name: Cy_DMA_Descriptor_SetRetrigger
 938:Generated_Source\PSoC6\pdl\drivers/peripheral/dma/cy_dma.h **** ****************************************************************************//**
 939:Generated_Source\PSoC6\pdl\drivers/peripheral/dma/cy_dma.h **** *
 940:Generated_Source\PSoC6\pdl\drivers/peripheral/dma/cy_dma.h **** * Sets the retrigger value which specifies whether the controller should 
 941:Generated_Source\PSoC6\pdl\drivers/peripheral/dma/cy_dma.h **** * wait for the input trigger to be deactivated.
 942:Generated_Source\PSoC6\pdl\drivers/peripheral/dma/cy_dma.h **** *
 943:Generated_Source\PSoC6\pdl\drivers/peripheral/dma/cy_dma.h **** * \param descriptor
 944:Generated_Source\PSoC6\pdl\drivers/peripheral/dma/cy_dma.h **** * The descriptor structure instance declared by the user/component.
 945:Generated_Source\PSoC6\pdl\drivers/peripheral/dma/cy_dma.h **** *
 946:Generated_Source\PSoC6\pdl\drivers/peripheral/dma/cy_dma.h **** * \param retrigger 
 947:Generated_Source\PSoC6\pdl\drivers/peripheral/dma/cy_dma.h **** * The \ref cy_en_dma_retrigger_t parameter specifies whether the controller
 948:Generated_Source\PSoC6\pdl\drivers/peripheral/dma/cy_dma.h **** * should wait for the input trigger to be deactivated.
 949:Generated_Source\PSoC6\pdl\drivers/peripheral/dma/cy_dma.h **** *
 950:Generated_Source\PSoC6\pdl\drivers/peripheral/dma/cy_dma.h **** *******************************************************************************/
 951:Generated_Source\PSoC6\pdl\drivers/peripheral/dma/cy_dma.h **** __STATIC_INLINE void Cy_DMA_Descriptor_SetRetrigger(cy_stc_dma_descriptor_t * descriptor, cy_en_dma
 952:Generated_Source\PSoC6\pdl\drivers/peripheral/dma/cy_dma.h **** {
 953:Generated_Source\PSoC6\pdl\drivers/peripheral/dma/cy_dma.h ****     CY_ASSERT_L1(NULL != descriptor);
 954:Generated_Source\PSoC6\pdl\drivers/peripheral/dma/cy_dma.h ****     CY_ASSERT_L3(CY_DMA_IS_RETRIGGER_VALID(retrigger));
 955:Generated_Source\PSoC6\pdl\drivers/peripheral/dma/cy_dma.h ****     
 956:Generated_Source\PSoC6\pdl\drivers/peripheral/dma/cy_dma.h ****     descriptor->ctl = _CLR_SET_FLD32U(descriptor->ctl, CY_DMA_CTL_RETRIG, retrigger);
 957:Generated_Source\PSoC6\pdl\drivers/peripheral/dma/cy_dma.h **** }
 958:Generated_Source\PSoC6\pdl\drivers/peripheral/dma/cy_dma.h **** 
 959:Generated_Source\PSoC6\pdl\drivers/peripheral/dma/cy_dma.h **** 
 960:Generated_Source\PSoC6\pdl\drivers/peripheral/dma/cy_dma.h **** /*******************************************************************************
 961:Generated_Source\PSoC6\pdl\drivers/peripheral/dma/cy_dma.h **** * Function Name: Cy_DMA_Descriptor_GetRetrigger
 962:Generated_Source\PSoC6\pdl\drivers/peripheral/dma/cy_dma.h **** ****************************************************************************//**
 963:Generated_Source\PSoC6\pdl\drivers/peripheral/dma/cy_dma.h **** *
 964:Generated_Source\PSoC6\pdl\drivers/peripheral/dma/cy_dma.h **** * Returns a value which specifies whether the controller should 
 965:Generated_Source\PSoC6\pdl\drivers/peripheral/dma/cy_dma.h **** * wait for the input trigger to be deactivated.
 966:Generated_Source\PSoC6\pdl\drivers/peripheral/dma/cy_dma.h **** *
 967:Generated_Source\PSoC6\pdl\drivers/peripheral/dma/cy_dma.h **** * \param descriptor
 968:Generated_Source\PSoC6\pdl\drivers/peripheral/dma/cy_dma.h **** * The descriptor structure instance declared by the user/component.
 969:Generated_Source\PSoC6\pdl\drivers/peripheral/dma/cy_dma.h **** *
 970:Generated_Source\PSoC6\pdl\drivers/peripheral/dma/cy_dma.h **** * \return
 971:Generated_Source\PSoC6\pdl\drivers/peripheral/dma/cy_dma.h **** * The Retrigger setting \ref cy_en_dma_retrigger_t.
 972:Generated_Source\PSoC6\pdl\drivers/peripheral/dma/cy_dma.h **** *  
 973:Generated_Source\PSoC6\pdl\drivers/peripheral/dma/cy_dma.h **** *******************************************************************************/
 974:Generated_Source\PSoC6\pdl\drivers/peripheral/dma/cy_dma.h **** __STATIC_INLINE cy_en_dma_retrigger_t Cy_DMA_Descriptor_GetRetrigger(cy_stc_dma_descriptor_t const 
 975:Generated_Source\PSoC6\pdl\drivers/peripheral/dma/cy_dma.h **** {
 976:Generated_Source\PSoC6\pdl\drivers/peripheral/dma/cy_dma.h ****     CY_ASSERT_L1(NULL != descriptor);
 977:Generated_Source\PSoC6\pdl\drivers/peripheral/dma/cy_dma.h ****     
 978:Generated_Source\PSoC6\pdl\drivers/peripheral/dma/cy_dma.h ****     return((cy_en_dma_retrigger_t) _FLD2VAL(CY_DMA_CTL_RETRIG, descriptor->ctl));
 979:Generated_Source\PSoC6\pdl\drivers/peripheral/dma/cy_dma.h **** }
 980:Generated_Source\PSoC6\pdl\drivers/peripheral/dma/cy_dma.h **** 
 981:Generated_Source\PSoC6\pdl\drivers/peripheral/dma/cy_dma.h **** 
 982:Generated_Source\PSoC6\pdl\drivers/peripheral/dma/cy_dma.h **** /*******************************************************************************
 983:Generated_Source\PSoC6\pdl\drivers/peripheral/dma/cy_dma.h **** * Function Name: Cy_DMA_Descriptor_GetDescriptorType
 984:Generated_Source\PSoC6\pdl\drivers/peripheral/dma/cy_dma.h **** ****************************************************************************//**
ARM GAS  C:\Users\ikomb\AppData\Local\Temp\ccZduaXD.s 			page 21


 985:Generated_Source\PSoC6\pdl\drivers/peripheral/dma/cy_dma.h **** *
 986:Generated_Source\PSoC6\pdl\drivers/peripheral/dma/cy_dma.h **** * Returns the descriptor's type of the specified descriptor.
 987:Generated_Source\PSoC6\pdl\drivers/peripheral/dma/cy_dma.h **** *
 988:Generated_Source\PSoC6\pdl\drivers/peripheral/dma/cy_dma.h **** * \param descriptor
 989:Generated_Source\PSoC6\pdl\drivers/peripheral/dma/cy_dma.h **** * The descriptor structure instance declared by the user/component.
 990:Generated_Source\PSoC6\pdl\drivers/peripheral/dma/cy_dma.h **** *
 991:Generated_Source\PSoC6\pdl\drivers/peripheral/dma/cy_dma.h **** * \return
 992:Generated_Source\PSoC6\pdl\drivers/peripheral/dma/cy_dma.h **** * The descriptor type \ref cy_en_dma_descriptor_type_t
 993:Generated_Source\PSoC6\pdl\drivers/peripheral/dma/cy_dma.h **** *  
 994:Generated_Source\PSoC6\pdl\drivers/peripheral/dma/cy_dma.h **** *******************************************************************************/
 995:Generated_Source\PSoC6\pdl\drivers/peripheral/dma/cy_dma.h **** __STATIC_INLINE cy_en_dma_descriptor_type_t Cy_DMA_Descriptor_GetDescriptorType(cy_stc_dma_descript
 996:Generated_Source\PSoC6\pdl\drivers/peripheral/dma/cy_dma.h **** {
 997:Generated_Source\PSoC6\pdl\drivers/peripheral/dma/cy_dma.h ****     CY_ASSERT_L1(NULL != descriptor);
 998:Generated_Source\PSoC6\pdl\drivers/peripheral/dma/cy_dma.h ****     
 999:Generated_Source\PSoC6\pdl\drivers/peripheral/dma/cy_dma.h ****     return((cy_en_dma_descriptor_type_t) _FLD2VAL(CY_DMA_CTL_TYPE, descriptor->ctl));
1000:Generated_Source\PSoC6\pdl\drivers/peripheral/dma/cy_dma.h **** }
1001:Generated_Source\PSoC6\pdl\drivers/peripheral/dma/cy_dma.h **** 
1002:Generated_Source\PSoC6\pdl\drivers/peripheral/dma/cy_dma.h **** 
1003:Generated_Source\PSoC6\pdl\drivers/peripheral/dma/cy_dma.h **** /*******************************************************************************
1004:Generated_Source\PSoC6\pdl\drivers/peripheral/dma/cy_dma.h **** * Function Name: Cy_DMA_Descriptor_SetChannelState
1005:Generated_Source\PSoC6\pdl\drivers/peripheral/dma/cy_dma.h **** ****************************************************************************//**
1006:Generated_Source\PSoC6\pdl\drivers/peripheral/dma/cy_dma.h **** *
1007:Generated_Source\PSoC6\pdl\drivers/peripheral/dma/cy_dma.h **** * Sets the channel state on completion of the specified descriptor.
1008:Generated_Source\PSoC6\pdl\drivers/peripheral/dma/cy_dma.h **** *
1009:Generated_Source\PSoC6\pdl\drivers/peripheral/dma/cy_dma.h **** * \param descriptor
1010:Generated_Source\PSoC6\pdl\drivers/peripheral/dma/cy_dma.h **** * The descriptor structure instance declared by the user/component.
1011:Generated_Source\PSoC6\pdl\drivers/peripheral/dma/cy_dma.h **** *
1012:Generated_Source\PSoC6\pdl\drivers/peripheral/dma/cy_dma.h **** * \param channelState 
1013:Generated_Source\PSoC6\pdl\drivers/peripheral/dma/cy_dma.h **** * The channel state \ref cy_en_dma_channel_state_t.
1014:Generated_Source\PSoC6\pdl\drivers/peripheral/dma/cy_dma.h **** *
1015:Generated_Source\PSoC6\pdl\drivers/peripheral/dma/cy_dma.h **** *******************************************************************************/
1016:Generated_Source\PSoC6\pdl\drivers/peripheral/dma/cy_dma.h **** __STATIC_INLINE void Cy_DMA_Descriptor_SetChannelState(cy_stc_dma_descriptor_t * descriptor, cy_en_
1017:Generated_Source\PSoC6\pdl\drivers/peripheral/dma/cy_dma.h **** {
1018:Generated_Source\PSoC6\pdl\drivers/peripheral/dma/cy_dma.h ****     CY_ASSERT_L1(NULL != descriptor);
1019:Generated_Source\PSoC6\pdl\drivers/peripheral/dma/cy_dma.h ****     CY_ASSERT_L3(CY_DMA_IS_CHANNEL_STATE_VALID(channelState));
1020:Generated_Source\PSoC6\pdl\drivers/peripheral/dma/cy_dma.h ****     
1021:Generated_Source\PSoC6\pdl\drivers/peripheral/dma/cy_dma.h ****     descriptor->ctl = _CLR_SET_FLD32U(descriptor->ctl, CY_DMA_CTL_CH_DISABLE, channelState);
1022:Generated_Source\PSoC6\pdl\drivers/peripheral/dma/cy_dma.h **** }
1023:Generated_Source\PSoC6\pdl\drivers/peripheral/dma/cy_dma.h **** 
1024:Generated_Source\PSoC6\pdl\drivers/peripheral/dma/cy_dma.h **** 
1025:Generated_Source\PSoC6\pdl\drivers/peripheral/dma/cy_dma.h **** /*******************************************************************************
1026:Generated_Source\PSoC6\pdl\drivers/peripheral/dma/cy_dma.h **** * Function Name: Cy_DMA_Descriptor_GetChannelState
1027:Generated_Source\PSoC6\pdl\drivers/peripheral/dma/cy_dma.h **** ****************************************************************************//**
1028:Generated_Source\PSoC6\pdl\drivers/peripheral/dma/cy_dma.h **** *
1029:Generated_Source\PSoC6\pdl\drivers/peripheral/dma/cy_dma.h **** * Returns the channel state on completion of the specified descriptor.
1030:Generated_Source\PSoC6\pdl\drivers/peripheral/dma/cy_dma.h **** *
1031:Generated_Source\PSoC6\pdl\drivers/peripheral/dma/cy_dma.h **** * \param descriptor
1032:Generated_Source\PSoC6\pdl\drivers/peripheral/dma/cy_dma.h **** * The descriptor structure instance declared by the user/component.
1033:Generated_Source\PSoC6\pdl\drivers/peripheral/dma/cy_dma.h **** *
1034:Generated_Source\PSoC6\pdl\drivers/peripheral/dma/cy_dma.h **** * \return
1035:Generated_Source\PSoC6\pdl\drivers/peripheral/dma/cy_dma.h **** * The Channel State setting \ref cy_en_dma_channel_state_t
1036:Generated_Source\PSoC6\pdl\drivers/peripheral/dma/cy_dma.h **** *  
1037:Generated_Source\PSoC6\pdl\drivers/peripheral/dma/cy_dma.h **** *******************************************************************************/
1038:Generated_Source\PSoC6\pdl\drivers/peripheral/dma/cy_dma.h **** __STATIC_INLINE cy_en_dma_channel_state_t Cy_DMA_Descriptor_GetChannelState(cy_stc_dma_descriptor_t
1039:Generated_Source\PSoC6\pdl\drivers/peripheral/dma/cy_dma.h **** {
1040:Generated_Source\PSoC6\pdl\drivers/peripheral/dma/cy_dma.h ****     CY_ASSERT_L1(NULL != descriptor);
1041:Generated_Source\PSoC6\pdl\drivers/peripheral/dma/cy_dma.h ****     
ARM GAS  C:\Users\ikomb\AppData\Local\Temp\ccZduaXD.s 			page 22


1042:Generated_Source\PSoC6\pdl\drivers/peripheral/dma/cy_dma.h ****     return((cy_en_dma_channel_state_t) _FLD2VAL(CY_DMA_CTL_CH_DISABLE, descriptor->ctl));
1043:Generated_Source\PSoC6\pdl\drivers/peripheral/dma/cy_dma.h **** }
1044:Generated_Source\PSoC6\pdl\drivers/peripheral/dma/cy_dma.h **** 
1045:Generated_Source\PSoC6\pdl\drivers/peripheral/dma/cy_dma.h **** 
1046:Generated_Source\PSoC6\pdl\drivers/peripheral/dma/cy_dma.h **** /*******************************************************************************
1047:Generated_Source\PSoC6\pdl\drivers/peripheral/dma/cy_dma.h **** * Function Name: Cy_DMA_Descriptor_SetXloopDataCount
1048:Generated_Source\PSoC6\pdl\drivers/peripheral/dma/cy_dma.h **** ****************************************************************************//**
1049:Generated_Source\PSoC6\pdl\drivers/peripheral/dma/cy_dma.h **** *
1050:Generated_Source\PSoC6\pdl\drivers/peripheral/dma/cy_dma.h **** * Sets the number of data elements to transfer in the X loop
1051:Generated_Source\PSoC6\pdl\drivers/peripheral/dma/cy_dma.h **** * for the specified descriptor (for 1D or 2D descriptors only).
1052:Generated_Source\PSoC6\pdl\drivers/peripheral/dma/cy_dma.h **** *
1053:Generated_Source\PSoC6\pdl\drivers/peripheral/dma/cy_dma.h **** * \param descriptor
1054:Generated_Source\PSoC6\pdl\drivers/peripheral/dma/cy_dma.h **** * The descriptor structure instance declared by the user/component.
1055:Generated_Source\PSoC6\pdl\drivers/peripheral/dma/cy_dma.h **** *
1056:Generated_Source\PSoC6\pdl\drivers/peripheral/dma/cy_dma.h **** * \param xCount
1057:Generated_Source\PSoC6\pdl\drivers/peripheral/dma/cy_dma.h **** * The number of data elements to transfer in the X loop.
1058:Generated_Source\PSoC6\pdl\drivers/peripheral/dma/cy_dma.h **** *  
1059:Generated_Source\PSoC6\pdl\drivers/peripheral/dma/cy_dma.h **** *******************************************************************************/
1060:Generated_Source\PSoC6\pdl\drivers/peripheral/dma/cy_dma.h **** __STATIC_INLINE void Cy_DMA_Descriptor_SetXloopDataCount(cy_stc_dma_descriptor_t * descriptor, uint
1061:Generated_Source\PSoC6\pdl\drivers/peripheral/dma/cy_dma.h **** {
1062:Generated_Source\PSoC6\pdl\drivers/peripheral/dma/cy_dma.h ****     CY_ASSERT_L1(NULL != descriptor);
1063:Generated_Source\PSoC6\pdl\drivers/peripheral/dma/cy_dma.h ****     CY_ASSERT_L1(CY_DMA_SINGLE_TRANSFER != Cy_DMA_Descriptor_GetDescriptorType(descriptor));
1064:Generated_Source\PSoC6\pdl\drivers/peripheral/dma/cy_dma.h ****     CY_ASSERT_L2(CY_DMA_IS_COUNT_VALID(xCount));
1065:Generated_Source\PSoC6\pdl\drivers/peripheral/dma/cy_dma.h ****     /* Convert the data count from the user's range (1-256) into the machine range (0-255). */
1066:Generated_Source\PSoC6\pdl\drivers/peripheral/dma/cy_dma.h ****     descriptor->xCtl = _CLR_SET_FLD32U(descriptor->xCtl, CY_DMA_CTL_COUNT, xCount - 1UL);
1067:Generated_Source\PSoC6\pdl\drivers/peripheral/dma/cy_dma.h **** }
1068:Generated_Source\PSoC6\pdl\drivers/peripheral/dma/cy_dma.h **** 
1069:Generated_Source\PSoC6\pdl\drivers/peripheral/dma/cy_dma.h **** 
1070:Generated_Source\PSoC6\pdl\drivers/peripheral/dma/cy_dma.h **** /*******************************************************************************
1071:Generated_Source\PSoC6\pdl\drivers/peripheral/dma/cy_dma.h **** * Function Name: Cy_DMA_Descriptor_GetXloopDataCount
1072:Generated_Source\PSoC6\pdl\drivers/peripheral/dma/cy_dma.h **** ****************************************************************************//**
1073:Generated_Source\PSoC6\pdl\drivers/peripheral/dma/cy_dma.h **** *
1074:Generated_Source\PSoC6\pdl\drivers/peripheral/dma/cy_dma.h **** * Returns the number of data elements for the X loop of the specified
1075:Generated_Source\PSoC6\pdl\drivers/peripheral/dma/cy_dma.h **** * descriptor (for 1D or 2D descriptors only).
1076:Generated_Source\PSoC6\pdl\drivers/peripheral/dma/cy_dma.h **** *
1077:Generated_Source\PSoC6\pdl\drivers/peripheral/dma/cy_dma.h **** * \param descriptor
1078:Generated_Source\PSoC6\pdl\drivers/peripheral/dma/cy_dma.h **** * The descriptor structure instance declared by the user/component.
1079:Generated_Source\PSoC6\pdl\drivers/peripheral/dma/cy_dma.h **** *
1080:Generated_Source\PSoC6\pdl\drivers/peripheral/dma/cy_dma.h **** * \return
1081:Generated_Source\PSoC6\pdl\drivers/peripheral/dma/cy_dma.h **** * The number of data elements to transfer in the X loop.
1082:Generated_Source\PSoC6\pdl\drivers/peripheral/dma/cy_dma.h **** *  
1083:Generated_Source\PSoC6\pdl\drivers/peripheral/dma/cy_dma.h **** *******************************************************************************/
1084:Generated_Source\PSoC6\pdl\drivers/peripheral/dma/cy_dma.h **** __STATIC_INLINE uint32_t Cy_DMA_Descriptor_GetXloopDataCount(cy_stc_dma_descriptor_t const * descri
1085:Generated_Source\PSoC6\pdl\drivers/peripheral/dma/cy_dma.h **** {
1086:Generated_Source\PSoC6\pdl\drivers/peripheral/dma/cy_dma.h ****     CY_ASSERT_L1(NULL != descriptor);
1087:Generated_Source\PSoC6\pdl\drivers/peripheral/dma/cy_dma.h ****     CY_ASSERT_L1(CY_DMA_SINGLE_TRANSFER != Cy_DMA_Descriptor_GetDescriptorType(descriptor));
1088:Generated_Source\PSoC6\pdl\drivers/peripheral/dma/cy_dma.h ****     /* Convert the data count from the machine range (0-255) into the user's range (1-256). */
1089:Generated_Source\PSoC6\pdl\drivers/peripheral/dma/cy_dma.h ****     return (_FLD2VAL(CY_DMA_CTL_COUNT, descriptor->xCtl) + 1UL);
1090:Generated_Source\PSoC6\pdl\drivers/peripheral/dma/cy_dma.h **** }
1091:Generated_Source\PSoC6\pdl\drivers/peripheral/dma/cy_dma.h **** 
1092:Generated_Source\PSoC6\pdl\drivers/peripheral/dma/cy_dma.h **** 
1093:Generated_Source\PSoC6\pdl\drivers/peripheral/dma/cy_dma.h **** /*******************************************************************************
1094:Generated_Source\PSoC6\pdl\drivers/peripheral/dma/cy_dma.h **** * Function Name: Cy_DMA_Descriptor_SetXloopSrcIncrement
1095:Generated_Source\PSoC6\pdl\drivers/peripheral/dma/cy_dma.h **** ****************************************************************************//**
1096:Generated_Source\PSoC6\pdl\drivers/peripheral/dma/cy_dma.h **** *
1097:Generated_Source\PSoC6\pdl\drivers/peripheral/dma/cy_dma.h **** * Sets the source increment parameter for the X loop of the specified
1098:Generated_Source\PSoC6\pdl\drivers/peripheral/dma/cy_dma.h **** * descriptor (for 1D or 2D descriptors only).
ARM GAS  C:\Users\ikomb\AppData\Local\Temp\ccZduaXD.s 			page 23


1099:Generated_Source\PSoC6\pdl\drivers/peripheral/dma/cy_dma.h **** *
1100:Generated_Source\PSoC6\pdl\drivers/peripheral/dma/cy_dma.h **** * \param descriptor
1101:Generated_Source\PSoC6\pdl\drivers/peripheral/dma/cy_dma.h **** * The descriptor structure instance declared by the user/component.
1102:Generated_Source\PSoC6\pdl\drivers/peripheral/dma/cy_dma.h **** *
1103:Generated_Source\PSoC6\pdl\drivers/peripheral/dma/cy_dma.h **** * \param srcXincrement
1104:Generated_Source\PSoC6\pdl\drivers/peripheral/dma/cy_dma.h **** * The value of the source increment. The valid range is -2048 ... 2047.
1105:Generated_Source\PSoC6\pdl\drivers/peripheral/dma/cy_dma.h **** *
1106:Generated_Source\PSoC6\pdl\drivers/peripheral/dma/cy_dma.h **** *******************************************************************************/
1107:Generated_Source\PSoC6\pdl\drivers/peripheral/dma/cy_dma.h **** __STATIC_INLINE void Cy_DMA_Descriptor_SetXloopSrcIncrement(cy_stc_dma_descriptor_t * descriptor, i
1108:Generated_Source\PSoC6\pdl\drivers/peripheral/dma/cy_dma.h **** {
1109:Generated_Source\PSoC6\pdl\drivers/peripheral/dma/cy_dma.h ****     CY_ASSERT_L1(NULL != descriptor);
1110:Generated_Source\PSoC6\pdl\drivers/peripheral/dma/cy_dma.h ****     CY_ASSERT_L1(CY_DMA_SINGLE_TRANSFER != Cy_DMA_Descriptor_GetDescriptorType(descriptor));
1111:Generated_Source\PSoC6\pdl\drivers/peripheral/dma/cy_dma.h ****     CY_ASSERT_L2(CY_DMA_IS_INCR_VALID(srcXincrement));
1112:Generated_Source\PSoC6\pdl\drivers/peripheral/dma/cy_dma.h ****     
1113:Generated_Source\PSoC6\pdl\drivers/peripheral/dma/cy_dma.h ****     descriptor->xCtl = _CLR_SET_FLD32U(descriptor->xCtl, CY_DMA_CTL_SRC_INCR, srcXincrement);
1114:Generated_Source\PSoC6\pdl\drivers/peripheral/dma/cy_dma.h **** }
1115:Generated_Source\PSoC6\pdl\drivers/peripheral/dma/cy_dma.h **** 
1116:Generated_Source\PSoC6\pdl\drivers/peripheral/dma/cy_dma.h **** 
1117:Generated_Source\PSoC6\pdl\drivers/peripheral/dma/cy_dma.h **** /*******************************************************************************
1118:Generated_Source\PSoC6\pdl\drivers/peripheral/dma/cy_dma.h **** * Function Name: Cy_DMA_Descriptor_GetXloopSrcIncrement
1119:Generated_Source\PSoC6\pdl\drivers/peripheral/dma/cy_dma.h **** ****************************************************************************//**
1120:Generated_Source\PSoC6\pdl\drivers/peripheral/dma/cy_dma.h **** *
1121:Generated_Source\PSoC6\pdl\drivers/peripheral/dma/cy_dma.h **** * Returns the source increment parameter for the X loop of the specified
1122:Generated_Source\PSoC6\pdl\drivers/peripheral/dma/cy_dma.h **** * descriptor (for 1D or 2D descriptors only).
1123:Generated_Source\PSoC6\pdl\drivers/peripheral/dma/cy_dma.h **** *
1124:Generated_Source\PSoC6\pdl\drivers/peripheral/dma/cy_dma.h **** * \param descriptor
1125:Generated_Source\PSoC6\pdl\drivers/peripheral/dma/cy_dma.h **** * The descriptor structure instance declared by the user/component.
1126:Generated_Source\PSoC6\pdl\drivers/peripheral/dma/cy_dma.h **** *
1127:Generated_Source\PSoC6\pdl\drivers/peripheral/dma/cy_dma.h **** * \return
1128:Generated_Source\PSoC6\pdl\drivers/peripheral/dma/cy_dma.h **** * The value of the source increment.
1129:Generated_Source\PSoC6\pdl\drivers/peripheral/dma/cy_dma.h **** *  
1130:Generated_Source\PSoC6\pdl\drivers/peripheral/dma/cy_dma.h **** *******************************************************************************/
1131:Generated_Source\PSoC6\pdl\drivers/peripheral/dma/cy_dma.h **** __STATIC_INLINE int32_t Cy_DMA_Descriptor_GetXloopSrcIncrement(cy_stc_dma_descriptor_t const * desc
1132:Generated_Source\PSoC6\pdl\drivers/peripheral/dma/cy_dma.h **** {
1133:Generated_Source\PSoC6\pdl\drivers/peripheral/dma/cy_dma.h ****     CY_ASSERT_L1(NULL != descriptor);
1134:Generated_Source\PSoC6\pdl\drivers/peripheral/dma/cy_dma.h ****     CY_ASSERT_L1(CY_DMA_SINGLE_TRANSFER != Cy_DMA_Descriptor_GetDescriptorType(descriptor));
1135:Generated_Source\PSoC6\pdl\drivers/peripheral/dma/cy_dma.h ****     
1136:Generated_Source\PSoC6\pdl\drivers/peripheral/dma/cy_dma.h ****     return ((int32_t) _FLD2VAL(CY_DMA_CTL_SRC_INCR, descriptor->xCtl));
1137:Generated_Source\PSoC6\pdl\drivers/peripheral/dma/cy_dma.h **** }
1138:Generated_Source\PSoC6\pdl\drivers/peripheral/dma/cy_dma.h **** 
1139:Generated_Source\PSoC6\pdl\drivers/peripheral/dma/cy_dma.h **** 
1140:Generated_Source\PSoC6\pdl\drivers/peripheral/dma/cy_dma.h **** /*******************************************************************************
1141:Generated_Source\PSoC6\pdl\drivers/peripheral/dma/cy_dma.h **** * Function Name: Cy_DMA_Descriptor_SetXloopDstIncrement
1142:Generated_Source\PSoC6\pdl\drivers/peripheral/dma/cy_dma.h **** ****************************************************************************//**
1143:Generated_Source\PSoC6\pdl\drivers/peripheral/dma/cy_dma.h **** *
1144:Generated_Source\PSoC6\pdl\drivers/peripheral/dma/cy_dma.h **** * Sets the destination increment parameter for the X loop for the specified
1145:Generated_Source\PSoC6\pdl\drivers/peripheral/dma/cy_dma.h **** * descriptor (for 1D or 2D descriptors only).
1146:Generated_Source\PSoC6\pdl\drivers/peripheral/dma/cy_dma.h **** *
1147:Generated_Source\PSoC6\pdl\drivers/peripheral/dma/cy_dma.h **** * \param descriptor
1148:Generated_Source\PSoC6\pdl\drivers/peripheral/dma/cy_dma.h **** * The descriptor structure instance declared by the user/component.
1149:Generated_Source\PSoC6\pdl\drivers/peripheral/dma/cy_dma.h **** *
1150:Generated_Source\PSoC6\pdl\drivers/peripheral/dma/cy_dma.h **** * \param dstXincrement
1151:Generated_Source\PSoC6\pdl\drivers/peripheral/dma/cy_dma.h **** * The value of the destination increment. The valid range is -2048 ... 2047.
1152:Generated_Source\PSoC6\pdl\drivers/peripheral/dma/cy_dma.h **** *  
1153:Generated_Source\PSoC6\pdl\drivers/peripheral/dma/cy_dma.h **** *******************************************************************************/
1154:Generated_Source\PSoC6\pdl\drivers/peripheral/dma/cy_dma.h **** __STATIC_INLINE void Cy_DMA_Descriptor_SetXloopDstIncrement(cy_stc_dma_descriptor_t * descriptor, i
1155:Generated_Source\PSoC6\pdl\drivers/peripheral/dma/cy_dma.h **** {
ARM GAS  C:\Users\ikomb\AppData\Local\Temp\ccZduaXD.s 			page 24


1156:Generated_Source\PSoC6\pdl\drivers/peripheral/dma/cy_dma.h ****     CY_ASSERT_L1(NULL != descriptor);
1157:Generated_Source\PSoC6\pdl\drivers/peripheral/dma/cy_dma.h ****     CY_ASSERT_L1(CY_DMA_SINGLE_TRANSFER != Cy_DMA_Descriptor_GetDescriptorType(descriptor));
1158:Generated_Source\PSoC6\pdl\drivers/peripheral/dma/cy_dma.h ****     CY_ASSERT_L2(CY_DMA_IS_INCR_VALID(dstXincrement));
1159:Generated_Source\PSoC6\pdl\drivers/peripheral/dma/cy_dma.h ****     
1160:Generated_Source\PSoC6\pdl\drivers/peripheral/dma/cy_dma.h ****     descriptor->xCtl = _CLR_SET_FLD32U(descriptor->xCtl, CY_DMA_CTL_DST_INCR, dstXincrement);
1161:Generated_Source\PSoC6\pdl\drivers/peripheral/dma/cy_dma.h **** }
1162:Generated_Source\PSoC6\pdl\drivers/peripheral/dma/cy_dma.h **** 
1163:Generated_Source\PSoC6\pdl\drivers/peripheral/dma/cy_dma.h **** 
1164:Generated_Source\PSoC6\pdl\drivers/peripheral/dma/cy_dma.h **** /*******************************************************************************
1165:Generated_Source\PSoC6\pdl\drivers/peripheral/dma/cy_dma.h **** * Function Name: Cy_DMA_Descriptor_GetXloopDstIncrement
1166:Generated_Source\PSoC6\pdl\drivers/peripheral/dma/cy_dma.h **** ****************************************************************************//**
1167:Generated_Source\PSoC6\pdl\drivers/peripheral/dma/cy_dma.h **** *
1168:Generated_Source\PSoC6\pdl\drivers/peripheral/dma/cy_dma.h **** * Returns the destination increment parameter for the X loop of the specified
1169:Generated_Source\PSoC6\pdl\drivers/peripheral/dma/cy_dma.h **** * descriptor (for 1D or 2D descriptors only).
1170:Generated_Source\PSoC6\pdl\drivers/peripheral/dma/cy_dma.h **** *
1171:Generated_Source\PSoC6\pdl\drivers/peripheral/dma/cy_dma.h **** * \param descriptor
1172:Generated_Source\PSoC6\pdl\drivers/peripheral/dma/cy_dma.h **** * The descriptor structure instance declared by the user/component.
1173:Generated_Source\PSoC6\pdl\drivers/peripheral/dma/cy_dma.h **** *
1174:Generated_Source\PSoC6\pdl\drivers/peripheral/dma/cy_dma.h **** * \return
1175:Generated_Source\PSoC6\pdl\drivers/peripheral/dma/cy_dma.h **** * The value of the destination increment.
1176:Generated_Source\PSoC6\pdl\drivers/peripheral/dma/cy_dma.h **** *  
1177:Generated_Source\PSoC6\pdl\drivers/peripheral/dma/cy_dma.h **** *******************************************************************************/
1178:Generated_Source\PSoC6\pdl\drivers/peripheral/dma/cy_dma.h **** __STATIC_INLINE int32_t Cy_DMA_Descriptor_GetXloopDstIncrement(cy_stc_dma_descriptor_t const * desc
1179:Generated_Source\PSoC6\pdl\drivers/peripheral/dma/cy_dma.h **** {
1180:Generated_Source\PSoC6\pdl\drivers/peripheral/dma/cy_dma.h ****     CY_ASSERT_L1(NULL != descriptor);
1181:Generated_Source\PSoC6\pdl\drivers/peripheral/dma/cy_dma.h ****     CY_ASSERT_L1(CY_DMA_SINGLE_TRANSFER != Cy_DMA_Descriptor_GetDescriptorType(descriptor));
1182:Generated_Source\PSoC6\pdl\drivers/peripheral/dma/cy_dma.h ****     
1183:Generated_Source\PSoC6\pdl\drivers/peripheral/dma/cy_dma.h ****     return ((int32_t) _FLD2VAL(CY_DMA_CTL_DST_INCR, descriptor->xCtl));
1184:Generated_Source\PSoC6\pdl\drivers/peripheral/dma/cy_dma.h **** }
1185:Generated_Source\PSoC6\pdl\drivers/peripheral/dma/cy_dma.h **** 
1186:Generated_Source\PSoC6\pdl\drivers/peripheral/dma/cy_dma.h **** 
1187:Generated_Source\PSoC6\pdl\drivers/peripheral/dma/cy_dma.h **** /*******************************************************************************
1188:Generated_Source\PSoC6\pdl\drivers/peripheral/dma/cy_dma.h **** * Function Name: Cy_DMA_Descriptor_SetYloopDataCount
1189:Generated_Source\PSoC6\pdl\drivers/peripheral/dma/cy_dma.h **** ****************************************************************************//**
1190:Generated_Source\PSoC6\pdl\drivers/peripheral/dma/cy_dma.h **** *
1191:Generated_Source\PSoC6\pdl\drivers/peripheral/dma/cy_dma.h **** * Sets the number of data elements for the Y loop of the specified descriptor
1192:Generated_Source\PSoC6\pdl\drivers/peripheral/dma/cy_dma.h **** * (for 2D descriptors only).
1193:Generated_Source\PSoC6\pdl\drivers/peripheral/dma/cy_dma.h **** *
1194:Generated_Source\PSoC6\pdl\drivers/peripheral/dma/cy_dma.h **** * \param descriptor
1195:Generated_Source\PSoC6\pdl\drivers/peripheral/dma/cy_dma.h **** * The descriptor structure instance declared by the user/component.
1196:Generated_Source\PSoC6\pdl\drivers/peripheral/dma/cy_dma.h **** *
1197:Generated_Source\PSoC6\pdl\drivers/peripheral/dma/cy_dma.h **** * \param yCount
1198:Generated_Source\PSoC6\pdl\drivers/peripheral/dma/cy_dma.h **** * The number of X loops to execute in the Y loop.
1199:Generated_Source\PSoC6\pdl\drivers/peripheral/dma/cy_dma.h **** *  
1200:Generated_Source\PSoC6\pdl\drivers/peripheral/dma/cy_dma.h **** *******************************************************************************/
1201:Generated_Source\PSoC6\pdl\drivers/peripheral/dma/cy_dma.h **** __STATIC_INLINE void Cy_DMA_Descriptor_SetYloopDataCount(cy_stc_dma_descriptor_t * descriptor, uint
1202:Generated_Source\PSoC6\pdl\drivers/peripheral/dma/cy_dma.h **** {
1203:Generated_Source\PSoC6\pdl\drivers/peripheral/dma/cy_dma.h ****     CY_ASSERT_L1(NULL != descriptor);
1204:Generated_Source\PSoC6\pdl\drivers/peripheral/dma/cy_dma.h ****     CY_ASSERT_L1(CY_DMA_2D_TRANSFER == Cy_DMA_Descriptor_GetDescriptorType(descriptor));
1205:Generated_Source\PSoC6\pdl\drivers/peripheral/dma/cy_dma.h ****     CY_ASSERT_L2(CY_DMA_IS_COUNT_VALID(yCount));
1206:Generated_Source\PSoC6\pdl\drivers/peripheral/dma/cy_dma.h ****     /* Convert the data count from the user's range (1-256) into the machine range (0-255). */
1207:Generated_Source\PSoC6\pdl\drivers/peripheral/dma/cy_dma.h ****     descriptor->yCtl = _CLR_SET_FLD32U(descriptor->yCtl, CY_DMA_CTL_COUNT, yCount - 1UL);
1208:Generated_Source\PSoC6\pdl\drivers/peripheral/dma/cy_dma.h **** }
1209:Generated_Source\PSoC6\pdl\drivers/peripheral/dma/cy_dma.h **** 
1210:Generated_Source\PSoC6\pdl\drivers/peripheral/dma/cy_dma.h **** 
1211:Generated_Source\PSoC6\pdl\drivers/peripheral/dma/cy_dma.h **** /*******************************************************************************
1212:Generated_Source\PSoC6\pdl\drivers/peripheral/dma/cy_dma.h **** * Function Name: Cy_DMA_Descriptor_GetYloopDataCount
ARM GAS  C:\Users\ikomb\AppData\Local\Temp\ccZduaXD.s 			page 25


1213:Generated_Source\PSoC6\pdl\drivers/peripheral/dma/cy_dma.h **** ****************************************************************************//**
1214:Generated_Source\PSoC6\pdl\drivers/peripheral/dma/cy_dma.h **** *
1215:Generated_Source\PSoC6\pdl\drivers/peripheral/dma/cy_dma.h **** * Returns the number of X loops to execute in the Y loop of the specified
1216:Generated_Source\PSoC6\pdl\drivers/peripheral/dma/cy_dma.h **** * descriptor (for 2D descriptors only).
1217:Generated_Source\PSoC6\pdl\drivers/peripheral/dma/cy_dma.h **** *
1218:Generated_Source\PSoC6\pdl\drivers/peripheral/dma/cy_dma.h **** * \param descriptor
1219:Generated_Source\PSoC6\pdl\drivers/peripheral/dma/cy_dma.h **** * The descriptor structure instance declared by the user/component.
1220:Generated_Source\PSoC6\pdl\drivers/peripheral/dma/cy_dma.h **** *
1221:Generated_Source\PSoC6\pdl\drivers/peripheral/dma/cy_dma.h **** * \return
1222:Generated_Source\PSoC6\pdl\drivers/peripheral/dma/cy_dma.h **** * The number of X loops to execute in the Y loop.
1223:Generated_Source\PSoC6\pdl\drivers/peripheral/dma/cy_dma.h **** *  
1224:Generated_Source\PSoC6\pdl\drivers/peripheral/dma/cy_dma.h **** *******************************************************************************/
1225:Generated_Source\PSoC6\pdl\drivers/peripheral/dma/cy_dma.h **** __STATIC_INLINE uint32_t Cy_DMA_Descriptor_GetYloopDataCount(cy_stc_dma_descriptor_t const * descri
1226:Generated_Source\PSoC6\pdl\drivers/peripheral/dma/cy_dma.h **** {
1227:Generated_Source\PSoC6\pdl\drivers/peripheral/dma/cy_dma.h ****     CY_ASSERT_L1(NULL != descriptor);
1228:Generated_Source\PSoC6\pdl\drivers/peripheral/dma/cy_dma.h ****     CY_ASSERT_L1(CY_DMA_2D_TRANSFER == Cy_DMA_Descriptor_GetDescriptorType(descriptor));
1229:Generated_Source\PSoC6\pdl\drivers/peripheral/dma/cy_dma.h ****     /* Convert the data count from the machine range (0-255) into the user's range (1-256). */
1230:Generated_Source\PSoC6\pdl\drivers/peripheral/dma/cy_dma.h ****     return (_FLD2VAL(CY_DMA_CTL_COUNT, descriptor->yCtl) + 1UL);
1231:Generated_Source\PSoC6\pdl\drivers/peripheral/dma/cy_dma.h **** }
1232:Generated_Source\PSoC6\pdl\drivers/peripheral/dma/cy_dma.h **** 
1233:Generated_Source\PSoC6\pdl\drivers/peripheral/dma/cy_dma.h **** 
1234:Generated_Source\PSoC6\pdl\drivers/peripheral/dma/cy_dma.h **** /*******************************************************************************
1235:Generated_Source\PSoC6\pdl\drivers/peripheral/dma/cy_dma.h **** * Function Name: Cy_DMA_Descriptor_SetYloopSrcIncrement
1236:Generated_Source\PSoC6\pdl\drivers/peripheral/dma/cy_dma.h **** ****************************************************************************//**
1237:Generated_Source\PSoC6\pdl\drivers/peripheral/dma/cy_dma.h **** *
1238:Generated_Source\PSoC6\pdl\drivers/peripheral/dma/cy_dma.h **** * Sets the source increment parameter for the Y loop for the specified
1239:Generated_Source\PSoC6\pdl\drivers/peripheral/dma/cy_dma.h **** * descriptor (for 2D descriptors only).
1240:Generated_Source\PSoC6\pdl\drivers/peripheral/dma/cy_dma.h **** *
1241:Generated_Source\PSoC6\pdl\drivers/peripheral/dma/cy_dma.h **** * \param descriptor
1242:Generated_Source\PSoC6\pdl\drivers/peripheral/dma/cy_dma.h **** * The descriptor structure instance declared by the user/component.
1243:Generated_Source\PSoC6\pdl\drivers/peripheral/dma/cy_dma.h **** *
1244:Generated_Source\PSoC6\pdl\drivers/peripheral/dma/cy_dma.h **** * \param srcYincrement
1245:Generated_Source\PSoC6\pdl\drivers/peripheral/dma/cy_dma.h **** * The value of the source increment. The valid range is -2048 ... 2047.
1246:Generated_Source\PSoC6\pdl\drivers/peripheral/dma/cy_dma.h **** *  
1247:Generated_Source\PSoC6\pdl\drivers/peripheral/dma/cy_dma.h **** *******************************************************************************/
1248:Generated_Source\PSoC6\pdl\drivers/peripheral/dma/cy_dma.h **** __STATIC_INLINE void Cy_DMA_Descriptor_SetYloopSrcIncrement(cy_stc_dma_descriptor_t * descriptor, i
1249:Generated_Source\PSoC6\pdl\drivers/peripheral/dma/cy_dma.h **** {
1250:Generated_Source\PSoC6\pdl\drivers/peripheral/dma/cy_dma.h ****     CY_ASSERT_L1(NULL != descriptor);
1251:Generated_Source\PSoC6\pdl\drivers/peripheral/dma/cy_dma.h ****     CY_ASSERT_L1(CY_DMA_2D_TRANSFER == Cy_DMA_Descriptor_GetDescriptorType(descriptor));
1252:Generated_Source\PSoC6\pdl\drivers/peripheral/dma/cy_dma.h ****     CY_ASSERT_L2(CY_DMA_IS_INCR_VALID(srcYincrement));
1253:Generated_Source\PSoC6\pdl\drivers/peripheral/dma/cy_dma.h ****     
1254:Generated_Source\PSoC6\pdl\drivers/peripheral/dma/cy_dma.h ****     descriptor->yCtl = _CLR_SET_FLD32U(descriptor->yCtl, CY_DMA_CTL_SRC_INCR, srcYincrement);
1255:Generated_Source\PSoC6\pdl\drivers/peripheral/dma/cy_dma.h **** }
1256:Generated_Source\PSoC6\pdl\drivers/peripheral/dma/cy_dma.h **** 
1257:Generated_Source\PSoC6\pdl\drivers/peripheral/dma/cy_dma.h **** 
1258:Generated_Source\PSoC6\pdl\drivers/peripheral/dma/cy_dma.h **** /*******************************************************************************
1259:Generated_Source\PSoC6\pdl\drivers/peripheral/dma/cy_dma.h **** * Function Name: Cy_DMA_Descriptor_GetYloopSrcIncrement
1260:Generated_Source\PSoC6\pdl\drivers/peripheral/dma/cy_dma.h **** ****************************************************************************//**
1261:Generated_Source\PSoC6\pdl\drivers/peripheral/dma/cy_dma.h **** *
1262:Generated_Source\PSoC6\pdl\drivers/peripheral/dma/cy_dma.h **** * Returns the source increment parameter for the outer Y of the specified
1263:Generated_Source\PSoC6\pdl\drivers/peripheral/dma/cy_dma.h **** * descriptor (for 2D descriptors only).
1264:Generated_Source\PSoC6\pdl\drivers/peripheral/dma/cy_dma.h **** *
1265:Generated_Source\PSoC6\pdl\drivers/peripheral/dma/cy_dma.h **** * \param descriptor
1266:Generated_Source\PSoC6\pdl\drivers/peripheral/dma/cy_dma.h **** * The descriptor structure instance declared by the user/component.
1267:Generated_Source\PSoC6\pdl\drivers/peripheral/dma/cy_dma.h **** *
1268:Generated_Source\PSoC6\pdl\drivers/peripheral/dma/cy_dma.h **** * \return
1269:Generated_Source\PSoC6\pdl\drivers/peripheral/dma/cy_dma.h **** * The value of source increment.
ARM GAS  C:\Users\ikomb\AppData\Local\Temp\ccZduaXD.s 			page 26


1270:Generated_Source\PSoC6\pdl\drivers/peripheral/dma/cy_dma.h **** *  
1271:Generated_Source\PSoC6\pdl\drivers/peripheral/dma/cy_dma.h **** *******************************************************************************/
1272:Generated_Source\PSoC6\pdl\drivers/peripheral/dma/cy_dma.h **** __STATIC_INLINE int32_t Cy_DMA_Descriptor_GetYloopSrcIncrement(cy_stc_dma_descriptor_t const * desc
1273:Generated_Source\PSoC6\pdl\drivers/peripheral/dma/cy_dma.h **** {
1274:Generated_Source\PSoC6\pdl\drivers/peripheral/dma/cy_dma.h ****     CY_ASSERT_L1(NULL != descriptor);
1275:Generated_Source\PSoC6\pdl\drivers/peripheral/dma/cy_dma.h ****     CY_ASSERT_L1(CY_DMA_2D_TRANSFER == Cy_DMA_Descriptor_GetDescriptorType(descriptor));
1276:Generated_Source\PSoC6\pdl\drivers/peripheral/dma/cy_dma.h ****     
1277:Generated_Source\PSoC6\pdl\drivers/peripheral/dma/cy_dma.h ****     return ((int32_t) _FLD2VAL(CY_DMA_CTL_SRC_INCR, descriptor->yCtl));
1278:Generated_Source\PSoC6\pdl\drivers/peripheral/dma/cy_dma.h **** }
1279:Generated_Source\PSoC6\pdl\drivers/peripheral/dma/cy_dma.h **** 
1280:Generated_Source\PSoC6\pdl\drivers/peripheral/dma/cy_dma.h **** 
1281:Generated_Source\PSoC6\pdl\drivers/peripheral/dma/cy_dma.h **** /*******************************************************************************
1282:Generated_Source\PSoC6\pdl\drivers/peripheral/dma/cy_dma.h **** * Function Name: Cy_DMA_Descriptor_SetYloopDstIncrement
1283:Generated_Source\PSoC6\pdl\drivers/peripheral/dma/cy_dma.h **** ****************************************************************************//**
1284:Generated_Source\PSoC6\pdl\drivers/peripheral/dma/cy_dma.h **** *
1285:Generated_Source\PSoC6\pdl\drivers/peripheral/dma/cy_dma.h **** * Sets the destination increment parameter for the Y loop of the specified
1286:Generated_Source\PSoC6\pdl\drivers/peripheral/dma/cy_dma.h **** * descriptor (for 2D descriptors only).
1287:Generated_Source\PSoC6\pdl\drivers/peripheral/dma/cy_dma.h **** *
1288:Generated_Source\PSoC6\pdl\drivers/peripheral/dma/cy_dma.h **** * \param descriptor
1289:Generated_Source\PSoC6\pdl\drivers/peripheral/dma/cy_dma.h **** * The descriptor structure instance declared by the user/component.
1290:Generated_Source\PSoC6\pdl\drivers/peripheral/dma/cy_dma.h **** *
1291:Generated_Source\PSoC6\pdl\drivers/peripheral/dma/cy_dma.h **** * \param dstYincrement
1292:Generated_Source\PSoC6\pdl\drivers/peripheral/dma/cy_dma.h **** * The value of the destination increment. Valid range is -2048 ... 2047.
1293:Generated_Source\PSoC6\pdl\drivers/peripheral/dma/cy_dma.h **** *
1294:Generated_Source\PSoC6\pdl\drivers/peripheral/dma/cy_dma.h **** *******************************************************************************/
1295:Generated_Source\PSoC6\pdl\drivers/peripheral/dma/cy_dma.h **** __STATIC_INLINE void Cy_DMA_Descriptor_SetYloopDstIncrement(cy_stc_dma_descriptor_t * descriptor, i
1296:Generated_Source\PSoC6\pdl\drivers/peripheral/dma/cy_dma.h **** {
1297:Generated_Source\PSoC6\pdl\drivers/peripheral/dma/cy_dma.h ****     CY_ASSERT_L1(NULL != descriptor);
1298:Generated_Source\PSoC6\pdl\drivers/peripheral/dma/cy_dma.h ****     CY_ASSERT_L1(CY_DMA_2D_TRANSFER == Cy_DMA_Descriptor_GetDescriptorType(descriptor));
1299:Generated_Source\PSoC6\pdl\drivers/peripheral/dma/cy_dma.h ****     CY_ASSERT_L2(CY_DMA_IS_INCR_VALID(dstYincrement));
1300:Generated_Source\PSoC6\pdl\drivers/peripheral/dma/cy_dma.h ****     
1301:Generated_Source\PSoC6\pdl\drivers/peripheral/dma/cy_dma.h ****     descriptor->yCtl = _CLR_SET_FLD32U(descriptor->yCtl, CY_DMA_CTL_DST_INCR, dstYincrement);
1302:Generated_Source\PSoC6\pdl\drivers/peripheral/dma/cy_dma.h **** }
1303:Generated_Source\PSoC6\pdl\drivers/peripheral/dma/cy_dma.h **** 
1304:Generated_Source\PSoC6\pdl\drivers/peripheral/dma/cy_dma.h **** 
1305:Generated_Source\PSoC6\pdl\drivers/peripheral/dma/cy_dma.h **** /*******************************************************************************
1306:Generated_Source\PSoC6\pdl\drivers/peripheral/dma/cy_dma.h **** * Function Name: Cy_DMA_Descriptor_GetYloopDstIncrement
1307:Generated_Source\PSoC6\pdl\drivers/peripheral/dma/cy_dma.h **** ****************************************************************************//**
1308:Generated_Source\PSoC6\pdl\drivers/peripheral/dma/cy_dma.h **** *
1309:Generated_Source\PSoC6\pdl\drivers/peripheral/dma/cy_dma.h **** * Returns the destination increment parameter for the Y loop of the specified
1310:Generated_Source\PSoC6\pdl\drivers/peripheral/dma/cy_dma.h **** * descriptor (for 2D descriptors only). 
1311:Generated_Source\PSoC6\pdl\drivers/peripheral/dma/cy_dma.h **** *
1312:Generated_Source\PSoC6\pdl\drivers/peripheral/dma/cy_dma.h **** * \param descriptor
1313:Generated_Source\PSoC6\pdl\drivers/peripheral/dma/cy_dma.h **** * The descriptor structure instance declared by the user/component.
1314:Generated_Source\PSoC6\pdl\drivers/peripheral/dma/cy_dma.h **** *
1315:Generated_Source\PSoC6\pdl\drivers/peripheral/dma/cy_dma.h **** * \return
1316:Generated_Source\PSoC6\pdl\drivers/peripheral/dma/cy_dma.h **** * The value of the destination increment.
1317:Generated_Source\PSoC6\pdl\drivers/peripheral/dma/cy_dma.h **** *  
1318:Generated_Source\PSoC6\pdl\drivers/peripheral/dma/cy_dma.h **** *******************************************************************************/
1319:Generated_Source\PSoC6\pdl\drivers/peripheral/dma/cy_dma.h **** __STATIC_INLINE int32_t Cy_DMA_Descriptor_GetYloopDstIncrement(cy_stc_dma_descriptor_t const * desc
1320:Generated_Source\PSoC6\pdl\drivers/peripheral/dma/cy_dma.h **** {
1321:Generated_Source\PSoC6\pdl\drivers/peripheral/dma/cy_dma.h ****     CY_ASSERT_L1(NULL != descriptor);
1322:Generated_Source\PSoC6\pdl\drivers/peripheral/dma/cy_dma.h ****     CY_ASSERT_L1(CY_DMA_2D_TRANSFER == Cy_DMA_Descriptor_GetDescriptorType(descriptor));
1323:Generated_Source\PSoC6\pdl\drivers/peripheral/dma/cy_dma.h ****     
1324:Generated_Source\PSoC6\pdl\drivers/peripheral/dma/cy_dma.h ****     return ((int32_t) _FLD2VAL(CY_DMA_CTL_DST_INCR, descriptor->yCtl));
1325:Generated_Source\PSoC6\pdl\drivers/peripheral/dma/cy_dma.h **** }
1326:Generated_Source\PSoC6\pdl\drivers/peripheral/dma/cy_dma.h **** 
ARM GAS  C:\Users\ikomb\AppData\Local\Temp\ccZduaXD.s 			page 27


1327:Generated_Source\PSoC6\pdl\drivers/peripheral/dma/cy_dma.h **** 
1328:Generated_Source\PSoC6\pdl\drivers/peripheral/dma/cy_dma.h **** /** \} group_dma_descriptor_functions */
1329:Generated_Source\PSoC6\pdl\drivers/peripheral/dma/cy_dma.h **** 
1330:Generated_Source\PSoC6\pdl\drivers/peripheral/dma/cy_dma.h **** 
1331:Generated_Source\PSoC6\pdl\drivers/peripheral/dma/cy_dma.h **** /**
1332:Generated_Source\PSoC6\pdl\drivers/peripheral/dma/cy_dma.h **** * \addtogroup group_dma_channel_functions
1333:Generated_Source\PSoC6\pdl\drivers/peripheral/dma/cy_dma.h **** * \{
1334:Generated_Source\PSoC6\pdl\drivers/peripheral/dma/cy_dma.h **** */
1335:Generated_Source\PSoC6\pdl\drivers/peripheral/dma/cy_dma.h **** 
1336:Generated_Source\PSoC6\pdl\drivers/peripheral/dma/cy_dma.h **** 
1337:Generated_Source\PSoC6\pdl\drivers/peripheral/dma/cy_dma.h **** /*******************************************************************************
1338:Generated_Source\PSoC6\pdl\drivers/peripheral/dma/cy_dma.h **** * Function Name: Cy_DMA_Channel_SetDescriptor
1339:Generated_Source\PSoC6\pdl\drivers/peripheral/dma/cy_dma.h **** ****************************************************************************//**
1340:Generated_Source\PSoC6\pdl\drivers/peripheral/dma/cy_dma.h **** *
1341:Generated_Source\PSoC6\pdl\drivers/peripheral/dma/cy_dma.h **** * Sets a descriptor as current for the specified DMA channel.
1342:Generated_Source\PSoC6\pdl\drivers/peripheral/dma/cy_dma.h **** *
1343:Generated_Source\PSoC6\pdl\drivers/peripheral/dma/cy_dma.h **** * \param base
1344:Generated_Source\PSoC6\pdl\drivers/peripheral/dma/cy_dma.h **** * The pointer to the hardware DMA block.
1345:Generated_Source\PSoC6\pdl\drivers/peripheral/dma/cy_dma.h **** *
1346:Generated_Source\PSoC6\pdl\drivers/peripheral/dma/cy_dma.h **** * \param channel
1347:Generated_Source\PSoC6\pdl\drivers/peripheral/dma/cy_dma.h **** * The channel number.
1348:Generated_Source\PSoC6\pdl\drivers/peripheral/dma/cy_dma.h **** *
1349:Generated_Source\PSoC6\pdl\drivers/peripheral/dma/cy_dma.h **** * \param descriptor
1350:Generated_Source\PSoC6\pdl\drivers/peripheral/dma/cy_dma.h **** * This is the descriptor to be associated with the channel.
1351:Generated_Source\PSoC6\pdl\drivers/peripheral/dma/cy_dma.h **** *
1352:Generated_Source\PSoC6\pdl\drivers/peripheral/dma/cy_dma.h **** *******************************************************************************/
1353:Generated_Source\PSoC6\pdl\drivers/peripheral/dma/cy_dma.h **** __STATIC_INLINE void Cy_DMA_Channel_SetDescriptor(DW_Type * base, uint32_t channel, cy_stc_dma_desc
1354:Generated_Source\PSoC6\pdl\drivers/peripheral/dma/cy_dma.h **** {
1355:Generated_Source\PSoC6\pdl\drivers/peripheral/dma/cy_dma.h ****     CY_ASSERT_L1(CY_DMA_IS_DW_CH_NR_VALID(base, channel));
1356:Generated_Source\PSoC6\pdl\drivers/peripheral/dma/cy_dma.h ****     CY_ASSERT_L1(NULL != descriptor);
1357:Generated_Source\PSoC6\pdl\drivers/peripheral/dma/cy_dma.h ****     
1358:Generated_Source\PSoC6\pdl\drivers/peripheral/dma/cy_dma.h ****     base->CH_STRUCT[channel].CH_CURR_PTR = (uint32_t)descriptor;
1359:Generated_Source\PSoC6\pdl\drivers/peripheral/dma/cy_dma.h ****     base->CH_STRUCT[channel].CH_IDX &= (uint32_t) ~(DW_CH_STRUCT_CH_IDX_X_IDX_Msk | DW_CH_STRUCT_CH
1360:Generated_Source\PSoC6\pdl\drivers/peripheral/dma/cy_dma.h **** }
1361:Generated_Source\PSoC6\pdl\drivers/peripheral/dma/cy_dma.h **** 
1362:Generated_Source\PSoC6\pdl\drivers/peripheral/dma/cy_dma.h **** 
1363:Generated_Source\PSoC6\pdl\drivers/peripheral/dma/cy_dma.h **** /*******************************************************************************
1364:Generated_Source\PSoC6\pdl\drivers/peripheral/dma/cy_dma.h **** * Function Name: Cy_DMA_Channel_Enable
1365:Generated_Source\PSoC6\pdl\drivers/peripheral/dma/cy_dma.h **** ****************************************************************************//**
1366:Generated_Source\PSoC6\pdl\drivers/peripheral/dma/cy_dma.h **** *
1367:Generated_Source\PSoC6\pdl\drivers/peripheral/dma/cy_dma.h **** * The function is used to enable a DMA channel.
1368:Generated_Source\PSoC6\pdl\drivers/peripheral/dma/cy_dma.h **** *
1369:Generated_Source\PSoC6\pdl\drivers/peripheral/dma/cy_dma.h **** * \param base
1370:Generated_Source\PSoC6\pdl\drivers/peripheral/dma/cy_dma.h **** * The pointer to the hardware DMA block.
1371:Generated_Source\PSoC6\pdl\drivers/peripheral/dma/cy_dma.h **** *
1372:Generated_Source\PSoC6\pdl\drivers/peripheral/dma/cy_dma.h **** * \param channel
1373:Generated_Source\PSoC6\pdl\drivers/peripheral/dma/cy_dma.h **** * The  channel number.
1374:Generated_Source\PSoC6\pdl\drivers/peripheral/dma/cy_dma.h **** *
1375:Generated_Source\PSoC6\pdl\drivers/peripheral/dma/cy_dma.h **** *******************************************************************************/
1376:Generated_Source\PSoC6\pdl\drivers/peripheral/dma/cy_dma.h **** __STATIC_INLINE void Cy_DMA_Channel_Enable(DW_Type * base, uint32_t channel)
1377:Generated_Source\PSoC6\pdl\drivers/peripheral/dma/cy_dma.h **** {
 151              		.loc 1 1377 0
 152              		.cfi_startproc
 153              		@ args = 0, pretend = 0, frame = 8
 154              		@ frame_needed = 1, uses_anonymous_args = 0
 155 0000 80B5     		push	{r7, lr}
 156              		.cfi_def_cfa_offset 8
ARM GAS  C:\Users\ikomb\AppData\Local\Temp\ccZduaXD.s 			page 28


 157              		.cfi_offset 7, -8
 158              		.cfi_offset 14, -4
 159 0002 82B0     		sub	sp, sp, #8
 160              		.cfi_def_cfa_offset 16
 161 0004 00AF     		add	r7, sp, #0
 162              		.cfi_def_cfa_register 7
 163 0006 7860     		str	r0, [r7, #4]
 164 0008 3960     		str	r1, [r7]
1378:Generated_Source\PSoC6\pdl\drivers/peripheral/dma/cy_dma.h ****     CY_ASSERT_L1(CY_DMA_IS_DW_CH_NR_VALID(base, channel));
 165              		.loc 1 1378 0
 166 000a 7B68     		ldr	r3, [r7, #4]
 167 000c 114A     		ldr	r2, .L8
 168 000e 9342     		cmp	r3, r2
 169 0010 02D1     		bne	.L5
 170              		.loc 1 1378 0 is_stmt 0 discriminator 2
 171 0012 3B68     		ldr	r3, [r7]
 172 0014 0F2B     		cmp	r3, #15
 173 0016 0BD9     		bls	.L6
 174              	.L5:
 175              		.loc 1 1378 0 discriminator 3
 176 0018 7B68     		ldr	r3, [r7, #4]
 177 001a 0F4A     		ldr	r2, .L8+4
 178 001c 9342     		cmp	r3, r2
 179 001e 02D1     		bne	.L7
 180              		.loc 1 1378 0 discriminator 5
 181 0020 3B68     		ldr	r3, [r7]
 182 0022 0F2B     		cmp	r3, #15
 183 0024 04D9     		bls	.L6
 184              	.L7:
 185              		.loc 1 1378 0 discriminator 6
 186 0026 40F26251 		movw	r1, #1378
 187 002a 0C48     		ldr	r0, .L8+8
 188 002c FFF7FEFF 		bl	Cy_SysLib_AssertFailed
 189              	.L6:
1379:Generated_Source\PSoC6\pdl\drivers/peripheral/dma/cy_dma.h ****     
1380:Generated_Source\PSoC6\pdl\drivers/peripheral/dma/cy_dma.h ****     base->CH_STRUCT[channel].CH_CTL |= DW_CH_STRUCT_CH_CTL_ENABLED_Msk;
 190              		.loc 1 1380 0 is_stmt 1
 191 0030 7A68     		ldr	r2, [r7, #4]
 192 0032 3B68     		ldr	r3, [r7]
 193 0034 4033     		adds	r3, r3, #64
 194 0036 5B01     		lsls	r3, r3, #5
 195 0038 1344     		add	r3, r3, r2
 196 003a 1B68     		ldr	r3, [r3]
 197 003c 43F00042 		orr	r2, r3, #-2147483648
 198 0040 7968     		ldr	r1, [r7, #4]
 199 0042 3B68     		ldr	r3, [r7]
 200 0044 4033     		adds	r3, r3, #64
 201 0046 5B01     		lsls	r3, r3, #5
 202 0048 0B44     		add	r3, r3, r1
 203 004a 1A60     		str	r2, [r3]
1381:Generated_Source\PSoC6\pdl\drivers/peripheral/dma/cy_dma.h **** }
 204              		.loc 1 1381 0
 205 004c 00BF     		nop
 206 004e 0837     		adds	r7, r7, #8
 207              		.cfi_def_cfa_offset 8
 208 0050 BD46     		mov	sp, r7
 209              		.cfi_def_cfa_register 13
ARM GAS  C:\Users\ikomb\AppData\Local\Temp\ccZduaXD.s 			page 29


 210              		@ sp needed
 211 0052 80BD     		pop	{r7, pc}
 212              	.L9:
 213              		.align	2
 214              	.L8:
 215 0054 00002840 		.word	1076363264
 216 0058 00102840 		.word	1076367360
 217 005c 00000000 		.word	.LC0
 218              		.cfi_endproc
 219              	.LFE164:
 220              		.size	Cy_DMA_Channel_Enable, .-Cy_DMA_Channel_Enable
 221              		.global	DMA_PlayLeft_SRAM_to_I2S_config
 222              		.section	.rodata
 223 003b 00       		.align	2
 224              		.type	DMA_PlayLeft_SRAM_to_I2S_config, %object
 225              		.size	DMA_PlayLeft_SRAM_to_I2S_config, 48
 226              	DMA_PlayLeft_SRAM_to_I2S_config:
 227 003c 02       		.byte	2
 228 003d 03       		.byte	3
 229 003e 00       		.byte	0
 230 003f 00       		.byte	0
 231 0040 00       		.byte	0
 232 0041 01       		.byte	1
 233 0042 00       		.byte	0
 234 0043 01       		.byte	1
 235 0044 02       		.byte	2
 236 0045 000000   		.space	3
 237 0048 00000000 		.word	0
 238 004c 00000000 		.word	0
 239 0050 01000000 		.word	1
 240 0054 00000000 		.word	0
 241 0058 00010000 		.word	256
 242 005c 00010000 		.word	256
 243 0060 00000000 		.word	0
 244 0064 02000000 		.word	2
 245 0068 00000000 		.word	DMA_PlayLeft_SRAM_to_I2S
 246              		.global	DMA_PlayLeft_SRAM_to_I2S
 247              		.bss
 248              		.align	2
 249              		.type	DMA_PlayLeft_SRAM_to_I2S, %object
 250              		.size	DMA_PlayLeft_SRAM_to_I2S, 24
 251              	DMA_PlayLeft_SRAM_to_I2S:
 252 0000 00000000 		.space	24
 252      00000000 
 252      00000000 
 252      00000000 
 252      00000000 
 253              		.global	DMA_PlayLeft_initVar
 254              		.type	DMA_PlayLeft_initVar, %object
 255              		.size	DMA_PlayLeft_initVar, 1
 256              	DMA_PlayLeft_initVar:
 257 0018 00       		.space	1
 258              		.section	.text.DMA_PlayLeft_Start,"ax",%progbits
 259              		.align	2
 260              		.global	DMA_PlayLeft_Start
 261              		.thumb
 262              		.thumb_func
ARM GAS  C:\Users\ikomb\AppData\Local\Temp\ccZduaXD.s 			page 30


 263              		.type	DMA_PlayLeft_Start, %function
 264              	DMA_PlayLeft_Start:
 265              	.LFB227:
 266              		.file 2 "Generated_Source\\PSoC6\\DMA_PlayLeft.c"
   1:Generated_Source\PSoC6/DMA_PlayLeft.c **** /***************************************************************************//**
   2:Generated_Source\PSoC6/DMA_PlayLeft.c **** * \file DMA_PlayLeft.c
   3:Generated_Source\PSoC6/DMA_PlayLeft.c **** * \version 2.0
   4:Generated_Source\PSoC6/DMA_PlayLeft.c **** *
   5:Generated_Source\PSoC6/DMA_PlayLeft.c **** *  This file provides the source code to the API for the
   6:Generated_Source\PSoC6/DMA_PlayLeft.c **** *  DMA_PlayLeft component.
   7:Generated_Source\PSoC6/DMA_PlayLeft.c **** *
   8:Generated_Source\PSoC6/DMA_PlayLeft.c **** ********************************************************************************
   9:Generated_Source\PSoC6/DMA_PlayLeft.c **** * \copyright
  10:Generated_Source\PSoC6/DMA_PlayLeft.c **** * Copyright 2016-2017, Cypress Semiconductor Corporation.  All rights reserved.
  11:Generated_Source\PSoC6/DMA_PlayLeft.c **** * You may use this file only in accordance with the license, terms, conditions,
  12:Generated_Source\PSoC6/DMA_PlayLeft.c **** * disclaimers, and limitations in the end user license agreement accompanying
  13:Generated_Source\PSoC6/DMA_PlayLeft.c **** * the software package with which this file was provided.
  14:Generated_Source\PSoC6/DMA_PlayLeft.c **** *******************************************************************************/
  15:Generated_Source\PSoC6/DMA_PlayLeft.c **** 
  16:Generated_Source\PSoC6/DMA_PlayLeft.c **** #include "DMA_PlayLeft.h"
  17:Generated_Source\PSoC6/DMA_PlayLeft.c **** 
  18:Generated_Source\PSoC6/DMA_PlayLeft.c **** #if defined(__cplusplus)
  19:Generated_Source\PSoC6/DMA_PlayLeft.c **** extern "C" {
  20:Generated_Source\PSoC6/DMA_PlayLeft.c **** #endif
  21:Generated_Source\PSoC6/DMA_PlayLeft.c **** 
  22:Generated_Source\PSoC6/DMA_PlayLeft.c **** /* Generated code */
  23:Generated_Source\PSoC6/DMA_PlayLeft.c **** const cy_stc_dma_descriptor_config_t DMA_PlayLeft_SRAM_to_I2S_config =
  24:Generated_Source\PSoC6/DMA_PlayLeft.c **** {
  25:Generated_Source\PSoC6/DMA_PlayLeft.c ****     .retrigger       = CY_DMA_RETRIG_16CYC,
  26:Generated_Source\PSoC6/DMA_PlayLeft.c ****     .interruptType   = CY_DMA_DESCR_CHAIN,
  27:Generated_Source\PSoC6/DMA_PlayLeft.c ****     .triggerOutType  = CY_DMA_1ELEMENT,
  28:Generated_Source\PSoC6/DMA_PlayLeft.c ****     .channelState    = CY_DMA_CHANNEL_ENABLED,
  29:Generated_Source\PSoC6/DMA_PlayLeft.c ****     .triggerInType   = CY_DMA_1ELEMENT,
  30:Generated_Source\PSoC6/DMA_PlayLeft.c ****     .dataSize        = CY_DMA_HALFWORD,
  31:Generated_Source\PSoC6/DMA_PlayLeft.c ****     .srcTransferSize = CY_DMA_TRANSFER_SIZE_DATA,
  32:Generated_Source\PSoC6/DMA_PlayLeft.c ****     .dstTransferSize = CY_DMA_TRANSFER_SIZE_WORD,
  33:Generated_Source\PSoC6/DMA_PlayLeft.c ****     .descriptorType  = CY_DMA_2D_TRANSFER,
  34:Generated_Source\PSoC6/DMA_PlayLeft.c ****     .srcAddress      = NULL,
  35:Generated_Source\PSoC6/DMA_PlayLeft.c ****     .dstAddress      = NULL,
  36:Generated_Source\PSoC6/DMA_PlayLeft.c ****     .srcXincrement   = 1L,
  37:Generated_Source\PSoC6/DMA_PlayLeft.c ****     .dstXincrement   = 0L,
  38:Generated_Source\PSoC6/DMA_PlayLeft.c ****     .xCount          = 256UL,
  39:Generated_Source\PSoC6/DMA_PlayLeft.c ****     .srcYincrement   = 256L,
  40:Generated_Source\PSoC6/DMA_PlayLeft.c ****     .dstYincrement   = 0L,
  41:Generated_Source\PSoC6/DMA_PlayLeft.c ****     .yCount          = 2UL,
  42:Generated_Source\PSoC6/DMA_PlayLeft.c ****     .nextDescriptor  = &DMA_PlayLeft_SRAM_to_I2S
  43:Generated_Source\PSoC6/DMA_PlayLeft.c **** };
  44:Generated_Source\PSoC6/DMA_PlayLeft.c **** 
  45:Generated_Source\PSoC6/DMA_PlayLeft.c **** cy_stc_dma_descriptor_t DMA_PlayLeft_SRAM_to_I2S =
  46:Generated_Source\PSoC6/DMA_PlayLeft.c **** {
  47:Generated_Source\PSoC6/DMA_PlayLeft.c ****     .ctl = 0UL,
  48:Generated_Source\PSoC6/DMA_PlayLeft.c ****     .src = 0UL,
  49:Generated_Source\PSoC6/DMA_PlayLeft.c ****     .dst = 0UL,
  50:Generated_Source\PSoC6/DMA_PlayLeft.c ****     .xCtl = 0UL,
  51:Generated_Source\PSoC6/DMA_PlayLeft.c ****     .yCtl = 0UL,
  52:Generated_Source\PSoC6/DMA_PlayLeft.c ****     .nextPtr = 0UL
  53:Generated_Source\PSoC6/DMA_PlayLeft.c **** };
ARM GAS  C:\Users\ikomb\AppData\Local\Temp\ccZduaXD.s 			page 31


  54:Generated_Source\PSoC6/DMA_PlayLeft.c **** 
  55:Generated_Source\PSoC6/DMA_PlayLeft.c **** 
  56:Generated_Source\PSoC6/DMA_PlayLeft.c **** /** DMA_PlayLeft_initVar indicates whether the DMA_PlayLeft 
  57:Generated_Source\PSoC6/DMA_PlayLeft.c **** *  component has been initialized. The variable is initialized to 0 
  58:Generated_Source\PSoC6/DMA_PlayLeft.c **** *  and set to 1 the first time DMA_PlayLeft_Start() is called. This allows 
  59:Generated_Source\PSoC6/DMA_PlayLeft.c **** *  the component to restart without reinitialization after the first 
  60:Generated_Source\PSoC6/DMA_PlayLeft.c **** *  call to the DMA_PlayLeft_Start() routine.
  61:Generated_Source\PSoC6/DMA_PlayLeft.c **** *
  62:Generated_Source\PSoC6/DMA_PlayLeft.c **** *  If re-initialization of the component is required, then the 
  63:Generated_Source\PSoC6/DMA_PlayLeft.c **** *  DMA_PlayLeft_Init() function can be called before the 
  64:Generated_Source\PSoC6/DMA_PlayLeft.c **** *  DMA_PlayLeft_Start() or DMA_PlayLeft_ChEnable() function.
  65:Generated_Source\PSoC6/DMA_PlayLeft.c **** */
  66:Generated_Source\PSoC6/DMA_PlayLeft.c **** uint8 DMA_PlayLeft_initVar = 0u;
  67:Generated_Source\PSoC6/DMA_PlayLeft.c **** 
  68:Generated_Source\PSoC6/DMA_PlayLeft.c **** 
  69:Generated_Source\PSoC6/DMA_PlayLeft.c **** /*******************************************************************************
  70:Generated_Source\PSoC6/DMA_PlayLeft.c **** * Function Name: DMA_PlayLeft_Start
  71:Generated_Source\PSoC6/DMA_PlayLeft.c **** ****************************************************************************//**
  72:Generated_Source\PSoC6/DMA_PlayLeft.c **** *
  73:Generated_Source\PSoC6/DMA_PlayLeft.c **** * Based on the settings for descriptor in the customizer this function runs the
  74:Generated_Source\PSoC6/DMA_PlayLeft.c **** * DMA_Descriptor_Init() and then initializes the channel using
  75:Generated_Source\PSoC6/DMA_PlayLeft.c **** * DMA_Chnl_Init(). Enables the DMA_PlayLeft block using the DMA_Chnl_Enable().
  76:Generated_Source\PSoC6/DMA_PlayLeft.c **** *  
  77:Generated_Source\PSoC6/DMA_PlayLeft.c **** *******************************************************************************/
  78:Generated_Source\PSoC6/DMA_PlayLeft.c **** void DMA_PlayLeft_Start(void const * srcAddress, void const * dstAddress)
  79:Generated_Source\PSoC6/DMA_PlayLeft.c **** {
 267              		.loc 2 79 0
 268              		.cfi_startproc
 269              		@ args = 0, pretend = 0, frame = 8
 270              		@ frame_needed = 1, uses_anonymous_args = 0
 271 0000 80B5     		push	{r7, lr}
 272              		.cfi_def_cfa_offset 8
 273              		.cfi_offset 7, -8
 274              		.cfi_offset 14, -4
 275 0002 82B0     		sub	sp, sp, #8
 276              		.cfi_def_cfa_offset 16
 277 0004 00AF     		add	r7, sp, #0
 278              		.cfi_def_cfa_register 7
 279 0006 7860     		str	r0, [r7, #4]
 280 0008 3960     		str	r1, [r7]
  80:Generated_Source\PSoC6/DMA_PlayLeft.c ****     if (0U == DMA_PlayLeft_initVar)
 281              		.loc 2 80 0
 282 000a 0C4B     		ldr	r3, .L12
 283 000c 1B78     		ldrb	r3, [r3]	@ zero_extendqisi2
 284 000e 002B     		cmp	r3, #0
 285 0010 04D1     		bne	.L11
  81:Generated_Source\PSoC6/DMA_PlayLeft.c ****     {
  82:Generated_Source\PSoC6/DMA_PlayLeft.c ****         DMA_PlayLeft_Init();
 286              		.loc 2 82 0
 287 0012 FFF7FEFF 		bl	DMA_PlayLeft_Init
  83:Generated_Source\PSoC6/DMA_PlayLeft.c ****         DMA_PlayLeft_initVar = 1u;
 288              		.loc 2 83 0
 289 0016 094B     		ldr	r3, .L12
 290 0018 0122     		movs	r2, #1
 291 001a 1A70     		strb	r2, [r3]
 292              	.L11:
  84:Generated_Source\PSoC6/DMA_PlayLeft.c ****     }
ARM GAS  C:\Users\ikomb\AppData\Local\Temp\ccZduaXD.s 			page 32


  85:Generated_Source\PSoC6/DMA_PlayLeft.c ****     
  86:Generated_Source\PSoC6/DMA_PlayLeft.c ****     Cy_DMA_Descriptor_SetSrcAddress(&DMA_PlayLeft_SRAM_to_I2S, srcAddress);
 293              		.loc 2 86 0
 294 001c 7968     		ldr	r1, [r7, #4]
 295 001e 0848     		ldr	r0, .L12+4
 296 0020 FFF7FEFF 		bl	Cy_DMA_Descriptor_SetSrcAddress
  87:Generated_Source\PSoC6/DMA_PlayLeft.c ****     Cy_DMA_Descriptor_SetDstAddress(&DMA_PlayLeft_SRAM_to_I2S, dstAddress);
 297              		.loc 2 87 0
 298 0024 3968     		ldr	r1, [r7]
 299 0026 0648     		ldr	r0, .L12+4
 300 0028 FFF7FEFF 		bl	Cy_DMA_Descriptor_SetDstAddress
  88:Generated_Source\PSoC6/DMA_PlayLeft.c ****     Cy_DMA_Channel_Enable(DMA_PlayLeft_HW, DMA_PlayLeft_DW_CHANNEL);
 301              		.loc 2 88 0
 302 002c 0221     		movs	r1, #2
 303 002e 0548     		ldr	r0, .L12+8
 304 0030 FFF7FEFF 		bl	Cy_DMA_Channel_Enable
  89:Generated_Source\PSoC6/DMA_PlayLeft.c **** }
 305              		.loc 2 89 0
 306 0034 00BF     		nop
 307 0036 0837     		adds	r7, r7, #8
 308              		.cfi_def_cfa_offset 8
 309 0038 BD46     		mov	sp, r7
 310              		.cfi_def_cfa_register 13
 311              		@ sp needed
 312 003a 80BD     		pop	{r7, pc}
 313              	.L13:
 314              		.align	2
 315              	.L12:
 316 003c 00000000 		.word	DMA_PlayLeft_initVar
 317 0040 00000000 		.word	DMA_PlayLeft_SRAM_to_I2S
 318 0044 00002840 		.word	1076363264
 319              		.cfi_endproc
 320              	.LFE227:
 321              		.size	DMA_PlayLeft_Start, .-DMA_PlayLeft_Start
 322              		.section	.text.DMA_PlayLeft_Init,"ax",%progbits
 323              		.align	2
 324              		.global	DMA_PlayLeft_Init
 325              		.thumb
 326              		.thumb_func
 327              		.type	DMA_PlayLeft_Init, %function
 328              	DMA_PlayLeft_Init:
 329              	.LFB228:
  90:Generated_Source\PSoC6/DMA_PlayLeft.c **** 
  91:Generated_Source\PSoC6/DMA_PlayLeft.c **** 
  92:Generated_Source\PSoC6/DMA_PlayLeft.c **** /*******************************************************************************
  93:Generated_Source\PSoC6/DMA_PlayLeft.c **** * Function Name: DMA_PlayLeft_Init
  94:Generated_Source\PSoC6/DMA_PlayLeft.c **** ****************************************************************************//**
  95:Generated_Source\PSoC6/DMA_PlayLeft.c **** *
  96:Generated_Source\PSoC6/DMA_PlayLeft.c **** * Based on the settings for the descriptor in the customizer this function runs the
  97:Generated_Source\PSoC6/DMA_PlayLeft.c **** * DMA_Descriptor_Init() and then initializes the channel using
  98:Generated_Source\PSoC6/DMA_PlayLeft.c **** * DMA_Chnl_Init().
  99:Generated_Source\PSoC6/DMA_PlayLeft.c **** *  
 100:Generated_Source\PSoC6/DMA_PlayLeft.c **** *******************************************************************************/
 101:Generated_Source\PSoC6/DMA_PlayLeft.c **** void DMA_PlayLeft_Init(void)
 102:Generated_Source\PSoC6/DMA_PlayLeft.c **** {
 330              		.loc 2 102 0
 331              		.cfi_startproc
ARM GAS  C:\Users\ikomb\AppData\Local\Temp\ccZduaXD.s 			page 33


 332              		@ args = 0, pretend = 0, frame = 16
 333              		@ frame_needed = 1, uses_anonymous_args = 0
 334 0000 80B5     		push	{r7, lr}
 335              		.cfi_def_cfa_offset 8
 336              		.cfi_offset 7, -8
 337              		.cfi_offset 14, -4
 338 0002 84B0     		sub	sp, sp, #16
 339              		.cfi_def_cfa_offset 24
 340 0004 00AF     		add	r7, sp, #0
 341              		.cfi_def_cfa_register 7
 103:Generated_Source\PSoC6/DMA_PlayLeft.c ****     cy_stc_dma_channel_config_t channelConfig;
 104:Generated_Source\PSoC6/DMA_PlayLeft.c **** 
 105:Generated_Source\PSoC6/DMA_PlayLeft.c ****     /* Init all descriptors */
 106:Generated_Source\PSoC6/DMA_PlayLeft.c ****     (void)Cy_DMA_Descriptor_Init(&DMA_PlayLeft_SRAM_to_I2S, &DMA_PlayLeft_SRAM_to_I2S_config);
 342              		.loc 2 106 0
 343 0006 0D49     		ldr	r1, .L15
 344 0008 0D48     		ldr	r0, .L15+4
 345 000a FFF7FEFF 		bl	Cy_DMA_Descriptor_Init
 107:Generated_Source\PSoC6/DMA_PlayLeft.c **** 
 108:Generated_Source\PSoC6/DMA_PlayLeft.c **** 
 109:Generated_Source\PSoC6/DMA_PlayLeft.c ****     channelConfig.descriptor  = &DMA_PlayLeft_SRAM_to_I2S;
 346              		.loc 2 109 0
 347 000e 0C4B     		ldr	r3, .L15+4
 348 0010 3B60     		str	r3, [r7]
 110:Generated_Source\PSoC6/DMA_PlayLeft.c ****     channelConfig.preemptable = DMA_PlayLeft_PREEMPTABLE;
 349              		.loc 2 110 0
 350 0012 0023     		movs	r3, #0
 351 0014 3B71     		strb	r3, [r7, #4]
 111:Generated_Source\PSoC6/DMA_PlayLeft.c ****     channelConfig.priority    = DMA_PlayLeft_PRIORITY;
 352              		.loc 2 111 0
 353 0016 0323     		movs	r3, #3
 354 0018 BB60     		str	r3, [r7, #8]
 112:Generated_Source\PSoC6/DMA_PlayLeft.c ****     channelConfig.enable      = false;
 355              		.loc 2 112 0
 356 001a 0023     		movs	r3, #0
 357 001c 3B73     		strb	r3, [r7, #12]
 113:Generated_Source\PSoC6/DMA_PlayLeft.c ****     channelConfig.bufferable  = DMA_PlayLeft_BUFFERABLE;
 358              		.loc 2 113 0
 359 001e 0023     		movs	r3, #0
 360 0020 7B73     		strb	r3, [r7, #13]
 114:Generated_Source\PSoC6/DMA_PlayLeft.c **** 
 115:Generated_Source\PSoC6/DMA_PlayLeft.c ****     (void)Cy_DMA_Channel_Init(DMA_PlayLeft_HW, DMA_PlayLeft_DW_CHANNEL, &channelConfig);
 361              		.loc 2 115 0
 362 0022 3B46     		mov	r3, r7
 363 0024 1A46     		mov	r2, r3
 364 0026 0221     		movs	r1, #2
 365 0028 0648     		ldr	r0, .L15+8
 366 002a FFF7FEFF 		bl	Cy_DMA_Channel_Init
 116:Generated_Source\PSoC6/DMA_PlayLeft.c **** 
 117:Generated_Source\PSoC6/DMA_PlayLeft.c ****     Cy_DMA_Enable(DMA_PlayLeft_HW);
 367              		.loc 2 117 0
 368 002e 0548     		ldr	r0, .L15+8
 369 0030 FFF7FEFF 		bl	Cy_DMA_Enable
 118:Generated_Source\PSoC6/DMA_PlayLeft.c **** }
 370              		.loc 2 118 0
 371 0034 00BF     		nop
 372 0036 1037     		adds	r7, r7, #16
ARM GAS  C:\Users\ikomb\AppData\Local\Temp\ccZduaXD.s 			page 34


 373              		.cfi_def_cfa_offset 8
 374 0038 BD46     		mov	sp, r7
 375              		.cfi_def_cfa_register 13
 376              		@ sp needed
 377 003a 80BD     		pop	{r7, pc}
 378              	.L16:
 379              		.align	2
 380              	.L15:
 381 003c 00000000 		.word	DMA_PlayLeft_SRAM_to_I2S_config
 382 0040 00000000 		.word	DMA_PlayLeft_SRAM_to_I2S
 383 0044 00002840 		.word	1076363264
 384              		.cfi_endproc
 385              	.LFE228:
 386              		.size	DMA_PlayLeft_Init, .-DMA_PlayLeft_Init
 387              		.text
 388              	.Letext0:
 389              		.file 3 "c:\\program files (x86)\\cypress\\psoc creator\\4.4\\psoc creator\\import\\gnu\\arm\\5.4.
 390              		.file 4 "c:\\program files (x86)\\cypress\\psoc creator\\4.4\\psoc creator\\import\\gnu\\arm\\5.4.
 391              		.file 5 "Generated_Source\\PSoC6\\pdl\\devices/psoc6/ip/cyip_dw.h"
 392              		.file 6 "Generated_Source\\PSoC6\\pdl\\drivers/peripheral/syslib/cy_syslib.h"
 393              		.file 7 "Generated_Source\\PSoC6\\pdl\\cmsis/include/core_cm4.h"