ARM GAS  C:\Users\ikomb\AppData\Local\Temp\ccjR8mjn.s 			page 1


   1              		.syntax unified
   2              		.cpu cortex-m4
   3              		.eabi_attribute 27, 1
   4              		.fpu fpv4-sp-d16
   5              		.eabi_attribute 20, 1
   6              		.eabi_attribute 21, 1
   7              		.eabi_attribute 23, 3
   8              		.eabi_attribute 24, 1
   9              		.eabi_attribute 25, 1
  10              		.eabi_attribute 26, 1
  11              		.eabi_attribute 30, 6
  12              		.eabi_attribute 34, 1
  13              		.eabi_attribute 18, 4
  14              		.thumb
  15              		.syntax unified
  16              		.file	"event_groups.c"
  17              		.text
  18              	.Ltext0:
  19              		.cfi_sections	.debug_frame
  20              		.section	.text.xEventGroupCreate,"ax",%progbits
  21              		.align	2
  22              		.global	xEventGroupCreate
  23              		.thumb
  24              		.thumb_func
  25              		.type	xEventGroupCreate, %function
  26              	xEventGroupCreate:
  27              	.LFB129:
  28              		.file 1 "Generated_Source\\PSoC6\\pdl\\rtos\\FreeRTOS\\9.0.0\\Source\\event_groups.c"
   1:Generated_Source\PSoC6\pdl\rtos\FreeRTOS\9.0.0\Source/event_groups.c **** /*
   2:Generated_Source\PSoC6\pdl\rtos\FreeRTOS\9.0.0\Source/event_groups.c ****     FreeRTOS V9.0.0 - Copyright (C) 2016 Real Time Engineers Ltd.
   3:Generated_Source\PSoC6\pdl\rtos\FreeRTOS\9.0.0\Source/event_groups.c ****     All rights reserved
   4:Generated_Source\PSoC6\pdl\rtos\FreeRTOS\9.0.0\Source/event_groups.c **** 
   5:Generated_Source\PSoC6\pdl\rtos\FreeRTOS\9.0.0\Source/event_groups.c ****     VISIT http://www.FreeRTOS.org TO ENSURE YOU ARE USING THE LATEST VERSION.
   6:Generated_Source\PSoC6\pdl\rtos\FreeRTOS\9.0.0\Source/event_groups.c **** 
   7:Generated_Source\PSoC6\pdl\rtos\FreeRTOS\9.0.0\Source/event_groups.c ****     This file is part of the FreeRTOS distribution.
   8:Generated_Source\PSoC6\pdl\rtos\FreeRTOS\9.0.0\Source/event_groups.c **** 
   9:Generated_Source\PSoC6\pdl\rtos\FreeRTOS\9.0.0\Source/event_groups.c ****     FreeRTOS is free software; you can redistribute it and/or modify it under
  10:Generated_Source\PSoC6\pdl\rtos\FreeRTOS\9.0.0\Source/event_groups.c ****     the terms of the GNU General Public License (version 2) as published by the
  11:Generated_Source\PSoC6\pdl\rtos\FreeRTOS\9.0.0\Source/event_groups.c ****     Free Software Foundation >>>> AND MODIFIED BY <<<< the FreeRTOS exception.
  12:Generated_Source\PSoC6\pdl\rtos\FreeRTOS\9.0.0\Source/event_groups.c **** 
  13:Generated_Source\PSoC6\pdl\rtos\FreeRTOS\9.0.0\Source/event_groups.c ****     ***************************************************************************
  14:Generated_Source\PSoC6\pdl\rtos\FreeRTOS\9.0.0\Source/event_groups.c ****     >>!   NOTE: The modification to the GPL is included to allow you to     !<<
  15:Generated_Source\PSoC6\pdl\rtos\FreeRTOS\9.0.0\Source/event_groups.c ****     >>!   distribute a combined work that includes FreeRTOS without being   !<<
  16:Generated_Source\PSoC6\pdl\rtos\FreeRTOS\9.0.0\Source/event_groups.c ****     >>!   obliged to provide the source code for proprietary components     !<<
  17:Generated_Source\PSoC6\pdl\rtos\FreeRTOS\9.0.0\Source/event_groups.c ****     >>!   outside of the FreeRTOS kernel.                                   !<<
  18:Generated_Source\PSoC6\pdl\rtos\FreeRTOS\9.0.0\Source/event_groups.c ****     ***************************************************************************
  19:Generated_Source\PSoC6\pdl\rtos\FreeRTOS\9.0.0\Source/event_groups.c **** 
  20:Generated_Source\PSoC6\pdl\rtos\FreeRTOS\9.0.0\Source/event_groups.c ****     FreeRTOS is distributed in the hope that it will be useful, but WITHOUT ANY
  21:Generated_Source\PSoC6\pdl\rtos\FreeRTOS\9.0.0\Source/event_groups.c ****     WARRANTY; without even the implied warranty of MERCHANTABILITY or FITNESS
  22:Generated_Source\PSoC6\pdl\rtos\FreeRTOS\9.0.0\Source/event_groups.c ****     FOR A PARTICULAR PURPOSE.  Full license text is available on the following
  23:Generated_Source\PSoC6\pdl\rtos\FreeRTOS\9.0.0\Source/event_groups.c ****     link: http://www.freertos.org/a00114.html
  24:Generated_Source\PSoC6\pdl\rtos\FreeRTOS\9.0.0\Source/event_groups.c **** 
  25:Generated_Source\PSoC6\pdl\rtos\FreeRTOS\9.0.0\Source/event_groups.c ****     ***************************************************************************
  26:Generated_Source\PSoC6\pdl\rtos\FreeRTOS\9.0.0\Source/event_groups.c ****      *                                                                       *
  27:Generated_Source\PSoC6\pdl\rtos\FreeRTOS\9.0.0\Source/event_groups.c ****      *    FreeRTOS provides completely free yet professionally developed,    *
  28:Generated_Source\PSoC6\pdl\rtos\FreeRTOS\9.0.0\Source/event_groups.c ****      *    robust, strictly quality controlled, supported, and cross          *
  29:Generated_Source\PSoC6\pdl\rtos\FreeRTOS\9.0.0\Source/event_groups.c ****      *    platform software that is more than just the market leader, it     *
ARM GAS  C:\Users\ikomb\AppData\Local\Temp\ccjR8mjn.s 			page 2


  30:Generated_Source\PSoC6\pdl\rtos\FreeRTOS\9.0.0\Source/event_groups.c ****      *    is the industry's de facto standard.                               *
  31:Generated_Source\PSoC6\pdl\rtos\FreeRTOS\9.0.0\Source/event_groups.c ****      *                                                                       *
  32:Generated_Source\PSoC6\pdl\rtos\FreeRTOS\9.0.0\Source/event_groups.c ****      *    Help yourself get started quickly while simultaneously helping     *
  33:Generated_Source\PSoC6\pdl\rtos\FreeRTOS\9.0.0\Source/event_groups.c ****      *    to support the FreeRTOS project by purchasing a FreeRTOS           *
  34:Generated_Source\PSoC6\pdl\rtos\FreeRTOS\9.0.0\Source/event_groups.c ****      *    tutorial book, reference manual, or both:                          *
  35:Generated_Source\PSoC6\pdl\rtos\FreeRTOS\9.0.0\Source/event_groups.c ****      *    http://www.FreeRTOS.org/Documentation                              *
  36:Generated_Source\PSoC6\pdl\rtos\FreeRTOS\9.0.0\Source/event_groups.c ****      *                                                                       *
  37:Generated_Source\PSoC6\pdl\rtos\FreeRTOS\9.0.0\Source/event_groups.c ****     ***************************************************************************
  38:Generated_Source\PSoC6\pdl\rtos\FreeRTOS\9.0.0\Source/event_groups.c **** 
  39:Generated_Source\PSoC6\pdl\rtos\FreeRTOS\9.0.0\Source/event_groups.c ****     http://www.FreeRTOS.org/FAQHelp.html - Having a problem?  Start by reading
  40:Generated_Source\PSoC6\pdl\rtos\FreeRTOS\9.0.0\Source/event_groups.c ****     the FAQ page "My application does not run, what could be wrong?".  Have you
  41:Generated_Source\PSoC6\pdl\rtos\FreeRTOS\9.0.0\Source/event_groups.c ****     defined configASSERT()?
  42:Generated_Source\PSoC6\pdl\rtos\FreeRTOS\9.0.0\Source/event_groups.c **** 
  43:Generated_Source\PSoC6\pdl\rtos\FreeRTOS\9.0.0\Source/event_groups.c ****     http://www.FreeRTOS.org/support - In return for receiving this top quality
  44:Generated_Source\PSoC6\pdl\rtos\FreeRTOS\9.0.0\Source/event_groups.c ****     embedded software for free we request you assist our global community by
  45:Generated_Source\PSoC6\pdl\rtos\FreeRTOS\9.0.0\Source/event_groups.c ****     participating in the support forum.
  46:Generated_Source\PSoC6\pdl\rtos\FreeRTOS\9.0.0\Source/event_groups.c **** 
  47:Generated_Source\PSoC6\pdl\rtos\FreeRTOS\9.0.0\Source/event_groups.c ****     http://www.FreeRTOS.org/training - Investing in training allows your team to
  48:Generated_Source\PSoC6\pdl\rtos\FreeRTOS\9.0.0\Source/event_groups.c ****     be as productive as possible as early as possible.  Now you can receive
  49:Generated_Source\PSoC6\pdl\rtos\FreeRTOS\9.0.0\Source/event_groups.c ****     FreeRTOS training directly from Richard Barry, CEO of Real Time Engineers
  50:Generated_Source\PSoC6\pdl\rtos\FreeRTOS\9.0.0\Source/event_groups.c ****     Ltd, and the world's leading authority on the world's leading RTOS.
  51:Generated_Source\PSoC6\pdl\rtos\FreeRTOS\9.0.0\Source/event_groups.c **** 
  52:Generated_Source\PSoC6\pdl\rtos\FreeRTOS\9.0.0\Source/event_groups.c ****     http://www.FreeRTOS.org/plus - A selection of FreeRTOS ecosystem products,
  53:Generated_Source\PSoC6\pdl\rtos\FreeRTOS\9.0.0\Source/event_groups.c ****     including FreeRTOS+Trace - an indispensable productivity tool, a DOS
  54:Generated_Source\PSoC6\pdl\rtos\FreeRTOS\9.0.0\Source/event_groups.c ****     compatible FAT file system, and our tiny thread aware UDP/IP stack.
  55:Generated_Source\PSoC6\pdl\rtos\FreeRTOS\9.0.0\Source/event_groups.c **** 
  56:Generated_Source\PSoC6\pdl\rtos\FreeRTOS\9.0.0\Source/event_groups.c ****     http://www.FreeRTOS.org/labs - Where new FreeRTOS products go to incubate.
  57:Generated_Source\PSoC6\pdl\rtos\FreeRTOS\9.0.0\Source/event_groups.c ****     Come and try FreeRTOS+TCP, our new open source TCP/IP stack for FreeRTOS.
  58:Generated_Source\PSoC6\pdl\rtos\FreeRTOS\9.0.0\Source/event_groups.c **** 
  59:Generated_Source\PSoC6\pdl\rtos\FreeRTOS\9.0.0\Source/event_groups.c ****     http://www.OpenRTOS.com - Real Time Engineers ltd. license FreeRTOS to High
  60:Generated_Source\PSoC6\pdl\rtos\FreeRTOS\9.0.0\Source/event_groups.c ****     Integrity Systems ltd. to sell under the OpenRTOS brand.  Low cost OpenRTOS
  61:Generated_Source\PSoC6\pdl\rtos\FreeRTOS\9.0.0\Source/event_groups.c ****     licenses offer ticketed support, indemnification and commercial middleware.
  62:Generated_Source\PSoC6\pdl\rtos\FreeRTOS\9.0.0\Source/event_groups.c **** 
  63:Generated_Source\PSoC6\pdl\rtos\FreeRTOS\9.0.0\Source/event_groups.c ****     http://www.SafeRTOS.com - High Integrity Systems also provide a safety
  64:Generated_Source\PSoC6\pdl\rtos\FreeRTOS\9.0.0\Source/event_groups.c ****     engineered and independently SIL3 certified version for use in safety and
  65:Generated_Source\PSoC6\pdl\rtos\FreeRTOS\9.0.0\Source/event_groups.c ****     mission critical applications that require provable dependability.
  66:Generated_Source\PSoC6\pdl\rtos\FreeRTOS\9.0.0\Source/event_groups.c **** 
  67:Generated_Source\PSoC6\pdl\rtos\FreeRTOS\9.0.0\Source/event_groups.c ****     1 tab == 4 spaces!
  68:Generated_Source\PSoC6\pdl\rtos\FreeRTOS\9.0.0\Source/event_groups.c **** */
  69:Generated_Source\PSoC6\pdl\rtos\FreeRTOS\9.0.0\Source/event_groups.c **** 
  70:Generated_Source\PSoC6\pdl\rtos\FreeRTOS\9.0.0\Source/event_groups.c **** /* Standard includes. */
  71:Generated_Source\PSoC6\pdl\rtos\FreeRTOS\9.0.0\Source/event_groups.c **** #include <stdlib.h>
  72:Generated_Source\PSoC6\pdl\rtos\FreeRTOS\9.0.0\Source/event_groups.c **** 
  73:Generated_Source\PSoC6\pdl\rtos\FreeRTOS\9.0.0\Source/event_groups.c **** /* Defining MPU_WRAPPERS_INCLUDED_FROM_API_FILE prevents task.h from redefining
  74:Generated_Source\PSoC6\pdl\rtos\FreeRTOS\9.0.0\Source/event_groups.c **** all the API functions to use the MPU wrappers.  That should only be done when
  75:Generated_Source\PSoC6\pdl\rtos\FreeRTOS\9.0.0\Source/event_groups.c **** task.h is included from an application file. */
  76:Generated_Source\PSoC6\pdl\rtos\FreeRTOS\9.0.0\Source/event_groups.c **** #define MPU_WRAPPERS_INCLUDED_FROM_API_FILE
  77:Generated_Source\PSoC6\pdl\rtos\FreeRTOS\9.0.0\Source/event_groups.c **** 
  78:Generated_Source\PSoC6\pdl\rtos\FreeRTOS\9.0.0\Source/event_groups.c **** /* FreeRTOS includes. */
  79:Generated_Source\PSoC6\pdl\rtos\FreeRTOS\9.0.0\Source/event_groups.c **** #include "FreeRTOS.h"
  80:Generated_Source\PSoC6\pdl\rtos\FreeRTOS\9.0.0\Source/event_groups.c **** #include "task.h"
  81:Generated_Source\PSoC6\pdl\rtos\FreeRTOS\9.0.0\Source/event_groups.c **** #include "timers.h"
  82:Generated_Source\PSoC6\pdl\rtos\FreeRTOS\9.0.0\Source/event_groups.c **** #include "event_groups.h"
  83:Generated_Source\PSoC6\pdl\rtos\FreeRTOS\9.0.0\Source/event_groups.c **** 
  84:Generated_Source\PSoC6\pdl\rtos\FreeRTOS\9.0.0\Source/event_groups.c **** /* Lint e961 and e750 are suppressed as a MISRA exception justified because the
  85:Generated_Source\PSoC6\pdl\rtos\FreeRTOS\9.0.0\Source/event_groups.c **** MPU ports require MPU_WRAPPERS_INCLUDED_FROM_API_FILE to be defined for the
  86:Generated_Source\PSoC6\pdl\rtos\FreeRTOS\9.0.0\Source/event_groups.c **** header files above, but not in this file, in order to generate the correct
ARM GAS  C:\Users\ikomb\AppData\Local\Temp\ccjR8mjn.s 			page 3


  87:Generated_Source\PSoC6\pdl\rtos\FreeRTOS\9.0.0\Source/event_groups.c **** privileged Vs unprivileged linkage and placement. */
  88:Generated_Source\PSoC6\pdl\rtos\FreeRTOS\9.0.0\Source/event_groups.c **** #undef MPU_WRAPPERS_INCLUDED_FROM_API_FILE /*lint !e961 !e750. */
  89:Generated_Source\PSoC6\pdl\rtos\FreeRTOS\9.0.0\Source/event_groups.c **** 
  90:Generated_Source\PSoC6\pdl\rtos\FreeRTOS\9.0.0\Source/event_groups.c **** /* The following bit fields convey control information in a task's event list
  91:Generated_Source\PSoC6\pdl\rtos\FreeRTOS\9.0.0\Source/event_groups.c **** item value.  It is important they don't clash with the
  92:Generated_Source\PSoC6\pdl\rtos\FreeRTOS\9.0.0\Source/event_groups.c **** taskEVENT_LIST_ITEM_VALUE_IN_USE definition. */
  93:Generated_Source\PSoC6\pdl\rtos\FreeRTOS\9.0.0\Source/event_groups.c **** #if configUSE_16_BIT_TICKS == 1
  94:Generated_Source\PSoC6\pdl\rtos\FreeRTOS\9.0.0\Source/event_groups.c **** 	#define eventCLEAR_EVENTS_ON_EXIT_BIT	0x0100U
  95:Generated_Source\PSoC6\pdl\rtos\FreeRTOS\9.0.0\Source/event_groups.c **** 	#define eventUNBLOCKED_DUE_TO_BIT_SET	0x0200U
  96:Generated_Source\PSoC6\pdl\rtos\FreeRTOS\9.0.0\Source/event_groups.c **** 	#define eventWAIT_FOR_ALL_BITS			0x0400U
  97:Generated_Source\PSoC6\pdl\rtos\FreeRTOS\9.0.0\Source/event_groups.c **** 	#define eventEVENT_BITS_CONTROL_BYTES	0xff00U
  98:Generated_Source\PSoC6\pdl\rtos\FreeRTOS\9.0.0\Source/event_groups.c **** #else
  99:Generated_Source\PSoC6\pdl\rtos\FreeRTOS\9.0.0\Source/event_groups.c **** 	#define eventCLEAR_EVENTS_ON_EXIT_BIT	0x01000000UL
 100:Generated_Source\PSoC6\pdl\rtos\FreeRTOS\9.0.0\Source/event_groups.c **** 	#define eventUNBLOCKED_DUE_TO_BIT_SET	0x02000000UL
 101:Generated_Source\PSoC6\pdl\rtos\FreeRTOS\9.0.0\Source/event_groups.c **** 	#define eventWAIT_FOR_ALL_BITS			0x04000000UL
 102:Generated_Source\PSoC6\pdl\rtos\FreeRTOS\9.0.0\Source/event_groups.c **** 	#define eventEVENT_BITS_CONTROL_BYTES	0xff000000UL
 103:Generated_Source\PSoC6\pdl\rtos\FreeRTOS\9.0.0\Source/event_groups.c **** #endif
 104:Generated_Source\PSoC6\pdl\rtos\FreeRTOS\9.0.0\Source/event_groups.c **** 
 105:Generated_Source\PSoC6\pdl\rtos\FreeRTOS\9.0.0\Source/event_groups.c **** typedef struct xEventGroupDefinition
 106:Generated_Source\PSoC6\pdl\rtos\FreeRTOS\9.0.0\Source/event_groups.c **** {
 107:Generated_Source\PSoC6\pdl\rtos\FreeRTOS\9.0.0\Source/event_groups.c **** 	EventBits_t uxEventBits;
 108:Generated_Source\PSoC6\pdl\rtos\FreeRTOS\9.0.0\Source/event_groups.c **** 	List_t xTasksWaitingForBits;		/*< List of tasks waiting for a bit to be set. */
 109:Generated_Source\PSoC6\pdl\rtos\FreeRTOS\9.0.0\Source/event_groups.c **** 
 110:Generated_Source\PSoC6\pdl\rtos\FreeRTOS\9.0.0\Source/event_groups.c **** 	#if( configUSE_TRACE_FACILITY == 1 )
 111:Generated_Source\PSoC6\pdl\rtos\FreeRTOS\9.0.0\Source/event_groups.c **** 		UBaseType_t uxEventGroupNumber;
 112:Generated_Source\PSoC6\pdl\rtos\FreeRTOS\9.0.0\Source/event_groups.c **** 	#endif
 113:Generated_Source\PSoC6\pdl\rtos\FreeRTOS\9.0.0\Source/event_groups.c **** 
 114:Generated_Source\PSoC6\pdl\rtos\FreeRTOS\9.0.0\Source/event_groups.c **** 	#if( ( configSUPPORT_STATIC_ALLOCATION == 1 ) && ( configSUPPORT_DYNAMIC_ALLOCATION == 1 ) )
 115:Generated_Source\PSoC6\pdl\rtos\FreeRTOS\9.0.0\Source/event_groups.c **** 		uint8_t ucStaticallyAllocated; /*< Set to pdTRUE if the event group is statically allocated to en
 116:Generated_Source\PSoC6\pdl\rtos\FreeRTOS\9.0.0\Source/event_groups.c **** 	#endif
 117:Generated_Source\PSoC6\pdl\rtos\FreeRTOS\9.0.0\Source/event_groups.c **** } EventGroup_t;
 118:Generated_Source\PSoC6\pdl\rtos\FreeRTOS\9.0.0\Source/event_groups.c **** 
 119:Generated_Source\PSoC6\pdl\rtos\FreeRTOS\9.0.0\Source/event_groups.c **** /*-----------------------------------------------------------*/
 120:Generated_Source\PSoC6\pdl\rtos\FreeRTOS\9.0.0\Source/event_groups.c **** 
 121:Generated_Source\PSoC6\pdl\rtos\FreeRTOS\9.0.0\Source/event_groups.c **** /*
 122:Generated_Source\PSoC6\pdl\rtos\FreeRTOS\9.0.0\Source/event_groups.c ****  * Test the bits set in uxCurrentEventBits to see if the wait condition is met.
 123:Generated_Source\PSoC6\pdl\rtos\FreeRTOS\9.0.0\Source/event_groups.c ****  * The wait condition is defined by xWaitForAllBits.  If xWaitForAllBits is
 124:Generated_Source\PSoC6\pdl\rtos\FreeRTOS\9.0.0\Source/event_groups.c ****  * pdTRUE then the wait condition is met if all the bits set in uxBitsToWaitFor
 125:Generated_Source\PSoC6\pdl\rtos\FreeRTOS\9.0.0\Source/event_groups.c ****  * are also set in uxCurrentEventBits.  If xWaitForAllBits is pdFALSE then the
 126:Generated_Source\PSoC6\pdl\rtos\FreeRTOS\9.0.0\Source/event_groups.c ****  * wait condition is met if any of the bits set in uxBitsToWait for are also set
 127:Generated_Source\PSoC6\pdl\rtos\FreeRTOS\9.0.0\Source/event_groups.c ****  * in uxCurrentEventBits.
 128:Generated_Source\PSoC6\pdl\rtos\FreeRTOS\9.0.0\Source/event_groups.c ****  */
 129:Generated_Source\PSoC6\pdl\rtos\FreeRTOS\9.0.0\Source/event_groups.c **** static BaseType_t prvTestWaitCondition( const EventBits_t uxCurrentEventBits, const EventBits_t uxB
 130:Generated_Source\PSoC6\pdl\rtos\FreeRTOS\9.0.0\Source/event_groups.c **** 
 131:Generated_Source\PSoC6\pdl\rtos\FreeRTOS\9.0.0\Source/event_groups.c **** /*-----------------------------------------------------------*/
 132:Generated_Source\PSoC6\pdl\rtos\FreeRTOS\9.0.0\Source/event_groups.c **** 
 133:Generated_Source\PSoC6\pdl\rtos\FreeRTOS\9.0.0\Source/event_groups.c **** #if( configSUPPORT_STATIC_ALLOCATION == 1 )
 134:Generated_Source\PSoC6\pdl\rtos\FreeRTOS\9.0.0\Source/event_groups.c **** 
 135:Generated_Source\PSoC6\pdl\rtos\FreeRTOS\9.0.0\Source/event_groups.c **** 	EventGroupHandle_t xEventGroupCreateStatic( StaticEventGroup_t *pxEventGroupBuffer )
 136:Generated_Source\PSoC6\pdl\rtos\FreeRTOS\9.0.0\Source/event_groups.c **** 	{
 137:Generated_Source\PSoC6\pdl\rtos\FreeRTOS\9.0.0\Source/event_groups.c **** 	EventGroup_t *pxEventBits;
 138:Generated_Source\PSoC6\pdl\rtos\FreeRTOS\9.0.0\Source/event_groups.c **** 
 139:Generated_Source\PSoC6\pdl\rtos\FreeRTOS\9.0.0\Source/event_groups.c **** 		/* A StaticEventGroup_t object must be provided. */
 140:Generated_Source\PSoC6\pdl\rtos\FreeRTOS\9.0.0\Source/event_groups.c **** 		configASSERT( pxEventGroupBuffer );
 141:Generated_Source\PSoC6\pdl\rtos\FreeRTOS\9.0.0\Source/event_groups.c **** 
 142:Generated_Source\PSoC6\pdl\rtos\FreeRTOS\9.0.0\Source/event_groups.c **** 		/* The user has provided a statically allocated event group - use it. */
 143:Generated_Source\PSoC6\pdl\rtos\FreeRTOS\9.0.0\Source/event_groups.c **** 		pxEventBits = ( EventGroup_t * ) pxEventGroupBuffer; /*lint !e740 EventGroup_t and StaticEventGro
ARM GAS  C:\Users\ikomb\AppData\Local\Temp\ccjR8mjn.s 			page 4


 144:Generated_Source\PSoC6\pdl\rtos\FreeRTOS\9.0.0\Source/event_groups.c **** 
 145:Generated_Source\PSoC6\pdl\rtos\FreeRTOS\9.0.0\Source/event_groups.c **** 		if( pxEventBits != NULL )
 146:Generated_Source\PSoC6\pdl\rtos\FreeRTOS\9.0.0\Source/event_groups.c **** 		{
 147:Generated_Source\PSoC6\pdl\rtos\FreeRTOS\9.0.0\Source/event_groups.c **** 			pxEventBits->uxEventBits = 0;
 148:Generated_Source\PSoC6\pdl\rtos\FreeRTOS\9.0.0\Source/event_groups.c **** 			vListInitialise( &( pxEventBits->xTasksWaitingForBits ) );
 149:Generated_Source\PSoC6\pdl\rtos\FreeRTOS\9.0.0\Source/event_groups.c **** 
 150:Generated_Source\PSoC6\pdl\rtos\FreeRTOS\9.0.0\Source/event_groups.c **** 			#if( configSUPPORT_DYNAMIC_ALLOCATION == 1 )
 151:Generated_Source\PSoC6\pdl\rtos\FreeRTOS\9.0.0\Source/event_groups.c **** 			{
 152:Generated_Source\PSoC6\pdl\rtos\FreeRTOS\9.0.0\Source/event_groups.c **** 				/* Both static and dynamic allocation can be used, so note that
 153:Generated_Source\PSoC6\pdl\rtos\FreeRTOS\9.0.0\Source/event_groups.c **** 				this event group was created statically in case the event group
 154:Generated_Source\PSoC6\pdl\rtos\FreeRTOS\9.0.0\Source/event_groups.c **** 				is later deleted. */
 155:Generated_Source\PSoC6\pdl\rtos\FreeRTOS\9.0.0\Source/event_groups.c **** 				pxEventBits->ucStaticallyAllocated = pdTRUE;
 156:Generated_Source\PSoC6\pdl\rtos\FreeRTOS\9.0.0\Source/event_groups.c **** 			}
 157:Generated_Source\PSoC6\pdl\rtos\FreeRTOS\9.0.0\Source/event_groups.c **** 			#endif /* configSUPPORT_DYNAMIC_ALLOCATION */
 158:Generated_Source\PSoC6\pdl\rtos\FreeRTOS\9.0.0\Source/event_groups.c **** 
 159:Generated_Source\PSoC6\pdl\rtos\FreeRTOS\9.0.0\Source/event_groups.c **** 			traceEVENT_GROUP_CREATE( pxEventBits );
 160:Generated_Source\PSoC6\pdl\rtos\FreeRTOS\9.0.0\Source/event_groups.c **** 		}
 161:Generated_Source\PSoC6\pdl\rtos\FreeRTOS\9.0.0\Source/event_groups.c **** 		else
 162:Generated_Source\PSoC6\pdl\rtos\FreeRTOS\9.0.0\Source/event_groups.c **** 		{
 163:Generated_Source\PSoC6\pdl\rtos\FreeRTOS\9.0.0\Source/event_groups.c **** 			traceEVENT_GROUP_CREATE_FAILED();
 164:Generated_Source\PSoC6\pdl\rtos\FreeRTOS\9.0.0\Source/event_groups.c **** 		}
 165:Generated_Source\PSoC6\pdl\rtos\FreeRTOS\9.0.0\Source/event_groups.c **** 
 166:Generated_Source\PSoC6\pdl\rtos\FreeRTOS\9.0.0\Source/event_groups.c **** 		return ( EventGroupHandle_t ) pxEventBits;
 167:Generated_Source\PSoC6\pdl\rtos\FreeRTOS\9.0.0\Source/event_groups.c **** 	}
 168:Generated_Source\PSoC6\pdl\rtos\FreeRTOS\9.0.0\Source/event_groups.c **** 
 169:Generated_Source\PSoC6\pdl\rtos\FreeRTOS\9.0.0\Source/event_groups.c **** #endif /* configSUPPORT_STATIC_ALLOCATION */
 170:Generated_Source\PSoC6\pdl\rtos\FreeRTOS\9.0.0\Source/event_groups.c **** /*-----------------------------------------------------------*/
 171:Generated_Source\PSoC6\pdl\rtos\FreeRTOS\9.0.0\Source/event_groups.c **** 
 172:Generated_Source\PSoC6\pdl\rtos\FreeRTOS\9.0.0\Source/event_groups.c **** #if( configSUPPORT_DYNAMIC_ALLOCATION == 1 )
 173:Generated_Source\PSoC6\pdl\rtos\FreeRTOS\9.0.0\Source/event_groups.c **** 
 174:Generated_Source\PSoC6\pdl\rtos\FreeRTOS\9.0.0\Source/event_groups.c **** 	EventGroupHandle_t xEventGroupCreate( void )
 175:Generated_Source\PSoC6\pdl\rtos\FreeRTOS\9.0.0\Source/event_groups.c **** 	{
  29              		.loc 1 175 0
  30              		.cfi_startproc
  31              		@ args = 0, pretend = 0, frame = 8
  32              		@ frame_needed = 1, uses_anonymous_args = 0
  33 0000 80B5     		push	{r7, lr}
  34              		.cfi_def_cfa_offset 8
  35              		.cfi_offset 7, -8
  36              		.cfi_offset 14, -4
  37 0002 82B0     		sub	sp, sp, #8
  38              		.cfi_def_cfa_offset 16
  39 0004 00AF     		add	r7, sp, #0
  40              		.cfi_def_cfa_register 7
 176:Generated_Source\PSoC6\pdl\rtos\FreeRTOS\9.0.0\Source/event_groups.c **** 	EventGroup_t *pxEventBits;
 177:Generated_Source\PSoC6\pdl\rtos\FreeRTOS\9.0.0\Source/event_groups.c **** 
 178:Generated_Source\PSoC6\pdl\rtos\FreeRTOS\9.0.0\Source/event_groups.c **** 		/* Allocate the event group. */
 179:Generated_Source\PSoC6\pdl\rtos\FreeRTOS\9.0.0\Source/event_groups.c **** 		pxEventBits = ( EventGroup_t * ) pvPortMalloc( sizeof( EventGroup_t ) );
  41              		.loc 1 179 0
  42 0006 1820     		movs	r0, #24
  43 0008 FFF7FEFF 		bl	pvPortMalloc
  44 000c 7860     		str	r0, [r7, #4]
 180:Generated_Source\PSoC6\pdl\rtos\FreeRTOS\9.0.0\Source/event_groups.c **** 
 181:Generated_Source\PSoC6\pdl\rtos\FreeRTOS\9.0.0\Source/event_groups.c **** 		if( pxEventBits != NULL )
  45              		.loc 1 181 0
  46 000e 7B68     		ldr	r3, [r7, #4]
  47 0010 002B     		cmp	r3, #0
ARM GAS  C:\Users\ikomb\AppData\Local\Temp\ccjR8mjn.s 			page 5


  48 0012 07D0     		beq	.L2
 182:Generated_Source\PSoC6\pdl\rtos\FreeRTOS\9.0.0\Source/event_groups.c **** 		{
 183:Generated_Source\PSoC6\pdl\rtos\FreeRTOS\9.0.0\Source/event_groups.c **** 			pxEventBits->uxEventBits = 0;
  49              		.loc 1 183 0
  50 0014 7B68     		ldr	r3, [r7, #4]
  51 0016 0022     		movs	r2, #0
  52 0018 1A60     		str	r2, [r3]
 184:Generated_Source\PSoC6\pdl\rtos\FreeRTOS\9.0.0\Source/event_groups.c **** 			vListInitialise( &( pxEventBits->xTasksWaitingForBits ) );
  53              		.loc 1 184 0
  54 001a 7B68     		ldr	r3, [r7, #4]
  55 001c 0433     		adds	r3, r3, #4
  56 001e 1846     		mov	r0, r3
  57 0020 FFF7FEFF 		bl	vListInitialise
  58              	.L2:
 185:Generated_Source\PSoC6\pdl\rtos\FreeRTOS\9.0.0\Source/event_groups.c **** 
 186:Generated_Source\PSoC6\pdl\rtos\FreeRTOS\9.0.0\Source/event_groups.c **** 			#if( configSUPPORT_STATIC_ALLOCATION == 1 )
 187:Generated_Source\PSoC6\pdl\rtos\FreeRTOS\9.0.0\Source/event_groups.c **** 			{
 188:Generated_Source\PSoC6\pdl\rtos\FreeRTOS\9.0.0\Source/event_groups.c **** 				/* Both static and dynamic allocation can be used, so note this
 189:Generated_Source\PSoC6\pdl\rtos\FreeRTOS\9.0.0\Source/event_groups.c **** 				event group was allocated statically in case the event group is
 190:Generated_Source\PSoC6\pdl\rtos\FreeRTOS\9.0.0\Source/event_groups.c **** 				later deleted. */
 191:Generated_Source\PSoC6\pdl\rtos\FreeRTOS\9.0.0\Source/event_groups.c **** 				pxEventBits->ucStaticallyAllocated = pdFALSE;
 192:Generated_Source\PSoC6\pdl\rtos\FreeRTOS\9.0.0\Source/event_groups.c **** 			}
 193:Generated_Source\PSoC6\pdl\rtos\FreeRTOS\9.0.0\Source/event_groups.c **** 			#endif /* configSUPPORT_STATIC_ALLOCATION */
 194:Generated_Source\PSoC6\pdl\rtos\FreeRTOS\9.0.0\Source/event_groups.c **** 
 195:Generated_Source\PSoC6\pdl\rtos\FreeRTOS\9.0.0\Source/event_groups.c **** 			traceEVENT_GROUP_CREATE( pxEventBits );
 196:Generated_Source\PSoC6\pdl\rtos\FreeRTOS\9.0.0\Source/event_groups.c **** 		}
 197:Generated_Source\PSoC6\pdl\rtos\FreeRTOS\9.0.0\Source/event_groups.c **** 		else
 198:Generated_Source\PSoC6\pdl\rtos\FreeRTOS\9.0.0\Source/event_groups.c **** 		{
 199:Generated_Source\PSoC6\pdl\rtos\FreeRTOS\9.0.0\Source/event_groups.c **** 			traceEVENT_GROUP_CREATE_FAILED();
 200:Generated_Source\PSoC6\pdl\rtos\FreeRTOS\9.0.0\Source/event_groups.c **** 		}
 201:Generated_Source\PSoC6\pdl\rtos\FreeRTOS\9.0.0\Source/event_groups.c **** 
 202:Generated_Source\PSoC6\pdl\rtos\FreeRTOS\9.0.0\Source/event_groups.c **** 		return ( EventGroupHandle_t ) pxEventBits;
  59              		.loc 1 202 0
  60 0024 7B68     		ldr	r3, [r7, #4]
 203:Generated_Source\PSoC6\pdl\rtos\FreeRTOS\9.0.0\Source/event_groups.c **** 	}
  61              		.loc 1 203 0
  62 0026 1846     		mov	r0, r3
  63 0028 0837     		adds	r7, r7, #8
  64              		.cfi_def_cfa_offset 8
  65 002a BD46     		mov	sp, r7
  66              		.cfi_def_cfa_register 13
  67              		@ sp needed
  68 002c 80BD     		pop	{r7, pc}
  69              		.cfi_endproc
  70              	.LFE129:
  71              		.size	xEventGroupCreate, .-xEventGroupCreate
  72 002e 00BF     		.section	.text.xEventGroupSync,"ax",%progbits
  73              		.align	2
  74              		.global	xEventGroupSync
  75              		.thumb
  76              		.thumb_func
  77              		.type	xEventGroupSync, %function
  78              	xEventGroupSync:
  79              	.LFB130:
 204:Generated_Source\PSoC6\pdl\rtos\FreeRTOS\9.0.0\Source/event_groups.c **** 
 205:Generated_Source\PSoC6\pdl\rtos\FreeRTOS\9.0.0\Source/event_groups.c **** #endif /* configSUPPORT_DYNAMIC_ALLOCATION */
 206:Generated_Source\PSoC6\pdl\rtos\FreeRTOS\9.0.0\Source/event_groups.c **** /*-----------------------------------------------------------*/
ARM GAS  C:\Users\ikomb\AppData\Local\Temp\ccjR8mjn.s 			page 6


 207:Generated_Source\PSoC6\pdl\rtos\FreeRTOS\9.0.0\Source/event_groups.c **** 
 208:Generated_Source\PSoC6\pdl\rtos\FreeRTOS\9.0.0\Source/event_groups.c **** EventBits_t xEventGroupSync( EventGroupHandle_t xEventGroup, const EventBits_t uxBitsToSet, const E
 209:Generated_Source\PSoC6\pdl\rtos\FreeRTOS\9.0.0\Source/event_groups.c **** {
  80              		.loc 1 209 0
  81              		.cfi_startproc
  82              		@ args = 0, pretend = 0, frame = 40
  83              		@ frame_needed = 1, uses_anonymous_args = 0
  84 0000 80B5     		push	{r7, lr}
  85              		.cfi_def_cfa_offset 8
  86              		.cfi_offset 7, -8
  87              		.cfi_offset 14, -4
  88 0002 8AB0     		sub	sp, sp, #40
  89              		.cfi_def_cfa_offset 48
  90 0004 00AF     		add	r7, sp, #0
  91              		.cfi_def_cfa_register 7
  92 0006 F860     		str	r0, [r7, #12]
  93 0008 B960     		str	r1, [r7, #8]
  94 000a 7A60     		str	r2, [r7, #4]
  95 000c 3B60     		str	r3, [r7]
 210:Generated_Source\PSoC6\pdl\rtos\FreeRTOS\9.0.0\Source/event_groups.c **** EventBits_t uxOriginalBitValue, uxReturn;
 211:Generated_Source\PSoC6\pdl\rtos\FreeRTOS\9.0.0\Source/event_groups.c **** EventGroup_t *pxEventBits = ( EventGroup_t * ) xEventGroup;
  96              		.loc 1 211 0
  97 000e FB68     		ldr	r3, [r7, #12]
  98 0010 3B62     		str	r3, [r7, #32]
 212:Generated_Source\PSoC6\pdl\rtos\FreeRTOS\9.0.0\Source/event_groups.c **** BaseType_t xAlreadyYielded;
 213:Generated_Source\PSoC6\pdl\rtos\FreeRTOS\9.0.0\Source/event_groups.c **** BaseType_t xTimeoutOccurred = pdFALSE;
  99              		.loc 1 213 0
 100 0012 0023     		movs	r3, #0
 101 0014 FB61     		str	r3, [r7, #28]
 214:Generated_Source\PSoC6\pdl\rtos\FreeRTOS\9.0.0\Source/event_groups.c **** 
 215:Generated_Source\PSoC6\pdl\rtos\FreeRTOS\9.0.0\Source/event_groups.c **** 	configASSERT( ( uxBitsToWaitFor & eventEVENT_BITS_CONTROL_BYTES ) == 0 );
 102              		.loc 1 215 0
 103 0016 7B68     		ldr	r3, [r7, #4]
 104 0018 03F07F43 		and	r3, r3, #-16777216
 105 001c 002B     		cmp	r3, #0
 106 001e 01D0     		beq	.L5
 107              		.loc 1 215 0 is_stmt 0 discriminator 1
 108              		.syntax unified
 109              	@ 215 "Generated_Source\PSoC6\pdl\rtos\FreeRTOS\9.0.0\Source\event_groups.c" 1
 110 0020 72B6     		 cpsid i 
 111              	@ 0 "" 2
 112              		.thumb
 113              		.syntax unified
 114              	.L6:
 115 0022 FEE7     		b	.L6
 116              	.L5:
 216:Generated_Source\PSoC6\pdl\rtos\FreeRTOS\9.0.0\Source/event_groups.c **** 	configASSERT( uxBitsToWaitFor != 0 );
 117              		.loc 1 216 0 is_stmt 1
 118 0024 7B68     		ldr	r3, [r7, #4]
 119 0026 002B     		cmp	r3, #0
 120 0028 01D1     		bne	.L7
 121              		.loc 1 216 0 is_stmt 0 discriminator 1
 122              		.syntax unified
 123              	@ 216 "Generated_Source\PSoC6\pdl\rtos\FreeRTOS\9.0.0\Source\event_groups.c" 1
 124 002a 72B6     		 cpsid i 
 125              	@ 0 "" 2
 126              		.thumb
ARM GAS  C:\Users\ikomb\AppData\Local\Temp\ccjR8mjn.s 			page 7


 127              		.syntax unified
 128              	.L8:
 129              		.loc 1 216 0 discriminator 2
 130 002c FEE7     		b	.L8
 131              	.L7:
 217:Generated_Source\PSoC6\pdl\rtos\FreeRTOS\9.0.0\Source/event_groups.c **** 	#if ( ( INCLUDE_xTaskGetSchedulerState == 1 ) || ( configUSE_TIMERS == 1 ) )
 218:Generated_Source\PSoC6\pdl\rtos\FreeRTOS\9.0.0\Source/event_groups.c **** 	{
 219:Generated_Source\PSoC6\pdl\rtos\FreeRTOS\9.0.0\Source/event_groups.c **** 		configASSERT( !( ( xTaskGetSchedulerState() == taskSCHEDULER_SUSPENDED ) && ( xTicksToWait != 0 )
 132              		.loc 1 219 0 is_stmt 1
 133 002e FFF7FEFF 		bl	xTaskGetSchedulerState
 134 0032 0346     		mov	r3, r0
 135 0034 002B     		cmp	r3, #0
 136 0036 02D1     		bne	.L9
 137              		.loc 1 219 0 is_stmt 0 discriminator 2
 138 0038 3B68     		ldr	r3, [r7]
 139 003a 002B     		cmp	r3, #0
 140 003c 01D1     		bne	.L10
 141              	.L9:
 142              		.loc 1 219 0 discriminator 3
 143 003e 0123     		movs	r3, #1
 144 0040 00E0     		b	.L11
 145              	.L10:
 146              		.loc 1 219 0 discriminator 4
 147 0042 0023     		movs	r3, #0
 148              	.L11:
 149              		.loc 1 219 0 discriminator 6
 150 0044 002B     		cmp	r3, #0
 151 0046 01D1     		bne	.L12
 152              		.loc 1 219 0 discriminator 7
 153              		.syntax unified
 154              	@ 219 "Generated_Source\PSoC6\pdl\rtos\FreeRTOS\9.0.0\Source\event_groups.c" 1
 155 0048 72B6     		 cpsid i 
 156              	@ 0 "" 2
 157              		.thumb
 158              		.syntax unified
 159              	.L13:
 160              		.loc 1 219 0 discriminator 3
 161 004a FEE7     		b	.L13
 162              	.L12:
 220:Generated_Source\PSoC6\pdl\rtos\FreeRTOS\9.0.0\Source/event_groups.c **** 	}
 221:Generated_Source\PSoC6\pdl\rtos\FreeRTOS\9.0.0\Source/event_groups.c **** 	#endif
 222:Generated_Source\PSoC6\pdl\rtos\FreeRTOS\9.0.0\Source/event_groups.c **** 
 223:Generated_Source\PSoC6\pdl\rtos\FreeRTOS\9.0.0\Source/event_groups.c **** 	vTaskSuspendAll();
 163              		.loc 1 223 0 is_stmt 1
 164 004c FFF7FEFF 		bl	vTaskSuspendAll
 224:Generated_Source\PSoC6\pdl\rtos\FreeRTOS\9.0.0\Source/event_groups.c **** 	{
 225:Generated_Source\PSoC6\pdl\rtos\FreeRTOS\9.0.0\Source/event_groups.c **** 		uxOriginalBitValue = pxEventBits->uxEventBits;
 165              		.loc 1 225 0
 166 0050 3B6A     		ldr	r3, [r7, #32]
 167 0052 1B68     		ldr	r3, [r3]
 168 0054 BB61     		str	r3, [r7, #24]
 226:Generated_Source\PSoC6\pdl\rtos\FreeRTOS\9.0.0\Source/event_groups.c **** 
 227:Generated_Source\PSoC6\pdl\rtos\FreeRTOS\9.0.0\Source/event_groups.c **** 		( void ) xEventGroupSetBits( xEventGroup, uxBitsToSet );
 169              		.loc 1 227 0
 170 0056 B968     		ldr	r1, [r7, #8]
 171 0058 F868     		ldr	r0, [r7, #12]
 172 005a FFF7FEFF 		bl	xEventGroupSetBits
ARM GAS  C:\Users\ikomb\AppData\Local\Temp\ccjR8mjn.s 			page 8


 228:Generated_Source\PSoC6\pdl\rtos\FreeRTOS\9.0.0\Source/event_groups.c **** 
 229:Generated_Source\PSoC6\pdl\rtos\FreeRTOS\9.0.0\Source/event_groups.c **** 		if( ( ( uxOriginalBitValue | uxBitsToSet ) & uxBitsToWaitFor ) == uxBitsToWaitFor )
 173              		.loc 1 229 0
 174 005e BA69     		ldr	r2, [r7, #24]
 175 0060 BB68     		ldr	r3, [r7, #8]
 176 0062 1A43     		orrs	r2, r2, r3
 177 0064 7B68     		ldr	r3, [r7, #4]
 178 0066 1A40     		ands	r2, r2, r3
 179 0068 7B68     		ldr	r3, [r7, #4]
 180 006a 9A42     		cmp	r2, r3
 181 006c 0DD1     		bne	.L14
 230:Generated_Source\PSoC6\pdl\rtos\FreeRTOS\9.0.0\Source/event_groups.c **** 		{
 231:Generated_Source\PSoC6\pdl\rtos\FreeRTOS\9.0.0\Source/event_groups.c **** 			/* All the rendezvous bits are now set - no need to block. */
 232:Generated_Source\PSoC6\pdl\rtos\FreeRTOS\9.0.0\Source/event_groups.c **** 			uxReturn = ( uxOriginalBitValue | uxBitsToSet );
 182              		.loc 1 232 0
 183 006e BA69     		ldr	r2, [r7, #24]
 184 0070 BB68     		ldr	r3, [r7, #8]
 185 0072 1343     		orrs	r3, r3, r2
 186 0074 7B62     		str	r3, [r7, #36]
 233:Generated_Source\PSoC6\pdl\rtos\FreeRTOS\9.0.0\Source/event_groups.c **** 
 234:Generated_Source\PSoC6\pdl\rtos\FreeRTOS\9.0.0\Source/event_groups.c **** 			/* Rendezvous always clear the bits.  They will have been cleared
 235:Generated_Source\PSoC6\pdl\rtos\FreeRTOS\9.0.0\Source/event_groups.c **** 			already unless this is the only task in the rendezvous. */
 236:Generated_Source\PSoC6\pdl\rtos\FreeRTOS\9.0.0\Source/event_groups.c **** 			pxEventBits->uxEventBits &= ~uxBitsToWaitFor;
 187              		.loc 1 236 0
 188 0076 3B6A     		ldr	r3, [r7, #32]
 189 0078 1A68     		ldr	r2, [r3]
 190 007a 7B68     		ldr	r3, [r7, #4]
 191 007c DB43     		mvns	r3, r3
 192 007e 1A40     		ands	r2, r2, r3
 193 0080 3B6A     		ldr	r3, [r7, #32]
 194 0082 1A60     		str	r2, [r3]
 237:Generated_Source\PSoC6\pdl\rtos\FreeRTOS\9.0.0\Source/event_groups.c **** 
 238:Generated_Source\PSoC6\pdl\rtos\FreeRTOS\9.0.0\Source/event_groups.c **** 			xTicksToWait = 0;
 195              		.loc 1 238 0
 196 0084 0023     		movs	r3, #0
 197 0086 3B60     		str	r3, [r7]
 198 0088 11E0     		b	.L15
 199              	.L14:
 239:Generated_Source\PSoC6\pdl\rtos\FreeRTOS\9.0.0\Source/event_groups.c **** 		}
 240:Generated_Source\PSoC6\pdl\rtos\FreeRTOS\9.0.0\Source/event_groups.c **** 		else
 241:Generated_Source\PSoC6\pdl\rtos\FreeRTOS\9.0.0\Source/event_groups.c **** 		{
 242:Generated_Source\PSoC6\pdl\rtos\FreeRTOS\9.0.0\Source/event_groups.c **** 			if( xTicksToWait != ( TickType_t ) 0 )
 200              		.loc 1 242 0
 201 008a 3B68     		ldr	r3, [r7]
 202 008c 002B     		cmp	r3, #0
 203 008e 0BD0     		beq	.L16
 243:Generated_Source\PSoC6\pdl\rtos\FreeRTOS\9.0.0\Source/event_groups.c **** 			{
 244:Generated_Source\PSoC6\pdl\rtos\FreeRTOS\9.0.0\Source/event_groups.c **** 				traceEVENT_GROUP_SYNC_BLOCK( xEventGroup, uxBitsToSet, uxBitsToWaitFor );
 245:Generated_Source\PSoC6\pdl\rtos\FreeRTOS\9.0.0\Source/event_groups.c **** 
 246:Generated_Source\PSoC6\pdl\rtos\FreeRTOS\9.0.0\Source/event_groups.c **** 				/* Store the bits that the calling task is waiting for in the
 247:Generated_Source\PSoC6\pdl\rtos\FreeRTOS\9.0.0\Source/event_groups.c **** 				task's event list item so the kernel knows when a match is
 248:Generated_Source\PSoC6\pdl\rtos\FreeRTOS\9.0.0\Source/event_groups.c **** 				found.  Then enter the blocked state. */
 249:Generated_Source\PSoC6\pdl\rtos\FreeRTOS\9.0.0\Source/event_groups.c **** 				vTaskPlaceOnUnorderedEventList( &( pxEventBits->xTasksWaitingForBits ), ( uxBitsToWaitFor | eve
 204              		.loc 1 249 0
 205 0090 3B6A     		ldr	r3, [r7, #32]
 206 0092 181D     		adds	r0, r3, #4
 207 0094 7B68     		ldr	r3, [r7, #4]
ARM GAS  C:\Users\ikomb\AppData\Local\Temp\ccjR8mjn.s 			page 9


 208 0096 43F0A063 		orr	r3, r3, #83886080
 209 009a 3A68     		ldr	r2, [r7]
 210 009c 1946     		mov	r1, r3
 211 009e FFF7FEFF 		bl	vTaskPlaceOnUnorderedEventList
 250:Generated_Source\PSoC6\pdl\rtos\FreeRTOS\9.0.0\Source/event_groups.c **** 
 251:Generated_Source\PSoC6\pdl\rtos\FreeRTOS\9.0.0\Source/event_groups.c **** 				/* This assignment is obsolete as uxReturn will get set after
 252:Generated_Source\PSoC6\pdl\rtos\FreeRTOS\9.0.0\Source/event_groups.c **** 				the task unblocks, but some compilers mistakenly generate a
 253:Generated_Source\PSoC6\pdl\rtos\FreeRTOS\9.0.0\Source/event_groups.c **** 				warning about uxReturn being returned without being set if the
 254:Generated_Source\PSoC6\pdl\rtos\FreeRTOS\9.0.0\Source/event_groups.c **** 				assignment is omitted. */
 255:Generated_Source\PSoC6\pdl\rtos\FreeRTOS\9.0.0\Source/event_groups.c **** 				uxReturn = 0;
 212              		.loc 1 255 0
 213 00a2 0023     		movs	r3, #0
 214 00a4 7B62     		str	r3, [r7, #36]
 215 00a6 02E0     		b	.L15
 216              	.L16:
 256:Generated_Source\PSoC6\pdl\rtos\FreeRTOS\9.0.0\Source/event_groups.c **** 			}
 257:Generated_Source\PSoC6\pdl\rtos\FreeRTOS\9.0.0\Source/event_groups.c **** 			else
 258:Generated_Source\PSoC6\pdl\rtos\FreeRTOS\9.0.0\Source/event_groups.c **** 			{
 259:Generated_Source\PSoC6\pdl\rtos\FreeRTOS\9.0.0\Source/event_groups.c **** 				/* The rendezvous bits were not set, but no block time was
 260:Generated_Source\PSoC6\pdl\rtos\FreeRTOS\9.0.0\Source/event_groups.c **** 				specified - just return the current event bit value. */
 261:Generated_Source\PSoC6\pdl\rtos\FreeRTOS\9.0.0\Source/event_groups.c **** 				uxReturn = pxEventBits->uxEventBits;
 217              		.loc 1 261 0
 218 00a8 3B6A     		ldr	r3, [r7, #32]
 219 00aa 1B68     		ldr	r3, [r3]
 220 00ac 7B62     		str	r3, [r7, #36]
 221              	.L15:
 262:Generated_Source\PSoC6\pdl\rtos\FreeRTOS\9.0.0\Source/event_groups.c **** 			}
 263:Generated_Source\PSoC6\pdl\rtos\FreeRTOS\9.0.0\Source/event_groups.c **** 		}
 264:Generated_Source\PSoC6\pdl\rtos\FreeRTOS\9.0.0\Source/event_groups.c **** 	}
 265:Generated_Source\PSoC6\pdl\rtos\FreeRTOS\9.0.0\Source/event_groups.c **** 	xAlreadyYielded = xTaskResumeAll();
 222              		.loc 1 265 0
 223 00ae FFF7FEFF 		bl	xTaskResumeAll
 224 00b2 7861     		str	r0, [r7, #20]
 266:Generated_Source\PSoC6\pdl\rtos\FreeRTOS\9.0.0\Source/event_groups.c **** 
 267:Generated_Source\PSoC6\pdl\rtos\FreeRTOS\9.0.0\Source/event_groups.c **** 	if( xTicksToWait != ( TickType_t ) 0 )
 225              		.loc 1 267 0
 226 00b4 3B68     		ldr	r3, [r7]
 227 00b6 002B     		cmp	r3, #0
 228 00b8 2CD0     		beq	.L17
 268:Generated_Source\PSoC6\pdl\rtos\FreeRTOS\9.0.0\Source/event_groups.c **** 	{
 269:Generated_Source\PSoC6\pdl\rtos\FreeRTOS\9.0.0\Source/event_groups.c **** 		if( xAlreadyYielded == pdFALSE )
 229              		.loc 1 269 0
 230 00ba 7B69     		ldr	r3, [r7, #20]
 231 00bc 002B     		cmp	r3, #0
 232 00be 07D1     		bne	.L18
 270:Generated_Source\PSoC6\pdl\rtos\FreeRTOS\9.0.0\Source/event_groups.c **** 		{
 271:Generated_Source\PSoC6\pdl\rtos\FreeRTOS\9.0.0\Source/event_groups.c **** 			portYIELD_WITHIN_API();
 233              		.loc 1 271 0
 234 00c0 174B     		ldr	r3, .L22
 235 00c2 4FF08052 		mov	r2, #268435456
 236 00c6 1A60     		str	r2, [r3]
 237              		.syntax unified
 238              	@ 271 "Generated_Source\PSoC6\pdl\rtos\FreeRTOS\9.0.0\Source\event_groups.c" 1
 239 00c8 BFF34F8F 		dsb
 240              	@ 0 "" 2
 241              	@ 271 "Generated_Source\PSoC6\pdl\rtos\FreeRTOS\9.0.0\Source\event_groups.c" 1
 242 00cc BFF36F8F 		isb
ARM GAS  C:\Users\ikomb\AppData\Local\Temp\ccjR8mjn.s 			page 10


 243              	@ 0 "" 2
 244              		.thumb
 245              		.syntax unified
 246              	.L18:
 272:Generated_Source\PSoC6\pdl\rtos\FreeRTOS\9.0.0\Source/event_groups.c **** 		}
 273:Generated_Source\PSoC6\pdl\rtos\FreeRTOS\9.0.0\Source/event_groups.c **** 		else
 274:Generated_Source\PSoC6\pdl\rtos\FreeRTOS\9.0.0\Source/event_groups.c **** 		{
 275:Generated_Source\PSoC6\pdl\rtos\FreeRTOS\9.0.0\Source/event_groups.c **** 			mtCOVERAGE_TEST_MARKER();
 276:Generated_Source\PSoC6\pdl\rtos\FreeRTOS\9.0.0\Source/event_groups.c **** 		}
 277:Generated_Source\PSoC6\pdl\rtos\FreeRTOS\9.0.0\Source/event_groups.c **** 
 278:Generated_Source\PSoC6\pdl\rtos\FreeRTOS\9.0.0\Source/event_groups.c **** 		/* The task blocked to wait for its required bits to be set - at this
 279:Generated_Source\PSoC6\pdl\rtos\FreeRTOS\9.0.0\Source/event_groups.c **** 		point either the required bits were set or the block time expired.  If
 280:Generated_Source\PSoC6\pdl\rtos\FreeRTOS\9.0.0\Source/event_groups.c **** 		the required bits were set they will have been stored in the task's
 281:Generated_Source\PSoC6\pdl\rtos\FreeRTOS\9.0.0\Source/event_groups.c **** 		event list item, and they should now be retrieved then cleared. */
 282:Generated_Source\PSoC6\pdl\rtos\FreeRTOS\9.0.0\Source/event_groups.c **** 		uxReturn = uxTaskResetEventItemValue();
 247              		.loc 1 282 0
 248 00d0 FFF7FEFF 		bl	uxTaskResetEventItemValue
 249 00d4 7862     		str	r0, [r7, #36]
 283:Generated_Source\PSoC6\pdl\rtos\FreeRTOS\9.0.0\Source/event_groups.c **** 
 284:Generated_Source\PSoC6\pdl\rtos\FreeRTOS\9.0.0\Source/event_groups.c **** 		if( ( uxReturn & eventUNBLOCKED_DUE_TO_BIT_SET ) == ( EventBits_t ) 0 )
 250              		.loc 1 284 0
 251 00d6 7B6A     		ldr	r3, [r7, #36]
 252 00d8 03F00073 		and	r3, r3, #33554432
 253 00dc 002B     		cmp	r3, #0
 254 00de 15D1     		bne	.L19
 285:Generated_Source\PSoC6\pdl\rtos\FreeRTOS\9.0.0\Source/event_groups.c **** 		{
 286:Generated_Source\PSoC6\pdl\rtos\FreeRTOS\9.0.0\Source/event_groups.c **** 			/* The task timed out, just return the current event bit value. */
 287:Generated_Source\PSoC6\pdl\rtos\FreeRTOS\9.0.0\Source/event_groups.c **** 			taskENTER_CRITICAL();
 255              		.loc 1 287 0
 256 00e0 FFF7FEFF 		bl	vPortEnterCritical
 288:Generated_Source\PSoC6\pdl\rtos\FreeRTOS\9.0.0\Source/event_groups.c **** 			{
 289:Generated_Source\PSoC6\pdl\rtos\FreeRTOS\9.0.0\Source/event_groups.c **** 				uxReturn = pxEventBits->uxEventBits;
 257              		.loc 1 289 0
 258 00e4 3B6A     		ldr	r3, [r7, #32]
 259 00e6 1B68     		ldr	r3, [r3]
 260 00e8 7B62     		str	r3, [r7, #36]
 290:Generated_Source\PSoC6\pdl\rtos\FreeRTOS\9.0.0\Source/event_groups.c **** 
 291:Generated_Source\PSoC6\pdl\rtos\FreeRTOS\9.0.0\Source/event_groups.c **** 				/* Although the task got here because it timed out before the
 292:Generated_Source\PSoC6\pdl\rtos\FreeRTOS\9.0.0\Source/event_groups.c **** 				bits it was waiting for were set, it is possible that since it
 293:Generated_Source\PSoC6\pdl\rtos\FreeRTOS\9.0.0\Source/event_groups.c **** 				unblocked another task has set the bits.  If this is the case
 294:Generated_Source\PSoC6\pdl\rtos\FreeRTOS\9.0.0\Source/event_groups.c **** 				then it needs to clear the bits before exiting. */
 295:Generated_Source\PSoC6\pdl\rtos\FreeRTOS\9.0.0\Source/event_groups.c **** 				if( ( uxReturn & uxBitsToWaitFor ) == uxBitsToWaitFor )
 261              		.loc 1 295 0
 262 00ea 7A6A     		ldr	r2, [r7, #36]
 263 00ec 7B68     		ldr	r3, [r7, #4]
 264 00ee 1A40     		ands	r2, r2, r3
 265 00f0 7B68     		ldr	r3, [r7, #4]
 266 00f2 9A42     		cmp	r2, r3
 267 00f4 06D1     		bne	.L20
 296:Generated_Source\PSoC6\pdl\rtos\FreeRTOS\9.0.0\Source/event_groups.c **** 				{
 297:Generated_Source\PSoC6\pdl\rtos\FreeRTOS\9.0.0\Source/event_groups.c **** 					pxEventBits->uxEventBits &= ~uxBitsToWaitFor;
 268              		.loc 1 297 0
 269 00f6 3B6A     		ldr	r3, [r7, #32]
 270 00f8 1A68     		ldr	r2, [r3]
 271 00fa 7B68     		ldr	r3, [r7, #4]
 272 00fc DB43     		mvns	r3, r3
 273 00fe 1A40     		ands	r2, r2, r3
ARM GAS  C:\Users\ikomb\AppData\Local\Temp\ccjR8mjn.s 			page 11


 274 0100 3B6A     		ldr	r3, [r7, #32]
 275 0102 1A60     		str	r2, [r3]
 276              	.L20:
 298:Generated_Source\PSoC6\pdl\rtos\FreeRTOS\9.0.0\Source/event_groups.c **** 				}
 299:Generated_Source\PSoC6\pdl\rtos\FreeRTOS\9.0.0\Source/event_groups.c **** 				else
 300:Generated_Source\PSoC6\pdl\rtos\FreeRTOS\9.0.0\Source/event_groups.c **** 				{
 301:Generated_Source\PSoC6\pdl\rtos\FreeRTOS\9.0.0\Source/event_groups.c **** 					mtCOVERAGE_TEST_MARKER();
 302:Generated_Source\PSoC6\pdl\rtos\FreeRTOS\9.0.0\Source/event_groups.c **** 				}
 303:Generated_Source\PSoC6\pdl\rtos\FreeRTOS\9.0.0\Source/event_groups.c **** 			}
 304:Generated_Source\PSoC6\pdl\rtos\FreeRTOS\9.0.0\Source/event_groups.c **** 			taskEXIT_CRITICAL();
 277              		.loc 1 304 0
 278 0104 FFF7FEFF 		bl	vPortExitCritical
 305:Generated_Source\PSoC6\pdl\rtos\FreeRTOS\9.0.0\Source/event_groups.c **** 
 306:Generated_Source\PSoC6\pdl\rtos\FreeRTOS\9.0.0\Source/event_groups.c **** 			xTimeoutOccurred = pdTRUE;
 279              		.loc 1 306 0
 280 0108 0123     		movs	r3, #1
 281 010a FB61     		str	r3, [r7, #28]
 282              	.L19:
 307:Generated_Source\PSoC6\pdl\rtos\FreeRTOS\9.0.0\Source/event_groups.c **** 		}
 308:Generated_Source\PSoC6\pdl\rtos\FreeRTOS\9.0.0\Source/event_groups.c **** 		else
 309:Generated_Source\PSoC6\pdl\rtos\FreeRTOS\9.0.0\Source/event_groups.c **** 		{
 310:Generated_Source\PSoC6\pdl\rtos\FreeRTOS\9.0.0\Source/event_groups.c **** 			/* The task unblocked because the bits were set. */
 311:Generated_Source\PSoC6\pdl\rtos\FreeRTOS\9.0.0\Source/event_groups.c **** 		}
 312:Generated_Source\PSoC6\pdl\rtos\FreeRTOS\9.0.0\Source/event_groups.c **** 
 313:Generated_Source\PSoC6\pdl\rtos\FreeRTOS\9.0.0\Source/event_groups.c **** 		/* Control bits might be set as the task had blocked should not be
 314:Generated_Source\PSoC6\pdl\rtos\FreeRTOS\9.0.0\Source/event_groups.c **** 		returned. */
 315:Generated_Source\PSoC6\pdl\rtos\FreeRTOS\9.0.0\Source/event_groups.c **** 		uxReturn &= ~eventEVENT_BITS_CONTROL_BYTES;
 283              		.loc 1 315 0
 284 010c 7B6A     		ldr	r3, [r7, #36]
 285 010e 23F07F43 		bic	r3, r3, #-16777216
 286 0112 7B62     		str	r3, [r7, #36]
 287              	.L17:
 316:Generated_Source\PSoC6\pdl\rtos\FreeRTOS\9.0.0\Source/event_groups.c **** 	}
 317:Generated_Source\PSoC6\pdl\rtos\FreeRTOS\9.0.0\Source/event_groups.c **** 
 318:Generated_Source\PSoC6\pdl\rtos\FreeRTOS\9.0.0\Source/event_groups.c **** 	traceEVENT_GROUP_SYNC_END( xEventGroup, uxBitsToSet, uxBitsToWaitFor, xTimeoutOccurred );
 319:Generated_Source\PSoC6\pdl\rtos\FreeRTOS\9.0.0\Source/event_groups.c **** 
 320:Generated_Source\PSoC6\pdl\rtos\FreeRTOS\9.0.0\Source/event_groups.c **** 	return uxReturn;
 288              		.loc 1 320 0
 289 0114 7B6A     		ldr	r3, [r7, #36]
 321:Generated_Source\PSoC6\pdl\rtos\FreeRTOS\9.0.0\Source/event_groups.c **** }
 290              		.loc 1 321 0
 291 0116 1846     		mov	r0, r3
 292 0118 2837     		adds	r7, r7, #40
 293              		.cfi_def_cfa_offset 8
 294 011a BD46     		mov	sp, r7
 295              		.cfi_def_cfa_register 13
 296              		@ sp needed
 297 011c 80BD     		pop	{r7, pc}
 298              	.L23:
 299 011e 00BF     		.align	2
 300              	.L22:
 301 0120 04ED00E0 		.word	-536810236
 302              		.cfi_endproc
 303              	.LFE130:
 304              		.size	xEventGroupSync, .-xEventGroupSync
 305              		.section	.text.xEventGroupWaitBits,"ax",%progbits
 306              		.align	2
ARM GAS  C:\Users\ikomb\AppData\Local\Temp\ccjR8mjn.s 			page 12


 307              		.global	xEventGroupWaitBits
 308              		.thumb
 309              		.thumb_func
 310              		.type	xEventGroupWaitBits, %function
 311              	xEventGroupWaitBits:
 312              	.LFB131:
 322:Generated_Source\PSoC6\pdl\rtos\FreeRTOS\9.0.0\Source/event_groups.c **** /*-----------------------------------------------------------*/
 323:Generated_Source\PSoC6\pdl\rtos\FreeRTOS\9.0.0\Source/event_groups.c **** 
 324:Generated_Source\PSoC6\pdl\rtos\FreeRTOS\9.0.0\Source/event_groups.c **** EventBits_t xEventGroupWaitBits( EventGroupHandle_t xEventGroup, const EventBits_t uxBitsToWaitFor,
 325:Generated_Source\PSoC6\pdl\rtos\FreeRTOS\9.0.0\Source/event_groups.c **** {
 313              		.loc 1 325 0
 314              		.cfi_startproc
 315              		@ args = 4, pretend = 0, frame = 48
 316              		@ frame_needed = 1, uses_anonymous_args = 0
 317 0000 80B5     		push	{r7, lr}
 318              		.cfi_def_cfa_offset 8
 319              		.cfi_offset 7, -8
 320              		.cfi_offset 14, -4
 321 0002 8CB0     		sub	sp, sp, #48
 322              		.cfi_def_cfa_offset 56
 323 0004 00AF     		add	r7, sp, #0
 324              		.cfi_def_cfa_register 7
 325 0006 F860     		str	r0, [r7, #12]
 326 0008 B960     		str	r1, [r7, #8]
 327 000a 7A60     		str	r2, [r7, #4]
 328 000c 3B60     		str	r3, [r7]
 326:Generated_Source\PSoC6\pdl\rtos\FreeRTOS\9.0.0\Source/event_groups.c **** EventGroup_t *pxEventBits = ( EventGroup_t * ) xEventGroup;
 329              		.loc 1 326 0
 330 000e FB68     		ldr	r3, [r7, #12]
 331 0010 7B62     		str	r3, [r7, #36]
 327:Generated_Source\PSoC6\pdl\rtos\FreeRTOS\9.0.0\Source/event_groups.c **** EventBits_t uxReturn, uxControlBits = 0;
 332              		.loc 1 327 0
 333 0012 0023     		movs	r3, #0
 334 0014 BB62     		str	r3, [r7, #40]
 328:Generated_Source\PSoC6\pdl\rtos\FreeRTOS\9.0.0\Source/event_groups.c **** BaseType_t xWaitConditionMet, xAlreadyYielded;
 329:Generated_Source\PSoC6\pdl\rtos\FreeRTOS\9.0.0\Source/event_groups.c **** BaseType_t xTimeoutOccurred = pdFALSE;
 335              		.loc 1 329 0
 336 0016 0023     		movs	r3, #0
 337 0018 3B62     		str	r3, [r7, #32]
 330:Generated_Source\PSoC6\pdl\rtos\FreeRTOS\9.0.0\Source/event_groups.c **** 
 331:Generated_Source\PSoC6\pdl\rtos\FreeRTOS\9.0.0\Source/event_groups.c **** 	/* Check the user is not attempting to wait on the bits used by the kernel
 332:Generated_Source\PSoC6\pdl\rtos\FreeRTOS\9.0.0\Source/event_groups.c **** 	itself, and that at least one bit is being requested. */
 333:Generated_Source\PSoC6\pdl\rtos\FreeRTOS\9.0.0\Source/event_groups.c **** 	configASSERT( xEventGroup );
 338              		.loc 1 333 0
 339 001a FB68     		ldr	r3, [r7, #12]
 340 001c 002B     		cmp	r3, #0
 341 001e 01D1     		bne	.L25
 342              		.loc 1 333 0 is_stmt 0 discriminator 1
 343              		.syntax unified
 344              	@ 333 "Generated_Source\PSoC6\pdl\rtos\FreeRTOS\9.0.0\Source\event_groups.c" 1
 345 0020 72B6     		 cpsid i 
 346              	@ 0 "" 2
 347              		.thumb
 348              		.syntax unified
 349              	.L26:
 350 0022 FEE7     		b	.L26
 351              	.L25:
ARM GAS  C:\Users\ikomb\AppData\Local\Temp\ccjR8mjn.s 			page 13


 334:Generated_Source\PSoC6\pdl\rtos\FreeRTOS\9.0.0\Source/event_groups.c **** 	configASSERT( ( uxBitsToWaitFor & eventEVENT_BITS_CONTROL_BYTES ) == 0 );
 352              		.loc 1 334 0 is_stmt 1
 353 0024 BB68     		ldr	r3, [r7, #8]
 354 0026 03F07F43 		and	r3, r3, #-16777216
 355 002a 002B     		cmp	r3, #0
 356 002c 01D0     		beq	.L27
 357              		.loc 1 334 0 is_stmt 0 discriminator 1
 358              		.syntax unified
 359              	@ 334 "Generated_Source\PSoC6\pdl\rtos\FreeRTOS\9.0.0\Source\event_groups.c" 1
 360 002e 72B6     		 cpsid i 
 361              	@ 0 "" 2
 362              		.thumb
 363              		.syntax unified
 364              	.L28:
 365              		.loc 1 334 0 discriminator 2
 366 0030 FEE7     		b	.L28
 367              	.L27:
 335:Generated_Source\PSoC6\pdl\rtos\FreeRTOS\9.0.0\Source/event_groups.c **** 	configASSERT( uxBitsToWaitFor != 0 );
 368              		.loc 1 335 0 is_stmt 1
 369 0032 BB68     		ldr	r3, [r7, #8]
 370 0034 002B     		cmp	r3, #0
 371 0036 01D1     		bne	.L29
 372              		.loc 1 335 0 is_stmt 0 discriminator 1
 373              		.syntax unified
 374              	@ 335 "Generated_Source\PSoC6\pdl\rtos\FreeRTOS\9.0.0\Source\event_groups.c" 1
 375 0038 72B6     		 cpsid i 
 376              	@ 0 "" 2
 377              		.thumb
 378              		.syntax unified
 379              	.L30:
 380              		.loc 1 335 0 discriminator 3
 381 003a FEE7     		b	.L30
 382              	.L29:
 336:Generated_Source\PSoC6\pdl\rtos\FreeRTOS\9.0.0\Source/event_groups.c **** 	#if ( ( INCLUDE_xTaskGetSchedulerState == 1 ) || ( configUSE_TIMERS == 1 ) )
 337:Generated_Source\PSoC6\pdl\rtos\FreeRTOS\9.0.0\Source/event_groups.c **** 	{
 338:Generated_Source\PSoC6\pdl\rtos\FreeRTOS\9.0.0\Source/event_groups.c **** 		configASSERT( !( ( xTaskGetSchedulerState() == taskSCHEDULER_SUSPENDED ) && ( xTicksToWait != 0 )
 383              		.loc 1 338 0 is_stmt 1
 384 003c FFF7FEFF 		bl	xTaskGetSchedulerState
 385 0040 0346     		mov	r3, r0
 386 0042 002B     		cmp	r3, #0
 387 0044 02D1     		bne	.L31
 388              		.loc 1 338 0 is_stmt 0 discriminator 2
 389 0046 BB6B     		ldr	r3, [r7, #56]
 390 0048 002B     		cmp	r3, #0
 391 004a 01D1     		bne	.L32
 392              	.L31:
 393              		.loc 1 338 0 discriminator 3
 394 004c 0123     		movs	r3, #1
 395 004e 00E0     		b	.L33
 396              	.L32:
 397              		.loc 1 338 0 discriminator 4
 398 0050 0023     		movs	r3, #0
 399              	.L33:
 400              		.loc 1 338 0 discriminator 6
 401 0052 002B     		cmp	r3, #0
 402 0054 01D1     		bne	.L34
 403              		.loc 1 338 0 discriminator 7
ARM GAS  C:\Users\ikomb\AppData\Local\Temp\ccjR8mjn.s 			page 14


 404              		.syntax unified
 405              	@ 338 "Generated_Source\PSoC6\pdl\rtos\FreeRTOS\9.0.0\Source\event_groups.c" 1
 406 0056 72B6     		 cpsid i 
 407              	@ 0 "" 2
 408              		.thumb
 409              		.syntax unified
 410              	.L35:
 411              		.loc 1 338 0 discriminator 4
 412 0058 FEE7     		b	.L35
 413              	.L34:
 339:Generated_Source\PSoC6\pdl\rtos\FreeRTOS\9.0.0\Source/event_groups.c **** 	}
 340:Generated_Source\PSoC6\pdl\rtos\FreeRTOS\9.0.0\Source/event_groups.c **** 	#endif
 341:Generated_Source\PSoC6\pdl\rtos\FreeRTOS\9.0.0\Source/event_groups.c **** 
 342:Generated_Source\PSoC6\pdl\rtos\FreeRTOS\9.0.0\Source/event_groups.c **** 	vTaskSuspendAll();
 414              		.loc 1 342 0 is_stmt 1
 415 005a FFF7FEFF 		bl	vTaskSuspendAll
 416              	.LBB6:
 343:Generated_Source\PSoC6\pdl\rtos\FreeRTOS\9.0.0\Source/event_groups.c **** 	{
 344:Generated_Source\PSoC6\pdl\rtos\FreeRTOS\9.0.0\Source/event_groups.c **** 		const EventBits_t uxCurrentEventBits = pxEventBits->uxEventBits;
 417              		.loc 1 344 0
 418 005e 7B6A     		ldr	r3, [r7, #36]
 419 0060 1B68     		ldr	r3, [r3]
 420 0062 FB61     		str	r3, [r7, #28]
 345:Generated_Source\PSoC6\pdl\rtos\FreeRTOS\9.0.0\Source/event_groups.c **** 
 346:Generated_Source\PSoC6\pdl\rtos\FreeRTOS\9.0.0\Source/event_groups.c **** 		/* Check to see if the wait condition is already met or not. */
 347:Generated_Source\PSoC6\pdl\rtos\FreeRTOS\9.0.0\Source/event_groups.c **** 		xWaitConditionMet = prvTestWaitCondition( uxCurrentEventBits, uxBitsToWaitFor, xWaitForAllBits );
 421              		.loc 1 347 0
 422 0064 3A68     		ldr	r2, [r7]
 423 0066 B968     		ldr	r1, [r7, #8]
 424 0068 F869     		ldr	r0, [r7, #28]
 425 006a FFF7FEFF 		bl	prvTestWaitCondition
 426 006e B861     		str	r0, [r7, #24]
 348:Generated_Source\PSoC6\pdl\rtos\FreeRTOS\9.0.0\Source/event_groups.c **** 
 349:Generated_Source\PSoC6\pdl\rtos\FreeRTOS\9.0.0\Source/event_groups.c **** 		if( xWaitConditionMet != pdFALSE )
 427              		.loc 1 349 0
 428 0070 BB69     		ldr	r3, [r7, #24]
 429 0072 002B     		cmp	r3, #0
 430 0074 0ED0     		beq	.L36
 350:Generated_Source\PSoC6\pdl\rtos\FreeRTOS\9.0.0\Source/event_groups.c **** 		{
 351:Generated_Source\PSoC6\pdl\rtos\FreeRTOS\9.0.0\Source/event_groups.c **** 			/* The wait condition has already been met so there is no need to
 352:Generated_Source\PSoC6\pdl\rtos\FreeRTOS\9.0.0\Source/event_groups.c **** 			block. */
 353:Generated_Source\PSoC6\pdl\rtos\FreeRTOS\9.0.0\Source/event_groups.c **** 			uxReturn = uxCurrentEventBits;
 431              		.loc 1 353 0
 432 0076 FB69     		ldr	r3, [r7, #28]
 433 0078 FB62     		str	r3, [r7, #44]
 354:Generated_Source\PSoC6\pdl\rtos\FreeRTOS\9.0.0\Source/event_groups.c **** 			xTicksToWait = ( TickType_t ) 0;
 434              		.loc 1 354 0
 435 007a 0023     		movs	r3, #0
 436 007c BB63     		str	r3, [r7, #56]
 355:Generated_Source\PSoC6\pdl\rtos\FreeRTOS\9.0.0\Source/event_groups.c **** 
 356:Generated_Source\PSoC6\pdl\rtos\FreeRTOS\9.0.0\Source/event_groups.c **** 			/* Clear the wait bits if requested to do so. */
 357:Generated_Source\PSoC6\pdl\rtos\FreeRTOS\9.0.0\Source/event_groups.c **** 			if( xClearOnExit != pdFALSE )
 437              		.loc 1 357 0
 438 007e 7B68     		ldr	r3, [r7, #4]
 439 0080 002B     		cmp	r3, #0
 440 0082 26D0     		beq	.L37
 358:Generated_Source\PSoC6\pdl\rtos\FreeRTOS\9.0.0\Source/event_groups.c **** 			{
ARM GAS  C:\Users\ikomb\AppData\Local\Temp\ccjR8mjn.s 			page 15


 359:Generated_Source\PSoC6\pdl\rtos\FreeRTOS\9.0.0\Source/event_groups.c **** 				pxEventBits->uxEventBits &= ~uxBitsToWaitFor;
 441              		.loc 1 359 0
 442 0084 7B6A     		ldr	r3, [r7, #36]
 443 0086 1A68     		ldr	r2, [r3]
 444 0088 BB68     		ldr	r3, [r7, #8]
 445 008a DB43     		mvns	r3, r3
 446 008c 1A40     		ands	r2, r2, r3
 447 008e 7B6A     		ldr	r3, [r7, #36]
 448 0090 1A60     		str	r2, [r3]
 449 0092 1EE0     		b	.L37
 450              	.L36:
 360:Generated_Source\PSoC6\pdl\rtos\FreeRTOS\9.0.0\Source/event_groups.c **** 			}
 361:Generated_Source\PSoC6\pdl\rtos\FreeRTOS\9.0.0\Source/event_groups.c **** 			else
 362:Generated_Source\PSoC6\pdl\rtos\FreeRTOS\9.0.0\Source/event_groups.c **** 			{
 363:Generated_Source\PSoC6\pdl\rtos\FreeRTOS\9.0.0\Source/event_groups.c **** 				mtCOVERAGE_TEST_MARKER();
 364:Generated_Source\PSoC6\pdl\rtos\FreeRTOS\9.0.0\Source/event_groups.c **** 			}
 365:Generated_Source\PSoC6\pdl\rtos\FreeRTOS\9.0.0\Source/event_groups.c **** 		}
 366:Generated_Source\PSoC6\pdl\rtos\FreeRTOS\9.0.0\Source/event_groups.c **** 		else if( xTicksToWait == ( TickType_t ) 0 )
 451              		.loc 1 366 0
 452 0094 BB6B     		ldr	r3, [r7, #56]
 453 0096 002B     		cmp	r3, #0
 454 0098 02D1     		bne	.L38
 367:Generated_Source\PSoC6\pdl\rtos\FreeRTOS\9.0.0\Source/event_groups.c **** 		{
 368:Generated_Source\PSoC6\pdl\rtos\FreeRTOS\9.0.0\Source/event_groups.c **** 			/* The wait condition has not been met, but no block time was
 369:Generated_Source\PSoC6\pdl\rtos\FreeRTOS\9.0.0\Source/event_groups.c **** 			specified, so just return the current value. */
 370:Generated_Source\PSoC6\pdl\rtos\FreeRTOS\9.0.0\Source/event_groups.c **** 			uxReturn = uxCurrentEventBits;
 455              		.loc 1 370 0
 456 009a FB69     		ldr	r3, [r7, #28]
 457 009c FB62     		str	r3, [r7, #44]
 458 009e 18E0     		b	.L37
 459              	.L38:
 371:Generated_Source\PSoC6\pdl\rtos\FreeRTOS\9.0.0\Source/event_groups.c **** 		}
 372:Generated_Source\PSoC6\pdl\rtos\FreeRTOS\9.0.0\Source/event_groups.c **** 		else
 373:Generated_Source\PSoC6\pdl\rtos\FreeRTOS\9.0.0\Source/event_groups.c **** 		{
 374:Generated_Source\PSoC6\pdl\rtos\FreeRTOS\9.0.0\Source/event_groups.c **** 			/* The task is going to block to wait for its required bits to be
 375:Generated_Source\PSoC6\pdl\rtos\FreeRTOS\9.0.0\Source/event_groups.c **** 			set.  uxControlBits are used to remember the specified behaviour of
 376:Generated_Source\PSoC6\pdl\rtos\FreeRTOS\9.0.0\Source/event_groups.c **** 			this call to xEventGroupWaitBits() - for use when the event bits
 377:Generated_Source\PSoC6\pdl\rtos\FreeRTOS\9.0.0\Source/event_groups.c **** 			unblock the task. */
 378:Generated_Source\PSoC6\pdl\rtos\FreeRTOS\9.0.0\Source/event_groups.c **** 			if( xClearOnExit != pdFALSE )
 460              		.loc 1 378 0
 461 00a0 7B68     		ldr	r3, [r7, #4]
 462 00a2 002B     		cmp	r3, #0
 463 00a4 03D0     		beq	.L39
 379:Generated_Source\PSoC6\pdl\rtos\FreeRTOS\9.0.0\Source/event_groups.c **** 			{
 380:Generated_Source\PSoC6\pdl\rtos\FreeRTOS\9.0.0\Source/event_groups.c **** 				uxControlBits |= eventCLEAR_EVENTS_ON_EXIT_BIT;
 464              		.loc 1 380 0
 465 00a6 BB6A     		ldr	r3, [r7, #40]
 466 00a8 43F08073 		orr	r3, r3, #16777216
 467 00ac BB62     		str	r3, [r7, #40]
 468              	.L39:
 381:Generated_Source\PSoC6\pdl\rtos\FreeRTOS\9.0.0\Source/event_groups.c **** 			}
 382:Generated_Source\PSoC6\pdl\rtos\FreeRTOS\9.0.0\Source/event_groups.c **** 			else
 383:Generated_Source\PSoC6\pdl\rtos\FreeRTOS\9.0.0\Source/event_groups.c **** 			{
 384:Generated_Source\PSoC6\pdl\rtos\FreeRTOS\9.0.0\Source/event_groups.c **** 				mtCOVERAGE_TEST_MARKER();
 385:Generated_Source\PSoC6\pdl\rtos\FreeRTOS\9.0.0\Source/event_groups.c **** 			}
 386:Generated_Source\PSoC6\pdl\rtos\FreeRTOS\9.0.0\Source/event_groups.c **** 
 387:Generated_Source\PSoC6\pdl\rtos\FreeRTOS\9.0.0\Source/event_groups.c **** 			if( xWaitForAllBits != pdFALSE )
ARM GAS  C:\Users\ikomb\AppData\Local\Temp\ccjR8mjn.s 			page 16


 469              		.loc 1 387 0
 470 00ae 3B68     		ldr	r3, [r7]
 471 00b0 002B     		cmp	r3, #0
 472 00b2 03D0     		beq	.L40
 388:Generated_Source\PSoC6\pdl\rtos\FreeRTOS\9.0.0\Source/event_groups.c **** 			{
 389:Generated_Source\PSoC6\pdl\rtos\FreeRTOS\9.0.0\Source/event_groups.c **** 				uxControlBits |= eventWAIT_FOR_ALL_BITS;
 473              		.loc 1 389 0
 474 00b4 BB6A     		ldr	r3, [r7, #40]
 475 00b6 43F08063 		orr	r3, r3, #67108864
 476 00ba BB62     		str	r3, [r7, #40]
 477              	.L40:
 390:Generated_Source\PSoC6\pdl\rtos\FreeRTOS\9.0.0\Source/event_groups.c **** 			}
 391:Generated_Source\PSoC6\pdl\rtos\FreeRTOS\9.0.0\Source/event_groups.c **** 			else
 392:Generated_Source\PSoC6\pdl\rtos\FreeRTOS\9.0.0\Source/event_groups.c **** 			{
 393:Generated_Source\PSoC6\pdl\rtos\FreeRTOS\9.0.0\Source/event_groups.c **** 				mtCOVERAGE_TEST_MARKER();
 394:Generated_Source\PSoC6\pdl\rtos\FreeRTOS\9.0.0\Source/event_groups.c **** 			}
 395:Generated_Source\PSoC6\pdl\rtos\FreeRTOS\9.0.0\Source/event_groups.c **** 
 396:Generated_Source\PSoC6\pdl\rtos\FreeRTOS\9.0.0\Source/event_groups.c **** 			/* Store the bits that the calling task is waiting for in the
 397:Generated_Source\PSoC6\pdl\rtos\FreeRTOS\9.0.0\Source/event_groups.c **** 			task's event list item so the kernel knows when a match is
 398:Generated_Source\PSoC6\pdl\rtos\FreeRTOS\9.0.0\Source/event_groups.c **** 			found.  Then enter the blocked state. */
 399:Generated_Source\PSoC6\pdl\rtos\FreeRTOS\9.0.0\Source/event_groups.c **** 			vTaskPlaceOnUnorderedEventList( &( pxEventBits->xTasksWaitingForBits ), ( uxBitsToWaitFor | uxCo
 478              		.loc 1 399 0
 479 00bc 7B6A     		ldr	r3, [r7, #36]
 480 00be 181D     		adds	r0, r3, #4
 481 00c0 BA68     		ldr	r2, [r7, #8]
 482 00c2 BB6A     		ldr	r3, [r7, #40]
 483 00c4 1343     		orrs	r3, r3, r2
 484 00c6 BA6B     		ldr	r2, [r7, #56]
 485 00c8 1946     		mov	r1, r3
 486 00ca FFF7FEFF 		bl	vTaskPlaceOnUnorderedEventList
 400:Generated_Source\PSoC6\pdl\rtos\FreeRTOS\9.0.0\Source/event_groups.c **** 
 401:Generated_Source\PSoC6\pdl\rtos\FreeRTOS\9.0.0\Source/event_groups.c **** 			/* This is obsolete as it will get set after the task unblocks, but
 402:Generated_Source\PSoC6\pdl\rtos\FreeRTOS\9.0.0\Source/event_groups.c **** 			some compilers mistakenly generate a warning about the variable
 403:Generated_Source\PSoC6\pdl\rtos\FreeRTOS\9.0.0\Source/event_groups.c **** 			being returned without being set if it is not done. */
 404:Generated_Source\PSoC6\pdl\rtos\FreeRTOS\9.0.0\Source/event_groups.c **** 			uxReturn = 0;
 487              		.loc 1 404 0
 488 00ce 0023     		movs	r3, #0
 489 00d0 FB62     		str	r3, [r7, #44]
 490              	.L37:
 491              	.LBE6:
 405:Generated_Source\PSoC6\pdl\rtos\FreeRTOS\9.0.0\Source/event_groups.c **** 
 406:Generated_Source\PSoC6\pdl\rtos\FreeRTOS\9.0.0\Source/event_groups.c **** 			traceEVENT_GROUP_WAIT_BITS_BLOCK( xEventGroup, uxBitsToWaitFor );
 407:Generated_Source\PSoC6\pdl\rtos\FreeRTOS\9.0.0\Source/event_groups.c **** 		}
 408:Generated_Source\PSoC6\pdl\rtos\FreeRTOS\9.0.0\Source/event_groups.c **** 	}
 409:Generated_Source\PSoC6\pdl\rtos\FreeRTOS\9.0.0\Source/event_groups.c **** 	xAlreadyYielded = xTaskResumeAll();
 492              		.loc 1 409 0
 493 00d2 FFF7FEFF 		bl	xTaskResumeAll
 494 00d6 7861     		str	r0, [r7, #20]
 410:Generated_Source\PSoC6\pdl\rtos\FreeRTOS\9.0.0\Source/event_groups.c **** 
 411:Generated_Source\PSoC6\pdl\rtos\FreeRTOS\9.0.0\Source/event_groups.c **** 	if( xTicksToWait != ( TickType_t ) 0 )
 495              		.loc 1 411 0
 496 00d8 BB6B     		ldr	r3, [r7, #56]
 497 00da 002B     		cmp	r3, #0
 498 00dc 31D0     		beq	.L41
 412:Generated_Source\PSoC6\pdl\rtos\FreeRTOS\9.0.0\Source/event_groups.c **** 	{
 413:Generated_Source\PSoC6\pdl\rtos\FreeRTOS\9.0.0\Source/event_groups.c **** 		if( xAlreadyYielded == pdFALSE )
 499              		.loc 1 413 0
ARM GAS  C:\Users\ikomb\AppData\Local\Temp\ccjR8mjn.s 			page 17


 500 00de 7B69     		ldr	r3, [r7, #20]
 501 00e0 002B     		cmp	r3, #0
 502 00e2 07D1     		bne	.L42
 414:Generated_Source\PSoC6\pdl\rtos\FreeRTOS\9.0.0\Source/event_groups.c **** 		{
 415:Generated_Source\PSoC6\pdl\rtos\FreeRTOS\9.0.0\Source/event_groups.c **** 			portYIELD_WITHIN_API();
 503              		.loc 1 415 0
 504 00e4 194B     		ldr	r3, .L46
 505 00e6 4FF08052 		mov	r2, #268435456
 506 00ea 1A60     		str	r2, [r3]
 507              		.syntax unified
 508              	@ 415 "Generated_Source\PSoC6\pdl\rtos\FreeRTOS\9.0.0\Source\event_groups.c" 1
 509 00ec BFF34F8F 		dsb
 510              	@ 0 "" 2
 511              	@ 415 "Generated_Source\PSoC6\pdl\rtos\FreeRTOS\9.0.0\Source\event_groups.c" 1
 512 00f0 BFF36F8F 		isb
 513              	@ 0 "" 2
 514              		.thumb
 515              		.syntax unified
 516              	.L42:
 416:Generated_Source\PSoC6\pdl\rtos\FreeRTOS\9.0.0\Source/event_groups.c **** 		}
 417:Generated_Source\PSoC6\pdl\rtos\FreeRTOS\9.0.0\Source/event_groups.c **** 		else
 418:Generated_Source\PSoC6\pdl\rtos\FreeRTOS\9.0.0\Source/event_groups.c **** 		{
 419:Generated_Source\PSoC6\pdl\rtos\FreeRTOS\9.0.0\Source/event_groups.c **** 			mtCOVERAGE_TEST_MARKER();
 420:Generated_Source\PSoC6\pdl\rtos\FreeRTOS\9.0.0\Source/event_groups.c **** 		}
 421:Generated_Source\PSoC6\pdl\rtos\FreeRTOS\9.0.0\Source/event_groups.c **** 
 422:Generated_Source\PSoC6\pdl\rtos\FreeRTOS\9.0.0\Source/event_groups.c **** 		/* The task blocked to wait for its required bits to be set - at this
 423:Generated_Source\PSoC6\pdl\rtos\FreeRTOS\9.0.0\Source/event_groups.c **** 		point either the required bits were set or the block time expired.  If
 424:Generated_Source\PSoC6\pdl\rtos\FreeRTOS\9.0.0\Source/event_groups.c **** 		the required bits were set they will have been stored in the task's
 425:Generated_Source\PSoC6\pdl\rtos\FreeRTOS\9.0.0\Source/event_groups.c **** 		event list item, and they should now be retrieved then cleared. */
 426:Generated_Source\PSoC6\pdl\rtos\FreeRTOS\9.0.0\Source/event_groups.c **** 		uxReturn = uxTaskResetEventItemValue();
 517              		.loc 1 426 0
 518 00f4 FFF7FEFF 		bl	uxTaskResetEventItemValue
 519 00f8 F862     		str	r0, [r7, #44]
 427:Generated_Source\PSoC6\pdl\rtos\FreeRTOS\9.0.0\Source/event_groups.c **** 
 428:Generated_Source\PSoC6\pdl\rtos\FreeRTOS\9.0.0\Source/event_groups.c **** 		if( ( uxReturn & eventUNBLOCKED_DUE_TO_BIT_SET ) == ( EventBits_t ) 0 )
 520              		.loc 1 428 0
 521 00fa FB6A     		ldr	r3, [r7, #44]
 522 00fc 03F00073 		and	r3, r3, #33554432
 523 0100 002B     		cmp	r3, #0
 524 0102 1AD1     		bne	.L43
 429:Generated_Source\PSoC6\pdl\rtos\FreeRTOS\9.0.0\Source/event_groups.c **** 		{
 430:Generated_Source\PSoC6\pdl\rtos\FreeRTOS\9.0.0\Source/event_groups.c **** 			taskENTER_CRITICAL();
 525              		.loc 1 430 0
 526 0104 FFF7FEFF 		bl	vPortEnterCritical
 431:Generated_Source\PSoC6\pdl\rtos\FreeRTOS\9.0.0\Source/event_groups.c **** 			{
 432:Generated_Source\PSoC6\pdl\rtos\FreeRTOS\9.0.0\Source/event_groups.c **** 				/* The task timed out, just return the current event bit value. */
 433:Generated_Source\PSoC6\pdl\rtos\FreeRTOS\9.0.0\Source/event_groups.c **** 				uxReturn = pxEventBits->uxEventBits;
 527              		.loc 1 433 0
 528 0108 7B6A     		ldr	r3, [r7, #36]
 529 010a 1B68     		ldr	r3, [r3]
 530 010c FB62     		str	r3, [r7, #44]
 434:Generated_Source\PSoC6\pdl\rtos\FreeRTOS\9.0.0\Source/event_groups.c **** 
 435:Generated_Source\PSoC6\pdl\rtos\FreeRTOS\9.0.0\Source/event_groups.c **** 				/* It is possible that the event bits were updated between this
 436:Generated_Source\PSoC6\pdl\rtos\FreeRTOS\9.0.0\Source/event_groups.c **** 				task leaving the Blocked state and running again. */
 437:Generated_Source\PSoC6\pdl\rtos\FreeRTOS\9.0.0\Source/event_groups.c **** 				if( prvTestWaitCondition( uxReturn, uxBitsToWaitFor, xWaitForAllBits ) != pdFALSE )
 531              		.loc 1 437 0
 532 010e 3A68     		ldr	r2, [r7]
ARM GAS  C:\Users\ikomb\AppData\Local\Temp\ccjR8mjn.s 			page 18


 533 0110 B968     		ldr	r1, [r7, #8]
 534 0112 F86A     		ldr	r0, [r7, #44]
 535 0114 FFF7FEFF 		bl	prvTestWaitCondition
 536 0118 0346     		mov	r3, r0
 537 011a 002B     		cmp	r3, #0
 538 011c 09D0     		beq	.L44
 438:Generated_Source\PSoC6\pdl\rtos\FreeRTOS\9.0.0\Source/event_groups.c **** 				{
 439:Generated_Source\PSoC6\pdl\rtos\FreeRTOS\9.0.0\Source/event_groups.c **** 					if( xClearOnExit != pdFALSE )
 539              		.loc 1 439 0
 540 011e 7B68     		ldr	r3, [r7, #4]
 541 0120 002B     		cmp	r3, #0
 542 0122 06D0     		beq	.L44
 440:Generated_Source\PSoC6\pdl\rtos\FreeRTOS\9.0.0\Source/event_groups.c **** 					{
 441:Generated_Source\PSoC6\pdl\rtos\FreeRTOS\9.0.0\Source/event_groups.c **** 						pxEventBits->uxEventBits &= ~uxBitsToWaitFor;
 543              		.loc 1 441 0
 544 0124 7B6A     		ldr	r3, [r7, #36]
 545 0126 1A68     		ldr	r2, [r3]
 546 0128 BB68     		ldr	r3, [r7, #8]
 547 012a DB43     		mvns	r3, r3
 548 012c 1A40     		ands	r2, r2, r3
 549 012e 7B6A     		ldr	r3, [r7, #36]
 550 0130 1A60     		str	r2, [r3]
 551              	.L44:
 442:Generated_Source\PSoC6\pdl\rtos\FreeRTOS\9.0.0\Source/event_groups.c **** 					}
 443:Generated_Source\PSoC6\pdl\rtos\FreeRTOS\9.0.0\Source/event_groups.c **** 					else
 444:Generated_Source\PSoC6\pdl\rtos\FreeRTOS\9.0.0\Source/event_groups.c **** 					{
 445:Generated_Source\PSoC6\pdl\rtos\FreeRTOS\9.0.0\Source/event_groups.c **** 						mtCOVERAGE_TEST_MARKER();
 446:Generated_Source\PSoC6\pdl\rtos\FreeRTOS\9.0.0\Source/event_groups.c **** 					}
 447:Generated_Source\PSoC6\pdl\rtos\FreeRTOS\9.0.0\Source/event_groups.c **** 				}
 448:Generated_Source\PSoC6\pdl\rtos\FreeRTOS\9.0.0\Source/event_groups.c **** 				else
 449:Generated_Source\PSoC6\pdl\rtos\FreeRTOS\9.0.0\Source/event_groups.c **** 				{
 450:Generated_Source\PSoC6\pdl\rtos\FreeRTOS\9.0.0\Source/event_groups.c **** 					mtCOVERAGE_TEST_MARKER();
 451:Generated_Source\PSoC6\pdl\rtos\FreeRTOS\9.0.0\Source/event_groups.c **** 				}
 452:Generated_Source\PSoC6\pdl\rtos\FreeRTOS\9.0.0\Source/event_groups.c **** 			}
 453:Generated_Source\PSoC6\pdl\rtos\FreeRTOS\9.0.0\Source/event_groups.c **** 			taskEXIT_CRITICAL();
 552              		.loc 1 453 0
 553 0132 FFF7FEFF 		bl	vPortExitCritical
 454:Generated_Source\PSoC6\pdl\rtos\FreeRTOS\9.0.0\Source/event_groups.c **** 
 455:Generated_Source\PSoC6\pdl\rtos\FreeRTOS\9.0.0\Source/event_groups.c **** 			/* Prevent compiler warnings when trace macros are not used. */
 456:Generated_Source\PSoC6\pdl\rtos\FreeRTOS\9.0.0\Source/event_groups.c **** 			xTimeoutOccurred = pdFALSE;
 554              		.loc 1 456 0
 555 0136 0023     		movs	r3, #0
 556 0138 3B62     		str	r3, [r7, #32]
 557              	.L43:
 457:Generated_Source\PSoC6\pdl\rtos\FreeRTOS\9.0.0\Source/event_groups.c **** 		}
 458:Generated_Source\PSoC6\pdl\rtos\FreeRTOS\9.0.0\Source/event_groups.c **** 		else
 459:Generated_Source\PSoC6\pdl\rtos\FreeRTOS\9.0.0\Source/event_groups.c **** 		{
 460:Generated_Source\PSoC6\pdl\rtos\FreeRTOS\9.0.0\Source/event_groups.c **** 			/* The task unblocked because the bits were set. */
 461:Generated_Source\PSoC6\pdl\rtos\FreeRTOS\9.0.0\Source/event_groups.c **** 		}
 462:Generated_Source\PSoC6\pdl\rtos\FreeRTOS\9.0.0\Source/event_groups.c **** 
 463:Generated_Source\PSoC6\pdl\rtos\FreeRTOS\9.0.0\Source/event_groups.c **** 		/* The task blocked so control bits may have been set. */
 464:Generated_Source\PSoC6\pdl\rtos\FreeRTOS\9.0.0\Source/event_groups.c **** 		uxReturn &= ~eventEVENT_BITS_CONTROL_BYTES;
 558              		.loc 1 464 0
 559 013a FB6A     		ldr	r3, [r7, #44]
 560 013c 23F07F43 		bic	r3, r3, #-16777216
 561 0140 FB62     		str	r3, [r7, #44]
 562              	.L41:
ARM GAS  C:\Users\ikomb\AppData\Local\Temp\ccjR8mjn.s 			page 19


 465:Generated_Source\PSoC6\pdl\rtos\FreeRTOS\9.0.0\Source/event_groups.c **** 	}
 466:Generated_Source\PSoC6\pdl\rtos\FreeRTOS\9.0.0\Source/event_groups.c **** 	traceEVENT_GROUP_WAIT_BITS_END( xEventGroup, uxBitsToWaitFor, xTimeoutOccurred );
 467:Generated_Source\PSoC6\pdl\rtos\FreeRTOS\9.0.0\Source/event_groups.c **** 
 468:Generated_Source\PSoC6\pdl\rtos\FreeRTOS\9.0.0\Source/event_groups.c **** 	return uxReturn;
 563              		.loc 1 468 0
 564 0142 FB6A     		ldr	r3, [r7, #44]
 469:Generated_Source\PSoC6\pdl\rtos\FreeRTOS\9.0.0\Source/event_groups.c **** }
 565              		.loc 1 469 0
 566 0144 1846     		mov	r0, r3
 567 0146 3037     		adds	r7, r7, #48
 568              		.cfi_def_cfa_offset 8
 569 0148 BD46     		mov	sp, r7
 570              		.cfi_def_cfa_register 13
 571              		@ sp needed
 572 014a 80BD     		pop	{r7, pc}
 573              	.L47:
 574              		.align	2
 575              	.L46:
 576 014c 04ED00E0 		.word	-536810236
 577              		.cfi_endproc
 578              	.LFE131:
 579              		.size	xEventGroupWaitBits, .-xEventGroupWaitBits
 580              		.section	.text.xEventGroupClearBits,"ax",%progbits
 581              		.align	2
 582              		.global	xEventGroupClearBits
 583              		.thumb
 584              		.thumb_func
 585              		.type	xEventGroupClearBits, %function
 586              	xEventGroupClearBits:
 587              	.LFB132:
 470:Generated_Source\PSoC6\pdl\rtos\FreeRTOS\9.0.0\Source/event_groups.c **** /*-----------------------------------------------------------*/
 471:Generated_Source\PSoC6\pdl\rtos\FreeRTOS\9.0.0\Source/event_groups.c **** 
 472:Generated_Source\PSoC6\pdl\rtos\FreeRTOS\9.0.0\Source/event_groups.c **** EventBits_t xEventGroupClearBits( EventGroupHandle_t xEventGroup, const EventBits_t uxBitsToClear )
 473:Generated_Source\PSoC6\pdl\rtos\FreeRTOS\9.0.0\Source/event_groups.c **** {
 588              		.loc 1 473 0
 589              		.cfi_startproc
 590              		@ args = 0, pretend = 0, frame = 16
 591              		@ frame_needed = 1, uses_anonymous_args = 0
 592 0000 80B5     		push	{r7, lr}
 593              		.cfi_def_cfa_offset 8
 594              		.cfi_offset 7, -8
 595              		.cfi_offset 14, -4
 596 0002 84B0     		sub	sp, sp, #16
 597              		.cfi_def_cfa_offset 24
 598 0004 00AF     		add	r7, sp, #0
 599              		.cfi_def_cfa_register 7
 600 0006 7860     		str	r0, [r7, #4]
 601 0008 3960     		str	r1, [r7]
 474:Generated_Source\PSoC6\pdl\rtos\FreeRTOS\9.0.0\Source/event_groups.c **** EventGroup_t *pxEventBits = ( EventGroup_t * ) xEventGroup;
 602              		.loc 1 474 0
 603 000a 7B68     		ldr	r3, [r7, #4]
 604 000c FB60     		str	r3, [r7, #12]
 475:Generated_Source\PSoC6\pdl\rtos\FreeRTOS\9.0.0\Source/event_groups.c **** EventBits_t uxReturn;
 476:Generated_Source\PSoC6\pdl\rtos\FreeRTOS\9.0.0\Source/event_groups.c **** 
 477:Generated_Source\PSoC6\pdl\rtos\FreeRTOS\9.0.0\Source/event_groups.c **** 	/* Check the user is not attempting to clear the bits used by the kernel
 478:Generated_Source\PSoC6\pdl\rtos\FreeRTOS\9.0.0\Source/event_groups.c **** 	itself. */
 479:Generated_Source\PSoC6\pdl\rtos\FreeRTOS\9.0.0\Source/event_groups.c **** 	configASSERT( xEventGroup );
ARM GAS  C:\Users\ikomb\AppData\Local\Temp\ccjR8mjn.s 			page 20


 605              		.loc 1 479 0
 606 000e 7B68     		ldr	r3, [r7, #4]
 607 0010 002B     		cmp	r3, #0
 608 0012 01D1     		bne	.L49
 609              		.loc 1 479 0 is_stmt 0 discriminator 1
 610              		.syntax unified
 611              	@ 479 "Generated_Source\PSoC6\pdl\rtos\FreeRTOS\9.0.0\Source\event_groups.c" 1
 612 0014 72B6     		 cpsid i 
 613              	@ 0 "" 2
 614              		.thumb
 615              		.syntax unified
 616              	.L50:
 617 0016 FEE7     		b	.L50
 618              	.L49:
 480:Generated_Source\PSoC6\pdl\rtos\FreeRTOS\9.0.0\Source/event_groups.c **** 	configASSERT( ( uxBitsToClear & eventEVENT_BITS_CONTROL_BYTES ) == 0 );
 619              		.loc 1 480 0 is_stmt 1
 620 0018 3B68     		ldr	r3, [r7]
 621 001a 03F07F43 		and	r3, r3, #-16777216
 622 001e 002B     		cmp	r3, #0
 623 0020 01D0     		beq	.L51
 624              		.loc 1 480 0 is_stmt 0 discriminator 1
 625              		.syntax unified
 626              	@ 480 "Generated_Source\PSoC6\pdl\rtos\FreeRTOS\9.0.0\Source\event_groups.c" 1
 627 0022 72B6     		 cpsid i 
 628              	@ 0 "" 2
 629              		.thumb
 630              		.syntax unified
 631              	.L52:
 632              		.loc 1 480 0 discriminator 2
 633 0024 FEE7     		b	.L52
 634              	.L51:
 481:Generated_Source\PSoC6\pdl\rtos\FreeRTOS\9.0.0\Source/event_groups.c **** 
 482:Generated_Source\PSoC6\pdl\rtos\FreeRTOS\9.0.0\Source/event_groups.c **** 	taskENTER_CRITICAL();
 635              		.loc 1 482 0 is_stmt 1
 636 0026 FFF7FEFF 		bl	vPortEnterCritical
 483:Generated_Source\PSoC6\pdl\rtos\FreeRTOS\9.0.0\Source/event_groups.c **** 	{
 484:Generated_Source\PSoC6\pdl\rtos\FreeRTOS\9.0.0\Source/event_groups.c **** 		traceEVENT_GROUP_CLEAR_BITS( xEventGroup, uxBitsToClear );
 485:Generated_Source\PSoC6\pdl\rtos\FreeRTOS\9.0.0\Source/event_groups.c **** 
 486:Generated_Source\PSoC6\pdl\rtos\FreeRTOS\9.0.0\Source/event_groups.c **** 		/* The value returned is the event group value prior to the bits being
 487:Generated_Source\PSoC6\pdl\rtos\FreeRTOS\9.0.0\Source/event_groups.c **** 		cleared. */
 488:Generated_Source\PSoC6\pdl\rtos\FreeRTOS\9.0.0\Source/event_groups.c **** 		uxReturn = pxEventBits->uxEventBits;
 637              		.loc 1 488 0
 638 002a FB68     		ldr	r3, [r7, #12]
 639 002c 1B68     		ldr	r3, [r3]
 640 002e BB60     		str	r3, [r7, #8]
 489:Generated_Source\PSoC6\pdl\rtos\FreeRTOS\9.0.0\Source/event_groups.c **** 
 490:Generated_Source\PSoC6\pdl\rtos\FreeRTOS\9.0.0\Source/event_groups.c **** 		/* Clear the bits. */
 491:Generated_Source\PSoC6\pdl\rtos\FreeRTOS\9.0.0\Source/event_groups.c **** 		pxEventBits->uxEventBits &= ~uxBitsToClear;
 641              		.loc 1 491 0
 642 0030 FB68     		ldr	r3, [r7, #12]
 643 0032 1A68     		ldr	r2, [r3]
 644 0034 3B68     		ldr	r3, [r7]
 645 0036 DB43     		mvns	r3, r3
 646 0038 1A40     		ands	r2, r2, r3
 647 003a FB68     		ldr	r3, [r7, #12]
 648 003c 1A60     		str	r2, [r3]
 492:Generated_Source\PSoC6\pdl\rtos\FreeRTOS\9.0.0\Source/event_groups.c **** 	}
ARM GAS  C:\Users\ikomb\AppData\Local\Temp\ccjR8mjn.s 			page 21


 493:Generated_Source\PSoC6\pdl\rtos\FreeRTOS\9.0.0\Source/event_groups.c **** 	taskEXIT_CRITICAL();
 649              		.loc 1 493 0
 650 003e FFF7FEFF 		bl	vPortExitCritical
 494:Generated_Source\PSoC6\pdl\rtos\FreeRTOS\9.0.0\Source/event_groups.c **** 
 495:Generated_Source\PSoC6\pdl\rtos\FreeRTOS\9.0.0\Source/event_groups.c **** 	return uxReturn;
 651              		.loc 1 495 0
 652 0042 BB68     		ldr	r3, [r7, #8]
 496:Generated_Source\PSoC6\pdl\rtos\FreeRTOS\9.0.0\Source/event_groups.c **** }
 653              		.loc 1 496 0
 654 0044 1846     		mov	r0, r3
 655 0046 1037     		adds	r7, r7, #16
 656              		.cfi_def_cfa_offset 8
 657 0048 BD46     		mov	sp, r7
 658              		.cfi_def_cfa_register 13
 659              		@ sp needed
 660 004a 80BD     		pop	{r7, pc}
 661              		.cfi_endproc
 662              	.LFE132:
 663              		.size	xEventGroupClearBits, .-xEventGroupClearBits
 664              		.section	.text.xEventGroupGetBitsFromISR,"ax",%progbits
 665              		.align	2
 666              		.global	xEventGroupGetBitsFromISR
 667              		.thumb
 668              		.thumb_func
 669              		.type	xEventGroupGetBitsFromISR, %function
 670              	xEventGroupGetBitsFromISR:
 671              	.LFB133:
 497:Generated_Source\PSoC6\pdl\rtos\FreeRTOS\9.0.0\Source/event_groups.c **** /*-----------------------------------------------------------*/
 498:Generated_Source\PSoC6\pdl\rtos\FreeRTOS\9.0.0\Source/event_groups.c **** 
 499:Generated_Source\PSoC6\pdl\rtos\FreeRTOS\9.0.0\Source/event_groups.c **** #if ( ( configUSE_TRACE_FACILITY == 1 ) && ( INCLUDE_xTimerPendFunctionCall == 1 ) && ( configUSE_T
 500:Generated_Source\PSoC6\pdl\rtos\FreeRTOS\9.0.0\Source/event_groups.c **** 
 501:Generated_Source\PSoC6\pdl\rtos\FreeRTOS\9.0.0\Source/event_groups.c **** 	BaseType_t xEventGroupClearBitsFromISR( EventGroupHandle_t xEventGroup, const EventBits_t uxBitsTo
 502:Generated_Source\PSoC6\pdl\rtos\FreeRTOS\9.0.0\Source/event_groups.c **** 	{
 503:Generated_Source\PSoC6\pdl\rtos\FreeRTOS\9.0.0\Source/event_groups.c **** 		BaseType_t xReturn;
 504:Generated_Source\PSoC6\pdl\rtos\FreeRTOS\9.0.0\Source/event_groups.c **** 
 505:Generated_Source\PSoC6\pdl\rtos\FreeRTOS\9.0.0\Source/event_groups.c **** 		traceEVENT_GROUP_CLEAR_BITS_FROM_ISR( xEventGroup, uxBitsToClear );
 506:Generated_Source\PSoC6\pdl\rtos\FreeRTOS\9.0.0\Source/event_groups.c **** 		xReturn = xTimerPendFunctionCallFromISR( vEventGroupClearBitsCallback, ( void * ) xEventGroup, ( 
 507:Generated_Source\PSoC6\pdl\rtos\FreeRTOS\9.0.0\Source/event_groups.c **** 
 508:Generated_Source\PSoC6\pdl\rtos\FreeRTOS\9.0.0\Source/event_groups.c **** 		return xReturn;
 509:Generated_Source\PSoC6\pdl\rtos\FreeRTOS\9.0.0\Source/event_groups.c **** 	}
 510:Generated_Source\PSoC6\pdl\rtos\FreeRTOS\9.0.0\Source/event_groups.c **** 
 511:Generated_Source\PSoC6\pdl\rtos\FreeRTOS\9.0.0\Source/event_groups.c **** #endif
 512:Generated_Source\PSoC6\pdl\rtos\FreeRTOS\9.0.0\Source/event_groups.c **** /*-----------------------------------------------------------*/
 513:Generated_Source\PSoC6\pdl\rtos\FreeRTOS\9.0.0\Source/event_groups.c **** 
 514:Generated_Source\PSoC6\pdl\rtos\FreeRTOS\9.0.0\Source/event_groups.c **** EventBits_t xEventGroupGetBitsFromISR( EventGroupHandle_t xEventGroup )
 515:Generated_Source\PSoC6\pdl\rtos\FreeRTOS\9.0.0\Source/event_groups.c **** {
 672              		.loc 1 515 0
 673              		.cfi_startproc
 674              		@ args = 0, pretend = 0, frame = 32
 675              		@ frame_needed = 1, uses_anonymous_args = 0
 676              		@ link register save eliminated.
 677 0000 80B4     		push	{r7}
 678              		.cfi_def_cfa_offset 4
 679              		.cfi_offset 7, -4
 680 0002 89B0     		sub	sp, sp, #36
 681              		.cfi_def_cfa_offset 40
 682 0004 00AF     		add	r7, sp, #0
ARM GAS  C:\Users\ikomb\AppData\Local\Temp\ccjR8mjn.s 			page 22


 683              		.cfi_def_cfa_register 7
 684 0006 7860     		str	r0, [r7, #4]
 516:Generated_Source\PSoC6\pdl\rtos\FreeRTOS\9.0.0\Source/event_groups.c **** UBaseType_t uxSavedInterruptStatus;
 517:Generated_Source\PSoC6\pdl\rtos\FreeRTOS\9.0.0\Source/event_groups.c **** EventGroup_t *pxEventBits = ( EventGroup_t * ) xEventGroup;
 685              		.loc 1 517 0
 686 0008 7B68     		ldr	r3, [r7, #4]
 687 000a FB61     		str	r3, [r7, #28]
 688              	.LBB7:
 689              	.LBB8:
 690              		.file 2 "Generated_Source\\PSoC6\\pdl\\rtos/FreeRTOS/9.0.0/Source/portable/GCC/CM4F/portmacro.h"
   1:Generated_Source\PSoC6\pdl\rtos/FreeRTOS/9.0.0/Source/portable/GCC/CM4F/portmacro.h **** /*
   2:Generated_Source\PSoC6\pdl\rtos/FreeRTOS/9.0.0/Source/portable/GCC/CM4F/portmacro.h ****     FreeRTOS V9.0.0 - Copyright (C) 2016 Real Time Engineers Ltd.
   3:Generated_Source\PSoC6\pdl\rtos/FreeRTOS/9.0.0/Source/portable/GCC/CM4F/portmacro.h ****     All rights reserved
   4:Generated_Source\PSoC6\pdl\rtos/FreeRTOS/9.0.0/Source/portable/GCC/CM4F/portmacro.h **** 
   5:Generated_Source\PSoC6\pdl\rtos/FreeRTOS/9.0.0/Source/portable/GCC/CM4F/portmacro.h ****     VISIT http://www.FreeRTOS.org TO ENSURE YOU ARE USING THE LATEST VERSION.
   6:Generated_Source\PSoC6\pdl\rtos/FreeRTOS/9.0.0/Source/portable/GCC/CM4F/portmacro.h **** 
   7:Generated_Source\PSoC6\pdl\rtos/FreeRTOS/9.0.0/Source/portable/GCC/CM4F/portmacro.h ****     This file is part of the FreeRTOS distribution.
   8:Generated_Source\PSoC6\pdl\rtos/FreeRTOS/9.0.0/Source/portable/GCC/CM4F/portmacro.h **** 
   9:Generated_Source\PSoC6\pdl\rtos/FreeRTOS/9.0.0/Source/portable/GCC/CM4F/portmacro.h ****     FreeRTOS is free software; you can redistribute it and/or modify it under
  10:Generated_Source\PSoC6\pdl\rtos/FreeRTOS/9.0.0/Source/portable/GCC/CM4F/portmacro.h ****     the terms of the GNU General Public License (version 2) as published by the
  11:Generated_Source\PSoC6\pdl\rtos/FreeRTOS/9.0.0/Source/portable/GCC/CM4F/portmacro.h ****     Free Software Foundation >>>> AND MODIFIED BY <<<< the FreeRTOS exception.
  12:Generated_Source\PSoC6\pdl\rtos/FreeRTOS/9.0.0/Source/portable/GCC/CM4F/portmacro.h **** 
  13:Generated_Source\PSoC6\pdl\rtos/FreeRTOS/9.0.0/Source/portable/GCC/CM4F/portmacro.h ****     ***************************************************************************
  14:Generated_Source\PSoC6\pdl\rtos/FreeRTOS/9.0.0/Source/portable/GCC/CM4F/portmacro.h ****     >>!   NOTE: The modification to the GPL is included to allow you to     !<<
  15:Generated_Source\PSoC6\pdl\rtos/FreeRTOS/9.0.0/Source/portable/GCC/CM4F/portmacro.h ****     >>!   distribute a combined work that includes FreeRTOS without being   !<<
  16:Generated_Source\PSoC6\pdl\rtos/FreeRTOS/9.0.0/Source/portable/GCC/CM4F/portmacro.h ****     >>!   obliged to provide the source code for proprietary components     !<<
  17:Generated_Source\PSoC6\pdl\rtos/FreeRTOS/9.0.0/Source/portable/GCC/CM4F/portmacro.h ****     >>!   outside of the FreeRTOS kernel.                                   !<<
  18:Generated_Source\PSoC6\pdl\rtos/FreeRTOS/9.0.0/Source/portable/GCC/CM4F/portmacro.h ****     ***************************************************************************
  19:Generated_Source\PSoC6\pdl\rtos/FreeRTOS/9.0.0/Source/portable/GCC/CM4F/portmacro.h **** 
  20:Generated_Source\PSoC6\pdl\rtos/FreeRTOS/9.0.0/Source/portable/GCC/CM4F/portmacro.h ****     FreeRTOS is distributed in the hope that it will be useful, but WITHOUT ANY
  21:Generated_Source\PSoC6\pdl\rtos/FreeRTOS/9.0.0/Source/portable/GCC/CM4F/portmacro.h ****     WARRANTY; without even the implied warranty of MERCHANTABILITY or FITNESS
  22:Generated_Source\PSoC6\pdl\rtos/FreeRTOS/9.0.0/Source/portable/GCC/CM4F/portmacro.h ****     FOR A PARTICULAR PURPOSE.  Full license text is available on the following
  23:Generated_Source\PSoC6\pdl\rtos/FreeRTOS/9.0.0/Source/portable/GCC/CM4F/portmacro.h ****     link: http://www.freertos.org/a00114.html
  24:Generated_Source\PSoC6\pdl\rtos/FreeRTOS/9.0.0/Source/portable/GCC/CM4F/portmacro.h **** 
  25:Generated_Source\PSoC6\pdl\rtos/FreeRTOS/9.0.0/Source/portable/GCC/CM4F/portmacro.h ****     ***************************************************************************
  26:Generated_Source\PSoC6\pdl\rtos/FreeRTOS/9.0.0/Source/portable/GCC/CM4F/portmacro.h ****      *                                                                       *
  27:Generated_Source\PSoC6\pdl\rtos/FreeRTOS/9.0.0/Source/portable/GCC/CM4F/portmacro.h ****      *    FreeRTOS provides completely free yet professionally developed,    *
  28:Generated_Source\PSoC6\pdl\rtos/FreeRTOS/9.0.0/Source/portable/GCC/CM4F/portmacro.h ****      *    robust, strictly quality controlled, supported, and cross          *
  29:Generated_Source\PSoC6\pdl\rtos/FreeRTOS/9.0.0/Source/portable/GCC/CM4F/portmacro.h ****      *    platform software that is more than just the market leader, it     *
  30:Generated_Source\PSoC6\pdl\rtos/FreeRTOS/9.0.0/Source/portable/GCC/CM4F/portmacro.h ****      *    is the industry's de facto standard.                               *
  31:Generated_Source\PSoC6\pdl\rtos/FreeRTOS/9.0.0/Source/portable/GCC/CM4F/portmacro.h ****      *                                                                       *
  32:Generated_Source\PSoC6\pdl\rtos/FreeRTOS/9.0.0/Source/portable/GCC/CM4F/portmacro.h ****      *    Help yourself get started quickly while simultaneously helping     *
  33:Generated_Source\PSoC6\pdl\rtos/FreeRTOS/9.0.0/Source/portable/GCC/CM4F/portmacro.h ****      *    to support the FreeRTOS project by purchasing a FreeRTOS           *
  34:Generated_Source\PSoC6\pdl\rtos/FreeRTOS/9.0.0/Source/portable/GCC/CM4F/portmacro.h ****      *    tutorial book, reference manual, or both:                          *
  35:Generated_Source\PSoC6\pdl\rtos/FreeRTOS/9.0.0/Source/portable/GCC/CM4F/portmacro.h ****      *    http://www.FreeRTOS.org/Documentation                              *
  36:Generated_Source\PSoC6\pdl\rtos/FreeRTOS/9.0.0/Source/portable/GCC/CM4F/portmacro.h ****      *                                                                       *
  37:Generated_Source\PSoC6\pdl\rtos/FreeRTOS/9.0.0/Source/portable/GCC/CM4F/portmacro.h ****     ***************************************************************************
  38:Generated_Source\PSoC6\pdl\rtos/FreeRTOS/9.0.0/Source/portable/GCC/CM4F/portmacro.h **** 
  39:Generated_Source\PSoC6\pdl\rtos/FreeRTOS/9.0.0/Source/portable/GCC/CM4F/portmacro.h ****     http://www.FreeRTOS.org/FAQHelp.html - Having a problem?  Start by reading
  40:Generated_Source\PSoC6\pdl\rtos/FreeRTOS/9.0.0/Source/portable/GCC/CM4F/portmacro.h ****     the FAQ page "My application does not run, what could be wrong?".  Have you
  41:Generated_Source\PSoC6\pdl\rtos/FreeRTOS/9.0.0/Source/portable/GCC/CM4F/portmacro.h ****     defined configASSERT()?
  42:Generated_Source\PSoC6\pdl\rtos/FreeRTOS/9.0.0/Source/portable/GCC/CM4F/portmacro.h **** 
  43:Generated_Source\PSoC6\pdl\rtos/FreeRTOS/9.0.0/Source/portable/GCC/CM4F/portmacro.h ****     http://www.FreeRTOS.org/support - In return for receiving this top quality
  44:Generated_Source\PSoC6\pdl\rtos/FreeRTOS/9.0.0/Source/portable/GCC/CM4F/portmacro.h ****     embedded software for free we request you assist our global community by
  45:Generated_Source\PSoC6\pdl\rtos/FreeRTOS/9.0.0/Source/portable/GCC/CM4F/portmacro.h ****     participating in the support forum.
  46:Generated_Source\PSoC6\pdl\rtos/FreeRTOS/9.0.0/Source/portable/GCC/CM4F/portmacro.h **** 
  47:Generated_Source\PSoC6\pdl\rtos/FreeRTOS/9.0.0/Source/portable/GCC/CM4F/portmacro.h ****     http://www.FreeRTOS.org/training - Investing in training allows your team to
ARM GAS  C:\Users\ikomb\AppData\Local\Temp\ccjR8mjn.s 			page 23


  48:Generated_Source\PSoC6\pdl\rtos/FreeRTOS/9.0.0/Source/portable/GCC/CM4F/portmacro.h ****     be as productive as possible as early as possible.  Now you can receive
  49:Generated_Source\PSoC6\pdl\rtos/FreeRTOS/9.0.0/Source/portable/GCC/CM4F/portmacro.h ****     FreeRTOS training directly from Richard Barry, CEO of Real Time Engineers
  50:Generated_Source\PSoC6\pdl\rtos/FreeRTOS/9.0.0/Source/portable/GCC/CM4F/portmacro.h ****     Ltd, and the world's leading authority on the world's leading RTOS.
  51:Generated_Source\PSoC6\pdl\rtos/FreeRTOS/9.0.0/Source/portable/GCC/CM4F/portmacro.h **** 
  52:Generated_Source\PSoC6\pdl\rtos/FreeRTOS/9.0.0/Source/portable/GCC/CM4F/portmacro.h ****     http://www.FreeRTOS.org/plus - A selection of FreeRTOS ecosystem products,
  53:Generated_Source\PSoC6\pdl\rtos/FreeRTOS/9.0.0/Source/portable/GCC/CM4F/portmacro.h ****     including FreeRTOS+Trace - an indispensable productivity tool, a DOS
  54:Generated_Source\PSoC6\pdl\rtos/FreeRTOS/9.0.0/Source/portable/GCC/CM4F/portmacro.h ****     compatible FAT file system, and our tiny thread aware UDP/IP stack.
  55:Generated_Source\PSoC6\pdl\rtos/FreeRTOS/9.0.0/Source/portable/GCC/CM4F/portmacro.h **** 
  56:Generated_Source\PSoC6\pdl\rtos/FreeRTOS/9.0.0/Source/portable/GCC/CM4F/portmacro.h ****     http://www.FreeRTOS.org/labs - Where new FreeRTOS products go to incubate.
  57:Generated_Source\PSoC6\pdl\rtos/FreeRTOS/9.0.0/Source/portable/GCC/CM4F/portmacro.h ****     Come and try FreeRTOS+TCP, our new open source TCP/IP stack for FreeRTOS.
  58:Generated_Source\PSoC6\pdl\rtos/FreeRTOS/9.0.0/Source/portable/GCC/CM4F/portmacro.h **** 
  59:Generated_Source\PSoC6\pdl\rtos/FreeRTOS/9.0.0/Source/portable/GCC/CM4F/portmacro.h ****     http://www.OpenRTOS.com - Real Time Engineers ltd. license FreeRTOS to High
  60:Generated_Source\PSoC6\pdl\rtos/FreeRTOS/9.0.0/Source/portable/GCC/CM4F/portmacro.h ****     Integrity Systems ltd. to sell under the OpenRTOS brand.  Low cost OpenRTOS
  61:Generated_Source\PSoC6\pdl\rtos/FreeRTOS/9.0.0/Source/portable/GCC/CM4F/portmacro.h ****     licenses offer ticketed support, indemnification and commercial middleware.
  62:Generated_Source\PSoC6\pdl\rtos/FreeRTOS/9.0.0/Source/portable/GCC/CM4F/portmacro.h **** 
  63:Generated_Source\PSoC6\pdl\rtos/FreeRTOS/9.0.0/Source/portable/GCC/CM4F/portmacro.h ****     http://www.SafeRTOS.com - High Integrity Systems also provide a safety
  64:Generated_Source\PSoC6\pdl\rtos/FreeRTOS/9.0.0/Source/portable/GCC/CM4F/portmacro.h ****     engineered and independently SIL3 certified version for use in safety and
  65:Generated_Source\PSoC6\pdl\rtos/FreeRTOS/9.0.0/Source/portable/GCC/CM4F/portmacro.h ****     mission critical applications that require provable dependability.
  66:Generated_Source\PSoC6\pdl\rtos/FreeRTOS/9.0.0/Source/portable/GCC/CM4F/portmacro.h **** 
  67:Generated_Source\PSoC6\pdl\rtos/FreeRTOS/9.0.0/Source/portable/GCC/CM4F/portmacro.h ****     1 tab == 4 spaces!
  68:Generated_Source\PSoC6\pdl\rtos/FreeRTOS/9.0.0/Source/portable/GCC/CM4F/portmacro.h **** */
  69:Generated_Source\PSoC6\pdl\rtos/FreeRTOS/9.0.0/Source/portable/GCC/CM4F/portmacro.h **** 
  70:Generated_Source\PSoC6\pdl\rtos/FreeRTOS/9.0.0/Source/portable/GCC/CM4F/portmacro.h **** 
  71:Generated_Source\PSoC6\pdl\rtos/FreeRTOS/9.0.0/Source/portable/GCC/CM4F/portmacro.h **** #ifndef PORTMACRO_H
  72:Generated_Source\PSoC6\pdl\rtos/FreeRTOS/9.0.0/Source/portable/GCC/CM4F/portmacro.h **** #define PORTMACRO_H
  73:Generated_Source\PSoC6\pdl\rtos/FreeRTOS/9.0.0/Source/portable/GCC/CM4F/portmacro.h **** 
  74:Generated_Source\PSoC6\pdl\rtos/FreeRTOS/9.0.0/Source/portable/GCC/CM4F/portmacro.h **** #ifdef __cplusplus
  75:Generated_Source\PSoC6\pdl\rtos/FreeRTOS/9.0.0/Source/portable/GCC/CM4F/portmacro.h **** extern "C" {
  76:Generated_Source\PSoC6\pdl\rtos/FreeRTOS/9.0.0/Source/portable/GCC/CM4F/portmacro.h **** #endif
  77:Generated_Source\PSoC6\pdl\rtos/FreeRTOS/9.0.0/Source/portable/GCC/CM4F/portmacro.h **** 
  78:Generated_Source\PSoC6\pdl\rtos/FreeRTOS/9.0.0/Source/portable/GCC/CM4F/portmacro.h **** /*-----------------------------------------------------------
  79:Generated_Source\PSoC6\pdl\rtos/FreeRTOS/9.0.0/Source/portable/GCC/CM4F/portmacro.h ****  * Port specific definitions.
  80:Generated_Source\PSoC6\pdl\rtos/FreeRTOS/9.0.0/Source/portable/GCC/CM4F/portmacro.h ****  *
  81:Generated_Source\PSoC6\pdl\rtos/FreeRTOS/9.0.0/Source/portable/GCC/CM4F/portmacro.h ****  * The settings in this file configure FreeRTOS correctly for the
  82:Generated_Source\PSoC6\pdl\rtos/FreeRTOS/9.0.0/Source/portable/GCC/CM4F/portmacro.h ****  * given hardware and compiler.
  83:Generated_Source\PSoC6\pdl\rtos/FreeRTOS/9.0.0/Source/portable/GCC/CM4F/portmacro.h ****  *
  84:Generated_Source\PSoC6\pdl\rtos/FreeRTOS/9.0.0/Source/portable/GCC/CM4F/portmacro.h ****  * These settings should not be altered.
  85:Generated_Source\PSoC6\pdl\rtos/FreeRTOS/9.0.0/Source/portable/GCC/CM4F/portmacro.h ****  *-----------------------------------------------------------
  86:Generated_Source\PSoC6\pdl\rtos/FreeRTOS/9.0.0/Source/portable/GCC/CM4F/portmacro.h ****  */
  87:Generated_Source\PSoC6\pdl\rtos/FreeRTOS/9.0.0/Source/portable/GCC/CM4F/portmacro.h **** 
  88:Generated_Source\PSoC6\pdl\rtos/FreeRTOS/9.0.0/Source/portable/GCC/CM4F/portmacro.h **** /* Type definitions. */
  89:Generated_Source\PSoC6\pdl\rtos/FreeRTOS/9.0.0/Source/portable/GCC/CM4F/portmacro.h **** #define portCHAR        char
  90:Generated_Source\PSoC6\pdl\rtos/FreeRTOS/9.0.0/Source/portable/GCC/CM4F/portmacro.h **** #define portFLOAT       float
  91:Generated_Source\PSoC6\pdl\rtos/FreeRTOS/9.0.0/Source/portable/GCC/CM4F/portmacro.h **** #define portDOUBLE      double
  92:Generated_Source\PSoC6\pdl\rtos/FreeRTOS/9.0.0/Source/portable/GCC/CM4F/portmacro.h **** #define portLONG        long
  93:Generated_Source\PSoC6\pdl\rtos/FreeRTOS/9.0.0/Source/portable/GCC/CM4F/portmacro.h **** #define portSHORT       short
  94:Generated_Source\PSoC6\pdl\rtos/FreeRTOS/9.0.0/Source/portable/GCC/CM4F/portmacro.h **** #define portSTACK_TYPE  uint32_t
  95:Generated_Source\PSoC6\pdl\rtos/FreeRTOS/9.0.0/Source/portable/GCC/CM4F/portmacro.h **** #define portBASE_TYPE   long
  96:Generated_Source\PSoC6\pdl\rtos/FreeRTOS/9.0.0/Source/portable/GCC/CM4F/portmacro.h **** 
  97:Generated_Source\PSoC6\pdl\rtos/FreeRTOS/9.0.0/Source/portable/GCC/CM4F/portmacro.h **** typedef portSTACK_TYPE StackType_t;
  98:Generated_Source\PSoC6\pdl\rtos/FreeRTOS/9.0.0/Source/portable/GCC/CM4F/portmacro.h **** typedef long BaseType_t;
  99:Generated_Source\PSoC6\pdl\rtos/FreeRTOS/9.0.0/Source/portable/GCC/CM4F/portmacro.h **** typedef unsigned long UBaseType_t;
 100:Generated_Source\PSoC6\pdl\rtos/FreeRTOS/9.0.0/Source/portable/GCC/CM4F/portmacro.h **** 
 101:Generated_Source\PSoC6\pdl\rtos/FreeRTOS/9.0.0/Source/portable/GCC/CM4F/portmacro.h **** #if( configUSE_16_BIT_TICKS == 1 )
 102:Generated_Source\PSoC6\pdl\rtos/FreeRTOS/9.0.0/Source/portable/GCC/CM4F/portmacro.h ****     typedef uint16_t TickType_t;
 103:Generated_Source\PSoC6\pdl\rtos/FreeRTOS/9.0.0/Source/portable/GCC/CM4F/portmacro.h ****     #define portMAX_DELAY ( TickType_t ) 0xffff
 104:Generated_Source\PSoC6\pdl\rtos/FreeRTOS/9.0.0/Source/portable/GCC/CM4F/portmacro.h **** #else
ARM GAS  C:\Users\ikomb\AppData\Local\Temp\ccjR8mjn.s 			page 24


 105:Generated_Source\PSoC6\pdl\rtos/FreeRTOS/9.0.0/Source/portable/GCC/CM4F/portmacro.h ****     typedef uint32_t TickType_t;
 106:Generated_Source\PSoC6\pdl\rtos/FreeRTOS/9.0.0/Source/portable/GCC/CM4F/portmacro.h ****     #define portMAX_DELAY ( TickType_t ) 0xffffffffUL
 107:Generated_Source\PSoC6\pdl\rtos/FreeRTOS/9.0.0/Source/portable/GCC/CM4F/portmacro.h **** 
 108:Generated_Source\PSoC6\pdl\rtos/FreeRTOS/9.0.0/Source/portable/GCC/CM4F/portmacro.h ****     /* 32-bit tick type on a 32-bit architecture, so reads of the tick count do
 109:Generated_Source\PSoC6\pdl\rtos/FreeRTOS/9.0.0/Source/portable/GCC/CM4F/portmacro.h ****     not need to be guarded with a critical section. */
 110:Generated_Source\PSoC6\pdl\rtos/FreeRTOS/9.0.0/Source/portable/GCC/CM4F/portmacro.h ****     #define portTICK_TYPE_IS_ATOMIC 1
 111:Generated_Source\PSoC6\pdl\rtos/FreeRTOS/9.0.0/Source/portable/GCC/CM4F/portmacro.h **** #endif
 112:Generated_Source\PSoC6\pdl\rtos/FreeRTOS/9.0.0/Source/portable/GCC/CM4F/portmacro.h **** /*-----------------------------------------------------------*/
 113:Generated_Source\PSoC6\pdl\rtos/FreeRTOS/9.0.0/Source/portable/GCC/CM4F/portmacro.h **** 
 114:Generated_Source\PSoC6\pdl\rtos/FreeRTOS/9.0.0/Source/portable/GCC/CM4F/portmacro.h **** /* Architecture specifics. */
 115:Generated_Source\PSoC6\pdl\rtos/FreeRTOS/9.0.0/Source/portable/GCC/CM4F/portmacro.h **** #define portSTACK_GROWTH              ( -1 )
 116:Generated_Source\PSoC6\pdl\rtos/FreeRTOS/9.0.0/Source/portable/GCC/CM4F/portmacro.h **** #define portTICK_PERIOD_MS            ( ( TickType_t ) 1000 / configTICK_RATE_HZ )
 117:Generated_Source\PSoC6\pdl\rtos/FreeRTOS/9.0.0/Source/portable/GCC/CM4F/portmacro.h **** #define portBYTE_ALIGNMENT            8
 118:Generated_Source\PSoC6\pdl\rtos/FreeRTOS/9.0.0/Source/portable/GCC/CM4F/portmacro.h **** /*-----------------------------------------------------------*/
 119:Generated_Source\PSoC6\pdl\rtos/FreeRTOS/9.0.0/Source/portable/GCC/CM4F/portmacro.h **** 
 120:Generated_Source\PSoC6\pdl\rtos/FreeRTOS/9.0.0/Source/portable/GCC/CM4F/portmacro.h **** 
 121:Generated_Source\PSoC6\pdl\rtos/FreeRTOS/9.0.0/Source/portable/GCC/CM4F/portmacro.h **** /* Scheduler utilities. */
 122:Generated_Source\PSoC6\pdl\rtos/FreeRTOS/9.0.0/Source/portable/GCC/CM4F/portmacro.h **** #define portYIELD()                                                            \
 123:Generated_Source\PSoC6\pdl\rtos/FreeRTOS/9.0.0/Source/portable/GCC/CM4F/portmacro.h **** {                                                                              \
 124:Generated_Source\PSoC6\pdl\rtos/FreeRTOS/9.0.0/Source/portable/GCC/CM4F/portmacro.h ****     /* Set a PendSV to request a context switch. */                            \
 125:Generated_Source\PSoC6\pdl\rtos/FreeRTOS/9.0.0/Source/portable/GCC/CM4F/portmacro.h ****     portNVIC_INT_CTRL_REG = portNVIC_PENDSVSET_BIT;                            \
 126:Generated_Source\PSoC6\pdl\rtos/FreeRTOS/9.0.0/Source/portable/GCC/CM4F/portmacro.h ****                                                                                \
 127:Generated_Source\PSoC6\pdl\rtos/FreeRTOS/9.0.0/Source/portable/GCC/CM4F/portmacro.h ****     /* Barriers are normally not required but do ensure the code is completely \
 128:Generated_Source\PSoC6\pdl\rtos/FreeRTOS/9.0.0/Source/portable/GCC/CM4F/portmacro.h ****     within the specified behaviour for the architecture. */                    \
 129:Generated_Source\PSoC6\pdl\rtos/FreeRTOS/9.0.0/Source/portable/GCC/CM4F/portmacro.h ****     __asm volatile( "dsb" );                                                   \
 130:Generated_Source\PSoC6\pdl\rtos/FreeRTOS/9.0.0/Source/portable/GCC/CM4F/portmacro.h ****     __asm volatile( "isb" );                                                   \
 131:Generated_Source\PSoC6\pdl\rtos/FreeRTOS/9.0.0/Source/portable/GCC/CM4F/portmacro.h **** }                                                                              \
 132:Generated_Source\PSoC6\pdl\rtos/FreeRTOS/9.0.0/Source/portable/GCC/CM4F/portmacro.h **** 
 133:Generated_Source\PSoC6\pdl\rtos/FreeRTOS/9.0.0/Source/portable/GCC/CM4F/portmacro.h **** #define portNVIC_INT_CTRL_REG         ( * ( ( volatile uint32_t * ) 0xe000ed04 ) )
 134:Generated_Source\PSoC6\pdl\rtos/FreeRTOS/9.0.0/Source/portable/GCC/CM4F/portmacro.h **** #define portNVIC_PENDSVSET_BIT        ( 1UL << 28UL )
 135:Generated_Source\PSoC6\pdl\rtos/FreeRTOS/9.0.0/Source/portable/GCC/CM4F/portmacro.h **** #define portEND_SWITCHING_ISR( xSwitchRequired ) if( xSwitchRequired != pdFALSE ) portYIELD()
 136:Generated_Source\PSoC6\pdl\rtos/FreeRTOS/9.0.0/Source/portable/GCC/CM4F/portmacro.h **** #define portYIELD_FROM_ISR( x )       portEND_SWITCHING_ISR( x )
 137:Generated_Source\PSoC6\pdl\rtos/FreeRTOS/9.0.0/Source/portable/GCC/CM4F/portmacro.h **** /*-----------------------------------------------------------*/
 138:Generated_Source\PSoC6\pdl\rtos/FreeRTOS/9.0.0/Source/portable/GCC/CM4F/portmacro.h **** 
 139:Generated_Source\PSoC6\pdl\rtos/FreeRTOS/9.0.0/Source/portable/GCC/CM4F/portmacro.h **** 
 140:Generated_Source\PSoC6\pdl\rtos/FreeRTOS/9.0.0/Source/portable/GCC/CM4F/portmacro.h **** /* Critical section management. */
 141:Generated_Source\PSoC6\pdl\rtos/FreeRTOS/9.0.0/Source/portable/GCC/CM4F/portmacro.h **** extern void vPortEnterCritical( void );
 142:Generated_Source\PSoC6\pdl\rtos/FreeRTOS/9.0.0/Source/portable/GCC/CM4F/portmacro.h **** extern void vPortExitCritical( void );
 143:Generated_Source\PSoC6\pdl\rtos/FreeRTOS/9.0.0/Source/portable/GCC/CM4F/portmacro.h **** #define portSET_INTERRUPT_MASK_FROM_ISR()       ulPortRaiseBASEPRI()
 144:Generated_Source\PSoC6\pdl\rtos/FreeRTOS/9.0.0/Source/portable/GCC/CM4F/portmacro.h **** #define portCLEAR_INTERRUPT_MASK_FROM_ISR(x)    vPortSetBASEPRI(x)
 145:Generated_Source\PSoC6\pdl\rtos/FreeRTOS/9.0.0/Source/portable/GCC/CM4F/portmacro.h **** #define portDISABLE_INTERRUPTS()                __asm volatile   ( " cpsid i " )
 146:Generated_Source\PSoC6\pdl\rtos/FreeRTOS/9.0.0/Source/portable/GCC/CM4F/portmacro.h **** #define portENABLE_INTERRUPTS()                 __asm volatile   ( " cpsie i " )
 147:Generated_Source\PSoC6\pdl\rtos/FreeRTOS/9.0.0/Source/portable/GCC/CM4F/portmacro.h **** #define portENTER_CRITICAL()                    vPortEnterCritical()
 148:Generated_Source\PSoC6\pdl\rtos/FreeRTOS/9.0.0/Source/portable/GCC/CM4F/portmacro.h **** #define portEXIT_CRITICAL()                     vPortExitCritical()
 149:Generated_Source\PSoC6\pdl\rtos/FreeRTOS/9.0.0/Source/portable/GCC/CM4F/portmacro.h **** 
 150:Generated_Source\PSoC6\pdl\rtos/FreeRTOS/9.0.0/Source/portable/GCC/CM4F/portmacro.h **** /*-----------------------------------------------------------*/
 151:Generated_Source\PSoC6\pdl\rtos/FreeRTOS/9.0.0/Source/portable/GCC/CM4F/portmacro.h **** 
 152:Generated_Source\PSoC6\pdl\rtos/FreeRTOS/9.0.0/Source/portable/GCC/CM4F/portmacro.h **** /* Task function macros as described on the FreeRTOS.org WEB site. */
 153:Generated_Source\PSoC6\pdl\rtos/FreeRTOS/9.0.0/Source/portable/GCC/CM4F/portmacro.h **** #define portTASK_FUNCTION_PROTO( vFunction, pvParameters ) void vFunction( void *pvParameters )
 154:Generated_Source\PSoC6\pdl\rtos/FreeRTOS/9.0.0/Source/portable/GCC/CM4F/portmacro.h **** #define portTASK_FUNCTION( vFunction, pvParameters ) void vFunction( void *pvParameters )
 155:Generated_Source\PSoC6\pdl\rtos/FreeRTOS/9.0.0/Source/portable/GCC/CM4F/portmacro.h **** 
 156:Generated_Source\PSoC6\pdl\rtos/FreeRTOS/9.0.0/Source/portable/GCC/CM4F/portmacro.h **** /*-----------------------------------------------------------*/
 157:Generated_Source\PSoC6\pdl\rtos/FreeRTOS/9.0.0/Source/portable/GCC/CM4F/portmacro.h **** 
 158:Generated_Source\PSoC6\pdl\rtos/FreeRTOS/9.0.0/Source/portable/GCC/CM4F/portmacro.h **** #ifdef configASSERT
 159:Generated_Source\PSoC6\pdl\rtos/FreeRTOS/9.0.0/Source/portable/GCC/CM4F/portmacro.h ****     void vPortValidateInterruptPriority( void );
 160:Generated_Source\PSoC6\pdl\rtos/FreeRTOS/9.0.0/Source/portable/GCC/CM4F/portmacro.h ****     #define portASSERT_IF_INTERRUPT_PRIORITY_INVALID()     vPortValidateInterruptPriority()
 161:Generated_Source\PSoC6\pdl\rtos/FreeRTOS/9.0.0/Source/portable/GCC/CM4F/portmacro.h **** #endif
ARM GAS  C:\Users\ikomb\AppData\Local\Temp\ccjR8mjn.s 			page 25


 162:Generated_Source\PSoC6\pdl\rtos/FreeRTOS/9.0.0/Source/portable/GCC/CM4F/portmacro.h **** 
 163:Generated_Source\PSoC6\pdl\rtos/FreeRTOS/9.0.0/Source/portable/GCC/CM4F/portmacro.h **** /* portNOP() is not required by this port. */
 164:Generated_Source\PSoC6\pdl\rtos/FreeRTOS/9.0.0/Source/portable/GCC/CM4F/portmacro.h **** #define portNOP()
 165:Generated_Source\PSoC6\pdl\rtos/FreeRTOS/9.0.0/Source/portable/GCC/CM4F/portmacro.h **** 
 166:Generated_Source\PSoC6\pdl\rtos/FreeRTOS/9.0.0/Source/portable/GCC/CM4F/portmacro.h **** #define portINLINE    __inline
 167:Generated_Source\PSoC6\pdl\rtos/FreeRTOS/9.0.0/Source/portable/GCC/CM4F/portmacro.h **** 
 168:Generated_Source\PSoC6\pdl\rtos/FreeRTOS/9.0.0/Source/portable/GCC/CM4F/portmacro.h **** #ifndef portFORCE_INLINE
 169:Generated_Source\PSoC6\pdl\rtos/FreeRTOS/9.0.0/Source/portable/GCC/CM4F/portmacro.h ****     #define portFORCE_INLINE inline __attribute__(( always_inline))
 170:Generated_Source\PSoC6\pdl\rtos/FreeRTOS/9.0.0/Source/portable/GCC/CM4F/portmacro.h **** #endif
 171:Generated_Source\PSoC6\pdl\rtos/FreeRTOS/9.0.0/Source/portable/GCC/CM4F/portmacro.h **** 
 172:Generated_Source\PSoC6\pdl\rtos/FreeRTOS/9.0.0/Source/portable/GCC/CM4F/portmacro.h **** /*-----------------------------------------------------------*/
 173:Generated_Source\PSoC6\pdl\rtos/FreeRTOS/9.0.0/Source/portable/GCC/CM4F/portmacro.h **** 
 174:Generated_Source\PSoC6\pdl\rtos/FreeRTOS/9.0.0/Source/portable/GCC/CM4F/portmacro.h **** portFORCE_INLINE static BaseType_t xPortIsInsideInterrupt( void )
 175:Generated_Source\PSoC6\pdl\rtos/FreeRTOS/9.0.0/Source/portable/GCC/CM4F/portmacro.h **** {
 176:Generated_Source\PSoC6\pdl\rtos/FreeRTOS/9.0.0/Source/portable/GCC/CM4F/portmacro.h **** uint32_t ulCurrentInterrupt;
 177:Generated_Source\PSoC6\pdl\rtos/FreeRTOS/9.0.0/Source/portable/GCC/CM4F/portmacro.h **** BaseType_t xReturn;
 178:Generated_Source\PSoC6\pdl\rtos/FreeRTOS/9.0.0/Source/portable/GCC/CM4F/portmacro.h **** 
 179:Generated_Source\PSoC6\pdl\rtos/FreeRTOS/9.0.0/Source/portable/GCC/CM4F/portmacro.h ****     /* Obtain the number of the currently executing interrupt. */
 180:Generated_Source\PSoC6\pdl\rtos/FreeRTOS/9.0.0/Source/portable/GCC/CM4F/portmacro.h ****     __asm volatile( "mrs %0, ipsr" : "=r"( ulCurrentInterrupt ) );
 181:Generated_Source\PSoC6\pdl\rtos/FreeRTOS/9.0.0/Source/portable/GCC/CM4F/portmacro.h **** 
 182:Generated_Source\PSoC6\pdl\rtos/FreeRTOS/9.0.0/Source/portable/GCC/CM4F/portmacro.h ****     if( ulCurrentInterrupt == 0 )
 183:Generated_Source\PSoC6\pdl\rtos/FreeRTOS/9.0.0/Source/portable/GCC/CM4F/portmacro.h ****     {
 184:Generated_Source\PSoC6\pdl\rtos/FreeRTOS/9.0.0/Source/portable/GCC/CM4F/portmacro.h ****         xReturn = pdFALSE;
 185:Generated_Source\PSoC6\pdl\rtos/FreeRTOS/9.0.0/Source/portable/GCC/CM4F/portmacro.h ****     }
 186:Generated_Source\PSoC6\pdl\rtos/FreeRTOS/9.0.0/Source/portable/GCC/CM4F/portmacro.h ****     else
 187:Generated_Source\PSoC6\pdl\rtos/FreeRTOS/9.0.0/Source/portable/GCC/CM4F/portmacro.h ****     {
 188:Generated_Source\PSoC6\pdl\rtos/FreeRTOS/9.0.0/Source/portable/GCC/CM4F/portmacro.h ****         xReturn = pdTRUE;
 189:Generated_Source\PSoC6\pdl\rtos/FreeRTOS/9.0.0/Source/portable/GCC/CM4F/portmacro.h ****     }
 190:Generated_Source\PSoC6\pdl\rtos/FreeRTOS/9.0.0/Source/portable/GCC/CM4F/portmacro.h **** 
 191:Generated_Source\PSoC6\pdl\rtos/FreeRTOS/9.0.0/Source/portable/GCC/CM4F/portmacro.h ****     return xReturn;
 192:Generated_Source\PSoC6\pdl\rtos/FreeRTOS/9.0.0/Source/portable/GCC/CM4F/portmacro.h **** }
 193:Generated_Source\PSoC6\pdl\rtos/FreeRTOS/9.0.0/Source/portable/GCC/CM4F/portmacro.h **** /*-----------------------------------------------------------*/
 194:Generated_Source\PSoC6\pdl\rtos/FreeRTOS/9.0.0/Source/portable/GCC/CM4F/portmacro.h **** 
 195:Generated_Source\PSoC6\pdl\rtos/FreeRTOS/9.0.0/Source/portable/GCC/CM4F/portmacro.h **** portFORCE_INLINE static void vPortRaiseBASEPRI( void )
 196:Generated_Source\PSoC6\pdl\rtos/FreeRTOS/9.0.0/Source/portable/GCC/CM4F/portmacro.h **** {
 197:Generated_Source\PSoC6\pdl\rtos/FreeRTOS/9.0.0/Source/portable/GCC/CM4F/portmacro.h **** uint32_t ulNewBASEPRI;
 198:Generated_Source\PSoC6\pdl\rtos/FreeRTOS/9.0.0/Source/portable/GCC/CM4F/portmacro.h **** 
 199:Generated_Source\PSoC6\pdl\rtos/FreeRTOS/9.0.0/Source/portable/GCC/CM4F/portmacro.h ****     __asm volatile
 200:Generated_Source\PSoC6\pdl\rtos/FreeRTOS/9.0.0/Source/portable/GCC/CM4F/portmacro.h ****     (
 201:Generated_Source\PSoC6\pdl\rtos/FreeRTOS/9.0.0/Source/portable/GCC/CM4F/portmacro.h ****         "    mov %0, %1                                                 \n" \
 202:Generated_Source\PSoC6\pdl\rtos/FreeRTOS/9.0.0/Source/portable/GCC/CM4F/portmacro.h ****         "    msr basepri, %0                                            \n" \
 203:Generated_Source\PSoC6\pdl\rtos/FreeRTOS/9.0.0/Source/portable/GCC/CM4F/portmacro.h ****         "    isb                                                        \n" \
 204:Generated_Source\PSoC6\pdl\rtos/FreeRTOS/9.0.0/Source/portable/GCC/CM4F/portmacro.h ****         "    dsb                                                        \n" \
 205:Generated_Source\PSoC6\pdl\rtos/FreeRTOS/9.0.0/Source/portable/GCC/CM4F/portmacro.h ****         :"=r" (ulNewBASEPRI) : "i" ( configMAX_SYSCALL_INTERRUPT_PRIORITY )
 206:Generated_Source\PSoC6\pdl\rtos/FreeRTOS/9.0.0/Source/portable/GCC/CM4F/portmacro.h ****     );
 207:Generated_Source\PSoC6\pdl\rtos/FreeRTOS/9.0.0/Source/portable/GCC/CM4F/portmacro.h **** }
 208:Generated_Source\PSoC6\pdl\rtos/FreeRTOS/9.0.0/Source/portable/GCC/CM4F/portmacro.h **** 
 209:Generated_Source\PSoC6\pdl\rtos/FreeRTOS/9.0.0/Source/portable/GCC/CM4F/portmacro.h **** /*-----------------------------------------------------------*/
 210:Generated_Source\PSoC6\pdl\rtos/FreeRTOS/9.0.0/Source/portable/GCC/CM4F/portmacro.h **** 
 211:Generated_Source\PSoC6\pdl\rtos/FreeRTOS/9.0.0/Source/portable/GCC/CM4F/portmacro.h **** portFORCE_INLINE static uint32_t ulPortRaiseBASEPRI( void )
 212:Generated_Source\PSoC6\pdl\rtos/FreeRTOS/9.0.0/Source/portable/GCC/CM4F/portmacro.h **** {
 213:Generated_Source\PSoC6\pdl\rtos/FreeRTOS/9.0.0/Source/portable/GCC/CM4F/portmacro.h **** uint32_t ulOriginalBASEPRI, ulNewBASEPRI;
 214:Generated_Source\PSoC6\pdl\rtos/FreeRTOS/9.0.0/Source/portable/GCC/CM4F/portmacro.h **** 
 215:Generated_Source\PSoC6\pdl\rtos/FreeRTOS/9.0.0/Source/portable/GCC/CM4F/portmacro.h ****     __asm volatile
 691              		.loc 2 215 0
 692              		.syntax unified
 693              	@ 215 "Generated_Source\PSoC6\pdl\rtos/FreeRTOS/9.0.0/Source/portable/GCC/CM4F/portmacro.h" 1
ARM GAS  C:\Users\ikomb\AppData\Local\Temp\ccjR8mjn.s 			page 26


 694 000c EFF31182 		    mrs r2, basepri                                            
 695 0010 4FF0BF03 	    mov r3, #191                                                 
 696 0014 83F31188 	    msr basepri, r3                                            
 697 0018 BFF36F8F 	    isb                                                        
 698 001c BFF34F8F 	    dsb                                                        
 699              	
 700              	@ 0 "" 2
 701              		.thumb
 702              		.syntax unified
 703 0020 3A61     		str	r2, [r7, #16]
 704 0022 BB60     		str	r3, [r7, #8]
 216:Generated_Source\PSoC6\pdl\rtos/FreeRTOS/9.0.0/Source/portable/GCC/CM4F/portmacro.h ****     (
 217:Generated_Source\PSoC6\pdl\rtos/FreeRTOS/9.0.0/Source/portable/GCC/CM4F/portmacro.h ****         "    mrs %0, basepri                                            \n" \
 218:Generated_Source\PSoC6\pdl\rtos/FreeRTOS/9.0.0/Source/portable/GCC/CM4F/portmacro.h ****         "    mov %1, %2                                                 \n" \
 219:Generated_Source\PSoC6\pdl\rtos/FreeRTOS/9.0.0/Source/portable/GCC/CM4F/portmacro.h ****         "    msr basepri, %1                                            \n" \
 220:Generated_Source\PSoC6\pdl\rtos/FreeRTOS/9.0.0/Source/portable/GCC/CM4F/portmacro.h ****         "    isb                                                        \n" \
 221:Generated_Source\PSoC6\pdl\rtos/FreeRTOS/9.0.0/Source/portable/GCC/CM4F/portmacro.h ****         "    dsb                                                        \n" \
 222:Generated_Source\PSoC6\pdl\rtos/FreeRTOS/9.0.0/Source/portable/GCC/CM4F/portmacro.h ****         :"=r" (ulOriginalBASEPRI), "=r" (ulNewBASEPRI) : "i" ( configMAX_SYSCALL_INTERRUPT_PRIORITY
 223:Generated_Source\PSoC6\pdl\rtos/FreeRTOS/9.0.0/Source/portable/GCC/CM4F/portmacro.h ****     );
 224:Generated_Source\PSoC6\pdl\rtos/FreeRTOS/9.0.0/Source/portable/GCC/CM4F/portmacro.h **** 
 225:Generated_Source\PSoC6\pdl\rtos/FreeRTOS/9.0.0/Source/portable/GCC/CM4F/portmacro.h ****     /* This return will not be reached but is necessary to prevent compiler
 226:Generated_Source\PSoC6\pdl\rtos/FreeRTOS/9.0.0/Source/portable/GCC/CM4F/portmacro.h ****     warnings. */
 227:Generated_Source\PSoC6\pdl\rtos/FreeRTOS/9.0.0/Source/portable/GCC/CM4F/portmacro.h ****     return ulOriginalBASEPRI;
 705              		.loc 2 227 0
 706 0024 3B69     		ldr	r3, [r7, #16]
 707              	.LBE8:
 708              	.LBE7:
 518:Generated_Source\PSoC6\pdl\rtos\FreeRTOS\9.0.0\Source/event_groups.c **** EventBits_t uxReturn;
 519:Generated_Source\PSoC6\pdl\rtos\FreeRTOS\9.0.0\Source/event_groups.c **** 
 520:Generated_Source\PSoC6\pdl\rtos\FreeRTOS\9.0.0\Source/event_groups.c **** 	uxSavedInterruptStatus = portSET_INTERRUPT_MASK_FROM_ISR();
 709              		.loc 1 520 0
 710 0026 BB61     		str	r3, [r7, #24]
 521:Generated_Source\PSoC6\pdl\rtos\FreeRTOS\9.0.0\Source/event_groups.c **** 	{
 522:Generated_Source\PSoC6\pdl\rtos\FreeRTOS\9.0.0\Source/event_groups.c **** 		uxReturn = pxEventBits->uxEventBits;
 711              		.loc 1 522 0
 712 0028 FB69     		ldr	r3, [r7, #28]
 713 002a 1B68     		ldr	r3, [r3]
 714 002c 7B61     		str	r3, [r7, #20]
 715 002e BB69     		ldr	r3, [r7, #24]
 716 0030 FB60     		str	r3, [r7, #12]
 717              	.LBB9:
 718              	.LBB10:
 228:Generated_Source\PSoC6\pdl\rtos/FreeRTOS/9.0.0/Source/portable/GCC/CM4F/portmacro.h **** }
 229:Generated_Source\PSoC6\pdl\rtos/FreeRTOS/9.0.0/Source/portable/GCC/CM4F/portmacro.h **** /*-----------------------------------------------------------*/
 230:Generated_Source\PSoC6\pdl\rtos/FreeRTOS/9.0.0/Source/portable/GCC/CM4F/portmacro.h **** 
 231:Generated_Source\PSoC6\pdl\rtos/FreeRTOS/9.0.0/Source/portable/GCC/CM4F/portmacro.h **** portFORCE_INLINE static void vPortSetBASEPRI( uint32_t ulNewMaskValue )
 232:Generated_Source\PSoC6\pdl\rtos/FreeRTOS/9.0.0/Source/portable/GCC/CM4F/portmacro.h **** {
 233:Generated_Source\PSoC6\pdl\rtos/FreeRTOS/9.0.0/Source/portable/GCC/CM4F/portmacro.h ****     __asm volatile
 719              		.loc 2 233 0
 720 0032 FB68     		ldr	r3, [r7, #12]
 721              		.syntax unified
 722              	@ 233 "Generated_Source\PSoC6\pdl\rtos/FreeRTOS/9.0.0/Source/portable/GCC/CM4F/portmacro.h" 1
 723 0034 83F31188 		    msr basepri, r3  
 724              	@ 0 "" 2
 725              		.thumb
 726              		.syntax unified
 727              	.LBE10:
ARM GAS  C:\Users\ikomb\AppData\Local\Temp\ccjR8mjn.s 			page 27


 728              	.LBE9:
 523:Generated_Source\PSoC6\pdl\rtos\FreeRTOS\9.0.0\Source/event_groups.c **** 	}
 524:Generated_Source\PSoC6\pdl\rtos\FreeRTOS\9.0.0\Source/event_groups.c **** 	portCLEAR_INTERRUPT_MASK_FROM_ISR( uxSavedInterruptStatus );
 525:Generated_Source\PSoC6\pdl\rtos\FreeRTOS\9.0.0\Source/event_groups.c **** 
 526:Generated_Source\PSoC6\pdl\rtos\FreeRTOS\9.0.0\Source/event_groups.c **** 	return uxReturn;
 729              		.loc 1 526 0
 730 0038 7B69     		ldr	r3, [r7, #20]
 527:Generated_Source\PSoC6\pdl\rtos\FreeRTOS\9.0.0\Source/event_groups.c **** }
 731              		.loc 1 527 0
 732 003a 1846     		mov	r0, r3
 733 003c 2437     		adds	r7, r7, #36
 734              		.cfi_def_cfa_offset 4
 735 003e BD46     		mov	sp, r7
 736              		.cfi_def_cfa_register 13
 737              		@ sp needed
 738 0040 5DF8047B 		ldr	r7, [sp], #4
 739              		.cfi_restore 7
 740              		.cfi_def_cfa_offset 0
 741 0044 7047     		bx	lr
 742              		.cfi_endproc
 743              	.LFE133:
 744              		.size	xEventGroupGetBitsFromISR, .-xEventGroupGetBitsFromISR
 745 0046 00BF     		.section	.text.xEventGroupSetBits,"ax",%progbits
 746              		.align	2
 747              		.global	xEventGroupSetBits
 748              		.thumb
 749              		.thumb_func
 750              		.type	xEventGroupSetBits, %function
 751              	xEventGroupSetBits:
 752              	.LFB134:
 528:Generated_Source\PSoC6\pdl\rtos\FreeRTOS\9.0.0\Source/event_groups.c **** /*-----------------------------------------------------------*/
 529:Generated_Source\PSoC6\pdl\rtos\FreeRTOS\9.0.0\Source/event_groups.c **** 
 530:Generated_Source\PSoC6\pdl\rtos\FreeRTOS\9.0.0\Source/event_groups.c **** EventBits_t xEventGroupSetBits( EventGroupHandle_t xEventGroup, const EventBits_t uxBitsToSet )
 531:Generated_Source\PSoC6\pdl\rtos\FreeRTOS\9.0.0\Source/event_groups.c **** {
 753              		.loc 1 531 0
 754              		.cfi_startproc
 755              		@ args = 0, pretend = 0, frame = 48
 756              		@ frame_needed = 1, uses_anonymous_args = 0
 757 0000 80B5     		push	{r7, lr}
 758              		.cfi_def_cfa_offset 8
 759              		.cfi_offset 7, -8
 760              		.cfi_offset 14, -4
 761 0002 8CB0     		sub	sp, sp, #48
 762              		.cfi_def_cfa_offset 56
 763 0004 00AF     		add	r7, sp, #0
 764              		.cfi_def_cfa_register 7
 765 0006 7860     		str	r0, [r7, #4]
 766 0008 3960     		str	r1, [r7]
 532:Generated_Source\PSoC6\pdl\rtos\FreeRTOS\9.0.0\Source/event_groups.c **** ListItem_t *pxListItem, *pxNext;
 533:Generated_Source\PSoC6\pdl\rtos\FreeRTOS\9.0.0\Source/event_groups.c **** ListItem_t const *pxListEnd;
 534:Generated_Source\PSoC6\pdl\rtos\FreeRTOS\9.0.0\Source/event_groups.c **** List_t *pxList;
 535:Generated_Source\PSoC6\pdl\rtos\FreeRTOS\9.0.0\Source/event_groups.c **** EventBits_t uxBitsToClear = 0, uxBitsWaitedFor, uxControlBits;
 767              		.loc 1 535 0
 768 000a 0023     		movs	r3, #0
 769 000c BB62     		str	r3, [r7, #40]
 536:Generated_Source\PSoC6\pdl\rtos\FreeRTOS\9.0.0\Source/event_groups.c **** EventGroup_t *pxEventBits = ( EventGroup_t * ) xEventGroup;
 770              		.loc 1 536 0
ARM GAS  C:\Users\ikomb\AppData\Local\Temp\ccjR8mjn.s 			page 28


 771 000e 7B68     		ldr	r3, [r7, #4]
 772 0010 3B62     		str	r3, [r7, #32]
 537:Generated_Source\PSoC6\pdl\rtos\FreeRTOS\9.0.0\Source/event_groups.c **** BaseType_t xMatchFound = pdFALSE;
 773              		.loc 1 537 0
 774 0012 0023     		movs	r3, #0
 775 0014 7B62     		str	r3, [r7, #36]
 538:Generated_Source\PSoC6\pdl\rtos\FreeRTOS\9.0.0\Source/event_groups.c **** 
 539:Generated_Source\PSoC6\pdl\rtos\FreeRTOS\9.0.0\Source/event_groups.c **** 	/* Check the user is not attempting to set the bits used by the kernel
 540:Generated_Source\PSoC6\pdl\rtos\FreeRTOS\9.0.0\Source/event_groups.c **** 	itself. */
 541:Generated_Source\PSoC6\pdl\rtos\FreeRTOS\9.0.0\Source/event_groups.c **** 	configASSERT( xEventGroup );
 776              		.loc 1 541 0
 777 0016 7B68     		ldr	r3, [r7, #4]
 778 0018 002B     		cmp	r3, #0
 779 001a 01D1     		bne	.L58
 780              		.loc 1 541 0 is_stmt 0 discriminator 1
 781              		.syntax unified
 782              	@ 541 "Generated_Source\PSoC6\pdl\rtos\FreeRTOS\9.0.0\Source\event_groups.c" 1
 783 001c 72B6     		 cpsid i 
 784              	@ 0 "" 2
 785              		.thumb
 786              		.syntax unified
 787              	.L59:
 788 001e FEE7     		b	.L59
 789              	.L58:
 542:Generated_Source\PSoC6\pdl\rtos\FreeRTOS\9.0.0\Source/event_groups.c **** 	configASSERT( ( uxBitsToSet & eventEVENT_BITS_CONTROL_BYTES ) == 0 );
 790              		.loc 1 542 0 is_stmt 1
 791 0020 3B68     		ldr	r3, [r7]
 792 0022 03F07F43 		and	r3, r3, #-16777216
 793 0026 002B     		cmp	r3, #0
 794 0028 01D0     		beq	.L60
 795              		.loc 1 542 0 is_stmt 0 discriminator 1
 796              		.syntax unified
 797              	@ 542 "Generated_Source\PSoC6\pdl\rtos\FreeRTOS\9.0.0\Source\event_groups.c" 1
 798 002a 72B6     		 cpsid i 
 799              	@ 0 "" 2
 800              		.thumb
 801              		.syntax unified
 802              	.L61:
 803              		.loc 1 542 0 discriminator 2
 804 002c FEE7     		b	.L61
 805              	.L60:
 543:Generated_Source\PSoC6\pdl\rtos\FreeRTOS\9.0.0\Source/event_groups.c **** 
 544:Generated_Source\PSoC6\pdl\rtos\FreeRTOS\9.0.0\Source/event_groups.c **** 	pxList = &( pxEventBits->xTasksWaitingForBits );
 806              		.loc 1 544 0 is_stmt 1
 807 002e 3B6A     		ldr	r3, [r7, #32]
 808 0030 0433     		adds	r3, r3, #4
 809 0032 FB61     		str	r3, [r7, #28]
 545:Generated_Source\PSoC6\pdl\rtos\FreeRTOS\9.0.0\Source/event_groups.c **** 	pxListEnd = listGET_END_MARKER( pxList ); /*lint !e826 !e740 The mini list structure is used as th
 810              		.loc 1 545 0
 811 0034 FB69     		ldr	r3, [r7, #28]
 812 0036 0833     		adds	r3, r3, #8
 813 0038 BB61     		str	r3, [r7, #24]
 546:Generated_Source\PSoC6\pdl\rtos\FreeRTOS\9.0.0\Source/event_groups.c **** 	vTaskSuspendAll();
 814              		.loc 1 546 0
 815 003a FFF7FEFF 		bl	vTaskSuspendAll
 547:Generated_Source\PSoC6\pdl\rtos\FreeRTOS\9.0.0\Source/event_groups.c **** 	{
 548:Generated_Source\PSoC6\pdl\rtos\FreeRTOS\9.0.0\Source/event_groups.c **** 		traceEVENT_GROUP_SET_BITS( xEventGroup, uxBitsToSet );
ARM GAS  C:\Users\ikomb\AppData\Local\Temp\ccjR8mjn.s 			page 29


 549:Generated_Source\PSoC6\pdl\rtos\FreeRTOS\9.0.0\Source/event_groups.c **** 
 550:Generated_Source\PSoC6\pdl\rtos\FreeRTOS\9.0.0\Source/event_groups.c **** 		pxListItem = listGET_HEAD_ENTRY( pxList );
 816              		.loc 1 550 0
 817 003e FB69     		ldr	r3, [r7, #28]
 818 0040 DB68     		ldr	r3, [r3, #12]
 819 0042 FB62     		str	r3, [r7, #44]
 551:Generated_Source\PSoC6\pdl\rtos\FreeRTOS\9.0.0\Source/event_groups.c **** 
 552:Generated_Source\PSoC6\pdl\rtos\FreeRTOS\9.0.0\Source/event_groups.c **** 		/* Set the bits. */
 553:Generated_Source\PSoC6\pdl\rtos\FreeRTOS\9.0.0\Source/event_groups.c **** 		pxEventBits->uxEventBits |= uxBitsToSet;
 820              		.loc 1 553 0
 821 0044 3B6A     		ldr	r3, [r7, #32]
 822 0046 1A68     		ldr	r2, [r3]
 823 0048 3B68     		ldr	r3, [r7]
 824 004a 1A43     		orrs	r2, r2, r3
 825 004c 3B6A     		ldr	r3, [r7, #32]
 826 004e 1A60     		str	r2, [r3]
 554:Generated_Source\PSoC6\pdl\rtos\FreeRTOS\9.0.0\Source/event_groups.c **** 
 555:Generated_Source\PSoC6\pdl\rtos\FreeRTOS\9.0.0\Source/event_groups.c **** 		/* See if the new bit value should unblock any tasks. */
 556:Generated_Source\PSoC6\pdl\rtos\FreeRTOS\9.0.0\Source/event_groups.c **** 		while( pxListItem != pxListEnd )
 827              		.loc 1 556 0
 828 0050 3CE0     		b	.L62
 829              	.L67:
 557:Generated_Source\PSoC6\pdl\rtos\FreeRTOS\9.0.0\Source/event_groups.c **** 		{
 558:Generated_Source\PSoC6\pdl\rtos\FreeRTOS\9.0.0\Source/event_groups.c **** 			pxNext = listGET_NEXT( pxListItem );
 830              		.loc 1 558 0
 831 0052 FB6A     		ldr	r3, [r7, #44]
 832 0054 5B68     		ldr	r3, [r3, #4]
 833 0056 7B61     		str	r3, [r7, #20]
 559:Generated_Source\PSoC6\pdl\rtos\FreeRTOS\9.0.0\Source/event_groups.c **** 			uxBitsWaitedFor = listGET_LIST_ITEM_VALUE( pxListItem );
 834              		.loc 1 559 0
 835 0058 FB6A     		ldr	r3, [r7, #44]
 836 005a 1B68     		ldr	r3, [r3]
 837 005c 3B61     		str	r3, [r7, #16]
 560:Generated_Source\PSoC6\pdl\rtos\FreeRTOS\9.0.0\Source/event_groups.c **** 			xMatchFound = pdFALSE;
 838              		.loc 1 560 0
 839 005e 0023     		movs	r3, #0
 840 0060 7B62     		str	r3, [r7, #36]
 561:Generated_Source\PSoC6\pdl\rtos\FreeRTOS\9.0.0\Source/event_groups.c **** 
 562:Generated_Source\PSoC6\pdl\rtos\FreeRTOS\9.0.0\Source/event_groups.c **** 			/* Split the bits waited for from the control bits. */
 563:Generated_Source\PSoC6\pdl\rtos\FreeRTOS\9.0.0\Source/event_groups.c **** 			uxControlBits = uxBitsWaitedFor & eventEVENT_BITS_CONTROL_BYTES;
 841              		.loc 1 563 0
 842 0062 3B69     		ldr	r3, [r7, #16]
 843 0064 03F07F43 		and	r3, r3, #-16777216
 844 0068 FB60     		str	r3, [r7, #12]
 564:Generated_Source\PSoC6\pdl\rtos\FreeRTOS\9.0.0\Source/event_groups.c **** 			uxBitsWaitedFor &= ~eventEVENT_BITS_CONTROL_BYTES;
 845              		.loc 1 564 0
 846 006a 3B69     		ldr	r3, [r7, #16]
 847 006c 23F07F43 		bic	r3, r3, #-16777216
 848 0070 3B61     		str	r3, [r7, #16]
 565:Generated_Source\PSoC6\pdl\rtos\FreeRTOS\9.0.0\Source/event_groups.c **** 
 566:Generated_Source\PSoC6\pdl\rtos\FreeRTOS\9.0.0\Source/event_groups.c **** 			if( ( uxControlBits & eventWAIT_FOR_ALL_BITS ) == ( EventBits_t ) 0 )
 849              		.loc 1 566 0
 850 0072 FB68     		ldr	r3, [r7, #12]
 851 0074 03F08063 		and	r3, r3, #67108864
 852 0078 002B     		cmp	r3, #0
 853 007a 08D1     		bne	.L63
 567:Generated_Source\PSoC6\pdl\rtos\FreeRTOS\9.0.0\Source/event_groups.c **** 			{
ARM GAS  C:\Users\ikomb\AppData\Local\Temp\ccjR8mjn.s 			page 30


 568:Generated_Source\PSoC6\pdl\rtos\FreeRTOS\9.0.0\Source/event_groups.c **** 				/* Just looking for single bit being set. */
 569:Generated_Source\PSoC6\pdl\rtos\FreeRTOS\9.0.0\Source/event_groups.c **** 				if( ( uxBitsWaitedFor & pxEventBits->uxEventBits ) != ( EventBits_t ) 0 )
 854              		.loc 1 569 0
 855 007c 3B6A     		ldr	r3, [r7, #32]
 856 007e 1A68     		ldr	r2, [r3]
 857 0080 3B69     		ldr	r3, [r7, #16]
 858 0082 1340     		ands	r3, r3, r2
 859 0084 002B     		cmp	r3, #0
 860 0086 0BD0     		beq	.L64
 570:Generated_Source\PSoC6\pdl\rtos\FreeRTOS\9.0.0\Source/event_groups.c **** 				{
 571:Generated_Source\PSoC6\pdl\rtos\FreeRTOS\9.0.0\Source/event_groups.c **** 					xMatchFound = pdTRUE;
 861              		.loc 1 571 0
 862 0088 0123     		movs	r3, #1
 863 008a 7B62     		str	r3, [r7, #36]
 864 008c 08E0     		b	.L64
 865              	.L63:
 572:Generated_Source\PSoC6\pdl\rtos\FreeRTOS\9.0.0\Source/event_groups.c **** 				}
 573:Generated_Source\PSoC6\pdl\rtos\FreeRTOS\9.0.0\Source/event_groups.c **** 				else
 574:Generated_Source\PSoC6\pdl\rtos\FreeRTOS\9.0.0\Source/event_groups.c **** 				{
 575:Generated_Source\PSoC6\pdl\rtos\FreeRTOS\9.0.0\Source/event_groups.c **** 					mtCOVERAGE_TEST_MARKER();
 576:Generated_Source\PSoC6\pdl\rtos\FreeRTOS\9.0.0\Source/event_groups.c **** 				}
 577:Generated_Source\PSoC6\pdl\rtos\FreeRTOS\9.0.0\Source/event_groups.c **** 			}
 578:Generated_Source\PSoC6\pdl\rtos\FreeRTOS\9.0.0\Source/event_groups.c **** 			else if( ( uxBitsWaitedFor & pxEventBits->uxEventBits ) == uxBitsWaitedFor )
 866              		.loc 1 578 0
 867 008e 3B6A     		ldr	r3, [r7, #32]
 868 0090 1A68     		ldr	r2, [r3]
 869 0092 3B69     		ldr	r3, [r7, #16]
 870 0094 1A40     		ands	r2, r2, r3
 871 0096 3B69     		ldr	r3, [r7, #16]
 872 0098 9A42     		cmp	r2, r3
 873 009a 01D1     		bne	.L64
 579:Generated_Source\PSoC6\pdl\rtos\FreeRTOS\9.0.0\Source/event_groups.c **** 			{
 580:Generated_Source\PSoC6\pdl\rtos\FreeRTOS\9.0.0\Source/event_groups.c **** 				/* All bits are set. */
 581:Generated_Source\PSoC6\pdl\rtos\FreeRTOS\9.0.0\Source/event_groups.c **** 				xMatchFound = pdTRUE;
 874              		.loc 1 581 0
 875 009c 0123     		movs	r3, #1
 876 009e 7B62     		str	r3, [r7, #36]
 877              	.L64:
 582:Generated_Source\PSoC6\pdl\rtos\FreeRTOS\9.0.0\Source/event_groups.c **** 			}
 583:Generated_Source\PSoC6\pdl\rtos\FreeRTOS\9.0.0\Source/event_groups.c **** 			else
 584:Generated_Source\PSoC6\pdl\rtos\FreeRTOS\9.0.0\Source/event_groups.c **** 			{
 585:Generated_Source\PSoC6\pdl\rtos\FreeRTOS\9.0.0\Source/event_groups.c **** 				/* Need all bits to be set, but not all the bits were set. */
 586:Generated_Source\PSoC6\pdl\rtos\FreeRTOS\9.0.0\Source/event_groups.c **** 			}
 587:Generated_Source\PSoC6\pdl\rtos\FreeRTOS\9.0.0\Source/event_groups.c **** 
 588:Generated_Source\PSoC6\pdl\rtos\FreeRTOS\9.0.0\Source/event_groups.c **** 			if( xMatchFound != pdFALSE )
 878              		.loc 1 588 0
 879 00a0 7B6A     		ldr	r3, [r7, #36]
 880 00a2 002B     		cmp	r3, #0
 881 00a4 10D0     		beq	.L65
 589:Generated_Source\PSoC6\pdl\rtos\FreeRTOS\9.0.0\Source/event_groups.c **** 			{
 590:Generated_Source\PSoC6\pdl\rtos\FreeRTOS\9.0.0\Source/event_groups.c **** 				/* The bits match.  Should the bits be cleared on exit? */
 591:Generated_Source\PSoC6\pdl\rtos\FreeRTOS\9.0.0\Source/event_groups.c **** 				if( ( uxControlBits & eventCLEAR_EVENTS_ON_EXIT_BIT ) != ( EventBits_t ) 0 )
 882              		.loc 1 591 0
 883 00a6 FB68     		ldr	r3, [r7, #12]
 884 00a8 03F08073 		and	r3, r3, #16777216
 885 00ac 002B     		cmp	r3, #0
 886 00ae 03D0     		beq	.L66
ARM GAS  C:\Users\ikomb\AppData\Local\Temp\ccjR8mjn.s 			page 31


 592:Generated_Source\PSoC6\pdl\rtos\FreeRTOS\9.0.0\Source/event_groups.c **** 				{
 593:Generated_Source\PSoC6\pdl\rtos\FreeRTOS\9.0.0\Source/event_groups.c **** 					uxBitsToClear |= uxBitsWaitedFor;
 887              		.loc 1 593 0
 888 00b0 BA6A     		ldr	r2, [r7, #40]
 889 00b2 3B69     		ldr	r3, [r7, #16]
 890 00b4 1343     		orrs	r3, r3, r2
 891 00b6 BB62     		str	r3, [r7, #40]
 892              	.L66:
 594:Generated_Source\PSoC6\pdl\rtos\FreeRTOS\9.0.0\Source/event_groups.c **** 				}
 595:Generated_Source\PSoC6\pdl\rtos\FreeRTOS\9.0.0\Source/event_groups.c **** 				else
 596:Generated_Source\PSoC6\pdl\rtos\FreeRTOS\9.0.0\Source/event_groups.c **** 				{
 597:Generated_Source\PSoC6\pdl\rtos\FreeRTOS\9.0.0\Source/event_groups.c **** 					mtCOVERAGE_TEST_MARKER();
 598:Generated_Source\PSoC6\pdl\rtos\FreeRTOS\9.0.0\Source/event_groups.c **** 				}
 599:Generated_Source\PSoC6\pdl\rtos\FreeRTOS\9.0.0\Source/event_groups.c **** 
 600:Generated_Source\PSoC6\pdl\rtos\FreeRTOS\9.0.0\Source/event_groups.c **** 				/* Store the actual event flag value in the task's event list
 601:Generated_Source\PSoC6\pdl\rtos\FreeRTOS\9.0.0\Source/event_groups.c **** 				item before removing the task from the event list.  The
 602:Generated_Source\PSoC6\pdl\rtos\FreeRTOS\9.0.0\Source/event_groups.c **** 				eventUNBLOCKED_DUE_TO_BIT_SET bit is set so the task knows
 603:Generated_Source\PSoC6\pdl\rtos\FreeRTOS\9.0.0\Source/event_groups.c **** 				that is was unblocked due to its required bits matching, rather
 604:Generated_Source\PSoC6\pdl\rtos\FreeRTOS\9.0.0\Source/event_groups.c **** 				than because it timed out. */
 605:Generated_Source\PSoC6\pdl\rtos\FreeRTOS\9.0.0\Source/event_groups.c **** 				( void ) xTaskRemoveFromUnorderedEventList( pxListItem, pxEventBits->uxEventBits | eventUNBLOCK
 893              		.loc 1 605 0
 894 00b8 3B6A     		ldr	r3, [r7, #32]
 895 00ba 1B68     		ldr	r3, [r3]
 896 00bc 43F00073 		orr	r3, r3, #33554432
 897 00c0 1946     		mov	r1, r3
 898 00c2 F86A     		ldr	r0, [r7, #44]
 899 00c4 FFF7FEFF 		bl	xTaskRemoveFromUnorderedEventList
 900              	.L65:
 606:Generated_Source\PSoC6\pdl\rtos\FreeRTOS\9.0.0\Source/event_groups.c **** 			}
 607:Generated_Source\PSoC6\pdl\rtos\FreeRTOS\9.0.0\Source/event_groups.c **** 
 608:Generated_Source\PSoC6\pdl\rtos\FreeRTOS\9.0.0\Source/event_groups.c **** 			/* Move onto the next list item.  Note pxListItem->pxNext is not
 609:Generated_Source\PSoC6\pdl\rtos\FreeRTOS\9.0.0\Source/event_groups.c **** 			used here as the list item may have been removed from the event list
 610:Generated_Source\PSoC6\pdl\rtos\FreeRTOS\9.0.0\Source/event_groups.c **** 			and inserted into the ready/pending reading list. */
 611:Generated_Source\PSoC6\pdl\rtos\FreeRTOS\9.0.0\Source/event_groups.c **** 			pxListItem = pxNext;
 901              		.loc 1 611 0
 902 00c8 7B69     		ldr	r3, [r7, #20]
 903 00ca FB62     		str	r3, [r7, #44]
 904              	.L62:
 556:Generated_Source\PSoC6\pdl\rtos\FreeRTOS\9.0.0\Source/event_groups.c **** 		{
 905              		.loc 1 556 0
 906 00cc FA6A     		ldr	r2, [r7, #44]
 907 00ce BB69     		ldr	r3, [r7, #24]
 908 00d0 9A42     		cmp	r2, r3
 909 00d2 BED1     		bne	.L67
 612:Generated_Source\PSoC6\pdl\rtos\FreeRTOS\9.0.0\Source/event_groups.c **** 		}
 613:Generated_Source\PSoC6\pdl\rtos\FreeRTOS\9.0.0\Source/event_groups.c **** 
 614:Generated_Source\PSoC6\pdl\rtos\FreeRTOS\9.0.0\Source/event_groups.c **** 		/* Clear any bits that matched when the eventCLEAR_EVENTS_ON_EXIT_BIT
 615:Generated_Source\PSoC6\pdl\rtos\FreeRTOS\9.0.0\Source/event_groups.c **** 		bit was set in the control word. */
 616:Generated_Source\PSoC6\pdl\rtos\FreeRTOS\9.0.0\Source/event_groups.c **** 		pxEventBits->uxEventBits &= ~uxBitsToClear;
 910              		.loc 1 616 0
 911 00d4 3B6A     		ldr	r3, [r7, #32]
 912 00d6 1A68     		ldr	r2, [r3]
 913 00d8 BB6A     		ldr	r3, [r7, #40]
 914 00da DB43     		mvns	r3, r3
 915 00dc 1A40     		ands	r2, r2, r3
 916 00de 3B6A     		ldr	r3, [r7, #32]
 917 00e0 1A60     		str	r2, [r3]
ARM GAS  C:\Users\ikomb\AppData\Local\Temp\ccjR8mjn.s 			page 32


 617:Generated_Source\PSoC6\pdl\rtos\FreeRTOS\9.0.0\Source/event_groups.c **** 	}
 618:Generated_Source\PSoC6\pdl\rtos\FreeRTOS\9.0.0\Source/event_groups.c **** 	( void ) xTaskResumeAll();
 918              		.loc 1 618 0
 919 00e2 FFF7FEFF 		bl	xTaskResumeAll
 619:Generated_Source\PSoC6\pdl\rtos\FreeRTOS\9.0.0\Source/event_groups.c **** 
 620:Generated_Source\PSoC6\pdl\rtos\FreeRTOS\9.0.0\Source/event_groups.c **** 	return pxEventBits->uxEventBits;
 920              		.loc 1 620 0
 921 00e6 3B6A     		ldr	r3, [r7, #32]
 922 00e8 1B68     		ldr	r3, [r3]
 621:Generated_Source\PSoC6\pdl\rtos\FreeRTOS\9.0.0\Source/event_groups.c **** }
 923              		.loc 1 621 0
 924 00ea 1846     		mov	r0, r3
 925 00ec 3037     		adds	r7, r7, #48
 926              		.cfi_def_cfa_offset 8
 927 00ee BD46     		mov	sp, r7
 928              		.cfi_def_cfa_register 13
 929              		@ sp needed
 930 00f0 80BD     		pop	{r7, pc}
 931              		.cfi_endproc
 932              	.LFE134:
 933              		.size	xEventGroupSetBits, .-xEventGroupSetBits
 934 00f2 00BF     		.section	.text.vEventGroupDelete,"ax",%progbits
 935              		.align	2
 936              		.global	vEventGroupDelete
 937              		.thumb
 938              		.thumb_func
 939              		.type	vEventGroupDelete, %function
 940              	vEventGroupDelete:
 941              	.LFB135:
 622:Generated_Source\PSoC6\pdl\rtos\FreeRTOS\9.0.0\Source/event_groups.c **** /*-----------------------------------------------------------*/
 623:Generated_Source\PSoC6\pdl\rtos\FreeRTOS\9.0.0\Source/event_groups.c **** 
 624:Generated_Source\PSoC6\pdl\rtos\FreeRTOS\9.0.0\Source/event_groups.c **** void vEventGroupDelete( EventGroupHandle_t xEventGroup )
 625:Generated_Source\PSoC6\pdl\rtos\FreeRTOS\9.0.0\Source/event_groups.c **** {
 942              		.loc 1 625 0
 943              		.cfi_startproc
 944              		@ args = 0, pretend = 0, frame = 16
 945              		@ frame_needed = 1, uses_anonymous_args = 0
 946 0000 80B5     		push	{r7, lr}
 947              		.cfi_def_cfa_offset 8
 948              		.cfi_offset 7, -8
 949              		.cfi_offset 14, -4
 950 0002 84B0     		sub	sp, sp, #16
 951              		.cfi_def_cfa_offset 24
 952 0004 00AF     		add	r7, sp, #0
 953              		.cfi_def_cfa_register 7
 954 0006 7860     		str	r0, [r7, #4]
 626:Generated_Source\PSoC6\pdl\rtos\FreeRTOS\9.0.0\Source/event_groups.c **** EventGroup_t *pxEventBits = ( EventGroup_t * ) xEventGroup;
 955              		.loc 1 626 0
 956 0008 7B68     		ldr	r3, [r7, #4]
 957 000a FB60     		str	r3, [r7, #12]
 627:Generated_Source\PSoC6\pdl\rtos\FreeRTOS\9.0.0\Source/event_groups.c **** const List_t *pxTasksWaitingForBits = &( pxEventBits->xTasksWaitingForBits );
 958              		.loc 1 627 0
 959 000c FB68     		ldr	r3, [r7, #12]
 960 000e 0433     		adds	r3, r3, #4
 961 0010 BB60     		str	r3, [r7, #8]
 628:Generated_Source\PSoC6\pdl\rtos\FreeRTOS\9.0.0\Source/event_groups.c **** 
 629:Generated_Source\PSoC6\pdl\rtos\FreeRTOS\9.0.0\Source/event_groups.c **** 	vTaskSuspendAll();
ARM GAS  C:\Users\ikomb\AppData\Local\Temp\ccjR8mjn.s 			page 33


 962              		.loc 1 629 0
 963 0012 FFF7FEFF 		bl	vTaskSuspendAll
 630:Generated_Source\PSoC6\pdl\rtos\FreeRTOS\9.0.0\Source/event_groups.c **** 	{
 631:Generated_Source\PSoC6\pdl\rtos\FreeRTOS\9.0.0\Source/event_groups.c **** 		traceEVENT_GROUP_DELETE( xEventGroup );
 632:Generated_Source\PSoC6\pdl\rtos\FreeRTOS\9.0.0\Source/event_groups.c **** 
 633:Generated_Source\PSoC6\pdl\rtos\FreeRTOS\9.0.0\Source/event_groups.c **** 		while( listCURRENT_LIST_LENGTH( pxTasksWaitingForBits ) > ( UBaseType_t ) 0 )
 964              		.loc 1 633 0
 965 0016 0EE0     		b	.L70
 966              	.L73:
 634:Generated_Source\PSoC6\pdl\rtos\FreeRTOS\9.0.0\Source/event_groups.c **** 		{
 635:Generated_Source\PSoC6\pdl\rtos\FreeRTOS\9.0.0\Source/event_groups.c **** 			/* Unblock the task, returning 0 as the event list is being deleted
 636:Generated_Source\PSoC6\pdl\rtos\FreeRTOS\9.0.0\Source/event_groups.c **** 			and	cannot therefore have any bits set. */
 637:Generated_Source\PSoC6\pdl\rtos\FreeRTOS\9.0.0\Source/event_groups.c **** 			configASSERT( pxTasksWaitingForBits->xListEnd.pxNext != ( ListItem_t * ) &( pxTasksWaitingForBit
 967              		.loc 1 637 0
 968 0018 BB68     		ldr	r3, [r7, #8]
 969 001a DA68     		ldr	r2, [r3, #12]
 970 001c BB68     		ldr	r3, [r7, #8]
 971 001e 0833     		adds	r3, r3, #8
 972 0020 9A42     		cmp	r2, r3
 973 0022 01D1     		bne	.L71
 974              		.loc 1 637 0 is_stmt 0 discriminator 1
 975              		.syntax unified
 976              	@ 637 "Generated_Source\PSoC6\pdl\rtos\FreeRTOS\9.0.0\Source\event_groups.c" 1
 977 0024 72B6     		 cpsid i 
 978              	@ 0 "" 2
 979              		.thumb
 980              		.syntax unified
 981              	.L72:
 982 0026 FEE7     		b	.L72
 983              	.L71:
 638:Generated_Source\PSoC6\pdl\rtos\FreeRTOS\9.0.0\Source/event_groups.c **** 			( void ) xTaskRemoveFromUnorderedEventList( pxTasksWaitingForBits->xListEnd.pxNext, eventUNBLOCK
 984              		.loc 1 638 0 is_stmt 1
 985 0028 BB68     		ldr	r3, [r7, #8]
 986 002a DB68     		ldr	r3, [r3, #12]
 987 002c 4FF00071 		mov	r1, #33554432
 988 0030 1846     		mov	r0, r3
 989 0032 FFF7FEFF 		bl	xTaskRemoveFromUnorderedEventList
 990              	.L70:
 633:Generated_Source\PSoC6\pdl\rtos\FreeRTOS\9.0.0\Source/event_groups.c **** 		{
 991              		.loc 1 633 0
 992 0036 BB68     		ldr	r3, [r7, #8]
 993 0038 1B68     		ldr	r3, [r3]
 994 003a 002B     		cmp	r3, #0
 995 003c ECD1     		bne	.L73
 639:Generated_Source\PSoC6\pdl\rtos\FreeRTOS\9.0.0\Source/event_groups.c **** 		}
 640:Generated_Source\PSoC6\pdl\rtos\FreeRTOS\9.0.0\Source/event_groups.c **** 
 641:Generated_Source\PSoC6\pdl\rtos\FreeRTOS\9.0.0\Source/event_groups.c **** 		#if( ( configSUPPORT_DYNAMIC_ALLOCATION == 1 ) && ( configSUPPORT_STATIC_ALLOCATION == 0 ) )
 642:Generated_Source\PSoC6\pdl\rtos\FreeRTOS\9.0.0\Source/event_groups.c **** 		{
 643:Generated_Source\PSoC6\pdl\rtos\FreeRTOS\9.0.0\Source/event_groups.c **** 			/* The event group can only have been allocated dynamically - free
 644:Generated_Source\PSoC6\pdl\rtos\FreeRTOS\9.0.0\Source/event_groups.c **** 			it again. */
 645:Generated_Source\PSoC6\pdl\rtos\FreeRTOS\9.0.0\Source/event_groups.c **** 			vPortFree( pxEventBits );
 996              		.loc 1 645 0
 997 003e F868     		ldr	r0, [r7, #12]
 998 0040 FFF7FEFF 		bl	vPortFree
 646:Generated_Source\PSoC6\pdl\rtos\FreeRTOS\9.0.0\Source/event_groups.c **** 		}
 647:Generated_Source\PSoC6\pdl\rtos\FreeRTOS\9.0.0\Source/event_groups.c **** 		#elif( ( configSUPPORT_DYNAMIC_ALLOCATION == 1 ) && ( configSUPPORT_STATIC_ALLOCATION == 1 ) )
 648:Generated_Source\PSoC6\pdl\rtos\FreeRTOS\9.0.0\Source/event_groups.c **** 		{
ARM GAS  C:\Users\ikomb\AppData\Local\Temp\ccjR8mjn.s 			page 34


 649:Generated_Source\PSoC6\pdl\rtos\FreeRTOS\9.0.0\Source/event_groups.c **** 			/* The event group could have been allocated statically or
 650:Generated_Source\PSoC6\pdl\rtos\FreeRTOS\9.0.0\Source/event_groups.c **** 			dynamically, so check before attempting to free the memory. */
 651:Generated_Source\PSoC6\pdl\rtos\FreeRTOS\9.0.0\Source/event_groups.c **** 			if( pxEventBits->ucStaticallyAllocated == ( uint8_t ) pdFALSE )
 652:Generated_Source\PSoC6\pdl\rtos\FreeRTOS\9.0.0\Source/event_groups.c **** 			{
 653:Generated_Source\PSoC6\pdl\rtos\FreeRTOS\9.0.0\Source/event_groups.c **** 				vPortFree( pxEventBits );
 654:Generated_Source\PSoC6\pdl\rtos\FreeRTOS\9.0.0\Source/event_groups.c **** 			}
 655:Generated_Source\PSoC6\pdl\rtos\FreeRTOS\9.0.0\Source/event_groups.c **** 			else
 656:Generated_Source\PSoC6\pdl\rtos\FreeRTOS\9.0.0\Source/event_groups.c **** 			{
 657:Generated_Source\PSoC6\pdl\rtos\FreeRTOS\9.0.0\Source/event_groups.c **** 				mtCOVERAGE_TEST_MARKER();
 658:Generated_Source\PSoC6\pdl\rtos\FreeRTOS\9.0.0\Source/event_groups.c **** 			}
 659:Generated_Source\PSoC6\pdl\rtos\FreeRTOS\9.0.0\Source/event_groups.c **** 		}
 660:Generated_Source\PSoC6\pdl\rtos\FreeRTOS\9.0.0\Source/event_groups.c **** 		#endif /* configSUPPORT_DYNAMIC_ALLOCATION */
 661:Generated_Source\PSoC6\pdl\rtos\FreeRTOS\9.0.0\Source/event_groups.c **** 	}
 662:Generated_Source\PSoC6\pdl\rtos\FreeRTOS\9.0.0\Source/event_groups.c **** 	( void ) xTaskResumeAll();
 999              		.loc 1 662 0
 1000 0044 FFF7FEFF 		bl	xTaskResumeAll
 663:Generated_Source\PSoC6\pdl\rtos\FreeRTOS\9.0.0\Source/event_groups.c **** }
 1001              		.loc 1 663 0
 1002 0048 00BF     		nop
 1003 004a 1037     		adds	r7, r7, #16
 1004              		.cfi_def_cfa_offset 8
 1005 004c BD46     		mov	sp, r7
 1006              		.cfi_def_cfa_register 13
 1007              		@ sp needed
 1008 004e 80BD     		pop	{r7, pc}
 1009              		.cfi_endproc
 1010              	.LFE135:
 1011              		.size	vEventGroupDelete, .-vEventGroupDelete
 1012              		.section	.text.vEventGroupSetBitsCallback,"ax",%progbits
 1013              		.align	2
 1014              		.global	vEventGroupSetBitsCallback
 1015              		.thumb
 1016              		.thumb_func
 1017              		.type	vEventGroupSetBitsCallback, %function
 1018              	vEventGroupSetBitsCallback:
 1019              	.LFB136:
 664:Generated_Source\PSoC6\pdl\rtos\FreeRTOS\9.0.0\Source/event_groups.c **** /*-----------------------------------------------------------*/
 665:Generated_Source\PSoC6\pdl\rtos\FreeRTOS\9.0.0\Source/event_groups.c **** 
 666:Generated_Source\PSoC6\pdl\rtos\FreeRTOS\9.0.0\Source/event_groups.c **** /* For internal use only - execute a 'set bits' command that was pended from
 667:Generated_Source\PSoC6\pdl\rtos\FreeRTOS\9.0.0\Source/event_groups.c **** an interrupt. */
 668:Generated_Source\PSoC6\pdl\rtos\FreeRTOS\9.0.0\Source/event_groups.c **** void vEventGroupSetBitsCallback( void *pvEventGroup, const uint32_t ulBitsToSet )
 669:Generated_Source\PSoC6\pdl\rtos\FreeRTOS\9.0.0\Source/event_groups.c **** {
 1020              		.loc 1 669 0
 1021              		.cfi_startproc
 1022              		@ args = 0, pretend = 0, frame = 8
 1023              		@ frame_needed = 1, uses_anonymous_args = 0
 1024 0000 80B5     		push	{r7, lr}
 1025              		.cfi_def_cfa_offset 8
 1026              		.cfi_offset 7, -8
 1027              		.cfi_offset 14, -4
 1028 0002 82B0     		sub	sp, sp, #8
 1029              		.cfi_def_cfa_offset 16
 1030 0004 00AF     		add	r7, sp, #0
 1031              		.cfi_def_cfa_register 7
 1032 0006 7860     		str	r0, [r7, #4]
 1033 0008 3960     		str	r1, [r7]
 670:Generated_Source\PSoC6\pdl\rtos\FreeRTOS\9.0.0\Source/event_groups.c **** 	( void ) xEventGroupSetBits( pvEventGroup, ( EventBits_t ) ulBitsToSet );
ARM GAS  C:\Users\ikomb\AppData\Local\Temp\ccjR8mjn.s 			page 35


 1034              		.loc 1 670 0
 1035 000a 3968     		ldr	r1, [r7]
 1036 000c 7868     		ldr	r0, [r7, #4]
 1037 000e FFF7FEFF 		bl	xEventGroupSetBits
 671:Generated_Source\PSoC6\pdl\rtos\FreeRTOS\9.0.0\Source/event_groups.c **** }
 1038              		.loc 1 671 0
 1039 0012 00BF     		nop
 1040 0014 0837     		adds	r7, r7, #8
 1041              		.cfi_def_cfa_offset 8
 1042 0016 BD46     		mov	sp, r7
 1043              		.cfi_def_cfa_register 13
 1044              		@ sp needed
 1045 0018 80BD     		pop	{r7, pc}
 1046              		.cfi_endproc
 1047              	.LFE136:
 1048              		.size	vEventGroupSetBitsCallback, .-vEventGroupSetBitsCallback
 1049 001a 00BF     		.section	.text.vEventGroupClearBitsCallback,"ax",%progbits
 1050              		.align	2
 1051              		.global	vEventGroupClearBitsCallback
 1052              		.thumb
 1053              		.thumb_func
 1054              		.type	vEventGroupClearBitsCallback, %function
 1055              	vEventGroupClearBitsCallback:
 1056              	.LFB137:
 672:Generated_Source\PSoC6\pdl\rtos\FreeRTOS\9.0.0\Source/event_groups.c **** /*-----------------------------------------------------------*/
 673:Generated_Source\PSoC6\pdl\rtos\FreeRTOS\9.0.0\Source/event_groups.c **** 
 674:Generated_Source\PSoC6\pdl\rtos\FreeRTOS\9.0.0\Source/event_groups.c **** /* For internal use only - execute a 'clear bits' command that was pended from
 675:Generated_Source\PSoC6\pdl\rtos\FreeRTOS\9.0.0\Source/event_groups.c **** an interrupt. */
 676:Generated_Source\PSoC6\pdl\rtos\FreeRTOS\9.0.0\Source/event_groups.c **** void vEventGroupClearBitsCallback( void *pvEventGroup, const uint32_t ulBitsToClear )
 677:Generated_Source\PSoC6\pdl\rtos\FreeRTOS\9.0.0\Source/event_groups.c **** {
 1057              		.loc 1 677 0
 1058              		.cfi_startproc
 1059              		@ args = 0, pretend = 0, frame = 8
 1060              		@ frame_needed = 1, uses_anonymous_args = 0
 1061 0000 80B5     		push	{r7, lr}
 1062              		.cfi_def_cfa_offset 8
 1063              		.cfi_offset 7, -8
 1064              		.cfi_offset 14, -4
 1065 0002 82B0     		sub	sp, sp, #8
 1066              		.cfi_def_cfa_offset 16
 1067 0004 00AF     		add	r7, sp, #0
 1068              		.cfi_def_cfa_register 7
 1069 0006 7860     		str	r0, [r7, #4]
 1070 0008 3960     		str	r1, [r7]
 678:Generated_Source\PSoC6\pdl\rtos\FreeRTOS\9.0.0\Source/event_groups.c **** 	( void ) xEventGroupClearBits( pvEventGroup, ( EventBits_t ) ulBitsToClear );
 1071              		.loc 1 678 0
 1072 000a 3968     		ldr	r1, [r7]
 1073 000c 7868     		ldr	r0, [r7, #4]
 1074 000e FFF7FEFF 		bl	xEventGroupClearBits
 679:Generated_Source\PSoC6\pdl\rtos\FreeRTOS\9.0.0\Source/event_groups.c **** }
 1075              		.loc 1 679 0
 1076 0012 00BF     		nop
 1077 0014 0837     		adds	r7, r7, #8
 1078              		.cfi_def_cfa_offset 8
 1079 0016 BD46     		mov	sp, r7
 1080              		.cfi_def_cfa_register 13
 1081              		@ sp needed
ARM GAS  C:\Users\ikomb\AppData\Local\Temp\ccjR8mjn.s 			page 36


 1082 0018 80BD     		pop	{r7, pc}
 1083              		.cfi_endproc
 1084              	.LFE137:
 1085              		.size	vEventGroupClearBitsCallback, .-vEventGroupClearBitsCallback
 1086 001a 00BF     		.section	.text.prvTestWaitCondition,"ax",%progbits
 1087              		.align	2
 1088              		.thumb
 1089              		.thumb_func
 1090              		.type	prvTestWaitCondition, %function
 1091              	prvTestWaitCondition:
 1092              	.LFB138:
 680:Generated_Source\PSoC6\pdl\rtos\FreeRTOS\9.0.0\Source/event_groups.c **** /*-----------------------------------------------------------*/
 681:Generated_Source\PSoC6\pdl\rtos\FreeRTOS\9.0.0\Source/event_groups.c **** 
 682:Generated_Source\PSoC6\pdl\rtos\FreeRTOS\9.0.0\Source/event_groups.c **** static BaseType_t prvTestWaitCondition( const EventBits_t uxCurrentEventBits, const EventBits_t uxB
 683:Generated_Source\PSoC6\pdl\rtos\FreeRTOS\9.0.0\Source/event_groups.c **** {
 1093              		.loc 1 683 0
 1094              		.cfi_startproc
 1095              		@ args = 0, pretend = 0, frame = 24
 1096              		@ frame_needed = 1, uses_anonymous_args = 0
 1097              		@ link register save eliminated.
 1098 0000 80B4     		push	{r7}
 1099              		.cfi_def_cfa_offset 4
 1100              		.cfi_offset 7, -4
 1101 0002 87B0     		sub	sp, sp, #28
 1102              		.cfi_def_cfa_offset 32
 1103 0004 00AF     		add	r7, sp, #0
 1104              		.cfi_def_cfa_register 7
 1105 0006 F860     		str	r0, [r7, #12]
 1106 0008 B960     		str	r1, [r7, #8]
 1107 000a 7A60     		str	r2, [r7, #4]
 684:Generated_Source\PSoC6\pdl\rtos\FreeRTOS\9.0.0\Source/event_groups.c **** BaseType_t xWaitConditionMet = pdFALSE;
 1108              		.loc 1 684 0
 1109 000c 0023     		movs	r3, #0
 1110 000e 7B61     		str	r3, [r7, #20]
 685:Generated_Source\PSoC6\pdl\rtos\FreeRTOS\9.0.0\Source/event_groups.c **** 
 686:Generated_Source\PSoC6\pdl\rtos\FreeRTOS\9.0.0\Source/event_groups.c **** 	if( xWaitForAllBits == pdFALSE )
 1111              		.loc 1 686 0
 1112 0010 7B68     		ldr	r3, [r7, #4]
 1113 0012 002B     		cmp	r3, #0
 1114 0014 07D1     		bne	.L77
 687:Generated_Source\PSoC6\pdl\rtos\FreeRTOS\9.0.0\Source/event_groups.c **** 	{
 688:Generated_Source\PSoC6\pdl\rtos\FreeRTOS\9.0.0\Source/event_groups.c **** 		/* Task only has to wait for one bit within uxBitsToWaitFor to be
 689:Generated_Source\PSoC6\pdl\rtos\FreeRTOS\9.0.0\Source/event_groups.c **** 		set.  Is one already set? */
 690:Generated_Source\PSoC6\pdl\rtos\FreeRTOS\9.0.0\Source/event_groups.c **** 		if( ( uxCurrentEventBits & uxBitsToWaitFor ) != ( EventBits_t ) 0 )
 1115              		.loc 1 690 0
 1116 0016 FA68     		ldr	r2, [r7, #12]
 1117 0018 BB68     		ldr	r3, [r7, #8]
 1118 001a 1340     		ands	r3, r3, r2
 1119 001c 002B     		cmp	r3, #0
 1120 001e 0AD0     		beq	.L78
 691:Generated_Source\PSoC6\pdl\rtos\FreeRTOS\9.0.0\Source/event_groups.c **** 		{
 692:Generated_Source\PSoC6\pdl\rtos\FreeRTOS\9.0.0\Source/event_groups.c **** 			xWaitConditionMet = pdTRUE;
 1121              		.loc 1 692 0
 1122 0020 0123     		movs	r3, #1
 1123 0022 7B61     		str	r3, [r7, #20]
 1124 0024 07E0     		b	.L78
 1125              	.L77:
ARM GAS  C:\Users\ikomb\AppData\Local\Temp\ccjR8mjn.s 			page 37


 693:Generated_Source\PSoC6\pdl\rtos\FreeRTOS\9.0.0\Source/event_groups.c **** 		}
 694:Generated_Source\PSoC6\pdl\rtos\FreeRTOS\9.0.0\Source/event_groups.c **** 		else
 695:Generated_Source\PSoC6\pdl\rtos\FreeRTOS\9.0.0\Source/event_groups.c **** 		{
 696:Generated_Source\PSoC6\pdl\rtos\FreeRTOS\9.0.0\Source/event_groups.c **** 			mtCOVERAGE_TEST_MARKER();
 697:Generated_Source\PSoC6\pdl\rtos\FreeRTOS\9.0.0\Source/event_groups.c **** 		}
 698:Generated_Source\PSoC6\pdl\rtos\FreeRTOS\9.0.0\Source/event_groups.c **** 	}
 699:Generated_Source\PSoC6\pdl\rtos\FreeRTOS\9.0.0\Source/event_groups.c **** 	else
 700:Generated_Source\PSoC6\pdl\rtos\FreeRTOS\9.0.0\Source/event_groups.c **** 	{
 701:Generated_Source\PSoC6\pdl\rtos\FreeRTOS\9.0.0\Source/event_groups.c **** 		/* Task has to wait for all the bits in uxBitsToWaitFor to be set.
 702:Generated_Source\PSoC6\pdl\rtos\FreeRTOS\9.0.0\Source/event_groups.c **** 		Are they set already? */
 703:Generated_Source\PSoC6\pdl\rtos\FreeRTOS\9.0.0\Source/event_groups.c **** 		if( ( uxCurrentEventBits & uxBitsToWaitFor ) == uxBitsToWaitFor )
 1126              		.loc 1 703 0
 1127 0026 FA68     		ldr	r2, [r7, #12]
 1128 0028 BB68     		ldr	r3, [r7, #8]
 1129 002a 1A40     		ands	r2, r2, r3
 1130 002c BB68     		ldr	r3, [r7, #8]
 1131 002e 9A42     		cmp	r2, r3
 1132 0030 01D1     		bne	.L78
 704:Generated_Source\PSoC6\pdl\rtos\FreeRTOS\9.0.0\Source/event_groups.c **** 		{
 705:Generated_Source\PSoC6\pdl\rtos\FreeRTOS\9.0.0\Source/event_groups.c **** 			xWaitConditionMet = pdTRUE;
 1133              		.loc 1 705 0
 1134 0032 0123     		movs	r3, #1
 1135 0034 7B61     		str	r3, [r7, #20]
 1136              	.L78:
 706:Generated_Source\PSoC6\pdl\rtos\FreeRTOS\9.0.0\Source/event_groups.c **** 		}
 707:Generated_Source\PSoC6\pdl\rtos\FreeRTOS\9.0.0\Source/event_groups.c **** 		else
 708:Generated_Source\PSoC6\pdl\rtos\FreeRTOS\9.0.0\Source/event_groups.c **** 		{
 709:Generated_Source\PSoC6\pdl\rtos\FreeRTOS\9.0.0\Source/event_groups.c **** 			mtCOVERAGE_TEST_MARKER();
 710:Generated_Source\PSoC6\pdl\rtos\FreeRTOS\9.0.0\Source/event_groups.c **** 		}
 711:Generated_Source\PSoC6\pdl\rtos\FreeRTOS\9.0.0\Source/event_groups.c **** 	}
 712:Generated_Source\PSoC6\pdl\rtos\FreeRTOS\9.0.0\Source/event_groups.c **** 
 713:Generated_Source\PSoC6\pdl\rtos\FreeRTOS\9.0.0\Source/event_groups.c **** 	return xWaitConditionMet;
 1137              		.loc 1 713 0
 1138 0036 7B69     		ldr	r3, [r7, #20]
 714:Generated_Source\PSoC6\pdl\rtos\FreeRTOS\9.0.0\Source/event_groups.c **** }
 1139              		.loc 1 714 0
 1140 0038 1846     		mov	r0, r3
 1141 003a 1C37     		adds	r7, r7, #28
 1142              		.cfi_def_cfa_offset 4
 1143 003c BD46     		mov	sp, r7
 1144              		.cfi_def_cfa_register 13
 1145              		@ sp needed
 1146 003e 5DF8047B 		ldr	r7, [sp], #4
 1147              		.cfi_restore 7
 1148              		.cfi_def_cfa_offset 0
 1149 0042 7047     		bx	lr
 1150              		.cfi_endproc
 1151              	.LFE138:
 1152              		.size	prvTestWaitCondition, .-prvTestWaitCondition
 1153              		.text
 1154              	.Letext0:
 1155              		.file 3 "c:\\program files (x86)\\cypress\\psoc creator\\4.4\\psoc creator\\import\\gnu\\arm\\5.4.
 1156              		.file 4 "c:\\program files (x86)\\cypress\\psoc creator\\4.4\\psoc creator\\import\\gnu\\arm\\5.4.
 1157              		.file 5 "Generated_Source\\PSoC6\\pdl\\rtos/FreeRTOS/9.0.0/Source/include/list.h"
 1158              		.file 6 "Generated_Source\\PSoC6\\pdl\\rtos/FreeRTOS/9.0.0/Source/include/event_groups.h"
 1159              		.file 7 "Generated_Source\\PSoC6\\pdl\\cmsis/include/core_cm4.h"