ARM GAS  C:\Users\ikomb\AppData\Local\Temp\ccsqeaP9.s 			page 1


   1              		.syntax unified
   2              		.cpu cortex-m4
   3              		.eabi_attribute 27, 1
   4              		.fpu fpv4-sp-d16
   5              		.eabi_attribute 20, 1
   6              		.eabi_attribute 21, 1
   7              		.eabi_attribute 23, 3
   8              		.eabi_attribute 24, 1
   9              		.eabi_attribute 25, 1
  10              		.eabi_attribute 26, 1
  11              		.eabi_attribute 30, 6
  12              		.eabi_attribute 34, 1
  13              		.eabi_attribute 18, 4
  14              		.thumb
  15              		.syntax unified
  16              		.file	"events.c"
  17              		.text
  18              	.Ltext0:
  19              		.cfi_sections	.debug_frame
  20              		.section	.text.EventsTask,"ax",%progbits
  21              		.align	2
  22              		.global	EventsTask
  23              		.thumb
  24              		.thumb_func
  25              		.type	EventsTask, %function
  26              	EventsTask:
  27              	.LFB806:
  28              		.file 1 "events.c"
   1:events.c      **** /******************************************************************************
   2:events.c      **** * File Name: events.c
   3:events.c      **** *
   4:events.c      **** * Version: 1.1
   5:events.c      **** *
   6:events.c      **** * Description: This file contains the functions used to handle events.
   7:events.c      **** *
   8:events.c      **** * Related Document: N/A
   9:events.c      **** *
  10:events.c      **** * Hardware Dependency: CY8CKIT-062-WiFi-BT PSoC 6 WiFi-BT Pioneer Kit
  11:events.c      **** *
  12:events.c      **** ******************************************************************************
  13:events.c      **** * Copyright (2018), Cypress Semiconductor Corporation.
  14:events.c      **** ******************************************************************************
  15:events.c      **** * This software, including source code, documentation and related materials
  16:events.c      **** * ("Software") is owned by Cypress Semiconductor Corporation (Cypress) and is
  17:events.c      **** * protected by and subject to worldwide patent protection (United States and
  18:events.c      **** * foreign), United States copyright laws and international treaty provisions.
  19:events.c      **** * Cypress hereby grants to licensee a personal, non-exclusive, non-transferable
  20:events.c      **** * license to copy, use, modify, create derivative works of, and compile the
  21:events.c      **** * Cypress source code and derivative works for the sole purpose of creating
  22:events.c      **** * custom software in support of licensee product, such licensee product to be
  23:events.c      **** * used only in conjunction with Cypress's integrated circuit as specified in the
  24:events.c      **** * applicable agreement. Any reproduction, modification, translation, compilation,
  25:events.c      **** * or representation of this Software except as specified above is prohibited
  26:events.c      **** * without the express written permission of Cypress.
  27:events.c      **** *
  28:events.c      **** * Disclaimer: THIS SOFTWARE IS PROVIDED AS-IS, WITH NO WARRANTY OF ANY KIND,
  29:events.c      **** * EXPRESS OR IMPLIED, INCLUDING, BUT NOT LIMITED TO, NONINFRINGEMENT, IMPLIED
ARM GAS  C:\Users\ikomb\AppData\Local\Temp\ccsqeaP9.s 			page 2


  30:events.c      **** * WARRANTIES OF MERCHANTABILITY AND FITNESS FOR A PARTICULAR PURPOSE.
  31:events.c      **** * Cypress reserves the right to make changes to the Software without notice.
  32:events.c      **** * Cypress does not assume any liability arising out of the application or use
  33:events.c      **** * of Software or any product or circuit described in the Software. Cypress does
  34:events.c      **** * not authorize its products for use as critical components in any products
  35:events.c      **** * where a malfunction or failure may reasonably be expected to result in
  36:events.c      **** * significant injury or death ("ACTIVE Risk Product"). By including Cypress's
  37:events.c      **** * product in a ACTIVE Risk Product, the manufacturer of such system or application
  38:events.c      **** * assumes all risk of such use and in doing so indemnifies Cypress against all
  39:events.c      **** * liability. Use of this Software may be limited by and subject to the applicable
  40:events.c      **** * Cypress software license agreement.
  41:events.c      **** *****************************************************************************/
  42:events.c      **** #include "events.h"
  43:events.c      **** #include "touch.h"
  44:events.c      **** #include "recorder.h"
  45:events.c      **** #include "codec.h"
  46:events.c      **** #include "graphics.h"
  47:events.c      **** 
  48:events.c      **** #include "rtos.h"
  49:events.c      **** 
  50:events.c      **** /*******************************************************************************
  51:events.c      **** * Function Name: EventsTask
  52:events.c      **** ********************************************************************************
  53:events.c      **** * Summary:
  54:events.c      **** *   This function handle any events triggered by touch and recording.
  55:events.c      **** *
  56:events.c      **** * Parameters:
  57:events.c      **** *   arg: Required argument for task function.
  58:events.c      **** *
  59:events.c      **** *******************************************************************************/
  60:events.c      **** void EventsTask(void *arg)
  61:events.c      **** {
  29              		.loc 1 61 0
  30              		.cfi_startproc
  31              		@ args = 0, pretend = 0, frame = 24
  32              		@ frame_needed = 1, uses_anonymous_args = 0
  33 0000 80B5     		push	{r7, lr}
  34              		.cfi_def_cfa_offset 8
  35              		.cfi_offset 7, -8
  36              		.cfi_offset 14, -4
  37 0002 86B0     		sub	sp, sp, #24
  38              		.cfi_def_cfa_offset 32
  39 0004 00AF     		add	r7, sp, #0
  40              		.cfi_def_cfa_register 7
  41 0006 7860     		str	r0, [r7, #4]
  62:events.c      ****     uint32_t event;
  63:events.c      ****     uint32_t graphics_event;
  64:events.c      ****     recorder_states_t  state;
  65:events.c      ****     int32_t volume = CODEC_HP_DEFAULT_VOLUME;
  42              		.loc 1 65 0
  43 0008 0C23     		movs	r3, #12
  44 000a 7B61     		str	r3, [r7, #20]
  66:events.c      ****     
  67:events.c      ****     (void) arg;
  68:events.c      ****         
  69:events.c      ****     /* Update graphics to show STOP icon */
  70:events.c      ****     graphics_event = SHOW_STOP;
ARM GAS  C:\Users\ikomb\AppData\Local\Temp\ccsqeaP9.s 			page 3


  45              		.loc 1 70 0
  46 000c AA4B     		ldr	r3, .L24
  47 000e BB60     		str	r3, [r7, #8]
  71:events.c      ****     xQueueSend(GUIQueue, &graphics_event, 0);
  48              		.loc 1 71 0
  49 0010 AA4B     		ldr	r3, .L24+4
  50 0012 1868     		ldr	r0, [r3]
  51 0014 07F10801 		add	r1, r7, #8
  52 0018 0023     		movs	r3, #0
  53 001a 0022     		movs	r2, #0
  54 001c FFF7FEFF 		bl	xQueueGenericSend
  72:events.c      ****     
  73:events.c      ****     /* Update graphics to show the volume text */
  74:events.c      ****     graphics_event = SHOW_VOLUME_TXT;
  55              		.loc 1 74 0
  56 0020 A74B     		ldr	r3, .L24+8
  57 0022 BB60     		str	r3, [r7, #8]
  75:events.c      ****     xQueueSend(GUIQueue, &graphics_event, 0);
  58              		.loc 1 75 0
  59 0024 A54B     		ldr	r3, .L24+4
  60 0026 1868     		ldr	r0, [r3]
  61 0028 07F10801 		add	r1, r7, #8
  62 002c 0023     		movs	r3, #0
  63 002e 0022     		movs	r2, #0
  64 0030 FFF7FEFF 		bl	xQueueGenericSend
  76:events.c      ****     
  77:events.c      ****     /* Update graphics to show the volume value */
  78:events.c      ****     graphics_event = SHOW_VOLUME_VAL | VOLUME_IN_PERCENT(CODEC_HP_DEFAULT_VOLUME);
  65              		.loc 1 78 0
  66 0034 A34B     		ldr	r3, .L24+12
  67 0036 BB60     		str	r3, [r7, #8]
  79:events.c      ****     xQueueSend(GUIQueue, &graphics_event, 0);
  68              		.loc 1 79 0
  69 0038 A04B     		ldr	r3, .L24+4
  70 003a 1868     		ldr	r0, [r3]
  71 003c 07F10801 		add	r1, r7, #8
  72 0040 0023     		movs	r3, #0
  73 0042 0022     		movs	r2, #0
  74 0044 FFF7FEFF 		bl	xQueueGenericSend
  80:events.c      ****     
  81:events.c      ****     /* Update graphics to show the time */
  82:events.c      ****     graphics_event = SHOW_TIMER;
  75              		.loc 1 82 0
  76 0048 9F4B     		ldr	r3, .L24+16
  77 004a BB60     		str	r3, [r7, #8]
  83:events.c      ****     xQueueSend(GUIQueue, &graphics_event, 0);
  78              		.loc 1 83 0
  79 004c 9B4B     		ldr	r3, .L24+4
  80 004e 1868     		ldr	r0, [r3]
  81 0050 07F10801 		add	r1, r7, #8
  82 0054 0023     		movs	r3, #0
  83 0056 0022     		movs	r2, #0
  84 0058 FFF7FEFF 		bl	xQueueGenericSend
  84:events.c      ****     
  85:events.c      ****     /* Initialize the audio codec */
  86:events.c      ****     Codec_Init(vTaskDelay);
  85              		.loc 1 86 0
ARM GAS  C:\Users\ikomb\AppData\Local\Temp\ccsqeaP9.s 			page 4


  86 005c 9B48     		ldr	r0, .L24+20
  87 005e FFF7FEFF 		bl	Codec_Init
  87:events.c      ****     
  88:events.c      ****     /* Activate the audio codec */
  89:events.c      ****     Codec_Activate();
  88              		.loc 1 89 0
  89 0062 FFF7FEFF 		bl	Codec_Activate
  90:events.c      ****         
  91:events.c      ****     /* Set default volume */
  92:events.c      ****     while (Codec_AdjustBothHeadphoneVolume(CODEC_HP_DEFAULT_VOLUME) != CY_SCB_I2C_SUCCESS) {};
  90              		.loc 1 92 0
  91 0066 00BF     		nop
  92              	.L2:
  93              		.loc 1 92 0 is_stmt 0 discriminator 1
  94 0068 0C20     		movs	r0, #12
  95 006a FFF7FEFF 		bl	Codec_AdjustBothHeadphoneVolume
  96 006e 0346     		mov	r3, r0
  97 0070 002B     		cmp	r3, #0
  98 0072 F9D1     		bne	.L2
  99              	.L22:
  93:events.c      ****     
  94:events.c      ****     while (1)
  95:events.c      ****     {
  96:events.c      ****         /* Wait till an event occurs */
  97:events.c      ****         if (xQueueReceive(EventsQueue, &event, portMAX_DELAY))
 100              		.loc 1 97 0 is_stmt 1
 101 0074 964B     		ldr	r3, .L24+24
 102 0076 1868     		ldr	r0, [r3]
 103 0078 07F10C01 		add	r1, r7, #12
 104 007c 0023     		movs	r3, #0
 105 007e 4FF0FF32 		mov	r2, #-1
 106 0082 FFF7FEFF 		bl	xQueueGenericReceive
 107 0086 0346     		mov	r3, r0
 108 0088 002B     		cmp	r3, #0
 109 008a F3D0     		beq	.L22
  98:events.c      ****         {
  99:events.c      ****             /* Capture the current recorder state */
 100:events.c      ****             state = RecorderState();
 110              		.loc 1 100 0
 111 008c FFF7FEFF 		bl	RecorderState
 112 0090 0346     		mov	r3, r0
 113 0092 FB74     		strb	r3, [r7, #19]
 101:events.c      ****             
 102:events.c      ****             /* Handle the specific event */
 103:events.c      ****             switch (event)
 114              		.loc 1 103 0
 115 0094 FB68     		ldr	r3, [r7, #12]
 116 0096 8F4A     		ldr	r2, .L24+28
 117 0098 9342     		cmp	r3, r2
 118 009a 00F09D80 		beq	.L5
 119 009e 8D4A     		ldr	r2, .L24+28
 120 00a0 9342     		cmp	r3, r2
 121 00a2 06D8     		bhi	.L6
 122 00a4 8C4A     		ldr	r2, .L24+32
 123 00a6 9342     		cmp	r3, r2
 124 00a8 10D0     		beq	.L7
 125 00aa 8C4A     		ldr	r2, .L24+36
ARM GAS  C:\Users\ikomb\AppData\Local\Temp\ccsqeaP9.s 			page 5


 126 00ac 9342     		cmp	r3, r2
 127 00ae 47D0     		beq	.L8
 104:events.c      ****             {
 105:events.c      ****                 /* Touch Events */
 106:events.c      ****                 case LEFT_BUTTON:   
 107:events.c      ****                 
 108:events.c      ****                     /* This button is the recording button */
 109:events.c      ****                 
 110:events.c      ****                     /* If already recording, stop recording */
 111:events.c      ****                     if (state == RECORDING)
 112:events.c      ****                     {       
 113:events.c      ****                         graphics_event = SHOW_STOP;
 114:events.c      ****                         xQueueSend(GUIQueue, &graphics_event, 0);
 115:events.c      ****                         
 116:events.c      ****                         StopRecorder();
 117:events.c      ****                     }
 118:events.c      ****                     /* If playing or pause, reset the recorder */
 119:events.c      ****                     else if ((state == PLAYING) || (state == PAUSED))
 120:events.c      ****                     {
 121:events.c      ****                         graphics_event = SHOW_STOP;
 122:events.c      ****                         xQueueSend(GUIQueue, &graphics_event, 0);
 123:events.c      ****                         
 124:events.c      ****                         ResetRecorder();
 125:events.c      ****                     }
 126:events.c      ****                     /* In any other state, start recording */
 127:events.c      ****                     else
 128:events.c      ****                     {
 129:events.c      ****                         graphics_event = SHOW_RECORDING;
 130:events.c      ****                         xQueueSend(GUIQueue, &graphics_event, 0);
 131:events.c      ****                         
 132:events.c      ****                         graphics_event = SHOW_NO_WARNING;
 133:events.c      ****                         xQueueSend(GUIQueue, &graphics_event, 0);
 134:events.c      ****                                                   
 135:events.c      ****                         StartRecorder();
 136:events.c      ****                     }                    
 137:events.c      ****                     
 138:events.c      ****                     break;
 139:events.c      ****                 case RIGHT_BUTTON:
 140:events.c      ****                     
 141:events.c      ****                     /* This button is the playing button */
 142:events.c      ****                     
 143:events.c      ****                     /* Clear warning message */
 144:events.c      ****                     graphics_event = SHOW_NO_WARNING;
 145:events.c      ****                     xQueueSend(GUIQueue, &graphics_event, 0);
 146:events.c      ****                     
 147:events.c      ****                     /* If recording, stop recording and play the record */
 148:events.c      ****                     if (state == RECORDING)
 149:events.c      ****                     {
 150:events.c      ****                         graphics_event = SHOW_PLAYING;
 151:events.c      ****                         xQueueSend(GUIQueue, &graphics_event, 0);
 152:events.c      ****                         
 153:events.c      ****                         StopRecorder();
 154:events.c      ****                         PlayRecorder();
 155:events.c      ****                     }
 156:events.c      ****                     /* If playing, pause the playing */
 157:events.c      ****                     else if (state == PLAYING)
 158:events.c      ****                     {
ARM GAS  C:\Users\ikomb\AppData\Local\Temp\ccsqeaP9.s 			page 6


 159:events.c      ****                         graphics_event = SHOW_PAUSE;
 160:events.c      ****                         xQueueSend(GUIQueue, &graphics_event, 0);
 161:events.c      ****                         
 162:events.c      ****                         PauseRecorder();
 163:events.c      ****                     } 
 164:events.c      ****                     /* If paused, resume playing */
 165:events.c      ****                     else if (state == PAUSED)
 166:events.c      ****                     {
 167:events.c      ****                         graphics_event = SHOW_PLAYING;
 168:events.c      ****                         xQueueSend(GUIQueue, &graphics_event, 0); 
 169:events.c      ****                         
 170:events.c      ****                         ResumeRecorder();
 171:events.c      ****                     }
 172:events.c      ****                     /* If in idle state, start playing */
 173:events.c      ****                     else if (state == IDLE)
 174:events.c      ****                     {
 175:events.c      ****                         graphics_event = SHOW_PLAYING;
 176:events.c      ****                         xQueueSend(GUIQueue, &graphics_event, 0);
 177:events.c      ****                         
 178:events.c      ****                         PlayRecorder();
 179:events.c      ****                     }                                       
 180:events.c      ****                     
 181:events.c      ****                     break;
 182:events.c      ****                 case SLIDER_LEFT:
 183:events.c      ****                     
 184:events.c      ****                     /* This action decrease the speaker volume */
 185:events.c      ****                     
 186:events.c      ****                     volume += EVENT_VOLUME_STEP;
 187:events.c      ****                     
 188:events.c      ****                     if (volume >= CODEC_HP_MUTE_VALUE)
 189:events.c      ****                     {
 190:events.c      ****                         volume = CODEC_HP_MUTE_VALUE;
 191:events.c      ****                     }
 192:events.c      ****                     
 193:events.c      ****                     Codec_AdjustBothHeadphoneVolume(volume);
 194:events.c      ****                     
 195:events.c      ****                     graphics_event = SHOW_VOLUME_VAL | VOLUME_IN_PERCENT(volume);
 196:events.c      ****                     xQueueSend(GUIQueue, &graphics_event, 0);
 197:events.c      ****                     break;
 198:events.c      ****                 case SLIDER_RIGHT:    
 199:events.c      ****                     
 200:events.c      ****                     /* This action increase the speaker volume */
 201:events.c      ****                     
 202:events.c      ****                     volume -= EVENT_VOLUME_STEP;
 203:events.c      ****                     
 204:events.c      ****                     if (volume < CODEC_HP_VOLUME_MAX)
 205:events.c      ****                     {
 206:events.c      ****                         volume = CODEC_HP_VOLUME_MAX;
 207:events.c      ****                     }
 208:events.c      ****                     
 209:events.c      ****                     Codec_AdjustBothHeadphoneVolume(volume);
 210:events.c      ****                     
 211:events.c      ****                     graphics_event = SHOW_VOLUME_VAL | VOLUME_IN_PERCENT(volume);
 212:events.c      ****                     xQueueSend(GUIQueue, &graphics_event, 0);
 213:events.c      ****                     break;
 214:events.c      ****                 
 215:events.c      ****                 /* Recorder Events */
ARM GAS  C:\Users\ikomb\AppData\Local\Temp\ccsqeaP9.s 			page 7


 216:events.c      ****                 case PLAY_COMPLETED:
 217:events.c      ****                     graphics_event = SHOW_STOP;
 218:events.c      ****                     xQueueSend(GUIQueue, &graphics_event, 0);
 219:events.c      ****                     break;
 220:events.c      ****                     
 221:events.c      ****                 case REACH_MEM_LIMIT:
 222:events.c      ****                     graphics_event = SHOW_STOP;
 223:events.c      ****                     xQueueSend(GUIQueue, &graphics_event, 0);
 224:events.c      ****                     
 225:events.c      ****                     graphics_event = SHOW_WARNING;
 226:events.c      ****                     xQueueSend(GUIQueue, &graphics_event, 0);
 227:events.c      ****                     break;
 228:events.c      ****                     
 229:events.c      ****                 default:
 230:events.c      ****                     break;
 128              		.loc 1 230 0
 129 00b0 01E1     		b	.L3
 130              	.L6:
 103:events.c      ****             {
 131              		.loc 1 103 0
 132 00b2 8B4A     		ldr	r2, .L24+40
 133 00b4 9342     		cmp	r3, r2
 134 00b6 00F0DD80 		beq	.L9
 135 00ba 8A4A     		ldr	r2, .L24+44
 136 00bc 9342     		cmp	r3, r2
 137 00be 00F0E480 		beq	.L10
 138 00c2 894A     		ldr	r2, .L24+48
 139 00c4 9342     		cmp	r3, r2
 140 00c6 00F0AE80 		beq	.L11
 141              		.loc 1 230 0
 142 00ca F4E0     		b	.L3
 143              	.L7:
 111:events.c      ****                     {       
 144              		.loc 1 111 0
 145 00cc FB7C     		ldrb	r3, [r7, #19]	@ zero_extendqisi2
 146 00ce 012B     		cmp	r3, #1
 147 00d0 0CD1     		bne	.L12
 113:events.c      ****                         xQueueSend(GUIQueue, &graphics_event, 0);
 148              		.loc 1 113 0
 149 00d2 794B     		ldr	r3, .L24
 150 00d4 BB60     		str	r3, [r7, #8]
 114:events.c      ****                         
 151              		.loc 1 114 0
 152 00d6 794B     		ldr	r3, .L24+4
 153 00d8 1868     		ldr	r0, [r3]
 154 00da 07F10801 		add	r1, r7, #8
 155 00de 0023     		movs	r3, #0
 156 00e0 0022     		movs	r2, #0
 157 00e2 FFF7FEFF 		bl	xQueueGenericSend
 116:events.c      ****                     }
 158              		.loc 1 116 0
 159 00e6 FFF7FEFF 		bl	StopRecorder
 138:events.c      ****                 case RIGHT_BUTTON:
 160              		.loc 1 138 0
 161 00ea E4E0     		b	.L3
 162              	.L12:
 119:events.c      ****                     {
ARM GAS  C:\Users\ikomb\AppData\Local\Temp\ccsqeaP9.s 			page 8


 163              		.loc 1 119 0
 164 00ec FB7C     		ldrb	r3, [r7, #19]	@ zero_extendqisi2
 165 00ee 022B     		cmp	r3, #2
 166 00f0 02D0     		beq	.L14
 119:events.c      ****                     {
 167              		.loc 1 119 0 is_stmt 0 discriminator 1
 168 00f2 FB7C     		ldrb	r3, [r7, #19]	@ zero_extendqisi2
 169 00f4 032B     		cmp	r3, #3
 170 00f6 0CD1     		bne	.L15
 171              	.L14:
 121:events.c      ****                         xQueueSend(GUIQueue, &graphics_event, 0);
 172              		.loc 1 121 0 is_stmt 1
 173 00f8 6F4B     		ldr	r3, .L24
 174 00fa BB60     		str	r3, [r7, #8]
 122:events.c      ****                         
 175              		.loc 1 122 0
 176 00fc 6F4B     		ldr	r3, .L24+4
 177 00fe 1868     		ldr	r0, [r3]
 178 0100 07F10801 		add	r1, r7, #8
 179 0104 0023     		movs	r3, #0
 180 0106 0022     		movs	r2, #0
 181 0108 FFF7FEFF 		bl	xQueueGenericSend
 124:events.c      ****                     }
 182              		.loc 1 124 0
 183 010c FFF7FEFF 		bl	ResetRecorder
 138:events.c      ****                 case RIGHT_BUTTON:
 184              		.loc 1 138 0
 185 0110 D1E0     		b	.L3
 186              	.L15:
 129:events.c      ****                         xQueueSend(GUIQueue, &graphics_event, 0);
 187              		.loc 1 129 0
 188 0112 764B     		ldr	r3, .L24+52
 189 0114 BB60     		str	r3, [r7, #8]
 130:events.c      ****                         
 190              		.loc 1 130 0
 191 0116 694B     		ldr	r3, .L24+4
 192 0118 1868     		ldr	r0, [r3]
 193 011a 07F10801 		add	r1, r7, #8
 194 011e 0023     		movs	r3, #0
 195 0120 0022     		movs	r2, #0
 196 0122 FFF7FEFF 		bl	xQueueGenericSend
 132:events.c      ****                         xQueueSend(GUIQueue, &graphics_event, 0);
 197              		.loc 1 132 0
 198 0126 724B     		ldr	r3, .L24+56
 199 0128 BB60     		str	r3, [r7, #8]
 133:events.c      ****                                                   
 200              		.loc 1 133 0
 201 012a 644B     		ldr	r3, .L24+4
 202 012c 1868     		ldr	r0, [r3]
 203 012e 07F10801 		add	r1, r7, #8
 204 0132 0023     		movs	r3, #0
 205 0134 0022     		movs	r2, #0
 206 0136 FFF7FEFF 		bl	xQueueGenericSend
 135:events.c      ****                     }                    
 207              		.loc 1 135 0
 208 013a FFF7FEFF 		bl	StartRecorder
 138:events.c      ****                 case RIGHT_BUTTON:
ARM GAS  C:\Users\ikomb\AppData\Local\Temp\ccsqeaP9.s 			page 9


 209              		.loc 1 138 0
 210 013e BAE0     		b	.L3
 211              	.L8:
 144:events.c      ****                     xQueueSend(GUIQueue, &graphics_event, 0);
 212              		.loc 1 144 0
 213 0140 6B4B     		ldr	r3, .L24+56
 214 0142 BB60     		str	r3, [r7, #8]
 145:events.c      ****                     
 215              		.loc 1 145 0
 216 0144 5D4B     		ldr	r3, .L24+4
 217 0146 1868     		ldr	r0, [r3]
 218 0148 07F10801 		add	r1, r7, #8
 219 014c 0023     		movs	r3, #0
 220 014e 0022     		movs	r2, #0
 221 0150 FFF7FEFF 		bl	xQueueGenericSend
 148:events.c      ****                     {
 222              		.loc 1 148 0
 223 0154 FB7C     		ldrb	r3, [r7, #19]	@ zero_extendqisi2
 224 0156 012B     		cmp	r3, #1
 225 0158 0ED1     		bne	.L16
 150:events.c      ****                         xQueueSend(GUIQueue, &graphics_event, 0);
 226              		.loc 1 150 0
 227 015a 664B     		ldr	r3, .L24+60
 228 015c BB60     		str	r3, [r7, #8]
 151:events.c      ****                         
 229              		.loc 1 151 0
 230 015e 574B     		ldr	r3, .L24+4
 231 0160 1868     		ldr	r0, [r3]
 232 0162 07F10801 		add	r1, r7, #8
 233 0166 0023     		movs	r3, #0
 234 0168 0022     		movs	r2, #0
 235 016a FFF7FEFF 		bl	xQueueGenericSend
 153:events.c      ****                         PlayRecorder();
 236              		.loc 1 153 0
 237 016e FFF7FEFF 		bl	StopRecorder
 154:events.c      ****                     }
 238              		.loc 1 154 0
 239 0172 FFF7FEFF 		bl	PlayRecorder
 181:events.c      ****                 case SLIDER_LEFT:
 240              		.loc 1 181 0
 241 0176 9DE0     		b	.L23
 242              	.L16:
 157:events.c      ****                     {
 243              		.loc 1 157 0
 244 0178 FB7C     		ldrb	r3, [r7, #19]	@ zero_extendqisi2
 245 017a 022B     		cmp	r3, #2
 246 017c 0CD1     		bne	.L18
 159:events.c      ****                         xQueueSend(GUIQueue, &graphics_event, 0);
 247              		.loc 1 159 0
 248 017e 5E4B     		ldr	r3, .L24+64
 249 0180 BB60     		str	r3, [r7, #8]
 160:events.c      ****                         
 250              		.loc 1 160 0
 251 0182 4E4B     		ldr	r3, .L24+4
 252 0184 1868     		ldr	r0, [r3]
 253 0186 07F10801 		add	r1, r7, #8
 254 018a 0023     		movs	r3, #0
ARM GAS  C:\Users\ikomb\AppData\Local\Temp\ccsqeaP9.s 			page 10


 255 018c 0022     		movs	r2, #0
 256 018e FFF7FEFF 		bl	xQueueGenericSend
 162:events.c      ****                     } 
 257              		.loc 1 162 0
 258 0192 FFF7FEFF 		bl	PauseRecorder
 181:events.c      ****                 case SLIDER_LEFT:
 259              		.loc 1 181 0
 260 0196 8DE0     		b	.L23
 261              	.L18:
 165:events.c      ****                     {
 262              		.loc 1 165 0
 263 0198 FB7C     		ldrb	r3, [r7, #19]	@ zero_extendqisi2
 264 019a 032B     		cmp	r3, #3
 265 019c 0CD1     		bne	.L19
 167:events.c      ****                         xQueueSend(GUIQueue, &graphics_event, 0); 
 266              		.loc 1 167 0
 267 019e 554B     		ldr	r3, .L24+60
 268 01a0 BB60     		str	r3, [r7, #8]
 168:events.c      ****                         
 269              		.loc 1 168 0
 270 01a2 464B     		ldr	r3, .L24+4
 271 01a4 1868     		ldr	r0, [r3]
 272 01a6 07F10801 		add	r1, r7, #8
 273 01aa 0023     		movs	r3, #0
 274 01ac 0022     		movs	r2, #0
 275 01ae FFF7FEFF 		bl	xQueueGenericSend
 170:events.c      ****                     }
 276              		.loc 1 170 0
 277 01b2 FFF7FEFF 		bl	ResumeRecorder
 181:events.c      ****                 case SLIDER_LEFT:
 278              		.loc 1 181 0
 279 01b6 7DE0     		b	.L23
 280              	.L19:
 173:events.c      ****                     {
 281              		.loc 1 173 0
 282 01b8 FB7C     		ldrb	r3, [r7, #19]	@ zero_extendqisi2
 283 01ba 002B     		cmp	r3, #0
 284 01bc 7AD1     		bne	.L23
 175:events.c      ****                         xQueueSend(GUIQueue, &graphics_event, 0);
 285              		.loc 1 175 0
 286 01be 4D4B     		ldr	r3, .L24+60
 287 01c0 BB60     		str	r3, [r7, #8]
 176:events.c      ****                         
 288              		.loc 1 176 0
 289 01c2 3E4B     		ldr	r3, .L24+4
 290 01c4 1868     		ldr	r0, [r3]
 291 01c6 07F10801 		add	r1, r7, #8
 292 01ca 0023     		movs	r3, #0
 293 01cc 0022     		movs	r2, #0
 294 01ce FFF7FEFF 		bl	xQueueGenericSend
 178:events.c      ****                     }                                       
 295              		.loc 1 178 0
 296 01d2 FFF7FEFF 		bl	PlayRecorder
 181:events.c      ****                 case SLIDER_LEFT:
 297              		.loc 1 181 0
 298 01d6 6DE0     		b	.L23
 299              	.L5:
ARM GAS  C:\Users\ikomb\AppData\Local\Temp\ccsqeaP9.s 			page 11


 186:events.c      ****                     
 300              		.loc 1 186 0
 301 01d8 7B69     		ldr	r3, [r7, #20]
 302 01da 0C33     		adds	r3, r3, #12
 303 01dc 7B61     		str	r3, [r7, #20]
 188:events.c      ****                     {
 304              		.loc 1 188 0
 305 01de 7B69     		ldr	r3, [r7, #20]
 306 01e0 8F2B     		cmp	r3, #143
 307 01e2 01DD     		ble	.L20
 190:events.c      ****                     }
 308              		.loc 1 190 0
 309 01e4 9023     		movs	r3, #144
 310 01e6 7B61     		str	r3, [r7, #20]
 311              	.L20:
 193:events.c      ****                     
 312              		.loc 1 193 0
 313 01e8 7B69     		ldr	r3, [r7, #20]
 314 01ea DBB2     		uxtb	r3, r3
 315 01ec 1846     		mov	r0, r3
 316 01ee FFF7FEFF 		bl	Codec_AdjustBothHeadphoneVolume
 195:events.c      ****                     xQueueSend(GUIQueue, &graphics_event, 0);
 317              		.loc 1 195 0
 318 01f2 7B69     		ldr	r3, [r7, #20]
 319 01f4 C3F19003 		rsb	r3, r3, #144
 320 01f8 6422     		movs	r2, #100
 321 01fa 02FB03F3 		mul	r3, r2, r3
 322 01fe 3F4A     		ldr	r2, .L24+68
 323 0200 82FB0312 		smull	r1, r2, r2, r3
 324 0204 5211     		asrs	r2, r2, #5
 325 0206 DB17     		asrs	r3, r3, #31
 326 0208 D31A     		subs	r3, r2, r3
 327 020a 43F04053 		orr	r3, r3, #805306368
 328 020e 43F48033 		orr	r3, r3, #65536
 329 0212 BB60     		str	r3, [r7, #8]
 196:events.c      ****                     break;
 330              		.loc 1 196 0
 331 0214 294B     		ldr	r3, .L24+4
 332 0216 1868     		ldr	r0, [r3]
 333 0218 07F10801 		add	r1, r7, #8
 334 021c 0023     		movs	r3, #0
 335 021e 0022     		movs	r2, #0
 336 0220 FFF7FEFF 		bl	xQueueGenericSend
 197:events.c      ****                 case SLIDER_RIGHT:    
 337              		.loc 1 197 0
 338 0224 47E0     		b	.L3
 339              	.L11:
 202:events.c      ****                     
 340              		.loc 1 202 0
 341 0226 7B69     		ldr	r3, [r7, #20]
 342 0228 0C3B     		subs	r3, r3, #12
 343 022a 7B61     		str	r3, [r7, #20]
 204:events.c      ****                     {
 344              		.loc 1 204 0
 345 022c 7B69     		ldr	r3, [r7, #20]
 346 022e 002B     		cmp	r3, #0
 347 0230 01DA     		bge	.L21
ARM GAS  C:\Users\ikomb\AppData\Local\Temp\ccsqeaP9.s 			page 12


 206:events.c      ****                     }
 348              		.loc 1 206 0
 349 0232 0023     		movs	r3, #0
 350 0234 7B61     		str	r3, [r7, #20]
 351              	.L21:
 209:events.c      ****                     
 352              		.loc 1 209 0
 353 0236 7B69     		ldr	r3, [r7, #20]
 354 0238 DBB2     		uxtb	r3, r3
 355 023a 1846     		mov	r0, r3
 356 023c FFF7FEFF 		bl	Codec_AdjustBothHeadphoneVolume
 211:events.c      ****                     xQueueSend(GUIQueue, &graphics_event, 0);
 357              		.loc 1 211 0
 358 0240 7B69     		ldr	r3, [r7, #20]
 359 0242 C3F19003 		rsb	r3, r3, #144
 360 0246 6422     		movs	r2, #100
 361 0248 02FB03F3 		mul	r3, r2, r3
 362 024c 2B4A     		ldr	r2, .L24+68
 363 024e 82FB0312 		smull	r1, r2, r2, r3
 364 0252 5211     		asrs	r2, r2, #5
 365 0254 DB17     		asrs	r3, r3, #31
 366 0256 D31A     		subs	r3, r2, r3
 367 0258 43F04053 		orr	r3, r3, #805306368
 368 025c 43F48033 		orr	r3, r3, #65536
 369 0260 BB60     		str	r3, [r7, #8]
 212:events.c      ****                     break;
 370              		.loc 1 212 0
 371 0262 164B     		ldr	r3, .L24+4
 372 0264 1868     		ldr	r0, [r3]
 373 0266 07F10801 		add	r1, r7, #8
 374 026a 0023     		movs	r3, #0
 375 026c 0022     		movs	r2, #0
 376 026e FFF7FEFF 		bl	xQueueGenericSend
 213:events.c      ****                 
 377              		.loc 1 213 0
 378 0272 20E0     		b	.L3
 379              	.L9:
 217:events.c      ****                     xQueueSend(GUIQueue, &graphics_event, 0);
 380              		.loc 1 217 0
 381 0274 104B     		ldr	r3, .L24
 382 0276 BB60     		str	r3, [r7, #8]
 218:events.c      ****                     break;
 383              		.loc 1 218 0
 384 0278 104B     		ldr	r3, .L24+4
 385 027a 1868     		ldr	r0, [r3]
 386 027c 07F10801 		add	r1, r7, #8
 387 0280 0023     		movs	r3, #0
 388 0282 0022     		movs	r2, #0
 389 0284 FFF7FEFF 		bl	xQueueGenericSend
 219:events.c      ****                     
 390              		.loc 1 219 0
 391 0288 15E0     		b	.L3
 392              	.L10:
 222:events.c      ****                     xQueueSend(GUIQueue, &graphics_event, 0);
 393              		.loc 1 222 0
 394 028a 0B4B     		ldr	r3, .L24
 395 028c BB60     		str	r3, [r7, #8]
ARM GAS  C:\Users\ikomb\AppData\Local\Temp\ccsqeaP9.s 			page 13


 223:events.c      ****                     
 396              		.loc 1 223 0
 397 028e 0B4B     		ldr	r3, .L24+4
 398 0290 1868     		ldr	r0, [r3]
 399 0292 07F10801 		add	r1, r7, #8
 400 0296 0023     		movs	r3, #0
 401 0298 0022     		movs	r2, #0
 402 029a FFF7FEFF 		bl	xQueueGenericSend
 225:events.c      ****                     xQueueSend(GUIQueue, &graphics_event, 0);
 403              		.loc 1 225 0
 404 029e 184B     		ldr	r3, .L24+72
 405 02a0 BB60     		str	r3, [r7, #8]
 226:events.c      ****                     break;
 406              		.loc 1 226 0
 407 02a2 064B     		ldr	r3, .L24+4
 408 02a4 1868     		ldr	r0, [r3]
 409 02a6 07F10801 		add	r1, r7, #8
 410 02aa 0023     		movs	r3, #0
 411 02ac 0022     		movs	r2, #0
 412 02ae FFF7FEFF 		bl	xQueueGenericSend
 227:events.c      ****                     
 413              		.loc 1 227 0
 414 02b2 00E0     		b	.L3
 415              	.L23:
 181:events.c      ****                 case SLIDER_LEFT:
 416              		.loc 1 181 0
 417 02b4 00BF     		nop
 418              	.L3:
 231:events.c      ****             }
 232:events.c      ****         }
 233:events.c      ****     }
 419              		.loc 1 233 0 discriminator 1
 420 02b6 DDE6     		b	.L22
 421              	.L25:
 422              		.align	2
 423              	.L24:
 424 02b8 04000030 		.word	805306372
 425 02bc 00000000 		.word	GUIQueue
 426 02c0 07000030 		.word	805306375
 427 02c4 5B000130 		.word	805371995
 428 02c8 00000230 		.word	805437440
 429 02cc 00000000 		.word	vTaskDelay
 430 02d0 00000000 		.word	EventsQueue
 431 02d4 03000010 		.word	268435459
 432 02d8 01000010 		.word	268435457
 433 02dc 02000010 		.word	268435458
 434 02e0 01000020 		.word	536870913
 435 02e4 02000020 		.word	536870914
 436 02e8 04000010 		.word	268435460
 437 02ec 01000030 		.word	805306369
 438 02f0 06000030 		.word	805306374
 439 02f4 02000030 		.word	805306370
 440 02f8 03000030 		.word	805306371
 441 02fc 398EE338 		.word	954437177
 442 0300 05000030 		.word	805306373
 443              		.cfi_endproc
 444              	.LFE806:
ARM GAS  C:\Users\ikomb\AppData\Local\Temp\ccsqeaP9.s 			page 14


 445              		.size	EventsTask, .-EventsTask
 446              		.text
 447              	.Letext0:
 448              		.file 2 "c:\\program files (x86)\\cypress\\psoc creator\\4.4\\psoc creator\\import\\gnu\\arm\\5.4.
 449              		.file 3 "c:\\program files (x86)\\cypress\\psoc creator\\4.4\\psoc creator\\import\\gnu\\arm\\5.4.
 450              		.file 4 "Generated_Source\\PSoC6\\pdl\\drivers/peripheral/syslib/cy_syslib.h"
 451              		.file 5 "Generated_Source\\PSoC6\\pdl\\drivers/peripheral/smif/cy_smif.h"
 452              		.file 6 "Generated_Source\\PSoC6\\pdl\\drivers/peripheral/smif/cy_smif_memslot.h"
 453              		.file 7 "Generated_Source\\PSoC6\\pdl\\drivers/peripheral/scb/cy_scb_i2c.h"
 454              		.file 8 "Generated_Source\\PSoC6\\pdl\\drivers/peripheral/i2s/cy_i2s.h"
 455              		.file 9 "Generated_Source\\PSoC6\\pdl\\drivers/peripheral/pdm_pcm/cy_pdm_pcm.h"
 456              		.file 10 "touch.h"
 457              		.file 11 "recorder.h"
 458              		.file 12 "graphics.h"
 459              		.file 13 "Generated_Source\\PSoC6\\pdl\\rtos/FreeRTOS/9.0.0/Source/portable/GCC/CM4F/portmacro.h"
 460              		.file 14 "Generated_Source\\PSoC6\\pdl\\rtos/FreeRTOS/9.0.0/Source/include/queue.h"
 461              		.file 15 "Generated_Source\\PSoC6\\pdl\\cmsis/include/core_cm4.h"
 462              		.file 16 "Generated_Source\\PSoC6/PDM_PCM.h"
 463              		.file 17 "Generated_Source\\PSoC6/CodecI2CM.h"
 464              		.file 18 "Generated_Source\\PSoC6/I2S.h"
 465              		.file 19 "Generated_Source\\PSoC6/SMIF_1.h"
 466              		.file 20 "rtos.h"