ARM GAS  C:\Users\ikomb\AppData\Local\Temp\ccJUeL7i.s 			page 1


   1              		.syntax unified
   2              		.cpu cortex-m4
   3              		.eabi_attribute 27, 1
   4              		.fpu fpv4-sp-d16
   5              		.eabi_attribute 20, 1
   6              		.eabi_attribute 21, 1
   7              		.eabi_attribute 23, 3
   8              		.eabi_attribute 24, 1
   9              		.eabi_attribute 25, 1
  10              		.eabi_attribute 26, 1
  11              		.eabi_attribute 30, 6
  12              		.eabi_attribute 34, 1
  13              		.eabi_attribute 18, 4
  14              		.thumb
  15              		.syntax unified
  16              		.file	"graphics.c"
  17              		.text
  18              	.Ltext0:
  19              		.cfi_sections	.debug_frame
  20              		.comm	gui,92,4
  21              		.section	.text.GraphicsDrawRecordingIcon,"ax",%progbits
  22              		.align	2
  23              		.thumb
  24              		.thumb_func
  25              		.type	GraphicsDrawRecordingIcon, %function
  26              	GraphicsDrawRecordingIcon:
  27              	.LFB807:
  28              		.file 1 "graphics.c"
   1:graphics.c    **** /******************************************************************************
   2:graphics.c    **** * File Name: graphics.c
   3:graphics.c    **** *
   4:graphics.c    **** * Version: 1.1
   5:graphics.c    **** *
   6:graphics.c    **** * Description: This file contains the functions used to handle the graphic
   7:graphics.c    **** * user interface.
   8:graphics.c    **** *
   9:graphics.c    **** * Related Document: N/A
  10:graphics.c    **** *
  11:graphics.c    **** * Hardware Dependency: CY8CKIT-062-WiFi-BT PSoC 6 WiFi-BT Pioneer Kit
  12:graphics.c    **** *
  13:graphics.c    **** ******************************************************************************
  14:graphics.c    **** * Copyright (2018), Cypress Semiconductor Corporation.
  15:graphics.c    **** ******************************************************************************
  16:graphics.c    **** * This software, including source code, documentation and related materials
  17:graphics.c    **** * ("Software") is owned by Cypress Semiconductor Corporation (Cypress) and is
  18:graphics.c    **** * protected by and subject to worldwide patent protection (United States and
  19:graphics.c    **** * foreign), United States copyright laws and international treaty provisions.
  20:graphics.c    **** * Cypress hereby grants to licensee a personal, non-exclusive, non-transferable
  21:graphics.c    **** * license to copy, use, modify, create derivative works of, and compile the
  22:graphics.c    **** * Cypress source code and derivative works for the sole purpose of creating
  23:graphics.c    **** * custom software in support of licensee product, such licensee product to be
  24:graphics.c    **** * used only in conjunction with Cypress's integrated circuit as specified in the
  25:graphics.c    **** * applicable agreement. Any reproduction, modification, translation, compilation,
  26:graphics.c    **** * or representation of this Software except as specified above is prohibited
  27:graphics.c    **** * without the express written permission of Cypress.
  28:graphics.c    **** *
  29:graphics.c    **** * Disclaimer: THIS SOFTWARE IS PROVIDED AS-IS, WITH NO WARRANTY OF ANY KIND,
ARM GAS  C:\Users\ikomb\AppData\Local\Temp\ccJUeL7i.s 			page 2


  30:graphics.c    **** * EXPRESS OR IMPLIED, INCLUDING, BUT NOT LIMITED TO, NONINFRINGEMENT, IMPLIED
  31:graphics.c    **** * WARRANTIES OF MERCHANTABILITY AND FITNESS FOR A PARTICULAR PURPOSE.
  32:graphics.c    **** * Cypress reserves the right to make changes to the Software without notice.
  33:graphics.c    **** * Cypress does not assume any liability arising out of the application or use
  34:graphics.c    **** * of Software or any product or circuit described in the Software. Cypress does
  35:graphics.c    **** * not authorize its products for use as critical components in any products
  36:graphics.c    **** * where a malfunction or failure may reasonably be expected to result in
  37:graphics.c    **** * significant injury or death ("ACTIVE Risk Product"). By including Cypress's
  38:graphics.c    **** * product in a ACTIVE Risk Product, the manufacturer of such system or application
  39:graphics.c    **** * assumes all risk of such use and in doing so indemnifies Cypress against all
  40:graphics.c    **** * liability. Use of this Software may be limited by and subject to the applicable
  41:graphics.c    **** * Cypress software license agreement.
  42:graphics.c    **** *****************************************************************************/
  43:graphics.c    **** #include "graphics.h"
  44:graphics.c    **** #include "tft_display.h"
  45:graphics.c    **** #include "ugui.h"
  46:graphics.c    **** #include <stdio.h>
  47:graphics.c    **** #include "project.h"
  48:graphics.c    **** 
  49:graphics.c    **** #include "rtos.h"
  50:graphics.c    **** 
  51:graphics.c    **** /* Global Variables */
  52:graphics.c    **** UG_GUI gui;
  53:graphics.c    **** 
  54:graphics.c    **** /* Local Functions */
  55:graphics.c    **** 
  56:graphics.c    **** /* Draw the Recording icon (Full red circle) */
  57:graphics.c    **** static void GraphicsDrawRecordingIcon(void)
  58:graphics.c    **** {
  29              		.loc 1 58 0
  30              		.cfi_startproc
  31              		@ args = 0, pretend = 0, frame = 0
  32              		@ frame_needed = 1, uses_anonymous_args = 0
  33 0000 80B5     		push	{r7, lr}
  34              		.cfi_def_cfa_offset 8
  35              		.cfi_offset 7, -8
  36              		.cfi_offset 14, -4
  37 0002 82B0     		sub	sp, sp, #8
  38              		.cfi_def_cfa_offset 16
  39 0004 02AF     		add	r7, sp, #8
  40              		.cfi_def_cfa 7, 8
  59:graphics.c    ****     UG_FillFrame(TFT_WIDTH/2-GUI_ICON_SIZE, TFT_HEIGHT/2-GUI_ICON_SIZE,
  41              		.loc 1 59 0
  42 0006 0023     		movs	r3, #0
  43 0008 0093     		str	r3, [sp]
  44 000a 9123     		movs	r3, #145
  45 000c B922     		movs	r2, #185
  46 000e 5F21     		movs	r1, #95
  47 0010 8720     		movs	r0, #135
  48 0012 FFF7FEFF 		bl	UG_FillFrame
  60:graphics.c    ****                  TFT_WIDTH/2+GUI_ICON_SIZE, TFT_HEIGHT/2+GUI_ICON_SIZE, C_BLACK);
  61:graphics.c    ****     UG_FillCircle(TFT_WIDTH/2 , TFT_HEIGHT/2, GUI_ICON_SIZE, C_RED);
  49              		.loc 1 61 0
  50 0016 4FF47F03 		mov	r3, #16711680
  51 001a 1922     		movs	r2, #25
  52 001c 7821     		movs	r1, #120
  53 001e A020     		movs	r0, #160
ARM GAS  C:\Users\ikomb\AppData\Local\Temp\ccJUeL7i.s 			page 3


  54 0020 FFF7FEFF 		bl	UG_FillCircle
  62:graphics.c    **** }
  55              		.loc 1 62 0
  56 0024 00BF     		nop
  57 0026 BD46     		mov	sp, r7
  58              		.cfi_def_cfa_register 13
  59              		@ sp needed
  60 0028 80BD     		pop	{r7, pc}
  61              		.cfi_endproc
  62              	.LFE807:
  63              		.size	GraphicsDrawRecordingIcon, .-GraphicsDrawRecordingIcon
  64 002a 00BF     		.section	.text.GraphicsDrawPlayingIcon,"ax",%progbits
  65              		.align	2
  66              		.thumb
  67              		.thumb_func
  68              		.type	GraphicsDrawPlayingIcon, %function
  69              	GraphicsDrawPlayingIcon:
  70              	.LFB808:
  63:graphics.c    **** 
  64:graphics.c    **** /* Draw the Playing icon (Full green triangle) */
  65:graphics.c    **** static void GraphicsDrawPlayingIcon(void)
  66:graphics.c    **** {
  71              		.loc 1 66 0
  72              		.cfi_startproc
  73              		@ args = 0, pretend = 0, frame = 8
  74              		@ frame_needed = 1, uses_anonymous_args = 0
  75 0000 90B5     		push	{r4, r7, lr}
  76              		.cfi_def_cfa_offset 12
  77              		.cfi_offset 4, -12
  78              		.cfi_offset 7, -8
  79              		.cfi_offset 14, -4
  80 0002 85B0     		sub	sp, sp, #20
  81              		.cfi_def_cfa_offset 32
  82 0004 02AF     		add	r7, sp, #8
  83              		.cfi_def_cfa 7, 24
  67:graphics.c    ****     uint32_t index;
  68:graphics.c    ****     
  69:graphics.c    ****     for (index = 0; index <= GUI_ICON_SIZE*2; index++)
  84              		.loc 1 69 0
  85 0006 0023     		movs	r3, #0
  86 0008 7B60     		str	r3, [r7, #4]
  87 000a 4CE0     		b	.L3
  88              	.L4:
  70:graphics.c    ****     {   
  71:graphics.c    ****         UG_DrawLine(TFT_WIDTH/2-GUI_ICON_SIZE + index, TFT_HEIGHT/2-GUI_ICON_SIZE,
  89              		.loc 1 71 0 discriminator 3
  90 000c 7B68     		ldr	r3, [r7, #4]
  91 000e 9BB2     		uxth	r3, r3
  92 0010 8733     		adds	r3, r3, #135
  93 0012 9BB2     		uxth	r3, r3
  94 0014 18B2     		sxth	r0, r3
  95 0016 7B68     		ldr	r3, [r7, #4]
  96 0018 9BB2     		uxth	r3, r3
  97 001a 8733     		adds	r3, r3, #135
  98 001c 9BB2     		uxth	r3, r3
  99 001e 1AB2     		sxth	r2, r3
  72:graphics.c    ****                     TFT_WIDTH/2-GUI_ICON_SIZE + index, TFT_HEIGHT/2+GUI_ICON_SIZE+index/2, C_BLACK)
ARM GAS  C:\Users\ikomb\AppData\Local\Temp\ccJUeL7i.s 			page 4


 100              		.loc 1 72 0 discriminator 3
 101 0020 7B68     		ldr	r3, [r7, #4]
 102 0022 5B08     		lsrs	r3, r3, #1
  71:graphics.c    ****                     TFT_WIDTH/2-GUI_ICON_SIZE + index, TFT_HEIGHT/2+GUI_ICON_SIZE+index/2, C_BLACK)
 103              		.loc 1 71 0 discriminator 3
 104 0024 9BB2     		uxth	r3, r3
 105 0026 9133     		adds	r3, r3, #145
 106 0028 9BB2     		uxth	r3, r3
 107 002a 19B2     		sxth	r1, r3
 108 002c 0023     		movs	r3, #0
 109 002e 0093     		str	r3, [sp]
 110 0030 0B46     		mov	r3, r1
 111 0032 5F21     		movs	r1, #95
 112 0034 FFF7FEFF 		bl	UG_DrawLine
  73:graphics.c    ****         
  74:graphics.c    ****         UG_DrawLine(TFT_WIDTH/2-GUI_ICON_SIZE + index, TFT_HEIGHT/2-GUI_ICON_SIZE+index/2,
 113              		.loc 1 74 0 discriminator 3
 114 0038 7B68     		ldr	r3, [r7, #4]
 115 003a 9BB2     		uxth	r3, r3
 116 003c 8733     		adds	r3, r3, #135
 117 003e 9BB2     		uxth	r3, r3
 118 0040 18B2     		sxth	r0, r3
 119 0042 7B68     		ldr	r3, [r7, #4]
 120 0044 5B08     		lsrs	r3, r3, #1
 121 0046 9BB2     		uxth	r3, r3
 122 0048 5F33     		adds	r3, r3, #95
 123 004a 9BB2     		uxth	r3, r3
 124 004c 19B2     		sxth	r1, r3
 125 004e 7B68     		ldr	r3, [r7, #4]
 126 0050 9BB2     		uxth	r3, r3
 127 0052 8733     		adds	r3, r3, #135
 128 0054 9BB2     		uxth	r3, r3
 129 0056 1AB2     		sxth	r2, r3
  75:graphics.c    ****                     TFT_WIDTH/2-GUI_ICON_SIZE + index, TFT_HEIGHT/2+GUI_ICON_SIZE-index/2, C_GREEN)
 130              		.loc 1 75 0 discriminator 3
 131 0058 7B68     		ldr	r3, [r7, #4]
 132 005a 5B08     		lsrs	r3, r3, #1
  74:graphics.c    ****                     TFT_WIDTH/2-GUI_ICON_SIZE + index, TFT_HEIGHT/2+GUI_ICON_SIZE-index/2, C_GREEN)
 133              		.loc 1 74 0 discriminator 3
 134 005c 9BB2     		uxth	r3, r3
 135 005e C3F19103 		rsb	r3, r3, #145
 136 0062 9BB2     		uxth	r3, r3
 137 0064 1CB2     		sxth	r4, r3
 138 0066 4FF47F43 		mov	r3, #65280
 139 006a 0093     		str	r3, [sp]
 140 006c 2346     		mov	r3, r4
 141 006e FFF7FEFF 		bl	UG_DrawLine
  76:graphics.c    ****         
  77:graphics.c    ****         UG_DrawLine(TFT_WIDTH/2-GUI_ICON_SIZE + index, TFT_HEIGHT/2+GUI_ICON_SIZE,
 142              		.loc 1 77 0 discriminator 3
 143 0072 7B68     		ldr	r3, [r7, #4]
 144 0074 9BB2     		uxth	r3, r3
 145 0076 8733     		adds	r3, r3, #135
 146 0078 9BB2     		uxth	r3, r3
 147 007a 18B2     		sxth	r0, r3
 148 007c 7B68     		ldr	r3, [r7, #4]
 149 007e 9BB2     		uxth	r3, r3
ARM GAS  C:\Users\ikomb\AppData\Local\Temp\ccJUeL7i.s 			page 5


 150 0080 8733     		adds	r3, r3, #135
 151 0082 9BB2     		uxth	r3, r3
 152 0084 1AB2     		sxth	r2, r3
  78:graphics.c    ****                     TFT_WIDTH/2-GUI_ICON_SIZE + index, TFT_HEIGHT/2+GUI_ICON_SIZE-index/2, C_BLACK)
 153              		.loc 1 78 0 discriminator 3
 154 0086 7B68     		ldr	r3, [r7, #4]
 155 0088 5B08     		lsrs	r3, r3, #1
  77:graphics.c    ****                     TFT_WIDTH/2-GUI_ICON_SIZE + index, TFT_HEIGHT/2+GUI_ICON_SIZE-index/2, C_BLACK)
 156              		.loc 1 77 0 discriminator 3
 157 008a 9BB2     		uxth	r3, r3
 158 008c C3F19103 		rsb	r3, r3, #145
 159 0090 9BB2     		uxth	r3, r3
 160 0092 19B2     		sxth	r1, r3
 161 0094 0023     		movs	r3, #0
 162 0096 0093     		str	r3, [sp]
 163 0098 0B46     		mov	r3, r1
 164 009a 9121     		movs	r1, #145
 165 009c FFF7FEFF 		bl	UG_DrawLine
  69:graphics.c    ****     {   
 166              		.loc 1 69 0 discriminator 3
 167 00a0 7B68     		ldr	r3, [r7, #4]
 168 00a2 0133     		adds	r3, r3, #1
 169 00a4 7B60     		str	r3, [r7, #4]
 170              	.L3:
  69:graphics.c    ****     {   
 171              		.loc 1 69 0 is_stmt 0 discriminator 1
 172 00a6 7B68     		ldr	r3, [r7, #4]
 173 00a8 322B     		cmp	r3, #50
 174 00aa AFD9     		bls	.L4
  79:graphics.c    ****     }
  80:graphics.c    **** }
 175              		.loc 1 80 0 is_stmt 1
 176 00ac 00BF     		nop
 177 00ae 0C37     		adds	r7, r7, #12
 178              		.cfi_def_cfa_offset 12
 179 00b0 BD46     		mov	sp, r7
 180              		.cfi_def_cfa_register 13
 181              		@ sp needed
 182 00b2 90BD     		pop	{r4, r7, pc}
 183              		.cfi_endproc
 184              	.LFE808:
 185              		.size	GraphicsDrawPlayingIcon, .-GraphicsDrawPlayingIcon
 186              		.section	.text.GraphicsDrawStoppedIcon,"ax",%progbits
 187              		.align	2
 188              		.thumb
 189              		.thumb_func
 190              		.type	GraphicsDrawStoppedIcon, %function
 191              	GraphicsDrawStoppedIcon:
 192              	.LFB809:
  81:graphics.c    **** 
  82:graphics.c    **** /* Draw the Stop icon (Full blue square) */
  83:graphics.c    **** static void GraphicsDrawStoppedIcon(void)
  84:graphics.c    **** {
 193              		.loc 1 84 0
 194              		.cfi_startproc
 195              		@ args = 0, pretend = 0, frame = 0
 196              		@ frame_needed = 1, uses_anonymous_args = 0
ARM GAS  C:\Users\ikomb\AppData\Local\Temp\ccJUeL7i.s 			page 6


 197 0000 80B5     		push	{r7, lr}
 198              		.cfi_def_cfa_offset 8
 199              		.cfi_offset 7, -8
 200              		.cfi_offset 14, -4
 201 0002 82B0     		sub	sp, sp, #8
 202              		.cfi_def_cfa_offset 16
 203 0004 02AF     		add	r7, sp, #8
 204              		.cfi_def_cfa 7, 8
  85:graphics.c    ****     UG_FillFrame(TFT_WIDTH/2-GUI_ICON_SIZE, TFT_HEIGHT/2-GUI_ICON_SIZE,
 205              		.loc 1 85 0
 206 0006 FF23     		movs	r3, #255
 207 0008 0093     		str	r3, [sp]
 208 000a 9123     		movs	r3, #145
 209 000c B922     		movs	r2, #185
 210 000e 5F21     		movs	r1, #95
 211 0010 8720     		movs	r0, #135
 212 0012 FFF7FEFF 		bl	UG_FillFrame
  86:graphics.c    ****                  TFT_WIDTH/2+GUI_ICON_SIZE, TFT_HEIGHT/2+GUI_ICON_SIZE, C_BLUE);
  87:graphics.c    **** }
 213              		.loc 1 87 0
 214 0016 00BF     		nop
 215 0018 BD46     		mov	sp, r7
 216              		.cfi_def_cfa_register 13
 217              		@ sp needed
 218 001a 80BD     		pop	{r7, pc}
 219              		.cfi_endproc
 220              	.LFE809:
 221              		.size	GraphicsDrawStoppedIcon, .-GraphicsDrawStoppedIcon
 222              		.section	.text.GraphicsDrawPausedIcon,"ax",%progbits
 223              		.align	2
 224              		.thumb
 225              		.thumb_func
 226              		.type	GraphicsDrawPausedIcon, %function
 227              	GraphicsDrawPausedIcon:
 228              	.LFB810:
  88:graphics.c    **** 
  89:graphics.c    **** /* Draw the Paused icon (Full two yellow square) */
  90:graphics.c    **** static void GraphicsDrawPausedIcon(void)
  91:graphics.c    **** {
 229              		.loc 1 91 0
 230              		.cfi_startproc
 231              		@ args = 0, pretend = 0, frame = 0
 232              		@ frame_needed = 1, uses_anonymous_args = 0
 233 0000 80B5     		push	{r7, lr}
 234              		.cfi_def_cfa_offset 8
 235              		.cfi_offset 7, -8
 236              		.cfi_offset 14, -4
 237 0002 82B0     		sub	sp, sp, #8
 238              		.cfi_def_cfa_offset 16
 239 0004 02AF     		add	r7, sp, #8
 240              		.cfi_def_cfa 7, 8
  92:graphics.c    ****     UG_FillFrame(TFT_WIDTH/2-GUI_ICON_SIZE, TFT_HEIGHT/2-GUI_ICON_SIZE,
 241              		.loc 1 92 0
 242 0006 0D4B     		ldr	r3, .L7
 243 0008 0093     		str	r3, [sp]
 244 000a 9123     		movs	r3, #145
 245 000c 9822     		movs	r2, #152
ARM GAS  C:\Users\ikomb\AppData\Local\Temp\ccJUeL7i.s 			page 7


 246 000e 5F21     		movs	r1, #95
 247 0010 8720     		movs	r0, #135
 248 0012 FFF7FEFF 		bl	UG_FillFrame
  93:graphics.c    ****                  TFT_WIDTH/2-GUI_ICON_SIZE/3, TFT_HEIGHT/2+GUI_ICON_SIZE, C_YELLOW);    
  94:graphics.c    ****     
  95:graphics.c    ****     UG_FillFrame(TFT_WIDTH/2-GUI_ICON_SIZE/3, TFT_HEIGHT/2-GUI_ICON_SIZE,
 249              		.loc 1 95 0
 250 0016 0023     		movs	r3, #0
 251 0018 0093     		str	r3, [sp]
 252 001a 9123     		movs	r3, #145
 253 001c A822     		movs	r2, #168
 254 001e 5F21     		movs	r1, #95
 255 0020 9820     		movs	r0, #152
 256 0022 FFF7FEFF 		bl	UG_FillFrame
  96:graphics.c    ****                  TFT_WIDTH/2+GUI_ICON_SIZE/3, TFT_HEIGHT/2+GUI_ICON_SIZE, C_BLACK);
  97:graphics.c    ****     
  98:graphics.c    ****     UG_FillFrame(TFT_WIDTH/2+GUI_ICON_SIZE/3, TFT_HEIGHT/2-GUI_ICON_SIZE,
 257              		.loc 1 98 0
 258 0026 054B     		ldr	r3, .L7
 259 0028 0093     		str	r3, [sp]
 260 002a 9123     		movs	r3, #145
 261 002c B922     		movs	r2, #185
 262 002e 5F21     		movs	r1, #95
 263 0030 A820     		movs	r0, #168
 264 0032 FFF7FEFF 		bl	UG_FillFrame
  99:graphics.c    ****                  TFT_WIDTH/2+GUI_ICON_SIZE, TFT_HEIGHT/2+GUI_ICON_SIZE, C_YELLOW);
 100:graphics.c    ****     
 101:graphics.c    **** }
 265              		.loc 1 101 0
 266 0036 00BF     		nop
 267 0038 BD46     		mov	sp, r7
 268              		.cfi_def_cfa_register 13
 269              		@ sp needed
 270 003a 80BD     		pop	{r7, pc}
 271              	.L8:
 272              		.align	2
 273              	.L7:
 274 003c 00FFFF00 		.word	16776960
 275              		.cfi_endproc
 276              	.LFE810:
 277              		.size	GraphicsDrawPausedIcon, .-GraphicsDrawPausedIcon
 278              		.section	.rodata
 279              		.align	2
 280              	.LC0:
 281 0000 20566F6C 		.ascii	" Vol:    %\000"
 281      3A202020 
 281      202500
 282              		.section	.text.GraphicsDrawVolumeText,"ax",%progbits
 283              		.align	2
 284              		.thumb
 285              		.thumb_func
 286              		.type	GraphicsDrawVolumeText, %function
 287              	GraphicsDrawVolumeText:
 288              	.LFB811:
 102:graphics.c    **** 
 103:graphics.c    **** /* Draw the volume text on the bottom of the screen */
 104:graphics.c    **** static void GraphicsDrawVolumeText(void)
ARM GAS  C:\Users\ikomb\AppData\Local\Temp\ccJUeL7i.s 			page 8


 105:graphics.c    **** {
 289              		.loc 1 105 0
 290              		.cfi_startproc
 291              		@ args = 0, pretend = 0, frame = 0
 292              		@ frame_needed = 1, uses_anonymous_args = 0
 293 0000 80B5     		push	{r7, lr}
 294              		.cfi_def_cfa_offset 8
 295              		.cfi_offset 7, -8
 296              		.cfi_offset 14, -4
 297 0002 00AF     		add	r7, sp, #0
 298              		.cfi_def_cfa_register 7
 106:graphics.c    ****     UG_SetForecolor(C_WHITE);
 299              		.loc 1 106 0
 300 0004 6FF07F40 		mvn	r0, #-16777216
 301 0008 FFF7FEFF 		bl	UG_SetForecolor
 107:graphics.c    ****     
 108:graphics.c    ****     UG_PutString(0,TFT_HEIGHT-TEXT_SIZE.char_height, " Vol:    %");
 302              		.loc 1 108 0
 303 000c 074B     		ldr	r3, .L10
 304 000e B3F90630 		ldrsh	r3, [r3, #6]
 305 0012 9BB2     		uxth	r3, r3
 306 0014 C3F1F003 		rsb	r3, r3, #240
 307 0018 9BB2     		uxth	r3, r3
 308 001a 1BB2     		sxth	r3, r3
 309 001c 044A     		ldr	r2, .L10+4
 310 001e 1946     		mov	r1, r3
 311 0020 0020     		movs	r0, #0
 312 0022 FFF7FEFF 		bl	UG_PutString
 109:graphics.c    **** }
 313              		.loc 1 109 0
 314 0026 00BF     		nop
 315 0028 80BD     		pop	{r7, pc}
 316              	.L11:
 317 002a 00BF     		.align	2
 318              	.L10:
 319 002c 00000000 		.word	FONT_10X16
 320 0030 00000000 		.word	.LC0
 321              		.cfi_endproc
 322              	.LFE811:
 323              		.size	GraphicsDrawVolumeText, .-GraphicsDrawVolumeText
 324              		.section	.rodata
 325 000b 00       		.align	2
 326              	.LC1:
 327 000c 25337500 		.ascii	"%3u\000"
 328              		.section	.text.GraphicsUpdateVolume,"ax",%progbits
 329              		.align	2
 330              		.thumb
 331              		.thumb_func
 332              		.type	GraphicsUpdateVolume, %function
 333              	GraphicsUpdateVolume:
 334              	.LFB812:
 110:graphics.c    **** 
 111:graphics.c    **** /* Update the volume value */
 112:graphics.c    **** static void GraphicsUpdateVolume(uint32_t volume)
 113:graphics.c    **** {
 335              		.loc 1 113 0
 336              		.cfi_startproc
ARM GAS  C:\Users\ikomb\AppData\Local\Temp\ccJUeL7i.s 			page 9


 337              		@ args = 0, pretend = 0, frame = 16
 338              		@ frame_needed = 1, uses_anonymous_args = 0
 339 0000 80B5     		push	{r7, lr}
 340              		.cfi_def_cfa_offset 8
 341              		.cfi_offset 7, -8
 342              		.cfi_offset 14, -4
 343 0002 84B0     		sub	sp, sp, #16
 344              		.cfi_def_cfa_offset 24
 345 0004 00AF     		add	r7, sp, #0
 346              		.cfi_def_cfa_register 7
 347 0006 7860     		str	r0, [r7, #4]
 114:graphics.c    ****     char string[TEXT_BUFFER_SIZE]; 
 115:graphics.c    ****     
 116:graphics.c    ****     UG_SetForecolor(C_WHITE);
 348              		.loc 1 116 0
 349 0008 6FF07F40 		mvn	r0, #-16777216
 350 000c FFF7FEFF 		bl	UG_SetForecolor
 117:graphics.c    ****     
 118:graphics.c    ****     sprintf(string, "%3u", (uint8_t) volume);
 351              		.loc 1 118 0
 352 0010 7B68     		ldr	r3, [r7, #4]
 353 0012 DAB2     		uxtb	r2, r3
 354 0014 07F10803 		add	r3, r7, #8
 355 0018 0F49     		ldr	r1, .L13
 356 001a 1846     		mov	r0, r3
 357 001c FFF7FEFF 		bl	sprintf
 119:graphics.c    ****     UG_PutString(TEXT_SIZE.char_width*TEXT_VOL_OFFSET,
 358              		.loc 1 119 0
 359 0020 0E4B     		ldr	r3, .L13+4
 360 0022 B3F90430 		ldrsh	r3, [r3, #4]
 361 0026 9BB2     		uxth	r3, r3
 362 0028 1A46     		mov	r2, r3	@ movhi
 363 002a 5200     		lsls	r2, r2, #1
 364 002c 1344     		add	r3, r3, r2
 365 002e 5B00     		lsls	r3, r3, #1
 366 0030 9BB2     		uxth	r3, r3
 367 0032 18B2     		sxth	r0, r3
 120:graphics.c    ****                  TFT_HEIGHT-TEXT_SIZE.char_height, string);
 368              		.loc 1 120 0
 369 0034 094B     		ldr	r3, .L13+4
 370 0036 B3F90630 		ldrsh	r3, [r3, #6]
 119:graphics.c    ****     UG_PutString(TEXT_SIZE.char_width*TEXT_VOL_OFFSET,
 371              		.loc 1 119 0
 372 003a 9BB2     		uxth	r3, r3
 373 003c C3F1F003 		rsb	r3, r3, #240
 374 0040 9BB2     		uxth	r3, r3
 375 0042 1BB2     		sxth	r3, r3
 376 0044 07F10802 		add	r2, r7, #8
 377 0048 1946     		mov	r1, r3
 378 004a FFF7FEFF 		bl	UG_PutString
 121:graphics.c    **** }
 379              		.loc 1 121 0
 380 004e 00BF     		nop
 381 0050 1037     		adds	r7, r7, #16
 382              		.cfi_def_cfa_offset 8
 383 0052 BD46     		mov	sp, r7
 384              		.cfi_def_cfa_register 13
ARM GAS  C:\Users\ikomb\AppData\Local\Temp\ccJUeL7i.s 			page 10


 385              		@ sp needed
 386 0054 80BD     		pop	{r7, pc}
 387              	.L14:
 388 0056 00BF     		.align	2
 389              	.L13:
 390 0058 0C000000 		.word	.LC1
 391 005c 00000000 		.word	FONT_10X16
 392              		.cfi_endproc
 393              	.LFE812:
 394              		.size	GraphicsUpdateVolume, .-GraphicsUpdateVolume
 395              		.section	.rodata
 396              		.align	2
 397              	.LC2:
 398 0010 5761726E 		.ascii	"Warning: Limit Reached!\000"
 398      696E673A 
 398      204C696D 
 398      69742052 
 398      65616368 
 399              		.align	2
 400              	.LC3:
 401 0028 20202020 		.ascii	"                       \000"
 401      20202020 
 401      20202020 
 401      20202020 
 401      20202020 
 402              		.section	.text.GraphicsDrawWarningMessage,"ax",%progbits
 403              		.align	2
 404              		.thumb
 405              		.thumb_func
 406              		.type	GraphicsDrawWarningMessage, %function
 407              	GraphicsDrawWarningMessage:
 408              	.LFB813:
 122:graphics.c    **** 
 123:graphics.c    **** /* Draw warning message that memory reach limit */
 124:graphics.c    **** static void GraphicsDrawWarningMessage(bool show)
 125:graphics.c    **** {
 409              		.loc 1 125 0
 410              		.cfi_startproc
 411              		@ args = 0, pretend = 0, frame = 8
 412              		@ frame_needed = 1, uses_anonymous_args = 0
 413 0000 80B5     		push	{r7, lr}
 414              		.cfi_def_cfa_offset 8
 415              		.cfi_offset 7, -8
 416              		.cfi_offset 14, -4
 417 0002 82B0     		sub	sp, sp, #8
 418              		.cfi_def_cfa_offset 16
 419 0004 00AF     		add	r7, sp, #0
 420              		.cfi_def_cfa_register 7
 421 0006 0346     		mov	r3, r0
 422 0008 FB71     		strb	r3, [r7, #7]
 126:graphics.c    ****     UG_SetForecolor(C_YELLOW);
 423              		.loc 1 126 0
 424 000a 0A48     		ldr	r0, .L19
 425 000c FFF7FEFF 		bl	UG_SetForecolor
 127:graphics.c    ****     
 128:graphics.c    ****     if (show)
 426              		.loc 1 128 0
ARM GAS  C:\Users\ikomb\AppData\Local\Temp\ccJUeL7i.s 			page 11


 427 0010 FB79     		ldrb	r3, [r7, #7]	@ zero_extendqisi2
 428 0012 002B     		cmp	r3, #0
 429 0014 05D0     		beq	.L16
 129:graphics.c    ****     {
 130:graphics.c    ****         UG_PutString(0,0,"Warning: Limit Reached!");
 430              		.loc 1 130 0
 431 0016 084A     		ldr	r2, .L19+4
 432 0018 0021     		movs	r1, #0
 433 001a 0020     		movs	r0, #0
 434 001c FFF7FEFF 		bl	UG_PutString
 131:graphics.c    ****     }
 132:graphics.c    ****     else
 133:graphics.c    ****     {
 134:graphics.c    ****         UG_PutString(0,0,"                       ");
 135:graphics.c    ****     }
 136:graphics.c    **** }
 435              		.loc 1 136 0
 436 0020 04E0     		b	.L18
 437              	.L16:
 134:graphics.c    ****     }
 438              		.loc 1 134 0
 439 0022 064A     		ldr	r2, .L19+8
 440 0024 0021     		movs	r1, #0
 441 0026 0020     		movs	r0, #0
 442 0028 FFF7FEFF 		bl	UG_PutString
 443              	.L18:
 444              		.loc 1 136 0
 445 002c 00BF     		nop
 446 002e 0837     		adds	r7, r7, #8
 447              		.cfi_def_cfa_offset 8
 448 0030 BD46     		mov	sp, r7
 449              		.cfi_def_cfa_register 13
 450              		@ sp needed
 451 0032 80BD     		pop	{r7, pc}
 452              	.L20:
 453              		.align	2
 454              	.L19:
 455 0034 00FFFF00 		.word	16776960
 456 0038 10000000 		.word	.LC2
 457 003c 28000000 		.word	.LC3
 458              		.cfi_endproc
 459              	.LFE813:
 460              		.size	GraphicsDrawWarningMessage, .-GraphicsDrawWarningMessage
 461              		.section	.rodata
 462              		.align	2
 463              	.LC4:
 464 0040 2532753A 		.ascii	"%2u:%02u\000"
 464      25303275 
 464      00
 465              		.section	.text.GraphicsUpdateTime,"ax",%progbits
 466              		.align	2
 467              		.thumb
 468              		.thumb_func
 469              		.type	GraphicsUpdateTime, %function
 470              	GraphicsUpdateTime:
 471              	.LFB814:
 137:graphics.c    **** 
ARM GAS  C:\Users\ikomb\AppData\Local\Temp\ccJUeL7i.s 			page 12


 138:graphics.c    **** /* Draw the current recording/playing time */
 139:graphics.c    **** static void GraphicsUpdateTime(uint32_t time)
 140:graphics.c    **** {
 472              		.loc 1 140 0
 473              		.cfi_startproc
 474              		@ args = 0, pretend = 0, frame = 16
 475              		@ frame_needed = 1, uses_anonymous_args = 0
 476 0000 90B5     		push	{r4, r7, lr}
 477              		.cfi_def_cfa_offset 12
 478              		.cfi_offset 4, -12
 479              		.cfi_offset 7, -8
 480              		.cfi_offset 14, -4
 481 0002 85B0     		sub	sp, sp, #20
 482              		.cfi_def_cfa_offset 32
 483 0004 00AF     		add	r7, sp, #0
 484              		.cfi_def_cfa_register 7
 485 0006 7860     		str	r0, [r7, #4]
 141:graphics.c    ****     char string[TEXT_BUFFER_SIZE];
 142:graphics.c    ****     
 143:graphics.c    ****     UG_SetForecolor(C_WHITE);
 486              		.loc 1 143 0
 487 0008 6FF07F40 		mvn	r0, #-16777216
 488 000c FFF7FEFF 		bl	UG_SetForecolor
 144:graphics.c    ****     
 145:graphics.c    ****     sprintf(string, "%2u:%02u", (uint8_t) (time / 60), (uint8_t) (time % 60));
 489              		.loc 1 145 0
 490 0010 7B68     		ldr	r3, [r7, #4]
 491 0012 194A     		ldr	r2, .L22
 492 0014 A2FB0323 		umull	r2, r3, r2, r3
 493 0018 5B09     		lsrs	r3, r3, #5
 494 001a DCB2     		uxtb	r4, r3
 495 001c 7968     		ldr	r1, [r7, #4]
 496 001e 164B     		ldr	r3, .L22
 497 0020 A3FB0123 		umull	r2, r3, r3, r1
 498 0024 5A09     		lsrs	r2, r3, #5
 499 0026 1346     		mov	r3, r2
 500 0028 1B01     		lsls	r3, r3, #4
 501 002a 9B1A     		subs	r3, r3, r2
 502 002c 9B00     		lsls	r3, r3, #2
 503 002e CA1A     		subs	r2, r1, r3
 504 0030 1346     		mov	r3, r2
 505 0032 DBB2     		uxtb	r3, r3
 506 0034 07F10800 		add	r0, r7, #8
 507 0038 2246     		mov	r2, r4
 508 003a 1049     		ldr	r1, .L22+4
 509 003c FFF7FEFF 		bl	sprintf
 146:graphics.c    ****     
 147:graphics.c    ****     UG_PutString(TEXT_SIZE.char_width*TEXT_TIME_OFFSET,
 510              		.loc 1 147 0
 511 0040 0F4B     		ldr	r3, .L22+8
 512 0042 B3F90430 		ldrsh	r3, [r3, #4]
 513 0046 9BB2     		uxth	r3, r3
 514 0048 1A46     		mov	r2, r3	@ movhi
 515 004a 5200     		lsls	r2, r2, #1
 516 004c 1344     		add	r3, r3, r2
 517 004e DB00     		lsls	r3, r3, #3
 518 0050 9BB2     		uxth	r3, r3
ARM GAS  C:\Users\ikomb\AppData\Local\Temp\ccJUeL7i.s 			page 13


 519 0052 18B2     		sxth	r0, r3
 148:graphics.c    ****                  TFT_HEIGHT-TEXT_SIZE.char_height, string);
 520              		.loc 1 148 0
 521 0054 0A4B     		ldr	r3, .L22+8
 522 0056 B3F90630 		ldrsh	r3, [r3, #6]
 147:graphics.c    ****                  TFT_HEIGHT-TEXT_SIZE.char_height, string);
 523              		.loc 1 147 0
 524 005a 9BB2     		uxth	r3, r3
 525 005c C3F1F003 		rsb	r3, r3, #240
 526 0060 9BB2     		uxth	r3, r3
 527 0062 1BB2     		sxth	r3, r3
 528 0064 07F10802 		add	r2, r7, #8
 529 0068 1946     		mov	r1, r3
 530 006a FFF7FEFF 		bl	UG_PutString
 149:graphics.c    **** }
 531              		.loc 1 149 0
 532 006e 00BF     		nop
 533 0070 1437     		adds	r7, r7, #20
 534              		.cfi_def_cfa_offset 12
 535 0072 BD46     		mov	sp, r7
 536              		.cfi_def_cfa_register 13
 537              		@ sp needed
 538 0074 90BD     		pop	{r4, r7, pc}
 539              	.L23:
 540 0076 00BF     		.align	2
 541              	.L22:
 542 0078 89888888 		.word	-2004318071
 543 007c 40000000 		.word	.LC4
 544 0080 00000000 		.word	FONT_10X16
 545              		.cfi_endproc
 546              	.LFE814:
 547              		.size	GraphicsUpdateTime, .-GraphicsUpdateTime
 548              		.section	.text.GraphicsTask,"ax",%progbits
 549              		.align	2
 550              		.global	GraphicsTask
 551              		.thumb
 552              		.thumb_func
 553              		.type	GraphicsTask, %function
 554              	GraphicsTask:
 555              	.LFB815:
 150:graphics.c    **** 
 151:graphics.c    **** /*******************************************************************************
 152:graphics.c    **** * Function Name: GraphicsTask
 153:graphics.c    **** ********************************************************************************
 154:graphics.c    **** * Summary:
 155:graphics.c    **** *   This function updates the display based on events that occur.
 156:graphics.c    **** *
 157:graphics.c    **** * Parameters:
 158:graphics.c    **** *   arg: Required argument for task function.
 159:graphics.c    **** *
 160:graphics.c    **** *******************************************************************************/
 161:graphics.c    **** void GraphicsTask(void *arg)
 162:graphics.c    **** {
 556              		.loc 1 162 0
 557              		.cfi_startproc
 558              		@ args = 0, pretend = 0, frame = 16
 559              		@ frame_needed = 1, uses_anonymous_args = 0
ARM GAS  C:\Users\ikomb\AppData\Local\Temp\ccJUeL7i.s 			page 14


 560 0000 80B5     		push	{r7, lr}
 561              		.cfi_def_cfa_offset 8
 562              		.cfi_offset 7, -8
 563              		.cfi_offset 14, -4
 564 0002 84B0     		sub	sp, sp, #16
 565              		.cfi_def_cfa_offset 24
 566 0004 00AF     		add	r7, sp, #0
 567              		.cfi_def_cfa_register 7
 568 0006 7860     		str	r0, [r7, #4]
 163:graphics.c    ****     uint32_t event;
 164:graphics.c    ****     
 165:graphics.c    ****     /* Initialize the TFT driver */
 166:graphics.c    ****     TFT_Init();
 569              		.loc 1 166 0
 570 0008 FFF7FEFF 		bl	TFT_Init
 167:graphics.c    ****        
 168:graphics.c    ****     /* Start the uGUI graphical library */
 169:graphics.c    ****     UG_Init(&gui, TFT_SetPixel, TFT_WIDTH, TFT_HEIGHT);
 571              		.loc 1 169 0
 572 000c F023     		movs	r3, #240
 573 000e 4FF4A072 		mov	r2, #320
 574 0012 2E49     		ldr	r1, .L39
 575 0014 2E48     		ldr	r0, .L39+4
 576 0016 FFF7FEFF 		bl	UG_Init
 170:graphics.c    ****       
 171:graphics.c    ****     /* Set background color and font size */
 172:graphics.c    ****     UG_SetBackcolor(C_BLACK);
 577              		.loc 1 172 0
 578 001a 0020     		movs	r0, #0
 579 001c FFF7FEFF 		bl	UG_SetBackcolor
 173:graphics.c    ****     UG_FontSelect(&FONT_10X16);
 580              		.loc 1 173 0
 581 0020 2C48     		ldr	r0, .L39+8
 582 0022 FFF7FEFF 		bl	UG_FontSelect
 583              	.L37:
 174:graphics.c    ****     
 175:graphics.c    ****     (void) arg;
 176:graphics.c    ****     
 177:graphics.c    ****     while (1)
 178:graphics.c    ****     {
 179:graphics.c    ****         /* Wait till an action to update the display is received */
 180:graphics.c    ****         if (xQueueReceive(GUIQueue, &event, portMAX_DELAY))
 584              		.loc 1 180 0
 585 0026 2C4B     		ldr	r3, .L39+12
 586 0028 1868     		ldr	r0, [r3]
 587 002a 07F10C01 		add	r1, r7, #12
 588 002e 0023     		movs	r3, #0
 589 0030 4FF0FF32 		mov	r2, #-1
 590 0034 FFF7FEFF 		bl	xQueueGenericReceive
 591 0038 0346     		mov	r3, r0
 592 003a 002B     		cmp	r3, #0
 593 003c F3D0     		beq	.L37
 181:graphics.c    ****         {
 182:graphics.c    ****             switch (event)
 594              		.loc 1 182 0
 595 003e FB68     		ldr	r3, [r7, #12]
 596 0040 03F15043 		add	r3, r3, #-805306368
ARM GAS  C:\Users\ikomb\AppData\Local\Temp\ccJUeL7i.s 			page 15


 597 0044 013B     		subs	r3, r3, #1
 598 0046 062B     		cmp	r3, #6
 599 0048 27D8     		bhi	.L26
 600 004a 01A2     		adr	r2, .L28
 601 004c 52F823F0 		ldr	pc, [r2, r3, lsl #2]
 602              		.p2align 2
 603              	.L28:
 604 0050 6D000000 		.word	.L27+1
 605 0054 73000000 		.word	.L29+1
 606 0058 79000000 		.word	.L30+1
 607 005c 7F000000 		.word	.L31+1
 608 0060 8B000000 		.word	.L32+1
 609 0064 93000000 		.word	.L33+1
 610 0068 85000000 		.word	.L34+1
 611              		.p2align 1
 612              	.L27:
 183:graphics.c    ****             {
 184:graphics.c    ****                 case SHOW_RECORDING:
 185:graphics.c    ****                     GraphicsDrawRecordingIcon();
 613              		.loc 1 185 0
 614 006c FFF7FEFF 		bl	GraphicsDrawRecordingIcon
 186:graphics.c    ****                     break;
 615              		.loc 1 186 0
 616 0070 2BE0     		b	.L25
 617              	.L29:
 187:graphics.c    ****                 case SHOW_PLAYING:
 188:graphics.c    ****                     GraphicsDrawPlayingIcon();
 618              		.loc 1 188 0
 619 0072 FFF7FEFF 		bl	GraphicsDrawPlayingIcon
 189:graphics.c    ****                     break;
 620              		.loc 1 189 0
 621 0076 28E0     		b	.L25
 622              	.L30:
 190:graphics.c    ****                 case SHOW_PAUSE:
 191:graphics.c    ****                     GraphicsDrawPausedIcon();
 623              		.loc 1 191 0
 624 0078 FFF7FEFF 		bl	GraphicsDrawPausedIcon
 192:graphics.c    ****                     break;
 625              		.loc 1 192 0
 626 007c 25E0     		b	.L25
 627              	.L31:
 193:graphics.c    ****                 case SHOW_STOP:
 194:graphics.c    ****                     GraphicsDrawStoppedIcon();
 628              		.loc 1 194 0
 629 007e FFF7FEFF 		bl	GraphicsDrawStoppedIcon
 195:graphics.c    ****                     break;
 630              		.loc 1 195 0
 631 0082 22E0     		b	.L25
 632              	.L34:
 196:graphics.c    ****                 case SHOW_VOLUME_TXT:
 197:graphics.c    ****                     GraphicsDrawVolumeText();
 633              		.loc 1 197 0
 634 0084 FFF7FEFF 		bl	GraphicsDrawVolumeText
 198:graphics.c    ****                     break;
 635              		.loc 1 198 0
 636 0088 1FE0     		b	.L25
 637              	.L32:
ARM GAS  C:\Users\ikomb\AppData\Local\Temp\ccJUeL7i.s 			page 16


 199:graphics.c    ****                 case SHOW_WARNING:
 200:graphics.c    ****                     GraphicsDrawWarningMessage(true);
 638              		.loc 1 200 0
 639 008a 0120     		movs	r0, #1
 640 008c FFF7FEFF 		bl	GraphicsDrawWarningMessage
 201:graphics.c    ****                     break;
 641              		.loc 1 201 0
 642 0090 1BE0     		b	.L25
 643              	.L33:
 202:graphics.c    ****                 case SHOW_NO_WARNING:
 203:graphics.c    ****                     GraphicsDrawWarningMessage(false);
 644              		.loc 1 203 0
 645 0092 0020     		movs	r0, #0
 646 0094 FFF7FEFF 		bl	GraphicsDrawWarningMessage
 204:graphics.c    ****                     break;
 647              		.loc 1 204 0
 648 0098 17E0     		b	.L25
 649              	.L26:
 205:graphics.c    ****                 default: 
 206:graphics.c    ****                     /* Update Volume on display */
 207:graphics.c    ****                     if ((event & GUI_EVENT_MASK) == SHOW_VOLUME_VAL)
 650              		.loc 1 207 0
 651 009a FB68     		ldr	r3, [r7, #12]
 652 009c 1B0C     		lsrs	r3, r3, #16
 653 009e 1B04     		lsls	r3, r3, #16
 654 00a0 0E4A     		ldr	r2, .L39+16
 655 00a2 9342     		cmp	r3, r2
 656 00a4 05D1     		bne	.L35
 208:graphics.c    ****                     {
 209:graphics.c    ****                         GraphicsUpdateVolume(CY_LO8(event));
 657              		.loc 1 209 0
 658 00a6 FB68     		ldr	r3, [r7, #12]
 659 00a8 DBB2     		uxtb	r3, r3
 660 00aa 1846     		mov	r0, r3
 661 00ac FFF7FEFF 		bl	GraphicsUpdateVolume
 210:graphics.c    ****                     }
 211:graphics.c    ****                     /* Update time on display */
 212:graphics.c    ****                     else if ((event & GUI_EVENT_MASK) == SHOW_TIMER)
 213:graphics.c    ****                     {
 214:graphics.c    ****                         GraphicsUpdateTime(CY_LO16(event));
 215:graphics.c    ****                     }
 216:graphics.c    ****                     break;
 662              		.loc 1 216 0
 663 00b0 0AE0     		b	.L38
 664              	.L35:
 212:graphics.c    ****                     {
 665              		.loc 1 212 0
 666 00b2 FB68     		ldr	r3, [r7, #12]
 667 00b4 1B0C     		lsrs	r3, r3, #16
 668 00b6 1B04     		lsls	r3, r3, #16
 669 00b8 094A     		ldr	r2, .L39+20
 670 00ba 9342     		cmp	r3, r2
 671 00bc 04D1     		bne	.L38
 214:graphics.c    ****                     }
 672              		.loc 1 214 0
 673 00be FB68     		ldr	r3, [r7, #12]
 674 00c0 9BB2     		uxth	r3, r3
ARM GAS  C:\Users\ikomb\AppData\Local\Temp\ccJUeL7i.s 			page 17


 675 00c2 1846     		mov	r0, r3
 676 00c4 FFF7FEFF 		bl	GraphicsUpdateTime
 677              	.L38:
 678              		.loc 1 216 0
 679 00c8 00BF     		nop
 680              	.L25:
 217:graphics.c    ****             }
 218:graphics.c    ****         }
 219:graphics.c    ****     }
 681              		.loc 1 219 0 discriminator 1
 682 00ca ACE7     		b	.L37
 683              	.L40:
 684              		.align	2
 685              	.L39:
 686 00cc 00000000 		.word	TFT_SetPixel
 687 00d0 00000000 		.word	gui
 688 00d4 00000000 		.word	FONT_10X16
 689 00d8 00000000 		.word	GUIQueue
 690 00dc 00000130 		.word	805371904
 691 00e0 00000230 		.word	805437440
 692              		.cfi_endproc
 693              	.LFE815:
 694              		.size	GraphicsTask, .-GraphicsTask
 695              		.text
 696              	.Letext0:
 697              		.file 2 "c:\\program files (x86)\\cypress\\psoc creator\\4.4\\psoc creator\\import\\gnu\\arm\\5.4.
 698              		.file 3 "c:\\program files (x86)\\cypress\\psoc creator\\4.4\\psoc creator\\import\\gnu\\arm\\5.4.
 699              		.file 4 "ugui.h"
 700              		.file 5 "Generated_Source\\PSoC6\\pdl\\drivers/peripheral/syslib/cy_syslib.h"
 701              		.file 6 "graphics.h"
 702              		.file 7 "Generated_Source\\PSoC6\\pdl\\drivers/peripheral/smif/cy_smif.h"
 703              		.file 8 "Generated_Source\\PSoC6\\pdl\\drivers/peripheral/smif/cy_smif_memslot.h"
 704              		.file 9 "Generated_Source\\PSoC6\\pdl\\drivers/peripheral/scb/cy_scb_i2c.h"
 705              		.file 10 "Generated_Source\\PSoC6\\pdl\\drivers/peripheral/i2s/cy_i2s.h"
 706              		.file 11 "Generated_Source\\PSoC6\\pdl\\drivers/peripheral/pdm_pcm/cy_pdm_pcm.h"
 707              		.file 12 "Generated_Source\\PSoC6\\pdl\\rtos/FreeRTOS/9.0.0/Source/portable/GCC/CM4F/portmacro.h"
 708              		.file 13 "Generated_Source\\PSoC6\\pdl\\rtos/FreeRTOS/9.0.0/Source/include/queue.h"
 709              		.file 14 "Generated_Source\\PSoC6\\pdl\\cmsis/include/core_cm4.h"
 710              		.file 15 "Generated_Source\\PSoC6/PDM_PCM.h"
 711              		.file 16 "Generated_Source\\PSoC6/CodecI2CM.h"
 712              		.file 17 "Generated_Source\\PSoC6/I2S.h"
 713              		.file 18 "Generated_Source\\PSoC6/SMIF_1.h"
 714              		.file 19 "rtos.h"