ARM GAS  C:\Users\ikomb\AppData\Local\Temp\cccfGzUJ.s 			page 1


   1              		.syntax unified
   2              		.cpu cortex-m4
   3              		.eabi_attribute 27, 1
   4              		.fpu fpv4-sp-d16
   5              		.eabi_attribute 20, 1
   6              		.eabi_attribute 21, 1
   7              		.eabi_attribute 23, 3
   8              		.eabi_attribute 24, 1
   9              		.eabi_attribute 25, 1
  10              		.eabi_attribute 26, 1
  11              		.eabi_attribute 30, 6
  12              		.eabi_attribute 34, 1
  13              		.eabi_attribute 18, 4
  14              		.thumb
  15              		.syntax unified
  16              		.file	"heap_1.c"
  17              		.text
  18              	.Ltext0:
  19              		.cfi_sections	.debug_frame
  20              		.bss
  21              		.align	2
  22              	ucHeap:
  23 0000 00000000 		.space	10240
  23      00000000 
  23      00000000 
  23      00000000 
  23      00000000 
  24              		.align	2
  25              	xNextFreeByte:
  26 2800 00000000 		.space	4
  27              		.section	.text.pvPortMalloc,"ax",%progbits
  28              		.align	2
  29              		.global	pvPortMalloc
  30              		.thumb
  31              		.thumb_func
  32              		.type	pvPortMalloc, %function
  33              	pvPortMalloc:
  34              	.LFB129:
  35              		.file 1 "Generated_Source\\PSoC6\\pdl\\rtos\\FreeRTOS\\9.0.0\\Source\\portable\\MemMang\\heap_1.c"
   1:Generated_Source\PSoC6\pdl\rtos\FreeRTOS\9.0.0\Source\portable\MemMang/heap_1.c **** /*
   2:Generated_Source\PSoC6\pdl\rtos\FreeRTOS\9.0.0\Source\portable\MemMang/heap_1.c ****     FreeRTOS V9.0.0 - Copyright (C) 2016 Real Time Engineers Ltd.
   3:Generated_Source\PSoC6\pdl\rtos\FreeRTOS\9.0.0\Source\portable\MemMang/heap_1.c ****     All rights reserved
   4:Generated_Source\PSoC6\pdl\rtos\FreeRTOS\9.0.0\Source\portable\MemMang/heap_1.c **** 
   5:Generated_Source\PSoC6\pdl\rtos\FreeRTOS\9.0.0\Source\portable\MemMang/heap_1.c ****     VISIT http://www.FreeRTOS.org TO ENSURE YOU ARE USING THE LATEST VERSION.
   6:Generated_Source\PSoC6\pdl\rtos\FreeRTOS\9.0.0\Source\portable\MemMang/heap_1.c **** 
   7:Generated_Source\PSoC6\pdl\rtos\FreeRTOS\9.0.0\Source\portable\MemMang/heap_1.c ****     This file is part of the FreeRTOS distribution.
   8:Generated_Source\PSoC6\pdl\rtos\FreeRTOS\9.0.0\Source\portable\MemMang/heap_1.c **** 
   9:Generated_Source\PSoC6\pdl\rtos\FreeRTOS\9.0.0\Source\portable\MemMang/heap_1.c ****     FreeRTOS is free software; you can redistribute it and/or modify it under
  10:Generated_Source\PSoC6\pdl\rtos\FreeRTOS\9.0.0\Source\portable\MemMang/heap_1.c ****     the terms of the GNU General Public License (version 2) as published by the
  11:Generated_Source\PSoC6\pdl\rtos\FreeRTOS\9.0.0\Source\portable\MemMang/heap_1.c ****     Free Software Foundation >>>> AND MODIFIED BY <<<< the FreeRTOS exception.
  12:Generated_Source\PSoC6\pdl\rtos\FreeRTOS\9.0.0\Source\portable\MemMang/heap_1.c **** 
  13:Generated_Source\PSoC6\pdl\rtos\FreeRTOS\9.0.0\Source\portable\MemMang/heap_1.c ****     ***************************************************************************
  14:Generated_Source\PSoC6\pdl\rtos\FreeRTOS\9.0.0\Source\portable\MemMang/heap_1.c ****     >>!   NOTE: The modification to the GPL is included to allow you to     !<<
  15:Generated_Source\PSoC6\pdl\rtos\FreeRTOS\9.0.0\Source\portable\MemMang/heap_1.c ****     >>!   distribute a combined work that includes FreeRTOS without being   !<<
  16:Generated_Source\PSoC6\pdl\rtos\FreeRTOS\9.0.0\Source\portable\MemMang/heap_1.c ****     >>!   obliged to provide the source code for proprietary components     !<<
  17:Generated_Source\PSoC6\pdl\rtos\FreeRTOS\9.0.0\Source\portable\MemMang/heap_1.c ****     >>!   outside of the FreeRTOS kernel.                                   !<<
  18:Generated_Source\PSoC6\pdl\rtos\FreeRTOS\9.0.0\Source\portable\MemMang/heap_1.c ****     ***************************************************************************
ARM GAS  C:\Users\ikomb\AppData\Local\Temp\cccfGzUJ.s 			page 2


  19:Generated_Source\PSoC6\pdl\rtos\FreeRTOS\9.0.0\Source\portable\MemMang/heap_1.c **** 
  20:Generated_Source\PSoC6\pdl\rtos\FreeRTOS\9.0.0\Source\portable\MemMang/heap_1.c ****     FreeRTOS is distributed in the hope that it will be useful, but WITHOUT ANY
  21:Generated_Source\PSoC6\pdl\rtos\FreeRTOS\9.0.0\Source\portable\MemMang/heap_1.c ****     WARRANTY; without even the implied warranty of MERCHANTABILITY or FITNESS
  22:Generated_Source\PSoC6\pdl\rtos\FreeRTOS\9.0.0\Source\portable\MemMang/heap_1.c ****     FOR A PARTICULAR PURPOSE.  Full license text is available on the following
  23:Generated_Source\PSoC6\pdl\rtos\FreeRTOS\9.0.0\Source\portable\MemMang/heap_1.c ****     link: http://www.freertos.org/a00114.html
  24:Generated_Source\PSoC6\pdl\rtos\FreeRTOS\9.0.0\Source\portable\MemMang/heap_1.c **** 
  25:Generated_Source\PSoC6\pdl\rtos\FreeRTOS\9.0.0\Source\portable\MemMang/heap_1.c ****     ***************************************************************************
  26:Generated_Source\PSoC6\pdl\rtos\FreeRTOS\9.0.0\Source\portable\MemMang/heap_1.c ****      *                                                                       *
  27:Generated_Source\PSoC6\pdl\rtos\FreeRTOS\9.0.0\Source\portable\MemMang/heap_1.c ****      *    FreeRTOS provides completely free yet professionally developed,    *
  28:Generated_Source\PSoC6\pdl\rtos\FreeRTOS\9.0.0\Source\portable\MemMang/heap_1.c ****      *    robust, strictly quality controlled, supported, and cross          *
  29:Generated_Source\PSoC6\pdl\rtos\FreeRTOS\9.0.0\Source\portable\MemMang/heap_1.c ****      *    platform software that is more than just the market leader, it     *
  30:Generated_Source\PSoC6\pdl\rtos\FreeRTOS\9.0.0\Source\portable\MemMang/heap_1.c ****      *    is the industry's de facto standard.                               *
  31:Generated_Source\PSoC6\pdl\rtos\FreeRTOS\9.0.0\Source\portable\MemMang/heap_1.c ****      *                                                                       *
  32:Generated_Source\PSoC6\pdl\rtos\FreeRTOS\9.0.0\Source\portable\MemMang/heap_1.c ****      *    Help yourself get started quickly while simultaneously helping     *
  33:Generated_Source\PSoC6\pdl\rtos\FreeRTOS\9.0.0\Source\portable\MemMang/heap_1.c ****      *    to support the FreeRTOS project by purchasing a FreeRTOS           *
  34:Generated_Source\PSoC6\pdl\rtos\FreeRTOS\9.0.0\Source\portable\MemMang/heap_1.c ****      *    tutorial book, reference manual, or both:                          *
  35:Generated_Source\PSoC6\pdl\rtos\FreeRTOS\9.0.0\Source\portable\MemMang/heap_1.c ****      *    http://www.FreeRTOS.org/Documentation                              *
  36:Generated_Source\PSoC6\pdl\rtos\FreeRTOS\9.0.0\Source\portable\MemMang/heap_1.c ****      *                                                                       *
  37:Generated_Source\PSoC6\pdl\rtos\FreeRTOS\9.0.0\Source\portable\MemMang/heap_1.c ****     ***************************************************************************
  38:Generated_Source\PSoC6\pdl\rtos\FreeRTOS\9.0.0\Source\portable\MemMang/heap_1.c **** 
  39:Generated_Source\PSoC6\pdl\rtos\FreeRTOS\9.0.0\Source\portable\MemMang/heap_1.c ****     http://www.FreeRTOS.org/FAQHelp.html - Having a problem?  Start by reading
  40:Generated_Source\PSoC6\pdl\rtos\FreeRTOS\9.0.0\Source\portable\MemMang/heap_1.c ****     the FAQ page "My application does not run, what could be wrong?".  Have you
  41:Generated_Source\PSoC6\pdl\rtos\FreeRTOS\9.0.0\Source\portable\MemMang/heap_1.c ****     defined configASSERT()?
  42:Generated_Source\PSoC6\pdl\rtos\FreeRTOS\9.0.0\Source\portable\MemMang/heap_1.c **** 
  43:Generated_Source\PSoC6\pdl\rtos\FreeRTOS\9.0.0\Source\portable\MemMang/heap_1.c ****     http://www.FreeRTOS.org/support - In return for receiving this top quality
  44:Generated_Source\PSoC6\pdl\rtos\FreeRTOS\9.0.0\Source\portable\MemMang/heap_1.c ****     embedded software for free we request you assist our global community by
  45:Generated_Source\PSoC6\pdl\rtos\FreeRTOS\9.0.0\Source\portable\MemMang/heap_1.c ****     participating in the support forum.
  46:Generated_Source\PSoC6\pdl\rtos\FreeRTOS\9.0.0\Source\portable\MemMang/heap_1.c **** 
  47:Generated_Source\PSoC6\pdl\rtos\FreeRTOS\9.0.0\Source\portable\MemMang/heap_1.c ****     http://www.FreeRTOS.org/training - Investing in training allows your team to
  48:Generated_Source\PSoC6\pdl\rtos\FreeRTOS\9.0.0\Source\portable\MemMang/heap_1.c ****     be as productive as possible as early as possible.  Now you can receive
  49:Generated_Source\PSoC6\pdl\rtos\FreeRTOS\9.0.0\Source\portable\MemMang/heap_1.c ****     FreeRTOS training directly from Richard Barry, CEO of Real Time Engineers
  50:Generated_Source\PSoC6\pdl\rtos\FreeRTOS\9.0.0\Source\portable\MemMang/heap_1.c ****     Ltd, and the world's leading authority on the world's leading RTOS.
  51:Generated_Source\PSoC6\pdl\rtos\FreeRTOS\9.0.0\Source\portable\MemMang/heap_1.c **** 
  52:Generated_Source\PSoC6\pdl\rtos\FreeRTOS\9.0.0\Source\portable\MemMang/heap_1.c ****     http://www.FreeRTOS.org/plus - A selection of FreeRTOS ecosystem products,
  53:Generated_Source\PSoC6\pdl\rtos\FreeRTOS\9.0.0\Source\portable\MemMang/heap_1.c ****     including FreeRTOS+Trace - an indispensable productivity tool, a DOS
  54:Generated_Source\PSoC6\pdl\rtos\FreeRTOS\9.0.0\Source\portable\MemMang/heap_1.c ****     compatible FAT file system, and our tiny thread aware UDP/IP stack.
  55:Generated_Source\PSoC6\pdl\rtos\FreeRTOS\9.0.0\Source\portable\MemMang/heap_1.c **** 
  56:Generated_Source\PSoC6\pdl\rtos\FreeRTOS\9.0.0\Source\portable\MemMang/heap_1.c ****     http://www.FreeRTOS.org/labs - Where new FreeRTOS products go to incubate.
  57:Generated_Source\PSoC6\pdl\rtos\FreeRTOS\9.0.0\Source\portable\MemMang/heap_1.c ****     Come and try FreeRTOS+TCP, our new open source TCP/IP stack for FreeRTOS.
  58:Generated_Source\PSoC6\pdl\rtos\FreeRTOS\9.0.0\Source\portable\MemMang/heap_1.c **** 
  59:Generated_Source\PSoC6\pdl\rtos\FreeRTOS\9.0.0\Source\portable\MemMang/heap_1.c ****     http://www.OpenRTOS.com - Real Time Engineers ltd. license FreeRTOS to High
  60:Generated_Source\PSoC6\pdl\rtos\FreeRTOS\9.0.0\Source\portable\MemMang/heap_1.c ****     Integrity Systems ltd. to sell under the OpenRTOS brand.  Low cost OpenRTOS
  61:Generated_Source\PSoC6\pdl\rtos\FreeRTOS\9.0.0\Source\portable\MemMang/heap_1.c ****     licenses offer ticketed support, indemnification and commercial middleware.
  62:Generated_Source\PSoC6\pdl\rtos\FreeRTOS\9.0.0\Source\portable\MemMang/heap_1.c **** 
  63:Generated_Source\PSoC6\pdl\rtos\FreeRTOS\9.0.0\Source\portable\MemMang/heap_1.c ****     http://www.SafeRTOS.com - High Integrity Systems also provide a safety
  64:Generated_Source\PSoC6\pdl\rtos\FreeRTOS\9.0.0\Source\portable\MemMang/heap_1.c ****     engineered and independently SIL3 certified version for use in safety and
  65:Generated_Source\PSoC6\pdl\rtos\FreeRTOS\9.0.0\Source\portable\MemMang/heap_1.c ****     mission critical applications that require provable dependability.
  66:Generated_Source\PSoC6\pdl\rtos\FreeRTOS\9.0.0\Source\portable\MemMang/heap_1.c **** 
  67:Generated_Source\PSoC6\pdl\rtos\FreeRTOS\9.0.0\Source\portable\MemMang/heap_1.c ****     1 tab == 4 spaces!
  68:Generated_Source\PSoC6\pdl\rtos\FreeRTOS\9.0.0\Source\portable\MemMang/heap_1.c **** */
  69:Generated_Source\PSoC6\pdl\rtos\FreeRTOS\9.0.0\Source\portable\MemMang/heap_1.c **** 
  70:Generated_Source\PSoC6\pdl\rtos\FreeRTOS\9.0.0\Source\portable\MemMang/heap_1.c **** 
  71:Generated_Source\PSoC6\pdl\rtos\FreeRTOS\9.0.0\Source\portable\MemMang/heap_1.c **** /*
  72:Generated_Source\PSoC6\pdl\rtos\FreeRTOS\9.0.0\Source\portable\MemMang/heap_1.c ****  * The simplest possible implementation of pvPortMalloc().  Note that this
  73:Generated_Source\PSoC6\pdl\rtos\FreeRTOS\9.0.0\Source\portable\MemMang/heap_1.c ****  * implementation does NOT allow allocated memory to be freed again.
  74:Generated_Source\PSoC6\pdl\rtos\FreeRTOS\9.0.0\Source\portable\MemMang/heap_1.c ****  *
  75:Generated_Source\PSoC6\pdl\rtos\FreeRTOS\9.0.0\Source\portable\MemMang/heap_1.c ****  * See heap_2.c, heap_3.c and heap_4.c for alternative implementations, and the
ARM GAS  C:\Users\ikomb\AppData\Local\Temp\cccfGzUJ.s 			page 3


  76:Generated_Source\PSoC6\pdl\rtos\FreeRTOS\9.0.0\Source\portable\MemMang/heap_1.c ****  * memory management pages of http://www.FreeRTOS.org for more information.
  77:Generated_Source\PSoC6\pdl\rtos\FreeRTOS\9.0.0\Source\portable\MemMang/heap_1.c ****  */
  78:Generated_Source\PSoC6\pdl\rtos\FreeRTOS\9.0.0\Source\portable\MemMang/heap_1.c **** #include <stdlib.h>
  79:Generated_Source\PSoC6\pdl\rtos\FreeRTOS\9.0.0\Source\portable\MemMang/heap_1.c **** 
  80:Generated_Source\PSoC6\pdl\rtos\FreeRTOS\9.0.0\Source\portable\MemMang/heap_1.c **** /* Defining MPU_WRAPPERS_INCLUDED_FROM_API_FILE prevents task.h from redefining
  81:Generated_Source\PSoC6\pdl\rtos\FreeRTOS\9.0.0\Source\portable\MemMang/heap_1.c **** all the API functions to use the MPU wrappers.  That should only be done when
  82:Generated_Source\PSoC6\pdl\rtos\FreeRTOS\9.0.0\Source\portable\MemMang/heap_1.c **** task.h is included from an application file. */
  83:Generated_Source\PSoC6\pdl\rtos\FreeRTOS\9.0.0\Source\portable\MemMang/heap_1.c **** #define MPU_WRAPPERS_INCLUDED_FROM_API_FILE
  84:Generated_Source\PSoC6\pdl\rtos\FreeRTOS\9.0.0\Source\portable\MemMang/heap_1.c **** 
  85:Generated_Source\PSoC6\pdl\rtos\FreeRTOS\9.0.0\Source\portable\MemMang/heap_1.c **** #include "FreeRTOS.h"
  86:Generated_Source\PSoC6\pdl\rtos\FreeRTOS\9.0.0\Source\portable\MemMang/heap_1.c **** #include "task.h"
  87:Generated_Source\PSoC6\pdl\rtos\FreeRTOS\9.0.0\Source\portable\MemMang/heap_1.c **** 
  88:Generated_Source\PSoC6\pdl\rtos\FreeRTOS\9.0.0\Source\portable\MemMang/heap_1.c **** #undef MPU_WRAPPERS_INCLUDED_FROM_API_FILE
  89:Generated_Source\PSoC6\pdl\rtos\FreeRTOS\9.0.0\Source\portable\MemMang/heap_1.c **** 
  90:Generated_Source\PSoC6\pdl\rtos\FreeRTOS\9.0.0\Source\portable\MemMang/heap_1.c **** #if( configSUPPORT_DYNAMIC_ALLOCATION == 0 )
  91:Generated_Source\PSoC6\pdl\rtos\FreeRTOS\9.0.0\Source\portable\MemMang/heap_1.c **** 	#error This file must not be used if configSUPPORT_DYNAMIC_ALLOCATION is 0
  92:Generated_Source\PSoC6\pdl\rtos\FreeRTOS\9.0.0\Source\portable\MemMang/heap_1.c **** #endif
  93:Generated_Source\PSoC6\pdl\rtos\FreeRTOS\9.0.0\Source\portable\MemMang/heap_1.c **** 
  94:Generated_Source\PSoC6\pdl\rtos\FreeRTOS\9.0.0\Source\portable\MemMang/heap_1.c **** /* A few bytes might be lost to byte aligning the heap start address. */
  95:Generated_Source\PSoC6\pdl\rtos\FreeRTOS\9.0.0\Source\portable\MemMang/heap_1.c **** #define configADJUSTED_HEAP_SIZE	( configTOTAL_HEAP_SIZE - portBYTE_ALIGNMENT )
  96:Generated_Source\PSoC6\pdl\rtos\FreeRTOS\9.0.0\Source\portable\MemMang/heap_1.c **** 
  97:Generated_Source\PSoC6\pdl\rtos\FreeRTOS\9.0.0\Source\portable\MemMang/heap_1.c **** /* Allocate the memory for the heap. */
  98:Generated_Source\PSoC6\pdl\rtos\FreeRTOS\9.0.0\Source\portable\MemMang/heap_1.c **** /* Allocate the memory for the heap. */
  99:Generated_Source\PSoC6\pdl\rtos\FreeRTOS\9.0.0\Source\portable\MemMang/heap_1.c **** #if( configAPPLICATION_ALLOCATED_HEAP == 1 )
 100:Generated_Source\PSoC6\pdl\rtos\FreeRTOS\9.0.0\Source\portable\MemMang/heap_1.c **** 	/* The application writer has already defined the array used for the RTOS
 101:Generated_Source\PSoC6\pdl\rtos\FreeRTOS\9.0.0\Source\portable\MemMang/heap_1.c **** 	heap - probably so it can be placed in a special segment or address. */
 102:Generated_Source\PSoC6\pdl\rtos\FreeRTOS\9.0.0\Source\portable\MemMang/heap_1.c **** 	extern uint8_t ucHeap[ configTOTAL_HEAP_SIZE ];
 103:Generated_Source\PSoC6\pdl\rtos\FreeRTOS\9.0.0\Source\portable\MemMang/heap_1.c **** #else
 104:Generated_Source\PSoC6\pdl\rtos\FreeRTOS\9.0.0\Source\portable\MemMang/heap_1.c **** 	static uint8_t ucHeap[ configTOTAL_HEAP_SIZE ];
 105:Generated_Source\PSoC6\pdl\rtos\FreeRTOS\9.0.0\Source\portable\MemMang/heap_1.c **** #endif /* configAPPLICATION_ALLOCATED_HEAP */
 106:Generated_Source\PSoC6\pdl\rtos\FreeRTOS\9.0.0\Source\portable\MemMang/heap_1.c **** 
 107:Generated_Source\PSoC6\pdl\rtos\FreeRTOS\9.0.0\Source\portable\MemMang/heap_1.c **** static size_t xNextFreeByte = ( size_t ) 0;
 108:Generated_Source\PSoC6\pdl\rtos\FreeRTOS\9.0.0\Source\portable\MemMang/heap_1.c **** 
 109:Generated_Source\PSoC6\pdl\rtos\FreeRTOS\9.0.0\Source\portable\MemMang/heap_1.c **** /*-----------------------------------------------------------*/
 110:Generated_Source\PSoC6\pdl\rtos\FreeRTOS\9.0.0\Source\portable\MemMang/heap_1.c **** 
 111:Generated_Source\PSoC6\pdl\rtos\FreeRTOS\9.0.0\Source\portable\MemMang/heap_1.c **** void *pvPortMalloc( size_t xWantedSize )
 112:Generated_Source\PSoC6\pdl\rtos\FreeRTOS\9.0.0\Source\portable\MemMang/heap_1.c **** {
  36              		.loc 1 112 0
  37              		.cfi_startproc
  38              		@ args = 0, pretend = 0, frame = 16
  39              		@ frame_needed = 1, uses_anonymous_args = 0
  40 0000 80B5     		push	{r7, lr}
  41              		.cfi_def_cfa_offset 8
  42              		.cfi_offset 7, -8
  43              		.cfi_offset 14, -4
  44 0002 84B0     		sub	sp, sp, #16
  45              		.cfi_def_cfa_offset 24
  46 0004 00AF     		add	r7, sp, #0
  47              		.cfi_def_cfa_register 7
  48 0006 7860     		str	r0, [r7, #4]
 113:Generated_Source\PSoC6\pdl\rtos\FreeRTOS\9.0.0\Source\portable\MemMang/heap_1.c **** void *pvReturn = NULL;
  49              		.loc 1 113 0
  50 0008 0023     		movs	r3, #0
  51 000a FB60     		str	r3, [r7, #12]
 114:Generated_Source\PSoC6\pdl\rtos\FreeRTOS\9.0.0\Source\portable\MemMang/heap_1.c **** static uint8_t *pucAlignedHeap = NULL;
 115:Generated_Source\PSoC6\pdl\rtos\FreeRTOS\9.0.0\Source\portable\MemMang/heap_1.c **** 
 116:Generated_Source\PSoC6\pdl\rtos\FreeRTOS\9.0.0\Source\portable\MemMang/heap_1.c **** 	/* Ensure that blocks are always aligned to the required number of bytes. */
ARM GAS  C:\Users\ikomb\AppData\Local\Temp\cccfGzUJ.s 			page 4


 117:Generated_Source\PSoC6\pdl\rtos\FreeRTOS\9.0.0\Source\portable\MemMang/heap_1.c **** 	#if( portBYTE_ALIGNMENT != 1 )
 118:Generated_Source\PSoC6\pdl\rtos\FreeRTOS\9.0.0\Source\portable\MemMang/heap_1.c **** 	{
 119:Generated_Source\PSoC6\pdl\rtos\FreeRTOS\9.0.0\Source\portable\MemMang/heap_1.c **** 		if( xWantedSize & portBYTE_ALIGNMENT_MASK )
  52              		.loc 1 119 0
  53 000c 7B68     		ldr	r3, [r7, #4]
  54 000e 03F00703 		and	r3, r3, #7
  55 0012 002B     		cmp	r3, #0
  56 0014 04D0     		beq	.L2
 120:Generated_Source\PSoC6\pdl\rtos\FreeRTOS\9.0.0\Source\portable\MemMang/heap_1.c **** 		{
 121:Generated_Source\PSoC6\pdl\rtos\FreeRTOS\9.0.0\Source\portable\MemMang/heap_1.c **** 			/* Byte alignment required. */
 122:Generated_Source\PSoC6\pdl\rtos\FreeRTOS\9.0.0\Source\portable\MemMang/heap_1.c **** 			xWantedSize += ( portBYTE_ALIGNMENT - ( xWantedSize & portBYTE_ALIGNMENT_MASK ) );
  57              		.loc 1 122 0
  58 0016 7B68     		ldr	r3, [r7, #4]
  59 0018 23F00703 		bic	r3, r3, #7
  60 001c 0833     		adds	r3, r3, #8
  61 001e 7B60     		str	r3, [r7, #4]
  62              	.L2:
 123:Generated_Source\PSoC6\pdl\rtos\FreeRTOS\9.0.0\Source\portable\MemMang/heap_1.c **** 		}
 124:Generated_Source\PSoC6\pdl\rtos\FreeRTOS\9.0.0\Source\portable\MemMang/heap_1.c **** 	}
 125:Generated_Source\PSoC6\pdl\rtos\FreeRTOS\9.0.0\Source\portable\MemMang/heap_1.c **** 	#endif
 126:Generated_Source\PSoC6\pdl\rtos\FreeRTOS\9.0.0\Source\portable\MemMang/heap_1.c **** 
 127:Generated_Source\PSoC6\pdl\rtos\FreeRTOS\9.0.0\Source\portable\MemMang/heap_1.c **** 	vTaskSuspendAll();
  63              		.loc 1 127 0
  64 0020 FFF7FEFF 		bl	vTaskSuspendAll
 128:Generated_Source\PSoC6\pdl\rtos\FreeRTOS\9.0.0\Source\portable\MemMang/heap_1.c **** 	{
 129:Generated_Source\PSoC6\pdl\rtos\FreeRTOS\9.0.0\Source\portable\MemMang/heap_1.c **** 		if( pucAlignedHeap == NULL )
  65              		.loc 1 129 0
  66 0024 164B     		ldr	r3, .L6
  67 0026 1B68     		ldr	r3, [r3]
  68 0028 002B     		cmp	r3, #0
  69 002a 05D1     		bne	.L3
 130:Generated_Source\PSoC6\pdl\rtos\FreeRTOS\9.0.0\Source\portable\MemMang/heap_1.c **** 		{
 131:Generated_Source\PSoC6\pdl\rtos\FreeRTOS\9.0.0\Source\portable\MemMang/heap_1.c **** 			/* Ensure the heap starts on a correctly aligned boundary. */
 132:Generated_Source\PSoC6\pdl\rtos\FreeRTOS\9.0.0\Source\portable\MemMang/heap_1.c **** 			pucAlignedHeap = ( uint8_t * ) ( ( ( portPOINTER_SIZE_TYPE ) &ucHeap[ portBYTE_ALIGNMENT ] ) & (
  70              		.loc 1 132 0
  71 002c 154B     		ldr	r3, .L6+4
  72 002e 23F00703 		bic	r3, r3, #7
  73 0032 1A46     		mov	r2, r3
  74 0034 124B     		ldr	r3, .L6
  75 0036 1A60     		str	r2, [r3]
  76              	.L3:
 133:Generated_Source\PSoC6\pdl\rtos\FreeRTOS\9.0.0\Source\portable\MemMang/heap_1.c **** 		}
 134:Generated_Source\PSoC6\pdl\rtos\FreeRTOS\9.0.0\Source\portable\MemMang/heap_1.c **** 
 135:Generated_Source\PSoC6\pdl\rtos\FreeRTOS\9.0.0\Source\portable\MemMang/heap_1.c **** 		/* Check there is enough room left for the allocation. */
 136:Generated_Source\PSoC6\pdl\rtos\FreeRTOS\9.0.0\Source\portable\MemMang/heap_1.c **** 		if( ( ( xNextFreeByte + xWantedSize ) < configADJUSTED_HEAP_SIZE ) &&
  77              		.loc 1 136 0
  78 0038 134B     		ldr	r3, .L6+8
  79 003a 1A68     		ldr	r2, [r3]
  80 003c 7B68     		ldr	r3, [r7, #4]
  81 003e 1344     		add	r3, r3, r2
  82 0040 42F2F772 		movw	r2, #10231
  83 0044 9342     		cmp	r3, r2
  84 0046 13D8     		bhi	.L4
 137:Generated_Source\PSoC6\pdl\rtos\FreeRTOS\9.0.0\Source\portable\MemMang/heap_1.c **** 			( ( xNextFreeByte + xWantedSize ) > xNextFreeByte )	)/* Check for overflow. */
  85              		.loc 1 137 0 discriminator 1
  86 0048 0F4B     		ldr	r3, .L6+8
  87 004a 1A68     		ldr	r2, [r3]
ARM GAS  C:\Users\ikomb\AppData\Local\Temp\cccfGzUJ.s 			page 5


  88 004c 7B68     		ldr	r3, [r7, #4]
  89 004e 1A44     		add	r2, r2, r3
  90 0050 0D4B     		ldr	r3, .L6+8
  91 0052 1B68     		ldr	r3, [r3]
 136:Generated_Source\PSoC6\pdl\rtos\FreeRTOS\9.0.0\Source\portable\MemMang/heap_1.c **** 			( ( xNextFreeByte + xWantedSize ) > xNextFreeByte )	)/* Check for overflow. */
  92              		.loc 1 136 0 discriminator 1
  93 0054 9A42     		cmp	r2, r3
  94 0056 0BD9     		bls	.L4
 138:Generated_Source\PSoC6\pdl\rtos\FreeRTOS\9.0.0\Source\portable\MemMang/heap_1.c **** 		{
 139:Generated_Source\PSoC6\pdl\rtos\FreeRTOS\9.0.0\Source\portable\MemMang/heap_1.c **** 			/* Return the next free byte then increment the index past this
 140:Generated_Source\PSoC6\pdl\rtos\FreeRTOS\9.0.0\Source\portable\MemMang/heap_1.c **** 			block. */
 141:Generated_Source\PSoC6\pdl\rtos\FreeRTOS\9.0.0\Source\portable\MemMang/heap_1.c **** 			pvReturn = pucAlignedHeap + xNextFreeByte;
  95              		.loc 1 141 0
  96 0058 094B     		ldr	r3, .L6
  97 005a 1A68     		ldr	r2, [r3]
  98 005c 0A4B     		ldr	r3, .L6+8
  99 005e 1B68     		ldr	r3, [r3]
 100 0060 1344     		add	r3, r3, r2
 101 0062 FB60     		str	r3, [r7, #12]
 142:Generated_Source\PSoC6\pdl\rtos\FreeRTOS\9.0.0\Source\portable\MemMang/heap_1.c **** 			xNextFreeByte += xWantedSize;
 102              		.loc 1 142 0
 103 0064 084B     		ldr	r3, .L6+8
 104 0066 1A68     		ldr	r2, [r3]
 105 0068 7B68     		ldr	r3, [r7, #4]
 106 006a 1344     		add	r3, r3, r2
 107 006c 064A     		ldr	r2, .L6+8
 108 006e 1360     		str	r3, [r2]
 109              	.L4:
 143:Generated_Source\PSoC6\pdl\rtos\FreeRTOS\9.0.0\Source\portable\MemMang/heap_1.c **** 		}
 144:Generated_Source\PSoC6\pdl\rtos\FreeRTOS\9.0.0\Source\portable\MemMang/heap_1.c **** 
 145:Generated_Source\PSoC6\pdl\rtos\FreeRTOS\9.0.0\Source\portable\MemMang/heap_1.c **** 		traceMALLOC( pvReturn, xWantedSize );
 146:Generated_Source\PSoC6\pdl\rtos\FreeRTOS\9.0.0\Source\portable\MemMang/heap_1.c **** 	}
 147:Generated_Source\PSoC6\pdl\rtos\FreeRTOS\9.0.0\Source\portable\MemMang/heap_1.c **** 	( void ) xTaskResumeAll();
 110              		.loc 1 147 0
 111 0070 FFF7FEFF 		bl	xTaskResumeAll
 148:Generated_Source\PSoC6\pdl\rtos\FreeRTOS\9.0.0\Source\portable\MemMang/heap_1.c **** 
 149:Generated_Source\PSoC6\pdl\rtos\FreeRTOS\9.0.0\Source\portable\MemMang/heap_1.c **** 	#if( configUSE_MALLOC_FAILED_HOOK == 1 )
 150:Generated_Source\PSoC6\pdl\rtos\FreeRTOS\9.0.0\Source\portable\MemMang/heap_1.c **** 	{
 151:Generated_Source\PSoC6\pdl\rtos\FreeRTOS\9.0.0\Source\portable\MemMang/heap_1.c **** 		if( pvReturn == NULL )
 152:Generated_Source\PSoC6\pdl\rtos\FreeRTOS\9.0.0\Source\portable\MemMang/heap_1.c **** 		{
 153:Generated_Source\PSoC6\pdl\rtos\FreeRTOS\9.0.0\Source\portable\MemMang/heap_1.c **** 			extern void vApplicationMallocFailedHook( void );
 154:Generated_Source\PSoC6\pdl\rtos\FreeRTOS\9.0.0\Source\portable\MemMang/heap_1.c **** 			vApplicationMallocFailedHook();
 155:Generated_Source\PSoC6\pdl\rtos\FreeRTOS\9.0.0\Source\portable\MemMang/heap_1.c **** 		}
 156:Generated_Source\PSoC6\pdl\rtos\FreeRTOS\9.0.0\Source\portable\MemMang/heap_1.c **** 	}
 157:Generated_Source\PSoC6\pdl\rtos\FreeRTOS\9.0.0\Source\portable\MemMang/heap_1.c **** 	#endif
 158:Generated_Source\PSoC6\pdl\rtos\FreeRTOS\9.0.0\Source\portable\MemMang/heap_1.c **** 
 159:Generated_Source\PSoC6\pdl\rtos\FreeRTOS\9.0.0\Source\portable\MemMang/heap_1.c **** 	return pvReturn;
 112              		.loc 1 159 0
 113 0074 FB68     		ldr	r3, [r7, #12]
 160:Generated_Source\PSoC6\pdl\rtos\FreeRTOS\9.0.0\Source\portable\MemMang/heap_1.c **** }
 114              		.loc 1 160 0
 115 0076 1846     		mov	r0, r3
 116 0078 1037     		adds	r7, r7, #16
 117              		.cfi_def_cfa_offset 8
 118 007a BD46     		mov	sp, r7
 119              		.cfi_def_cfa_register 13
 120              		@ sp needed
ARM GAS  C:\Users\ikomb\AppData\Local\Temp\cccfGzUJ.s 			page 6


 121 007c 80BD     		pop	{r7, pc}
 122              	.L7:
 123 007e 00BF     		.align	2
 124              	.L6:
 125 0080 04280000 		.word	pucAlignedHeap.10611
 126 0084 08000000 		.word	ucHeap+8
 127 0088 00280000 		.word	xNextFreeByte
 128              		.cfi_endproc
 129              	.LFE129:
 130              		.size	pvPortMalloc, .-pvPortMalloc
 131              		.section	.text.vPortFree,"ax",%progbits
 132              		.align	2
 133              		.global	vPortFree
 134              		.thumb
 135              		.thumb_func
 136              		.type	vPortFree, %function
 137              	vPortFree:
 138              	.LFB130:
 161:Generated_Source\PSoC6\pdl\rtos\FreeRTOS\9.0.0\Source\portable\MemMang/heap_1.c **** /*-----------------------------------------------------------*/
 162:Generated_Source\PSoC6\pdl\rtos\FreeRTOS\9.0.0\Source\portable\MemMang/heap_1.c **** 
 163:Generated_Source\PSoC6\pdl\rtos\FreeRTOS\9.0.0\Source\portable\MemMang/heap_1.c **** void vPortFree( void *pv )
 164:Generated_Source\PSoC6\pdl\rtos\FreeRTOS\9.0.0\Source\portable\MemMang/heap_1.c **** {
 139              		.loc 1 164 0
 140              		.cfi_startproc
 141              		@ args = 0, pretend = 0, frame = 8
 142              		@ frame_needed = 1, uses_anonymous_args = 0
 143              		@ link register save eliminated.
 144 0000 80B4     		push	{r7}
 145              		.cfi_def_cfa_offset 4
 146              		.cfi_offset 7, -4
 147 0002 83B0     		sub	sp, sp, #12
 148              		.cfi_def_cfa_offset 16
 149 0004 00AF     		add	r7, sp, #0
 150              		.cfi_def_cfa_register 7
 151 0006 7860     		str	r0, [r7, #4]
 165:Generated_Source\PSoC6\pdl\rtos\FreeRTOS\9.0.0\Source\portable\MemMang/heap_1.c **** 	/* Memory cannot be freed using this scheme.  See heap_2.c, heap_3.c and
 166:Generated_Source\PSoC6\pdl\rtos\FreeRTOS\9.0.0\Source\portable\MemMang/heap_1.c **** 	heap_4.c for alternative implementations, and the memory management pages of
 167:Generated_Source\PSoC6\pdl\rtos\FreeRTOS\9.0.0\Source\portable\MemMang/heap_1.c **** 	http://www.FreeRTOS.org for more information. */
 168:Generated_Source\PSoC6\pdl\rtos\FreeRTOS\9.0.0\Source\portable\MemMang/heap_1.c **** 	( void ) pv;
 169:Generated_Source\PSoC6\pdl\rtos\FreeRTOS\9.0.0\Source\portable\MemMang/heap_1.c **** 
 170:Generated_Source\PSoC6\pdl\rtos\FreeRTOS\9.0.0\Source\portable\MemMang/heap_1.c **** 	/* Force an assert as it is invalid to call this function. */
 171:Generated_Source\PSoC6\pdl\rtos\FreeRTOS\9.0.0\Source\portable\MemMang/heap_1.c **** 	configASSERT( pv == NULL );
 152              		.loc 1 171 0
 153 0008 7B68     		ldr	r3, [r7, #4]
 154 000a 002B     		cmp	r3, #0
 155 000c 01D0     		beq	.L11
 156              		.loc 1 171 0 is_stmt 0 discriminator 1
 157              		.syntax unified
 158              	@ 171 "Generated_Source\PSoC6\pdl\rtos\FreeRTOS\9.0.0\Source\portable\MemMang\heap_1.c" 1
 159 000e 72B6     		 cpsid i 
 160              	@ 0 "" 2
 161              		.thumb
 162              		.syntax unified
 163              	.L10:
 164 0010 FEE7     		b	.L10
 165              	.L11:
 172:Generated_Source\PSoC6\pdl\rtos\FreeRTOS\9.0.0\Source\portable\MemMang/heap_1.c **** }
ARM GAS  C:\Users\ikomb\AppData\Local\Temp\cccfGzUJ.s 			page 7


 166              		.loc 1 172 0 is_stmt 1
 167 0012 00BF     		nop
 168 0014 0C37     		adds	r7, r7, #12
 169              		.cfi_def_cfa_offset 4
 170 0016 BD46     		mov	sp, r7
 171              		.cfi_def_cfa_register 13
 172              		@ sp needed
 173 0018 5DF8047B 		ldr	r7, [sp], #4
 174              		.cfi_restore 7
 175              		.cfi_def_cfa_offset 0
 176 001c 7047     		bx	lr
 177              		.cfi_endproc
 178              	.LFE130:
 179              		.size	vPortFree, .-vPortFree
 180 001e 00BF     		.section	.text.vPortInitialiseBlocks,"ax",%progbits
 181              		.align	2
 182              		.global	vPortInitialiseBlocks
 183              		.thumb
 184              		.thumb_func
 185              		.type	vPortInitialiseBlocks, %function
 186              	vPortInitialiseBlocks:
 187              	.LFB131:
 173:Generated_Source\PSoC6\pdl\rtos\FreeRTOS\9.0.0\Source\portable\MemMang/heap_1.c **** /*-----------------------------------------------------------*/
 174:Generated_Source\PSoC6\pdl\rtos\FreeRTOS\9.0.0\Source\portable\MemMang/heap_1.c **** 
 175:Generated_Source\PSoC6\pdl\rtos\FreeRTOS\9.0.0\Source\portable\MemMang/heap_1.c **** void vPortInitialiseBlocks( void )
 176:Generated_Source\PSoC6\pdl\rtos\FreeRTOS\9.0.0\Source\portable\MemMang/heap_1.c **** {
 188              		.loc 1 176 0
 189              		.cfi_startproc
 190              		@ args = 0, pretend = 0, frame = 0
 191              		@ frame_needed = 1, uses_anonymous_args = 0
 192              		@ link register save eliminated.
 193 0000 80B4     		push	{r7}
 194              		.cfi_def_cfa_offset 4
 195              		.cfi_offset 7, -4
 196 0002 00AF     		add	r7, sp, #0
 197              		.cfi_def_cfa_register 7
 177:Generated_Source\PSoC6\pdl\rtos\FreeRTOS\9.0.0\Source\portable\MemMang/heap_1.c **** 	/* Only required when static memory is not cleared. */
 178:Generated_Source\PSoC6\pdl\rtos\FreeRTOS\9.0.0\Source\portable\MemMang/heap_1.c **** 	xNextFreeByte = ( size_t ) 0;
 198              		.loc 1 178 0
 199 0004 034B     		ldr	r3, .L13
 200 0006 0022     		movs	r2, #0
 201 0008 1A60     		str	r2, [r3]
 179:Generated_Source\PSoC6\pdl\rtos\FreeRTOS\9.0.0\Source\portable\MemMang/heap_1.c **** }
 202              		.loc 1 179 0
 203 000a 00BF     		nop
 204 000c BD46     		mov	sp, r7
 205              		.cfi_def_cfa_register 13
 206              		@ sp needed
 207 000e 5DF8047B 		ldr	r7, [sp], #4
 208              		.cfi_restore 7
 209              		.cfi_def_cfa_offset 0
 210 0012 7047     		bx	lr
 211              	.L14:
 212              		.align	2
 213              	.L13:
 214 0014 00280000 		.word	xNextFreeByte
 215              		.cfi_endproc
ARM GAS  C:\Users\ikomb\AppData\Local\Temp\cccfGzUJ.s 			page 8


 216              	.LFE131:
 217              		.size	vPortInitialiseBlocks, .-vPortInitialiseBlocks
 218              		.section	.text.xPortGetFreeHeapSize,"ax",%progbits
 219              		.align	2
 220              		.global	xPortGetFreeHeapSize
 221              		.thumb
 222              		.thumb_func
 223              		.type	xPortGetFreeHeapSize, %function
 224              	xPortGetFreeHeapSize:
 225              	.LFB132:
 180:Generated_Source\PSoC6\pdl\rtos\FreeRTOS\9.0.0\Source\portable\MemMang/heap_1.c **** /*-----------------------------------------------------------*/
 181:Generated_Source\PSoC6\pdl\rtos\FreeRTOS\9.0.0\Source\portable\MemMang/heap_1.c **** 
 182:Generated_Source\PSoC6\pdl\rtos\FreeRTOS\9.0.0\Source\portable\MemMang/heap_1.c **** size_t xPortGetFreeHeapSize( void )
 183:Generated_Source\PSoC6\pdl\rtos\FreeRTOS\9.0.0\Source\portable\MemMang/heap_1.c **** {
 226              		.loc 1 183 0
 227              		.cfi_startproc
 228              		@ args = 0, pretend = 0, frame = 0
 229              		@ frame_needed = 1, uses_anonymous_args = 0
 230              		@ link register save eliminated.
 231 0000 80B4     		push	{r7}
 232              		.cfi_def_cfa_offset 4
 233              		.cfi_offset 7, -4
 234 0002 00AF     		add	r7, sp, #0
 235              		.cfi_def_cfa_register 7
 184:Generated_Source\PSoC6\pdl\rtos\FreeRTOS\9.0.0\Source\portable\MemMang/heap_1.c **** 	return ( configADJUSTED_HEAP_SIZE - xNextFreeByte );
 236              		.loc 1 184 0
 237 0004 044B     		ldr	r3, .L17
 238 0006 1B68     		ldr	r3, [r3]
 239 0008 C3F51F53 		rsb	r3, r3, #10176
 240 000c 3833     		adds	r3, r3, #56
 185:Generated_Source\PSoC6\pdl\rtos\FreeRTOS\9.0.0\Source\portable\MemMang/heap_1.c **** }
 241              		.loc 1 185 0
 242 000e 1846     		mov	r0, r3
 243 0010 BD46     		mov	sp, r7
 244              		.cfi_def_cfa_register 13
 245              		@ sp needed
 246 0012 5DF8047B 		ldr	r7, [sp], #4
 247              		.cfi_restore 7
 248              		.cfi_def_cfa_offset 0
 249 0016 7047     		bx	lr
 250              	.L18:
 251              		.align	2
 252              	.L17:
 253 0018 00280000 		.word	xNextFreeByte
 254              		.cfi_endproc
 255              	.LFE132:
 256              		.size	xPortGetFreeHeapSize, .-xPortGetFreeHeapSize
 257              		.bss
 258              		.align	2
 259              	pucAlignedHeap.10611:
 260 2804 00000000 		.space	4
 261              		.text
 262              	.Letext0:
 263              		.file 2 "c:\\program files (x86)\\cypress\\psoc creator\\4.4\\psoc creator\\import\\gnu\\arm\\5.4.
 264              		.file 3 "c:\\program files (x86)\\cypress\\psoc creator\\4.4\\psoc creator\\import\\gnu\\arm\\5.4.
 265              		.file 4 "c:\\program files (x86)\\cypress\\psoc creator\\4.4\\psoc creator\\import\\gnu\\arm\\5.4.
 266              		.file 5 "Generated_Source\\PSoC6\\pdl\\cmsis/include/core_cm4.h"
ARM GAS  C:\Users\ikomb\AppData\Local\Temp\cccfGzUJ.s 			page 9

