ARM GAS  C:\Users\ikomb\AppData\Local\Temp\ccNVjT3c.s 			page 1


   1              		.syntax unified
   2              		.cpu cortex-m4
   3              		.eabi_attribute 27, 1
   4              		.fpu fpv4-sp-d16
   5              		.eabi_attribute 20, 1
   6              		.eabi_attribute 21, 1
   7              		.eabi_attribute 23, 3
   8              		.eabi_attribute 24, 1
   9              		.eabi_attribute 25, 1
  10              		.eabi_attribute 26, 1
  11              		.eabi_attribute 30, 6
  12              		.eabi_attribute 34, 1
  13              		.eabi_attribute 18, 4
  14              		.thumb
  15              		.syntax unified
  16              		.file	"I2S.c"
  17              		.text
  18              	.Ltext0:
  19              		.cfi_sections	.debug_frame
  20              		.section	.text.Cy_I2S_EnableTx,"ax",%progbits
  21              		.align	2
  22              		.thumb
  23              		.thumb_func
  24              		.type	Cy_I2S_EnableTx, %function
  25              	Cy_I2S_EnableTx:
  26              	.LFB158:
  27              		.file 1 "Generated_Source\\PSoC6\\pdl\\drivers/peripheral/i2s/cy_i2s.h"
   1:Generated_Source\PSoC6\pdl\drivers/peripheral/i2s/cy_i2s.h **** /***************************************************************************//**
   2:Generated_Source\PSoC6\pdl\drivers/peripheral/i2s/cy_i2s.h **** * \file cy_i2s.h
   3:Generated_Source\PSoC6\pdl\drivers/peripheral/i2s/cy_i2s.h **** * \version 2.0.1
   4:Generated_Source\PSoC6\pdl\drivers/peripheral/i2s/cy_i2s.h **** * 
   5:Generated_Source\PSoC6\pdl\drivers/peripheral/i2s/cy_i2s.h **** * The header file of the I2S driver.
   6:Generated_Source\PSoC6\pdl\drivers/peripheral/i2s/cy_i2s.h **** *
   7:Generated_Source\PSoC6\pdl\drivers/peripheral/i2s/cy_i2s.h **** ********************************************************************************
   8:Generated_Source\PSoC6\pdl\drivers/peripheral/i2s/cy_i2s.h **** * \copyright
   9:Generated_Source\PSoC6\pdl\drivers/peripheral/i2s/cy_i2s.h **** * Copyright 2016-2018, Cypress Semiconductor Corporation. All rights reserved.
  10:Generated_Source\PSoC6\pdl\drivers/peripheral/i2s/cy_i2s.h **** * You may use this file only in accordance with the license, terms, conditions,
  11:Generated_Source\PSoC6\pdl\drivers/peripheral/i2s/cy_i2s.h **** * disclaimers, and limitations in the end user license agreement accompanying
  12:Generated_Source\PSoC6\pdl\drivers/peripheral/i2s/cy_i2s.h **** * the software package with which this file was provided.
  13:Generated_Source\PSoC6\pdl\drivers/peripheral/i2s/cy_i2s.h **** *******************************************************************************/
  14:Generated_Source\PSoC6\pdl\drivers/peripheral/i2s/cy_i2s.h **** 
  15:Generated_Source\PSoC6\pdl\drivers/peripheral/i2s/cy_i2s.h **** /**
  16:Generated_Source\PSoC6\pdl\drivers/peripheral/i2s/cy_i2s.h **** * \defgroup group_i2s Inter-IC Sound (I2S)
  17:Generated_Source\PSoC6\pdl\drivers/peripheral/i2s/cy_i2s.h **** * \{
  18:Generated_Source\PSoC6\pdl\drivers/peripheral/i2s/cy_i2s.h **** * The I2S driver provides a function API to manage Inter-IC Sound. I2S is used 
  19:Generated_Source\PSoC6\pdl\drivers/peripheral/i2s/cy_i2s.h **** * to send digital audio streaming data to external I2S devices, such as audio 
  20:Generated_Source\PSoC6\pdl\drivers/peripheral/i2s/cy_i2s.h **** * codecs or simple DACs. It can also receive digital audio streaming data.
  21:Generated_Source\PSoC6\pdl\drivers/peripheral/i2s/cy_i2s.h **** *
  22:Generated_Source\PSoC6\pdl\drivers/peripheral/i2s/cy_i2s.h **** * Features:
  23:Generated_Source\PSoC6\pdl\drivers/peripheral/i2s/cy_i2s.h **** * * An industry standard NXP I2S interface.
  24:Generated_Source\PSoC6\pdl\drivers/peripheral/i2s/cy_i2s.h **** * * Supports master/slave TX/RX operation.
  25:Generated_Source\PSoC6\pdl\drivers/peripheral/i2s/cy_i2s.h **** * * Programmable Channel/Word Lengths.
  26:Generated_Source\PSoC6\pdl\drivers/peripheral/i2s/cy_i2s.h **** * * Supports External Clock operation.
  27:Generated_Source\PSoC6\pdl\drivers/peripheral/i2s/cy_i2s.h **** *
  28:Generated_Source\PSoC6\pdl\drivers/peripheral/i2s/cy_i2s.h **** * The I2S bus is an industry standard. The hardware interface was 
  29:Generated_Source\PSoC6\pdl\drivers/peripheral/i2s/cy_i2s.h **** * developed by Philips Semiconductors (now NXP Semiconductors). 
  30:Generated_Source\PSoC6\pdl\drivers/peripheral/i2s/cy_i2s.h **** *
ARM GAS  C:\Users\ikomb\AppData\Local\Temp\ccNVjT3c.s 			page 2


  31:Generated_Source\PSoC6\pdl\drivers/peripheral/i2s/cy_i2s.h **** * \section group_i2s_configuration_considerations Configuration Considerations
  32:Generated_Source\PSoC6\pdl\drivers/peripheral/i2s/cy_i2s.h **** *
  33:Generated_Source\PSoC6\pdl\drivers/peripheral/i2s/cy_i2s.h **** * To set up an I2S, provide the configuration parameters in the
  34:Generated_Source\PSoC6\pdl\drivers/peripheral/i2s/cy_i2s.h **** * \ref cy_stc_i2s_config_t structure. 
  35:Generated_Source\PSoC6\pdl\drivers/peripheral/i2s/cy_i2s.h **** * 
  36:Generated_Source\PSoC6\pdl\drivers/peripheral/i2s/cy_i2s.h **** * For example, for Tx configuration, set txEnabled to true, configure
  37:Generated_Source\PSoC6\pdl\drivers/peripheral/i2s/cy_i2s.h **** * txDmaTrigger (depending on whether DMA is going to be used or not), set
  38:Generated_Source\PSoC6\pdl\drivers/peripheral/i2s/cy_i2s.h **** * extClk (if an external clock is used), provide clkDiv, txMasterMode,
  39:Generated_Source\PSoC6\pdl\drivers/peripheral/i2s/cy_i2s.h **** * txAlignment, txChannels (only 2 is supported in I2S and Left Justified modes)
  40:Generated_Source\PSoC6\pdl\drivers/peripheral/i2s/cy_i2s.h **** * txSdoLatchingTime (for slave mode only), txChannelLength, txWordLength,
  41:Generated_Source\PSoC6\pdl\drivers/peripheral/i2s/cy_i2s.h **** * txWsPulseWidth (for TMD modes only), txWatchdogEnable and txWatchdogValue
  42:Generated_Source\PSoC6\pdl\drivers/peripheral/i2s/cy_i2s.h **** * (both for Slave mode only, and when the watchdog interrupt will be used),
  43:Generated_Source\PSoC6\pdl\drivers/peripheral/i2s/cy_i2s.h **** * either txSckoInversion or txSckiInversion (based on txMasterMode setting),
  44:Generated_Source\PSoC6\pdl\drivers/peripheral/i2s/cy_i2s.h **** * txFifoTriggerLevel (when the Trig interrupt will be used) and txOverheadValue
  45:Generated_Source\PSoC6\pdl\drivers/peripheral/i2s/cy_i2s.h **** * (only when the word length is less than channel length).
  46:Generated_Source\PSoC6\pdl\drivers/peripheral/i2s/cy_i2s.h **** * A similar setup is for the Rx configuration.
  47:Generated_Source\PSoC6\pdl\drivers/peripheral/i2s/cy_i2s.h **** *
  48:Generated_Source\PSoC6\pdl\drivers/peripheral/i2s/cy_i2s.h **** * To initialize the I2S block, call the \ref Cy_I2S_Init function, providing the
  49:Generated_Source\PSoC6\pdl\drivers/peripheral/i2s/cy_i2s.h **** * filled \ref cy_stc_i2s_config_t structure.
  50:Generated_Source\PSoC6\pdl\drivers/peripheral/i2s/cy_i2s.h **** * Before starting the transmission, clear the FIFO \ref Cy_I2S_ClearTxFifo, then
  51:Generated_Source\PSoC6\pdl\drivers/peripheral/i2s/cy_i2s.h **** * fill the first Tx data frame by calling \ref Cy_I2S_WriteTxData once for each
  52:Generated_Source\PSoC6\pdl\drivers/peripheral/i2s/cy_i2s.h **** * channel (e.g. twice for I2S mode with only two channels) with zero data. Then
  53:Generated_Source\PSoC6\pdl\drivers/peripheral/i2s/cy_i2s.h **** * call the \ref Cy_I2S_EnableTx itself.
  54:Generated_Source\PSoC6\pdl\drivers/peripheral/i2s/cy_i2s.h **** * For the reception the sequence is the same except for filling the first data
  55:Generated_Source\PSoC6\pdl\drivers/peripheral/i2s/cy_i2s.h **** * frame, just RX FIFO clearing is enough.
  56:Generated_Source\PSoC6\pdl\drivers/peripheral/i2s/cy_i2s.h **** *
  57:Generated_Source\PSoC6\pdl\drivers/peripheral/i2s/cy_i2s.h **** * For example:
  58:Generated_Source\PSoC6\pdl\drivers/peripheral/i2s/cy_i2s.h **** * \snippet i2s/i2s_v2_0_sut_00.cydsn/main_cm4.c snippet_Cy_I2S_Init
  59:Generated_Source\PSoC6\pdl\drivers/peripheral/i2s/cy_i2s.h **** * 
  60:Generated_Source\PSoC6\pdl\drivers/peripheral/i2s/cy_i2s.h **** * If you use a DMA, the DMA channel should be previously configured. The I2S interrupts 
  61:Generated_Source\PSoC6\pdl\drivers/peripheral/i2s/cy_i2s.h **** * (if applicable) can be enabled by calling \ref Cy_I2S_SetInterruptMask.
  62:Generated_Source\PSoC6\pdl\drivers/peripheral/i2s/cy_i2s.h **** *
  63:Generated_Source\PSoC6\pdl\drivers/peripheral/i2s/cy_i2s.h **** * For example, if the trigger interrupt is used, during operation the ISR
  64:Generated_Source\PSoC6\pdl\drivers/peripheral/i2s/cy_i2s.h **** * should call the \ref Cy_I2S_WriteTxData as many times as required for your 
  65:Generated_Source\PSoC6\pdl\drivers/peripheral/i2s/cy_i2s.h **** * FIFO payload, but not more than the FIFO size. Then call \ref Cy_I2S_ClearInterrupt 
  66:Generated_Source\PSoC6\pdl\drivers/peripheral/i2s/cy_i2s.h **** * with appropriate parameters.
  67:Generated_Source\PSoC6\pdl\drivers/peripheral/i2s/cy_i2s.h **** *
  68:Generated_Source\PSoC6\pdl\drivers/peripheral/i2s/cy_i2s.h **** * The I2S/Left Justified data formats always contains two data channels.
  69:Generated_Source\PSoC6\pdl\drivers/peripheral/i2s/cy_i2s.h **** * They are ordered one-by-one in the FIFOs, left always goes first.
  70:Generated_Source\PSoC6\pdl\drivers/peripheral/i2s/cy_i2s.h **** * So in case of mono audio stream transmission, each sample can be put twice
  71:Generated_Source\PSoC6\pdl\drivers/peripheral/i2s/cy_i2s.h **** * into the TX FIFO (in this case both channels will sound the same),
  72:Generated_Source\PSoC6\pdl\drivers/peripheral/i2s/cy_i2s.h **** * or combined with zeroes: sample1-zero-sample2-zero (in this case only the
  73:Generated_Source\PSoC6\pdl\drivers/peripheral/i2s/cy_i2s.h **** * left channel will finally sound, for right-only case zero should go first).
  74:Generated_Source\PSoC6\pdl\drivers/peripheral/i2s/cy_i2s.h **** * The TDM frame word order in FIFOs is similar, one-by-one.
  75:Generated_Source\PSoC6\pdl\drivers/peripheral/i2s/cy_i2s.h **** * 
  76:Generated_Source\PSoC6\pdl\drivers/peripheral/i2s/cy_i2s.h **** * If a DMA is used and the DMA channel is properly configured - no CPU activity
  77:Generated_Source\PSoC6\pdl\drivers/peripheral/i2s/cy_i2s.h **** * (or any application code) is needed for I2S operation.
  78:Generated_Source\PSoC6\pdl\drivers/peripheral/i2s/cy_i2s.h **** *
  79:Generated_Source\PSoC6\pdl\drivers/peripheral/i2s/cy_i2s.h **** * The I2S frame appears as:
  80:Generated_Source\PSoC6\pdl\drivers/peripheral/i2s/cy_i2s.h **** * \image html i2s_frame.png
  81:Generated_Source\PSoC6\pdl\drivers/peripheral/i2s/cy_i2s.h **** * This is an example for the channel length = 32. A similar is for all the rest
  82:Generated_Source\PSoC6\pdl\drivers/peripheral/i2s/cy_i2s.h **** * channel lengths, with one limitation: the word length could be less or equal
  83:Generated_Source\PSoC6\pdl\drivers/peripheral/i2s/cy_i2s.h **** * to the channel length. See the device Technical Reference Manual (TRM)
  84:Generated_Source\PSoC6\pdl\drivers/peripheral/i2s/cy_i2s.h **** * for more details.
  85:Generated_Source\PSoC6\pdl\drivers/peripheral/i2s/cy_i2s.h **** *
  86:Generated_Source\PSoC6\pdl\drivers/peripheral/i2s/cy_i2s.h **** * \section group_i2s_more_information More Information
  87:Generated_Source\PSoC6\pdl\drivers/peripheral/i2s/cy_i2s.h **** * See: the the I2S chapter of the device technical reference manual (TRM);
ARM GAS  C:\Users\ikomb\AppData\Local\Temp\ccNVjT3c.s 			page 3


  88:Generated_Source\PSoC6\pdl\drivers/peripheral/i2s/cy_i2s.h **** *      I2S_PDL Component datasheet;
  89:Generated_Source\PSoC6\pdl\drivers/peripheral/i2s/cy_i2s.h **** *      CE218636 - PSOC 6 MCU INTER-IC SOUND (I2S) EXAMPLE.
  90:Generated_Source\PSoC6\pdl\drivers/peripheral/i2s/cy_i2s.h **** *
  91:Generated_Source\PSoC6\pdl\drivers/peripheral/i2s/cy_i2s.h **** * \section group_i2s_MISRA MISRA-C Compliance
  92:Generated_Source\PSoC6\pdl\drivers/peripheral/i2s/cy_i2s.h **** * The I2S driver has the following specific deviations:
  93:Generated_Source\PSoC6\pdl\drivers/peripheral/i2s/cy_i2s.h **** * <table class="doxtable">
  94:Generated_Source\PSoC6\pdl\drivers/peripheral/i2s/cy_i2s.h **** *   <tr>
  95:Generated_Source\PSoC6\pdl\drivers/peripheral/i2s/cy_i2s.h **** *     <th>MISRA Rule</th>
  96:Generated_Source\PSoC6\pdl\drivers/peripheral/i2s/cy_i2s.h **** *     <th>Rule Class (Required/Advisory)</th>
  97:Generated_Source\PSoC6\pdl\drivers/peripheral/i2s/cy_i2s.h **** *     <th>Rule Description</th>
  98:Generated_Source\PSoC6\pdl\drivers/peripheral/i2s/cy_i2s.h **** *     <th>Description of Deviation(s)</th>
  99:Generated_Source\PSoC6\pdl\drivers/peripheral/i2s/cy_i2s.h **** *   </tr>
 100:Generated_Source\PSoC6\pdl\drivers/peripheral/i2s/cy_i2s.h **** *   <tr>
 101:Generated_Source\PSoC6\pdl\drivers/peripheral/i2s/cy_i2s.h **** *     <td>11.4</td>
 102:Generated_Source\PSoC6\pdl\drivers/peripheral/i2s/cy_i2s.h **** *     <td>A</td>
 103:Generated_Source\PSoC6\pdl\drivers/peripheral/i2s/cy_i2s.h **** *     <td>A cast should not be performed between a pointer to the object type and
 104:Generated_Source\PSoC6\pdl\drivers/peripheral/i2s/cy_i2s.h **** *         a different pointer to the object type.</td>
 105:Generated_Source\PSoC6\pdl\drivers/peripheral/i2s/cy_i2s.h **** *     <td>The function \ref Cy_I2S_DeepSleepCallback is a callback of
 106:Generated_Source\PSoC6\pdl\drivers/peripheral/i2s/cy_i2s.h **** *         \ref cy_en_syspm_status_t type. The cast operation safety in this
 107:Generated_Source\PSoC6\pdl\drivers/peripheral/i2s/cy_i2s.h **** *         function becomes the user responsibility because the pointer is
 108:Generated_Source\PSoC6\pdl\drivers/peripheral/i2s/cy_i2s.h **** *         initialized when a callback is registered in the SysPm driver.</td>
 109:Generated_Source\PSoC6\pdl\drivers/peripheral/i2s/cy_i2s.h **** *   </tr>
 110:Generated_Source\PSoC6\pdl\drivers/peripheral/i2s/cy_i2s.h **** * </table>
 111:Generated_Source\PSoC6\pdl\drivers/peripheral/i2s/cy_i2s.h **** *
 112:Generated_Source\PSoC6\pdl\drivers/peripheral/i2s/cy_i2s.h **** * \section group_i2s_changelog Changelog
 113:Generated_Source\PSoC6\pdl\drivers/peripheral/i2s/cy_i2s.h **** * <table class="doxtable">
 114:Generated_Source\PSoC6\pdl\drivers/peripheral/i2s/cy_i2s.h **** *   <tr><th>Version</th><th>Changes</th><th>Reason for Change</th></tr>
 115:Generated_Source\PSoC6\pdl\drivers/peripheral/i2s/cy_i2s.h **** *   <tr>
 116:Generated_Source\PSoC6\pdl\drivers/peripheral/i2s/cy_i2s.h **** *     <td>2.0.1</td>
 117:Generated_Source\PSoC6\pdl\drivers/peripheral/i2s/cy_i2s.h **** *     <td>Added Low Power Callback section</td>
 118:Generated_Source\PSoC6\pdl\drivers/peripheral/i2s/cy_i2s.h **** *     <td>Documentation update and clarification</td>
 119:Generated_Source\PSoC6\pdl\drivers/peripheral/i2s/cy_i2s.h **** *   </tr>
 120:Generated_Source\PSoC6\pdl\drivers/peripheral/i2s/cy_i2s.h **** *   <tr>
 121:Generated_Source\PSoC6\pdl\drivers/peripheral/i2s/cy_i2s.h **** *     <td>2.0</td>
 122:Generated_Source\PSoC6\pdl\drivers/peripheral/i2s/cy_i2s.h **** *     <td>The slave operation is added, Left Justified and TDM modes are added</td>
 123:Generated_Source\PSoC6\pdl\drivers/peripheral/i2s/cy_i2s.h **** *     <td></td>
 124:Generated_Source\PSoC6\pdl\drivers/peripheral/i2s/cy_i2s.h **** *   </tr>
 125:Generated_Source\PSoC6\pdl\drivers/peripheral/i2s/cy_i2s.h **** *   <tr>
 126:Generated_Source\PSoC6\pdl\drivers/peripheral/i2s/cy_i2s.h **** *     <td>1.0</td>
 127:Generated_Source\PSoC6\pdl\drivers/peripheral/i2s/cy_i2s.h **** *     <td>Initial version</td>
 128:Generated_Source\PSoC6\pdl\drivers/peripheral/i2s/cy_i2s.h **** *     <td></td>
 129:Generated_Source\PSoC6\pdl\drivers/peripheral/i2s/cy_i2s.h **** *   </tr>
 130:Generated_Source\PSoC6\pdl\drivers/peripheral/i2s/cy_i2s.h **** * </table>
 131:Generated_Source\PSoC6\pdl\drivers/peripheral/i2s/cy_i2s.h **** *
 132:Generated_Source\PSoC6\pdl\drivers/peripheral/i2s/cy_i2s.h **** * \defgroup group_i2s_macros Macros
 133:Generated_Source\PSoC6\pdl\drivers/peripheral/i2s/cy_i2s.h **** * \defgroup group_i2s_functions Functions
 134:Generated_Source\PSoC6\pdl\drivers/peripheral/i2s/cy_i2s.h **** *   \{
 135:Generated_Source\PSoC6\pdl\drivers/peripheral/i2s/cy_i2s.h **** *       \defgroup group_i2s_functions_syspm_callback  Low Power Callback
 136:Generated_Source\PSoC6\pdl\drivers/peripheral/i2s/cy_i2s.h **** *   \}
 137:Generated_Source\PSoC6\pdl\drivers/peripheral/i2s/cy_i2s.h **** * \defgroup group_i2s_data_structures Data Structures
 138:Generated_Source\PSoC6\pdl\drivers/peripheral/i2s/cy_i2s.h **** * \defgroup group_i2s_enums Enumerated Types
 139:Generated_Source\PSoC6\pdl\drivers/peripheral/i2s/cy_i2s.h **** */
 140:Generated_Source\PSoC6\pdl\drivers/peripheral/i2s/cy_i2s.h **** 
 141:Generated_Source\PSoC6\pdl\drivers/peripheral/i2s/cy_i2s.h **** 
 142:Generated_Source\PSoC6\pdl\drivers/peripheral/i2s/cy_i2s.h **** #if !defined CY_I2S_H
 143:Generated_Source\PSoC6\pdl\drivers/peripheral/i2s/cy_i2s.h **** #define CY_I2S_H
 144:Generated_Source\PSoC6\pdl\drivers/peripheral/i2s/cy_i2s.h **** 
ARM GAS  C:\Users\ikomb\AppData\Local\Temp\ccNVjT3c.s 			page 4


 145:Generated_Source\PSoC6\pdl\drivers/peripheral/i2s/cy_i2s.h **** #include <stddef.h>
 146:Generated_Source\PSoC6\pdl\drivers/peripheral/i2s/cy_i2s.h **** #include <stdbool.h>
 147:Generated_Source\PSoC6\pdl\drivers/peripheral/i2s/cy_i2s.h **** #include "syslib/cy_syslib.h"
 148:Generated_Source\PSoC6\pdl\drivers/peripheral/i2s/cy_i2s.h **** #include "syspm/cy_syspm.h"
 149:Generated_Source\PSoC6\pdl\drivers/peripheral/i2s/cy_i2s.h **** 
 150:Generated_Source\PSoC6\pdl\drivers/peripheral/i2s/cy_i2s.h **** #ifndef CY_IP_MXAUDIOSS
 151:Generated_Source\PSoC6\pdl\drivers/peripheral/i2s/cy_i2s.h ****     #error "The I2S driver is not supported on this device"
 152:Generated_Source\PSoC6\pdl\drivers/peripheral/i2s/cy_i2s.h **** #endif
 153:Generated_Source\PSoC6\pdl\drivers/peripheral/i2s/cy_i2s.h **** 
 154:Generated_Source\PSoC6\pdl\drivers/peripheral/i2s/cy_i2s.h **** #ifdef __cplusplus
 155:Generated_Source\PSoC6\pdl\drivers/peripheral/i2s/cy_i2s.h **** extern "C" {
 156:Generated_Source\PSoC6\pdl\drivers/peripheral/i2s/cy_i2s.h **** #endif
 157:Generated_Source\PSoC6\pdl\drivers/peripheral/i2s/cy_i2s.h **** 
 158:Generated_Source\PSoC6\pdl\drivers/peripheral/i2s/cy_i2s.h **** /** \addtogroup group_i2s_macros
 159:Generated_Source\PSoC6\pdl\drivers/peripheral/i2s/cy_i2s.h **** * \{
 160:Generated_Source\PSoC6\pdl\drivers/peripheral/i2s/cy_i2s.h **** */
 161:Generated_Source\PSoC6\pdl\drivers/peripheral/i2s/cy_i2s.h **** 
 162:Generated_Source\PSoC6\pdl\drivers/peripheral/i2s/cy_i2s.h **** /** The driver major version */
 163:Generated_Source\PSoC6\pdl\drivers/peripheral/i2s/cy_i2s.h **** #define CY_I2S_DRV_VERSION_MAJOR       2
 164:Generated_Source\PSoC6\pdl\drivers/peripheral/i2s/cy_i2s.h **** 
 165:Generated_Source\PSoC6\pdl\drivers/peripheral/i2s/cy_i2s.h **** /** The driver minor version */
 166:Generated_Source\PSoC6\pdl\drivers/peripheral/i2s/cy_i2s.h **** #define CY_I2S_DRV_VERSION_MINOR       0
 167:Generated_Source\PSoC6\pdl\drivers/peripheral/i2s/cy_i2s.h **** 
 168:Generated_Source\PSoC6\pdl\drivers/peripheral/i2s/cy_i2s.h **** /** The I2S driver identifier */
 169:Generated_Source\PSoC6\pdl\drivers/peripheral/i2s/cy_i2s.h **** #define CY_I2S_ID                      (CY_PDL_DRV_ID(0x20U))
 170:Generated_Source\PSoC6\pdl\drivers/peripheral/i2s/cy_i2s.h **** 
 171:Generated_Source\PSoC6\pdl\drivers/peripheral/i2s/cy_i2s.h **** /**
 172:Generated_Source\PSoC6\pdl\drivers/peripheral/i2s/cy_i2s.h **** * \defgroup group_i2s_macros_intrerrupt_masks Interrupt Masks
 173:Generated_Source\PSoC6\pdl\drivers/peripheral/i2s/cy_i2s.h **** * \{
 174:Generated_Source\PSoC6\pdl\drivers/peripheral/i2s/cy_i2s.h **** */
 175:Generated_Source\PSoC6\pdl\drivers/peripheral/i2s/cy_i2s.h **** 
 176:Generated_Source\PSoC6\pdl\drivers/peripheral/i2s/cy_i2s.h **** /** Bit 0: Less entries in the TX FIFO than specified by Trigger Level. */
 177:Generated_Source\PSoC6\pdl\drivers/peripheral/i2s/cy_i2s.h **** #define CY_I2S_INTR_TX_TRIGGER         (I2S_INTR_TX_TRIGGER_Msk)
 178:Generated_Source\PSoC6\pdl\drivers/peripheral/i2s/cy_i2s.h **** /** Bit 1: TX FIFO is not full. */
 179:Generated_Source\PSoC6\pdl\drivers/peripheral/i2s/cy_i2s.h **** #define CY_I2S_INTR_TX_NOT_FULL        (I2S_INTR_TX_NOT_FULL_Msk)
 180:Generated_Source\PSoC6\pdl\drivers/peripheral/i2s/cy_i2s.h **** /** Bit 4: TX FIFO is empty, i.e. it has 0 entries. */
 181:Generated_Source\PSoC6\pdl\drivers/peripheral/i2s/cy_i2s.h **** #define CY_I2S_INTR_TX_EMPTY           (I2S_INTR_TX_EMPTY_Msk)
 182:Generated_Source\PSoC6\pdl\drivers/peripheral/i2s/cy_i2s.h **** /** Bit 5: Attempt to write to a full TX FIFO. */
 183:Generated_Source\PSoC6\pdl\drivers/peripheral/i2s/cy_i2s.h **** #define CY_I2S_INTR_TX_OVERFLOW        (I2S_INTR_TX_OVERFLOW_Msk)
 184:Generated_Source\PSoC6\pdl\drivers/peripheral/i2s/cy_i2s.h **** /** Bit 6: Attempt to read from an empty TX FIFO.
 185:Generated_Source\PSoC6\pdl\drivers/peripheral/i2s/cy_i2s.h **** * This happens when the IP is ready to transfer data and TX_EMPTY is '1'. */
 186:Generated_Source\PSoC6\pdl\drivers/peripheral/i2s/cy_i2s.h **** #define CY_I2S_INTR_TX_UNDERFLOW       (I2S_INTR_TX_UNDERFLOW_Msk)
 187:Generated_Source\PSoC6\pdl\drivers/peripheral/i2s/cy_i2s.h **** /** Bit 8: Tx watchdog event occurs. */
 188:Generated_Source\PSoC6\pdl\drivers/peripheral/i2s/cy_i2s.h **** #define CY_I2S_INTR_TX_WD              (I2S_INTR_TX_WD_Msk)
 189:Generated_Source\PSoC6\pdl\drivers/peripheral/i2s/cy_i2s.h **** /** Bit 16: More entries in the RX FIFO than specified by Trigger Level. */
 190:Generated_Source\PSoC6\pdl\drivers/peripheral/i2s/cy_i2s.h **** #define CY_I2S_INTR_RX_TRIGGER         (I2S_INTR_RX_TRIGGER_Msk)
 191:Generated_Source\PSoC6\pdl\drivers/peripheral/i2s/cy_i2s.h **** /** Bit 18: RX FIFO is not empty. */
 192:Generated_Source\PSoC6\pdl\drivers/peripheral/i2s/cy_i2s.h **** #define CY_I2S_INTR_RX_NOT_EMPTY       (I2S_INTR_RX_NOT_EMPTY_Msk)
 193:Generated_Source\PSoC6\pdl\drivers/peripheral/i2s/cy_i2s.h **** /** Bit 19: RX FIFO is full. */
 194:Generated_Source\PSoC6\pdl\drivers/peripheral/i2s/cy_i2s.h **** #define CY_I2S_INTR_RX_FULL            (I2S_INTR_RX_FULL_Msk)
 195:Generated_Source\PSoC6\pdl\drivers/peripheral/i2s/cy_i2s.h **** /** Bit 21: Attempt to write to a full RX FIFO. */
 196:Generated_Source\PSoC6\pdl\drivers/peripheral/i2s/cy_i2s.h **** #define CY_I2S_INTR_RX_OVERFLOW        (I2S_INTR_RX_OVERFLOW_Msk)
 197:Generated_Source\PSoC6\pdl\drivers/peripheral/i2s/cy_i2s.h **** /** Bit 22: Attempt to read from an empty RX FIFO. */
 198:Generated_Source\PSoC6\pdl\drivers/peripheral/i2s/cy_i2s.h **** #define CY_I2S_INTR_RX_UNDERFLOW       (I2S_INTR_RX_UNDERFLOW_Msk)
 199:Generated_Source\PSoC6\pdl\drivers/peripheral/i2s/cy_i2s.h **** /** Bit 24: Rx watchdog event occurs. */
 200:Generated_Source\PSoC6\pdl\drivers/peripheral/i2s/cy_i2s.h **** #define CY_I2S_INTR_RX_WD              (I2S_INTR_RX_WD_Msk)
 201:Generated_Source\PSoC6\pdl\drivers/peripheral/i2s/cy_i2s.h **** 
ARM GAS  C:\Users\ikomb\AppData\Local\Temp\ccNVjT3c.s 			page 5


 202:Generated_Source\PSoC6\pdl\drivers/peripheral/i2s/cy_i2s.h **** /** \} group_i2s_macros_intrerrupt_masks */
 203:Generated_Source\PSoC6\pdl\drivers/peripheral/i2s/cy_i2s.h **** 
 204:Generated_Source\PSoC6\pdl\drivers/peripheral/i2s/cy_i2s.h **** 
 205:Generated_Source\PSoC6\pdl\drivers/peripheral/i2s/cy_i2s.h **** /**
 206:Generated_Source\PSoC6\pdl\drivers/peripheral/i2s/cy_i2s.h **** * \defgroup group_i2s_macros_current_state Current State
 207:Generated_Source\PSoC6\pdl\drivers/peripheral/i2s/cy_i2s.h **** * \{
 208:Generated_Source\PSoC6\pdl\drivers/peripheral/i2s/cy_i2s.h **** */
 209:Generated_Source\PSoC6\pdl\drivers/peripheral/i2s/cy_i2s.h **** 
 210:Generated_Source\PSoC6\pdl\drivers/peripheral/i2s/cy_i2s.h **** /** Transmission is active */ 
 211:Generated_Source\PSoC6\pdl\drivers/peripheral/i2s/cy_i2s.h **** #define CY_I2S_TX_START                (I2S_CMD_TX_START_Msk)
 212:Generated_Source\PSoC6\pdl\drivers/peripheral/i2s/cy_i2s.h **** /** Transmission is paused */
 213:Generated_Source\PSoC6\pdl\drivers/peripheral/i2s/cy_i2s.h **** #define CY_I2S_TX_PAUSE                (I2S_CMD_TX_PAUSE_Msk)
 214:Generated_Source\PSoC6\pdl\drivers/peripheral/i2s/cy_i2s.h **** /** Reception is active */
 215:Generated_Source\PSoC6\pdl\drivers/peripheral/i2s/cy_i2s.h **** #define CY_I2S_RX_START                (I2S_CMD_RX_START_Msk)
 216:Generated_Source\PSoC6\pdl\drivers/peripheral/i2s/cy_i2s.h **** 
 217:Generated_Source\PSoC6\pdl\drivers/peripheral/i2s/cy_i2s.h **** /** \} group_i2s_macros_current_state */
 218:Generated_Source\PSoC6\pdl\drivers/peripheral/i2s/cy_i2s.h **** 
 219:Generated_Source\PSoC6\pdl\drivers/peripheral/i2s/cy_i2s.h **** /** \} group_i2s_macros */
 220:Generated_Source\PSoC6\pdl\drivers/peripheral/i2s/cy_i2s.h **** 
 221:Generated_Source\PSoC6\pdl\drivers/peripheral/i2s/cy_i2s.h **** /**
 222:Generated_Source\PSoC6\pdl\drivers/peripheral/i2s/cy_i2s.h **** * \addtogroup group_i2s_enums
 223:Generated_Source\PSoC6\pdl\drivers/peripheral/i2s/cy_i2s.h **** * \{
 224:Generated_Source\PSoC6\pdl\drivers/peripheral/i2s/cy_i2s.h **** */
 225:Generated_Source\PSoC6\pdl\drivers/peripheral/i2s/cy_i2s.h **** 
 226:Generated_Source\PSoC6\pdl\drivers/peripheral/i2s/cy_i2s.h **** /**
 227:Generated_Source\PSoC6\pdl\drivers/peripheral/i2s/cy_i2s.h **** * I2S status definitions.
 228:Generated_Source\PSoC6\pdl\drivers/peripheral/i2s/cy_i2s.h **** */
 229:Generated_Source\PSoC6\pdl\drivers/peripheral/i2s/cy_i2s.h **** 
 230:Generated_Source\PSoC6\pdl\drivers/peripheral/i2s/cy_i2s.h **** typedef enum 
 231:Generated_Source\PSoC6\pdl\drivers/peripheral/i2s/cy_i2s.h **** {
 232:Generated_Source\PSoC6\pdl\drivers/peripheral/i2s/cy_i2s.h ****     CY_I2S_SUCCESS   = 0x00UL, /**< Successful. */
 233:Generated_Source\PSoC6\pdl\drivers/peripheral/i2s/cy_i2s.h ****     CY_I2S_BAD_PARAM = CY_I2S_ID | CY_PDL_STATUS_ERROR | 0x01UL /**< One or more invalid parameters
 234:Generated_Source\PSoC6\pdl\drivers/peripheral/i2s/cy_i2s.h **** } cy_en_i2s_status_t;
 235:Generated_Source\PSoC6\pdl\drivers/peripheral/i2s/cy_i2s.h **** 
 236:Generated_Source\PSoC6\pdl\drivers/peripheral/i2s/cy_i2s.h **** 
 237:Generated_Source\PSoC6\pdl\drivers/peripheral/i2s/cy_i2s.h **** /**
 238:Generated_Source\PSoC6\pdl\drivers/peripheral/i2s/cy_i2s.h **** * I2S data alignment.
 239:Generated_Source\PSoC6\pdl\drivers/peripheral/i2s/cy_i2s.h **** */
 240:Generated_Source\PSoC6\pdl\drivers/peripheral/i2s/cy_i2s.h **** typedef enum
 241:Generated_Source\PSoC6\pdl\drivers/peripheral/i2s/cy_i2s.h **** {
 242:Generated_Source\PSoC6\pdl\drivers/peripheral/i2s/cy_i2s.h ****     CY_I2S_LEFT_JUSTIFIED = 0U, /**< Left justified. */
 243:Generated_Source\PSoC6\pdl\drivers/peripheral/i2s/cy_i2s.h ****     CY_I2S_I2S_MODE       = 1U, /**< I2S mode. */
 244:Generated_Source\PSoC6\pdl\drivers/peripheral/i2s/cy_i2s.h ****     CY_I2S_TDM_MODE_A     = 2U, /**< TDM mode A. */
 245:Generated_Source\PSoC6\pdl\drivers/peripheral/i2s/cy_i2s.h ****     CY_I2S_TDM_MODE_B     = 3U  /**< TDM mode B. */
 246:Generated_Source\PSoC6\pdl\drivers/peripheral/i2s/cy_i2s.h **** } cy_en_i2s_alignment_t;
 247:Generated_Source\PSoC6\pdl\drivers/peripheral/i2s/cy_i2s.h **** 
 248:Generated_Source\PSoC6\pdl\drivers/peripheral/i2s/cy_i2s.h **** /**
 249:Generated_Source\PSoC6\pdl\drivers/peripheral/i2s/cy_i2s.h **** * I2S channel/word length.
 250:Generated_Source\PSoC6\pdl\drivers/peripheral/i2s/cy_i2s.h **** */
 251:Generated_Source\PSoC6\pdl\drivers/peripheral/i2s/cy_i2s.h **** typedef enum
 252:Generated_Source\PSoC6\pdl\drivers/peripheral/i2s/cy_i2s.h **** {
 253:Generated_Source\PSoC6\pdl\drivers/peripheral/i2s/cy_i2s.h ****     CY_I2S_LEN8  = 0U, /**< Channel/word length:  8 bit. */
 254:Generated_Source\PSoC6\pdl\drivers/peripheral/i2s/cy_i2s.h ****     CY_I2S_LEN16 = 1U, /**< Channel/Word length: 16 bit. */
 255:Generated_Source\PSoC6\pdl\drivers/peripheral/i2s/cy_i2s.h ****     CY_I2S_LEN18 = 2U, /**< Channel/Word length: 18 bit. */
 256:Generated_Source\PSoC6\pdl\drivers/peripheral/i2s/cy_i2s.h ****     CY_I2S_LEN20 = 3U, /**< Channel/Word length: 20 bit. */
 257:Generated_Source\PSoC6\pdl\drivers/peripheral/i2s/cy_i2s.h ****     CY_I2S_LEN24 = 4U, /**< Channel/Word length: 24 bit. */
 258:Generated_Source\PSoC6\pdl\drivers/peripheral/i2s/cy_i2s.h ****     CY_I2S_LEN32 = 5U  /**< Channel/Word length: 32 bit. */
ARM GAS  C:\Users\ikomb\AppData\Local\Temp\ccNVjT3c.s 			page 6


 259:Generated_Source\PSoC6\pdl\drivers/peripheral/i2s/cy_i2s.h **** } cy_en_i2s_len_t;
 260:Generated_Source\PSoC6\pdl\drivers/peripheral/i2s/cy_i2s.h **** 
 261:Generated_Source\PSoC6\pdl\drivers/peripheral/i2s/cy_i2s.h **** /**
 262:Generated_Source\PSoC6\pdl\drivers/peripheral/i2s/cy_i2s.h **** * I2S TX overhead value.
 263:Generated_Source\PSoC6\pdl\drivers/peripheral/i2s/cy_i2s.h **** */
 264:Generated_Source\PSoC6\pdl\drivers/peripheral/i2s/cy_i2s.h **** typedef enum
 265:Generated_Source\PSoC6\pdl\drivers/peripheral/i2s/cy_i2s.h **** {
 266:Generated_Source\PSoC6\pdl\drivers/peripheral/i2s/cy_i2s.h ****     CY_I2S_OVHDATA_ZERO = 0U, /**< Fill overhead bits by zeroes. */
 267:Generated_Source\PSoC6\pdl\drivers/peripheral/i2s/cy_i2s.h ****     CY_I2S_OVHDATA_ONE  = 1U, /**< Fill overhead bits by ones. */
 268:Generated_Source\PSoC6\pdl\drivers/peripheral/i2s/cy_i2s.h **** } cy_en_i2s_overhead_t;
 269:Generated_Source\PSoC6\pdl\drivers/peripheral/i2s/cy_i2s.h **** 
 270:Generated_Source\PSoC6\pdl\drivers/peripheral/i2s/cy_i2s.h **** /**
 271:Generated_Source\PSoC6\pdl\drivers/peripheral/i2s/cy_i2s.h **** * I2S WS pulse width.
 272:Generated_Source\PSoC6\pdl\drivers/peripheral/i2s/cy_i2s.h **** */
 273:Generated_Source\PSoC6\pdl\drivers/peripheral/i2s/cy_i2s.h **** typedef enum
 274:Generated_Source\PSoC6\pdl\drivers/peripheral/i2s/cy_i2s.h **** {
 275:Generated_Source\PSoC6\pdl\drivers/peripheral/i2s/cy_i2s.h ****     CY_I2S_WS_ONE_SCK_CYCLE      = 0U, /**< WS pulse width is one SCK cycle. */
 276:Generated_Source\PSoC6\pdl\drivers/peripheral/i2s/cy_i2s.h ****     CY_I2S_WS_ONE_CHANNEL_LENGTH = 1U, /**< WS pulse width is one channel length. */
 277:Generated_Source\PSoC6\pdl\drivers/peripheral/i2s/cy_i2s.h **** } cy_en_i2s_ws_pw_t;
 278:Generated_Source\PSoC6\pdl\drivers/peripheral/i2s/cy_i2s.h **** 
 279:Generated_Source\PSoC6\pdl\drivers/peripheral/i2s/cy_i2s.h **** /** \} group_i2s_enums */
 280:Generated_Source\PSoC6\pdl\drivers/peripheral/i2s/cy_i2s.h **** 
 281:Generated_Source\PSoC6\pdl\drivers/peripheral/i2s/cy_i2s.h **** /**
 282:Generated_Source\PSoC6\pdl\drivers/peripheral/i2s/cy_i2s.h **** * \addtogroup group_i2s_data_structures
 283:Generated_Source\PSoC6\pdl\drivers/peripheral/i2s/cy_i2s.h **** * \{
 284:Generated_Source\PSoC6\pdl\drivers/peripheral/i2s/cy_i2s.h **** */
 285:Generated_Source\PSoC6\pdl\drivers/peripheral/i2s/cy_i2s.h **** 
 286:Generated_Source\PSoC6\pdl\drivers/peripheral/i2s/cy_i2s.h **** /**
 287:Generated_Source\PSoC6\pdl\drivers/peripheral/i2s/cy_i2s.h **** * I2S initialization configuration.
 288:Generated_Source\PSoC6\pdl\drivers/peripheral/i2s/cy_i2s.h **** */
 289:Generated_Source\PSoC6\pdl\drivers/peripheral/i2s/cy_i2s.h **** typedef struct
 290:Generated_Source\PSoC6\pdl\drivers/peripheral/i2s/cy_i2s.h **** {
 291:Generated_Source\PSoC6\pdl\drivers/peripheral/i2s/cy_i2s.h ****     bool                  txEnabled;          /**< Enables the I2S TX component: 'false': disabled.
 292:Generated_Source\PSoC6\pdl\drivers/peripheral/i2s/cy_i2s.h ****     bool                  rxEnabled;          /**< Enables the I2S RX component: 'false': disabled.
 293:Generated_Source\PSoC6\pdl\drivers/peripheral/i2s/cy_i2s.h ****     bool                  txDmaTrigger;       /**< 'false': TX DMA trigger disable, 'true': TX DMA 
 294:Generated_Source\PSoC6\pdl\drivers/peripheral/i2s/cy_i2s.h ****     bool                  rxDmaTrigger;       /**< 'false': RX DMA trigger disable, 'true': RX DMA 
 295:Generated_Source\PSoC6\pdl\drivers/peripheral/i2s/cy_i2s.h ****     uint8_t               clkDiv;             /**< CLK_SEL divider: 1: Bypass, 2: 1/2, 3: 1/3, ...,
 296:Generated_Source\PSoC6\pdl\drivers/peripheral/i2s/cy_i2s.h ****     bool                  extClk;             /**< 'false': internal clock, 'true': external clock.
 297:Generated_Source\PSoC6\pdl\drivers/peripheral/i2s/cy_i2s.h ****     bool                  txMasterMode;       /**< 'false': TX in slave mode, 'true': TX in master 
 298:Generated_Source\PSoC6\pdl\drivers/peripheral/i2s/cy_i2s.h ****     cy_en_i2s_alignment_t txAlignment;        /**< TX data alignment, see: #cy_en_i2s_alignment_t. 
 299:Generated_Source\PSoC6\pdl\drivers/peripheral/i2s/cy_i2s.h ****     cy_en_i2s_ws_pw_t     txWsPulseWidth;     /**< TX Word Select pulse width.
 300:Generated_Source\PSoC6\pdl\drivers/peripheral/i2s/cy_i2s.h ****                                                    The value of this parameter is ignored in I2S an
 301:Generated_Source\PSoC6\pdl\drivers/peripheral/i2s/cy_i2s.h ****                                                    the WS pulse width is always "one channel length
 302:Generated_Source\PSoC6\pdl\drivers/peripheral/i2s/cy_i2s.h ****     bool                  txWatchdogEnable;   /**< 'false': TX watchdog disabled, 'true': TX watchd
 303:Generated_Source\PSoC6\pdl\drivers/peripheral/i2s/cy_i2s.h ****     uint32_t              txWatchdogValue;    /**< TX watchdog counter value (32 bit). */
 304:Generated_Source\PSoC6\pdl\drivers/peripheral/i2s/cy_i2s.h ****     bool                  txSdoLatchingTime;  /**< 'false': SDO bit starts at falling edge (accordi
 305:Generated_Source\PSoC6\pdl\drivers/peripheral/i2s/cy_i2s.h ****                                                    Standard, if txSckoInversion is false),
 306:Generated_Source\PSoC6\pdl\drivers/peripheral/i2s/cy_i2s.h ****                                                    'true': SDO bit starts at rising edge which goes
 307:Generated_Source\PSoC6\pdl\drivers/peripheral/i2s/cy_i2s.h ****                                                    mentioned falling edge, i.e. the SDO signal is a
 308:Generated_Source\PSoC6\pdl\drivers/peripheral/i2s/cy_i2s.h ****                                                    period (if txSckoInversion is false).
 309:Generated_Source\PSoC6\pdl\drivers/peripheral/i2s/cy_i2s.h ****                                                    If txSckoInversion is true - the rising/falling 
 310:Generated_Source\PSoC6\pdl\drivers/peripheral/i2s/cy_i2s.h ****                                                    in above explanations.
 311:Generated_Source\PSoC6\pdl\drivers/peripheral/i2s/cy_i2s.h ****                                                    Effective only in slave mode, must be false in m
 312:Generated_Source\PSoC6\pdl\drivers/peripheral/i2s/cy_i2s.h ****     bool                  txSckoInversion;    /**< TX SCKO polarity:
 313:Generated_Source\PSoC6\pdl\drivers/peripheral/i2s/cy_i2s.h ****                                                    'false': When transmitter is in master mode, ser
 314:Generated_Source\PSoC6\pdl\drivers/peripheral/i2s/cy_i2s.h ****                                                             transmitted off the falling bit clock e
 315:Generated_Source\PSoC6\pdl\drivers/peripheral/i2s/cy_i2s.h ****                                                             the I2S Standard);
ARM GAS  C:\Users\ikomb\AppData\Local\Temp\ccNVjT3c.s 			page 7


 316:Generated_Source\PSoC6\pdl\drivers/peripheral/i2s/cy_i2s.h ****                                                    'true':  When transmitter is in master mode, ser
 317:Generated_Source\PSoC6\pdl\drivers/peripheral/i2s/cy_i2s.h ****                                                             transmitted off the rising bit clock ed
 318:Generated_Source\PSoC6\pdl\drivers/peripheral/i2s/cy_i2s.h ****                                                    Effective only in master mode. */
 319:Generated_Source\PSoC6\pdl\drivers/peripheral/i2s/cy_i2s.h ****     bool                  txSckiInversion;    /**< TX SCKI polarity:
 320:Generated_Source\PSoC6\pdl\drivers/peripheral/i2s/cy_i2s.h ****                                                    'false': When transmitter is in slave mode, seri
 321:Generated_Source\PSoC6\pdl\drivers/peripheral/i2s/cy_i2s.h ****                                                             transmitted off the falling bit clock e
 322:Generated_Source\PSoC6\pdl\drivers/peripheral/i2s/cy_i2s.h ****                                                             the I2S Standard);
 323:Generated_Source\PSoC6\pdl\drivers/peripheral/i2s/cy_i2s.h ****                                                    'true':  When transmitter is in slave mode, seri
 324:Generated_Source\PSoC6\pdl\drivers/peripheral/i2s/cy_i2s.h ****                                                             transmitted off the rising bit clock ed
 325:Generated_Source\PSoC6\pdl\drivers/peripheral/i2s/cy_i2s.h ****                                                    Effective only in slave mode. */
 326:Generated_Source\PSoC6\pdl\drivers/peripheral/i2s/cy_i2s.h ****     uint8_t               txChannels;         /**< Number of TX channels, valid range is 1...8 for 
 327:Generated_Source\PSoC6\pdl\drivers/peripheral/i2s/cy_i2s.h ****                                                    In the I2S and Left Justified modes the value of
 328:Generated_Source\PSoC6\pdl\drivers/peripheral/i2s/cy_i2s.h ****                                                    ignored - the real number of channels is always 
 329:Generated_Source\PSoC6\pdl\drivers/peripheral/i2s/cy_i2s.h ****     cy_en_i2s_len_t       txChannelLength;    /**< TX channel length, see #cy_en_i2s_len_t,
 330:Generated_Source\PSoC6\pdl\drivers/peripheral/i2s/cy_i2s.h ****                                                    the value of this parameter is ignored in TDM mo
 331:Generated_Source\PSoC6\pdl\drivers/peripheral/i2s/cy_i2s.h ****                                                    channel length is 32 bit in these modes. */
 332:Generated_Source\PSoC6\pdl\drivers/peripheral/i2s/cy_i2s.h ****     cy_en_i2s_len_t       txWordLength;       /**< TX word length, see #cy_en_i2s_len_t,
 333:Generated_Source\PSoC6\pdl\drivers/peripheral/i2s/cy_i2s.h ****                                                    must be less or equal to txChannelLength. */
 334:Generated_Source\PSoC6\pdl\drivers/peripheral/i2s/cy_i2s.h ****     cy_en_i2s_overhead_t  txOverheadValue;    /**< TX overhead bits value
 335:Generated_Source\PSoC6\pdl\drivers/peripheral/i2s/cy_i2s.h ****                                                    when the word length is less than the channel le
 336:Generated_Source\PSoC6\pdl\drivers/peripheral/i2s/cy_i2s.h ****     uint8_t               txFifoTriggerLevel; /**< TX FIFO interrupt trigger level (0, 1, ..., 255)
 337:Generated_Source\PSoC6\pdl\drivers/peripheral/i2s/cy_i2s.h ****     bool                  rxMasterMode;       /**< 'false': RX in slave mode, 'true': RX in master 
 338:Generated_Source\PSoC6\pdl\drivers/peripheral/i2s/cy_i2s.h ****     cy_en_i2s_alignment_t rxAlignment;        /**< RX data alignment, see: #cy_en_i2s_alignment_t. 
 339:Generated_Source\PSoC6\pdl\drivers/peripheral/i2s/cy_i2s.h ****     cy_en_i2s_ws_pw_t     rxWsPulseWidth;     /**< RX Word Select pulse width.
 340:Generated_Source\PSoC6\pdl\drivers/peripheral/i2s/cy_i2s.h ****                                                    The value of this parameter is ignored in I2S an
 341:Generated_Source\PSoC6\pdl\drivers/peripheral/i2s/cy_i2s.h ****                                                    the WS pulse width is always "one channel length
 342:Generated_Source\PSoC6\pdl\drivers/peripheral/i2s/cy_i2s.h ****     bool                  rxWatchdogEnable;   /**< 'false': RX watchdog disabled, 'true': RX watchd
 343:Generated_Source\PSoC6\pdl\drivers/peripheral/i2s/cy_i2s.h ****     uint32_t              rxWatchdogValue;    /**< RX watchdog counter value (32 bit). */
 344:Generated_Source\PSoC6\pdl\drivers/peripheral/i2s/cy_i2s.h ****     bool                  rxSdiLatchingTime;  /**< 'false': SDI bit starts at falling edge (accordi
 345:Generated_Source\PSoC6\pdl\drivers/peripheral/i2s/cy_i2s.h ****                                                    Standard if rxSckoInversion is false),
 346:Generated_Source\PSoC6\pdl\drivers/peripheral/i2s/cy_i2s.h ****                                                    'true': SDI bit starts at rising edge which goes
 347:Generated_Source\PSoC6\pdl\drivers/peripheral/i2s/cy_i2s.h ****                                                    mentioned falling edge, i.e. the SDI signal is d
 348:Generated_Source\PSoC6\pdl\drivers/peripheral/i2s/cy_i2s.h ****                                                    period (if rxSckoInversion is false).
 349:Generated_Source\PSoC6\pdl\drivers/peripheral/i2s/cy_i2s.h ****                                                    If rxSckoInversion is true - the rising/falling 
 350:Generated_Source\PSoC6\pdl\drivers/peripheral/i2s/cy_i2s.h ****                                                    in above explanations.
 351:Generated_Source\PSoC6\pdl\drivers/peripheral/i2s/cy_i2s.h ****                                                    Effective only in master mode, must be false in 
 352:Generated_Source\PSoC6\pdl\drivers/peripheral/i2s/cy_i2s.h ****     bool                  rxSckoInversion;    /**< RX SCKO polarity:
 353:Generated_Source\PSoC6\pdl\drivers/peripheral/i2s/cy_i2s.h ****                                                    'false': When receiver is in master mode, serial
 354:Generated_Source\PSoC6\pdl\drivers/peripheral/i2s/cy_i2s.h ****                                                             captured by the rising bit clock edge (
 355:Generated_Source\PSoC6\pdl\drivers/peripheral/i2s/cy_i2s.h ****                                                             I2S Standard);
 356:Generated_Source\PSoC6\pdl\drivers/peripheral/i2s/cy_i2s.h ****                                                    'true':  When receiver is in master mode, serial
 357:Generated_Source\PSoC6\pdl\drivers/peripheral/i2s/cy_i2s.h ****                                                             captured by the falling bit clock edge.
 358:Generated_Source\PSoC6\pdl\drivers/peripheral/i2s/cy_i2s.h ****                                                    Effective only in master mode. */
 359:Generated_Source\PSoC6\pdl\drivers/peripheral/i2s/cy_i2s.h ****     bool                  rxSckiInversion;    /**< RX SCKI polarity:
 360:Generated_Source\PSoC6\pdl\drivers/peripheral/i2s/cy_i2s.h ****                                                    'false': When receiver is in slave mode, serial 
 361:Generated_Source\PSoC6\pdl\drivers/peripheral/i2s/cy_i2s.h ****                                                             captured by the rising bit clock edge (
 362:Generated_Source\PSoC6\pdl\drivers/peripheral/i2s/cy_i2s.h ****                                                             I2S Standard);
 363:Generated_Source\PSoC6\pdl\drivers/peripheral/i2s/cy_i2s.h ****                                                    'true':  When receiver is in slave mode, serial 
 364:Generated_Source\PSoC6\pdl\drivers/peripheral/i2s/cy_i2s.h ****                                                             captured by the falling bit clock edge.
 365:Generated_Source\PSoC6\pdl\drivers/peripheral/i2s/cy_i2s.h ****                                                    Effective only in slave mode. */
 366:Generated_Source\PSoC6\pdl\drivers/peripheral/i2s/cy_i2s.h ****     uint8_t               rxChannels;         /**< Number of RX channels, valid range is 1...8 for 
 367:Generated_Source\PSoC6\pdl\drivers/peripheral/i2s/cy_i2s.h ****                                                    In the I2S and Left Justified modes the value of
 368:Generated_Source\PSoC6\pdl\drivers/peripheral/i2s/cy_i2s.h ****                                                    ignored - the real number of channels is always 
 369:Generated_Source\PSoC6\pdl\drivers/peripheral/i2s/cy_i2s.h ****     cy_en_i2s_len_t       rxChannelLength;    /**< RX channel length, see #cy_en_i2s_len_t,
 370:Generated_Source\PSoC6\pdl\drivers/peripheral/i2s/cy_i2s.h ****                                                    the value of this parameter is ignored in TDM mo
 371:Generated_Source\PSoC6\pdl\drivers/peripheral/i2s/cy_i2s.h ****                                                    channel length is 32 bit in these modes. */
 372:Generated_Source\PSoC6\pdl\drivers/peripheral/i2s/cy_i2s.h ****     cy_en_i2s_len_t       rxWordLength;       /**< RX word length, see #cy_en_i2s_len_t,
ARM GAS  C:\Users\ikomb\AppData\Local\Temp\ccNVjT3c.s 			page 8


 373:Generated_Source\PSoC6\pdl\drivers/peripheral/i2s/cy_i2s.h ****                                                    must be less or equal to rxChannelLength. */
 374:Generated_Source\PSoC6\pdl\drivers/peripheral/i2s/cy_i2s.h ****     bool                  rxSignExtension;    /**< RX value sign extension (when the word length is
 375:Generated_Source\PSoC6\pdl\drivers/peripheral/i2s/cy_i2s.h ****                                                    'false': all MSB are filled by zeroes, 
 376:Generated_Source\PSoC6\pdl\drivers/peripheral/i2s/cy_i2s.h ****                                                    'true': all MSB are filled by the original sign 
 377:Generated_Source\PSoC6\pdl\drivers/peripheral/i2s/cy_i2s.h ****     uint8_t               rxFifoTriggerLevel; /**< RX FIFO interrupt trigger level
 378:Generated_Source\PSoC6\pdl\drivers/peripheral/i2s/cy_i2s.h ****                                                    (0, 1, ..., (255 - (number of channels))). */
 379:Generated_Source\PSoC6\pdl\drivers/peripheral/i2s/cy_i2s.h **** } cy_stc_i2s_config_t;
 380:Generated_Source\PSoC6\pdl\drivers/peripheral/i2s/cy_i2s.h **** 
 381:Generated_Source\PSoC6\pdl\drivers/peripheral/i2s/cy_i2s.h **** 
 382:Generated_Source\PSoC6\pdl\drivers/peripheral/i2s/cy_i2s.h **** /**
 383:Generated_Source\PSoC6\pdl\drivers/peripheral/i2s/cy_i2s.h ****  * The I2S backup structure type to be used for the SysPm callback.
 384:Generated_Source\PSoC6\pdl\drivers/peripheral/i2s/cy_i2s.h ****  * \ref Cy_I2S_DeepSleepCallback context definition.
 385:Generated_Source\PSoC6\pdl\drivers/peripheral/i2s/cy_i2s.h ****  *
 386:Generated_Source\PSoC6\pdl\drivers/peripheral/i2s/cy_i2s.h ****  * \cond Also can be used for other purposes to store the current Tx/Rx
 387:Generated_Source\PSoC6\pdl\drivers/peripheral/i2s/cy_i2s.h ****  * operation state and interrupt settings - the factors that are usually
 388:Generated_Source\PSoC6\pdl\drivers/peripheral/i2s/cy_i2s.h ****  * changed on the fly. \endcond
 389:Generated_Source\PSoC6\pdl\drivers/peripheral/i2s/cy_i2s.h ****  */
 390:Generated_Source\PSoC6\pdl\drivers/peripheral/i2s/cy_i2s.h **** typedef struct
 391:Generated_Source\PSoC6\pdl\drivers/peripheral/i2s/cy_i2s.h **** {
 392:Generated_Source\PSoC6\pdl\drivers/peripheral/i2s/cy_i2s.h ****     uint32_t enableState;            /**< Stores the I2S state */
 393:Generated_Source\PSoC6\pdl\drivers/peripheral/i2s/cy_i2s.h ****     uint32_t interruptMask;          /**< Stores the I2S interrupt mask */
 394:Generated_Source\PSoC6\pdl\drivers/peripheral/i2s/cy_i2s.h **** } cy_stc_i2s_context_t;
 395:Generated_Source\PSoC6\pdl\drivers/peripheral/i2s/cy_i2s.h **** 
 396:Generated_Source\PSoC6\pdl\drivers/peripheral/i2s/cy_i2s.h **** /** \} group_i2s_data_structures */
 397:Generated_Source\PSoC6\pdl\drivers/peripheral/i2s/cy_i2s.h **** 
 398:Generated_Source\PSoC6\pdl\drivers/peripheral/i2s/cy_i2s.h **** /** \cond INTERNAL */
 399:Generated_Source\PSoC6\pdl\drivers/peripheral/i2s/cy_i2s.h **** /******************************************************************************
 400:Generated_Source\PSoC6\pdl\drivers/peripheral/i2s/cy_i2s.h ****  * Local definitions
 401:Generated_Source\PSoC6\pdl\drivers/peripheral/i2s/cy_i2s.h **** *******************************************************************************/
 402:Generated_Source\PSoC6\pdl\drivers/peripheral/i2s/cy_i2s.h **** 
 403:Generated_Source\PSoC6\pdl\drivers/peripheral/i2s/cy_i2s.h **** #define CY_I2S_INTR_MASK           (CY_I2S_INTR_TX_TRIGGER   | \
 404:Generated_Source\PSoC6\pdl\drivers/peripheral/i2s/cy_i2s.h ****                                     CY_I2S_INTR_TX_NOT_FULL  | \
 405:Generated_Source\PSoC6\pdl\drivers/peripheral/i2s/cy_i2s.h ****                                     CY_I2S_INTR_TX_EMPTY     | \
 406:Generated_Source\PSoC6\pdl\drivers/peripheral/i2s/cy_i2s.h ****                                     CY_I2S_INTR_TX_OVERFLOW  | \
 407:Generated_Source\PSoC6\pdl\drivers/peripheral/i2s/cy_i2s.h ****                                     CY_I2S_INTR_TX_UNDERFLOW | \
 408:Generated_Source\PSoC6\pdl\drivers/peripheral/i2s/cy_i2s.h ****                                     CY_I2S_INTR_TX_WD        | \
 409:Generated_Source\PSoC6\pdl\drivers/peripheral/i2s/cy_i2s.h ****                                     CY_I2S_INTR_RX_TRIGGER   | \
 410:Generated_Source\PSoC6\pdl\drivers/peripheral/i2s/cy_i2s.h ****                                     CY_I2S_INTR_RX_NOT_EMPTY | \
 411:Generated_Source\PSoC6\pdl\drivers/peripheral/i2s/cy_i2s.h ****                                     CY_I2S_INTR_RX_FULL      | \
 412:Generated_Source\PSoC6\pdl\drivers/peripheral/i2s/cy_i2s.h ****                                     CY_I2S_INTR_RX_OVERFLOW  | \
 413:Generated_Source\PSoC6\pdl\drivers/peripheral/i2s/cy_i2s.h ****                                     CY_I2S_INTR_RX_UNDERFLOW | \
 414:Generated_Source\PSoC6\pdl\drivers/peripheral/i2s/cy_i2s.h ****                                     CY_I2S_INTR_RX_WD)
 415:Generated_Source\PSoC6\pdl\drivers/peripheral/i2s/cy_i2s.h **** 
 416:Generated_Source\PSoC6\pdl\drivers/peripheral/i2s/cy_i2s.h **** /* Non-zero default values */
 417:Generated_Source\PSoC6\pdl\drivers/peripheral/i2s/cy_i2s.h **** #define CY_I2S_TX_CTL_CH_NR_DEFAULT    (0x1U)
 418:Generated_Source\PSoC6\pdl\drivers/peripheral/i2s/cy_i2s.h **** #define CY_I2S_TX_CTL_I2S_MODE_DEFAULT (0x2U)
 419:Generated_Source\PSoC6\pdl\drivers/peripheral/i2s/cy_i2s.h **** #define CY_I2S_TX_CTL_WS_PULSE_DEFAULT (0x1U)
 420:Generated_Source\PSoC6\pdl\drivers/peripheral/i2s/cy_i2s.h **** #define CY_I2S_TX_CTL_CH_LEN_DEFAULT   (0x4U)
 421:Generated_Source\PSoC6\pdl\drivers/peripheral/i2s/cy_i2s.h **** #define CY_I2S_TX_CTL_WORD_LEN_DEFAULT (0x4U)
 422:Generated_Source\PSoC6\pdl\drivers/peripheral/i2s/cy_i2s.h **** 
 423:Generated_Source\PSoC6\pdl\drivers/peripheral/i2s/cy_i2s.h **** #define CY_I2S_TX_CTL_DEFAULT (_VAL2FLD(I2S_TX_CTL_CH_NR,    CY_I2S_TX_CTL_CH_NR_DEFAULT)    | \
 424:Generated_Source\PSoC6\pdl\drivers/peripheral/i2s/cy_i2s.h ****                                _VAL2FLD(I2S_TX_CTL_I2S_MODE, CY_I2S_TX_CTL_I2S_MODE_DEFAULT) | \
 425:Generated_Source\PSoC6\pdl\drivers/peripheral/i2s/cy_i2s.h ****                                _VAL2FLD(I2S_TX_CTL_WS_PULSE, CY_I2S_TX_CTL_WS_PULSE_DEFAULT) | \
 426:Generated_Source\PSoC6\pdl\drivers/peripheral/i2s/cy_i2s.h ****                                _VAL2FLD(I2S_TX_CTL_CH_LEN,   CY_I2S_TX_CTL_CH_LEN_DEFAULT)   | \
 427:Generated_Source\PSoC6\pdl\drivers/peripheral/i2s/cy_i2s.h ****                                _VAL2FLD(I2S_TX_CTL_WORD_LEN, CY_I2S_TX_CTL_WORD_LEN_DEFAULT))
 428:Generated_Source\PSoC6\pdl\drivers/peripheral/i2s/cy_i2s.h **** 
 429:Generated_Source\PSoC6\pdl\drivers/peripheral/i2s/cy_i2s.h **** #define CY_I2S_RX_CTL_CH_NR_DEFAULT    (0x1U)
ARM GAS  C:\Users\ikomb\AppData\Local\Temp\ccNVjT3c.s 			page 9


 430:Generated_Source\PSoC6\pdl\drivers/peripheral/i2s/cy_i2s.h **** #define CY_I2S_RX_CTL_I2S_MODE_DEFAULT (0x2U)
 431:Generated_Source\PSoC6\pdl\drivers/peripheral/i2s/cy_i2s.h **** #define CY_I2S_RX_CTL_WS_PULSE_DEFAULT (0x1U)
 432:Generated_Source\PSoC6\pdl\drivers/peripheral/i2s/cy_i2s.h **** #define CY_I2S_RX_CTL_CH_LEN_DEFAULT   (0x4U)
 433:Generated_Source\PSoC6\pdl\drivers/peripheral/i2s/cy_i2s.h **** #define CY_I2S_RX_CTL_WORD_LEN_DEFAULT (0x4U)
 434:Generated_Source\PSoC6\pdl\drivers/peripheral/i2s/cy_i2s.h **** 
 435:Generated_Source\PSoC6\pdl\drivers/peripheral/i2s/cy_i2s.h **** #define CY_I2S_RX_CTL_DEFAULT (_VAL2FLD(I2S_RX_CTL_CH_NR,    CY_I2S_RX_CTL_CH_NR_DEFAULT)    | \
 436:Generated_Source\PSoC6\pdl\drivers/peripheral/i2s/cy_i2s.h ****                                _VAL2FLD(I2S_RX_CTL_I2S_MODE, CY_I2S_RX_CTL_I2S_MODE_DEFAULT) | \
 437:Generated_Source\PSoC6\pdl\drivers/peripheral/i2s/cy_i2s.h ****                                _VAL2FLD(I2S_RX_CTL_WS_PULSE, CY_I2S_RX_CTL_WS_PULSE_DEFAULT) | \
 438:Generated_Source\PSoC6\pdl\drivers/peripheral/i2s/cy_i2s.h ****                                _VAL2FLD(I2S_RX_CTL_CH_LEN,   CY_I2S_RX_CTL_CH_LEN_DEFAULT)   | \
 439:Generated_Source\PSoC6\pdl\drivers/peripheral/i2s/cy_i2s.h ****                                _VAL2FLD(I2S_RX_CTL_WORD_LEN, CY_I2S_RX_CTL_WORD_LEN_DEFAULT))
 440:Generated_Source\PSoC6\pdl\drivers/peripheral/i2s/cy_i2s.h **** 
 441:Generated_Source\PSoC6\pdl\drivers/peripheral/i2s/cy_i2s.h **** /* Macros for conditions used by CY_ASSERT calls */
 442:Generated_Source\PSoC6\pdl\drivers/peripheral/i2s/cy_i2s.h **** #define CY_I2S_IS_ALIGNMENT_VALID(alignment) ((CY_I2S_LEFT_JUSTIFIED == (alignment)) || \
 443:Generated_Source\PSoC6\pdl\drivers/peripheral/i2s/cy_i2s.h ****                                               (CY_I2S_I2S_MODE       == (alignment)) || \
 444:Generated_Source\PSoC6\pdl\drivers/peripheral/i2s/cy_i2s.h ****                                               (CY_I2S_TDM_MODE_A     == (alignment)) || \
 445:Generated_Source\PSoC6\pdl\drivers/peripheral/i2s/cy_i2s.h ****                                               (CY_I2S_TDM_MODE_B     == (alignment)))
 446:Generated_Source\PSoC6\pdl\drivers/peripheral/i2s/cy_i2s.h **** 
 447:Generated_Source\PSoC6\pdl\drivers/peripheral/i2s/cy_i2s.h **** #define CY_I2S_IS_LEN_VALID(length)          ((CY_I2S_LEN8  == (length)) || \
 448:Generated_Source\PSoC6\pdl\drivers/peripheral/i2s/cy_i2s.h ****                                               (CY_I2S_LEN16 == (length)) || \
 449:Generated_Source\PSoC6\pdl\drivers/peripheral/i2s/cy_i2s.h ****                                               (CY_I2S_LEN18 == (length)) || \
 450:Generated_Source\PSoC6\pdl\drivers/peripheral/i2s/cy_i2s.h ****                                               (CY_I2S_LEN20 == (length)) || \
 451:Generated_Source\PSoC6\pdl\drivers/peripheral/i2s/cy_i2s.h ****                                               (CY_I2S_LEN24 == (length)) || \
 452:Generated_Source\PSoC6\pdl\drivers/peripheral/i2s/cy_i2s.h ****                                               (CY_I2S_LEN32 == (length)))
 453:Generated_Source\PSoC6\pdl\drivers/peripheral/i2s/cy_i2s.h **** 
 454:Generated_Source\PSoC6\pdl\drivers/peripheral/i2s/cy_i2s.h **** #define CY_I2S_IS_OVHDATA_VALID(overhead)    ((CY_I2S_OVHDATA_ZERO == (overhead)) || \
 455:Generated_Source\PSoC6\pdl\drivers/peripheral/i2s/cy_i2s.h ****                                               (CY_I2S_OVHDATA_ONE  == (overhead)))
 456:Generated_Source\PSoC6\pdl\drivers/peripheral/i2s/cy_i2s.h **** 
 457:Generated_Source\PSoC6\pdl\drivers/peripheral/i2s/cy_i2s.h **** #define CY_I2S_IS_WSPULSE_VALID(wsPulse)     ((CY_I2S_WS_ONE_SCK_CYCLE      == (wsPulse)) || \
 458:Generated_Source\PSoC6\pdl\drivers/peripheral/i2s/cy_i2s.h ****                                               (CY_I2S_WS_ONE_CHANNEL_LENGTH == (wsPulse)))
 459:Generated_Source\PSoC6\pdl\drivers/peripheral/i2s/cy_i2s.h **** 
 460:Generated_Source\PSoC6\pdl\drivers/peripheral/i2s/cy_i2s.h **** #define CY_I2S_IS_CLK_DIV_VALID(clkDiv)      ((clkDiv) <= 63U)
 461:Generated_Source\PSoC6\pdl\drivers/peripheral/i2s/cy_i2s.h **** #define CY_I2S_IS_CHANNELS_VALID(channels)   ((channels) <= 7UL)
 462:Generated_Source\PSoC6\pdl\drivers/peripheral/i2s/cy_i2s.h **** #define CY_I2S_IS_INTR_MASK_VALID(interrupt) (0UL == ((interrupt) & ((uint32_t) ~CY_I2S_INTR_MASK))
 463:Generated_Source\PSoC6\pdl\drivers/peripheral/i2s/cy_i2s.h **** 
 464:Generated_Source\PSoC6\pdl\drivers/peripheral/i2s/cy_i2s.h **** #define CY_I2S_IS_CHAN_WORD_VALID(channel, word)        ((CY_I2S_IS_LEN_VALID(channel)) && \
 465:Generated_Source\PSoC6\pdl\drivers/peripheral/i2s/cy_i2s.h ****                                                          (CY_I2S_IS_LEN_VALID(word))    && \
 466:Generated_Source\PSoC6\pdl\drivers/peripheral/i2s/cy_i2s.h ****                                                          ((channel) >= (word)))
 467:Generated_Source\PSoC6\pdl\drivers/peripheral/i2s/cy_i2s.h **** #define CY_I2S_IS_TRIG_LEVEL_VALID(trigLevel, channels) ((trigLevel) <= (255U - (channels)))
 468:Generated_Source\PSoC6\pdl\drivers/peripheral/i2s/cy_i2s.h **** 
 469:Generated_Source\PSoC6\pdl\drivers/peripheral/i2s/cy_i2s.h **** /** \endcond */
 470:Generated_Source\PSoC6\pdl\drivers/peripheral/i2s/cy_i2s.h **** 
 471:Generated_Source\PSoC6\pdl\drivers/peripheral/i2s/cy_i2s.h **** 
 472:Generated_Source\PSoC6\pdl\drivers/peripheral/i2s/cy_i2s.h **** /**
 473:Generated_Source\PSoC6\pdl\drivers/peripheral/i2s/cy_i2s.h **** * \addtogroup group_i2s_functions
 474:Generated_Source\PSoC6\pdl\drivers/peripheral/i2s/cy_i2s.h **** * \{
 475:Generated_Source\PSoC6\pdl\drivers/peripheral/i2s/cy_i2s.h **** */
 476:Generated_Source\PSoC6\pdl\drivers/peripheral/i2s/cy_i2s.h **** 
 477:Generated_Source\PSoC6\pdl\drivers/peripheral/i2s/cy_i2s.h ****   cy_en_i2s_status_t     Cy_I2S_Init(I2S_Type * base, cy_stc_i2s_config_t const * config);
 478:Generated_Source\PSoC6\pdl\drivers/peripheral/i2s/cy_i2s.h ****                 void     Cy_I2S_DeInit(I2S_Type * base);
 479:Generated_Source\PSoC6\pdl\drivers/peripheral/i2s/cy_i2s.h ****                 
 480:Generated_Source\PSoC6\pdl\drivers/peripheral/i2s/cy_i2s.h **** /** \addtogroup group_i2s_functions_syspm_callback
 481:Generated_Source\PSoC6\pdl\drivers/peripheral/i2s/cy_i2s.h **** * The driver supports SysPm callback for Deep Sleep transition.
 482:Generated_Source\PSoC6\pdl\drivers/peripheral/i2s/cy_i2s.h **** * \{
 483:Generated_Source\PSoC6\pdl\drivers/peripheral/i2s/cy_i2s.h **** */
 484:Generated_Source\PSoC6\pdl\drivers/peripheral/i2s/cy_i2s.h **** cy_en_syspm_status_t     Cy_I2S_DeepSleepCallback(cy_stc_syspm_callback_params_t * callbackParams);
 485:Generated_Source\PSoC6\pdl\drivers/peripheral/i2s/cy_i2s.h **** /** \} */
 486:Generated_Source\PSoC6\pdl\drivers/peripheral/i2s/cy_i2s.h **** 
ARM GAS  C:\Users\ikomb\AppData\Local\Temp\ccNVjT3c.s 			page 10


 487:Generated_Source\PSoC6\pdl\drivers/peripheral/i2s/cy_i2s.h **** __STATIC_INLINE void     Cy_I2S_EnableTx(I2S_Type * base);
 488:Generated_Source\PSoC6\pdl\drivers/peripheral/i2s/cy_i2s.h **** __STATIC_INLINE void     Cy_I2S_PauseTx(I2S_Type * base);
 489:Generated_Source\PSoC6\pdl\drivers/peripheral/i2s/cy_i2s.h **** __STATIC_INLINE void     Cy_I2S_ResumeTx(I2S_Type * base);
 490:Generated_Source\PSoC6\pdl\drivers/peripheral/i2s/cy_i2s.h **** __STATIC_INLINE void     Cy_I2S_DisableTx(I2S_Type * base);
 491:Generated_Source\PSoC6\pdl\drivers/peripheral/i2s/cy_i2s.h **** __STATIC_INLINE void     Cy_I2S_EnableRx(I2S_Type * base);
 492:Generated_Source\PSoC6\pdl\drivers/peripheral/i2s/cy_i2s.h **** __STATIC_INLINE void     Cy_I2S_DisableRx(I2S_Type * base);
 493:Generated_Source\PSoC6\pdl\drivers/peripheral/i2s/cy_i2s.h **** __STATIC_INLINE uint32_t Cy_I2S_GetCurrentState(I2S_Type const * base);
 494:Generated_Source\PSoC6\pdl\drivers/peripheral/i2s/cy_i2s.h **** 
 495:Generated_Source\PSoC6\pdl\drivers/peripheral/i2s/cy_i2s.h **** __STATIC_INLINE void     Cy_I2S_ClearTxFifo(I2S_Type * base);
 496:Generated_Source\PSoC6\pdl\drivers/peripheral/i2s/cy_i2s.h **** __STATIC_INLINE uint32_t Cy_I2S_GetNumInTxFifo(I2S_Type const * base);
 497:Generated_Source\PSoC6\pdl\drivers/peripheral/i2s/cy_i2s.h **** __STATIC_INLINE void     Cy_I2S_WriteTxData(I2S_Type * base, uint32_t data);
 498:Generated_Source\PSoC6\pdl\drivers/peripheral/i2s/cy_i2s.h **** __STATIC_INLINE uint8_t  Cy_I2S_GetTxReadPointer(I2S_Type const * base);
 499:Generated_Source\PSoC6\pdl\drivers/peripheral/i2s/cy_i2s.h **** __STATIC_INLINE uint8_t  Cy_I2S_GetTxWritePointer(I2S_Type const * base);
 500:Generated_Source\PSoC6\pdl\drivers/peripheral/i2s/cy_i2s.h **** __STATIC_INLINE void     Cy_I2S_FreezeTxFifo(I2S_Type * base);
 501:Generated_Source\PSoC6\pdl\drivers/peripheral/i2s/cy_i2s.h **** __STATIC_INLINE void     Cy_I2S_UnfreezeTxFifo(I2S_Type * base);
 502:Generated_Source\PSoC6\pdl\drivers/peripheral/i2s/cy_i2s.h **** 
 503:Generated_Source\PSoC6\pdl\drivers/peripheral/i2s/cy_i2s.h **** __STATIC_INLINE void     Cy_I2S_ClearRxFifo(I2S_Type * base);
 504:Generated_Source\PSoC6\pdl\drivers/peripheral/i2s/cy_i2s.h **** __STATIC_INLINE uint32_t Cy_I2S_GetNumInRxFifo(I2S_Type const * base);
 505:Generated_Source\PSoC6\pdl\drivers/peripheral/i2s/cy_i2s.h **** __STATIC_INLINE uint32_t Cy_I2S_ReadRxData(I2S_Type const * base);
 506:Generated_Source\PSoC6\pdl\drivers/peripheral/i2s/cy_i2s.h **** __STATIC_INLINE uint32_t Cy_I2S_ReadRxDataSilent(I2S_Type const * base);
 507:Generated_Source\PSoC6\pdl\drivers/peripheral/i2s/cy_i2s.h **** __STATIC_INLINE uint8_t  Cy_I2S_GetRxReadPointer(I2S_Type const * base);
 508:Generated_Source\PSoC6\pdl\drivers/peripheral/i2s/cy_i2s.h **** __STATIC_INLINE uint8_t  Cy_I2S_GetRxWritePointer(I2S_Type const * base);
 509:Generated_Source\PSoC6\pdl\drivers/peripheral/i2s/cy_i2s.h **** __STATIC_INLINE void     Cy_I2S_FreezeRxFifo(I2S_Type * base);
 510:Generated_Source\PSoC6\pdl\drivers/peripheral/i2s/cy_i2s.h **** __STATIC_INLINE void     Cy_I2S_UnfreezeRxFifo(I2S_Type * base);
 511:Generated_Source\PSoC6\pdl\drivers/peripheral/i2s/cy_i2s.h **** 
 512:Generated_Source\PSoC6\pdl\drivers/peripheral/i2s/cy_i2s.h **** __STATIC_INLINE uint32_t Cy_I2S_GetInterruptStatus(I2S_Type const * base);
 513:Generated_Source\PSoC6\pdl\drivers/peripheral/i2s/cy_i2s.h **** __STATIC_INLINE void     Cy_I2S_ClearInterrupt(I2S_Type * base, uint32_t interrupt);
 514:Generated_Source\PSoC6\pdl\drivers/peripheral/i2s/cy_i2s.h **** __STATIC_INLINE void     Cy_I2S_SetInterrupt(I2S_Type * base, uint32_t interrupt);
 515:Generated_Source\PSoC6\pdl\drivers/peripheral/i2s/cy_i2s.h **** __STATIC_INLINE uint32_t Cy_I2S_GetInterruptMask(I2S_Type const * base);
 516:Generated_Source\PSoC6\pdl\drivers/peripheral/i2s/cy_i2s.h **** __STATIC_INLINE void     Cy_I2S_SetInterruptMask(I2S_Type * base, uint32_t interrupt);
 517:Generated_Source\PSoC6\pdl\drivers/peripheral/i2s/cy_i2s.h **** __STATIC_INLINE uint32_t Cy_I2S_GetInterruptStatusMasked(I2S_Type const * base);
 518:Generated_Source\PSoC6\pdl\drivers/peripheral/i2s/cy_i2s.h **** 
 519:Generated_Source\PSoC6\pdl\drivers/peripheral/i2s/cy_i2s.h **** /*******************************************************************************
 520:Generated_Source\PSoC6\pdl\drivers/peripheral/i2s/cy_i2s.h **** * Function Name: Cy_I2S_EnableTx
 521:Generated_Source\PSoC6\pdl\drivers/peripheral/i2s/cy_i2s.h **** ****************************************************************************//**
 522:Generated_Source\PSoC6\pdl\drivers/peripheral/i2s/cy_i2s.h **** *
 523:Generated_Source\PSoC6\pdl\drivers/peripheral/i2s/cy_i2s.h **** * Starts an I2S transmission. Interrupts enabling (by the 
 524:Generated_Source\PSoC6\pdl\drivers/peripheral/i2s/cy_i2s.h **** * \ref Cy_I2S_SetInterruptMask) is required after this function call, in case
 525:Generated_Source\PSoC6\pdl\drivers/peripheral/i2s/cy_i2s.h **** * if any I2S interrupts are used in the application.
 526:Generated_Source\PSoC6\pdl\drivers/peripheral/i2s/cy_i2s.h **** *
 527:Generated_Source\PSoC6\pdl\drivers/peripheral/i2s/cy_i2s.h **** * \pre Cy_I2S_Init() must be called before.
 528:Generated_Source\PSoC6\pdl\drivers/peripheral/i2s/cy_i2s.h **** *
 529:Generated_Source\PSoC6\pdl\drivers/peripheral/i2s/cy_i2s.h **** * \param base The pointer to the I2S instance address.
 530:Generated_Source\PSoC6\pdl\drivers/peripheral/i2s/cy_i2s.h **** *
 531:Generated_Source\PSoC6\pdl\drivers/peripheral/i2s/cy_i2s.h **** * \funcusage
 532:Generated_Source\PSoC6\pdl\drivers/peripheral/i2s/cy_i2s.h **** * \snippet i2s/i2s_v2_0_sut_00.cydsn/main_cm4.c snippet_Cy_I2S_EnableTx
 533:Generated_Source\PSoC6\pdl\drivers/peripheral/i2s/cy_i2s.h **** *
 534:Generated_Source\PSoC6\pdl\drivers/peripheral/i2s/cy_i2s.h **** *******************************************************************************/
 535:Generated_Source\PSoC6\pdl\drivers/peripheral/i2s/cy_i2s.h **** __STATIC_INLINE void Cy_I2S_EnableTx(I2S_Type * base)
 536:Generated_Source\PSoC6\pdl\drivers/peripheral/i2s/cy_i2s.h **** {
  28              		.loc 1 536 0
  29              		.cfi_startproc
  30              		@ args = 0, pretend = 0, frame = 8
  31              		@ frame_needed = 1, uses_anonymous_args = 0
  32              		@ link register save eliminated.
  33 0000 80B4     		push	{r7}
  34              		.cfi_def_cfa_offset 4
ARM GAS  C:\Users\ikomb\AppData\Local\Temp\ccNVjT3c.s 			page 11


  35              		.cfi_offset 7, -4
  36 0002 83B0     		sub	sp, sp, #12
  37              		.cfi_def_cfa_offset 16
  38 0004 00AF     		add	r7, sp, #0
  39              		.cfi_def_cfa_register 7
  40 0006 7860     		str	r0, [r7, #4]
 537:Generated_Source\PSoC6\pdl\drivers/peripheral/i2s/cy_i2s.h ****     base->CMD |= I2S_CMD_TX_START_Msk;
  41              		.loc 1 537 0
  42 0008 7B68     		ldr	r3, [r7, #4]
  43 000a 1B6A     		ldr	r3, [r3, #32]
  44 000c 43F00102 		orr	r2, r3, #1
  45 0010 7B68     		ldr	r3, [r7, #4]
  46 0012 1A62     		str	r2, [r3, #32]
 538:Generated_Source\PSoC6\pdl\drivers/peripheral/i2s/cy_i2s.h **** }
  47              		.loc 1 538 0
  48 0014 00BF     		nop
  49 0016 0C37     		adds	r7, r7, #12
  50              		.cfi_def_cfa_offset 4
  51 0018 BD46     		mov	sp, r7
  52              		.cfi_def_cfa_register 13
  53              		@ sp needed
  54 001a 5DF8047B 		ldr	r7, [sp], #4
  55              		.cfi_restore 7
  56              		.cfi_def_cfa_offset 0
  57 001e 7047     		bx	lr
  58              		.cfi_endproc
  59              	.LFE158:
  60              		.size	Cy_I2S_EnableTx, .-Cy_I2S_EnableTx
  61              		.section	.text.Cy_I2S_DisableTx,"ax",%progbits
  62              		.align	2
  63              		.thumb
  64              		.thumb_func
  65              		.type	Cy_I2S_DisableTx, %function
  66              	Cy_I2S_DisableTx:
  67              	.LFB161:
 539:Generated_Source\PSoC6\pdl\drivers/peripheral/i2s/cy_i2s.h **** 
 540:Generated_Source\PSoC6\pdl\drivers/peripheral/i2s/cy_i2s.h **** 
 541:Generated_Source\PSoC6\pdl\drivers/peripheral/i2s/cy_i2s.h **** /*******************************************************************************
 542:Generated_Source\PSoC6\pdl\drivers/peripheral/i2s/cy_i2s.h **** * Function Name: Cy_I2S_PauseTx
 543:Generated_Source\PSoC6\pdl\drivers/peripheral/i2s/cy_i2s.h **** ****************************************************************************//**
 544:Generated_Source\PSoC6\pdl\drivers/peripheral/i2s/cy_i2s.h **** *
 545:Generated_Source\PSoC6\pdl\drivers/peripheral/i2s/cy_i2s.h **** * Pauses an I2S transmission.
 546:Generated_Source\PSoC6\pdl\drivers/peripheral/i2s/cy_i2s.h **** *
 547:Generated_Source\PSoC6\pdl\drivers/peripheral/i2s/cy_i2s.h **** * \param base The pointer to the I2S instance address.
 548:Generated_Source\PSoC6\pdl\drivers/peripheral/i2s/cy_i2s.h **** *
 549:Generated_Source\PSoC6\pdl\drivers/peripheral/i2s/cy_i2s.h **** * \funcusage
 550:Generated_Source\PSoC6\pdl\drivers/peripheral/i2s/cy_i2s.h **** * \snippet i2s/i2s_v2_0_sut_00.cydsn/main_cm4.c snippet_Cy_I2S_PauseTx
 551:Generated_Source\PSoC6\pdl\drivers/peripheral/i2s/cy_i2s.h **** *
 552:Generated_Source\PSoC6\pdl\drivers/peripheral/i2s/cy_i2s.h **** *******************************************************************************/
 553:Generated_Source\PSoC6\pdl\drivers/peripheral/i2s/cy_i2s.h **** __STATIC_INLINE void Cy_I2S_PauseTx(I2S_Type * base)
 554:Generated_Source\PSoC6\pdl\drivers/peripheral/i2s/cy_i2s.h **** {
 555:Generated_Source\PSoC6\pdl\drivers/peripheral/i2s/cy_i2s.h ****     base->CMD |= I2S_CMD_TX_PAUSE_Msk;
 556:Generated_Source\PSoC6\pdl\drivers/peripheral/i2s/cy_i2s.h **** }
 557:Generated_Source\PSoC6\pdl\drivers/peripheral/i2s/cy_i2s.h **** 
 558:Generated_Source\PSoC6\pdl\drivers/peripheral/i2s/cy_i2s.h **** 
 559:Generated_Source\PSoC6\pdl\drivers/peripheral/i2s/cy_i2s.h **** /*******************************************************************************
 560:Generated_Source\PSoC6\pdl\drivers/peripheral/i2s/cy_i2s.h **** * Function Name: Cy_I2S_ResumeTx
ARM GAS  C:\Users\ikomb\AppData\Local\Temp\ccNVjT3c.s 			page 12


 561:Generated_Source\PSoC6\pdl\drivers/peripheral/i2s/cy_i2s.h **** ****************************************************************************//**
 562:Generated_Source\PSoC6\pdl\drivers/peripheral/i2s/cy_i2s.h **** *
 563:Generated_Source\PSoC6\pdl\drivers/peripheral/i2s/cy_i2s.h **** * Resumes an I2S transmission.
 564:Generated_Source\PSoC6\pdl\drivers/peripheral/i2s/cy_i2s.h **** *
 565:Generated_Source\PSoC6\pdl\drivers/peripheral/i2s/cy_i2s.h **** * \param base The pointer to the I2S instance address.
 566:Generated_Source\PSoC6\pdl\drivers/peripheral/i2s/cy_i2s.h **** *
 567:Generated_Source\PSoC6\pdl\drivers/peripheral/i2s/cy_i2s.h **** * \funcusage
 568:Generated_Source\PSoC6\pdl\drivers/peripheral/i2s/cy_i2s.h **** * \snippet i2s/i2s_v2_0_sut_00.cydsn/main_cm4.c snippet_Cy_I2S_ResumeTx
 569:Generated_Source\PSoC6\pdl\drivers/peripheral/i2s/cy_i2s.h **** *
 570:Generated_Source\PSoC6\pdl\drivers/peripheral/i2s/cy_i2s.h **** *******************************************************************************/
 571:Generated_Source\PSoC6\pdl\drivers/peripheral/i2s/cy_i2s.h **** __STATIC_INLINE void Cy_I2S_ResumeTx(I2S_Type * base)
 572:Generated_Source\PSoC6\pdl\drivers/peripheral/i2s/cy_i2s.h **** {
 573:Generated_Source\PSoC6\pdl\drivers/peripheral/i2s/cy_i2s.h ****     base->CMD &= (uint32_t) ~I2S_CMD_TX_PAUSE_Msk;
 574:Generated_Source\PSoC6\pdl\drivers/peripheral/i2s/cy_i2s.h **** }
 575:Generated_Source\PSoC6\pdl\drivers/peripheral/i2s/cy_i2s.h **** 
 576:Generated_Source\PSoC6\pdl\drivers/peripheral/i2s/cy_i2s.h **** 
 577:Generated_Source\PSoC6\pdl\drivers/peripheral/i2s/cy_i2s.h **** /*******************************************************************************
 578:Generated_Source\PSoC6\pdl\drivers/peripheral/i2s/cy_i2s.h **** * Function Name: Cy_I2S_DisableTx
 579:Generated_Source\PSoC6\pdl\drivers/peripheral/i2s/cy_i2s.h **** ****************************************************************************//**
 580:Generated_Source\PSoC6\pdl\drivers/peripheral/i2s/cy_i2s.h **** *
 581:Generated_Source\PSoC6\pdl\drivers/peripheral/i2s/cy_i2s.h **** * Stops an I2S transmission. 
 582:Generated_Source\PSoC6\pdl\drivers/peripheral/i2s/cy_i2s.h **** *
 583:Generated_Source\PSoC6\pdl\drivers/peripheral/i2s/cy_i2s.h **** * \pre TX interrupts disabling (by the \ref Cy_I2S_SetInterruptMask) is required
 584:Generated_Source\PSoC6\pdl\drivers/peripheral/i2s/cy_i2s.h **** * prior to this function call, in case if any TX I2S interrupts are used.
 585:Generated_Source\PSoC6\pdl\drivers/peripheral/i2s/cy_i2s.h **** *
 586:Generated_Source\PSoC6\pdl\drivers/peripheral/i2s/cy_i2s.h **** * \param base The pointer to the I2S instance address.
 587:Generated_Source\PSoC6\pdl\drivers/peripheral/i2s/cy_i2s.h **** *
 588:Generated_Source\PSoC6\pdl\drivers/peripheral/i2s/cy_i2s.h **** * \funcusage
 589:Generated_Source\PSoC6\pdl\drivers/peripheral/i2s/cy_i2s.h **** * \snippet i2s/i2s_v2_0_sut_00.cydsn/main_cm4.c snippet_Cy_I2S_DisableTx
 590:Generated_Source\PSoC6\pdl\drivers/peripheral/i2s/cy_i2s.h **** *
 591:Generated_Source\PSoC6\pdl\drivers/peripheral/i2s/cy_i2s.h **** *******************************************************************************/
 592:Generated_Source\PSoC6\pdl\drivers/peripheral/i2s/cy_i2s.h **** __STATIC_INLINE void Cy_I2S_DisableTx(I2S_Type * base)
 593:Generated_Source\PSoC6\pdl\drivers/peripheral/i2s/cy_i2s.h **** {
  68              		.loc 1 593 0
  69              		.cfi_startproc
  70              		@ args = 0, pretend = 0, frame = 8
  71              		@ frame_needed = 1, uses_anonymous_args = 0
  72              		@ link register save eliminated.
  73 0000 80B4     		push	{r7}
  74              		.cfi_def_cfa_offset 4
  75              		.cfi_offset 7, -4
  76 0002 83B0     		sub	sp, sp, #12
  77              		.cfi_def_cfa_offset 16
  78 0004 00AF     		add	r7, sp, #0
  79              		.cfi_def_cfa_register 7
  80 0006 7860     		str	r0, [r7, #4]
 594:Generated_Source\PSoC6\pdl\drivers/peripheral/i2s/cy_i2s.h ****     base->CMD &= (uint32_t) ~I2S_CMD_TX_START_Msk;
  81              		.loc 1 594 0
  82 0008 7B68     		ldr	r3, [r7, #4]
  83 000a 1B6A     		ldr	r3, [r3, #32]
  84 000c 23F00102 		bic	r2, r3, #1
  85 0010 7B68     		ldr	r3, [r7, #4]
  86 0012 1A62     		str	r2, [r3, #32]
 595:Generated_Source\PSoC6\pdl\drivers/peripheral/i2s/cy_i2s.h **** }
  87              		.loc 1 595 0
  88 0014 00BF     		nop
  89 0016 0C37     		adds	r7, r7, #12
ARM GAS  C:\Users\ikomb\AppData\Local\Temp\ccNVjT3c.s 			page 13


  90              		.cfi_def_cfa_offset 4
  91 0018 BD46     		mov	sp, r7
  92              		.cfi_def_cfa_register 13
  93              		@ sp needed
  94 001a 5DF8047B 		ldr	r7, [sp], #4
  95              		.cfi_restore 7
  96              		.cfi_def_cfa_offset 0
  97 001e 7047     		bx	lr
  98              		.cfi_endproc
  99              	.LFE161:
 100              		.size	Cy_I2S_DisableTx, .-Cy_I2S_DisableTx
 101              		.section	.text.Cy_I2S_GetCurrentState,"ax",%progbits
 102              		.align	2
 103              		.thumb
 104              		.thumb_func
 105              		.type	Cy_I2S_GetCurrentState, %function
 106              	Cy_I2S_GetCurrentState:
 107              	.LFB164:
 596:Generated_Source\PSoC6\pdl\drivers/peripheral/i2s/cy_i2s.h **** 
 597:Generated_Source\PSoC6\pdl\drivers/peripheral/i2s/cy_i2s.h **** 
 598:Generated_Source\PSoC6\pdl\drivers/peripheral/i2s/cy_i2s.h **** /*******************************************************************************
 599:Generated_Source\PSoC6\pdl\drivers/peripheral/i2s/cy_i2s.h **** * Function Name: Cy_I2S_EnableRx
 600:Generated_Source\PSoC6\pdl\drivers/peripheral/i2s/cy_i2s.h **** ****************************************************************************//**
 601:Generated_Source\PSoC6\pdl\drivers/peripheral/i2s/cy_i2s.h **** *
 602:Generated_Source\PSoC6\pdl\drivers/peripheral/i2s/cy_i2s.h **** * Starts an I2S reception. Interrupts enabling (by the 
 603:Generated_Source\PSoC6\pdl\drivers/peripheral/i2s/cy_i2s.h **** * \ref Cy_I2S_SetInterruptMask) is required after this function call, in case
 604:Generated_Source\PSoC6\pdl\drivers/peripheral/i2s/cy_i2s.h **** * if any I2S interrupts are used in the application.
 605:Generated_Source\PSoC6\pdl\drivers/peripheral/i2s/cy_i2s.h **** *
 606:Generated_Source\PSoC6\pdl\drivers/peripheral/i2s/cy_i2s.h **** * \pre \ref Cy_I2S_Init() must be called before.
 607:Generated_Source\PSoC6\pdl\drivers/peripheral/i2s/cy_i2s.h **** *
 608:Generated_Source\PSoC6\pdl\drivers/peripheral/i2s/cy_i2s.h **** * \param base The pointer to the I2S instance address.
 609:Generated_Source\PSoC6\pdl\drivers/peripheral/i2s/cy_i2s.h **** *
 610:Generated_Source\PSoC6\pdl\drivers/peripheral/i2s/cy_i2s.h **** * \funcusage
 611:Generated_Source\PSoC6\pdl\drivers/peripheral/i2s/cy_i2s.h **** * \snippet i2s/i2s_v2_0_sut_00.cydsn/main_cm4.c snippet_Cy_I2S_EnableRx
 612:Generated_Source\PSoC6\pdl\drivers/peripheral/i2s/cy_i2s.h **** *
 613:Generated_Source\PSoC6\pdl\drivers/peripheral/i2s/cy_i2s.h **** *******************************************************************************/
 614:Generated_Source\PSoC6\pdl\drivers/peripheral/i2s/cy_i2s.h **** __STATIC_INLINE void Cy_I2S_EnableRx(I2S_Type * base)
 615:Generated_Source\PSoC6\pdl\drivers/peripheral/i2s/cy_i2s.h **** {
 616:Generated_Source\PSoC6\pdl\drivers/peripheral/i2s/cy_i2s.h ****     base->CMD |= I2S_CMD_RX_START_Msk;
 617:Generated_Source\PSoC6\pdl\drivers/peripheral/i2s/cy_i2s.h **** }
 618:Generated_Source\PSoC6\pdl\drivers/peripheral/i2s/cy_i2s.h **** 
 619:Generated_Source\PSoC6\pdl\drivers/peripheral/i2s/cy_i2s.h **** 
 620:Generated_Source\PSoC6\pdl\drivers/peripheral/i2s/cy_i2s.h **** /*******************************************************************************
 621:Generated_Source\PSoC6\pdl\drivers/peripheral/i2s/cy_i2s.h **** * Function Name: Cy_I2S_DisableRx
 622:Generated_Source\PSoC6\pdl\drivers/peripheral/i2s/cy_i2s.h **** ****************************************************************************//**
 623:Generated_Source\PSoC6\pdl\drivers/peripheral/i2s/cy_i2s.h **** *
 624:Generated_Source\PSoC6\pdl\drivers/peripheral/i2s/cy_i2s.h **** * Stops an I2S reception.
 625:Generated_Source\PSoC6\pdl\drivers/peripheral/i2s/cy_i2s.h **** *
 626:Generated_Source\PSoC6\pdl\drivers/peripheral/i2s/cy_i2s.h **** * \pre RX interrupts disabling (by the \ref Cy_I2S_SetInterruptMask) is required
 627:Generated_Source\PSoC6\pdl\drivers/peripheral/i2s/cy_i2s.h **** * prior to this function call, in case if any RX I2S interrupts are used.
 628:Generated_Source\PSoC6\pdl\drivers/peripheral/i2s/cy_i2s.h **** *
 629:Generated_Source\PSoC6\pdl\drivers/peripheral/i2s/cy_i2s.h **** * \param base The pointer to the I2S instance address.
 630:Generated_Source\PSoC6\pdl\drivers/peripheral/i2s/cy_i2s.h **** *
 631:Generated_Source\PSoC6\pdl\drivers/peripheral/i2s/cy_i2s.h **** * \funcusage
 632:Generated_Source\PSoC6\pdl\drivers/peripheral/i2s/cy_i2s.h **** * \snippet i2s/i2s_v2_0_sut_00.cydsn/main_cm4.c snippet_Cy_I2S_DisableRx
 633:Generated_Source\PSoC6\pdl\drivers/peripheral/i2s/cy_i2s.h **** *
 634:Generated_Source\PSoC6\pdl\drivers/peripheral/i2s/cy_i2s.h **** *******************************************************************************/
ARM GAS  C:\Users\ikomb\AppData\Local\Temp\ccNVjT3c.s 			page 14


 635:Generated_Source\PSoC6\pdl\drivers/peripheral/i2s/cy_i2s.h **** __STATIC_INLINE void Cy_I2S_DisableRx(I2S_Type * base)
 636:Generated_Source\PSoC6\pdl\drivers/peripheral/i2s/cy_i2s.h **** {
 637:Generated_Source\PSoC6\pdl\drivers/peripheral/i2s/cy_i2s.h ****     base->CMD &= (uint32_t) ~I2S_CMD_RX_START_Msk;
 638:Generated_Source\PSoC6\pdl\drivers/peripheral/i2s/cy_i2s.h **** }
 639:Generated_Source\PSoC6\pdl\drivers/peripheral/i2s/cy_i2s.h **** 
 640:Generated_Source\PSoC6\pdl\drivers/peripheral/i2s/cy_i2s.h **** 
 641:Generated_Source\PSoC6\pdl\drivers/peripheral/i2s/cy_i2s.h **** /*******************************************************************************
 642:Generated_Source\PSoC6\pdl\drivers/peripheral/i2s/cy_i2s.h **** * Function Name: Cy_I2S_GetCurrentState
 643:Generated_Source\PSoC6\pdl\drivers/peripheral/i2s/cy_i2s.h **** ****************************************************************************//**
 644:Generated_Source\PSoC6\pdl\drivers/peripheral/i2s/cy_i2s.h **** *
 645:Generated_Source\PSoC6\pdl\drivers/peripheral/i2s/cy_i2s.h **** * Returns the current I2S state (TX/RX running/paused/stopped).
 646:Generated_Source\PSoC6\pdl\drivers/peripheral/i2s/cy_i2s.h **** *
 647:Generated_Source\PSoC6\pdl\drivers/peripheral/i2s/cy_i2s.h **** * \param base The pointer to the I2S instance address.
 648:Generated_Source\PSoC6\pdl\drivers/peripheral/i2s/cy_i2s.h **** *
 649:Generated_Source\PSoC6\pdl\drivers/peripheral/i2s/cy_i2s.h **** * \return The current state \ref group_i2s_macros_current_state.
 650:Generated_Source\PSoC6\pdl\drivers/peripheral/i2s/cy_i2s.h **** *
 651:Generated_Source\PSoC6\pdl\drivers/peripheral/i2s/cy_i2s.h **** * \funcusage
 652:Generated_Source\PSoC6\pdl\drivers/peripheral/i2s/cy_i2s.h **** * \snippet i2s/i2s_v2_0_sut_00.cydsn/main_cm4.c snippet_Cy_I2S_GetCurrentState
 653:Generated_Source\PSoC6\pdl\drivers/peripheral/i2s/cy_i2s.h **** *
 654:Generated_Source\PSoC6\pdl\drivers/peripheral/i2s/cy_i2s.h **** *******************************************************************************/
 655:Generated_Source\PSoC6\pdl\drivers/peripheral/i2s/cy_i2s.h **** __STATIC_INLINE uint32_t Cy_I2S_GetCurrentState(I2S_Type const * base)
 656:Generated_Source\PSoC6\pdl\drivers/peripheral/i2s/cy_i2s.h **** {
 108              		.loc 1 656 0
 109              		.cfi_startproc
 110              		@ args = 0, pretend = 0, frame = 8
 111              		@ frame_needed = 1, uses_anonymous_args = 0
 112              		@ link register save eliminated.
 113 0000 80B4     		push	{r7}
 114              		.cfi_def_cfa_offset 4
 115              		.cfi_offset 7, -4
 116 0002 83B0     		sub	sp, sp, #12
 117              		.cfi_def_cfa_offset 16
 118 0004 00AF     		add	r7, sp, #0
 119              		.cfi_def_cfa_register 7
 120 0006 7860     		str	r0, [r7, #4]
 657:Generated_Source\PSoC6\pdl\drivers/peripheral/i2s/cy_i2s.h ****     return (base->CMD & (I2S_CMD_TX_START_Msk | I2S_CMD_TX_PAUSE_Msk | I2S_CMD_RX_START_Msk));
 121              		.loc 1 657 0
 122 0008 7B68     		ldr	r3, [r7, #4]
 123 000a 1B6A     		ldr	r3, [r3, #32]
 124 000c 03F00133 		and	r3, r3, #16843009
 125 0010 23F08073 		bic	r3, r3, #16777216
 658:Generated_Source\PSoC6\pdl\drivers/peripheral/i2s/cy_i2s.h **** }
 126              		.loc 1 658 0
 127 0014 1846     		mov	r0, r3
 128 0016 0C37     		adds	r7, r7, #12
 129              		.cfi_def_cfa_offset 4
 130 0018 BD46     		mov	sp, r7
 131              		.cfi_def_cfa_register 13
 132              		@ sp needed
 133 001a 5DF8047B 		ldr	r7, [sp], #4
 134              		.cfi_restore 7
 135              		.cfi_def_cfa_offset 0
 136 001e 7047     		bx	lr
 137              		.cfi_endproc
 138              	.LFE164:
 139              		.size	Cy_I2S_GetCurrentState, .-Cy_I2S_GetCurrentState
 140              		.section	.text.Cy_I2S_ClearTxFifo,"ax",%progbits
ARM GAS  C:\Users\ikomb\AppData\Local\Temp\ccNVjT3c.s 			page 15


 141              		.align	2
 142              		.thumb
 143              		.thumb_func
 144              		.type	Cy_I2S_ClearTxFifo, %function
 145              	Cy_I2S_ClearTxFifo:
 146              	.LFB165:
 659:Generated_Source\PSoC6\pdl\drivers/peripheral/i2s/cy_i2s.h **** 
 660:Generated_Source\PSoC6\pdl\drivers/peripheral/i2s/cy_i2s.h **** 
 661:Generated_Source\PSoC6\pdl\drivers/peripheral/i2s/cy_i2s.h **** /*******************************************************************************
 662:Generated_Source\PSoC6\pdl\drivers/peripheral/i2s/cy_i2s.h **** * Function Name: Cy_I2S_ClearTxFifo
 663:Generated_Source\PSoC6\pdl\drivers/peripheral/i2s/cy_i2s.h **** ****************************************************************************//**
 664:Generated_Source\PSoC6\pdl\drivers/peripheral/i2s/cy_i2s.h **** *
 665:Generated_Source\PSoC6\pdl\drivers/peripheral/i2s/cy_i2s.h **** * Clears the TX FIFO (resets the Read/Write FIFO pointers).
 666:Generated_Source\PSoC6\pdl\drivers/peripheral/i2s/cy_i2s.h **** *
 667:Generated_Source\PSoC6\pdl\drivers/peripheral/i2s/cy_i2s.h **** * \param base The pointer to the I2S instance address.
 668:Generated_Source\PSoC6\pdl\drivers/peripheral/i2s/cy_i2s.h **** *
 669:Generated_Source\PSoC6\pdl\drivers/peripheral/i2s/cy_i2s.h **** * \funcusage
 670:Generated_Source\PSoC6\pdl\drivers/peripheral/i2s/cy_i2s.h **** * \snippet i2s/i2s_v2_0_sut_00.cydsn/main_cm4.c snippet_Cy_I2S_ClearTxFifo
 671:Generated_Source\PSoC6\pdl\drivers/peripheral/i2s/cy_i2s.h **** *
 672:Generated_Source\PSoC6\pdl\drivers/peripheral/i2s/cy_i2s.h **** *******************************************************************************/
 673:Generated_Source\PSoC6\pdl\drivers/peripheral/i2s/cy_i2s.h **** __STATIC_INLINE void Cy_I2S_ClearTxFifo(I2S_Type * base)
 674:Generated_Source\PSoC6\pdl\drivers/peripheral/i2s/cy_i2s.h **** {
 147              		.loc 1 674 0
 148              		.cfi_startproc
 149              		@ args = 0, pretend = 0, frame = 8
 150              		@ frame_needed = 1, uses_anonymous_args = 0
 151              		@ link register save eliminated.
 152 0000 80B4     		push	{r7}
 153              		.cfi_def_cfa_offset 4
 154              		.cfi_offset 7, -4
 155 0002 83B0     		sub	sp, sp, #12
 156              		.cfi_def_cfa_offset 16
 157 0004 00AF     		add	r7, sp, #0
 158              		.cfi_def_cfa_register 7
 159 0006 7860     		str	r0, [r7, #4]
 675:Generated_Source\PSoC6\pdl\drivers/peripheral/i2s/cy_i2s.h ****     base->TX_FIFO_CTL |= I2S_TX_FIFO_CTL_CLEAR_Msk;
 160              		.loc 1 675 0
 161 0008 7B68     		ldr	r3, [r7, #4]
 162 000a D3F80032 		ldr	r3, [r3, #512]
 163 000e 43F48032 		orr	r2, r3, #65536
 164 0012 7B68     		ldr	r3, [r7, #4]
 165 0014 C3F80022 		str	r2, [r3, #512]
 676:Generated_Source\PSoC6\pdl\drivers/peripheral/i2s/cy_i2s.h ****     base->TX_FIFO_CTL &= (uint32_t) ~I2S_TX_FIFO_CTL_CLEAR_Msk;
 166              		.loc 1 676 0
 167 0018 7B68     		ldr	r3, [r7, #4]
 168 001a D3F80032 		ldr	r3, [r3, #512]
 169 001e 23F48032 		bic	r2, r3, #65536
 170 0022 7B68     		ldr	r3, [r7, #4]
 171 0024 C3F80022 		str	r2, [r3, #512]
 677:Generated_Source\PSoC6\pdl\drivers/peripheral/i2s/cy_i2s.h ****     (void) base->TX_FIFO_CTL;
 172              		.loc 1 677 0
 173 0028 7B68     		ldr	r3, [r7, #4]
 174 002a D3F80032 		ldr	r3, [r3, #512]
 678:Generated_Source\PSoC6\pdl\drivers/peripheral/i2s/cy_i2s.h **** }
 175              		.loc 1 678 0
 176 002e 00BF     		nop
 177 0030 0C37     		adds	r7, r7, #12
ARM GAS  C:\Users\ikomb\AppData\Local\Temp\ccNVjT3c.s 			page 16


 178              		.cfi_def_cfa_offset 4
 179 0032 BD46     		mov	sp, r7
 180              		.cfi_def_cfa_register 13
 181              		@ sp needed
 182 0034 5DF8047B 		ldr	r7, [sp], #4
 183              		.cfi_restore 7
 184              		.cfi_def_cfa_offset 0
 185 0038 7047     		bx	lr
 186              		.cfi_endproc
 187              	.LFE165:
 188              		.size	Cy_I2S_ClearTxFifo, .-Cy_I2S_ClearTxFifo
 189 003a 00BF     		.section	.text.Cy_I2S_WriteTxData,"ax",%progbits
 190              		.align	2
 191              		.thumb
 192              		.thumb_func
 193              		.type	Cy_I2S_WriteTxData, %function
 194              	Cy_I2S_WriteTxData:
 195              	.LFB167:
 679:Generated_Source\PSoC6\pdl\drivers/peripheral/i2s/cy_i2s.h **** 
 680:Generated_Source\PSoC6\pdl\drivers/peripheral/i2s/cy_i2s.h **** 
 681:Generated_Source\PSoC6\pdl\drivers/peripheral/i2s/cy_i2s.h **** /*******************************************************************************
 682:Generated_Source\PSoC6\pdl\drivers/peripheral/i2s/cy_i2s.h **** * Function Name: Cy_I2S_GetNumInTxFifo
 683:Generated_Source\PSoC6\pdl\drivers/peripheral/i2s/cy_i2s.h **** ****************************************************************************//**
 684:Generated_Source\PSoC6\pdl\drivers/peripheral/i2s/cy_i2s.h **** *
 685:Generated_Source\PSoC6\pdl\drivers/peripheral/i2s/cy_i2s.h **** * Gets the number of used words in the TX FIFO.
 686:Generated_Source\PSoC6\pdl\drivers/peripheral/i2s/cy_i2s.h **** *
 687:Generated_Source\PSoC6\pdl\drivers/peripheral/i2s/cy_i2s.h **** * \param base The pointer to the I2S instance address.
 688:Generated_Source\PSoC6\pdl\drivers/peripheral/i2s/cy_i2s.h **** *
 689:Generated_Source\PSoC6\pdl\drivers/peripheral/i2s/cy_i2s.h **** * \return The current number of used words in the TX FIFO.
 690:Generated_Source\PSoC6\pdl\drivers/peripheral/i2s/cy_i2s.h **** *
 691:Generated_Source\PSoC6\pdl\drivers/peripheral/i2s/cy_i2s.h **** * \funcusage
 692:Generated_Source\PSoC6\pdl\drivers/peripheral/i2s/cy_i2s.h **** * \snippet i2s/i2s_v2_0_sut_00.cydsn/main_cm4.c snippet_Cy_I2S_GetNumInTxFifo
 693:Generated_Source\PSoC6\pdl\drivers/peripheral/i2s/cy_i2s.h **** *
 694:Generated_Source\PSoC6\pdl\drivers/peripheral/i2s/cy_i2s.h **** *******************************************************************************/
 695:Generated_Source\PSoC6\pdl\drivers/peripheral/i2s/cy_i2s.h **** __STATIC_INLINE uint32_t Cy_I2S_GetNumInTxFifo(I2S_Type const * base)
 696:Generated_Source\PSoC6\pdl\drivers/peripheral/i2s/cy_i2s.h **** {   
 697:Generated_Source\PSoC6\pdl\drivers/peripheral/i2s/cy_i2s.h ****     return (_FLD2VAL(I2S_TX_FIFO_STATUS_USED, base->TX_FIFO_STATUS));
 698:Generated_Source\PSoC6\pdl\drivers/peripheral/i2s/cy_i2s.h **** }
 699:Generated_Source\PSoC6\pdl\drivers/peripheral/i2s/cy_i2s.h **** 
 700:Generated_Source\PSoC6\pdl\drivers/peripheral/i2s/cy_i2s.h **** 
 701:Generated_Source\PSoC6\pdl\drivers/peripheral/i2s/cy_i2s.h **** /*******************************************************************************
 702:Generated_Source\PSoC6\pdl\drivers/peripheral/i2s/cy_i2s.h **** * Function Name: Cy_I2S_WriteTxData
 703:Generated_Source\PSoC6\pdl\drivers/peripheral/i2s/cy_i2s.h **** ****************************************************************************//**
 704:Generated_Source\PSoC6\pdl\drivers/peripheral/i2s/cy_i2s.h **** *
 705:Generated_Source\PSoC6\pdl\drivers/peripheral/i2s/cy_i2s.h **** * Writes data to the TX FIFO. Increases the TX FIFO level.
 706:Generated_Source\PSoC6\pdl\drivers/peripheral/i2s/cy_i2s.h **** *
 707:Generated_Source\PSoC6\pdl\drivers/peripheral/i2s/cy_i2s.h **** * \param base The pointer to the I2S instance address.
 708:Generated_Source\PSoC6\pdl\drivers/peripheral/i2s/cy_i2s.h **** *
 709:Generated_Source\PSoC6\pdl\drivers/peripheral/i2s/cy_i2s.h **** * \param data Data to be written to the TX FIFO.
 710:Generated_Source\PSoC6\pdl\drivers/peripheral/i2s/cy_i2s.h **** *
 711:Generated_Source\PSoC6\pdl\drivers/peripheral/i2s/cy_i2s.h **** * \funcusage
 712:Generated_Source\PSoC6\pdl\drivers/peripheral/i2s/cy_i2s.h **** * \snippet i2s/i2s_v2_0_sut_00.cydsn/main_cm4.c snippet_Cy_I2S_WriteTxData
 713:Generated_Source\PSoC6\pdl\drivers/peripheral/i2s/cy_i2s.h **** *
 714:Generated_Source\PSoC6\pdl\drivers/peripheral/i2s/cy_i2s.h **** *******************************************************************************/
 715:Generated_Source\PSoC6\pdl\drivers/peripheral/i2s/cy_i2s.h **** __STATIC_INLINE void Cy_I2S_WriteTxData(I2S_Type * base, uint32_t data)
 716:Generated_Source\PSoC6\pdl\drivers/peripheral/i2s/cy_i2s.h **** {
 196              		.loc 1 716 0
ARM GAS  C:\Users\ikomb\AppData\Local\Temp\ccNVjT3c.s 			page 17


 197              		.cfi_startproc
 198              		@ args = 0, pretend = 0, frame = 8
 199              		@ frame_needed = 1, uses_anonymous_args = 0
 200              		@ link register save eliminated.
 201 0000 80B4     		push	{r7}
 202              		.cfi_def_cfa_offset 4
 203              		.cfi_offset 7, -4
 204 0002 83B0     		sub	sp, sp, #12
 205              		.cfi_def_cfa_offset 16
 206 0004 00AF     		add	r7, sp, #0
 207              		.cfi_def_cfa_register 7
 208 0006 7860     		str	r0, [r7, #4]
 209 0008 3960     		str	r1, [r7]
 717:Generated_Source\PSoC6\pdl\drivers/peripheral/i2s/cy_i2s.h ****     base->TX_FIFO_WR = data;
 210              		.loc 1 717 0
 211 000a 7B68     		ldr	r3, [r7, #4]
 212 000c 3A68     		ldr	r2, [r7]
 213 000e C3F80822 		str	r2, [r3, #520]
 718:Generated_Source\PSoC6\pdl\drivers/peripheral/i2s/cy_i2s.h **** }
 214              		.loc 1 718 0
 215 0012 00BF     		nop
 216 0014 0C37     		adds	r7, r7, #12
 217              		.cfi_def_cfa_offset 4
 218 0016 BD46     		mov	sp, r7
 219              		.cfi_def_cfa_register 13
 220              		@ sp needed
 221 0018 5DF8047B 		ldr	r7, [sp], #4
 222              		.cfi_restore 7
 223              		.cfi_def_cfa_offset 0
 224 001c 7047     		bx	lr
 225              		.cfi_endproc
 226              	.LFE167:
 227              		.size	Cy_I2S_WriteTxData, .-Cy_I2S_WriteTxData
 228 001e 00BF     		.section	.rodata
 229              		.align	2
 230              	.LC0:
 231 0000 47656E65 		.ascii	"Generated_Source\\PSoC6\\pdl\\drivers/peripheral/i2"
 231      72617465 
 231      645F536F 
 231      75726365 
 231      5C50536F 
 232 0030 732F6379 		.ascii	"s/cy_i2s.h\000"
 232      5F693273 
 232      2E6800
 233              		.section	.text.Cy_I2S_ClearInterrupt,"ax",%progbits
 234              		.align	2
 235              		.thumb
 236              		.thumb_func
 237              		.type	Cy_I2S_ClearInterrupt, %function
 238              	Cy_I2S_ClearInterrupt:
 239              	.LFB181:
 719:Generated_Source\PSoC6\pdl\drivers/peripheral/i2s/cy_i2s.h **** 
 720:Generated_Source\PSoC6\pdl\drivers/peripheral/i2s/cy_i2s.h **** 
 721:Generated_Source\PSoC6\pdl\drivers/peripheral/i2s/cy_i2s.h **** /*******************************************************************************
 722:Generated_Source\PSoC6\pdl\drivers/peripheral/i2s/cy_i2s.h **** * Function Name: Cy_I2S_GetTxReadPointer
 723:Generated_Source\PSoC6\pdl\drivers/peripheral/i2s/cy_i2s.h **** ****************************************************************************//**
 724:Generated_Source\PSoC6\pdl\drivers/peripheral/i2s/cy_i2s.h **** *
ARM GAS  C:\Users\ikomb\AppData\Local\Temp\ccNVjT3c.s 			page 18


 725:Generated_Source\PSoC6\pdl\drivers/peripheral/i2s/cy_i2s.h **** * Gets the TX FIFO Read pointer. This function is rather for debug purposes.
 726:Generated_Source\PSoC6\pdl\drivers/peripheral/i2s/cy_i2s.h **** *
 727:Generated_Source\PSoC6\pdl\drivers/peripheral/i2s/cy_i2s.h **** * \param base The pointer to the I2S instance address.
 728:Generated_Source\PSoC6\pdl\drivers/peripheral/i2s/cy_i2s.h **** *
 729:Generated_Source\PSoC6\pdl\drivers/peripheral/i2s/cy_i2s.h **** * \return The current TX Read pointer value.
 730:Generated_Source\PSoC6\pdl\drivers/peripheral/i2s/cy_i2s.h **** *
 731:Generated_Source\PSoC6\pdl\drivers/peripheral/i2s/cy_i2s.h **** * \funcusage
 732:Generated_Source\PSoC6\pdl\drivers/peripheral/i2s/cy_i2s.h **** * \snippet i2s/i2s_v2_0_sut_00.cydsn/main_cm4.c snippet_Cy_I2S_GetTxReadPointer
 733:Generated_Source\PSoC6\pdl\drivers/peripheral/i2s/cy_i2s.h **** *
 734:Generated_Source\PSoC6\pdl\drivers/peripheral/i2s/cy_i2s.h **** *******************************************************************************/
 735:Generated_Source\PSoC6\pdl\drivers/peripheral/i2s/cy_i2s.h **** __STATIC_INLINE uint8_t Cy_I2S_GetTxReadPointer(I2S_Type const * base)
 736:Generated_Source\PSoC6\pdl\drivers/peripheral/i2s/cy_i2s.h **** {
 737:Generated_Source\PSoC6\pdl\drivers/peripheral/i2s/cy_i2s.h ****     return ((uint8_t) _FLD2VAL(I2S_TX_FIFO_STATUS_RD_PTR, base->TX_FIFO_STATUS));
 738:Generated_Source\PSoC6\pdl\drivers/peripheral/i2s/cy_i2s.h **** }
 739:Generated_Source\PSoC6\pdl\drivers/peripheral/i2s/cy_i2s.h **** 
 740:Generated_Source\PSoC6\pdl\drivers/peripheral/i2s/cy_i2s.h **** 
 741:Generated_Source\PSoC6\pdl\drivers/peripheral/i2s/cy_i2s.h **** /*******************************************************************************
 742:Generated_Source\PSoC6\pdl\drivers/peripheral/i2s/cy_i2s.h **** * Function Name: Cy_I2S_GetTxWritePointer
 743:Generated_Source\PSoC6\pdl\drivers/peripheral/i2s/cy_i2s.h **** ****************************************************************************//**
 744:Generated_Source\PSoC6\pdl\drivers/peripheral/i2s/cy_i2s.h **** *
 745:Generated_Source\PSoC6\pdl\drivers/peripheral/i2s/cy_i2s.h **** * Gets the TX FIFO Write pointer. This function is rather for debug purposes.
 746:Generated_Source\PSoC6\pdl\drivers/peripheral/i2s/cy_i2s.h **** *
 747:Generated_Source\PSoC6\pdl\drivers/peripheral/i2s/cy_i2s.h **** * \param base The pointer to the I2S instance address.
 748:Generated_Source\PSoC6\pdl\drivers/peripheral/i2s/cy_i2s.h **** *
 749:Generated_Source\PSoC6\pdl\drivers/peripheral/i2s/cy_i2s.h **** * \return The current TX Write pointer value.
 750:Generated_Source\PSoC6\pdl\drivers/peripheral/i2s/cy_i2s.h **** *
 751:Generated_Source\PSoC6\pdl\drivers/peripheral/i2s/cy_i2s.h **** * \funcusage
 752:Generated_Source\PSoC6\pdl\drivers/peripheral/i2s/cy_i2s.h **** * \snippet i2s/i2s_v2_0_sut_00.cydsn/main_cm4.c snippet_Cy_I2S_GetTxWritePointer
 753:Generated_Source\PSoC6\pdl\drivers/peripheral/i2s/cy_i2s.h **** *
 754:Generated_Source\PSoC6\pdl\drivers/peripheral/i2s/cy_i2s.h **** *******************************************************************************/
 755:Generated_Source\PSoC6\pdl\drivers/peripheral/i2s/cy_i2s.h **** __STATIC_INLINE uint8_t Cy_I2S_GetTxWritePointer(I2S_Type const * base)
 756:Generated_Source\PSoC6\pdl\drivers/peripheral/i2s/cy_i2s.h **** {
 757:Generated_Source\PSoC6\pdl\drivers/peripheral/i2s/cy_i2s.h ****     return ((uint8_t) _FLD2VAL(I2S_TX_FIFO_STATUS_WR_PTR, base->TX_FIFO_STATUS));
 758:Generated_Source\PSoC6\pdl\drivers/peripheral/i2s/cy_i2s.h **** }
 759:Generated_Source\PSoC6\pdl\drivers/peripheral/i2s/cy_i2s.h **** 
 760:Generated_Source\PSoC6\pdl\drivers/peripheral/i2s/cy_i2s.h **** 
 761:Generated_Source\PSoC6\pdl\drivers/peripheral/i2s/cy_i2s.h **** /*******************************************************************************
 762:Generated_Source\PSoC6\pdl\drivers/peripheral/i2s/cy_i2s.h **** * Function Name: Cy_I2S_FreezeTxFifo
 763:Generated_Source\PSoC6\pdl\drivers/peripheral/i2s/cy_i2s.h **** ****************************************************************************//**
 764:Generated_Source\PSoC6\pdl\drivers/peripheral/i2s/cy_i2s.h **** *
 765:Generated_Source\PSoC6\pdl\drivers/peripheral/i2s/cy_i2s.h **** * Freezes the TX FIFO. This function is rather for debug purposes.
 766:Generated_Source\PSoC6\pdl\drivers/peripheral/i2s/cy_i2s.h **** *
 767:Generated_Source\PSoC6\pdl\drivers/peripheral/i2s/cy_i2s.h **** * \param base The pointer to the I2S instance address.
 768:Generated_Source\PSoC6\pdl\drivers/peripheral/i2s/cy_i2s.h **** *
 769:Generated_Source\PSoC6\pdl\drivers/peripheral/i2s/cy_i2s.h **** * \funcusage
 770:Generated_Source\PSoC6\pdl\drivers/peripheral/i2s/cy_i2s.h **** * \snippet i2s/i2s_v2_0_sut_00.cydsn/main_cm4.c snippet_Cy_I2S_FreezeTxFifo
 771:Generated_Source\PSoC6\pdl\drivers/peripheral/i2s/cy_i2s.h **** *
 772:Generated_Source\PSoC6\pdl\drivers/peripheral/i2s/cy_i2s.h **** *******************************************************************************/
 773:Generated_Source\PSoC6\pdl\drivers/peripheral/i2s/cy_i2s.h **** __STATIC_INLINE void Cy_I2S_FreezeTxFifo(I2S_Type * base)
 774:Generated_Source\PSoC6\pdl\drivers/peripheral/i2s/cy_i2s.h **** {
 775:Generated_Source\PSoC6\pdl\drivers/peripheral/i2s/cy_i2s.h ****     base->TX_FIFO_CTL |= I2S_TX_FIFO_CTL_FREEZE_Msk;
 776:Generated_Source\PSoC6\pdl\drivers/peripheral/i2s/cy_i2s.h **** }
 777:Generated_Source\PSoC6\pdl\drivers/peripheral/i2s/cy_i2s.h **** 
 778:Generated_Source\PSoC6\pdl\drivers/peripheral/i2s/cy_i2s.h **** 
 779:Generated_Source\PSoC6\pdl\drivers/peripheral/i2s/cy_i2s.h **** /*******************************************************************************
 780:Generated_Source\PSoC6\pdl\drivers/peripheral/i2s/cy_i2s.h **** * Function Name: Cy_I2S_UnfreezeTxFifo
 781:Generated_Source\PSoC6\pdl\drivers/peripheral/i2s/cy_i2s.h **** ****************************************************************************//**
ARM GAS  C:\Users\ikomb\AppData\Local\Temp\ccNVjT3c.s 			page 19


 782:Generated_Source\PSoC6\pdl\drivers/peripheral/i2s/cy_i2s.h **** *
 783:Generated_Source\PSoC6\pdl\drivers/peripheral/i2s/cy_i2s.h **** * Unfreezes the TX FIFO. This function is rather for debug purposes.
 784:Generated_Source\PSoC6\pdl\drivers/peripheral/i2s/cy_i2s.h **** *
 785:Generated_Source\PSoC6\pdl\drivers/peripheral/i2s/cy_i2s.h **** * \param base The pointer to the I2S instance address.
 786:Generated_Source\PSoC6\pdl\drivers/peripheral/i2s/cy_i2s.h **** *
 787:Generated_Source\PSoC6\pdl\drivers/peripheral/i2s/cy_i2s.h **** * \funcusage
 788:Generated_Source\PSoC6\pdl\drivers/peripheral/i2s/cy_i2s.h **** * \snippet i2s/i2s_v2_0_sut_00.cydsn/main_cm4.c snippet_Cy_I2S_UnfreezeTxFifo
 789:Generated_Source\PSoC6\pdl\drivers/peripheral/i2s/cy_i2s.h **** *
 790:Generated_Source\PSoC6\pdl\drivers/peripheral/i2s/cy_i2s.h **** *******************************************************************************/
 791:Generated_Source\PSoC6\pdl\drivers/peripheral/i2s/cy_i2s.h **** __STATIC_INLINE void Cy_I2S_UnfreezeTxFifo(I2S_Type * base)
 792:Generated_Source\PSoC6\pdl\drivers/peripheral/i2s/cy_i2s.h **** {
 793:Generated_Source\PSoC6\pdl\drivers/peripheral/i2s/cy_i2s.h ****     base->TX_FIFO_CTL &= (uint32_t) ~I2S_TX_FIFO_CTL_FREEZE_Msk;
 794:Generated_Source\PSoC6\pdl\drivers/peripheral/i2s/cy_i2s.h **** }
 795:Generated_Source\PSoC6\pdl\drivers/peripheral/i2s/cy_i2s.h **** 
 796:Generated_Source\PSoC6\pdl\drivers/peripheral/i2s/cy_i2s.h **** 
 797:Generated_Source\PSoC6\pdl\drivers/peripheral/i2s/cy_i2s.h **** /*******************************************************************************
 798:Generated_Source\PSoC6\pdl\drivers/peripheral/i2s/cy_i2s.h **** * Function Name: Cy_I2S_ClearRxFifo
 799:Generated_Source\PSoC6\pdl\drivers/peripheral/i2s/cy_i2s.h **** ****************************************************************************//**
 800:Generated_Source\PSoC6\pdl\drivers/peripheral/i2s/cy_i2s.h **** *
 801:Generated_Source\PSoC6\pdl\drivers/peripheral/i2s/cy_i2s.h **** * Clears the RX FIFO (resets the Read/Write FIFO pointers).
 802:Generated_Source\PSoC6\pdl\drivers/peripheral/i2s/cy_i2s.h **** *
 803:Generated_Source\PSoC6\pdl\drivers/peripheral/i2s/cy_i2s.h **** * \param base The pointer to the I2S instance address.
 804:Generated_Source\PSoC6\pdl\drivers/peripheral/i2s/cy_i2s.h **** *
 805:Generated_Source\PSoC6\pdl\drivers/peripheral/i2s/cy_i2s.h **** * \funcusage
 806:Generated_Source\PSoC6\pdl\drivers/peripheral/i2s/cy_i2s.h **** * \snippet i2s/i2s_v2_0_sut_00.cydsn/main_cm4.c snippet_Cy_I2S_ClearRxFifo
 807:Generated_Source\PSoC6\pdl\drivers/peripheral/i2s/cy_i2s.h **** *
 808:Generated_Source\PSoC6\pdl\drivers/peripheral/i2s/cy_i2s.h **** *******************************************************************************/
 809:Generated_Source\PSoC6\pdl\drivers/peripheral/i2s/cy_i2s.h **** __STATIC_INLINE void Cy_I2S_ClearRxFifo(I2S_Type * base)
 810:Generated_Source\PSoC6\pdl\drivers/peripheral/i2s/cy_i2s.h **** {
 811:Generated_Source\PSoC6\pdl\drivers/peripheral/i2s/cy_i2s.h ****     base->RX_FIFO_CTL |= I2S_RX_FIFO_CTL_CLEAR_Msk;
 812:Generated_Source\PSoC6\pdl\drivers/peripheral/i2s/cy_i2s.h ****     base->RX_FIFO_CTL &= (uint32_t) ~I2S_RX_FIFO_CTL_CLEAR_Msk;
 813:Generated_Source\PSoC6\pdl\drivers/peripheral/i2s/cy_i2s.h ****     (void) base->RX_FIFO_CTL;
 814:Generated_Source\PSoC6\pdl\drivers/peripheral/i2s/cy_i2s.h **** }
 815:Generated_Source\PSoC6\pdl\drivers/peripheral/i2s/cy_i2s.h **** 
 816:Generated_Source\PSoC6\pdl\drivers/peripheral/i2s/cy_i2s.h **** 
 817:Generated_Source\PSoC6\pdl\drivers/peripheral/i2s/cy_i2s.h **** /*******************************************************************************
 818:Generated_Source\PSoC6\pdl\drivers/peripheral/i2s/cy_i2s.h **** * Function Name: Cy_I2S_GetNumInRxFifo
 819:Generated_Source\PSoC6\pdl\drivers/peripheral/i2s/cy_i2s.h **** ****************************************************************************//**
 820:Generated_Source\PSoC6\pdl\drivers/peripheral/i2s/cy_i2s.h **** *
 821:Generated_Source\PSoC6\pdl\drivers/peripheral/i2s/cy_i2s.h **** * Gets the number of used words in the RX FIFO.
 822:Generated_Source\PSoC6\pdl\drivers/peripheral/i2s/cy_i2s.h **** *
 823:Generated_Source\PSoC6\pdl\drivers/peripheral/i2s/cy_i2s.h **** * \param base The pointer to the I2S instance address.
 824:Generated_Source\PSoC6\pdl\drivers/peripheral/i2s/cy_i2s.h **** *
 825:Generated_Source\PSoC6\pdl\drivers/peripheral/i2s/cy_i2s.h **** * \return The current number of used words in rge RX FIFO.
 826:Generated_Source\PSoC6\pdl\drivers/peripheral/i2s/cy_i2s.h **** *
 827:Generated_Source\PSoC6\pdl\drivers/peripheral/i2s/cy_i2s.h **** * \funcusage
 828:Generated_Source\PSoC6\pdl\drivers/peripheral/i2s/cy_i2s.h **** * \snippet i2s/i2s_v2_0_sut_00.cydsn/main_cm4.c snippet_Cy_I2S_GetNumInRxFifo
 829:Generated_Source\PSoC6\pdl\drivers/peripheral/i2s/cy_i2s.h **** *
 830:Generated_Source\PSoC6\pdl\drivers/peripheral/i2s/cy_i2s.h **** *******************************************************************************/
 831:Generated_Source\PSoC6\pdl\drivers/peripheral/i2s/cy_i2s.h **** __STATIC_INLINE uint32_t Cy_I2S_GetNumInRxFifo(I2S_Type const * base)
 832:Generated_Source\PSoC6\pdl\drivers/peripheral/i2s/cy_i2s.h **** {
 833:Generated_Source\PSoC6\pdl\drivers/peripheral/i2s/cy_i2s.h ****     return (_FLD2VAL(I2S_RX_FIFO_STATUS_USED, base->RX_FIFO_STATUS));
 834:Generated_Source\PSoC6\pdl\drivers/peripheral/i2s/cy_i2s.h **** }
 835:Generated_Source\PSoC6\pdl\drivers/peripheral/i2s/cy_i2s.h **** 
 836:Generated_Source\PSoC6\pdl\drivers/peripheral/i2s/cy_i2s.h **** 
 837:Generated_Source\PSoC6\pdl\drivers/peripheral/i2s/cy_i2s.h **** /*******************************************************************************
 838:Generated_Source\PSoC6\pdl\drivers/peripheral/i2s/cy_i2s.h **** * Function Name: Cy_I2S_ReadRxData
ARM GAS  C:\Users\ikomb\AppData\Local\Temp\ccNVjT3c.s 			page 20


 839:Generated_Source\PSoC6\pdl\drivers/peripheral/i2s/cy_i2s.h **** ****************************************************************************//**
 840:Generated_Source\PSoC6\pdl\drivers/peripheral/i2s/cy_i2s.h **** *
 841:Generated_Source\PSoC6\pdl\drivers/peripheral/i2s/cy_i2s.h **** * Reads data from the RX FIFO. Decreases the RX FIFO level.
 842:Generated_Source\PSoC6\pdl\drivers/peripheral/i2s/cy_i2s.h **** *
 843:Generated_Source\PSoC6\pdl\drivers/peripheral/i2s/cy_i2s.h **** * \param base The pointer to the I2S instance address.
 844:Generated_Source\PSoC6\pdl\drivers/peripheral/i2s/cy_i2s.h **** *
 845:Generated_Source\PSoC6\pdl\drivers/peripheral/i2s/cy_i2s.h **** * \return The read data.
 846:Generated_Source\PSoC6\pdl\drivers/peripheral/i2s/cy_i2s.h **** *
 847:Generated_Source\PSoC6\pdl\drivers/peripheral/i2s/cy_i2s.h **** * \funcusage
 848:Generated_Source\PSoC6\pdl\drivers/peripheral/i2s/cy_i2s.h **** * \snippet i2s/i2s_v2_0_sut_00.cydsn/main_cm4.c snippet_Cy_I2S_ReadRxData
 849:Generated_Source\PSoC6\pdl\drivers/peripheral/i2s/cy_i2s.h **** *
 850:Generated_Source\PSoC6\pdl\drivers/peripheral/i2s/cy_i2s.h **** *******************************************************************************/
 851:Generated_Source\PSoC6\pdl\drivers/peripheral/i2s/cy_i2s.h **** __STATIC_INLINE uint32_t Cy_I2S_ReadRxData(I2S_Type const * base)
 852:Generated_Source\PSoC6\pdl\drivers/peripheral/i2s/cy_i2s.h **** {
 853:Generated_Source\PSoC6\pdl\drivers/peripheral/i2s/cy_i2s.h ****     return (base->RX_FIFO_RD);
 854:Generated_Source\PSoC6\pdl\drivers/peripheral/i2s/cy_i2s.h **** }
 855:Generated_Source\PSoC6\pdl\drivers/peripheral/i2s/cy_i2s.h **** 
 856:Generated_Source\PSoC6\pdl\drivers/peripheral/i2s/cy_i2s.h **** 
 857:Generated_Source\PSoC6\pdl\drivers/peripheral/i2s/cy_i2s.h **** /*******************************************************************************
 858:Generated_Source\PSoC6\pdl\drivers/peripheral/i2s/cy_i2s.h **** * Function Name: Cy_I2S_ReadRxDataSilent
 859:Generated_Source\PSoC6\pdl\drivers/peripheral/i2s/cy_i2s.h **** ****************************************************************************//**
 860:Generated_Source\PSoC6\pdl\drivers/peripheral/i2s/cy_i2s.h **** *
 861:Generated_Source\PSoC6\pdl\drivers/peripheral/i2s/cy_i2s.h **** * Reads data from the RX FIFO without updating the RX FIFO read pointer.
 862:Generated_Source\PSoC6\pdl\drivers/peripheral/i2s/cy_i2s.h **** * This function is rather for debug purposes.
 863:Generated_Source\PSoC6\pdl\drivers/peripheral/i2s/cy_i2s.h **** *
 864:Generated_Source\PSoC6\pdl\drivers/peripheral/i2s/cy_i2s.h **** * \param base The pointer to the I2S instance address.
 865:Generated_Source\PSoC6\pdl\drivers/peripheral/i2s/cy_i2s.h **** *
 866:Generated_Source\PSoC6\pdl\drivers/peripheral/i2s/cy_i2s.h **** * \return The read data.
 867:Generated_Source\PSoC6\pdl\drivers/peripheral/i2s/cy_i2s.h **** *
 868:Generated_Source\PSoC6\pdl\drivers/peripheral/i2s/cy_i2s.h **** * \funcusage
 869:Generated_Source\PSoC6\pdl\drivers/peripheral/i2s/cy_i2s.h **** * \snippet i2s/i2s_v2_0_sut_00.cydsn/main_cm4.c snippet_Cy_I2S_ReadRxDataSilent
 870:Generated_Source\PSoC6\pdl\drivers/peripheral/i2s/cy_i2s.h **** *
 871:Generated_Source\PSoC6\pdl\drivers/peripheral/i2s/cy_i2s.h **** *******************************************************************************/
 872:Generated_Source\PSoC6\pdl\drivers/peripheral/i2s/cy_i2s.h **** __STATIC_INLINE uint32_t Cy_I2S_ReadRxDataSilent(I2S_Type const * base)
 873:Generated_Source\PSoC6\pdl\drivers/peripheral/i2s/cy_i2s.h **** {
 874:Generated_Source\PSoC6\pdl\drivers/peripheral/i2s/cy_i2s.h ****     return (base->RX_FIFO_RD_SILENT);
 875:Generated_Source\PSoC6\pdl\drivers/peripheral/i2s/cy_i2s.h **** }
 876:Generated_Source\PSoC6\pdl\drivers/peripheral/i2s/cy_i2s.h **** 
 877:Generated_Source\PSoC6\pdl\drivers/peripheral/i2s/cy_i2s.h **** 
 878:Generated_Source\PSoC6\pdl\drivers/peripheral/i2s/cy_i2s.h **** /*******************************************************************************
 879:Generated_Source\PSoC6\pdl\drivers/peripheral/i2s/cy_i2s.h **** * Function Name: Cy_I2S_GetRxReadPointer
 880:Generated_Source\PSoC6\pdl\drivers/peripheral/i2s/cy_i2s.h **** ****************************************************************************//**
 881:Generated_Source\PSoC6\pdl\drivers/peripheral/i2s/cy_i2s.h **** *
 882:Generated_Source\PSoC6\pdl\drivers/peripheral/i2s/cy_i2s.h **** * Gets the RX FIFO Read pointer. This function is rather for debug purposes.
 883:Generated_Source\PSoC6\pdl\drivers/peripheral/i2s/cy_i2s.h **** *
 884:Generated_Source\PSoC6\pdl\drivers/peripheral/i2s/cy_i2s.h **** * \param base The pointer to the I2S instance address.
 885:Generated_Source\PSoC6\pdl\drivers/peripheral/i2s/cy_i2s.h **** *
 886:Generated_Source\PSoC6\pdl\drivers/peripheral/i2s/cy_i2s.h **** * \return The current RX Read pointer value.
 887:Generated_Source\PSoC6\pdl\drivers/peripheral/i2s/cy_i2s.h **** *
 888:Generated_Source\PSoC6\pdl\drivers/peripheral/i2s/cy_i2s.h **** * \funcusage
 889:Generated_Source\PSoC6\pdl\drivers/peripheral/i2s/cy_i2s.h **** * \snippet i2s/i2s_v2_0_sut_00.cydsn/main_cm4.c snippet_Cy_I2S_GetRxReadPointer
 890:Generated_Source\PSoC6\pdl\drivers/peripheral/i2s/cy_i2s.h **** *
 891:Generated_Source\PSoC6\pdl\drivers/peripheral/i2s/cy_i2s.h **** *******************************************************************************/
 892:Generated_Source\PSoC6\pdl\drivers/peripheral/i2s/cy_i2s.h **** __STATIC_INLINE uint8_t Cy_I2S_GetRxReadPointer(I2S_Type const * base)
 893:Generated_Source\PSoC6\pdl\drivers/peripheral/i2s/cy_i2s.h **** {
 894:Generated_Source\PSoC6\pdl\drivers/peripheral/i2s/cy_i2s.h ****     return ((uint8_t) _FLD2VAL(I2S_RX_FIFO_STATUS_RD_PTR, base->RX_FIFO_STATUS));
 895:Generated_Source\PSoC6\pdl\drivers/peripheral/i2s/cy_i2s.h **** }
ARM GAS  C:\Users\ikomb\AppData\Local\Temp\ccNVjT3c.s 			page 21


 896:Generated_Source\PSoC6\pdl\drivers/peripheral/i2s/cy_i2s.h **** 
 897:Generated_Source\PSoC6\pdl\drivers/peripheral/i2s/cy_i2s.h **** 
 898:Generated_Source\PSoC6\pdl\drivers/peripheral/i2s/cy_i2s.h **** /*******************************************************************************
 899:Generated_Source\PSoC6\pdl\drivers/peripheral/i2s/cy_i2s.h **** * Function Name: Cy_I2S_GetRxWritePointer
 900:Generated_Source\PSoC6\pdl\drivers/peripheral/i2s/cy_i2s.h **** ****************************************************************************//**
 901:Generated_Source\PSoC6\pdl\drivers/peripheral/i2s/cy_i2s.h **** *
 902:Generated_Source\PSoC6\pdl\drivers/peripheral/i2s/cy_i2s.h **** * Gets the RX FIFO Write pointer. This function is rather for debug purposes.
 903:Generated_Source\PSoC6\pdl\drivers/peripheral/i2s/cy_i2s.h **** *
 904:Generated_Source\PSoC6\pdl\drivers/peripheral/i2s/cy_i2s.h **** * \param base The pointer to the I2S instance address.
 905:Generated_Source\PSoC6\pdl\drivers/peripheral/i2s/cy_i2s.h **** *
 906:Generated_Source\PSoC6\pdl\drivers/peripheral/i2s/cy_i2s.h **** * \return The current RX Write pointer value.
 907:Generated_Source\PSoC6\pdl\drivers/peripheral/i2s/cy_i2s.h **** *
 908:Generated_Source\PSoC6\pdl\drivers/peripheral/i2s/cy_i2s.h **** * \funcusage
 909:Generated_Source\PSoC6\pdl\drivers/peripheral/i2s/cy_i2s.h **** * \snippet i2s/i2s_v2_0_sut_00.cydsn/main_cm4.c snippet_Cy_I2S_GetRxWritePointer
 910:Generated_Source\PSoC6\pdl\drivers/peripheral/i2s/cy_i2s.h **** *
 911:Generated_Source\PSoC6\pdl\drivers/peripheral/i2s/cy_i2s.h **** *******************************************************************************/
 912:Generated_Source\PSoC6\pdl\drivers/peripheral/i2s/cy_i2s.h **** __STATIC_INLINE uint8_t Cy_I2S_GetRxWritePointer(I2S_Type const * base)
 913:Generated_Source\PSoC6\pdl\drivers/peripheral/i2s/cy_i2s.h **** {
 914:Generated_Source\PSoC6\pdl\drivers/peripheral/i2s/cy_i2s.h ****     return ((uint8_t) _FLD2VAL(I2S_RX_FIFO_STATUS_WR_PTR, base->RX_FIFO_STATUS));
 915:Generated_Source\PSoC6\pdl\drivers/peripheral/i2s/cy_i2s.h **** }
 916:Generated_Source\PSoC6\pdl\drivers/peripheral/i2s/cy_i2s.h **** 
 917:Generated_Source\PSoC6\pdl\drivers/peripheral/i2s/cy_i2s.h **** 
 918:Generated_Source\PSoC6\pdl\drivers/peripheral/i2s/cy_i2s.h **** /*******************************************************************************
 919:Generated_Source\PSoC6\pdl\drivers/peripheral/i2s/cy_i2s.h **** * Function Name: Cy_I2S_FreezeRxFifo
 920:Generated_Source\PSoC6\pdl\drivers/peripheral/i2s/cy_i2s.h **** ****************************************************************************//**
 921:Generated_Source\PSoC6\pdl\drivers/peripheral/i2s/cy_i2s.h **** *
 922:Generated_Source\PSoC6\pdl\drivers/peripheral/i2s/cy_i2s.h **** * Freezes the RX FIFO. This function is rather for debug purposes.
 923:Generated_Source\PSoC6\pdl\drivers/peripheral/i2s/cy_i2s.h **** *
 924:Generated_Source\PSoC6\pdl\drivers/peripheral/i2s/cy_i2s.h **** * \param base The pointer to the I2S instance address.
 925:Generated_Source\PSoC6\pdl\drivers/peripheral/i2s/cy_i2s.h **** *
 926:Generated_Source\PSoC6\pdl\drivers/peripheral/i2s/cy_i2s.h **** * \funcusage
 927:Generated_Source\PSoC6\pdl\drivers/peripheral/i2s/cy_i2s.h **** * \snippet i2s/i2s_v2_0_sut_00.cydsn/main_cm4.c snippet_Cy_I2S_FreezeRxFifo
 928:Generated_Source\PSoC6\pdl\drivers/peripheral/i2s/cy_i2s.h **** *
 929:Generated_Source\PSoC6\pdl\drivers/peripheral/i2s/cy_i2s.h **** *******************************************************************************/
 930:Generated_Source\PSoC6\pdl\drivers/peripheral/i2s/cy_i2s.h **** __STATIC_INLINE void Cy_I2S_FreezeRxFifo(I2S_Type * base)
 931:Generated_Source\PSoC6\pdl\drivers/peripheral/i2s/cy_i2s.h **** {
 932:Generated_Source\PSoC6\pdl\drivers/peripheral/i2s/cy_i2s.h ****     base->RX_FIFO_CTL |= I2S_RX_FIFO_CTL_FREEZE_Msk;
 933:Generated_Source\PSoC6\pdl\drivers/peripheral/i2s/cy_i2s.h **** }
 934:Generated_Source\PSoC6\pdl\drivers/peripheral/i2s/cy_i2s.h **** 
 935:Generated_Source\PSoC6\pdl\drivers/peripheral/i2s/cy_i2s.h **** 
 936:Generated_Source\PSoC6\pdl\drivers/peripheral/i2s/cy_i2s.h **** /*******************************************************************************
 937:Generated_Source\PSoC6\pdl\drivers/peripheral/i2s/cy_i2s.h **** * Function Name: Cy_I2S_UnfreezeRxFifo
 938:Generated_Source\PSoC6\pdl\drivers/peripheral/i2s/cy_i2s.h **** ****************************************************************************//**
 939:Generated_Source\PSoC6\pdl\drivers/peripheral/i2s/cy_i2s.h **** *
 940:Generated_Source\PSoC6\pdl\drivers/peripheral/i2s/cy_i2s.h **** * Unfreezes the RX FIFO. This function is rather for debug purposes.
 941:Generated_Source\PSoC6\pdl\drivers/peripheral/i2s/cy_i2s.h **** *
 942:Generated_Source\PSoC6\pdl\drivers/peripheral/i2s/cy_i2s.h **** * \param base The pointer to the I2S instance address.
 943:Generated_Source\PSoC6\pdl\drivers/peripheral/i2s/cy_i2s.h **** *
 944:Generated_Source\PSoC6\pdl\drivers/peripheral/i2s/cy_i2s.h **** * \funcusage
 945:Generated_Source\PSoC6\pdl\drivers/peripheral/i2s/cy_i2s.h **** * \snippet i2s/i2s_v2_0_sut_00.cydsn/main_cm4.c snippet_Cy_I2S_UnfreezeRxFifo
 946:Generated_Source\PSoC6\pdl\drivers/peripheral/i2s/cy_i2s.h **** *
 947:Generated_Source\PSoC6\pdl\drivers/peripheral/i2s/cy_i2s.h **** *******************************************************************************/
 948:Generated_Source\PSoC6\pdl\drivers/peripheral/i2s/cy_i2s.h **** __STATIC_INLINE void Cy_I2S_UnfreezeRxFifo(I2S_Type * base)
 949:Generated_Source\PSoC6\pdl\drivers/peripheral/i2s/cy_i2s.h **** {
 950:Generated_Source\PSoC6\pdl\drivers/peripheral/i2s/cy_i2s.h ****     base->RX_FIFO_CTL &= (uint32_t) ~I2S_RX_FIFO_CTL_FREEZE_Msk;
 951:Generated_Source\PSoC6\pdl\drivers/peripheral/i2s/cy_i2s.h **** }
 952:Generated_Source\PSoC6\pdl\drivers/peripheral/i2s/cy_i2s.h **** 
ARM GAS  C:\Users\ikomb\AppData\Local\Temp\ccNVjT3c.s 			page 22


 953:Generated_Source\PSoC6\pdl\drivers/peripheral/i2s/cy_i2s.h **** 
 954:Generated_Source\PSoC6\pdl\drivers/peripheral/i2s/cy_i2s.h **** /*******************************************************************************
 955:Generated_Source\PSoC6\pdl\drivers/peripheral/i2s/cy_i2s.h **** * Function Name: Cy_I2S_GetInterruptStatus
 956:Generated_Source\PSoC6\pdl\drivers/peripheral/i2s/cy_i2s.h **** ****************************************************************************//**
 957:Generated_Source\PSoC6\pdl\drivers/peripheral/i2s/cy_i2s.h **** *
 958:Generated_Source\PSoC6\pdl\drivers/peripheral/i2s/cy_i2s.h **** * Gets an interrupt status (returns a content of the INTR register).
 959:Generated_Source\PSoC6\pdl\drivers/peripheral/i2s/cy_i2s.h **** *
 960:Generated_Source\PSoC6\pdl\drivers/peripheral/i2s/cy_i2s.h **** * \param base The pointer to the I2S instance address.
 961:Generated_Source\PSoC6\pdl\drivers/peripheral/i2s/cy_i2s.h **** *
 962:Generated_Source\PSoC6\pdl\drivers/peripheral/i2s/cy_i2s.h **** * \return The interrupt bit mask \ref group_i2s_macros_intrerrupt_masks.
 963:Generated_Source\PSoC6\pdl\drivers/peripheral/i2s/cy_i2s.h **** *
 964:Generated_Source\PSoC6\pdl\drivers/peripheral/i2s/cy_i2s.h **** * \funcusage
 965:Generated_Source\PSoC6\pdl\drivers/peripheral/i2s/cy_i2s.h **** * \snippet i2s/i2s_v2_0_sut_00.cydsn/main_cm4.c snippet_Cy_I2S_GetInterruptStatus
 966:Generated_Source\PSoC6\pdl\drivers/peripheral/i2s/cy_i2s.h **** *
 967:Generated_Source\PSoC6\pdl\drivers/peripheral/i2s/cy_i2s.h **** *******************************************************************************/
 968:Generated_Source\PSoC6\pdl\drivers/peripheral/i2s/cy_i2s.h **** __STATIC_INLINE uint32_t Cy_I2S_GetInterruptStatus(I2S_Type const * base)
 969:Generated_Source\PSoC6\pdl\drivers/peripheral/i2s/cy_i2s.h **** {
 970:Generated_Source\PSoC6\pdl\drivers/peripheral/i2s/cy_i2s.h ****     return (base->INTR);
 971:Generated_Source\PSoC6\pdl\drivers/peripheral/i2s/cy_i2s.h **** }
 972:Generated_Source\PSoC6\pdl\drivers/peripheral/i2s/cy_i2s.h **** 
 973:Generated_Source\PSoC6\pdl\drivers/peripheral/i2s/cy_i2s.h **** 
 974:Generated_Source\PSoC6\pdl\drivers/peripheral/i2s/cy_i2s.h **** /*******************************************************************************
 975:Generated_Source\PSoC6\pdl\drivers/peripheral/i2s/cy_i2s.h **** * Function Name: Cy_I2S_ClearInterrupt
 976:Generated_Source\PSoC6\pdl\drivers/peripheral/i2s/cy_i2s.h **** ****************************************************************************//**
 977:Generated_Source\PSoC6\pdl\drivers/peripheral/i2s/cy_i2s.h **** *
 978:Generated_Source\PSoC6\pdl\drivers/peripheral/i2s/cy_i2s.h **** * Clears one or more interrupt factors (sets the INTR register).
 979:Generated_Source\PSoC6\pdl\drivers/peripheral/i2s/cy_i2s.h **** *
 980:Generated_Source\PSoC6\pdl\drivers/peripheral/i2s/cy_i2s.h **** * \param base      The pointer to the I2S instance address.
 981:Generated_Source\PSoC6\pdl\drivers/peripheral/i2s/cy_i2s.h **** *
 982:Generated_Source\PSoC6\pdl\drivers/peripheral/i2s/cy_i2s.h **** * \param interrupt Interrupt bit mask \ref group_i2s_macros_intrerrupt_masks.
 983:Generated_Source\PSoC6\pdl\drivers/peripheral/i2s/cy_i2s.h **** *
 984:Generated_Source\PSoC6\pdl\drivers/peripheral/i2s/cy_i2s.h **** * \funcusage
 985:Generated_Source\PSoC6\pdl\drivers/peripheral/i2s/cy_i2s.h **** * \snippet i2s/i2s_v2_0_sut_00.cydsn/main_cm4.c snippet_Cy_I2S_ClearInterrupt
 986:Generated_Source\PSoC6\pdl\drivers/peripheral/i2s/cy_i2s.h **** *
 987:Generated_Source\PSoC6\pdl\drivers/peripheral/i2s/cy_i2s.h **** *******************************************************************************/
 988:Generated_Source\PSoC6\pdl\drivers/peripheral/i2s/cy_i2s.h **** __STATIC_INLINE void Cy_I2S_ClearInterrupt(I2S_Type * base, uint32_t interrupt)
 989:Generated_Source\PSoC6\pdl\drivers/peripheral/i2s/cy_i2s.h **** {
 240              		.loc 1 989 0
 241              		.cfi_startproc
 242              		@ args = 0, pretend = 0, frame = 8
 243              		@ frame_needed = 1, uses_anonymous_args = 0
 244 0000 80B5     		push	{r7, lr}
 245              		.cfi_def_cfa_offset 8
 246              		.cfi_offset 7, -8
 247              		.cfi_offset 14, -4
 248 0002 82B0     		sub	sp, sp, #8
 249              		.cfi_def_cfa_offset 16
 250 0004 00AF     		add	r7, sp, #0
 251              		.cfi_def_cfa_register 7
 252 0006 7860     		str	r0, [r7, #4]
 253 0008 3960     		str	r1, [r7]
 990:Generated_Source\PSoC6\pdl\drivers/peripheral/i2s/cy_i2s.h ****     CY_ASSERT_L2(CY_I2S_IS_INTR_MASK_VALID(interrupt));
 254              		.loc 1 990 0
 255 000a 3A68     		ldr	r2, [r7]
 256 000c 094B     		ldr	r3, .L9
 257 000e 1340     		ands	r3, r3, r2
 258 0010 002B     		cmp	r3, #0
ARM GAS  C:\Users\ikomb\AppData\Local\Temp\ccNVjT3c.s 			page 23


 259 0012 04D0     		beq	.L8
 260              		.loc 1 990 0 is_stmt 0 discriminator 1
 261 0014 40F2DE31 		movw	r1, #990
 262 0018 0748     		ldr	r0, .L9+4
 263 001a FFF7FEFF 		bl	Cy_SysLib_AssertFailed
 264              	.L8:
 991:Generated_Source\PSoC6\pdl\drivers/peripheral/i2s/cy_i2s.h ****     base->INTR = interrupt;
 265              		.loc 1 991 0 is_stmt 1
 266 001e 7B68     		ldr	r3, [r7, #4]
 267 0020 3A68     		ldr	r2, [r7]
 268 0022 C3F8002F 		str	r2, [r3, #3840]
 992:Generated_Source\PSoC6\pdl\drivers/peripheral/i2s/cy_i2s.h ****     (void) base->INTR;
 269              		.loc 1 992 0
 270 0026 7B68     		ldr	r3, [r7, #4]
 271 0028 D3F8003F 		ldr	r3, [r3, #3840]
 993:Generated_Source\PSoC6\pdl\drivers/peripheral/i2s/cy_i2s.h **** }
 272              		.loc 1 993 0
 273 002c 00BF     		nop
 274 002e 0837     		adds	r7, r7, #8
 275              		.cfi_def_cfa_offset 8
 276 0030 BD46     		mov	sp, r7
 277              		.cfi_def_cfa_register 13
 278              		@ sp needed
 279 0032 80BD     		pop	{r7, pc}
 280              	.L10:
 281              		.align	2
 282              	.L9:
 283 0034 8CFE92FE 		.word	-23921012
 284 0038 00000000 		.word	.LC0
 285              		.cfi_endproc
 286              	.LFE181:
 287              		.size	Cy_I2S_ClearInterrupt, .-Cy_I2S_ClearInterrupt
 288              		.section	.text.Cy_I2S_GetInterruptMask,"ax",%progbits
 289              		.align	2
 290              		.thumb
 291              		.thumb_func
 292              		.type	Cy_I2S_GetInterruptMask, %function
 293              	Cy_I2S_GetInterruptMask:
 294              	.LFB183:
 994:Generated_Source\PSoC6\pdl\drivers/peripheral/i2s/cy_i2s.h **** 
 995:Generated_Source\PSoC6\pdl\drivers/peripheral/i2s/cy_i2s.h **** 
 996:Generated_Source\PSoC6\pdl\drivers/peripheral/i2s/cy_i2s.h **** /*******************************************************************************
 997:Generated_Source\PSoC6\pdl\drivers/peripheral/i2s/cy_i2s.h **** * Function Name: Cy_I2S_SetInterrupt
 998:Generated_Source\PSoC6\pdl\drivers/peripheral/i2s/cy_i2s.h **** ****************************************************************************//**
 999:Generated_Source\PSoC6\pdl\drivers/peripheral/i2s/cy_i2s.h **** *
1000:Generated_Source\PSoC6\pdl\drivers/peripheral/i2s/cy_i2s.h **** * Sets one or more interrupt factors (sets the INTR_SET register).
1001:Generated_Source\PSoC6\pdl\drivers/peripheral/i2s/cy_i2s.h **** *
1002:Generated_Source\PSoC6\pdl\drivers/peripheral/i2s/cy_i2s.h **** * \param base      The pointer to the I2S instance address.
1003:Generated_Source\PSoC6\pdl\drivers/peripheral/i2s/cy_i2s.h **** *
1004:Generated_Source\PSoC6\pdl\drivers/peripheral/i2s/cy_i2s.h **** * \param interrupt Interrupt bit mask \ref group_i2s_macros_intrerrupt_masks.
1005:Generated_Source\PSoC6\pdl\drivers/peripheral/i2s/cy_i2s.h **** *
1006:Generated_Source\PSoC6\pdl\drivers/peripheral/i2s/cy_i2s.h **** * \funcusage
1007:Generated_Source\PSoC6\pdl\drivers/peripheral/i2s/cy_i2s.h **** * \snippet i2s/i2s_v2_0_sut_00.cydsn/main_cm4.c snippet_Cy_I2S_SetInterrupt
1008:Generated_Source\PSoC6\pdl\drivers/peripheral/i2s/cy_i2s.h **** *
1009:Generated_Source\PSoC6\pdl\drivers/peripheral/i2s/cy_i2s.h **** *******************************************************************************/
1010:Generated_Source\PSoC6\pdl\drivers/peripheral/i2s/cy_i2s.h **** __STATIC_INLINE void Cy_I2S_SetInterrupt(I2S_Type * base, uint32_t interrupt)
1011:Generated_Source\PSoC6\pdl\drivers/peripheral/i2s/cy_i2s.h **** {
ARM GAS  C:\Users\ikomb\AppData\Local\Temp\ccNVjT3c.s 			page 24


1012:Generated_Source\PSoC6\pdl\drivers/peripheral/i2s/cy_i2s.h ****     CY_ASSERT_L2(CY_I2S_IS_INTR_MASK_VALID(interrupt));
1013:Generated_Source\PSoC6\pdl\drivers/peripheral/i2s/cy_i2s.h ****     base->INTR_SET = interrupt;
1014:Generated_Source\PSoC6\pdl\drivers/peripheral/i2s/cy_i2s.h **** }
1015:Generated_Source\PSoC6\pdl\drivers/peripheral/i2s/cy_i2s.h **** 
1016:Generated_Source\PSoC6\pdl\drivers/peripheral/i2s/cy_i2s.h **** 
1017:Generated_Source\PSoC6\pdl\drivers/peripheral/i2s/cy_i2s.h **** /*******************************************************************************
1018:Generated_Source\PSoC6\pdl\drivers/peripheral/i2s/cy_i2s.h **** * Function Name: Cy_I2S_GetInterruptMask
1019:Generated_Source\PSoC6\pdl\drivers/peripheral/i2s/cy_i2s.h **** ****************************************************************************//**
1020:Generated_Source\PSoC6\pdl\drivers/peripheral/i2s/cy_i2s.h **** *
1021:Generated_Source\PSoC6\pdl\drivers/peripheral/i2s/cy_i2s.h **** * Returns the interrupt mask (a content of the INTR_MASK register).
1022:Generated_Source\PSoC6\pdl\drivers/peripheral/i2s/cy_i2s.h **** *
1023:Generated_Source\PSoC6\pdl\drivers/peripheral/i2s/cy_i2s.h **** * \param base The pointer to the I2S instance address.
1024:Generated_Source\PSoC6\pdl\drivers/peripheral/i2s/cy_i2s.h **** *
1025:Generated_Source\PSoC6\pdl\drivers/peripheral/i2s/cy_i2s.h **** * \return The interrupt bit mask \ref group_i2s_macros_intrerrupt_masks.
1026:Generated_Source\PSoC6\pdl\drivers/peripheral/i2s/cy_i2s.h **** *
1027:Generated_Source\PSoC6\pdl\drivers/peripheral/i2s/cy_i2s.h **** * \funcusage
1028:Generated_Source\PSoC6\pdl\drivers/peripheral/i2s/cy_i2s.h **** * \snippet i2s/i2s_v2_0_sut_00.cydsn/main_cm4.c snippet_Cy_I2S_GetInterruptMask
1029:Generated_Source\PSoC6\pdl\drivers/peripheral/i2s/cy_i2s.h **** *
1030:Generated_Source\PSoC6\pdl\drivers/peripheral/i2s/cy_i2s.h **** *******************************************************************************/
1031:Generated_Source\PSoC6\pdl\drivers/peripheral/i2s/cy_i2s.h **** __STATIC_INLINE uint32_t Cy_I2S_GetInterruptMask(I2S_Type const * base)
1032:Generated_Source\PSoC6\pdl\drivers/peripheral/i2s/cy_i2s.h **** {
 295              		.loc 1 1032 0
 296              		.cfi_startproc
 297              		@ args = 0, pretend = 0, frame = 8
 298              		@ frame_needed = 1, uses_anonymous_args = 0
 299              		@ link register save eliminated.
 300 0000 80B4     		push	{r7}
 301              		.cfi_def_cfa_offset 4
 302              		.cfi_offset 7, -4
 303 0002 83B0     		sub	sp, sp, #12
 304              		.cfi_def_cfa_offset 16
 305 0004 00AF     		add	r7, sp, #0
 306              		.cfi_def_cfa_register 7
 307 0006 7860     		str	r0, [r7, #4]
1033:Generated_Source\PSoC6\pdl\drivers/peripheral/i2s/cy_i2s.h ****     return (base->INTR_MASK);
 308              		.loc 1 1033 0
 309 0008 7B68     		ldr	r3, [r7, #4]
 310 000a D3F8083F 		ldr	r3, [r3, #3848]
1034:Generated_Source\PSoC6\pdl\drivers/peripheral/i2s/cy_i2s.h **** }
 311              		.loc 1 1034 0
 312 000e 1846     		mov	r0, r3
 313 0010 0C37     		adds	r7, r7, #12
 314              		.cfi_def_cfa_offset 4
 315 0012 BD46     		mov	sp, r7
 316              		.cfi_def_cfa_register 13
 317              		@ sp needed
 318 0014 5DF8047B 		ldr	r7, [sp], #4
 319              		.cfi_restore 7
 320              		.cfi_def_cfa_offset 0
 321 0018 7047     		bx	lr
 322              		.cfi_endproc
 323              	.LFE183:
 324              		.size	Cy_I2S_GetInterruptMask, .-Cy_I2S_GetInterruptMask
 325 001a 00BF     		.section	.text.Cy_I2S_SetInterruptMask,"ax",%progbits
 326              		.align	2
 327              		.thumb
 328              		.thumb_func
ARM GAS  C:\Users\ikomb\AppData\Local\Temp\ccNVjT3c.s 			page 25


 329              		.type	Cy_I2S_SetInterruptMask, %function
 330              	Cy_I2S_SetInterruptMask:
 331              	.LFB184:
1035:Generated_Source\PSoC6\pdl\drivers/peripheral/i2s/cy_i2s.h **** 
1036:Generated_Source\PSoC6\pdl\drivers/peripheral/i2s/cy_i2s.h **** 
1037:Generated_Source\PSoC6\pdl\drivers/peripheral/i2s/cy_i2s.h **** /*******************************************************************************
1038:Generated_Source\PSoC6\pdl\drivers/peripheral/i2s/cy_i2s.h **** * Function Name: Cy_I2S_SetInterruptMask
1039:Generated_Source\PSoC6\pdl\drivers/peripheral/i2s/cy_i2s.h **** ****************************************************************************//**
1040:Generated_Source\PSoC6\pdl\drivers/peripheral/i2s/cy_i2s.h **** *
1041:Generated_Source\PSoC6\pdl\drivers/peripheral/i2s/cy_i2s.h **** * Sets one or more interrupt factor masks (the INTR_MASK register).
1042:Generated_Source\PSoC6\pdl\drivers/peripheral/i2s/cy_i2s.h **** *
1043:Generated_Source\PSoC6\pdl\drivers/peripheral/i2s/cy_i2s.h **** * \param base      The pointer to the I2S instance address.
1044:Generated_Source\PSoC6\pdl\drivers/peripheral/i2s/cy_i2s.h **** *
1045:Generated_Source\PSoC6\pdl\drivers/peripheral/i2s/cy_i2s.h **** * \param interrupt Interrupt bit mask \ref group_i2s_macros_intrerrupt_masks.
1046:Generated_Source\PSoC6\pdl\drivers/peripheral/i2s/cy_i2s.h **** *
1047:Generated_Source\PSoC6\pdl\drivers/peripheral/i2s/cy_i2s.h **** * \funcusage
1048:Generated_Source\PSoC6\pdl\drivers/peripheral/i2s/cy_i2s.h **** * \snippet i2s/i2s_v2_0_sut_00.cydsn/main_cm4.c snippet_Cy_I2S_SetInterruptMask
1049:Generated_Source\PSoC6\pdl\drivers/peripheral/i2s/cy_i2s.h **** *
1050:Generated_Source\PSoC6\pdl\drivers/peripheral/i2s/cy_i2s.h **** *******************************************************************************/
1051:Generated_Source\PSoC6\pdl\drivers/peripheral/i2s/cy_i2s.h **** __STATIC_INLINE void Cy_I2S_SetInterruptMask(I2S_Type * base, uint32_t interrupt)
1052:Generated_Source\PSoC6\pdl\drivers/peripheral/i2s/cy_i2s.h **** {
 332              		.loc 1 1052 0
 333              		.cfi_startproc
 334              		@ args = 0, pretend = 0, frame = 8
 335              		@ frame_needed = 1, uses_anonymous_args = 0
 336 0000 80B5     		push	{r7, lr}
 337              		.cfi_def_cfa_offset 8
 338              		.cfi_offset 7, -8
 339              		.cfi_offset 14, -4
 340 0002 82B0     		sub	sp, sp, #8
 341              		.cfi_def_cfa_offset 16
 342 0004 00AF     		add	r7, sp, #0
 343              		.cfi_def_cfa_register 7
 344 0006 7860     		str	r0, [r7, #4]
 345 0008 3960     		str	r1, [r7]
1053:Generated_Source\PSoC6\pdl\drivers/peripheral/i2s/cy_i2s.h ****     CY_ASSERT_L2(CY_I2S_IS_INTR_MASK_VALID(interrupt));
 346              		.loc 1 1053 0
 347 000a 3A68     		ldr	r2, [r7]
 348 000c 084B     		ldr	r3, .L15
 349 000e 1340     		ands	r3, r3, r2
 350 0010 002B     		cmp	r3, #0
 351 0012 04D0     		beq	.L14
 352              		.loc 1 1053 0 is_stmt 0 discriminator 1
 353 0014 40F21D41 		movw	r1, #1053
 354 0018 0648     		ldr	r0, .L15+4
 355 001a FFF7FEFF 		bl	Cy_SysLib_AssertFailed
 356              	.L14:
1054:Generated_Source\PSoC6\pdl\drivers/peripheral/i2s/cy_i2s.h ****     base->INTR_MASK = interrupt;
 357              		.loc 1 1054 0 is_stmt 1
 358 001e 7B68     		ldr	r3, [r7, #4]
 359 0020 3A68     		ldr	r2, [r7]
 360 0022 C3F8082F 		str	r2, [r3, #3848]
1055:Generated_Source\PSoC6\pdl\drivers/peripheral/i2s/cy_i2s.h **** }
 361              		.loc 1 1055 0
 362 0026 00BF     		nop
 363 0028 0837     		adds	r7, r7, #8
 364              		.cfi_def_cfa_offset 8
ARM GAS  C:\Users\ikomb\AppData\Local\Temp\ccNVjT3c.s 			page 26


 365 002a BD46     		mov	sp, r7
 366              		.cfi_def_cfa_register 13
 367              		@ sp needed
 368 002c 80BD     		pop	{r7, pc}
 369              	.L16:
 370 002e 00BF     		.align	2
 371              	.L15:
 372 0030 8CFE92FE 		.word	-23921012
 373 0034 00000000 		.word	.LC0
 374              		.cfi_endproc
 375              	.LFE184:
 376              		.size	Cy_I2S_SetInterruptMask, .-Cy_I2S_SetInterruptMask
 377              		.global	I2S_config
 378              		.section	.rodata
 379 003b 00       		.align	2
 380              		.type	I2S_config, %object
 381              		.size	I2S_config, 40
 382              	I2S_config:
 383 003c 01       		.byte	1
 384 003d 00       		.byte	0
 385 003e 01       		.byte	1
 386 003f 00       		.byte	0
 387 0040 08       		.byte	8
 388 0041 00       		.byte	0
 389 0042 01       		.byte	1
 390 0043 01       		.byte	1
 391 0044 01       		.byte	1
 392 0045 00       		.byte	0
 393 0046 0000     		.space	2
 394 0048 FFFFFFFF 		.word	-1
 395 004c 00       		.byte	0
 396 004d 00       		.byte	0
 397 004e 00       		.byte	0
 398 004f 02       		.byte	2
 399 0050 01       		.byte	1
 400 0051 01       		.byte	1
 401 0052 01       		.byte	1
 402 0053 FD       		.byte	-3
 403 0054 01       		.byte	1
 404 0055 01       		.byte	1
 405 0056 01       		.byte	1
 406 0057 00       		.byte	0
 407 0058 FFFFFFFF 		.word	-1
 408 005c 00       		.byte	0
 409 005d 00       		.byte	0
 410 005e 00       		.byte	0
 411 005f 02       		.byte	2
 412 0060 01       		.byte	1
 413 0061 01       		.byte	1
 414 0062 00       		.byte	0
 415 0063 00       		.byte	0
 416              		.global	I2S_initVar
 417              		.bss
 418              		.type	I2S_initVar, %object
 419              		.size	I2S_initVar, 1
 420              	I2S_initVar:
 421 0000 00       		.space	1
ARM GAS  C:\Users\ikomb\AppData\Local\Temp\ccNVjT3c.s 			page 27


 422              		.comm	I2S_backup,8,4
 423              		.section	.text.I2S_Start,"ax",%progbits
 424              		.align	2
 425              		.global	I2S_Start
 426              		.thumb
 427              		.thumb_func
 428              		.type	I2S_Start, %function
 429              	I2S_Start:
 430              	.LFB212:
 431              		.file 2 "Generated_Source\\PSoC6\\I2S.c"
   1:Generated_Source\PSoC6/I2S.c **** /***************************************************************************//**
   2:Generated_Source\PSoC6/I2S.c **** * \file     I2S.c
   3:Generated_Source\PSoC6/I2S.c **** * \version  2.0
   4:Generated_Source\PSoC6/I2S.c **** *
   5:Generated_Source\PSoC6/I2S.c **** * \brief
   6:Generated_Source\PSoC6/I2S.c **** *  This file provides the source code to the API for the
   7:Generated_Source\PSoC6/I2S.c **** *  I2S component.
   8:Generated_Source\PSoC6/I2S.c **** *
   9:Generated_Source\PSoC6/I2S.c **** ********************************************************************************
  10:Generated_Source\PSoC6/I2S.c **** * \copyright
  11:Generated_Source\PSoC6/I2S.c **** * Copyright 2016-2017, Cypress Semiconductor Corporation.  All rights reserved.
  12:Generated_Source\PSoC6/I2S.c **** * You may use this file only in accordance with the license, terms, conditions,
  13:Generated_Source\PSoC6/I2S.c **** * disclaimers, and limitations in the end user license agreement accompanying
  14:Generated_Source\PSoC6/I2S.c **** * the software package with which this file was provided.
  15:Generated_Source\PSoC6/I2S.c **** *******************************************************************************/
  16:Generated_Source\PSoC6/I2S.c **** 
  17:Generated_Source\PSoC6/I2S.c **** #include "I2S.h"
  18:Generated_Source\PSoC6/I2S.c **** 
  19:Generated_Source\PSoC6/I2S.c **** #if defined(__cplusplus)
  20:Generated_Source\PSoC6/I2S.c **** extern "C" {
  21:Generated_Source\PSoC6/I2S.c **** #endif
  22:Generated_Source\PSoC6/I2S.c **** 
  23:Generated_Source\PSoC6/I2S.c **** /***************************************
  24:Generated_Source\PSoC6/I2S.c **** *     Global variables
  25:Generated_Source\PSoC6/I2S.c **** ***************************************/
  26:Generated_Source\PSoC6/I2S.c **** 
  27:Generated_Source\PSoC6/I2S.c **** /** An instance-specific configuration structure.
  28:Generated_Source\PSoC6/I2S.c **** *   It should be used in the associated Cy_I2S_Init() function.
  29:Generated_Source\PSoC6/I2S.c **** */
  30:Generated_Source\PSoC6/I2S.c **** const cy_stc_i2s_config_t I2S_config =
  31:Generated_Source\PSoC6/I2S.c **** {
  32:Generated_Source\PSoC6/I2S.c ****     .txEnabled          = true,
  33:Generated_Source\PSoC6/I2S.c ****     .rxEnabled          = false,
  34:Generated_Source\PSoC6/I2S.c ****     .txDmaTrigger       = true,
  35:Generated_Source\PSoC6/I2S.c ****     .rxDmaTrigger       = false,
  36:Generated_Source\PSoC6/I2S.c ****     .clkDiv             = 8U,
  37:Generated_Source\PSoC6/I2S.c ****     .extClk             = false,
  38:Generated_Source\PSoC6/I2S.c ****     .txMasterMode       = true,
  39:Generated_Source\PSoC6/I2S.c ****     .txAlignment        = CY_I2S_I2S_MODE,
  40:Generated_Source\PSoC6/I2S.c ****     .txWsPulseWidth     = CY_I2S_WS_ONE_CHANNEL_LENGTH,
  41:Generated_Source\PSoC6/I2S.c ****     .txWatchdogEnable   = false,
  42:Generated_Source\PSoC6/I2S.c ****     .txWatchdogValue    = 0xFFFFFFFFUL,
  43:Generated_Source\PSoC6/I2S.c ****     .txSdoLatchingTime  = false,
  44:Generated_Source\PSoC6/I2S.c ****     .txSckoInversion    = false,
  45:Generated_Source\PSoC6/I2S.c ****     .txSckiInversion    = false,
  46:Generated_Source\PSoC6/I2S.c ****     .txChannels         = 2U,
  47:Generated_Source\PSoC6/I2S.c ****     .txChannelLength    = CY_I2S_LEN16,
ARM GAS  C:\Users\ikomb\AppData\Local\Temp\ccNVjT3c.s 			page 28


  48:Generated_Source\PSoC6/I2S.c ****     .txWordLength       = CY_I2S_LEN16,
  49:Generated_Source\PSoC6/I2S.c ****     .txOverheadValue    = CY_I2S_OVHDATA_ONE,
  50:Generated_Source\PSoC6/I2S.c ****     .txFifoTriggerLevel = 253U,
  51:Generated_Source\PSoC6/I2S.c ****     .rxMasterMode       = true,
  52:Generated_Source\PSoC6/I2S.c ****     .rxAlignment        = CY_I2S_I2S_MODE,
  53:Generated_Source\PSoC6/I2S.c ****     .rxWsPulseWidth     = CY_I2S_WS_ONE_CHANNEL_LENGTH,
  54:Generated_Source\PSoC6/I2S.c ****     .rxWatchdogEnable   = false,
  55:Generated_Source\PSoC6/I2S.c ****     .rxWatchdogValue    = 0xFFFFFFFFUL,
  56:Generated_Source\PSoC6/I2S.c ****     .rxSdiLatchingTime  = false,
  57:Generated_Source\PSoC6/I2S.c ****     .rxSckoInversion    = false,
  58:Generated_Source\PSoC6/I2S.c ****     .rxSckiInversion    = false,
  59:Generated_Source\PSoC6/I2S.c ****     .rxChannels         = 2U,
  60:Generated_Source\PSoC6/I2S.c ****     .rxChannelLength    = CY_I2S_LEN16,
  61:Generated_Source\PSoC6/I2S.c ****     .rxWordLength       = CY_I2S_LEN16,
  62:Generated_Source\PSoC6/I2S.c ****     .rxSignExtension    = false,
  63:Generated_Source\PSoC6/I2S.c ****     .rxFifoTriggerLevel = 0U
  64:Generated_Source\PSoC6/I2S.c **** };
  65:Generated_Source\PSoC6/I2S.c **** 
  66:Generated_Source\PSoC6/I2S.c **** /* An internal variable indicates whether the I2S has been
  67:Generated_Source\PSoC6/I2S.c **** *  initialized. The variable is initialized to 0 and set to 1 the first time
  68:Generated_Source\PSoC6/I2S.c **** *  I2S_Start() is called. This allows the Component to
  69:Generated_Source\PSoC6/I2S.c **** *  restart without reinitialization after the first call to the
  70:Generated_Source\PSoC6/I2S.c **** *  I2S_Start() routine. The variable is cleared by the
  71:Generated_Source\PSoC6/I2S.c **** *  I2S_DeInit() routine call.
  72:Generated_Source\PSoC6/I2S.c **** */
  73:Generated_Source\PSoC6/I2S.c **** uint8_t I2S_initVar = 0U;
  74:Generated_Source\PSoC6/I2S.c **** 
  75:Generated_Source\PSoC6/I2S.c **** /* A structure to save the current TX/RX enable/disable Component state and
  76:Generated_Source\PSoC6/I2S.c **** *  interrupt settings (the Component settings that can be changed on the fly
  77:Generated_Source\PSoC6/I2S.c **** *  by the component API) during a stop/start sequence, and also can be used as
  78:Generated_Source\PSoC6/I2S.c **** *  a SysPm callback context.
  79:Generated_Source\PSoC6/I2S.c **** */
  80:Generated_Source\PSoC6/I2S.c **** cy_stc_i2s_context_t I2S_backup;
  81:Generated_Source\PSoC6/I2S.c **** 
  82:Generated_Source\PSoC6/I2S.c **** 
  83:Generated_Source\PSoC6/I2S.c **** /*******************************************************************************
  84:Generated_Source\PSoC6/I2S.c **** *     Functions
  85:Generated_Source\PSoC6/I2S.c **** *******************************************************************************/
  86:Generated_Source\PSoC6/I2S.c **** 
  87:Generated_Source\PSoC6/I2S.c **** 
  88:Generated_Source\PSoC6/I2S.c **** /*******************************************************************************
  89:Generated_Source\PSoC6/I2S.c **** * Function Name: I2S_Start
  90:Generated_Source\PSoC6/I2S.c **** ****************************************************************************//**
  91:Generated_Source\PSoC6/I2S.c **** *
  92:Generated_Source\PSoC6/I2S.c **** * Calls the Cy_I2S_Init() function when called the first time or after the
  93:Generated_Source\PSoC6/I2S.c **** * \ref I2S_DeInit() call, then clears FIFOs, fills the first TX 
  94:Generated_Source\PSoC6/I2S.c **** * FIFO frame with zeros, enables the TX and/or RX (accordingly to the
  95:Generated_Source\PSoC6/I2S.c **** * configuration) and enables interrupts. For subsequent calls (after the
  96:Generated_Source\PSoC6/I2S.c **** * \ref I2S_Stop() call) the configuration is left unchanged, the
  97:Generated_Source\PSoC6/I2S.c **** * FIFOs are cleared (with the first TX FIFO frame filled with zeros), TX and/or
  98:Generated_Source\PSoC6/I2S.c **** * RX operation and interrupts are enabled accordingly to the state before
  99:Generated_Source\PSoC6/I2S.c **** * previous \ref I2S_Stop() calling.
 100:Generated_Source\PSoC6/I2S.c **** *
 101:Generated_Source\PSoC6/I2S.c **** *******************************************************************************/
 102:Generated_Source\PSoC6/I2S.c **** void I2S_Start(void)
 103:Generated_Source\PSoC6/I2S.c **** {
 432              		.loc 2 103 0
ARM GAS  C:\Users\ikomb\AppData\Local\Temp\ccNVjT3c.s 			page 29


 433              		.cfi_startproc
 434              		@ args = 0, pretend = 0, frame = 8
 435              		@ frame_needed = 1, uses_anonymous_args = 0
 436 0000 80B5     		push	{r7, lr}
 437              		.cfi_def_cfa_offset 8
 438              		.cfi_offset 7, -8
 439              		.cfi_offset 14, -4
 440 0002 82B0     		sub	sp, sp, #8
 441              		.cfi_def_cfa_offset 16
 442 0004 00AF     		add	r7, sp, #0
 443              		.cfi_def_cfa_register 7
 104:Generated_Source\PSoC6/I2S.c **** #if(I2S_TX_ENABLED)
 105:Generated_Source\PSoC6/I2S.c ****     /* The local Tx channel counter to set the first data transmission */
 106:Generated_Source\PSoC6/I2S.c ****     uint32_t locChanCnt;
 107:Generated_Source\PSoC6/I2S.c **** #endif /* I2S_TX_ENABLED */
 108:Generated_Source\PSoC6/I2S.c ****     
 109:Generated_Source\PSoC6/I2S.c ****     if(0U == I2S_initVar)
 444              		.loc 2 109 0
 445 0006 1E4B     		ldr	r3, .L22
 446 0008 1B78     		ldrb	r3, [r3]	@ zero_extendqisi2
 447 000a 002B     		cmp	r3, #0
 448 000c 0CD1     		bne	.L18
 110:Generated_Source\PSoC6/I2S.c ****     {
 111:Generated_Source\PSoC6/I2S.c ****         I2S_initVar = 1U;
 449              		.loc 2 111 0
 450 000e 1C4B     		ldr	r3, .L22
 451 0010 0122     		movs	r2, #1
 452 0012 1A70     		strb	r2, [r3]
 112:Generated_Source\PSoC6/I2S.c ****         I2S_backup.enableState = I2S_CMD;
 453              		.loc 2 112 0
 454 0014 1B4B     		ldr	r3, .L22+4
 455 0016 0122     		movs	r2, #1
 456 0018 1A60     		str	r2, [r3]
 113:Generated_Source\PSoC6/I2S.c ****         I2S_backup.interruptMask = I2S_INT_MASK;
 457              		.loc 2 113 0
 458 001a 1A4B     		ldr	r3, .L22+4
 459 001c 0022     		movs	r2, #0
 460 001e 5A60     		str	r2, [r3, #4]
 114:Generated_Source\PSoC6/I2S.c **** 
 115:Generated_Source\PSoC6/I2S.c ****         (void)Cy_I2S_Init(I2S_HW, &I2S_config);
 461              		.loc 2 115 0
 462 0020 1949     		ldr	r1, .L22+8
 463 0022 1A48     		ldr	r0, .L22+12
 464 0024 FFF7FEFF 		bl	Cy_I2S_Init
 465              	.L18:
 116:Generated_Source\PSoC6/I2S.c ****     }
 117:Generated_Source\PSoC6/I2S.c **** 
 118:Generated_Source\PSoC6/I2S.c **** #if(I2S_TX_ENABLED)
 119:Generated_Source\PSoC6/I2S.c ****     if(0UL != (I2S_backup.enableState & I2S_CMD_TX_START_Msk))
 466              		.loc 2 119 0
 467 0028 164B     		ldr	r3, .L22+4
 468 002a 1B68     		ldr	r3, [r3]
 469 002c 03F00103 		and	r3, r3, #1
 470 0030 002B     		cmp	r3, #0
 471 0032 14D0     		beq	.L19
 120:Generated_Source\PSoC6/I2S.c ****     {
 121:Generated_Source\PSoC6/I2S.c ****         Cy_I2S_ClearTxFifo(I2S_HW);
ARM GAS  C:\Users\ikomb\AppData\Local\Temp\ccNVjT3c.s 			page 30


 472              		.loc 2 121 0
 473 0034 1548     		ldr	r0, .L22+12
 474 0036 FFF7FEFF 		bl	Cy_I2S_ClearTxFifo
 122:Generated_Source\PSoC6/I2S.c ****         
 123:Generated_Source\PSoC6/I2S.c ****         /* The first transmission data setting. Write at least one frame to the FIFO */
 124:Generated_Source\PSoC6/I2S.c ****         for(locChanCnt = 0UL; locChanCnt < I2S_config.txChannels; locChanCnt++)
 475              		.loc 2 124 0
 476 003a 0023     		movs	r3, #0
 477 003c 7B60     		str	r3, [r7, #4]
 478 003e 06E0     		b	.L20
 479              	.L21:
 125:Generated_Source\PSoC6/I2S.c ****         {
 126:Generated_Source\PSoC6/I2S.c ****             Cy_I2S_WriteTxData(I2S_HW, 0UL);
 480              		.loc 2 126 0 discriminator 3
 481 0040 0021     		movs	r1, #0
 482 0042 1248     		ldr	r0, .L22+12
 483 0044 FFF7FEFF 		bl	Cy_I2S_WriteTxData
 124:Generated_Source\PSoC6/I2S.c ****         {
 484              		.loc 2 124 0 discriminator 3
 485 0048 7B68     		ldr	r3, [r7, #4]
 486 004a 0133     		adds	r3, r3, #1
 487 004c 7B60     		str	r3, [r7, #4]
 488              	.L20:
 124:Generated_Source\PSoC6/I2S.c ****         {
 489              		.loc 2 124 0 is_stmt 0 discriminator 1
 490 004e 0223     		movs	r3, #2
 491 0050 1A46     		mov	r2, r3
 492 0052 7B68     		ldr	r3, [r7, #4]
 493 0054 9A42     		cmp	r2, r3
 494 0056 F3D8     		bhi	.L21
 127:Generated_Source\PSoC6/I2S.c ****         }
 128:Generated_Source\PSoC6/I2S.c ****         
 129:Generated_Source\PSoC6/I2S.c ****         Cy_I2S_EnableTx(I2S_HW);
 495              		.loc 2 129 0 is_stmt 1
 496 0058 0C48     		ldr	r0, .L22+12
 497 005a FFF7FEFF 		bl	Cy_I2S_EnableTx
 498              	.L19:
 130:Generated_Source\PSoC6/I2S.c ****     }
 131:Generated_Source\PSoC6/I2S.c **** #endif /* I2S_TX_ENABLED */
 132:Generated_Source\PSoC6/I2S.c **** 
 133:Generated_Source\PSoC6/I2S.c **** #if(I2S_RX_ENABLED)
 134:Generated_Source\PSoC6/I2S.c ****     if(0UL != (I2S_backup.enableState & I2S_CMD_RX_START_Msk))
 135:Generated_Source\PSoC6/I2S.c ****     {
 136:Generated_Source\PSoC6/I2S.c ****         Cy_I2S_ClearRxFifo(I2S_HW);
 137:Generated_Source\PSoC6/I2S.c ****         
 138:Generated_Source\PSoC6/I2S.c ****         Cy_I2S_EnableRx(I2S_HW);
 139:Generated_Source\PSoC6/I2S.c ****     }
 140:Generated_Source\PSoC6/I2S.c **** #endif /* I2S_TX_ENABLED */
 141:Generated_Source\PSoC6/I2S.c ****     
 142:Generated_Source\PSoC6/I2S.c ****     /* Clear possible pending interrupts */
 143:Generated_Source\PSoC6/I2S.c ****     Cy_I2S_ClearInterrupt(I2S_HW, I2S_backup.interruptMask);
 499              		.loc 2 143 0
 500 005e 094B     		ldr	r3, .L22+4
 501 0060 5B68     		ldr	r3, [r3, #4]
 502 0062 1946     		mov	r1, r3
 503 0064 0948     		ldr	r0, .L22+12
 504 0066 FFF7FEFF 		bl	Cy_I2S_ClearInterrupt
ARM GAS  C:\Users\ikomb\AppData\Local\Temp\ccNVjT3c.s 			page 31


 144:Generated_Source\PSoC6/I2S.c **** 
 145:Generated_Source\PSoC6/I2S.c ****     /* Enable interrupts */
 146:Generated_Source\PSoC6/I2S.c ****     Cy_I2S_SetInterruptMask(I2S_HW, I2S_backup.interruptMask);
 505              		.loc 2 146 0
 506 006a 064B     		ldr	r3, .L22+4
 507 006c 5B68     		ldr	r3, [r3, #4]
 508 006e 1946     		mov	r1, r3
 509 0070 0648     		ldr	r0, .L22+12
 510 0072 FFF7FEFF 		bl	Cy_I2S_SetInterruptMask
 147:Generated_Source\PSoC6/I2S.c **** }
 511              		.loc 2 147 0
 512 0076 00BF     		nop
 513 0078 0837     		adds	r7, r7, #8
 514              		.cfi_def_cfa_offset 8
 515 007a BD46     		mov	sp, r7
 516              		.cfi_def_cfa_register 13
 517              		@ sp needed
 518 007c 80BD     		pop	{r7, pc}
 519              	.L23:
 520 007e 00BF     		.align	2
 521              	.L22:
 522 0080 00000000 		.word	I2S_initVar
 523 0084 00000000 		.word	I2S_backup
 524 0088 00000000 		.word	I2S_config
 525 008c 0000A142 		.word	1117847552
 526              		.cfi_endproc
 527              	.LFE212:
 528              		.size	I2S_Start, .-I2S_Start
 529              		.section	.text.I2S_Stop,"ax",%progbits
 530              		.align	2
 531              		.global	I2S_Stop
 532              		.thumb
 533              		.thumb_func
 534              		.type	I2S_Stop, %function
 535              	I2S_Stop:
 536              	.LFB213:
 148:Generated_Source\PSoC6/I2S.c **** 
 149:Generated_Source\PSoC6/I2S.c **** 
 150:Generated_Source\PSoC6/I2S.c **** /*******************************************************************************
 151:Generated_Source\PSoC6/I2S.c **** * Function Name: I2S_Stop
 152:Generated_Source\PSoC6/I2S.c **** ****************************************************************************//**
 153:Generated_Source\PSoC6/I2S.c **** *
 154:Generated_Source\PSoC6/I2S.c **** * Saves the current TX/RX/interrupts state (which can be changed in runtime by
 155:Generated_Source\PSoC6/I2S.c **** * the PDL API) and then disables TX and/or RX operation and interrupts.
 156:Generated_Source\PSoC6/I2S.c **** *
 157:Generated_Source\PSoC6/I2S.c **** *******************************************************************************/
 158:Generated_Source\PSoC6/I2S.c **** void I2S_Stop(void)
 159:Generated_Source\PSoC6/I2S.c **** {
 537              		.loc 2 159 0
 538              		.cfi_startproc
 539              		@ args = 0, pretend = 0, frame = 0
 540              		@ frame_needed = 1, uses_anonymous_args = 0
 541 0000 80B5     		push	{r7, lr}
 542              		.cfi_def_cfa_offset 8
 543              		.cfi_offset 7, -8
 544              		.cfi_offset 14, -4
 545 0002 00AF     		add	r7, sp, #0
ARM GAS  C:\Users\ikomb\AppData\Local\Temp\ccNVjT3c.s 			page 32


 546              		.cfi_def_cfa_register 7
 160:Generated_Source\PSoC6/I2S.c ****     if(0UL != ((I2S_CMD_TX_START_Msk | I2S_CMD_RX_START_Msk) & Cy_I2S_GetCurrentState(I2S_HW)))
 547              		.loc 2 160 0
 548 0004 1148     		ldr	r0, .L28
 549 0006 FFF7FEFF 		bl	Cy_I2S_GetCurrentState
 550 000a 0346     		mov	r3, r0
 551 000c 03F00113 		and	r3, r3, #65537
 552 0010 002B     		cmp	r3, #0
 553 0012 18D0     		beq	.L27
 161:Generated_Source\PSoC6/I2S.c ****     {
 162:Generated_Source\PSoC6/I2S.c ****         /* Store the current component state */
 163:Generated_Source\PSoC6/I2S.c ****         I2S_backup.enableState = Cy_I2S_GetCurrentState(I2S_HW);
 554              		.loc 2 163 0
 555 0014 0D48     		ldr	r0, .L28
 556 0016 FFF7FEFF 		bl	Cy_I2S_GetCurrentState
 557 001a 0246     		mov	r2, r0
 558 001c 0C4B     		ldr	r3, .L28+4
 559 001e 1A60     		str	r2, [r3]
 164:Generated_Source\PSoC6/I2S.c ****         I2S_backup.interruptMask = Cy_I2S_GetInterruptMask(I2S_HW);
 560              		.loc 2 164 0
 561 0020 0A48     		ldr	r0, .L28
 562 0022 FFF7FEFF 		bl	Cy_I2S_GetInterruptMask
 563 0026 0246     		mov	r2, r0
 564 0028 094B     		ldr	r3, .L28+4
 565 002a 5A60     		str	r2, [r3, #4]
 165:Generated_Source\PSoC6/I2S.c ****     
 166:Generated_Source\PSoC6/I2S.c ****     #if(I2S_TX_ENABLED)
 167:Generated_Source\PSoC6/I2S.c ****         if(0UL != (I2S_backup.enableState & I2S_CMD_TX_START_Msk))
 566              		.loc 2 167 0
 567 002c 084B     		ldr	r3, .L28+4
 568 002e 1B68     		ldr	r3, [r3]
 569 0030 03F00103 		and	r3, r3, #1
 570 0034 002B     		cmp	r3, #0
 571 0036 02D0     		beq	.L26
 168:Generated_Source\PSoC6/I2S.c ****         {
 169:Generated_Source\PSoC6/I2S.c ****             Cy_I2S_DisableTx(I2S_HW);
 572              		.loc 2 169 0
 573 0038 0448     		ldr	r0, .L28
 574 003a FFF7FEFF 		bl	Cy_I2S_DisableTx
 575              	.L26:
 170:Generated_Source\PSoC6/I2S.c ****         }
 171:Generated_Source\PSoC6/I2S.c ****     #endif /* I2S_TX_ENABLED */
 172:Generated_Source\PSoC6/I2S.c **** 
 173:Generated_Source\PSoC6/I2S.c ****     #if(I2S_RX_ENABLED)
 174:Generated_Source\PSoC6/I2S.c ****         if(0UL != (I2S_backup.enableState & I2S_CMD_RX_START_Msk))
 175:Generated_Source\PSoC6/I2S.c ****         {
 176:Generated_Source\PSoC6/I2S.c ****             Cy_I2S_DisableRx(I2S_HW);
 177:Generated_Source\PSoC6/I2S.c ****         }
 178:Generated_Source\PSoC6/I2S.c ****     #endif /* I2S_RX_ENABLED */
 179:Generated_Source\PSoC6/I2S.c ****     
 180:Generated_Source\PSoC6/I2S.c ****         /* Disable interrupts */
 181:Generated_Source\PSoC6/I2S.c ****         Cy_I2S_SetInterruptMask(I2S_HW, 0UL);
 576              		.loc 2 181 0
 577 003e 0021     		movs	r1, #0
 578 0040 0248     		ldr	r0, .L28
 579 0042 FFF7FEFF 		bl	Cy_I2S_SetInterruptMask
 580              	.L27:
ARM GAS  C:\Users\ikomb\AppData\Local\Temp\ccNVjT3c.s 			page 33


 182:Generated_Source\PSoC6/I2S.c ****     }
 183:Generated_Source\PSoC6/I2S.c **** }
 581              		.loc 2 183 0
 582 0046 00BF     		nop
 583 0048 80BD     		pop	{r7, pc}
 584              	.L29:
 585 004a 00BF     		.align	2
 586              	.L28:
 587 004c 0000A142 		.word	1117847552
 588 0050 00000000 		.word	I2S_backup
 589              		.cfi_endproc
 590              	.LFE213:
 591              		.size	I2S_Stop, .-I2S_Stop
 592              		.text
 593              	.Letext0:
 594              		.file 3 "c:\\program files (x86)\\cypress\\psoc creator\\4.4\\psoc creator\\import\\gnu\\arm\\5.4.
 595              		.file 4 "c:\\program files (x86)\\cypress\\psoc creator\\4.4\\psoc creator\\import\\gnu\\arm\\5.4.
 596              		.file 5 "Generated_Source\\PSoC6\\pdl\\devices/psoc6/ip/cyip_i2s.h"
 597              		.file 6 "Generated_Source\\PSoC6\\pdl\\drivers/peripheral/syslib/cy_syslib.h"
 598              		.file 7 "Generated_Source\\PSoC6\\pdl\\cmsis/include/core_cm4.h"