ARM GAS  C:\Users\ikomb\AppData\Local\Temp\ccrLq7Qx.s 			page 1


   1              		.syntax unified
   2              		.cpu cortex-m4
   3              		.eabi_attribute 27, 1
   4              		.fpu fpv4-sp-d16
   5              		.eabi_attribute 20, 1
   6              		.eabi_attribute 21, 1
   7              		.eabi_attribute 23, 3
   8              		.eabi_attribute 24, 1
   9              		.eabi_attribute 25, 1
  10              		.eabi_attribute 26, 1
  11              		.eabi_attribute 30, 6
  12              		.eabi_attribute 34, 1
  13              		.eabi_attribute 18, 4
  14              		.thumb
  15              		.syntax unified
  16              		.file	"list.c"
  17              		.text
  18              	.Ltext0:
  19              		.cfi_sections	.debug_frame
  20              		.section	.text.vListInitialise,"ax",%progbits
  21              		.align	2
  22              		.global	vListInitialise
  23              		.thumb
  24              		.thumb_func
  25              		.type	vListInitialise, %function
  26              	vListInitialise:
  27              	.LFB129:
  28              		.file 1 "Generated_Source\\PSoC6\\pdl\\rtos\\FreeRTOS\\9.0.0\\Source\\list.c"
   1:Generated_Source\PSoC6\pdl\rtos\FreeRTOS\9.0.0\Source/list.c **** /*
   2:Generated_Source\PSoC6\pdl\rtos\FreeRTOS\9.0.0\Source/list.c ****     FreeRTOS V9.0.0 - Copyright (C) 2016 Real Time Engineers Ltd.
   3:Generated_Source\PSoC6\pdl\rtos\FreeRTOS\9.0.0\Source/list.c ****     All rights reserved
   4:Generated_Source\PSoC6\pdl\rtos\FreeRTOS\9.0.0\Source/list.c **** 
   5:Generated_Source\PSoC6\pdl\rtos\FreeRTOS\9.0.0\Source/list.c ****     VISIT http://www.FreeRTOS.org TO ENSURE YOU ARE USING THE LATEST VERSION.
   6:Generated_Source\PSoC6\pdl\rtos\FreeRTOS\9.0.0\Source/list.c **** 
   7:Generated_Source\PSoC6\pdl\rtos\FreeRTOS\9.0.0\Source/list.c ****     This file is part of the FreeRTOS distribution.
   8:Generated_Source\PSoC6\pdl\rtos\FreeRTOS\9.0.0\Source/list.c **** 
   9:Generated_Source\PSoC6\pdl\rtos\FreeRTOS\9.0.0\Source/list.c ****     FreeRTOS is free software; you can redistribute it and/or modify it under
  10:Generated_Source\PSoC6\pdl\rtos\FreeRTOS\9.0.0\Source/list.c ****     the terms of the GNU General Public License (version 2) as published by the
  11:Generated_Source\PSoC6\pdl\rtos\FreeRTOS\9.0.0\Source/list.c ****     Free Software Foundation >>>> AND MODIFIED BY <<<< the FreeRTOS exception.
  12:Generated_Source\PSoC6\pdl\rtos\FreeRTOS\9.0.0\Source/list.c **** 
  13:Generated_Source\PSoC6\pdl\rtos\FreeRTOS\9.0.0\Source/list.c ****     ***************************************************************************
  14:Generated_Source\PSoC6\pdl\rtos\FreeRTOS\9.0.0\Source/list.c ****     >>!   NOTE: The modification to the GPL is included to allow you to     !<<
  15:Generated_Source\PSoC6\pdl\rtos\FreeRTOS\9.0.0\Source/list.c ****     >>!   distribute a combined work that includes FreeRTOS without being   !<<
  16:Generated_Source\PSoC6\pdl\rtos\FreeRTOS\9.0.0\Source/list.c ****     >>!   obliged to provide the source code for proprietary components     !<<
  17:Generated_Source\PSoC6\pdl\rtos\FreeRTOS\9.0.0\Source/list.c ****     >>!   outside of the FreeRTOS kernel.                                   !<<
  18:Generated_Source\PSoC6\pdl\rtos\FreeRTOS\9.0.0\Source/list.c ****     ***************************************************************************
  19:Generated_Source\PSoC6\pdl\rtos\FreeRTOS\9.0.0\Source/list.c **** 
  20:Generated_Source\PSoC6\pdl\rtos\FreeRTOS\9.0.0\Source/list.c ****     FreeRTOS is distributed in the hope that it will be useful, but WITHOUT ANY
  21:Generated_Source\PSoC6\pdl\rtos\FreeRTOS\9.0.0\Source/list.c ****     WARRANTY; without even the implied warranty of MERCHANTABILITY or FITNESS
  22:Generated_Source\PSoC6\pdl\rtos\FreeRTOS\9.0.0\Source/list.c ****     FOR A PARTICULAR PURPOSE.  Full license text is available on the following
  23:Generated_Source\PSoC6\pdl\rtos\FreeRTOS\9.0.0\Source/list.c ****     link: http://www.freertos.org/a00114.html
  24:Generated_Source\PSoC6\pdl\rtos\FreeRTOS\9.0.0\Source/list.c **** 
  25:Generated_Source\PSoC6\pdl\rtos\FreeRTOS\9.0.0\Source/list.c ****     ***************************************************************************
  26:Generated_Source\PSoC6\pdl\rtos\FreeRTOS\9.0.0\Source/list.c ****      *                                                                       *
  27:Generated_Source\PSoC6\pdl\rtos\FreeRTOS\9.0.0\Source/list.c ****      *    FreeRTOS provides completely free yet professionally developed,    *
  28:Generated_Source\PSoC6\pdl\rtos\FreeRTOS\9.0.0\Source/list.c ****      *    robust, strictly quality controlled, supported, and cross          *
  29:Generated_Source\PSoC6\pdl\rtos\FreeRTOS\9.0.0\Source/list.c ****      *    platform software that is more than just the market leader, it     *
ARM GAS  C:\Users\ikomb\AppData\Local\Temp\ccrLq7Qx.s 			page 2


  30:Generated_Source\PSoC6\pdl\rtos\FreeRTOS\9.0.0\Source/list.c ****      *    is the industry's de facto standard.                               *
  31:Generated_Source\PSoC6\pdl\rtos\FreeRTOS\9.0.0\Source/list.c ****      *                                                                       *
  32:Generated_Source\PSoC6\pdl\rtos\FreeRTOS\9.0.0\Source/list.c ****      *    Help yourself get started quickly while simultaneously helping     *
  33:Generated_Source\PSoC6\pdl\rtos\FreeRTOS\9.0.0\Source/list.c ****      *    to support the FreeRTOS project by purchasing a FreeRTOS           *
  34:Generated_Source\PSoC6\pdl\rtos\FreeRTOS\9.0.0\Source/list.c ****      *    tutorial book, reference manual, or both:                          *
  35:Generated_Source\PSoC6\pdl\rtos\FreeRTOS\9.0.0\Source/list.c ****      *    http://www.FreeRTOS.org/Documentation                              *
  36:Generated_Source\PSoC6\pdl\rtos\FreeRTOS\9.0.0\Source/list.c ****      *                                                                       *
  37:Generated_Source\PSoC6\pdl\rtos\FreeRTOS\9.0.0\Source/list.c ****     ***************************************************************************
  38:Generated_Source\PSoC6\pdl\rtos\FreeRTOS\9.0.0\Source/list.c **** 
  39:Generated_Source\PSoC6\pdl\rtos\FreeRTOS\9.0.0\Source/list.c ****     http://www.FreeRTOS.org/FAQHelp.html - Having a problem?  Start by reading
  40:Generated_Source\PSoC6\pdl\rtos\FreeRTOS\9.0.0\Source/list.c ****     the FAQ page "My application does not run, what could be wrong?".  Have you
  41:Generated_Source\PSoC6\pdl\rtos\FreeRTOS\9.0.0\Source/list.c ****     defined configASSERT()?
  42:Generated_Source\PSoC6\pdl\rtos\FreeRTOS\9.0.0\Source/list.c **** 
  43:Generated_Source\PSoC6\pdl\rtos\FreeRTOS\9.0.0\Source/list.c ****     http://www.FreeRTOS.org/support - In return for receiving this top quality
  44:Generated_Source\PSoC6\pdl\rtos\FreeRTOS\9.0.0\Source/list.c ****     embedded software for free we request you assist our global community by
  45:Generated_Source\PSoC6\pdl\rtos\FreeRTOS\9.0.0\Source/list.c ****     participating in the support forum.
  46:Generated_Source\PSoC6\pdl\rtos\FreeRTOS\9.0.0\Source/list.c **** 
  47:Generated_Source\PSoC6\pdl\rtos\FreeRTOS\9.0.0\Source/list.c ****     http://www.FreeRTOS.org/training - Investing in training allows your team to
  48:Generated_Source\PSoC6\pdl\rtos\FreeRTOS\9.0.0\Source/list.c ****     be as productive as possible as early as possible.  Now you can receive
  49:Generated_Source\PSoC6\pdl\rtos\FreeRTOS\9.0.0\Source/list.c ****     FreeRTOS training directly from Richard Barry, CEO of Real Time Engineers
  50:Generated_Source\PSoC6\pdl\rtos\FreeRTOS\9.0.0\Source/list.c ****     Ltd, and the world's leading authority on the world's leading RTOS.
  51:Generated_Source\PSoC6\pdl\rtos\FreeRTOS\9.0.0\Source/list.c **** 
  52:Generated_Source\PSoC6\pdl\rtos\FreeRTOS\9.0.0\Source/list.c ****     http://www.FreeRTOS.org/plus - A selection of FreeRTOS ecosystem products,
  53:Generated_Source\PSoC6\pdl\rtos\FreeRTOS\9.0.0\Source/list.c ****     including FreeRTOS+Trace - an indispensable productivity tool, a DOS
  54:Generated_Source\PSoC6\pdl\rtos\FreeRTOS\9.0.0\Source/list.c ****     compatible FAT file system, and our tiny thread aware UDP/IP stack.
  55:Generated_Source\PSoC6\pdl\rtos\FreeRTOS\9.0.0\Source/list.c **** 
  56:Generated_Source\PSoC6\pdl\rtos\FreeRTOS\9.0.0\Source/list.c ****     http://www.FreeRTOS.org/labs - Where new FreeRTOS products go to incubate.
  57:Generated_Source\PSoC6\pdl\rtos\FreeRTOS\9.0.0\Source/list.c ****     Come and try FreeRTOS+TCP, our new open source TCP/IP stack for FreeRTOS.
  58:Generated_Source\PSoC6\pdl\rtos\FreeRTOS\9.0.0\Source/list.c **** 
  59:Generated_Source\PSoC6\pdl\rtos\FreeRTOS\9.0.0\Source/list.c ****     http://www.OpenRTOS.com - Real Time Engineers ltd. license FreeRTOS to High
  60:Generated_Source\PSoC6\pdl\rtos\FreeRTOS\9.0.0\Source/list.c ****     Integrity Systems ltd. to sell under the OpenRTOS brand.  Low cost OpenRTOS
  61:Generated_Source\PSoC6\pdl\rtos\FreeRTOS\9.0.0\Source/list.c ****     licenses offer ticketed support, indemnification and commercial middleware.
  62:Generated_Source\PSoC6\pdl\rtos\FreeRTOS\9.0.0\Source/list.c **** 
  63:Generated_Source\PSoC6\pdl\rtos\FreeRTOS\9.0.0\Source/list.c ****     http://www.SafeRTOS.com - High Integrity Systems also provide a safety
  64:Generated_Source\PSoC6\pdl\rtos\FreeRTOS\9.0.0\Source/list.c ****     engineered and independently SIL3 certified version for use in safety and
  65:Generated_Source\PSoC6\pdl\rtos\FreeRTOS\9.0.0\Source/list.c ****     mission critical applications that require provable dependability.
  66:Generated_Source\PSoC6\pdl\rtos\FreeRTOS\9.0.0\Source/list.c **** 
  67:Generated_Source\PSoC6\pdl\rtos\FreeRTOS\9.0.0\Source/list.c ****     1 tab == 4 spaces!
  68:Generated_Source\PSoC6\pdl\rtos\FreeRTOS\9.0.0\Source/list.c **** */
  69:Generated_Source\PSoC6\pdl\rtos\FreeRTOS\9.0.0\Source/list.c **** 
  70:Generated_Source\PSoC6\pdl\rtos\FreeRTOS\9.0.0\Source/list.c **** 
  71:Generated_Source\PSoC6\pdl\rtos\FreeRTOS\9.0.0\Source/list.c **** #include <stdlib.h>
  72:Generated_Source\PSoC6\pdl\rtos\FreeRTOS\9.0.0\Source/list.c **** #include "FreeRTOS.h"
  73:Generated_Source\PSoC6\pdl\rtos\FreeRTOS\9.0.0\Source/list.c **** #include "list.h"
  74:Generated_Source\PSoC6\pdl\rtos\FreeRTOS\9.0.0\Source/list.c **** 
  75:Generated_Source\PSoC6\pdl\rtos\FreeRTOS\9.0.0\Source/list.c **** /*-----------------------------------------------------------
  76:Generated_Source\PSoC6\pdl\rtos\FreeRTOS\9.0.0\Source/list.c ****  * PUBLIC LIST API documented in list.h
  77:Generated_Source\PSoC6\pdl\rtos\FreeRTOS\9.0.0\Source/list.c ****  *----------------------------------------------------------*/
  78:Generated_Source\PSoC6\pdl\rtos\FreeRTOS\9.0.0\Source/list.c **** 
  79:Generated_Source\PSoC6\pdl\rtos\FreeRTOS\9.0.0\Source/list.c **** void vListInitialise( List_t * const pxList )
  80:Generated_Source\PSoC6\pdl\rtos\FreeRTOS\9.0.0\Source/list.c **** {
  29              		.loc 1 80 0
  30              		.cfi_startproc
  31              		@ args = 0, pretend = 0, frame = 8
  32              		@ frame_needed = 1, uses_anonymous_args = 0
  33              		@ link register save eliminated.
  34 0000 80B4     		push	{r7}
ARM GAS  C:\Users\ikomb\AppData\Local\Temp\ccrLq7Qx.s 			page 3


  35              		.cfi_def_cfa_offset 4
  36              		.cfi_offset 7, -4
  37 0002 83B0     		sub	sp, sp, #12
  38              		.cfi_def_cfa_offset 16
  39 0004 00AF     		add	r7, sp, #0
  40              		.cfi_def_cfa_register 7
  41 0006 7860     		str	r0, [r7, #4]
  81:Generated_Source\PSoC6\pdl\rtos\FreeRTOS\9.0.0\Source/list.c **** 	/* The list structure contains a list item which is used to mark the
  82:Generated_Source\PSoC6\pdl\rtos\FreeRTOS\9.0.0\Source/list.c **** 	end of the list.  To initialise the list the list end is inserted
  83:Generated_Source\PSoC6\pdl\rtos\FreeRTOS\9.0.0\Source/list.c **** 	as the only list entry. */
  84:Generated_Source\PSoC6\pdl\rtos\FreeRTOS\9.0.0\Source/list.c **** 	pxList->pxIndex = ( ListItem_t * ) &( pxList->xListEnd );			/*lint !e826 !e740 The mini list struc
  42              		.loc 1 84 0
  43 0008 7B68     		ldr	r3, [r7, #4]
  44 000a 03F10802 		add	r2, r3, #8
  45 000e 7B68     		ldr	r3, [r7, #4]
  46 0010 5A60     		str	r2, [r3, #4]
  85:Generated_Source\PSoC6\pdl\rtos\FreeRTOS\9.0.0\Source/list.c **** 
  86:Generated_Source\PSoC6\pdl\rtos\FreeRTOS\9.0.0\Source/list.c **** 	/* The list end value is the highest possible value in the list to
  87:Generated_Source\PSoC6\pdl\rtos\FreeRTOS\9.0.0\Source/list.c **** 	ensure it remains at the end of the list. */
  88:Generated_Source\PSoC6\pdl\rtos\FreeRTOS\9.0.0\Source/list.c **** 	pxList->xListEnd.xItemValue = portMAX_DELAY;
  47              		.loc 1 88 0
  48 0012 7B68     		ldr	r3, [r7, #4]
  49 0014 4FF0FF32 		mov	r2, #-1
  50 0018 9A60     		str	r2, [r3, #8]
  89:Generated_Source\PSoC6\pdl\rtos\FreeRTOS\9.0.0\Source/list.c **** 
  90:Generated_Source\PSoC6\pdl\rtos\FreeRTOS\9.0.0\Source/list.c **** 	/* The list end next and previous pointers point to itself so we know
  91:Generated_Source\PSoC6\pdl\rtos\FreeRTOS\9.0.0\Source/list.c **** 	when the list is empty. */
  92:Generated_Source\PSoC6\pdl\rtos\FreeRTOS\9.0.0\Source/list.c **** 	pxList->xListEnd.pxNext = ( ListItem_t * ) &( pxList->xListEnd );	/*lint !e826 !e740 The mini list
  51              		.loc 1 92 0
  52 001a 7B68     		ldr	r3, [r7, #4]
  53 001c 03F10802 		add	r2, r3, #8
  54 0020 7B68     		ldr	r3, [r7, #4]
  55 0022 DA60     		str	r2, [r3, #12]
  93:Generated_Source\PSoC6\pdl\rtos\FreeRTOS\9.0.0\Source/list.c **** 	pxList->xListEnd.pxPrevious = ( ListItem_t * ) &( pxList->xListEnd );/*lint !e826 !e740 The mini l
  56              		.loc 1 93 0
  57 0024 7B68     		ldr	r3, [r7, #4]
  58 0026 03F10802 		add	r2, r3, #8
  59 002a 7B68     		ldr	r3, [r7, #4]
  60 002c 1A61     		str	r2, [r3, #16]
  94:Generated_Source\PSoC6\pdl\rtos\FreeRTOS\9.0.0\Source/list.c **** 
  95:Generated_Source\PSoC6\pdl\rtos\FreeRTOS\9.0.0\Source/list.c **** 	pxList->uxNumberOfItems = ( UBaseType_t ) 0U;
  61              		.loc 1 95 0
  62 002e 7B68     		ldr	r3, [r7, #4]
  63 0030 0022     		movs	r2, #0
  64 0032 1A60     		str	r2, [r3]
  96:Generated_Source\PSoC6\pdl\rtos\FreeRTOS\9.0.0\Source/list.c **** 
  97:Generated_Source\PSoC6\pdl\rtos\FreeRTOS\9.0.0\Source/list.c **** 	/* Write known values into the list if
  98:Generated_Source\PSoC6\pdl\rtos\FreeRTOS\9.0.0\Source/list.c **** 	configUSE_LIST_DATA_INTEGRITY_CHECK_BYTES is set to 1. */
  99:Generated_Source\PSoC6\pdl\rtos\FreeRTOS\9.0.0\Source/list.c **** 	listSET_LIST_INTEGRITY_CHECK_1_VALUE( pxList );
 100:Generated_Source\PSoC6\pdl\rtos\FreeRTOS\9.0.0\Source/list.c **** 	listSET_LIST_INTEGRITY_CHECK_2_VALUE( pxList );
 101:Generated_Source\PSoC6\pdl\rtos\FreeRTOS\9.0.0\Source/list.c **** }
  65              		.loc 1 101 0
  66 0034 00BF     		nop
  67 0036 0C37     		adds	r7, r7, #12
  68              		.cfi_def_cfa_offset 4
  69 0038 BD46     		mov	sp, r7
  70              		.cfi_def_cfa_register 13
ARM GAS  C:\Users\ikomb\AppData\Local\Temp\ccrLq7Qx.s 			page 4


  71              		@ sp needed
  72 003a 5DF8047B 		ldr	r7, [sp], #4
  73              		.cfi_restore 7
  74              		.cfi_def_cfa_offset 0
  75 003e 7047     		bx	lr
  76              		.cfi_endproc
  77              	.LFE129:
  78              		.size	vListInitialise, .-vListInitialise
  79              		.section	.text.vListInitialiseItem,"ax",%progbits
  80              		.align	2
  81              		.global	vListInitialiseItem
  82              		.thumb
  83              		.thumb_func
  84              		.type	vListInitialiseItem, %function
  85              	vListInitialiseItem:
  86              	.LFB130:
 102:Generated_Source\PSoC6\pdl\rtos\FreeRTOS\9.0.0\Source/list.c **** /*-----------------------------------------------------------*/
 103:Generated_Source\PSoC6\pdl\rtos\FreeRTOS\9.0.0\Source/list.c **** 
 104:Generated_Source\PSoC6\pdl\rtos\FreeRTOS\9.0.0\Source/list.c **** void vListInitialiseItem( ListItem_t * const pxItem )
 105:Generated_Source\PSoC6\pdl\rtos\FreeRTOS\9.0.0\Source/list.c **** {
  87              		.loc 1 105 0
  88              		.cfi_startproc
  89              		@ args = 0, pretend = 0, frame = 8
  90              		@ frame_needed = 1, uses_anonymous_args = 0
  91              		@ link register save eliminated.
  92 0000 80B4     		push	{r7}
  93              		.cfi_def_cfa_offset 4
  94              		.cfi_offset 7, -4
  95 0002 83B0     		sub	sp, sp, #12
  96              		.cfi_def_cfa_offset 16
  97 0004 00AF     		add	r7, sp, #0
  98              		.cfi_def_cfa_register 7
  99 0006 7860     		str	r0, [r7, #4]
 106:Generated_Source\PSoC6\pdl\rtos\FreeRTOS\9.0.0\Source/list.c **** 	/* Make sure the list item is not recorded as being on a list. */
 107:Generated_Source\PSoC6\pdl\rtos\FreeRTOS\9.0.0\Source/list.c **** 	pxItem->pvContainer = NULL;
 100              		.loc 1 107 0
 101 0008 7B68     		ldr	r3, [r7, #4]
 102 000a 0022     		movs	r2, #0
 103 000c 1A61     		str	r2, [r3, #16]
 108:Generated_Source\PSoC6\pdl\rtos\FreeRTOS\9.0.0\Source/list.c **** 
 109:Generated_Source\PSoC6\pdl\rtos\FreeRTOS\9.0.0\Source/list.c **** 	/* Write known values into the list item if
 110:Generated_Source\PSoC6\pdl\rtos\FreeRTOS\9.0.0\Source/list.c **** 	configUSE_LIST_DATA_INTEGRITY_CHECK_BYTES is set to 1. */
 111:Generated_Source\PSoC6\pdl\rtos\FreeRTOS\9.0.0\Source/list.c **** 	listSET_FIRST_LIST_ITEM_INTEGRITY_CHECK_VALUE( pxItem );
 112:Generated_Source\PSoC6\pdl\rtos\FreeRTOS\9.0.0\Source/list.c **** 	listSET_SECOND_LIST_ITEM_INTEGRITY_CHECK_VALUE( pxItem );
 113:Generated_Source\PSoC6\pdl\rtos\FreeRTOS\9.0.0\Source/list.c **** }
 104              		.loc 1 113 0
 105 000e 00BF     		nop
 106 0010 0C37     		adds	r7, r7, #12
 107              		.cfi_def_cfa_offset 4
 108 0012 BD46     		mov	sp, r7
 109              		.cfi_def_cfa_register 13
 110              		@ sp needed
 111 0014 5DF8047B 		ldr	r7, [sp], #4
 112              		.cfi_restore 7
 113              		.cfi_def_cfa_offset 0
 114 0018 7047     		bx	lr
 115              		.cfi_endproc
ARM GAS  C:\Users\ikomb\AppData\Local\Temp\ccrLq7Qx.s 			page 5


 116              	.LFE130:
 117              		.size	vListInitialiseItem, .-vListInitialiseItem
 118 001a 00BF     		.section	.text.vListInsertEnd,"ax",%progbits
 119              		.align	2
 120              		.global	vListInsertEnd
 121              		.thumb
 122              		.thumb_func
 123              		.type	vListInsertEnd, %function
 124              	vListInsertEnd:
 125              	.LFB131:
 114:Generated_Source\PSoC6\pdl\rtos\FreeRTOS\9.0.0\Source/list.c **** /*-----------------------------------------------------------*/
 115:Generated_Source\PSoC6\pdl\rtos\FreeRTOS\9.0.0\Source/list.c **** 
 116:Generated_Source\PSoC6\pdl\rtos\FreeRTOS\9.0.0\Source/list.c **** void vListInsertEnd( List_t * const pxList, ListItem_t * const pxNewListItem )
 117:Generated_Source\PSoC6\pdl\rtos\FreeRTOS\9.0.0\Source/list.c **** {
 126              		.loc 1 117 0
 127              		.cfi_startproc
 128              		@ args = 0, pretend = 0, frame = 16
 129              		@ frame_needed = 1, uses_anonymous_args = 0
 130              		@ link register save eliminated.
 131 0000 80B4     		push	{r7}
 132              		.cfi_def_cfa_offset 4
 133              		.cfi_offset 7, -4
 134 0002 85B0     		sub	sp, sp, #20
 135              		.cfi_def_cfa_offset 24
 136 0004 00AF     		add	r7, sp, #0
 137              		.cfi_def_cfa_register 7
 138 0006 7860     		str	r0, [r7, #4]
 139 0008 3960     		str	r1, [r7]
 118:Generated_Source\PSoC6\pdl\rtos\FreeRTOS\9.0.0\Source/list.c **** ListItem_t * const pxIndex = pxList->pxIndex;
 140              		.loc 1 118 0
 141 000a 7B68     		ldr	r3, [r7, #4]
 142 000c 5B68     		ldr	r3, [r3, #4]
 143 000e FB60     		str	r3, [r7, #12]
 119:Generated_Source\PSoC6\pdl\rtos\FreeRTOS\9.0.0\Source/list.c **** 
 120:Generated_Source\PSoC6\pdl\rtos\FreeRTOS\9.0.0\Source/list.c **** 	/* Only effective when configASSERT() is also defined, these tests may catch
 121:Generated_Source\PSoC6\pdl\rtos\FreeRTOS\9.0.0\Source/list.c **** 	the list data structures being overwritten in memory.  They will not catch
 122:Generated_Source\PSoC6\pdl\rtos\FreeRTOS\9.0.0\Source/list.c **** 	data errors caused by incorrect configuration or use of FreeRTOS. */
 123:Generated_Source\PSoC6\pdl\rtos\FreeRTOS\9.0.0\Source/list.c **** 	listTEST_LIST_INTEGRITY( pxList );
 124:Generated_Source\PSoC6\pdl\rtos\FreeRTOS\9.0.0\Source/list.c **** 	listTEST_LIST_ITEM_INTEGRITY( pxNewListItem );
 125:Generated_Source\PSoC6\pdl\rtos\FreeRTOS\9.0.0\Source/list.c **** 
 126:Generated_Source\PSoC6\pdl\rtos\FreeRTOS\9.0.0\Source/list.c **** 	/* Insert a new list item into pxList, but rather than sort the list,
 127:Generated_Source\PSoC6\pdl\rtos\FreeRTOS\9.0.0\Source/list.c **** 	makes the new list item the last item to be removed by a call to
 128:Generated_Source\PSoC6\pdl\rtos\FreeRTOS\9.0.0\Source/list.c **** 	listGET_OWNER_OF_NEXT_ENTRY(). */
 129:Generated_Source\PSoC6\pdl\rtos\FreeRTOS\9.0.0\Source/list.c **** 	pxNewListItem->pxNext = pxIndex;
 144              		.loc 1 129 0
 145 0010 3B68     		ldr	r3, [r7]
 146 0012 FA68     		ldr	r2, [r7, #12]
 147 0014 5A60     		str	r2, [r3, #4]
 130:Generated_Source\PSoC6\pdl\rtos\FreeRTOS\9.0.0\Source/list.c **** 	pxNewListItem->pxPrevious = pxIndex->pxPrevious;
 148              		.loc 1 130 0
 149 0016 FB68     		ldr	r3, [r7, #12]
 150 0018 9A68     		ldr	r2, [r3, #8]
 151 001a 3B68     		ldr	r3, [r7]
 152 001c 9A60     		str	r2, [r3, #8]
 131:Generated_Source\PSoC6\pdl\rtos\FreeRTOS\9.0.0\Source/list.c **** 
 132:Generated_Source\PSoC6\pdl\rtos\FreeRTOS\9.0.0\Source/list.c **** 	/* Only used during decision coverage testing. */
 133:Generated_Source\PSoC6\pdl\rtos\FreeRTOS\9.0.0\Source/list.c **** 	mtCOVERAGE_TEST_DELAY();
ARM GAS  C:\Users\ikomb\AppData\Local\Temp\ccrLq7Qx.s 			page 6


 134:Generated_Source\PSoC6\pdl\rtos\FreeRTOS\9.0.0\Source/list.c **** 
 135:Generated_Source\PSoC6\pdl\rtos\FreeRTOS\9.0.0\Source/list.c **** 	pxIndex->pxPrevious->pxNext = pxNewListItem;
 153              		.loc 1 135 0
 154 001e FB68     		ldr	r3, [r7, #12]
 155 0020 9B68     		ldr	r3, [r3, #8]
 156 0022 3A68     		ldr	r2, [r7]
 157 0024 5A60     		str	r2, [r3, #4]
 136:Generated_Source\PSoC6\pdl\rtos\FreeRTOS\9.0.0\Source/list.c **** 	pxIndex->pxPrevious = pxNewListItem;
 158              		.loc 1 136 0
 159 0026 FB68     		ldr	r3, [r7, #12]
 160 0028 3A68     		ldr	r2, [r7]
 161 002a 9A60     		str	r2, [r3, #8]
 137:Generated_Source\PSoC6\pdl\rtos\FreeRTOS\9.0.0\Source/list.c **** 
 138:Generated_Source\PSoC6\pdl\rtos\FreeRTOS\9.0.0\Source/list.c **** 	/* Remember which list the item is in. */
 139:Generated_Source\PSoC6\pdl\rtos\FreeRTOS\9.0.0\Source/list.c **** 	pxNewListItem->pvContainer = ( void * ) pxList;
 162              		.loc 1 139 0
 163 002c 3B68     		ldr	r3, [r7]
 164 002e 7A68     		ldr	r2, [r7, #4]
 165 0030 1A61     		str	r2, [r3, #16]
 140:Generated_Source\PSoC6\pdl\rtos\FreeRTOS\9.0.0\Source/list.c **** 
 141:Generated_Source\PSoC6\pdl\rtos\FreeRTOS\9.0.0\Source/list.c **** 	( pxList->uxNumberOfItems )++;
 166              		.loc 1 141 0
 167 0032 7B68     		ldr	r3, [r7, #4]
 168 0034 1B68     		ldr	r3, [r3]
 169 0036 5A1C     		adds	r2, r3, #1
 170 0038 7B68     		ldr	r3, [r7, #4]
 171 003a 1A60     		str	r2, [r3]
 142:Generated_Source\PSoC6\pdl\rtos\FreeRTOS\9.0.0\Source/list.c **** }
 172              		.loc 1 142 0
 173 003c 00BF     		nop
 174 003e 1437     		adds	r7, r7, #20
 175              		.cfi_def_cfa_offset 4
 176 0040 BD46     		mov	sp, r7
 177              		.cfi_def_cfa_register 13
 178              		@ sp needed
 179 0042 5DF8047B 		ldr	r7, [sp], #4
 180              		.cfi_restore 7
 181              		.cfi_def_cfa_offset 0
 182 0046 7047     		bx	lr
 183              		.cfi_endproc
 184              	.LFE131:
 185              		.size	vListInsertEnd, .-vListInsertEnd
 186              		.section	.text.vListInsert,"ax",%progbits
 187              		.align	2
 188              		.global	vListInsert
 189              		.thumb
 190              		.thumb_func
 191              		.type	vListInsert, %function
 192              	vListInsert:
 193              	.LFB132:
 143:Generated_Source\PSoC6\pdl\rtos\FreeRTOS\9.0.0\Source/list.c **** /*-----------------------------------------------------------*/
 144:Generated_Source\PSoC6\pdl\rtos\FreeRTOS\9.0.0\Source/list.c **** 
 145:Generated_Source\PSoC6\pdl\rtos\FreeRTOS\9.0.0\Source/list.c **** void vListInsert( List_t * const pxList, ListItem_t * const pxNewListItem )
 146:Generated_Source\PSoC6\pdl\rtos\FreeRTOS\9.0.0\Source/list.c **** {
 194              		.loc 1 146 0
 195              		.cfi_startproc
 196              		@ args = 0, pretend = 0, frame = 16
ARM GAS  C:\Users\ikomb\AppData\Local\Temp\ccrLq7Qx.s 			page 7


 197              		@ frame_needed = 1, uses_anonymous_args = 0
 198              		@ link register save eliminated.
 199 0000 80B4     		push	{r7}
 200              		.cfi_def_cfa_offset 4
 201              		.cfi_offset 7, -4
 202 0002 85B0     		sub	sp, sp, #20
 203              		.cfi_def_cfa_offset 24
 204 0004 00AF     		add	r7, sp, #0
 205              		.cfi_def_cfa_register 7
 206 0006 7860     		str	r0, [r7, #4]
 207 0008 3960     		str	r1, [r7]
 147:Generated_Source\PSoC6\pdl\rtos\FreeRTOS\9.0.0\Source/list.c **** ListItem_t *pxIterator;
 148:Generated_Source\PSoC6\pdl\rtos\FreeRTOS\9.0.0\Source/list.c **** const TickType_t xValueOfInsertion = pxNewListItem->xItemValue;
 208              		.loc 1 148 0
 209 000a 3B68     		ldr	r3, [r7]
 210 000c 1B68     		ldr	r3, [r3]
 211 000e BB60     		str	r3, [r7, #8]
 149:Generated_Source\PSoC6\pdl\rtos\FreeRTOS\9.0.0\Source/list.c **** 
 150:Generated_Source\PSoC6\pdl\rtos\FreeRTOS\9.0.0\Source/list.c **** 	/* Only effective when configASSERT() is also defined, these tests may catch
 151:Generated_Source\PSoC6\pdl\rtos\FreeRTOS\9.0.0\Source/list.c **** 	the list data structures being overwritten in memory.  They will not catch
 152:Generated_Source\PSoC6\pdl\rtos\FreeRTOS\9.0.0\Source/list.c **** 	data errors caused by incorrect configuration or use of FreeRTOS. */
 153:Generated_Source\PSoC6\pdl\rtos\FreeRTOS\9.0.0\Source/list.c **** 	listTEST_LIST_INTEGRITY( pxList );
 154:Generated_Source\PSoC6\pdl\rtos\FreeRTOS\9.0.0\Source/list.c **** 	listTEST_LIST_ITEM_INTEGRITY( pxNewListItem );
 155:Generated_Source\PSoC6\pdl\rtos\FreeRTOS\9.0.0\Source/list.c **** 
 156:Generated_Source\PSoC6\pdl\rtos\FreeRTOS\9.0.0\Source/list.c **** 	/* Insert the new list item into the list, sorted in xItemValue order.
 157:Generated_Source\PSoC6\pdl\rtos\FreeRTOS\9.0.0\Source/list.c **** 
 158:Generated_Source\PSoC6\pdl\rtos\FreeRTOS\9.0.0\Source/list.c **** 	If the list already contains a list item with the same item value then the
 159:Generated_Source\PSoC6\pdl\rtos\FreeRTOS\9.0.0\Source/list.c **** 	new list item should be placed after it.  This ensures that TCB's which are
 160:Generated_Source\PSoC6\pdl\rtos\FreeRTOS\9.0.0\Source/list.c **** 	stored in ready lists (all of which have the same xItemValue value) get a
 161:Generated_Source\PSoC6\pdl\rtos\FreeRTOS\9.0.0\Source/list.c **** 	share of the CPU.  However, if the xItemValue is the same as the back marker
 162:Generated_Source\PSoC6\pdl\rtos\FreeRTOS\9.0.0\Source/list.c **** 	the iteration loop below will not end.  Therefore the value is checked
 163:Generated_Source\PSoC6\pdl\rtos\FreeRTOS\9.0.0\Source/list.c **** 	first, and the algorithm slightly modified if necessary. */
 164:Generated_Source\PSoC6\pdl\rtos\FreeRTOS\9.0.0\Source/list.c **** 	if( xValueOfInsertion == portMAX_DELAY )
 212              		.loc 1 164 0
 213 0010 BB68     		ldr	r3, [r7, #8]
 214 0012 B3F1FF3F 		cmp	r3, #-1
 215 0016 03D1     		bne	.L5
 165:Generated_Source\PSoC6\pdl\rtos\FreeRTOS\9.0.0\Source/list.c **** 	{
 166:Generated_Source\PSoC6\pdl\rtos\FreeRTOS\9.0.0\Source/list.c **** 		pxIterator = pxList->xListEnd.pxPrevious;
 216              		.loc 1 166 0
 217 0018 7B68     		ldr	r3, [r7, #4]
 218 001a 1B69     		ldr	r3, [r3, #16]
 219 001c FB60     		str	r3, [r7, #12]
 220 001e 0CE0     		b	.L6
 221              	.L5:
 167:Generated_Source\PSoC6\pdl\rtos\FreeRTOS\9.0.0\Source/list.c **** 	}
 168:Generated_Source\PSoC6\pdl\rtos\FreeRTOS\9.0.0\Source/list.c **** 	else
 169:Generated_Source\PSoC6\pdl\rtos\FreeRTOS\9.0.0\Source/list.c **** 	{
 170:Generated_Source\PSoC6\pdl\rtos\FreeRTOS\9.0.0\Source/list.c **** 		/* *** NOTE ***********************************************************
 171:Generated_Source\PSoC6\pdl\rtos\FreeRTOS\9.0.0\Source/list.c **** 		If you find your application is crashing here then likely causes are
 172:Generated_Source\PSoC6\pdl\rtos\FreeRTOS\9.0.0\Source/list.c **** 		listed below.  In addition see http://www.freertos.org/FAQHelp.html for
 173:Generated_Source\PSoC6\pdl\rtos\FreeRTOS\9.0.0\Source/list.c **** 		more tips, and ensure configASSERT() is defined!
 174:Generated_Source\PSoC6\pdl\rtos\FreeRTOS\9.0.0\Source/list.c **** 		http://www.freertos.org/a00110.html#configASSERT
 175:Generated_Source\PSoC6\pdl\rtos\FreeRTOS\9.0.0\Source/list.c **** 
 176:Generated_Source\PSoC6\pdl\rtos\FreeRTOS\9.0.0\Source/list.c **** 			1) Stack overflow -
 177:Generated_Source\PSoC6\pdl\rtos\FreeRTOS\9.0.0\Source/list.c **** 			   see http://www.freertos.org/Stacks-and-stack-overflow-checking.html
 178:Generated_Source\PSoC6\pdl\rtos\FreeRTOS\9.0.0\Source/list.c **** 			2) Incorrect interrupt priority assignment, especially on Cortex-M
ARM GAS  C:\Users\ikomb\AppData\Local\Temp\ccrLq7Qx.s 			page 8


 179:Generated_Source\PSoC6\pdl\rtos\FreeRTOS\9.0.0\Source/list.c **** 			   parts where numerically high priority values denote low actual
 180:Generated_Source\PSoC6\pdl\rtos\FreeRTOS\9.0.0\Source/list.c **** 			   interrupt priorities, which can seem counter intuitive.  See
 181:Generated_Source\PSoC6\pdl\rtos\FreeRTOS\9.0.0\Source/list.c **** 			   http://www.freertos.org/RTOS-Cortex-M3-M4.html and the definition
 182:Generated_Source\PSoC6\pdl\rtos\FreeRTOS\9.0.0\Source/list.c **** 			   of configMAX_SYSCALL_INTERRUPT_PRIORITY on
 183:Generated_Source\PSoC6\pdl\rtos\FreeRTOS\9.0.0\Source/list.c **** 			   http://www.freertos.org/a00110.html
 184:Generated_Source\PSoC6\pdl\rtos\FreeRTOS\9.0.0\Source/list.c **** 			3) Calling an API function from within a critical section or when
 185:Generated_Source\PSoC6\pdl\rtos\FreeRTOS\9.0.0\Source/list.c **** 			   the scheduler is suspended, or calling an API function that does
 186:Generated_Source\PSoC6\pdl\rtos\FreeRTOS\9.0.0\Source/list.c **** 			   not end in "FromISR" from an interrupt.
 187:Generated_Source\PSoC6\pdl\rtos\FreeRTOS\9.0.0\Source/list.c **** 			4) Using a queue or semaphore before it has been initialised or
 188:Generated_Source\PSoC6\pdl\rtos\FreeRTOS\9.0.0\Source/list.c **** 			   before the scheduler has been started (are interrupts firing
 189:Generated_Source\PSoC6\pdl\rtos\FreeRTOS\9.0.0\Source/list.c **** 			   before vTaskStartScheduler() has been called?).
 190:Generated_Source\PSoC6\pdl\rtos\FreeRTOS\9.0.0\Source/list.c **** 		**********************************************************************/
 191:Generated_Source\PSoC6\pdl\rtos\FreeRTOS\9.0.0\Source/list.c **** 
 192:Generated_Source\PSoC6\pdl\rtos\FreeRTOS\9.0.0\Source/list.c **** 		for( pxIterator = ( ListItem_t * ) &( pxList->xListEnd ); pxIterator->pxNext->xItemValue <= xValu
 222              		.loc 1 192 0
 223 0020 7B68     		ldr	r3, [r7, #4]
 224 0022 0833     		adds	r3, r3, #8
 225 0024 FB60     		str	r3, [r7, #12]
 226 0026 02E0     		b	.L7
 227              	.L8:
 228              		.loc 1 192 0 is_stmt 0 discriminator 3
 229 0028 FB68     		ldr	r3, [r7, #12]
 230 002a 5B68     		ldr	r3, [r3, #4]
 231 002c FB60     		str	r3, [r7, #12]
 232              	.L7:
 233              		.loc 1 192 0 discriminator 1
 234 002e FB68     		ldr	r3, [r7, #12]
 235 0030 5B68     		ldr	r3, [r3, #4]
 236 0032 1A68     		ldr	r2, [r3]
 237 0034 BB68     		ldr	r3, [r7, #8]
 238 0036 9A42     		cmp	r2, r3
 239 0038 F6D9     		bls	.L8
 240              	.L6:
 193:Generated_Source\PSoC6\pdl\rtos\FreeRTOS\9.0.0\Source/list.c **** 		{
 194:Generated_Source\PSoC6\pdl\rtos\FreeRTOS\9.0.0\Source/list.c **** 			/* There is nothing to do here, just iterating to the wanted
 195:Generated_Source\PSoC6\pdl\rtos\FreeRTOS\9.0.0\Source/list.c **** 			insertion position. */
 196:Generated_Source\PSoC6\pdl\rtos\FreeRTOS\9.0.0\Source/list.c **** 		}
 197:Generated_Source\PSoC6\pdl\rtos\FreeRTOS\9.0.0\Source/list.c **** 	}
 198:Generated_Source\PSoC6\pdl\rtos\FreeRTOS\9.0.0\Source/list.c **** 
 199:Generated_Source\PSoC6\pdl\rtos\FreeRTOS\9.0.0\Source/list.c **** 	pxNewListItem->pxNext = pxIterator->pxNext;
 241              		.loc 1 199 0 is_stmt 1
 242 003a FB68     		ldr	r3, [r7, #12]
 243 003c 5A68     		ldr	r2, [r3, #4]
 244 003e 3B68     		ldr	r3, [r7]
 245 0040 5A60     		str	r2, [r3, #4]
 200:Generated_Source\PSoC6\pdl\rtos\FreeRTOS\9.0.0\Source/list.c **** 	pxNewListItem->pxNext->pxPrevious = pxNewListItem;
 246              		.loc 1 200 0
 247 0042 3B68     		ldr	r3, [r7]
 248 0044 5B68     		ldr	r3, [r3, #4]
 249 0046 3A68     		ldr	r2, [r7]
 250 0048 9A60     		str	r2, [r3, #8]
 201:Generated_Source\PSoC6\pdl\rtos\FreeRTOS\9.0.0\Source/list.c **** 	pxNewListItem->pxPrevious = pxIterator;
 251              		.loc 1 201 0
 252 004a 3B68     		ldr	r3, [r7]
 253 004c FA68     		ldr	r2, [r7, #12]
 254 004e 9A60     		str	r2, [r3, #8]
 202:Generated_Source\PSoC6\pdl\rtos\FreeRTOS\9.0.0\Source/list.c **** 	pxIterator->pxNext = pxNewListItem;
ARM GAS  C:\Users\ikomb\AppData\Local\Temp\ccrLq7Qx.s 			page 9


 255              		.loc 1 202 0
 256 0050 FB68     		ldr	r3, [r7, #12]
 257 0052 3A68     		ldr	r2, [r7]
 258 0054 5A60     		str	r2, [r3, #4]
 203:Generated_Source\PSoC6\pdl\rtos\FreeRTOS\9.0.0\Source/list.c **** 
 204:Generated_Source\PSoC6\pdl\rtos\FreeRTOS\9.0.0\Source/list.c **** 	/* Remember which list the item is in.  This allows fast removal of the
 205:Generated_Source\PSoC6\pdl\rtos\FreeRTOS\9.0.0\Source/list.c **** 	item later. */
 206:Generated_Source\PSoC6\pdl\rtos\FreeRTOS\9.0.0\Source/list.c **** 	pxNewListItem->pvContainer = ( void * ) pxList;
 259              		.loc 1 206 0
 260 0056 3B68     		ldr	r3, [r7]
 261 0058 7A68     		ldr	r2, [r7, #4]
 262 005a 1A61     		str	r2, [r3, #16]
 207:Generated_Source\PSoC6\pdl\rtos\FreeRTOS\9.0.0\Source/list.c **** 
 208:Generated_Source\PSoC6\pdl\rtos\FreeRTOS\9.0.0\Source/list.c **** 	( pxList->uxNumberOfItems )++;
 263              		.loc 1 208 0
 264 005c 7B68     		ldr	r3, [r7, #4]
 265 005e 1B68     		ldr	r3, [r3]
 266 0060 5A1C     		adds	r2, r3, #1
 267 0062 7B68     		ldr	r3, [r7, #4]
 268 0064 1A60     		str	r2, [r3]
 209:Generated_Source\PSoC6\pdl\rtos\FreeRTOS\9.0.0\Source/list.c **** }
 269              		.loc 1 209 0
 270 0066 00BF     		nop
 271 0068 1437     		adds	r7, r7, #20
 272              		.cfi_def_cfa_offset 4
 273 006a BD46     		mov	sp, r7
 274              		.cfi_def_cfa_register 13
 275              		@ sp needed
 276 006c 5DF8047B 		ldr	r7, [sp], #4
 277              		.cfi_restore 7
 278              		.cfi_def_cfa_offset 0
 279 0070 7047     		bx	lr
 280              		.cfi_endproc
 281              	.LFE132:
 282              		.size	vListInsert, .-vListInsert
 283 0072 00BF     		.section	.text.uxListRemove,"ax",%progbits
 284              		.align	2
 285              		.global	uxListRemove
 286              		.thumb
 287              		.thumb_func
 288              		.type	uxListRemove, %function
 289              	uxListRemove:
 290              	.LFB133:
 210:Generated_Source\PSoC6\pdl\rtos\FreeRTOS\9.0.0\Source/list.c **** /*-----------------------------------------------------------*/
 211:Generated_Source\PSoC6\pdl\rtos\FreeRTOS\9.0.0\Source/list.c **** 
 212:Generated_Source\PSoC6\pdl\rtos\FreeRTOS\9.0.0\Source/list.c **** UBaseType_t uxListRemove( ListItem_t * const pxItemToRemove )
 213:Generated_Source\PSoC6\pdl\rtos\FreeRTOS\9.0.0\Source/list.c **** {
 291              		.loc 1 213 0
 292              		.cfi_startproc
 293              		@ args = 0, pretend = 0, frame = 16
 294              		@ frame_needed = 1, uses_anonymous_args = 0
 295              		@ link register save eliminated.
 296 0000 80B4     		push	{r7}
 297              		.cfi_def_cfa_offset 4
 298              		.cfi_offset 7, -4
 299 0002 85B0     		sub	sp, sp, #20
 300              		.cfi_def_cfa_offset 24
ARM GAS  C:\Users\ikomb\AppData\Local\Temp\ccrLq7Qx.s 			page 10


 301 0004 00AF     		add	r7, sp, #0
 302              		.cfi_def_cfa_register 7
 303 0006 7860     		str	r0, [r7, #4]
 214:Generated_Source\PSoC6\pdl\rtos\FreeRTOS\9.0.0\Source/list.c **** /* The list item knows which list it is in.  Obtain the list from the list
 215:Generated_Source\PSoC6\pdl\rtos\FreeRTOS\9.0.0\Source/list.c **** item. */
 216:Generated_Source\PSoC6\pdl\rtos\FreeRTOS\9.0.0\Source/list.c **** List_t * const pxList = ( List_t * ) pxItemToRemove->pvContainer;
 304              		.loc 1 216 0
 305 0008 7B68     		ldr	r3, [r7, #4]
 306 000a 1B69     		ldr	r3, [r3, #16]
 307 000c FB60     		str	r3, [r7, #12]
 217:Generated_Source\PSoC6\pdl\rtos\FreeRTOS\9.0.0\Source/list.c **** 
 218:Generated_Source\PSoC6\pdl\rtos\FreeRTOS\9.0.0\Source/list.c **** 	pxItemToRemove->pxNext->pxPrevious = pxItemToRemove->pxPrevious;
 308              		.loc 1 218 0
 309 000e 7B68     		ldr	r3, [r7, #4]
 310 0010 5B68     		ldr	r3, [r3, #4]
 311 0012 7A68     		ldr	r2, [r7, #4]
 312 0014 9268     		ldr	r2, [r2, #8]
 313 0016 9A60     		str	r2, [r3, #8]
 219:Generated_Source\PSoC6\pdl\rtos\FreeRTOS\9.0.0\Source/list.c **** 	pxItemToRemove->pxPrevious->pxNext = pxItemToRemove->pxNext;
 314              		.loc 1 219 0
 315 0018 7B68     		ldr	r3, [r7, #4]
 316 001a 9B68     		ldr	r3, [r3, #8]
 317 001c 7A68     		ldr	r2, [r7, #4]
 318 001e 5268     		ldr	r2, [r2, #4]
 319 0020 5A60     		str	r2, [r3, #4]
 220:Generated_Source\PSoC6\pdl\rtos\FreeRTOS\9.0.0\Source/list.c **** 
 221:Generated_Source\PSoC6\pdl\rtos\FreeRTOS\9.0.0\Source/list.c **** 	/* Only used during decision coverage testing. */
 222:Generated_Source\PSoC6\pdl\rtos\FreeRTOS\9.0.0\Source/list.c **** 	mtCOVERAGE_TEST_DELAY();
 223:Generated_Source\PSoC6\pdl\rtos\FreeRTOS\9.0.0\Source/list.c **** 
 224:Generated_Source\PSoC6\pdl\rtos\FreeRTOS\9.0.0\Source/list.c **** 	/* Make sure the index is left pointing to a valid item. */
 225:Generated_Source\PSoC6\pdl\rtos\FreeRTOS\9.0.0\Source/list.c **** 	if( pxList->pxIndex == pxItemToRemove )
 320              		.loc 1 225 0
 321 0022 FB68     		ldr	r3, [r7, #12]
 322 0024 5A68     		ldr	r2, [r3, #4]
 323 0026 7B68     		ldr	r3, [r7, #4]
 324 0028 9A42     		cmp	r2, r3
 325 002a 03D1     		bne	.L10
 226:Generated_Source\PSoC6\pdl\rtos\FreeRTOS\9.0.0\Source/list.c **** 	{
 227:Generated_Source\PSoC6\pdl\rtos\FreeRTOS\9.0.0\Source/list.c **** 		pxList->pxIndex = pxItemToRemove->pxPrevious;
 326              		.loc 1 227 0
 327 002c 7B68     		ldr	r3, [r7, #4]
 328 002e 9A68     		ldr	r2, [r3, #8]
 329 0030 FB68     		ldr	r3, [r7, #12]
 330 0032 5A60     		str	r2, [r3, #4]
 331              	.L10:
 228:Generated_Source\PSoC6\pdl\rtos\FreeRTOS\9.0.0\Source/list.c **** 	}
 229:Generated_Source\PSoC6\pdl\rtos\FreeRTOS\9.0.0\Source/list.c **** 	else
 230:Generated_Source\PSoC6\pdl\rtos\FreeRTOS\9.0.0\Source/list.c **** 	{
 231:Generated_Source\PSoC6\pdl\rtos\FreeRTOS\9.0.0\Source/list.c **** 		mtCOVERAGE_TEST_MARKER();
 232:Generated_Source\PSoC6\pdl\rtos\FreeRTOS\9.0.0\Source/list.c **** 	}
 233:Generated_Source\PSoC6\pdl\rtos\FreeRTOS\9.0.0\Source/list.c **** 
 234:Generated_Source\PSoC6\pdl\rtos\FreeRTOS\9.0.0\Source/list.c **** 	pxItemToRemove->pvContainer = NULL;
 332              		.loc 1 234 0
 333 0034 7B68     		ldr	r3, [r7, #4]
 334 0036 0022     		movs	r2, #0
 335 0038 1A61     		str	r2, [r3, #16]
 235:Generated_Source\PSoC6\pdl\rtos\FreeRTOS\9.0.0\Source/list.c **** 	( pxList->uxNumberOfItems )--;
ARM GAS  C:\Users\ikomb\AppData\Local\Temp\ccrLq7Qx.s 			page 11


 336              		.loc 1 235 0
 337 003a FB68     		ldr	r3, [r7, #12]
 338 003c 1B68     		ldr	r3, [r3]
 339 003e 5A1E     		subs	r2, r3, #1
 340 0040 FB68     		ldr	r3, [r7, #12]
 341 0042 1A60     		str	r2, [r3]
 236:Generated_Source\PSoC6\pdl\rtos\FreeRTOS\9.0.0\Source/list.c **** 
 237:Generated_Source\PSoC6\pdl\rtos\FreeRTOS\9.0.0\Source/list.c **** 	return pxList->uxNumberOfItems;
 342              		.loc 1 237 0
 343 0044 FB68     		ldr	r3, [r7, #12]
 344 0046 1B68     		ldr	r3, [r3]
 238:Generated_Source\PSoC6\pdl\rtos\FreeRTOS\9.0.0\Source/list.c **** }
 345              		.loc 1 238 0
 346 0048 1846     		mov	r0, r3
 347 004a 1437     		adds	r7, r7, #20
 348              		.cfi_def_cfa_offset 4
 349 004c BD46     		mov	sp, r7
 350              		.cfi_def_cfa_register 13
 351              		@ sp needed
 352 004e 5DF8047B 		ldr	r7, [sp], #4
 353              		.cfi_restore 7
 354              		.cfi_def_cfa_offset 0
 355 0052 7047     		bx	lr
 356              		.cfi_endproc
 357              	.LFE133:
 358              		.size	uxListRemove, .-uxListRemove
 359              		.text
 360              	.Letext0:
 361              		.file 2 "c:\\program files (x86)\\cypress\\psoc creator\\4.4\\psoc creator\\import\\gnu\\arm\\5.4.
 362              		.file 3 "c:\\program files (x86)\\cypress\\psoc creator\\4.4\\psoc creator\\import\\gnu\\arm\\5.4.
 363              		.file 4 "Generated_Source\\PSoC6\\pdl\\rtos/FreeRTOS/9.0.0/Source/portable/GCC/CM4F/portmacro.h"
 364              		.file 5 "Generated_Source\\PSoC6\\pdl\\rtos/FreeRTOS/9.0.0/Source/include/list.h"
 365              		.file 6 "Generated_Source\\PSoC6\\pdl\\cmsis/include/core_cm4.h"