ARM GAS  C:\Users\ikomb\AppData\Local\Temp\cc1CAX8S.s 			page 1


   1              		.syntax unified
   2              		.cpu cortex-m4
   3              		.eabi_attribute 27, 1
   4              		.fpu fpv4-sp-d16
   5              		.eabi_attribute 20, 1
   6              		.eabi_attribute 21, 1
   7              		.eabi_attribute 23, 3
   8              		.eabi_attribute 24, 1
   9              		.eabi_attribute 25, 1
  10              		.eabi_attribute 26, 1
  11              		.eabi_attribute 30, 6
  12              		.eabi_attribute 34, 1
  13              		.eabi_attribute 18, 4
  14              		.thumb
  15              		.syntax unified
  16              		.file	"main_cm4.c"
  17              		.text
  18              	.Ltext0:
  19              		.cfi_sections	.debug_frame
  20              		.comm	EventsQueue,4,4
  21              		.comm	GUIQueue,4,4
  22              		.comm	SmifSemphr,4,4
  23              		.comm	DmaEvents,4,4
  24              		.comm	SoftTimer,4,4
  25              		.section	.rodata
  26              		.align	2
  27              	.LC0:
  28 0000 5265636F 		.ascii	"Recorder Task\000"
  28      72646572 
  28      20546173 
  28      6B00
  29 000e 0000     		.align	2
  30              	.LC1:
  31 0010 546F7563 		.ascii	"Touch Task\000"
  31      68205461 
  31      736B00
  32 001b 00       		.align	2
  33              	.LC2:
  34 001c 47726170 		.ascii	"Graphics Task\000"
  34      68696373 
  34      20546173 
  34      6B00
  35 002a 0000     		.align	2
  36              	.LC3:
  37 002c 436F6D6D 		.ascii	"Command Task\000"
  37      616E6420 
  37      5461736B 
  37      00
  38              		.section	.text.main,"ax",%progbits
  39              		.align	2
  40              		.global	main
  41              		.thumb
  42              		.thumb_func
  43              		.type	main, %function
  44              	main:
  45              	.LFB807:
  46              		.file 1 "main_cm4.c"
ARM GAS  C:\Users\ikomb\AppData\Local\Temp\cc1CAX8S.s 			page 2


   1:main_cm4.c    **** /*****************************************************************************
   2:main_cm4.c    **** * File Name: main_cm4.c
   3:main_cm4.c    **** *
   4:main_cm4.c    **** * Version: 1.1
   5:main_cm4.c    **** *
   6:main_cm4.c    **** * Description: Main function implementation for CM4.
   7:main_cm4.c    **** *
   8:main_cm4.c    **** ******************************************************************************
   9:main_cm4.c    **** * Copyright (2018), Cypress Semiconductor Corporation.
  10:main_cm4.c    **** ******************************************************************************
  11:main_cm4.c    **** * This software is owned by Cypress Semiconductor Corporation (Cypress) and is
  12:main_cm4.c    **** * protected by and subject to worldwide patent protection (United States and
  13:main_cm4.c    **** * foreign), United States copyright laws and international treaty provisions.
  14:main_cm4.c    **** * Cypress hereby grants to licensee a personal, non-exclusive, non-transferable
  15:main_cm4.c    **** * license to copy, use, modify, create derivative works of, and compile the
  16:main_cm4.c    **** * Cypress Source Code and derivative works for the sole purpose of creating
  17:main_cm4.c    **** * custom software in support of licensee product to be used only in conjunction
  18:main_cm4.c    **** * with a Cypress integrated circuit as specified in the applicable agreement.
  19:main_cm4.c    **** * Any reproduction, modification, translation, compilation, or representation of
  20:main_cm4.c    **** * this software except as specified above is prohibited without the express
  21:main_cm4.c    **** * written permission of Cypress.
  22:main_cm4.c    **** *
  23:main_cm4.c    **** * Disclaimer: CYPRESS MAKES NO WARRANTY OF ANY KIND, EXPRESS OR IMPLIED, WITH
  24:main_cm4.c    **** * REGARD TO THIS MATERIAL, INCLUDING, BUT NOT LIMITED TO, THE IMPLIED
  25:main_cm4.c    **** * WARRANTIES OF MERCHANTABILITY AND FITNESS FOR A PARTICULAR PURPOSE.
  26:main_cm4.c    **** * Cypress reserves the right to make changes without further notice to the
  27:main_cm4.c    **** * materials described herein. Cypress does not assume any liability arising out
  28:main_cm4.c    **** * of the application or use of any product or circuit described herein. Cypress
  29:main_cm4.c    **** * does not authorize its products for use as critical components in life-support
  30:main_cm4.c    **** * systems where a malfunction or failure may reasonably be expected to result in
  31:main_cm4.c    **** * significant injury to the user. The inclusion of Cypress' product in a life-
  32:main_cm4.c    **** * support systems application implies that the manufacturer assumes all risk of
  33:main_cm4.c    **** * such use and in doing so indemnifies Cypress against all charges. Use may be
  34:main_cm4.c    **** * limited by and subject to the applicable Cypress software license agreement.
  35:main_cm4.c    **** *****************************************************************************/
  36:main_cm4.c    **** #include "project.h"
  37:main_cm4.c    **** #include "codec.h"
  38:main_cm4.c    **** #include "cy_smif_memconfig.h"
  39:main_cm4.c    **** #include "smif_mem.h"
  40:main_cm4.c    **** #include "touch.h"
  41:main_cm4.c    **** #include "recorder.h"
  42:main_cm4.c    **** #include "events.h"
  43:main_cm4.c    **** #include "rtos.h"
  44:main_cm4.c    **** #include "graphics.h"
  45:main_cm4.c    **** 
  46:main_cm4.c    **** /* RTOS Queue Variables */
  47:main_cm4.c    **** QueueHandle_t EventsQueue;
  48:main_cm4.c    **** QueueHandle_t GUIQueue;
  49:main_cm4.c    **** 
  50:main_cm4.c    **** /* RTOS Semaphore/Mutex Variables */
  51:main_cm4.c    **** SemaphoreHandle_t SmifSemphr;
  52:main_cm4.c    **** 
  53:main_cm4.c    **** /* RTOS Event Group bits */
  54:main_cm4.c    **** EventGroupHandle_t DmaEvents;
  55:main_cm4.c    **** 
  56:main_cm4.c    **** /* RTOS Timer */
  57:main_cm4.c    **** TimerHandle_t SoftTimer;
ARM GAS  C:\Users\ikomb\AppData\Local\Temp\cc1CAX8S.s 			page 3


  58:main_cm4.c    **** 
  59:main_cm4.c    **** /* RTOS Constants */
  60:main_cm4.c    **** #define CORTEX_INTERRUPT_BASE               ( 16 )
  61:main_cm4.c    **** #define STACK_DEPTH                         (400u)
  62:main_cm4.c    **** 
  63:main_cm4.c    **** /* Declarations of the exception handlers for FreeRTOS */
  64:main_cm4.c    **** extern void vPortSVCHandler(void);
  65:main_cm4.c    **** extern void xPortPendSVHandler(void);
  66:main_cm4.c    **** extern void xPortSysTickHandler(void);
  67:main_cm4.c    **** 
  68:main_cm4.c    **** /*******************************************************************************
  69:main_cm4.c    **** * Function Name: main()
  70:main_cm4.c    **** ********************************************************************************
  71:main_cm4.c    **** * Summary:
  72:main_cm4.c    **** *   Main function of Cortex-M4. Initializes the hardware, create all RTOS 
  73:main_cm4.c    **** *   related elements and run the RTOS scheduler.
  74:main_cm4.c    **** *
  75:main_cm4.c    **** *******************************************************************************/
  76:main_cm4.c    **** int main(void)
  77:main_cm4.c    **** {          
  47              		.loc 1 77 0
  48              		.cfi_startproc
  49              		@ args = 0, pretend = 0, frame = 0
  50              		@ frame_needed = 1, uses_anonymous_args = 0
  51 0000 80B5     		push	{r7, lr}
  52              		.cfi_def_cfa_offset 8
  53              		.cfi_offset 7, -8
  54              		.cfi_offset 14, -4
  55 0002 82B0     		sub	sp, sp, #8
  56              		.cfi_def_cfa_offset 16
  57 0004 02AF     		add	r7, sp, #8
  58              		.cfi_def_cfa 7, 8
  59              	.LBB4:
  60              	.LBB5:
  61              		.file 2 "Generated_Source\\PSoC6\\pdl\\cmsis/include/cmsis_gcc.h"
   1:Generated_Source\PSoC6\pdl\cmsis/include/cmsis_gcc.h **** /**************************************************************************//**
   2:Generated_Source\PSoC6\pdl\cmsis/include/cmsis_gcc.h ****  * @file     cmsis_gcc.h
   3:Generated_Source\PSoC6\pdl\cmsis/include/cmsis_gcc.h ****  * @brief    CMSIS compiler GCC header file
   4:Generated_Source\PSoC6\pdl\cmsis/include/cmsis_gcc.h ****  * @version  V5.0.1
   5:Generated_Source\PSoC6\pdl\cmsis/include/cmsis_gcc.h ****  * @date     02. February 2017
   6:Generated_Source\PSoC6\pdl\cmsis/include/cmsis_gcc.h ****  ******************************************************************************/
   7:Generated_Source\PSoC6\pdl\cmsis/include/cmsis_gcc.h **** /*
   8:Generated_Source\PSoC6\pdl\cmsis/include/cmsis_gcc.h ****  * Copyright (c) 2009-2017 ARM Limited. All rights reserved.
   9:Generated_Source\PSoC6\pdl\cmsis/include/cmsis_gcc.h ****  *
  10:Generated_Source\PSoC6\pdl\cmsis/include/cmsis_gcc.h ****  * SPDX-License-Identifier: Apache-2.0
  11:Generated_Source\PSoC6\pdl\cmsis/include/cmsis_gcc.h ****  *
  12:Generated_Source\PSoC6\pdl\cmsis/include/cmsis_gcc.h ****  * Licensed under the Apache License, Version 2.0 (the License); you may
  13:Generated_Source\PSoC6\pdl\cmsis/include/cmsis_gcc.h ****  * not use this file except in compliance with the License.
  14:Generated_Source\PSoC6\pdl\cmsis/include/cmsis_gcc.h ****  * You may obtain a copy of the License at
  15:Generated_Source\PSoC6\pdl\cmsis/include/cmsis_gcc.h ****  *
  16:Generated_Source\PSoC6\pdl\cmsis/include/cmsis_gcc.h ****  * www.apache.org/licenses/LICENSE-2.0
  17:Generated_Source\PSoC6\pdl\cmsis/include/cmsis_gcc.h ****  *
  18:Generated_Source\PSoC6\pdl\cmsis/include/cmsis_gcc.h ****  * Unless required by applicable law or agreed to in writing, software
  19:Generated_Source\PSoC6\pdl\cmsis/include/cmsis_gcc.h ****  * distributed under the License is distributed on an AS IS BASIS, WITHOUT
  20:Generated_Source\PSoC6\pdl\cmsis/include/cmsis_gcc.h ****  * WARRANTIES OR CONDITIONS OF ANY KIND, either express or implied.
  21:Generated_Source\PSoC6\pdl\cmsis/include/cmsis_gcc.h ****  * See the License for the specific language governing permissions and
  22:Generated_Source\PSoC6\pdl\cmsis/include/cmsis_gcc.h ****  * limitations under the License.
ARM GAS  C:\Users\ikomb\AppData\Local\Temp\cc1CAX8S.s 			page 4


  23:Generated_Source\PSoC6\pdl\cmsis/include/cmsis_gcc.h ****  */
  24:Generated_Source\PSoC6\pdl\cmsis/include/cmsis_gcc.h **** 
  25:Generated_Source\PSoC6\pdl\cmsis/include/cmsis_gcc.h **** #ifndef __CMSIS_GCC_H
  26:Generated_Source\PSoC6\pdl\cmsis/include/cmsis_gcc.h **** #define __CMSIS_GCC_H
  27:Generated_Source\PSoC6\pdl\cmsis/include/cmsis_gcc.h **** 
  28:Generated_Source\PSoC6\pdl\cmsis/include/cmsis_gcc.h **** /* ignore some GCC warnings */
  29:Generated_Source\PSoC6\pdl\cmsis/include/cmsis_gcc.h **** #pragma GCC diagnostic push
  30:Generated_Source\PSoC6\pdl\cmsis/include/cmsis_gcc.h **** #pragma GCC diagnostic ignored "-Wsign-conversion"
  31:Generated_Source\PSoC6\pdl\cmsis/include/cmsis_gcc.h **** #pragma GCC diagnostic ignored "-Wconversion"
  32:Generated_Source\PSoC6\pdl\cmsis/include/cmsis_gcc.h **** #pragma GCC diagnostic ignored "-Wunused-parameter"
  33:Generated_Source\PSoC6\pdl\cmsis/include/cmsis_gcc.h **** 
  34:Generated_Source\PSoC6\pdl\cmsis/include/cmsis_gcc.h **** /* CMSIS compiler specific defines */
  35:Generated_Source\PSoC6\pdl\cmsis/include/cmsis_gcc.h **** #ifndef   __ASM
  36:Generated_Source\PSoC6\pdl\cmsis/include/cmsis_gcc.h ****   #define __ASM                     __asm
  37:Generated_Source\PSoC6\pdl\cmsis/include/cmsis_gcc.h **** #endif
  38:Generated_Source\PSoC6\pdl\cmsis/include/cmsis_gcc.h **** #ifndef   __INLINE
  39:Generated_Source\PSoC6\pdl\cmsis/include/cmsis_gcc.h ****   #define __INLINE                  inline
  40:Generated_Source\PSoC6\pdl\cmsis/include/cmsis_gcc.h **** #endif
  41:Generated_Source\PSoC6\pdl\cmsis/include/cmsis_gcc.h **** #ifndef   __STATIC_INLINE
  42:Generated_Source\PSoC6\pdl\cmsis/include/cmsis_gcc.h ****   #define __STATIC_INLINE           static inline
  43:Generated_Source\PSoC6\pdl\cmsis/include/cmsis_gcc.h **** #endif
  44:Generated_Source\PSoC6\pdl\cmsis/include/cmsis_gcc.h **** #ifndef   __NO_RETURN
  45:Generated_Source\PSoC6\pdl\cmsis/include/cmsis_gcc.h ****   #define __NO_RETURN               __attribute__((noreturn))
  46:Generated_Source\PSoC6\pdl\cmsis/include/cmsis_gcc.h **** #endif
  47:Generated_Source\PSoC6\pdl\cmsis/include/cmsis_gcc.h **** #ifndef   __USED
  48:Generated_Source\PSoC6\pdl\cmsis/include/cmsis_gcc.h ****   #define __USED                    __attribute__((used))
  49:Generated_Source\PSoC6\pdl\cmsis/include/cmsis_gcc.h **** #endif
  50:Generated_Source\PSoC6\pdl\cmsis/include/cmsis_gcc.h **** #ifndef   __WEAK
  51:Generated_Source\PSoC6\pdl\cmsis/include/cmsis_gcc.h ****   #define __WEAK                    __attribute__((weak))
  52:Generated_Source\PSoC6\pdl\cmsis/include/cmsis_gcc.h **** #endif
  53:Generated_Source\PSoC6\pdl\cmsis/include/cmsis_gcc.h **** #ifndef   __UNALIGNED_UINT32
  54:Generated_Source\PSoC6\pdl\cmsis/include/cmsis_gcc.h **** #pragma GCC diagnostic push
  55:Generated_Source\PSoC6\pdl\cmsis/include/cmsis_gcc.h **** #pragma GCC diagnostic ignored "-Wpacked"
  56:Generated_Source\PSoC6\pdl\cmsis/include/cmsis_gcc.h **** #pragma GCC diagnostic ignored "-Wattributes"
  57:Generated_Source\PSoC6\pdl\cmsis/include/cmsis_gcc.h ****   struct __attribute__((packed)) T_UINT32 { uint32_t v; };
  58:Generated_Source\PSoC6\pdl\cmsis/include/cmsis_gcc.h **** #pragma GCC diagnostic pop
  59:Generated_Source\PSoC6\pdl\cmsis/include/cmsis_gcc.h ****   #define __UNALIGNED_UINT32(x)     (((struct T_UINT32 *)(x))->v)
  60:Generated_Source\PSoC6\pdl\cmsis/include/cmsis_gcc.h **** #endif
  61:Generated_Source\PSoC6\pdl\cmsis/include/cmsis_gcc.h **** #ifndef   __ALIGNED
  62:Generated_Source\PSoC6\pdl\cmsis/include/cmsis_gcc.h ****   #define __ALIGNED(x)              __attribute__((aligned(x)))
  63:Generated_Source\PSoC6\pdl\cmsis/include/cmsis_gcc.h **** #endif
  64:Generated_Source\PSoC6\pdl\cmsis/include/cmsis_gcc.h **** #ifndef   __PACKED
  65:Generated_Source\PSoC6\pdl\cmsis/include/cmsis_gcc.h ****   #define __PACKED                  __attribute__((packed, aligned(1)))
  66:Generated_Source\PSoC6\pdl\cmsis/include/cmsis_gcc.h **** #endif
  67:Generated_Source\PSoC6\pdl\cmsis/include/cmsis_gcc.h **** #ifndef   __PACKED_STRUCT
  68:Generated_Source\PSoC6\pdl\cmsis/include/cmsis_gcc.h ****   #define __PACKED_STRUCT           struct __attribute__((packed, aligned(1)))
  69:Generated_Source\PSoC6\pdl\cmsis/include/cmsis_gcc.h **** #endif
  70:Generated_Source\PSoC6\pdl\cmsis/include/cmsis_gcc.h **** 
  71:Generated_Source\PSoC6\pdl\cmsis/include/cmsis_gcc.h **** 
  72:Generated_Source\PSoC6\pdl\cmsis/include/cmsis_gcc.h **** /* ###########################  Core Function Access  ########################### */
  73:Generated_Source\PSoC6\pdl\cmsis/include/cmsis_gcc.h **** /** \ingroup  CMSIS_Core_FunctionInterface
  74:Generated_Source\PSoC6\pdl\cmsis/include/cmsis_gcc.h ****     \defgroup CMSIS_Core_RegAccFunctions CMSIS Core Register Access Functions
  75:Generated_Source\PSoC6\pdl\cmsis/include/cmsis_gcc.h ****   @{
  76:Generated_Source\PSoC6\pdl\cmsis/include/cmsis_gcc.h ****  */
  77:Generated_Source\PSoC6\pdl\cmsis/include/cmsis_gcc.h **** 
  78:Generated_Source\PSoC6\pdl\cmsis/include/cmsis_gcc.h **** /**
  79:Generated_Source\PSoC6\pdl\cmsis/include/cmsis_gcc.h ****   \brief   Enable IRQ Interrupts
ARM GAS  C:\Users\ikomb\AppData\Local\Temp\cc1CAX8S.s 			page 5


  80:Generated_Source\PSoC6\pdl\cmsis/include/cmsis_gcc.h ****   \details Enables IRQ interrupts by clearing the I-bit in the CPSR.
  81:Generated_Source\PSoC6\pdl\cmsis/include/cmsis_gcc.h ****            Can only be executed in Privileged modes.
  82:Generated_Source\PSoC6\pdl\cmsis/include/cmsis_gcc.h ****  */
  83:Generated_Source\PSoC6\pdl\cmsis/include/cmsis_gcc.h **** __attribute__((always_inline)) __STATIC_INLINE void __enable_irq(void)
  84:Generated_Source\PSoC6\pdl\cmsis/include/cmsis_gcc.h **** {
  85:Generated_Source\PSoC6\pdl\cmsis/include/cmsis_gcc.h ****   __ASM volatile ("cpsie i" : : : "memory");
  62              		.loc 2 85 0
  63              		.syntax unified
  64              	@ 85 "Generated_Source\PSoC6\pdl\cmsis/include/cmsis_gcc.h" 1
  65 0006 62B6     		cpsie i
  66              	@ 0 "" 2
  67              		.thumb
  68              		.syntax unified
  69              	.LBE5:
  70              	.LBE4:
  78:main_cm4.c    ****     __enable_irq(); /* Enable global interrupts. */   
  79:main_cm4.c    ****                
  80:main_cm4.c    ****     /* Start I2C Master */
  81:main_cm4.c    ****     CodecI2CM_Start();	
  71              		.loc 1 81 0
  72 0008 FFF7FEFF 		bl	CodecI2CM_Start
  82:main_cm4.c    ****         
  83:main_cm4.c    ****     /* Start touch */
  84:main_cm4.c    ****     InitTouch();
  73              		.loc 1 84 0
  74 000c FFF7FEFF 		bl	InitTouch
  85:main_cm4.c    **** 
  86:main_cm4.c    ****     /* Start external memory */
  87:main_cm4.c    ****     InitMemory();    
  75              		.loc 1 87 0
  76 0010 FFF7FEFF 		bl	InitMemory
  88:main_cm4.c    ****     
  89:main_cm4.c    ****     /* Create Queues */
  90:main_cm4.c    ****     EventsQueue = xQueueCreate(QUEUE_SIZE, sizeof(uint32_t));
  77              		.loc 1 90 0
  78 0014 0022     		movs	r2, #0
  79 0016 0421     		movs	r1, #4
  80 0018 0820     		movs	r0, #8
  81 001a FFF7FEFF 		bl	xQueueGenericCreate
  82 001e 0246     		mov	r2, r0
  83 0020 224B     		ldr	r3, .L3
  84 0022 1A60     		str	r2, [r3]
  91:main_cm4.c    ****     GUIQueue = xQueueCreate(QUEUE_SIZE, sizeof(uint32_t));
  85              		.loc 1 91 0
  86 0024 0022     		movs	r2, #0
  87 0026 0421     		movs	r1, #4
  88 0028 0820     		movs	r0, #8
  89 002a FFF7FEFF 		bl	xQueueGenericCreate
  90 002e 0246     		mov	r2, r0
  91 0030 1F4B     		ldr	r3, .L3+4
  92 0032 1A60     		str	r2, [r3]
  92:main_cm4.c    ****     
  93:main_cm4.c    ****     /* Create Semaphores */
  94:main_cm4.c    ****     SmifSemphr = xSemaphoreCreateBinary();
  93              		.loc 1 94 0
  94 0034 0322     		movs	r2, #3
  95 0036 0021     		movs	r1, #0
ARM GAS  C:\Users\ikomb\AppData\Local\Temp\cc1CAX8S.s 			page 6


  96 0038 0120     		movs	r0, #1
  97 003a FFF7FEFF 		bl	xQueueGenericCreate
  98 003e 0246     		mov	r2, r0
  99 0040 1C4B     		ldr	r3, .L3+8
 100 0042 1A60     		str	r2, [r3]
  95:main_cm4.c    ****     
  96:main_cm4.c    ****     /* Create Event Group Bits */
  97:main_cm4.c    ****     DmaEvents = xEventGroupCreate();
 101              		.loc 1 97 0
 102 0044 FFF7FEFF 		bl	xEventGroupCreate
 103 0048 0246     		mov	r2, r0
 104 004a 1B4B     		ldr	r3, .L3+12
 105 004c 1A60     		str	r2, [r3]
  98:main_cm4.c    ****     
  99:main_cm4.c    ****     /* Create Tasks */
 100:main_cm4.c    ****     xTaskCreate(RecorderTask, "Recorder Task", STACK_DEPTH, NULL, 1, NULL);
 106              		.loc 1 100 0
 107 004e 0023     		movs	r3, #0
 108 0050 0193     		str	r3, [sp, #4]
 109 0052 0123     		movs	r3, #1
 110 0054 0093     		str	r3, [sp]
 111 0056 0023     		movs	r3, #0
 112 0058 4FF4C872 		mov	r2, #400
 113 005c 1749     		ldr	r1, .L3+16
 114 005e 1848     		ldr	r0, .L3+20
 115 0060 FFF7FEFF 		bl	xTaskCreate
 101:main_cm4.c    ****     xTaskCreate(TouchTask, "Touch Task", STACK_DEPTH, NULL, 1, NULL);
 116              		.loc 1 101 0
 117 0064 0023     		movs	r3, #0
 118 0066 0193     		str	r3, [sp, #4]
 119 0068 0123     		movs	r3, #1
 120 006a 0093     		str	r3, [sp]
 121 006c 0023     		movs	r3, #0
 122 006e 4FF4C872 		mov	r2, #400
 123 0072 1449     		ldr	r1, .L3+24
 124 0074 1448     		ldr	r0, .L3+28
 125 0076 FFF7FEFF 		bl	xTaskCreate
 102:main_cm4.c    ****     xTaskCreate(GraphicsTask, "Graphics Task", STACK_DEPTH, NULL, 1, NULL);
 126              		.loc 1 102 0
 127 007a 0023     		movs	r3, #0
 128 007c 0193     		str	r3, [sp, #4]
 129 007e 0123     		movs	r3, #1
 130 0080 0093     		str	r3, [sp]
 131 0082 0023     		movs	r3, #0
 132 0084 4FF4C872 		mov	r2, #400
 133 0088 1049     		ldr	r1, .L3+32
 134 008a 1148     		ldr	r0, .L3+36
 135 008c FFF7FEFF 		bl	xTaskCreate
 103:main_cm4.c    ****     xTaskCreate(EventsTask, "Command Task", STACK_DEPTH, NULL, 1, NULL);
 136              		.loc 1 103 0
 137 0090 0023     		movs	r3, #0
 138 0092 0193     		str	r3, [sp, #4]
 139 0094 0123     		movs	r3, #1
 140 0096 0093     		str	r3, [sp]
 141 0098 0023     		movs	r3, #0
 142 009a 4FF4C872 		mov	r2, #400
 143 009e 0D49     		ldr	r1, .L3+40
ARM GAS  C:\Users\ikomb\AppData\Local\Temp\cc1CAX8S.s 			page 7


 144 00a0 0D48     		ldr	r0, .L3+44
 145 00a2 FFF7FEFF 		bl	xTaskCreate
 104:main_cm4.c    ****     
 105:main_cm4.c    ****     vTaskStartScheduler(); 
 146              		.loc 1 105 0
 147 00a6 FFF7FEFF 		bl	vTaskStartScheduler
 148              	.L2:
 106:main_cm4.c    ****     
 107:main_cm4.c    ****     for(;;)
 108:main_cm4.c    ****     {             
 109:main_cm4.c    **** 
 110:main_cm4.c    ****     }
 149              		.loc 1 110 0 discriminator 1
 150 00aa FEE7     		b	.L2
 151              	.L4:
 152              		.align	2
 153              	.L3:
 154 00ac 00000000 		.word	EventsQueue
 155 00b0 00000000 		.word	GUIQueue
 156 00b4 00000000 		.word	SmifSemphr
 157 00b8 00000000 		.word	DmaEvents
 158 00bc 00000000 		.word	.LC0
 159 00c0 00000000 		.word	RecorderTask
 160 00c4 10000000 		.word	.LC1
 161 00c8 00000000 		.word	TouchTask
 162 00cc 1C000000 		.word	.LC2
 163 00d0 00000000 		.word	GraphicsTask
 164 00d4 2C000000 		.word	.LC3
 165 00d8 00000000 		.word	EventsTask
 166              		.cfi_endproc
 167              	.LFE807:
 168              		.size	main, .-main
 169              		.text
 170              	.Letext0:
 171              		.file 3 "c:\\program files (x86)\\cypress\\psoc creator\\4.4\\psoc creator\\import\\gnu\\arm\\5.4.
 172              		.file 4 "c:\\program files (x86)\\cypress\\psoc creator\\4.4\\psoc creator\\import\\gnu\\arm\\5.4.
 173              		.file 5 "Generated_Source\\PSoC6\\pdl\\drivers/peripheral/syslib/cy_syslib.h"
 174              		.file 6 "Generated_Source\\PSoC6\\pdl\\drivers/peripheral/smif/cy_smif.h"
 175              		.file 7 "Generated_Source\\PSoC6\\pdl\\drivers/peripheral/smif/cy_smif_memslot.h"
 176              		.file 8 "Generated_Source\\PSoC6\\pdl\\drivers/peripheral/scb/cy_scb_i2c.h"
 177              		.file 9 "Generated_Source\\PSoC6\\pdl\\drivers/peripheral/i2s/cy_i2s.h"
 178              		.file 10 "Generated_Source\\PSoC6\\pdl\\drivers/peripheral/pdm_pcm/cy_pdm_pcm.h"
 179              		.file 11 "Generated_Source\\PSoC6\\pdl\\rtos/FreeRTOS/9.0.0/Source/portable/GCC/CM4F/portmacro.h"
 180              		.file 12 "Generated_Source\\PSoC6\\pdl\\rtos/FreeRTOS/9.0.0/Source/include/queue.h"
 181              		.file 13 "Generated_Source\\PSoC6\\pdl\\rtos/FreeRTOS/9.0.0/Source/include/semphr.h"
 182              		.file 14 "Generated_Source\\PSoC6\\pdl\\rtos/FreeRTOS/9.0.0/Source/include/timers.h"
 183              		.file 15 "Generated_Source\\PSoC6\\pdl\\rtos/FreeRTOS/9.0.0/Source/include/event_groups.h"
 184              		.file 16 "Generated_Source\\PSoC6\\pdl\\cmsis/include/core_cm4.h"
 185              		.file 17 "Generated_Source\\PSoC6/PDM_PCM.h"
 186              		.file 18 "Generated_Source\\PSoC6/CodecI2CM.h"
 187              		.file 19 "Generated_Source\\PSoC6/I2S.h"
 188              		.file 20 "Generated_Source\\PSoC6/SMIF_1.h"