ARM GAS  C:\Users\ikomb\AppData\Local\Temp\ccKMSltZ.s 			page 1


   1              		.syntax unified
   2              		.cpu cortex-m4
   3              		.eabi_attribute 27, 1
   4              		.fpu fpv4-sp-d16
   5              		.eabi_attribute 20, 1
   6              		.eabi_attribute 21, 1
   7              		.eabi_attribute 23, 3
   8              		.eabi_attribute 24, 1
   9              		.eabi_attribute 25, 1
  10              		.eabi_attribute 26, 1
  11              		.eabi_attribute 30, 6
  12              		.eabi_attribute 34, 1
  13              		.eabi_attribute 18, 4
  14              		.thumb
  15              		.syntax unified
  16              		.file	"PDM_PCM.c"
  17              		.text
  18              	.Ltext0:
  19              		.cfi_sections	.debug_frame
  20              		.section	.text.Cy_PDM_PCM_Enable,"ax",%progbits
  21              		.align	2
  22              		.thumb
  23              		.thumb_func
  24              		.type	Cy_PDM_PCM_Enable, %function
  25              	Cy_PDM_PCM_Enable:
  26              	.LFB158:
  27              		.file 1 "Generated_Source\\PSoC6\\pdl\\drivers/peripheral/pdm_pcm/cy_pdm_pcm.h"
   1:Generated_Source\PSoC6\pdl\drivers/peripheral/pdm_pcm/cy_pdm_pcm.h **** /***************************************************************************//**
   2:Generated_Source\PSoC6\pdl\drivers/peripheral/pdm_pcm/cy_pdm_pcm.h **** * \file cy_pdm_pcm.h
   3:Generated_Source\PSoC6\pdl\drivers/peripheral/pdm_pcm/cy_pdm_pcm.h **** * \version 2.10
   4:Generated_Source\PSoC6\pdl\drivers/peripheral/pdm_pcm/cy_pdm_pcm.h **** *
   5:Generated_Source\PSoC6\pdl\drivers/peripheral/pdm_pcm/cy_pdm_pcm.h **** * The header file of the PDM_PCM driver.
   6:Generated_Source\PSoC6\pdl\drivers/peripheral/pdm_pcm/cy_pdm_pcm.h **** *
   7:Generated_Source\PSoC6\pdl\drivers/peripheral/pdm_pcm/cy_pdm_pcm.h **** ********************************************************************************
   8:Generated_Source\PSoC6\pdl\drivers/peripheral/pdm_pcm/cy_pdm_pcm.h **** * \copyright
   9:Generated_Source\PSoC6\pdl\drivers/peripheral/pdm_pcm/cy_pdm_pcm.h **** * Copyright 2016-2018, Cypress Semiconductor Corporation. All rights reserved.
  10:Generated_Source\PSoC6\pdl\drivers/peripheral/pdm_pcm/cy_pdm_pcm.h **** * You may use this file only in accordance with the license, terms, conditions,
  11:Generated_Source\PSoC6\pdl\drivers/peripheral/pdm_pcm/cy_pdm_pcm.h **** * disclaimers, and limitations in the end user license agreement accompanying
  12:Generated_Source\PSoC6\pdl\drivers/peripheral/pdm_pcm/cy_pdm_pcm.h **** * the software package with which this file was provided.
  13:Generated_Source\PSoC6\pdl\drivers/peripheral/pdm_pcm/cy_pdm_pcm.h **** *******************************************************************************/
  14:Generated_Source\PSoC6\pdl\drivers/peripheral/pdm_pcm/cy_pdm_pcm.h **** 
  15:Generated_Source\PSoC6\pdl\drivers/peripheral/pdm_pcm/cy_pdm_pcm.h **** /**
  16:Generated_Source\PSoC6\pdl\drivers/peripheral/pdm_pcm/cy_pdm_pcm.h **** * \defgroup group_pdm_pcm PDM-PCM Converter (PDM_PCM)
  17:Generated_Source\PSoC6\pdl\drivers/peripheral/pdm_pcm/cy_pdm_pcm.h **** * \{
  18:Generated_Source\PSoC6\pdl\drivers/peripheral/pdm_pcm/cy_pdm_pcm.h **** *
  19:Generated_Source\PSoC6\pdl\drivers/peripheral/pdm_pcm/cy_pdm_pcm.h **** * The pulse-density modulation to pulse-code modulation (PDM-PCM) driver provides an
  20:Generated_Source\PSoC6\pdl\drivers/peripheral/pdm_pcm/cy_pdm_pcm.h **** * API to manage PDM-PCM conversion. A PDM-PCM converter is used
  21:Generated_Source\PSoC6\pdl\drivers/peripheral/pdm_pcm/cy_pdm_pcm.h **** * to convert 1-bit digital audio streaming data to PCM data.
  22:Generated_Source\PSoC6\pdl\drivers/peripheral/pdm_pcm/cy_pdm_pcm.h **** *
  23:Generated_Source\PSoC6\pdl\drivers/peripheral/pdm_pcm/cy_pdm_pcm.h **** * Features:
  24:Generated_Source\PSoC6\pdl\drivers/peripheral/pdm_pcm/cy_pdm_pcm.h **** * * Supports FIFO buffer for Incoming Data
  25:Generated_Source\PSoC6\pdl\drivers/peripheral/pdm_pcm/cy_pdm_pcm.h **** * * Supports Software Mute Mode
  26:Generated_Source\PSoC6\pdl\drivers/peripheral/pdm_pcm/cy_pdm_pcm.h **** * * Programmable Gain Settings
  27:Generated_Source\PSoC6\pdl\drivers/peripheral/pdm_pcm/cy_pdm_pcm.h **** * * Programmable Word Length
  28:Generated_Source\PSoC6\pdl\drivers/peripheral/pdm_pcm/cy_pdm_pcm.h **** *
  29:Generated_Source\PSoC6\pdl\drivers/peripheral/pdm_pcm/cy_pdm_pcm.h **** * Pulse-density modulation, or PDM, represents
  30:Generated_Source\PSoC6\pdl\drivers/peripheral/pdm_pcm/cy_pdm_pcm.h **** * an analog signal with a binary signal. In a PDM signal, specific amplitude values
ARM GAS  C:\Users\ikomb\AppData\Local\Temp\ccKMSltZ.s 			page 2


  31:Generated_Source\PSoC6\pdl\drivers/peripheral/pdm_pcm/cy_pdm_pcm.h **** * are not encoded into codewords of pulses of different weight as they would be
  32:Generated_Source\PSoC6\pdl\drivers/peripheral/pdm_pcm/cy_pdm_pcm.h **** * in pulse-code modulation (PCM); rather, the relative density of the pulses corresponds
  33:Generated_Source\PSoC6\pdl\drivers/peripheral/pdm_pcm/cy_pdm_pcm.h **** * to the analog signal's amplitude. The output of a 1-bit DAC is the same
  34:Generated_Source\PSoC6\pdl\drivers/peripheral/pdm_pcm/cy_pdm_pcm.h **** * as the PDM encoding of the signal.
  35:Generated_Source\PSoC6\pdl\drivers/peripheral/pdm_pcm/cy_pdm_pcm.h **** *
  36:Generated_Source\PSoC6\pdl\drivers/peripheral/pdm_pcm/cy_pdm_pcm.h **** * Pulse-code modulation (PCM) is the method used to digitally represent sampled analog signals.
  37:Generated_Source\PSoC6\pdl\drivers/peripheral/pdm_pcm/cy_pdm_pcm.h **** * It is the standard form of digital audio in computers, compact discs, digital telephony,
  38:Generated_Source\PSoC6\pdl\drivers/peripheral/pdm_pcm/cy_pdm_pcm.h **** * and other digital audio applications. In a PCM stream, the amplitude of the analog signal
  39:Generated_Source\PSoC6\pdl\drivers/peripheral/pdm_pcm/cy_pdm_pcm.h **** * is sampled regularly at uniform intervals, and each sample is quantized
  40:Generated_Source\PSoC6\pdl\drivers/peripheral/pdm_pcm/cy_pdm_pcm.h **** * to the nearest value within a range of digital steps.
  41:Generated_Source\PSoC6\pdl\drivers/peripheral/pdm_pcm/cy_pdm_pcm.h **** *
  42:Generated_Source\PSoC6\pdl\drivers/peripheral/pdm_pcm/cy_pdm_pcm.h **** * \section group_pdm_pcm_configuration_considerations Configuration Considerations
  43:Generated_Source\PSoC6\pdl\drivers/peripheral/pdm_pcm/cy_pdm_pcm.h **** *
  44:Generated_Source\PSoC6\pdl\drivers/peripheral/pdm_pcm/cy_pdm_pcm.h **** * To set up a PDM-PCM, provide the configuration parameters in the
  45:Generated_Source\PSoC6\pdl\drivers/peripheral/pdm_pcm/cy_pdm_pcm.h **** * \ref cy_stc_pdm_pcm_config_t structure.
  46:Generated_Source\PSoC6\pdl\drivers/peripheral/pdm_pcm/cy_pdm_pcm.h **** *
  47:Generated_Source\PSoC6\pdl\drivers/peripheral/pdm_pcm/cy_pdm_pcm.h **** * For example, set dataStreamingEnable to true, configure rxFifoTriggerLevel,
  48:Generated_Source\PSoC6\pdl\drivers/peripheral/pdm_pcm/cy_pdm_pcm.h **** * dmaTriggerEnable (depending on whether DMA is going to be used),
  49:Generated_Source\PSoC6\pdl\drivers/peripheral/pdm_pcm/cy_pdm_pcm.h **** * provide clock settings (clkDiv, mclkDiv and ckoDiv), set sincDecRate
  50:Generated_Source\PSoC6\pdl\drivers/peripheral/pdm_pcm/cy_pdm_pcm.h **** * to the appropriate decimation rate, wordLen, and wordBitExtension.
  51:Generated_Source\PSoC6\pdl\drivers/peripheral/pdm_pcm/cy_pdm_pcm.h **** * No other parameters are necessary for this example.
  52:Generated_Source\PSoC6\pdl\drivers/peripheral/pdm_pcm/cy_pdm_pcm.h **** *
  53:Generated_Source\PSoC6\pdl\drivers/peripheral/pdm_pcm/cy_pdm_pcm.h **** * To initialize the PDM-PCM block, call the \ref Cy_PDM_PCM_Init function, providing the
  54:Generated_Source\PSoC6\pdl\drivers/peripheral/pdm_pcm/cy_pdm_pcm.h **** * filled \ref cy_stc_pdm_pcm_config_t structure.
  55:Generated_Source\PSoC6\pdl\drivers/peripheral/pdm_pcm/cy_pdm_pcm.h **** *
  56:Generated_Source\PSoC6\pdl\drivers/peripheral/pdm_pcm/cy_pdm_pcm.h **** * If you use a DMA, the DMA channel should be previously configured. PDM-PCM interrupts
  57:Generated_Source\PSoC6\pdl\drivers/peripheral/pdm_pcm/cy_pdm_pcm.h **** * (if applicable) can be enabled by calling \ref Cy_PDM_PCM_SetInterruptMask.
  58:Generated_Source\PSoC6\pdl\drivers/peripheral/pdm_pcm/cy_pdm_pcm.h **** *
  59:Generated_Source\PSoC6\pdl\drivers/peripheral/pdm_pcm/cy_pdm_pcm.h **** * For example, if the trigger interrupt is used during operation, the ISR
  60:Generated_Source\PSoC6\pdl\drivers/peripheral/pdm_pcm/cy_pdm_pcm.h **** * should call the \ref Cy_PDM_PCM_ReadFifo as many times as required for your
  61:Generated_Source\PSoC6\pdl\drivers/peripheral/pdm_pcm/cy_pdm_pcm.h **** * FIFO payload. Then call \ref Cy_PDM_PCM_ClearInterrupt with appropriate parameters.
  62:Generated_Source\PSoC6\pdl\drivers/peripheral/pdm_pcm/cy_pdm_pcm.h **** *
  63:Generated_Source\PSoC6\pdl\drivers/peripheral/pdm_pcm/cy_pdm_pcm.h **** * If a DMA is used and the DMA channel is properly configured, no CPU activity
  64:Generated_Source\PSoC6\pdl\drivers/peripheral/pdm_pcm/cy_pdm_pcm.h **** * (or application code) is needed for PDM-PCM operation.
  65:Generated_Source\PSoC6\pdl\drivers/peripheral/pdm_pcm/cy_pdm_pcm.h **** *
  66:Generated_Source\PSoC6\pdl\drivers/peripheral/pdm_pcm/cy_pdm_pcm.h **** * \section group_pdm_pcm_more_information More Information
  67:Generated_Source\PSoC6\pdl\drivers/peripheral/pdm_pcm/cy_pdm_pcm.h **** * See: the PDM-PCM chapter of the device technical reference manual (TRM);
  68:Generated_Source\PSoC6\pdl\drivers/peripheral/pdm_pcm/cy_pdm_pcm.h **** *      the PDM_PCM_PDL Component datasheet;
  69:Generated_Source\PSoC6\pdl\drivers/peripheral/pdm_pcm/cy_pdm_pcm.h **** *      CE219431 - PSOC 6 MCU PDM-TO-PCM EXAMPLE.
  70:Generated_Source\PSoC6\pdl\drivers/peripheral/pdm_pcm/cy_pdm_pcm.h **** *
  71:Generated_Source\PSoC6\pdl\drivers/peripheral/pdm_pcm/cy_pdm_pcm.h **** * \section group_pdm_pcm_MISRA MISRA-C Compliance
  72:Generated_Source\PSoC6\pdl\drivers/peripheral/pdm_pcm/cy_pdm_pcm.h **** * The PDM-PCM driver has the following specific deviations:
  73:Generated_Source\PSoC6\pdl\drivers/peripheral/pdm_pcm/cy_pdm_pcm.h **** * <table class="doxtable">
  74:Generated_Source\PSoC6\pdl\drivers/peripheral/pdm_pcm/cy_pdm_pcm.h **** *   <tr>
  75:Generated_Source\PSoC6\pdl\drivers/peripheral/pdm_pcm/cy_pdm_pcm.h **** *     <th>MISRA Rule</th>
  76:Generated_Source\PSoC6\pdl\drivers/peripheral/pdm_pcm/cy_pdm_pcm.h **** *     <th>Rule Class (Required/Advisory)</th>
  77:Generated_Source\PSoC6\pdl\drivers/peripheral/pdm_pcm/cy_pdm_pcm.h **** *     <th>Rule Description</th>
  78:Generated_Source\PSoC6\pdl\drivers/peripheral/pdm_pcm/cy_pdm_pcm.h **** *     <th>Description of Deviation(s)</th>
  79:Generated_Source\PSoC6\pdl\drivers/peripheral/pdm_pcm/cy_pdm_pcm.h **** *   </tr>
  80:Generated_Source\PSoC6\pdl\drivers/peripheral/pdm_pcm/cy_pdm_pcm.h **** *   <tr>
  81:Generated_Source\PSoC6\pdl\drivers/peripheral/pdm_pcm/cy_pdm_pcm.h **** *     <td>10.3</td>
  82:Generated_Source\PSoC6\pdl\drivers/peripheral/pdm_pcm/cy_pdm_pcm.h **** *     <td>R</td>
  83:Generated_Source\PSoC6\pdl\drivers/peripheral/pdm_pcm/cy_pdm_pcm.h **** *     <td>A composite expression of the "essentially unsigned" type is
  84:Generated_Source\PSoC6\pdl\drivers/peripheral/pdm_pcm/cy_pdm_pcm.h **** *         cast to a different type category.</td>
  85:Generated_Source\PSoC6\pdl\drivers/peripheral/pdm_pcm/cy_pdm_pcm.h **** *     <td>The value got from the bitfield physically can't exceed the enumeration
  86:Generated_Source\PSoC6\pdl\drivers/peripheral/pdm_pcm/cy_pdm_pcm.h **** *         that describes this bitfield. So the code is safe by design.</td>
  87:Generated_Source\PSoC6\pdl\drivers/peripheral/pdm_pcm/cy_pdm_pcm.h **** *   </tr>
ARM GAS  C:\Users\ikomb\AppData\Local\Temp\ccKMSltZ.s 			page 3


  88:Generated_Source\PSoC6\pdl\drivers/peripheral/pdm_pcm/cy_pdm_pcm.h **** *   <tr>
  89:Generated_Source\PSoC6\pdl\drivers/peripheral/pdm_pcm/cy_pdm_pcm.h **** *     <td>11.4</td>
  90:Generated_Source\PSoC6\pdl\drivers/peripheral/pdm_pcm/cy_pdm_pcm.h **** *     <td>A</td>
  91:Generated_Source\PSoC6\pdl\drivers/peripheral/pdm_pcm/cy_pdm_pcm.h **** *     <td>A cast should not be performed between a pointer to the object type and
  92:Generated_Source\PSoC6\pdl\drivers/peripheral/pdm_pcm/cy_pdm_pcm.h **** *         a different pointer to the object type.</td>
  93:Generated_Source\PSoC6\pdl\drivers/peripheral/pdm_pcm/cy_pdm_pcm.h **** *     <td>The function \ref Cy_I2S_DeepSleepCallback is a callback of
  94:Generated_Source\PSoC6\pdl\drivers/peripheral/pdm_pcm/cy_pdm_pcm.h **** *         \ref cy_en_syspm_status_t type. The cast operation safety in this
  95:Generated_Source\PSoC6\pdl\drivers/peripheral/pdm_pcm/cy_pdm_pcm.h **** *         function becomes the user responsibility because the pointer is
  96:Generated_Source\PSoC6\pdl\drivers/peripheral/pdm_pcm/cy_pdm_pcm.h **** *         initialized when a callback is registered in SysPm driver.</td>
  97:Generated_Source\PSoC6\pdl\drivers/peripheral/pdm_pcm/cy_pdm_pcm.h **** *   </tr>
  98:Generated_Source\PSoC6\pdl\drivers/peripheral/pdm_pcm/cy_pdm_pcm.h **** * </table>
  99:Generated_Source\PSoC6\pdl\drivers/peripheral/pdm_pcm/cy_pdm_pcm.h **** *
 100:Generated_Source\PSoC6\pdl\drivers/peripheral/pdm_pcm/cy_pdm_pcm.h **** * \section group_pdm_pcm_changelog Changelog
 101:Generated_Source\PSoC6\pdl\drivers/peripheral/pdm_pcm/cy_pdm_pcm.h **** * <table class="doxtable">
 102:Generated_Source\PSoC6\pdl\drivers/peripheral/pdm_pcm/cy_pdm_pcm.h **** *   <tr><th>Version</th><th>Changes</th><th>Reason for Change</th></tr>
 103:Generated_Source\PSoC6\pdl\drivers/peripheral/pdm_pcm/cy_pdm_pcm.h **** *   <tr>
 104:Generated_Source\PSoC6\pdl\drivers/peripheral/pdm_pcm/cy_pdm_pcm.h **** *     <td>2.10</td>
 105:Generated_Source\PSoC6\pdl\drivers/peripheral/pdm_pcm/cy_pdm_pcm.h **** *     <td>The gain values in range +4.5...+10.5dB (5 items) of /ref cy_en_pdm_pcm_gain_t are correc
 106:Generated_Source\PSoC6\pdl\drivers/peripheral/pdm_pcm/cy_pdm_pcm.h **** *         Added Low Power Callback section.</td>
 107:Generated_Source\PSoC6\pdl\drivers/peripheral/pdm_pcm/cy_pdm_pcm.h **** *     <td>Incorrect setting of gain values in limited range.
 108:Generated_Source\PSoC6\pdl\drivers/peripheral/pdm_pcm/cy_pdm_pcm.h **** *         Documentation update and clarification.</td>
 109:Generated_Source\PSoC6\pdl\drivers/peripheral/pdm_pcm/cy_pdm_pcm.h **** *   </tr>
 110:Generated_Source\PSoC6\pdl\drivers/peripheral/pdm_pcm/cy_pdm_pcm.h **** *   <tr>
 111:Generated_Source\PSoC6\pdl\drivers/peripheral/pdm_pcm/cy_pdm_pcm.h **** *     <td>2.0</td>
 112:Generated_Source\PSoC6\pdl\drivers/peripheral/pdm_pcm/cy_pdm_pcm.h **** *     <td>Enumeration types for gain and soft mute cycles are added.<br>
 113:Generated_Source\PSoC6\pdl\drivers/peripheral/pdm_pcm/cy_pdm_pcm.h **** *         Function parameter checks are added.<br>        
 114:Generated_Source\PSoC6\pdl\drivers/peripheral/pdm_pcm/cy_pdm_pcm.h **** *         The next functions are removed:
 115:Generated_Source\PSoC6\pdl\drivers/peripheral/pdm_pcm/cy_pdm_pcm.h **** *         * Cy_PDM_PCM_EnterLowPowerCallback
 116:Generated_Source\PSoC6\pdl\drivers/peripheral/pdm_pcm/cy_pdm_pcm.h **** *         * Cy_PDM_PCM_ExitLowPowerCallback
 117:Generated_Source\PSoC6\pdl\drivers/peripheral/pdm_pcm/cy_pdm_pcm.h **** *         * Cy_PDM_PCM_EnableDataStream
 118:Generated_Source\PSoC6\pdl\drivers/peripheral/pdm_pcm/cy_pdm_pcm.h **** *         * Cy_PDM_PCM_DisableDataStream
 119:Generated_Source\PSoC6\pdl\drivers/peripheral/pdm_pcm/cy_pdm_pcm.h **** *         * Cy_PDM_PCM_SetFifoLevel
 120:Generated_Source\PSoC6\pdl\drivers/peripheral/pdm_pcm/cy_pdm_pcm.h **** *         * Cy_PDM_PCM_GetFifoLevel
 121:Generated_Source\PSoC6\pdl\drivers/peripheral/pdm_pcm/cy_pdm_pcm.h **** *         * Cy_PDM_PCM_EnableDmaRequest
 122:Generated_Source\PSoC6\pdl\drivers/peripheral/pdm_pcm/cy_pdm_pcm.h **** *         * Cy_PDM_PCM_DisableDmaRequest
 123:Generated_Source\PSoC6\pdl\drivers/peripheral/pdm_pcm/cy_pdm_pcm.h **** *
 124:Generated_Source\PSoC6\pdl\drivers/peripheral/pdm_pcm/cy_pdm_pcm.h **** *         The next functions behaviour are modified:
 125:Generated_Source\PSoC6\pdl\drivers/peripheral/pdm_pcm/cy_pdm_pcm.h **** *         * Cy_PDM_PCM_Enable
 126:Generated_Source\PSoC6\pdl\drivers/peripheral/pdm_pcm/cy_pdm_pcm.h **** *         * Cy_PDM_PCM_Disable
 127:Generated_Source\PSoC6\pdl\drivers/peripheral/pdm_pcm/cy_pdm_pcm.h **** *         * Cy_PDM_PCM_SetInterruptMask
 128:Generated_Source\PSoC6\pdl\drivers/peripheral/pdm_pcm/cy_pdm_pcm.h **** *         * Cy_PDM_PCM_GetInterruptMask
 129:Generated_Source\PSoC6\pdl\drivers/peripheral/pdm_pcm/cy_pdm_pcm.h **** *         * Cy_PDM_PCM_GetInterruptStatusMasked
 130:Generated_Source\PSoC6\pdl\drivers/peripheral/pdm_pcm/cy_pdm_pcm.h **** *         * Cy_PDM_PCM_GetInterruptStatus
 131:Generated_Source\PSoC6\pdl\drivers/peripheral/pdm_pcm/cy_pdm_pcm.h **** *         * Cy_PDM_PCM_ClearInterrupt
 132:Generated_Source\PSoC6\pdl\drivers/peripheral/pdm_pcm/cy_pdm_pcm.h **** *         * Cy_PDM_PCM_SetInterrupt
 133:Generated_Source\PSoC6\pdl\drivers/peripheral/pdm_pcm/cy_pdm_pcm.h **** *
 134:Generated_Source\PSoC6\pdl\drivers/peripheral/pdm_pcm/cy_pdm_pcm.h **** *         The Cy_PDM_PCM_GetFifoNumWords function is renamed to Cy_PDM_PCM_GetNumInFifo.<br>
 135:Generated_Source\PSoC6\pdl\drivers/peripheral/pdm_pcm/cy_pdm_pcm.h **** *         The Cy_PDM_PCM_GetCurrentState function is added.
 136:Generated_Source\PSoC6\pdl\drivers/peripheral/pdm_pcm/cy_pdm_pcm.h **** *     </td>
 137:Generated_Source\PSoC6\pdl\drivers/peripheral/pdm_pcm/cy_pdm_pcm.h **** *     <td>Improvements based on usability feedbacks.<br>
 138:Generated_Source\PSoC6\pdl\drivers/peripheral/pdm_pcm/cy_pdm_pcm.h **** *         API is reworked for consistency within the PDL.
 139:Generated_Source\PSoC6\pdl\drivers/peripheral/pdm_pcm/cy_pdm_pcm.h **** *     </td>
 140:Generated_Source\PSoC6\pdl\drivers/peripheral/pdm_pcm/cy_pdm_pcm.h **** *   </tr>
 141:Generated_Source\PSoC6\pdl\drivers/peripheral/pdm_pcm/cy_pdm_pcm.h **** *   <tr>
 142:Generated_Source\PSoC6\pdl\drivers/peripheral/pdm_pcm/cy_pdm_pcm.h **** *     <td>1.0</td>
 143:Generated_Source\PSoC6\pdl\drivers/peripheral/pdm_pcm/cy_pdm_pcm.h **** *     <td>Initial version</td>
 144:Generated_Source\PSoC6\pdl\drivers/peripheral/pdm_pcm/cy_pdm_pcm.h **** *     <td></td>
ARM GAS  C:\Users\ikomb\AppData\Local\Temp\ccKMSltZ.s 			page 4


 145:Generated_Source\PSoC6\pdl\drivers/peripheral/pdm_pcm/cy_pdm_pcm.h **** *   </tr>
 146:Generated_Source\PSoC6\pdl\drivers/peripheral/pdm_pcm/cy_pdm_pcm.h **** * </table>
 147:Generated_Source\PSoC6\pdl\drivers/peripheral/pdm_pcm/cy_pdm_pcm.h **** *
 148:Generated_Source\PSoC6\pdl\drivers/peripheral/pdm_pcm/cy_pdm_pcm.h **** * \defgroup group_pdm_pcm_macros Macros
 149:Generated_Source\PSoC6\pdl\drivers/peripheral/pdm_pcm/cy_pdm_pcm.h **** * \defgroup group_pdm_pcm_functions Functions
 150:Generated_Source\PSoC6\pdl\drivers/peripheral/pdm_pcm/cy_pdm_pcm.h **** *   \{
 151:Generated_Source\PSoC6\pdl\drivers/peripheral/pdm_pcm/cy_pdm_pcm.h **** *       \defgroup group_pdm_pcm_functions_syspm_callback  Low Power Callback
 152:Generated_Source\PSoC6\pdl\drivers/peripheral/pdm_pcm/cy_pdm_pcm.h **** *   \}
 153:Generated_Source\PSoC6\pdl\drivers/peripheral/pdm_pcm/cy_pdm_pcm.h **** * \defgroup group_pdm_pcm_data_structures Data Structures
 154:Generated_Source\PSoC6\pdl\drivers/peripheral/pdm_pcm/cy_pdm_pcm.h **** * \defgroup group_pdm_pcm_enums Enumerated Types
 155:Generated_Source\PSoC6\pdl\drivers/peripheral/pdm_pcm/cy_pdm_pcm.h **** *
 156:Generated_Source\PSoC6\pdl\drivers/peripheral/pdm_pcm/cy_pdm_pcm.h **** */
 157:Generated_Source\PSoC6\pdl\drivers/peripheral/pdm_pcm/cy_pdm_pcm.h **** 
 158:Generated_Source\PSoC6\pdl\drivers/peripheral/pdm_pcm/cy_pdm_pcm.h **** #if !defined(CY_PDM_PCM_H__)
 159:Generated_Source\PSoC6\pdl\drivers/peripheral/pdm_pcm/cy_pdm_pcm.h **** #define CY_PDM_PCM_H__
 160:Generated_Source\PSoC6\pdl\drivers/peripheral/pdm_pcm/cy_pdm_pcm.h **** 
 161:Generated_Source\PSoC6\pdl\drivers/peripheral/pdm_pcm/cy_pdm_pcm.h **** /******************************************************************************/
 162:Generated_Source\PSoC6\pdl\drivers/peripheral/pdm_pcm/cy_pdm_pcm.h **** /* Include files                                                              */
 163:Generated_Source\PSoC6\pdl\drivers/peripheral/pdm_pcm/cy_pdm_pcm.h **** /******************************************************************************/
 164:Generated_Source\PSoC6\pdl\drivers/peripheral/pdm_pcm/cy_pdm_pcm.h **** 
 165:Generated_Source\PSoC6\pdl\drivers/peripheral/pdm_pcm/cy_pdm_pcm.h **** #include "cy_device_headers.h"
 166:Generated_Source\PSoC6\pdl\drivers/peripheral/pdm_pcm/cy_pdm_pcm.h **** #include "syslib/cy_syslib.h"
 167:Generated_Source\PSoC6\pdl\drivers/peripheral/pdm_pcm/cy_pdm_pcm.h **** #include "syspm/cy_syspm.h"
 168:Generated_Source\PSoC6\pdl\drivers/peripheral/pdm_pcm/cy_pdm_pcm.h **** #include <stddef.h>
 169:Generated_Source\PSoC6\pdl\drivers/peripheral/pdm_pcm/cy_pdm_pcm.h **** #include <stdbool.h>
 170:Generated_Source\PSoC6\pdl\drivers/peripheral/pdm_pcm/cy_pdm_pcm.h **** 
 171:Generated_Source\PSoC6\pdl\drivers/peripheral/pdm_pcm/cy_pdm_pcm.h **** #ifndef CY_IP_MXAUDIOSS
 172:Generated_Source\PSoC6\pdl\drivers/peripheral/pdm_pcm/cy_pdm_pcm.h ****     #error "The PDM-PCM driver is not supported on this device"
 173:Generated_Source\PSoC6\pdl\drivers/peripheral/pdm_pcm/cy_pdm_pcm.h **** #endif
 174:Generated_Source\PSoC6\pdl\drivers/peripheral/pdm_pcm/cy_pdm_pcm.h **** 
 175:Generated_Source\PSoC6\pdl\drivers/peripheral/pdm_pcm/cy_pdm_pcm.h **** /* The C binding of definitions if building with the C++ compiler */
 176:Generated_Source\PSoC6\pdl\drivers/peripheral/pdm_pcm/cy_pdm_pcm.h **** #ifdef __cplusplus
 177:Generated_Source\PSoC6\pdl\drivers/peripheral/pdm_pcm/cy_pdm_pcm.h **** extern "C"
 178:Generated_Source\PSoC6\pdl\drivers/peripheral/pdm_pcm/cy_pdm_pcm.h **** {
 179:Generated_Source\PSoC6\pdl\drivers/peripheral/pdm_pcm/cy_pdm_pcm.h **** #endif
 180:Generated_Source\PSoC6\pdl\drivers/peripheral/pdm_pcm/cy_pdm_pcm.h **** 
 181:Generated_Source\PSoC6\pdl\drivers/peripheral/pdm_pcm/cy_pdm_pcm.h **** /******************************************************************************
 182:Generated_Source\PSoC6\pdl\drivers/peripheral/pdm_pcm/cy_pdm_pcm.h ****  * Global definitions
 183:Generated_Source\PSoC6\pdl\drivers/peripheral/pdm_pcm/cy_pdm_pcm.h ****  ******************************************************************************/
 184:Generated_Source\PSoC6\pdl\drivers/peripheral/pdm_pcm/cy_pdm_pcm.h **** 
 185:Generated_Source\PSoC6\pdl\drivers/peripheral/pdm_pcm/cy_pdm_pcm.h **** /* Macros */
 186:Generated_Source\PSoC6\pdl\drivers/peripheral/pdm_pcm/cy_pdm_pcm.h **** /**
 187:Generated_Source\PSoC6\pdl\drivers/peripheral/pdm_pcm/cy_pdm_pcm.h **** * \addtogroup group_pdm_pcm_macros
 188:Generated_Source\PSoC6\pdl\drivers/peripheral/pdm_pcm/cy_pdm_pcm.h **** * \{
 189:Generated_Source\PSoC6\pdl\drivers/peripheral/pdm_pcm/cy_pdm_pcm.h **** */
 190:Generated_Source\PSoC6\pdl\drivers/peripheral/pdm_pcm/cy_pdm_pcm.h **** 
 191:Generated_Source\PSoC6\pdl\drivers/peripheral/pdm_pcm/cy_pdm_pcm.h **** /** The driver major version */
 192:Generated_Source\PSoC6\pdl\drivers/peripheral/pdm_pcm/cy_pdm_pcm.h **** #define CY_PDM_PCM_DRV_VERSION_MAJOR       2
 193:Generated_Source\PSoC6\pdl\drivers/peripheral/pdm_pcm/cy_pdm_pcm.h **** 
 194:Generated_Source\PSoC6\pdl\drivers/peripheral/pdm_pcm/cy_pdm_pcm.h **** /** The driver minor version */
 195:Generated_Source\PSoC6\pdl\drivers/peripheral/pdm_pcm/cy_pdm_pcm.h **** #define CY_PDM_PCM_DRV_VERSION_MINOR       10
 196:Generated_Source\PSoC6\pdl\drivers/peripheral/pdm_pcm/cy_pdm_pcm.h **** 
 197:Generated_Source\PSoC6\pdl\drivers/peripheral/pdm_pcm/cy_pdm_pcm.h **** /** The PDM-PCM driver identifier */
 198:Generated_Source\PSoC6\pdl\drivers/peripheral/pdm_pcm/cy_pdm_pcm.h **** #define CY_PDM_PCM_ID                       CY_PDL_DRV_ID(0x26u)
 199:Generated_Source\PSoC6\pdl\drivers/peripheral/pdm_pcm/cy_pdm_pcm.h **** 
 200:Generated_Source\PSoC6\pdl\drivers/peripheral/pdm_pcm/cy_pdm_pcm.h **** /**
 201:Generated_Source\PSoC6\pdl\drivers/peripheral/pdm_pcm/cy_pdm_pcm.h **** * \defgroup group_pdm_pcm_macros_intrerrupt_masks Interrupt Masks
ARM GAS  C:\Users\ikomb\AppData\Local\Temp\ccKMSltZ.s 			page 5


 202:Generated_Source\PSoC6\pdl\drivers/peripheral/pdm_pcm/cy_pdm_pcm.h **** * \{
 203:Generated_Source\PSoC6\pdl\drivers/peripheral/pdm_pcm/cy_pdm_pcm.h **** */
 204:Generated_Source\PSoC6\pdl\drivers/peripheral/pdm_pcm/cy_pdm_pcm.h **** 
 205:Generated_Source\PSoC6\pdl\drivers/peripheral/pdm_pcm/cy_pdm_pcm.h **** /** Bit 16: More entries in the RX FIFO than specified by Trigger Level. */
 206:Generated_Source\PSoC6\pdl\drivers/peripheral/pdm_pcm/cy_pdm_pcm.h **** #define CY_PDM_PCM_INTR_RX_TRIGGER         (PDM_INTR_RX_TRIGGER_Msk)
 207:Generated_Source\PSoC6\pdl\drivers/peripheral/pdm_pcm/cy_pdm_pcm.h **** /** Bit 18: RX FIFO is not empty. */
 208:Generated_Source\PSoC6\pdl\drivers/peripheral/pdm_pcm/cy_pdm_pcm.h **** #define CY_PDM_PCM_INTR_RX_NOT_EMPTY       (PDM_INTR_RX_NOT_EMPTY_Msk)
 209:Generated_Source\PSoC6\pdl\drivers/peripheral/pdm_pcm/cy_pdm_pcm.h **** /** Bit 21: Attempt to write to a full RX FIFO. */
 210:Generated_Source\PSoC6\pdl\drivers/peripheral/pdm_pcm/cy_pdm_pcm.h **** #define CY_PDM_PCM_INTR_RX_OVERFLOW        (PDM_INTR_RX_OVERFLOW_Msk)
 211:Generated_Source\PSoC6\pdl\drivers/peripheral/pdm_pcm/cy_pdm_pcm.h **** /** Bit 22: Attempt to read from an empty RX FIFO. */
 212:Generated_Source\PSoC6\pdl\drivers/peripheral/pdm_pcm/cy_pdm_pcm.h **** #define CY_PDM_PCM_INTR_RX_UNDERFLOW       (PDM_INTR_RX_UNDERFLOW_Msk)
 213:Generated_Source\PSoC6\pdl\drivers/peripheral/pdm_pcm/cy_pdm_pcm.h **** 
 214:Generated_Source\PSoC6\pdl\drivers/peripheral/pdm_pcm/cy_pdm_pcm.h **** /** \} group_pdm_pcm_macros_intrerrupt_masks */
 215:Generated_Source\PSoC6\pdl\drivers/peripheral/pdm_pcm/cy_pdm_pcm.h **** 
 216:Generated_Source\PSoC6\pdl\drivers/peripheral/pdm_pcm/cy_pdm_pcm.h **** /** \} group_pdm_pcm_macros */
 217:Generated_Source\PSoC6\pdl\drivers/peripheral/pdm_pcm/cy_pdm_pcm.h **** 
 218:Generated_Source\PSoC6\pdl\drivers/peripheral/pdm_pcm/cy_pdm_pcm.h **** /**
 219:Generated_Source\PSoC6\pdl\drivers/peripheral/pdm_pcm/cy_pdm_pcm.h **** * \addtogroup group_pdm_pcm_enums
 220:Generated_Source\PSoC6\pdl\drivers/peripheral/pdm_pcm/cy_pdm_pcm.h **** * \{
 221:Generated_Source\PSoC6\pdl\drivers/peripheral/pdm_pcm/cy_pdm_pcm.h **** */
 222:Generated_Source\PSoC6\pdl\drivers/peripheral/pdm_pcm/cy_pdm_pcm.h **** 
 223:Generated_Source\PSoC6\pdl\drivers/peripheral/pdm_pcm/cy_pdm_pcm.h **** /** PDM Word Length. */
 224:Generated_Source\PSoC6\pdl\drivers/peripheral/pdm_pcm/cy_pdm_pcm.h **** typedef enum
 225:Generated_Source\PSoC6\pdl\drivers/peripheral/pdm_pcm/cy_pdm_pcm.h **** {
 226:Generated_Source\PSoC6\pdl\drivers/peripheral/pdm_pcm/cy_pdm_pcm.h ****     CY_PDM_PCM_WLEN_16_BIT     = 0U,         /**< Word length: 16 bit. */
 227:Generated_Source\PSoC6\pdl\drivers/peripheral/pdm_pcm/cy_pdm_pcm.h ****     CY_PDM_PCM_WLEN_18_BIT     = 1U,         /**< Word length: 18 bit. */
 228:Generated_Source\PSoC6\pdl\drivers/peripheral/pdm_pcm/cy_pdm_pcm.h ****     CY_PDM_PCM_WLEN_20_BIT     = 2U,         /**< Word length: 20 bit. */
 229:Generated_Source\PSoC6\pdl\drivers/peripheral/pdm_pcm/cy_pdm_pcm.h ****     CY_PDM_PCM_WLEN_24_BIT     = 3U          /**< Word length: 24 bit. */
 230:Generated_Source\PSoC6\pdl\drivers/peripheral/pdm_pcm/cy_pdm_pcm.h **** } cy_en_pdm_pcm_word_len_t;
 231:Generated_Source\PSoC6\pdl\drivers/peripheral/pdm_pcm/cy_pdm_pcm.h **** 
 232:Generated_Source\PSoC6\pdl\drivers/peripheral/pdm_pcm/cy_pdm_pcm.h **** /** PDM Clock Divider. */
 233:Generated_Source\PSoC6\pdl\drivers/peripheral/pdm_pcm/cy_pdm_pcm.h **** typedef enum
 234:Generated_Source\PSoC6\pdl\drivers/peripheral/pdm_pcm/cy_pdm_pcm.h **** {
 235:Generated_Source\PSoC6\pdl\drivers/peripheral/pdm_pcm/cy_pdm_pcm.h ****     CY_PDM_PCM_CLK_DIV_BYPASS  = 0U,         /**< Clock 1/1. */
 236:Generated_Source\PSoC6\pdl\drivers/peripheral/pdm_pcm/cy_pdm_pcm.h ****     CY_PDM_PCM_CLK_DIV_1_2     = 1U,         /**< Clock 1/2 (no 50% duty cycle). */
 237:Generated_Source\PSoC6\pdl\drivers/peripheral/pdm_pcm/cy_pdm_pcm.h ****     CY_PDM_PCM_CLK_DIV_1_3     = 2U,         /**< Clock 1/3 (no 50% duty cycle). */
 238:Generated_Source\PSoC6\pdl\drivers/peripheral/pdm_pcm/cy_pdm_pcm.h ****     CY_PDM_PCM_CLK_DIV_1_4     = 3U          /**< Clock 1/4 (no 50% duty cycle). */
 239:Generated_Source\PSoC6\pdl\drivers/peripheral/pdm_pcm/cy_pdm_pcm.h **** } cy_en_pdm_pcm_clk_div_t;
 240:Generated_Source\PSoC6\pdl\drivers/peripheral/pdm_pcm/cy_pdm_pcm.h **** 
 241:Generated_Source\PSoC6\pdl\drivers/peripheral/pdm_pcm/cy_pdm_pcm.h **** /** PDM Output Mode. */
 242:Generated_Source\PSoC6\pdl\drivers/peripheral/pdm_pcm/cy_pdm_pcm.h **** typedef enum
 243:Generated_Source\PSoC6\pdl\drivers/peripheral/pdm_pcm/cy_pdm_pcm.h **** {
 244:Generated_Source\PSoC6\pdl\drivers/peripheral/pdm_pcm/cy_pdm_pcm.h ****     CY_PDM_PCM_OUT_CHAN_LEFT   = 1U,         /**< Channel mono left. */
 245:Generated_Source\PSoC6\pdl\drivers/peripheral/pdm_pcm/cy_pdm_pcm.h ****     CY_PDM_PCM_OUT_CHAN_RIGHT  = 2U,         /**< Channel mono right. */
 246:Generated_Source\PSoC6\pdl\drivers/peripheral/pdm_pcm/cy_pdm_pcm.h ****     CY_PDM_PCM_OUT_STEREO      = 3U          /**< Channel stereo. */
 247:Generated_Source\PSoC6\pdl\drivers/peripheral/pdm_pcm/cy_pdm_pcm.h **** } cy_en_pdm_pcm_out_t;
 248:Generated_Source\PSoC6\pdl\drivers/peripheral/pdm_pcm/cy_pdm_pcm.h **** 
 249:Generated_Source\PSoC6\pdl\drivers/peripheral/pdm_pcm/cy_pdm_pcm.h **** /** PDM Channel selector. */
 250:Generated_Source\PSoC6\pdl\drivers/peripheral/pdm_pcm/cy_pdm_pcm.h **** typedef enum
 251:Generated_Source\PSoC6\pdl\drivers/peripheral/pdm_pcm/cy_pdm_pcm.h **** {
 252:Generated_Source\PSoC6\pdl\drivers/peripheral/pdm_pcm/cy_pdm_pcm.h ****     CY_PDM_PCM_CHAN_LEFT       = 0U,         /**< Channel left. */
 253:Generated_Source\PSoC6\pdl\drivers/peripheral/pdm_pcm/cy_pdm_pcm.h ****     CY_PDM_PCM_CHAN_RIGHT      = 1U          /**< Channel right. */
 254:Generated_Source\PSoC6\pdl\drivers/peripheral/pdm_pcm/cy_pdm_pcm.h **** } cy_en_pdm_pcm_chan_select_t;
 255:Generated_Source\PSoC6\pdl\drivers/peripheral/pdm_pcm/cy_pdm_pcm.h **** 
 256:Generated_Source\PSoC6\pdl\drivers/peripheral/pdm_pcm/cy_pdm_pcm.h **** /** PDM Gain. */
 257:Generated_Source\PSoC6\pdl\drivers/peripheral/pdm_pcm/cy_pdm_pcm.h **** typedef enum
 258:Generated_Source\PSoC6\pdl\drivers/peripheral/pdm_pcm/cy_pdm_pcm.h **** {
ARM GAS  C:\Users\ikomb\AppData\Local\Temp\ccKMSltZ.s 			page 6


 259:Generated_Source\PSoC6\pdl\drivers/peripheral/pdm_pcm/cy_pdm_pcm.h ****     CY_PDM_PCM_ATTN_12_DB      = 0U,         /**< -12 dB (attenuation). */
 260:Generated_Source\PSoC6\pdl\drivers/peripheral/pdm_pcm/cy_pdm_pcm.h ****     CY_PDM_PCM_ATTN_10_5_DB    = 1U,         /**< -10.5 dB (attenuation). */
 261:Generated_Source\PSoC6\pdl\drivers/peripheral/pdm_pcm/cy_pdm_pcm.h ****     CY_PDM_PCM_ATTN_9_DB       = 2U,         /**< -9 dB (attenuation). */
 262:Generated_Source\PSoC6\pdl\drivers/peripheral/pdm_pcm/cy_pdm_pcm.h ****     CY_PDM_PCM_ATTN_7_5_DB     = 3U,         /**< -7.5 dB (attenuation). */
 263:Generated_Source\PSoC6\pdl\drivers/peripheral/pdm_pcm/cy_pdm_pcm.h ****     CY_PDM_PCM_ATTN_6_DB       = 4U,         /**< -6 dB (attenuation). */
 264:Generated_Source\PSoC6\pdl\drivers/peripheral/pdm_pcm/cy_pdm_pcm.h ****     CY_PDM_PCM_ATTN_4_5_DB     = 5U,         /**< -4.5 dB (attenuation). */
 265:Generated_Source\PSoC6\pdl\drivers/peripheral/pdm_pcm/cy_pdm_pcm.h ****     CY_PDM_PCM_ATTN_3_DB       = 6U,         /**< -3 dB (attenuation). */
 266:Generated_Source\PSoC6\pdl\drivers/peripheral/pdm_pcm/cy_pdm_pcm.h ****     CY_PDM_PCM_ATTN_1_5_DB     = 7U,         /**< -1.5 dB (attenuation). */
 267:Generated_Source\PSoC6\pdl\drivers/peripheral/pdm_pcm/cy_pdm_pcm.h ****     CY_PDM_PCM_BYPASS          = 8U,         /**< 0 dB (bypass). */
 268:Generated_Source\PSoC6\pdl\drivers/peripheral/pdm_pcm/cy_pdm_pcm.h ****     CY_PDM_PCM_GAIN_1_5_DB     = 9U,         /**< +1.5 dB (amplification). */
 269:Generated_Source\PSoC6\pdl\drivers/peripheral/pdm_pcm/cy_pdm_pcm.h ****     CY_PDM_PCM_GAIN_3_DB       = 10U,        /**< +3 dB (amplification). */
 270:Generated_Source\PSoC6\pdl\drivers/peripheral/pdm_pcm/cy_pdm_pcm.h ****     CY_PDM_PCM_GAIN_4_5_DB     = 11U,        /**< +4.5 dB (amplification). */
 271:Generated_Source\PSoC6\pdl\drivers/peripheral/pdm_pcm/cy_pdm_pcm.h ****     CY_PDM_PCM_GAIN_6_DB       = 12U,        /**< +6 dB (amplification). */
 272:Generated_Source\PSoC6\pdl\drivers/peripheral/pdm_pcm/cy_pdm_pcm.h ****     CY_PDM_PCM_GAIN_7_5_DB     = 13U,        /**< +7.5 dB (amplification). */
 273:Generated_Source\PSoC6\pdl\drivers/peripheral/pdm_pcm/cy_pdm_pcm.h ****     CY_PDM_PCM_GAIN_9_DB       = 14U,        /**< +9 dB (amplification). */
 274:Generated_Source\PSoC6\pdl\drivers/peripheral/pdm_pcm/cy_pdm_pcm.h ****     CY_PDM_PCM_GAIN_10_5_DB    = 15U         /**< +10.5 dB (amplification). */
 275:Generated_Source\PSoC6\pdl\drivers/peripheral/pdm_pcm/cy_pdm_pcm.h **** } cy_en_pdm_pcm_gain_t;
 276:Generated_Source\PSoC6\pdl\drivers/peripheral/pdm_pcm/cy_pdm_pcm.h **** 
 277:Generated_Source\PSoC6\pdl\drivers/peripheral/pdm_pcm/cy_pdm_pcm.h **** 
 278:Generated_Source\PSoC6\pdl\drivers/peripheral/pdm_pcm/cy_pdm_pcm.h **** /** The time step for gain change during PGA or soft mute operation in
 279:Generated_Source\PSoC6\pdl\drivers/peripheral/pdm_pcm/cy_pdm_pcm.h ****  *  number of 1/a sampling rate. */
 280:Generated_Source\PSoC6\pdl\drivers/peripheral/pdm_pcm/cy_pdm_pcm.h **** typedef enum
 281:Generated_Source\PSoC6\pdl\drivers/peripheral/pdm_pcm/cy_pdm_pcm.h **** {
 282:Generated_Source\PSoC6\pdl\drivers/peripheral/pdm_pcm/cy_pdm_pcm.h ****     CY_PDM_PCM_SOFT_MUTE_CYCLES_64  = 0U,    /**< 64 steps. */
 283:Generated_Source\PSoC6\pdl\drivers/peripheral/pdm_pcm/cy_pdm_pcm.h ****     CY_PDM_PCM_SOFT_MUTE_CYCLES_96  = 1U,    /**< 96 steps. */
 284:Generated_Source\PSoC6\pdl\drivers/peripheral/pdm_pcm/cy_pdm_pcm.h ****     CY_PDM_PCM_SOFT_MUTE_CYCLES_128 = 2U,    /**< 128 steps. */
 285:Generated_Source\PSoC6\pdl\drivers/peripheral/pdm_pcm/cy_pdm_pcm.h ****     CY_PDM_PCM_SOFT_MUTE_CYCLES_160 = 3U,    /**< 160 steps. */
 286:Generated_Source\PSoC6\pdl\drivers/peripheral/pdm_pcm/cy_pdm_pcm.h ****     CY_PDM_PCM_SOFT_MUTE_CYCLES_192 = 4U,    /**< 192 steps. */
 287:Generated_Source\PSoC6\pdl\drivers/peripheral/pdm_pcm/cy_pdm_pcm.h ****     CY_PDM_PCM_SOFT_MUTE_CYCLES_256 = 5U,    /**< 256 steps. */
 288:Generated_Source\PSoC6\pdl\drivers/peripheral/pdm_pcm/cy_pdm_pcm.h ****     CY_PDM_PCM_SOFT_MUTE_CYCLES_384 = 6U,    /**< 384 steps. */
 289:Generated_Source\PSoC6\pdl\drivers/peripheral/pdm_pcm/cy_pdm_pcm.h ****     CY_PDM_PCM_SOFT_MUTE_CYCLES_512 = 7U     /**< 512 steps. */
 290:Generated_Source\PSoC6\pdl\drivers/peripheral/pdm_pcm/cy_pdm_pcm.h **** } cy_en_pdm_pcm_s_cycles_t;
 291:Generated_Source\PSoC6\pdl\drivers/peripheral/pdm_pcm/cy_pdm_pcm.h **** 
 292:Generated_Source\PSoC6\pdl\drivers/peripheral/pdm_pcm/cy_pdm_pcm.h **** /** The PDM-PCM status codes. */
 293:Generated_Source\PSoC6\pdl\drivers/peripheral/pdm_pcm/cy_pdm_pcm.h **** typedef enum
 294:Generated_Source\PSoC6\pdl\drivers/peripheral/pdm_pcm/cy_pdm_pcm.h **** {
 295:Generated_Source\PSoC6\pdl\drivers/peripheral/pdm_pcm/cy_pdm_pcm.h ****     CY_PDM_PCM_SUCCESS         = 0x00UL,    /**< Success status code */
 296:Generated_Source\PSoC6\pdl\drivers/peripheral/pdm_pcm/cy_pdm_pcm.h ****     CY_PDM_PCM_BAD_PARAM       = CY_PDM_PCM_ID | CY_PDL_STATUS_ERROR | 0x01UL /**< Bad parameter st
 297:Generated_Source\PSoC6\pdl\drivers/peripheral/pdm_pcm/cy_pdm_pcm.h **** } cy_en_pdm_pcm_status_t;
 298:Generated_Source\PSoC6\pdl\drivers/peripheral/pdm_pcm/cy_pdm_pcm.h **** 
 299:Generated_Source\PSoC6\pdl\drivers/peripheral/pdm_pcm/cy_pdm_pcm.h **** /** \} group_pdm_pcm_enums */
 300:Generated_Source\PSoC6\pdl\drivers/peripheral/pdm_pcm/cy_pdm_pcm.h **** 
 301:Generated_Source\PSoC6\pdl\drivers/peripheral/pdm_pcm/cy_pdm_pcm.h **** 
 302:Generated_Source\PSoC6\pdl\drivers/peripheral/pdm_pcm/cy_pdm_pcm.h **** /**
 303:Generated_Source\PSoC6\pdl\drivers/peripheral/pdm_pcm/cy_pdm_pcm.h **** * \addtogroup group_pdm_pcm_data_structures
 304:Generated_Source\PSoC6\pdl\drivers/peripheral/pdm_pcm/cy_pdm_pcm.h **** * \{
 305:Generated_Source\PSoC6\pdl\drivers/peripheral/pdm_pcm/cy_pdm_pcm.h **** */
 306:Generated_Source\PSoC6\pdl\drivers/peripheral/pdm_pcm/cy_pdm_pcm.h **** 
 307:Generated_Source\PSoC6\pdl\drivers/peripheral/pdm_pcm/cy_pdm_pcm.h **** /******************************************************************************
 308:Generated_Source\PSoC6\pdl\drivers/peripheral/pdm_pcm/cy_pdm_pcm.h ****  * Global type definitions
 309:Generated_Source\PSoC6\pdl\drivers/peripheral/pdm_pcm/cy_pdm_pcm.h ****  ******************************************************************************/
 310:Generated_Source\PSoC6\pdl\drivers/peripheral/pdm_pcm/cy_pdm_pcm.h **** 
 311:Generated_Source\PSoC6\pdl\drivers/peripheral/pdm_pcm/cy_pdm_pcm.h **** /** PDM-PCM initialization configuration */
 312:Generated_Source\PSoC6\pdl\drivers/peripheral/pdm_pcm/cy_pdm_pcm.h **** typedef struct
 313:Generated_Source\PSoC6\pdl\drivers/peripheral/pdm_pcm/cy_pdm_pcm.h **** {
 314:Generated_Source\PSoC6\pdl\drivers/peripheral/pdm_pcm/cy_pdm_pcm.h ****     cy_en_pdm_pcm_clk_div_t  clkDiv;              /**< PDM Clock Divider (1st divider), see #cy_en_
 315:Generated_Source\PSoC6\pdl\drivers/peripheral/pdm_pcm/cy_pdm_pcm.h ****                                                     This configures a frequency of PDM CLK. The con
ARM GAS  C:\Users\ikomb\AppData\Local\Temp\ccKMSltZ.s 			page 7


 316:Generated_Source\PSoC6\pdl\drivers/peripheral/pdm_pcm/cy_pdm_pcm.h ****                                                     is used to operate PDM core. I.e. the frequency
 317:Generated_Source\PSoC6\pdl\drivers/peripheral/pdm_pcm/cy_pdm_pcm.h ****                                                     MCLKQ_CLOCK_DIV register. */
 318:Generated_Source\PSoC6\pdl\drivers/peripheral/pdm_pcm/cy_pdm_pcm.h ****     cy_en_pdm_pcm_clk_div_t  mclkDiv;             /**< MCLKQ divider (2nd divider), see #cy_en_pdm_
 319:Generated_Source\PSoC6\pdl\drivers/peripheral/pdm_pcm/cy_pdm_pcm.h ****     uint8_t                  ckoDiv;              /**< PDM CKO (FPDM_CKO) clock divider (3rd divide
 320:Generated_Source\PSoC6\pdl\drivers/peripheral/pdm_pcm/cy_pdm_pcm.h ****                                                     - if CKO_CLOCK_DIV >= 1 - *F(PDM_CKO) = F(PDM_C
 321:Generated_Source\PSoC6\pdl\drivers/peripheral/pdm_pcm/cy_pdm_pcm.h ****                                                     - if CKO_CLOCK_DIV  = 0 - *F(PDM_CKO) = MCLKQ /
 322:Generated_Source\PSoC6\pdl\drivers/peripheral/pdm_pcm/cy_pdm_pcm.h ****     uint8_t                  ckoDelay;            /**< Extra PDM_CKO delay to internal sampler:
 323:Generated_Source\PSoC6\pdl\drivers/peripheral/pdm_pcm/cy_pdm_pcm.h ****                                                     - 0: Three extra PDM_CLK period advance
 324:Generated_Source\PSoC6\pdl\drivers/peripheral/pdm_pcm/cy_pdm_pcm.h ****                                                     - 1: Two extra PDM_CLK period advance
 325:Generated_Source\PSoC6\pdl\drivers/peripheral/pdm_pcm/cy_pdm_pcm.h ****                                                     - 2: One extra PDM_CLK period advance
 326:Generated_Source\PSoC6\pdl\drivers/peripheral/pdm_pcm/cy_pdm_pcm.h ****                                                     - 3: No delay
 327:Generated_Source\PSoC6\pdl\drivers/peripheral/pdm_pcm/cy_pdm_pcm.h ****                                                     - 4: One extra PDM_CLK period delay
 328:Generated_Source\PSoC6\pdl\drivers/peripheral/pdm_pcm/cy_pdm_pcm.h ****                                                     - 5: Two extra PDM_CLK period delay
 329:Generated_Source\PSoC6\pdl\drivers/peripheral/pdm_pcm/cy_pdm_pcm.h ****                                                     - 6: Three extra PDM_CLK period delay
 330:Generated_Source\PSoC6\pdl\drivers/peripheral/pdm_pcm/cy_pdm_pcm.h ****                                                     - 7: Four extra PDM_CLK clock delay */
 331:Generated_Source\PSoC6\pdl\drivers/peripheral/pdm_pcm/cy_pdm_pcm.h ****     uint8_t                  sincDecRate;         /**< F(MCLK_L_R) = Fs * 2 * sincDecRate * mclkDiv
 332:Generated_Source\PSoC6\pdl\drivers/peripheral/pdm_pcm/cy_pdm_pcm.h ****                                                     Fs is a sampling frequency, 8kHz - 48kHz */
 333:Generated_Source\PSoC6\pdl\drivers/peripheral/pdm_pcm/cy_pdm_pcm.h ****     cy_en_pdm_pcm_out_t      chanSelect;          /**< see #cy_en_pdm_pcm_out_t */
 334:Generated_Source\PSoC6\pdl\drivers/peripheral/pdm_pcm/cy_pdm_pcm.h ****     bool                     chanSwapEnable;      /**< Audio channels swapping */
 335:Generated_Source\PSoC6\pdl\drivers/peripheral/pdm_pcm/cy_pdm_pcm.h ****     uint8_t                  highPassFilterGain;  /**< High pass filter gain:
 336:Generated_Source\PSoC6\pdl\drivers/peripheral/pdm_pcm/cy_pdm_pcm.h ****                                                     H(Z) = (1 - Z^-1) / (1 - (1 - 2^highPassFilterG
 337:Generated_Source\PSoC6\pdl\drivers/peripheral/pdm_pcm/cy_pdm_pcm.h ****     bool                     highPassDisable;     /**< High pass filter disable */
 338:Generated_Source\PSoC6\pdl\drivers/peripheral/pdm_pcm/cy_pdm_pcm.h ****     cy_en_pdm_pcm_s_cycles_t softMuteCycles;      /**< The time step for gain change during PGA or 
 339:Generated_Source\PSoC6\pdl\drivers/peripheral/pdm_pcm/cy_pdm_pcm.h ****                                                     number of 1/a sampling rate, see #cy_en_pdm_pcm
 340:Generated_Source\PSoC6\pdl\drivers/peripheral/pdm_pcm/cy_pdm_pcm.h ****     uint32_t                 softMuteFineGain;    /**< Soft mute fine gain: 0 = 0.13dB, 1 = 0.26dB 
 341:Generated_Source\PSoC6\pdl\drivers/peripheral/pdm_pcm/cy_pdm_pcm.h ****     bool                     softMuteEnable;      /**< Soft mute enable */
 342:Generated_Source\PSoC6\pdl\drivers/peripheral/pdm_pcm/cy_pdm_pcm.h ****     cy_en_pdm_pcm_word_len_t wordLen;             /**< see #cy_en_pdm_pcm_word_len_t */
 343:Generated_Source\PSoC6\pdl\drivers/peripheral/pdm_pcm/cy_pdm_pcm.h ****     bool                     signExtension;       /**< Word extension type:
 344:Generated_Source\PSoC6\pdl\drivers/peripheral/pdm_pcm/cy_pdm_pcm.h ****                                                     - 0: extension by zero
 345:Generated_Source\PSoC6\pdl\drivers/peripheral/pdm_pcm/cy_pdm_pcm.h ****                                                     - 1: extension by sign bits */
 346:Generated_Source\PSoC6\pdl\drivers/peripheral/pdm_pcm/cy_pdm_pcm.h ****     cy_en_pdm_pcm_gain_t     gainLeft;            /**< Gain for left channel, see #cy_en_pdm_pcm_ga
 347:Generated_Source\PSoC6\pdl\drivers/peripheral/pdm_pcm/cy_pdm_pcm.h ****     cy_en_pdm_pcm_gain_t     gainRight;           /**< Gain for right channel, see #cy_en_pdm_pcm_g
 348:Generated_Source\PSoC6\pdl\drivers/peripheral/pdm_pcm/cy_pdm_pcm.h ****     uint8_t                  rxFifoTriggerLevel;  /**< Fifo interrupt trigger level (in words), 
 349:Generated_Source\PSoC6\pdl\drivers/peripheral/pdm_pcm/cy_pdm_pcm.h ****                                                     range: 0 - 253 for stereo and 0 - 254 for mono 
 350:Generated_Source\PSoC6\pdl\drivers/peripheral/pdm_pcm/cy_pdm_pcm.h ****     bool                     dmaTriggerEnable;    /**< DMA trigger enable */
 351:Generated_Source\PSoC6\pdl\drivers/peripheral/pdm_pcm/cy_pdm_pcm.h ****     uint32_t                 interruptMask;       /**< Interrupts enable mask */
 352:Generated_Source\PSoC6\pdl\drivers/peripheral/pdm_pcm/cy_pdm_pcm.h **** } cy_stc_pdm_pcm_config_t;
 353:Generated_Source\PSoC6\pdl\drivers/peripheral/pdm_pcm/cy_pdm_pcm.h **** 
 354:Generated_Source\PSoC6\pdl\drivers/peripheral/pdm_pcm/cy_pdm_pcm.h **** /** \} group_pdm_pcm_data_structures */
 355:Generated_Source\PSoC6\pdl\drivers/peripheral/pdm_pcm/cy_pdm_pcm.h **** 
 356:Generated_Source\PSoC6\pdl\drivers/peripheral/pdm_pcm/cy_pdm_pcm.h **** 
 357:Generated_Source\PSoC6\pdl\drivers/peripheral/pdm_pcm/cy_pdm_pcm.h **** /** \cond INTERNAL */
 358:Generated_Source\PSoC6\pdl\drivers/peripheral/pdm_pcm/cy_pdm_pcm.h **** /******************************************************************************
 359:Generated_Source\PSoC6\pdl\drivers/peripheral/pdm_pcm/cy_pdm_pcm.h ****  * Local definitions
 360:Generated_Source\PSoC6\pdl\drivers/peripheral/pdm_pcm/cy_pdm_pcm.h **** *******************************************************************************/
 361:Generated_Source\PSoC6\pdl\drivers/peripheral/pdm_pcm/cy_pdm_pcm.h **** /** Define bit mask for all available interrupt sources */
 362:Generated_Source\PSoC6\pdl\drivers/peripheral/pdm_pcm/cy_pdm_pcm.h **** #define CY_PDM_PCM_INTR_MASK        (CY_PDM_PCM_INTR_RX_TRIGGER   | \
 363:Generated_Source\PSoC6\pdl\drivers/peripheral/pdm_pcm/cy_pdm_pcm.h ****                                      CY_PDM_PCM_INTR_RX_NOT_EMPTY | \
 364:Generated_Source\PSoC6\pdl\drivers/peripheral/pdm_pcm/cy_pdm_pcm.h ****                                      CY_PDM_PCM_INTR_RX_OVERFLOW  | \
 365:Generated_Source\PSoC6\pdl\drivers/peripheral/pdm_pcm/cy_pdm_pcm.h ****                                      CY_PDM_PCM_INTR_RX_UNDERFLOW)
 366:Generated_Source\PSoC6\pdl\drivers/peripheral/pdm_pcm/cy_pdm_pcm.h **** 
 367:Generated_Source\PSoC6\pdl\drivers/peripheral/pdm_pcm/cy_pdm_pcm.h **** /* Non-zero default values */
 368:Generated_Source\PSoC6\pdl\drivers/peripheral/pdm_pcm/cy_pdm_pcm.h **** #define CY_PDM_PCM_CTL_PGA_R_DEFAULT    (0x8U)
 369:Generated_Source\PSoC6\pdl\drivers/peripheral/pdm_pcm/cy_pdm_pcm.h **** #define CY_PDM_PCM_CTL_PGA_L_DEFAULT    (0x8U)
 370:Generated_Source\PSoC6\pdl\drivers/peripheral/pdm_pcm/cy_pdm_pcm.h **** #define CY_PDM_PCM_CTL_STEP_SEL_DEFAULT (0x1U)
 371:Generated_Source\PSoC6\pdl\drivers/peripheral/pdm_pcm/cy_pdm_pcm.h **** 
 372:Generated_Source\PSoC6\pdl\drivers/peripheral/pdm_pcm/cy_pdm_pcm.h **** #define CY_PDM_PCM_CTL_DEFAULT (_VAL2FLD(PDM_CTL_PGA_R, CY_PDM_PCM_CTL_PGA_R_DEFAULT) | \
ARM GAS  C:\Users\ikomb\AppData\Local\Temp\ccKMSltZ.s 			page 8


 373:Generated_Source\PSoC6\pdl\drivers/peripheral/pdm_pcm/cy_pdm_pcm.h ****                                 _VAL2FLD(PDM_CTL_PGA_L, CY_PDM_PCM_CTL_PGA_L_DEFAULT) | \
 374:Generated_Source\PSoC6\pdl\drivers/peripheral/pdm_pcm/cy_pdm_pcm.h ****                                 _VAL2FLD(PDM_CTL_STEP_SEL, CY_PDM_PCM_CTL_STEP_SEL_DEFAULT))
 375:Generated_Source\PSoC6\pdl\drivers/peripheral/pdm_pcm/cy_pdm_pcm.h **** 
 376:Generated_Source\PSoC6\pdl\drivers/peripheral/pdm_pcm/cy_pdm_pcm.h **** #define CY_PDM_PCM_CLOCK_CTL_MCLKQ_CLOCK_DIV_DEFAULT (0x1U)
 377:Generated_Source\PSoC6\pdl\drivers/peripheral/pdm_pcm/cy_pdm_pcm.h **** #define CY_PDM_PCM_CLOCK_CTL_CKO_CLOCK_DIV_DEFAULT   (0x3U)
 378:Generated_Source\PSoC6\pdl\drivers/peripheral/pdm_pcm/cy_pdm_pcm.h **** #define CY_PDM_PCM_CLOCK_CTL_SINC_RATE_DEFAULT       (0x20U)
 379:Generated_Source\PSoC6\pdl\drivers/peripheral/pdm_pcm/cy_pdm_pcm.h **** 
 380:Generated_Source\PSoC6\pdl\drivers/peripheral/pdm_pcm/cy_pdm_pcm.h **** #define CY_PDM_PCM_CLOCK_CTL_DEFAULT (_VAL2FLD(PDM_CLOCK_CTL_MCLKQ_CLOCK_DIV, CY_PDM_PCM_CLOCK_CTL_
 381:Generated_Source\PSoC6\pdl\drivers/peripheral/pdm_pcm/cy_pdm_pcm.h ****                                       _VAL2FLD(PDM_CLOCK_CTL_CKO_CLOCK_DIV, CY_PDM_PCM_CLOCK_CTL_CK
 382:Generated_Source\PSoC6\pdl\drivers/peripheral/pdm_pcm/cy_pdm_pcm.h ****                                       _VAL2FLD(PDM_CLOCK_CTL_SINC_RATE, CY_PDM_PCM_CLOCK_CTL_SINC_R
 383:Generated_Source\PSoC6\pdl\drivers/peripheral/pdm_pcm/cy_pdm_pcm.h **** 
 384:Generated_Source\PSoC6\pdl\drivers/peripheral/pdm_pcm/cy_pdm_pcm.h **** #define CY_PDM_PCM_MODE_CTL_PCM_CH_SET_DEFAULT (0x3U)
 385:Generated_Source\PSoC6\pdl\drivers/peripheral/pdm_pcm/cy_pdm_pcm.h **** #define CY_PDM_PCM_MODE_CTL_S_CYCLES_DEFAULT   (0x1U)
 386:Generated_Source\PSoC6\pdl\drivers/peripheral/pdm_pcm/cy_pdm_pcm.h **** #define CY_PDM_PCM_MODE_CTL_HPF_GAIN_DEFAULT   (0xBU)
 387:Generated_Source\PSoC6\pdl\drivers/peripheral/pdm_pcm/cy_pdm_pcm.h **** #define CY_PDM_PCM_MODE_CTL_HPF_EN_N_DEFAULT   (0x1U)
 388:Generated_Source\PSoC6\pdl\drivers/peripheral/pdm_pcm/cy_pdm_pcm.h **** 
 389:Generated_Source\PSoC6\pdl\drivers/peripheral/pdm_pcm/cy_pdm_pcm.h **** #define CY_PDM_PCM_MODE_CTL_DEFAULT (_VAL2FLD(PDM_MODE_CTL_PCM_CH_SET, CY_PDM_PCM_MODE_CTL_PCM_CH_S
 390:Generated_Source\PSoC6\pdl\drivers/peripheral/pdm_pcm/cy_pdm_pcm.h ****                                      _VAL2FLD(PDM_MODE_CTL_S_CYCLES, CY_PDM_PCM_MODE_CTL_S_CYCLES_D
 391:Generated_Source\PSoC6\pdl\drivers/peripheral/pdm_pcm/cy_pdm_pcm.h ****                                      _VAL2FLD(PDM_MODE_CTL_HPF_GAIN, CY_PDM_PCM_MODE_CTL_HPF_GAIN_D
 392:Generated_Source\PSoC6\pdl\drivers/peripheral/pdm_pcm/cy_pdm_pcm.h ****                                      _VAL2FLD(PDM_MODE_CTL_HPF_EN_N, CY_PDM_PCM_MODE_CTL_HPF_EN_N_D
 393:Generated_Source\PSoC6\pdl\drivers/peripheral/pdm_pcm/cy_pdm_pcm.h **** 
 394:Generated_Source\PSoC6\pdl\drivers/peripheral/pdm_pcm/cy_pdm_pcm.h **** /* Macros for conditions used by CY_ASSERT calls */
 395:Generated_Source\PSoC6\pdl\drivers/peripheral/pdm_pcm/cy_pdm_pcm.h **** #define CY_PDM_PCM_IS_CLK_DIV_VALID(clkDiv)    (((clkDiv) == CY_PDM_PCM_CLK_DIV_BYPASS) || \
 396:Generated_Source\PSoC6\pdl\drivers/peripheral/pdm_pcm/cy_pdm_pcm.h ****                                                 ((clkDiv) == CY_PDM_PCM_CLK_DIV_1_2)    || \
 397:Generated_Source\PSoC6\pdl\drivers/peripheral/pdm_pcm/cy_pdm_pcm.h ****                                                 ((clkDiv) == CY_PDM_PCM_CLK_DIV_1_3)    || \
 398:Generated_Source\PSoC6\pdl\drivers/peripheral/pdm_pcm/cy_pdm_pcm.h ****                                                 ((clkDiv) == CY_PDM_PCM_CLK_DIV_1_4))
 399:Generated_Source\PSoC6\pdl\drivers/peripheral/pdm_pcm/cy_pdm_pcm.h **** 
 400:Generated_Source\PSoC6\pdl\drivers/peripheral/pdm_pcm/cy_pdm_pcm.h **** #define CY_PDM_PCM_IS_CH_SET_VALID(chanSelect) (((chanSelect) == CY_PDM_PCM_OUT_CHAN_LEFT)  || \
 401:Generated_Source\PSoC6\pdl\drivers/peripheral/pdm_pcm/cy_pdm_pcm.h ****                                                 ((chanSelect) == CY_PDM_PCM_OUT_CHAN_RIGHT) || \
 402:Generated_Source\PSoC6\pdl\drivers/peripheral/pdm_pcm/cy_pdm_pcm.h ****                                                 ((chanSelect) == CY_PDM_PCM_OUT_STEREO))
 403:Generated_Source\PSoC6\pdl\drivers/peripheral/pdm_pcm/cy_pdm_pcm.h **** 
 404:Generated_Source\PSoC6\pdl\drivers/peripheral/pdm_pcm/cy_pdm_pcm.h **** #define CY_PDM_PCM_IS_GAIN_VALID(gain)         (((gain) == CY_PDM_PCM_ATTN_12_DB)   || \
 405:Generated_Source\PSoC6\pdl\drivers/peripheral/pdm_pcm/cy_pdm_pcm.h ****                                                 ((gain) == CY_PDM_PCM_ATTN_10_5_DB) || \
 406:Generated_Source\PSoC6\pdl\drivers/peripheral/pdm_pcm/cy_pdm_pcm.h ****                                                 ((gain) == CY_PDM_PCM_ATTN_9_DB)    || \
 407:Generated_Source\PSoC6\pdl\drivers/peripheral/pdm_pcm/cy_pdm_pcm.h ****                                                 ((gain) == CY_PDM_PCM_ATTN_7_5_DB)  || \
 408:Generated_Source\PSoC6\pdl\drivers/peripheral/pdm_pcm/cy_pdm_pcm.h ****                                                 ((gain) == CY_PDM_PCM_ATTN_6_DB)    || \
 409:Generated_Source\PSoC6\pdl\drivers/peripheral/pdm_pcm/cy_pdm_pcm.h ****                                                 ((gain) == CY_PDM_PCM_ATTN_4_5_DB)  || \
 410:Generated_Source\PSoC6\pdl\drivers/peripheral/pdm_pcm/cy_pdm_pcm.h ****                                                 ((gain) == CY_PDM_PCM_ATTN_3_DB)    || \
 411:Generated_Source\PSoC6\pdl\drivers/peripheral/pdm_pcm/cy_pdm_pcm.h ****                                                 ((gain) == CY_PDM_PCM_ATTN_1_5_DB)  || \
 412:Generated_Source\PSoC6\pdl\drivers/peripheral/pdm_pcm/cy_pdm_pcm.h ****                                                 ((gain) == CY_PDM_PCM_BYPASS)       || \
 413:Generated_Source\PSoC6\pdl\drivers/peripheral/pdm_pcm/cy_pdm_pcm.h ****                                                 ((gain) == CY_PDM_PCM_GAIN_1_5_DB)  || \
 414:Generated_Source\PSoC6\pdl\drivers/peripheral/pdm_pcm/cy_pdm_pcm.h ****                                                 ((gain) == CY_PDM_PCM_GAIN_3_DB)    || \
 415:Generated_Source\PSoC6\pdl\drivers/peripheral/pdm_pcm/cy_pdm_pcm.h ****                                                 ((gain) == CY_PDM_PCM_GAIN_4_5_DB)  || \
 416:Generated_Source\PSoC6\pdl\drivers/peripheral/pdm_pcm/cy_pdm_pcm.h ****                                                 ((gain) == CY_PDM_PCM_GAIN_6_DB)    || \
 417:Generated_Source\PSoC6\pdl\drivers/peripheral/pdm_pcm/cy_pdm_pcm.h ****                                                 ((gain) == CY_PDM_PCM_GAIN_7_5_DB)  || \
 418:Generated_Source\PSoC6\pdl\drivers/peripheral/pdm_pcm/cy_pdm_pcm.h ****                                                 ((gain) == CY_PDM_PCM_GAIN_9_DB)    || \
 419:Generated_Source\PSoC6\pdl\drivers/peripheral/pdm_pcm/cy_pdm_pcm.h ****                                                 ((gain) == CY_PDM_PCM_GAIN_10_5_DB))
 420:Generated_Source\PSoC6\pdl\drivers/peripheral/pdm_pcm/cy_pdm_pcm.h **** 
 421:Generated_Source\PSoC6\pdl\drivers/peripheral/pdm_pcm/cy_pdm_pcm.h **** #define CY_PDM_PCM_IS_WORD_LEN_VALID(wordLen)  (((wordLen) == CY_PDM_PCM_WLEN_16_BIT) || \
 422:Generated_Source\PSoC6\pdl\drivers/peripheral/pdm_pcm/cy_pdm_pcm.h ****                                                 ((wordLen) == CY_PDM_PCM_WLEN_18_BIT) || \
 423:Generated_Source\PSoC6\pdl\drivers/peripheral/pdm_pcm/cy_pdm_pcm.h ****                                                 ((wordLen) == CY_PDM_PCM_WLEN_20_BIT) || \
 424:Generated_Source\PSoC6\pdl\drivers/peripheral/pdm_pcm/cy_pdm_pcm.h ****                                                 ((wordLen) == CY_PDM_PCM_WLEN_24_BIT))
 425:Generated_Source\PSoC6\pdl\drivers/peripheral/pdm_pcm/cy_pdm_pcm.h **** 
 426:Generated_Source\PSoC6\pdl\drivers/peripheral/pdm_pcm/cy_pdm_pcm.h **** #define CY_PDM_PCM_IS_CHAN_VALID(chan)         (((chan) == CY_PDM_PCM_CHAN_LEFT) || \
 427:Generated_Source\PSoC6\pdl\drivers/peripheral/pdm_pcm/cy_pdm_pcm.h ****                                                 ((chan) == CY_PDM_PCM_CHAN_RIGHT))
 428:Generated_Source\PSoC6\pdl\drivers/peripheral/pdm_pcm/cy_pdm_pcm.h ****                                                 
 429:Generated_Source\PSoC6\pdl\drivers/peripheral/pdm_pcm/cy_pdm_pcm.h **** #define CY_PDM_PCM_IS_S_CYCLES_VALID(sCycles)  (((sCycles) == CY_PDM_PCM_SOFT_MUTE_CYCLES_64)  || \
ARM GAS  C:\Users\ikomb\AppData\Local\Temp\ccKMSltZ.s 			page 9


 430:Generated_Source\PSoC6\pdl\drivers/peripheral/pdm_pcm/cy_pdm_pcm.h ****                                                 ((sCycles) == CY_PDM_PCM_SOFT_MUTE_CYCLES_96)  || \
 431:Generated_Source\PSoC6\pdl\drivers/peripheral/pdm_pcm/cy_pdm_pcm.h ****                                                 ((sCycles) == CY_PDM_PCM_SOFT_MUTE_CYCLES_128) || \
 432:Generated_Source\PSoC6\pdl\drivers/peripheral/pdm_pcm/cy_pdm_pcm.h ****                                                 ((sCycles) == CY_PDM_PCM_SOFT_MUTE_CYCLES_160) || \
 433:Generated_Source\PSoC6\pdl\drivers/peripheral/pdm_pcm/cy_pdm_pcm.h ****                                                 ((sCycles) == CY_PDM_PCM_SOFT_MUTE_CYCLES_192) || \
 434:Generated_Source\PSoC6\pdl\drivers/peripheral/pdm_pcm/cy_pdm_pcm.h ****                                                 ((sCycles) == CY_PDM_PCM_SOFT_MUTE_CYCLES_256) || \
 435:Generated_Source\PSoC6\pdl\drivers/peripheral/pdm_pcm/cy_pdm_pcm.h ****                                                 ((sCycles) == CY_PDM_PCM_SOFT_MUTE_CYCLES_384) || \
 436:Generated_Source\PSoC6\pdl\drivers/peripheral/pdm_pcm/cy_pdm_pcm.h ****                                                 ((sCycles) == CY_PDM_PCM_SOFT_MUTE_CYCLES_512))
 437:Generated_Source\PSoC6\pdl\drivers/peripheral/pdm_pcm/cy_pdm_pcm.h ****                                                 
 438:Generated_Source\PSoC6\pdl\drivers/peripheral/pdm_pcm/cy_pdm_pcm.h **** #define CY_PDM_PCM_IS_INTR_MASK_VALID(interrupt)  (0UL == ((interrupt) & ((uint32_t) ~CY_PDM_PCM_IN
 439:Generated_Source\PSoC6\pdl\drivers/peripheral/pdm_pcm/cy_pdm_pcm.h **** #define CY_PDM_PCM_IS_SINC_RATE_VALID(sincRate)   ((sincRate) <= 127U)
 440:Generated_Source\PSoC6\pdl\drivers/peripheral/pdm_pcm/cy_pdm_pcm.h **** #define CY_PDM_PCM_IS_STEP_SEL_VALID(stepSel)     ((stepSel)  <= 1UL)
 441:Generated_Source\PSoC6\pdl\drivers/peripheral/pdm_pcm/cy_pdm_pcm.h **** #define CY_PDM_PCM_IS_CKO_DELAY_VALID(ckoDelay)   ((ckoDelay) <= 7U)
 442:Generated_Source\PSoC6\pdl\drivers/peripheral/pdm_pcm/cy_pdm_pcm.h **** #define CY_PDM_PCM_IS_HPF_GAIN_VALID(hpfGain)     ((hpfGain)  <= 15U)
 443:Generated_Source\PSoC6\pdl\drivers/peripheral/pdm_pcm/cy_pdm_pcm.h **** #define CY_PDM_PCM_IS_CKO_CLOCK_DIV_VALID(ckoDiv) (((ckoDiv)  >= 1U) && ((ckoDiv) <= 15U))
 444:Generated_Source\PSoC6\pdl\drivers/peripheral/pdm_pcm/cy_pdm_pcm.h **** #define CY_PDM_PCM_IS_TRIG_LEVEL(trigLevel, chanSelect) ((trigLevel) <= (((chanSelect) == CY_PDM_PC
 445:Generated_Source\PSoC6\pdl\drivers/peripheral/pdm_pcm/cy_pdm_pcm.h **** /** \endcond */
 446:Generated_Source\PSoC6\pdl\drivers/peripheral/pdm_pcm/cy_pdm_pcm.h **** 
 447:Generated_Source\PSoC6\pdl\drivers/peripheral/pdm_pcm/cy_pdm_pcm.h **** /**
 448:Generated_Source\PSoC6\pdl\drivers/peripheral/pdm_pcm/cy_pdm_pcm.h **** * \addtogroup group_pdm_pcm_functions
 449:Generated_Source\PSoC6\pdl\drivers/peripheral/pdm_pcm/cy_pdm_pcm.h **** * \{
 450:Generated_Source\PSoC6\pdl\drivers/peripheral/pdm_pcm/cy_pdm_pcm.h **** */
 451:Generated_Source\PSoC6\pdl\drivers/peripheral/pdm_pcm/cy_pdm_pcm.h **** 
 452:Generated_Source\PSoC6\pdl\drivers/peripheral/pdm_pcm/cy_pdm_pcm.h **** cy_en_pdm_pcm_status_t   Cy_PDM_PCM_Init(PDM_Type * base, cy_stc_pdm_pcm_config_t const * config);
 453:Generated_Source\PSoC6\pdl\drivers/peripheral/pdm_pcm/cy_pdm_pcm.h ****                 void     Cy_PDM_PCM_DeInit(PDM_Type * base);
 454:Generated_Source\PSoC6\pdl\drivers/peripheral/pdm_pcm/cy_pdm_pcm.h ****                 void     Cy_PDM_PCM_SetGain(PDM_Type * base, cy_en_pdm_pcm_chan_select_t chan, cy_e
 455:Generated_Source\PSoC6\pdl\drivers/peripheral/pdm_pcm/cy_pdm_pcm.h **** cy_en_pdm_pcm_gain_t     Cy_PDM_PCM_GetGain(PDM_Type const * base, cy_en_pdm_pcm_chan_select_t chan
 456:Generated_Source\PSoC6\pdl\drivers/peripheral/pdm_pcm/cy_pdm_pcm.h **** 
 457:Generated_Source\PSoC6\pdl\drivers/peripheral/pdm_pcm/cy_pdm_pcm.h **** /** \addtogroup group_pdm_pcm_functions_syspm_callback
 458:Generated_Source\PSoC6\pdl\drivers/peripheral/pdm_pcm/cy_pdm_pcm.h **** * The driver supports SysPm callback for Deep Sleep transition.
 459:Generated_Source\PSoC6\pdl\drivers/peripheral/pdm_pcm/cy_pdm_pcm.h **** * \{
 460:Generated_Source\PSoC6\pdl\drivers/peripheral/pdm_pcm/cy_pdm_pcm.h **** */
 461:Generated_Source\PSoC6\pdl\drivers/peripheral/pdm_pcm/cy_pdm_pcm.h **** cy_en_syspm_status_t     Cy_PDM_PCM_DeepSleepCallback(cy_stc_syspm_callback_params_t * callbackPara
 462:Generated_Source\PSoC6\pdl\drivers/peripheral/pdm_pcm/cy_pdm_pcm.h **** /** \} */
 463:Generated_Source\PSoC6\pdl\drivers/peripheral/pdm_pcm/cy_pdm_pcm.h **** 
 464:Generated_Source\PSoC6\pdl\drivers/peripheral/pdm_pcm/cy_pdm_pcm.h **** __STATIC_INLINE void     Cy_PDM_PCM_Enable(PDM_Type * base);
 465:Generated_Source\PSoC6\pdl\drivers/peripheral/pdm_pcm/cy_pdm_pcm.h **** __STATIC_INLINE void     Cy_PDM_PCM_Disable(PDM_Type * base);
 466:Generated_Source\PSoC6\pdl\drivers/peripheral/pdm_pcm/cy_pdm_pcm.h **** __STATIC_INLINE void     Cy_PDM_PCM_SetInterruptMask(PDM_Type * base, uint32_t interrupt);
 467:Generated_Source\PSoC6\pdl\drivers/peripheral/pdm_pcm/cy_pdm_pcm.h **** __STATIC_INLINE uint32_t Cy_PDM_PCM_GetInterruptMask(PDM_Type const * base);
 468:Generated_Source\PSoC6\pdl\drivers/peripheral/pdm_pcm/cy_pdm_pcm.h **** __STATIC_INLINE uint32_t Cy_PDM_PCM_GetInterruptStatusMasked(PDM_Type const * base);
 469:Generated_Source\PSoC6\pdl\drivers/peripheral/pdm_pcm/cy_pdm_pcm.h **** __STATIC_INLINE uint32_t Cy_PDM_PCM_GetInterruptStatus(PDM_Type const * base);
 470:Generated_Source\PSoC6\pdl\drivers/peripheral/pdm_pcm/cy_pdm_pcm.h **** __STATIC_INLINE void     Cy_PDM_PCM_ClearInterrupt(PDM_Type * base, uint32_t interrupt);
 471:Generated_Source\PSoC6\pdl\drivers/peripheral/pdm_pcm/cy_pdm_pcm.h **** __STATIC_INLINE void     Cy_PDM_PCM_SetInterrupt(PDM_Type * base, uint32_t interrupt);
 472:Generated_Source\PSoC6\pdl\drivers/peripheral/pdm_pcm/cy_pdm_pcm.h **** __STATIC_INLINE uint8_t  Cy_PDM_PCM_GetNumInFifo(PDM_Type const * base);
 473:Generated_Source\PSoC6\pdl\drivers/peripheral/pdm_pcm/cy_pdm_pcm.h **** __STATIC_INLINE void     Cy_PDM_PCM_ClearFifo(PDM_Type * base);
 474:Generated_Source\PSoC6\pdl\drivers/peripheral/pdm_pcm/cy_pdm_pcm.h **** __STATIC_INLINE uint32_t Cy_PDM_PCM_ReadFifo(PDM_Type const * base);
 475:Generated_Source\PSoC6\pdl\drivers/peripheral/pdm_pcm/cy_pdm_pcm.h **** __STATIC_INLINE void     Cy_PDM_PCM_EnableSoftMute(PDM_Type * base);
 476:Generated_Source\PSoC6\pdl\drivers/peripheral/pdm_pcm/cy_pdm_pcm.h **** __STATIC_INLINE void     Cy_PDM_PCM_DisableSoftMute(PDM_Type * base);
 477:Generated_Source\PSoC6\pdl\drivers/peripheral/pdm_pcm/cy_pdm_pcm.h **** __STATIC_INLINE void     Cy_PDM_PCM_FreezeFifo(PDM_Type * base);
 478:Generated_Source\PSoC6\pdl\drivers/peripheral/pdm_pcm/cy_pdm_pcm.h **** __STATIC_INLINE void     Cy_PDM_PCM_UnfreezeFifo(PDM_Type * base);
 479:Generated_Source\PSoC6\pdl\drivers/peripheral/pdm_pcm/cy_pdm_pcm.h **** __STATIC_INLINE uint32_t Cy_PDM_PCM_ReadFifoSilent(PDM_Type const * base);
 480:Generated_Source\PSoC6\pdl\drivers/peripheral/pdm_pcm/cy_pdm_pcm.h **** 
 481:Generated_Source\PSoC6\pdl\drivers/peripheral/pdm_pcm/cy_pdm_pcm.h **** 
 482:Generated_Source\PSoC6\pdl\drivers/peripheral/pdm_pcm/cy_pdm_pcm.h **** /** \} group_pdm_pcm_functions */
 483:Generated_Source\PSoC6\pdl\drivers/peripheral/pdm_pcm/cy_pdm_pcm.h **** 
 484:Generated_Source\PSoC6\pdl\drivers/peripheral/pdm_pcm/cy_pdm_pcm.h **** /**
 485:Generated_Source\PSoC6\pdl\drivers/peripheral/pdm_pcm/cy_pdm_pcm.h **** * \addtogroup group_pdm_pcm_functions
 486:Generated_Source\PSoC6\pdl\drivers/peripheral/pdm_pcm/cy_pdm_pcm.h **** * \{
ARM GAS  C:\Users\ikomb\AppData\Local\Temp\ccKMSltZ.s 			page 10


 487:Generated_Source\PSoC6\pdl\drivers/peripheral/pdm_pcm/cy_pdm_pcm.h **** */
 488:Generated_Source\PSoC6\pdl\drivers/peripheral/pdm_pcm/cy_pdm_pcm.h **** 
 489:Generated_Source\PSoC6\pdl\drivers/peripheral/pdm_pcm/cy_pdm_pcm.h **** /******************************************************************************
 490:Generated_Source\PSoC6\pdl\drivers/peripheral/pdm_pcm/cy_pdm_pcm.h **** * Function Name: Cy_PDM_PCM_Enable
 491:Generated_Source\PSoC6\pdl\drivers/peripheral/pdm_pcm/cy_pdm_pcm.h **** ***************************************************************************//**
 492:Generated_Source\PSoC6\pdl\drivers/peripheral/pdm_pcm/cy_pdm_pcm.h **** *
 493:Generated_Source\PSoC6\pdl\drivers/peripheral/pdm_pcm/cy_pdm_pcm.h **** * Enables the PDM-PCM data conversion.
 494:Generated_Source\PSoC6\pdl\drivers/peripheral/pdm_pcm/cy_pdm_pcm.h **** *
 495:Generated_Source\PSoC6\pdl\drivers/peripheral/pdm_pcm/cy_pdm_pcm.h **** * \param base The pointer to the  PDM-PCM instance address.
 496:Generated_Source\PSoC6\pdl\drivers/peripheral/pdm_pcm/cy_pdm_pcm.h **** *
 497:Generated_Source\PSoC6\pdl\drivers/peripheral/pdm_pcm/cy_pdm_pcm.h **** ******************************************************************************/
 498:Generated_Source\PSoC6\pdl\drivers/peripheral/pdm_pcm/cy_pdm_pcm.h **** __STATIC_INLINE void Cy_PDM_PCM_Enable(PDM_Type * base)
 499:Generated_Source\PSoC6\pdl\drivers/peripheral/pdm_pcm/cy_pdm_pcm.h **** {
  28              		.loc 1 499 0
  29              		.cfi_startproc
  30              		@ args = 0, pretend = 0, frame = 8
  31              		@ frame_needed = 1, uses_anonymous_args = 0
  32              		@ link register save eliminated.
  33 0000 80B4     		push	{r7}
  34              		.cfi_def_cfa_offset 4
  35              		.cfi_offset 7, -4
  36 0002 83B0     		sub	sp, sp, #12
  37              		.cfi_def_cfa_offset 16
  38 0004 00AF     		add	r7, sp, #0
  39              		.cfi_def_cfa_register 7
  40 0006 7860     		str	r0, [r7, #4]
 500:Generated_Source\PSoC6\pdl\drivers/peripheral/pdm_pcm/cy_pdm_pcm.h ****     base->CMD |= PDM_CMD_STREAM_EN_Msk;
  41              		.loc 1 500 0
  42 0008 7B68     		ldr	r3, [r7, #4]
  43 000a 1B6A     		ldr	r3, [r3, #32]
  44 000c 43F00102 		orr	r2, r3, #1
  45 0010 7B68     		ldr	r3, [r7, #4]
  46 0012 1A62     		str	r2, [r3, #32]
 501:Generated_Source\PSoC6\pdl\drivers/peripheral/pdm_pcm/cy_pdm_pcm.h **** }
  47              		.loc 1 501 0
  48 0014 00BF     		nop
  49 0016 0C37     		adds	r7, r7, #12
  50              		.cfi_def_cfa_offset 4
  51 0018 BD46     		mov	sp, r7
  52              		.cfi_def_cfa_register 13
  53              		@ sp needed
  54 001a 5DF8047B 		ldr	r7, [sp], #4
  55              		.cfi_restore 7
  56              		.cfi_def_cfa_offset 0
  57 001e 7047     		bx	lr
  58              		.cfi_endproc
  59              	.LFE158:
  60              		.size	Cy_PDM_PCM_Enable, .-Cy_PDM_PCM_Enable
  61              		.section	.text.Cy_PDM_PCM_ClearFifo,"ax",%progbits
  62              		.align	2
  63              		.thumb
  64              		.thumb_func
  65              		.type	Cy_PDM_PCM_ClearFifo, %function
  66              	Cy_PDM_PCM_ClearFifo:
  67              	.LFB168:
 502:Generated_Source\PSoC6\pdl\drivers/peripheral/pdm_pcm/cy_pdm_pcm.h **** 
 503:Generated_Source\PSoC6\pdl\drivers/peripheral/pdm_pcm/cy_pdm_pcm.h **** /******************************************************************************
ARM GAS  C:\Users\ikomb\AppData\Local\Temp\ccKMSltZ.s 			page 11


 504:Generated_Source\PSoC6\pdl\drivers/peripheral/pdm_pcm/cy_pdm_pcm.h **** * Function Name: Cy_PDM_PCM_Disable
 505:Generated_Source\PSoC6\pdl\drivers/peripheral/pdm_pcm/cy_pdm_pcm.h **** ***************************************************************************//**
 506:Generated_Source\PSoC6\pdl\drivers/peripheral/pdm_pcm/cy_pdm_pcm.h **** *
 507:Generated_Source\PSoC6\pdl\drivers/peripheral/pdm_pcm/cy_pdm_pcm.h **** * Disables the PDM-PCM data conversion.
 508:Generated_Source\PSoC6\pdl\drivers/peripheral/pdm_pcm/cy_pdm_pcm.h **** *
 509:Generated_Source\PSoC6\pdl\drivers/peripheral/pdm_pcm/cy_pdm_pcm.h **** * \param base The pointer to the PDM-PCM instance address.
 510:Generated_Source\PSoC6\pdl\drivers/peripheral/pdm_pcm/cy_pdm_pcm.h **** *
 511:Generated_Source\PSoC6\pdl\drivers/peripheral/pdm_pcm/cy_pdm_pcm.h **** ******************************************************************************/
 512:Generated_Source\PSoC6\pdl\drivers/peripheral/pdm_pcm/cy_pdm_pcm.h **** __STATIC_INLINE void Cy_PDM_PCM_Disable(PDM_Type * base)
 513:Generated_Source\PSoC6\pdl\drivers/peripheral/pdm_pcm/cy_pdm_pcm.h **** {
 514:Generated_Source\PSoC6\pdl\drivers/peripheral/pdm_pcm/cy_pdm_pcm.h ****     base->CMD &= (uint32_t) ~PDM_CMD_STREAM_EN_Msk;
 515:Generated_Source\PSoC6\pdl\drivers/peripheral/pdm_pcm/cy_pdm_pcm.h **** }
 516:Generated_Source\PSoC6\pdl\drivers/peripheral/pdm_pcm/cy_pdm_pcm.h **** 
 517:Generated_Source\PSoC6\pdl\drivers/peripheral/pdm_pcm/cy_pdm_pcm.h **** 
 518:Generated_Source\PSoC6\pdl\drivers/peripheral/pdm_pcm/cy_pdm_pcm.h **** /******************************************************************************
 519:Generated_Source\PSoC6\pdl\drivers/peripheral/pdm_pcm/cy_pdm_pcm.h **** * Function Name: Cy_PDM_PCM_GetCurrentState
 520:Generated_Source\PSoC6\pdl\drivers/peripheral/pdm_pcm/cy_pdm_pcm.h **** ***************************************************************************//**
 521:Generated_Source\PSoC6\pdl\drivers/peripheral/pdm_pcm/cy_pdm_pcm.h **** *
 522:Generated_Source\PSoC6\pdl\drivers/peripheral/pdm_pcm/cy_pdm_pcm.h **** * Returns the current PDM-PCM state (running/stopped).
 523:Generated_Source\PSoC6\pdl\drivers/peripheral/pdm_pcm/cy_pdm_pcm.h **** *
 524:Generated_Source\PSoC6\pdl\drivers/peripheral/pdm_pcm/cy_pdm_pcm.h **** * \param base The pointer to the PDM-PCM instance address.
 525:Generated_Source\PSoC6\pdl\drivers/peripheral/pdm_pcm/cy_pdm_pcm.h **** * \return The current state (CMD register).
 526:Generated_Source\PSoC6\pdl\drivers/peripheral/pdm_pcm/cy_pdm_pcm.h **** *
 527:Generated_Source\PSoC6\pdl\drivers/peripheral/pdm_pcm/cy_pdm_pcm.h **** ******************************************************************************/
 528:Generated_Source\PSoC6\pdl\drivers/peripheral/pdm_pcm/cy_pdm_pcm.h **** __STATIC_INLINE uint32_t Cy_PDM_PCM_GetCurrentState(PDM_Type const * base)
 529:Generated_Source\PSoC6\pdl\drivers/peripheral/pdm_pcm/cy_pdm_pcm.h **** {
 530:Generated_Source\PSoC6\pdl\drivers/peripheral/pdm_pcm/cy_pdm_pcm.h ****     return (base->CMD);
 531:Generated_Source\PSoC6\pdl\drivers/peripheral/pdm_pcm/cy_pdm_pcm.h **** }
 532:Generated_Source\PSoC6\pdl\drivers/peripheral/pdm_pcm/cy_pdm_pcm.h **** 
 533:Generated_Source\PSoC6\pdl\drivers/peripheral/pdm_pcm/cy_pdm_pcm.h **** 
 534:Generated_Source\PSoC6\pdl\drivers/peripheral/pdm_pcm/cy_pdm_pcm.h **** /******************************************************************************
 535:Generated_Source\PSoC6\pdl\drivers/peripheral/pdm_pcm/cy_pdm_pcm.h **** * Function Name: Cy_PDM_PCM_SetInterruptMask
 536:Generated_Source\PSoC6\pdl\drivers/peripheral/pdm_pcm/cy_pdm_pcm.h **** ***************************************************************************//**
 537:Generated_Source\PSoC6\pdl\drivers/peripheral/pdm_pcm/cy_pdm_pcm.h **** *
 538:Generated_Source\PSoC6\pdl\drivers/peripheral/pdm_pcm/cy_pdm_pcm.h **** * Sets one or more PDM-PCM interrupt factor bits (sets the INTR_MASK register).
 539:Generated_Source\PSoC6\pdl\drivers/peripheral/pdm_pcm/cy_pdm_pcm.h **** *
 540:Generated_Source\PSoC6\pdl\drivers/peripheral/pdm_pcm/cy_pdm_pcm.h **** * \param base The pointer to the PDM-PCM instance address
 541:Generated_Source\PSoC6\pdl\drivers/peripheral/pdm_pcm/cy_pdm_pcm.h **** * \param interrupt Interrupt bit mask \ref group_pdm_pcm_macros_intrerrupt_masks.
 542:Generated_Source\PSoC6\pdl\drivers/peripheral/pdm_pcm/cy_pdm_pcm.h **** *
 543:Generated_Source\PSoC6\pdl\drivers/peripheral/pdm_pcm/cy_pdm_pcm.h **** ******************************************************************************/
 544:Generated_Source\PSoC6\pdl\drivers/peripheral/pdm_pcm/cy_pdm_pcm.h **** __STATIC_INLINE void Cy_PDM_PCM_SetInterruptMask(PDM_Type * base, uint32_t interrupt)
 545:Generated_Source\PSoC6\pdl\drivers/peripheral/pdm_pcm/cy_pdm_pcm.h **** {
 546:Generated_Source\PSoC6\pdl\drivers/peripheral/pdm_pcm/cy_pdm_pcm.h ****     CY_ASSERT_L2(CY_PDM_PCM_IS_INTR_MASK_VALID(interrupt));
 547:Generated_Source\PSoC6\pdl\drivers/peripheral/pdm_pcm/cy_pdm_pcm.h ****     base->INTR_MASK = interrupt;
 548:Generated_Source\PSoC6\pdl\drivers/peripheral/pdm_pcm/cy_pdm_pcm.h **** }
 549:Generated_Source\PSoC6\pdl\drivers/peripheral/pdm_pcm/cy_pdm_pcm.h **** 
 550:Generated_Source\PSoC6\pdl\drivers/peripheral/pdm_pcm/cy_pdm_pcm.h **** 
 551:Generated_Source\PSoC6\pdl\drivers/peripheral/pdm_pcm/cy_pdm_pcm.h **** /******************************************************************************
 552:Generated_Source\PSoC6\pdl\drivers/peripheral/pdm_pcm/cy_pdm_pcm.h **** * Function Name: Cy_PDM_PCM_GetInterruptMask
 553:Generated_Source\PSoC6\pdl\drivers/peripheral/pdm_pcm/cy_pdm_pcm.h **** ***************************************************************************//**
 554:Generated_Source\PSoC6\pdl\drivers/peripheral/pdm_pcm/cy_pdm_pcm.h **** *
 555:Generated_Source\PSoC6\pdl\drivers/peripheral/pdm_pcm/cy_pdm_pcm.h **** * Returns the PDM-PCM interrupt mask (a content of the INTR_MASK register).
 556:Generated_Source\PSoC6\pdl\drivers/peripheral/pdm_pcm/cy_pdm_pcm.h **** *
 557:Generated_Source\PSoC6\pdl\drivers/peripheral/pdm_pcm/cy_pdm_pcm.h **** * \param base The pointer to the PDM-PCM instance address.
 558:Generated_Source\PSoC6\pdl\drivers/peripheral/pdm_pcm/cy_pdm_pcm.h **** * \return The interrupt bit mask \ref group_pdm_pcm_macros_intrerrupt_masks.
 559:Generated_Source\PSoC6\pdl\drivers/peripheral/pdm_pcm/cy_pdm_pcm.h **** *
 560:Generated_Source\PSoC6\pdl\drivers/peripheral/pdm_pcm/cy_pdm_pcm.h **** ******************************************************************************/
ARM GAS  C:\Users\ikomb\AppData\Local\Temp\ccKMSltZ.s 			page 12


 561:Generated_Source\PSoC6\pdl\drivers/peripheral/pdm_pcm/cy_pdm_pcm.h **** __STATIC_INLINE uint32_t Cy_PDM_PCM_GetInterruptMask(PDM_Type const * base)
 562:Generated_Source\PSoC6\pdl\drivers/peripheral/pdm_pcm/cy_pdm_pcm.h **** {
 563:Generated_Source\PSoC6\pdl\drivers/peripheral/pdm_pcm/cy_pdm_pcm.h ****     return (base->INTR_MASK);
 564:Generated_Source\PSoC6\pdl\drivers/peripheral/pdm_pcm/cy_pdm_pcm.h **** }
 565:Generated_Source\PSoC6\pdl\drivers/peripheral/pdm_pcm/cy_pdm_pcm.h **** 
 566:Generated_Source\PSoC6\pdl\drivers/peripheral/pdm_pcm/cy_pdm_pcm.h **** 
 567:Generated_Source\PSoC6\pdl\drivers/peripheral/pdm_pcm/cy_pdm_pcm.h **** /******************************************************************************
 568:Generated_Source\PSoC6\pdl\drivers/peripheral/pdm_pcm/cy_pdm_pcm.h **** * Function Name: Cy_PDM_PCM_GetInterruptStatusMasked
 569:Generated_Source\PSoC6\pdl\drivers/peripheral/pdm_pcm/cy_pdm_pcm.h **** ***************************************************************************//**
 570:Generated_Source\PSoC6\pdl\drivers/peripheral/pdm_pcm/cy_pdm_pcm.h **** *
 571:Generated_Source\PSoC6\pdl\drivers/peripheral/pdm_pcm/cy_pdm_pcm.h **** * Reports the status of enabled (masked) PDM-PCM interrupt sources.
 572:Generated_Source\PSoC6\pdl\drivers/peripheral/pdm_pcm/cy_pdm_pcm.h **** * (an INTR_MASKED register).
 573:Generated_Source\PSoC6\pdl\drivers/peripheral/pdm_pcm/cy_pdm_pcm.h **** *
 574:Generated_Source\PSoC6\pdl\drivers/peripheral/pdm_pcm/cy_pdm_pcm.h **** * \param base The pointer to the PDM-PCM instance address.
 575:Generated_Source\PSoC6\pdl\drivers/peripheral/pdm_pcm/cy_pdm_pcm.h **** * \return The interrupt bit mask \ref group_pdm_pcm_macros_intrerrupt_masks.
 576:Generated_Source\PSoC6\pdl\drivers/peripheral/pdm_pcm/cy_pdm_pcm.h **** *
 577:Generated_Source\PSoC6\pdl\drivers/peripheral/pdm_pcm/cy_pdm_pcm.h **** *****************************************************************************/
 578:Generated_Source\PSoC6\pdl\drivers/peripheral/pdm_pcm/cy_pdm_pcm.h **** __STATIC_INLINE uint32_t Cy_PDM_PCM_GetInterruptStatusMasked(PDM_Type const * base)
 579:Generated_Source\PSoC6\pdl\drivers/peripheral/pdm_pcm/cy_pdm_pcm.h **** {
 580:Generated_Source\PSoC6\pdl\drivers/peripheral/pdm_pcm/cy_pdm_pcm.h ****     return (base->INTR_MASKED);
 581:Generated_Source\PSoC6\pdl\drivers/peripheral/pdm_pcm/cy_pdm_pcm.h **** }
 582:Generated_Source\PSoC6\pdl\drivers/peripheral/pdm_pcm/cy_pdm_pcm.h **** 
 583:Generated_Source\PSoC6\pdl\drivers/peripheral/pdm_pcm/cy_pdm_pcm.h **** 
 584:Generated_Source\PSoC6\pdl\drivers/peripheral/pdm_pcm/cy_pdm_pcm.h **** /******************************************************************************
 585:Generated_Source\PSoC6\pdl\drivers/peripheral/pdm_pcm/cy_pdm_pcm.h **** * Function Name: Cy_PDM_PCM_GetInterruptStatus
 586:Generated_Source\PSoC6\pdl\drivers/peripheral/pdm_pcm/cy_pdm_pcm.h **** ***************************************************************************//**
 587:Generated_Source\PSoC6\pdl\drivers/peripheral/pdm_pcm/cy_pdm_pcm.h **** *
 588:Generated_Source\PSoC6\pdl\drivers/peripheral/pdm_pcm/cy_pdm_pcm.h **** * Reports the status of PDM-PCM interrupt sources (an INTR register).
 589:Generated_Source\PSoC6\pdl\drivers/peripheral/pdm_pcm/cy_pdm_pcm.h **** *
 590:Generated_Source\PSoC6\pdl\drivers/peripheral/pdm_pcm/cy_pdm_pcm.h **** * \param base The pointer to the PDM-PCM instance address.
 591:Generated_Source\PSoC6\pdl\drivers/peripheral/pdm_pcm/cy_pdm_pcm.h **** * \return The interrupt bit mask \ref group_pdm_pcm_macros_intrerrupt_masks.
 592:Generated_Source\PSoC6\pdl\drivers/peripheral/pdm_pcm/cy_pdm_pcm.h **** *
 593:Generated_Source\PSoC6\pdl\drivers/peripheral/pdm_pcm/cy_pdm_pcm.h **** ******************************************************************************/
 594:Generated_Source\PSoC6\pdl\drivers/peripheral/pdm_pcm/cy_pdm_pcm.h **** __STATIC_INLINE uint32_t Cy_PDM_PCM_GetInterruptStatus(PDM_Type const * base)
 595:Generated_Source\PSoC6\pdl\drivers/peripheral/pdm_pcm/cy_pdm_pcm.h **** {
 596:Generated_Source\PSoC6\pdl\drivers/peripheral/pdm_pcm/cy_pdm_pcm.h ****     return (base->INTR);
 597:Generated_Source\PSoC6\pdl\drivers/peripheral/pdm_pcm/cy_pdm_pcm.h **** }
 598:Generated_Source\PSoC6\pdl\drivers/peripheral/pdm_pcm/cy_pdm_pcm.h **** 
 599:Generated_Source\PSoC6\pdl\drivers/peripheral/pdm_pcm/cy_pdm_pcm.h **** 
 600:Generated_Source\PSoC6\pdl\drivers/peripheral/pdm_pcm/cy_pdm_pcm.h **** /******************************************************************************
 601:Generated_Source\PSoC6\pdl\drivers/peripheral/pdm_pcm/cy_pdm_pcm.h **** * Function Name: Cy_PDM_PCM_ClearInterrupt
 602:Generated_Source\PSoC6\pdl\drivers/peripheral/pdm_pcm/cy_pdm_pcm.h **** ***************************************************************************//**
 603:Generated_Source\PSoC6\pdl\drivers/peripheral/pdm_pcm/cy_pdm_pcm.h **** *
 604:Generated_Source\PSoC6\pdl\drivers/peripheral/pdm_pcm/cy_pdm_pcm.h **** * Clears one or more PDM-PCM interrupt statuses (sets an INTR register's bits).
 605:Generated_Source\PSoC6\pdl\drivers/peripheral/pdm_pcm/cy_pdm_pcm.h **** *
 606:Generated_Source\PSoC6\pdl\drivers/peripheral/pdm_pcm/cy_pdm_pcm.h **** * \param base The pointer to the PDM-PCM instance address
 607:Generated_Source\PSoC6\pdl\drivers/peripheral/pdm_pcm/cy_pdm_pcm.h **** * \param interrupt 
 608:Generated_Source\PSoC6\pdl\drivers/peripheral/pdm_pcm/cy_pdm_pcm.h **** *  The interrupt bit mask \ref group_pdm_pcm_macros_intrerrupt_masks.
 609:Generated_Source\PSoC6\pdl\drivers/peripheral/pdm_pcm/cy_pdm_pcm.h **** *
 610:Generated_Source\PSoC6\pdl\drivers/peripheral/pdm_pcm/cy_pdm_pcm.h **** ******************************************************************************/
 611:Generated_Source\PSoC6\pdl\drivers/peripheral/pdm_pcm/cy_pdm_pcm.h **** __STATIC_INLINE void Cy_PDM_PCM_ClearInterrupt(PDM_Type * base, uint32_t interrupt)
 612:Generated_Source\PSoC6\pdl\drivers/peripheral/pdm_pcm/cy_pdm_pcm.h **** {
 613:Generated_Source\PSoC6\pdl\drivers/peripheral/pdm_pcm/cy_pdm_pcm.h ****     CY_ASSERT_L2(CY_PDM_PCM_IS_INTR_MASK_VALID(interrupt));
 614:Generated_Source\PSoC6\pdl\drivers/peripheral/pdm_pcm/cy_pdm_pcm.h ****     base->INTR = interrupt;
 615:Generated_Source\PSoC6\pdl\drivers/peripheral/pdm_pcm/cy_pdm_pcm.h ****     (void) base->INTR;
 616:Generated_Source\PSoC6\pdl\drivers/peripheral/pdm_pcm/cy_pdm_pcm.h **** }
 617:Generated_Source\PSoC6\pdl\drivers/peripheral/pdm_pcm/cy_pdm_pcm.h **** 
ARM GAS  C:\Users\ikomb\AppData\Local\Temp\ccKMSltZ.s 			page 13


 618:Generated_Source\PSoC6\pdl\drivers/peripheral/pdm_pcm/cy_pdm_pcm.h **** 
 619:Generated_Source\PSoC6\pdl\drivers/peripheral/pdm_pcm/cy_pdm_pcm.h **** /******************************************************************************
 620:Generated_Source\PSoC6\pdl\drivers/peripheral/pdm_pcm/cy_pdm_pcm.h **** * Function Name: Cy_PDM_PCM_SetInterrupt
 621:Generated_Source\PSoC6\pdl\drivers/peripheral/pdm_pcm/cy_pdm_pcm.h **** ***************************************************************************//**
 622:Generated_Source\PSoC6\pdl\drivers/peripheral/pdm_pcm/cy_pdm_pcm.h **** *
 623:Generated_Source\PSoC6\pdl\drivers/peripheral/pdm_pcm/cy_pdm_pcm.h **** * Sets one or more interrupt source statuses (sets an INTR_SET register).
 624:Generated_Source\PSoC6\pdl\drivers/peripheral/pdm_pcm/cy_pdm_pcm.h **** *
 625:Generated_Source\PSoC6\pdl\drivers/peripheral/pdm_pcm/cy_pdm_pcm.h **** * \param base The pointer to the PDM-PCM instance address.
 626:Generated_Source\PSoC6\pdl\drivers/peripheral/pdm_pcm/cy_pdm_pcm.h **** * \param interrupt
 627:Generated_Source\PSoC6\pdl\drivers/peripheral/pdm_pcm/cy_pdm_pcm.h **** *  The interrupt bit mask \ref group_pdm_pcm_macros_intrerrupt_masks.
 628:Generated_Source\PSoC6\pdl\drivers/peripheral/pdm_pcm/cy_pdm_pcm.h **** *
 629:Generated_Source\PSoC6\pdl\drivers/peripheral/pdm_pcm/cy_pdm_pcm.h **** ******************************************************************************/
 630:Generated_Source\PSoC6\pdl\drivers/peripheral/pdm_pcm/cy_pdm_pcm.h **** __STATIC_INLINE void Cy_PDM_PCM_SetInterrupt(PDM_Type * base, uint32_t interrupt)
 631:Generated_Source\PSoC6\pdl\drivers/peripheral/pdm_pcm/cy_pdm_pcm.h **** {
 632:Generated_Source\PSoC6\pdl\drivers/peripheral/pdm_pcm/cy_pdm_pcm.h ****     CY_ASSERT_L2(CY_PDM_PCM_IS_INTR_MASK_VALID(interrupt));
 633:Generated_Source\PSoC6\pdl\drivers/peripheral/pdm_pcm/cy_pdm_pcm.h ****     base->INTR_SET = interrupt;
 634:Generated_Source\PSoC6\pdl\drivers/peripheral/pdm_pcm/cy_pdm_pcm.h **** }
 635:Generated_Source\PSoC6\pdl\drivers/peripheral/pdm_pcm/cy_pdm_pcm.h **** 
 636:Generated_Source\PSoC6\pdl\drivers/peripheral/pdm_pcm/cy_pdm_pcm.h **** 
 637:Generated_Source\PSoC6\pdl\drivers/peripheral/pdm_pcm/cy_pdm_pcm.h **** /******************************************************************************
 638:Generated_Source\PSoC6\pdl\drivers/peripheral/pdm_pcm/cy_pdm_pcm.h **** * Function Name: Cy_PDM_PCM_GetNumInFifo
 639:Generated_Source\PSoC6\pdl\drivers/peripheral/pdm_pcm/cy_pdm_pcm.h **** ***************************************************************************//**
 640:Generated_Source\PSoC6\pdl\drivers/peripheral/pdm_pcm/cy_pdm_pcm.h **** *
 641:Generated_Source\PSoC6\pdl\drivers/peripheral/pdm_pcm/cy_pdm_pcm.h **** * Reports the current number of used words in the output data FIFO.
 642:Generated_Source\PSoC6\pdl\drivers/peripheral/pdm_pcm/cy_pdm_pcm.h **** *
 643:Generated_Source\PSoC6\pdl\drivers/peripheral/pdm_pcm/cy_pdm_pcm.h **** * \param base The pointer to the PDM-PCM instance address.
 644:Generated_Source\PSoC6\pdl\drivers/peripheral/pdm_pcm/cy_pdm_pcm.h **** * \return The current number of used FIFO words (range is 0 - 254).
 645:Generated_Source\PSoC6\pdl\drivers/peripheral/pdm_pcm/cy_pdm_pcm.h **** *
 646:Generated_Source\PSoC6\pdl\drivers/peripheral/pdm_pcm/cy_pdm_pcm.h **** ******************************************************************************/
 647:Generated_Source\PSoC6\pdl\drivers/peripheral/pdm_pcm/cy_pdm_pcm.h **** __STATIC_INLINE uint8_t Cy_PDM_PCM_GetNumInFifo(PDM_Type const * base)
 648:Generated_Source\PSoC6\pdl\drivers/peripheral/pdm_pcm/cy_pdm_pcm.h **** {
 649:Generated_Source\PSoC6\pdl\drivers/peripheral/pdm_pcm/cy_pdm_pcm.h ****     return (uint8_t) (_FLD2VAL(PDM_RX_FIFO_STATUS_USED, base->RX_FIFO_STATUS));
 650:Generated_Source\PSoC6\pdl\drivers/peripheral/pdm_pcm/cy_pdm_pcm.h **** }
 651:Generated_Source\PSoC6\pdl\drivers/peripheral/pdm_pcm/cy_pdm_pcm.h **** 
 652:Generated_Source\PSoC6\pdl\drivers/peripheral/pdm_pcm/cy_pdm_pcm.h **** 
 653:Generated_Source\PSoC6\pdl\drivers/peripheral/pdm_pcm/cy_pdm_pcm.h **** /******************************************************************************
 654:Generated_Source\PSoC6\pdl\drivers/peripheral/pdm_pcm/cy_pdm_pcm.h **** * Function Name: Cy_PDM_PCM_ClearFifo
 655:Generated_Source\PSoC6\pdl\drivers/peripheral/pdm_pcm/cy_pdm_pcm.h **** ***************************************************************************//**
 656:Generated_Source\PSoC6\pdl\drivers/peripheral/pdm_pcm/cy_pdm_pcm.h **** *
 657:Generated_Source\PSoC6\pdl\drivers/peripheral/pdm_pcm/cy_pdm_pcm.h **** * Resets the output data FIFO, removing all data words from the FIFO.
 658:Generated_Source\PSoC6\pdl\drivers/peripheral/pdm_pcm/cy_pdm_pcm.h **** *
 659:Generated_Source\PSoC6\pdl\drivers/peripheral/pdm_pcm/cy_pdm_pcm.h **** * \param base The pointer to the PDM-PCM instance address.
 660:Generated_Source\PSoC6\pdl\drivers/peripheral/pdm_pcm/cy_pdm_pcm.h **** *
 661:Generated_Source\PSoC6\pdl\drivers/peripheral/pdm_pcm/cy_pdm_pcm.h **** ******************************************************************************/
 662:Generated_Source\PSoC6\pdl\drivers/peripheral/pdm_pcm/cy_pdm_pcm.h **** __STATIC_INLINE void Cy_PDM_PCM_ClearFifo(PDM_Type * base)
 663:Generated_Source\PSoC6\pdl\drivers/peripheral/pdm_pcm/cy_pdm_pcm.h **** {
  68              		.loc 1 663 0
  69              		.cfi_startproc
  70              		@ args = 0, pretend = 0, frame = 8
  71              		@ frame_needed = 1, uses_anonymous_args = 0
  72              		@ link register save eliminated.
  73 0000 80B4     		push	{r7}
  74              		.cfi_def_cfa_offset 4
  75              		.cfi_offset 7, -4
  76 0002 83B0     		sub	sp, sp, #12
  77              		.cfi_def_cfa_offset 16
  78 0004 00AF     		add	r7, sp, #0
ARM GAS  C:\Users\ikomb\AppData\Local\Temp\ccKMSltZ.s 			page 14


  79              		.cfi_def_cfa_register 7
  80 0006 7860     		str	r0, [r7, #4]
 664:Generated_Source\PSoC6\pdl\drivers/peripheral/pdm_pcm/cy_pdm_pcm.h ****     base->RX_FIFO_CTL |= PDM_RX_FIFO_CTL_CLEAR_Msk; /* clear FIFO and disable it */
  81              		.loc 1 664 0
  82 0008 7B68     		ldr	r3, [r7, #4]
  83 000a D3F80033 		ldr	r3, [r3, #768]
  84 000e 43F48032 		orr	r2, r3, #65536
  85 0012 7B68     		ldr	r3, [r7, #4]
  86 0014 C3F80023 		str	r2, [r3, #768]
 665:Generated_Source\PSoC6\pdl\drivers/peripheral/pdm_pcm/cy_pdm_pcm.h ****     base->RX_FIFO_CTL &= (uint32_t) ~PDM_RX_FIFO_CTL_CLEAR_Msk; /* enable FIFO */
  87              		.loc 1 665 0
  88 0018 7B68     		ldr	r3, [r7, #4]
  89 001a D3F80033 		ldr	r3, [r3, #768]
  90 001e 23F48032 		bic	r2, r3, #65536
  91 0022 7B68     		ldr	r3, [r7, #4]
  92 0024 C3F80023 		str	r2, [r3, #768]
 666:Generated_Source\PSoC6\pdl\drivers/peripheral/pdm_pcm/cy_pdm_pcm.h **** }
  93              		.loc 1 666 0
  94 0028 00BF     		nop
  95 002a 0C37     		adds	r7, r7, #12
  96              		.cfi_def_cfa_offset 4
  97 002c BD46     		mov	sp, r7
  98              		.cfi_def_cfa_register 13
  99              		@ sp needed
 100 002e 5DF8047B 		ldr	r7, [sp], #4
 101              		.cfi_restore 7
 102              		.cfi_def_cfa_offset 0
 103 0032 7047     		bx	lr
 104              		.cfi_endproc
 105              	.LFE168:
 106              		.size	Cy_PDM_PCM_ClearFifo, .-Cy_PDM_PCM_ClearFifo
 107              		.global	PDM_PCM_config
 108              		.data
 109              		.align	2
 110              		.type	PDM_PCM_config, %object
 111              		.size	PDM_PCM_config, 28
 112              	PDM_PCM_config:
 113 0000 03       		.byte	3
 114 0001 03       		.byte	3
 115 0002 01       		.byte	1
 116 0003 00       		.byte	0
 117 0004 20       		.byte	32
 118 0005 02       		.byte	2
 119 0006 00       		.byte	0
 120 0007 08       		.byte	8
 121 0008 00       		.byte	0
 122 0009 01       		.byte	1
 123 000a 0000     		.space	2
 124 000c 01000000 		.word	1
 125 0010 00       		.byte	0
 126 0011 00       		.byte	0
 127 0012 00       		.byte	0
 128 0013 08       		.byte	8
 129 0014 0F       		.byte	15
 130 0015 40       		.byte	64
 131 0016 01       		.byte	1
 132 0017 00       		.space	1
ARM GAS  C:\Users\ikomb\AppData\Local\Temp\ccKMSltZ.s 			page 15


 133 0018 00000000 		.word	0
 134              		.global	PDM_PCM_initVar
 135              		.bss
 136              		.type	PDM_PCM_initVar, %object
 137              		.size	PDM_PCM_initVar, 1
 138              	PDM_PCM_initVar:
 139 0000 00       		.space	1
 140              		.section	.text.PDM_PCM_Start,"ax",%progbits
 141              		.align	2
 142              		.global	PDM_PCM_Start
 143              		.thumb
 144              		.thumb_func
 145              		.type	PDM_PCM_Start, %function
 146              	PDM_PCM_Start:
 147              	.LFB196:
 148              		.file 2 "Generated_Source\\PSoC6\\PDM_PCM.c"
   1:Generated_Source\PSoC6/PDM_PCM.c **** /*******************************************************************************
   2:Generated_Source\PSoC6/PDM_PCM.c **** * File Name: PDM_PCM.c
   3:Generated_Source\PSoC6/PDM_PCM.c **** * Version 2.0
   4:Generated_Source\PSoC6/PDM_PCM.c **** *
   5:Generated_Source\PSoC6/PDM_PCM.c **** * Description:
   6:Generated_Source\PSoC6/PDM_PCM.c **** *  This file provides the source code to the API for the
   7:Generated_Source\PSoC6/PDM_PCM.c **** *  PDM_PCM component.
   8:Generated_Source\PSoC6/PDM_PCM.c **** *
   9:Generated_Source\PSoC6/PDM_PCM.c **** ********************************************************************************
  10:Generated_Source\PSoC6/PDM_PCM.c **** * Copyright 2016-2017, Cypress Semiconductor Corporation.  All rights reserved.
  11:Generated_Source\PSoC6/PDM_PCM.c **** * You may use this file only in accordance with the license, terms, conditions,
  12:Generated_Source\PSoC6/PDM_PCM.c **** * disclaimers, and limitations in the end user license agreement accompanying
  13:Generated_Source\PSoC6/PDM_PCM.c **** * the software package with which this file was provided.
  14:Generated_Source\PSoC6/PDM_PCM.c **** *******************************************************************************/
  15:Generated_Source\PSoC6/PDM_PCM.c **** 
  16:Generated_Source\PSoC6/PDM_PCM.c **** #include "PDM_PCM.h"
  17:Generated_Source\PSoC6/PDM_PCM.c **** 
  18:Generated_Source\PSoC6/PDM_PCM.c **** 
  19:Generated_Source\PSoC6/PDM_PCM.c **** /** An instance-specific configuration structure.
  20:Generated_Source\PSoC6/PDM_PCM.c **** *   It should be used in the associated Cy_PDM_PCM_Init() function.
  21:Generated_Source\PSoC6/PDM_PCM.c **** */
  22:Generated_Source\PSoC6/PDM_PCM.c ****  cy_stc_pdm_pcm_config_t PDM_PCM_config =
  23:Generated_Source\PSoC6/PDM_PCM.c **** {
  24:Generated_Source\PSoC6/PDM_PCM.c ****     .clkDiv             = CY_PDM_PCM_CLK_DIV_1_4,
  25:Generated_Source\PSoC6/PDM_PCM.c ****     .mclkDiv            = CY_PDM_PCM_CLK_DIV_1_4,
  26:Generated_Source\PSoC6/PDM_PCM.c ****     .ckoDiv             = 1U,
  27:Generated_Source\PSoC6/PDM_PCM.c ****     .ckoDelay           = 0U,
  28:Generated_Source\PSoC6/PDM_PCM.c ****     .sincDecRate        = 32U,
  29:Generated_Source\PSoC6/PDM_PCM.c ****     .chanSelect         = CY_PDM_PCM_OUT_CHAN_RIGHT,
  30:Generated_Source\PSoC6/PDM_PCM.c ****     .chanSwapEnable     = false,
  31:Generated_Source\PSoC6/PDM_PCM.c ****     .highPassFilterGain = 8U,
  32:Generated_Source\PSoC6/PDM_PCM.c ****     .highPassDisable    = false,
  33:Generated_Source\PSoC6/PDM_PCM.c ****     .softMuteCycles     = CY_PDM_PCM_SOFT_MUTE_CYCLES_96,
  34:Generated_Source\PSoC6/PDM_PCM.c ****     .softMuteFineGain   = 1UL,
  35:Generated_Source\PSoC6/PDM_PCM.c ****     .softMuteEnable     = false,
  36:Generated_Source\PSoC6/PDM_PCM.c ****     .wordLen            = CY_PDM_PCM_WLEN_16_BIT,
  37:Generated_Source\PSoC6/PDM_PCM.c ****     .signExtension      = false,
  38:Generated_Source\PSoC6/PDM_PCM.c ****     .gainLeft           = CY_PDM_PCM_BYPASS,
  39:Generated_Source\PSoC6/PDM_PCM.c ****     .gainRight          = CY_PDM_PCM_GAIN_10_5_DB,
  40:Generated_Source\PSoC6/PDM_PCM.c ****     .rxFifoTriggerLevel = 64U,
  41:Generated_Source\PSoC6/PDM_PCM.c ****     .dmaTriggerEnable   = true,
ARM GAS  C:\Users\ikomb\AppData\Local\Temp\ccKMSltZ.s 			page 16


  42:Generated_Source\PSoC6/PDM_PCM.c ****     .interruptMask      = 0UL
  43:Generated_Source\PSoC6/PDM_PCM.c **** };
  44:Generated_Source\PSoC6/PDM_PCM.c **** 
  45:Generated_Source\PSoC6/PDM_PCM.c **** /* An internal variable indicates whether the PDM_PCM has been
  46:Generated_Source\PSoC6/PDM_PCM.c **** *  initialized. The variable is initialized to 0 and set to 1 the first time
  47:Generated_Source\PSoC6/PDM_PCM.c **** *  PDM_PCM_Start() is called. This allows the Component to
  48:Generated_Source\PSoC6/PDM_PCM.c **** *  restart without reinitialization after the first call to the
  49:Generated_Source\PSoC6/PDM_PCM.c **** *  PDM_PCM_Start() routine. The variable is cleared by the
  50:Generated_Source\PSoC6/PDM_PCM.c **** *  PDM_PCM_DeInit() routine call.
  51:Generated_Source\PSoC6/PDM_PCM.c **** */
  52:Generated_Source\PSoC6/PDM_PCM.c **** uint8_t PDM_PCM_initVar = 0U;
  53:Generated_Source\PSoC6/PDM_PCM.c **** 
  54:Generated_Source\PSoC6/PDM_PCM.c **** /*******************************************************************************
  55:Generated_Source\PSoC6/PDM_PCM.c **** * Function Name: PDM_PCM_Start
  56:Generated_Source\PSoC6/PDM_PCM.c **** ********************************************************************************
  57:Generated_Source\PSoC6/PDM_PCM.c **** *
  58:Generated_Source\PSoC6/PDM_PCM.c **** * Calls the Cy_PDM_PCM_Init() function when called the first time or after the
  59:Generated_Source\PSoC6/PDM_PCM.c **** * \ref PDM_PCM_DeInit() call, then clears FIFO and enables the PDM-PCM 
  60:Generated_Source\PSoC6/PDM_PCM.c **** * data coversion. For subsequent calls (after the
  61:Generated_Source\PSoC6/PDM_PCM.c **** * \ref PDM_PCM_Stop() call) the configuration is left unchanged, the
  62:Generated_Source\PSoC6/PDM_PCM.c **** * FIFO is cleared and the PDM-PCM data coversion is enabled.
  63:Generated_Source\PSoC6/PDM_PCM.c **** *
  64:Generated_Source\PSoC6/PDM_PCM.c **** *******************************************************************************/
  65:Generated_Source\PSoC6/PDM_PCM.c **** void PDM_PCM_Start(void)
  66:Generated_Source\PSoC6/PDM_PCM.c **** {
 149              		.loc 2 66 0
 150              		.cfi_startproc
 151              		@ args = 0, pretend = 0, frame = 0
 152              		@ frame_needed = 1, uses_anonymous_args = 0
 153 0000 80B5     		push	{r7, lr}
 154              		.cfi_def_cfa_offset 8
 155              		.cfi_offset 7, -8
 156              		.cfi_offset 14, -4
 157 0002 00AF     		add	r7, sp, #0
 158              		.cfi_def_cfa_register 7
  67:Generated_Source\PSoC6/PDM_PCM.c ****     if(0U == PDM_PCM_initVar)
 159              		.loc 2 67 0
 160 0004 094B     		ldr	r3, .L5
 161 0006 1B78     		ldrb	r3, [r3]	@ zero_extendqisi2
 162 0008 002B     		cmp	r3, #0
 163 000a 06D1     		bne	.L4
  68:Generated_Source\PSoC6/PDM_PCM.c ****     {
  69:Generated_Source\PSoC6/PDM_PCM.c ****         (void) Cy_PDM_PCM_Init(PDM_PCM_HW, &PDM_PCM_config);
 164              		.loc 2 69 0
 165 000c 0849     		ldr	r1, .L5+4
 166 000e 0948     		ldr	r0, .L5+8
 167 0010 FFF7FEFF 		bl	Cy_PDM_PCM_Init
  70:Generated_Source\PSoC6/PDM_PCM.c ****         PDM_PCM_initVar = 1U;
 168              		.loc 2 70 0
 169 0014 054B     		ldr	r3, .L5
 170 0016 0122     		movs	r2, #1
 171 0018 1A70     		strb	r2, [r3]
 172              	.L4:
  71:Generated_Source\PSoC6/PDM_PCM.c ****     }
  72:Generated_Source\PSoC6/PDM_PCM.c **** 
  73:Generated_Source\PSoC6/PDM_PCM.c ****     Cy_PDM_PCM_ClearFifo(PDM_PCM_HW);
 173              		.loc 2 73 0
ARM GAS  C:\Users\ikomb\AppData\Local\Temp\ccKMSltZ.s 			page 17


 174 001a 0648     		ldr	r0, .L5+8
 175 001c FFF7FEFF 		bl	Cy_PDM_PCM_ClearFifo
  74:Generated_Source\PSoC6/PDM_PCM.c ****     Cy_PDM_PCM_Enable(PDM_PCM_HW);
 176              		.loc 2 74 0
 177 0020 0448     		ldr	r0, .L5+8
 178 0022 FFF7FEFF 		bl	Cy_PDM_PCM_Enable
  75:Generated_Source\PSoC6/PDM_PCM.c **** }
 179              		.loc 2 75 0
 180 0026 00BF     		nop
 181 0028 80BD     		pop	{r7, pc}
 182              	.L6:
 183 002a 00BF     		.align	2
 184              	.L5:
 185 002c 00000000 		.word	PDM_PCM_initVar
 186 0030 00000000 		.word	PDM_PCM_config
 187 0034 0000A242 		.word	1117913088
 188              		.cfi_endproc
 189              	.LFE196:
 190              		.size	PDM_PCM_Start, .-PDM_PCM_Start
 191              		.text
 192              	.Letext0:
 193              		.file 3 "c:\\program files (x86)\\cypress\\psoc creator\\4.4\\psoc creator\\import\\gnu\\arm\\5.4.
 194              		.file 4 "c:\\program files (x86)\\cypress\\psoc creator\\4.4\\psoc creator\\import\\gnu\\arm\\5.4.
 195              		.file 5 "Generated_Source\\PSoC6\\pdl\\devices/psoc6/ip/cyip_pdm.h"
 196              		.file 6 "Generated_Source\\PSoC6\\pdl\\cmsis/include/core_cm4.h"