ARM GAS  C:\Users\ikomb\AppData\Local\Temp\cc9p1klJ.s 			page 1


   1              		.syntax unified
   2              		.cpu cortex-m4
   3              		.eabi_attribute 27, 1
   4              		.fpu fpv4-sp-d16
   5              		.eabi_attribute 20, 1
   6              		.eabi_attribute 21, 1
   7              		.eabi_attribute 23, 3
   8              		.eabi_attribute 24, 1
   9              		.eabi_attribute 25, 1
  10              		.eabi_attribute 26, 1
  11              		.eabi_attribute 30, 6
  12              		.eabi_attribute 34, 1
  13              		.eabi_attribute 18, 4
  14              		.thumb
  15              		.syntax unified
  16              		.file	"queue.c"
  17              		.text
  18              	.Ltext0:
  19              		.cfi_sections	.debug_frame
  20              		.comm	xQueueRegistry,80,4
  21              		.section	.text.xQueueGenericReset,"ax",%progbits
  22              		.align	2
  23              		.global	xQueueGenericReset
  24              		.thumb
  25              		.thumb_func
  26              		.type	xQueueGenericReset, %function
  27              	xQueueGenericReset:
  28              	.LFB129:
  29              		.file 1 "Generated_Source\\PSoC6\\pdl\\rtos\\FreeRTOS\\9.0.0\\Source\\queue.c"
   1:Generated_Source\PSoC6\pdl\rtos\FreeRTOS\9.0.0\Source/queue.c **** /*
   2:Generated_Source\PSoC6\pdl\rtos\FreeRTOS\9.0.0\Source/queue.c ****     FreeRTOS V9.0.0 - Copyright (C) 2016 Real Time Engineers Ltd.
   3:Generated_Source\PSoC6\pdl\rtos\FreeRTOS\9.0.0\Source/queue.c ****     All rights reserved
   4:Generated_Source\PSoC6\pdl\rtos\FreeRTOS\9.0.0\Source/queue.c **** 
   5:Generated_Source\PSoC6\pdl\rtos\FreeRTOS\9.0.0\Source/queue.c ****     VISIT http://www.FreeRTOS.org TO ENSURE YOU ARE USING THE LATEST VERSION.
   6:Generated_Source\PSoC6\pdl\rtos\FreeRTOS\9.0.0\Source/queue.c **** 
   7:Generated_Source\PSoC6\pdl\rtos\FreeRTOS\9.0.0\Source/queue.c ****     This file is part of the FreeRTOS distribution.
   8:Generated_Source\PSoC6\pdl\rtos\FreeRTOS\9.0.0\Source/queue.c **** 
   9:Generated_Source\PSoC6\pdl\rtos\FreeRTOS\9.0.0\Source/queue.c ****     FreeRTOS is free software; you can redistribute it and/or modify it under
  10:Generated_Source\PSoC6\pdl\rtos\FreeRTOS\9.0.0\Source/queue.c ****     the terms of the GNU General Public License (version 2) as published by the
  11:Generated_Source\PSoC6\pdl\rtos\FreeRTOS\9.0.0\Source/queue.c ****     Free Software Foundation >>>> AND MODIFIED BY <<<< the FreeRTOS exception.
  12:Generated_Source\PSoC6\pdl\rtos\FreeRTOS\9.0.0\Source/queue.c **** 
  13:Generated_Source\PSoC6\pdl\rtos\FreeRTOS\9.0.0\Source/queue.c ****     ***************************************************************************
  14:Generated_Source\PSoC6\pdl\rtos\FreeRTOS\9.0.0\Source/queue.c ****     >>!   NOTE: The modification to the GPL is included to allow you to     !<<
  15:Generated_Source\PSoC6\pdl\rtos\FreeRTOS\9.0.0\Source/queue.c ****     >>!   distribute a combined work that includes FreeRTOS without being   !<<
  16:Generated_Source\PSoC6\pdl\rtos\FreeRTOS\9.0.0\Source/queue.c ****     >>!   obliged to provide the source code for proprietary components     !<<
  17:Generated_Source\PSoC6\pdl\rtos\FreeRTOS\9.0.0\Source/queue.c ****     >>!   outside of the FreeRTOS kernel.                                   !<<
  18:Generated_Source\PSoC6\pdl\rtos\FreeRTOS\9.0.0\Source/queue.c ****     ***************************************************************************
  19:Generated_Source\PSoC6\pdl\rtos\FreeRTOS\9.0.0\Source/queue.c **** 
  20:Generated_Source\PSoC6\pdl\rtos\FreeRTOS\9.0.0\Source/queue.c ****     FreeRTOS is distributed in the hope that it will be useful, but WITHOUT ANY
  21:Generated_Source\PSoC6\pdl\rtos\FreeRTOS\9.0.0\Source/queue.c ****     WARRANTY; without even the implied warranty of MERCHANTABILITY or FITNESS
  22:Generated_Source\PSoC6\pdl\rtos\FreeRTOS\9.0.0\Source/queue.c ****     FOR A PARTICULAR PURPOSE.  Full license text is available on the following
  23:Generated_Source\PSoC6\pdl\rtos\FreeRTOS\9.0.0\Source/queue.c ****     link: http://www.freertos.org/a00114.html
  24:Generated_Source\PSoC6\pdl\rtos\FreeRTOS\9.0.0\Source/queue.c **** 
  25:Generated_Source\PSoC6\pdl\rtos\FreeRTOS\9.0.0\Source/queue.c ****     ***************************************************************************
  26:Generated_Source\PSoC6\pdl\rtos\FreeRTOS\9.0.0\Source/queue.c ****      *                                                                       *
  27:Generated_Source\PSoC6\pdl\rtos\FreeRTOS\9.0.0\Source/queue.c ****      *    FreeRTOS provides completely free yet professionally developed,    *
  28:Generated_Source\PSoC6\pdl\rtos\FreeRTOS\9.0.0\Source/queue.c ****      *    robust, strictly quality controlled, supported, and cross          *
ARM GAS  C:\Users\ikomb\AppData\Local\Temp\cc9p1klJ.s 			page 2


  29:Generated_Source\PSoC6\pdl\rtos\FreeRTOS\9.0.0\Source/queue.c ****      *    platform software that is more than just the market leader, it     *
  30:Generated_Source\PSoC6\pdl\rtos\FreeRTOS\9.0.0\Source/queue.c ****      *    is the industry's de facto standard.                               *
  31:Generated_Source\PSoC6\pdl\rtos\FreeRTOS\9.0.0\Source/queue.c ****      *                                                                       *
  32:Generated_Source\PSoC6\pdl\rtos\FreeRTOS\9.0.0\Source/queue.c ****      *    Help yourself get started quickly while simultaneously helping     *
  33:Generated_Source\PSoC6\pdl\rtos\FreeRTOS\9.0.0\Source/queue.c ****      *    to support the FreeRTOS project by purchasing a FreeRTOS           *
  34:Generated_Source\PSoC6\pdl\rtos\FreeRTOS\9.0.0\Source/queue.c ****      *    tutorial book, reference manual, or both:                          *
  35:Generated_Source\PSoC6\pdl\rtos\FreeRTOS\9.0.0\Source/queue.c ****      *    http://www.FreeRTOS.org/Documentation                              *
  36:Generated_Source\PSoC6\pdl\rtos\FreeRTOS\9.0.0\Source/queue.c ****      *                                                                       *
  37:Generated_Source\PSoC6\pdl\rtos\FreeRTOS\9.0.0\Source/queue.c ****     ***************************************************************************
  38:Generated_Source\PSoC6\pdl\rtos\FreeRTOS\9.0.0\Source/queue.c **** 
  39:Generated_Source\PSoC6\pdl\rtos\FreeRTOS\9.0.0\Source/queue.c ****     http://www.FreeRTOS.org/FAQHelp.html - Having a problem?  Start by reading
  40:Generated_Source\PSoC6\pdl\rtos\FreeRTOS\9.0.0\Source/queue.c ****     the FAQ page "My application does not run, what could be wrong?".  Have you
  41:Generated_Source\PSoC6\pdl\rtos\FreeRTOS\9.0.0\Source/queue.c ****     defined configASSERT()?
  42:Generated_Source\PSoC6\pdl\rtos\FreeRTOS\9.0.0\Source/queue.c **** 
  43:Generated_Source\PSoC6\pdl\rtos\FreeRTOS\9.0.0\Source/queue.c ****     http://www.FreeRTOS.org/support - In return for receiving this top quality
  44:Generated_Source\PSoC6\pdl\rtos\FreeRTOS\9.0.0\Source/queue.c ****     embedded software for free we request you assist our global community by
  45:Generated_Source\PSoC6\pdl\rtos\FreeRTOS\9.0.0\Source/queue.c ****     participating in the support forum.
  46:Generated_Source\PSoC6\pdl\rtos\FreeRTOS\9.0.0\Source/queue.c **** 
  47:Generated_Source\PSoC6\pdl\rtos\FreeRTOS\9.0.0\Source/queue.c ****     http://www.FreeRTOS.org/training - Investing in training allows your team to
  48:Generated_Source\PSoC6\pdl\rtos\FreeRTOS\9.0.0\Source/queue.c ****     be as productive as possible as early as possible.  Now you can receive
  49:Generated_Source\PSoC6\pdl\rtos\FreeRTOS\9.0.0\Source/queue.c ****     FreeRTOS training directly from Richard Barry, CEO of Real Time Engineers
  50:Generated_Source\PSoC6\pdl\rtos\FreeRTOS\9.0.0\Source/queue.c ****     Ltd, and the world's leading authority on the world's leading RTOS.
  51:Generated_Source\PSoC6\pdl\rtos\FreeRTOS\9.0.0\Source/queue.c **** 
  52:Generated_Source\PSoC6\pdl\rtos\FreeRTOS\9.0.0\Source/queue.c ****     http://www.FreeRTOS.org/plus - A selection of FreeRTOS ecosystem products,
  53:Generated_Source\PSoC6\pdl\rtos\FreeRTOS\9.0.0\Source/queue.c ****     including FreeRTOS+Trace - an indispensable productivity tool, a DOS
  54:Generated_Source\PSoC6\pdl\rtos\FreeRTOS\9.0.0\Source/queue.c ****     compatible FAT file system, and our tiny thread aware UDP/IP stack.
  55:Generated_Source\PSoC6\pdl\rtos\FreeRTOS\9.0.0\Source/queue.c **** 
  56:Generated_Source\PSoC6\pdl\rtos\FreeRTOS\9.0.0\Source/queue.c ****     http://www.FreeRTOS.org/labs - Where new FreeRTOS products go to incubate.
  57:Generated_Source\PSoC6\pdl\rtos\FreeRTOS\9.0.0\Source/queue.c ****     Come and try FreeRTOS+TCP, our new open source TCP/IP stack for FreeRTOS.
  58:Generated_Source\PSoC6\pdl\rtos\FreeRTOS\9.0.0\Source/queue.c **** 
  59:Generated_Source\PSoC6\pdl\rtos\FreeRTOS\9.0.0\Source/queue.c ****     http://www.OpenRTOS.com - Real Time Engineers ltd. license FreeRTOS to High
  60:Generated_Source\PSoC6\pdl\rtos\FreeRTOS\9.0.0\Source/queue.c ****     Integrity Systems ltd. to sell under the OpenRTOS brand.  Low cost OpenRTOS
  61:Generated_Source\PSoC6\pdl\rtos\FreeRTOS\9.0.0\Source/queue.c ****     licenses offer ticketed support, indemnification and commercial middleware.
  62:Generated_Source\PSoC6\pdl\rtos\FreeRTOS\9.0.0\Source/queue.c **** 
  63:Generated_Source\PSoC6\pdl\rtos\FreeRTOS\9.0.0\Source/queue.c ****     http://www.SafeRTOS.com - High Integrity Systems also provide a safety
  64:Generated_Source\PSoC6\pdl\rtos\FreeRTOS\9.0.0\Source/queue.c ****     engineered and independently SIL3 certified version for use in safety and
  65:Generated_Source\PSoC6\pdl\rtos\FreeRTOS\9.0.0\Source/queue.c ****     mission critical applications that require provable dependability.
  66:Generated_Source\PSoC6\pdl\rtos\FreeRTOS\9.0.0\Source/queue.c **** 
  67:Generated_Source\PSoC6\pdl\rtos\FreeRTOS\9.0.0\Source/queue.c ****     1 tab == 4 spaces!
  68:Generated_Source\PSoC6\pdl\rtos\FreeRTOS\9.0.0\Source/queue.c **** */
  69:Generated_Source\PSoC6\pdl\rtos\FreeRTOS\9.0.0\Source/queue.c **** 
  70:Generated_Source\PSoC6\pdl\rtos\FreeRTOS\9.0.0\Source/queue.c **** #include <stdlib.h>
  71:Generated_Source\PSoC6\pdl\rtos\FreeRTOS\9.0.0\Source/queue.c **** #include <string.h>
  72:Generated_Source\PSoC6\pdl\rtos\FreeRTOS\9.0.0\Source/queue.c **** 
  73:Generated_Source\PSoC6\pdl\rtos\FreeRTOS\9.0.0\Source/queue.c **** /* Defining MPU_WRAPPERS_INCLUDED_FROM_API_FILE prevents task.h from redefining
  74:Generated_Source\PSoC6\pdl\rtos\FreeRTOS\9.0.0\Source/queue.c **** all the API functions to use the MPU wrappers.  That should only be done when
  75:Generated_Source\PSoC6\pdl\rtos\FreeRTOS\9.0.0\Source/queue.c **** task.h is included from an application file. */
  76:Generated_Source\PSoC6\pdl\rtos\FreeRTOS\9.0.0\Source/queue.c **** #define MPU_WRAPPERS_INCLUDED_FROM_API_FILE
  77:Generated_Source\PSoC6\pdl\rtos\FreeRTOS\9.0.0\Source/queue.c **** 
  78:Generated_Source\PSoC6\pdl\rtos\FreeRTOS\9.0.0\Source/queue.c **** #include "FreeRTOS.h"
  79:Generated_Source\PSoC6\pdl\rtos\FreeRTOS\9.0.0\Source/queue.c **** #include "task.h"
  80:Generated_Source\PSoC6\pdl\rtos\FreeRTOS\9.0.0\Source/queue.c **** #include "queue.h"
  81:Generated_Source\PSoC6\pdl\rtos\FreeRTOS\9.0.0\Source/queue.c **** 
  82:Generated_Source\PSoC6\pdl\rtos\FreeRTOS\9.0.0\Source/queue.c **** #if ( configUSE_CO_ROUTINES == 1 )
  83:Generated_Source\PSoC6\pdl\rtos\FreeRTOS\9.0.0\Source/queue.c **** 	#include "croutine.h"
  84:Generated_Source\PSoC6\pdl\rtos\FreeRTOS\9.0.0\Source/queue.c **** #endif
  85:Generated_Source\PSoC6\pdl\rtos\FreeRTOS\9.0.0\Source/queue.c **** 
ARM GAS  C:\Users\ikomb\AppData\Local\Temp\cc9p1klJ.s 			page 3


  86:Generated_Source\PSoC6\pdl\rtos\FreeRTOS\9.0.0\Source/queue.c **** /* Lint e961 and e750 are suppressed as a MISRA exception justified because the
  87:Generated_Source\PSoC6\pdl\rtos\FreeRTOS\9.0.0\Source/queue.c **** MPU ports require MPU_WRAPPERS_INCLUDED_FROM_API_FILE to be defined for the
  88:Generated_Source\PSoC6\pdl\rtos\FreeRTOS\9.0.0\Source/queue.c **** header files above, but not in this file, in order to generate the correct
  89:Generated_Source\PSoC6\pdl\rtos\FreeRTOS\9.0.0\Source/queue.c **** privileged Vs unprivileged linkage and placement. */
  90:Generated_Source\PSoC6\pdl\rtos\FreeRTOS\9.0.0\Source/queue.c **** #undef MPU_WRAPPERS_INCLUDED_FROM_API_FILE /*lint !e961 !e750. */
  91:Generated_Source\PSoC6\pdl\rtos\FreeRTOS\9.0.0\Source/queue.c **** 
  92:Generated_Source\PSoC6\pdl\rtos\FreeRTOS\9.0.0\Source/queue.c **** 
  93:Generated_Source\PSoC6\pdl\rtos\FreeRTOS\9.0.0\Source/queue.c **** /* Constants used with the cRxLock and cTxLock structure members. */
  94:Generated_Source\PSoC6\pdl\rtos\FreeRTOS\9.0.0\Source/queue.c **** #define queueUNLOCKED					( ( int8_t ) -1 )
  95:Generated_Source\PSoC6\pdl\rtos\FreeRTOS\9.0.0\Source/queue.c **** #define queueLOCKED_UNMODIFIED			( ( int8_t ) 0 )
  96:Generated_Source\PSoC6\pdl\rtos\FreeRTOS\9.0.0\Source/queue.c **** 
  97:Generated_Source\PSoC6\pdl\rtos\FreeRTOS\9.0.0\Source/queue.c **** /* When the Queue_t structure is used to represent a base queue its pcHead and
  98:Generated_Source\PSoC6\pdl\rtos\FreeRTOS\9.0.0\Source/queue.c **** pcTail members are used as pointers into the queue storage area.  When the
  99:Generated_Source\PSoC6\pdl\rtos\FreeRTOS\9.0.0\Source/queue.c **** Queue_t structure is used to represent a mutex pcHead and pcTail pointers are
 100:Generated_Source\PSoC6\pdl\rtos\FreeRTOS\9.0.0\Source/queue.c **** not necessary, and the pcHead pointer is set to NULL to indicate that the
 101:Generated_Source\PSoC6\pdl\rtos\FreeRTOS\9.0.0\Source/queue.c **** pcTail pointer actually points to the mutex holder (if any).  Map alternative
 102:Generated_Source\PSoC6\pdl\rtos\FreeRTOS\9.0.0\Source/queue.c **** names to the pcHead and pcTail structure members to ensure the readability of
 103:Generated_Source\PSoC6\pdl\rtos\FreeRTOS\9.0.0\Source/queue.c **** the code is maintained despite this dual use of two structure members.  An
 104:Generated_Source\PSoC6\pdl\rtos\FreeRTOS\9.0.0\Source/queue.c **** alternative implementation would be to use a union, but use of a union is
 105:Generated_Source\PSoC6\pdl\rtos\FreeRTOS\9.0.0\Source/queue.c **** against the coding standard (although an exception to the standard has been
 106:Generated_Source\PSoC6\pdl\rtos\FreeRTOS\9.0.0\Source/queue.c **** permitted where the dual use also significantly changes the type of the
 107:Generated_Source\PSoC6\pdl\rtos\FreeRTOS\9.0.0\Source/queue.c **** structure member). */
 108:Generated_Source\PSoC6\pdl\rtos\FreeRTOS\9.0.0\Source/queue.c **** #define pxMutexHolder					pcTail
 109:Generated_Source\PSoC6\pdl\rtos\FreeRTOS\9.0.0\Source/queue.c **** #define uxQueueType						pcHead
 110:Generated_Source\PSoC6\pdl\rtos\FreeRTOS\9.0.0\Source/queue.c **** #define queueQUEUE_IS_MUTEX				NULL
 111:Generated_Source\PSoC6\pdl\rtos\FreeRTOS\9.0.0\Source/queue.c **** 
 112:Generated_Source\PSoC6\pdl\rtos\FreeRTOS\9.0.0\Source/queue.c **** /* Semaphores do not actually store or copy data, so have an item size of
 113:Generated_Source\PSoC6\pdl\rtos\FreeRTOS\9.0.0\Source/queue.c **** zero. */
 114:Generated_Source\PSoC6\pdl\rtos\FreeRTOS\9.0.0\Source/queue.c **** #define queueSEMAPHORE_QUEUE_ITEM_LENGTH ( ( UBaseType_t ) 0 )
 115:Generated_Source\PSoC6\pdl\rtos\FreeRTOS\9.0.0\Source/queue.c **** #define queueMUTEX_GIVE_BLOCK_TIME		 ( ( TickType_t ) 0U )
 116:Generated_Source\PSoC6\pdl\rtos\FreeRTOS\9.0.0\Source/queue.c **** 
 117:Generated_Source\PSoC6\pdl\rtos\FreeRTOS\9.0.0\Source/queue.c **** #if( configUSE_PREEMPTION == 0 )
 118:Generated_Source\PSoC6\pdl\rtos\FreeRTOS\9.0.0\Source/queue.c **** 	/* If the cooperative scheduler is being used then a yield should not be
 119:Generated_Source\PSoC6\pdl\rtos\FreeRTOS\9.0.0\Source/queue.c **** 	performed just because a higher priority task has been woken. */
 120:Generated_Source\PSoC6\pdl\rtos\FreeRTOS\9.0.0\Source/queue.c **** 	#define queueYIELD_IF_USING_PREEMPTION()
 121:Generated_Source\PSoC6\pdl\rtos\FreeRTOS\9.0.0\Source/queue.c **** #else
 122:Generated_Source\PSoC6\pdl\rtos\FreeRTOS\9.0.0\Source/queue.c **** 	#define queueYIELD_IF_USING_PREEMPTION() portYIELD_WITHIN_API()
 123:Generated_Source\PSoC6\pdl\rtos\FreeRTOS\9.0.0\Source/queue.c **** #endif
 124:Generated_Source\PSoC6\pdl\rtos\FreeRTOS\9.0.0\Source/queue.c **** 
 125:Generated_Source\PSoC6\pdl\rtos\FreeRTOS\9.0.0\Source/queue.c **** /*
 126:Generated_Source\PSoC6\pdl\rtos\FreeRTOS\9.0.0\Source/queue.c ****  * Definition of the queue used by the scheduler.
 127:Generated_Source\PSoC6\pdl\rtos\FreeRTOS\9.0.0\Source/queue.c ****  * Items are queued by copy, not reference.  See the following link for the
 128:Generated_Source\PSoC6\pdl\rtos\FreeRTOS\9.0.0\Source/queue.c ****  * rationale: http://www.freertos.org/Embedded-RTOS-Queues.html
 129:Generated_Source\PSoC6\pdl\rtos\FreeRTOS\9.0.0\Source/queue.c ****  */
 130:Generated_Source\PSoC6\pdl\rtos\FreeRTOS\9.0.0\Source/queue.c **** typedef struct QueueDefinition
 131:Generated_Source\PSoC6\pdl\rtos\FreeRTOS\9.0.0\Source/queue.c **** {
 132:Generated_Source\PSoC6\pdl\rtos\FreeRTOS\9.0.0\Source/queue.c **** 	int8_t *pcHead;					/*< Points to the beginning of the queue storage area. */
 133:Generated_Source\PSoC6\pdl\rtos\FreeRTOS\9.0.0\Source/queue.c **** 	int8_t *pcTail;					/*< Points to the byte at the end of the queue storage area.  Once more byte i
 134:Generated_Source\PSoC6\pdl\rtos\FreeRTOS\9.0.0\Source/queue.c **** 	int8_t *pcWriteTo;				/*< Points to the free next place in the storage area. */
 135:Generated_Source\PSoC6\pdl\rtos\FreeRTOS\9.0.0\Source/queue.c **** 
 136:Generated_Source\PSoC6\pdl\rtos\FreeRTOS\9.0.0\Source/queue.c **** 	union							/* Use of a union is an exception to the coding standard to ensure two mutually exclus
 137:Generated_Source\PSoC6\pdl\rtos\FreeRTOS\9.0.0\Source/queue.c **** 	{
 138:Generated_Source\PSoC6\pdl\rtos\FreeRTOS\9.0.0\Source/queue.c **** 		int8_t *pcReadFrom;			/*< Points to the last place that a queued item was read from when the stru
 139:Generated_Source\PSoC6\pdl\rtos\FreeRTOS\9.0.0\Source/queue.c **** 		UBaseType_t uxRecursiveCallCount;/*< Maintains a count of the number of times a recursive mutex h
 140:Generated_Source\PSoC6\pdl\rtos\FreeRTOS\9.0.0\Source/queue.c **** 	} u;
 141:Generated_Source\PSoC6\pdl\rtos\FreeRTOS\9.0.0\Source/queue.c **** 
 142:Generated_Source\PSoC6\pdl\rtos\FreeRTOS\9.0.0\Source/queue.c **** 	List_t xTasksWaitingToSend;		/*< List of tasks that are blocked waiting to post onto this queue.  
ARM GAS  C:\Users\ikomb\AppData\Local\Temp\cc9p1klJ.s 			page 4


 143:Generated_Source\PSoC6\pdl\rtos\FreeRTOS\9.0.0\Source/queue.c **** 	List_t xTasksWaitingToReceive;	/*< List of tasks that are blocked waiting to read from this queue.
 144:Generated_Source\PSoC6\pdl\rtos\FreeRTOS\9.0.0\Source/queue.c **** 
 145:Generated_Source\PSoC6\pdl\rtos\FreeRTOS\9.0.0\Source/queue.c **** 	volatile UBaseType_t uxMessagesWaiting;/*< The number of items currently in the queue. */
 146:Generated_Source\PSoC6\pdl\rtos\FreeRTOS\9.0.0\Source/queue.c **** 	UBaseType_t uxLength;			/*< The length of the queue defined as the number of items it will hold, n
 147:Generated_Source\PSoC6\pdl\rtos\FreeRTOS\9.0.0\Source/queue.c **** 	UBaseType_t uxItemSize;			/*< The size of each items that the queue will hold. */
 148:Generated_Source\PSoC6\pdl\rtos\FreeRTOS\9.0.0\Source/queue.c **** 
 149:Generated_Source\PSoC6\pdl\rtos\FreeRTOS\9.0.0\Source/queue.c **** 	volatile int8_t cRxLock;		/*< Stores the number of items received from the queue (removed from the
 150:Generated_Source\PSoC6\pdl\rtos\FreeRTOS\9.0.0\Source/queue.c **** 	volatile int8_t cTxLock;		/*< Stores the number of items transmitted to the queue (added to the qu
 151:Generated_Source\PSoC6\pdl\rtos\FreeRTOS\9.0.0\Source/queue.c **** 
 152:Generated_Source\PSoC6\pdl\rtos\FreeRTOS\9.0.0\Source/queue.c **** 	#if( ( configSUPPORT_STATIC_ALLOCATION == 1 ) && ( configSUPPORT_DYNAMIC_ALLOCATION == 1 ) )
 153:Generated_Source\PSoC6\pdl\rtos\FreeRTOS\9.0.0\Source/queue.c **** 		uint8_t ucStaticallyAllocated;	/*< Set to pdTRUE if the memory used by the queue was statically a
 154:Generated_Source\PSoC6\pdl\rtos\FreeRTOS\9.0.0\Source/queue.c **** 	#endif
 155:Generated_Source\PSoC6\pdl\rtos\FreeRTOS\9.0.0\Source/queue.c **** 
 156:Generated_Source\PSoC6\pdl\rtos\FreeRTOS\9.0.0\Source/queue.c **** 	#if ( configUSE_QUEUE_SETS == 1 )
 157:Generated_Source\PSoC6\pdl\rtos\FreeRTOS\9.0.0\Source/queue.c **** 		struct QueueDefinition *pxQueueSetContainer;
 158:Generated_Source\PSoC6\pdl\rtos\FreeRTOS\9.0.0\Source/queue.c **** 	#endif
 159:Generated_Source\PSoC6\pdl\rtos\FreeRTOS\9.0.0\Source/queue.c **** 
 160:Generated_Source\PSoC6\pdl\rtos\FreeRTOS\9.0.0\Source/queue.c **** 	#if ( configUSE_TRACE_FACILITY == 1 )
 161:Generated_Source\PSoC6\pdl\rtos\FreeRTOS\9.0.0\Source/queue.c **** 		UBaseType_t uxQueueNumber;
 162:Generated_Source\PSoC6\pdl\rtos\FreeRTOS\9.0.0\Source/queue.c **** 		uint8_t ucQueueType;
 163:Generated_Source\PSoC6\pdl\rtos\FreeRTOS\9.0.0\Source/queue.c **** 	#endif
 164:Generated_Source\PSoC6\pdl\rtos\FreeRTOS\9.0.0\Source/queue.c **** 
 165:Generated_Source\PSoC6\pdl\rtos\FreeRTOS\9.0.0\Source/queue.c **** } xQUEUE;
 166:Generated_Source\PSoC6\pdl\rtos\FreeRTOS\9.0.0\Source/queue.c **** 
 167:Generated_Source\PSoC6\pdl\rtos\FreeRTOS\9.0.0\Source/queue.c **** /* The old xQUEUE name is maintained above then typedefed to the new Queue_t
 168:Generated_Source\PSoC6\pdl\rtos\FreeRTOS\9.0.0\Source/queue.c **** name below to enable the use of older kernel aware debuggers. */
 169:Generated_Source\PSoC6\pdl\rtos\FreeRTOS\9.0.0\Source/queue.c **** typedef xQUEUE Queue_t;
 170:Generated_Source\PSoC6\pdl\rtos\FreeRTOS\9.0.0\Source/queue.c **** 
 171:Generated_Source\PSoC6\pdl\rtos\FreeRTOS\9.0.0\Source/queue.c **** /*-----------------------------------------------------------*/
 172:Generated_Source\PSoC6\pdl\rtos\FreeRTOS\9.0.0\Source/queue.c **** 
 173:Generated_Source\PSoC6\pdl\rtos\FreeRTOS\9.0.0\Source/queue.c **** /*
 174:Generated_Source\PSoC6\pdl\rtos\FreeRTOS\9.0.0\Source/queue.c ****  * The queue registry is just a means for kernel aware debuggers to locate
 175:Generated_Source\PSoC6\pdl\rtos\FreeRTOS\9.0.0\Source/queue.c ****  * queue structures.  It has no other purpose so is an optional component.
 176:Generated_Source\PSoC6\pdl\rtos\FreeRTOS\9.0.0\Source/queue.c ****  */
 177:Generated_Source\PSoC6\pdl\rtos\FreeRTOS\9.0.0\Source/queue.c **** #if ( configQUEUE_REGISTRY_SIZE > 0 )
 178:Generated_Source\PSoC6\pdl\rtos\FreeRTOS\9.0.0\Source/queue.c **** 
 179:Generated_Source\PSoC6\pdl\rtos\FreeRTOS\9.0.0\Source/queue.c **** 	/* The type stored within the queue registry array.  This allows a name
 180:Generated_Source\PSoC6\pdl\rtos\FreeRTOS\9.0.0\Source/queue.c **** 	to be assigned to each queue making kernel aware debugging a little
 181:Generated_Source\PSoC6\pdl\rtos\FreeRTOS\9.0.0\Source/queue.c **** 	more user friendly. */
 182:Generated_Source\PSoC6\pdl\rtos\FreeRTOS\9.0.0\Source/queue.c **** 	typedef struct QUEUE_REGISTRY_ITEM
 183:Generated_Source\PSoC6\pdl\rtos\FreeRTOS\9.0.0\Source/queue.c **** 	{
 184:Generated_Source\PSoC6\pdl\rtos\FreeRTOS\9.0.0\Source/queue.c **** 		const char *pcQueueName; /*lint !e971 Unqualified char types are allowed for strings and single c
 185:Generated_Source\PSoC6\pdl\rtos\FreeRTOS\9.0.0\Source/queue.c **** 		QueueHandle_t xHandle;
 186:Generated_Source\PSoC6\pdl\rtos\FreeRTOS\9.0.0\Source/queue.c **** 	} xQueueRegistryItem;
 187:Generated_Source\PSoC6\pdl\rtos\FreeRTOS\9.0.0\Source/queue.c **** 
 188:Generated_Source\PSoC6\pdl\rtos\FreeRTOS\9.0.0\Source/queue.c **** 	/* The old xQueueRegistryItem name is maintained above then typedefed to the
 189:Generated_Source\PSoC6\pdl\rtos\FreeRTOS\9.0.0\Source/queue.c **** 	new xQueueRegistryItem name below to enable the use of older kernel aware
 190:Generated_Source\PSoC6\pdl\rtos\FreeRTOS\9.0.0\Source/queue.c **** 	debuggers. */
 191:Generated_Source\PSoC6\pdl\rtos\FreeRTOS\9.0.0\Source/queue.c **** 	typedef xQueueRegistryItem QueueRegistryItem_t;
 192:Generated_Source\PSoC6\pdl\rtos\FreeRTOS\9.0.0\Source/queue.c **** 
 193:Generated_Source\PSoC6\pdl\rtos\FreeRTOS\9.0.0\Source/queue.c **** 	/* The queue registry is simply an array of QueueRegistryItem_t structures.
 194:Generated_Source\PSoC6\pdl\rtos\FreeRTOS\9.0.0\Source/queue.c **** 	The pcQueueName member of a structure being NULL is indicative of the
 195:Generated_Source\PSoC6\pdl\rtos\FreeRTOS\9.0.0\Source/queue.c **** 	array position being vacant. */
 196:Generated_Source\PSoC6\pdl\rtos\FreeRTOS\9.0.0\Source/queue.c **** 	PRIVILEGED_DATA QueueRegistryItem_t xQueueRegistry[ configQUEUE_REGISTRY_SIZE ];
 197:Generated_Source\PSoC6\pdl\rtos\FreeRTOS\9.0.0\Source/queue.c **** 
 198:Generated_Source\PSoC6\pdl\rtos\FreeRTOS\9.0.0\Source/queue.c **** #endif /* configQUEUE_REGISTRY_SIZE */
 199:Generated_Source\PSoC6\pdl\rtos\FreeRTOS\9.0.0\Source/queue.c **** 
ARM GAS  C:\Users\ikomb\AppData\Local\Temp\cc9p1klJ.s 			page 5


 200:Generated_Source\PSoC6\pdl\rtos\FreeRTOS\9.0.0\Source/queue.c **** /*
 201:Generated_Source\PSoC6\pdl\rtos\FreeRTOS\9.0.0\Source/queue.c ****  * Unlocks a queue locked by a call to prvLockQueue.  Locking a queue does not
 202:Generated_Source\PSoC6\pdl\rtos\FreeRTOS\9.0.0\Source/queue.c ****  * prevent an ISR from adding or removing items to the queue, but does prevent
 203:Generated_Source\PSoC6\pdl\rtos\FreeRTOS\9.0.0\Source/queue.c ****  * an ISR from removing tasks from the queue event lists.  If an ISR finds a
 204:Generated_Source\PSoC6\pdl\rtos\FreeRTOS\9.0.0\Source/queue.c ****  * queue is locked it will instead increment the appropriate queue lock count
 205:Generated_Source\PSoC6\pdl\rtos\FreeRTOS\9.0.0\Source/queue.c ****  * to indicate that a task may require unblocking.  When the queue in unlocked
 206:Generated_Source\PSoC6\pdl\rtos\FreeRTOS\9.0.0\Source/queue.c ****  * these lock counts are inspected, and the appropriate action taken.
 207:Generated_Source\PSoC6\pdl\rtos\FreeRTOS\9.0.0\Source/queue.c ****  */
 208:Generated_Source\PSoC6\pdl\rtos\FreeRTOS\9.0.0\Source/queue.c **** static void prvUnlockQueue( Queue_t * const pxQueue ) PRIVILEGED_FUNCTION;
 209:Generated_Source\PSoC6\pdl\rtos\FreeRTOS\9.0.0\Source/queue.c **** 
 210:Generated_Source\PSoC6\pdl\rtos\FreeRTOS\9.0.0\Source/queue.c **** /*
 211:Generated_Source\PSoC6\pdl\rtos\FreeRTOS\9.0.0\Source/queue.c ****  * Uses a critical section to determine if there is any data in a queue.
 212:Generated_Source\PSoC6\pdl\rtos\FreeRTOS\9.0.0\Source/queue.c ****  *
 213:Generated_Source\PSoC6\pdl\rtos\FreeRTOS\9.0.0\Source/queue.c ****  * @return pdTRUE if the queue contains no items, otherwise pdFALSE.
 214:Generated_Source\PSoC6\pdl\rtos\FreeRTOS\9.0.0\Source/queue.c ****  */
 215:Generated_Source\PSoC6\pdl\rtos\FreeRTOS\9.0.0\Source/queue.c **** static BaseType_t prvIsQueueEmpty( const Queue_t *pxQueue ) PRIVILEGED_FUNCTION;
 216:Generated_Source\PSoC6\pdl\rtos\FreeRTOS\9.0.0\Source/queue.c **** 
 217:Generated_Source\PSoC6\pdl\rtos\FreeRTOS\9.0.0\Source/queue.c **** /*
 218:Generated_Source\PSoC6\pdl\rtos\FreeRTOS\9.0.0\Source/queue.c ****  * Uses a critical section to determine if there is any space in a queue.
 219:Generated_Source\PSoC6\pdl\rtos\FreeRTOS\9.0.0\Source/queue.c ****  *
 220:Generated_Source\PSoC6\pdl\rtos\FreeRTOS\9.0.0\Source/queue.c ****  * @return pdTRUE if there is no space, otherwise pdFALSE;
 221:Generated_Source\PSoC6\pdl\rtos\FreeRTOS\9.0.0\Source/queue.c ****  */
 222:Generated_Source\PSoC6\pdl\rtos\FreeRTOS\9.0.0\Source/queue.c **** static BaseType_t prvIsQueueFull( const Queue_t *pxQueue ) PRIVILEGED_FUNCTION;
 223:Generated_Source\PSoC6\pdl\rtos\FreeRTOS\9.0.0\Source/queue.c **** 
 224:Generated_Source\PSoC6\pdl\rtos\FreeRTOS\9.0.0\Source/queue.c **** /*
 225:Generated_Source\PSoC6\pdl\rtos\FreeRTOS\9.0.0\Source/queue.c ****  * Copies an item into the queue, either at the front of the queue or the
 226:Generated_Source\PSoC6\pdl\rtos\FreeRTOS\9.0.0\Source/queue.c ****  * back of the queue.
 227:Generated_Source\PSoC6\pdl\rtos\FreeRTOS\9.0.0\Source/queue.c ****  */
 228:Generated_Source\PSoC6\pdl\rtos\FreeRTOS\9.0.0\Source/queue.c **** static BaseType_t prvCopyDataToQueue( Queue_t * const pxQueue, const void *pvItemToQueue, const Bas
 229:Generated_Source\PSoC6\pdl\rtos\FreeRTOS\9.0.0\Source/queue.c **** 
 230:Generated_Source\PSoC6\pdl\rtos\FreeRTOS\9.0.0\Source/queue.c **** /*
 231:Generated_Source\PSoC6\pdl\rtos\FreeRTOS\9.0.0\Source/queue.c ****  * Copies an item out of a queue.
 232:Generated_Source\PSoC6\pdl\rtos\FreeRTOS\9.0.0\Source/queue.c ****  */
 233:Generated_Source\PSoC6\pdl\rtos\FreeRTOS\9.0.0\Source/queue.c **** static void prvCopyDataFromQueue( Queue_t * const pxQueue, void * const pvBuffer ) PRIVILEGED_FUNCT
 234:Generated_Source\PSoC6\pdl\rtos\FreeRTOS\9.0.0\Source/queue.c **** 
 235:Generated_Source\PSoC6\pdl\rtos\FreeRTOS\9.0.0\Source/queue.c **** #if ( configUSE_QUEUE_SETS == 1 )
 236:Generated_Source\PSoC6\pdl\rtos\FreeRTOS\9.0.0\Source/queue.c **** 	/*
 237:Generated_Source\PSoC6\pdl\rtos\FreeRTOS\9.0.0\Source/queue.c **** 	 * Checks to see if a queue is a member of a queue set, and if so, notifies
 238:Generated_Source\PSoC6\pdl\rtos\FreeRTOS\9.0.0\Source/queue.c **** 	 * the queue set that the queue contains data.
 239:Generated_Source\PSoC6\pdl\rtos\FreeRTOS\9.0.0\Source/queue.c **** 	 */
 240:Generated_Source\PSoC6\pdl\rtos\FreeRTOS\9.0.0\Source/queue.c **** 	static BaseType_t prvNotifyQueueSetContainer( const Queue_t * const pxQueue, const BaseType_t xCop
 241:Generated_Source\PSoC6\pdl\rtos\FreeRTOS\9.0.0\Source/queue.c **** #endif
 242:Generated_Source\PSoC6\pdl\rtos\FreeRTOS\9.0.0\Source/queue.c **** 
 243:Generated_Source\PSoC6\pdl\rtos\FreeRTOS\9.0.0\Source/queue.c **** /*
 244:Generated_Source\PSoC6\pdl\rtos\FreeRTOS\9.0.0\Source/queue.c ****  * Called after a Queue_t structure has been allocated either statically or
 245:Generated_Source\PSoC6\pdl\rtos\FreeRTOS\9.0.0\Source/queue.c ****  * dynamically to fill in the structure's members.
 246:Generated_Source\PSoC6\pdl\rtos\FreeRTOS\9.0.0\Source/queue.c ****  */
 247:Generated_Source\PSoC6\pdl\rtos\FreeRTOS\9.0.0\Source/queue.c **** static void prvInitialiseNewQueue( const UBaseType_t uxQueueLength, const UBaseType_t uxItemSize, u
 248:Generated_Source\PSoC6\pdl\rtos\FreeRTOS\9.0.0\Source/queue.c **** 
 249:Generated_Source\PSoC6\pdl\rtos\FreeRTOS\9.0.0\Source/queue.c **** /*
 250:Generated_Source\PSoC6\pdl\rtos\FreeRTOS\9.0.0\Source/queue.c ****  * Mutexes are a special type of queue.  When a mutex is created, first the
 251:Generated_Source\PSoC6\pdl\rtos\FreeRTOS\9.0.0\Source/queue.c ****  * queue is created, then prvInitialiseMutex() is called to configure the queue
 252:Generated_Source\PSoC6\pdl\rtos\FreeRTOS\9.0.0\Source/queue.c ****  * as a mutex.
 253:Generated_Source\PSoC6\pdl\rtos\FreeRTOS\9.0.0\Source/queue.c ****  */
 254:Generated_Source\PSoC6\pdl\rtos\FreeRTOS\9.0.0\Source/queue.c **** #if( configUSE_MUTEXES == 1 )
 255:Generated_Source\PSoC6\pdl\rtos\FreeRTOS\9.0.0\Source/queue.c **** 	static void prvInitialiseMutex( Queue_t *pxNewQueue ) PRIVILEGED_FUNCTION;
 256:Generated_Source\PSoC6\pdl\rtos\FreeRTOS\9.0.0\Source/queue.c **** #endif
ARM GAS  C:\Users\ikomb\AppData\Local\Temp\cc9p1klJ.s 			page 6


 257:Generated_Source\PSoC6\pdl\rtos\FreeRTOS\9.0.0\Source/queue.c **** 
 258:Generated_Source\PSoC6\pdl\rtos\FreeRTOS\9.0.0\Source/queue.c **** /*-----------------------------------------------------------*/
 259:Generated_Source\PSoC6\pdl\rtos\FreeRTOS\9.0.0\Source/queue.c **** 
 260:Generated_Source\PSoC6\pdl\rtos\FreeRTOS\9.0.0\Source/queue.c **** /*
 261:Generated_Source\PSoC6\pdl\rtos\FreeRTOS\9.0.0\Source/queue.c ****  * Macro to mark a queue as locked.  Locking a queue prevents an ISR from
 262:Generated_Source\PSoC6\pdl\rtos\FreeRTOS\9.0.0\Source/queue.c ****  * accessing the queue event lists.
 263:Generated_Source\PSoC6\pdl\rtos\FreeRTOS\9.0.0\Source/queue.c ****  */
 264:Generated_Source\PSoC6\pdl\rtos\FreeRTOS\9.0.0\Source/queue.c **** #define prvLockQueue( pxQueue )								\
 265:Generated_Source\PSoC6\pdl\rtos\FreeRTOS\9.0.0\Source/queue.c **** 	taskENTER_CRITICAL();									\
 266:Generated_Source\PSoC6\pdl\rtos\FreeRTOS\9.0.0\Source/queue.c **** 	{														\
 267:Generated_Source\PSoC6\pdl\rtos\FreeRTOS\9.0.0\Source/queue.c **** 		if( ( pxQueue )->cRxLock == queueUNLOCKED )			\
 268:Generated_Source\PSoC6\pdl\rtos\FreeRTOS\9.0.0\Source/queue.c **** 		{													\
 269:Generated_Source\PSoC6\pdl\rtos\FreeRTOS\9.0.0\Source/queue.c **** 			( pxQueue )->cRxLock = queueLOCKED_UNMODIFIED;	\
 270:Generated_Source\PSoC6\pdl\rtos\FreeRTOS\9.0.0\Source/queue.c **** 		}													\
 271:Generated_Source\PSoC6\pdl\rtos\FreeRTOS\9.0.0\Source/queue.c **** 		if( ( pxQueue )->cTxLock == queueUNLOCKED )			\
 272:Generated_Source\PSoC6\pdl\rtos\FreeRTOS\9.0.0\Source/queue.c **** 		{													\
 273:Generated_Source\PSoC6\pdl\rtos\FreeRTOS\9.0.0\Source/queue.c **** 			( pxQueue )->cTxLock = queueLOCKED_UNMODIFIED;	\
 274:Generated_Source\PSoC6\pdl\rtos\FreeRTOS\9.0.0\Source/queue.c **** 		}													\
 275:Generated_Source\PSoC6\pdl\rtos\FreeRTOS\9.0.0\Source/queue.c **** 	}														\
 276:Generated_Source\PSoC6\pdl\rtos\FreeRTOS\9.0.0\Source/queue.c **** 	taskEXIT_CRITICAL()
 277:Generated_Source\PSoC6\pdl\rtos\FreeRTOS\9.0.0\Source/queue.c **** /*-----------------------------------------------------------*/
 278:Generated_Source\PSoC6\pdl\rtos\FreeRTOS\9.0.0\Source/queue.c **** 
 279:Generated_Source\PSoC6\pdl\rtos\FreeRTOS\9.0.0\Source/queue.c **** BaseType_t xQueueGenericReset( QueueHandle_t xQueue, BaseType_t xNewQueue )
 280:Generated_Source\PSoC6\pdl\rtos\FreeRTOS\9.0.0\Source/queue.c **** {
  30              		.loc 1 280 0
  31              		.cfi_startproc
  32              		@ args = 0, pretend = 0, frame = 16
  33              		@ frame_needed = 1, uses_anonymous_args = 0
  34 0000 80B5     		push	{r7, lr}
  35              		.cfi_def_cfa_offset 8
  36              		.cfi_offset 7, -8
  37              		.cfi_offset 14, -4
  38 0002 84B0     		sub	sp, sp, #16
  39              		.cfi_def_cfa_offset 24
  40 0004 00AF     		add	r7, sp, #0
  41              		.cfi_def_cfa_register 7
  42 0006 7860     		str	r0, [r7, #4]
  43 0008 3960     		str	r1, [r7]
 281:Generated_Source\PSoC6\pdl\rtos\FreeRTOS\9.0.0\Source/queue.c **** Queue_t * const pxQueue = ( Queue_t * ) xQueue;
  44              		.loc 1 281 0
  45 000a 7B68     		ldr	r3, [r7, #4]
  46 000c FB60     		str	r3, [r7, #12]
 282:Generated_Source\PSoC6\pdl\rtos\FreeRTOS\9.0.0\Source/queue.c **** 
 283:Generated_Source\PSoC6\pdl\rtos\FreeRTOS\9.0.0\Source/queue.c **** 	configASSERT( pxQueue );
  47              		.loc 1 283 0
  48 000e FB68     		ldr	r3, [r7, #12]
  49 0010 002B     		cmp	r3, #0
  50 0012 01D1     		bne	.L2
  51              		.loc 1 283 0 is_stmt 0 discriminator 1
  52              		.syntax unified
  53              	@ 283 "Generated_Source\PSoC6\pdl\rtos\FreeRTOS\9.0.0\Source\queue.c" 1
  54 0014 72B6     		 cpsid i 
  55              	@ 0 "" 2
  56              		.thumb
  57              		.syntax unified
  58              	.L3:
  59 0016 FEE7     		b	.L3
ARM GAS  C:\Users\ikomb\AppData\Local\Temp\cc9p1klJ.s 			page 7


  60              	.L2:
 284:Generated_Source\PSoC6\pdl\rtos\FreeRTOS\9.0.0\Source/queue.c **** 
 285:Generated_Source\PSoC6\pdl\rtos\FreeRTOS\9.0.0\Source/queue.c **** 	taskENTER_CRITICAL();
  61              		.loc 1 285 0 is_stmt 1
  62 0018 FFF7FEFF 		bl	vPortEnterCritical
 286:Generated_Source\PSoC6\pdl\rtos\FreeRTOS\9.0.0\Source/queue.c **** 	{
 287:Generated_Source\PSoC6\pdl\rtos\FreeRTOS\9.0.0\Source/queue.c **** 		pxQueue->pcTail = pxQueue->pcHead + ( pxQueue->uxLength * pxQueue->uxItemSize );
  63              		.loc 1 287 0
  64 001c FB68     		ldr	r3, [r7, #12]
  65 001e 1A68     		ldr	r2, [r3]
  66 0020 FB68     		ldr	r3, [r7, #12]
  67 0022 DB6B     		ldr	r3, [r3, #60]
  68 0024 F968     		ldr	r1, [r7, #12]
  69 0026 096C     		ldr	r1, [r1, #64]
  70 0028 01FB03F3 		mul	r3, r1, r3
  71 002c 1A44     		add	r2, r2, r3
  72 002e FB68     		ldr	r3, [r7, #12]
  73 0030 5A60     		str	r2, [r3, #4]
 288:Generated_Source\PSoC6\pdl\rtos\FreeRTOS\9.0.0\Source/queue.c **** 		pxQueue->uxMessagesWaiting = ( UBaseType_t ) 0U;
  74              		.loc 1 288 0
  75 0032 FB68     		ldr	r3, [r7, #12]
  76 0034 0022     		movs	r2, #0
  77 0036 9A63     		str	r2, [r3, #56]
 289:Generated_Source\PSoC6\pdl\rtos\FreeRTOS\9.0.0\Source/queue.c **** 		pxQueue->pcWriteTo = pxQueue->pcHead;
  78              		.loc 1 289 0
  79 0038 FB68     		ldr	r3, [r7, #12]
  80 003a 1A68     		ldr	r2, [r3]
  81 003c FB68     		ldr	r3, [r7, #12]
  82 003e 9A60     		str	r2, [r3, #8]
 290:Generated_Source\PSoC6\pdl\rtos\FreeRTOS\9.0.0\Source/queue.c **** 		pxQueue->u.pcReadFrom = pxQueue->pcHead + ( ( pxQueue->uxLength - ( UBaseType_t ) 1U ) * pxQueue-
  83              		.loc 1 290 0
  84 0040 FB68     		ldr	r3, [r7, #12]
  85 0042 1A68     		ldr	r2, [r3]
  86 0044 FB68     		ldr	r3, [r7, #12]
  87 0046 DB6B     		ldr	r3, [r3, #60]
  88 0048 013B     		subs	r3, r3, #1
  89 004a F968     		ldr	r1, [r7, #12]
  90 004c 096C     		ldr	r1, [r1, #64]
  91 004e 01FB03F3 		mul	r3, r1, r3
  92 0052 1A44     		add	r2, r2, r3
  93 0054 FB68     		ldr	r3, [r7, #12]
  94 0056 DA60     		str	r2, [r3, #12]
 291:Generated_Source\PSoC6\pdl\rtos\FreeRTOS\9.0.0\Source/queue.c **** 		pxQueue->cRxLock = queueUNLOCKED;
  95              		.loc 1 291 0
  96 0058 FB68     		ldr	r3, [r7, #12]
  97 005a FF22     		movs	r2, #255
  98 005c 83F84420 		strb	r2, [r3, #68]
 292:Generated_Source\PSoC6\pdl\rtos\FreeRTOS\9.0.0\Source/queue.c **** 		pxQueue->cTxLock = queueUNLOCKED;
  99              		.loc 1 292 0
 100 0060 FB68     		ldr	r3, [r7, #12]
 101 0062 FF22     		movs	r2, #255
 102 0064 83F84520 		strb	r2, [r3, #69]
 293:Generated_Source\PSoC6\pdl\rtos\FreeRTOS\9.0.0\Source/queue.c **** 
 294:Generated_Source\PSoC6\pdl\rtos\FreeRTOS\9.0.0\Source/queue.c **** 		if( xNewQueue == pdFALSE )
 103              		.loc 1 294 0
 104 0068 3B68     		ldr	r3, [r7]
 105 006a 002B     		cmp	r3, #0
ARM GAS  C:\Users\ikomb\AppData\Local\Temp\cc9p1klJ.s 			page 8


 106 006c 14D1     		bne	.L4
 295:Generated_Source\PSoC6\pdl\rtos\FreeRTOS\9.0.0\Source/queue.c **** 		{
 296:Generated_Source\PSoC6\pdl\rtos\FreeRTOS\9.0.0\Source/queue.c **** 			/* If there are tasks blocked waiting to read from the queue, then
 297:Generated_Source\PSoC6\pdl\rtos\FreeRTOS\9.0.0\Source/queue.c **** 			the tasks will remain blocked as after this function exits the queue
 298:Generated_Source\PSoC6\pdl\rtos\FreeRTOS\9.0.0\Source/queue.c **** 			will still be empty.  If there are tasks blocked waiting to write to
 299:Generated_Source\PSoC6\pdl\rtos\FreeRTOS\9.0.0\Source/queue.c **** 			the queue, then one should be unblocked as after this function exits
 300:Generated_Source\PSoC6\pdl\rtos\FreeRTOS\9.0.0\Source/queue.c **** 			it will be possible to write to it. */
 301:Generated_Source\PSoC6\pdl\rtos\FreeRTOS\9.0.0\Source/queue.c **** 			if( listLIST_IS_EMPTY( &( pxQueue->xTasksWaitingToSend ) ) == pdFALSE )
 107              		.loc 1 301 0
 108 006e FB68     		ldr	r3, [r7, #12]
 109 0070 1B69     		ldr	r3, [r3, #16]
 110 0072 002B     		cmp	r3, #0
 111 0074 1AD0     		beq	.L5
 302:Generated_Source\PSoC6\pdl\rtos\FreeRTOS\9.0.0\Source/queue.c **** 			{
 303:Generated_Source\PSoC6\pdl\rtos\FreeRTOS\9.0.0\Source/queue.c **** 				if( xTaskRemoveFromEventList( &( pxQueue->xTasksWaitingToSend ) ) != pdFALSE )
 112              		.loc 1 303 0
 113 0076 FB68     		ldr	r3, [r7, #12]
 114 0078 1033     		adds	r3, r3, #16
 115 007a 1846     		mov	r0, r3
 116 007c FFF7FEFF 		bl	xTaskRemoveFromEventList
 117 0080 0346     		mov	r3, r0
 118 0082 002B     		cmp	r3, #0
 119 0084 12D0     		beq	.L5
 304:Generated_Source\PSoC6\pdl\rtos\FreeRTOS\9.0.0\Source/queue.c **** 				{
 305:Generated_Source\PSoC6\pdl\rtos\FreeRTOS\9.0.0\Source/queue.c **** 					queueYIELD_IF_USING_PREEMPTION();
 120              		.loc 1 305 0
 121 0086 0D4B     		ldr	r3, .L7
 122 0088 4FF08052 		mov	r2, #268435456
 123 008c 1A60     		str	r2, [r3]
 124              		.syntax unified
 125              	@ 305 "Generated_Source\PSoC6\pdl\rtos\FreeRTOS\9.0.0\Source\queue.c" 1
 126 008e BFF34F8F 		dsb
 127              	@ 0 "" 2
 128              	@ 305 "Generated_Source\PSoC6\pdl\rtos\FreeRTOS\9.0.0\Source\queue.c" 1
 129 0092 BFF36F8F 		isb
 130              	@ 0 "" 2
 131              		.thumb
 132              		.syntax unified
 133 0096 09E0     		b	.L5
 134              	.L4:
 306:Generated_Source\PSoC6\pdl\rtos\FreeRTOS\9.0.0\Source/queue.c **** 				}
 307:Generated_Source\PSoC6\pdl\rtos\FreeRTOS\9.0.0\Source/queue.c **** 				else
 308:Generated_Source\PSoC6\pdl\rtos\FreeRTOS\9.0.0\Source/queue.c **** 				{
 309:Generated_Source\PSoC6\pdl\rtos\FreeRTOS\9.0.0\Source/queue.c **** 					mtCOVERAGE_TEST_MARKER();
 310:Generated_Source\PSoC6\pdl\rtos\FreeRTOS\9.0.0\Source/queue.c **** 				}
 311:Generated_Source\PSoC6\pdl\rtos\FreeRTOS\9.0.0\Source/queue.c **** 			}
 312:Generated_Source\PSoC6\pdl\rtos\FreeRTOS\9.0.0\Source/queue.c **** 			else
 313:Generated_Source\PSoC6\pdl\rtos\FreeRTOS\9.0.0\Source/queue.c **** 			{
 314:Generated_Source\PSoC6\pdl\rtos\FreeRTOS\9.0.0\Source/queue.c **** 				mtCOVERAGE_TEST_MARKER();
 315:Generated_Source\PSoC6\pdl\rtos\FreeRTOS\9.0.0\Source/queue.c **** 			}
 316:Generated_Source\PSoC6\pdl\rtos\FreeRTOS\9.0.0\Source/queue.c **** 		}
 317:Generated_Source\PSoC6\pdl\rtos\FreeRTOS\9.0.0\Source/queue.c **** 		else
 318:Generated_Source\PSoC6\pdl\rtos\FreeRTOS\9.0.0\Source/queue.c **** 		{
 319:Generated_Source\PSoC6\pdl\rtos\FreeRTOS\9.0.0\Source/queue.c **** 			/* Ensure the event queues start in the correct state. */
 320:Generated_Source\PSoC6\pdl\rtos\FreeRTOS\9.0.0\Source/queue.c **** 			vListInitialise( &( pxQueue->xTasksWaitingToSend ) );
 135              		.loc 1 320 0
 136 0098 FB68     		ldr	r3, [r7, #12]
ARM GAS  C:\Users\ikomb\AppData\Local\Temp\cc9p1klJ.s 			page 9


 137 009a 1033     		adds	r3, r3, #16
 138 009c 1846     		mov	r0, r3
 139 009e FFF7FEFF 		bl	vListInitialise
 321:Generated_Source\PSoC6\pdl\rtos\FreeRTOS\9.0.0\Source/queue.c **** 			vListInitialise( &( pxQueue->xTasksWaitingToReceive ) );
 140              		.loc 1 321 0
 141 00a2 FB68     		ldr	r3, [r7, #12]
 142 00a4 2433     		adds	r3, r3, #36
 143 00a6 1846     		mov	r0, r3
 144 00a8 FFF7FEFF 		bl	vListInitialise
 145              	.L5:
 322:Generated_Source\PSoC6\pdl\rtos\FreeRTOS\9.0.0\Source/queue.c **** 		}
 323:Generated_Source\PSoC6\pdl\rtos\FreeRTOS\9.0.0\Source/queue.c **** 	}
 324:Generated_Source\PSoC6\pdl\rtos\FreeRTOS\9.0.0\Source/queue.c **** 	taskEXIT_CRITICAL();
 146              		.loc 1 324 0
 147 00ac FFF7FEFF 		bl	vPortExitCritical
 325:Generated_Source\PSoC6\pdl\rtos\FreeRTOS\9.0.0\Source/queue.c **** 
 326:Generated_Source\PSoC6\pdl\rtos\FreeRTOS\9.0.0\Source/queue.c **** 	/* A value is returned for calling semantic consistency with previous
 327:Generated_Source\PSoC6\pdl\rtos\FreeRTOS\9.0.0\Source/queue.c **** 	versions. */
 328:Generated_Source\PSoC6\pdl\rtos\FreeRTOS\9.0.0\Source/queue.c **** 	return pdPASS;
 148              		.loc 1 328 0
 149 00b0 0123     		movs	r3, #1
 329:Generated_Source\PSoC6\pdl\rtos\FreeRTOS\9.0.0\Source/queue.c **** }
 150              		.loc 1 329 0
 151 00b2 1846     		mov	r0, r3
 152 00b4 1037     		adds	r7, r7, #16
 153              		.cfi_def_cfa_offset 8
 154 00b6 BD46     		mov	sp, r7
 155              		.cfi_def_cfa_register 13
 156              		@ sp needed
 157 00b8 80BD     		pop	{r7, pc}
 158              	.L8:
 159 00ba 00BF     		.align	2
 160              	.L7:
 161 00bc 04ED00E0 		.word	-536810236
 162              		.cfi_endproc
 163              	.LFE129:
 164              		.size	xQueueGenericReset, .-xQueueGenericReset
 165              		.section	.text.xQueueGenericCreate,"ax",%progbits
 166              		.align	2
 167              		.global	xQueueGenericCreate
 168              		.thumb
 169              		.thumb_func
 170              		.type	xQueueGenericCreate, %function
 171              	xQueueGenericCreate:
 172              	.LFB130:
 330:Generated_Source\PSoC6\pdl\rtos\FreeRTOS\9.0.0\Source/queue.c **** /*-----------------------------------------------------------*/
 331:Generated_Source\PSoC6\pdl\rtos\FreeRTOS\9.0.0\Source/queue.c **** 
 332:Generated_Source\PSoC6\pdl\rtos\FreeRTOS\9.0.0\Source/queue.c **** #if( configSUPPORT_STATIC_ALLOCATION == 1 )
 333:Generated_Source\PSoC6\pdl\rtos\FreeRTOS\9.0.0\Source/queue.c **** 
 334:Generated_Source\PSoC6\pdl\rtos\FreeRTOS\9.0.0\Source/queue.c **** 	QueueHandle_t xQueueGenericCreateStatic( const UBaseType_t uxQueueLength, const UBaseType_t uxItem
 335:Generated_Source\PSoC6\pdl\rtos\FreeRTOS\9.0.0\Source/queue.c **** 	{
 336:Generated_Source\PSoC6\pdl\rtos\FreeRTOS\9.0.0\Source/queue.c **** 	Queue_t *pxNewQueue;
 337:Generated_Source\PSoC6\pdl\rtos\FreeRTOS\9.0.0\Source/queue.c **** 
 338:Generated_Source\PSoC6\pdl\rtos\FreeRTOS\9.0.0\Source/queue.c **** 		configASSERT( uxQueueLength > ( UBaseType_t ) 0 );
 339:Generated_Source\PSoC6\pdl\rtos\FreeRTOS\9.0.0\Source/queue.c **** 
 340:Generated_Source\PSoC6\pdl\rtos\FreeRTOS\9.0.0\Source/queue.c **** 		/* The StaticQueue_t structure and the queue storage area must be
 341:Generated_Source\PSoC6\pdl\rtos\FreeRTOS\9.0.0\Source/queue.c **** 		supplied. */
ARM GAS  C:\Users\ikomb\AppData\Local\Temp\cc9p1klJ.s 			page 10


 342:Generated_Source\PSoC6\pdl\rtos\FreeRTOS\9.0.0\Source/queue.c **** 		configASSERT( pxStaticQueue != NULL );
 343:Generated_Source\PSoC6\pdl\rtos\FreeRTOS\9.0.0\Source/queue.c **** 
 344:Generated_Source\PSoC6\pdl\rtos\FreeRTOS\9.0.0\Source/queue.c **** 		/* A queue storage area should be provided if the item size is not 0, and
 345:Generated_Source\PSoC6\pdl\rtos\FreeRTOS\9.0.0\Source/queue.c **** 		should not be provided if the item size is 0. */
 346:Generated_Source\PSoC6\pdl\rtos\FreeRTOS\9.0.0\Source/queue.c **** 		configASSERT( !( ( pucQueueStorage != NULL ) && ( uxItemSize == 0 ) ) );
 347:Generated_Source\PSoC6\pdl\rtos\FreeRTOS\9.0.0\Source/queue.c **** 		configASSERT( !( ( pucQueueStorage == NULL ) && ( uxItemSize != 0 ) ) );
 348:Generated_Source\PSoC6\pdl\rtos\FreeRTOS\9.0.0\Source/queue.c **** 
 349:Generated_Source\PSoC6\pdl\rtos\FreeRTOS\9.0.0\Source/queue.c **** 		#if( configASSERT_DEFINED == 1 )
 350:Generated_Source\PSoC6\pdl\rtos\FreeRTOS\9.0.0\Source/queue.c **** 		{
 351:Generated_Source\PSoC6\pdl\rtos\FreeRTOS\9.0.0\Source/queue.c **** 			/* Sanity check that the size of the structure used to declare a
 352:Generated_Source\PSoC6\pdl\rtos\FreeRTOS\9.0.0\Source/queue.c **** 			variable of type StaticQueue_t or StaticSemaphore_t equals the size of
 353:Generated_Source\PSoC6\pdl\rtos\FreeRTOS\9.0.0\Source/queue.c **** 			the real queue and semaphore structures. */
 354:Generated_Source\PSoC6\pdl\rtos\FreeRTOS\9.0.0\Source/queue.c **** 			volatile size_t xSize = sizeof( StaticQueue_t );
 355:Generated_Source\PSoC6\pdl\rtos\FreeRTOS\9.0.0\Source/queue.c **** 			configASSERT( xSize == sizeof( Queue_t ) );
 356:Generated_Source\PSoC6\pdl\rtos\FreeRTOS\9.0.0\Source/queue.c **** 		}
 357:Generated_Source\PSoC6\pdl\rtos\FreeRTOS\9.0.0\Source/queue.c **** 		#endif /* configASSERT_DEFINED */
 358:Generated_Source\PSoC6\pdl\rtos\FreeRTOS\9.0.0\Source/queue.c **** 
 359:Generated_Source\PSoC6\pdl\rtos\FreeRTOS\9.0.0\Source/queue.c **** 		/* The address of a statically allocated queue was passed in, use it.
 360:Generated_Source\PSoC6\pdl\rtos\FreeRTOS\9.0.0\Source/queue.c **** 		The address of a statically allocated storage area was also passed in
 361:Generated_Source\PSoC6\pdl\rtos\FreeRTOS\9.0.0\Source/queue.c **** 		but is already set. */
 362:Generated_Source\PSoC6\pdl\rtos\FreeRTOS\9.0.0\Source/queue.c **** 		pxNewQueue = ( Queue_t * ) pxStaticQueue; /*lint !e740 Unusual cast is ok as the structures are d
 363:Generated_Source\PSoC6\pdl\rtos\FreeRTOS\9.0.0\Source/queue.c **** 
 364:Generated_Source\PSoC6\pdl\rtos\FreeRTOS\9.0.0\Source/queue.c **** 		if( pxNewQueue != NULL )
 365:Generated_Source\PSoC6\pdl\rtos\FreeRTOS\9.0.0\Source/queue.c **** 		{
 366:Generated_Source\PSoC6\pdl\rtos\FreeRTOS\9.0.0\Source/queue.c **** 			#if( configSUPPORT_DYNAMIC_ALLOCATION == 1 )
 367:Generated_Source\PSoC6\pdl\rtos\FreeRTOS\9.0.0\Source/queue.c **** 			{
 368:Generated_Source\PSoC6\pdl\rtos\FreeRTOS\9.0.0\Source/queue.c **** 				/* Queues can be allocated wither statically or dynamically, so
 369:Generated_Source\PSoC6\pdl\rtos\FreeRTOS\9.0.0\Source/queue.c **** 				note this queue was allocated statically in case the queue is
 370:Generated_Source\PSoC6\pdl\rtos\FreeRTOS\9.0.0\Source/queue.c **** 				later deleted. */
 371:Generated_Source\PSoC6\pdl\rtos\FreeRTOS\9.0.0\Source/queue.c **** 				pxNewQueue->ucStaticallyAllocated = pdTRUE;
 372:Generated_Source\PSoC6\pdl\rtos\FreeRTOS\9.0.0\Source/queue.c **** 			}
 373:Generated_Source\PSoC6\pdl\rtos\FreeRTOS\9.0.0\Source/queue.c **** 			#endif /* configSUPPORT_DYNAMIC_ALLOCATION */
 374:Generated_Source\PSoC6\pdl\rtos\FreeRTOS\9.0.0\Source/queue.c **** 
 375:Generated_Source\PSoC6\pdl\rtos\FreeRTOS\9.0.0\Source/queue.c **** 			prvInitialiseNewQueue( uxQueueLength, uxItemSize, pucQueueStorage, ucQueueType, pxNewQueue );
 376:Generated_Source\PSoC6\pdl\rtos\FreeRTOS\9.0.0\Source/queue.c **** 		}
 377:Generated_Source\PSoC6\pdl\rtos\FreeRTOS\9.0.0\Source/queue.c **** 
 378:Generated_Source\PSoC6\pdl\rtos\FreeRTOS\9.0.0\Source/queue.c **** 		return pxNewQueue;
 379:Generated_Source\PSoC6\pdl\rtos\FreeRTOS\9.0.0\Source/queue.c **** 	}
 380:Generated_Source\PSoC6\pdl\rtos\FreeRTOS\9.0.0\Source/queue.c **** 
 381:Generated_Source\PSoC6\pdl\rtos\FreeRTOS\9.0.0\Source/queue.c **** #endif /* configSUPPORT_STATIC_ALLOCATION */
 382:Generated_Source\PSoC6\pdl\rtos\FreeRTOS\9.0.0\Source/queue.c **** /*-----------------------------------------------------------*/
 383:Generated_Source\PSoC6\pdl\rtos\FreeRTOS\9.0.0\Source/queue.c **** 
 384:Generated_Source\PSoC6\pdl\rtos\FreeRTOS\9.0.0\Source/queue.c **** #if( configSUPPORT_DYNAMIC_ALLOCATION == 1 )
 385:Generated_Source\PSoC6\pdl\rtos\FreeRTOS\9.0.0\Source/queue.c **** 
 386:Generated_Source\PSoC6\pdl\rtos\FreeRTOS\9.0.0\Source/queue.c **** 	QueueHandle_t xQueueGenericCreate( const UBaseType_t uxQueueLength, const UBaseType_t uxItemSize, 
 387:Generated_Source\PSoC6\pdl\rtos\FreeRTOS\9.0.0\Source/queue.c **** 	{
 173              		.loc 1 387 0
 174              		.cfi_startproc
 175              		@ args = 0, pretend = 0, frame = 32
 176              		@ frame_needed = 1, uses_anonymous_args = 0
 177 0000 80B5     		push	{r7, lr}
 178              		.cfi_def_cfa_offset 8
 179              		.cfi_offset 7, -8
 180              		.cfi_offset 14, -4
 181 0002 8AB0     		sub	sp, sp, #40
 182              		.cfi_def_cfa_offset 48
 183 0004 02AF     		add	r7, sp, #8
ARM GAS  C:\Users\ikomb\AppData\Local\Temp\cc9p1klJ.s 			page 11


 184              		.cfi_def_cfa 7, 40
 185 0006 F860     		str	r0, [r7, #12]
 186 0008 B960     		str	r1, [r7, #8]
 187 000a 1346     		mov	r3, r2
 188 000c FB71     		strb	r3, [r7, #7]
 388:Generated_Source\PSoC6\pdl\rtos\FreeRTOS\9.0.0\Source/queue.c **** 	Queue_t *pxNewQueue;
 389:Generated_Source\PSoC6\pdl\rtos\FreeRTOS\9.0.0\Source/queue.c **** 	size_t xQueueSizeInBytes;
 390:Generated_Source\PSoC6\pdl\rtos\FreeRTOS\9.0.0\Source/queue.c **** 	uint8_t *pucQueueStorage;
 391:Generated_Source\PSoC6\pdl\rtos\FreeRTOS\9.0.0\Source/queue.c **** 
 392:Generated_Source\PSoC6\pdl\rtos\FreeRTOS\9.0.0\Source/queue.c **** 		configASSERT( uxQueueLength > ( UBaseType_t ) 0 );
 189              		.loc 1 392 0
 190 000e FB68     		ldr	r3, [r7, #12]
 191 0010 002B     		cmp	r3, #0
 192 0012 01D1     		bne	.L10
 193              		.loc 1 392 0 is_stmt 0 discriminator 1
 194              		.syntax unified
 195              	@ 392 "Generated_Source\PSoC6\pdl\rtos\FreeRTOS\9.0.0\Source\queue.c" 1
 196 0014 72B6     		 cpsid i 
 197              	@ 0 "" 2
 198              		.thumb
 199              		.syntax unified
 200              	.L11:
 201 0016 FEE7     		b	.L11
 202              	.L10:
 393:Generated_Source\PSoC6\pdl\rtos\FreeRTOS\9.0.0\Source/queue.c **** 
 394:Generated_Source\PSoC6\pdl\rtos\FreeRTOS\9.0.0\Source/queue.c **** 		if( uxItemSize == ( UBaseType_t ) 0 )
 203              		.loc 1 394 0 is_stmt 1
 204 0018 BB68     		ldr	r3, [r7, #8]
 205 001a 002B     		cmp	r3, #0
 206 001c 02D1     		bne	.L12
 395:Generated_Source\PSoC6\pdl\rtos\FreeRTOS\9.0.0\Source/queue.c **** 		{
 396:Generated_Source\PSoC6\pdl\rtos\FreeRTOS\9.0.0\Source/queue.c **** 			/* There is not going to be a queue storage area. */
 397:Generated_Source\PSoC6\pdl\rtos\FreeRTOS\9.0.0\Source/queue.c **** 			xQueueSizeInBytes = ( size_t ) 0;
 207              		.loc 1 397 0
 208 001e 0023     		movs	r3, #0
 209 0020 FB61     		str	r3, [r7, #28]
 210 0022 04E0     		b	.L13
 211              	.L12:
 398:Generated_Source\PSoC6\pdl\rtos\FreeRTOS\9.0.0\Source/queue.c **** 		}
 399:Generated_Source\PSoC6\pdl\rtos\FreeRTOS\9.0.0\Source/queue.c **** 		else
 400:Generated_Source\PSoC6\pdl\rtos\FreeRTOS\9.0.0\Source/queue.c **** 		{
 401:Generated_Source\PSoC6\pdl\rtos\FreeRTOS\9.0.0\Source/queue.c **** 			/* Allocate enough space to hold the maximum number of items that
 402:Generated_Source\PSoC6\pdl\rtos\FreeRTOS\9.0.0\Source/queue.c **** 			can be in the queue at any time. */
 403:Generated_Source\PSoC6\pdl\rtos\FreeRTOS\9.0.0\Source/queue.c **** 			xQueueSizeInBytes = ( size_t ) ( uxQueueLength * uxItemSize ); /*lint !e961 MISRA exception as t
 212              		.loc 1 403 0
 213 0024 FB68     		ldr	r3, [r7, #12]
 214 0026 BA68     		ldr	r2, [r7, #8]
 215 0028 02FB03F3 		mul	r3, r2, r3
 216 002c FB61     		str	r3, [r7, #28]
 217              	.L13:
 404:Generated_Source\PSoC6\pdl\rtos\FreeRTOS\9.0.0\Source/queue.c **** 		}
 405:Generated_Source\PSoC6\pdl\rtos\FreeRTOS\9.0.0\Source/queue.c **** 
 406:Generated_Source\PSoC6\pdl\rtos\FreeRTOS\9.0.0\Source/queue.c **** 		pxNewQueue = ( Queue_t * ) pvPortMalloc( sizeof( Queue_t ) + xQueueSizeInBytes );
 218              		.loc 1 406 0
 219 002e FB69     		ldr	r3, [r7, #28]
 220 0030 4833     		adds	r3, r3, #72
 221 0032 1846     		mov	r0, r3
ARM GAS  C:\Users\ikomb\AppData\Local\Temp\cc9p1klJ.s 			page 12


 222 0034 FFF7FEFF 		bl	pvPortMalloc
 223 0038 B861     		str	r0, [r7, #24]
 407:Generated_Source\PSoC6\pdl\rtos\FreeRTOS\9.0.0\Source/queue.c **** 
 408:Generated_Source\PSoC6\pdl\rtos\FreeRTOS\9.0.0\Source/queue.c **** 		if( pxNewQueue != NULL )
 224              		.loc 1 408 0
 225 003a BB69     		ldr	r3, [r7, #24]
 226 003c 002B     		cmp	r3, #0
 227 003e 0BD0     		beq	.L14
 409:Generated_Source\PSoC6\pdl\rtos\FreeRTOS\9.0.0\Source/queue.c **** 		{
 410:Generated_Source\PSoC6\pdl\rtos\FreeRTOS\9.0.0\Source/queue.c **** 			/* Jump past the queue structure to find the location of the queue
 411:Generated_Source\PSoC6\pdl\rtos\FreeRTOS\9.0.0\Source/queue.c **** 			storage area. */
 412:Generated_Source\PSoC6\pdl\rtos\FreeRTOS\9.0.0\Source/queue.c **** 			pucQueueStorage = ( ( uint8_t * ) pxNewQueue ) + sizeof( Queue_t );
 228              		.loc 1 412 0
 229 0040 BB69     		ldr	r3, [r7, #24]
 230 0042 4833     		adds	r3, r3, #72
 231 0044 7B61     		str	r3, [r7, #20]
 413:Generated_Source\PSoC6\pdl\rtos\FreeRTOS\9.0.0\Source/queue.c **** 
 414:Generated_Source\PSoC6\pdl\rtos\FreeRTOS\9.0.0\Source/queue.c **** 			#if( configSUPPORT_STATIC_ALLOCATION == 1 )
 415:Generated_Source\PSoC6\pdl\rtos\FreeRTOS\9.0.0\Source/queue.c **** 			{
 416:Generated_Source\PSoC6\pdl\rtos\FreeRTOS\9.0.0\Source/queue.c **** 				/* Queues can be created either statically or dynamically, so
 417:Generated_Source\PSoC6\pdl\rtos\FreeRTOS\9.0.0\Source/queue.c **** 				note this task was created dynamically in case it is later
 418:Generated_Source\PSoC6\pdl\rtos\FreeRTOS\9.0.0\Source/queue.c **** 				deleted. */
 419:Generated_Source\PSoC6\pdl\rtos\FreeRTOS\9.0.0\Source/queue.c **** 				pxNewQueue->ucStaticallyAllocated = pdFALSE;
 420:Generated_Source\PSoC6\pdl\rtos\FreeRTOS\9.0.0\Source/queue.c **** 			}
 421:Generated_Source\PSoC6\pdl\rtos\FreeRTOS\9.0.0\Source/queue.c **** 			#endif /* configSUPPORT_STATIC_ALLOCATION */
 422:Generated_Source\PSoC6\pdl\rtos\FreeRTOS\9.0.0\Source/queue.c **** 
 423:Generated_Source\PSoC6\pdl\rtos\FreeRTOS\9.0.0\Source/queue.c **** 			prvInitialiseNewQueue( uxQueueLength, uxItemSize, pucQueueStorage, ucQueueType, pxNewQueue );
 232              		.loc 1 423 0
 233 0046 FA79     		ldrb	r2, [r7, #7]	@ zero_extendqisi2
 234 0048 BB69     		ldr	r3, [r7, #24]
 235 004a 0093     		str	r3, [sp]
 236 004c 1346     		mov	r3, r2
 237 004e 7A69     		ldr	r2, [r7, #20]
 238 0050 B968     		ldr	r1, [r7, #8]
 239 0052 F868     		ldr	r0, [r7, #12]
 240 0054 FFF7FEFF 		bl	prvInitialiseNewQueue
 241              	.L14:
 424:Generated_Source\PSoC6\pdl\rtos\FreeRTOS\9.0.0\Source/queue.c **** 		}
 425:Generated_Source\PSoC6\pdl\rtos\FreeRTOS\9.0.0\Source/queue.c **** 
 426:Generated_Source\PSoC6\pdl\rtos\FreeRTOS\9.0.0\Source/queue.c **** 		return pxNewQueue;
 242              		.loc 1 426 0
 243 0058 BB69     		ldr	r3, [r7, #24]
 427:Generated_Source\PSoC6\pdl\rtos\FreeRTOS\9.0.0\Source/queue.c **** 	}
 244              		.loc 1 427 0
 245 005a 1846     		mov	r0, r3
 246 005c 2037     		adds	r7, r7, #32
 247              		.cfi_def_cfa_offset 8
 248 005e BD46     		mov	sp, r7
 249              		.cfi_def_cfa_register 13
 250              		@ sp needed
 251 0060 80BD     		pop	{r7, pc}
 252              		.cfi_endproc
 253              	.LFE130:
 254              		.size	xQueueGenericCreate, .-xQueueGenericCreate
 255 0062 00BF     		.section	.text.prvInitialiseNewQueue,"ax",%progbits
 256              		.align	2
 257              		.thumb
ARM GAS  C:\Users\ikomb\AppData\Local\Temp\cc9p1klJ.s 			page 13


 258              		.thumb_func
 259              		.type	prvInitialiseNewQueue, %function
 260              	prvInitialiseNewQueue:
 261              	.LFB131:
 428:Generated_Source\PSoC6\pdl\rtos\FreeRTOS\9.0.0\Source/queue.c **** 
 429:Generated_Source\PSoC6\pdl\rtos\FreeRTOS\9.0.0\Source/queue.c **** #endif /* configSUPPORT_STATIC_ALLOCATION */
 430:Generated_Source\PSoC6\pdl\rtos\FreeRTOS\9.0.0\Source/queue.c **** /*-----------------------------------------------------------*/
 431:Generated_Source\PSoC6\pdl\rtos\FreeRTOS\9.0.0\Source/queue.c **** 
 432:Generated_Source\PSoC6\pdl\rtos\FreeRTOS\9.0.0\Source/queue.c **** static void prvInitialiseNewQueue( const UBaseType_t uxQueueLength, const UBaseType_t uxItemSize, u
 433:Generated_Source\PSoC6\pdl\rtos\FreeRTOS\9.0.0\Source/queue.c **** {
 262              		.loc 1 433 0
 263              		.cfi_startproc
 264              		@ args = 4, pretend = 0, frame = 16
 265              		@ frame_needed = 1, uses_anonymous_args = 0
 266 0000 80B5     		push	{r7, lr}
 267              		.cfi_def_cfa_offset 8
 268              		.cfi_offset 7, -8
 269              		.cfi_offset 14, -4
 270 0002 84B0     		sub	sp, sp, #16
 271              		.cfi_def_cfa_offset 24
 272 0004 00AF     		add	r7, sp, #0
 273              		.cfi_def_cfa_register 7
 274 0006 F860     		str	r0, [r7, #12]
 275 0008 B960     		str	r1, [r7, #8]
 276 000a 7A60     		str	r2, [r7, #4]
 277 000c FB70     		strb	r3, [r7, #3]
 434:Generated_Source\PSoC6\pdl\rtos\FreeRTOS\9.0.0\Source/queue.c **** 	/* Remove compiler warnings about unused parameters should
 435:Generated_Source\PSoC6\pdl\rtos\FreeRTOS\9.0.0\Source/queue.c **** 	configUSE_TRACE_FACILITY not be set to 1. */
 436:Generated_Source\PSoC6\pdl\rtos\FreeRTOS\9.0.0\Source/queue.c **** 	( void ) ucQueueType;
 437:Generated_Source\PSoC6\pdl\rtos\FreeRTOS\9.0.0\Source/queue.c **** 
 438:Generated_Source\PSoC6\pdl\rtos\FreeRTOS\9.0.0\Source/queue.c **** 	if( uxItemSize == ( UBaseType_t ) 0 )
 278              		.loc 1 438 0
 279 000e BB68     		ldr	r3, [r7, #8]
 280 0010 002B     		cmp	r3, #0
 281 0012 03D1     		bne	.L17
 439:Generated_Source\PSoC6\pdl\rtos\FreeRTOS\9.0.0\Source/queue.c **** 	{
 440:Generated_Source\PSoC6\pdl\rtos\FreeRTOS\9.0.0\Source/queue.c **** 		/* No RAM was allocated for the queue storage area, but PC head cannot
 441:Generated_Source\PSoC6\pdl\rtos\FreeRTOS\9.0.0\Source/queue.c **** 		be set to NULL because NULL is used as a key to say the queue is used as
 442:Generated_Source\PSoC6\pdl\rtos\FreeRTOS\9.0.0\Source/queue.c **** 		a mutex.  Therefore just set pcHead to point to the queue as a benign
 443:Generated_Source\PSoC6\pdl\rtos\FreeRTOS\9.0.0\Source/queue.c **** 		value that is known to be within the memory map. */
 444:Generated_Source\PSoC6\pdl\rtos\FreeRTOS\9.0.0\Source/queue.c **** 		pxNewQueue->pcHead = ( int8_t * ) pxNewQueue;
 282              		.loc 1 444 0
 283 0014 BB69     		ldr	r3, [r7, #24]
 284 0016 BA69     		ldr	r2, [r7, #24]
 285 0018 1A60     		str	r2, [r3]
 286 001a 02E0     		b	.L18
 287              	.L17:
 445:Generated_Source\PSoC6\pdl\rtos\FreeRTOS\9.0.0\Source/queue.c **** 	}
 446:Generated_Source\PSoC6\pdl\rtos\FreeRTOS\9.0.0\Source/queue.c **** 	else
 447:Generated_Source\PSoC6\pdl\rtos\FreeRTOS\9.0.0\Source/queue.c **** 	{
 448:Generated_Source\PSoC6\pdl\rtos\FreeRTOS\9.0.0\Source/queue.c **** 		/* Set the head to the start of the queue storage area. */
 449:Generated_Source\PSoC6\pdl\rtos\FreeRTOS\9.0.0\Source/queue.c **** 		pxNewQueue->pcHead = ( int8_t * ) pucQueueStorage;
 288              		.loc 1 449 0
 289 001c BB69     		ldr	r3, [r7, #24]
 290 001e 7A68     		ldr	r2, [r7, #4]
 291 0020 1A60     		str	r2, [r3]
 292              	.L18:
ARM GAS  C:\Users\ikomb\AppData\Local\Temp\cc9p1klJ.s 			page 14


 450:Generated_Source\PSoC6\pdl\rtos\FreeRTOS\9.0.0\Source/queue.c **** 	}
 451:Generated_Source\PSoC6\pdl\rtos\FreeRTOS\9.0.0\Source/queue.c **** 
 452:Generated_Source\PSoC6\pdl\rtos\FreeRTOS\9.0.0\Source/queue.c **** 	/* Initialise the queue members as described where the queue type is
 453:Generated_Source\PSoC6\pdl\rtos\FreeRTOS\9.0.0\Source/queue.c **** 	defined. */
 454:Generated_Source\PSoC6\pdl\rtos\FreeRTOS\9.0.0\Source/queue.c **** 	pxNewQueue->uxLength = uxQueueLength;
 293              		.loc 1 454 0
 294 0022 BB69     		ldr	r3, [r7, #24]
 295 0024 FA68     		ldr	r2, [r7, #12]
 296 0026 DA63     		str	r2, [r3, #60]
 455:Generated_Source\PSoC6\pdl\rtos\FreeRTOS\9.0.0\Source/queue.c **** 	pxNewQueue->uxItemSize = uxItemSize;
 297              		.loc 1 455 0
 298 0028 BB69     		ldr	r3, [r7, #24]
 299 002a BA68     		ldr	r2, [r7, #8]
 300 002c 1A64     		str	r2, [r3, #64]
 456:Generated_Source\PSoC6\pdl\rtos\FreeRTOS\9.0.0\Source/queue.c **** 	( void ) xQueueGenericReset( pxNewQueue, pdTRUE );
 301              		.loc 1 456 0
 302 002e 0121     		movs	r1, #1
 303 0030 B869     		ldr	r0, [r7, #24]
 304 0032 FFF7FEFF 		bl	xQueueGenericReset
 457:Generated_Source\PSoC6\pdl\rtos\FreeRTOS\9.0.0\Source/queue.c **** 
 458:Generated_Source\PSoC6\pdl\rtos\FreeRTOS\9.0.0\Source/queue.c **** 	#if ( configUSE_TRACE_FACILITY == 1 )
 459:Generated_Source\PSoC6\pdl\rtos\FreeRTOS\9.0.0\Source/queue.c **** 	{
 460:Generated_Source\PSoC6\pdl\rtos\FreeRTOS\9.0.0\Source/queue.c **** 		pxNewQueue->ucQueueType = ucQueueType;
 461:Generated_Source\PSoC6\pdl\rtos\FreeRTOS\9.0.0\Source/queue.c **** 	}
 462:Generated_Source\PSoC6\pdl\rtos\FreeRTOS\9.0.0\Source/queue.c **** 	#endif /* configUSE_TRACE_FACILITY */
 463:Generated_Source\PSoC6\pdl\rtos\FreeRTOS\9.0.0\Source/queue.c **** 
 464:Generated_Source\PSoC6\pdl\rtos\FreeRTOS\9.0.0\Source/queue.c **** 	#if( configUSE_QUEUE_SETS == 1 )
 465:Generated_Source\PSoC6\pdl\rtos\FreeRTOS\9.0.0\Source/queue.c **** 	{
 466:Generated_Source\PSoC6\pdl\rtos\FreeRTOS\9.0.0\Source/queue.c **** 		pxNewQueue->pxQueueSetContainer = NULL;
 467:Generated_Source\PSoC6\pdl\rtos\FreeRTOS\9.0.0\Source/queue.c **** 	}
 468:Generated_Source\PSoC6\pdl\rtos\FreeRTOS\9.0.0\Source/queue.c **** 	#endif /* configUSE_QUEUE_SETS */
 469:Generated_Source\PSoC6\pdl\rtos\FreeRTOS\9.0.0\Source/queue.c **** 
 470:Generated_Source\PSoC6\pdl\rtos\FreeRTOS\9.0.0\Source/queue.c **** 	traceQUEUE_CREATE( pxNewQueue );
 471:Generated_Source\PSoC6\pdl\rtos\FreeRTOS\9.0.0\Source/queue.c **** }
 305              		.loc 1 471 0
 306 0036 00BF     		nop
 307 0038 1037     		adds	r7, r7, #16
 308              		.cfi_def_cfa_offset 8
 309 003a BD46     		mov	sp, r7
 310              		.cfi_def_cfa_register 13
 311              		@ sp needed
 312 003c 80BD     		pop	{r7, pc}
 313              		.cfi_endproc
 314              	.LFE131:
 315              		.size	prvInitialiseNewQueue, .-prvInitialiseNewQueue
 316 003e 00BF     		.section	.text.xQueueGenericSend,"ax",%progbits
 317              		.align	2
 318              		.global	xQueueGenericSend
 319              		.thumb
 320              		.thumb_func
 321              		.type	xQueueGenericSend, %function
 322              	xQueueGenericSend:
 323              	.LFB132:
 472:Generated_Source\PSoC6\pdl\rtos\FreeRTOS\9.0.0\Source/queue.c **** /*-----------------------------------------------------------*/
 473:Generated_Source\PSoC6\pdl\rtos\FreeRTOS\9.0.0\Source/queue.c **** 
 474:Generated_Source\PSoC6\pdl\rtos\FreeRTOS\9.0.0\Source/queue.c **** #if( configUSE_MUTEXES == 1 )
 475:Generated_Source\PSoC6\pdl\rtos\FreeRTOS\9.0.0\Source/queue.c **** 
ARM GAS  C:\Users\ikomb\AppData\Local\Temp\cc9p1klJ.s 			page 15


 476:Generated_Source\PSoC6\pdl\rtos\FreeRTOS\9.0.0\Source/queue.c **** 	static void prvInitialiseMutex( Queue_t *pxNewQueue )
 477:Generated_Source\PSoC6\pdl\rtos\FreeRTOS\9.0.0\Source/queue.c **** 	{
 478:Generated_Source\PSoC6\pdl\rtos\FreeRTOS\9.0.0\Source/queue.c **** 		if( pxNewQueue != NULL )
 479:Generated_Source\PSoC6\pdl\rtos\FreeRTOS\9.0.0\Source/queue.c **** 		{
 480:Generated_Source\PSoC6\pdl\rtos\FreeRTOS\9.0.0\Source/queue.c **** 			/* The queue create function will set all the queue structure members
 481:Generated_Source\PSoC6\pdl\rtos\FreeRTOS\9.0.0\Source/queue.c **** 			correctly for a generic queue, but this function is creating a
 482:Generated_Source\PSoC6\pdl\rtos\FreeRTOS\9.0.0\Source/queue.c **** 			mutex.  Overwrite those members that need to be set differently -
 483:Generated_Source\PSoC6\pdl\rtos\FreeRTOS\9.0.0\Source/queue.c **** 			in particular the information required for priority inheritance. */
 484:Generated_Source\PSoC6\pdl\rtos\FreeRTOS\9.0.0\Source/queue.c **** 			pxNewQueue->pxMutexHolder = NULL;
 485:Generated_Source\PSoC6\pdl\rtos\FreeRTOS\9.0.0\Source/queue.c **** 			pxNewQueue->uxQueueType = queueQUEUE_IS_MUTEX;
 486:Generated_Source\PSoC6\pdl\rtos\FreeRTOS\9.0.0\Source/queue.c **** 
 487:Generated_Source\PSoC6\pdl\rtos\FreeRTOS\9.0.0\Source/queue.c **** 			/* In case this is a recursive mutex. */
 488:Generated_Source\PSoC6\pdl\rtos\FreeRTOS\9.0.0\Source/queue.c **** 			pxNewQueue->u.uxRecursiveCallCount = 0;
 489:Generated_Source\PSoC6\pdl\rtos\FreeRTOS\9.0.0\Source/queue.c **** 
 490:Generated_Source\PSoC6\pdl\rtos\FreeRTOS\9.0.0\Source/queue.c **** 			traceCREATE_MUTEX( pxNewQueue );
 491:Generated_Source\PSoC6\pdl\rtos\FreeRTOS\9.0.0\Source/queue.c **** 
 492:Generated_Source\PSoC6\pdl\rtos\FreeRTOS\9.0.0\Source/queue.c **** 			/* Start with the semaphore in the expected state. */
 493:Generated_Source\PSoC6\pdl\rtos\FreeRTOS\9.0.0\Source/queue.c **** 			( void ) xQueueGenericSend( pxNewQueue, NULL, ( TickType_t ) 0U, queueSEND_TO_BACK );
 494:Generated_Source\PSoC6\pdl\rtos\FreeRTOS\9.0.0\Source/queue.c **** 		}
 495:Generated_Source\PSoC6\pdl\rtos\FreeRTOS\9.0.0\Source/queue.c **** 		else
 496:Generated_Source\PSoC6\pdl\rtos\FreeRTOS\9.0.0\Source/queue.c **** 		{
 497:Generated_Source\PSoC6\pdl\rtos\FreeRTOS\9.0.0\Source/queue.c **** 			traceCREATE_MUTEX_FAILED();
 498:Generated_Source\PSoC6\pdl\rtos\FreeRTOS\9.0.0\Source/queue.c **** 		}
 499:Generated_Source\PSoC6\pdl\rtos\FreeRTOS\9.0.0\Source/queue.c **** 	}
 500:Generated_Source\PSoC6\pdl\rtos\FreeRTOS\9.0.0\Source/queue.c **** 
 501:Generated_Source\PSoC6\pdl\rtos\FreeRTOS\9.0.0\Source/queue.c **** #endif /* configUSE_MUTEXES */
 502:Generated_Source\PSoC6\pdl\rtos\FreeRTOS\9.0.0\Source/queue.c **** /*-----------------------------------------------------------*/
 503:Generated_Source\PSoC6\pdl\rtos\FreeRTOS\9.0.0\Source/queue.c **** 
 504:Generated_Source\PSoC6\pdl\rtos\FreeRTOS\9.0.0\Source/queue.c **** #if( ( configUSE_MUTEXES == 1 ) && ( configSUPPORT_DYNAMIC_ALLOCATION == 1 ) )
 505:Generated_Source\PSoC6\pdl\rtos\FreeRTOS\9.0.0\Source/queue.c **** 
 506:Generated_Source\PSoC6\pdl\rtos\FreeRTOS\9.0.0\Source/queue.c **** 	QueueHandle_t xQueueCreateMutex( const uint8_t ucQueueType )
 507:Generated_Source\PSoC6\pdl\rtos\FreeRTOS\9.0.0\Source/queue.c **** 	{
 508:Generated_Source\PSoC6\pdl\rtos\FreeRTOS\9.0.0\Source/queue.c **** 	Queue_t *pxNewQueue;
 509:Generated_Source\PSoC6\pdl\rtos\FreeRTOS\9.0.0\Source/queue.c **** 	const UBaseType_t uxMutexLength = ( UBaseType_t ) 1, uxMutexSize = ( UBaseType_t ) 0;
 510:Generated_Source\PSoC6\pdl\rtos\FreeRTOS\9.0.0\Source/queue.c **** 
 511:Generated_Source\PSoC6\pdl\rtos\FreeRTOS\9.0.0\Source/queue.c **** 		pxNewQueue = ( Queue_t * ) xQueueGenericCreate( uxMutexLength, uxMutexSize, ucQueueType );
 512:Generated_Source\PSoC6\pdl\rtos\FreeRTOS\9.0.0\Source/queue.c **** 		prvInitialiseMutex( pxNewQueue );
 513:Generated_Source\PSoC6\pdl\rtos\FreeRTOS\9.0.0\Source/queue.c **** 
 514:Generated_Source\PSoC6\pdl\rtos\FreeRTOS\9.0.0\Source/queue.c **** 		return pxNewQueue;
 515:Generated_Source\PSoC6\pdl\rtos\FreeRTOS\9.0.0\Source/queue.c **** 	}
 516:Generated_Source\PSoC6\pdl\rtos\FreeRTOS\9.0.0\Source/queue.c **** 
 517:Generated_Source\PSoC6\pdl\rtos\FreeRTOS\9.0.0\Source/queue.c **** #endif /* configUSE_MUTEXES */
 518:Generated_Source\PSoC6\pdl\rtos\FreeRTOS\9.0.0\Source/queue.c **** /*-----------------------------------------------------------*/
 519:Generated_Source\PSoC6\pdl\rtos\FreeRTOS\9.0.0\Source/queue.c **** 
 520:Generated_Source\PSoC6\pdl\rtos\FreeRTOS\9.0.0\Source/queue.c **** #if( ( configUSE_MUTEXES == 1 ) && ( configSUPPORT_STATIC_ALLOCATION == 1 ) )
 521:Generated_Source\PSoC6\pdl\rtos\FreeRTOS\9.0.0\Source/queue.c **** 
 522:Generated_Source\PSoC6\pdl\rtos\FreeRTOS\9.0.0\Source/queue.c **** 	QueueHandle_t xQueueCreateMutexStatic( const uint8_t ucQueueType, StaticQueue_t *pxStaticQueue )
 523:Generated_Source\PSoC6\pdl\rtos\FreeRTOS\9.0.0\Source/queue.c **** 	{
 524:Generated_Source\PSoC6\pdl\rtos\FreeRTOS\9.0.0\Source/queue.c **** 	Queue_t *pxNewQueue;
 525:Generated_Source\PSoC6\pdl\rtos\FreeRTOS\9.0.0\Source/queue.c **** 	const UBaseType_t uxMutexLength = ( UBaseType_t ) 1, uxMutexSize = ( UBaseType_t ) 0;
 526:Generated_Source\PSoC6\pdl\rtos\FreeRTOS\9.0.0\Source/queue.c **** 
 527:Generated_Source\PSoC6\pdl\rtos\FreeRTOS\9.0.0\Source/queue.c **** 		/* Prevent compiler warnings about unused parameters if
 528:Generated_Source\PSoC6\pdl\rtos\FreeRTOS\9.0.0\Source/queue.c **** 		configUSE_TRACE_FACILITY does not equal 1. */
 529:Generated_Source\PSoC6\pdl\rtos\FreeRTOS\9.0.0\Source/queue.c **** 		( void ) ucQueueType;
 530:Generated_Source\PSoC6\pdl\rtos\FreeRTOS\9.0.0\Source/queue.c **** 
 531:Generated_Source\PSoC6\pdl\rtos\FreeRTOS\9.0.0\Source/queue.c **** 		pxNewQueue = ( Queue_t * ) xQueueGenericCreateStatic( uxMutexLength, uxMutexSize, NULL, pxStaticQ
 532:Generated_Source\PSoC6\pdl\rtos\FreeRTOS\9.0.0\Source/queue.c **** 		prvInitialiseMutex( pxNewQueue );
ARM GAS  C:\Users\ikomb\AppData\Local\Temp\cc9p1klJ.s 			page 16


 533:Generated_Source\PSoC6\pdl\rtos\FreeRTOS\9.0.0\Source/queue.c **** 
 534:Generated_Source\PSoC6\pdl\rtos\FreeRTOS\9.0.0\Source/queue.c **** 		return pxNewQueue;
 535:Generated_Source\PSoC6\pdl\rtos\FreeRTOS\9.0.0\Source/queue.c **** 	}
 536:Generated_Source\PSoC6\pdl\rtos\FreeRTOS\9.0.0\Source/queue.c **** 
 537:Generated_Source\PSoC6\pdl\rtos\FreeRTOS\9.0.0\Source/queue.c **** #endif /* configUSE_MUTEXES */
 538:Generated_Source\PSoC6\pdl\rtos\FreeRTOS\9.0.0\Source/queue.c **** /*-----------------------------------------------------------*/
 539:Generated_Source\PSoC6\pdl\rtos\FreeRTOS\9.0.0\Source/queue.c **** 
 540:Generated_Source\PSoC6\pdl\rtos\FreeRTOS\9.0.0\Source/queue.c **** #if ( ( configUSE_MUTEXES == 1 ) && ( INCLUDE_xSemaphoreGetMutexHolder == 1 ) )
 541:Generated_Source\PSoC6\pdl\rtos\FreeRTOS\9.0.0\Source/queue.c **** 
 542:Generated_Source\PSoC6\pdl\rtos\FreeRTOS\9.0.0\Source/queue.c **** 	void* xQueueGetMutexHolder( QueueHandle_t xSemaphore )
 543:Generated_Source\PSoC6\pdl\rtos\FreeRTOS\9.0.0\Source/queue.c **** 	{
 544:Generated_Source\PSoC6\pdl\rtos\FreeRTOS\9.0.0\Source/queue.c **** 	void *pxReturn;
 545:Generated_Source\PSoC6\pdl\rtos\FreeRTOS\9.0.0\Source/queue.c **** 
 546:Generated_Source\PSoC6\pdl\rtos\FreeRTOS\9.0.0\Source/queue.c **** 		/* This function is called by xSemaphoreGetMutexHolder(), and should not
 547:Generated_Source\PSoC6\pdl\rtos\FreeRTOS\9.0.0\Source/queue.c **** 		be called directly.  Note:  This is a good way of determining if the
 548:Generated_Source\PSoC6\pdl\rtos\FreeRTOS\9.0.0\Source/queue.c **** 		calling task is the mutex holder, but not a good way of determining the
 549:Generated_Source\PSoC6\pdl\rtos\FreeRTOS\9.0.0\Source/queue.c **** 		identity of the mutex holder, as the holder may change between the
 550:Generated_Source\PSoC6\pdl\rtos\FreeRTOS\9.0.0\Source/queue.c **** 		following critical section exiting and the function returning. */
 551:Generated_Source\PSoC6\pdl\rtos\FreeRTOS\9.0.0\Source/queue.c **** 		taskENTER_CRITICAL();
 552:Generated_Source\PSoC6\pdl\rtos\FreeRTOS\9.0.0\Source/queue.c **** 		{
 553:Generated_Source\PSoC6\pdl\rtos\FreeRTOS\9.0.0\Source/queue.c **** 			if( ( ( Queue_t * ) xSemaphore )->uxQueueType == queueQUEUE_IS_MUTEX )
 554:Generated_Source\PSoC6\pdl\rtos\FreeRTOS\9.0.0\Source/queue.c **** 			{
 555:Generated_Source\PSoC6\pdl\rtos\FreeRTOS\9.0.0\Source/queue.c **** 				pxReturn = ( void * ) ( ( Queue_t * ) xSemaphore )->pxMutexHolder;
 556:Generated_Source\PSoC6\pdl\rtos\FreeRTOS\9.0.0\Source/queue.c **** 			}
 557:Generated_Source\PSoC6\pdl\rtos\FreeRTOS\9.0.0\Source/queue.c **** 			else
 558:Generated_Source\PSoC6\pdl\rtos\FreeRTOS\9.0.0\Source/queue.c **** 			{
 559:Generated_Source\PSoC6\pdl\rtos\FreeRTOS\9.0.0\Source/queue.c **** 				pxReturn = NULL;
 560:Generated_Source\PSoC6\pdl\rtos\FreeRTOS\9.0.0\Source/queue.c **** 			}
 561:Generated_Source\PSoC6\pdl\rtos\FreeRTOS\9.0.0\Source/queue.c **** 		}
 562:Generated_Source\PSoC6\pdl\rtos\FreeRTOS\9.0.0\Source/queue.c **** 		taskEXIT_CRITICAL();
 563:Generated_Source\PSoC6\pdl\rtos\FreeRTOS\9.0.0\Source/queue.c **** 
 564:Generated_Source\PSoC6\pdl\rtos\FreeRTOS\9.0.0\Source/queue.c **** 		return pxReturn;
 565:Generated_Source\PSoC6\pdl\rtos\FreeRTOS\9.0.0\Source/queue.c **** 	} /*lint !e818 xSemaphore cannot be a pointer to const because it is a typedef. */
 566:Generated_Source\PSoC6\pdl\rtos\FreeRTOS\9.0.0\Source/queue.c **** 
 567:Generated_Source\PSoC6\pdl\rtos\FreeRTOS\9.0.0\Source/queue.c **** #endif
 568:Generated_Source\PSoC6\pdl\rtos\FreeRTOS\9.0.0\Source/queue.c **** /*-----------------------------------------------------------*/
 569:Generated_Source\PSoC6\pdl\rtos\FreeRTOS\9.0.0\Source/queue.c **** 
 570:Generated_Source\PSoC6\pdl\rtos\FreeRTOS\9.0.0\Source/queue.c **** #if ( configUSE_RECURSIVE_MUTEXES == 1 )
 571:Generated_Source\PSoC6\pdl\rtos\FreeRTOS\9.0.0\Source/queue.c **** 
 572:Generated_Source\PSoC6\pdl\rtos\FreeRTOS\9.0.0\Source/queue.c **** 	BaseType_t xQueueGiveMutexRecursive( QueueHandle_t xMutex )
 573:Generated_Source\PSoC6\pdl\rtos\FreeRTOS\9.0.0\Source/queue.c **** 	{
 574:Generated_Source\PSoC6\pdl\rtos\FreeRTOS\9.0.0\Source/queue.c **** 	BaseType_t xReturn;
 575:Generated_Source\PSoC6\pdl\rtos\FreeRTOS\9.0.0\Source/queue.c **** 	Queue_t * const pxMutex = ( Queue_t * ) xMutex;
 576:Generated_Source\PSoC6\pdl\rtos\FreeRTOS\9.0.0\Source/queue.c **** 
 577:Generated_Source\PSoC6\pdl\rtos\FreeRTOS\9.0.0\Source/queue.c **** 		configASSERT( pxMutex );
 578:Generated_Source\PSoC6\pdl\rtos\FreeRTOS\9.0.0\Source/queue.c **** 
 579:Generated_Source\PSoC6\pdl\rtos\FreeRTOS\9.0.0\Source/queue.c **** 		/* If this is the task that holds the mutex then pxMutexHolder will not
 580:Generated_Source\PSoC6\pdl\rtos\FreeRTOS\9.0.0\Source/queue.c **** 		change outside of this task.  If this task does not hold the mutex then
 581:Generated_Source\PSoC6\pdl\rtos\FreeRTOS\9.0.0\Source/queue.c **** 		pxMutexHolder can never coincidentally equal the tasks handle, and as
 582:Generated_Source\PSoC6\pdl\rtos\FreeRTOS\9.0.0\Source/queue.c **** 		this is the only condition we are interested in it does not matter if
 583:Generated_Source\PSoC6\pdl\rtos\FreeRTOS\9.0.0\Source/queue.c **** 		pxMutexHolder is accessed simultaneously by another task.  Therefore no
 584:Generated_Source\PSoC6\pdl\rtos\FreeRTOS\9.0.0\Source/queue.c **** 		mutual exclusion is required to test the pxMutexHolder variable. */
 585:Generated_Source\PSoC6\pdl\rtos\FreeRTOS\9.0.0\Source/queue.c **** 		if( pxMutex->pxMutexHolder == ( void * ) xTaskGetCurrentTaskHandle() ) /*lint !e961 Not a redunda
 586:Generated_Source\PSoC6\pdl\rtos\FreeRTOS\9.0.0\Source/queue.c **** 		{
 587:Generated_Source\PSoC6\pdl\rtos\FreeRTOS\9.0.0\Source/queue.c **** 			traceGIVE_MUTEX_RECURSIVE( pxMutex );
 588:Generated_Source\PSoC6\pdl\rtos\FreeRTOS\9.0.0\Source/queue.c **** 
 589:Generated_Source\PSoC6\pdl\rtos\FreeRTOS\9.0.0\Source/queue.c **** 			/* uxRecursiveCallCount cannot be zero if pxMutexHolder is equal to
ARM GAS  C:\Users\ikomb\AppData\Local\Temp\cc9p1klJ.s 			page 17


 590:Generated_Source\PSoC6\pdl\rtos\FreeRTOS\9.0.0\Source/queue.c **** 			the task handle, therefore no underflow check is required.  Also,
 591:Generated_Source\PSoC6\pdl\rtos\FreeRTOS\9.0.0\Source/queue.c **** 			uxRecursiveCallCount is only modified by the mutex holder, and as
 592:Generated_Source\PSoC6\pdl\rtos\FreeRTOS\9.0.0\Source/queue.c **** 			there can only be one, no mutual exclusion is required to modify the
 593:Generated_Source\PSoC6\pdl\rtos\FreeRTOS\9.0.0\Source/queue.c **** 			uxRecursiveCallCount member. */
 594:Generated_Source\PSoC6\pdl\rtos\FreeRTOS\9.0.0\Source/queue.c **** 			( pxMutex->u.uxRecursiveCallCount )--;
 595:Generated_Source\PSoC6\pdl\rtos\FreeRTOS\9.0.0\Source/queue.c **** 
 596:Generated_Source\PSoC6\pdl\rtos\FreeRTOS\9.0.0\Source/queue.c **** 			/* Has the recursive call count unwound to 0? */
 597:Generated_Source\PSoC6\pdl\rtos\FreeRTOS\9.0.0\Source/queue.c **** 			if( pxMutex->u.uxRecursiveCallCount == ( UBaseType_t ) 0 )
 598:Generated_Source\PSoC6\pdl\rtos\FreeRTOS\9.0.0\Source/queue.c **** 			{
 599:Generated_Source\PSoC6\pdl\rtos\FreeRTOS\9.0.0\Source/queue.c **** 				/* Return the mutex.  This will automatically unblock any other
 600:Generated_Source\PSoC6\pdl\rtos\FreeRTOS\9.0.0\Source/queue.c **** 				task that might be waiting to access the mutex. */
 601:Generated_Source\PSoC6\pdl\rtos\FreeRTOS\9.0.0\Source/queue.c **** 				( void ) xQueueGenericSend( pxMutex, NULL, queueMUTEX_GIVE_BLOCK_TIME, queueSEND_TO_BACK );
 602:Generated_Source\PSoC6\pdl\rtos\FreeRTOS\9.0.0\Source/queue.c **** 			}
 603:Generated_Source\PSoC6\pdl\rtos\FreeRTOS\9.0.0\Source/queue.c **** 			else
 604:Generated_Source\PSoC6\pdl\rtos\FreeRTOS\9.0.0\Source/queue.c **** 			{
 605:Generated_Source\PSoC6\pdl\rtos\FreeRTOS\9.0.0\Source/queue.c **** 				mtCOVERAGE_TEST_MARKER();
 606:Generated_Source\PSoC6\pdl\rtos\FreeRTOS\9.0.0\Source/queue.c **** 			}
 607:Generated_Source\PSoC6\pdl\rtos\FreeRTOS\9.0.0\Source/queue.c **** 
 608:Generated_Source\PSoC6\pdl\rtos\FreeRTOS\9.0.0\Source/queue.c **** 			xReturn = pdPASS;
 609:Generated_Source\PSoC6\pdl\rtos\FreeRTOS\9.0.0\Source/queue.c **** 		}
 610:Generated_Source\PSoC6\pdl\rtos\FreeRTOS\9.0.0\Source/queue.c **** 		else
 611:Generated_Source\PSoC6\pdl\rtos\FreeRTOS\9.0.0\Source/queue.c **** 		{
 612:Generated_Source\PSoC6\pdl\rtos\FreeRTOS\9.0.0\Source/queue.c **** 			/* The mutex cannot be given because the calling task is not the
 613:Generated_Source\PSoC6\pdl\rtos\FreeRTOS\9.0.0\Source/queue.c **** 			holder. */
 614:Generated_Source\PSoC6\pdl\rtos\FreeRTOS\9.0.0\Source/queue.c **** 			xReturn = pdFAIL;
 615:Generated_Source\PSoC6\pdl\rtos\FreeRTOS\9.0.0\Source/queue.c **** 
 616:Generated_Source\PSoC6\pdl\rtos\FreeRTOS\9.0.0\Source/queue.c **** 			traceGIVE_MUTEX_RECURSIVE_FAILED( pxMutex );
 617:Generated_Source\PSoC6\pdl\rtos\FreeRTOS\9.0.0\Source/queue.c **** 		}
 618:Generated_Source\PSoC6\pdl\rtos\FreeRTOS\9.0.0\Source/queue.c **** 
 619:Generated_Source\PSoC6\pdl\rtos\FreeRTOS\9.0.0\Source/queue.c **** 		return xReturn;
 620:Generated_Source\PSoC6\pdl\rtos\FreeRTOS\9.0.0\Source/queue.c **** 	}
 621:Generated_Source\PSoC6\pdl\rtos\FreeRTOS\9.0.0\Source/queue.c **** 
 622:Generated_Source\PSoC6\pdl\rtos\FreeRTOS\9.0.0\Source/queue.c **** #endif /* configUSE_RECURSIVE_MUTEXES */
 623:Generated_Source\PSoC6\pdl\rtos\FreeRTOS\9.0.0\Source/queue.c **** /*-----------------------------------------------------------*/
 624:Generated_Source\PSoC6\pdl\rtos\FreeRTOS\9.0.0\Source/queue.c **** 
 625:Generated_Source\PSoC6\pdl\rtos\FreeRTOS\9.0.0\Source/queue.c **** #if ( configUSE_RECURSIVE_MUTEXES == 1 )
 626:Generated_Source\PSoC6\pdl\rtos\FreeRTOS\9.0.0\Source/queue.c **** 
 627:Generated_Source\PSoC6\pdl\rtos\FreeRTOS\9.0.0\Source/queue.c **** 	BaseType_t xQueueTakeMutexRecursive( QueueHandle_t xMutex, TickType_t xTicksToWait )
 628:Generated_Source\PSoC6\pdl\rtos\FreeRTOS\9.0.0\Source/queue.c **** 	{
 629:Generated_Source\PSoC6\pdl\rtos\FreeRTOS\9.0.0\Source/queue.c **** 	BaseType_t xReturn;
 630:Generated_Source\PSoC6\pdl\rtos\FreeRTOS\9.0.0\Source/queue.c **** 	Queue_t * const pxMutex = ( Queue_t * ) xMutex;
 631:Generated_Source\PSoC6\pdl\rtos\FreeRTOS\9.0.0\Source/queue.c **** 
 632:Generated_Source\PSoC6\pdl\rtos\FreeRTOS\9.0.0\Source/queue.c **** 		configASSERT( pxMutex );
 633:Generated_Source\PSoC6\pdl\rtos\FreeRTOS\9.0.0\Source/queue.c **** 
 634:Generated_Source\PSoC6\pdl\rtos\FreeRTOS\9.0.0\Source/queue.c **** 		/* Comments regarding mutual exclusion as per those within
 635:Generated_Source\PSoC6\pdl\rtos\FreeRTOS\9.0.0\Source/queue.c **** 		xQueueGiveMutexRecursive(). */
 636:Generated_Source\PSoC6\pdl\rtos\FreeRTOS\9.0.0\Source/queue.c **** 
 637:Generated_Source\PSoC6\pdl\rtos\FreeRTOS\9.0.0\Source/queue.c **** 		traceTAKE_MUTEX_RECURSIVE( pxMutex );
 638:Generated_Source\PSoC6\pdl\rtos\FreeRTOS\9.0.0\Source/queue.c **** 
 639:Generated_Source\PSoC6\pdl\rtos\FreeRTOS\9.0.0\Source/queue.c **** 		if( pxMutex->pxMutexHolder == ( void * ) xTaskGetCurrentTaskHandle() ) /*lint !e961 Cast is not r
 640:Generated_Source\PSoC6\pdl\rtos\FreeRTOS\9.0.0\Source/queue.c **** 		{
 641:Generated_Source\PSoC6\pdl\rtos\FreeRTOS\9.0.0\Source/queue.c **** 			( pxMutex->u.uxRecursiveCallCount )++;
 642:Generated_Source\PSoC6\pdl\rtos\FreeRTOS\9.0.0\Source/queue.c **** 			xReturn = pdPASS;
 643:Generated_Source\PSoC6\pdl\rtos\FreeRTOS\9.0.0\Source/queue.c **** 		}
 644:Generated_Source\PSoC6\pdl\rtos\FreeRTOS\9.0.0\Source/queue.c **** 		else
 645:Generated_Source\PSoC6\pdl\rtos\FreeRTOS\9.0.0\Source/queue.c **** 		{
 646:Generated_Source\PSoC6\pdl\rtos\FreeRTOS\9.0.0\Source/queue.c **** 			xReturn = xQueueGenericReceive( pxMutex, NULL, xTicksToWait, pdFALSE );
ARM GAS  C:\Users\ikomb\AppData\Local\Temp\cc9p1klJ.s 			page 18


 647:Generated_Source\PSoC6\pdl\rtos\FreeRTOS\9.0.0\Source/queue.c **** 
 648:Generated_Source\PSoC6\pdl\rtos\FreeRTOS\9.0.0\Source/queue.c **** 			/* pdPASS will only be returned if the mutex was successfully
 649:Generated_Source\PSoC6\pdl\rtos\FreeRTOS\9.0.0\Source/queue.c **** 			obtained.  The calling task may have entered the Blocked state
 650:Generated_Source\PSoC6\pdl\rtos\FreeRTOS\9.0.0\Source/queue.c **** 			before reaching here. */
 651:Generated_Source\PSoC6\pdl\rtos\FreeRTOS\9.0.0\Source/queue.c **** 			if( xReturn != pdFAIL )
 652:Generated_Source\PSoC6\pdl\rtos\FreeRTOS\9.0.0\Source/queue.c **** 			{
 653:Generated_Source\PSoC6\pdl\rtos\FreeRTOS\9.0.0\Source/queue.c **** 				( pxMutex->u.uxRecursiveCallCount )++;
 654:Generated_Source\PSoC6\pdl\rtos\FreeRTOS\9.0.0\Source/queue.c **** 			}
 655:Generated_Source\PSoC6\pdl\rtos\FreeRTOS\9.0.0\Source/queue.c **** 			else
 656:Generated_Source\PSoC6\pdl\rtos\FreeRTOS\9.0.0\Source/queue.c **** 			{
 657:Generated_Source\PSoC6\pdl\rtos\FreeRTOS\9.0.0\Source/queue.c **** 				traceTAKE_MUTEX_RECURSIVE_FAILED( pxMutex );
 658:Generated_Source\PSoC6\pdl\rtos\FreeRTOS\9.0.0\Source/queue.c **** 			}
 659:Generated_Source\PSoC6\pdl\rtos\FreeRTOS\9.0.0\Source/queue.c **** 		}
 660:Generated_Source\PSoC6\pdl\rtos\FreeRTOS\9.0.0\Source/queue.c **** 
 661:Generated_Source\PSoC6\pdl\rtos\FreeRTOS\9.0.0\Source/queue.c **** 		return xReturn;
 662:Generated_Source\PSoC6\pdl\rtos\FreeRTOS\9.0.0\Source/queue.c **** 	}
 663:Generated_Source\PSoC6\pdl\rtos\FreeRTOS\9.0.0\Source/queue.c **** 
 664:Generated_Source\PSoC6\pdl\rtos\FreeRTOS\9.0.0\Source/queue.c **** #endif /* configUSE_RECURSIVE_MUTEXES */
 665:Generated_Source\PSoC6\pdl\rtos\FreeRTOS\9.0.0\Source/queue.c **** /*-----------------------------------------------------------*/
 666:Generated_Source\PSoC6\pdl\rtos\FreeRTOS\9.0.0\Source/queue.c **** 
 667:Generated_Source\PSoC6\pdl\rtos\FreeRTOS\9.0.0\Source/queue.c **** #if( ( configUSE_COUNTING_SEMAPHORES == 1 ) && ( configSUPPORT_STATIC_ALLOCATION == 1 ) )
 668:Generated_Source\PSoC6\pdl\rtos\FreeRTOS\9.0.0\Source/queue.c **** 
 669:Generated_Source\PSoC6\pdl\rtos\FreeRTOS\9.0.0\Source/queue.c **** 	QueueHandle_t xQueueCreateCountingSemaphoreStatic( const UBaseType_t uxMaxCount, const UBaseType_t
 670:Generated_Source\PSoC6\pdl\rtos\FreeRTOS\9.0.0\Source/queue.c **** 	{
 671:Generated_Source\PSoC6\pdl\rtos\FreeRTOS\9.0.0\Source/queue.c **** 	QueueHandle_t xHandle;
 672:Generated_Source\PSoC6\pdl\rtos\FreeRTOS\9.0.0\Source/queue.c **** 
 673:Generated_Source\PSoC6\pdl\rtos\FreeRTOS\9.0.0\Source/queue.c **** 		configASSERT( uxMaxCount != 0 );
 674:Generated_Source\PSoC6\pdl\rtos\FreeRTOS\9.0.0\Source/queue.c **** 		configASSERT( uxInitialCount <= uxMaxCount );
 675:Generated_Source\PSoC6\pdl\rtos\FreeRTOS\9.0.0\Source/queue.c **** 
 676:Generated_Source\PSoC6\pdl\rtos\FreeRTOS\9.0.0\Source/queue.c **** 		xHandle = xQueueGenericCreateStatic( uxMaxCount, queueSEMAPHORE_QUEUE_ITEM_LENGTH, NULL, pxStatic
 677:Generated_Source\PSoC6\pdl\rtos\FreeRTOS\9.0.0\Source/queue.c **** 
 678:Generated_Source\PSoC6\pdl\rtos\FreeRTOS\9.0.0\Source/queue.c **** 		if( xHandle != NULL )
 679:Generated_Source\PSoC6\pdl\rtos\FreeRTOS\9.0.0\Source/queue.c **** 		{
 680:Generated_Source\PSoC6\pdl\rtos\FreeRTOS\9.0.0\Source/queue.c **** 			( ( Queue_t * ) xHandle )->uxMessagesWaiting = uxInitialCount;
 681:Generated_Source\PSoC6\pdl\rtos\FreeRTOS\9.0.0\Source/queue.c **** 
 682:Generated_Source\PSoC6\pdl\rtos\FreeRTOS\9.0.0\Source/queue.c **** 			traceCREATE_COUNTING_SEMAPHORE();
 683:Generated_Source\PSoC6\pdl\rtos\FreeRTOS\9.0.0\Source/queue.c **** 		}
 684:Generated_Source\PSoC6\pdl\rtos\FreeRTOS\9.0.0\Source/queue.c **** 		else
 685:Generated_Source\PSoC6\pdl\rtos\FreeRTOS\9.0.0\Source/queue.c **** 		{
 686:Generated_Source\PSoC6\pdl\rtos\FreeRTOS\9.0.0\Source/queue.c **** 			traceCREATE_COUNTING_SEMAPHORE_FAILED();
 687:Generated_Source\PSoC6\pdl\rtos\FreeRTOS\9.0.0\Source/queue.c **** 		}
 688:Generated_Source\PSoC6\pdl\rtos\FreeRTOS\9.0.0\Source/queue.c **** 
 689:Generated_Source\PSoC6\pdl\rtos\FreeRTOS\9.0.0\Source/queue.c **** 		return xHandle;
 690:Generated_Source\PSoC6\pdl\rtos\FreeRTOS\9.0.0\Source/queue.c **** 	}
 691:Generated_Source\PSoC6\pdl\rtos\FreeRTOS\9.0.0\Source/queue.c **** 
 692:Generated_Source\PSoC6\pdl\rtos\FreeRTOS\9.0.0\Source/queue.c **** #endif /* ( ( configUSE_COUNTING_SEMAPHORES == 1 ) && ( configSUPPORT_DYNAMIC_ALLOCATION == 1 ) ) *
 693:Generated_Source\PSoC6\pdl\rtos\FreeRTOS\9.0.0\Source/queue.c **** /*-----------------------------------------------------------*/
 694:Generated_Source\PSoC6\pdl\rtos\FreeRTOS\9.0.0\Source/queue.c **** 
 695:Generated_Source\PSoC6\pdl\rtos\FreeRTOS\9.0.0\Source/queue.c **** #if( ( configUSE_COUNTING_SEMAPHORES == 1 ) && ( configSUPPORT_DYNAMIC_ALLOCATION == 1 ) )
 696:Generated_Source\PSoC6\pdl\rtos\FreeRTOS\9.0.0\Source/queue.c **** 
 697:Generated_Source\PSoC6\pdl\rtos\FreeRTOS\9.0.0\Source/queue.c **** 	QueueHandle_t xQueueCreateCountingSemaphore( const UBaseType_t uxMaxCount, const UBaseType_t uxIni
 698:Generated_Source\PSoC6\pdl\rtos\FreeRTOS\9.0.0\Source/queue.c **** 	{
 699:Generated_Source\PSoC6\pdl\rtos\FreeRTOS\9.0.0\Source/queue.c **** 	QueueHandle_t xHandle;
 700:Generated_Source\PSoC6\pdl\rtos\FreeRTOS\9.0.0\Source/queue.c **** 
 701:Generated_Source\PSoC6\pdl\rtos\FreeRTOS\9.0.0\Source/queue.c **** 		configASSERT( uxMaxCount != 0 );
 702:Generated_Source\PSoC6\pdl\rtos\FreeRTOS\9.0.0\Source/queue.c **** 		configASSERT( uxInitialCount <= uxMaxCount );
 703:Generated_Source\PSoC6\pdl\rtos\FreeRTOS\9.0.0\Source/queue.c **** 
ARM GAS  C:\Users\ikomb\AppData\Local\Temp\cc9p1klJ.s 			page 19


 704:Generated_Source\PSoC6\pdl\rtos\FreeRTOS\9.0.0\Source/queue.c **** 		xHandle = xQueueGenericCreate( uxMaxCount, queueSEMAPHORE_QUEUE_ITEM_LENGTH, queueQUEUE_TYPE_COUN
 705:Generated_Source\PSoC6\pdl\rtos\FreeRTOS\9.0.0\Source/queue.c **** 
 706:Generated_Source\PSoC6\pdl\rtos\FreeRTOS\9.0.0\Source/queue.c **** 		if( xHandle != NULL )
 707:Generated_Source\PSoC6\pdl\rtos\FreeRTOS\9.0.0\Source/queue.c **** 		{
 708:Generated_Source\PSoC6\pdl\rtos\FreeRTOS\9.0.0\Source/queue.c **** 			( ( Queue_t * ) xHandle )->uxMessagesWaiting = uxInitialCount;
 709:Generated_Source\PSoC6\pdl\rtos\FreeRTOS\9.0.0\Source/queue.c **** 
 710:Generated_Source\PSoC6\pdl\rtos\FreeRTOS\9.0.0\Source/queue.c **** 			traceCREATE_COUNTING_SEMAPHORE();
 711:Generated_Source\PSoC6\pdl\rtos\FreeRTOS\9.0.0\Source/queue.c **** 		}
 712:Generated_Source\PSoC6\pdl\rtos\FreeRTOS\9.0.0\Source/queue.c **** 		else
 713:Generated_Source\PSoC6\pdl\rtos\FreeRTOS\9.0.0\Source/queue.c **** 		{
 714:Generated_Source\PSoC6\pdl\rtos\FreeRTOS\9.0.0\Source/queue.c **** 			traceCREATE_COUNTING_SEMAPHORE_FAILED();
 715:Generated_Source\PSoC6\pdl\rtos\FreeRTOS\9.0.0\Source/queue.c **** 		}
 716:Generated_Source\PSoC6\pdl\rtos\FreeRTOS\9.0.0\Source/queue.c **** 
 717:Generated_Source\PSoC6\pdl\rtos\FreeRTOS\9.0.0\Source/queue.c **** 		return xHandle;
 718:Generated_Source\PSoC6\pdl\rtos\FreeRTOS\9.0.0\Source/queue.c **** 	}
 719:Generated_Source\PSoC6\pdl\rtos\FreeRTOS\9.0.0\Source/queue.c **** 
 720:Generated_Source\PSoC6\pdl\rtos\FreeRTOS\9.0.0\Source/queue.c **** #endif /* ( ( configUSE_COUNTING_SEMAPHORES == 1 ) && ( configSUPPORT_DYNAMIC_ALLOCATION == 1 ) ) *
 721:Generated_Source\PSoC6\pdl\rtos\FreeRTOS\9.0.0\Source/queue.c **** /*-----------------------------------------------------------*/
 722:Generated_Source\PSoC6\pdl\rtos\FreeRTOS\9.0.0\Source/queue.c **** 
 723:Generated_Source\PSoC6\pdl\rtos\FreeRTOS\9.0.0\Source/queue.c **** BaseType_t xQueueGenericSend( QueueHandle_t xQueue, const void * const pvItemToQueue, TickType_t xT
 724:Generated_Source\PSoC6\pdl\rtos\FreeRTOS\9.0.0\Source/queue.c **** {
 324              		.loc 1 724 0
 325              		.cfi_startproc
 326              		@ args = 0, pretend = 0, frame = 40
 327              		@ frame_needed = 1, uses_anonymous_args = 0
 328 0000 80B5     		push	{r7, lr}
 329              		.cfi_def_cfa_offset 8
 330              		.cfi_offset 7, -8
 331              		.cfi_offset 14, -4
 332 0002 8AB0     		sub	sp, sp, #40
 333              		.cfi_def_cfa_offset 48
 334 0004 00AF     		add	r7, sp, #0
 335              		.cfi_def_cfa_register 7
 336 0006 F860     		str	r0, [r7, #12]
 337 0008 B960     		str	r1, [r7, #8]
 338 000a 7A60     		str	r2, [r7, #4]
 339 000c 3B60     		str	r3, [r7]
 725:Generated_Source\PSoC6\pdl\rtos\FreeRTOS\9.0.0\Source/queue.c **** BaseType_t xEntryTimeSet = pdFALSE, xYieldRequired;
 340              		.loc 1 725 0
 341 000e 0023     		movs	r3, #0
 342 0010 7B62     		str	r3, [r7, #36]
 726:Generated_Source\PSoC6\pdl\rtos\FreeRTOS\9.0.0\Source/queue.c **** TimeOut_t xTimeOut;
 727:Generated_Source\PSoC6\pdl\rtos\FreeRTOS\9.0.0\Source/queue.c **** Queue_t * const pxQueue = ( Queue_t * ) xQueue;
 343              		.loc 1 727 0
 344 0012 FB68     		ldr	r3, [r7, #12]
 345 0014 3B62     		str	r3, [r7, #32]
 728:Generated_Source\PSoC6\pdl\rtos\FreeRTOS\9.0.0\Source/queue.c **** 
 729:Generated_Source\PSoC6\pdl\rtos\FreeRTOS\9.0.0\Source/queue.c **** 	configASSERT( pxQueue );
 346              		.loc 1 729 0
 347 0016 3B6A     		ldr	r3, [r7, #32]
 348 0018 002B     		cmp	r3, #0
 349 001a 01D1     		bne	.L20
 350              		.loc 1 729 0 is_stmt 0 discriminator 1
 351              		.syntax unified
 352              	@ 729 "Generated_Source\PSoC6\pdl\rtos\FreeRTOS\9.0.0\Source\queue.c" 1
 353 001c 72B6     		 cpsid i 
 354              	@ 0 "" 2
ARM GAS  C:\Users\ikomb\AppData\Local\Temp\cc9p1klJ.s 			page 20


 355              		.thumb
 356              		.syntax unified
 357              	.L21:
 358 001e FEE7     		b	.L21
 359              	.L20:
 730:Generated_Source\PSoC6\pdl\rtos\FreeRTOS\9.0.0\Source/queue.c **** 	configASSERT( !( ( pvItemToQueue == NULL ) && ( pxQueue->uxItemSize != ( UBaseType_t ) 0U ) ) );
 360              		.loc 1 730 0 is_stmt 1
 361 0020 BB68     		ldr	r3, [r7, #8]
 362 0022 002B     		cmp	r3, #0
 363 0024 03D1     		bne	.L22
 364              		.loc 1 730 0 is_stmt 0 discriminator 2
 365 0026 3B6A     		ldr	r3, [r7, #32]
 366 0028 1B6C     		ldr	r3, [r3, #64]
 367 002a 002B     		cmp	r3, #0
 368 002c 01D1     		bne	.L23
 369              	.L22:
 370              		.loc 1 730 0 discriminator 3
 371 002e 0123     		movs	r3, #1
 372 0030 00E0     		b	.L24
 373              	.L23:
 374              		.loc 1 730 0 discriminator 4
 375 0032 0023     		movs	r3, #0
 376              	.L24:
 377              		.loc 1 730 0 discriminator 6
 378 0034 002B     		cmp	r3, #0
 379 0036 01D1     		bne	.L25
 380              		.loc 1 730 0 discriminator 7
 381              		.syntax unified
 382              	@ 730 "Generated_Source\PSoC6\pdl\rtos\FreeRTOS\9.0.0\Source\queue.c" 1
 383 0038 72B6     		 cpsid i 
 384              	@ 0 "" 2
 385              		.thumb
 386              		.syntax unified
 387              	.L26:
 388              		.loc 1 730 0 discriminator 2
 389 003a FEE7     		b	.L26
 390              	.L25:
 731:Generated_Source\PSoC6\pdl\rtos\FreeRTOS\9.0.0\Source/queue.c **** 	configASSERT( !( ( xCopyPosition == queueOVERWRITE ) && ( pxQueue->uxLength != 1 ) ) );
 391              		.loc 1 731 0 is_stmt 1
 392 003c 3B68     		ldr	r3, [r7]
 393 003e 022B     		cmp	r3, #2
 394 0040 03D1     		bne	.L27
 395              		.loc 1 731 0 is_stmt 0 discriminator 2
 396 0042 3B6A     		ldr	r3, [r7, #32]
 397 0044 DB6B     		ldr	r3, [r3, #60]
 398 0046 012B     		cmp	r3, #1
 399 0048 01D1     		bne	.L28
 400              	.L27:
 401              		.loc 1 731 0 discriminator 3
 402 004a 0123     		movs	r3, #1
 403 004c 00E0     		b	.L29
 404              	.L28:
 405              		.loc 1 731 0 discriminator 4
 406 004e 0023     		movs	r3, #0
 407              	.L29:
 408              		.loc 1 731 0 discriminator 6
 409 0050 002B     		cmp	r3, #0
ARM GAS  C:\Users\ikomb\AppData\Local\Temp\cc9p1klJ.s 			page 21


 410 0052 01D1     		bne	.L30
 411              		.loc 1 731 0 discriminator 7
 412              		.syntax unified
 413              	@ 731 "Generated_Source\PSoC6\pdl\rtos\FreeRTOS\9.0.0\Source\queue.c" 1
 414 0054 72B6     		 cpsid i 
 415              	@ 0 "" 2
 416              		.thumb
 417              		.syntax unified
 418              	.L31:
 419              		.loc 1 731 0 discriminator 3
 420 0056 FEE7     		b	.L31
 421              	.L30:
 732:Generated_Source\PSoC6\pdl\rtos\FreeRTOS\9.0.0\Source/queue.c **** 	#if ( ( INCLUDE_xTaskGetSchedulerState == 1 ) || ( configUSE_TIMERS == 1 ) )
 733:Generated_Source\PSoC6\pdl\rtos\FreeRTOS\9.0.0\Source/queue.c **** 	{
 734:Generated_Source\PSoC6\pdl\rtos\FreeRTOS\9.0.0\Source/queue.c **** 		configASSERT( !( ( xTaskGetSchedulerState() == taskSCHEDULER_SUSPENDED ) && ( xTicksToWait != 0 )
 422              		.loc 1 734 0 is_stmt 1
 423 0058 FFF7FEFF 		bl	xTaskGetSchedulerState
 424 005c 0346     		mov	r3, r0
 425 005e 002B     		cmp	r3, #0
 426 0060 02D1     		bne	.L32
 427              		.loc 1 734 0 is_stmt 0 discriminator 2
 428 0062 7B68     		ldr	r3, [r7, #4]
 429 0064 002B     		cmp	r3, #0
 430 0066 01D1     		bne	.L33
 431              	.L32:
 432              		.loc 1 734 0 discriminator 3
 433 0068 0123     		movs	r3, #1
 434 006a 00E0     		b	.L34
 435              	.L33:
 436              		.loc 1 734 0 discriminator 4
 437 006c 0023     		movs	r3, #0
 438              	.L34:
 439              		.loc 1 734 0 discriminator 6
 440 006e 002B     		cmp	r3, #0
 441 0070 01D1     		bne	.L35
 442              		.loc 1 734 0 discriminator 7
 443              		.syntax unified
 444              	@ 734 "Generated_Source\PSoC6\pdl\rtos\FreeRTOS\9.0.0\Source\queue.c" 1
 445 0072 72B6     		 cpsid i 
 446              	@ 0 "" 2
 447              		.thumb
 448              		.syntax unified
 449              	.L36:
 450              		.loc 1 734 0 discriminator 4
 451 0074 FEE7     		b	.L36
 452              	.L35:
 735:Generated_Source\PSoC6\pdl\rtos\FreeRTOS\9.0.0\Source/queue.c **** 	}
 736:Generated_Source\PSoC6\pdl\rtos\FreeRTOS\9.0.0\Source/queue.c **** 	#endif
 737:Generated_Source\PSoC6\pdl\rtos\FreeRTOS\9.0.0\Source/queue.c **** 
 738:Generated_Source\PSoC6\pdl\rtos\FreeRTOS\9.0.0\Source/queue.c **** 
 739:Generated_Source\PSoC6\pdl\rtos\FreeRTOS\9.0.0\Source/queue.c **** 	/* This function relaxes the coding standard somewhat to allow return
 740:Generated_Source\PSoC6\pdl\rtos\FreeRTOS\9.0.0\Source/queue.c **** 	statements within the function itself.  This is done in the interest
 741:Generated_Source\PSoC6\pdl\rtos\FreeRTOS\9.0.0\Source/queue.c **** 	of execution time efficiency. */
 742:Generated_Source\PSoC6\pdl\rtos\FreeRTOS\9.0.0\Source/queue.c **** 	for( ;; )
 743:Generated_Source\PSoC6\pdl\rtos\FreeRTOS\9.0.0\Source/queue.c **** 	{
 744:Generated_Source\PSoC6\pdl\rtos\FreeRTOS\9.0.0\Source/queue.c **** 		taskENTER_CRITICAL();
 453              		.loc 1 744 0 is_stmt 1
ARM GAS  C:\Users\ikomb\AppData\Local\Temp\cc9p1klJ.s 			page 22


 454 0076 FFF7FEFF 		bl	vPortEnterCritical
 745:Generated_Source\PSoC6\pdl\rtos\FreeRTOS\9.0.0\Source/queue.c **** 		{
 746:Generated_Source\PSoC6\pdl\rtos\FreeRTOS\9.0.0\Source/queue.c **** 			/* Is there room on the queue now?  The running task must be the
 747:Generated_Source\PSoC6\pdl\rtos\FreeRTOS\9.0.0\Source/queue.c **** 			highest priority task wanting to access the queue.  If the head item
 748:Generated_Source\PSoC6\pdl\rtos\FreeRTOS\9.0.0\Source/queue.c **** 			in the queue is to be overwritten then it does not matter if the
 749:Generated_Source\PSoC6\pdl\rtos\FreeRTOS\9.0.0\Source/queue.c **** 			queue is full. */
 750:Generated_Source\PSoC6\pdl\rtos\FreeRTOS\9.0.0\Source/queue.c **** 			if( ( pxQueue->uxMessagesWaiting < pxQueue->uxLength ) || ( xCopyPosition == queueOVERWRITE ) )
 455              		.loc 1 750 0
 456 007a 3B6A     		ldr	r3, [r7, #32]
 457 007c 9A6B     		ldr	r2, [r3, #56]
 458 007e 3B6A     		ldr	r3, [r7, #32]
 459 0080 DB6B     		ldr	r3, [r3, #60]
 460 0082 9A42     		cmp	r2, r3
 461 0084 02D3     		bcc	.L37
 462              		.loc 1 750 0 is_stmt 0 discriminator 1
 463 0086 3B68     		ldr	r3, [r7]
 464 0088 022B     		cmp	r3, #2
 465 008a 29D1     		bne	.L38
 466              	.L37:
 751:Generated_Source\PSoC6\pdl\rtos\FreeRTOS\9.0.0\Source/queue.c **** 			{
 752:Generated_Source\PSoC6\pdl\rtos\FreeRTOS\9.0.0\Source/queue.c **** 				traceQUEUE_SEND( pxQueue );
 753:Generated_Source\PSoC6\pdl\rtos\FreeRTOS\9.0.0\Source/queue.c **** 				xYieldRequired = prvCopyDataToQueue( pxQueue, pvItemToQueue, xCopyPosition );
 467              		.loc 1 753 0 is_stmt 1
 468 008c 3A68     		ldr	r2, [r7]
 469 008e B968     		ldr	r1, [r7, #8]
 470 0090 386A     		ldr	r0, [r7, #32]
 471 0092 FFF7FEFF 		bl	prvCopyDataToQueue
 472 0096 F861     		str	r0, [r7, #28]
 754:Generated_Source\PSoC6\pdl\rtos\FreeRTOS\9.0.0\Source/queue.c **** 
 755:Generated_Source\PSoC6\pdl\rtos\FreeRTOS\9.0.0\Source/queue.c **** 				#if ( configUSE_QUEUE_SETS == 1 )
 756:Generated_Source\PSoC6\pdl\rtos\FreeRTOS\9.0.0\Source/queue.c **** 				{
 757:Generated_Source\PSoC6\pdl\rtos\FreeRTOS\9.0.0\Source/queue.c **** 					if( pxQueue->pxQueueSetContainer != NULL )
 758:Generated_Source\PSoC6\pdl\rtos\FreeRTOS\9.0.0\Source/queue.c **** 					{
 759:Generated_Source\PSoC6\pdl\rtos\FreeRTOS\9.0.0\Source/queue.c **** 						if( prvNotifyQueueSetContainer( pxQueue, xCopyPosition ) != pdFALSE )
 760:Generated_Source\PSoC6\pdl\rtos\FreeRTOS\9.0.0\Source/queue.c **** 						{
 761:Generated_Source\PSoC6\pdl\rtos\FreeRTOS\9.0.0\Source/queue.c **** 							/* The queue is a member of a queue set, and posting
 762:Generated_Source\PSoC6\pdl\rtos\FreeRTOS\9.0.0\Source/queue.c **** 							to the queue set caused a higher priority task to
 763:Generated_Source\PSoC6\pdl\rtos\FreeRTOS\9.0.0\Source/queue.c **** 							unblock. A context switch is required. */
 764:Generated_Source\PSoC6\pdl\rtos\FreeRTOS\9.0.0\Source/queue.c **** 							queueYIELD_IF_USING_PREEMPTION();
 765:Generated_Source\PSoC6\pdl\rtos\FreeRTOS\9.0.0\Source/queue.c **** 						}
 766:Generated_Source\PSoC6\pdl\rtos\FreeRTOS\9.0.0\Source/queue.c **** 						else
 767:Generated_Source\PSoC6\pdl\rtos\FreeRTOS\9.0.0\Source/queue.c **** 						{
 768:Generated_Source\PSoC6\pdl\rtos\FreeRTOS\9.0.0\Source/queue.c **** 							mtCOVERAGE_TEST_MARKER();
 769:Generated_Source\PSoC6\pdl\rtos\FreeRTOS\9.0.0\Source/queue.c **** 						}
 770:Generated_Source\PSoC6\pdl\rtos\FreeRTOS\9.0.0\Source/queue.c **** 					}
 771:Generated_Source\PSoC6\pdl\rtos\FreeRTOS\9.0.0\Source/queue.c **** 					else
 772:Generated_Source\PSoC6\pdl\rtos\FreeRTOS\9.0.0\Source/queue.c **** 					{
 773:Generated_Source\PSoC6\pdl\rtos\FreeRTOS\9.0.0\Source/queue.c **** 						/* If there was a task waiting for data to arrive on the
 774:Generated_Source\PSoC6\pdl\rtos\FreeRTOS\9.0.0\Source/queue.c **** 						queue then unblock it now. */
 775:Generated_Source\PSoC6\pdl\rtos\FreeRTOS\9.0.0\Source/queue.c **** 						if( listLIST_IS_EMPTY( &( pxQueue->xTasksWaitingToReceive ) ) == pdFALSE )
 776:Generated_Source\PSoC6\pdl\rtos\FreeRTOS\9.0.0\Source/queue.c **** 						{
 777:Generated_Source\PSoC6\pdl\rtos\FreeRTOS\9.0.0\Source/queue.c **** 							if( xTaskRemoveFromEventList( &( pxQueue->xTasksWaitingToReceive ) ) != pdFALSE )
 778:Generated_Source\PSoC6\pdl\rtos\FreeRTOS\9.0.0\Source/queue.c **** 							{
 779:Generated_Source\PSoC6\pdl\rtos\FreeRTOS\9.0.0\Source/queue.c **** 								/* The unblocked task has a priority higher than
 780:Generated_Source\PSoC6\pdl\rtos\FreeRTOS\9.0.0\Source/queue.c **** 								our own so yield immediately.  Yes it is ok to
 781:Generated_Source\PSoC6\pdl\rtos\FreeRTOS\9.0.0\Source/queue.c **** 								do this from within the critical section - the
 782:Generated_Source\PSoC6\pdl\rtos\FreeRTOS\9.0.0\Source/queue.c **** 								kernel takes care of that. */
ARM GAS  C:\Users\ikomb\AppData\Local\Temp\cc9p1klJ.s 			page 23


 783:Generated_Source\PSoC6\pdl\rtos\FreeRTOS\9.0.0\Source/queue.c **** 								queueYIELD_IF_USING_PREEMPTION();
 784:Generated_Source\PSoC6\pdl\rtos\FreeRTOS\9.0.0\Source/queue.c **** 							}
 785:Generated_Source\PSoC6\pdl\rtos\FreeRTOS\9.0.0\Source/queue.c **** 							else
 786:Generated_Source\PSoC6\pdl\rtos\FreeRTOS\9.0.0\Source/queue.c **** 							{
 787:Generated_Source\PSoC6\pdl\rtos\FreeRTOS\9.0.0\Source/queue.c **** 								mtCOVERAGE_TEST_MARKER();
 788:Generated_Source\PSoC6\pdl\rtos\FreeRTOS\9.0.0\Source/queue.c **** 							}
 789:Generated_Source\PSoC6\pdl\rtos\FreeRTOS\9.0.0\Source/queue.c **** 						}
 790:Generated_Source\PSoC6\pdl\rtos\FreeRTOS\9.0.0\Source/queue.c **** 						else if( xYieldRequired != pdFALSE )
 791:Generated_Source\PSoC6\pdl\rtos\FreeRTOS\9.0.0\Source/queue.c **** 						{
 792:Generated_Source\PSoC6\pdl\rtos\FreeRTOS\9.0.0\Source/queue.c **** 							/* This path is a special case that will only get
 793:Generated_Source\PSoC6\pdl\rtos\FreeRTOS\9.0.0\Source/queue.c **** 							executed if the task was holding multiple mutexes
 794:Generated_Source\PSoC6\pdl\rtos\FreeRTOS\9.0.0\Source/queue.c **** 							and the mutexes were given back in an order that is
 795:Generated_Source\PSoC6\pdl\rtos\FreeRTOS\9.0.0\Source/queue.c **** 							different to that in which they were taken. */
 796:Generated_Source\PSoC6\pdl\rtos\FreeRTOS\9.0.0\Source/queue.c **** 							queueYIELD_IF_USING_PREEMPTION();
 797:Generated_Source\PSoC6\pdl\rtos\FreeRTOS\9.0.0\Source/queue.c **** 						}
 798:Generated_Source\PSoC6\pdl\rtos\FreeRTOS\9.0.0\Source/queue.c **** 						else
 799:Generated_Source\PSoC6\pdl\rtos\FreeRTOS\9.0.0\Source/queue.c **** 						{
 800:Generated_Source\PSoC6\pdl\rtos\FreeRTOS\9.0.0\Source/queue.c **** 							mtCOVERAGE_TEST_MARKER();
 801:Generated_Source\PSoC6\pdl\rtos\FreeRTOS\9.0.0\Source/queue.c **** 						}
 802:Generated_Source\PSoC6\pdl\rtos\FreeRTOS\9.0.0\Source/queue.c **** 					}
 803:Generated_Source\PSoC6\pdl\rtos\FreeRTOS\9.0.0\Source/queue.c **** 				}
 804:Generated_Source\PSoC6\pdl\rtos\FreeRTOS\9.0.0\Source/queue.c **** 				#else /* configUSE_QUEUE_SETS */
 805:Generated_Source\PSoC6\pdl\rtos\FreeRTOS\9.0.0\Source/queue.c **** 				{
 806:Generated_Source\PSoC6\pdl\rtos\FreeRTOS\9.0.0\Source/queue.c **** 					/* If there was a task waiting for data to arrive on the
 807:Generated_Source\PSoC6\pdl\rtos\FreeRTOS\9.0.0\Source/queue.c **** 					queue then unblock it now. */
 808:Generated_Source\PSoC6\pdl\rtos\FreeRTOS\9.0.0\Source/queue.c **** 					if( listLIST_IS_EMPTY( &( pxQueue->xTasksWaitingToReceive ) ) == pdFALSE )
 473              		.loc 1 808 0
 474 0098 3B6A     		ldr	r3, [r7, #32]
 475 009a 5B6A     		ldr	r3, [r3, #36]
 476 009c 002B     		cmp	r3, #0
 477 009e 10D0     		beq	.L39
 809:Generated_Source\PSoC6\pdl\rtos\FreeRTOS\9.0.0\Source/queue.c **** 					{
 810:Generated_Source\PSoC6\pdl\rtos\FreeRTOS\9.0.0\Source/queue.c **** 						if( xTaskRemoveFromEventList( &( pxQueue->xTasksWaitingToReceive ) ) != pdFALSE )
 478              		.loc 1 810 0
 479 00a0 3B6A     		ldr	r3, [r7, #32]
 480 00a2 2433     		adds	r3, r3, #36
 481 00a4 1846     		mov	r0, r3
 482 00a6 FFF7FEFF 		bl	xTaskRemoveFromEventList
 483 00aa 0346     		mov	r3, r0
 484 00ac 002B     		cmp	r3, #0
 485 00ae 13D0     		beq	.L40
 811:Generated_Source\PSoC6\pdl\rtos\FreeRTOS\9.0.0\Source/queue.c **** 						{
 812:Generated_Source\PSoC6\pdl\rtos\FreeRTOS\9.0.0\Source/queue.c **** 							/* The unblocked task has a priority higher than
 813:Generated_Source\PSoC6\pdl\rtos\FreeRTOS\9.0.0\Source/queue.c **** 							our own so yield immediately.  Yes it is ok to do
 814:Generated_Source\PSoC6\pdl\rtos\FreeRTOS\9.0.0\Source/queue.c **** 							this from within the critical section - the kernel
 815:Generated_Source\PSoC6\pdl\rtos\FreeRTOS\9.0.0\Source/queue.c **** 							takes care of that. */
 816:Generated_Source\PSoC6\pdl\rtos\FreeRTOS\9.0.0\Source/queue.c **** 							queueYIELD_IF_USING_PREEMPTION();
 486              		.loc 1 816 0
 487 00b0 3F4B     		ldr	r3, .L52
 488 00b2 4FF08052 		mov	r2, #268435456
 489 00b6 1A60     		str	r2, [r3]
 490              		.syntax unified
 491              	@ 816 "Generated_Source\PSoC6\pdl\rtos\FreeRTOS\9.0.0\Source\queue.c" 1
 492 00b8 BFF34F8F 		dsb
 493              	@ 0 "" 2
 494              	@ 816 "Generated_Source\PSoC6\pdl\rtos\FreeRTOS\9.0.0\Source\queue.c" 1
 495 00bc BFF36F8F 		isb
ARM GAS  C:\Users\ikomb\AppData\Local\Temp\cc9p1klJ.s 			page 24


 496              	@ 0 "" 2
 497              		.thumb
 498              		.syntax unified
 499 00c0 0AE0     		b	.L40
 500              	.L39:
 817:Generated_Source\PSoC6\pdl\rtos\FreeRTOS\9.0.0\Source/queue.c **** 						}
 818:Generated_Source\PSoC6\pdl\rtos\FreeRTOS\9.0.0\Source/queue.c **** 						else
 819:Generated_Source\PSoC6\pdl\rtos\FreeRTOS\9.0.0\Source/queue.c **** 						{
 820:Generated_Source\PSoC6\pdl\rtos\FreeRTOS\9.0.0\Source/queue.c **** 							mtCOVERAGE_TEST_MARKER();
 821:Generated_Source\PSoC6\pdl\rtos\FreeRTOS\9.0.0\Source/queue.c **** 						}
 822:Generated_Source\PSoC6\pdl\rtos\FreeRTOS\9.0.0\Source/queue.c **** 					}
 823:Generated_Source\PSoC6\pdl\rtos\FreeRTOS\9.0.0\Source/queue.c **** 					else if( xYieldRequired != pdFALSE )
 501              		.loc 1 823 0
 502 00c2 FB69     		ldr	r3, [r7, #28]
 503 00c4 002B     		cmp	r3, #0
 504 00c6 07D0     		beq	.L40
 824:Generated_Source\PSoC6\pdl\rtos\FreeRTOS\9.0.0\Source/queue.c **** 					{
 825:Generated_Source\PSoC6\pdl\rtos\FreeRTOS\9.0.0\Source/queue.c **** 						/* This path is a special case that will only get
 826:Generated_Source\PSoC6\pdl\rtos\FreeRTOS\9.0.0\Source/queue.c **** 						executed if the task was holding multiple mutexes and
 827:Generated_Source\PSoC6\pdl\rtos\FreeRTOS\9.0.0\Source/queue.c **** 						the mutexes were given back in an order that is
 828:Generated_Source\PSoC6\pdl\rtos\FreeRTOS\9.0.0\Source/queue.c **** 						different to that in which they were taken. */
 829:Generated_Source\PSoC6\pdl\rtos\FreeRTOS\9.0.0\Source/queue.c **** 						queueYIELD_IF_USING_PREEMPTION();
 505              		.loc 1 829 0
 506 00c8 394B     		ldr	r3, .L52
 507 00ca 4FF08052 		mov	r2, #268435456
 508 00ce 1A60     		str	r2, [r3]
 509              		.syntax unified
 510              	@ 829 "Generated_Source\PSoC6\pdl\rtos\FreeRTOS\9.0.0\Source\queue.c" 1
 511 00d0 BFF34F8F 		dsb
 512              	@ 0 "" 2
 513              	@ 829 "Generated_Source\PSoC6\pdl\rtos\FreeRTOS\9.0.0\Source\queue.c" 1
 514 00d4 BFF36F8F 		isb
 515              	@ 0 "" 2
 516              		.thumb
 517              		.syntax unified
 518              	.L40:
 830:Generated_Source\PSoC6\pdl\rtos\FreeRTOS\9.0.0\Source/queue.c **** 					}
 831:Generated_Source\PSoC6\pdl\rtos\FreeRTOS\9.0.0\Source/queue.c **** 					else
 832:Generated_Source\PSoC6\pdl\rtos\FreeRTOS\9.0.0\Source/queue.c **** 					{
 833:Generated_Source\PSoC6\pdl\rtos\FreeRTOS\9.0.0\Source/queue.c **** 						mtCOVERAGE_TEST_MARKER();
 834:Generated_Source\PSoC6\pdl\rtos\FreeRTOS\9.0.0\Source/queue.c **** 					}
 835:Generated_Source\PSoC6\pdl\rtos\FreeRTOS\9.0.0\Source/queue.c **** 				}
 836:Generated_Source\PSoC6\pdl\rtos\FreeRTOS\9.0.0\Source/queue.c **** 				#endif /* configUSE_QUEUE_SETS */
 837:Generated_Source\PSoC6\pdl\rtos\FreeRTOS\9.0.0\Source/queue.c **** 
 838:Generated_Source\PSoC6\pdl\rtos\FreeRTOS\9.0.0\Source/queue.c **** 				taskEXIT_CRITICAL();
 519              		.loc 1 838 0
 520 00d8 FFF7FEFF 		bl	vPortExitCritical
 839:Generated_Source\PSoC6\pdl\rtos\FreeRTOS\9.0.0\Source/queue.c **** 				return pdPASS;
 521              		.loc 1 839 0
 522 00dc 0123     		movs	r3, #1
 523 00de 63E0     		b	.L51
 524              	.L38:
 840:Generated_Source\PSoC6\pdl\rtos\FreeRTOS\9.0.0\Source/queue.c **** 			}
 841:Generated_Source\PSoC6\pdl\rtos\FreeRTOS\9.0.0\Source/queue.c **** 			else
 842:Generated_Source\PSoC6\pdl\rtos\FreeRTOS\9.0.0\Source/queue.c **** 			{
 843:Generated_Source\PSoC6\pdl\rtos\FreeRTOS\9.0.0\Source/queue.c **** 				if( xTicksToWait == ( TickType_t ) 0 )
 525              		.loc 1 843 0
ARM GAS  C:\Users\ikomb\AppData\Local\Temp\cc9p1klJ.s 			page 25


 526 00e0 7B68     		ldr	r3, [r7, #4]
 527 00e2 002B     		cmp	r3, #0
 528 00e4 03D1     		bne	.L42
 844:Generated_Source\PSoC6\pdl\rtos\FreeRTOS\9.0.0\Source/queue.c **** 				{
 845:Generated_Source\PSoC6\pdl\rtos\FreeRTOS\9.0.0\Source/queue.c **** 					/* The queue was full and no block time is specified (or
 846:Generated_Source\PSoC6\pdl\rtos\FreeRTOS\9.0.0\Source/queue.c **** 					the block time has expired) so leave now. */
 847:Generated_Source\PSoC6\pdl\rtos\FreeRTOS\9.0.0\Source/queue.c **** 					taskEXIT_CRITICAL();
 529              		.loc 1 847 0
 530 00e6 FFF7FEFF 		bl	vPortExitCritical
 848:Generated_Source\PSoC6\pdl\rtos\FreeRTOS\9.0.0\Source/queue.c **** 
 849:Generated_Source\PSoC6\pdl\rtos\FreeRTOS\9.0.0\Source/queue.c **** 					/* Return to the original privilege level before exiting
 850:Generated_Source\PSoC6\pdl\rtos\FreeRTOS\9.0.0\Source/queue.c **** 					the function. */
 851:Generated_Source\PSoC6\pdl\rtos\FreeRTOS\9.0.0\Source/queue.c **** 					traceQUEUE_SEND_FAILED( pxQueue );
 852:Generated_Source\PSoC6\pdl\rtos\FreeRTOS\9.0.0\Source/queue.c **** 					return errQUEUE_FULL;
 531              		.loc 1 852 0
 532 00ea 0023     		movs	r3, #0
 533 00ec 5CE0     		b	.L51
 534              	.L42:
 853:Generated_Source\PSoC6\pdl\rtos\FreeRTOS\9.0.0\Source/queue.c **** 				}
 854:Generated_Source\PSoC6\pdl\rtos\FreeRTOS\9.0.0\Source/queue.c **** 				else if( xEntryTimeSet == pdFALSE )
 535              		.loc 1 854 0
 536 00ee 7B6A     		ldr	r3, [r7, #36]
 537 00f0 002B     		cmp	r3, #0
 538 00f2 06D1     		bne	.L43
 855:Generated_Source\PSoC6\pdl\rtos\FreeRTOS\9.0.0\Source/queue.c **** 				{
 856:Generated_Source\PSoC6\pdl\rtos\FreeRTOS\9.0.0\Source/queue.c **** 					/* The queue was full and a block time was specified so
 857:Generated_Source\PSoC6\pdl\rtos\FreeRTOS\9.0.0\Source/queue.c **** 					configure the timeout structure. */
 858:Generated_Source\PSoC6\pdl\rtos\FreeRTOS\9.0.0\Source/queue.c **** 					vTaskSetTimeOutState( &xTimeOut );
 539              		.loc 1 858 0
 540 00f4 07F11403 		add	r3, r7, #20
 541 00f8 1846     		mov	r0, r3
 542 00fa FFF7FEFF 		bl	vTaskSetTimeOutState
 859:Generated_Source\PSoC6\pdl\rtos\FreeRTOS\9.0.0\Source/queue.c **** 					xEntryTimeSet = pdTRUE;
 543              		.loc 1 859 0
 544 00fe 0123     		movs	r3, #1
 545 0100 7B62     		str	r3, [r7, #36]
 546              	.L43:
 860:Generated_Source\PSoC6\pdl\rtos\FreeRTOS\9.0.0\Source/queue.c **** 				}
 861:Generated_Source\PSoC6\pdl\rtos\FreeRTOS\9.0.0\Source/queue.c **** 				else
 862:Generated_Source\PSoC6\pdl\rtos\FreeRTOS\9.0.0\Source/queue.c **** 				{
 863:Generated_Source\PSoC6\pdl\rtos\FreeRTOS\9.0.0\Source/queue.c **** 					/* Entry time was already set. */
 864:Generated_Source\PSoC6\pdl\rtos\FreeRTOS\9.0.0\Source/queue.c **** 					mtCOVERAGE_TEST_MARKER();
 865:Generated_Source\PSoC6\pdl\rtos\FreeRTOS\9.0.0\Source/queue.c **** 				}
 866:Generated_Source\PSoC6\pdl\rtos\FreeRTOS\9.0.0\Source/queue.c **** 			}
 867:Generated_Source\PSoC6\pdl\rtos\FreeRTOS\9.0.0\Source/queue.c **** 		}
 868:Generated_Source\PSoC6\pdl\rtos\FreeRTOS\9.0.0\Source/queue.c **** 		taskEXIT_CRITICAL();
 547              		.loc 1 868 0
 548 0102 FFF7FEFF 		bl	vPortExitCritical
 869:Generated_Source\PSoC6\pdl\rtos\FreeRTOS\9.0.0\Source/queue.c **** 
 870:Generated_Source\PSoC6\pdl\rtos\FreeRTOS\9.0.0\Source/queue.c **** 		/* Interrupts and other tasks can send to and receive from the queue
 871:Generated_Source\PSoC6\pdl\rtos\FreeRTOS\9.0.0\Source/queue.c **** 		now the critical section has been exited. */
 872:Generated_Source\PSoC6\pdl\rtos\FreeRTOS\9.0.0\Source/queue.c **** 
 873:Generated_Source\PSoC6\pdl\rtos\FreeRTOS\9.0.0\Source/queue.c **** 		vTaskSuspendAll();
 549              		.loc 1 873 0
 550 0106 FFF7FEFF 		bl	vTaskSuspendAll
 874:Generated_Source\PSoC6\pdl\rtos\FreeRTOS\9.0.0\Source/queue.c **** 		prvLockQueue( pxQueue );
 551              		.loc 1 874 0
ARM GAS  C:\Users\ikomb\AppData\Local\Temp\cc9p1klJ.s 			page 26


 552 010a FFF7FEFF 		bl	vPortEnterCritical
 553 010e 3B6A     		ldr	r3, [r7, #32]
 554 0110 93F84430 		ldrb	r3, [r3, #68]
 555 0114 5BB2     		sxtb	r3, r3
 556 0116 B3F1FF3F 		cmp	r3, #-1
 557 011a 03D1     		bne	.L44
 558              		.loc 1 874 0 is_stmt 0 discriminator 1
 559 011c 3B6A     		ldr	r3, [r7, #32]
 560 011e 0022     		movs	r2, #0
 561 0120 83F84420 		strb	r2, [r3, #68]
 562              	.L44:
 563              		.loc 1 874 0 discriminator 3
 564 0124 3B6A     		ldr	r3, [r7, #32]
 565 0126 93F84530 		ldrb	r3, [r3, #69]
 566 012a 5BB2     		sxtb	r3, r3
 567 012c B3F1FF3F 		cmp	r3, #-1
 568 0130 03D1     		bne	.L45
 569              		.loc 1 874 0 discriminator 4
 570 0132 3B6A     		ldr	r3, [r7, #32]
 571 0134 0022     		movs	r2, #0
 572 0136 83F84520 		strb	r2, [r3, #69]
 573              	.L45:
 574              		.loc 1 874 0 discriminator 6
 575 013a FFF7FEFF 		bl	vPortExitCritical
 875:Generated_Source\PSoC6\pdl\rtos\FreeRTOS\9.0.0\Source/queue.c **** 
 876:Generated_Source\PSoC6\pdl\rtos\FreeRTOS\9.0.0\Source/queue.c **** 		/* Update the timeout state to see if it has expired yet. */
 877:Generated_Source\PSoC6\pdl\rtos\FreeRTOS\9.0.0\Source/queue.c **** 		if( xTaskCheckForTimeOut( &xTimeOut, &xTicksToWait ) == pdFALSE )
 576              		.loc 1 877 0 is_stmt 1 discriminator 6
 577 013e 3A1D     		adds	r2, r7, #4
 578 0140 07F11403 		add	r3, r7, #20
 579 0144 1146     		mov	r1, r2
 580 0146 1846     		mov	r0, r3
 581 0148 FFF7FEFF 		bl	xTaskCheckForTimeOut
 582 014c 0346     		mov	r3, r0
 583 014e 002B     		cmp	r3, #0
 584 0150 24D1     		bne	.L46
 878:Generated_Source\PSoC6\pdl\rtos\FreeRTOS\9.0.0\Source/queue.c **** 		{
 879:Generated_Source\PSoC6\pdl\rtos\FreeRTOS\9.0.0\Source/queue.c **** 			if( prvIsQueueFull( pxQueue ) != pdFALSE )
 585              		.loc 1 879 0
 586 0152 386A     		ldr	r0, [r7, #32]
 587 0154 FFF7FEFF 		bl	prvIsQueueFull
 588 0158 0346     		mov	r3, r0
 589 015a 002B     		cmp	r3, #0
 590 015c 18D0     		beq	.L47
 880:Generated_Source\PSoC6\pdl\rtos\FreeRTOS\9.0.0\Source/queue.c **** 			{
 881:Generated_Source\PSoC6\pdl\rtos\FreeRTOS\9.0.0\Source/queue.c **** 				traceBLOCKING_ON_QUEUE_SEND( pxQueue );
 882:Generated_Source\PSoC6\pdl\rtos\FreeRTOS\9.0.0\Source/queue.c **** 				vTaskPlaceOnEventList( &( pxQueue->xTasksWaitingToSend ), xTicksToWait );
 591              		.loc 1 882 0
 592 015e 3B6A     		ldr	r3, [r7, #32]
 593 0160 1033     		adds	r3, r3, #16
 594 0162 7A68     		ldr	r2, [r7, #4]
 595 0164 1146     		mov	r1, r2
 596 0166 1846     		mov	r0, r3
 597 0168 FFF7FEFF 		bl	vTaskPlaceOnEventList
 883:Generated_Source\PSoC6\pdl\rtos\FreeRTOS\9.0.0\Source/queue.c **** 
 884:Generated_Source\PSoC6\pdl\rtos\FreeRTOS\9.0.0\Source/queue.c **** 				/* Unlocking the queue means queue events can effect the
 885:Generated_Source\PSoC6\pdl\rtos\FreeRTOS\9.0.0\Source/queue.c **** 				event list.  It is possible	that interrupts occurring now
ARM GAS  C:\Users\ikomb\AppData\Local\Temp\cc9p1klJ.s 			page 27


 886:Generated_Source\PSoC6\pdl\rtos\FreeRTOS\9.0.0\Source/queue.c **** 				remove this task from the event	list again - but as the
 887:Generated_Source\PSoC6\pdl\rtos\FreeRTOS\9.0.0\Source/queue.c **** 				scheduler is suspended the task will go onto the pending
 888:Generated_Source\PSoC6\pdl\rtos\FreeRTOS\9.0.0\Source/queue.c **** 				ready last instead of the actual ready list. */
 889:Generated_Source\PSoC6\pdl\rtos\FreeRTOS\9.0.0\Source/queue.c **** 				prvUnlockQueue( pxQueue );
 598              		.loc 1 889 0
 599 016c 386A     		ldr	r0, [r7, #32]
 600 016e FFF7FEFF 		bl	prvUnlockQueue
 890:Generated_Source\PSoC6\pdl\rtos\FreeRTOS\9.0.0\Source/queue.c **** 
 891:Generated_Source\PSoC6\pdl\rtos\FreeRTOS\9.0.0\Source/queue.c **** 				/* Resuming the scheduler will move tasks from the pending
 892:Generated_Source\PSoC6\pdl\rtos\FreeRTOS\9.0.0\Source/queue.c **** 				ready list into the ready list - so it is feasible that this
 893:Generated_Source\PSoC6\pdl\rtos\FreeRTOS\9.0.0\Source/queue.c **** 				task is already in a ready list before it yields - in which
 894:Generated_Source\PSoC6\pdl\rtos\FreeRTOS\9.0.0\Source/queue.c **** 				case the yield will not cause a context switch unless there
 895:Generated_Source\PSoC6\pdl\rtos\FreeRTOS\9.0.0\Source/queue.c **** 				is also a higher priority task in the pending ready list. */
 896:Generated_Source\PSoC6\pdl\rtos\FreeRTOS\9.0.0\Source/queue.c **** 				if( xTaskResumeAll() == pdFALSE )
 601              		.loc 1 896 0
 602 0172 FFF7FEFF 		bl	xTaskResumeAll
 603 0176 0346     		mov	r3, r0
 604 0178 002B     		cmp	r3, #0
 605 017a 7FF47CAF 		bne	.L35
 897:Generated_Source\PSoC6\pdl\rtos\FreeRTOS\9.0.0\Source/queue.c **** 				{
 898:Generated_Source\PSoC6\pdl\rtos\FreeRTOS\9.0.0\Source/queue.c **** 					portYIELD_WITHIN_API();
 606              		.loc 1 898 0
 607 017e 0C4B     		ldr	r3, .L52
 608 0180 4FF08052 		mov	r2, #268435456
 609 0184 1A60     		str	r2, [r3]
 610              		.syntax unified
 611              	@ 898 "Generated_Source\PSoC6\pdl\rtos\FreeRTOS\9.0.0\Source\queue.c" 1
 612 0186 BFF34F8F 		dsb
 613              	@ 0 "" 2
 614              	@ 898 "Generated_Source\PSoC6\pdl\rtos\FreeRTOS\9.0.0\Source\queue.c" 1
 615 018a BFF36F8F 		isb
 616              	@ 0 "" 2
 617              		.thumb
 618              		.syntax unified
 619 018e 72E7     		b	.L35
 620              	.L47:
 899:Generated_Source\PSoC6\pdl\rtos\FreeRTOS\9.0.0\Source/queue.c **** 				}
 900:Generated_Source\PSoC6\pdl\rtos\FreeRTOS\9.0.0\Source/queue.c **** 			}
 901:Generated_Source\PSoC6\pdl\rtos\FreeRTOS\9.0.0\Source/queue.c **** 			else
 902:Generated_Source\PSoC6\pdl\rtos\FreeRTOS\9.0.0\Source/queue.c **** 			{
 903:Generated_Source\PSoC6\pdl\rtos\FreeRTOS\9.0.0\Source/queue.c **** 				/* Try again. */
 904:Generated_Source\PSoC6\pdl\rtos\FreeRTOS\9.0.0\Source/queue.c **** 				prvUnlockQueue( pxQueue );
 621              		.loc 1 904 0
 622 0190 386A     		ldr	r0, [r7, #32]
 623 0192 FFF7FEFF 		bl	prvUnlockQueue
 905:Generated_Source\PSoC6\pdl\rtos\FreeRTOS\9.0.0\Source/queue.c **** 				( void ) xTaskResumeAll();
 624              		.loc 1 905 0
 625 0196 FFF7FEFF 		bl	xTaskResumeAll
 626 019a 6CE7     		b	.L35
 627              	.L46:
 906:Generated_Source\PSoC6\pdl\rtos\FreeRTOS\9.0.0\Source/queue.c **** 			}
 907:Generated_Source\PSoC6\pdl\rtos\FreeRTOS\9.0.0\Source/queue.c **** 		}
 908:Generated_Source\PSoC6\pdl\rtos\FreeRTOS\9.0.0\Source/queue.c **** 		else
 909:Generated_Source\PSoC6\pdl\rtos\FreeRTOS\9.0.0\Source/queue.c **** 		{
 910:Generated_Source\PSoC6\pdl\rtos\FreeRTOS\9.0.0\Source/queue.c **** 			/* The timeout has expired. */
 911:Generated_Source\PSoC6\pdl\rtos\FreeRTOS\9.0.0\Source/queue.c **** 			prvUnlockQueue( pxQueue );
 628              		.loc 1 911 0
ARM GAS  C:\Users\ikomb\AppData\Local\Temp\cc9p1klJ.s 			page 28


 629 019c 386A     		ldr	r0, [r7, #32]
 630 019e FFF7FEFF 		bl	prvUnlockQueue
 912:Generated_Source\PSoC6\pdl\rtos\FreeRTOS\9.0.0\Source/queue.c **** 			( void ) xTaskResumeAll();
 631              		.loc 1 912 0
 632 01a2 FFF7FEFF 		bl	xTaskResumeAll
 913:Generated_Source\PSoC6\pdl\rtos\FreeRTOS\9.0.0\Source/queue.c **** 
 914:Generated_Source\PSoC6\pdl\rtos\FreeRTOS\9.0.0\Source/queue.c **** 			traceQUEUE_SEND_FAILED( pxQueue );
 915:Generated_Source\PSoC6\pdl\rtos\FreeRTOS\9.0.0\Source/queue.c **** 			return errQUEUE_FULL;
 633              		.loc 1 915 0
 634 01a6 0023     		movs	r3, #0
 635              	.L51:
 916:Generated_Source\PSoC6\pdl\rtos\FreeRTOS\9.0.0\Source/queue.c **** 		}
 917:Generated_Source\PSoC6\pdl\rtos\FreeRTOS\9.0.0\Source/queue.c **** 	}
 918:Generated_Source\PSoC6\pdl\rtos\FreeRTOS\9.0.0\Source/queue.c **** }
 636              		.loc 1 918 0 discriminator 7
 637 01a8 1846     		mov	r0, r3
 638 01aa 2837     		adds	r7, r7, #40
 639              		.cfi_def_cfa_offset 8
 640 01ac BD46     		mov	sp, r7
 641              		.cfi_def_cfa_register 13
 642              		@ sp needed
 643 01ae 80BD     		pop	{r7, pc}
 644              	.L53:
 645              		.align	2
 646              	.L52:
 647 01b0 04ED00E0 		.word	-536810236
 648              		.cfi_endproc
 649              	.LFE132:
 650              		.size	xQueueGenericSend, .-xQueueGenericSend
 651              		.section	.text.xQueueGenericSendFromISR,"ax",%progbits
 652              		.align	2
 653              		.global	xQueueGenericSendFromISR
 654              		.thumb
 655              		.thumb_func
 656              		.type	xQueueGenericSendFromISR, %function
 657              	xQueueGenericSendFromISR:
 658              	.LFB133:
 919:Generated_Source\PSoC6\pdl\rtos\FreeRTOS\9.0.0\Source/queue.c **** /*-----------------------------------------------------------*/
 920:Generated_Source\PSoC6\pdl\rtos\FreeRTOS\9.0.0\Source/queue.c **** 
 921:Generated_Source\PSoC6\pdl\rtos\FreeRTOS\9.0.0\Source/queue.c **** BaseType_t xQueueGenericSendFromISR( QueueHandle_t xQueue, const void * const pvItemToQueue, BaseTy
 922:Generated_Source\PSoC6\pdl\rtos\FreeRTOS\9.0.0\Source/queue.c **** {
 659              		.loc 1 922 0
 660              		.cfi_startproc
 661              		@ args = 0, pretend = 0, frame = 48
 662              		@ frame_needed = 1, uses_anonymous_args = 0
 663 0000 80B5     		push	{r7, lr}
 664              		.cfi_def_cfa_offset 8
 665              		.cfi_offset 7, -8
 666              		.cfi_offset 14, -4
 667 0002 8CB0     		sub	sp, sp, #48
 668              		.cfi_def_cfa_offset 56
 669 0004 00AF     		add	r7, sp, #0
 670              		.cfi_def_cfa_register 7
 671 0006 F860     		str	r0, [r7, #12]
 672 0008 B960     		str	r1, [r7, #8]
 673 000a 7A60     		str	r2, [r7, #4]
 674 000c 3B60     		str	r3, [r7]
ARM GAS  C:\Users\ikomb\AppData\Local\Temp\cc9p1klJ.s 			page 29


 923:Generated_Source\PSoC6\pdl\rtos\FreeRTOS\9.0.0\Source/queue.c **** BaseType_t xReturn;
 924:Generated_Source\PSoC6\pdl\rtos\FreeRTOS\9.0.0\Source/queue.c **** UBaseType_t uxSavedInterruptStatus;
 925:Generated_Source\PSoC6\pdl\rtos\FreeRTOS\9.0.0\Source/queue.c **** Queue_t * const pxQueue = ( Queue_t * ) xQueue;
 675              		.loc 1 925 0
 676 000e FB68     		ldr	r3, [r7, #12]
 677 0010 BB62     		str	r3, [r7, #40]
 926:Generated_Source\PSoC6\pdl\rtos\FreeRTOS\9.0.0\Source/queue.c **** 
 927:Generated_Source\PSoC6\pdl\rtos\FreeRTOS\9.0.0\Source/queue.c **** 	configASSERT( pxQueue );
 678              		.loc 1 927 0
 679 0012 BB6A     		ldr	r3, [r7, #40]
 680 0014 002B     		cmp	r3, #0
 681 0016 01D1     		bne	.L55
 682              		.loc 1 927 0 is_stmt 0 discriminator 1
 683              		.syntax unified
 684              	@ 927 "Generated_Source\PSoC6\pdl\rtos\FreeRTOS\9.0.0\Source\queue.c" 1
 685 0018 72B6     		 cpsid i 
 686              	@ 0 "" 2
 687              		.thumb
 688              		.syntax unified
 689              	.L56:
 690 001a FEE7     		b	.L56
 691              	.L55:
 928:Generated_Source\PSoC6\pdl\rtos\FreeRTOS\9.0.0\Source/queue.c **** 	configASSERT( !( ( pvItemToQueue == NULL ) && ( pxQueue->uxItemSize != ( UBaseType_t ) 0U ) ) );
 692              		.loc 1 928 0 is_stmt 1
 693 001c BB68     		ldr	r3, [r7, #8]
 694 001e 002B     		cmp	r3, #0
 695 0020 03D1     		bne	.L57
 696              		.loc 1 928 0 is_stmt 0 discriminator 2
 697 0022 BB6A     		ldr	r3, [r7, #40]
 698 0024 1B6C     		ldr	r3, [r3, #64]
 699 0026 002B     		cmp	r3, #0
 700 0028 01D1     		bne	.L58
 701              	.L57:
 702              		.loc 1 928 0 discriminator 3
 703 002a 0123     		movs	r3, #1
 704 002c 00E0     		b	.L59
 705              	.L58:
 706              		.loc 1 928 0 discriminator 4
 707 002e 0023     		movs	r3, #0
 708              	.L59:
 709              		.loc 1 928 0 discriminator 6
 710 0030 002B     		cmp	r3, #0
 711 0032 01D1     		bne	.L60
 712              		.loc 1 928 0 discriminator 7
 713              		.syntax unified
 714              	@ 928 "Generated_Source\PSoC6\pdl\rtos\FreeRTOS\9.0.0\Source\queue.c" 1
 715 0034 72B6     		 cpsid i 
 716              	@ 0 "" 2
 717              		.thumb
 718              		.syntax unified
 719              	.L61:
 720              		.loc 1 928 0 discriminator 2
 721 0036 FEE7     		b	.L61
 722              	.L60:
 929:Generated_Source\PSoC6\pdl\rtos\FreeRTOS\9.0.0\Source/queue.c **** 	configASSERT( !( ( xCopyPosition == queueOVERWRITE ) && ( pxQueue->uxLength != 1 ) ) );
 723              		.loc 1 929 0 is_stmt 1
 724 0038 3B68     		ldr	r3, [r7]
ARM GAS  C:\Users\ikomb\AppData\Local\Temp\cc9p1klJ.s 			page 30


 725 003a 022B     		cmp	r3, #2
 726 003c 03D1     		bne	.L62
 727              		.loc 1 929 0 is_stmt 0 discriminator 2
 728 003e BB6A     		ldr	r3, [r7, #40]
 729 0040 DB6B     		ldr	r3, [r3, #60]
 730 0042 012B     		cmp	r3, #1
 731 0044 01D1     		bne	.L63
 732              	.L62:
 733              		.loc 1 929 0 discriminator 3
 734 0046 0123     		movs	r3, #1
 735 0048 00E0     		b	.L64
 736              	.L63:
 737              		.loc 1 929 0 discriminator 4
 738 004a 0023     		movs	r3, #0
 739              	.L64:
 740              		.loc 1 929 0 discriminator 6
 741 004c 002B     		cmp	r3, #0
 742 004e 01D1     		bne	.L65
 743              		.loc 1 929 0 discriminator 7
 744              		.syntax unified
 745              	@ 929 "Generated_Source\PSoC6\pdl\rtos\FreeRTOS\9.0.0\Source\queue.c" 1
 746 0050 72B6     		 cpsid i 
 747              	@ 0 "" 2
 748              		.thumb
 749              		.syntax unified
 750              	.L66:
 751              		.loc 1 929 0 discriminator 3
 752 0052 FEE7     		b	.L66
 753              	.L65:
 930:Generated_Source\PSoC6\pdl\rtos\FreeRTOS\9.0.0\Source/queue.c **** 
 931:Generated_Source\PSoC6\pdl\rtos\FreeRTOS\9.0.0\Source/queue.c **** 	/* RTOS ports that support interrupt nesting have the concept of a maximum
 932:Generated_Source\PSoC6\pdl\rtos\FreeRTOS\9.0.0\Source/queue.c **** 	system call (or maximum API call) interrupt priority.  Interrupts that are
 933:Generated_Source\PSoC6\pdl\rtos\FreeRTOS\9.0.0\Source/queue.c **** 	above the maximum system call priority are kept permanently enabled, even
 934:Generated_Source\PSoC6\pdl\rtos\FreeRTOS\9.0.0\Source/queue.c **** 	when the RTOS kernel is in a critical section, but cannot make any calls to
 935:Generated_Source\PSoC6\pdl\rtos\FreeRTOS\9.0.0\Source/queue.c **** 	FreeRTOS API functions.  If configASSERT() is defined in FreeRTOSConfig.h
 936:Generated_Source\PSoC6\pdl\rtos\FreeRTOS\9.0.0\Source/queue.c **** 	then portASSERT_IF_INTERRUPT_PRIORITY_INVALID() will result in an assertion
 937:Generated_Source\PSoC6\pdl\rtos\FreeRTOS\9.0.0\Source/queue.c **** 	failure if a FreeRTOS API function is called from an interrupt that has been
 938:Generated_Source\PSoC6\pdl\rtos\FreeRTOS\9.0.0\Source/queue.c **** 	assigned a priority above the configured maximum system call priority.
 939:Generated_Source\PSoC6\pdl\rtos\FreeRTOS\9.0.0\Source/queue.c **** 	Only FreeRTOS functions that end in FromISR can be called from interrupts
 940:Generated_Source\PSoC6\pdl\rtos\FreeRTOS\9.0.0\Source/queue.c **** 	that have been assigned a priority at or (logically) below the maximum
 941:Generated_Source\PSoC6\pdl\rtos\FreeRTOS\9.0.0\Source/queue.c **** 	system call	interrupt priority.  FreeRTOS maintains a separate interrupt
 942:Generated_Source\PSoC6\pdl\rtos\FreeRTOS\9.0.0\Source/queue.c **** 	safe API to ensure interrupt entry is as fast and as simple as possible.
 943:Generated_Source\PSoC6\pdl\rtos\FreeRTOS\9.0.0\Source/queue.c **** 	More information (albeit Cortex-M specific) is provided on the following
 944:Generated_Source\PSoC6\pdl\rtos\FreeRTOS\9.0.0\Source/queue.c **** 	link: http://www.freertos.org/RTOS-Cortex-M3-M4.html */
 945:Generated_Source\PSoC6\pdl\rtos\FreeRTOS\9.0.0\Source/queue.c **** 	portASSERT_IF_INTERRUPT_PRIORITY_INVALID();
 754              		.loc 1 945 0 is_stmt 1
 755 0054 FFF7FEFF 		bl	vPortValidateInterruptPriority
 756              	.LBB23:
 757              	.LBB24:
 758              		.file 2 "Generated_Source\\PSoC6\\pdl\\rtos/FreeRTOS/9.0.0/Source/portable/GCC/CM4F/portmacro.h"
   1:Generated_Source\PSoC6\pdl\rtos/FreeRTOS/9.0.0/Source/portable/GCC/CM4F/portmacro.h **** /*
   2:Generated_Source\PSoC6\pdl\rtos/FreeRTOS/9.0.0/Source/portable/GCC/CM4F/portmacro.h ****     FreeRTOS V9.0.0 - Copyright (C) 2016 Real Time Engineers Ltd.
   3:Generated_Source\PSoC6\pdl\rtos/FreeRTOS/9.0.0/Source/portable/GCC/CM4F/portmacro.h ****     All rights reserved
   4:Generated_Source\PSoC6\pdl\rtos/FreeRTOS/9.0.0/Source/portable/GCC/CM4F/portmacro.h **** 
   5:Generated_Source\PSoC6\pdl\rtos/FreeRTOS/9.0.0/Source/portable/GCC/CM4F/portmacro.h ****     VISIT http://www.FreeRTOS.org TO ENSURE YOU ARE USING THE LATEST VERSION.
   6:Generated_Source\PSoC6\pdl\rtos/FreeRTOS/9.0.0/Source/portable/GCC/CM4F/portmacro.h **** 
   7:Generated_Source\PSoC6\pdl\rtos/FreeRTOS/9.0.0/Source/portable/GCC/CM4F/portmacro.h ****     This file is part of the FreeRTOS distribution.
ARM GAS  C:\Users\ikomb\AppData\Local\Temp\cc9p1klJ.s 			page 31


   8:Generated_Source\PSoC6\pdl\rtos/FreeRTOS/9.0.0/Source/portable/GCC/CM4F/portmacro.h **** 
   9:Generated_Source\PSoC6\pdl\rtos/FreeRTOS/9.0.0/Source/portable/GCC/CM4F/portmacro.h ****     FreeRTOS is free software; you can redistribute it and/or modify it under
  10:Generated_Source\PSoC6\pdl\rtos/FreeRTOS/9.0.0/Source/portable/GCC/CM4F/portmacro.h ****     the terms of the GNU General Public License (version 2) as published by the
  11:Generated_Source\PSoC6\pdl\rtos/FreeRTOS/9.0.0/Source/portable/GCC/CM4F/portmacro.h ****     Free Software Foundation >>>> AND MODIFIED BY <<<< the FreeRTOS exception.
  12:Generated_Source\PSoC6\pdl\rtos/FreeRTOS/9.0.0/Source/portable/GCC/CM4F/portmacro.h **** 
  13:Generated_Source\PSoC6\pdl\rtos/FreeRTOS/9.0.0/Source/portable/GCC/CM4F/portmacro.h ****     ***************************************************************************
  14:Generated_Source\PSoC6\pdl\rtos/FreeRTOS/9.0.0/Source/portable/GCC/CM4F/portmacro.h ****     >>!   NOTE: The modification to the GPL is included to allow you to     !<<
  15:Generated_Source\PSoC6\pdl\rtos/FreeRTOS/9.0.0/Source/portable/GCC/CM4F/portmacro.h ****     >>!   distribute a combined work that includes FreeRTOS without being   !<<
  16:Generated_Source\PSoC6\pdl\rtos/FreeRTOS/9.0.0/Source/portable/GCC/CM4F/portmacro.h ****     >>!   obliged to provide the source code for proprietary components     !<<
  17:Generated_Source\PSoC6\pdl\rtos/FreeRTOS/9.0.0/Source/portable/GCC/CM4F/portmacro.h ****     >>!   outside of the FreeRTOS kernel.                                   !<<
  18:Generated_Source\PSoC6\pdl\rtos/FreeRTOS/9.0.0/Source/portable/GCC/CM4F/portmacro.h ****     ***************************************************************************
  19:Generated_Source\PSoC6\pdl\rtos/FreeRTOS/9.0.0/Source/portable/GCC/CM4F/portmacro.h **** 
  20:Generated_Source\PSoC6\pdl\rtos/FreeRTOS/9.0.0/Source/portable/GCC/CM4F/portmacro.h ****     FreeRTOS is distributed in the hope that it will be useful, but WITHOUT ANY
  21:Generated_Source\PSoC6\pdl\rtos/FreeRTOS/9.0.0/Source/portable/GCC/CM4F/portmacro.h ****     WARRANTY; without even the implied warranty of MERCHANTABILITY or FITNESS
  22:Generated_Source\PSoC6\pdl\rtos/FreeRTOS/9.0.0/Source/portable/GCC/CM4F/portmacro.h ****     FOR A PARTICULAR PURPOSE.  Full license text is available on the following
  23:Generated_Source\PSoC6\pdl\rtos/FreeRTOS/9.0.0/Source/portable/GCC/CM4F/portmacro.h ****     link: http://www.freertos.org/a00114.html
  24:Generated_Source\PSoC6\pdl\rtos/FreeRTOS/9.0.0/Source/portable/GCC/CM4F/portmacro.h **** 
  25:Generated_Source\PSoC6\pdl\rtos/FreeRTOS/9.0.0/Source/portable/GCC/CM4F/portmacro.h ****     ***************************************************************************
  26:Generated_Source\PSoC6\pdl\rtos/FreeRTOS/9.0.0/Source/portable/GCC/CM4F/portmacro.h ****      *                                                                       *
  27:Generated_Source\PSoC6\pdl\rtos/FreeRTOS/9.0.0/Source/portable/GCC/CM4F/portmacro.h ****      *    FreeRTOS provides completely free yet professionally developed,    *
  28:Generated_Source\PSoC6\pdl\rtos/FreeRTOS/9.0.0/Source/portable/GCC/CM4F/portmacro.h ****      *    robust, strictly quality controlled, supported, and cross          *
  29:Generated_Source\PSoC6\pdl\rtos/FreeRTOS/9.0.0/Source/portable/GCC/CM4F/portmacro.h ****      *    platform software that is more than just the market leader, it     *
  30:Generated_Source\PSoC6\pdl\rtos/FreeRTOS/9.0.0/Source/portable/GCC/CM4F/portmacro.h ****      *    is the industry's de facto standard.                               *
  31:Generated_Source\PSoC6\pdl\rtos/FreeRTOS/9.0.0/Source/portable/GCC/CM4F/portmacro.h ****      *                                                                       *
  32:Generated_Source\PSoC6\pdl\rtos/FreeRTOS/9.0.0/Source/portable/GCC/CM4F/portmacro.h ****      *    Help yourself get started quickly while simultaneously helping     *
  33:Generated_Source\PSoC6\pdl\rtos/FreeRTOS/9.0.0/Source/portable/GCC/CM4F/portmacro.h ****      *    to support the FreeRTOS project by purchasing a FreeRTOS           *
  34:Generated_Source\PSoC6\pdl\rtos/FreeRTOS/9.0.0/Source/portable/GCC/CM4F/portmacro.h ****      *    tutorial book, reference manual, or both:                          *
  35:Generated_Source\PSoC6\pdl\rtos/FreeRTOS/9.0.0/Source/portable/GCC/CM4F/portmacro.h ****      *    http://www.FreeRTOS.org/Documentation                              *
  36:Generated_Source\PSoC6\pdl\rtos/FreeRTOS/9.0.0/Source/portable/GCC/CM4F/portmacro.h ****      *                                                                       *
  37:Generated_Source\PSoC6\pdl\rtos/FreeRTOS/9.0.0/Source/portable/GCC/CM4F/portmacro.h ****     ***************************************************************************
  38:Generated_Source\PSoC6\pdl\rtos/FreeRTOS/9.0.0/Source/portable/GCC/CM4F/portmacro.h **** 
  39:Generated_Source\PSoC6\pdl\rtos/FreeRTOS/9.0.0/Source/portable/GCC/CM4F/portmacro.h ****     http://www.FreeRTOS.org/FAQHelp.html - Having a problem?  Start by reading
  40:Generated_Source\PSoC6\pdl\rtos/FreeRTOS/9.0.0/Source/portable/GCC/CM4F/portmacro.h ****     the FAQ page "My application does not run, what could be wrong?".  Have you
  41:Generated_Source\PSoC6\pdl\rtos/FreeRTOS/9.0.0/Source/portable/GCC/CM4F/portmacro.h ****     defined configASSERT()?
  42:Generated_Source\PSoC6\pdl\rtos/FreeRTOS/9.0.0/Source/portable/GCC/CM4F/portmacro.h **** 
  43:Generated_Source\PSoC6\pdl\rtos/FreeRTOS/9.0.0/Source/portable/GCC/CM4F/portmacro.h ****     http://www.FreeRTOS.org/support - In return for receiving this top quality
  44:Generated_Source\PSoC6\pdl\rtos/FreeRTOS/9.0.0/Source/portable/GCC/CM4F/portmacro.h ****     embedded software for free we request you assist our global community by
  45:Generated_Source\PSoC6\pdl\rtos/FreeRTOS/9.0.0/Source/portable/GCC/CM4F/portmacro.h ****     participating in the support forum.
  46:Generated_Source\PSoC6\pdl\rtos/FreeRTOS/9.0.0/Source/portable/GCC/CM4F/portmacro.h **** 
  47:Generated_Source\PSoC6\pdl\rtos/FreeRTOS/9.0.0/Source/portable/GCC/CM4F/portmacro.h ****     http://www.FreeRTOS.org/training - Investing in training allows your team to
  48:Generated_Source\PSoC6\pdl\rtos/FreeRTOS/9.0.0/Source/portable/GCC/CM4F/portmacro.h ****     be as productive as possible as early as possible.  Now you can receive
  49:Generated_Source\PSoC6\pdl\rtos/FreeRTOS/9.0.0/Source/portable/GCC/CM4F/portmacro.h ****     FreeRTOS training directly from Richard Barry, CEO of Real Time Engineers
  50:Generated_Source\PSoC6\pdl\rtos/FreeRTOS/9.0.0/Source/portable/GCC/CM4F/portmacro.h ****     Ltd, and the world's leading authority on the world's leading RTOS.
  51:Generated_Source\PSoC6\pdl\rtos/FreeRTOS/9.0.0/Source/portable/GCC/CM4F/portmacro.h **** 
  52:Generated_Source\PSoC6\pdl\rtos/FreeRTOS/9.0.0/Source/portable/GCC/CM4F/portmacro.h ****     http://www.FreeRTOS.org/plus - A selection of FreeRTOS ecosystem products,
  53:Generated_Source\PSoC6\pdl\rtos/FreeRTOS/9.0.0/Source/portable/GCC/CM4F/portmacro.h ****     including FreeRTOS+Trace - an indispensable productivity tool, a DOS
  54:Generated_Source\PSoC6\pdl\rtos/FreeRTOS/9.0.0/Source/portable/GCC/CM4F/portmacro.h ****     compatible FAT file system, and our tiny thread aware UDP/IP stack.
  55:Generated_Source\PSoC6\pdl\rtos/FreeRTOS/9.0.0/Source/portable/GCC/CM4F/portmacro.h **** 
  56:Generated_Source\PSoC6\pdl\rtos/FreeRTOS/9.0.0/Source/portable/GCC/CM4F/portmacro.h ****     http://www.FreeRTOS.org/labs - Where new FreeRTOS products go to incubate.
  57:Generated_Source\PSoC6\pdl\rtos/FreeRTOS/9.0.0/Source/portable/GCC/CM4F/portmacro.h ****     Come and try FreeRTOS+TCP, our new open source TCP/IP stack for FreeRTOS.
  58:Generated_Source\PSoC6\pdl\rtos/FreeRTOS/9.0.0/Source/portable/GCC/CM4F/portmacro.h **** 
  59:Generated_Source\PSoC6\pdl\rtos/FreeRTOS/9.0.0/Source/portable/GCC/CM4F/portmacro.h ****     http://www.OpenRTOS.com - Real Time Engineers ltd. license FreeRTOS to High
  60:Generated_Source\PSoC6\pdl\rtos/FreeRTOS/9.0.0/Source/portable/GCC/CM4F/portmacro.h ****     Integrity Systems ltd. to sell under the OpenRTOS brand.  Low cost OpenRTOS
  61:Generated_Source\PSoC6\pdl\rtos/FreeRTOS/9.0.0/Source/portable/GCC/CM4F/portmacro.h ****     licenses offer ticketed support, indemnification and commercial middleware.
  62:Generated_Source\PSoC6\pdl\rtos/FreeRTOS/9.0.0/Source/portable/GCC/CM4F/portmacro.h **** 
  63:Generated_Source\PSoC6\pdl\rtos/FreeRTOS/9.0.0/Source/portable/GCC/CM4F/portmacro.h ****     http://www.SafeRTOS.com - High Integrity Systems also provide a safety
  64:Generated_Source\PSoC6\pdl\rtos/FreeRTOS/9.0.0/Source/portable/GCC/CM4F/portmacro.h ****     engineered and independently SIL3 certified version for use in safety and
ARM GAS  C:\Users\ikomb\AppData\Local\Temp\cc9p1klJ.s 			page 32


  65:Generated_Source\PSoC6\pdl\rtos/FreeRTOS/9.0.0/Source/portable/GCC/CM4F/portmacro.h ****     mission critical applications that require provable dependability.
  66:Generated_Source\PSoC6\pdl\rtos/FreeRTOS/9.0.0/Source/portable/GCC/CM4F/portmacro.h **** 
  67:Generated_Source\PSoC6\pdl\rtos/FreeRTOS/9.0.0/Source/portable/GCC/CM4F/portmacro.h ****     1 tab == 4 spaces!
  68:Generated_Source\PSoC6\pdl\rtos/FreeRTOS/9.0.0/Source/portable/GCC/CM4F/portmacro.h **** */
  69:Generated_Source\PSoC6\pdl\rtos/FreeRTOS/9.0.0/Source/portable/GCC/CM4F/portmacro.h **** 
  70:Generated_Source\PSoC6\pdl\rtos/FreeRTOS/9.0.0/Source/portable/GCC/CM4F/portmacro.h **** 
  71:Generated_Source\PSoC6\pdl\rtos/FreeRTOS/9.0.0/Source/portable/GCC/CM4F/portmacro.h **** #ifndef PORTMACRO_H
  72:Generated_Source\PSoC6\pdl\rtos/FreeRTOS/9.0.0/Source/portable/GCC/CM4F/portmacro.h **** #define PORTMACRO_H
  73:Generated_Source\PSoC6\pdl\rtos/FreeRTOS/9.0.0/Source/portable/GCC/CM4F/portmacro.h **** 
  74:Generated_Source\PSoC6\pdl\rtos/FreeRTOS/9.0.0/Source/portable/GCC/CM4F/portmacro.h **** #ifdef __cplusplus
  75:Generated_Source\PSoC6\pdl\rtos/FreeRTOS/9.0.0/Source/portable/GCC/CM4F/portmacro.h **** extern "C" {
  76:Generated_Source\PSoC6\pdl\rtos/FreeRTOS/9.0.0/Source/portable/GCC/CM4F/portmacro.h **** #endif
  77:Generated_Source\PSoC6\pdl\rtos/FreeRTOS/9.0.0/Source/portable/GCC/CM4F/portmacro.h **** 
  78:Generated_Source\PSoC6\pdl\rtos/FreeRTOS/9.0.0/Source/portable/GCC/CM4F/portmacro.h **** /*-----------------------------------------------------------
  79:Generated_Source\PSoC6\pdl\rtos/FreeRTOS/9.0.0/Source/portable/GCC/CM4F/portmacro.h ****  * Port specific definitions.
  80:Generated_Source\PSoC6\pdl\rtos/FreeRTOS/9.0.0/Source/portable/GCC/CM4F/portmacro.h ****  *
  81:Generated_Source\PSoC6\pdl\rtos/FreeRTOS/9.0.0/Source/portable/GCC/CM4F/portmacro.h ****  * The settings in this file configure FreeRTOS correctly for the
  82:Generated_Source\PSoC6\pdl\rtos/FreeRTOS/9.0.0/Source/portable/GCC/CM4F/portmacro.h ****  * given hardware and compiler.
  83:Generated_Source\PSoC6\pdl\rtos/FreeRTOS/9.0.0/Source/portable/GCC/CM4F/portmacro.h ****  *
  84:Generated_Source\PSoC6\pdl\rtos/FreeRTOS/9.0.0/Source/portable/GCC/CM4F/portmacro.h ****  * These settings should not be altered.
  85:Generated_Source\PSoC6\pdl\rtos/FreeRTOS/9.0.0/Source/portable/GCC/CM4F/portmacro.h ****  *-----------------------------------------------------------
  86:Generated_Source\PSoC6\pdl\rtos/FreeRTOS/9.0.0/Source/portable/GCC/CM4F/portmacro.h ****  */
  87:Generated_Source\PSoC6\pdl\rtos/FreeRTOS/9.0.0/Source/portable/GCC/CM4F/portmacro.h **** 
  88:Generated_Source\PSoC6\pdl\rtos/FreeRTOS/9.0.0/Source/portable/GCC/CM4F/portmacro.h **** /* Type definitions. */
  89:Generated_Source\PSoC6\pdl\rtos/FreeRTOS/9.0.0/Source/portable/GCC/CM4F/portmacro.h **** #define portCHAR        char
  90:Generated_Source\PSoC6\pdl\rtos/FreeRTOS/9.0.0/Source/portable/GCC/CM4F/portmacro.h **** #define portFLOAT       float
  91:Generated_Source\PSoC6\pdl\rtos/FreeRTOS/9.0.0/Source/portable/GCC/CM4F/portmacro.h **** #define portDOUBLE      double
  92:Generated_Source\PSoC6\pdl\rtos/FreeRTOS/9.0.0/Source/portable/GCC/CM4F/portmacro.h **** #define portLONG        long
  93:Generated_Source\PSoC6\pdl\rtos/FreeRTOS/9.0.0/Source/portable/GCC/CM4F/portmacro.h **** #define portSHORT       short
  94:Generated_Source\PSoC6\pdl\rtos/FreeRTOS/9.0.0/Source/portable/GCC/CM4F/portmacro.h **** #define portSTACK_TYPE  uint32_t
  95:Generated_Source\PSoC6\pdl\rtos/FreeRTOS/9.0.0/Source/portable/GCC/CM4F/portmacro.h **** #define portBASE_TYPE   long
  96:Generated_Source\PSoC6\pdl\rtos/FreeRTOS/9.0.0/Source/portable/GCC/CM4F/portmacro.h **** 
  97:Generated_Source\PSoC6\pdl\rtos/FreeRTOS/9.0.0/Source/portable/GCC/CM4F/portmacro.h **** typedef portSTACK_TYPE StackType_t;
  98:Generated_Source\PSoC6\pdl\rtos/FreeRTOS/9.0.0/Source/portable/GCC/CM4F/portmacro.h **** typedef long BaseType_t;
  99:Generated_Source\PSoC6\pdl\rtos/FreeRTOS/9.0.0/Source/portable/GCC/CM4F/portmacro.h **** typedef unsigned long UBaseType_t;
 100:Generated_Source\PSoC6\pdl\rtos/FreeRTOS/9.0.0/Source/portable/GCC/CM4F/portmacro.h **** 
 101:Generated_Source\PSoC6\pdl\rtos/FreeRTOS/9.0.0/Source/portable/GCC/CM4F/portmacro.h **** #if( configUSE_16_BIT_TICKS == 1 )
 102:Generated_Source\PSoC6\pdl\rtos/FreeRTOS/9.0.0/Source/portable/GCC/CM4F/portmacro.h ****     typedef uint16_t TickType_t;
 103:Generated_Source\PSoC6\pdl\rtos/FreeRTOS/9.0.0/Source/portable/GCC/CM4F/portmacro.h ****     #define portMAX_DELAY ( TickType_t ) 0xffff
 104:Generated_Source\PSoC6\pdl\rtos/FreeRTOS/9.0.0/Source/portable/GCC/CM4F/portmacro.h **** #else
 105:Generated_Source\PSoC6\pdl\rtos/FreeRTOS/9.0.0/Source/portable/GCC/CM4F/portmacro.h ****     typedef uint32_t TickType_t;
 106:Generated_Source\PSoC6\pdl\rtos/FreeRTOS/9.0.0/Source/portable/GCC/CM4F/portmacro.h ****     #define portMAX_DELAY ( TickType_t ) 0xffffffffUL
 107:Generated_Source\PSoC6\pdl\rtos/FreeRTOS/9.0.0/Source/portable/GCC/CM4F/portmacro.h **** 
 108:Generated_Source\PSoC6\pdl\rtos/FreeRTOS/9.0.0/Source/portable/GCC/CM4F/portmacro.h ****     /* 32-bit tick type on a 32-bit architecture, so reads of the tick count do
 109:Generated_Source\PSoC6\pdl\rtos/FreeRTOS/9.0.0/Source/portable/GCC/CM4F/portmacro.h ****     not need to be guarded with a critical section. */
 110:Generated_Source\PSoC6\pdl\rtos/FreeRTOS/9.0.0/Source/portable/GCC/CM4F/portmacro.h ****     #define portTICK_TYPE_IS_ATOMIC 1
 111:Generated_Source\PSoC6\pdl\rtos/FreeRTOS/9.0.0/Source/portable/GCC/CM4F/portmacro.h **** #endif
 112:Generated_Source\PSoC6\pdl\rtos/FreeRTOS/9.0.0/Source/portable/GCC/CM4F/portmacro.h **** /*-----------------------------------------------------------*/
 113:Generated_Source\PSoC6\pdl\rtos/FreeRTOS/9.0.0/Source/portable/GCC/CM4F/portmacro.h **** 
 114:Generated_Source\PSoC6\pdl\rtos/FreeRTOS/9.0.0/Source/portable/GCC/CM4F/portmacro.h **** /* Architecture specifics. */
 115:Generated_Source\PSoC6\pdl\rtos/FreeRTOS/9.0.0/Source/portable/GCC/CM4F/portmacro.h **** #define portSTACK_GROWTH              ( -1 )
 116:Generated_Source\PSoC6\pdl\rtos/FreeRTOS/9.0.0/Source/portable/GCC/CM4F/portmacro.h **** #define portTICK_PERIOD_MS            ( ( TickType_t ) 1000 / configTICK_RATE_HZ )
 117:Generated_Source\PSoC6\pdl\rtos/FreeRTOS/9.0.0/Source/portable/GCC/CM4F/portmacro.h **** #define portBYTE_ALIGNMENT            8
 118:Generated_Source\PSoC6\pdl\rtos/FreeRTOS/9.0.0/Source/portable/GCC/CM4F/portmacro.h **** /*-----------------------------------------------------------*/
 119:Generated_Source\PSoC6\pdl\rtos/FreeRTOS/9.0.0/Source/portable/GCC/CM4F/portmacro.h **** 
 120:Generated_Source\PSoC6\pdl\rtos/FreeRTOS/9.0.0/Source/portable/GCC/CM4F/portmacro.h **** 
 121:Generated_Source\PSoC6\pdl\rtos/FreeRTOS/9.0.0/Source/portable/GCC/CM4F/portmacro.h **** /* Scheduler utilities. */
ARM GAS  C:\Users\ikomb\AppData\Local\Temp\cc9p1klJ.s 			page 33


 122:Generated_Source\PSoC6\pdl\rtos/FreeRTOS/9.0.0/Source/portable/GCC/CM4F/portmacro.h **** #define portYIELD()                                                            \
 123:Generated_Source\PSoC6\pdl\rtos/FreeRTOS/9.0.0/Source/portable/GCC/CM4F/portmacro.h **** {                                                                              \
 124:Generated_Source\PSoC6\pdl\rtos/FreeRTOS/9.0.0/Source/portable/GCC/CM4F/portmacro.h ****     /* Set a PendSV to request a context switch. */                            \
 125:Generated_Source\PSoC6\pdl\rtos/FreeRTOS/9.0.0/Source/portable/GCC/CM4F/portmacro.h ****     portNVIC_INT_CTRL_REG = portNVIC_PENDSVSET_BIT;                            \
 126:Generated_Source\PSoC6\pdl\rtos/FreeRTOS/9.0.0/Source/portable/GCC/CM4F/portmacro.h ****                                                                                \
 127:Generated_Source\PSoC6\pdl\rtos/FreeRTOS/9.0.0/Source/portable/GCC/CM4F/portmacro.h ****     /* Barriers are normally not required but do ensure the code is completely \
 128:Generated_Source\PSoC6\pdl\rtos/FreeRTOS/9.0.0/Source/portable/GCC/CM4F/portmacro.h ****     within the specified behaviour for the architecture. */                    \
 129:Generated_Source\PSoC6\pdl\rtos/FreeRTOS/9.0.0/Source/portable/GCC/CM4F/portmacro.h ****     __asm volatile( "dsb" );                                                   \
 130:Generated_Source\PSoC6\pdl\rtos/FreeRTOS/9.0.0/Source/portable/GCC/CM4F/portmacro.h ****     __asm volatile( "isb" );                                                   \
 131:Generated_Source\PSoC6\pdl\rtos/FreeRTOS/9.0.0/Source/portable/GCC/CM4F/portmacro.h **** }                                                                              \
 132:Generated_Source\PSoC6\pdl\rtos/FreeRTOS/9.0.0/Source/portable/GCC/CM4F/portmacro.h **** 
 133:Generated_Source\PSoC6\pdl\rtos/FreeRTOS/9.0.0/Source/portable/GCC/CM4F/portmacro.h **** #define portNVIC_INT_CTRL_REG         ( * ( ( volatile uint32_t * ) 0xe000ed04 ) )
 134:Generated_Source\PSoC6\pdl\rtos/FreeRTOS/9.0.0/Source/portable/GCC/CM4F/portmacro.h **** #define portNVIC_PENDSVSET_BIT        ( 1UL << 28UL )
 135:Generated_Source\PSoC6\pdl\rtos/FreeRTOS/9.0.0/Source/portable/GCC/CM4F/portmacro.h **** #define portEND_SWITCHING_ISR( xSwitchRequired ) if( xSwitchRequired != pdFALSE ) portYIELD()
 136:Generated_Source\PSoC6\pdl\rtos/FreeRTOS/9.0.0/Source/portable/GCC/CM4F/portmacro.h **** #define portYIELD_FROM_ISR( x )       portEND_SWITCHING_ISR( x )
 137:Generated_Source\PSoC6\pdl\rtos/FreeRTOS/9.0.0/Source/portable/GCC/CM4F/portmacro.h **** /*-----------------------------------------------------------*/
 138:Generated_Source\PSoC6\pdl\rtos/FreeRTOS/9.0.0/Source/portable/GCC/CM4F/portmacro.h **** 
 139:Generated_Source\PSoC6\pdl\rtos/FreeRTOS/9.0.0/Source/portable/GCC/CM4F/portmacro.h **** 
 140:Generated_Source\PSoC6\pdl\rtos/FreeRTOS/9.0.0/Source/portable/GCC/CM4F/portmacro.h **** /* Critical section management. */
 141:Generated_Source\PSoC6\pdl\rtos/FreeRTOS/9.0.0/Source/portable/GCC/CM4F/portmacro.h **** extern void vPortEnterCritical( void );
 142:Generated_Source\PSoC6\pdl\rtos/FreeRTOS/9.0.0/Source/portable/GCC/CM4F/portmacro.h **** extern void vPortExitCritical( void );
 143:Generated_Source\PSoC6\pdl\rtos/FreeRTOS/9.0.0/Source/portable/GCC/CM4F/portmacro.h **** #define portSET_INTERRUPT_MASK_FROM_ISR()       ulPortRaiseBASEPRI()
 144:Generated_Source\PSoC6\pdl\rtos/FreeRTOS/9.0.0/Source/portable/GCC/CM4F/portmacro.h **** #define portCLEAR_INTERRUPT_MASK_FROM_ISR(x)    vPortSetBASEPRI(x)
 145:Generated_Source\PSoC6\pdl\rtos/FreeRTOS/9.0.0/Source/portable/GCC/CM4F/portmacro.h **** #define portDISABLE_INTERRUPTS()                __asm volatile   ( " cpsid i " )
 146:Generated_Source\PSoC6\pdl\rtos/FreeRTOS/9.0.0/Source/portable/GCC/CM4F/portmacro.h **** #define portENABLE_INTERRUPTS()                 __asm volatile   ( " cpsie i " )
 147:Generated_Source\PSoC6\pdl\rtos/FreeRTOS/9.0.0/Source/portable/GCC/CM4F/portmacro.h **** #define portENTER_CRITICAL()                    vPortEnterCritical()
 148:Generated_Source\PSoC6\pdl\rtos/FreeRTOS/9.0.0/Source/portable/GCC/CM4F/portmacro.h **** #define portEXIT_CRITICAL()                     vPortExitCritical()
 149:Generated_Source\PSoC6\pdl\rtos/FreeRTOS/9.0.0/Source/portable/GCC/CM4F/portmacro.h **** 
 150:Generated_Source\PSoC6\pdl\rtos/FreeRTOS/9.0.0/Source/portable/GCC/CM4F/portmacro.h **** /*-----------------------------------------------------------*/
 151:Generated_Source\PSoC6\pdl\rtos/FreeRTOS/9.0.0/Source/portable/GCC/CM4F/portmacro.h **** 
 152:Generated_Source\PSoC6\pdl\rtos/FreeRTOS/9.0.0/Source/portable/GCC/CM4F/portmacro.h **** /* Task function macros as described on the FreeRTOS.org WEB site. */
 153:Generated_Source\PSoC6\pdl\rtos/FreeRTOS/9.0.0/Source/portable/GCC/CM4F/portmacro.h **** #define portTASK_FUNCTION_PROTO( vFunction, pvParameters ) void vFunction( void *pvParameters )
 154:Generated_Source\PSoC6\pdl\rtos/FreeRTOS/9.0.0/Source/portable/GCC/CM4F/portmacro.h **** #define portTASK_FUNCTION( vFunction, pvParameters ) void vFunction( void *pvParameters )
 155:Generated_Source\PSoC6\pdl\rtos/FreeRTOS/9.0.0/Source/portable/GCC/CM4F/portmacro.h **** 
 156:Generated_Source\PSoC6\pdl\rtos/FreeRTOS/9.0.0/Source/portable/GCC/CM4F/portmacro.h **** /*-----------------------------------------------------------*/
 157:Generated_Source\PSoC6\pdl\rtos/FreeRTOS/9.0.0/Source/portable/GCC/CM4F/portmacro.h **** 
 158:Generated_Source\PSoC6\pdl\rtos/FreeRTOS/9.0.0/Source/portable/GCC/CM4F/portmacro.h **** #ifdef configASSERT
 159:Generated_Source\PSoC6\pdl\rtos/FreeRTOS/9.0.0/Source/portable/GCC/CM4F/portmacro.h ****     void vPortValidateInterruptPriority( void );
 160:Generated_Source\PSoC6\pdl\rtos/FreeRTOS/9.0.0/Source/portable/GCC/CM4F/portmacro.h ****     #define portASSERT_IF_INTERRUPT_PRIORITY_INVALID()     vPortValidateInterruptPriority()
 161:Generated_Source\PSoC6\pdl\rtos/FreeRTOS/9.0.0/Source/portable/GCC/CM4F/portmacro.h **** #endif
 162:Generated_Source\PSoC6\pdl\rtos/FreeRTOS/9.0.0/Source/portable/GCC/CM4F/portmacro.h **** 
 163:Generated_Source\PSoC6\pdl\rtos/FreeRTOS/9.0.0/Source/portable/GCC/CM4F/portmacro.h **** /* portNOP() is not required by this port. */
 164:Generated_Source\PSoC6\pdl\rtos/FreeRTOS/9.0.0/Source/portable/GCC/CM4F/portmacro.h **** #define portNOP()
 165:Generated_Source\PSoC6\pdl\rtos/FreeRTOS/9.0.0/Source/portable/GCC/CM4F/portmacro.h **** 
 166:Generated_Source\PSoC6\pdl\rtos/FreeRTOS/9.0.0/Source/portable/GCC/CM4F/portmacro.h **** #define portINLINE    __inline
 167:Generated_Source\PSoC6\pdl\rtos/FreeRTOS/9.0.0/Source/portable/GCC/CM4F/portmacro.h **** 
 168:Generated_Source\PSoC6\pdl\rtos/FreeRTOS/9.0.0/Source/portable/GCC/CM4F/portmacro.h **** #ifndef portFORCE_INLINE
 169:Generated_Source\PSoC6\pdl\rtos/FreeRTOS/9.0.0/Source/portable/GCC/CM4F/portmacro.h ****     #define portFORCE_INLINE inline __attribute__(( always_inline))
 170:Generated_Source\PSoC6\pdl\rtos/FreeRTOS/9.0.0/Source/portable/GCC/CM4F/portmacro.h **** #endif
 171:Generated_Source\PSoC6\pdl\rtos/FreeRTOS/9.0.0/Source/portable/GCC/CM4F/portmacro.h **** 
 172:Generated_Source\PSoC6\pdl\rtos/FreeRTOS/9.0.0/Source/portable/GCC/CM4F/portmacro.h **** /*-----------------------------------------------------------*/
 173:Generated_Source\PSoC6\pdl\rtos/FreeRTOS/9.0.0/Source/portable/GCC/CM4F/portmacro.h **** 
 174:Generated_Source\PSoC6\pdl\rtos/FreeRTOS/9.0.0/Source/portable/GCC/CM4F/portmacro.h **** portFORCE_INLINE static BaseType_t xPortIsInsideInterrupt( void )
 175:Generated_Source\PSoC6\pdl\rtos/FreeRTOS/9.0.0/Source/portable/GCC/CM4F/portmacro.h **** {
 176:Generated_Source\PSoC6\pdl\rtos/FreeRTOS/9.0.0/Source/portable/GCC/CM4F/portmacro.h **** uint32_t ulCurrentInterrupt;
 177:Generated_Source\PSoC6\pdl\rtos/FreeRTOS/9.0.0/Source/portable/GCC/CM4F/portmacro.h **** BaseType_t xReturn;
 178:Generated_Source\PSoC6\pdl\rtos/FreeRTOS/9.0.0/Source/portable/GCC/CM4F/portmacro.h **** 
ARM GAS  C:\Users\ikomb\AppData\Local\Temp\cc9p1klJ.s 			page 34


 179:Generated_Source\PSoC6\pdl\rtos/FreeRTOS/9.0.0/Source/portable/GCC/CM4F/portmacro.h ****     /* Obtain the number of the currently executing interrupt. */
 180:Generated_Source\PSoC6\pdl\rtos/FreeRTOS/9.0.0/Source/portable/GCC/CM4F/portmacro.h ****     __asm volatile( "mrs %0, ipsr" : "=r"( ulCurrentInterrupt ) );
 181:Generated_Source\PSoC6\pdl\rtos/FreeRTOS/9.0.0/Source/portable/GCC/CM4F/portmacro.h **** 
 182:Generated_Source\PSoC6\pdl\rtos/FreeRTOS/9.0.0/Source/portable/GCC/CM4F/portmacro.h ****     if( ulCurrentInterrupt == 0 )
 183:Generated_Source\PSoC6\pdl\rtos/FreeRTOS/9.0.0/Source/portable/GCC/CM4F/portmacro.h ****     {
 184:Generated_Source\PSoC6\pdl\rtos/FreeRTOS/9.0.0/Source/portable/GCC/CM4F/portmacro.h ****         xReturn = pdFALSE;
 185:Generated_Source\PSoC6\pdl\rtos/FreeRTOS/9.0.0/Source/portable/GCC/CM4F/portmacro.h ****     }
 186:Generated_Source\PSoC6\pdl\rtos/FreeRTOS/9.0.0/Source/portable/GCC/CM4F/portmacro.h ****     else
 187:Generated_Source\PSoC6\pdl\rtos/FreeRTOS/9.0.0/Source/portable/GCC/CM4F/portmacro.h ****     {
 188:Generated_Source\PSoC6\pdl\rtos/FreeRTOS/9.0.0/Source/portable/GCC/CM4F/portmacro.h ****         xReturn = pdTRUE;
 189:Generated_Source\PSoC6\pdl\rtos/FreeRTOS/9.0.0/Source/portable/GCC/CM4F/portmacro.h ****     }
 190:Generated_Source\PSoC6\pdl\rtos/FreeRTOS/9.0.0/Source/portable/GCC/CM4F/portmacro.h **** 
 191:Generated_Source\PSoC6\pdl\rtos/FreeRTOS/9.0.0/Source/portable/GCC/CM4F/portmacro.h ****     return xReturn;
 192:Generated_Source\PSoC6\pdl\rtos/FreeRTOS/9.0.0/Source/portable/GCC/CM4F/portmacro.h **** }
 193:Generated_Source\PSoC6\pdl\rtos/FreeRTOS/9.0.0/Source/portable/GCC/CM4F/portmacro.h **** /*-----------------------------------------------------------*/
 194:Generated_Source\PSoC6\pdl\rtos/FreeRTOS/9.0.0/Source/portable/GCC/CM4F/portmacro.h **** 
 195:Generated_Source\PSoC6\pdl\rtos/FreeRTOS/9.0.0/Source/portable/GCC/CM4F/portmacro.h **** portFORCE_INLINE static void vPortRaiseBASEPRI( void )
 196:Generated_Source\PSoC6\pdl\rtos/FreeRTOS/9.0.0/Source/portable/GCC/CM4F/portmacro.h **** {
 197:Generated_Source\PSoC6\pdl\rtos/FreeRTOS/9.0.0/Source/portable/GCC/CM4F/portmacro.h **** uint32_t ulNewBASEPRI;
 198:Generated_Source\PSoC6\pdl\rtos/FreeRTOS/9.0.0/Source/portable/GCC/CM4F/portmacro.h **** 
 199:Generated_Source\PSoC6\pdl\rtos/FreeRTOS/9.0.0/Source/portable/GCC/CM4F/portmacro.h ****     __asm volatile
 200:Generated_Source\PSoC6\pdl\rtos/FreeRTOS/9.0.0/Source/portable/GCC/CM4F/portmacro.h ****     (
 201:Generated_Source\PSoC6\pdl\rtos/FreeRTOS/9.0.0/Source/portable/GCC/CM4F/portmacro.h ****         "    mov %0, %1                                                 \n" \
 202:Generated_Source\PSoC6\pdl\rtos/FreeRTOS/9.0.0/Source/portable/GCC/CM4F/portmacro.h ****         "    msr basepri, %0                                            \n" \
 203:Generated_Source\PSoC6\pdl\rtos/FreeRTOS/9.0.0/Source/portable/GCC/CM4F/portmacro.h ****         "    isb                                                        \n" \
 204:Generated_Source\PSoC6\pdl\rtos/FreeRTOS/9.0.0/Source/portable/GCC/CM4F/portmacro.h ****         "    dsb                                                        \n" \
 205:Generated_Source\PSoC6\pdl\rtos/FreeRTOS/9.0.0/Source/portable/GCC/CM4F/portmacro.h ****         :"=r" (ulNewBASEPRI) : "i" ( configMAX_SYSCALL_INTERRUPT_PRIORITY )
 206:Generated_Source\PSoC6\pdl\rtos/FreeRTOS/9.0.0/Source/portable/GCC/CM4F/portmacro.h ****     );
 207:Generated_Source\PSoC6\pdl\rtos/FreeRTOS/9.0.0/Source/portable/GCC/CM4F/portmacro.h **** }
 208:Generated_Source\PSoC6\pdl\rtos/FreeRTOS/9.0.0/Source/portable/GCC/CM4F/portmacro.h **** 
 209:Generated_Source\PSoC6\pdl\rtos/FreeRTOS/9.0.0/Source/portable/GCC/CM4F/portmacro.h **** /*-----------------------------------------------------------*/
 210:Generated_Source\PSoC6\pdl\rtos/FreeRTOS/9.0.0/Source/portable/GCC/CM4F/portmacro.h **** 
 211:Generated_Source\PSoC6\pdl\rtos/FreeRTOS/9.0.0/Source/portable/GCC/CM4F/portmacro.h **** portFORCE_INLINE static uint32_t ulPortRaiseBASEPRI( void )
 212:Generated_Source\PSoC6\pdl\rtos/FreeRTOS/9.0.0/Source/portable/GCC/CM4F/portmacro.h **** {
 213:Generated_Source\PSoC6\pdl\rtos/FreeRTOS/9.0.0/Source/portable/GCC/CM4F/portmacro.h **** uint32_t ulOriginalBASEPRI, ulNewBASEPRI;
 214:Generated_Source\PSoC6\pdl\rtos/FreeRTOS/9.0.0/Source/portable/GCC/CM4F/portmacro.h **** 
 215:Generated_Source\PSoC6\pdl\rtos/FreeRTOS/9.0.0/Source/portable/GCC/CM4F/portmacro.h ****     __asm volatile
 759              		.loc 2 215 0
 760              		.syntax unified
 761              	@ 215 "Generated_Source\PSoC6\pdl\rtos/FreeRTOS/9.0.0/Source/portable/GCC/CM4F/portmacro.h" 1
 762 0058 EFF31182 		    mrs r2, basepri                                            
 763 005c 4FF0BF03 	    mov r3, #191                                                 
 764 0060 83F31188 	    msr basepri, r3                                            
 765 0064 BFF36F8F 	    isb                                                        
 766 0068 BFF34F8F 	    dsb                                                        
 767              	
 768              	@ 0 "" 2
 769              		.thumb
 770              		.syntax unified
 771 006c BA61     		str	r2, [r7, #24]
 772 006e 7B61     		str	r3, [r7, #20]
 216:Generated_Source\PSoC6\pdl\rtos/FreeRTOS/9.0.0/Source/portable/GCC/CM4F/portmacro.h ****     (
 217:Generated_Source\PSoC6\pdl\rtos/FreeRTOS/9.0.0/Source/portable/GCC/CM4F/portmacro.h ****         "    mrs %0, basepri                                            \n" \
 218:Generated_Source\PSoC6\pdl\rtos/FreeRTOS/9.0.0/Source/portable/GCC/CM4F/portmacro.h ****         "    mov %1, %2                                                 \n" \
 219:Generated_Source\PSoC6\pdl\rtos/FreeRTOS/9.0.0/Source/portable/GCC/CM4F/portmacro.h ****         "    msr basepri, %1                                            \n" \
 220:Generated_Source\PSoC6\pdl\rtos/FreeRTOS/9.0.0/Source/portable/GCC/CM4F/portmacro.h ****         "    isb                                                        \n" \
 221:Generated_Source\PSoC6\pdl\rtos/FreeRTOS/9.0.0/Source/portable/GCC/CM4F/portmacro.h ****         "    dsb                                                        \n" \
ARM GAS  C:\Users\ikomb\AppData\Local\Temp\cc9p1klJ.s 			page 35


 222:Generated_Source\PSoC6\pdl\rtos/FreeRTOS/9.0.0/Source/portable/GCC/CM4F/portmacro.h ****         :"=r" (ulOriginalBASEPRI), "=r" (ulNewBASEPRI) : "i" ( configMAX_SYSCALL_INTERRUPT_PRIORITY
 223:Generated_Source\PSoC6\pdl\rtos/FreeRTOS/9.0.0/Source/portable/GCC/CM4F/portmacro.h ****     );
 224:Generated_Source\PSoC6\pdl\rtos/FreeRTOS/9.0.0/Source/portable/GCC/CM4F/portmacro.h **** 
 225:Generated_Source\PSoC6\pdl\rtos/FreeRTOS/9.0.0/Source/portable/GCC/CM4F/portmacro.h ****     /* This return will not be reached but is necessary to prevent compiler
 226:Generated_Source\PSoC6\pdl\rtos/FreeRTOS/9.0.0/Source/portable/GCC/CM4F/portmacro.h ****     warnings. */
 227:Generated_Source\PSoC6\pdl\rtos/FreeRTOS/9.0.0/Source/portable/GCC/CM4F/portmacro.h ****     return ulOriginalBASEPRI;
 773              		.loc 2 227 0
 774 0070 BB69     		ldr	r3, [r7, #24]
 775              	.LBE24:
 776              	.LBE23:
 946:Generated_Source\PSoC6\pdl\rtos\FreeRTOS\9.0.0\Source/queue.c **** 
 947:Generated_Source\PSoC6\pdl\rtos\FreeRTOS\9.0.0\Source/queue.c **** 	/* Similar to xQueueGenericSend, except without blocking if there is no room
 948:Generated_Source\PSoC6\pdl\rtos\FreeRTOS\9.0.0\Source/queue.c **** 	in the queue.  Also don't directly wake a task that was blocked on a queue
 949:Generated_Source\PSoC6\pdl\rtos\FreeRTOS\9.0.0\Source/queue.c **** 	read, instead return a flag to say whether a context switch is required or
 950:Generated_Source\PSoC6\pdl\rtos\FreeRTOS\9.0.0\Source/queue.c **** 	not (i.e. has a task with a higher priority than us been woken by this
 951:Generated_Source\PSoC6\pdl\rtos\FreeRTOS\9.0.0\Source/queue.c **** 	post). */
 952:Generated_Source\PSoC6\pdl\rtos\FreeRTOS\9.0.0\Source/queue.c **** 	uxSavedInterruptStatus = portSET_INTERRUPT_MASK_FROM_ISR();
 777              		.loc 1 952 0
 778 0072 3B62     		str	r3, [r7, #32]
 953:Generated_Source\PSoC6\pdl\rtos\FreeRTOS\9.0.0\Source/queue.c **** 	{
 954:Generated_Source\PSoC6\pdl\rtos\FreeRTOS\9.0.0\Source/queue.c **** 		if( ( pxQueue->uxMessagesWaiting < pxQueue->uxLength ) || ( xCopyPosition == queueOVERWRITE ) )
 779              		.loc 1 954 0
 780 0074 BB6A     		ldr	r3, [r7, #40]
 781 0076 9A6B     		ldr	r2, [r3, #56]
 782 0078 BB6A     		ldr	r3, [r7, #40]
 783 007a DB6B     		ldr	r3, [r3, #60]
 784 007c 9A42     		cmp	r2, r3
 785 007e 02D3     		bcc	.L68
 786              		.loc 1 954 0 is_stmt 0 discriminator 1
 787 0080 3B68     		ldr	r3, [r7]
 788 0082 022B     		cmp	r3, #2
 789 0084 2AD1     		bne	.L69
 790              	.L68:
 791              	.LBB25:
 955:Generated_Source\PSoC6\pdl\rtos\FreeRTOS\9.0.0\Source/queue.c **** 		{
 956:Generated_Source\PSoC6\pdl\rtos\FreeRTOS\9.0.0\Source/queue.c **** 			const int8_t cTxLock = pxQueue->cTxLock;
 792              		.loc 1 956 0 is_stmt 1
 793 0086 BB6A     		ldr	r3, [r7, #40]
 794 0088 93F84530 		ldrb	r3, [r3, #69]
 795 008c FB77     		strb	r3, [r7, #31]
 957:Generated_Source\PSoC6\pdl\rtos\FreeRTOS\9.0.0\Source/queue.c **** 
 958:Generated_Source\PSoC6\pdl\rtos\FreeRTOS\9.0.0\Source/queue.c **** 			traceQUEUE_SEND_FROM_ISR( pxQueue );
 959:Generated_Source\PSoC6\pdl\rtos\FreeRTOS\9.0.0\Source/queue.c **** 
 960:Generated_Source\PSoC6\pdl\rtos\FreeRTOS\9.0.0\Source/queue.c **** 			/* Semaphores use xQueueGiveFromISR(), so pxQueue will not be a
 961:Generated_Source\PSoC6\pdl\rtos\FreeRTOS\9.0.0\Source/queue.c **** 			semaphore or mutex.  That means prvCopyDataToQueue() cannot result
 962:Generated_Source\PSoC6\pdl\rtos\FreeRTOS\9.0.0\Source/queue.c **** 			in a task disinheriting a priority and prvCopyDataToQueue() can be
 963:Generated_Source\PSoC6\pdl\rtos\FreeRTOS\9.0.0\Source/queue.c **** 			called here even though the disinherit function does not check if
 964:Generated_Source\PSoC6\pdl\rtos\FreeRTOS\9.0.0\Source/queue.c **** 			the scheduler is suspended before accessing the ready lists. */
 965:Generated_Source\PSoC6\pdl\rtos\FreeRTOS\9.0.0\Source/queue.c **** 			( void ) prvCopyDataToQueue( pxQueue, pvItemToQueue, xCopyPosition );
 796              		.loc 1 965 0
 797 008e 3A68     		ldr	r2, [r7]
 798 0090 B968     		ldr	r1, [r7, #8]
 799 0092 B86A     		ldr	r0, [r7, #40]
 800 0094 FFF7FEFF 		bl	prvCopyDataToQueue
 966:Generated_Source\PSoC6\pdl\rtos\FreeRTOS\9.0.0\Source/queue.c **** 
 967:Generated_Source\PSoC6\pdl\rtos\FreeRTOS\9.0.0\Source/queue.c **** 			/* The event list is not altered if the queue is locked.  This will
 968:Generated_Source\PSoC6\pdl\rtos\FreeRTOS\9.0.0\Source/queue.c **** 			be done when the queue is unlocked later. */
ARM GAS  C:\Users\ikomb\AppData\Local\Temp\cc9p1klJ.s 			page 36


 969:Generated_Source\PSoC6\pdl\rtos\FreeRTOS\9.0.0\Source/queue.c **** 			if( cTxLock == queueUNLOCKED )
 801              		.loc 1 969 0
 802 0098 97F91F30 		ldrsb	r3, [r7, #31]
 803 009c B3F1FF3F 		cmp	r3, #-1
 804 00a0 12D1     		bne	.L70
 970:Generated_Source\PSoC6\pdl\rtos\FreeRTOS\9.0.0\Source/queue.c **** 			{
 971:Generated_Source\PSoC6\pdl\rtos\FreeRTOS\9.0.0\Source/queue.c **** 				#if ( configUSE_QUEUE_SETS == 1 )
 972:Generated_Source\PSoC6\pdl\rtos\FreeRTOS\9.0.0\Source/queue.c **** 				{
 973:Generated_Source\PSoC6\pdl\rtos\FreeRTOS\9.0.0\Source/queue.c **** 					if( pxQueue->pxQueueSetContainer != NULL )
 974:Generated_Source\PSoC6\pdl\rtos\FreeRTOS\9.0.0\Source/queue.c **** 					{
 975:Generated_Source\PSoC6\pdl\rtos\FreeRTOS\9.0.0\Source/queue.c **** 						if( prvNotifyQueueSetContainer( pxQueue, xCopyPosition ) != pdFALSE )
 976:Generated_Source\PSoC6\pdl\rtos\FreeRTOS\9.0.0\Source/queue.c **** 						{
 977:Generated_Source\PSoC6\pdl\rtos\FreeRTOS\9.0.0\Source/queue.c **** 							/* The queue is a member of a queue set, and posting
 978:Generated_Source\PSoC6\pdl\rtos\FreeRTOS\9.0.0\Source/queue.c **** 							to the queue set caused a higher priority task to
 979:Generated_Source\PSoC6\pdl\rtos\FreeRTOS\9.0.0\Source/queue.c **** 							unblock.  A context switch is required. */
 980:Generated_Source\PSoC6\pdl\rtos\FreeRTOS\9.0.0\Source/queue.c **** 							if( pxHigherPriorityTaskWoken != NULL )
 981:Generated_Source\PSoC6\pdl\rtos\FreeRTOS\9.0.0\Source/queue.c **** 							{
 982:Generated_Source\PSoC6\pdl\rtos\FreeRTOS\9.0.0\Source/queue.c **** 								*pxHigherPriorityTaskWoken = pdTRUE;
 983:Generated_Source\PSoC6\pdl\rtos\FreeRTOS\9.0.0\Source/queue.c **** 							}
 984:Generated_Source\PSoC6\pdl\rtos\FreeRTOS\9.0.0\Source/queue.c **** 							else
 985:Generated_Source\PSoC6\pdl\rtos\FreeRTOS\9.0.0\Source/queue.c **** 							{
 986:Generated_Source\PSoC6\pdl\rtos\FreeRTOS\9.0.0\Source/queue.c **** 								mtCOVERAGE_TEST_MARKER();
 987:Generated_Source\PSoC6\pdl\rtos\FreeRTOS\9.0.0\Source/queue.c **** 							}
 988:Generated_Source\PSoC6\pdl\rtos\FreeRTOS\9.0.0\Source/queue.c **** 						}
 989:Generated_Source\PSoC6\pdl\rtos\FreeRTOS\9.0.0\Source/queue.c **** 						else
 990:Generated_Source\PSoC6\pdl\rtos\FreeRTOS\9.0.0\Source/queue.c **** 						{
 991:Generated_Source\PSoC6\pdl\rtos\FreeRTOS\9.0.0\Source/queue.c **** 							mtCOVERAGE_TEST_MARKER();
 992:Generated_Source\PSoC6\pdl\rtos\FreeRTOS\9.0.0\Source/queue.c **** 						}
 993:Generated_Source\PSoC6\pdl\rtos\FreeRTOS\9.0.0\Source/queue.c **** 					}
 994:Generated_Source\PSoC6\pdl\rtos\FreeRTOS\9.0.0\Source/queue.c **** 					else
 995:Generated_Source\PSoC6\pdl\rtos\FreeRTOS\9.0.0\Source/queue.c **** 					{
 996:Generated_Source\PSoC6\pdl\rtos\FreeRTOS\9.0.0\Source/queue.c **** 						if( listLIST_IS_EMPTY( &( pxQueue->xTasksWaitingToReceive ) ) == pdFALSE )
 997:Generated_Source\PSoC6\pdl\rtos\FreeRTOS\9.0.0\Source/queue.c **** 						{
 998:Generated_Source\PSoC6\pdl\rtos\FreeRTOS\9.0.0\Source/queue.c **** 							if( xTaskRemoveFromEventList( &( pxQueue->xTasksWaitingToReceive ) ) != pdFALSE )
 999:Generated_Source\PSoC6\pdl\rtos\FreeRTOS\9.0.0\Source/queue.c **** 							{
1000:Generated_Source\PSoC6\pdl\rtos\FreeRTOS\9.0.0\Source/queue.c **** 								/* The task waiting has a higher priority so
1001:Generated_Source\PSoC6\pdl\rtos\FreeRTOS\9.0.0\Source/queue.c **** 								record that a context switch is required. */
1002:Generated_Source\PSoC6\pdl\rtos\FreeRTOS\9.0.0\Source/queue.c **** 								if( pxHigherPriorityTaskWoken != NULL )
1003:Generated_Source\PSoC6\pdl\rtos\FreeRTOS\9.0.0\Source/queue.c **** 								{
1004:Generated_Source\PSoC6\pdl\rtos\FreeRTOS\9.0.0\Source/queue.c **** 									*pxHigherPriorityTaskWoken = pdTRUE;
1005:Generated_Source\PSoC6\pdl\rtos\FreeRTOS\9.0.0\Source/queue.c **** 								}
1006:Generated_Source\PSoC6\pdl\rtos\FreeRTOS\9.0.0\Source/queue.c **** 								else
1007:Generated_Source\PSoC6\pdl\rtos\FreeRTOS\9.0.0\Source/queue.c **** 								{
1008:Generated_Source\PSoC6\pdl\rtos\FreeRTOS\9.0.0\Source/queue.c **** 									mtCOVERAGE_TEST_MARKER();
1009:Generated_Source\PSoC6\pdl\rtos\FreeRTOS\9.0.0\Source/queue.c **** 								}
1010:Generated_Source\PSoC6\pdl\rtos\FreeRTOS\9.0.0\Source/queue.c **** 							}
1011:Generated_Source\PSoC6\pdl\rtos\FreeRTOS\9.0.0\Source/queue.c **** 							else
1012:Generated_Source\PSoC6\pdl\rtos\FreeRTOS\9.0.0\Source/queue.c **** 							{
1013:Generated_Source\PSoC6\pdl\rtos\FreeRTOS\9.0.0\Source/queue.c **** 								mtCOVERAGE_TEST_MARKER();
1014:Generated_Source\PSoC6\pdl\rtos\FreeRTOS\9.0.0\Source/queue.c **** 							}
1015:Generated_Source\PSoC6\pdl\rtos\FreeRTOS\9.0.0\Source/queue.c **** 						}
1016:Generated_Source\PSoC6\pdl\rtos\FreeRTOS\9.0.0\Source/queue.c **** 						else
1017:Generated_Source\PSoC6\pdl\rtos\FreeRTOS\9.0.0\Source/queue.c **** 						{
1018:Generated_Source\PSoC6\pdl\rtos\FreeRTOS\9.0.0\Source/queue.c **** 							mtCOVERAGE_TEST_MARKER();
1019:Generated_Source\PSoC6\pdl\rtos\FreeRTOS\9.0.0\Source/queue.c **** 						}
1020:Generated_Source\PSoC6\pdl\rtos\FreeRTOS\9.0.0\Source/queue.c **** 					}
1021:Generated_Source\PSoC6\pdl\rtos\FreeRTOS\9.0.0\Source/queue.c **** 				}
ARM GAS  C:\Users\ikomb\AppData\Local\Temp\cc9p1klJ.s 			page 37


1022:Generated_Source\PSoC6\pdl\rtos\FreeRTOS\9.0.0\Source/queue.c **** 				#else /* configUSE_QUEUE_SETS */
1023:Generated_Source\PSoC6\pdl\rtos\FreeRTOS\9.0.0\Source/queue.c **** 				{
1024:Generated_Source\PSoC6\pdl\rtos\FreeRTOS\9.0.0\Source/queue.c **** 					if( listLIST_IS_EMPTY( &( pxQueue->xTasksWaitingToReceive ) ) == pdFALSE )
 805              		.loc 1 1024 0
 806 00a2 BB6A     		ldr	r3, [r7, #40]
 807 00a4 5B6A     		ldr	r3, [r3, #36]
 808 00a6 002B     		cmp	r3, #0
 809 00a8 15D0     		beq	.L71
1025:Generated_Source\PSoC6\pdl\rtos\FreeRTOS\9.0.0\Source/queue.c **** 					{
1026:Generated_Source\PSoC6\pdl\rtos\FreeRTOS\9.0.0\Source/queue.c **** 						if( xTaskRemoveFromEventList( &( pxQueue->xTasksWaitingToReceive ) ) != pdFALSE )
 810              		.loc 1 1026 0
 811 00aa BB6A     		ldr	r3, [r7, #40]
 812 00ac 2433     		adds	r3, r3, #36
 813 00ae 1846     		mov	r0, r3
 814 00b0 FFF7FEFF 		bl	xTaskRemoveFromEventList
 815 00b4 0346     		mov	r3, r0
 816 00b6 002B     		cmp	r3, #0
 817 00b8 0DD0     		beq	.L71
1027:Generated_Source\PSoC6\pdl\rtos\FreeRTOS\9.0.0\Source/queue.c **** 						{
1028:Generated_Source\PSoC6\pdl\rtos\FreeRTOS\9.0.0\Source/queue.c **** 							/* The task waiting has a higher priority so record that a
1029:Generated_Source\PSoC6\pdl\rtos\FreeRTOS\9.0.0\Source/queue.c **** 							context	switch is required. */
1030:Generated_Source\PSoC6\pdl\rtos\FreeRTOS\9.0.0\Source/queue.c **** 							if( pxHigherPriorityTaskWoken != NULL )
 818              		.loc 1 1030 0
 819 00ba 7B68     		ldr	r3, [r7, #4]
 820 00bc 002B     		cmp	r3, #0
 821 00be 0AD0     		beq	.L71
1031:Generated_Source\PSoC6\pdl\rtos\FreeRTOS\9.0.0\Source/queue.c **** 							{
1032:Generated_Source\PSoC6\pdl\rtos\FreeRTOS\9.0.0\Source/queue.c **** 								*pxHigherPriorityTaskWoken = pdTRUE;
 822              		.loc 1 1032 0
 823 00c0 7B68     		ldr	r3, [r7, #4]
 824 00c2 0122     		movs	r2, #1
 825 00c4 1A60     		str	r2, [r3]
 826 00c6 06E0     		b	.L71
 827              	.L70:
1033:Generated_Source\PSoC6\pdl\rtos\FreeRTOS\9.0.0\Source/queue.c **** 							}
1034:Generated_Source\PSoC6\pdl\rtos\FreeRTOS\9.0.0\Source/queue.c **** 							else
1035:Generated_Source\PSoC6\pdl\rtos\FreeRTOS\9.0.0\Source/queue.c **** 							{
1036:Generated_Source\PSoC6\pdl\rtos\FreeRTOS\9.0.0\Source/queue.c **** 								mtCOVERAGE_TEST_MARKER();
1037:Generated_Source\PSoC6\pdl\rtos\FreeRTOS\9.0.0\Source/queue.c **** 							}
1038:Generated_Source\PSoC6\pdl\rtos\FreeRTOS\9.0.0\Source/queue.c **** 						}
1039:Generated_Source\PSoC6\pdl\rtos\FreeRTOS\9.0.0\Source/queue.c **** 						else
1040:Generated_Source\PSoC6\pdl\rtos\FreeRTOS\9.0.0\Source/queue.c **** 						{
1041:Generated_Source\PSoC6\pdl\rtos\FreeRTOS\9.0.0\Source/queue.c **** 							mtCOVERAGE_TEST_MARKER();
1042:Generated_Source\PSoC6\pdl\rtos\FreeRTOS\9.0.0\Source/queue.c **** 						}
1043:Generated_Source\PSoC6\pdl\rtos\FreeRTOS\9.0.0\Source/queue.c **** 					}
1044:Generated_Source\PSoC6\pdl\rtos\FreeRTOS\9.0.0\Source/queue.c **** 					else
1045:Generated_Source\PSoC6\pdl\rtos\FreeRTOS\9.0.0\Source/queue.c **** 					{
1046:Generated_Source\PSoC6\pdl\rtos\FreeRTOS\9.0.0\Source/queue.c **** 						mtCOVERAGE_TEST_MARKER();
1047:Generated_Source\PSoC6\pdl\rtos\FreeRTOS\9.0.0\Source/queue.c **** 					}
1048:Generated_Source\PSoC6\pdl\rtos\FreeRTOS\9.0.0\Source/queue.c **** 				}
1049:Generated_Source\PSoC6\pdl\rtos\FreeRTOS\9.0.0\Source/queue.c **** 				#endif /* configUSE_QUEUE_SETS */
1050:Generated_Source\PSoC6\pdl\rtos\FreeRTOS\9.0.0\Source/queue.c **** 			}
1051:Generated_Source\PSoC6\pdl\rtos\FreeRTOS\9.0.0\Source/queue.c **** 			else
1052:Generated_Source\PSoC6\pdl\rtos\FreeRTOS\9.0.0\Source/queue.c **** 			{
1053:Generated_Source\PSoC6\pdl\rtos\FreeRTOS\9.0.0\Source/queue.c **** 				/* Increment the lock count so the task that unlocks the queue
1054:Generated_Source\PSoC6\pdl\rtos\FreeRTOS\9.0.0\Source/queue.c **** 				knows that data was posted while it was locked. */
1055:Generated_Source\PSoC6\pdl\rtos\FreeRTOS\9.0.0\Source/queue.c **** 				pxQueue->cTxLock = ( int8_t ) ( cTxLock + 1 );
ARM GAS  C:\Users\ikomb\AppData\Local\Temp\cc9p1klJ.s 			page 38


 828              		.loc 1 1055 0
 829 00c8 FB7F     		ldrb	r3, [r7, #31]	@ zero_extendqisi2
 830 00ca 0133     		adds	r3, r3, #1
 831 00cc DBB2     		uxtb	r3, r3
 832 00ce 5AB2     		sxtb	r2, r3
 833 00d0 BB6A     		ldr	r3, [r7, #40]
 834 00d2 83F84520 		strb	r2, [r3, #69]
 835              	.L71:
1056:Generated_Source\PSoC6\pdl\rtos\FreeRTOS\9.0.0\Source/queue.c **** 			}
1057:Generated_Source\PSoC6\pdl\rtos\FreeRTOS\9.0.0\Source/queue.c **** 
1058:Generated_Source\PSoC6\pdl\rtos\FreeRTOS\9.0.0\Source/queue.c **** 			xReturn = pdPASS;
 836              		.loc 1 1058 0
 837 00d6 0123     		movs	r3, #1
 838 00d8 FB62     		str	r3, [r7, #44]
 839              	.LBE25:
 955:Generated_Source\PSoC6\pdl\rtos\FreeRTOS\9.0.0\Source/queue.c **** 			const int8_t cTxLock = pxQueue->cTxLock;
 840              		.loc 1 955 0
 841 00da 01E0     		b	.L72
 842              	.L69:
1059:Generated_Source\PSoC6\pdl\rtos\FreeRTOS\9.0.0\Source/queue.c **** 		}
1060:Generated_Source\PSoC6\pdl\rtos\FreeRTOS\9.0.0\Source/queue.c **** 		else
1061:Generated_Source\PSoC6\pdl\rtos\FreeRTOS\9.0.0\Source/queue.c **** 		{
1062:Generated_Source\PSoC6\pdl\rtos\FreeRTOS\9.0.0\Source/queue.c **** 			traceQUEUE_SEND_FROM_ISR_FAILED( pxQueue );
1063:Generated_Source\PSoC6\pdl\rtos\FreeRTOS\9.0.0\Source/queue.c **** 			xReturn = errQUEUE_FULL;
 843              		.loc 1 1063 0
 844 00dc 0023     		movs	r3, #0
 845 00de FB62     		str	r3, [r7, #44]
 846              	.L72:
 847 00e0 3B6A     		ldr	r3, [r7, #32]
 848 00e2 7B62     		str	r3, [r7, #36]
 849              	.LBB26:
 850              	.LBB27:
 228:Generated_Source\PSoC6\pdl\rtos/FreeRTOS/9.0.0/Source/portable/GCC/CM4F/portmacro.h **** }
 229:Generated_Source\PSoC6\pdl\rtos/FreeRTOS/9.0.0/Source/portable/GCC/CM4F/portmacro.h **** /*-----------------------------------------------------------*/
 230:Generated_Source\PSoC6\pdl\rtos/FreeRTOS/9.0.0/Source/portable/GCC/CM4F/portmacro.h **** 
 231:Generated_Source\PSoC6\pdl\rtos/FreeRTOS/9.0.0/Source/portable/GCC/CM4F/portmacro.h **** portFORCE_INLINE static void vPortSetBASEPRI( uint32_t ulNewMaskValue )
 232:Generated_Source\PSoC6\pdl\rtos/FreeRTOS/9.0.0/Source/portable/GCC/CM4F/portmacro.h **** {
 233:Generated_Source\PSoC6\pdl\rtos/FreeRTOS/9.0.0/Source/portable/GCC/CM4F/portmacro.h ****     __asm volatile
 851              		.loc 2 233 0
 852 00e4 7B6A     		ldr	r3, [r7, #36]
 853              		.syntax unified
 854              	@ 233 "Generated_Source\PSoC6\pdl\rtos/FreeRTOS/9.0.0/Source/portable/GCC/CM4F/portmacro.h" 1
 855 00e6 83F31188 		    msr basepri, r3  
 856              	@ 0 "" 2
 857              		.thumb
 858              		.syntax unified
 859              	.LBE27:
 860              	.LBE26:
1064:Generated_Source\PSoC6\pdl\rtos\FreeRTOS\9.0.0\Source/queue.c **** 		}
1065:Generated_Source\PSoC6\pdl\rtos\FreeRTOS\9.0.0\Source/queue.c **** 	}
1066:Generated_Source\PSoC6\pdl\rtos\FreeRTOS\9.0.0\Source/queue.c **** 	portCLEAR_INTERRUPT_MASK_FROM_ISR( uxSavedInterruptStatus );
1067:Generated_Source\PSoC6\pdl\rtos\FreeRTOS\9.0.0\Source/queue.c **** 
1068:Generated_Source\PSoC6\pdl\rtos\FreeRTOS\9.0.0\Source/queue.c **** 	return xReturn;
 861              		.loc 1 1068 0
 862 00ea FB6A     		ldr	r3, [r7, #44]
1069:Generated_Source\PSoC6\pdl\rtos\FreeRTOS\9.0.0\Source/queue.c **** }
 863              		.loc 1 1069 0
ARM GAS  C:\Users\ikomb\AppData\Local\Temp\cc9p1klJ.s 			page 39


 864 00ec 1846     		mov	r0, r3
 865 00ee 3037     		adds	r7, r7, #48
 866              		.cfi_def_cfa_offset 8
 867 00f0 BD46     		mov	sp, r7
 868              		.cfi_def_cfa_register 13
 869              		@ sp needed
 870 00f2 80BD     		pop	{r7, pc}
 871              		.cfi_endproc
 872              	.LFE133:
 873              		.size	xQueueGenericSendFromISR, .-xQueueGenericSendFromISR
 874              		.section	.text.xQueueGiveFromISR,"ax",%progbits
 875              		.align	2
 876              		.global	xQueueGiveFromISR
 877              		.thumb
 878              		.thumb_func
 879              		.type	xQueueGiveFromISR, %function
 880              	xQueueGiveFromISR:
 881              	.LFB134:
1070:Generated_Source\PSoC6\pdl\rtos\FreeRTOS\9.0.0\Source/queue.c **** /*-----------------------------------------------------------*/
1071:Generated_Source\PSoC6\pdl\rtos\FreeRTOS\9.0.0\Source/queue.c **** 
1072:Generated_Source\PSoC6\pdl\rtos\FreeRTOS\9.0.0\Source/queue.c **** BaseType_t xQueueGiveFromISR( QueueHandle_t xQueue, BaseType_t * const pxHigherPriorityTaskWoken )
1073:Generated_Source\PSoC6\pdl\rtos\FreeRTOS\9.0.0\Source/queue.c **** {
 882              		.loc 1 1073 0
 883              		.cfi_startproc
 884              		@ args = 0, pretend = 0, frame = 40
 885              		@ frame_needed = 1, uses_anonymous_args = 0
 886 0000 80B5     		push	{r7, lr}
 887              		.cfi_def_cfa_offset 8
 888              		.cfi_offset 7, -8
 889              		.cfi_offset 14, -4
 890 0002 8AB0     		sub	sp, sp, #40
 891              		.cfi_def_cfa_offset 48
 892 0004 00AF     		add	r7, sp, #0
 893              		.cfi_def_cfa_register 7
 894 0006 7860     		str	r0, [r7, #4]
 895 0008 3960     		str	r1, [r7]
1074:Generated_Source\PSoC6\pdl\rtos\FreeRTOS\9.0.0\Source/queue.c **** BaseType_t xReturn;
1075:Generated_Source\PSoC6\pdl\rtos\FreeRTOS\9.0.0\Source/queue.c **** UBaseType_t uxSavedInterruptStatus;
1076:Generated_Source\PSoC6\pdl\rtos\FreeRTOS\9.0.0\Source/queue.c **** Queue_t * const pxQueue = ( Queue_t * ) xQueue;
 896              		.loc 1 1076 0
 897 000a 7B68     		ldr	r3, [r7, #4]
 898 000c 3B62     		str	r3, [r7, #32]
1077:Generated_Source\PSoC6\pdl\rtos\FreeRTOS\9.0.0\Source/queue.c **** 
1078:Generated_Source\PSoC6\pdl\rtos\FreeRTOS\9.0.0\Source/queue.c **** 	/* Similar to xQueueGenericSendFromISR() but used with semaphores where the
1079:Generated_Source\PSoC6\pdl\rtos\FreeRTOS\9.0.0\Source/queue.c **** 	item size is 0.  Don't directly wake a task that was blocked on a queue
1080:Generated_Source\PSoC6\pdl\rtos\FreeRTOS\9.0.0\Source/queue.c **** 	read, instead return a flag to say whether a context switch is required or
1081:Generated_Source\PSoC6\pdl\rtos\FreeRTOS\9.0.0\Source/queue.c **** 	not (i.e. has a task with a higher priority than us been woken by this
1082:Generated_Source\PSoC6\pdl\rtos\FreeRTOS\9.0.0\Source/queue.c **** 	post). */
1083:Generated_Source\PSoC6\pdl\rtos\FreeRTOS\9.0.0\Source/queue.c **** 
1084:Generated_Source\PSoC6\pdl\rtos\FreeRTOS\9.0.0\Source/queue.c **** 	configASSERT( pxQueue );
 899              		.loc 1 1084 0
 900 000e 3B6A     		ldr	r3, [r7, #32]
 901 0010 002B     		cmp	r3, #0
 902 0012 01D1     		bne	.L75
 903              		.loc 1 1084 0 is_stmt 0 discriminator 1
 904              		.syntax unified
 905              	@ 1084 "Generated_Source\PSoC6\pdl\rtos\FreeRTOS\9.0.0\Source\queue.c" 1
ARM GAS  C:\Users\ikomb\AppData\Local\Temp\cc9p1klJ.s 			page 40


 906 0014 72B6     		 cpsid i 
 907              	@ 0 "" 2
 908              		.thumb
 909              		.syntax unified
 910              	.L76:
 911 0016 FEE7     		b	.L76
 912              	.L75:
1085:Generated_Source\PSoC6\pdl\rtos\FreeRTOS\9.0.0\Source/queue.c **** 
1086:Generated_Source\PSoC6\pdl\rtos\FreeRTOS\9.0.0\Source/queue.c **** 	/* xQueueGenericSendFromISR() should be used instead of xQueueGiveFromISR()
1087:Generated_Source\PSoC6\pdl\rtos\FreeRTOS\9.0.0\Source/queue.c **** 	if the item size is not 0. */
1088:Generated_Source\PSoC6\pdl\rtos\FreeRTOS\9.0.0\Source/queue.c **** 	configASSERT( pxQueue->uxItemSize == 0 );
 913              		.loc 1 1088 0 is_stmt 1
 914 0018 3B6A     		ldr	r3, [r7, #32]
 915 001a 1B6C     		ldr	r3, [r3, #64]
 916 001c 002B     		cmp	r3, #0
 917 001e 01D0     		beq	.L77
 918              		.loc 1 1088 0 is_stmt 0 discriminator 1
 919              		.syntax unified
 920              	@ 1088 "Generated_Source\PSoC6\pdl\rtos\FreeRTOS\9.0.0\Source\queue.c" 1
 921 0020 72B6     		 cpsid i 
 922              	@ 0 "" 2
 923              		.thumb
 924              		.syntax unified
 925              	.L78:
 926              		.loc 1 1088 0 discriminator 2
 927 0022 FEE7     		b	.L78
 928              	.L77:
1089:Generated_Source\PSoC6\pdl\rtos\FreeRTOS\9.0.0\Source/queue.c **** 
1090:Generated_Source\PSoC6\pdl\rtos\FreeRTOS\9.0.0\Source/queue.c **** 	/* Normally a mutex would not be given from an interrupt, especially if
1091:Generated_Source\PSoC6\pdl\rtos\FreeRTOS\9.0.0\Source/queue.c **** 	there is a mutex holder, as priority inheritance makes no sense for an
1092:Generated_Source\PSoC6\pdl\rtos\FreeRTOS\9.0.0\Source/queue.c **** 	interrupts, only tasks. */
1093:Generated_Source\PSoC6\pdl\rtos\FreeRTOS\9.0.0\Source/queue.c **** 	configASSERT( !( ( pxQueue->uxQueueType == queueQUEUE_IS_MUTEX ) && ( pxQueue->pxMutexHolder != NU
 929              		.loc 1 1093 0 is_stmt 1
 930 0024 3B6A     		ldr	r3, [r7, #32]
 931 0026 1B68     		ldr	r3, [r3]
 932 0028 002B     		cmp	r3, #0
 933 002a 03D1     		bne	.L79
 934              		.loc 1 1093 0 is_stmt 0 discriminator 2
 935 002c 3B6A     		ldr	r3, [r7, #32]
 936 002e 5B68     		ldr	r3, [r3, #4]
 937 0030 002B     		cmp	r3, #0
 938 0032 01D1     		bne	.L80
 939              	.L79:
 940              		.loc 1 1093 0 discriminator 3
 941 0034 0123     		movs	r3, #1
 942 0036 00E0     		b	.L81
 943              	.L80:
 944              		.loc 1 1093 0 discriminator 4
 945 0038 0023     		movs	r3, #0
 946              	.L81:
 947              		.loc 1 1093 0 discriminator 6
 948 003a 002B     		cmp	r3, #0
 949 003c 01D1     		bne	.L82
 950              		.loc 1 1093 0 discriminator 7
 951              		.syntax unified
 952              	@ 1093 "Generated_Source\PSoC6\pdl\rtos\FreeRTOS\9.0.0\Source\queue.c" 1
 953 003e 72B6     		 cpsid i 
ARM GAS  C:\Users\ikomb\AppData\Local\Temp\cc9p1klJ.s 			page 41


 954              	@ 0 "" 2
 955              		.thumb
 956              		.syntax unified
 957              	.L83:
 958              		.loc 1 1093 0 discriminator 3
 959 0040 FEE7     		b	.L83
 960              	.L82:
1094:Generated_Source\PSoC6\pdl\rtos\FreeRTOS\9.0.0\Source/queue.c **** 
1095:Generated_Source\PSoC6\pdl\rtos\FreeRTOS\9.0.0\Source/queue.c **** 	/* RTOS ports that support interrupt nesting have the concept of a maximum
1096:Generated_Source\PSoC6\pdl\rtos\FreeRTOS\9.0.0\Source/queue.c **** 	system call (or maximum API call) interrupt priority.  Interrupts that are
1097:Generated_Source\PSoC6\pdl\rtos\FreeRTOS\9.0.0\Source/queue.c **** 	above the maximum system call priority are kept permanently enabled, even
1098:Generated_Source\PSoC6\pdl\rtos\FreeRTOS\9.0.0\Source/queue.c **** 	when the RTOS kernel is in a critical section, but cannot make any calls to
1099:Generated_Source\PSoC6\pdl\rtos\FreeRTOS\9.0.0\Source/queue.c **** 	FreeRTOS API functions.  If configASSERT() is defined in FreeRTOSConfig.h
1100:Generated_Source\PSoC6\pdl\rtos\FreeRTOS\9.0.0\Source/queue.c **** 	then portASSERT_IF_INTERRUPT_PRIORITY_INVALID() will result in an assertion
1101:Generated_Source\PSoC6\pdl\rtos\FreeRTOS\9.0.0\Source/queue.c **** 	failure if a FreeRTOS API function is called from an interrupt that has been
1102:Generated_Source\PSoC6\pdl\rtos\FreeRTOS\9.0.0\Source/queue.c **** 	assigned a priority above the configured maximum system call priority.
1103:Generated_Source\PSoC6\pdl\rtos\FreeRTOS\9.0.0\Source/queue.c **** 	Only FreeRTOS functions that end in FromISR can be called from interrupts
1104:Generated_Source\PSoC6\pdl\rtos\FreeRTOS\9.0.0\Source/queue.c **** 	that have been assigned a priority at or (logically) below the maximum
1105:Generated_Source\PSoC6\pdl\rtos\FreeRTOS\9.0.0\Source/queue.c **** 	system call	interrupt priority.  FreeRTOS maintains a separate interrupt
1106:Generated_Source\PSoC6\pdl\rtos\FreeRTOS\9.0.0\Source/queue.c **** 	safe API to ensure interrupt entry is as fast and as simple as possible.
1107:Generated_Source\PSoC6\pdl\rtos\FreeRTOS\9.0.0\Source/queue.c **** 	More information (albeit Cortex-M specific) is provided on the following
1108:Generated_Source\PSoC6\pdl\rtos\FreeRTOS\9.0.0\Source/queue.c **** 	link: http://www.freertos.org/RTOS-Cortex-M3-M4.html */
1109:Generated_Source\PSoC6\pdl\rtos\FreeRTOS\9.0.0\Source/queue.c **** 	portASSERT_IF_INTERRUPT_PRIORITY_INVALID();
 961              		.loc 1 1109 0 is_stmt 1
 962 0042 FFF7FEFF 		bl	vPortValidateInterruptPriority
 963              	.LBB28:
 964              	.LBB29:
 215:Generated_Source\PSoC6\pdl\rtos/FreeRTOS/9.0.0/Source/portable/GCC/CM4F/portmacro.h ****     (
 965              		.loc 2 215 0
 966              		.syntax unified
 967              	@ 215 "Generated_Source\PSoC6\pdl\rtos/FreeRTOS/9.0.0/Source/portable/GCC/CM4F/portmacro.h" 1
 968 0046 EFF31182 		    mrs r2, basepri                                            
 969 004a 4FF0BF03 	    mov r3, #191                                                 
 970 004e 83F31188 	    msr basepri, r3                                            
 971 0052 BFF36F8F 	    isb                                                        
 972 0056 BFF34F8F 	    dsb                                                        
 973              	
 974              	@ 0 "" 2
 975              		.thumb
 976              		.syntax unified
 977 005a FA60     		str	r2, [r7, #12]
 978 005c BB60     		str	r3, [r7, #8]
 227:Generated_Source\PSoC6\pdl\rtos/FreeRTOS/9.0.0/Source/portable/GCC/CM4F/portmacro.h **** }
 979              		.loc 2 227 0
 980 005e FB68     		ldr	r3, [r7, #12]
 981              	.LBE29:
 982              	.LBE28:
1110:Generated_Source\PSoC6\pdl\rtos\FreeRTOS\9.0.0\Source/queue.c **** 
1111:Generated_Source\PSoC6\pdl\rtos\FreeRTOS\9.0.0\Source/queue.c **** 	uxSavedInterruptStatus = portSET_INTERRUPT_MASK_FROM_ISR();
 983              		.loc 1 1111 0
 984 0060 BB61     		str	r3, [r7, #24]
 985              	.LBB30:
1112:Generated_Source\PSoC6\pdl\rtos\FreeRTOS\9.0.0\Source/queue.c **** 	{
1113:Generated_Source\PSoC6\pdl\rtos\FreeRTOS\9.0.0\Source/queue.c **** 		const UBaseType_t uxMessagesWaiting = pxQueue->uxMessagesWaiting;
 986              		.loc 1 1113 0
 987 0062 3B6A     		ldr	r3, [r7, #32]
 988 0064 9B6B     		ldr	r3, [r3, #56]
ARM GAS  C:\Users\ikomb\AppData\Local\Temp\cc9p1klJ.s 			page 42


 989 0066 7B61     		str	r3, [r7, #20]
1114:Generated_Source\PSoC6\pdl\rtos\FreeRTOS\9.0.0\Source/queue.c **** 
1115:Generated_Source\PSoC6\pdl\rtos\FreeRTOS\9.0.0\Source/queue.c **** 		/* When the queue is used to implement a semaphore no data is ever
1116:Generated_Source\PSoC6\pdl\rtos\FreeRTOS\9.0.0\Source/queue.c **** 		moved through the queue but it is still valid to see if the queue 'has
1117:Generated_Source\PSoC6\pdl\rtos\FreeRTOS\9.0.0\Source/queue.c **** 		space'. */
1118:Generated_Source\PSoC6\pdl\rtos\FreeRTOS\9.0.0\Source/queue.c **** 		if( uxMessagesWaiting < pxQueue->uxLength )
 990              		.loc 1 1118 0
 991 0068 3B6A     		ldr	r3, [r7, #32]
 992 006a DA6B     		ldr	r2, [r3, #60]
 993 006c 7B69     		ldr	r3, [r7, #20]
 994 006e 9A42     		cmp	r2, r3
 995 0070 29D9     		bls	.L85
 996              	.LBB31:
1119:Generated_Source\PSoC6\pdl\rtos\FreeRTOS\9.0.0\Source/queue.c **** 		{
1120:Generated_Source\PSoC6\pdl\rtos\FreeRTOS\9.0.0\Source/queue.c **** 			const int8_t cTxLock = pxQueue->cTxLock;
 997              		.loc 1 1120 0
 998 0072 3B6A     		ldr	r3, [r7, #32]
 999 0074 93F84530 		ldrb	r3, [r3, #69]
 1000 0078 FB74     		strb	r3, [r7, #19]
1121:Generated_Source\PSoC6\pdl\rtos\FreeRTOS\9.0.0\Source/queue.c **** 
1122:Generated_Source\PSoC6\pdl\rtos\FreeRTOS\9.0.0\Source/queue.c **** 			traceQUEUE_SEND_FROM_ISR( pxQueue );
1123:Generated_Source\PSoC6\pdl\rtos\FreeRTOS\9.0.0\Source/queue.c **** 
1124:Generated_Source\PSoC6\pdl\rtos\FreeRTOS\9.0.0\Source/queue.c **** 			/* A task can only have an inherited priority if it is a mutex
1125:Generated_Source\PSoC6\pdl\rtos\FreeRTOS\9.0.0\Source/queue.c **** 			holder - and if there is a mutex holder then the mutex cannot be
1126:Generated_Source\PSoC6\pdl\rtos\FreeRTOS\9.0.0\Source/queue.c **** 			given from an ISR.  As this is the ISR version of the function it
1127:Generated_Source\PSoC6\pdl\rtos\FreeRTOS\9.0.0\Source/queue.c **** 			can be assumed there is no mutex holder and no need to determine if
1128:Generated_Source\PSoC6\pdl\rtos\FreeRTOS\9.0.0\Source/queue.c **** 			priority disinheritance is needed.  Simply increase the count of
1129:Generated_Source\PSoC6\pdl\rtos\FreeRTOS\9.0.0\Source/queue.c **** 			messages (semaphores) available. */
1130:Generated_Source\PSoC6\pdl\rtos\FreeRTOS\9.0.0\Source/queue.c **** 			pxQueue->uxMessagesWaiting = uxMessagesWaiting + 1;
 1001              		.loc 1 1130 0
 1002 007a 7B69     		ldr	r3, [r7, #20]
 1003 007c 5A1C     		adds	r2, r3, #1
 1004 007e 3B6A     		ldr	r3, [r7, #32]
 1005 0080 9A63     		str	r2, [r3, #56]
1131:Generated_Source\PSoC6\pdl\rtos\FreeRTOS\9.0.0\Source/queue.c **** 
1132:Generated_Source\PSoC6\pdl\rtos\FreeRTOS\9.0.0\Source/queue.c **** 			/* The event list is not altered if the queue is locked.  This will
1133:Generated_Source\PSoC6\pdl\rtos\FreeRTOS\9.0.0\Source/queue.c **** 			be done when the queue is unlocked later. */
1134:Generated_Source\PSoC6\pdl\rtos\FreeRTOS\9.0.0\Source/queue.c **** 			if( cTxLock == queueUNLOCKED )
 1006              		.loc 1 1134 0
 1007 0082 97F91330 		ldrsb	r3, [r7, #19]
 1008 0086 B3F1FF3F 		cmp	r3, #-1
 1009 008a 12D1     		bne	.L86
1135:Generated_Source\PSoC6\pdl\rtos\FreeRTOS\9.0.0\Source/queue.c **** 			{
1136:Generated_Source\PSoC6\pdl\rtos\FreeRTOS\9.0.0\Source/queue.c **** 				#if ( configUSE_QUEUE_SETS == 1 )
1137:Generated_Source\PSoC6\pdl\rtos\FreeRTOS\9.0.0\Source/queue.c **** 				{
1138:Generated_Source\PSoC6\pdl\rtos\FreeRTOS\9.0.0\Source/queue.c **** 					if( pxQueue->pxQueueSetContainer != NULL )
1139:Generated_Source\PSoC6\pdl\rtos\FreeRTOS\9.0.0\Source/queue.c **** 					{
1140:Generated_Source\PSoC6\pdl\rtos\FreeRTOS\9.0.0\Source/queue.c **** 						if( prvNotifyQueueSetContainer( pxQueue, queueSEND_TO_BACK ) != pdFALSE )
1141:Generated_Source\PSoC6\pdl\rtos\FreeRTOS\9.0.0\Source/queue.c **** 						{
1142:Generated_Source\PSoC6\pdl\rtos\FreeRTOS\9.0.0\Source/queue.c **** 							/* The semaphore is a member of a queue set, and
1143:Generated_Source\PSoC6\pdl\rtos\FreeRTOS\9.0.0\Source/queue.c **** 							posting	to the queue set caused a higher priority
1144:Generated_Source\PSoC6\pdl\rtos\FreeRTOS\9.0.0\Source/queue.c **** 							task to	unblock.  A context switch is required. */
1145:Generated_Source\PSoC6\pdl\rtos\FreeRTOS\9.0.0\Source/queue.c **** 							if( pxHigherPriorityTaskWoken != NULL )
1146:Generated_Source\PSoC6\pdl\rtos\FreeRTOS\9.0.0\Source/queue.c **** 							{
1147:Generated_Source\PSoC6\pdl\rtos\FreeRTOS\9.0.0\Source/queue.c **** 								*pxHigherPriorityTaskWoken = pdTRUE;
1148:Generated_Source\PSoC6\pdl\rtos\FreeRTOS\9.0.0\Source/queue.c **** 							}
1149:Generated_Source\PSoC6\pdl\rtos\FreeRTOS\9.0.0\Source/queue.c **** 							else
ARM GAS  C:\Users\ikomb\AppData\Local\Temp\cc9p1klJ.s 			page 43


1150:Generated_Source\PSoC6\pdl\rtos\FreeRTOS\9.0.0\Source/queue.c **** 							{
1151:Generated_Source\PSoC6\pdl\rtos\FreeRTOS\9.0.0\Source/queue.c **** 								mtCOVERAGE_TEST_MARKER();
1152:Generated_Source\PSoC6\pdl\rtos\FreeRTOS\9.0.0\Source/queue.c **** 							}
1153:Generated_Source\PSoC6\pdl\rtos\FreeRTOS\9.0.0\Source/queue.c **** 						}
1154:Generated_Source\PSoC6\pdl\rtos\FreeRTOS\9.0.0\Source/queue.c **** 						else
1155:Generated_Source\PSoC6\pdl\rtos\FreeRTOS\9.0.0\Source/queue.c **** 						{
1156:Generated_Source\PSoC6\pdl\rtos\FreeRTOS\9.0.0\Source/queue.c **** 							mtCOVERAGE_TEST_MARKER();
1157:Generated_Source\PSoC6\pdl\rtos\FreeRTOS\9.0.0\Source/queue.c **** 						}
1158:Generated_Source\PSoC6\pdl\rtos\FreeRTOS\9.0.0\Source/queue.c **** 					}
1159:Generated_Source\PSoC6\pdl\rtos\FreeRTOS\9.0.0\Source/queue.c **** 					else
1160:Generated_Source\PSoC6\pdl\rtos\FreeRTOS\9.0.0\Source/queue.c **** 					{
1161:Generated_Source\PSoC6\pdl\rtos\FreeRTOS\9.0.0\Source/queue.c **** 						if( listLIST_IS_EMPTY( &( pxQueue->xTasksWaitingToReceive ) ) == pdFALSE )
1162:Generated_Source\PSoC6\pdl\rtos\FreeRTOS\9.0.0\Source/queue.c **** 						{
1163:Generated_Source\PSoC6\pdl\rtos\FreeRTOS\9.0.0\Source/queue.c **** 							if( xTaskRemoveFromEventList( &( pxQueue->xTasksWaitingToReceive ) ) != pdFALSE )
1164:Generated_Source\PSoC6\pdl\rtos\FreeRTOS\9.0.0\Source/queue.c **** 							{
1165:Generated_Source\PSoC6\pdl\rtos\FreeRTOS\9.0.0\Source/queue.c **** 								/* The task waiting has a higher priority so
1166:Generated_Source\PSoC6\pdl\rtos\FreeRTOS\9.0.0\Source/queue.c **** 								record that a context switch is required. */
1167:Generated_Source\PSoC6\pdl\rtos\FreeRTOS\9.0.0\Source/queue.c **** 								if( pxHigherPriorityTaskWoken != NULL )
1168:Generated_Source\PSoC6\pdl\rtos\FreeRTOS\9.0.0\Source/queue.c **** 								{
1169:Generated_Source\PSoC6\pdl\rtos\FreeRTOS\9.0.0\Source/queue.c **** 									*pxHigherPriorityTaskWoken = pdTRUE;
1170:Generated_Source\PSoC6\pdl\rtos\FreeRTOS\9.0.0\Source/queue.c **** 								}
1171:Generated_Source\PSoC6\pdl\rtos\FreeRTOS\9.0.0\Source/queue.c **** 								else
1172:Generated_Source\PSoC6\pdl\rtos\FreeRTOS\9.0.0\Source/queue.c **** 								{
1173:Generated_Source\PSoC6\pdl\rtos\FreeRTOS\9.0.0\Source/queue.c **** 									mtCOVERAGE_TEST_MARKER();
1174:Generated_Source\PSoC6\pdl\rtos\FreeRTOS\9.0.0\Source/queue.c **** 								}
1175:Generated_Source\PSoC6\pdl\rtos\FreeRTOS\9.0.0\Source/queue.c **** 							}
1176:Generated_Source\PSoC6\pdl\rtos\FreeRTOS\9.0.0\Source/queue.c **** 							else
1177:Generated_Source\PSoC6\pdl\rtos\FreeRTOS\9.0.0\Source/queue.c **** 							{
1178:Generated_Source\PSoC6\pdl\rtos\FreeRTOS\9.0.0\Source/queue.c **** 								mtCOVERAGE_TEST_MARKER();
1179:Generated_Source\PSoC6\pdl\rtos\FreeRTOS\9.0.0\Source/queue.c **** 							}
1180:Generated_Source\PSoC6\pdl\rtos\FreeRTOS\9.0.0\Source/queue.c **** 						}
1181:Generated_Source\PSoC6\pdl\rtos\FreeRTOS\9.0.0\Source/queue.c **** 						else
1182:Generated_Source\PSoC6\pdl\rtos\FreeRTOS\9.0.0\Source/queue.c **** 						{
1183:Generated_Source\PSoC6\pdl\rtos\FreeRTOS\9.0.0\Source/queue.c **** 							mtCOVERAGE_TEST_MARKER();
1184:Generated_Source\PSoC6\pdl\rtos\FreeRTOS\9.0.0\Source/queue.c **** 						}
1185:Generated_Source\PSoC6\pdl\rtos\FreeRTOS\9.0.0\Source/queue.c **** 					}
1186:Generated_Source\PSoC6\pdl\rtos\FreeRTOS\9.0.0\Source/queue.c **** 				}
1187:Generated_Source\PSoC6\pdl\rtos\FreeRTOS\9.0.0\Source/queue.c **** 				#else /* configUSE_QUEUE_SETS */
1188:Generated_Source\PSoC6\pdl\rtos\FreeRTOS\9.0.0\Source/queue.c **** 				{
1189:Generated_Source\PSoC6\pdl\rtos\FreeRTOS\9.0.0\Source/queue.c **** 					if( listLIST_IS_EMPTY( &( pxQueue->xTasksWaitingToReceive ) ) == pdFALSE )
 1010              		.loc 1 1189 0
 1011 008c 3B6A     		ldr	r3, [r7, #32]
 1012 008e 5B6A     		ldr	r3, [r3, #36]
 1013 0090 002B     		cmp	r3, #0
 1014 0092 15D0     		beq	.L87
1190:Generated_Source\PSoC6\pdl\rtos\FreeRTOS\9.0.0\Source/queue.c **** 					{
1191:Generated_Source\PSoC6\pdl\rtos\FreeRTOS\9.0.0\Source/queue.c **** 						if( xTaskRemoveFromEventList( &( pxQueue->xTasksWaitingToReceive ) ) != pdFALSE )
 1015              		.loc 1 1191 0
 1016 0094 3B6A     		ldr	r3, [r7, #32]
 1017 0096 2433     		adds	r3, r3, #36
 1018 0098 1846     		mov	r0, r3
 1019 009a FFF7FEFF 		bl	xTaskRemoveFromEventList
 1020 009e 0346     		mov	r3, r0
 1021 00a0 002B     		cmp	r3, #0
 1022 00a2 0DD0     		beq	.L87
1192:Generated_Source\PSoC6\pdl\rtos\FreeRTOS\9.0.0\Source/queue.c **** 						{
1193:Generated_Source\PSoC6\pdl\rtos\FreeRTOS\9.0.0\Source/queue.c **** 							/* The task waiting has a higher priority so record that a
ARM GAS  C:\Users\ikomb\AppData\Local\Temp\cc9p1klJ.s 			page 44


1194:Generated_Source\PSoC6\pdl\rtos\FreeRTOS\9.0.0\Source/queue.c **** 							context	switch is required. */
1195:Generated_Source\PSoC6\pdl\rtos\FreeRTOS\9.0.0\Source/queue.c **** 							if( pxHigherPriorityTaskWoken != NULL )
 1023              		.loc 1 1195 0
 1024 00a4 3B68     		ldr	r3, [r7]
 1025 00a6 002B     		cmp	r3, #0
 1026 00a8 0AD0     		beq	.L87
1196:Generated_Source\PSoC6\pdl\rtos\FreeRTOS\9.0.0\Source/queue.c **** 							{
1197:Generated_Source\PSoC6\pdl\rtos\FreeRTOS\9.0.0\Source/queue.c **** 								*pxHigherPriorityTaskWoken = pdTRUE;
 1027              		.loc 1 1197 0
 1028 00aa 3B68     		ldr	r3, [r7]
 1029 00ac 0122     		movs	r2, #1
 1030 00ae 1A60     		str	r2, [r3]
 1031 00b0 06E0     		b	.L87
 1032              	.L86:
1198:Generated_Source\PSoC6\pdl\rtos\FreeRTOS\9.0.0\Source/queue.c **** 							}
1199:Generated_Source\PSoC6\pdl\rtos\FreeRTOS\9.0.0\Source/queue.c **** 							else
1200:Generated_Source\PSoC6\pdl\rtos\FreeRTOS\9.0.0\Source/queue.c **** 							{
1201:Generated_Source\PSoC6\pdl\rtos\FreeRTOS\9.0.0\Source/queue.c **** 								mtCOVERAGE_TEST_MARKER();
1202:Generated_Source\PSoC6\pdl\rtos\FreeRTOS\9.0.0\Source/queue.c **** 							}
1203:Generated_Source\PSoC6\pdl\rtos\FreeRTOS\9.0.0\Source/queue.c **** 						}
1204:Generated_Source\PSoC6\pdl\rtos\FreeRTOS\9.0.0\Source/queue.c **** 						else
1205:Generated_Source\PSoC6\pdl\rtos\FreeRTOS\9.0.0\Source/queue.c **** 						{
1206:Generated_Source\PSoC6\pdl\rtos\FreeRTOS\9.0.0\Source/queue.c **** 							mtCOVERAGE_TEST_MARKER();
1207:Generated_Source\PSoC6\pdl\rtos\FreeRTOS\9.0.0\Source/queue.c **** 						}
1208:Generated_Source\PSoC6\pdl\rtos\FreeRTOS\9.0.0\Source/queue.c **** 					}
1209:Generated_Source\PSoC6\pdl\rtos\FreeRTOS\9.0.0\Source/queue.c **** 					else
1210:Generated_Source\PSoC6\pdl\rtos\FreeRTOS\9.0.0\Source/queue.c **** 					{
1211:Generated_Source\PSoC6\pdl\rtos\FreeRTOS\9.0.0\Source/queue.c **** 						mtCOVERAGE_TEST_MARKER();
1212:Generated_Source\PSoC6\pdl\rtos\FreeRTOS\9.0.0\Source/queue.c **** 					}
1213:Generated_Source\PSoC6\pdl\rtos\FreeRTOS\9.0.0\Source/queue.c **** 				}
1214:Generated_Source\PSoC6\pdl\rtos\FreeRTOS\9.0.0\Source/queue.c **** 				#endif /* configUSE_QUEUE_SETS */
1215:Generated_Source\PSoC6\pdl\rtos\FreeRTOS\9.0.0\Source/queue.c **** 			}
1216:Generated_Source\PSoC6\pdl\rtos\FreeRTOS\9.0.0\Source/queue.c **** 			else
1217:Generated_Source\PSoC6\pdl\rtos\FreeRTOS\9.0.0\Source/queue.c **** 			{
1218:Generated_Source\PSoC6\pdl\rtos\FreeRTOS\9.0.0\Source/queue.c **** 				/* Increment the lock count so the task that unlocks the queue
1219:Generated_Source\PSoC6\pdl\rtos\FreeRTOS\9.0.0\Source/queue.c **** 				knows that data was posted while it was locked. */
1220:Generated_Source\PSoC6\pdl\rtos\FreeRTOS\9.0.0\Source/queue.c **** 				pxQueue->cTxLock = ( int8_t ) ( cTxLock + 1 );
 1033              		.loc 1 1220 0
 1034 00b2 FB7C     		ldrb	r3, [r7, #19]	@ zero_extendqisi2
 1035 00b4 0133     		adds	r3, r3, #1
 1036 00b6 DBB2     		uxtb	r3, r3
 1037 00b8 5AB2     		sxtb	r2, r3
 1038 00ba 3B6A     		ldr	r3, [r7, #32]
 1039 00bc 83F84520 		strb	r2, [r3, #69]
 1040              	.L87:
1221:Generated_Source\PSoC6\pdl\rtos\FreeRTOS\9.0.0\Source/queue.c **** 			}
1222:Generated_Source\PSoC6\pdl\rtos\FreeRTOS\9.0.0\Source/queue.c **** 
1223:Generated_Source\PSoC6\pdl\rtos\FreeRTOS\9.0.0\Source/queue.c **** 			xReturn = pdPASS;
 1041              		.loc 1 1223 0
 1042 00c0 0123     		movs	r3, #1
 1043 00c2 7B62     		str	r3, [r7, #36]
 1044              	.LBE31:
 1045 00c4 01E0     		b	.L88
 1046              	.L85:
1224:Generated_Source\PSoC6\pdl\rtos\FreeRTOS\9.0.0\Source/queue.c **** 		}
1225:Generated_Source\PSoC6\pdl\rtos\FreeRTOS\9.0.0\Source/queue.c **** 		else
1226:Generated_Source\PSoC6\pdl\rtos\FreeRTOS\9.0.0\Source/queue.c **** 		{
ARM GAS  C:\Users\ikomb\AppData\Local\Temp\cc9p1klJ.s 			page 45


1227:Generated_Source\PSoC6\pdl\rtos\FreeRTOS\9.0.0\Source/queue.c **** 			traceQUEUE_SEND_FROM_ISR_FAILED( pxQueue );
1228:Generated_Source\PSoC6\pdl\rtos\FreeRTOS\9.0.0\Source/queue.c **** 			xReturn = errQUEUE_FULL;
 1047              		.loc 1 1228 0
 1048 00c6 0023     		movs	r3, #0
 1049 00c8 7B62     		str	r3, [r7, #36]
 1050              	.L88:
 1051 00ca BB69     		ldr	r3, [r7, #24]
 1052 00cc FB61     		str	r3, [r7, #28]
 1053              	.LBE30:
 1054              	.LBB32:
 1055              	.LBB33:
 1056              		.loc 2 233 0
 1057 00ce FB69     		ldr	r3, [r7, #28]
 1058              		.syntax unified
 1059              	@ 233 "Generated_Source\PSoC6\pdl\rtos/FreeRTOS/9.0.0/Source/portable/GCC/CM4F/portmacro.h" 1
 1060 00d0 83F31188 		    msr basepri, r3  
 1061              	@ 0 "" 2
 1062              		.thumb
 1063              		.syntax unified
 1064              	.LBE33:
 1065              	.LBE32:
1229:Generated_Source\PSoC6\pdl\rtos\FreeRTOS\9.0.0\Source/queue.c **** 		}
1230:Generated_Source\PSoC6\pdl\rtos\FreeRTOS\9.0.0\Source/queue.c **** 	}
1231:Generated_Source\PSoC6\pdl\rtos\FreeRTOS\9.0.0\Source/queue.c **** 	portCLEAR_INTERRUPT_MASK_FROM_ISR( uxSavedInterruptStatus );
1232:Generated_Source\PSoC6\pdl\rtos\FreeRTOS\9.0.0\Source/queue.c **** 
1233:Generated_Source\PSoC6\pdl\rtos\FreeRTOS\9.0.0\Source/queue.c **** 	return xReturn;
 1066              		.loc 1 1233 0
 1067 00d4 7B6A     		ldr	r3, [r7, #36]
1234:Generated_Source\PSoC6\pdl\rtos\FreeRTOS\9.0.0\Source/queue.c **** }
 1068              		.loc 1 1234 0
 1069 00d6 1846     		mov	r0, r3
 1070 00d8 2837     		adds	r7, r7, #40
 1071              		.cfi_def_cfa_offset 8
 1072 00da BD46     		mov	sp, r7
 1073              		.cfi_def_cfa_register 13
 1074              		@ sp needed
 1075 00dc 80BD     		pop	{r7, pc}
 1076              		.cfi_endproc
 1077              	.LFE134:
 1078              		.size	xQueueGiveFromISR, .-xQueueGiveFromISR
 1079 00de 00BF     		.section	.text.xQueueGenericReceive,"ax",%progbits
 1080              		.align	2
 1081              		.global	xQueueGenericReceive
 1082              		.thumb
 1083              		.thumb_func
 1084              		.type	xQueueGenericReceive, %function
 1085              	xQueueGenericReceive:
 1086              	.LFB135:
1235:Generated_Source\PSoC6\pdl\rtos\FreeRTOS\9.0.0\Source/queue.c **** /*-----------------------------------------------------------*/
1236:Generated_Source\PSoC6\pdl\rtos\FreeRTOS\9.0.0\Source/queue.c **** 
1237:Generated_Source\PSoC6\pdl\rtos\FreeRTOS\9.0.0\Source/queue.c **** BaseType_t xQueueGenericReceive( QueueHandle_t xQueue, void * const pvBuffer, TickType_t xTicksToWa
1238:Generated_Source\PSoC6\pdl\rtos\FreeRTOS\9.0.0\Source/queue.c **** {
 1087              		.loc 1 1238 0
 1088              		.cfi_startproc
 1089              		@ args = 0, pretend = 0, frame = 40
 1090              		@ frame_needed = 1, uses_anonymous_args = 0
 1091 0000 80B5     		push	{r7, lr}
ARM GAS  C:\Users\ikomb\AppData\Local\Temp\cc9p1klJ.s 			page 46


 1092              		.cfi_def_cfa_offset 8
 1093              		.cfi_offset 7, -8
 1094              		.cfi_offset 14, -4
 1095 0002 8AB0     		sub	sp, sp, #40
 1096              		.cfi_def_cfa_offset 48
 1097 0004 00AF     		add	r7, sp, #0
 1098              		.cfi_def_cfa_register 7
 1099 0006 F860     		str	r0, [r7, #12]
 1100 0008 B960     		str	r1, [r7, #8]
 1101 000a 7A60     		str	r2, [r7, #4]
 1102 000c 3B60     		str	r3, [r7]
1239:Generated_Source\PSoC6\pdl\rtos\FreeRTOS\9.0.0\Source/queue.c **** BaseType_t xEntryTimeSet = pdFALSE;
 1103              		.loc 1 1239 0
 1104 000e 0023     		movs	r3, #0
 1105 0010 7B62     		str	r3, [r7, #36]
1240:Generated_Source\PSoC6\pdl\rtos\FreeRTOS\9.0.0\Source/queue.c **** TimeOut_t xTimeOut;
1241:Generated_Source\PSoC6\pdl\rtos\FreeRTOS\9.0.0\Source/queue.c **** int8_t *pcOriginalReadPosition;
1242:Generated_Source\PSoC6\pdl\rtos\FreeRTOS\9.0.0\Source/queue.c **** Queue_t * const pxQueue = ( Queue_t * ) xQueue;
 1106              		.loc 1 1242 0
 1107 0012 FB68     		ldr	r3, [r7, #12]
 1108 0014 3B62     		str	r3, [r7, #32]
1243:Generated_Source\PSoC6\pdl\rtos\FreeRTOS\9.0.0\Source/queue.c **** 
1244:Generated_Source\PSoC6\pdl\rtos\FreeRTOS\9.0.0\Source/queue.c **** 	configASSERT( pxQueue );
 1109              		.loc 1 1244 0
 1110 0016 3B6A     		ldr	r3, [r7, #32]
 1111 0018 002B     		cmp	r3, #0
 1112 001a 01D1     		bne	.L91
 1113              		.loc 1 1244 0 is_stmt 0 discriminator 1
 1114              		.syntax unified
 1115              	@ 1244 "Generated_Source\PSoC6\pdl\rtos\FreeRTOS\9.0.0\Source\queue.c" 1
 1116 001c 72B6     		 cpsid i 
 1117              	@ 0 "" 2
 1118              		.thumb
 1119              		.syntax unified
 1120              	.L92:
 1121 001e FEE7     		b	.L92
 1122              	.L91:
1245:Generated_Source\PSoC6\pdl\rtos\FreeRTOS\9.0.0\Source/queue.c **** 	configASSERT( !( ( pvBuffer == NULL ) && ( pxQueue->uxItemSize != ( UBaseType_t ) 0U ) ) );
 1123              		.loc 1 1245 0 is_stmt 1
 1124 0020 BB68     		ldr	r3, [r7, #8]
 1125 0022 002B     		cmp	r3, #0
 1126 0024 03D1     		bne	.L93
 1127              		.loc 1 1245 0 is_stmt 0 discriminator 2
 1128 0026 3B6A     		ldr	r3, [r7, #32]
 1129 0028 1B6C     		ldr	r3, [r3, #64]
 1130 002a 002B     		cmp	r3, #0
 1131 002c 01D1     		bne	.L94
 1132              	.L93:
 1133              		.loc 1 1245 0 discriminator 3
 1134 002e 0123     		movs	r3, #1
 1135 0030 00E0     		b	.L95
 1136              	.L94:
 1137              		.loc 1 1245 0 discriminator 4
 1138 0032 0023     		movs	r3, #0
 1139              	.L95:
 1140              		.loc 1 1245 0 discriminator 6
 1141 0034 002B     		cmp	r3, #0
ARM GAS  C:\Users\ikomb\AppData\Local\Temp\cc9p1klJ.s 			page 47


 1142 0036 01D1     		bne	.L96
 1143              		.loc 1 1245 0 discriminator 7
 1144              		.syntax unified
 1145              	@ 1245 "Generated_Source\PSoC6\pdl\rtos\FreeRTOS\9.0.0\Source\queue.c" 1
 1146 0038 72B6     		 cpsid i 
 1147              	@ 0 "" 2
 1148              		.thumb
 1149              		.syntax unified
 1150              	.L97:
 1151              		.loc 1 1245 0 discriminator 2
 1152 003a FEE7     		b	.L97
 1153              	.L96:
1246:Generated_Source\PSoC6\pdl\rtos\FreeRTOS\9.0.0\Source/queue.c **** 	#if ( ( INCLUDE_xTaskGetSchedulerState == 1 ) || ( configUSE_TIMERS == 1 ) )
1247:Generated_Source\PSoC6\pdl\rtos\FreeRTOS\9.0.0\Source/queue.c **** 	{
1248:Generated_Source\PSoC6\pdl\rtos\FreeRTOS\9.0.0\Source/queue.c **** 		configASSERT( !( ( xTaskGetSchedulerState() == taskSCHEDULER_SUSPENDED ) && ( xTicksToWait != 0 )
 1154              		.loc 1 1248 0 is_stmt 1
 1155 003c FFF7FEFF 		bl	xTaskGetSchedulerState
 1156 0040 0346     		mov	r3, r0
 1157 0042 002B     		cmp	r3, #0
 1158 0044 02D1     		bne	.L98
 1159              		.loc 1 1248 0 is_stmt 0 discriminator 2
 1160 0046 7B68     		ldr	r3, [r7, #4]
 1161 0048 002B     		cmp	r3, #0
 1162 004a 01D1     		bne	.L99
 1163              	.L98:
 1164              		.loc 1 1248 0 discriminator 3
 1165 004c 0123     		movs	r3, #1
 1166 004e 00E0     		b	.L100
 1167              	.L99:
 1168              		.loc 1 1248 0 discriminator 4
 1169 0050 0023     		movs	r3, #0
 1170              	.L100:
 1171              		.loc 1 1248 0 discriminator 6
 1172 0052 002B     		cmp	r3, #0
 1173 0054 01D1     		bne	.L101
 1174              		.loc 1 1248 0 discriminator 7
 1175              		.syntax unified
 1176              	@ 1248 "Generated_Source\PSoC6\pdl\rtos\FreeRTOS\9.0.0\Source\queue.c" 1
 1177 0056 72B6     		 cpsid i 
 1178              	@ 0 "" 2
 1179              		.thumb
 1180              		.syntax unified
 1181              	.L102:
 1182              		.loc 1 1248 0 discriminator 3
 1183 0058 FEE7     		b	.L102
 1184              	.L101:
1249:Generated_Source\PSoC6\pdl\rtos\FreeRTOS\9.0.0\Source/queue.c **** 	}
1250:Generated_Source\PSoC6\pdl\rtos\FreeRTOS\9.0.0\Source/queue.c **** 	#endif
1251:Generated_Source\PSoC6\pdl\rtos\FreeRTOS\9.0.0\Source/queue.c **** 
1252:Generated_Source\PSoC6\pdl\rtos\FreeRTOS\9.0.0\Source/queue.c **** 	/* This function relaxes the coding standard somewhat to allow return
1253:Generated_Source\PSoC6\pdl\rtos\FreeRTOS\9.0.0\Source/queue.c **** 	statements within the function itself.  This is done in the interest
1254:Generated_Source\PSoC6\pdl\rtos\FreeRTOS\9.0.0\Source/queue.c **** 	of execution time efficiency. */
1255:Generated_Source\PSoC6\pdl\rtos\FreeRTOS\9.0.0\Source/queue.c **** 
1256:Generated_Source\PSoC6\pdl\rtos\FreeRTOS\9.0.0\Source/queue.c **** 	for( ;; )
1257:Generated_Source\PSoC6\pdl\rtos\FreeRTOS\9.0.0\Source/queue.c **** 	{
1258:Generated_Source\PSoC6\pdl\rtos\FreeRTOS\9.0.0\Source/queue.c **** 		taskENTER_CRITICAL();
 1185              		.loc 1 1258 0 is_stmt 1
ARM GAS  C:\Users\ikomb\AppData\Local\Temp\cc9p1klJ.s 			page 48


 1186 005a FFF7FEFF 		bl	vPortEnterCritical
 1187              	.LBB34:
1259:Generated_Source\PSoC6\pdl\rtos\FreeRTOS\9.0.0\Source/queue.c **** 		{
1260:Generated_Source\PSoC6\pdl\rtos\FreeRTOS\9.0.0\Source/queue.c **** 			const UBaseType_t uxMessagesWaiting = pxQueue->uxMessagesWaiting;
 1188              		.loc 1 1260 0
 1189 005e 3B6A     		ldr	r3, [r7, #32]
 1190 0060 9B6B     		ldr	r3, [r3, #56]
 1191 0062 FB61     		str	r3, [r7, #28]
1261:Generated_Source\PSoC6\pdl\rtos\FreeRTOS\9.0.0\Source/queue.c **** 
1262:Generated_Source\PSoC6\pdl\rtos\FreeRTOS\9.0.0\Source/queue.c **** 			/* Is there data in the queue now?  To be running the calling task
1263:Generated_Source\PSoC6\pdl\rtos\FreeRTOS\9.0.0\Source/queue.c **** 			must be the highest priority task wanting to access the queue. */
1264:Generated_Source\PSoC6\pdl\rtos\FreeRTOS\9.0.0\Source/queue.c **** 			if( uxMessagesWaiting > ( UBaseType_t ) 0 )
 1192              		.loc 1 1264 0
 1193 0064 FB69     		ldr	r3, [r7, #28]
 1194 0066 002B     		cmp	r3, #0
 1195 0068 3DD0     		beq	.L103
1265:Generated_Source\PSoC6\pdl\rtos\FreeRTOS\9.0.0\Source/queue.c **** 			{
1266:Generated_Source\PSoC6\pdl\rtos\FreeRTOS\9.0.0\Source/queue.c **** 				/* Remember the read position in case the queue is only being
1267:Generated_Source\PSoC6\pdl\rtos\FreeRTOS\9.0.0\Source/queue.c **** 				peeked. */
1268:Generated_Source\PSoC6\pdl\rtos\FreeRTOS\9.0.0\Source/queue.c **** 				pcOriginalReadPosition = pxQueue->u.pcReadFrom;
 1196              		.loc 1 1268 0
 1197 006a 3B6A     		ldr	r3, [r7, #32]
 1198 006c DB68     		ldr	r3, [r3, #12]
 1199 006e BB61     		str	r3, [r7, #24]
1269:Generated_Source\PSoC6\pdl\rtos\FreeRTOS\9.0.0\Source/queue.c **** 
1270:Generated_Source\PSoC6\pdl\rtos\FreeRTOS\9.0.0\Source/queue.c **** 				prvCopyDataFromQueue( pxQueue, pvBuffer );
 1200              		.loc 1 1270 0
 1201 0070 B968     		ldr	r1, [r7, #8]
 1202 0072 386A     		ldr	r0, [r7, #32]
 1203 0074 FFF7FEFF 		bl	prvCopyDataFromQueue
1271:Generated_Source\PSoC6\pdl\rtos\FreeRTOS\9.0.0\Source/queue.c **** 
1272:Generated_Source\PSoC6\pdl\rtos\FreeRTOS\9.0.0\Source/queue.c **** 				if( xJustPeeking == pdFALSE )
 1204              		.loc 1 1272 0
 1205 0078 3B68     		ldr	r3, [r7]
 1206 007a 002B     		cmp	r3, #0
 1207 007c 18D1     		bne	.L104
1273:Generated_Source\PSoC6\pdl\rtos\FreeRTOS\9.0.0\Source/queue.c **** 				{
1274:Generated_Source\PSoC6\pdl\rtos\FreeRTOS\9.0.0\Source/queue.c **** 					traceQUEUE_RECEIVE( pxQueue );
1275:Generated_Source\PSoC6\pdl\rtos\FreeRTOS\9.0.0\Source/queue.c **** 
1276:Generated_Source\PSoC6\pdl\rtos\FreeRTOS\9.0.0\Source/queue.c **** 					/* Actually removing data, not just peeking. */
1277:Generated_Source\PSoC6\pdl\rtos\FreeRTOS\9.0.0\Source/queue.c **** 					pxQueue->uxMessagesWaiting = uxMessagesWaiting - 1;
 1208              		.loc 1 1277 0
 1209 007e FB69     		ldr	r3, [r7, #28]
 1210 0080 5A1E     		subs	r2, r3, #1
 1211 0082 3B6A     		ldr	r3, [r7, #32]
 1212 0084 9A63     		str	r2, [r3, #56]
1278:Generated_Source\PSoC6\pdl\rtos\FreeRTOS\9.0.0\Source/queue.c **** 
1279:Generated_Source\PSoC6\pdl\rtos\FreeRTOS\9.0.0\Source/queue.c **** 					#if ( configUSE_MUTEXES == 1 )
1280:Generated_Source\PSoC6\pdl\rtos\FreeRTOS\9.0.0\Source/queue.c **** 					{
1281:Generated_Source\PSoC6\pdl\rtos\FreeRTOS\9.0.0\Source/queue.c **** 						if( pxQueue->uxQueueType == queueQUEUE_IS_MUTEX )
1282:Generated_Source\PSoC6\pdl\rtos\FreeRTOS\9.0.0\Source/queue.c **** 						{
1283:Generated_Source\PSoC6\pdl\rtos\FreeRTOS\9.0.0\Source/queue.c **** 							/* Record the information required to implement
1284:Generated_Source\PSoC6\pdl\rtos\FreeRTOS\9.0.0\Source/queue.c **** 							priority inheritance should it become necessary. */
1285:Generated_Source\PSoC6\pdl\rtos\FreeRTOS\9.0.0\Source/queue.c **** 							pxQueue->pxMutexHolder = ( int8_t * ) pvTaskIncrementMutexHeldCount(); /*lint !e961 Cast is 
1286:Generated_Source\PSoC6\pdl\rtos\FreeRTOS\9.0.0\Source/queue.c **** 						}
1287:Generated_Source\PSoC6\pdl\rtos\FreeRTOS\9.0.0\Source/queue.c **** 						else
1288:Generated_Source\PSoC6\pdl\rtos\FreeRTOS\9.0.0\Source/queue.c **** 						{
ARM GAS  C:\Users\ikomb\AppData\Local\Temp\cc9p1klJ.s 			page 49


1289:Generated_Source\PSoC6\pdl\rtos\FreeRTOS\9.0.0\Source/queue.c **** 							mtCOVERAGE_TEST_MARKER();
1290:Generated_Source\PSoC6\pdl\rtos\FreeRTOS\9.0.0\Source/queue.c **** 						}
1291:Generated_Source\PSoC6\pdl\rtos\FreeRTOS\9.0.0\Source/queue.c **** 					}
1292:Generated_Source\PSoC6\pdl\rtos\FreeRTOS\9.0.0\Source/queue.c **** 					#endif /* configUSE_MUTEXES */
1293:Generated_Source\PSoC6\pdl\rtos\FreeRTOS\9.0.0\Source/queue.c **** 
1294:Generated_Source\PSoC6\pdl\rtos\FreeRTOS\9.0.0\Source/queue.c **** 					if( listLIST_IS_EMPTY( &( pxQueue->xTasksWaitingToSend ) ) == pdFALSE )
 1213              		.loc 1 1294 0
 1214 0086 3B6A     		ldr	r3, [r7, #32]
 1215 0088 1B69     		ldr	r3, [r3, #16]
 1216 008a 002B     		cmp	r3, #0
 1217 008c 27D0     		beq	.L105
1295:Generated_Source\PSoC6\pdl\rtos\FreeRTOS\9.0.0\Source/queue.c **** 					{
1296:Generated_Source\PSoC6\pdl\rtos\FreeRTOS\9.0.0\Source/queue.c **** 						if( xTaskRemoveFromEventList( &( pxQueue->xTasksWaitingToSend ) ) != pdFALSE )
 1218              		.loc 1 1296 0
 1219 008e 3B6A     		ldr	r3, [r7, #32]
 1220 0090 1033     		adds	r3, r3, #16
 1221 0092 1846     		mov	r0, r3
 1222 0094 FFF7FEFF 		bl	xTaskRemoveFromEventList
 1223 0098 0346     		mov	r3, r0
 1224 009a 002B     		cmp	r3, #0
 1225 009c 1FD0     		beq	.L105
1297:Generated_Source\PSoC6\pdl\rtos\FreeRTOS\9.0.0\Source/queue.c **** 						{
1298:Generated_Source\PSoC6\pdl\rtos\FreeRTOS\9.0.0\Source/queue.c **** 							queueYIELD_IF_USING_PREEMPTION();
 1226              		.loc 1 1298 0
 1227 009e 494B     		ldr	r3, .L116
 1228 00a0 4FF08052 		mov	r2, #268435456
 1229 00a4 1A60     		str	r2, [r3]
 1230              		.syntax unified
 1231              	@ 1298 "Generated_Source\PSoC6\pdl\rtos\FreeRTOS\9.0.0\Source\queue.c" 1
 1232 00a6 BFF34F8F 		dsb
 1233              	@ 0 "" 2
 1234              	@ 1298 "Generated_Source\PSoC6\pdl\rtos\FreeRTOS\9.0.0\Source\queue.c" 1
 1235 00aa BFF36F8F 		isb
 1236              	@ 0 "" 2
 1237              		.thumb
 1238              		.syntax unified
 1239 00ae 16E0     		b	.L105
 1240              	.L104:
1299:Generated_Source\PSoC6\pdl\rtos\FreeRTOS\9.0.0\Source/queue.c **** 						}
1300:Generated_Source\PSoC6\pdl\rtos\FreeRTOS\9.0.0\Source/queue.c **** 						else
1301:Generated_Source\PSoC6\pdl\rtos\FreeRTOS\9.0.0\Source/queue.c **** 						{
1302:Generated_Source\PSoC6\pdl\rtos\FreeRTOS\9.0.0\Source/queue.c **** 							mtCOVERAGE_TEST_MARKER();
1303:Generated_Source\PSoC6\pdl\rtos\FreeRTOS\9.0.0\Source/queue.c **** 						}
1304:Generated_Source\PSoC6\pdl\rtos\FreeRTOS\9.0.0\Source/queue.c **** 					}
1305:Generated_Source\PSoC6\pdl\rtos\FreeRTOS\9.0.0\Source/queue.c **** 					else
1306:Generated_Source\PSoC6\pdl\rtos\FreeRTOS\9.0.0\Source/queue.c **** 					{
1307:Generated_Source\PSoC6\pdl\rtos\FreeRTOS\9.0.0\Source/queue.c **** 						mtCOVERAGE_TEST_MARKER();
1308:Generated_Source\PSoC6\pdl\rtos\FreeRTOS\9.0.0\Source/queue.c **** 					}
1309:Generated_Source\PSoC6\pdl\rtos\FreeRTOS\9.0.0\Source/queue.c **** 				}
1310:Generated_Source\PSoC6\pdl\rtos\FreeRTOS\9.0.0\Source/queue.c **** 				else
1311:Generated_Source\PSoC6\pdl\rtos\FreeRTOS\9.0.0\Source/queue.c **** 				{
1312:Generated_Source\PSoC6\pdl\rtos\FreeRTOS\9.0.0\Source/queue.c **** 					traceQUEUE_PEEK( pxQueue );
1313:Generated_Source\PSoC6\pdl\rtos\FreeRTOS\9.0.0\Source/queue.c **** 
1314:Generated_Source\PSoC6\pdl\rtos\FreeRTOS\9.0.0\Source/queue.c **** 					/* The data is not being removed, so reset the read
1315:Generated_Source\PSoC6\pdl\rtos\FreeRTOS\9.0.0\Source/queue.c **** 					pointer. */
1316:Generated_Source\PSoC6\pdl\rtos\FreeRTOS\9.0.0\Source/queue.c **** 					pxQueue->u.pcReadFrom = pcOriginalReadPosition;
 1241              		.loc 1 1316 0
ARM GAS  C:\Users\ikomb\AppData\Local\Temp\cc9p1klJ.s 			page 50


 1242 00b0 3B6A     		ldr	r3, [r7, #32]
 1243 00b2 BA69     		ldr	r2, [r7, #24]
 1244 00b4 DA60     		str	r2, [r3, #12]
1317:Generated_Source\PSoC6\pdl\rtos\FreeRTOS\9.0.0\Source/queue.c **** 
1318:Generated_Source\PSoC6\pdl\rtos\FreeRTOS\9.0.0\Source/queue.c **** 					/* The data is being left in the queue, so see if there are
1319:Generated_Source\PSoC6\pdl\rtos\FreeRTOS\9.0.0\Source/queue.c **** 					any other tasks waiting for the data. */
1320:Generated_Source\PSoC6\pdl\rtos\FreeRTOS\9.0.0\Source/queue.c **** 					if( listLIST_IS_EMPTY( &( pxQueue->xTasksWaitingToReceive ) ) == pdFALSE )
 1245              		.loc 1 1320 0
 1246 00b6 3B6A     		ldr	r3, [r7, #32]
 1247 00b8 5B6A     		ldr	r3, [r3, #36]
 1248 00ba 002B     		cmp	r3, #0
 1249 00bc 0FD0     		beq	.L105
1321:Generated_Source\PSoC6\pdl\rtos\FreeRTOS\9.0.0\Source/queue.c **** 					{
1322:Generated_Source\PSoC6\pdl\rtos\FreeRTOS\9.0.0\Source/queue.c **** 						if( xTaskRemoveFromEventList( &( pxQueue->xTasksWaitingToReceive ) ) != pdFALSE )
 1250              		.loc 1 1322 0
 1251 00be 3B6A     		ldr	r3, [r7, #32]
 1252 00c0 2433     		adds	r3, r3, #36
 1253 00c2 1846     		mov	r0, r3
 1254 00c4 FFF7FEFF 		bl	xTaskRemoveFromEventList
 1255 00c8 0346     		mov	r3, r0
 1256 00ca 002B     		cmp	r3, #0
 1257 00cc 07D0     		beq	.L105
1323:Generated_Source\PSoC6\pdl\rtos\FreeRTOS\9.0.0\Source/queue.c **** 						{
1324:Generated_Source\PSoC6\pdl\rtos\FreeRTOS\9.0.0\Source/queue.c **** 							/* The task waiting has a higher priority than this task. */
1325:Generated_Source\PSoC6\pdl\rtos\FreeRTOS\9.0.0\Source/queue.c **** 							queueYIELD_IF_USING_PREEMPTION();
 1258              		.loc 1 1325 0
 1259 00ce 3D4B     		ldr	r3, .L116
 1260 00d0 4FF08052 		mov	r2, #268435456
 1261 00d4 1A60     		str	r2, [r3]
 1262              		.syntax unified
 1263              	@ 1325 "Generated_Source\PSoC6\pdl\rtos\FreeRTOS\9.0.0\Source\queue.c" 1
 1264 00d6 BFF34F8F 		dsb
 1265              	@ 0 "" 2
 1266              	@ 1325 "Generated_Source\PSoC6\pdl\rtos\FreeRTOS\9.0.0\Source\queue.c" 1
 1267 00da BFF36F8F 		isb
 1268              	@ 0 "" 2
 1269              		.thumb
 1270              		.syntax unified
 1271              	.L105:
1326:Generated_Source\PSoC6\pdl\rtos\FreeRTOS\9.0.0\Source/queue.c **** 						}
1327:Generated_Source\PSoC6\pdl\rtos\FreeRTOS\9.0.0\Source/queue.c **** 						else
1328:Generated_Source\PSoC6\pdl\rtos\FreeRTOS\9.0.0\Source/queue.c **** 						{
1329:Generated_Source\PSoC6\pdl\rtos\FreeRTOS\9.0.0\Source/queue.c **** 							mtCOVERAGE_TEST_MARKER();
1330:Generated_Source\PSoC6\pdl\rtos\FreeRTOS\9.0.0\Source/queue.c **** 						}
1331:Generated_Source\PSoC6\pdl\rtos\FreeRTOS\9.0.0\Source/queue.c **** 					}
1332:Generated_Source\PSoC6\pdl\rtos\FreeRTOS\9.0.0\Source/queue.c **** 					else
1333:Generated_Source\PSoC6\pdl\rtos\FreeRTOS\9.0.0\Source/queue.c **** 					{
1334:Generated_Source\PSoC6\pdl\rtos\FreeRTOS\9.0.0\Source/queue.c **** 						mtCOVERAGE_TEST_MARKER();
1335:Generated_Source\PSoC6\pdl\rtos\FreeRTOS\9.0.0\Source/queue.c **** 					}
1336:Generated_Source\PSoC6\pdl\rtos\FreeRTOS\9.0.0\Source/queue.c **** 				}
1337:Generated_Source\PSoC6\pdl\rtos\FreeRTOS\9.0.0\Source/queue.c **** 
1338:Generated_Source\PSoC6\pdl\rtos\FreeRTOS\9.0.0\Source/queue.c **** 				taskEXIT_CRITICAL();
 1272              		.loc 1 1338 0
 1273 00de FFF7FEFF 		bl	vPortExitCritical
1339:Generated_Source\PSoC6\pdl\rtos\FreeRTOS\9.0.0\Source/queue.c **** 				return pdPASS;
 1274              		.loc 1 1339 0
 1275 00e2 0123     		movs	r3, #1
ARM GAS  C:\Users\ikomb\AppData\Local\Temp\cc9p1klJ.s 			page 51


 1276 00e4 6AE0     		b	.L115
 1277              	.L103:
1340:Generated_Source\PSoC6\pdl\rtos\FreeRTOS\9.0.0\Source/queue.c **** 			}
1341:Generated_Source\PSoC6\pdl\rtos\FreeRTOS\9.0.0\Source/queue.c **** 			else
1342:Generated_Source\PSoC6\pdl\rtos\FreeRTOS\9.0.0\Source/queue.c **** 			{
1343:Generated_Source\PSoC6\pdl\rtos\FreeRTOS\9.0.0\Source/queue.c **** 				if( xTicksToWait == ( TickType_t ) 0 )
 1278              		.loc 1 1343 0
 1279 00e6 7B68     		ldr	r3, [r7, #4]
 1280 00e8 002B     		cmp	r3, #0
 1281 00ea 03D1     		bne	.L107
1344:Generated_Source\PSoC6\pdl\rtos\FreeRTOS\9.0.0\Source/queue.c **** 				{
1345:Generated_Source\PSoC6\pdl\rtos\FreeRTOS\9.0.0\Source/queue.c **** 					/* The queue was empty and no block time is specified (or
1346:Generated_Source\PSoC6\pdl\rtos\FreeRTOS\9.0.0\Source/queue.c **** 					the block time has expired) so leave now. */
1347:Generated_Source\PSoC6\pdl\rtos\FreeRTOS\9.0.0\Source/queue.c **** 					taskEXIT_CRITICAL();
 1282              		.loc 1 1347 0
 1283 00ec FFF7FEFF 		bl	vPortExitCritical
1348:Generated_Source\PSoC6\pdl\rtos\FreeRTOS\9.0.0\Source/queue.c **** 					traceQUEUE_RECEIVE_FAILED( pxQueue );
1349:Generated_Source\PSoC6\pdl\rtos\FreeRTOS\9.0.0\Source/queue.c **** 					return errQUEUE_EMPTY;
 1284              		.loc 1 1349 0
 1285 00f0 0023     		movs	r3, #0
 1286 00f2 63E0     		b	.L115
 1287              	.L107:
1350:Generated_Source\PSoC6\pdl\rtos\FreeRTOS\9.0.0\Source/queue.c **** 				}
1351:Generated_Source\PSoC6\pdl\rtos\FreeRTOS\9.0.0\Source/queue.c **** 				else if( xEntryTimeSet == pdFALSE )
 1288              		.loc 1 1351 0
 1289 00f4 7B6A     		ldr	r3, [r7, #36]
 1290 00f6 002B     		cmp	r3, #0
 1291 00f8 06D1     		bne	.L108
1352:Generated_Source\PSoC6\pdl\rtos\FreeRTOS\9.0.0\Source/queue.c **** 				{
1353:Generated_Source\PSoC6\pdl\rtos\FreeRTOS\9.0.0\Source/queue.c **** 					/* The queue was empty and a block time was specified so
1354:Generated_Source\PSoC6\pdl\rtos\FreeRTOS\9.0.0\Source/queue.c **** 					configure the timeout structure. */
1355:Generated_Source\PSoC6\pdl\rtos\FreeRTOS\9.0.0\Source/queue.c **** 					vTaskSetTimeOutState( &xTimeOut );
 1292              		.loc 1 1355 0
 1293 00fa 07F11003 		add	r3, r7, #16
 1294 00fe 1846     		mov	r0, r3
 1295 0100 FFF7FEFF 		bl	vTaskSetTimeOutState
1356:Generated_Source\PSoC6\pdl\rtos\FreeRTOS\9.0.0\Source/queue.c **** 					xEntryTimeSet = pdTRUE;
 1296              		.loc 1 1356 0
 1297 0104 0123     		movs	r3, #1
 1298 0106 7B62     		str	r3, [r7, #36]
 1299              	.L108:
 1300              	.LBE34:
1357:Generated_Source\PSoC6\pdl\rtos\FreeRTOS\9.0.0\Source/queue.c **** 				}
1358:Generated_Source\PSoC6\pdl\rtos\FreeRTOS\9.0.0\Source/queue.c **** 				else
1359:Generated_Source\PSoC6\pdl\rtos\FreeRTOS\9.0.0\Source/queue.c **** 				{
1360:Generated_Source\PSoC6\pdl\rtos\FreeRTOS\9.0.0\Source/queue.c **** 					/* Entry time was already set. */
1361:Generated_Source\PSoC6\pdl\rtos\FreeRTOS\9.0.0\Source/queue.c **** 					mtCOVERAGE_TEST_MARKER();
1362:Generated_Source\PSoC6\pdl\rtos\FreeRTOS\9.0.0\Source/queue.c **** 				}
1363:Generated_Source\PSoC6\pdl\rtos\FreeRTOS\9.0.0\Source/queue.c **** 			}
1364:Generated_Source\PSoC6\pdl\rtos\FreeRTOS\9.0.0\Source/queue.c **** 		}
1365:Generated_Source\PSoC6\pdl\rtos\FreeRTOS\9.0.0\Source/queue.c **** 		taskEXIT_CRITICAL();
 1301              		.loc 1 1365 0
 1302 0108 FFF7FEFF 		bl	vPortExitCritical
1366:Generated_Source\PSoC6\pdl\rtos\FreeRTOS\9.0.0\Source/queue.c **** 
1367:Generated_Source\PSoC6\pdl\rtos\FreeRTOS\9.0.0\Source/queue.c **** 		/* Interrupts and other tasks can send to and receive from the queue
1368:Generated_Source\PSoC6\pdl\rtos\FreeRTOS\9.0.0\Source/queue.c **** 		now the critical section has been exited. */
1369:Generated_Source\PSoC6\pdl\rtos\FreeRTOS\9.0.0\Source/queue.c **** 
ARM GAS  C:\Users\ikomb\AppData\Local\Temp\cc9p1klJ.s 			page 52


1370:Generated_Source\PSoC6\pdl\rtos\FreeRTOS\9.0.0\Source/queue.c **** 		vTaskSuspendAll();
 1303              		.loc 1 1370 0
 1304 010c FFF7FEFF 		bl	vTaskSuspendAll
1371:Generated_Source\PSoC6\pdl\rtos\FreeRTOS\9.0.0\Source/queue.c **** 		prvLockQueue( pxQueue );
 1305              		.loc 1 1371 0
 1306 0110 FFF7FEFF 		bl	vPortEnterCritical
 1307 0114 3B6A     		ldr	r3, [r7, #32]
 1308 0116 93F84430 		ldrb	r3, [r3, #68]
 1309 011a 5BB2     		sxtb	r3, r3
 1310 011c B3F1FF3F 		cmp	r3, #-1
 1311 0120 03D1     		bne	.L109
 1312              		.loc 1 1371 0 is_stmt 0 discriminator 1
 1313 0122 3B6A     		ldr	r3, [r7, #32]
 1314 0124 0022     		movs	r2, #0
 1315 0126 83F84420 		strb	r2, [r3, #68]
 1316              	.L109:
 1317              		.loc 1 1371 0 discriminator 3
 1318 012a 3B6A     		ldr	r3, [r7, #32]
 1319 012c 93F84530 		ldrb	r3, [r3, #69]
 1320 0130 5BB2     		sxtb	r3, r3
 1321 0132 B3F1FF3F 		cmp	r3, #-1
 1322 0136 03D1     		bne	.L110
 1323              		.loc 1 1371 0 discriminator 4
 1324 0138 3B6A     		ldr	r3, [r7, #32]
 1325 013a 0022     		movs	r2, #0
 1326 013c 83F84520 		strb	r2, [r3, #69]
 1327              	.L110:
 1328              		.loc 1 1371 0 discriminator 6
 1329 0140 FFF7FEFF 		bl	vPortExitCritical
1372:Generated_Source\PSoC6\pdl\rtos\FreeRTOS\9.0.0\Source/queue.c **** 
1373:Generated_Source\PSoC6\pdl\rtos\FreeRTOS\9.0.0\Source/queue.c **** 		/* Update the timeout state to see if it has expired yet. */
1374:Generated_Source\PSoC6\pdl\rtos\FreeRTOS\9.0.0\Source/queue.c **** 		if( xTaskCheckForTimeOut( &xTimeOut, &xTicksToWait ) == pdFALSE )
 1330              		.loc 1 1374 0 is_stmt 1 discriminator 6
 1331 0144 3A1D     		adds	r2, r7, #4
 1332 0146 07F11003 		add	r3, r7, #16
 1333 014a 1146     		mov	r1, r2
 1334 014c 1846     		mov	r0, r3
 1335 014e FFF7FEFF 		bl	xTaskCheckForTimeOut
 1336 0152 0346     		mov	r3, r0
 1337 0154 002B     		cmp	r3, #0
 1338 0156 24D1     		bne	.L111
1375:Generated_Source\PSoC6\pdl\rtos\FreeRTOS\9.0.0\Source/queue.c **** 		{
1376:Generated_Source\PSoC6\pdl\rtos\FreeRTOS\9.0.0\Source/queue.c **** 			if( prvIsQueueEmpty( pxQueue ) != pdFALSE )
 1339              		.loc 1 1376 0
 1340 0158 386A     		ldr	r0, [r7, #32]
 1341 015a FFF7FEFF 		bl	prvIsQueueEmpty
 1342 015e 0346     		mov	r3, r0
 1343 0160 002B     		cmp	r3, #0
 1344 0162 18D0     		beq	.L112
1377:Generated_Source\PSoC6\pdl\rtos\FreeRTOS\9.0.0\Source/queue.c **** 			{
1378:Generated_Source\PSoC6\pdl\rtos\FreeRTOS\9.0.0\Source/queue.c **** 				traceBLOCKING_ON_QUEUE_RECEIVE( pxQueue );
1379:Generated_Source\PSoC6\pdl\rtos\FreeRTOS\9.0.0\Source/queue.c **** 
1380:Generated_Source\PSoC6\pdl\rtos\FreeRTOS\9.0.0\Source/queue.c **** 				#if ( configUSE_MUTEXES == 1 )
1381:Generated_Source\PSoC6\pdl\rtos\FreeRTOS\9.0.0\Source/queue.c **** 				{
1382:Generated_Source\PSoC6\pdl\rtos\FreeRTOS\9.0.0\Source/queue.c **** 					if( pxQueue->uxQueueType == queueQUEUE_IS_MUTEX )
1383:Generated_Source\PSoC6\pdl\rtos\FreeRTOS\9.0.0\Source/queue.c **** 					{
1384:Generated_Source\PSoC6\pdl\rtos\FreeRTOS\9.0.0\Source/queue.c **** 						taskENTER_CRITICAL();
ARM GAS  C:\Users\ikomb\AppData\Local\Temp\cc9p1klJ.s 			page 53


1385:Generated_Source\PSoC6\pdl\rtos\FreeRTOS\9.0.0\Source/queue.c **** 						{
1386:Generated_Source\PSoC6\pdl\rtos\FreeRTOS\9.0.0\Source/queue.c **** 							vTaskPriorityInherit( ( void * ) pxQueue->pxMutexHolder );
1387:Generated_Source\PSoC6\pdl\rtos\FreeRTOS\9.0.0\Source/queue.c **** 						}
1388:Generated_Source\PSoC6\pdl\rtos\FreeRTOS\9.0.0\Source/queue.c **** 						taskEXIT_CRITICAL();
1389:Generated_Source\PSoC6\pdl\rtos\FreeRTOS\9.0.0\Source/queue.c **** 					}
1390:Generated_Source\PSoC6\pdl\rtos\FreeRTOS\9.0.0\Source/queue.c **** 					else
1391:Generated_Source\PSoC6\pdl\rtos\FreeRTOS\9.0.0\Source/queue.c **** 					{
1392:Generated_Source\PSoC6\pdl\rtos\FreeRTOS\9.0.0\Source/queue.c **** 						mtCOVERAGE_TEST_MARKER();
1393:Generated_Source\PSoC6\pdl\rtos\FreeRTOS\9.0.0\Source/queue.c **** 					}
1394:Generated_Source\PSoC6\pdl\rtos\FreeRTOS\9.0.0\Source/queue.c **** 				}
1395:Generated_Source\PSoC6\pdl\rtos\FreeRTOS\9.0.0\Source/queue.c **** 				#endif
1396:Generated_Source\PSoC6\pdl\rtos\FreeRTOS\9.0.0\Source/queue.c **** 
1397:Generated_Source\PSoC6\pdl\rtos\FreeRTOS\9.0.0\Source/queue.c **** 				vTaskPlaceOnEventList( &( pxQueue->xTasksWaitingToReceive ), xTicksToWait );
 1345              		.loc 1 1397 0
 1346 0164 3B6A     		ldr	r3, [r7, #32]
 1347 0166 2433     		adds	r3, r3, #36
 1348 0168 7A68     		ldr	r2, [r7, #4]
 1349 016a 1146     		mov	r1, r2
 1350 016c 1846     		mov	r0, r3
 1351 016e FFF7FEFF 		bl	vTaskPlaceOnEventList
1398:Generated_Source\PSoC6\pdl\rtos\FreeRTOS\9.0.0\Source/queue.c **** 				prvUnlockQueue( pxQueue );
 1352              		.loc 1 1398 0
 1353 0172 386A     		ldr	r0, [r7, #32]
 1354 0174 FFF7FEFF 		bl	prvUnlockQueue
1399:Generated_Source\PSoC6\pdl\rtos\FreeRTOS\9.0.0\Source/queue.c **** 				if( xTaskResumeAll() == pdFALSE )
 1355              		.loc 1 1399 0
 1356 0178 FFF7FEFF 		bl	xTaskResumeAll
 1357 017c 0346     		mov	r3, r0
 1358 017e 002B     		cmp	r3, #0
 1359 0180 7FF46BAF 		bne	.L101
1400:Generated_Source\PSoC6\pdl\rtos\FreeRTOS\9.0.0\Source/queue.c **** 				{
1401:Generated_Source\PSoC6\pdl\rtos\FreeRTOS\9.0.0\Source/queue.c **** 					portYIELD_WITHIN_API();
 1360              		.loc 1 1401 0
 1361 0184 0F4B     		ldr	r3, .L116
 1362 0186 4FF08052 		mov	r2, #268435456
 1363 018a 1A60     		str	r2, [r3]
 1364              		.syntax unified
 1365              	@ 1401 "Generated_Source\PSoC6\pdl\rtos\FreeRTOS\9.0.0\Source\queue.c" 1
 1366 018c BFF34F8F 		dsb
 1367              	@ 0 "" 2
 1368              	@ 1401 "Generated_Source\PSoC6\pdl\rtos\FreeRTOS\9.0.0\Source\queue.c" 1
 1369 0190 BFF36F8F 		isb
 1370              	@ 0 "" 2
 1371              		.thumb
 1372              		.syntax unified
 1373 0194 61E7     		b	.L101
 1374              	.L112:
1402:Generated_Source\PSoC6\pdl\rtos\FreeRTOS\9.0.0\Source/queue.c **** 				}
1403:Generated_Source\PSoC6\pdl\rtos\FreeRTOS\9.0.0\Source/queue.c **** 				else
1404:Generated_Source\PSoC6\pdl\rtos\FreeRTOS\9.0.0\Source/queue.c **** 				{
1405:Generated_Source\PSoC6\pdl\rtos\FreeRTOS\9.0.0\Source/queue.c **** 					mtCOVERAGE_TEST_MARKER();
1406:Generated_Source\PSoC6\pdl\rtos\FreeRTOS\9.0.0\Source/queue.c **** 				}
1407:Generated_Source\PSoC6\pdl\rtos\FreeRTOS\9.0.0\Source/queue.c **** 			}
1408:Generated_Source\PSoC6\pdl\rtos\FreeRTOS\9.0.0\Source/queue.c **** 			else
1409:Generated_Source\PSoC6\pdl\rtos\FreeRTOS\9.0.0\Source/queue.c **** 			{
1410:Generated_Source\PSoC6\pdl\rtos\FreeRTOS\9.0.0\Source/queue.c **** 				/* Try again. */
1411:Generated_Source\PSoC6\pdl\rtos\FreeRTOS\9.0.0\Source/queue.c **** 				prvUnlockQueue( pxQueue );
ARM GAS  C:\Users\ikomb\AppData\Local\Temp\cc9p1klJ.s 			page 54


 1375              		.loc 1 1411 0
 1376 0196 386A     		ldr	r0, [r7, #32]
 1377 0198 FFF7FEFF 		bl	prvUnlockQueue
1412:Generated_Source\PSoC6\pdl\rtos\FreeRTOS\9.0.0\Source/queue.c **** 				( void ) xTaskResumeAll();
 1378              		.loc 1 1412 0
 1379 019c FFF7FEFF 		bl	xTaskResumeAll
 1380 01a0 5BE7     		b	.L101
 1381              	.L111:
1413:Generated_Source\PSoC6\pdl\rtos\FreeRTOS\9.0.0\Source/queue.c **** 			}
1414:Generated_Source\PSoC6\pdl\rtos\FreeRTOS\9.0.0\Source/queue.c **** 		}
1415:Generated_Source\PSoC6\pdl\rtos\FreeRTOS\9.0.0\Source/queue.c **** 		else
1416:Generated_Source\PSoC6\pdl\rtos\FreeRTOS\9.0.0\Source/queue.c **** 		{
1417:Generated_Source\PSoC6\pdl\rtos\FreeRTOS\9.0.0\Source/queue.c **** 			prvUnlockQueue( pxQueue );
 1382              		.loc 1 1417 0
 1383 01a2 386A     		ldr	r0, [r7, #32]
 1384 01a4 FFF7FEFF 		bl	prvUnlockQueue
1418:Generated_Source\PSoC6\pdl\rtos\FreeRTOS\9.0.0\Source/queue.c **** 			( void ) xTaskResumeAll();
 1385              		.loc 1 1418 0
 1386 01a8 FFF7FEFF 		bl	xTaskResumeAll
1419:Generated_Source\PSoC6\pdl\rtos\FreeRTOS\9.0.0\Source/queue.c **** 
1420:Generated_Source\PSoC6\pdl\rtos\FreeRTOS\9.0.0\Source/queue.c **** 			if( prvIsQueueEmpty( pxQueue ) != pdFALSE )
 1387              		.loc 1 1420 0
 1388 01ac 386A     		ldr	r0, [r7, #32]
 1389 01ae FFF7FEFF 		bl	prvIsQueueEmpty
 1390 01b2 0346     		mov	r3, r0
 1391 01b4 002B     		cmp	r3, #0
 1392 01b6 3FF450AF 		beq	.L101
1421:Generated_Source\PSoC6\pdl\rtos\FreeRTOS\9.0.0\Source/queue.c **** 			{
1422:Generated_Source\PSoC6\pdl\rtos\FreeRTOS\9.0.0\Source/queue.c **** 				traceQUEUE_RECEIVE_FAILED( pxQueue );
1423:Generated_Source\PSoC6\pdl\rtos\FreeRTOS\9.0.0\Source/queue.c **** 				return errQUEUE_EMPTY;
 1393              		.loc 1 1423 0
 1394 01ba 0023     		movs	r3, #0
 1395              	.L115:
1424:Generated_Source\PSoC6\pdl\rtos\FreeRTOS\9.0.0\Source/queue.c **** 			}
1425:Generated_Source\PSoC6\pdl\rtos\FreeRTOS\9.0.0\Source/queue.c **** 			else
1426:Generated_Source\PSoC6\pdl\rtos\FreeRTOS\9.0.0\Source/queue.c **** 			{
1427:Generated_Source\PSoC6\pdl\rtos\FreeRTOS\9.0.0\Source/queue.c **** 				mtCOVERAGE_TEST_MARKER();
1428:Generated_Source\PSoC6\pdl\rtos\FreeRTOS\9.0.0\Source/queue.c **** 			}
1429:Generated_Source\PSoC6\pdl\rtos\FreeRTOS\9.0.0\Source/queue.c **** 		}
1430:Generated_Source\PSoC6\pdl\rtos\FreeRTOS\9.0.0\Source/queue.c **** 	}
1431:Generated_Source\PSoC6\pdl\rtos\FreeRTOS\9.0.0\Source/queue.c **** }
 1396              		.loc 1 1431 0 discriminator 7
 1397 01bc 1846     		mov	r0, r3
 1398 01be 2837     		adds	r7, r7, #40
 1399              		.cfi_def_cfa_offset 8
 1400 01c0 BD46     		mov	sp, r7
 1401              		.cfi_def_cfa_register 13
 1402              		@ sp needed
 1403 01c2 80BD     		pop	{r7, pc}
 1404              	.L117:
 1405              		.align	2
 1406              	.L116:
 1407 01c4 04ED00E0 		.word	-536810236
 1408              		.cfi_endproc
 1409              	.LFE135:
 1410              		.size	xQueueGenericReceive, .-xQueueGenericReceive
 1411              		.section	.text.xQueueReceiveFromISR,"ax",%progbits
ARM GAS  C:\Users\ikomb\AppData\Local\Temp\cc9p1klJ.s 			page 55


 1412              		.align	2
 1413              		.global	xQueueReceiveFromISR
 1414              		.thumb
 1415              		.thumb_func
 1416              		.type	xQueueReceiveFromISR, %function
 1417              	xQueueReceiveFromISR:
 1418              	.LFB136:
1432:Generated_Source\PSoC6\pdl\rtos\FreeRTOS\9.0.0\Source/queue.c **** /*-----------------------------------------------------------*/
1433:Generated_Source\PSoC6\pdl\rtos\FreeRTOS\9.0.0\Source/queue.c **** 
1434:Generated_Source\PSoC6\pdl\rtos\FreeRTOS\9.0.0\Source/queue.c **** BaseType_t xQueueReceiveFromISR( QueueHandle_t xQueue, void * const pvBuffer, BaseType_t * const px
1435:Generated_Source\PSoC6\pdl\rtos\FreeRTOS\9.0.0\Source/queue.c **** {
 1419              		.loc 1 1435 0
 1420              		.cfi_startproc
 1421              		@ args = 0, pretend = 0, frame = 48
 1422              		@ frame_needed = 1, uses_anonymous_args = 0
 1423 0000 80B5     		push	{r7, lr}
 1424              		.cfi_def_cfa_offset 8
 1425              		.cfi_offset 7, -8
 1426              		.cfi_offset 14, -4
 1427 0002 8CB0     		sub	sp, sp, #48
 1428              		.cfi_def_cfa_offset 56
 1429 0004 00AF     		add	r7, sp, #0
 1430              		.cfi_def_cfa_register 7
 1431 0006 F860     		str	r0, [r7, #12]
 1432 0008 B960     		str	r1, [r7, #8]
 1433 000a 7A60     		str	r2, [r7, #4]
1436:Generated_Source\PSoC6\pdl\rtos\FreeRTOS\9.0.0\Source/queue.c **** BaseType_t xReturn;
1437:Generated_Source\PSoC6\pdl\rtos\FreeRTOS\9.0.0\Source/queue.c **** UBaseType_t uxSavedInterruptStatus;
1438:Generated_Source\PSoC6\pdl\rtos\FreeRTOS\9.0.0\Source/queue.c **** Queue_t * const pxQueue = ( Queue_t * ) xQueue;
 1434              		.loc 1 1438 0
 1435 000c FB68     		ldr	r3, [r7, #12]
 1436 000e BB62     		str	r3, [r7, #40]
1439:Generated_Source\PSoC6\pdl\rtos\FreeRTOS\9.0.0\Source/queue.c **** 
1440:Generated_Source\PSoC6\pdl\rtos\FreeRTOS\9.0.0\Source/queue.c **** 	configASSERT( pxQueue );
 1437              		.loc 1 1440 0
 1438 0010 BB6A     		ldr	r3, [r7, #40]
 1439 0012 002B     		cmp	r3, #0
 1440 0014 01D1     		bne	.L119
 1441              		.loc 1 1440 0 is_stmt 0 discriminator 1
 1442              		.syntax unified
 1443              	@ 1440 "Generated_Source\PSoC6\pdl\rtos\FreeRTOS\9.0.0\Source\queue.c" 1
 1444 0016 72B6     		 cpsid i 
 1445              	@ 0 "" 2
 1446              		.thumb
 1447              		.syntax unified
 1448              	.L120:
 1449 0018 FEE7     		b	.L120
 1450              	.L119:
1441:Generated_Source\PSoC6\pdl\rtos\FreeRTOS\9.0.0\Source/queue.c **** 	configASSERT( !( ( pvBuffer == NULL ) && ( pxQueue->uxItemSize != ( UBaseType_t ) 0U ) ) );
 1451              		.loc 1 1441 0 is_stmt 1
 1452 001a BB68     		ldr	r3, [r7, #8]
 1453 001c 002B     		cmp	r3, #0
 1454 001e 03D1     		bne	.L121
 1455              		.loc 1 1441 0 is_stmt 0 discriminator 2
 1456 0020 BB6A     		ldr	r3, [r7, #40]
 1457 0022 1B6C     		ldr	r3, [r3, #64]
 1458 0024 002B     		cmp	r3, #0
ARM GAS  C:\Users\ikomb\AppData\Local\Temp\cc9p1klJ.s 			page 56


 1459 0026 01D1     		bne	.L122
 1460              	.L121:
 1461              		.loc 1 1441 0 discriminator 3
 1462 0028 0123     		movs	r3, #1
 1463 002a 00E0     		b	.L123
 1464              	.L122:
 1465              		.loc 1 1441 0 discriminator 4
 1466 002c 0023     		movs	r3, #0
 1467              	.L123:
 1468              		.loc 1 1441 0 discriminator 6
 1469 002e 002B     		cmp	r3, #0
 1470 0030 01D1     		bne	.L124
 1471              		.loc 1 1441 0 discriminator 7
 1472              		.syntax unified
 1473              	@ 1441 "Generated_Source\PSoC6\pdl\rtos\FreeRTOS\9.0.0\Source\queue.c" 1
 1474 0032 72B6     		 cpsid i 
 1475              	@ 0 "" 2
 1476              		.thumb
 1477              		.syntax unified
 1478              	.L125:
 1479              		.loc 1 1441 0 discriminator 2
 1480 0034 FEE7     		b	.L125
 1481              	.L124:
1442:Generated_Source\PSoC6\pdl\rtos\FreeRTOS\9.0.0\Source/queue.c **** 
1443:Generated_Source\PSoC6\pdl\rtos\FreeRTOS\9.0.0\Source/queue.c **** 	/* RTOS ports that support interrupt nesting have the concept of a maximum
1444:Generated_Source\PSoC6\pdl\rtos\FreeRTOS\9.0.0\Source/queue.c **** 	system call (or maximum API call) interrupt priority.  Interrupts that are
1445:Generated_Source\PSoC6\pdl\rtos\FreeRTOS\9.0.0\Source/queue.c **** 	above the maximum system call priority are kept permanently enabled, even
1446:Generated_Source\PSoC6\pdl\rtos\FreeRTOS\9.0.0\Source/queue.c **** 	when the RTOS kernel is in a critical section, but cannot make any calls to
1447:Generated_Source\PSoC6\pdl\rtos\FreeRTOS\9.0.0\Source/queue.c **** 	FreeRTOS API functions.  If configASSERT() is defined in FreeRTOSConfig.h
1448:Generated_Source\PSoC6\pdl\rtos\FreeRTOS\9.0.0\Source/queue.c **** 	then portASSERT_IF_INTERRUPT_PRIORITY_INVALID() will result in an assertion
1449:Generated_Source\PSoC6\pdl\rtos\FreeRTOS\9.0.0\Source/queue.c **** 	failure if a FreeRTOS API function is called from an interrupt that has been
1450:Generated_Source\PSoC6\pdl\rtos\FreeRTOS\9.0.0\Source/queue.c **** 	assigned a priority above the configured maximum system call priority.
1451:Generated_Source\PSoC6\pdl\rtos\FreeRTOS\9.0.0\Source/queue.c **** 	Only FreeRTOS functions that end in FromISR can be called from interrupts
1452:Generated_Source\PSoC6\pdl\rtos\FreeRTOS\9.0.0\Source/queue.c **** 	that have been assigned a priority at or (logically) below the maximum
1453:Generated_Source\PSoC6\pdl\rtos\FreeRTOS\9.0.0\Source/queue.c **** 	system call	interrupt priority.  FreeRTOS maintains a separate interrupt
1454:Generated_Source\PSoC6\pdl\rtos\FreeRTOS\9.0.0\Source/queue.c **** 	safe API to ensure interrupt entry is as fast and as simple as possible.
1455:Generated_Source\PSoC6\pdl\rtos\FreeRTOS\9.0.0\Source/queue.c **** 	More information (albeit Cortex-M specific) is provided on the following
1456:Generated_Source\PSoC6\pdl\rtos\FreeRTOS\9.0.0\Source/queue.c **** 	link: http://www.freertos.org/RTOS-Cortex-M3-M4.html */
1457:Generated_Source\PSoC6\pdl\rtos\FreeRTOS\9.0.0\Source/queue.c **** 	portASSERT_IF_INTERRUPT_PRIORITY_INVALID();
 1482              		.loc 1 1457 0 is_stmt 1
 1483 0036 FFF7FEFF 		bl	vPortValidateInterruptPriority
 1484              	.LBB35:
 1485              	.LBB36:
 215:Generated_Source\PSoC6\pdl\rtos/FreeRTOS/9.0.0/Source/portable/GCC/CM4F/portmacro.h ****     (
 1486              		.loc 2 215 0
 1487              		.syntax unified
 1488              	@ 215 "Generated_Source\PSoC6\pdl\rtos/FreeRTOS/9.0.0/Source/portable/GCC/CM4F/portmacro.h" 1
 1489 003a EFF31182 		    mrs r2, basepri                                            
 1490 003e 4FF0BF03 	    mov r3, #191                                                 
 1491 0042 83F31188 	    msr basepri, r3                                            
 1492 0046 BFF36F8F 	    isb                                                        
 1493 004a BFF34F8F 	    dsb                                                        
 1494              	
 1495              	@ 0 "" 2
 1496              		.thumb
 1497              		.syntax unified
 1498 004e 7A61     		str	r2, [r7, #20]
ARM GAS  C:\Users\ikomb\AppData\Local\Temp\cc9p1klJ.s 			page 57


 1499 0050 3B61     		str	r3, [r7, #16]
 227:Generated_Source\PSoC6\pdl\rtos/FreeRTOS/9.0.0/Source/portable/GCC/CM4F/portmacro.h **** }
 1500              		.loc 2 227 0
 1501 0052 7B69     		ldr	r3, [r7, #20]
 1502              	.LBE36:
 1503              	.LBE35:
1458:Generated_Source\PSoC6\pdl\rtos\FreeRTOS\9.0.0\Source/queue.c **** 
1459:Generated_Source\PSoC6\pdl\rtos\FreeRTOS\9.0.0\Source/queue.c **** 	uxSavedInterruptStatus = portSET_INTERRUPT_MASK_FROM_ISR();
 1504              		.loc 1 1459 0
 1505 0054 3B62     		str	r3, [r7, #32]
 1506              	.LBB37:
1460:Generated_Source\PSoC6\pdl\rtos\FreeRTOS\9.0.0\Source/queue.c **** 	{
1461:Generated_Source\PSoC6\pdl\rtos\FreeRTOS\9.0.0\Source/queue.c **** 		const UBaseType_t uxMessagesWaiting = pxQueue->uxMessagesWaiting;
 1507              		.loc 1 1461 0
 1508 0056 BB6A     		ldr	r3, [r7, #40]
 1509 0058 9B6B     		ldr	r3, [r3, #56]
 1510 005a FB61     		str	r3, [r7, #28]
1462:Generated_Source\PSoC6\pdl\rtos\FreeRTOS\9.0.0\Source/queue.c **** 
1463:Generated_Source\PSoC6\pdl\rtos\FreeRTOS\9.0.0\Source/queue.c **** 		/* Cannot block in an ISR, so check there is data available. */
1464:Generated_Source\PSoC6\pdl\rtos\FreeRTOS\9.0.0\Source/queue.c **** 		if( uxMessagesWaiting > ( UBaseType_t ) 0 )
 1511              		.loc 1 1464 0
 1512 005c FB69     		ldr	r3, [r7, #28]
 1513 005e 002B     		cmp	r3, #0
 1514 0060 2DD0     		beq	.L127
 1515              	.LBB38:
1465:Generated_Source\PSoC6\pdl\rtos\FreeRTOS\9.0.0\Source/queue.c **** 		{
1466:Generated_Source\PSoC6\pdl\rtos\FreeRTOS\9.0.0\Source/queue.c **** 			const int8_t cRxLock = pxQueue->cRxLock;
 1516              		.loc 1 1466 0
 1517 0062 BB6A     		ldr	r3, [r7, #40]
 1518 0064 93F84430 		ldrb	r3, [r3, #68]
 1519 0068 FB76     		strb	r3, [r7, #27]
1467:Generated_Source\PSoC6\pdl\rtos\FreeRTOS\9.0.0\Source/queue.c **** 
1468:Generated_Source\PSoC6\pdl\rtos\FreeRTOS\9.0.0\Source/queue.c **** 			traceQUEUE_RECEIVE_FROM_ISR( pxQueue );
1469:Generated_Source\PSoC6\pdl\rtos\FreeRTOS\9.0.0\Source/queue.c **** 
1470:Generated_Source\PSoC6\pdl\rtos\FreeRTOS\9.0.0\Source/queue.c **** 			prvCopyDataFromQueue( pxQueue, pvBuffer );
 1520              		.loc 1 1470 0
 1521 006a B968     		ldr	r1, [r7, #8]
 1522 006c B86A     		ldr	r0, [r7, #40]
 1523 006e FFF7FEFF 		bl	prvCopyDataFromQueue
1471:Generated_Source\PSoC6\pdl\rtos\FreeRTOS\9.0.0\Source/queue.c **** 			pxQueue->uxMessagesWaiting = uxMessagesWaiting - 1;
 1524              		.loc 1 1471 0
 1525 0072 FB69     		ldr	r3, [r7, #28]
 1526 0074 5A1E     		subs	r2, r3, #1
 1527 0076 BB6A     		ldr	r3, [r7, #40]
 1528 0078 9A63     		str	r2, [r3, #56]
1472:Generated_Source\PSoC6\pdl\rtos\FreeRTOS\9.0.0\Source/queue.c **** 
1473:Generated_Source\PSoC6\pdl\rtos\FreeRTOS\9.0.0\Source/queue.c **** 			/* If the queue is locked the event list will not be modified.
1474:Generated_Source\PSoC6\pdl\rtos\FreeRTOS\9.0.0\Source/queue.c **** 			Instead update the lock count so the task that unlocks the queue
