ARM GAS  C:\Users\ikomb\AppData\Local\Temp\ccNQc6m6.s 			page 1


   1              		.syntax unified
   2              		.cpu cortex-m4
   3              		.eabi_attribute 27, 1
   4              		.fpu fpv4-sp-d16
   5              		.eabi_attribute 20, 1
   6              		.eabi_attribute 21, 1
   7              		.eabi_attribute 23, 3
   8              		.eabi_attribute 24, 1
   9              		.eabi_attribute 25, 1
  10              		.eabi_attribute 26, 1
  11              		.eabi_attribute 30, 6
  12              		.eabi_attribute 34, 1
  13              		.eabi_attribute 18, 4
  14              		.thumb
  15              		.syntax unified
  16              		.file	"tasks.c"
  17              		.text
  18              	.Ltext0:
  19              		.cfi_sections	.debug_frame
  20              		.global	pxCurrentTCB
  21              		.bss
  22              		.align	2
  23              		.type	pxCurrentTCB, %object
  24              		.size	pxCurrentTCB, 4
  25              	pxCurrentTCB:
  26 0000 00000000 		.space	4
  27              		.align	2
  28              	pxReadyTasksLists:
  29 0004 00000000 		.space	140
  29      00000000 
  29      00000000 
  29      00000000 
  29      00000000 
  30              		.align	2
  31              	xDelayedTaskList1:
  32 0090 00000000 		.space	20
  32      00000000 
  32      00000000 
  32      00000000 
  32      00000000 
  33              		.align	2
  34              	xDelayedTaskList2:
  35 00a4 00000000 		.space	20
  35      00000000 
  35      00000000 
  35      00000000 
  35      00000000 
  36              		.align	2
  37              	pxDelayedTaskList:
  38 00b8 00000000 		.space	4
  39              		.align	2
  40              	pxOverflowDelayedTaskList:
  41 00bc 00000000 		.space	4
  42              		.align	2
  43              	xPendingReadyList:
  44 00c0 00000000 		.space	20
  44      00000000 
ARM GAS  C:\Users\ikomb\AppData\Local\Temp\ccNQc6m6.s 			page 2


  44      00000000 
  44      00000000 
  44      00000000 
  45              		.align	2
  46              	xTasksWaitingTermination:
  47 00d4 00000000 		.space	20
  47      00000000 
  47      00000000 
  47      00000000 
  47      00000000 
  48              		.align	2
  49              	uxDeletedTasksWaitingCleanUp:
  50 00e8 00000000 		.space	4
  51              		.align	2
  52              	xSuspendedTaskList:
  53 00ec 00000000 		.space	20
  53      00000000 
  53      00000000 
  53      00000000 
  53      00000000 
  54              		.align	2
  55              	uxCurrentNumberOfTasks:
  56 0100 00000000 		.space	4
  57              		.align	2
  58              	xTickCount:
  59 0104 00000000 		.space	4
  60              		.align	2
  61              	uxTopReadyPriority:
  62 0108 00000000 		.space	4
  63              		.align	2
  64              	xSchedulerRunning:
  65 010c 00000000 		.space	4
  66              		.align	2
  67              	uxPendedTicks:
  68 0110 00000000 		.space	4
  69              		.align	2
  70              	xYieldPending:
  71 0114 00000000 		.space	4
  72              		.align	2
  73              	xNumOfOverflows:
  74 0118 00000000 		.space	4
  75              		.align	2
  76              	uxTaskNumber:
  77 011c 00000000 		.space	4
  78              		.align	2
  79              	xNextTaskUnblockTime:
  80 0120 00000000 		.space	4
  81              		.align	2
  82              	xIdleTaskHandle:
  83 0124 00000000 		.space	4
  84              		.align	2
  85              	uxSchedulerSuspended:
  86 0128 00000000 		.space	4
  87              		.section	.text.xTaskCreate,"ax",%progbits
  88              		.align	2
  89              		.global	xTaskCreate
  90              		.thumb
ARM GAS  C:\Users\ikomb\AppData\Local\Temp\ccNQc6m6.s 			page 3


  91              		.thumb_func
  92              		.type	xTaskCreate, %function
  93              	xTaskCreate:
  94              	.LFB129:
  95              		.file 1 "Generated_Source\\PSoC6\\pdl\\rtos\\FreeRTOS\\9.0.0\\Source\\tasks.c"
   1:Generated_Source\PSoC6\pdl\rtos\FreeRTOS\9.0.0\Source/tasks.c **** /*
   2:Generated_Source\PSoC6\pdl\rtos\FreeRTOS\9.0.0\Source/tasks.c ****     FreeRTOS V9.0.0 - Copyright (C) 2016 Real Time Engineers Ltd.
   3:Generated_Source\PSoC6\pdl\rtos\FreeRTOS\9.0.0\Source/tasks.c ****     All rights reserved
   4:Generated_Source\PSoC6\pdl\rtos\FreeRTOS\9.0.0\Source/tasks.c **** 
   5:Generated_Source\PSoC6\pdl\rtos\FreeRTOS\9.0.0\Source/tasks.c ****     VISIT http://www.FreeRTOS.org TO ENSURE YOU ARE USING THE LATEST VERSION.
   6:Generated_Source\PSoC6\pdl\rtos\FreeRTOS\9.0.0\Source/tasks.c **** 
   7:Generated_Source\PSoC6\pdl\rtos\FreeRTOS\9.0.0\Source/tasks.c ****     This file is part of the FreeRTOS distribution.
   8:Generated_Source\PSoC6\pdl\rtos\FreeRTOS\9.0.0\Source/tasks.c **** 
   9:Generated_Source\PSoC6\pdl\rtos\FreeRTOS\9.0.0\Source/tasks.c ****     FreeRTOS is free software; you can redistribute it and/or modify it under
  10:Generated_Source\PSoC6\pdl\rtos\FreeRTOS\9.0.0\Source/tasks.c ****     the terms of the GNU General Public License (version 2) as published by the
  11:Generated_Source\PSoC6\pdl\rtos\FreeRTOS\9.0.0\Source/tasks.c ****     Free Software Foundation >>>> AND MODIFIED BY <<<< the FreeRTOS exception.
  12:Generated_Source\PSoC6\pdl\rtos\FreeRTOS\9.0.0\Source/tasks.c **** 
  13:Generated_Source\PSoC6\pdl\rtos\FreeRTOS\9.0.0\Source/tasks.c ****     ***************************************************************************
  14:Generated_Source\PSoC6\pdl\rtos\FreeRTOS\9.0.0\Source/tasks.c ****     >>!   NOTE: The modification to the GPL is included to allow you to     !<<
  15:Generated_Source\PSoC6\pdl\rtos\FreeRTOS\9.0.0\Source/tasks.c ****     >>!   distribute a combined work that includes FreeRTOS without being   !<<
  16:Generated_Source\PSoC6\pdl\rtos\FreeRTOS\9.0.0\Source/tasks.c ****     >>!   obliged to provide the source code for proprietary components     !<<
  17:Generated_Source\PSoC6\pdl\rtos\FreeRTOS\9.0.0\Source/tasks.c ****     >>!   outside of the FreeRTOS kernel.                                   !<<
  18:Generated_Source\PSoC6\pdl\rtos\FreeRTOS\9.0.0\Source/tasks.c ****     ***************************************************************************
  19:Generated_Source\PSoC6\pdl\rtos\FreeRTOS\9.0.0\Source/tasks.c **** 
  20:Generated_Source\PSoC6\pdl\rtos\FreeRTOS\9.0.0\Source/tasks.c ****     FreeRTOS is distributed in the hope that it will be useful, but WITHOUT ANY
  21:Generated_Source\PSoC6\pdl\rtos\FreeRTOS\9.0.0\Source/tasks.c ****     WARRANTY; without even the implied warranty of MERCHANTABILITY or FITNESS
  22:Generated_Source\PSoC6\pdl\rtos\FreeRTOS\9.0.0\Source/tasks.c ****     FOR A PARTICULAR PURPOSE.  Full license text is available on the following
  23:Generated_Source\PSoC6\pdl\rtos\FreeRTOS\9.0.0\Source/tasks.c ****     link: http://www.freertos.org/a00114.html
  24:Generated_Source\PSoC6\pdl\rtos\FreeRTOS\9.0.0\Source/tasks.c **** 
  25:Generated_Source\PSoC6\pdl\rtos\FreeRTOS\9.0.0\Source/tasks.c ****     ***************************************************************************
  26:Generated_Source\PSoC6\pdl\rtos\FreeRTOS\9.0.0\Source/tasks.c ****      *                                                                       *
  27:Generated_Source\PSoC6\pdl\rtos\FreeRTOS\9.0.0\Source/tasks.c ****      *    FreeRTOS provides completely free yet professionally developed,    *
  28:Generated_Source\PSoC6\pdl\rtos\FreeRTOS\9.0.0\Source/tasks.c ****      *    robust, strictly quality controlled, supported, and cross          *
  29:Generated_Source\PSoC6\pdl\rtos\FreeRTOS\9.0.0\Source/tasks.c ****      *    platform software that is more than just the market leader, it     *
  30:Generated_Source\PSoC6\pdl\rtos\FreeRTOS\9.0.0\Source/tasks.c ****      *    is the industry's de facto standard.                               *
  31:Generated_Source\PSoC6\pdl\rtos\FreeRTOS\9.0.0\Source/tasks.c ****      *                                                                       *
  32:Generated_Source\PSoC6\pdl\rtos\FreeRTOS\9.0.0\Source/tasks.c ****      *    Help yourself get started quickly while simultaneously helping     *
  33:Generated_Source\PSoC6\pdl\rtos\FreeRTOS\9.0.0\Source/tasks.c ****      *    to support the FreeRTOS project by purchasing a FreeRTOS           *
  34:Generated_Source\PSoC6\pdl\rtos\FreeRTOS\9.0.0\Source/tasks.c ****      *    tutorial book, reference manual, or both:                          *
  35:Generated_Source\PSoC6\pdl\rtos\FreeRTOS\9.0.0\Source/tasks.c ****      *    http://www.FreeRTOS.org/Documentation                              *
  36:Generated_Source\PSoC6\pdl\rtos\FreeRTOS\9.0.0\Source/tasks.c ****      *                                                                       *
  37:Generated_Source\PSoC6\pdl\rtos\FreeRTOS\9.0.0\Source/tasks.c ****     ***************************************************************************
  38:Generated_Source\PSoC6\pdl\rtos\FreeRTOS\9.0.0\Source/tasks.c **** 
  39:Generated_Source\PSoC6\pdl\rtos\FreeRTOS\9.0.0\Source/tasks.c ****     http://www.FreeRTOS.org/FAQHelp.html - Having a problem?  Start by reading
  40:Generated_Source\PSoC6\pdl\rtos\FreeRTOS\9.0.0\Source/tasks.c ****     the FAQ page "My application does not run, what could be wrong?".  Have you
  41:Generated_Source\PSoC6\pdl\rtos\FreeRTOS\9.0.0\Source/tasks.c ****     defined configASSERT()?
  42:Generated_Source\PSoC6\pdl\rtos\FreeRTOS\9.0.0\Source/tasks.c **** 
  43:Generated_Source\PSoC6\pdl\rtos\FreeRTOS\9.0.0\Source/tasks.c ****     http://www.FreeRTOS.org/support - In return for receiving this top quality
  44:Generated_Source\PSoC6\pdl\rtos\FreeRTOS\9.0.0\Source/tasks.c ****     embedded software for free we request you assist our global community by
  45:Generated_Source\PSoC6\pdl\rtos\FreeRTOS\9.0.0\Source/tasks.c ****     participating in the support forum.
  46:Generated_Source\PSoC6\pdl\rtos\FreeRTOS\9.0.0\Source/tasks.c **** 
  47:Generated_Source\PSoC6\pdl\rtos\FreeRTOS\9.0.0\Source/tasks.c ****     http://www.FreeRTOS.org/training - Investing in training allows your team to
  48:Generated_Source\PSoC6\pdl\rtos\FreeRTOS\9.0.0\Source/tasks.c ****     be as productive as possible as early as possible.  Now you can receive
  49:Generated_Source\PSoC6\pdl\rtos\FreeRTOS\9.0.0\Source/tasks.c ****     FreeRTOS training directly from Richard Barry, CEO of Real Time Engineers
  50:Generated_Source\PSoC6\pdl\rtos\FreeRTOS\9.0.0\Source/tasks.c ****     Ltd, and the world's leading authority on the world's leading RTOS.
  51:Generated_Source\PSoC6\pdl\rtos\FreeRTOS\9.0.0\Source/tasks.c **** 
  52:Generated_Source\PSoC6\pdl\rtos\FreeRTOS\9.0.0\Source/tasks.c ****     http://www.FreeRTOS.org/plus - A selection of FreeRTOS ecosystem products,
ARM GAS  C:\Users\ikomb\AppData\Local\Temp\ccNQc6m6.s 			page 4


  53:Generated_Source\PSoC6\pdl\rtos\FreeRTOS\9.0.0\Source/tasks.c ****     including FreeRTOS+Trace - an indispensable productivity tool, a DOS
  54:Generated_Source\PSoC6\pdl\rtos\FreeRTOS\9.0.0\Source/tasks.c ****     compatible FAT file system, and our tiny thread aware UDP/IP stack.
  55:Generated_Source\PSoC6\pdl\rtos\FreeRTOS\9.0.0\Source/tasks.c **** 
  56:Generated_Source\PSoC6\pdl\rtos\FreeRTOS\9.0.0\Source/tasks.c ****     http://www.FreeRTOS.org/labs - Where new FreeRTOS products go to incubate.
  57:Generated_Source\PSoC6\pdl\rtos\FreeRTOS\9.0.0\Source/tasks.c ****     Come and try FreeRTOS+TCP, our new open source TCP/IP stack for FreeRTOS.
  58:Generated_Source\PSoC6\pdl\rtos\FreeRTOS\9.0.0\Source/tasks.c **** 
  59:Generated_Source\PSoC6\pdl\rtos\FreeRTOS\9.0.0\Source/tasks.c ****     http://www.OpenRTOS.com - Real Time Engineers ltd. license FreeRTOS to High
  60:Generated_Source\PSoC6\pdl\rtos\FreeRTOS\9.0.0\Source/tasks.c ****     Integrity Systems ltd. to sell under the OpenRTOS brand.  Low cost OpenRTOS
  61:Generated_Source\PSoC6\pdl\rtos\FreeRTOS\9.0.0\Source/tasks.c ****     licenses offer ticketed support, indemnification and commercial middleware.
  62:Generated_Source\PSoC6\pdl\rtos\FreeRTOS\9.0.0\Source/tasks.c **** 
  63:Generated_Source\PSoC6\pdl\rtos\FreeRTOS\9.0.0\Source/tasks.c ****     http://www.SafeRTOS.com - High Integrity Systems also provide a safety
  64:Generated_Source\PSoC6\pdl\rtos\FreeRTOS\9.0.0\Source/tasks.c ****     engineered and independently SIL3 certified version for use in safety and
  65:Generated_Source\PSoC6\pdl\rtos\FreeRTOS\9.0.0\Source/tasks.c ****     mission critical applications that require provable dependability.
  66:Generated_Source\PSoC6\pdl\rtos\FreeRTOS\9.0.0\Source/tasks.c **** 
  67:Generated_Source\PSoC6\pdl\rtos\FreeRTOS\9.0.0\Source/tasks.c ****     1 tab == 4 spaces!
  68:Generated_Source\PSoC6\pdl\rtos\FreeRTOS\9.0.0\Source/tasks.c **** */
  69:Generated_Source\PSoC6\pdl\rtos\FreeRTOS\9.0.0\Source/tasks.c **** 
  70:Generated_Source\PSoC6\pdl\rtos\FreeRTOS\9.0.0\Source/tasks.c **** /* Standard includes. */
  71:Generated_Source\PSoC6\pdl\rtos\FreeRTOS\9.0.0\Source/tasks.c **** #include <stdlib.h>
  72:Generated_Source\PSoC6\pdl\rtos\FreeRTOS\9.0.0\Source/tasks.c **** #include <string.h>
  73:Generated_Source\PSoC6\pdl\rtos\FreeRTOS\9.0.0\Source/tasks.c **** 
  74:Generated_Source\PSoC6\pdl\rtos\FreeRTOS\9.0.0\Source/tasks.c **** /* Defining MPU_WRAPPERS_INCLUDED_FROM_API_FILE prevents task.h from redefining
  75:Generated_Source\PSoC6\pdl\rtos\FreeRTOS\9.0.0\Source/tasks.c **** all the API functions to use the MPU wrappers.  That should only be done when
  76:Generated_Source\PSoC6\pdl\rtos\FreeRTOS\9.0.0\Source/tasks.c **** task.h is included from an application file. */
  77:Generated_Source\PSoC6\pdl\rtos\FreeRTOS\9.0.0\Source/tasks.c **** #define MPU_WRAPPERS_INCLUDED_FROM_API_FILE
  78:Generated_Source\PSoC6\pdl\rtos\FreeRTOS\9.0.0\Source/tasks.c **** 
  79:Generated_Source\PSoC6\pdl\rtos\FreeRTOS\9.0.0\Source/tasks.c **** /* FreeRTOS includes. */
  80:Generated_Source\PSoC6\pdl\rtos\FreeRTOS\9.0.0\Source/tasks.c **** #include "FreeRTOS.h"
  81:Generated_Source\PSoC6\pdl\rtos\FreeRTOS\9.0.0\Source/tasks.c **** #include "task.h"
  82:Generated_Source\PSoC6\pdl\rtos\FreeRTOS\9.0.0\Source/tasks.c **** #include "timers.h"
  83:Generated_Source\PSoC6\pdl\rtos\FreeRTOS\9.0.0\Source/tasks.c **** #include "StackMacros.h"
  84:Generated_Source\PSoC6\pdl\rtos\FreeRTOS\9.0.0\Source/tasks.c **** 
  85:Generated_Source\PSoC6\pdl\rtos\FreeRTOS\9.0.0\Source/tasks.c **** /* Lint e961 and e750 are suppressed as a MISRA exception justified because the
  86:Generated_Source\PSoC6\pdl\rtos\FreeRTOS\9.0.0\Source/tasks.c **** MPU ports require MPU_WRAPPERS_INCLUDED_FROM_API_FILE to be defined for the
  87:Generated_Source\PSoC6\pdl\rtos\FreeRTOS\9.0.0\Source/tasks.c **** header files above, but not in this file, in order to generate the correct
  88:Generated_Source\PSoC6\pdl\rtos\FreeRTOS\9.0.0\Source/tasks.c **** privileged Vs unprivileged linkage and placement. */
  89:Generated_Source\PSoC6\pdl\rtos\FreeRTOS\9.0.0\Source/tasks.c **** #undef MPU_WRAPPERS_INCLUDED_FROM_API_FILE /*lint !e961 !e750. */
  90:Generated_Source\PSoC6\pdl\rtos\FreeRTOS\9.0.0\Source/tasks.c **** 
  91:Generated_Source\PSoC6\pdl\rtos\FreeRTOS\9.0.0\Source/tasks.c **** /* Set configUSE_STATS_FORMATTING_FUNCTIONS to 2 to include the stats formatting
  92:Generated_Source\PSoC6\pdl\rtos\FreeRTOS\9.0.0\Source/tasks.c **** functions but without including stdio.h here. */
  93:Generated_Source\PSoC6\pdl\rtos\FreeRTOS\9.0.0\Source/tasks.c **** #if ( configUSE_STATS_FORMATTING_FUNCTIONS == 1 )
  94:Generated_Source\PSoC6\pdl\rtos\FreeRTOS\9.0.0\Source/tasks.c **** 	/* At the bottom of this file are two optional functions that can be used
  95:Generated_Source\PSoC6\pdl\rtos\FreeRTOS\9.0.0\Source/tasks.c **** 	to generate human readable text from the raw data generated by the
  96:Generated_Source\PSoC6\pdl\rtos\FreeRTOS\9.0.0\Source/tasks.c **** 	uxTaskGetSystemState() function.  Note the formatting functions are provided
  97:Generated_Source\PSoC6\pdl\rtos\FreeRTOS\9.0.0\Source/tasks.c **** 	for convenience only, and are NOT considered part of the kernel. */
  98:Generated_Source\PSoC6\pdl\rtos\FreeRTOS\9.0.0\Source/tasks.c **** 	#include <stdio.h>
  99:Generated_Source\PSoC6\pdl\rtos\FreeRTOS\9.0.0\Source/tasks.c **** #endif /* configUSE_STATS_FORMATTING_FUNCTIONS == 1 ) */
 100:Generated_Source\PSoC6\pdl\rtos\FreeRTOS\9.0.0\Source/tasks.c **** 
 101:Generated_Source\PSoC6\pdl\rtos\FreeRTOS\9.0.0\Source/tasks.c **** #if( configUSE_PREEMPTION == 0 )
 102:Generated_Source\PSoC6\pdl\rtos\FreeRTOS\9.0.0\Source/tasks.c **** 	/* If the cooperative scheduler is being used then a yield should not be
 103:Generated_Source\PSoC6\pdl\rtos\FreeRTOS\9.0.0\Source/tasks.c **** 	performed just because a higher priority task has been woken. */
 104:Generated_Source\PSoC6\pdl\rtos\FreeRTOS\9.0.0\Source/tasks.c **** 	#define taskYIELD_IF_USING_PREEMPTION()
 105:Generated_Source\PSoC6\pdl\rtos\FreeRTOS\9.0.0\Source/tasks.c **** #else
 106:Generated_Source\PSoC6\pdl\rtos\FreeRTOS\9.0.0\Source/tasks.c **** 	#define taskYIELD_IF_USING_PREEMPTION() portYIELD_WITHIN_API()
 107:Generated_Source\PSoC6\pdl\rtos\FreeRTOS\9.0.0\Source/tasks.c **** #endif
 108:Generated_Source\PSoC6\pdl\rtos\FreeRTOS\9.0.0\Source/tasks.c **** 
 109:Generated_Source\PSoC6\pdl\rtos\FreeRTOS\9.0.0\Source/tasks.c **** /* Values that can be assigned to the ucNotifyState member of the TCB. */
ARM GAS  C:\Users\ikomb\AppData\Local\Temp\ccNQc6m6.s 			page 5


 110:Generated_Source\PSoC6\pdl\rtos\FreeRTOS\9.0.0\Source/tasks.c **** #define taskNOT_WAITING_NOTIFICATION	( ( uint8_t ) 0 )
 111:Generated_Source\PSoC6\pdl\rtos\FreeRTOS\9.0.0\Source/tasks.c **** #define taskWAITING_NOTIFICATION		( ( uint8_t ) 1 )
 112:Generated_Source\PSoC6\pdl\rtos\FreeRTOS\9.0.0\Source/tasks.c **** #define taskNOTIFICATION_RECEIVED		( ( uint8_t ) 2 )
 113:Generated_Source\PSoC6\pdl\rtos\FreeRTOS\9.0.0\Source/tasks.c **** 
 114:Generated_Source\PSoC6\pdl\rtos\FreeRTOS\9.0.0\Source/tasks.c **** /*
 115:Generated_Source\PSoC6\pdl\rtos\FreeRTOS\9.0.0\Source/tasks.c ****  * The value used to fill the stack of a task when the task is created.  This
 116:Generated_Source\PSoC6\pdl\rtos\FreeRTOS\9.0.0\Source/tasks.c ****  * is used purely for checking the high water mark for tasks.
 117:Generated_Source\PSoC6\pdl\rtos\FreeRTOS\9.0.0\Source/tasks.c ****  */
 118:Generated_Source\PSoC6\pdl\rtos\FreeRTOS\9.0.0\Source/tasks.c **** #define tskSTACK_FILL_BYTE	( 0xa5U )
 119:Generated_Source\PSoC6\pdl\rtos\FreeRTOS\9.0.0\Source/tasks.c **** 
 120:Generated_Source\PSoC6\pdl\rtos\FreeRTOS\9.0.0\Source/tasks.c **** /* Sometimes the FreeRTOSConfig.h settings only allow a task to be created using
 121:Generated_Source\PSoC6\pdl\rtos\FreeRTOS\9.0.0\Source/tasks.c **** dynamically allocated RAM, in which case when any task is deleted it is known
 122:Generated_Source\PSoC6\pdl\rtos\FreeRTOS\9.0.0\Source/tasks.c **** that both the task's stack and TCB need to be freed.  Sometimes the
 123:Generated_Source\PSoC6\pdl\rtos\FreeRTOS\9.0.0\Source/tasks.c **** FreeRTOSConfig.h settings only allow a task to be created using statically
 124:Generated_Source\PSoC6\pdl\rtos\FreeRTOS\9.0.0\Source/tasks.c **** allocated RAM, in which case when any task is deleted it is known that neither
 125:Generated_Source\PSoC6\pdl\rtos\FreeRTOS\9.0.0\Source/tasks.c **** the task's stack or TCB should be freed.  Sometimes the FreeRTOSConfig.h
 126:Generated_Source\PSoC6\pdl\rtos\FreeRTOS\9.0.0\Source/tasks.c **** settings allow a task to be created using either statically or dynamically
 127:Generated_Source\PSoC6\pdl\rtos\FreeRTOS\9.0.0\Source/tasks.c **** allocated RAM, in which case a member of the TCB is used to record whether the
 128:Generated_Source\PSoC6\pdl\rtos\FreeRTOS\9.0.0\Source/tasks.c **** stack and/or TCB were allocated statically or dynamically, so when a task is
 129:Generated_Source\PSoC6\pdl\rtos\FreeRTOS\9.0.0\Source/tasks.c **** deleted the RAM that was allocated dynamically is freed again and no attempt is
 130:Generated_Source\PSoC6\pdl\rtos\FreeRTOS\9.0.0\Source/tasks.c **** made to free the RAM that was allocated statically.
 131:Generated_Source\PSoC6\pdl\rtos\FreeRTOS\9.0.0\Source/tasks.c **** tskSTATIC_AND_DYNAMIC_ALLOCATION_POSSIBLE is only true if it is possible for a
 132:Generated_Source\PSoC6\pdl\rtos\FreeRTOS\9.0.0\Source/tasks.c **** task to be created using either statically or dynamically allocated RAM.  Note
 133:Generated_Source\PSoC6\pdl\rtos\FreeRTOS\9.0.0\Source/tasks.c **** that if portUSING_MPU_WRAPPERS is 1 then a protected task can be created with
 134:Generated_Source\PSoC6\pdl\rtos\FreeRTOS\9.0.0\Source/tasks.c **** a statically allocated stack and a dynamically allocated TCB. */
 135:Generated_Source\PSoC6\pdl\rtos\FreeRTOS\9.0.0\Source/tasks.c **** #define tskSTATIC_AND_DYNAMIC_ALLOCATION_POSSIBLE ( ( ( configSUPPORT_STATIC_ALLOCATION == 1 ) && (
 136:Generated_Source\PSoC6\pdl\rtos\FreeRTOS\9.0.0\Source/tasks.c **** #define tskDYNAMICALLY_ALLOCATED_STACK_AND_TCB 		( ( uint8_t ) 0 )
 137:Generated_Source\PSoC6\pdl\rtos\FreeRTOS\9.0.0\Source/tasks.c **** #define tskSTATICALLY_ALLOCATED_STACK_ONLY 			( ( uint8_t ) 1 )
 138:Generated_Source\PSoC6\pdl\rtos\FreeRTOS\9.0.0\Source/tasks.c **** #define tskSTATICALLY_ALLOCATED_STACK_AND_TCB		( ( uint8_t ) 2 )
 139:Generated_Source\PSoC6\pdl\rtos\FreeRTOS\9.0.0\Source/tasks.c **** 
 140:Generated_Source\PSoC6\pdl\rtos\FreeRTOS\9.0.0\Source/tasks.c **** /*
 141:Generated_Source\PSoC6\pdl\rtos\FreeRTOS\9.0.0\Source/tasks.c ****  * Macros used by vListTask to indicate which state a task is in.
 142:Generated_Source\PSoC6\pdl\rtos\FreeRTOS\9.0.0\Source/tasks.c ****  */
 143:Generated_Source\PSoC6\pdl\rtos\FreeRTOS\9.0.0\Source/tasks.c **** #define tskBLOCKED_CHAR		( 'B' )
 144:Generated_Source\PSoC6\pdl\rtos\FreeRTOS\9.0.0\Source/tasks.c **** #define tskREADY_CHAR		( 'R' )
 145:Generated_Source\PSoC6\pdl\rtos\FreeRTOS\9.0.0\Source/tasks.c **** #define tskDELETED_CHAR		( 'D' )
 146:Generated_Source\PSoC6\pdl\rtos\FreeRTOS\9.0.0\Source/tasks.c **** #define tskSUSPENDED_CHAR	( 'S' )
 147:Generated_Source\PSoC6\pdl\rtos\FreeRTOS\9.0.0\Source/tasks.c **** 
 148:Generated_Source\PSoC6\pdl\rtos\FreeRTOS\9.0.0\Source/tasks.c **** /*
 149:Generated_Source\PSoC6\pdl\rtos\FreeRTOS\9.0.0\Source/tasks.c ****  * Some kernel aware debuggers require the data the debugger needs access to be
 150:Generated_Source\PSoC6\pdl\rtos\FreeRTOS\9.0.0\Source/tasks.c ****  * global, rather than file scope.
 151:Generated_Source\PSoC6\pdl\rtos\FreeRTOS\9.0.0\Source/tasks.c ****  */
 152:Generated_Source\PSoC6\pdl\rtos\FreeRTOS\9.0.0\Source/tasks.c **** #ifdef portREMOVE_STATIC_QUALIFIER
 153:Generated_Source\PSoC6\pdl\rtos\FreeRTOS\9.0.0\Source/tasks.c **** 	#define static
 154:Generated_Source\PSoC6\pdl\rtos\FreeRTOS\9.0.0\Source/tasks.c **** #endif
 155:Generated_Source\PSoC6\pdl\rtos\FreeRTOS\9.0.0\Source/tasks.c **** 
 156:Generated_Source\PSoC6\pdl\rtos\FreeRTOS\9.0.0\Source/tasks.c **** #if ( configUSE_PORT_OPTIMISED_TASK_SELECTION == 0 )
 157:Generated_Source\PSoC6\pdl\rtos\FreeRTOS\9.0.0\Source/tasks.c **** 
 158:Generated_Source\PSoC6\pdl\rtos\FreeRTOS\9.0.0\Source/tasks.c **** 	/* If configUSE_PORT_OPTIMISED_TASK_SELECTION is 0 then task selection is
 159:Generated_Source\PSoC6\pdl\rtos\FreeRTOS\9.0.0\Source/tasks.c **** 	performed in a generic way that is not optimised to any particular
 160:Generated_Source\PSoC6\pdl\rtos\FreeRTOS\9.0.0\Source/tasks.c **** 	microcontroller architecture. */
 161:Generated_Source\PSoC6\pdl\rtos\FreeRTOS\9.0.0\Source/tasks.c **** 
 162:Generated_Source\PSoC6\pdl\rtos\FreeRTOS\9.0.0\Source/tasks.c **** 	/* uxTopReadyPriority holds the priority of the highest priority ready
 163:Generated_Source\PSoC6\pdl\rtos\FreeRTOS\9.0.0\Source/tasks.c **** 	state task. */
 164:Generated_Source\PSoC6\pdl\rtos\FreeRTOS\9.0.0\Source/tasks.c **** 	#define taskRECORD_READY_PRIORITY( uxPriority )														\
 165:Generated_Source\PSoC6\pdl\rtos\FreeRTOS\9.0.0\Source/tasks.c **** 	{																									\
 166:Generated_Source\PSoC6\pdl\rtos\FreeRTOS\9.0.0\Source/tasks.c **** 		if( ( uxPriority ) > uxTopReadyPriority )														\
ARM GAS  C:\Users\ikomb\AppData\Local\Temp\ccNQc6m6.s 			page 6


 167:Generated_Source\PSoC6\pdl\rtos\FreeRTOS\9.0.0\Source/tasks.c **** 		{																								\
 168:Generated_Source\PSoC6\pdl\rtos\FreeRTOS\9.0.0\Source/tasks.c **** 			uxTopReadyPriority = ( uxPriority );														\
 169:Generated_Source\PSoC6\pdl\rtos\FreeRTOS\9.0.0\Source/tasks.c **** 		}																								\
 170:Generated_Source\PSoC6\pdl\rtos\FreeRTOS\9.0.0\Source/tasks.c **** 	} /* taskRECORD_READY_PRIORITY */
 171:Generated_Source\PSoC6\pdl\rtos\FreeRTOS\9.0.0\Source/tasks.c **** 
 172:Generated_Source\PSoC6\pdl\rtos\FreeRTOS\9.0.0\Source/tasks.c **** 	/*-----------------------------------------------------------*/
 173:Generated_Source\PSoC6\pdl\rtos\FreeRTOS\9.0.0\Source/tasks.c **** 
 174:Generated_Source\PSoC6\pdl\rtos\FreeRTOS\9.0.0\Source/tasks.c **** 	#define taskSELECT_HIGHEST_PRIORITY_TASK()															\
 175:Generated_Source\PSoC6\pdl\rtos\FreeRTOS\9.0.0\Source/tasks.c **** 	{																									\
 176:Generated_Source\PSoC6\pdl\rtos\FreeRTOS\9.0.0\Source/tasks.c **** 	UBaseType_t uxTopPriority = uxTopReadyPriority;														\
 177:Generated_Source\PSoC6\pdl\rtos\FreeRTOS\9.0.0\Source/tasks.c **** 																										\
 178:Generated_Source\PSoC6\pdl\rtos\FreeRTOS\9.0.0\Source/tasks.c **** 		/* Find the highest priority queue that contains ready tasks. */								\
 179:Generated_Source\PSoC6\pdl\rtos\FreeRTOS\9.0.0\Source/tasks.c **** 		while( listLIST_IS_EMPTY( &( pxReadyTasksLists[ uxTopPriority ] ) ) )							\
 180:Generated_Source\PSoC6\pdl\rtos\FreeRTOS\9.0.0\Source/tasks.c **** 		{																								\
 181:Generated_Source\PSoC6\pdl\rtos\FreeRTOS\9.0.0\Source/tasks.c **** 			configASSERT( uxTopPriority );																\
 182:Generated_Source\PSoC6\pdl\rtos\FreeRTOS\9.0.0\Source/tasks.c **** 			--uxTopPriority;																			\
 183:Generated_Source\PSoC6\pdl\rtos\FreeRTOS\9.0.0\Source/tasks.c **** 		}																								\
 184:Generated_Source\PSoC6\pdl\rtos\FreeRTOS\9.0.0\Source/tasks.c **** 																										\
 185:Generated_Source\PSoC6\pdl\rtos\FreeRTOS\9.0.0\Source/tasks.c **** 		/* listGET_OWNER_OF_NEXT_ENTRY indexes through the list, so the tasks of						\
 186:Generated_Source\PSoC6\pdl\rtos\FreeRTOS\9.0.0\Source/tasks.c **** 		the	same priority get an equal share of the processor time. */									\
 187:Generated_Source\PSoC6\pdl\rtos\FreeRTOS\9.0.0\Source/tasks.c **** 		listGET_OWNER_OF_NEXT_ENTRY( pxCurrentTCB, &( pxReadyTasksLists[ uxTopPriority ] ) );			\
 188:Generated_Source\PSoC6\pdl\rtos\FreeRTOS\9.0.0\Source/tasks.c **** 		uxTopReadyPriority = uxTopPriority;																\
 189:Generated_Source\PSoC6\pdl\rtos\FreeRTOS\9.0.0\Source/tasks.c **** 	} /* taskSELECT_HIGHEST_PRIORITY_TASK */
 190:Generated_Source\PSoC6\pdl\rtos\FreeRTOS\9.0.0\Source/tasks.c **** 
 191:Generated_Source\PSoC6\pdl\rtos\FreeRTOS\9.0.0\Source/tasks.c **** 	/*-----------------------------------------------------------*/
 192:Generated_Source\PSoC6\pdl\rtos\FreeRTOS\9.0.0\Source/tasks.c **** 
 193:Generated_Source\PSoC6\pdl\rtos\FreeRTOS\9.0.0\Source/tasks.c **** 	/* Define away taskRESET_READY_PRIORITY() and portRESET_READY_PRIORITY() as
 194:Generated_Source\PSoC6\pdl\rtos\FreeRTOS\9.0.0\Source/tasks.c **** 	they are only required when a port optimised method of task selection is
 195:Generated_Source\PSoC6\pdl\rtos\FreeRTOS\9.0.0\Source/tasks.c **** 	being used. */
 196:Generated_Source\PSoC6\pdl\rtos\FreeRTOS\9.0.0\Source/tasks.c **** 	#define taskRESET_READY_PRIORITY( uxPriority )
 197:Generated_Source\PSoC6\pdl\rtos\FreeRTOS\9.0.0\Source/tasks.c **** 	#define portRESET_READY_PRIORITY( uxPriority, uxTopReadyPriority )
 198:Generated_Source\PSoC6\pdl\rtos\FreeRTOS\9.0.0\Source/tasks.c **** 
 199:Generated_Source\PSoC6\pdl\rtos\FreeRTOS\9.0.0\Source/tasks.c **** #else /* configUSE_PORT_OPTIMISED_TASK_SELECTION */
 200:Generated_Source\PSoC6\pdl\rtos\FreeRTOS\9.0.0\Source/tasks.c **** 
 201:Generated_Source\PSoC6\pdl\rtos\FreeRTOS\9.0.0\Source/tasks.c **** 	/* If configUSE_PORT_OPTIMISED_TASK_SELECTION is 1 then task selection is
 202:Generated_Source\PSoC6\pdl\rtos\FreeRTOS\9.0.0\Source/tasks.c **** 	performed in a way that is tailored to the particular microcontroller
 203:Generated_Source\PSoC6\pdl\rtos\FreeRTOS\9.0.0\Source/tasks.c **** 	architecture being used. */
 204:Generated_Source\PSoC6\pdl\rtos\FreeRTOS\9.0.0\Source/tasks.c **** 
 205:Generated_Source\PSoC6\pdl\rtos\FreeRTOS\9.0.0\Source/tasks.c **** 	/* A port optimised version is provided.  Call the port defined macros. */
 206:Generated_Source\PSoC6\pdl\rtos\FreeRTOS\9.0.0\Source/tasks.c **** 	#define taskRECORD_READY_PRIORITY( uxPriority )	portRECORD_READY_PRIORITY( uxPriority, uxTopReadyP
 207:Generated_Source\PSoC6\pdl\rtos\FreeRTOS\9.0.0\Source/tasks.c **** 
 208:Generated_Source\PSoC6\pdl\rtos\FreeRTOS\9.0.0\Source/tasks.c **** 	/*-----------------------------------------------------------*/
 209:Generated_Source\PSoC6\pdl\rtos\FreeRTOS\9.0.0\Source/tasks.c **** 
 210:Generated_Source\PSoC6\pdl\rtos\FreeRTOS\9.0.0\Source/tasks.c **** 	#define taskSELECT_HIGHEST_PRIORITY_TASK()														\
 211:Generated_Source\PSoC6\pdl\rtos\FreeRTOS\9.0.0\Source/tasks.c **** 	{																								\
 212:Generated_Source\PSoC6\pdl\rtos\FreeRTOS\9.0.0\Source/tasks.c **** 	UBaseType_t uxTopPriority;																		\
 213:Generated_Source\PSoC6\pdl\rtos\FreeRTOS\9.0.0\Source/tasks.c **** 																									\
 214:Generated_Source\PSoC6\pdl\rtos\FreeRTOS\9.0.0\Source/tasks.c **** 		/* Find the highest priority list that contains ready tasks. */								\
 215:Generated_Source\PSoC6\pdl\rtos\FreeRTOS\9.0.0\Source/tasks.c **** 		portGET_HIGHEST_PRIORITY( uxTopPriority, uxTopReadyPriority );								\
 216:Generated_Source\PSoC6\pdl\rtos\FreeRTOS\9.0.0\Source/tasks.c **** 		configASSERT( listCURRENT_LIST_LENGTH( &( pxReadyTasksLists[ uxTopPriority ] ) ) > 0 );		\
 217:Generated_Source\PSoC6\pdl\rtos\FreeRTOS\9.0.0\Source/tasks.c **** 		listGET_OWNER_OF_NEXT_ENTRY( pxCurrentTCB, &( pxReadyTasksLists[ uxTopPriority ] ) );		\
 218:Generated_Source\PSoC6\pdl\rtos\FreeRTOS\9.0.0\Source/tasks.c **** 	} /* taskSELECT_HIGHEST_PRIORITY_TASK() */
 219:Generated_Source\PSoC6\pdl\rtos\FreeRTOS\9.0.0\Source/tasks.c **** 
 220:Generated_Source\PSoC6\pdl\rtos\FreeRTOS\9.0.0\Source/tasks.c **** 	/*-----------------------------------------------------------*/
 221:Generated_Source\PSoC6\pdl\rtos\FreeRTOS\9.0.0\Source/tasks.c **** 
 222:Generated_Source\PSoC6\pdl\rtos\FreeRTOS\9.0.0\Source/tasks.c **** 	/* A port optimised version is provided, call it only if the TCB being reset
 223:Generated_Source\PSoC6\pdl\rtos\FreeRTOS\9.0.0\Source/tasks.c **** 	is being referenced from a ready list.  If it is referenced from a delayed
ARM GAS  C:\Users\ikomb\AppData\Local\Temp\ccNQc6m6.s 			page 7


 224:Generated_Source\PSoC6\pdl\rtos\FreeRTOS\9.0.0\Source/tasks.c **** 	or suspended list then it won't be in a ready list. */
 225:Generated_Source\PSoC6\pdl\rtos\FreeRTOS\9.0.0\Source/tasks.c **** 	#define taskRESET_READY_PRIORITY( uxPriority )														\
 226:Generated_Source\PSoC6\pdl\rtos\FreeRTOS\9.0.0\Source/tasks.c **** 	{																									\
 227:Generated_Source\PSoC6\pdl\rtos\FreeRTOS\9.0.0\Source/tasks.c **** 		if( listCURRENT_LIST_LENGTH( &( pxReadyTasksLists[ ( uxPriority ) ] ) ) == ( UBaseType_t ) 0 )	\
 228:Generated_Source\PSoC6\pdl\rtos\FreeRTOS\9.0.0\Source/tasks.c **** 		{																								\
 229:Generated_Source\PSoC6\pdl\rtos\FreeRTOS\9.0.0\Source/tasks.c **** 			portRESET_READY_PRIORITY( ( uxPriority ), ( uxTopReadyPriority ) );							\
 230:Generated_Source\PSoC6\pdl\rtos\FreeRTOS\9.0.0\Source/tasks.c **** 		}																								\
 231:Generated_Source\PSoC6\pdl\rtos\FreeRTOS\9.0.0\Source/tasks.c **** 	}
 232:Generated_Source\PSoC6\pdl\rtos\FreeRTOS\9.0.0\Source/tasks.c **** 
 233:Generated_Source\PSoC6\pdl\rtos\FreeRTOS\9.0.0\Source/tasks.c **** #endif /* configUSE_PORT_OPTIMISED_TASK_SELECTION */
 234:Generated_Source\PSoC6\pdl\rtos\FreeRTOS\9.0.0\Source/tasks.c **** 
 235:Generated_Source\PSoC6\pdl\rtos\FreeRTOS\9.0.0\Source/tasks.c **** /*-----------------------------------------------------------*/
 236:Generated_Source\PSoC6\pdl\rtos\FreeRTOS\9.0.0\Source/tasks.c **** 
 237:Generated_Source\PSoC6\pdl\rtos\FreeRTOS\9.0.0\Source/tasks.c **** /* pxDelayedTaskList and pxOverflowDelayedTaskList are switched when the tick
 238:Generated_Source\PSoC6\pdl\rtos\FreeRTOS\9.0.0\Source/tasks.c **** count overflows. */
 239:Generated_Source\PSoC6\pdl\rtos\FreeRTOS\9.0.0\Source/tasks.c **** #define taskSWITCH_DELAYED_LISTS()																	\
 240:Generated_Source\PSoC6\pdl\rtos\FreeRTOS\9.0.0\Source/tasks.c **** {																									\
 241:Generated_Source\PSoC6\pdl\rtos\FreeRTOS\9.0.0\Source/tasks.c **** 	List_t *pxTemp;																					\
 242:Generated_Source\PSoC6\pdl\rtos\FreeRTOS\9.0.0\Source/tasks.c **** 																									\
 243:Generated_Source\PSoC6\pdl\rtos\FreeRTOS\9.0.0\Source/tasks.c **** 	/* The delayed tasks list should be empty when the lists are switched. */						\
 244:Generated_Source\PSoC6\pdl\rtos\FreeRTOS\9.0.0\Source/tasks.c **** 	configASSERT( ( listLIST_IS_EMPTY( pxDelayedTaskList ) ) );										\
 245:Generated_Source\PSoC6\pdl\rtos\FreeRTOS\9.0.0\Source/tasks.c **** 																									\
 246:Generated_Source\PSoC6\pdl\rtos\FreeRTOS\9.0.0\Source/tasks.c **** 	pxTemp = pxDelayedTaskList;																		\
 247:Generated_Source\PSoC6\pdl\rtos\FreeRTOS\9.0.0\Source/tasks.c **** 	pxDelayedTaskList = pxOverflowDelayedTaskList;													\
 248:Generated_Source\PSoC6\pdl\rtos\FreeRTOS\9.0.0\Source/tasks.c **** 	pxOverflowDelayedTaskList = pxTemp;																\
 249:Generated_Source\PSoC6\pdl\rtos\FreeRTOS\9.0.0\Source/tasks.c **** 	xNumOfOverflows++;																				\
 250:Generated_Source\PSoC6\pdl\rtos\FreeRTOS\9.0.0\Source/tasks.c **** 	prvResetNextTaskUnblockTime();																	\
 251:Generated_Source\PSoC6\pdl\rtos\FreeRTOS\9.0.0\Source/tasks.c **** }
 252:Generated_Source\PSoC6\pdl\rtos\FreeRTOS\9.0.0\Source/tasks.c **** 
 253:Generated_Source\PSoC6\pdl\rtos\FreeRTOS\9.0.0\Source/tasks.c **** /*-----------------------------------------------------------*/
 254:Generated_Source\PSoC6\pdl\rtos\FreeRTOS\9.0.0\Source/tasks.c **** 
 255:Generated_Source\PSoC6\pdl\rtos\FreeRTOS\9.0.0\Source/tasks.c **** /*
 256:Generated_Source\PSoC6\pdl\rtos\FreeRTOS\9.0.0\Source/tasks.c ****  * Place the task represented by pxTCB into the appropriate ready list for
 257:Generated_Source\PSoC6\pdl\rtos\FreeRTOS\9.0.0\Source/tasks.c ****  * the task.  It is inserted at the end of the list.
 258:Generated_Source\PSoC6\pdl\rtos\FreeRTOS\9.0.0\Source/tasks.c ****  */
 259:Generated_Source\PSoC6\pdl\rtos\FreeRTOS\9.0.0\Source/tasks.c **** #define prvAddTaskToReadyList( pxTCB )																\
 260:Generated_Source\PSoC6\pdl\rtos\FreeRTOS\9.0.0\Source/tasks.c **** 	traceMOVED_TASK_TO_READY_STATE( pxTCB );														\
 261:Generated_Source\PSoC6\pdl\rtos\FreeRTOS\9.0.0\Source/tasks.c **** 	taskRECORD_READY_PRIORITY( ( pxTCB )->uxPriority );												\
 262:Generated_Source\PSoC6\pdl\rtos\FreeRTOS\9.0.0\Source/tasks.c **** 	vListInsertEnd( &( pxReadyTasksLists[ ( pxTCB )->uxPriority ] ), &( ( pxTCB )->xStateListItem ) );
 263:Generated_Source\PSoC6\pdl\rtos\FreeRTOS\9.0.0\Source/tasks.c **** 	tracePOST_MOVED_TASK_TO_READY_STATE( pxTCB )
 264:Generated_Source\PSoC6\pdl\rtos\FreeRTOS\9.0.0\Source/tasks.c **** /*-----------------------------------------------------------*/
 265:Generated_Source\PSoC6\pdl\rtos\FreeRTOS\9.0.0\Source/tasks.c **** 
 266:Generated_Source\PSoC6\pdl\rtos\FreeRTOS\9.0.0\Source/tasks.c **** /*
 267:Generated_Source\PSoC6\pdl\rtos\FreeRTOS\9.0.0\Source/tasks.c ****  * Several functions take an TaskHandle_t parameter that can optionally be NULL,
 268:Generated_Source\PSoC6\pdl\rtos\FreeRTOS\9.0.0\Source/tasks.c ****  * where NULL is used to indicate that the handle of the currently executing
 269:Generated_Source\PSoC6\pdl\rtos\FreeRTOS\9.0.0\Source/tasks.c ****  * task should be used in place of the parameter.  This macro simply checks to
 270:Generated_Source\PSoC6\pdl\rtos\FreeRTOS\9.0.0\Source/tasks.c ****  * see if the parameter is NULL and returns a pointer to the appropriate TCB.
 271:Generated_Source\PSoC6\pdl\rtos\FreeRTOS\9.0.0\Source/tasks.c ****  */
 272:Generated_Source\PSoC6\pdl\rtos\FreeRTOS\9.0.0\Source/tasks.c **** #define prvGetTCBFromHandle( pxHandle ) ( ( ( pxHandle ) == NULL ) ? ( TCB_t * ) pxCurrentTCB : ( T
 273:Generated_Source\PSoC6\pdl\rtos\FreeRTOS\9.0.0\Source/tasks.c **** 
 274:Generated_Source\PSoC6\pdl\rtos\FreeRTOS\9.0.0\Source/tasks.c **** /* The item value of the event list item is normally used to hold the priority
 275:Generated_Source\PSoC6\pdl\rtos\FreeRTOS\9.0.0\Source/tasks.c **** of the task to which it belongs (coded to allow it to be held in reverse
 276:Generated_Source\PSoC6\pdl\rtos\FreeRTOS\9.0.0\Source/tasks.c **** priority order).  However, it is occasionally borrowed for other purposes.  It
 277:Generated_Source\PSoC6\pdl\rtos\FreeRTOS\9.0.0\Source/tasks.c **** is important its value is not updated due to a task priority change while it is
 278:Generated_Source\PSoC6\pdl\rtos\FreeRTOS\9.0.0\Source/tasks.c **** being used for another purpose.  The following bit definition is used to inform
 279:Generated_Source\PSoC6\pdl\rtos\FreeRTOS\9.0.0\Source/tasks.c **** the scheduler that the value should not be changed - in which case it is the
 280:Generated_Source\PSoC6\pdl\rtos\FreeRTOS\9.0.0\Source/tasks.c **** responsibility of whichever module is using the value to ensure it gets set back
ARM GAS  C:\Users\ikomb\AppData\Local\Temp\ccNQc6m6.s 			page 8


 281:Generated_Source\PSoC6\pdl\rtos\FreeRTOS\9.0.0\Source/tasks.c **** to its original value when it is released. */
 282:Generated_Source\PSoC6\pdl\rtos\FreeRTOS\9.0.0\Source/tasks.c **** #if( configUSE_16_BIT_TICKS == 1 )
 283:Generated_Source\PSoC6\pdl\rtos\FreeRTOS\9.0.0\Source/tasks.c **** 	#define taskEVENT_LIST_ITEM_VALUE_IN_USE	0x8000U
 284:Generated_Source\PSoC6\pdl\rtos\FreeRTOS\9.0.0\Source/tasks.c **** #else
 285:Generated_Source\PSoC6\pdl\rtos\FreeRTOS\9.0.0\Source/tasks.c **** 	#define taskEVENT_LIST_ITEM_VALUE_IN_USE	0x80000000UL
 286:Generated_Source\PSoC6\pdl\rtos\FreeRTOS\9.0.0\Source/tasks.c **** #endif
 287:Generated_Source\PSoC6\pdl\rtos\FreeRTOS\9.0.0\Source/tasks.c **** 
 288:Generated_Source\PSoC6\pdl\rtos\FreeRTOS\9.0.0\Source/tasks.c **** /*
 289:Generated_Source\PSoC6\pdl\rtos\FreeRTOS\9.0.0\Source/tasks.c ****  * Task control block.  A task control block (TCB) is allocated for each task,
 290:Generated_Source\PSoC6\pdl\rtos\FreeRTOS\9.0.0\Source/tasks.c ****  * and stores task state information, including a pointer to the task's context
 291:Generated_Source\PSoC6\pdl\rtos\FreeRTOS\9.0.0\Source/tasks.c ****  * (the task's run time environment, including register values)
 292:Generated_Source\PSoC6\pdl\rtos\FreeRTOS\9.0.0\Source/tasks.c ****  */
 293:Generated_Source\PSoC6\pdl\rtos\FreeRTOS\9.0.0\Source/tasks.c **** typedef struct tskTaskControlBlock
 294:Generated_Source\PSoC6\pdl\rtos\FreeRTOS\9.0.0\Source/tasks.c **** {
 295:Generated_Source\PSoC6\pdl\rtos\FreeRTOS\9.0.0\Source/tasks.c **** 	volatile StackType_t	*pxTopOfStack;	/*< Points to the location of the last item placed on the task
 296:Generated_Source\PSoC6\pdl\rtos\FreeRTOS\9.0.0\Source/tasks.c **** 
 297:Generated_Source\PSoC6\pdl\rtos\FreeRTOS\9.0.0\Source/tasks.c **** 	#if ( portUSING_MPU_WRAPPERS == 1 )
 298:Generated_Source\PSoC6\pdl\rtos\FreeRTOS\9.0.0\Source/tasks.c **** 		xMPU_SETTINGS	xMPUSettings;		/*< The MPU settings are defined as part of the port layer.  THIS MU
 299:Generated_Source\PSoC6\pdl\rtos\FreeRTOS\9.0.0\Source/tasks.c **** 	#endif
 300:Generated_Source\PSoC6\pdl\rtos\FreeRTOS\9.0.0\Source/tasks.c **** 
 301:Generated_Source\PSoC6\pdl\rtos\FreeRTOS\9.0.0\Source/tasks.c **** 	ListItem_t			xStateListItem;	/*< The list that the state list item of a task is reference from den
 302:Generated_Source\PSoC6\pdl\rtos\FreeRTOS\9.0.0\Source/tasks.c **** 	ListItem_t			xEventListItem;		/*< Used to reference a task from an event list. */
 303:Generated_Source\PSoC6\pdl\rtos\FreeRTOS\9.0.0\Source/tasks.c **** 	UBaseType_t			uxPriority;			/*< The priority of the task.  0 is the lowest priority. */
 304:Generated_Source\PSoC6\pdl\rtos\FreeRTOS\9.0.0\Source/tasks.c **** 	StackType_t			*pxStack;			/*< Points to the start of the stack. */
 305:Generated_Source\PSoC6\pdl\rtos\FreeRTOS\9.0.0\Source/tasks.c **** 	char				pcTaskName[ configMAX_TASK_NAME_LEN ];/*< Descriptive name given to the task when created.
 306:Generated_Source\PSoC6\pdl\rtos\FreeRTOS\9.0.0\Source/tasks.c **** 
 307:Generated_Source\PSoC6\pdl\rtos\FreeRTOS\9.0.0\Source/tasks.c **** 	#if ( portSTACK_GROWTH > 0 )
 308:Generated_Source\PSoC6\pdl\rtos\FreeRTOS\9.0.0\Source/tasks.c **** 		StackType_t		*pxEndOfStack;		/*< Points to the end of the stack on architectures where the stack 
 309:Generated_Source\PSoC6\pdl\rtos\FreeRTOS\9.0.0\Source/tasks.c **** 	#endif
 310:Generated_Source\PSoC6\pdl\rtos\FreeRTOS\9.0.0\Source/tasks.c **** 
 311:Generated_Source\PSoC6\pdl\rtos\FreeRTOS\9.0.0\Source/tasks.c **** 	#if ( portCRITICAL_NESTING_IN_TCB == 1 )
 312:Generated_Source\PSoC6\pdl\rtos\FreeRTOS\9.0.0\Source/tasks.c **** 		UBaseType_t		uxCriticalNesting;	/*< Holds the critical section nesting depth for ports that do no
 313:Generated_Source\PSoC6\pdl\rtos\FreeRTOS\9.0.0\Source/tasks.c **** 	#endif
 314:Generated_Source\PSoC6\pdl\rtos\FreeRTOS\9.0.0\Source/tasks.c **** 
 315:Generated_Source\PSoC6\pdl\rtos\FreeRTOS\9.0.0\Source/tasks.c **** 	#if ( configUSE_TRACE_FACILITY == 1 )
 316:Generated_Source\PSoC6\pdl\rtos\FreeRTOS\9.0.0\Source/tasks.c **** 		UBaseType_t		uxTCBNumber;		/*< Stores a number that increments each time a TCB is created.  It al
 317:Generated_Source\PSoC6\pdl\rtos\FreeRTOS\9.0.0\Source/tasks.c **** 		UBaseType_t		uxTaskNumber;		/*< Stores a number specifically for use by third party trace code. *
 318:Generated_Source\PSoC6\pdl\rtos\FreeRTOS\9.0.0\Source/tasks.c **** 	#endif
 319:Generated_Source\PSoC6\pdl\rtos\FreeRTOS\9.0.0\Source/tasks.c **** 
 320:Generated_Source\PSoC6\pdl\rtos\FreeRTOS\9.0.0\Source/tasks.c **** 	#if ( configUSE_MUTEXES == 1 )
 321:Generated_Source\PSoC6\pdl\rtos\FreeRTOS\9.0.0\Source/tasks.c **** 		UBaseType_t		uxBasePriority;		/*< The priority last assigned to the task - used by the priority i
 322:Generated_Source\PSoC6\pdl\rtos\FreeRTOS\9.0.0\Source/tasks.c **** 		UBaseType_t		uxMutexesHeld;
 323:Generated_Source\PSoC6\pdl\rtos\FreeRTOS\9.0.0\Source/tasks.c **** 	#endif
 324:Generated_Source\PSoC6\pdl\rtos\FreeRTOS\9.0.0\Source/tasks.c **** 
 325:Generated_Source\PSoC6\pdl\rtos\FreeRTOS\9.0.0\Source/tasks.c **** 	#if ( configUSE_APPLICATION_TASK_TAG == 1 )
 326:Generated_Source\PSoC6\pdl\rtos\FreeRTOS\9.0.0\Source/tasks.c **** 		TaskHookFunction_t pxTaskTag;
 327:Generated_Source\PSoC6\pdl\rtos\FreeRTOS\9.0.0\Source/tasks.c **** 	#endif
 328:Generated_Source\PSoC6\pdl\rtos\FreeRTOS\9.0.0\Source/tasks.c **** 
 329:Generated_Source\PSoC6\pdl\rtos\FreeRTOS\9.0.0\Source/tasks.c **** 	#if( configNUM_THREAD_LOCAL_STORAGE_POINTERS > 0 )
 330:Generated_Source\PSoC6\pdl\rtos\FreeRTOS\9.0.0\Source/tasks.c **** 		void *pvThreadLocalStoragePointers[ configNUM_THREAD_LOCAL_STORAGE_POINTERS ];
 331:Generated_Source\PSoC6\pdl\rtos\FreeRTOS\9.0.0\Source/tasks.c **** 	#endif
 332:Generated_Source\PSoC6\pdl\rtos\FreeRTOS\9.0.0\Source/tasks.c **** 
 333:Generated_Source\PSoC6\pdl\rtos\FreeRTOS\9.0.0\Source/tasks.c **** 	#if( configGENERATE_RUN_TIME_STATS == 1 )
 334:Generated_Source\PSoC6\pdl\rtos\FreeRTOS\9.0.0\Source/tasks.c **** 		uint32_t		ulRunTimeCounter;	/*< Stores the amount of time the task has spent in the Running state
 335:Generated_Source\PSoC6\pdl\rtos\FreeRTOS\9.0.0\Source/tasks.c **** 	#endif
 336:Generated_Source\PSoC6\pdl\rtos\FreeRTOS\9.0.0\Source/tasks.c **** 
 337:Generated_Source\PSoC6\pdl\rtos\FreeRTOS\9.0.0\Source/tasks.c **** 	#if ( configUSE_NEWLIB_REENTRANT == 1 )
ARM GAS  C:\Users\ikomb\AppData\Local\Temp\ccNQc6m6.s 			page 9


 338:Generated_Source\PSoC6\pdl\rtos\FreeRTOS\9.0.0\Source/tasks.c **** 		/* Allocate a Newlib reent structure that is specific to this task.
 339:Generated_Source\PSoC6\pdl\rtos\FreeRTOS\9.0.0\Source/tasks.c **** 		Note Newlib support has been included by popular demand, but is not
 340:Generated_Source\PSoC6\pdl\rtos\FreeRTOS\9.0.0\Source/tasks.c **** 		used by the FreeRTOS maintainers themselves.  FreeRTOS is not
 341:Generated_Source\PSoC6\pdl\rtos\FreeRTOS\9.0.0\Source/tasks.c **** 		responsible for resulting newlib operation.  User must be familiar with
 342:Generated_Source\PSoC6\pdl\rtos\FreeRTOS\9.0.0\Source/tasks.c **** 		newlib and must provide system-wide implementations of the necessary
 343:Generated_Source\PSoC6\pdl\rtos\FreeRTOS\9.0.0\Source/tasks.c **** 		stubs. Be warned that (at the time of writing) the current newlib design
 344:Generated_Source\PSoC6\pdl\rtos\FreeRTOS\9.0.0\Source/tasks.c **** 		implements a system-wide malloc() that must be provided with locks. */
 345:Generated_Source\PSoC6\pdl\rtos\FreeRTOS\9.0.0\Source/tasks.c **** 		struct	_reent xNewLib_reent;
 346:Generated_Source\PSoC6\pdl\rtos\FreeRTOS\9.0.0\Source/tasks.c **** 	#endif
 347:Generated_Source\PSoC6\pdl\rtos\FreeRTOS\9.0.0\Source/tasks.c **** 
 348:Generated_Source\PSoC6\pdl\rtos\FreeRTOS\9.0.0\Source/tasks.c **** 	#if( configUSE_TASK_NOTIFICATIONS == 1 )
 349:Generated_Source\PSoC6\pdl\rtos\FreeRTOS\9.0.0\Source/tasks.c **** 		volatile uint32_t ulNotifiedValue;
 350:Generated_Source\PSoC6\pdl\rtos\FreeRTOS\9.0.0\Source/tasks.c **** 		volatile uint8_t ucNotifyState;
 351:Generated_Source\PSoC6\pdl\rtos\FreeRTOS\9.0.0\Source/tasks.c **** 	#endif
 352:Generated_Source\PSoC6\pdl\rtos\FreeRTOS\9.0.0\Source/tasks.c **** 
 353:Generated_Source\PSoC6\pdl\rtos\FreeRTOS\9.0.0\Source/tasks.c **** 	/* See the comments above the definition of
 354:Generated_Source\PSoC6\pdl\rtos\FreeRTOS\9.0.0\Source/tasks.c **** 	tskSTATIC_AND_DYNAMIC_ALLOCATION_POSSIBLE. */
 355:Generated_Source\PSoC6\pdl\rtos\FreeRTOS\9.0.0\Source/tasks.c **** 	#if( tskSTATIC_AND_DYNAMIC_ALLOCATION_POSSIBLE != 0 )
 356:Generated_Source\PSoC6\pdl\rtos\FreeRTOS\9.0.0\Source/tasks.c **** 		uint8_t	ucStaticallyAllocated; 		/*< Set to pdTRUE if the task is a statically allocated to ensur
 357:Generated_Source\PSoC6\pdl\rtos\FreeRTOS\9.0.0\Source/tasks.c **** 	#endif
 358:Generated_Source\PSoC6\pdl\rtos\FreeRTOS\9.0.0\Source/tasks.c **** 
 359:Generated_Source\PSoC6\pdl\rtos\FreeRTOS\9.0.0\Source/tasks.c **** 	#if( INCLUDE_xTaskAbortDelay == 1 )
 360:Generated_Source\PSoC6\pdl\rtos\FreeRTOS\9.0.0\Source/tasks.c **** 		uint8_t ucDelayAborted;
 361:Generated_Source\PSoC6\pdl\rtos\FreeRTOS\9.0.0\Source/tasks.c **** 	#endif
 362:Generated_Source\PSoC6\pdl\rtos\FreeRTOS\9.0.0\Source/tasks.c **** 
 363:Generated_Source\PSoC6\pdl\rtos\FreeRTOS\9.0.0\Source/tasks.c **** } tskTCB;
 364:Generated_Source\PSoC6\pdl\rtos\FreeRTOS\9.0.0\Source/tasks.c **** 
 365:Generated_Source\PSoC6\pdl\rtos\FreeRTOS\9.0.0\Source/tasks.c **** /* The old tskTCB name is maintained above then typedefed to the new TCB_t name
 366:Generated_Source\PSoC6\pdl\rtos\FreeRTOS\9.0.0\Source/tasks.c **** below to enable the use of older kernel aware debuggers. */
 367:Generated_Source\PSoC6\pdl\rtos\FreeRTOS\9.0.0\Source/tasks.c **** typedef tskTCB TCB_t;
 368:Generated_Source\PSoC6\pdl\rtos\FreeRTOS\9.0.0\Source/tasks.c **** 
 369:Generated_Source\PSoC6\pdl\rtos\FreeRTOS\9.0.0\Source/tasks.c **** /*lint -e956 A manual analysis and inspection has been used to determine which
 370:Generated_Source\PSoC6\pdl\rtos\FreeRTOS\9.0.0\Source/tasks.c **** static variables must be declared volatile. */
 371:Generated_Source\PSoC6\pdl\rtos\FreeRTOS\9.0.0\Source/tasks.c **** 
 372:Generated_Source\PSoC6\pdl\rtos\FreeRTOS\9.0.0\Source/tasks.c **** PRIVILEGED_DATA TCB_t * volatile pxCurrentTCB = NULL;
 373:Generated_Source\PSoC6\pdl\rtos\FreeRTOS\9.0.0\Source/tasks.c **** 
 374:Generated_Source\PSoC6\pdl\rtos\FreeRTOS\9.0.0\Source/tasks.c **** /* Lists for ready and blocked tasks. --------------------*/
 375:Generated_Source\PSoC6\pdl\rtos\FreeRTOS\9.0.0\Source/tasks.c **** PRIVILEGED_DATA static List_t pxReadyTasksLists[ configMAX_PRIORITIES ];/*< Prioritised ready tasks
 376:Generated_Source\PSoC6\pdl\rtos\FreeRTOS\9.0.0\Source/tasks.c **** PRIVILEGED_DATA static List_t xDelayedTaskList1;						/*< Delayed tasks. */
 377:Generated_Source\PSoC6\pdl\rtos\FreeRTOS\9.0.0\Source/tasks.c **** PRIVILEGED_DATA static List_t xDelayedTaskList2;						/*< Delayed tasks (two lists are used - one f
 378:Generated_Source\PSoC6\pdl\rtos\FreeRTOS\9.0.0\Source/tasks.c **** PRIVILEGED_DATA static List_t * volatile pxDelayedTaskList;				/*< Points to the delayed task list 
 379:Generated_Source\PSoC6\pdl\rtos\FreeRTOS\9.0.0\Source/tasks.c **** PRIVILEGED_DATA static List_t * volatile pxOverflowDelayedTaskList;		/*< Points to the delayed task
 380:Generated_Source\PSoC6\pdl\rtos\FreeRTOS\9.0.0\Source/tasks.c **** PRIVILEGED_DATA static List_t xPendingReadyList;						/*< Tasks that have been readied while the sc
 381:Generated_Source\PSoC6\pdl\rtos\FreeRTOS\9.0.0\Source/tasks.c **** 
 382:Generated_Source\PSoC6\pdl\rtos\FreeRTOS\9.0.0\Source/tasks.c **** #if( INCLUDE_vTaskDelete == 1 )
 383:Generated_Source\PSoC6\pdl\rtos\FreeRTOS\9.0.0\Source/tasks.c **** 
 384:Generated_Source\PSoC6\pdl\rtos\FreeRTOS\9.0.0\Source/tasks.c **** 	PRIVILEGED_DATA static List_t xTasksWaitingTermination;				/*< Tasks that have been deleted - but 
 385:Generated_Source\PSoC6\pdl\rtos\FreeRTOS\9.0.0\Source/tasks.c **** 	PRIVILEGED_DATA static volatile UBaseType_t uxDeletedTasksWaitingCleanUp = ( UBaseType_t ) 0U;
 386:Generated_Source\PSoC6\pdl\rtos\FreeRTOS\9.0.0\Source/tasks.c **** 
 387:Generated_Source\PSoC6\pdl\rtos\FreeRTOS\9.0.0\Source/tasks.c **** #endif
 388:Generated_Source\PSoC6\pdl\rtos\FreeRTOS\9.0.0\Source/tasks.c **** 
 389:Generated_Source\PSoC6\pdl\rtos\FreeRTOS\9.0.0\Source/tasks.c **** #if ( INCLUDE_vTaskSuspend == 1 )
 390:Generated_Source\PSoC6\pdl\rtos\FreeRTOS\9.0.0\Source/tasks.c **** 
 391:Generated_Source\PSoC6\pdl\rtos\FreeRTOS\9.0.0\Source/tasks.c **** 	PRIVILEGED_DATA static List_t xSuspendedTaskList;					/*< Tasks that are currently suspended. */
 392:Generated_Source\PSoC6\pdl\rtos\FreeRTOS\9.0.0\Source/tasks.c **** 
 393:Generated_Source\PSoC6\pdl\rtos\FreeRTOS\9.0.0\Source/tasks.c **** #endif
 394:Generated_Source\PSoC6\pdl\rtos\FreeRTOS\9.0.0\Source/tasks.c **** 
ARM GAS  C:\Users\ikomb\AppData\Local\Temp\ccNQc6m6.s 			page 10


 395:Generated_Source\PSoC6\pdl\rtos\FreeRTOS\9.0.0\Source/tasks.c **** /* Other file private variables. --------------------------------*/
 396:Generated_Source\PSoC6\pdl\rtos\FreeRTOS\9.0.0\Source/tasks.c **** PRIVILEGED_DATA static volatile UBaseType_t uxCurrentNumberOfTasks 	= ( UBaseType_t ) 0U;
 397:Generated_Source\PSoC6\pdl\rtos\FreeRTOS\9.0.0\Source/tasks.c **** PRIVILEGED_DATA static volatile TickType_t xTickCount 				= ( TickType_t ) 0U;
 398:Generated_Source\PSoC6\pdl\rtos\FreeRTOS\9.0.0\Source/tasks.c **** PRIVILEGED_DATA static volatile UBaseType_t uxTopReadyPriority 		= tskIDLE_PRIORITY;
 399:Generated_Source\PSoC6\pdl\rtos\FreeRTOS\9.0.0\Source/tasks.c **** PRIVILEGED_DATA static volatile BaseType_t xSchedulerRunning 		= pdFALSE;
 400:Generated_Source\PSoC6\pdl\rtos\FreeRTOS\9.0.0\Source/tasks.c **** PRIVILEGED_DATA static volatile UBaseType_t uxPendedTicks 			= ( UBaseType_t ) 0U;
 401:Generated_Source\PSoC6\pdl\rtos\FreeRTOS\9.0.0\Source/tasks.c **** PRIVILEGED_DATA static volatile BaseType_t xYieldPending 			= pdFALSE;
 402:Generated_Source\PSoC6\pdl\rtos\FreeRTOS\9.0.0\Source/tasks.c **** PRIVILEGED_DATA static volatile BaseType_t xNumOfOverflows 			= ( BaseType_t ) 0;
 403:Generated_Source\PSoC6\pdl\rtos\FreeRTOS\9.0.0\Source/tasks.c **** PRIVILEGED_DATA static UBaseType_t uxTaskNumber 					= ( UBaseType_t ) 0U;
 404:Generated_Source\PSoC6\pdl\rtos\FreeRTOS\9.0.0\Source/tasks.c **** PRIVILEGED_DATA static volatile TickType_t xNextTaskUnblockTime		= ( TickType_t ) 0U; /* Initialise
 405:Generated_Source\PSoC6\pdl\rtos\FreeRTOS\9.0.0\Source/tasks.c **** PRIVILEGED_DATA static TaskHandle_t xIdleTaskHandle					= NULL;			/*< Holds the handle of the idle 
 406:Generated_Source\PSoC6\pdl\rtos\FreeRTOS\9.0.0\Source/tasks.c **** 
 407:Generated_Source\PSoC6\pdl\rtos\FreeRTOS\9.0.0\Source/tasks.c **** /* Context switches are held pending while the scheduler is suspended.  Also,
 408:Generated_Source\PSoC6\pdl\rtos\FreeRTOS\9.0.0\Source/tasks.c **** interrupts must not manipulate the xStateListItem of a TCB, or any of the
 409:Generated_Source\PSoC6\pdl\rtos\FreeRTOS\9.0.0\Source/tasks.c **** lists the xStateListItem can be referenced from, if the scheduler is suspended.
 410:Generated_Source\PSoC6\pdl\rtos\FreeRTOS\9.0.0\Source/tasks.c **** If an interrupt needs to unblock a task while the scheduler is suspended then it
 411:Generated_Source\PSoC6\pdl\rtos\FreeRTOS\9.0.0\Source/tasks.c **** moves the task's event list item into the xPendingReadyList, ready for the
 412:Generated_Source\PSoC6\pdl\rtos\FreeRTOS\9.0.0\Source/tasks.c **** kernel to move the task from the pending ready list into the real ready list
 413:Generated_Source\PSoC6\pdl\rtos\FreeRTOS\9.0.0\Source/tasks.c **** when the scheduler is unsuspended.  The pending ready list itself can only be
 414:Generated_Source\PSoC6\pdl\rtos\FreeRTOS\9.0.0\Source/tasks.c **** accessed from a critical section. */
 415:Generated_Source\PSoC6\pdl\rtos\FreeRTOS\9.0.0\Source/tasks.c **** PRIVILEGED_DATA static volatile UBaseType_t uxSchedulerSuspended	= ( UBaseType_t ) pdFALSE;
 416:Generated_Source\PSoC6\pdl\rtos\FreeRTOS\9.0.0\Source/tasks.c **** 
 417:Generated_Source\PSoC6\pdl\rtos\FreeRTOS\9.0.0\Source/tasks.c **** #if ( configGENERATE_RUN_TIME_STATS == 1 )
 418:Generated_Source\PSoC6\pdl\rtos\FreeRTOS\9.0.0\Source/tasks.c **** 
 419:Generated_Source\PSoC6\pdl\rtos\FreeRTOS\9.0.0\Source/tasks.c **** 	PRIVILEGED_DATA static uint32_t ulTaskSwitchedInTime = 0UL;	/*< Holds the value of a timer/counter
 420:Generated_Source\PSoC6\pdl\rtos\FreeRTOS\9.0.0\Source/tasks.c **** 	PRIVILEGED_DATA static uint32_t ulTotalRunTime = 0UL;		/*< Holds the total amount of execution tim
 421:Generated_Source\PSoC6\pdl\rtos\FreeRTOS\9.0.0\Source/tasks.c **** 
 422:Generated_Source\PSoC6\pdl\rtos\FreeRTOS\9.0.0\Source/tasks.c **** #endif
 423:Generated_Source\PSoC6\pdl\rtos\FreeRTOS\9.0.0\Source/tasks.c **** 
 424:Generated_Source\PSoC6\pdl\rtos\FreeRTOS\9.0.0\Source/tasks.c **** /*lint +e956 */
 425:Generated_Source\PSoC6\pdl\rtos\FreeRTOS\9.0.0\Source/tasks.c **** 
 426:Generated_Source\PSoC6\pdl\rtos\FreeRTOS\9.0.0\Source/tasks.c **** /*-----------------------------------------------------------*/
 427:Generated_Source\PSoC6\pdl\rtos\FreeRTOS\9.0.0\Source/tasks.c **** 
 428:Generated_Source\PSoC6\pdl\rtos\FreeRTOS\9.0.0\Source/tasks.c **** /* Callback function prototypes. --------------------------*/
 429:Generated_Source\PSoC6\pdl\rtos\FreeRTOS\9.0.0\Source/tasks.c **** #if(  configCHECK_FOR_STACK_OVERFLOW > 0 )
 430:Generated_Source\PSoC6\pdl\rtos\FreeRTOS\9.0.0\Source/tasks.c **** 	extern void vApplicationStackOverflowHook( TaskHandle_t xTask, char *pcTaskName );
 431:Generated_Source\PSoC6\pdl\rtos\FreeRTOS\9.0.0\Source/tasks.c **** #endif
 432:Generated_Source\PSoC6\pdl\rtos\FreeRTOS\9.0.0\Source/tasks.c **** 
 433:Generated_Source\PSoC6\pdl\rtos\FreeRTOS\9.0.0\Source/tasks.c **** #if( configUSE_TICK_HOOK > 0 )
 434:Generated_Source\PSoC6\pdl\rtos\FreeRTOS\9.0.0\Source/tasks.c **** 	extern void vApplicationTickHook( void );
 435:Generated_Source\PSoC6\pdl\rtos\FreeRTOS\9.0.0\Source/tasks.c **** #endif
 436:Generated_Source\PSoC6\pdl\rtos\FreeRTOS\9.0.0\Source/tasks.c **** 
 437:Generated_Source\PSoC6\pdl\rtos\FreeRTOS\9.0.0\Source/tasks.c **** #if( configSUPPORT_STATIC_ALLOCATION == 1 )
 438:Generated_Source\PSoC6\pdl\rtos\FreeRTOS\9.0.0\Source/tasks.c **** 	extern void vApplicationGetIdleTaskMemory( StaticTask_t **ppxIdleTaskTCBBuffer, StackType_t **ppxI
 439:Generated_Source\PSoC6\pdl\rtos\FreeRTOS\9.0.0\Source/tasks.c **** #endif
 440:Generated_Source\PSoC6\pdl\rtos\FreeRTOS\9.0.0\Source/tasks.c **** 
 441:Generated_Source\PSoC6\pdl\rtos\FreeRTOS\9.0.0\Source/tasks.c **** /* File private functions. --------------------------------*/
 442:Generated_Source\PSoC6\pdl\rtos\FreeRTOS\9.0.0\Source/tasks.c **** 
 443:Generated_Source\PSoC6\pdl\rtos\FreeRTOS\9.0.0\Source/tasks.c **** /**
 444:Generated_Source\PSoC6\pdl\rtos\FreeRTOS\9.0.0\Source/tasks.c ****  * Utility task that simply returns pdTRUE if the task referenced by xTask is
 445:Generated_Source\PSoC6\pdl\rtos\FreeRTOS\9.0.0\Source/tasks.c ****  * currently in the Suspended state, or pdFALSE if the task referenced by xTask
 446:Generated_Source\PSoC6\pdl\rtos\FreeRTOS\9.0.0\Source/tasks.c ****  * is in any other state.
 447:Generated_Source\PSoC6\pdl\rtos\FreeRTOS\9.0.0\Source/tasks.c ****  */
 448:Generated_Source\PSoC6\pdl\rtos\FreeRTOS\9.0.0\Source/tasks.c **** #if ( INCLUDE_vTaskSuspend == 1 )
 449:Generated_Source\PSoC6\pdl\rtos\FreeRTOS\9.0.0\Source/tasks.c **** 	static BaseType_t prvTaskIsTaskSuspended( const TaskHandle_t xTask ) PRIVILEGED_FUNCTION;
 450:Generated_Source\PSoC6\pdl\rtos\FreeRTOS\9.0.0\Source/tasks.c **** #endif /* INCLUDE_vTaskSuspend */
 451:Generated_Source\PSoC6\pdl\rtos\FreeRTOS\9.0.0\Source/tasks.c **** 
ARM GAS  C:\Users\ikomb\AppData\Local\Temp\ccNQc6m6.s 			page 11


 452:Generated_Source\PSoC6\pdl\rtos\FreeRTOS\9.0.0\Source/tasks.c **** /*
 453:Generated_Source\PSoC6\pdl\rtos\FreeRTOS\9.0.0\Source/tasks.c ****  * Utility to ready all the lists used by the scheduler.  This is called
 454:Generated_Source\PSoC6\pdl\rtos\FreeRTOS\9.0.0\Source/tasks.c ****  * automatically upon the creation of the first task.
 455:Generated_Source\PSoC6\pdl\rtos\FreeRTOS\9.0.0\Source/tasks.c ****  */
 456:Generated_Source\PSoC6\pdl\rtos\FreeRTOS\9.0.0\Source/tasks.c **** static void prvInitialiseTaskLists( void ) PRIVILEGED_FUNCTION;
 457:Generated_Source\PSoC6\pdl\rtos\FreeRTOS\9.0.0\Source/tasks.c **** 
 458:Generated_Source\PSoC6\pdl\rtos\FreeRTOS\9.0.0\Source/tasks.c **** /*
 459:Generated_Source\PSoC6\pdl\rtos\FreeRTOS\9.0.0\Source/tasks.c ****  * The idle task, which as all tasks is implemented as a never ending loop.
 460:Generated_Source\PSoC6\pdl\rtos\FreeRTOS\9.0.0\Source/tasks.c ****  * The idle task is automatically created and added to the ready lists upon
 461:Generated_Source\PSoC6\pdl\rtos\FreeRTOS\9.0.0\Source/tasks.c ****  * creation of the first user task.
 462:Generated_Source\PSoC6\pdl\rtos\FreeRTOS\9.0.0\Source/tasks.c ****  *
 463:Generated_Source\PSoC6\pdl\rtos\FreeRTOS\9.0.0\Source/tasks.c ****  * The portTASK_FUNCTION_PROTO() macro is used to allow port/compiler specific
 464:Generated_Source\PSoC6\pdl\rtos\FreeRTOS\9.0.0\Source/tasks.c ****  * language extensions.  The equivalent prototype for this function is:
 465:Generated_Source\PSoC6\pdl\rtos\FreeRTOS\9.0.0\Source/tasks.c ****  *
 466:Generated_Source\PSoC6\pdl\rtos\FreeRTOS\9.0.0\Source/tasks.c ****  * void prvIdleTask( void *pvParameters );
 467:Generated_Source\PSoC6\pdl\rtos\FreeRTOS\9.0.0\Source/tasks.c ****  *
 468:Generated_Source\PSoC6\pdl\rtos\FreeRTOS\9.0.0\Source/tasks.c ****  */
 469:Generated_Source\PSoC6\pdl\rtos\FreeRTOS\9.0.0\Source/tasks.c **** static portTASK_FUNCTION_PROTO( prvIdleTask, pvParameters );
 470:Generated_Source\PSoC6\pdl\rtos\FreeRTOS\9.0.0\Source/tasks.c **** 
 471:Generated_Source\PSoC6\pdl\rtos\FreeRTOS\9.0.0\Source/tasks.c **** /*
 472:Generated_Source\PSoC6\pdl\rtos\FreeRTOS\9.0.0\Source/tasks.c ****  * Utility to free all memory allocated by the scheduler to hold a TCB,
 473:Generated_Source\PSoC6\pdl\rtos\FreeRTOS\9.0.0\Source/tasks.c ****  * including the stack pointed to by the TCB.
 474:Generated_Source\PSoC6\pdl\rtos\FreeRTOS\9.0.0\Source/tasks.c ****  *
 475:Generated_Source\PSoC6\pdl\rtos\FreeRTOS\9.0.0\Source/tasks.c ****  * This does not free memory allocated by the task itself (i.e. memory
 476:Generated_Source\PSoC6\pdl\rtos\FreeRTOS\9.0.0\Source/tasks.c ****  * allocated by calls to pvPortMalloc from within the tasks application code).
 477:Generated_Source\PSoC6\pdl\rtos\FreeRTOS\9.0.0\Source/tasks.c ****  */
 478:Generated_Source\PSoC6\pdl\rtos\FreeRTOS\9.0.0\Source/tasks.c **** #if ( INCLUDE_vTaskDelete == 1 )
 479:Generated_Source\PSoC6\pdl\rtos\FreeRTOS\9.0.0\Source/tasks.c **** 
 480:Generated_Source\PSoC6\pdl\rtos\FreeRTOS\9.0.0\Source/tasks.c **** 	static void prvDeleteTCB( TCB_t *pxTCB ) PRIVILEGED_FUNCTION;
 481:Generated_Source\PSoC6\pdl\rtos\FreeRTOS\9.0.0\Source/tasks.c **** 
 482:Generated_Source\PSoC6\pdl\rtos\FreeRTOS\9.0.0\Source/tasks.c **** #endif
 483:Generated_Source\PSoC6\pdl\rtos\FreeRTOS\9.0.0\Source/tasks.c **** 
 484:Generated_Source\PSoC6\pdl\rtos\FreeRTOS\9.0.0\Source/tasks.c **** /*
 485:Generated_Source\PSoC6\pdl\rtos\FreeRTOS\9.0.0\Source/tasks.c ****  * Used only by the idle task.  This checks to see if anything has been placed
 486:Generated_Source\PSoC6\pdl\rtos\FreeRTOS\9.0.0\Source/tasks.c ****  * in the list of tasks waiting to be deleted.  If so the task is cleaned up
 487:Generated_Source\PSoC6\pdl\rtos\FreeRTOS\9.0.0\Source/tasks.c ****  * and its TCB deleted.
 488:Generated_Source\PSoC6\pdl\rtos\FreeRTOS\9.0.0\Source/tasks.c ****  */
 489:Generated_Source\PSoC6\pdl\rtos\FreeRTOS\9.0.0\Source/tasks.c **** static void prvCheckTasksWaitingTermination( void ) PRIVILEGED_FUNCTION;
 490:Generated_Source\PSoC6\pdl\rtos\FreeRTOS\9.0.0\Source/tasks.c **** 
 491:Generated_Source\PSoC6\pdl\rtos\FreeRTOS\9.0.0\Source/tasks.c **** /*
 492:Generated_Source\PSoC6\pdl\rtos\FreeRTOS\9.0.0\Source/tasks.c ****  * The currently executing task is entering the Blocked state.  Add the task to
 493:Generated_Source\PSoC6\pdl\rtos\FreeRTOS\9.0.0\Source/tasks.c ****  * either the current or the overflow delayed task list.
 494:Generated_Source\PSoC6\pdl\rtos\FreeRTOS\9.0.0\Source/tasks.c ****  */
 495:Generated_Source\PSoC6\pdl\rtos\FreeRTOS\9.0.0\Source/tasks.c **** static void prvAddCurrentTaskToDelayedList( TickType_t xTicksToWait, const BaseType_t xCanBlockInde
 496:Generated_Source\PSoC6\pdl\rtos\FreeRTOS\9.0.0\Source/tasks.c **** 
 497:Generated_Source\PSoC6\pdl\rtos\FreeRTOS\9.0.0\Source/tasks.c **** /*
 498:Generated_Source\PSoC6\pdl\rtos\FreeRTOS\9.0.0\Source/tasks.c ****  * Fills an TaskStatus_t structure with information on each task that is
 499:Generated_Source\PSoC6\pdl\rtos\FreeRTOS\9.0.0\Source/tasks.c ****  * referenced from the pxList list (which may be a ready list, a delayed list,
 500:Generated_Source\PSoC6\pdl\rtos\FreeRTOS\9.0.0\Source/tasks.c ****  * a suspended list, etc.).
 501:Generated_Source\PSoC6\pdl\rtos\FreeRTOS\9.0.0\Source/tasks.c ****  *
 502:Generated_Source\PSoC6\pdl\rtos\FreeRTOS\9.0.0\Source/tasks.c ****  * THIS FUNCTION IS INTENDED FOR DEBUGGING ONLY, AND SHOULD NOT BE CALLED FROM
 503:Generated_Source\PSoC6\pdl\rtos\FreeRTOS\9.0.0\Source/tasks.c ****  * NORMAL APPLICATION CODE.
 504:Generated_Source\PSoC6\pdl\rtos\FreeRTOS\9.0.0\Source/tasks.c ****  */
 505:Generated_Source\PSoC6\pdl\rtos\FreeRTOS\9.0.0\Source/tasks.c **** #if ( configUSE_TRACE_FACILITY == 1 )
 506:Generated_Source\PSoC6\pdl\rtos\FreeRTOS\9.0.0\Source/tasks.c **** 
 507:Generated_Source\PSoC6\pdl\rtos\FreeRTOS\9.0.0\Source/tasks.c **** 	static UBaseType_t prvListTasksWithinSingleList( TaskStatus_t *pxTaskStatusArray, List_t *pxList, 
 508:Generated_Source\PSoC6\pdl\rtos\FreeRTOS\9.0.0\Source/tasks.c **** 
ARM GAS  C:\Users\ikomb\AppData\Local\Temp\ccNQc6m6.s 			page 12


 509:Generated_Source\PSoC6\pdl\rtos\FreeRTOS\9.0.0\Source/tasks.c **** #endif
 510:Generated_Source\PSoC6\pdl\rtos\FreeRTOS\9.0.0\Source/tasks.c **** 
 511:Generated_Source\PSoC6\pdl\rtos\FreeRTOS\9.0.0\Source/tasks.c **** /*
 512:Generated_Source\PSoC6\pdl\rtos\FreeRTOS\9.0.0\Source/tasks.c ****  * Searches pxList for a task with name pcNameToQuery - returning a handle to
 513:Generated_Source\PSoC6\pdl\rtos\FreeRTOS\9.0.0\Source/tasks.c ****  * the task if it is found, or NULL if the task is not found.
 514:Generated_Source\PSoC6\pdl\rtos\FreeRTOS\9.0.0\Source/tasks.c ****  */
 515:Generated_Source\PSoC6\pdl\rtos\FreeRTOS\9.0.0\Source/tasks.c **** #if ( INCLUDE_xTaskGetHandle == 1 )
 516:Generated_Source\PSoC6\pdl\rtos\FreeRTOS\9.0.0\Source/tasks.c **** 
 517:Generated_Source\PSoC6\pdl\rtos\FreeRTOS\9.0.0\Source/tasks.c **** 	static TCB_t *prvSearchForNameWithinSingleList( List_t *pxList, const char pcNameToQuery[] ) PRIVI
 518:Generated_Source\PSoC6\pdl\rtos\FreeRTOS\9.0.0\Source/tasks.c **** 
 519:Generated_Source\PSoC6\pdl\rtos\FreeRTOS\9.0.0\Source/tasks.c **** #endif
 520:Generated_Source\PSoC6\pdl\rtos\FreeRTOS\9.0.0\Source/tasks.c **** 
 521:Generated_Source\PSoC6\pdl\rtos\FreeRTOS\9.0.0\Source/tasks.c **** /*
 522:Generated_Source\PSoC6\pdl\rtos\FreeRTOS\9.0.0\Source/tasks.c ****  * When a task is created, the stack of the task is filled with a known value.
 523:Generated_Source\PSoC6\pdl\rtos\FreeRTOS\9.0.0\Source/tasks.c ****  * This function determines the 'high water mark' of the task stack by
 524:Generated_Source\PSoC6\pdl\rtos\FreeRTOS\9.0.0\Source/tasks.c ****  * determining how much of the stack remains at the original preset value.
 525:Generated_Source\PSoC6\pdl\rtos\FreeRTOS\9.0.0\Source/tasks.c ****  */
 526:Generated_Source\PSoC6\pdl\rtos\FreeRTOS\9.0.0\Source/tasks.c **** #if ( ( configUSE_TRACE_FACILITY == 1 ) || ( INCLUDE_uxTaskGetStackHighWaterMark == 1 ) )
 527:Generated_Source\PSoC6\pdl\rtos\FreeRTOS\9.0.0\Source/tasks.c **** 
 528:Generated_Source\PSoC6\pdl\rtos\FreeRTOS\9.0.0\Source/tasks.c **** 	static uint16_t prvTaskCheckFreeStackSpace( const uint8_t * pucStackByte ) PRIVILEGED_FUNCTION;
 529:Generated_Source\PSoC6\pdl\rtos\FreeRTOS\9.0.0\Source/tasks.c **** 
 530:Generated_Source\PSoC6\pdl\rtos\FreeRTOS\9.0.0\Source/tasks.c **** #endif
 531:Generated_Source\PSoC6\pdl\rtos\FreeRTOS\9.0.0\Source/tasks.c **** 
 532:Generated_Source\PSoC6\pdl\rtos\FreeRTOS\9.0.0\Source/tasks.c **** /*
 533:Generated_Source\PSoC6\pdl\rtos\FreeRTOS\9.0.0\Source/tasks.c ****  * Return the amount of time, in ticks, that will pass before the kernel will
 534:Generated_Source\PSoC6\pdl\rtos\FreeRTOS\9.0.0\Source/tasks.c ****  * next move a task from the Blocked state to the Running state.
 535:Generated_Source\PSoC6\pdl\rtos\FreeRTOS\9.0.0\Source/tasks.c ****  *
 536:Generated_Source\PSoC6\pdl\rtos\FreeRTOS\9.0.0\Source/tasks.c ****  * This conditional compilation should use inequality to 0, not equality to 1.
 537:Generated_Source\PSoC6\pdl\rtos\FreeRTOS\9.0.0\Source/tasks.c ****  * This is to ensure portSUPPRESS_TICKS_AND_SLEEP() can be called when user
 538:Generated_Source\PSoC6\pdl\rtos\FreeRTOS\9.0.0\Source/tasks.c ****  * defined low power mode implementations require configUSE_TICKLESS_IDLE to be
 539:Generated_Source\PSoC6\pdl\rtos\FreeRTOS\9.0.0\Source/tasks.c ****  * set to a value other than 1.
 540:Generated_Source\PSoC6\pdl\rtos\FreeRTOS\9.0.0\Source/tasks.c ****  */
 541:Generated_Source\PSoC6\pdl\rtos\FreeRTOS\9.0.0\Source/tasks.c **** #if ( configUSE_TICKLESS_IDLE != 0 )
 542:Generated_Source\PSoC6\pdl\rtos\FreeRTOS\9.0.0\Source/tasks.c **** 
 543:Generated_Source\PSoC6\pdl\rtos\FreeRTOS\9.0.0\Source/tasks.c **** 	static TickType_t prvGetExpectedIdleTime( void ) PRIVILEGED_FUNCTION;
 544:Generated_Source\PSoC6\pdl\rtos\FreeRTOS\9.0.0\Source/tasks.c **** 
 545:Generated_Source\PSoC6\pdl\rtos\FreeRTOS\9.0.0\Source/tasks.c **** #endif
 546:Generated_Source\PSoC6\pdl\rtos\FreeRTOS\9.0.0\Source/tasks.c **** 
 547:Generated_Source\PSoC6\pdl\rtos\FreeRTOS\9.0.0\Source/tasks.c **** /*
 548:Generated_Source\PSoC6\pdl\rtos\FreeRTOS\9.0.0\Source/tasks.c ****  * Set xNextTaskUnblockTime to the time at which the next Blocked state task
 549:Generated_Source\PSoC6\pdl\rtos\FreeRTOS\9.0.0\Source/tasks.c ****  * will exit the Blocked state.
 550:Generated_Source\PSoC6\pdl\rtos\FreeRTOS\9.0.0\Source/tasks.c ****  */
 551:Generated_Source\PSoC6\pdl\rtos\FreeRTOS\9.0.0\Source/tasks.c **** static void prvResetNextTaskUnblockTime( void );
 552:Generated_Source\PSoC6\pdl\rtos\FreeRTOS\9.0.0\Source/tasks.c **** 
 553:Generated_Source\PSoC6\pdl\rtos\FreeRTOS\9.0.0\Source/tasks.c **** #if ( ( configUSE_TRACE_FACILITY == 1 ) && ( configUSE_STATS_FORMATTING_FUNCTIONS > 0 ) )
 554:Generated_Source\PSoC6\pdl\rtos\FreeRTOS\9.0.0\Source/tasks.c **** 
 555:Generated_Source\PSoC6\pdl\rtos\FreeRTOS\9.0.0\Source/tasks.c **** 	/*
 556:Generated_Source\PSoC6\pdl\rtos\FreeRTOS\9.0.0\Source/tasks.c **** 	 * Helper function used to pad task names with spaces when printing out
 557:Generated_Source\PSoC6\pdl\rtos\FreeRTOS\9.0.0\Source/tasks.c **** 	 * human readable tables of task information.
 558:Generated_Source\PSoC6\pdl\rtos\FreeRTOS\9.0.0\Source/tasks.c **** 	 */
 559:Generated_Source\PSoC6\pdl\rtos\FreeRTOS\9.0.0\Source/tasks.c **** 	static char *prvWriteNameToBuffer( char *pcBuffer, const char *pcTaskName ) PRIVILEGED_FUNCTION;
 560:Generated_Source\PSoC6\pdl\rtos\FreeRTOS\9.0.0\Source/tasks.c **** 
 561:Generated_Source\PSoC6\pdl\rtos\FreeRTOS\9.0.0\Source/tasks.c **** #endif
 562:Generated_Source\PSoC6\pdl\rtos\FreeRTOS\9.0.0\Source/tasks.c **** 
 563:Generated_Source\PSoC6\pdl\rtos\FreeRTOS\9.0.0\Source/tasks.c **** /*
 564:Generated_Source\PSoC6\pdl\rtos\FreeRTOS\9.0.0\Source/tasks.c ****  * Called after a Task_t structure has been allocated either statically or
 565:Generated_Source\PSoC6\pdl\rtos\FreeRTOS\9.0.0\Source/tasks.c ****  * dynamically to fill in the structure's members.
ARM GAS  C:\Users\ikomb\AppData\Local\Temp\ccNQc6m6.s 			page 13


 566:Generated_Source\PSoC6\pdl\rtos\FreeRTOS\9.0.0\Source/tasks.c ****  */
 567:Generated_Source\PSoC6\pdl\rtos\FreeRTOS\9.0.0\Source/tasks.c **** static void prvInitialiseNewTask( 	TaskFunction_t pxTaskCode,
 568:Generated_Source\PSoC6\pdl\rtos\FreeRTOS\9.0.0\Source/tasks.c **** 									const char * const pcName,
 569:Generated_Source\PSoC6\pdl\rtos\FreeRTOS\9.0.0\Source/tasks.c **** 									const uint32_t ulStackDepth,
 570:Generated_Source\PSoC6\pdl\rtos\FreeRTOS\9.0.0\Source/tasks.c **** 									void * const pvParameters,
 571:Generated_Source\PSoC6\pdl\rtos\FreeRTOS\9.0.0\Source/tasks.c **** 									UBaseType_t uxPriority,
 572:Generated_Source\PSoC6\pdl\rtos\FreeRTOS\9.0.0\Source/tasks.c **** 									TaskHandle_t * const pxCreatedTask,
 573:Generated_Source\PSoC6\pdl\rtos\FreeRTOS\9.0.0\Source/tasks.c **** 									TCB_t *pxNewTCB,
 574:Generated_Source\PSoC6\pdl\rtos\FreeRTOS\9.0.0\Source/tasks.c **** 									const MemoryRegion_t * const xRegions ) PRIVILEGED_FUNCTION; /*lint !e971 Unqualified char
 575:Generated_Source\PSoC6\pdl\rtos\FreeRTOS\9.0.0\Source/tasks.c **** 
 576:Generated_Source\PSoC6\pdl\rtos\FreeRTOS\9.0.0\Source/tasks.c **** /*
 577:Generated_Source\PSoC6\pdl\rtos\FreeRTOS\9.0.0\Source/tasks.c ****  * Called after a new task has been created and initialised to place the task
 578:Generated_Source\PSoC6\pdl\rtos\FreeRTOS\9.0.0\Source/tasks.c ****  * under the control of the scheduler.
 579:Generated_Source\PSoC6\pdl\rtos\FreeRTOS\9.0.0\Source/tasks.c ****  */
 580:Generated_Source\PSoC6\pdl\rtos\FreeRTOS\9.0.0\Source/tasks.c **** static void prvAddNewTaskToReadyList( TCB_t *pxNewTCB ) PRIVILEGED_FUNCTION;
 581:Generated_Source\PSoC6\pdl\rtos\FreeRTOS\9.0.0\Source/tasks.c **** 
 582:Generated_Source\PSoC6\pdl\rtos\FreeRTOS\9.0.0\Source/tasks.c **** /*-----------------------------------------------------------*/
 583:Generated_Source\PSoC6\pdl\rtos\FreeRTOS\9.0.0\Source/tasks.c **** 
 584:Generated_Source\PSoC6\pdl\rtos\FreeRTOS\9.0.0\Source/tasks.c **** #if( configSUPPORT_STATIC_ALLOCATION == 1 )
 585:Generated_Source\PSoC6\pdl\rtos\FreeRTOS\9.0.0\Source/tasks.c **** 
 586:Generated_Source\PSoC6\pdl\rtos\FreeRTOS\9.0.0\Source/tasks.c **** 	TaskHandle_t xTaskCreateStatic(	TaskFunction_t pxTaskCode,
 587:Generated_Source\PSoC6\pdl\rtos\FreeRTOS\9.0.0\Source/tasks.c **** 									const char * const pcName,
 588:Generated_Source\PSoC6\pdl\rtos\FreeRTOS\9.0.0\Source/tasks.c **** 									const uint32_t ulStackDepth,
 589:Generated_Source\PSoC6\pdl\rtos\FreeRTOS\9.0.0\Source/tasks.c **** 									void * const pvParameters,
 590:Generated_Source\PSoC6\pdl\rtos\FreeRTOS\9.0.0\Source/tasks.c **** 									UBaseType_t uxPriority,
 591:Generated_Source\PSoC6\pdl\rtos\FreeRTOS\9.0.0\Source/tasks.c **** 									StackType_t * const puxStackBuffer,
 592:Generated_Source\PSoC6\pdl\rtos\FreeRTOS\9.0.0\Source/tasks.c **** 									StaticTask_t * const pxTaskBuffer ) /*lint !e971 Unqualified char types are allowed for st
 593:Generated_Source\PSoC6\pdl\rtos\FreeRTOS\9.0.0\Source/tasks.c **** 	{
 594:Generated_Source\PSoC6\pdl\rtos\FreeRTOS\9.0.0\Source/tasks.c **** 	TCB_t *pxNewTCB;
 595:Generated_Source\PSoC6\pdl\rtos\FreeRTOS\9.0.0\Source/tasks.c **** 	TaskHandle_t xReturn;
 596:Generated_Source\PSoC6\pdl\rtos\FreeRTOS\9.0.0\Source/tasks.c **** 
 597:Generated_Source\PSoC6\pdl\rtos\FreeRTOS\9.0.0\Source/tasks.c **** 		configASSERT( puxStackBuffer != NULL );
 598:Generated_Source\PSoC6\pdl\rtos\FreeRTOS\9.0.0\Source/tasks.c **** 		configASSERT( pxTaskBuffer != NULL );
 599:Generated_Source\PSoC6\pdl\rtos\FreeRTOS\9.0.0\Source/tasks.c **** 
 600:Generated_Source\PSoC6\pdl\rtos\FreeRTOS\9.0.0\Source/tasks.c **** 		if( ( pxTaskBuffer != NULL ) && ( puxStackBuffer != NULL ) )
 601:Generated_Source\PSoC6\pdl\rtos\FreeRTOS\9.0.0\Source/tasks.c **** 		{
 602:Generated_Source\PSoC6\pdl\rtos\FreeRTOS\9.0.0\Source/tasks.c **** 			/* The memory used for the task's TCB and stack are passed into this
 603:Generated_Source\PSoC6\pdl\rtos\FreeRTOS\9.0.0\Source/tasks.c **** 			function - use them. */
 604:Generated_Source\PSoC6\pdl\rtos\FreeRTOS\9.0.0\Source/tasks.c **** 			pxNewTCB = ( TCB_t * ) pxTaskBuffer; /*lint !e740 Unusual cast is ok as the structures are desig
 605:Generated_Source\PSoC6\pdl\rtos\FreeRTOS\9.0.0\Source/tasks.c **** 			pxNewTCB->pxStack = ( StackType_t * ) puxStackBuffer;
 606:Generated_Source\PSoC6\pdl\rtos\FreeRTOS\9.0.0\Source/tasks.c **** 
 607:Generated_Source\PSoC6\pdl\rtos\FreeRTOS\9.0.0\Source/tasks.c **** 			#if( tskSTATIC_AND_DYNAMIC_ALLOCATION_POSSIBLE != 0 )
 608:Generated_Source\PSoC6\pdl\rtos\FreeRTOS\9.0.0\Source/tasks.c **** 			{
 609:Generated_Source\PSoC6\pdl\rtos\FreeRTOS\9.0.0\Source/tasks.c **** 				/* Tasks can be created statically or dynamically, so note this
 610:Generated_Source\PSoC6\pdl\rtos\FreeRTOS\9.0.0\Source/tasks.c **** 				task was created statically in case the task is later deleted. */
 611:Generated_Source\PSoC6\pdl\rtos\FreeRTOS\9.0.0\Source/tasks.c **** 				pxNewTCB->ucStaticallyAllocated = tskSTATICALLY_ALLOCATED_STACK_AND_TCB;
 612:Generated_Source\PSoC6\pdl\rtos\FreeRTOS\9.0.0\Source/tasks.c **** 			}
 613:Generated_Source\PSoC6\pdl\rtos\FreeRTOS\9.0.0\Source/tasks.c **** 			#endif /* configSUPPORT_DYNAMIC_ALLOCATION */
 614:Generated_Source\PSoC6\pdl\rtos\FreeRTOS\9.0.0\Source/tasks.c **** 
 615:Generated_Source\PSoC6\pdl\rtos\FreeRTOS\9.0.0\Source/tasks.c **** 			prvInitialiseNewTask( pxTaskCode, pcName, ulStackDepth, pvParameters, uxPriority, &xReturn, pxNe
 616:Generated_Source\PSoC6\pdl\rtos\FreeRTOS\9.0.0\Source/tasks.c **** 			prvAddNewTaskToReadyList( pxNewTCB );
 617:Generated_Source\PSoC6\pdl\rtos\FreeRTOS\9.0.0\Source/tasks.c **** 		}
 618:Generated_Source\PSoC6\pdl\rtos\FreeRTOS\9.0.0\Source/tasks.c **** 		else
 619:Generated_Source\PSoC6\pdl\rtos\FreeRTOS\9.0.0\Source/tasks.c **** 		{
 620:Generated_Source\PSoC6\pdl\rtos\FreeRTOS\9.0.0\Source/tasks.c **** 			xReturn = NULL;
 621:Generated_Source\PSoC6\pdl\rtos\FreeRTOS\9.0.0\Source/tasks.c **** 		}
 622:Generated_Source\PSoC6\pdl\rtos\FreeRTOS\9.0.0\Source/tasks.c **** 
ARM GAS  C:\Users\ikomb\AppData\Local\Temp\ccNQc6m6.s 			page 14


 623:Generated_Source\PSoC6\pdl\rtos\FreeRTOS\9.0.0\Source/tasks.c **** 		return xReturn;
 624:Generated_Source\PSoC6\pdl\rtos\FreeRTOS\9.0.0\Source/tasks.c **** 	}
 625:Generated_Source\PSoC6\pdl\rtos\FreeRTOS\9.0.0\Source/tasks.c **** 
 626:Generated_Source\PSoC6\pdl\rtos\FreeRTOS\9.0.0\Source/tasks.c **** #endif /* SUPPORT_STATIC_ALLOCATION */
 627:Generated_Source\PSoC6\pdl\rtos\FreeRTOS\9.0.0\Source/tasks.c **** /*-----------------------------------------------------------*/
 628:Generated_Source\PSoC6\pdl\rtos\FreeRTOS\9.0.0\Source/tasks.c **** 
 629:Generated_Source\PSoC6\pdl\rtos\FreeRTOS\9.0.0\Source/tasks.c **** #if( portUSING_MPU_WRAPPERS == 1 )
 630:Generated_Source\PSoC6\pdl\rtos\FreeRTOS\9.0.0\Source/tasks.c **** 
 631:Generated_Source\PSoC6\pdl\rtos\FreeRTOS\9.0.0\Source/tasks.c **** 	BaseType_t xTaskCreateRestricted( const TaskParameters_t * const pxTaskDefinition, TaskHandle_t *p
 632:Generated_Source\PSoC6\pdl\rtos\FreeRTOS\9.0.0\Source/tasks.c **** 	{
 633:Generated_Source\PSoC6\pdl\rtos\FreeRTOS\9.0.0\Source/tasks.c **** 	TCB_t *pxNewTCB;
 634:Generated_Source\PSoC6\pdl\rtos\FreeRTOS\9.0.0\Source/tasks.c **** 	BaseType_t xReturn = errCOULD_NOT_ALLOCATE_REQUIRED_MEMORY;
 635:Generated_Source\PSoC6\pdl\rtos\FreeRTOS\9.0.0\Source/tasks.c **** 
 636:Generated_Source\PSoC6\pdl\rtos\FreeRTOS\9.0.0\Source/tasks.c **** 		configASSERT( pxTaskDefinition->puxStackBuffer );
 637:Generated_Source\PSoC6\pdl\rtos\FreeRTOS\9.0.0\Source/tasks.c **** 
 638:Generated_Source\PSoC6\pdl\rtos\FreeRTOS\9.0.0\Source/tasks.c **** 		if( pxTaskDefinition->puxStackBuffer != NULL )
 639:Generated_Source\PSoC6\pdl\rtos\FreeRTOS\9.0.0\Source/tasks.c **** 		{
 640:Generated_Source\PSoC6\pdl\rtos\FreeRTOS\9.0.0\Source/tasks.c **** 			/* Allocate space for the TCB.  Where the memory comes from depends
 641:Generated_Source\PSoC6\pdl\rtos\FreeRTOS\9.0.0\Source/tasks.c **** 			on the implementation of the port malloc function and whether or
 642:Generated_Source\PSoC6\pdl\rtos\FreeRTOS\9.0.0\Source/tasks.c **** 			not static allocation is being used. */
 643:Generated_Source\PSoC6\pdl\rtos\FreeRTOS\9.0.0\Source/tasks.c **** 			pxNewTCB = ( TCB_t * ) pvPortMalloc( sizeof( TCB_t ) );
 644:Generated_Source\PSoC6\pdl\rtos\FreeRTOS\9.0.0\Source/tasks.c **** 
 645:Generated_Source\PSoC6\pdl\rtos\FreeRTOS\9.0.0\Source/tasks.c **** 			if( pxNewTCB != NULL )
 646:Generated_Source\PSoC6\pdl\rtos\FreeRTOS\9.0.0\Source/tasks.c **** 			{
 647:Generated_Source\PSoC6\pdl\rtos\FreeRTOS\9.0.0\Source/tasks.c **** 				/* Store the stack location in the TCB. */
 648:Generated_Source\PSoC6\pdl\rtos\FreeRTOS\9.0.0\Source/tasks.c **** 				pxNewTCB->pxStack = pxTaskDefinition->puxStackBuffer;
 649:Generated_Source\PSoC6\pdl\rtos\FreeRTOS\9.0.0\Source/tasks.c **** 
 650:Generated_Source\PSoC6\pdl\rtos\FreeRTOS\9.0.0\Source/tasks.c **** 				/* Tasks can be created statically or dynamically, so note
 651:Generated_Source\PSoC6\pdl\rtos\FreeRTOS\9.0.0\Source/tasks.c **** 				this task had a statically allocated stack in case it is
 652:Generated_Source\PSoC6\pdl\rtos\FreeRTOS\9.0.0\Source/tasks.c **** 				later deleted.  The TCB was allocated dynamically. */
 653:Generated_Source\PSoC6\pdl\rtos\FreeRTOS\9.0.0\Source/tasks.c **** 				pxNewTCB->ucStaticallyAllocated = tskSTATICALLY_ALLOCATED_STACK_ONLY;
 654:Generated_Source\PSoC6\pdl\rtos\FreeRTOS\9.0.0\Source/tasks.c **** 
 655:Generated_Source\PSoC6\pdl\rtos\FreeRTOS\9.0.0\Source/tasks.c **** 				prvInitialiseNewTask(	pxTaskDefinition->pvTaskCode,
 656:Generated_Source\PSoC6\pdl\rtos\FreeRTOS\9.0.0\Source/tasks.c **** 										pxTaskDefinition->pcName,
 657:Generated_Source\PSoC6\pdl\rtos\FreeRTOS\9.0.0\Source/tasks.c **** 										( uint32_t ) pxTaskDefinition->usStackDepth,
 658:Generated_Source\PSoC6\pdl\rtos\FreeRTOS\9.0.0\Source/tasks.c **** 										pxTaskDefinition->pvParameters,
 659:Generated_Source\PSoC6\pdl\rtos\FreeRTOS\9.0.0\Source/tasks.c **** 										pxTaskDefinition->uxPriority,
 660:Generated_Source\PSoC6\pdl\rtos\FreeRTOS\9.0.0\Source/tasks.c **** 										pxCreatedTask, pxNewTCB,
 661:Generated_Source\PSoC6\pdl\rtos\FreeRTOS\9.0.0\Source/tasks.c **** 										pxTaskDefinition->xRegions );
 662:Generated_Source\PSoC6\pdl\rtos\FreeRTOS\9.0.0\Source/tasks.c **** 
 663:Generated_Source\PSoC6\pdl\rtos\FreeRTOS\9.0.0\Source/tasks.c **** 				prvAddNewTaskToReadyList( pxNewTCB );
 664:Generated_Source\PSoC6\pdl\rtos\FreeRTOS\9.0.0\Source/tasks.c **** 				xReturn = pdPASS;
 665:Generated_Source\PSoC6\pdl\rtos\FreeRTOS\9.0.0\Source/tasks.c **** 			}
 666:Generated_Source\PSoC6\pdl\rtos\FreeRTOS\9.0.0\Source/tasks.c **** 		}
 667:Generated_Source\PSoC6\pdl\rtos\FreeRTOS\9.0.0\Source/tasks.c **** 
 668:Generated_Source\PSoC6\pdl\rtos\FreeRTOS\9.0.0\Source/tasks.c **** 		return xReturn;
 669:Generated_Source\PSoC6\pdl\rtos\FreeRTOS\9.0.0\Source/tasks.c **** 	}
 670:Generated_Source\PSoC6\pdl\rtos\FreeRTOS\9.0.0\Source/tasks.c **** 
 671:Generated_Source\PSoC6\pdl\rtos\FreeRTOS\9.0.0\Source/tasks.c **** #endif /* portUSING_MPU_WRAPPERS */
 672:Generated_Source\PSoC6\pdl\rtos\FreeRTOS\9.0.0\Source/tasks.c **** /*-----------------------------------------------------------*/
 673:Generated_Source\PSoC6\pdl\rtos\FreeRTOS\9.0.0\Source/tasks.c **** 
 674:Generated_Source\PSoC6\pdl\rtos\FreeRTOS\9.0.0\Source/tasks.c **** #if( configSUPPORT_DYNAMIC_ALLOCATION == 1 )
 675:Generated_Source\PSoC6\pdl\rtos\FreeRTOS\9.0.0\Source/tasks.c **** 
 676:Generated_Source\PSoC6\pdl\rtos\FreeRTOS\9.0.0\Source/tasks.c **** 	BaseType_t xTaskCreate(	TaskFunction_t pxTaskCode,
 677:Generated_Source\PSoC6\pdl\rtos\FreeRTOS\9.0.0\Source/tasks.c **** 							const char * const pcName,
 678:Generated_Source\PSoC6\pdl\rtos\FreeRTOS\9.0.0\Source/tasks.c **** 							const uint16_t usStackDepth,
 679:Generated_Source\PSoC6\pdl\rtos\FreeRTOS\9.0.0\Source/tasks.c **** 							void * const pvParameters,
ARM GAS  C:\Users\ikomb\AppData\Local\Temp\ccNQc6m6.s 			page 15


 680:Generated_Source\PSoC6\pdl\rtos\FreeRTOS\9.0.0\Source/tasks.c **** 							UBaseType_t uxPriority,
 681:Generated_Source\PSoC6\pdl\rtos\FreeRTOS\9.0.0\Source/tasks.c **** 							TaskHandle_t * const pxCreatedTask ) /*lint !e971 Unqualified char types are allowed for str
 682:Generated_Source\PSoC6\pdl\rtos\FreeRTOS\9.0.0\Source/tasks.c **** 	{
  96              		.loc 1 682 0
  97              		.cfi_startproc
  98              		@ args = 8, pretend = 0, frame = 32
  99              		@ frame_needed = 1, uses_anonymous_args = 0
 100 0000 80B5     		push	{r7, lr}
 101              		.cfi_def_cfa_offset 8
 102              		.cfi_offset 7, -8
 103              		.cfi_offset 14, -4
 104 0002 8CB0     		sub	sp, sp, #48
 105              		.cfi_def_cfa_offset 56
 106 0004 04AF     		add	r7, sp, #16
 107              		.cfi_def_cfa 7, 40
 108 0006 F860     		str	r0, [r7, #12]
 109 0008 B960     		str	r1, [r7, #8]
 110 000a 3B60     		str	r3, [r7]
 111 000c 1346     		mov	r3, r2	@ movhi
 112 000e FB80     		strh	r3, [r7, #6]	@ movhi
 113              	.LBB18:
 683:Generated_Source\PSoC6\pdl\rtos\FreeRTOS\9.0.0\Source/tasks.c **** 	TCB_t *pxNewTCB;
 684:Generated_Source\PSoC6\pdl\rtos\FreeRTOS\9.0.0\Source/tasks.c **** 	BaseType_t xReturn;
 685:Generated_Source\PSoC6\pdl\rtos\FreeRTOS\9.0.0\Source/tasks.c **** 
 686:Generated_Source\PSoC6\pdl\rtos\FreeRTOS\9.0.0\Source/tasks.c **** 		/* If the stack grows down then allocate the stack then the TCB so the stack
 687:Generated_Source\PSoC6\pdl\rtos\FreeRTOS\9.0.0\Source/tasks.c **** 		does not grow into the TCB.  Likewise if the stack grows up then allocate
 688:Generated_Source\PSoC6\pdl\rtos\FreeRTOS\9.0.0\Source/tasks.c **** 		the TCB then the stack. */
 689:Generated_Source\PSoC6\pdl\rtos\FreeRTOS\9.0.0\Source/tasks.c **** 		#if( portSTACK_GROWTH > 0 )
 690:Generated_Source\PSoC6\pdl\rtos\FreeRTOS\9.0.0\Source/tasks.c **** 		{
 691:Generated_Source\PSoC6\pdl\rtos\FreeRTOS\9.0.0\Source/tasks.c **** 			/* Allocate space for the TCB.  Where the memory comes from depends on
 692:Generated_Source\PSoC6\pdl\rtos\FreeRTOS\9.0.0\Source/tasks.c **** 			the implementation of the port malloc function and whether or not static
 693:Generated_Source\PSoC6\pdl\rtos\FreeRTOS\9.0.0\Source/tasks.c **** 			allocation is being used. */
 694:Generated_Source\PSoC6\pdl\rtos\FreeRTOS\9.0.0\Source/tasks.c **** 			pxNewTCB = ( TCB_t * ) pvPortMalloc( sizeof( TCB_t ) );
 695:Generated_Source\PSoC6\pdl\rtos\FreeRTOS\9.0.0\Source/tasks.c **** 
 696:Generated_Source\PSoC6\pdl\rtos\FreeRTOS\9.0.0\Source/tasks.c **** 			if( pxNewTCB != NULL )
 697:Generated_Source\PSoC6\pdl\rtos\FreeRTOS\9.0.0\Source/tasks.c **** 			{
 698:Generated_Source\PSoC6\pdl\rtos\FreeRTOS\9.0.0\Source/tasks.c **** 				/* Allocate space for the stack used by the task being created.
 699:Generated_Source\PSoC6\pdl\rtos\FreeRTOS\9.0.0\Source/tasks.c **** 				The base of the stack memory stored in the TCB so the task can
 700:Generated_Source\PSoC6\pdl\rtos\FreeRTOS\9.0.0\Source/tasks.c **** 				be deleted later if required. */
 701:Generated_Source\PSoC6\pdl\rtos\FreeRTOS\9.0.0\Source/tasks.c **** 				pxNewTCB->pxStack = ( StackType_t * ) pvPortMalloc( ( ( ( size_t ) usStackDepth ) * sizeof( Sta
 702:Generated_Source\PSoC6\pdl\rtos\FreeRTOS\9.0.0\Source/tasks.c **** 
 703:Generated_Source\PSoC6\pdl\rtos\FreeRTOS\9.0.0\Source/tasks.c **** 				if( pxNewTCB->pxStack == NULL )
 704:Generated_Source\PSoC6\pdl\rtos\FreeRTOS\9.0.0\Source/tasks.c **** 				{
 705:Generated_Source\PSoC6\pdl\rtos\FreeRTOS\9.0.0\Source/tasks.c **** 					/* Could not allocate the stack.  Delete the allocated TCB. */
 706:Generated_Source\PSoC6\pdl\rtos\FreeRTOS\9.0.0\Source/tasks.c **** 					vPortFree( pxNewTCB );
 707:Generated_Source\PSoC6\pdl\rtos\FreeRTOS\9.0.0\Source/tasks.c **** 					pxNewTCB = NULL;
 708:Generated_Source\PSoC6\pdl\rtos\FreeRTOS\9.0.0\Source/tasks.c **** 				}
 709:Generated_Source\PSoC6\pdl\rtos\FreeRTOS\9.0.0\Source/tasks.c **** 			}
 710:Generated_Source\PSoC6\pdl\rtos\FreeRTOS\9.0.0\Source/tasks.c **** 		}
 711:Generated_Source\PSoC6\pdl\rtos\FreeRTOS\9.0.0\Source/tasks.c **** 		#else /* portSTACK_GROWTH */
 712:Generated_Source\PSoC6\pdl\rtos\FreeRTOS\9.0.0\Source/tasks.c **** 		{
 713:Generated_Source\PSoC6\pdl\rtos\FreeRTOS\9.0.0\Source/tasks.c **** 		StackType_t *pxStack;
 714:Generated_Source\PSoC6\pdl\rtos\FreeRTOS\9.0.0\Source/tasks.c **** 
 715:Generated_Source\PSoC6\pdl\rtos\FreeRTOS\9.0.0\Source/tasks.c **** 			/* Allocate space for the stack used by the task being created. */
 716:Generated_Source\PSoC6\pdl\rtos\FreeRTOS\9.0.0\Source/tasks.c **** 			pxStack = ( StackType_t * ) pvPortMalloc( ( ( ( size_t ) usStackDepth ) * sizeof( StackType_t ) 
 114              		.loc 1 716 0
 115 0010 FB88     		ldrh	r3, [r7, #6]
ARM GAS  C:\Users\ikomb\AppData\Local\Temp\ccNQc6m6.s 			page 16


 116 0012 9B00     		lsls	r3, r3, #2
 117 0014 1846     		mov	r0, r3
 118 0016 FFF7FEFF 		bl	pvPortMalloc
 119 001a 7861     		str	r0, [r7, #20]
 717:Generated_Source\PSoC6\pdl\rtos\FreeRTOS\9.0.0\Source/tasks.c **** 
 718:Generated_Source\PSoC6\pdl\rtos\FreeRTOS\9.0.0\Source/tasks.c **** 			if( pxStack != NULL )
 120              		.loc 1 718 0
 121 001c 7B69     		ldr	r3, [r7, #20]
 122 001e 002B     		cmp	r3, #0
 123 0020 0ED0     		beq	.L2
 719:Generated_Source\PSoC6\pdl\rtos\FreeRTOS\9.0.0\Source/tasks.c **** 			{
 720:Generated_Source\PSoC6\pdl\rtos\FreeRTOS\9.0.0\Source/tasks.c **** 				/* Allocate space for the TCB. */
 721:Generated_Source\PSoC6\pdl\rtos\FreeRTOS\9.0.0\Source/tasks.c **** 				pxNewTCB = ( TCB_t * ) pvPortMalloc( sizeof( TCB_t ) ); /*lint !e961 MISRA exception as the cas
 124              		.loc 1 721 0
 125 0022 6020     		movs	r0, #96
 126 0024 FFF7FEFF 		bl	pvPortMalloc
 127 0028 F861     		str	r0, [r7, #28]
 722:Generated_Source\PSoC6\pdl\rtos\FreeRTOS\9.0.0\Source/tasks.c **** 
 723:Generated_Source\PSoC6\pdl\rtos\FreeRTOS\9.0.0\Source/tasks.c **** 				if( pxNewTCB != NULL )
 128              		.loc 1 723 0
 129 002a FB69     		ldr	r3, [r7, #28]
 130 002c 002B     		cmp	r3, #0
 131 002e 03D0     		beq	.L3
 724:Generated_Source\PSoC6\pdl\rtos\FreeRTOS\9.0.0\Source/tasks.c **** 				{
 725:Generated_Source\PSoC6\pdl\rtos\FreeRTOS\9.0.0\Source/tasks.c **** 					/* Store the stack location in the TCB. */
 726:Generated_Source\PSoC6\pdl\rtos\FreeRTOS\9.0.0\Source/tasks.c **** 					pxNewTCB->pxStack = pxStack;
 132              		.loc 1 726 0
 133 0030 FB69     		ldr	r3, [r7, #28]
 134 0032 7A69     		ldr	r2, [r7, #20]
 135 0034 1A63     		str	r2, [r3, #48]
 136 0036 05E0     		b	.L5
 137              	.L3:
 727:Generated_Source\PSoC6\pdl\rtos\FreeRTOS\9.0.0\Source/tasks.c **** 				}
 728:Generated_Source\PSoC6\pdl\rtos\FreeRTOS\9.0.0\Source/tasks.c **** 				else
 729:Generated_Source\PSoC6\pdl\rtos\FreeRTOS\9.0.0\Source/tasks.c **** 				{
 730:Generated_Source\PSoC6\pdl\rtos\FreeRTOS\9.0.0\Source/tasks.c **** 					/* The stack cannot be used as the TCB was not created.  Free
 731:Generated_Source\PSoC6\pdl\rtos\FreeRTOS\9.0.0\Source/tasks.c **** 					it again. */
 732:Generated_Source\PSoC6\pdl\rtos\FreeRTOS\9.0.0\Source/tasks.c **** 					vPortFree( pxStack );
 138              		.loc 1 732 0
 139 0038 7869     		ldr	r0, [r7, #20]
 140 003a FFF7FEFF 		bl	vPortFree
 141 003e 01E0     		b	.L5
 142              	.L2:
 733:Generated_Source\PSoC6\pdl\rtos\FreeRTOS\9.0.0\Source/tasks.c **** 				}
 734:Generated_Source\PSoC6\pdl\rtos\FreeRTOS\9.0.0\Source/tasks.c **** 			}
 735:Generated_Source\PSoC6\pdl\rtos\FreeRTOS\9.0.0\Source/tasks.c **** 			else
 736:Generated_Source\PSoC6\pdl\rtos\FreeRTOS\9.0.0\Source/tasks.c **** 			{
 737:Generated_Source\PSoC6\pdl\rtos\FreeRTOS\9.0.0\Source/tasks.c **** 				pxNewTCB = NULL;
 143              		.loc 1 737 0
 144 0040 0023     		movs	r3, #0
 145 0042 FB61     		str	r3, [r7, #28]
 146              	.L5:
 147              	.LBE18:
 738:Generated_Source\PSoC6\pdl\rtos\FreeRTOS\9.0.0\Source/tasks.c **** 			}
 739:Generated_Source\PSoC6\pdl\rtos\FreeRTOS\9.0.0\Source/tasks.c **** 		}
 740:Generated_Source\PSoC6\pdl\rtos\FreeRTOS\9.0.0\Source/tasks.c **** 		#endif /* portSTACK_GROWTH */
 741:Generated_Source\PSoC6\pdl\rtos\FreeRTOS\9.0.0\Source/tasks.c **** 
ARM GAS  C:\Users\ikomb\AppData\Local\Temp\ccNQc6m6.s 			page 17


 742:Generated_Source\PSoC6\pdl\rtos\FreeRTOS\9.0.0\Source/tasks.c **** 		if( pxNewTCB != NULL )
 148              		.loc 1 742 0
 149 0044 FB69     		ldr	r3, [r7, #28]
 150 0046 002B     		cmp	r3, #0
 151 0048 13D0     		beq	.L6
 743:Generated_Source\PSoC6\pdl\rtos\FreeRTOS\9.0.0\Source/tasks.c **** 		{
 744:Generated_Source\PSoC6\pdl\rtos\FreeRTOS\9.0.0\Source/tasks.c **** 			#if( tskSTATIC_AND_DYNAMIC_ALLOCATION_POSSIBLE != 0 )
 745:Generated_Source\PSoC6\pdl\rtos\FreeRTOS\9.0.0\Source/tasks.c **** 			{
 746:Generated_Source\PSoC6\pdl\rtos\FreeRTOS\9.0.0\Source/tasks.c **** 				/* Tasks can be created statically or dynamically, so note this
 747:Generated_Source\PSoC6\pdl\rtos\FreeRTOS\9.0.0\Source/tasks.c **** 				task was created dynamically in case it is later deleted. */
 748:Generated_Source\PSoC6\pdl\rtos\FreeRTOS\9.0.0\Source/tasks.c **** 				pxNewTCB->ucStaticallyAllocated = tskDYNAMICALLY_ALLOCATED_STACK_AND_TCB;
 749:Generated_Source\PSoC6\pdl\rtos\FreeRTOS\9.0.0\Source/tasks.c **** 			}
 750:Generated_Source\PSoC6\pdl\rtos\FreeRTOS\9.0.0\Source/tasks.c **** 			#endif /* configSUPPORT_STATIC_ALLOCATION */
 751:Generated_Source\PSoC6\pdl\rtos\FreeRTOS\9.0.0\Source/tasks.c **** 
 752:Generated_Source\PSoC6\pdl\rtos\FreeRTOS\9.0.0\Source/tasks.c **** 			prvInitialiseNewTask( pxTaskCode, pcName, ( uint32_t ) usStackDepth, pvParameters, uxPriority, p
 152              		.loc 1 752 0
 153 004a FA88     		ldrh	r2, [r7, #6]
 154 004c 0023     		movs	r3, #0
 155 004e 0393     		str	r3, [sp, #12]
 156 0050 FB69     		ldr	r3, [r7, #28]
 157 0052 0293     		str	r3, [sp, #8]
 158 0054 FB6A     		ldr	r3, [r7, #44]
 159 0056 0193     		str	r3, [sp, #4]
 160 0058 BB6A     		ldr	r3, [r7, #40]
 161 005a 0093     		str	r3, [sp]
 162 005c 3B68     		ldr	r3, [r7]
 163 005e B968     		ldr	r1, [r7, #8]
 164 0060 F868     		ldr	r0, [r7, #12]
 165 0062 FFF7FEFF 		bl	prvInitialiseNewTask
 753:Generated_Source\PSoC6\pdl\rtos\FreeRTOS\9.0.0\Source/tasks.c **** 			prvAddNewTaskToReadyList( pxNewTCB );
 166              		.loc 1 753 0
 167 0066 F869     		ldr	r0, [r7, #28]
 168 0068 FFF7FEFF 		bl	prvAddNewTaskToReadyList
 754:Generated_Source\PSoC6\pdl\rtos\FreeRTOS\9.0.0\Source/tasks.c **** 			xReturn = pdPASS;
 169              		.loc 1 754 0
 170 006c 0123     		movs	r3, #1
 171 006e BB61     		str	r3, [r7, #24]
 172 0070 02E0     		b	.L7
 173              	.L6:
 755:Generated_Source\PSoC6\pdl\rtos\FreeRTOS\9.0.0\Source/tasks.c **** 		}
 756:Generated_Source\PSoC6\pdl\rtos\FreeRTOS\9.0.0\Source/tasks.c **** 		else
 757:Generated_Source\PSoC6\pdl\rtos\FreeRTOS\9.0.0\Source/tasks.c **** 		{
 758:Generated_Source\PSoC6\pdl\rtos\FreeRTOS\9.0.0\Source/tasks.c **** 			xReturn = errCOULD_NOT_ALLOCATE_REQUIRED_MEMORY;
 174              		.loc 1 758 0
 175 0072 4FF0FF33 		mov	r3, #-1
 176 0076 BB61     		str	r3, [r7, #24]
 177              	.L7:
 759:Generated_Source\PSoC6\pdl\rtos\FreeRTOS\9.0.0\Source/tasks.c **** 		}
 760:Generated_Source\PSoC6\pdl\rtos\FreeRTOS\9.0.0\Source/tasks.c **** 
 761:Generated_Source\PSoC6\pdl\rtos\FreeRTOS\9.0.0\Source/tasks.c **** 		return xReturn;
 178              		.loc 1 761 0
 179 0078 BB69     		ldr	r3, [r7, #24]
 762:Generated_Source\PSoC6\pdl\rtos\FreeRTOS\9.0.0\Source/tasks.c **** 	}
 180              		.loc 1 762 0
 181 007a 1846     		mov	r0, r3
 182 007c 2037     		adds	r7, r7, #32
 183              		.cfi_def_cfa_offset 8
ARM GAS  C:\Users\ikomb\AppData\Local\Temp\ccNQc6m6.s 			page 18


 184 007e BD46     		mov	sp, r7
 185              		.cfi_def_cfa_register 13
 186              		@ sp needed
 187 0080 80BD     		pop	{r7, pc}
 188              		.cfi_endproc
 189              	.LFE129:
 190              		.size	xTaskCreate, .-xTaskCreate
 191 0082 00BF     		.section	.text.prvInitialiseNewTask,"ax",%progbits
 192              		.align	2
 193              		.thumb
 194              		.thumb_func
 195              		.type	prvInitialiseNewTask, %function
 196              	prvInitialiseNewTask:
 197              	.LFB130:
 763:Generated_Source\PSoC6\pdl\rtos\FreeRTOS\9.0.0\Source/tasks.c **** 
 764:Generated_Source\PSoC6\pdl\rtos\FreeRTOS\9.0.0\Source/tasks.c **** #endif /* configSUPPORT_DYNAMIC_ALLOCATION */
 765:Generated_Source\PSoC6\pdl\rtos\FreeRTOS\9.0.0\Source/tasks.c **** /*-----------------------------------------------------------*/
 766:Generated_Source\PSoC6\pdl\rtos\FreeRTOS\9.0.0\Source/tasks.c **** 
 767:Generated_Source\PSoC6\pdl\rtos\FreeRTOS\9.0.0\Source/tasks.c **** static void prvInitialiseNewTask( 	TaskFunction_t pxTaskCode,
 768:Generated_Source\PSoC6\pdl\rtos\FreeRTOS\9.0.0\Source/tasks.c **** 									const char * const pcName,
 769:Generated_Source\PSoC6\pdl\rtos\FreeRTOS\9.0.0\Source/tasks.c **** 									const uint32_t ulStackDepth,
 770:Generated_Source\PSoC6\pdl\rtos\FreeRTOS\9.0.0\Source/tasks.c **** 									void * const pvParameters,
 771:Generated_Source\PSoC6\pdl\rtos\FreeRTOS\9.0.0\Source/tasks.c **** 									UBaseType_t uxPriority,
 772:Generated_Source\PSoC6\pdl\rtos\FreeRTOS\9.0.0\Source/tasks.c **** 									TaskHandle_t * const pxCreatedTask,
 773:Generated_Source\PSoC6\pdl\rtos\FreeRTOS\9.0.0\Source/tasks.c **** 									TCB_t *pxNewTCB,
 774:Generated_Source\PSoC6\pdl\rtos\FreeRTOS\9.0.0\Source/tasks.c **** 									const MemoryRegion_t * const xRegions ) /*lint !e971 Unqualified char types are allowed fo
 775:Generated_Source\PSoC6\pdl\rtos\FreeRTOS\9.0.0\Source/tasks.c **** {
 198              		.loc 1 775 0
 199              		.cfi_startproc
 200              		@ args = 16, pretend = 0, frame = 24
 201              		@ frame_needed = 1, uses_anonymous_args = 0
 202 0000 80B5     		push	{r7, lr}
 203              		.cfi_def_cfa_offset 8
 204              		.cfi_offset 7, -8
 205              		.cfi_offset 14, -4
 206 0002 86B0     		sub	sp, sp, #24
 207              		.cfi_def_cfa_offset 32
 208 0004 00AF     		add	r7, sp, #0
 209              		.cfi_def_cfa_register 7
 210 0006 F860     		str	r0, [r7, #12]
 211 0008 B960     		str	r1, [r7, #8]
 212 000a 7A60     		str	r2, [r7, #4]
 213 000c 3B60     		str	r3, [r7]
 776:Generated_Source\PSoC6\pdl\rtos\FreeRTOS\9.0.0\Source/tasks.c **** StackType_t *pxTopOfStack;
 777:Generated_Source\PSoC6\pdl\rtos\FreeRTOS\9.0.0\Source/tasks.c **** UBaseType_t x;
 778:Generated_Source\PSoC6\pdl\rtos\FreeRTOS\9.0.0\Source/tasks.c **** 
 779:Generated_Source\PSoC6\pdl\rtos\FreeRTOS\9.0.0\Source/tasks.c **** 	#if( portUSING_MPU_WRAPPERS == 1 )
 780:Generated_Source\PSoC6\pdl\rtos\FreeRTOS\9.0.0\Source/tasks.c **** 		/* Should the task be created in privileged mode? */
 781:Generated_Source\PSoC6\pdl\rtos\FreeRTOS\9.0.0\Source/tasks.c **** 		BaseType_t xRunPrivileged;
 782:Generated_Source\PSoC6\pdl\rtos\FreeRTOS\9.0.0\Source/tasks.c **** 		if( ( uxPriority & portPRIVILEGE_BIT ) != 0U )
 783:Generated_Source\PSoC6\pdl\rtos\FreeRTOS\9.0.0\Source/tasks.c **** 		{
 784:Generated_Source\PSoC6\pdl\rtos\FreeRTOS\9.0.0\Source/tasks.c **** 			xRunPrivileged = pdTRUE;
 785:Generated_Source\PSoC6\pdl\rtos\FreeRTOS\9.0.0\Source/tasks.c **** 		}
 786:Generated_Source\PSoC6\pdl\rtos\FreeRTOS\9.0.0\Source/tasks.c **** 		else
 787:Generated_Source\PSoC6\pdl\rtos\FreeRTOS\9.0.0\Source/tasks.c **** 		{
 788:Generated_Source\PSoC6\pdl\rtos\FreeRTOS\9.0.0\Source/tasks.c **** 			xRunPrivileged = pdFALSE;
 789:Generated_Source\PSoC6\pdl\rtos\FreeRTOS\9.0.0\Source/tasks.c **** 		}
ARM GAS  C:\Users\ikomb\AppData\Local\Temp\ccNQc6m6.s 			page 19


 790:Generated_Source\PSoC6\pdl\rtos\FreeRTOS\9.0.0\Source/tasks.c **** 		uxPriority &= ~portPRIVILEGE_BIT;
 791:Generated_Source\PSoC6\pdl\rtos\FreeRTOS\9.0.0\Source/tasks.c **** 	#endif /* portUSING_MPU_WRAPPERS == 1 */
 792:Generated_Source\PSoC6\pdl\rtos\FreeRTOS\9.0.0\Source/tasks.c **** 
 793:Generated_Source\PSoC6\pdl\rtos\FreeRTOS\9.0.0\Source/tasks.c **** 	/* Avoid dependency on memset() if it is not required. */
 794:Generated_Source\PSoC6\pdl\rtos\FreeRTOS\9.0.0\Source/tasks.c **** 	#if( ( configCHECK_FOR_STACK_OVERFLOW > 1 ) || ( configUSE_TRACE_FACILITY == 1 ) || ( INCLUDE_uxTa
 795:Generated_Source\PSoC6\pdl\rtos\FreeRTOS\9.0.0\Source/tasks.c **** 	{
 796:Generated_Source\PSoC6\pdl\rtos\FreeRTOS\9.0.0\Source/tasks.c **** 		/* Fill the stack with a known value to assist debugging. */
 797:Generated_Source\PSoC6\pdl\rtos\FreeRTOS\9.0.0\Source/tasks.c **** 		( void ) memset( pxNewTCB->pxStack, ( int ) tskSTACK_FILL_BYTE, ( size_t ) ulStackDepth * sizeof(
 214              		.loc 1 797 0
 215 000e BB6A     		ldr	r3, [r7, #40]
 216 0010 186B     		ldr	r0, [r3, #48]
 217 0012 7B68     		ldr	r3, [r7, #4]
 218 0014 9B00     		lsls	r3, r3, #2
 219 0016 1A46     		mov	r2, r3
 220 0018 A521     		movs	r1, #165
 221 001a FFF7FEFF 		bl	memset
 798:Generated_Source\PSoC6\pdl\rtos\FreeRTOS\9.0.0\Source/tasks.c **** 	}
 799:Generated_Source\PSoC6\pdl\rtos\FreeRTOS\9.0.0\Source/tasks.c **** 	#endif /* ( ( configCHECK_FOR_STACK_OVERFLOW > 1 ) || ( ( configUSE_TRACE_FACILITY == 1 ) || ( INC
 800:Generated_Source\PSoC6\pdl\rtos\FreeRTOS\9.0.0\Source/tasks.c **** 
 801:Generated_Source\PSoC6\pdl\rtos\FreeRTOS\9.0.0\Source/tasks.c **** 	/* Calculate the top of stack address.  This depends on whether the stack
 802:Generated_Source\PSoC6\pdl\rtos\FreeRTOS\9.0.0\Source/tasks.c **** 	grows from high memory to low (as per the 80x86) or vice versa.
 803:Generated_Source\PSoC6\pdl\rtos\FreeRTOS\9.0.0\Source/tasks.c **** 	portSTACK_GROWTH is used to make the result positive or negative as required
 804:Generated_Source\PSoC6\pdl\rtos\FreeRTOS\9.0.0\Source/tasks.c **** 	by the port. */
 805:Generated_Source\PSoC6\pdl\rtos\FreeRTOS\9.0.0\Source/tasks.c **** 	#if( portSTACK_GROWTH < 0 )
 806:Generated_Source\PSoC6\pdl\rtos\FreeRTOS\9.0.0\Source/tasks.c **** 	{
 807:Generated_Source\PSoC6\pdl\rtos\FreeRTOS\9.0.0\Source/tasks.c **** 		pxTopOfStack = pxNewTCB->pxStack + ( ulStackDepth - ( uint32_t ) 1 );
 222              		.loc 1 807 0
 223 001e BB6A     		ldr	r3, [r7, #40]
 224 0020 1A6B     		ldr	r2, [r3, #48]
 225 0022 7B68     		ldr	r3, [r7, #4]
 226 0024 03F18043 		add	r3, r3, #1073741824
 227 0028 013B     		subs	r3, r3, #1
 228 002a 9B00     		lsls	r3, r3, #2
 229 002c 1344     		add	r3, r3, r2
 230 002e 3B61     		str	r3, [r7, #16]
 808:Generated_Source\PSoC6\pdl\rtos\FreeRTOS\9.0.0\Source/tasks.c **** 		pxTopOfStack = ( StackType_t * ) ( ( ( portPOINTER_SIZE_TYPE ) pxTopOfStack ) & ( ~( ( portPOINTE
 231              		.loc 1 808 0
 232 0030 3B69     		ldr	r3, [r7, #16]
 233 0032 23F00703 		bic	r3, r3, #7
 234 0036 3B61     		str	r3, [r7, #16]
 809:Generated_Source\PSoC6\pdl\rtos\FreeRTOS\9.0.0\Source/tasks.c **** 
 810:Generated_Source\PSoC6\pdl\rtos\FreeRTOS\9.0.0\Source/tasks.c **** 		/* Check the alignment of the calculated top of stack is correct. */
 811:Generated_Source\PSoC6\pdl\rtos\FreeRTOS\9.0.0\Source/tasks.c **** 		configASSERT( ( ( ( portPOINTER_SIZE_TYPE ) pxTopOfStack & ( portPOINTER_SIZE_TYPE ) portBYTE_ALI
 235              		.loc 1 811 0
 236 0038 3B69     		ldr	r3, [r7, #16]
 237 003a 03F00703 		and	r3, r3, #7
 238 003e 002B     		cmp	r3, #0
 239 0040 01D0     		beq	.L10
 240              		.loc 1 811 0 is_stmt 0 discriminator 1
 241              		.syntax unified
 242              	@ 811 "Generated_Source\PSoC6\pdl\rtos\FreeRTOS\9.0.0\Source\tasks.c" 1
 243 0042 72B6     		 cpsid i 
 244              	@ 0 "" 2
 245              		.thumb
 246              		.syntax unified
 247              	.L11:
 248 0044 FEE7     		b	.L11
ARM GAS  C:\Users\ikomb\AppData\Local\Temp\ccNQc6m6.s 			page 20


 249              	.L10:
 812:Generated_Source\PSoC6\pdl\rtos\FreeRTOS\9.0.0\Source/tasks.c **** 	}
 813:Generated_Source\PSoC6\pdl\rtos\FreeRTOS\9.0.0\Source/tasks.c **** 	#else /* portSTACK_GROWTH */
 814:Generated_Source\PSoC6\pdl\rtos\FreeRTOS\9.0.0\Source/tasks.c **** 	{
 815:Generated_Source\PSoC6\pdl\rtos\FreeRTOS\9.0.0\Source/tasks.c **** 		pxTopOfStack = pxNewTCB->pxStack;
 816:Generated_Source\PSoC6\pdl\rtos\FreeRTOS\9.0.0\Source/tasks.c **** 
 817:Generated_Source\PSoC6\pdl\rtos\FreeRTOS\9.0.0\Source/tasks.c **** 		/* Check the alignment of the stack buffer is correct. */
 818:Generated_Source\PSoC6\pdl\rtos\FreeRTOS\9.0.0\Source/tasks.c **** 		configASSERT( ( ( ( portPOINTER_SIZE_TYPE ) pxNewTCB->pxStack & ( portPOINTER_SIZE_TYPE ) portBYT
 819:Generated_Source\PSoC6\pdl\rtos\FreeRTOS\9.0.0\Source/tasks.c **** 
 820:Generated_Source\PSoC6\pdl\rtos\FreeRTOS\9.0.0\Source/tasks.c **** 		/* The other extreme of the stack space is required if stack checking is
 821:Generated_Source\PSoC6\pdl\rtos\FreeRTOS\9.0.0\Source/tasks.c **** 		performed. */
 822:Generated_Source\PSoC6\pdl\rtos\FreeRTOS\9.0.0\Source/tasks.c **** 		pxNewTCB->pxEndOfStack = pxNewTCB->pxStack + ( ulStackDepth - ( uint32_t ) 1 );
 823:Generated_Source\PSoC6\pdl\rtos\FreeRTOS\9.0.0\Source/tasks.c **** 	}
 824:Generated_Source\PSoC6\pdl\rtos\FreeRTOS\9.0.0\Source/tasks.c **** 	#endif /* portSTACK_GROWTH */
 825:Generated_Source\PSoC6\pdl\rtos\FreeRTOS\9.0.0\Source/tasks.c **** 
 826:Generated_Source\PSoC6\pdl\rtos\FreeRTOS\9.0.0\Source/tasks.c **** 	/* Store the task name in the TCB. */
 827:Generated_Source\PSoC6\pdl\rtos\FreeRTOS\9.0.0\Source/tasks.c **** 	for( x = ( UBaseType_t ) 0; x < ( UBaseType_t ) configMAX_TASK_NAME_LEN; x++ )
 250              		.loc 1 827 0 is_stmt 1
 251 0046 0023     		movs	r3, #0
 252 0048 7B61     		str	r3, [r7, #20]
 253 004a 12E0     		b	.L12
 254              	.L15:
 828:Generated_Source\PSoC6\pdl\rtos\FreeRTOS\9.0.0\Source/tasks.c **** 	{
 829:Generated_Source\PSoC6\pdl\rtos\FreeRTOS\9.0.0\Source/tasks.c **** 		pxNewTCB->pcTaskName[ x ] = pcName[ x ];
 255              		.loc 1 829 0
 256 004c BA68     		ldr	r2, [r7, #8]
 257 004e 7B69     		ldr	r3, [r7, #20]
 258 0050 1344     		add	r3, r3, r2
 259 0052 1978     		ldrb	r1, [r3]	@ zero_extendqisi2
 260 0054 BA6A     		ldr	r2, [r7, #40]
 261 0056 7B69     		ldr	r3, [r7, #20]
 262 0058 1344     		add	r3, r3, r2
 263 005a 3433     		adds	r3, r3, #52
 264 005c 0A46     		mov	r2, r1
 265 005e 1A70     		strb	r2, [r3]
 830:Generated_Source\PSoC6\pdl\rtos\FreeRTOS\9.0.0\Source/tasks.c **** 
 831:Generated_Source\PSoC6\pdl\rtos\FreeRTOS\9.0.0\Source/tasks.c **** 		/* Don't copy all configMAX_TASK_NAME_LEN if the string is shorter than
 832:Generated_Source\PSoC6\pdl\rtos\FreeRTOS\9.0.0\Source/tasks.c **** 		configMAX_TASK_NAME_LEN characters just in case the memory after the
 833:Generated_Source\PSoC6\pdl\rtos\FreeRTOS\9.0.0\Source/tasks.c **** 		string is not accessible (extremely unlikely). */
 834:Generated_Source\PSoC6\pdl\rtos\FreeRTOS\9.0.0\Source/tasks.c **** 		if( pcName[ x ] == 0x00 )
 266              		.loc 1 834 0
 267 0060 BA68     		ldr	r2, [r7, #8]
 268 0062 7B69     		ldr	r3, [r7, #20]
 269 0064 1344     		add	r3, r3, r2
 270 0066 1B78     		ldrb	r3, [r3]	@ zero_extendqisi2
 271 0068 002B     		cmp	r3, #0
 272 006a 06D0     		beq	.L20
 827:Generated_Source\PSoC6\pdl\rtos\FreeRTOS\9.0.0\Source/tasks.c **** 	{
 273              		.loc 1 827 0 discriminator 2
 274 006c 7B69     		ldr	r3, [r7, #20]
 275 006e 0133     		adds	r3, r3, #1
 276 0070 7B61     		str	r3, [r7, #20]
 277              	.L12:
 827:Generated_Source\PSoC6\pdl\rtos\FreeRTOS\9.0.0\Source/tasks.c **** 	{
 278              		.loc 1 827 0 is_stmt 0 discriminator 1
 279 0072 7B69     		ldr	r3, [r7, #20]
 280 0074 0F2B     		cmp	r3, #15
ARM GAS  C:\Users\ikomb\AppData\Local\Temp\ccNQc6m6.s 			page 21


 281 0076 E9D9     		bls	.L15
 282 0078 00E0     		b	.L14
 283              	.L20:
 835:Generated_Source\PSoC6\pdl\rtos\FreeRTOS\9.0.0\Source/tasks.c **** 		{
 836:Generated_Source\PSoC6\pdl\rtos\FreeRTOS\9.0.0\Source/tasks.c **** 			break;
 284              		.loc 1 836 0 is_stmt 1
 285 007a 00BF     		nop
 286              	.L14:
 837:Generated_Source\PSoC6\pdl\rtos\FreeRTOS\9.0.0\Source/tasks.c **** 		}
 838:Generated_Source\PSoC6\pdl\rtos\FreeRTOS\9.0.0\Source/tasks.c **** 		else
 839:Generated_Source\PSoC6\pdl\rtos\FreeRTOS\9.0.0\Source/tasks.c **** 		{
 840:Generated_Source\PSoC6\pdl\rtos\FreeRTOS\9.0.0\Source/tasks.c **** 			mtCOVERAGE_TEST_MARKER();
 841:Generated_Source\PSoC6\pdl\rtos\FreeRTOS\9.0.0\Source/tasks.c **** 		}
 842:Generated_Source\PSoC6\pdl\rtos\FreeRTOS\9.0.0\Source/tasks.c **** 	}
 843:Generated_Source\PSoC6\pdl\rtos\FreeRTOS\9.0.0\Source/tasks.c **** 
 844:Generated_Source\PSoC6\pdl\rtos\FreeRTOS\9.0.0\Source/tasks.c **** 	/* Ensure the name string is terminated in the case that the string length
 845:Generated_Source\PSoC6\pdl\rtos\FreeRTOS\9.0.0\Source/tasks.c **** 	was greater or equal to configMAX_TASK_NAME_LEN. */
 846:Generated_Source\PSoC6\pdl\rtos\FreeRTOS\9.0.0\Source/tasks.c **** 	pxNewTCB->pcTaskName[ configMAX_TASK_NAME_LEN - 1 ] = '\0';
 287              		.loc 1 846 0
 288 007c BB6A     		ldr	r3, [r7, #40]
 289 007e 0022     		movs	r2, #0
 290 0080 83F84320 		strb	r2, [r3, #67]
 847:Generated_Source\PSoC6\pdl\rtos\FreeRTOS\9.0.0\Source/tasks.c **** 
 848:Generated_Source\PSoC6\pdl\rtos\FreeRTOS\9.0.0\Source/tasks.c **** 	/* This is used as an array index so must ensure it's not too large.  First
 849:Generated_Source\PSoC6\pdl\rtos\FreeRTOS\9.0.0\Source/tasks.c **** 	remove the privilege bit if one is present. */
 850:Generated_Source\PSoC6\pdl\rtos\FreeRTOS\9.0.0\Source/tasks.c **** 	if( uxPriority >= ( UBaseType_t ) configMAX_PRIORITIES )
 291              		.loc 1 850 0
 292 0084 3B6A     		ldr	r3, [r7, #32]
 293 0086 062B     		cmp	r3, #6
 294 0088 01D9     		bls	.L16
 851:Generated_Source\PSoC6\pdl\rtos\FreeRTOS\9.0.0\Source/tasks.c **** 	{
 852:Generated_Source\PSoC6\pdl\rtos\FreeRTOS\9.0.0\Source/tasks.c **** 		uxPriority = ( UBaseType_t ) configMAX_PRIORITIES - ( UBaseType_t ) 1U;
 295              		.loc 1 852 0
 296 008a 0623     		movs	r3, #6
 297 008c 3B62     		str	r3, [r7, #32]
 298              	.L16:
 853:Generated_Source\PSoC6\pdl\rtos\FreeRTOS\9.0.0\Source/tasks.c **** 	}
 854:Generated_Source\PSoC6\pdl\rtos\FreeRTOS\9.0.0\Source/tasks.c **** 	else
 855:Generated_Source\PSoC6\pdl\rtos\FreeRTOS\9.0.0\Source/tasks.c **** 	{
 856:Generated_Source\PSoC6\pdl\rtos\FreeRTOS\9.0.0\Source/tasks.c **** 		mtCOVERAGE_TEST_MARKER();
 857:Generated_Source\PSoC6\pdl\rtos\FreeRTOS\9.0.0\Source/tasks.c **** 	}
 858:Generated_Source\PSoC6\pdl\rtos\FreeRTOS\9.0.0\Source/tasks.c **** 
 859:Generated_Source\PSoC6\pdl\rtos\FreeRTOS\9.0.0\Source/tasks.c **** 	pxNewTCB->uxPriority = uxPriority;
 299              		.loc 1 859 0
 300 008e BB6A     		ldr	r3, [r7, #40]
 301 0090 3A6A     		ldr	r2, [r7, #32]
 302 0092 DA62     		str	r2, [r3, #44]
 860:Generated_Source\PSoC6\pdl\rtos\FreeRTOS\9.0.0\Source/tasks.c **** 	#if ( configUSE_MUTEXES == 1 )
 861:Generated_Source\PSoC6\pdl\rtos\FreeRTOS\9.0.0\Source/tasks.c **** 	{
 862:Generated_Source\PSoC6\pdl\rtos\FreeRTOS\9.0.0\Source/tasks.c **** 		pxNewTCB->uxBasePriority = uxPriority;
 863:Generated_Source\PSoC6\pdl\rtos\FreeRTOS\9.0.0\Source/tasks.c **** 		pxNewTCB->uxMutexesHeld = 0;
 864:Generated_Source\PSoC6\pdl\rtos\FreeRTOS\9.0.0\Source/tasks.c **** 	}
 865:Generated_Source\PSoC6\pdl\rtos\FreeRTOS\9.0.0\Source/tasks.c **** 	#endif /* configUSE_MUTEXES */
 866:Generated_Source\PSoC6\pdl\rtos\FreeRTOS\9.0.0\Source/tasks.c **** 
 867:Generated_Source\PSoC6\pdl\rtos\FreeRTOS\9.0.0\Source/tasks.c **** 	vListInitialiseItem( &( pxNewTCB->xStateListItem ) );
 303              		.loc 1 867 0
 304 0094 BB6A     		ldr	r3, [r7, #40]
ARM GAS  C:\Users\ikomb\AppData\Local\Temp\ccNQc6m6.s 			page 22


 305 0096 0433     		adds	r3, r3, #4
 306 0098 1846     		mov	r0, r3
 307 009a FFF7FEFF 		bl	vListInitialiseItem
 868:Generated_Source\PSoC6\pdl\rtos\FreeRTOS\9.0.0\Source/tasks.c **** 	vListInitialiseItem( &( pxNewTCB->xEventListItem ) );
 308              		.loc 1 868 0
 309 009e BB6A     		ldr	r3, [r7, #40]
 310 00a0 1833     		adds	r3, r3, #24
 311 00a2 1846     		mov	r0, r3
 312 00a4 FFF7FEFF 		bl	vListInitialiseItem
 869:Generated_Source\PSoC6\pdl\rtos\FreeRTOS\9.0.0\Source/tasks.c **** 
 870:Generated_Source\PSoC6\pdl\rtos\FreeRTOS\9.0.0\Source/tasks.c **** 	/* Set the pxNewTCB as a link back from the ListItem_t.  This is so we can get
 871:Generated_Source\PSoC6\pdl\rtos\FreeRTOS\9.0.0\Source/tasks.c **** 	back to	the containing TCB from a generic item in a list. */
 872:Generated_Source\PSoC6\pdl\rtos\FreeRTOS\9.0.0\Source/tasks.c **** 	listSET_LIST_ITEM_OWNER( &( pxNewTCB->xStateListItem ), pxNewTCB );
 313              		.loc 1 872 0
 314 00a8 BB6A     		ldr	r3, [r7, #40]
 315 00aa BA6A     		ldr	r2, [r7, #40]
 316 00ac 1A61     		str	r2, [r3, #16]
 873:Generated_Source\PSoC6\pdl\rtos\FreeRTOS\9.0.0\Source/tasks.c **** 
 874:Generated_Source\PSoC6\pdl\rtos\FreeRTOS\9.0.0\Source/tasks.c **** 	/* Event lists are always in priority order. */
 875:Generated_Source\PSoC6\pdl\rtos\FreeRTOS\9.0.0\Source/tasks.c **** 	listSET_LIST_ITEM_VALUE( &( pxNewTCB->xEventListItem ), ( TickType_t ) configMAX_PRIORITIES - ( Ti
 317              		.loc 1 875 0
 318 00ae 3B6A     		ldr	r3, [r7, #32]
 319 00b0 C3F10702 		rsb	r2, r3, #7
 320 00b4 BB6A     		ldr	r3, [r7, #40]
 321 00b6 9A61     		str	r2, [r3, #24]
 876:Generated_Source\PSoC6\pdl\rtos\FreeRTOS\9.0.0\Source/tasks.c **** 	listSET_LIST_ITEM_OWNER( &( pxNewTCB->xEventListItem ), pxNewTCB );
 322              		.loc 1 876 0
 323 00b8 BB6A     		ldr	r3, [r7, #40]
 324 00ba BA6A     		ldr	r2, [r7, #40]
 325 00bc 5A62     		str	r2, [r3, #36]
 877:Generated_Source\PSoC6\pdl\rtos\FreeRTOS\9.0.0\Source/tasks.c **** 
 878:Generated_Source\PSoC6\pdl\rtos\FreeRTOS\9.0.0\Source/tasks.c **** 	#if ( portCRITICAL_NESTING_IN_TCB == 1 )
 879:Generated_Source\PSoC6\pdl\rtos\FreeRTOS\9.0.0\Source/tasks.c **** 	{
 880:Generated_Source\PSoC6\pdl\rtos\FreeRTOS\9.0.0\Source/tasks.c **** 		pxNewTCB->uxCriticalNesting = ( UBaseType_t ) 0U;
 881:Generated_Source\PSoC6\pdl\rtos\FreeRTOS\9.0.0\Source/tasks.c **** 	}
 882:Generated_Source\PSoC6\pdl\rtos\FreeRTOS\9.0.0\Source/tasks.c **** 	#endif /* portCRITICAL_NESTING_IN_TCB */
 883:Generated_Source\PSoC6\pdl\rtos\FreeRTOS\9.0.0\Source/tasks.c **** 
 884:Generated_Source\PSoC6\pdl\rtos\FreeRTOS\9.0.0\Source/tasks.c **** 	#if ( configUSE_APPLICATION_TASK_TAG == 1 )
 885:Generated_Source\PSoC6\pdl\rtos\FreeRTOS\9.0.0\Source/tasks.c **** 	{
 886:Generated_Source\PSoC6\pdl\rtos\FreeRTOS\9.0.0\Source/tasks.c **** 		pxNewTCB->pxTaskTag = NULL;
 887:Generated_Source\PSoC6\pdl\rtos\FreeRTOS\9.0.0\Source/tasks.c **** 	}
 888:Generated_Source\PSoC6\pdl\rtos\FreeRTOS\9.0.0\Source/tasks.c **** 	#endif /* configUSE_APPLICATION_TASK_TAG */
 889:Generated_Source\PSoC6\pdl\rtos\FreeRTOS\9.0.0\Source/tasks.c **** 
 890:Generated_Source\PSoC6\pdl\rtos\FreeRTOS\9.0.0\Source/tasks.c **** 	#if ( configGENERATE_RUN_TIME_STATS == 1 )
 891:Generated_Source\PSoC6\pdl\rtos\FreeRTOS\9.0.0\Source/tasks.c **** 	{
 892:Generated_Source\PSoC6\pdl\rtos\FreeRTOS\9.0.0\Source/tasks.c **** 		pxNewTCB->ulRunTimeCounter = 0UL;
 893:Generated_Source\PSoC6\pdl\rtos\FreeRTOS\9.0.0\Source/tasks.c **** 	}
 894:Generated_Source\PSoC6\pdl\rtos\FreeRTOS\9.0.0\Source/tasks.c **** 	#endif /* configGENERATE_RUN_TIME_STATS */
 895:Generated_Source\PSoC6\pdl\rtos\FreeRTOS\9.0.0\Source/tasks.c **** 
 896:Generated_Source\PSoC6\pdl\rtos\FreeRTOS\9.0.0\Source/tasks.c **** 	#if ( portUSING_MPU_WRAPPERS == 1 )
 897:Generated_Source\PSoC6\pdl\rtos\FreeRTOS\9.0.0\Source/tasks.c **** 	{
 898:Generated_Source\PSoC6\pdl\rtos\FreeRTOS\9.0.0\Source/tasks.c **** 		vPortStoreTaskMPUSettings( &( pxNewTCB->xMPUSettings ), xRegions, pxNewTCB->pxStack, ulStackDepth
 899:Generated_Source\PSoC6\pdl\rtos\FreeRTOS\9.0.0\Source/tasks.c **** 	}
 900:Generated_Source\PSoC6\pdl\rtos\FreeRTOS\9.0.0\Source/tasks.c **** 	#else
 901:Generated_Source\PSoC6\pdl\rtos\FreeRTOS\9.0.0\Source/tasks.c **** 	{
 902:Generated_Source\PSoC6\pdl\rtos\FreeRTOS\9.0.0\Source/tasks.c **** 		/* Avoid compiler warning about unreferenced parameter. */
 903:Generated_Source\PSoC6\pdl\rtos\FreeRTOS\9.0.0\Source/tasks.c **** 		( void ) xRegions;
ARM GAS  C:\Users\ikomb\AppData\Local\Temp\ccNQc6m6.s 			page 23


 904:Generated_Source\PSoC6\pdl\rtos\FreeRTOS\9.0.0\Source/tasks.c **** 	}
 905:Generated_Source\PSoC6\pdl\rtos\FreeRTOS\9.0.0\Source/tasks.c **** 	#endif
 906:Generated_Source\PSoC6\pdl\rtos\FreeRTOS\9.0.0\Source/tasks.c **** 
 907:Generated_Source\PSoC6\pdl\rtos\FreeRTOS\9.0.0\Source/tasks.c **** 	#if( configNUM_THREAD_LOCAL_STORAGE_POINTERS != 0 )
 908:Generated_Source\PSoC6\pdl\rtos\FreeRTOS\9.0.0\Source/tasks.c **** 	{
 909:Generated_Source\PSoC6\pdl\rtos\FreeRTOS\9.0.0\Source/tasks.c **** 		for( x = 0; x < ( UBaseType_t ) configNUM_THREAD_LOCAL_STORAGE_POINTERS; x++ )
 326              		.loc 1 909 0
 327 00be 0023     		movs	r3, #0
 328 00c0 7B61     		str	r3, [r7, #20]
 329 00c2 09E0     		b	.L17
 330              	.L18:
 910:Generated_Source\PSoC6\pdl\rtos\FreeRTOS\9.0.0\Source/tasks.c **** 		{
 911:Generated_Source\PSoC6\pdl\rtos\FreeRTOS\9.0.0\Source/tasks.c **** 			pxNewTCB->pvThreadLocalStoragePointers[ x ] = NULL;
 331              		.loc 1 911 0 discriminator 3
 332 00c4 BA6A     		ldr	r2, [r7, #40]
 333 00c6 7B69     		ldr	r3, [r7, #20]
 334 00c8 1033     		adds	r3, r3, #16
 335 00ca 9B00     		lsls	r3, r3, #2
 336 00cc 1344     		add	r3, r3, r2
 337 00ce 0022     		movs	r2, #0
 338 00d0 5A60     		str	r2, [r3, #4]
 909:Generated_Source\PSoC6\pdl\rtos\FreeRTOS\9.0.0\Source/tasks.c **** 		{
 339              		.loc 1 909 0 discriminator 3
 340 00d2 7B69     		ldr	r3, [r7, #20]
 341 00d4 0133     		adds	r3, r3, #1
 342 00d6 7B61     		str	r3, [r7, #20]
 343              	.L17:
 909:Generated_Source\PSoC6\pdl\rtos\FreeRTOS\9.0.0\Source/tasks.c **** 		{
 344              		.loc 1 909 0 is_stmt 0 discriminator 1
 345 00d8 7B69     		ldr	r3, [r7, #20]
 346 00da 042B     		cmp	r3, #4
 347 00dc F2D9     		bls	.L18
 912:Generated_Source\PSoC6\pdl\rtos\FreeRTOS\9.0.0\Source/tasks.c **** 		}
 913:Generated_Source\PSoC6\pdl\rtos\FreeRTOS\9.0.0\Source/tasks.c **** 	}
 914:Generated_Source\PSoC6\pdl\rtos\FreeRTOS\9.0.0\Source/tasks.c **** 	#endif
 915:Generated_Source\PSoC6\pdl\rtos\FreeRTOS\9.0.0\Source/tasks.c **** 
 916:Generated_Source\PSoC6\pdl\rtos\FreeRTOS\9.0.0\Source/tasks.c **** 	#if ( configUSE_TASK_NOTIFICATIONS == 1 )
 917:Generated_Source\PSoC6\pdl\rtos\FreeRTOS\9.0.0\Source/tasks.c **** 	{
 918:Generated_Source\PSoC6\pdl\rtos\FreeRTOS\9.0.0\Source/tasks.c **** 		pxNewTCB->ulNotifiedValue = 0;
 348              		.loc 1 918 0 is_stmt 1
 349 00de BB6A     		ldr	r3, [r7, #40]
 350 00e0 0022     		movs	r2, #0
 351 00e2 9A65     		str	r2, [r3, #88]
 919:Generated_Source\PSoC6\pdl\rtos\FreeRTOS\9.0.0\Source/tasks.c **** 		pxNewTCB->ucNotifyState = taskNOT_WAITING_NOTIFICATION;
 352              		.loc 1 919 0
 353 00e4 BB6A     		ldr	r3, [r7, #40]
 354 00e6 0022     		movs	r2, #0
 355 00e8 83F85C20 		strb	r2, [r3, #92]
 920:Generated_Source\PSoC6\pdl\rtos\FreeRTOS\9.0.0\Source/tasks.c **** 	}
 921:Generated_Source\PSoC6\pdl\rtos\FreeRTOS\9.0.0\Source/tasks.c **** 	#endif
 922:Generated_Source\PSoC6\pdl\rtos\FreeRTOS\9.0.0\Source/tasks.c **** 
 923:Generated_Source\PSoC6\pdl\rtos\FreeRTOS\9.0.0\Source/tasks.c **** 	#if ( configUSE_NEWLIB_REENTRANT == 1 )
 924:Generated_Source\PSoC6\pdl\rtos\FreeRTOS\9.0.0\Source/tasks.c **** 	{
 925:Generated_Source\PSoC6\pdl\rtos\FreeRTOS\9.0.0\Source/tasks.c **** 		/* Initialise this task's Newlib reent structure. */
 926:Generated_Source\PSoC6\pdl\rtos\FreeRTOS\9.0.0\Source/tasks.c **** 		_REENT_INIT_PTR( ( &( pxNewTCB->xNewLib_reent ) ) );
 927:Generated_Source\PSoC6\pdl\rtos\FreeRTOS\9.0.0\Source/tasks.c **** 	}
 928:Generated_Source\PSoC6\pdl\rtos\FreeRTOS\9.0.0\Source/tasks.c **** 	#endif
ARM GAS  C:\Users\ikomb\AppData\Local\Temp\ccNQc6m6.s 			page 24


 929:Generated_Source\PSoC6\pdl\rtos\FreeRTOS\9.0.0\Source/tasks.c **** 
 930:Generated_Source\PSoC6\pdl\rtos\FreeRTOS\9.0.0\Source/tasks.c **** 	#if( INCLUDE_xTaskAbortDelay == 1 )
 931:Generated_Source\PSoC6\pdl\rtos\FreeRTOS\9.0.0\Source/tasks.c **** 	{
 932:Generated_Source\PSoC6\pdl\rtos\FreeRTOS\9.0.0\Source/tasks.c **** 		pxNewTCB->ucDelayAborted = pdFALSE;
 933:Generated_Source\PSoC6\pdl\rtos\FreeRTOS\9.0.0\Source/tasks.c **** 	}
 934:Generated_Source\PSoC6\pdl\rtos\FreeRTOS\9.0.0\Source/tasks.c **** 	#endif
 935:Generated_Source\PSoC6\pdl\rtos\FreeRTOS\9.0.0\Source/tasks.c **** 
 936:Generated_Source\PSoC6\pdl\rtos\FreeRTOS\9.0.0\Source/tasks.c **** 	/* Initialize the TCB stack to look as if the task was already running,
 937:Generated_Source\PSoC6\pdl\rtos\FreeRTOS\9.0.0\Source/tasks.c **** 	but had been interrupted by the scheduler.  The return address is set
 938:Generated_Source\PSoC6\pdl\rtos\FreeRTOS\9.0.0\Source/tasks.c **** 	to the start of the task function. Once the stack has been initialised
 939:Generated_Source\PSoC6\pdl\rtos\FreeRTOS\9.0.0\Source/tasks.c **** 	the	top of stack variable is updated. */
 940:Generated_Source\PSoC6\pdl\rtos\FreeRTOS\9.0.0\Source/tasks.c **** 	#if( portUSING_MPU_WRAPPERS == 1 )
 941:Generated_Source\PSoC6\pdl\rtos\FreeRTOS\9.0.0\Source/tasks.c **** 	{
 942:Generated_Source\PSoC6\pdl\rtos\FreeRTOS\9.0.0\Source/tasks.c **** 		pxNewTCB->pxTopOfStack = pxPortInitialiseStack( pxTopOfStack, pxTaskCode, pvParameters, xRunPrivi
 943:Generated_Source\PSoC6\pdl\rtos\FreeRTOS\9.0.0\Source/tasks.c **** 	}
 944:Generated_Source\PSoC6\pdl\rtos\FreeRTOS\9.0.0\Source/tasks.c **** 	#else /* portUSING_MPU_WRAPPERS */
 945:Generated_Source\PSoC6\pdl\rtos\FreeRTOS\9.0.0\Source/tasks.c **** 	{
 946:Generated_Source\PSoC6\pdl\rtos\FreeRTOS\9.0.0\Source/tasks.c **** 		pxNewTCB->pxTopOfStack = pxPortInitialiseStack( pxTopOfStack, pxTaskCode, pvParameters );
 356              		.loc 1 946 0
 357 00ec 3A68     		ldr	r2, [r7]
 358 00ee F968     		ldr	r1, [r7, #12]
 359 00f0 3869     		ldr	r0, [r7, #16]
 360 00f2 FFF7FEFF 		bl	pxPortInitialiseStack
 361 00f6 0246     		mov	r2, r0
 362 00f8 BB6A     		ldr	r3, [r7, #40]
 363 00fa 1A60     		str	r2, [r3]
 947:Generated_Source\PSoC6\pdl\rtos\FreeRTOS\9.0.0\Source/tasks.c **** 	}
 948:Generated_Source\PSoC6\pdl\rtos\FreeRTOS\9.0.0\Source/tasks.c **** 	#endif /* portUSING_MPU_WRAPPERS */
 949:Generated_Source\PSoC6\pdl\rtos\FreeRTOS\9.0.0\Source/tasks.c **** 
 950:Generated_Source\PSoC6\pdl\rtos\FreeRTOS\9.0.0\Source/tasks.c **** 	if( ( void * ) pxCreatedTask != NULL )
 364              		.loc 1 950 0
 365 00fc 7B6A     		ldr	r3, [r7, #36]
 366 00fe 002B     		cmp	r3, #0
 367 0100 02D0     		beq	.L21
 951:Generated_Source\PSoC6\pdl\rtos\FreeRTOS\9.0.0\Source/tasks.c **** 	{
 952:Generated_Source\PSoC6\pdl\rtos\FreeRTOS\9.0.0\Source/tasks.c **** 		/* Pass the handle out in an anonymous way.  The handle can be used to
 953:Generated_Source\PSoC6\pdl\rtos\FreeRTOS\9.0.0\Source/tasks.c **** 		change the created task's priority, delete the created task, etc.*/
 954:Generated_Source\PSoC6\pdl\rtos\FreeRTOS\9.0.0\Source/tasks.c **** 		*pxCreatedTask = ( TaskHandle_t ) pxNewTCB;
 368              		.loc 1 954 0
 369 0102 7B6A     		ldr	r3, [r7, #36]
 370 0104 BA6A     		ldr	r2, [r7, #40]
 371 0106 1A60     		str	r2, [r3]
 372              	.L21:
 955:Generated_Source\PSoC6\pdl\rtos\FreeRTOS\9.0.0\Source/tasks.c **** 	}
 956:Generated_Source\PSoC6\pdl\rtos\FreeRTOS\9.0.0\Source/tasks.c **** 	else
 957:Generated_Source\PSoC6\pdl\rtos\FreeRTOS\9.0.0\Source/tasks.c **** 	{
 958:Generated_Source\PSoC6\pdl\rtos\FreeRTOS\9.0.0\Source/tasks.c **** 		mtCOVERAGE_TEST_MARKER();
 959:Generated_Source\PSoC6\pdl\rtos\FreeRTOS\9.0.0\Source/tasks.c **** 	}
 960:Generated_Source\PSoC6\pdl\rtos\FreeRTOS\9.0.0\Source/tasks.c **** }
 373              		.loc 1 960 0
 374 0108 00BF     		nop
 375 010a 1837     		adds	r7, r7, #24
 376              		.cfi_def_cfa_offset 8
 377 010c BD46     		mov	sp, r7
 378              		.cfi_def_cfa_register 13
 379              		@ sp needed
 380 010e 80BD     		pop	{r7, pc}
ARM GAS  C:\Users\ikomb\AppData\Local\Temp\ccNQc6m6.s 			page 25


 381              		.cfi_endproc
 382              	.LFE130:
 383              		.size	prvInitialiseNewTask, .-prvInitialiseNewTask
 384              		.section	.text.prvAddNewTaskToReadyList,"ax",%progbits
 385              		.align	2
 386              		.thumb
 387              		.thumb_func
 388              		.type	prvAddNewTaskToReadyList, %function
 389              	prvAddNewTaskToReadyList:
 390              	.LFB131:
 961:Generated_Source\PSoC6\pdl\rtos\FreeRTOS\9.0.0\Source/tasks.c **** /*-----------------------------------------------------------*/
 962:Generated_Source\PSoC6\pdl\rtos\FreeRTOS\9.0.0\Source/tasks.c **** 
 963:Generated_Source\PSoC6\pdl\rtos\FreeRTOS\9.0.0\Source/tasks.c **** static void prvAddNewTaskToReadyList( TCB_t *pxNewTCB )
 964:Generated_Source\PSoC6\pdl\rtos\FreeRTOS\9.0.0\Source/tasks.c **** {
 391              		.loc 1 964 0
 392              		.cfi_startproc
 393              		@ args = 0, pretend = 0, frame = 8
 394              		@ frame_needed = 1, uses_anonymous_args = 0
 395 0000 80B5     		push	{r7, lr}
 396              		.cfi_def_cfa_offset 8
 397              		.cfi_offset 7, -8
 398              		.cfi_offset 14, -4
 399 0002 82B0     		sub	sp, sp, #8
 400              		.cfi_def_cfa_offset 16
 401 0004 00AF     		add	r7, sp, #0
 402              		.cfi_def_cfa_register 7
 403 0006 7860     		str	r0, [r7, #4]
 965:Generated_Source\PSoC6\pdl\rtos\FreeRTOS\9.0.0\Source/tasks.c **** 	/* Ensure interrupts don't access the task lists while the lists are being
 966:Generated_Source\PSoC6\pdl\rtos\FreeRTOS\9.0.0\Source/tasks.c **** 	updated. */
 967:Generated_Source\PSoC6\pdl\rtos\FreeRTOS\9.0.0\Source/tasks.c **** 	taskENTER_CRITICAL();
 404              		.loc 1 967 0
 405 0008 FFF7FEFF 		bl	vPortEnterCritical
 968:Generated_Source\PSoC6\pdl\rtos\FreeRTOS\9.0.0\Source/tasks.c **** 	{
 969:Generated_Source\PSoC6\pdl\rtos\FreeRTOS\9.0.0\Source/tasks.c **** 		uxCurrentNumberOfTasks++;
 406              		.loc 1 969 0
 407 000c 2B4B     		ldr	r3, .L28
 408 000e 1B68     		ldr	r3, [r3]
 409 0010 0133     		adds	r3, r3, #1
 410 0012 2A4A     		ldr	r2, .L28
 411 0014 1360     		str	r3, [r2]
 970:Generated_Source\PSoC6\pdl\rtos\FreeRTOS\9.0.0\Source/tasks.c **** 		if( pxCurrentTCB == NULL )
 412              		.loc 1 970 0
 413 0016 2A4B     		ldr	r3, .L28+4
 414 0018 1B68     		ldr	r3, [r3]
 415 001a 002B     		cmp	r3, #0
 416 001c 09D1     		bne	.L23
 971:Generated_Source\PSoC6\pdl\rtos\FreeRTOS\9.0.0\Source/tasks.c **** 		{
 972:Generated_Source\PSoC6\pdl\rtos\FreeRTOS\9.0.0\Source/tasks.c **** 			/* There are no other tasks, or all the other tasks are in
 973:Generated_Source\PSoC6\pdl\rtos\FreeRTOS\9.0.0\Source/tasks.c **** 			the suspended state - make this the current task. */
 974:Generated_Source\PSoC6\pdl\rtos\FreeRTOS\9.0.0\Source/tasks.c **** 			pxCurrentTCB = pxNewTCB;
 417              		.loc 1 974 0
 418 001e 284A     		ldr	r2, .L28+4
 419 0020 7B68     		ldr	r3, [r7, #4]
 420 0022 1360     		str	r3, [r2]
 975:Generated_Source\PSoC6\pdl\rtos\FreeRTOS\9.0.0\Source/tasks.c **** 
 976:Generated_Source\PSoC6\pdl\rtos\FreeRTOS\9.0.0\Source/tasks.c **** 			if( uxCurrentNumberOfTasks == ( UBaseType_t ) 1 )
 421              		.loc 1 976 0
ARM GAS  C:\Users\ikomb\AppData\Local\Temp\ccNQc6m6.s 			page 26


 422 0024 254B     		ldr	r3, .L28
 423 0026 1B68     		ldr	r3, [r3]
 424 0028 012B     		cmp	r3, #1
 425 002a 10D1     		bne	.L24
 977:Generated_Source\PSoC6\pdl\rtos\FreeRTOS\9.0.0\Source/tasks.c **** 			{
 978:Generated_Source\PSoC6\pdl\rtos\FreeRTOS\9.0.0\Source/tasks.c **** 				/* This is the first task to be created so do the preliminary
 979:Generated_Source\PSoC6\pdl\rtos\FreeRTOS\9.0.0\Source/tasks.c **** 				initialisation required.  We will not recover if this call
 980:Generated_Source\PSoC6\pdl\rtos\FreeRTOS\9.0.0\Source/tasks.c **** 				fails, but we will report the failure. */
 981:Generated_Source\PSoC6\pdl\rtos\FreeRTOS\9.0.0\Source/tasks.c **** 				prvInitialiseTaskLists();
 426              		.loc 1 981 0
 427 002c FFF7FEFF 		bl	prvInitialiseTaskLists
 428 0030 0DE0     		b	.L24
 429              	.L23:
 982:Generated_Source\PSoC6\pdl\rtos\FreeRTOS\9.0.0\Source/tasks.c **** 			}
 983:Generated_Source\PSoC6\pdl\rtos\FreeRTOS\9.0.0\Source/tasks.c **** 			else
 984:Generated_Source\PSoC6\pdl\rtos\FreeRTOS\9.0.0\Source/tasks.c **** 			{
 985:Generated_Source\PSoC6\pdl\rtos\FreeRTOS\9.0.0\Source/tasks.c **** 				mtCOVERAGE_TEST_MARKER();
 986:Generated_Source\PSoC6\pdl\rtos\FreeRTOS\9.0.0\Source/tasks.c **** 			}
 987:Generated_Source\PSoC6\pdl\rtos\FreeRTOS\9.0.0\Source/tasks.c **** 		}
 988:Generated_Source\PSoC6\pdl\rtos\FreeRTOS\9.0.0\Source/tasks.c **** 		else
 989:Generated_Source\PSoC6\pdl\rtos\FreeRTOS\9.0.0\Source/tasks.c **** 		{
 990:Generated_Source\PSoC6\pdl\rtos\FreeRTOS\9.0.0\Source/tasks.c **** 			/* If the scheduler is not already running, make this task the
 991:Generated_Source\PSoC6\pdl\rtos\FreeRTOS\9.0.0\Source/tasks.c **** 			current task if it is the highest priority task to be created
 992:Generated_Source\PSoC6\pdl\rtos\FreeRTOS\9.0.0\Source/tasks.c **** 			so far. */
 993:Generated_Source\PSoC6\pdl\rtos\FreeRTOS\9.0.0\Source/tasks.c **** 			if( xSchedulerRunning == pdFALSE )
 430              		.loc 1 993 0
 431 0032 244B     		ldr	r3, .L28+8
 432 0034 1B68     		ldr	r3, [r3]
 433 0036 002B     		cmp	r3, #0
 434 0038 09D1     		bne	.L24
 994:Generated_Source\PSoC6\pdl\rtos\FreeRTOS\9.0.0\Source/tasks.c **** 			{
 995:Generated_Source\PSoC6\pdl\rtos\FreeRTOS\9.0.0\Source/tasks.c **** 				if( pxCurrentTCB->uxPriority <= pxNewTCB->uxPriority )
 435              		.loc 1 995 0
 436 003a 214B     		ldr	r3, .L28+4
 437 003c 1B68     		ldr	r3, [r3]
 438 003e DA6A     		ldr	r2, [r3, #44]
 439 0040 7B68     		ldr	r3, [r7, #4]
 440 0042 DB6A     		ldr	r3, [r3, #44]
 441 0044 9A42     		cmp	r2, r3
 442 0046 02D8     		bhi	.L24
 996:Generated_Source\PSoC6\pdl\rtos\FreeRTOS\9.0.0\Source/tasks.c **** 				{
 997:Generated_Source\PSoC6\pdl\rtos\FreeRTOS\9.0.0\Source/tasks.c **** 					pxCurrentTCB = pxNewTCB;
 443              		.loc 1 997 0
 444 0048 1D4A     		ldr	r2, .L28+4
 445 004a 7B68     		ldr	r3, [r7, #4]
 446 004c 1360     		str	r3, [r2]
 447              	.L24:
 998:Generated_Source\PSoC6\pdl\rtos\FreeRTOS\9.0.0\Source/tasks.c **** 				}
 999:Generated_Source\PSoC6\pdl\rtos\FreeRTOS\9.0.0\Source/tasks.c **** 				else
1000:Generated_Source\PSoC6\pdl\rtos\FreeRTOS\9.0.0\Source/tasks.c **** 				{
1001:Generated_Source\PSoC6\pdl\rtos\FreeRTOS\9.0.0\Source/tasks.c **** 					mtCOVERAGE_TEST_MARKER();
1002:Generated_Source\PSoC6\pdl\rtos\FreeRTOS\9.0.0\Source/tasks.c **** 				}
1003:Generated_Source\PSoC6\pdl\rtos\FreeRTOS\9.0.0\Source/tasks.c **** 			}
1004:Generated_Source\PSoC6\pdl\rtos\FreeRTOS\9.0.0\Source/tasks.c **** 			else
1005:Generated_Source\PSoC6\pdl\rtos\FreeRTOS\9.0.0\Source/tasks.c **** 			{
1006:Generated_Source\PSoC6\pdl\rtos\FreeRTOS\9.0.0\Source/tasks.c **** 				mtCOVERAGE_TEST_MARKER();
1007:Generated_Source\PSoC6\pdl\rtos\FreeRTOS\9.0.0\Source/tasks.c **** 			}
ARM GAS  C:\Users\ikomb\AppData\Local\Temp\ccNQc6m6.s 			page 27


1008:Generated_Source\PSoC6\pdl\rtos\FreeRTOS\9.0.0\Source/tasks.c **** 		}
1009:Generated_Source\PSoC6\pdl\rtos\FreeRTOS\9.0.0\Source/tasks.c **** 
1010:Generated_Source\PSoC6\pdl\rtos\FreeRTOS\9.0.0\Source/tasks.c **** 		uxTaskNumber++;
 448              		.loc 1 1010 0
 449 004e 1E4B     		ldr	r3, .L28+12
 450 0050 1B68     		ldr	r3, [r3]
 451 0052 0133     		adds	r3, r3, #1
 452 0054 1C4A     		ldr	r2, .L28+12
 453 0056 1360     		str	r3, [r2]
1011:Generated_Source\PSoC6\pdl\rtos\FreeRTOS\9.0.0\Source/tasks.c **** 
1012:Generated_Source\PSoC6\pdl\rtos\FreeRTOS\9.0.0\Source/tasks.c **** 		#if ( configUSE_TRACE_FACILITY == 1 )
1013:Generated_Source\PSoC6\pdl\rtos\FreeRTOS\9.0.0\Source/tasks.c **** 		{
1014:Generated_Source\PSoC6\pdl\rtos\FreeRTOS\9.0.0\Source/tasks.c **** 			/* Add a counter into the TCB for tracing only. */
1015:Generated_Source\PSoC6\pdl\rtos\FreeRTOS\9.0.0\Source/tasks.c **** 			pxNewTCB->uxTCBNumber = uxTaskNumber;
1016:Generated_Source\PSoC6\pdl\rtos\FreeRTOS\9.0.0\Source/tasks.c **** 		}
1017:Generated_Source\PSoC6\pdl\rtos\FreeRTOS\9.0.0\Source/tasks.c **** 		#endif /* configUSE_TRACE_FACILITY */
1018:Generated_Source\PSoC6\pdl\rtos\FreeRTOS\9.0.0\Source/tasks.c **** 		traceTASK_CREATE( pxNewTCB );
1019:Generated_Source\PSoC6\pdl\rtos\FreeRTOS\9.0.0\Source/tasks.c **** 
1020:Generated_Source\PSoC6\pdl\rtos\FreeRTOS\9.0.0\Source/tasks.c **** 		prvAddTaskToReadyList( pxNewTCB );
 454              		.loc 1 1020 0
 455 0058 7B68     		ldr	r3, [r7, #4]
 456 005a DA6A     		ldr	r2, [r3, #44]
 457 005c 1B4B     		ldr	r3, .L28+16
 458 005e 1B68     		ldr	r3, [r3]
 459 0060 9A42     		cmp	r2, r3
 460 0062 03D9     		bls	.L25
 461              		.loc 1 1020 0 is_stmt 0 discriminator 1
 462 0064 7B68     		ldr	r3, [r7, #4]
 463 0066 DB6A     		ldr	r3, [r3, #44]
 464 0068 184A     		ldr	r2, .L28+16
 465 006a 1360     		str	r3, [r2]
 466              	.L25:
 467              		.loc 1 1020 0 discriminator 3
 468 006c 7B68     		ldr	r3, [r7, #4]
 469 006e DA6A     		ldr	r2, [r3, #44]
 470 0070 1346     		mov	r3, r2
 471 0072 9B00     		lsls	r3, r3, #2
 472 0074 1344     		add	r3, r3, r2
 473 0076 9B00     		lsls	r3, r3, #2
 474 0078 154A     		ldr	r2, .L28+20
 475 007a 1A44     		add	r2, r2, r3
 476 007c 7B68     		ldr	r3, [r7, #4]
 477 007e 0433     		adds	r3, r3, #4
 478 0080 1946     		mov	r1, r3
 479 0082 1046     		mov	r0, r2
 480 0084 FFF7FEFF 		bl	vListInsertEnd
1021:Generated_Source\PSoC6\pdl\rtos\FreeRTOS\9.0.0\Source/tasks.c **** 
1022:Generated_Source\PSoC6\pdl\rtos\FreeRTOS\9.0.0\Source/tasks.c **** 		portSETUP_TCB( pxNewTCB );
1023:Generated_Source\PSoC6\pdl\rtos\FreeRTOS\9.0.0\Source/tasks.c **** 	}
1024:Generated_Source\PSoC6\pdl\rtos\FreeRTOS\9.0.0\Source/tasks.c **** 	taskEXIT_CRITICAL();
 481              		.loc 1 1024 0 is_stmt 1 discriminator 3
 482 0088 FFF7FEFF 		bl	vPortExitCritical
1025:Generated_Source\PSoC6\pdl\rtos\FreeRTOS\9.0.0\Source/tasks.c **** 
1026:Generated_Source\PSoC6\pdl\rtos\FreeRTOS\9.0.0\Source/tasks.c **** 	if( xSchedulerRunning != pdFALSE )
 483              		.loc 1 1026 0 discriminator 3
 484 008c 0D4B     		ldr	r3, .L28+8
 485 008e 1B68     		ldr	r3, [r3]
ARM GAS  C:\Users\ikomb\AppData\Local\Temp\ccNQc6m6.s 			page 28


 486 0090 002B     		cmp	r3, #0
 487 0092 0ED0     		beq	.L27
1027:Generated_Source\PSoC6\pdl\rtos\FreeRTOS\9.0.0\Source/tasks.c **** 	{
1028:Generated_Source\PSoC6\pdl\rtos\FreeRTOS\9.0.0\Source/tasks.c **** 		/* If the created task is of a higher priority than the current task
1029:Generated_Source\PSoC6\pdl\rtos\FreeRTOS\9.0.0\Source/tasks.c **** 		then it should run now. */
1030:Generated_Source\PSoC6\pdl\rtos\FreeRTOS\9.0.0\Source/tasks.c **** 		if( pxCurrentTCB->uxPriority < pxNewTCB->uxPriority )
 488              		.loc 1 1030 0
 489 0094 0A4B     		ldr	r3, .L28+4
 490 0096 1B68     		ldr	r3, [r3]
 491 0098 DA6A     		ldr	r2, [r3, #44]
 492 009a 7B68     		ldr	r3, [r7, #4]
 493 009c DB6A     		ldr	r3, [r3, #44]
 494 009e 9A42     		cmp	r2, r3
 495 00a0 07D2     		bcs	.L27
1031:Generated_Source\PSoC6\pdl\rtos\FreeRTOS\9.0.0\Source/tasks.c **** 		{
1032:Generated_Source\PSoC6\pdl\rtos\FreeRTOS\9.0.0\Source/tasks.c **** 			taskYIELD_IF_USING_PREEMPTION();
 496              		.loc 1 1032 0
 497 00a2 0C4B     		ldr	r3, .L28+24
 498 00a4 4FF08052 		mov	r2, #268435456
 499 00a8 1A60     		str	r2, [r3]
 500              		.syntax unified
 501              	@ 1032 "Generated_Source\PSoC6\pdl\rtos\FreeRTOS\9.0.0\Source\tasks.c" 1
 502 00aa BFF34F8F 		dsb
 503              	@ 0 "" 2
 504              	@ 1032 "Generated_Source\PSoC6\pdl\rtos\FreeRTOS\9.0.0\Source\tasks.c" 1
 505 00ae BFF36F8F 		isb
 506              	@ 0 "" 2
 507              		.thumb
 508              		.syntax unified
 509              	.L27:
1033:Generated_Source\PSoC6\pdl\rtos\FreeRTOS\9.0.0\Source/tasks.c **** 		}
1034:Generated_Source\PSoC6\pdl\rtos\FreeRTOS\9.0.0\Source/tasks.c **** 		else
1035:Generated_Source\PSoC6\pdl\rtos\FreeRTOS\9.0.0\Source/tasks.c **** 		{
1036:Generated_Source\PSoC6\pdl\rtos\FreeRTOS\9.0.0\Source/tasks.c **** 			mtCOVERAGE_TEST_MARKER();
1037:Generated_Source\PSoC6\pdl\rtos\FreeRTOS\9.0.0\Source/tasks.c **** 		}
1038:Generated_Source\PSoC6\pdl\rtos\FreeRTOS\9.0.0\Source/tasks.c **** 	}
1039:Generated_Source\PSoC6\pdl\rtos\FreeRTOS\9.0.0\Source/tasks.c **** 	else
1040:Generated_Source\PSoC6\pdl\rtos\FreeRTOS\9.0.0\Source/tasks.c **** 	{
1041:Generated_Source\PSoC6\pdl\rtos\FreeRTOS\9.0.0\Source/tasks.c **** 		mtCOVERAGE_TEST_MARKER();
1042:Generated_Source\PSoC6\pdl\rtos\FreeRTOS\9.0.0\Source/tasks.c **** 	}
1043:Generated_Source\PSoC6\pdl\rtos\FreeRTOS\9.0.0\Source/tasks.c **** }
 510              		.loc 1 1043 0
 511 00b2 00BF     		nop
 512 00b4 0837     		adds	r7, r7, #8
 513              		.cfi_def_cfa_offset 8
 514 00b6 BD46     		mov	sp, r7
 515              		.cfi_def_cfa_register 13
 516              		@ sp needed
 517 00b8 80BD     		pop	{r7, pc}
 518              	.L29:
 519 00ba 00BF     		.align	2
 520              	.L28:
 521 00bc 00010000 		.word	uxCurrentNumberOfTasks
 522 00c0 00000000 		.word	pxCurrentTCB
 523 00c4 0C010000 		.word	xSchedulerRunning
 524 00c8 1C010000 		.word	uxTaskNumber
 525 00cc 08010000 		.word	uxTopReadyPriority
ARM GAS  C:\Users\ikomb\AppData\Local\Temp\ccNQc6m6.s 			page 29


 526 00d0 04000000 		.word	pxReadyTasksLists
 527 00d4 04ED00E0 		.word	-536810236
 528              		.cfi_endproc
 529              	.LFE131:
 530              		.size	prvAddNewTaskToReadyList, .-prvAddNewTaskToReadyList
 531              		.section	.text.vTaskDelete,"ax",%progbits
 532              		.align	2
 533              		.global	vTaskDelete
 534              		.thumb
 535              		.thumb_func
 536              		.type	vTaskDelete, %function
 537              	vTaskDelete:
 538              	.LFB132:
1044:Generated_Source\PSoC6\pdl\rtos\FreeRTOS\9.0.0\Source/tasks.c **** /*-----------------------------------------------------------*/
1045:Generated_Source\PSoC6\pdl\rtos\FreeRTOS\9.0.0\Source/tasks.c **** 
1046:Generated_Source\PSoC6\pdl\rtos\FreeRTOS\9.0.0\Source/tasks.c **** #if ( INCLUDE_vTaskDelete == 1 )
1047:Generated_Source\PSoC6\pdl\rtos\FreeRTOS\9.0.0\Source/tasks.c **** 
1048:Generated_Source\PSoC6\pdl\rtos\FreeRTOS\9.0.0\Source/tasks.c **** 	void vTaskDelete( TaskHandle_t xTaskToDelete )
1049:Generated_Source\PSoC6\pdl\rtos\FreeRTOS\9.0.0\Source/tasks.c **** 	{
 539              		.loc 1 1049 0
 540              		.cfi_startproc
 541              		@ args = 0, pretend = 0, frame = 16
 542              		@ frame_needed = 1, uses_anonymous_args = 0
 543 0000 80B5     		push	{r7, lr}
 544              		.cfi_def_cfa_offset 8
 545              		.cfi_offset 7, -8
 546              		.cfi_offset 14, -4
 547 0002 84B0     		sub	sp, sp, #16
 548              		.cfi_def_cfa_offset 24
 549 0004 00AF     		add	r7, sp, #0
 550              		.cfi_def_cfa_register 7
 551 0006 7860     		str	r0, [r7, #4]
1050:Generated_Source\PSoC6\pdl\rtos\FreeRTOS\9.0.0\Source/tasks.c **** 	TCB_t *pxTCB;
1051:Generated_Source\PSoC6\pdl\rtos\FreeRTOS\9.0.0\Source/tasks.c **** 
1052:Generated_Source\PSoC6\pdl\rtos\FreeRTOS\9.0.0\Source/tasks.c **** 		taskENTER_CRITICAL();
 552              		.loc 1 1052 0
 553 0008 FFF7FEFF 		bl	vPortEnterCritical
1053:Generated_Source\PSoC6\pdl\rtos\FreeRTOS\9.0.0\Source/tasks.c **** 		{
1054:Generated_Source\PSoC6\pdl\rtos\FreeRTOS\9.0.0\Source/tasks.c **** 			/* If null is passed in here then it is the calling task that is
1055:Generated_Source\PSoC6\pdl\rtos\FreeRTOS\9.0.0\Source/tasks.c **** 			being deleted. */
1056:Generated_Source\PSoC6\pdl\rtos\FreeRTOS\9.0.0\Source/tasks.c **** 			pxTCB = prvGetTCBFromHandle( xTaskToDelete );
 554              		.loc 1 1056 0
 555 000c 7B68     		ldr	r3, [r7, #4]
 556 000e 002B     		cmp	r3, #0
 557 0010 02D1     		bne	.L31
 558              		.loc 1 1056 0 is_stmt 0 discriminator 1
 559 0012 284B     		ldr	r3, .L40
 560 0014 1B68     		ldr	r3, [r3]
 561 0016 00E0     		b	.L32
 562              	.L31:
 563              		.loc 1 1056 0 discriminator 2
 564 0018 7B68     		ldr	r3, [r7, #4]
 565              	.L32:
 566              		.loc 1 1056 0 discriminator 4
 567 001a FB60     		str	r3, [r7, #12]
1057:Generated_Source\PSoC6\pdl\rtos\FreeRTOS\9.0.0\Source/tasks.c **** 
1058:Generated_Source\PSoC6\pdl\rtos\FreeRTOS\9.0.0\Source/tasks.c **** 			/* Remove task from the ready list. */
ARM GAS  C:\Users\ikomb\AppData\Local\Temp\ccNQc6m6.s 			page 30


1059:Generated_Source\PSoC6\pdl\rtos\FreeRTOS\9.0.0\Source/tasks.c **** 			if( uxListRemove( &( pxTCB->xStateListItem ) ) == ( UBaseType_t ) 0 )
 568              		.loc 1 1059 0 is_stmt 1 discriminator 4
 569 001c FB68     		ldr	r3, [r7, #12]
 570 001e 0433     		adds	r3, r3, #4
 571 0020 1846     		mov	r0, r3
 572 0022 FFF7FEFF 		bl	uxListRemove
1060:Generated_Source\PSoC6\pdl\rtos\FreeRTOS\9.0.0\Source/tasks.c **** 			{
1061:Generated_Source\PSoC6\pdl\rtos\FreeRTOS\9.0.0\Source/tasks.c **** 				taskRESET_READY_PRIORITY( pxTCB->uxPriority );
1062:Generated_Source\PSoC6\pdl\rtos\FreeRTOS\9.0.0\Source/tasks.c **** 			}
1063:Generated_Source\PSoC6\pdl\rtos\FreeRTOS\9.0.0\Source/tasks.c **** 			else
1064:Generated_Source\PSoC6\pdl\rtos\FreeRTOS\9.0.0\Source/tasks.c **** 			{
1065:Generated_Source\PSoC6\pdl\rtos\FreeRTOS\9.0.0\Source/tasks.c **** 				mtCOVERAGE_TEST_MARKER();
1066:Generated_Source\PSoC6\pdl\rtos\FreeRTOS\9.0.0\Source/tasks.c **** 			}
1067:Generated_Source\PSoC6\pdl\rtos\FreeRTOS\9.0.0\Source/tasks.c **** 
1068:Generated_Source\PSoC6\pdl\rtos\FreeRTOS\9.0.0\Source/tasks.c **** 			/* Is the task waiting on an event also? */
1069:Generated_Source\PSoC6\pdl\rtos\FreeRTOS\9.0.0\Source/tasks.c **** 			if( listLIST_ITEM_CONTAINER( &( pxTCB->xEventListItem ) ) != NULL )
 573              		.loc 1 1069 0 discriminator 4
 574 0026 FB68     		ldr	r3, [r7, #12]
 575 0028 9B6A     		ldr	r3, [r3, #40]
 576 002a 002B     		cmp	r3, #0
 577 002c 04D0     		beq	.L33
1070:Generated_Source\PSoC6\pdl\rtos\FreeRTOS\9.0.0\Source/tasks.c **** 			{
1071:Generated_Source\PSoC6\pdl\rtos\FreeRTOS\9.0.0\Source/tasks.c **** 				( void ) uxListRemove( &( pxTCB->xEventListItem ) );
 578              		.loc 1 1071 0
 579 002e FB68     		ldr	r3, [r7, #12]
 580 0030 1833     		adds	r3, r3, #24
 581 0032 1846     		mov	r0, r3
 582 0034 FFF7FEFF 		bl	uxListRemove
 583              	.L33:
1072:Generated_Source\PSoC6\pdl\rtos\FreeRTOS\9.0.0\Source/tasks.c **** 			}
1073:Generated_Source\PSoC6\pdl\rtos\FreeRTOS\9.0.0\Source/tasks.c **** 			else
1074:Generated_Source\PSoC6\pdl\rtos\FreeRTOS\9.0.0\Source/tasks.c **** 			{
1075:Generated_Source\PSoC6\pdl\rtos\FreeRTOS\9.0.0\Source/tasks.c **** 				mtCOVERAGE_TEST_MARKER();
1076:Generated_Source\PSoC6\pdl\rtos\FreeRTOS\9.0.0\Source/tasks.c **** 			}
1077:Generated_Source\PSoC6\pdl\rtos\FreeRTOS\9.0.0\Source/tasks.c **** 
1078:Generated_Source\PSoC6\pdl\rtos\FreeRTOS\9.0.0\Source/tasks.c **** 			/* Increment the uxTaskNumber also so kernel aware debuggers can
1079:Generated_Source\PSoC6\pdl\rtos\FreeRTOS\9.0.0\Source/tasks.c **** 			detect that the task lists need re-generating.  This is done before
1080:Generated_Source\PSoC6\pdl\rtos\FreeRTOS\9.0.0\Source/tasks.c **** 			portPRE_TASK_DELETE_HOOK() as in the Windows port that macro will
1081:Generated_Source\PSoC6\pdl\rtos\FreeRTOS\9.0.0\Source/tasks.c **** 			not return. */
1082:Generated_Source\PSoC6\pdl\rtos\FreeRTOS\9.0.0\Source/tasks.c **** 			uxTaskNumber++;
 584              		.loc 1 1082 0
 585 0038 1F4B     		ldr	r3, .L40+4
 586 003a 1B68     		ldr	r3, [r3]
 587 003c 0133     		adds	r3, r3, #1
 588 003e 1E4A     		ldr	r2, .L40+4
 589 0040 1360     		str	r3, [r2]
1083:Generated_Source\PSoC6\pdl\rtos\FreeRTOS\9.0.0\Source/tasks.c **** 
1084:Generated_Source\PSoC6\pdl\rtos\FreeRTOS\9.0.0\Source/tasks.c **** 			if( pxTCB == pxCurrentTCB )
 590              		.loc 1 1084 0
 591 0042 1C4B     		ldr	r3, .L40
 592 0044 1B68     		ldr	r3, [r3]
 593 0046 FA68     		ldr	r2, [r7, #12]
 594 0048 9A42     		cmp	r2, r3
 595 004a 0BD1     		bne	.L34
1085:Generated_Source\PSoC6\pdl\rtos\FreeRTOS\9.0.0\Source/tasks.c **** 			{
1086:Generated_Source\PSoC6\pdl\rtos\FreeRTOS\9.0.0\Source/tasks.c **** 				/* A task is deleting itself.  This cannot complete within the
1087:Generated_Source\PSoC6\pdl\rtos\FreeRTOS\9.0.0\Source/tasks.c **** 				task itself, as a context switch to another task is required.
ARM GAS  C:\Users\ikomb\AppData\Local\Temp\ccNQc6m6.s 			page 31


1088:Generated_Source\PSoC6\pdl\rtos\FreeRTOS\9.0.0\Source/tasks.c **** 				Place the task in the termination list.  The idle task will
1089:Generated_Source\PSoC6\pdl\rtos\FreeRTOS\9.0.0\Source/tasks.c **** 				check the termination list and free up any memory allocated by
1090:Generated_Source\PSoC6\pdl\rtos\FreeRTOS\9.0.0\Source/tasks.c **** 				the scheduler for the TCB and stack of the deleted task. */
1091:Generated_Source\PSoC6\pdl\rtos\FreeRTOS\9.0.0\Source/tasks.c **** 				vListInsertEnd( &xTasksWaitingTermination, &( pxTCB->xStateListItem ) );
 596              		.loc 1 1091 0
 597 004c FB68     		ldr	r3, [r7, #12]
 598 004e 0433     		adds	r3, r3, #4
 599 0050 1946     		mov	r1, r3
 600 0052 1A48     		ldr	r0, .L40+8
 601 0054 FFF7FEFF 		bl	vListInsertEnd
1092:Generated_Source\PSoC6\pdl\rtos\FreeRTOS\9.0.0\Source/tasks.c **** 
1093:Generated_Source\PSoC6\pdl\rtos\FreeRTOS\9.0.0\Source/tasks.c **** 				/* Increment the ucTasksDeleted variable so the idle task knows
1094:Generated_Source\PSoC6\pdl\rtos\FreeRTOS\9.0.0\Source/tasks.c **** 				there is a task that has been deleted and that it should therefore
1095:Generated_Source\PSoC6\pdl\rtos\FreeRTOS\9.0.0\Source/tasks.c **** 				check the xTasksWaitingTermination list. */
1096:Generated_Source\PSoC6\pdl\rtos\FreeRTOS\9.0.0\Source/tasks.c **** 				++uxDeletedTasksWaitingCleanUp;
 602              		.loc 1 1096 0
 603 0058 194B     		ldr	r3, .L40+12
 604 005a 1B68     		ldr	r3, [r3]
 605 005c 0133     		adds	r3, r3, #1
 606 005e 184A     		ldr	r2, .L40+12
 607 0060 1360     		str	r3, [r2]
 608 0062 09E0     		b	.L35
 609              	.L34:
1097:Generated_Source\PSoC6\pdl\rtos\FreeRTOS\9.0.0\Source/tasks.c **** 
1098:Generated_Source\PSoC6\pdl\rtos\FreeRTOS\9.0.0\Source/tasks.c **** 				/* The pre-delete hook is primarily for the Windows simulator,
1099:Generated_Source\PSoC6\pdl\rtos\FreeRTOS\9.0.0\Source/tasks.c **** 				in which Windows specific clean up operations are performed,
1100:Generated_Source\PSoC6\pdl\rtos\FreeRTOS\9.0.0\Source/tasks.c **** 				after which it is not possible to yield away from this task -
1101:Generated_Source\PSoC6\pdl\rtos\FreeRTOS\9.0.0\Source/tasks.c **** 				hence xYieldPending is used to latch that a context switch is
1102:Generated_Source\PSoC6\pdl\rtos\FreeRTOS\9.0.0\Source/tasks.c **** 				required. */
1103:Generated_Source\PSoC6\pdl\rtos\FreeRTOS\9.0.0\Source/tasks.c **** 				portPRE_TASK_DELETE_HOOK( pxTCB, &xYieldPending );
1104:Generated_Source\PSoC6\pdl\rtos\FreeRTOS\9.0.0\Source/tasks.c **** 			}
1105:Generated_Source\PSoC6\pdl\rtos\FreeRTOS\9.0.0\Source/tasks.c **** 			else
1106:Generated_Source\PSoC6\pdl\rtos\FreeRTOS\9.0.0\Source/tasks.c **** 			{
1107:Generated_Source\PSoC6\pdl\rtos\FreeRTOS\9.0.0\Source/tasks.c **** 				--uxCurrentNumberOfTasks;
 610              		.loc 1 1107 0
 611 0064 174B     		ldr	r3, .L40+16
 612 0066 1B68     		ldr	r3, [r3]
 613 0068 013B     		subs	r3, r3, #1
 614 006a 164A     		ldr	r2, .L40+16
 615 006c 1360     		str	r3, [r2]
1108:Generated_Source\PSoC6\pdl\rtos\FreeRTOS\9.0.0\Source/tasks.c **** 				prvDeleteTCB( pxTCB );
 616              		.loc 1 1108 0
 617 006e F868     		ldr	r0, [r7, #12]
 618 0070 FFF7FEFF 		bl	prvDeleteTCB
1109:Generated_Source\PSoC6\pdl\rtos\FreeRTOS\9.0.0\Source/tasks.c **** 
1110:Generated_Source\PSoC6\pdl\rtos\FreeRTOS\9.0.0\Source/tasks.c **** 				/* Reset the next expected unblock time in case it referred to
1111:Generated_Source\PSoC6\pdl\rtos\FreeRTOS\9.0.0\Source/tasks.c **** 				the task that has just been deleted. */
1112:Generated_Source\PSoC6\pdl\rtos\FreeRTOS\9.0.0\Source/tasks.c **** 				prvResetNextTaskUnblockTime();
 619              		.loc 1 1112 0
 620 0074 FFF7FEFF 		bl	prvResetNextTaskUnblockTime
 621              	.L35:
1113:Generated_Source\PSoC6\pdl\rtos\FreeRTOS\9.0.0\Source/tasks.c **** 			}
1114:Generated_Source\PSoC6\pdl\rtos\FreeRTOS\9.0.0\Source/tasks.c **** 
1115:Generated_Source\PSoC6\pdl\rtos\FreeRTOS\9.0.0\Source/tasks.c **** 			traceTASK_DELETE( pxTCB );
1116:Generated_Source\PSoC6\pdl\rtos\FreeRTOS\9.0.0\Source/tasks.c **** 		}
1117:Generated_Source\PSoC6\pdl\rtos\FreeRTOS\9.0.0\Source/tasks.c **** 		taskEXIT_CRITICAL();
 622              		.loc 1 1117 0
ARM GAS  C:\Users\ikomb\AppData\Local\Temp\ccNQc6m6.s 			page 32


 623 0078 FFF7FEFF 		bl	vPortExitCritical
1118:Generated_Source\PSoC6\pdl\rtos\FreeRTOS\9.0.0\Source/tasks.c **** 
1119:Generated_Source\PSoC6\pdl\rtos\FreeRTOS\9.0.0\Source/tasks.c **** 		/* Force a reschedule if it is the currently running task that has just
1120:Generated_Source\PSoC6\pdl\rtos\FreeRTOS\9.0.0\Source/tasks.c **** 		been deleted. */
1121:Generated_Source\PSoC6\pdl\rtos\FreeRTOS\9.0.0\Source/tasks.c **** 		if( xSchedulerRunning != pdFALSE )
 624              		.loc 1 1121 0
 625 007c 124B     		ldr	r3, .L40+20
 626 007e 1B68     		ldr	r3, [r3]
 627 0080 002B     		cmp	r3, #0
 628 0082 12D0     		beq	.L39
1122:Generated_Source\PSoC6\pdl\rtos\FreeRTOS\9.0.0\Source/tasks.c **** 		{
1123:Generated_Source\PSoC6\pdl\rtos\FreeRTOS\9.0.0\Source/tasks.c **** 			if( pxTCB == pxCurrentTCB )
 629              		.loc 1 1123 0
 630 0084 0B4B     		ldr	r3, .L40
 631 0086 1B68     		ldr	r3, [r3]
 632 0088 FA68     		ldr	r2, [r7, #12]
 633 008a 9A42     		cmp	r2, r3
 634 008c 0DD1     		bne	.L39
1124:Generated_Source\PSoC6\pdl\rtos\FreeRTOS\9.0.0\Source/tasks.c **** 			{
1125:Generated_Source\PSoC6\pdl\rtos\FreeRTOS\9.0.0\Source/tasks.c **** 				configASSERT( uxSchedulerSuspended == 0 );
 635              		.loc 1 1125 0
 636 008e 0F4B     		ldr	r3, .L40+24
 637 0090 1B68     		ldr	r3, [r3]
 638 0092 002B     		cmp	r3, #0
 639 0094 01D0     		beq	.L37
 640              		.loc 1 1125 0 is_stmt 0 discriminator 1
 641              		.syntax unified
 642              	@ 1125 "Generated_Source\PSoC6\pdl\rtos\FreeRTOS\9.0.0\Source\tasks.c" 1
 643 0096 72B6     		 cpsid i 
 644              	@ 0 "" 2
 645              		.thumb
 646              		.syntax unified
 647              	.L38:
 648 0098 FEE7     		b	.L38
 649              	.L37:
1126:Generated_Source\PSoC6\pdl\rtos\FreeRTOS\9.0.0\Source/tasks.c **** 				portYIELD_WITHIN_API();
 650              		.loc 1 1126 0 is_stmt 1
 651 009a 0D4B     		ldr	r3, .L40+28
 652 009c 4FF08052 		mov	r2, #268435456
 653 00a0 1A60     		str	r2, [r3]
 654              		.syntax unified
 655              	@ 1126 "Generated_Source\PSoC6\pdl\rtos\FreeRTOS\9.0.0\Source\tasks.c" 1
 656 00a2 BFF34F8F 		dsb
 657              	@ 0 "" 2
 658              	@ 1126 "Generated_Source\PSoC6\pdl\rtos\FreeRTOS\9.0.0\Source\tasks.c" 1
 659 00a6 BFF36F8F 		isb
 660              	@ 0 "" 2
 661              		.thumb
 662              		.syntax unified
 663              	.L39:
1127:Generated_Source\PSoC6\pdl\rtos\FreeRTOS\9.0.0\Source/tasks.c **** 			}
1128:Generated_Source\PSoC6\pdl\rtos\FreeRTOS\9.0.0\Source/tasks.c **** 			else
1129:Generated_Source\PSoC6\pdl\rtos\FreeRTOS\9.0.0\Source/tasks.c **** 			{
1130:Generated_Source\PSoC6\pdl\rtos\FreeRTOS\9.0.0\Source/tasks.c **** 				mtCOVERAGE_TEST_MARKER();
1131:Generated_Source\PSoC6\pdl\rtos\FreeRTOS\9.0.0\Source/tasks.c **** 			}
1132:Generated_Source\PSoC6\pdl\rtos\FreeRTOS\9.0.0\Source/tasks.c **** 		}
1133:Generated_Source\PSoC6\pdl\rtos\FreeRTOS\9.0.0\Source/tasks.c **** 	}
ARM GAS  C:\Users\ikomb\AppData\Local\Temp\ccNQc6m6.s 			page 33


 664              		.loc 1 1133 0
 665 00aa 00BF     		nop
 666 00ac 1037     		adds	r7, r7, #16
 667              		.cfi_def_cfa_offset 8
 668 00ae BD46     		mov	sp, r7
 669              		.cfi_def_cfa_register 13
 670              		@ sp needed
 671 00b0 80BD     		pop	{r7, pc}
 672              	.L41:
 673 00b2 00BF     		.align	2
 674              	.L40:
 675 00b4 00000000 		.word	pxCurrentTCB
 676 00b8 1C010000 		.word	uxTaskNumber
 677 00bc D4000000 		.word	xTasksWaitingTermination
 678 00c0 E8000000 		.word	uxDeletedTasksWaitingCleanUp
 679 00c4 00010000 		.word	uxCurrentNumberOfTasks
 680 00c8 0C010000 		.word	xSchedulerRunning
 681 00cc 28010000 		.word	uxSchedulerSuspended
 682 00d0 04ED00E0 		.word	-536810236
 683              		.cfi_endproc
 684              	.LFE132:
 685              		.size	vTaskDelete, .-vTaskDelete
 686              		.section	.text.vTaskDelayUntil,"ax",%progbits
 687              		.align	2
 688              		.global	vTaskDelayUntil
 689              		.thumb
 690              		.thumb_func
 691              		.type	vTaskDelayUntil, %function
 692              	vTaskDelayUntil:
 693              	.LFB133:
1134:Generated_Source\PSoC6\pdl\rtos\FreeRTOS\9.0.0\Source/tasks.c **** 
1135:Generated_Source\PSoC6\pdl\rtos\FreeRTOS\9.0.0\Source/tasks.c **** #endif /* INCLUDE_vTaskDelete */
1136:Generated_Source\PSoC6\pdl\rtos\FreeRTOS\9.0.0\Source/tasks.c **** /*-----------------------------------------------------------*/
1137:Generated_Source\PSoC6\pdl\rtos\FreeRTOS\9.0.0\Source/tasks.c **** 
1138:Generated_Source\PSoC6\pdl\rtos\FreeRTOS\9.0.0\Source/tasks.c **** #if ( INCLUDE_vTaskDelayUntil == 1 )
1139:Generated_Source\PSoC6\pdl\rtos\FreeRTOS\9.0.0\Source/tasks.c **** 
1140:Generated_Source\PSoC6\pdl\rtos\FreeRTOS\9.0.0\Source/tasks.c **** 	void vTaskDelayUntil( TickType_t * const pxPreviousWakeTime, const TickType_t xTimeIncrement )
1141:Generated_Source\PSoC6\pdl\rtos\FreeRTOS\9.0.0\Source/tasks.c **** 	{
 694              		.loc 1 1141 0
 695              		.cfi_startproc
 696              		@ args = 0, pretend = 0, frame = 24
 697              		@ frame_needed = 1, uses_anonymous_args = 0
 698 0000 80B5     		push	{r7, lr}
 699              		.cfi_def_cfa_offset 8
 700              		.cfi_offset 7, -8
 701              		.cfi_offset 14, -4
 702 0002 86B0     		sub	sp, sp, #24
 703              		.cfi_def_cfa_offset 32
 704 0004 00AF     		add	r7, sp, #0
 705              		.cfi_def_cfa_register 7
 706 0006 7860     		str	r0, [r7, #4]
 707 0008 3960     		str	r1, [r7]
1142:Generated_Source\PSoC6\pdl\rtos\FreeRTOS\9.0.0\Source/tasks.c **** 	TickType_t xTimeToWake;
1143:Generated_Source\PSoC6\pdl\rtos\FreeRTOS\9.0.0\Source/tasks.c **** 	BaseType_t xAlreadyYielded, xShouldDelay = pdFALSE;
 708              		.loc 1 1143 0
 709 000a 0023     		movs	r3, #0
 710 000c 7B61     		str	r3, [r7, #20]
ARM GAS  C:\Users\ikomb\AppData\Local\Temp\ccNQc6m6.s 			page 34


1144:Generated_Source\PSoC6\pdl\rtos\FreeRTOS\9.0.0\Source/tasks.c **** 
1145:Generated_Source\PSoC6\pdl\rtos\FreeRTOS\9.0.0\Source/tasks.c **** 		configASSERT( pxPreviousWakeTime );
 711              		.loc 1 1145 0
 712 000e 7B68     		ldr	r3, [r7, #4]
 713 0010 002B     		cmp	r3, #0
 714 0012 01D1     		bne	.L43
 715              		.loc 1 1145 0 is_stmt 0 discriminator 1
 716              		.syntax unified
 717              	@ 1145 "Generated_Source\PSoC6\pdl\rtos\FreeRTOS\9.0.0\Source\tasks.c" 1
 718 0014 72B6     		 cpsid i 
 719              	@ 0 "" 2
 720              		.thumb
 721              		.syntax unified
 722              	.L44:
 723 0016 FEE7     		b	.L44
 724              	.L43:
1146:Generated_Source\PSoC6\pdl\rtos\FreeRTOS\9.0.0\Source/tasks.c **** 		configASSERT( ( xTimeIncrement > 0U ) );
 725              		.loc 1 1146 0 is_stmt 1
 726 0018 3B68     		ldr	r3, [r7]
 727 001a 002B     		cmp	r3, #0
 728 001c 01D1     		bne	.L45
 729              		.loc 1 1146 0 is_stmt 0 discriminator 1
 730              		.syntax unified
 731              	@ 1146 "Generated_Source\PSoC6\pdl\rtos\FreeRTOS\9.0.0\Source\tasks.c" 1
 732 001e 72B6     		 cpsid i 
 733              	@ 0 "" 2
 734              		.thumb
 735              		.syntax unified
 736              	.L46:
 737              		.loc 1 1146 0 discriminator 2
 738 0020 FEE7     		b	.L46
 739              	.L45:
1147:Generated_Source\PSoC6\pdl\rtos\FreeRTOS\9.0.0\Source/tasks.c **** 		configASSERT( uxSchedulerSuspended == 0 );
 740              		.loc 1 1147 0 is_stmt 1
 741 0022 254B     		ldr	r3, .L55
 742 0024 1B68     		ldr	r3, [r3]
 743 0026 002B     		cmp	r3, #0
 744 0028 01D0     		beq	.L47
 745              		.loc 1 1147 0 is_stmt 0 discriminator 1
 746              		.syntax unified
 747              	@ 1147 "Generated_Source\PSoC6\pdl\rtos\FreeRTOS\9.0.0\Source\tasks.c" 1
 748 002a 72B6     		 cpsid i 
 749              	@ 0 "" 2
 750              		.thumb
 751              		.syntax unified
 752              	.L48:
 753              		.loc 1 1147 0 discriminator 3
 754 002c FEE7     		b	.L48
 755              	.L47:
1148:Generated_Source\PSoC6\pdl\rtos\FreeRTOS\9.0.0\Source/tasks.c **** 
1149:Generated_Source\PSoC6\pdl\rtos\FreeRTOS\9.0.0\Source/tasks.c **** 		vTaskSuspendAll();
 756              		.loc 1 1149 0 is_stmt 1
 757 002e FFF7FEFF 		bl	vTaskSuspendAll
 758              	.LBB19:
1150:Generated_Source\PSoC6\pdl\rtos\FreeRTOS\9.0.0\Source/tasks.c **** 		{
1151:Generated_Source\PSoC6\pdl\rtos\FreeRTOS\9.0.0\Source/tasks.c **** 			/* Minor optimisation.  The tick count cannot change in this
1152:Generated_Source\PSoC6\pdl\rtos\FreeRTOS\9.0.0\Source/tasks.c **** 			block. */
ARM GAS  C:\Users\ikomb\AppData\Local\Temp\ccNQc6m6.s 			page 35


1153:Generated_Source\PSoC6\pdl\rtos\FreeRTOS\9.0.0\Source/tasks.c **** 			const TickType_t xConstTickCount = xTickCount;
 759              		.loc 1 1153 0
 760 0032 224B     		ldr	r3, .L55+4
 761 0034 1B68     		ldr	r3, [r3]
 762 0036 3B61     		str	r3, [r7, #16]
1154:Generated_Source\PSoC6\pdl\rtos\FreeRTOS\9.0.0\Source/tasks.c **** 
1155:Generated_Source\PSoC6\pdl\rtos\FreeRTOS\9.0.0\Source/tasks.c **** 			/* Generate the tick time at which the task wants to wake. */
1156:Generated_Source\PSoC6\pdl\rtos\FreeRTOS\9.0.0\Source/tasks.c **** 			xTimeToWake = *pxPreviousWakeTime + xTimeIncrement;
 763              		.loc 1 1156 0
 764 0038 7B68     		ldr	r3, [r7, #4]
 765 003a 1A68     		ldr	r2, [r3]
 766 003c 3B68     		ldr	r3, [r7]
 767 003e 1344     		add	r3, r3, r2
 768 0040 FB60     		str	r3, [r7, #12]
1157:Generated_Source\PSoC6\pdl\rtos\FreeRTOS\9.0.0\Source/tasks.c **** 
1158:Generated_Source\PSoC6\pdl\rtos\FreeRTOS\9.0.0\Source/tasks.c **** 			if( xConstTickCount < *pxPreviousWakeTime )
 769              		.loc 1 1158 0
 770 0042 7B68     		ldr	r3, [r7, #4]
 771 0044 1A68     		ldr	r2, [r3]
 772 0046 3B69     		ldr	r3, [r7, #16]
 773 0048 9A42     		cmp	r2, r3
 774 004a 0BD9     		bls	.L49
1159:Generated_Source\PSoC6\pdl\rtos\FreeRTOS\9.0.0\Source/tasks.c **** 			{
1160:Generated_Source\PSoC6\pdl\rtos\FreeRTOS\9.0.0\Source/tasks.c **** 				/* The tick count has overflowed since this function was
1161:Generated_Source\PSoC6\pdl\rtos\FreeRTOS\9.0.0\Source/tasks.c **** 				lasted called.  In this case the only time we should ever
1162:Generated_Source\PSoC6\pdl\rtos\FreeRTOS\9.0.0\Source/tasks.c **** 				actually delay is if the wake time has also	overflowed,
1163:Generated_Source\PSoC6\pdl\rtos\FreeRTOS\9.0.0\Source/tasks.c **** 				and the wake time is greater than the tick time.  When this
1164:Generated_Source\PSoC6\pdl\rtos\FreeRTOS\9.0.0\Source/tasks.c **** 				is the case it is as if neither time had overflowed. */
1165:Generated_Source\PSoC6\pdl\rtos\FreeRTOS\9.0.0\Source/tasks.c **** 				if( ( xTimeToWake < *pxPreviousWakeTime ) && ( xTimeToWake > xConstTickCount ) )
 775              		.loc 1 1165 0
 776 004c 7B68     		ldr	r3, [r7, #4]
 777 004e 1A68     		ldr	r2, [r3]
 778 0050 FB68     		ldr	r3, [r7, #12]
 779 0052 9A42     		cmp	r2, r3
 780 0054 11D9     		bls	.L50
 781              		.loc 1 1165 0 is_stmt 0 discriminator 1
 782 0056 FA68     		ldr	r2, [r7, #12]
 783 0058 3B69     		ldr	r3, [r7, #16]
 784 005a 9A42     		cmp	r2, r3
 785 005c 0DD9     		bls	.L50
1166:Generated_Source\PSoC6\pdl\rtos\FreeRTOS\9.0.0\Source/tasks.c **** 				{
1167:Generated_Source\PSoC6\pdl\rtos\FreeRTOS\9.0.0\Source/tasks.c **** 					xShouldDelay = pdTRUE;
 786              		.loc 1 1167 0 is_stmt 1
 787 005e 0123     		movs	r3, #1
 788 0060 7B61     		str	r3, [r7, #20]
 789 0062 0AE0     		b	.L50
 790              	.L49:
1168:Generated_Source\PSoC6\pdl\rtos\FreeRTOS\9.0.0\Source/tasks.c **** 				}
1169:Generated_Source\PSoC6\pdl\rtos\FreeRTOS\9.0.0\Source/tasks.c **** 				else
1170:Generated_Source\PSoC6\pdl\rtos\FreeRTOS\9.0.0\Source/tasks.c **** 				{
1171:Generated_Source\PSoC6\pdl\rtos\FreeRTOS\9.0.0\Source/tasks.c **** 					mtCOVERAGE_TEST_MARKER();
1172:Generated_Source\PSoC6\pdl\rtos\FreeRTOS\9.0.0\Source/tasks.c **** 				}
1173:Generated_Source\PSoC6\pdl\rtos\FreeRTOS\9.0.0\Source/tasks.c **** 			}
1174:Generated_Source\PSoC6\pdl\rtos\FreeRTOS\9.0.0\Source/tasks.c **** 			else
1175:Generated_Source\PSoC6\pdl\rtos\FreeRTOS\9.0.0\Source/tasks.c **** 			{
1176:Generated_Source\PSoC6\pdl\rtos\FreeRTOS\9.0.0\Source/tasks.c **** 				/* The tick time has not overflowed.  In this case we will
1177:Generated_Source\PSoC6\pdl\rtos\FreeRTOS\9.0.0\Source/tasks.c **** 				delay if either the wake time has overflowed, and/or the
ARM GAS  C:\Users\ikomb\AppData\Local\Temp\ccNQc6m6.s 			page 36


1178:Generated_Source\PSoC6\pdl\rtos\FreeRTOS\9.0.0\Source/tasks.c **** 				tick time is less than the wake time. */
1179:Generated_Source\PSoC6\pdl\rtos\FreeRTOS\9.0.0\Source/tasks.c **** 				if( ( xTimeToWake < *pxPreviousWakeTime ) || ( xTimeToWake > xConstTickCount ) )
 791              		.loc 1 1179 0
 792 0064 7B68     		ldr	r3, [r7, #4]
 793 0066 1A68     		ldr	r2, [r3]
 794 0068 FB68     		ldr	r3, [r7, #12]
 795 006a 9A42     		cmp	r2, r3
 796 006c 03D8     		bhi	.L51
 797              		.loc 1 1179 0 is_stmt 0 discriminator 1
 798 006e FA68     		ldr	r2, [r7, #12]
 799 0070 3B69     		ldr	r3, [r7, #16]
 800 0072 9A42     		cmp	r2, r3
 801 0074 01D9     		bls	.L50
 802              	.L51:
1180:Generated_Source\PSoC6\pdl\rtos\FreeRTOS\9.0.0\Source/tasks.c **** 				{
1181:Generated_Source\PSoC6\pdl\rtos\FreeRTOS\9.0.0\Source/tasks.c **** 					xShouldDelay = pdTRUE;
 803              		.loc 1 1181 0 is_stmt 1
 804 0076 0123     		movs	r3, #1
 805 0078 7B61     		str	r3, [r7, #20]
 806              	.L50:
1182:Generated_Source\PSoC6\pdl\rtos\FreeRTOS\9.0.0\Source/tasks.c **** 				}
1183:Generated_Source\PSoC6\pdl\rtos\FreeRTOS\9.0.0\Source/tasks.c **** 				else
1184:Generated_Source\PSoC6\pdl\rtos\FreeRTOS\9.0.0\Source/tasks.c **** 				{
1185:Generated_Source\PSoC6\pdl\rtos\FreeRTOS\9.0.0\Source/tasks.c **** 					mtCOVERAGE_TEST_MARKER();
1186:Generated_Source\PSoC6\pdl\rtos\FreeRTOS\9.0.0\Source/tasks.c **** 				}
1187:Generated_Source\PSoC6\pdl\rtos\FreeRTOS\9.0.0\Source/tasks.c **** 			}
1188:Generated_Source\PSoC6\pdl\rtos\FreeRTOS\9.0.0\Source/tasks.c **** 
1189:Generated_Source\PSoC6\pdl\rtos\FreeRTOS\9.0.0\Source/tasks.c **** 			/* Update the wake time ready for the next call. */
1190:Generated_Source\PSoC6\pdl\rtos\FreeRTOS\9.0.0\Source/tasks.c **** 			*pxPreviousWakeTime = xTimeToWake;
 807              		.loc 1 1190 0
 808 007a 7B68     		ldr	r3, [r7, #4]
 809 007c FA68     		ldr	r2, [r7, #12]
 810 007e 1A60     		str	r2, [r3]
1191:Generated_Source\PSoC6\pdl\rtos\FreeRTOS\9.0.0\Source/tasks.c **** 
1192:Generated_Source\PSoC6\pdl\rtos\FreeRTOS\9.0.0\Source/tasks.c **** 			if( xShouldDelay != pdFALSE )
 811              		.loc 1 1192 0
 812 0080 7B69     		ldr	r3, [r7, #20]
 813 0082 002B     		cmp	r3, #0
 814 0084 06D0     		beq	.L52
1193:Generated_Source\PSoC6\pdl\rtos\FreeRTOS\9.0.0\Source/tasks.c **** 			{
1194:Generated_Source\PSoC6\pdl\rtos\FreeRTOS\9.0.0\Source/tasks.c **** 				traceTASK_DELAY_UNTIL( xTimeToWake );
1195:Generated_Source\PSoC6\pdl\rtos\FreeRTOS\9.0.0\Source/tasks.c **** 
1196:Generated_Source\PSoC6\pdl\rtos\FreeRTOS\9.0.0\Source/tasks.c **** 				/* prvAddCurrentTaskToDelayedList() needs the block time, not
1197:Generated_Source\PSoC6\pdl\rtos\FreeRTOS\9.0.0\Source/tasks.c **** 				the time to wake, so subtract the current tick count. */
1198:Generated_Source\PSoC6\pdl\rtos\FreeRTOS\9.0.0\Source/tasks.c **** 				prvAddCurrentTaskToDelayedList( xTimeToWake - xConstTickCount, pdFALSE );
 815              		.loc 1 1198 0
 816 0086 FA68     		ldr	r2, [r7, #12]
 817 0088 3B69     		ldr	r3, [r7, #16]
 818 008a D31A     		subs	r3, r2, r3
 819 008c 0021     		movs	r1, #0
 820 008e 1846     		mov	r0, r3
 821 0090 FFF7FEFF 		bl	prvAddCurrentTaskToDelayedList
 822              	.L52:
 823              	.LBE19:
1199:Generated_Source\PSoC6\pdl\rtos\FreeRTOS\9.0.0\Source/tasks.c **** 			}
1200:Generated_Source\PSoC6\pdl\rtos\FreeRTOS\9.0.0\Source/tasks.c **** 			else
1201:Generated_Source\PSoC6\pdl\rtos\FreeRTOS\9.0.0\Source/tasks.c **** 			{
ARM GAS  C:\Users\ikomb\AppData\Local\Temp\ccNQc6m6.s 			page 37


1202:Generated_Source\PSoC6\pdl\rtos\FreeRTOS\9.0.0\Source/tasks.c **** 				mtCOVERAGE_TEST_MARKER();
1203:Generated_Source\PSoC6\pdl\rtos\FreeRTOS\9.0.0\Source/tasks.c **** 			}
1204:Generated_Source\PSoC6\pdl\rtos\FreeRTOS\9.0.0\Source/tasks.c **** 		}
1205:Generated_Source\PSoC6\pdl\rtos\FreeRTOS\9.0.0\Source/tasks.c **** 		xAlreadyYielded = xTaskResumeAll();
 824              		.loc 1 1205 0
 825 0094 FFF7FEFF 		bl	xTaskResumeAll
 826 0098 B860     		str	r0, [r7, #8]
1206:Generated_Source\PSoC6\pdl\rtos\FreeRTOS\9.0.0\Source/tasks.c **** 
1207:Generated_Source\PSoC6\pdl\rtos\FreeRTOS\9.0.0\Source/tasks.c **** 		/* Force a reschedule if xTaskResumeAll has not already done so, we may
1208:Generated_Source\PSoC6\pdl\rtos\FreeRTOS\9.0.0\Source/tasks.c **** 		have put ourselves to sleep. */
1209:Generated_Source\PSoC6\pdl\rtos\FreeRTOS\9.0.0\Source/tasks.c **** 		if( xAlreadyYielded == pdFALSE )
 827              		.loc 1 1209 0
 828 009a BB68     		ldr	r3, [r7, #8]
 829 009c 002B     		cmp	r3, #0
 830 009e 07D1     		bne	.L54
1210:Generated_Source\PSoC6\pdl\rtos\FreeRTOS\9.0.0\Source/tasks.c **** 		{
1211:Generated_Source\PSoC6\pdl\rtos\FreeRTOS\9.0.0\Source/tasks.c **** 			portYIELD_WITHIN_API();
 831              		.loc 1 1211 0
 832 00a0 074B     		ldr	r3, .L55+8
 833 00a2 4FF08052 		mov	r2, #268435456
 834 00a6 1A60     		str	r2, [r3]
 835              		.syntax unified
 836              	@ 1211 "Generated_Source\PSoC6\pdl\rtos\FreeRTOS\9.0.0\Source\tasks.c" 1
 837 00a8 BFF34F8F 		dsb
 838              	@ 0 "" 2
 839              	@ 1211 "Generated_Source\PSoC6\pdl\rtos\FreeRTOS\9.0.0\Source\tasks.c" 1
 840 00ac BFF36F8F 		isb
 841              	@ 0 "" 2
 842              		.thumb
 843              		.syntax unified
 844              	.L54:
1212:Generated_Source\PSoC6\pdl\rtos\FreeRTOS\9.0.0\Source/tasks.c **** 		}
1213:Generated_Source\PSoC6\pdl\rtos\FreeRTOS\9.0.0\Source/tasks.c **** 		else
1214:Generated_Source\PSoC6\pdl\rtos\FreeRTOS\9.0.0\Source/tasks.c **** 		{
1215:Generated_Source\PSoC6\pdl\rtos\FreeRTOS\9.0.0\Source/tasks.c **** 			mtCOVERAGE_TEST_MARKER();
1216:Generated_Source\PSoC6\pdl\rtos\FreeRTOS\9.0.0\Source/tasks.c **** 		}
1217:Generated_Source\PSoC6\pdl\rtos\FreeRTOS\9.0.0\Source/tasks.c **** 	}
 845              		.loc 1 1217 0
 846 00b0 00BF     		nop
 847 00b2 1837     		adds	r7, r7, #24
 848              		.cfi_def_cfa_offset 8
 849 00b4 BD46     		mov	sp, r7
 850              		.cfi_def_cfa_register 13
 851              		@ sp needed
 852 00b6 80BD     		pop	{r7, pc}
 853              	.L56:
 854              		.align	2
 855              	.L55:
 856 00b8 28010000 		.word	uxSchedulerSuspended
 857 00bc 04010000 		.word	xTickCount
 858 00c0 04ED00E0 		.word	-536810236
 859              		.cfi_endproc
 860              	.LFE133:
 861              		.size	vTaskDelayUntil, .-vTaskDelayUntil
 862              		.section	.text.vTaskDelay,"ax",%progbits
 863              		.align	2
 864              		.global	vTaskDelay
ARM GAS  C:\Users\ikomb\AppData\Local\Temp\ccNQc6m6.s 			page 38


 865              		.thumb
 866              		.thumb_func
 867              		.type	vTaskDelay, %function
 868              	vTaskDelay:
 869              	.LFB134:
1218:Generated_Source\PSoC6\pdl\rtos\FreeRTOS\9.0.0\Source/tasks.c **** 
1219:Generated_Source\PSoC6\pdl\rtos\FreeRTOS\9.0.0\Source/tasks.c **** #endif /* INCLUDE_vTaskDelayUntil */
1220:Generated_Source\PSoC6\pdl\rtos\FreeRTOS\9.0.0\Source/tasks.c **** /*-----------------------------------------------------------*/
1221:Generated_Source\PSoC6\pdl\rtos\FreeRTOS\9.0.0\Source/tasks.c **** 
1222:Generated_Source\PSoC6\pdl\rtos\FreeRTOS\9.0.0\Source/tasks.c **** #if ( INCLUDE_vTaskDelay == 1 )
1223:Generated_Source\PSoC6\pdl\rtos\FreeRTOS\9.0.0\Source/tasks.c **** 
1224:Generated_Source\PSoC6\pdl\rtos\FreeRTOS\9.0.0\Source/tasks.c **** 	void vTaskDelay( const TickType_t xTicksToDelay )
1225:Generated_Source\PSoC6\pdl\rtos\FreeRTOS\9.0.0\Source/tasks.c **** 	{
 870              		.loc 1 1225 0
 871              		.cfi_startproc
 872              		@ args = 0, pretend = 0, frame = 16
 873              		@ frame_needed = 1, uses_anonymous_args = 0
 874 0000 80B5     		push	{r7, lr}
 875              		.cfi_def_cfa_offset 8
 876              		.cfi_offset 7, -8
 877              		.cfi_offset 14, -4
 878 0002 84B0     		sub	sp, sp, #16
 879              		.cfi_def_cfa_offset 24
 880 0004 00AF     		add	r7, sp, #0
 881              		.cfi_def_cfa_register 7
 882 0006 7860     		str	r0, [r7, #4]
1226:Generated_Source\PSoC6\pdl\rtos\FreeRTOS\9.0.0\Source/tasks.c **** 	BaseType_t xAlreadyYielded = pdFALSE;
 883              		.loc 1 1226 0
 884 0008 0023     		movs	r3, #0
 885 000a FB60     		str	r3, [r7, #12]
1227:Generated_Source\PSoC6\pdl\rtos\FreeRTOS\9.0.0\Source/tasks.c **** 
1228:Generated_Source\PSoC6\pdl\rtos\FreeRTOS\9.0.0\Source/tasks.c **** 		/* A delay time of zero just forces a reschedule. */
1229:Generated_Source\PSoC6\pdl\rtos\FreeRTOS\9.0.0\Source/tasks.c **** 		if( xTicksToDelay > ( TickType_t ) 0U )
 886              		.loc 1 1229 0
 887 000c 7B68     		ldr	r3, [r7, #4]
 888 000e 002B     		cmp	r3, #0
 889 0010 0ED0     		beq	.L58
1230:Generated_Source\PSoC6\pdl\rtos\FreeRTOS\9.0.0\Source/tasks.c **** 		{
1231:Generated_Source\PSoC6\pdl\rtos\FreeRTOS\9.0.0\Source/tasks.c **** 			configASSERT( uxSchedulerSuspended == 0 );
 890              		.loc 1 1231 0
 891 0012 0F4B     		ldr	r3, .L63
 892 0014 1B68     		ldr	r3, [r3]
 893 0016 002B     		cmp	r3, #0
 894 0018 01D0     		beq	.L59
 895              		.loc 1 1231 0 is_stmt 0 discriminator 1
 896              		.syntax unified
 897              	@ 1231 "Generated_Source\PSoC6\pdl\rtos\FreeRTOS\9.0.0\Source\tasks.c" 1
 898 001a 72B6     		 cpsid i 
 899              	@ 0 "" 2
 900              		.thumb
 901              		.syntax unified
 902              	.L60:
 903 001c FEE7     		b	.L60
 904              	.L59:
1232:Generated_Source\PSoC6\pdl\rtos\FreeRTOS\9.0.0\Source/tasks.c **** 			vTaskSuspendAll();
 905              		.loc 1 1232 0 is_stmt 1
 906 001e FFF7FEFF 		bl	vTaskSuspendAll
ARM GAS  C:\Users\ikomb\AppData\Local\Temp\ccNQc6m6.s 			page 39


1233:Generated_Source\PSoC6\pdl\rtos\FreeRTOS\9.0.0\Source/tasks.c **** 			{
1234:Generated_Source\PSoC6\pdl\rtos\FreeRTOS\9.0.0\Source/tasks.c **** 				traceTASK_DELAY();
1235:Generated_Source\PSoC6\pdl\rtos\FreeRTOS\9.0.0\Source/tasks.c **** 
1236:Generated_Source\PSoC6\pdl\rtos\FreeRTOS\9.0.0\Source/tasks.c **** 				/* A task that is removed from the event list while the
1237:Generated_Source\PSoC6\pdl\rtos\FreeRTOS\9.0.0\Source/tasks.c **** 				scheduler is suspended will not get placed in the ready
1238:Generated_Source\PSoC6\pdl\rtos\FreeRTOS\9.0.0\Source/tasks.c **** 				list or removed from the blocked list until the scheduler
1239:Generated_Source\PSoC6\pdl\rtos\FreeRTOS\9.0.0\Source/tasks.c **** 				is resumed.
1240:Generated_Source\PSoC6\pdl\rtos\FreeRTOS\9.0.0\Source/tasks.c **** 
1241:Generated_Source\PSoC6\pdl\rtos\FreeRTOS\9.0.0\Source/tasks.c **** 				This task cannot be in an event list as it is the currently
1242:Generated_Source\PSoC6\pdl\rtos\FreeRTOS\9.0.0\Source/tasks.c **** 				executing task. */
1243:Generated_Source\PSoC6\pdl\rtos\FreeRTOS\9.0.0\Source/tasks.c **** 				prvAddCurrentTaskToDelayedList( xTicksToDelay, pdFALSE );
 907              		.loc 1 1243 0
 908 0022 0021     		movs	r1, #0
 909 0024 7868     		ldr	r0, [r7, #4]
 910 0026 FFF7FEFF 		bl	prvAddCurrentTaskToDelayedList
1244:Generated_Source\PSoC6\pdl\rtos\FreeRTOS\9.0.0\Source/tasks.c **** 			}
1245:Generated_Source\PSoC6\pdl\rtos\FreeRTOS\9.0.0\Source/tasks.c **** 			xAlreadyYielded = xTaskResumeAll();
 911              		.loc 1 1245 0
 912 002a FFF7FEFF 		bl	xTaskResumeAll
 913 002e F860     		str	r0, [r7, #12]
 914              	.L58:
1246:Generated_Source\PSoC6\pdl\rtos\FreeRTOS\9.0.0\Source/tasks.c **** 		}
1247:Generated_Source\PSoC6\pdl\rtos\FreeRTOS\9.0.0\Source/tasks.c **** 		else
1248:Generated_Source\PSoC6\pdl\rtos\FreeRTOS\9.0.0\Source/tasks.c **** 		{
1249:Generated_Source\PSoC6\pdl\rtos\FreeRTOS\9.0.0\Source/tasks.c **** 			mtCOVERAGE_TEST_MARKER();
1250:Generated_Source\PSoC6\pdl\rtos\FreeRTOS\9.0.0\Source/tasks.c **** 		}
1251:Generated_Source\PSoC6\pdl\rtos\FreeRTOS\9.0.0\Source/tasks.c **** 
1252:Generated_Source\PSoC6\pdl\rtos\FreeRTOS\9.0.0\Source/tasks.c **** 		/* Force a reschedule if xTaskResumeAll has not already done so, we may
1253:Generated_Source\PSoC6\pdl\rtos\FreeRTOS\9.0.0\Source/tasks.c **** 		have put ourselves to sleep. */
1254:Generated_Source\PSoC6\pdl\rtos\FreeRTOS\9.0.0\Source/tasks.c **** 		if( xAlreadyYielded == pdFALSE )
 915              		.loc 1 1254 0
 916 0030 FB68     		ldr	r3, [r7, #12]
 917 0032 002B     		cmp	r3, #0
 918 0034 07D1     		bne	.L62
1255:Generated_Source\PSoC6\pdl\rtos\FreeRTOS\9.0.0\Source/tasks.c **** 		{
1256:Generated_Source\PSoC6\pdl\rtos\FreeRTOS\9.0.0\Source/tasks.c **** 			portYIELD_WITHIN_API();
 919              		.loc 1 1256 0
 920 0036 074B     		ldr	r3, .L63+4
 921 0038 4FF08052 		mov	r2, #268435456
 922 003c 1A60     		str	r2, [r3]
 923              		.syntax unified
 924              	@ 1256 "Generated_Source\PSoC6\pdl\rtos\FreeRTOS\9.0.0\Source\tasks.c" 1
 925 003e BFF34F8F 		dsb
 926              	@ 0 "" 2
 927              	@ 1256 "Generated_Source\PSoC6\pdl\rtos\FreeRTOS\9.0.0\Source\tasks.c" 1
 928 0042 BFF36F8F 		isb
 929              	@ 0 "" 2
 930              		.thumb
 931              		.syntax unified
 932              	.L62:
1257:Generated_Source\PSoC6\pdl\rtos\FreeRTOS\9.0.0\Source/tasks.c **** 		}
1258:Generated_Source\PSoC6\pdl\rtos\FreeRTOS\9.0.0\Source/tasks.c **** 		else
1259:Generated_Source\PSoC6\pdl\rtos\FreeRTOS\9.0.0\Source/tasks.c **** 		{
1260:Generated_Source\PSoC6\pdl\rtos\FreeRTOS\9.0.0\Source/tasks.c **** 			mtCOVERAGE_TEST_MARKER();
1261:Generated_Source\PSoC6\pdl\rtos\FreeRTOS\9.0.0\Source/tasks.c **** 		}
1262:Generated_Source\PSoC6\pdl\rtos\FreeRTOS\9.0.0\Source/tasks.c **** 	}
 933              		.loc 1 1262 0
ARM GAS  C:\Users\ikomb\AppData\Local\Temp\ccNQc6m6.s 			page 40


 934 0046 00BF     		nop
 935 0048 1037     		adds	r7, r7, #16
 936              		.cfi_def_cfa_offset 8
 937 004a BD46     		mov	sp, r7
 938              		.cfi_def_cfa_register 13
 939              		@ sp needed
 940 004c 80BD     		pop	{r7, pc}
 941              	.L64:
 942 004e 00BF     		.align	2
 943              	.L63:
 944 0050 28010000 		.word	uxSchedulerSuspended
 945 0054 04ED00E0 		.word	-536810236
 946              		.cfi_endproc
 947              	.LFE134:
 948              		.size	vTaskDelay, .-vTaskDelay
 949              		.section	.text.uxTaskPriorityGet,"ax",%progbits
 950              		.align	2
 951              		.global	uxTaskPriorityGet
 952              		.thumb
 953              		.thumb_func
 954              		.type	uxTaskPriorityGet, %function
 955              	uxTaskPriorityGet:
 956              	.LFB135:
1263:Generated_Source\PSoC6\pdl\rtos\FreeRTOS\9.0.0\Source/tasks.c **** 
1264:Generated_Source\PSoC6\pdl\rtos\FreeRTOS\9.0.0\Source/tasks.c **** #endif /* INCLUDE_vTaskDelay */
1265:Generated_Source\PSoC6\pdl\rtos\FreeRTOS\9.0.0\Source/tasks.c **** /*-----------------------------------------------------------*/
1266:Generated_Source\PSoC6\pdl\rtos\FreeRTOS\9.0.0\Source/tasks.c **** 
1267:Generated_Source\PSoC6\pdl\rtos\FreeRTOS\9.0.0\Source/tasks.c **** #if( ( INCLUDE_eTaskGetState == 1 ) || ( configUSE_TRACE_FACILITY == 1 ) )
1268:Generated_Source\PSoC6\pdl\rtos\FreeRTOS\9.0.0\Source/tasks.c **** 
1269:Generated_Source\PSoC6\pdl\rtos\FreeRTOS\9.0.0\Source/tasks.c **** 	eTaskState eTaskGetState( TaskHandle_t xTask )
1270:Generated_Source\PSoC6\pdl\rtos\FreeRTOS\9.0.0\Source/tasks.c **** 	{
1271:Generated_Source\PSoC6\pdl\rtos\FreeRTOS\9.0.0\Source/tasks.c **** 	eTaskState eReturn;
1272:Generated_Source\PSoC6\pdl\rtos\FreeRTOS\9.0.0\Source/tasks.c **** 	List_t *pxStateList;
1273:Generated_Source\PSoC6\pdl\rtos\FreeRTOS\9.0.0\Source/tasks.c **** 	const TCB_t * const pxTCB = ( TCB_t * ) xTask;
1274:Generated_Source\PSoC6\pdl\rtos\FreeRTOS\9.0.0\Source/tasks.c **** 
1275:Generated_Source\PSoC6\pdl\rtos\FreeRTOS\9.0.0\Source/tasks.c **** 		configASSERT( pxTCB );
1276:Generated_Source\PSoC6\pdl\rtos\FreeRTOS\9.0.0\Source/tasks.c **** 
1277:Generated_Source\PSoC6\pdl\rtos\FreeRTOS\9.0.0\Source/tasks.c **** 		if( pxTCB == pxCurrentTCB )
1278:Generated_Source\PSoC6\pdl\rtos\FreeRTOS\9.0.0\Source/tasks.c **** 		{
1279:Generated_Source\PSoC6\pdl\rtos\FreeRTOS\9.0.0\Source/tasks.c **** 			/* The task calling this function is querying its own state. */
1280:Generated_Source\PSoC6\pdl\rtos\FreeRTOS\9.0.0\Source/tasks.c **** 			eReturn = eRunning;
1281:Generated_Source\PSoC6\pdl\rtos\FreeRTOS\9.0.0\Source/tasks.c **** 		}
1282:Generated_Source\PSoC6\pdl\rtos\FreeRTOS\9.0.0\Source/tasks.c **** 		else
1283:Generated_Source\PSoC6\pdl\rtos\FreeRTOS\9.0.0\Source/tasks.c **** 		{
1284:Generated_Source\PSoC6\pdl\rtos\FreeRTOS\9.0.0\Source/tasks.c **** 			taskENTER_CRITICAL();
1285:Generated_Source\PSoC6\pdl\rtos\FreeRTOS\9.0.0\Source/tasks.c **** 			{
1286:Generated_Source\PSoC6\pdl\rtos\FreeRTOS\9.0.0\Source/tasks.c **** 				pxStateList = ( List_t * ) listLIST_ITEM_CONTAINER( &( pxTCB->xStateListItem ) );
1287:Generated_Source\PSoC6\pdl\rtos\FreeRTOS\9.0.0\Source/tasks.c **** 			}
1288:Generated_Source\PSoC6\pdl\rtos\FreeRTOS\9.0.0\Source/tasks.c **** 			taskEXIT_CRITICAL();
1289:Generated_Source\PSoC6\pdl\rtos\FreeRTOS\9.0.0\Source/tasks.c **** 
1290:Generated_Source\PSoC6\pdl\rtos\FreeRTOS\9.0.0\Source/tasks.c **** 			if( ( pxStateList == pxDelayedTaskList ) || ( pxStateList == pxOverflowDelayedTaskList ) )
1291:Generated_Source\PSoC6\pdl\rtos\FreeRTOS\9.0.0\Source/tasks.c **** 			{
1292:Generated_Source\PSoC6\pdl\rtos\FreeRTOS\9.0.0\Source/tasks.c **** 				/* The task being queried is referenced from one of the Blocked
1293:Generated_Source\PSoC6\pdl\rtos\FreeRTOS\9.0.0\Source/tasks.c **** 				lists. */
1294:Generated_Source\PSoC6\pdl\rtos\FreeRTOS\9.0.0\Source/tasks.c **** 				eReturn = eBlocked;
1295:Generated_Source\PSoC6\pdl\rtos\FreeRTOS\9.0.0\Source/tasks.c **** 			}
1296:Generated_Source\PSoC6\pdl\rtos\FreeRTOS\9.0.0\Source/tasks.c **** 
ARM GAS  C:\Users\ikomb\AppData\Local\Temp\ccNQc6m6.s 			page 41


1297:Generated_Source\PSoC6\pdl\rtos\FreeRTOS\9.0.0\Source/tasks.c **** 			#if ( INCLUDE_vTaskSuspend == 1 )
1298:Generated_Source\PSoC6\pdl\rtos\FreeRTOS\9.0.0\Source/tasks.c **** 				else if( pxStateList == &xSuspendedTaskList )
1299:Generated_Source\PSoC6\pdl\rtos\FreeRTOS\9.0.0\Source/tasks.c **** 				{
1300:Generated_Source\PSoC6\pdl\rtos\FreeRTOS\9.0.0\Source/tasks.c **** 					/* The task being queried is referenced from the suspended
1301:Generated_Source\PSoC6\pdl\rtos\FreeRTOS\9.0.0\Source/tasks.c **** 					list.  Is it genuinely suspended or is it block
1302:Generated_Source\PSoC6\pdl\rtos\FreeRTOS\9.0.0\Source/tasks.c **** 					indefinitely? */
1303:Generated_Source\PSoC6\pdl\rtos\FreeRTOS\9.0.0\Source/tasks.c **** 					if( listLIST_ITEM_CONTAINER( &( pxTCB->xEventListItem ) ) == NULL )
1304:Generated_Source\PSoC6\pdl\rtos\FreeRTOS\9.0.0\Source/tasks.c **** 					{
1305:Generated_Source\PSoC6\pdl\rtos\FreeRTOS\9.0.0\Source/tasks.c **** 						eReturn = eSuspended;
1306:Generated_Source\PSoC6\pdl\rtos\FreeRTOS\9.0.0\Source/tasks.c **** 					}
1307:Generated_Source\PSoC6\pdl\rtos\FreeRTOS\9.0.0\Source/tasks.c **** 					else
1308:Generated_Source\PSoC6\pdl\rtos\FreeRTOS\9.0.0\Source/tasks.c **** 					{
1309:Generated_Source\PSoC6\pdl\rtos\FreeRTOS\9.0.0\Source/tasks.c **** 						eReturn = eBlocked;
1310:Generated_Source\PSoC6\pdl\rtos\FreeRTOS\9.0.0\Source/tasks.c **** 					}
1311:Generated_Source\PSoC6\pdl\rtos\FreeRTOS\9.0.0\Source/tasks.c **** 				}
1312:Generated_Source\PSoC6\pdl\rtos\FreeRTOS\9.0.0\Source/tasks.c **** 			#endif
1313:Generated_Source\PSoC6\pdl\rtos\FreeRTOS\9.0.0\Source/tasks.c **** 
1314:Generated_Source\PSoC6\pdl\rtos\FreeRTOS\9.0.0\Source/tasks.c **** 			#if ( INCLUDE_vTaskDelete == 1 )
1315:Generated_Source\PSoC6\pdl\rtos\FreeRTOS\9.0.0\Source/tasks.c **** 				else if( ( pxStateList == &xTasksWaitingTermination ) || ( pxStateList == NULL ) )
1316:Generated_Source\PSoC6\pdl\rtos\FreeRTOS\9.0.0\Source/tasks.c **** 				{
1317:Generated_Source\PSoC6\pdl\rtos\FreeRTOS\9.0.0\Source/tasks.c **** 					/* The task being queried is referenced from the deleted
1318:Generated_Source\PSoC6\pdl\rtos\FreeRTOS\9.0.0\Source/tasks.c **** 					tasks list, or it is not referenced from any lists at
1319:Generated_Source\PSoC6\pdl\rtos\FreeRTOS\9.0.0\Source/tasks.c **** 					all. */
1320:Generated_Source\PSoC6\pdl\rtos\FreeRTOS\9.0.0\Source/tasks.c **** 					eReturn = eDeleted;
1321:Generated_Source\PSoC6\pdl\rtos\FreeRTOS\9.0.0\Source/tasks.c **** 				}
1322:Generated_Source\PSoC6\pdl\rtos\FreeRTOS\9.0.0\Source/tasks.c **** 			#endif
1323:Generated_Source\PSoC6\pdl\rtos\FreeRTOS\9.0.0\Source/tasks.c **** 
1324:Generated_Source\PSoC6\pdl\rtos\FreeRTOS\9.0.0\Source/tasks.c **** 			else /*lint !e525 Negative indentation is intended to make use of pre-processor clearer. */
1325:Generated_Source\PSoC6\pdl\rtos\FreeRTOS\9.0.0\Source/tasks.c **** 			{
1326:Generated_Source\PSoC6\pdl\rtos\FreeRTOS\9.0.0\Source/tasks.c **** 				/* If the task is not in any other state, it must be in the
1327:Generated_Source\PSoC6\pdl\rtos\FreeRTOS\9.0.0\Source/tasks.c **** 				Ready (including pending ready) state. */
1328:Generated_Source\PSoC6\pdl\rtos\FreeRTOS\9.0.0\Source/tasks.c **** 				eReturn = eReady;
1329:Generated_Source\PSoC6\pdl\rtos\FreeRTOS\9.0.0\Source/tasks.c **** 			}
1330:Generated_Source\PSoC6\pdl\rtos\FreeRTOS\9.0.0\Source/tasks.c **** 		}
1331:Generated_Source\PSoC6\pdl\rtos\FreeRTOS\9.0.0\Source/tasks.c **** 
1332:Generated_Source\PSoC6\pdl\rtos\FreeRTOS\9.0.0\Source/tasks.c **** 		return eReturn;
1333:Generated_Source\PSoC6\pdl\rtos\FreeRTOS\9.0.0\Source/tasks.c **** 	} /*lint !e818 xTask cannot be a pointer to const because it is a typedef. */
1334:Generated_Source\PSoC6\pdl\rtos\FreeRTOS\9.0.0\Source/tasks.c **** 
1335:Generated_Source\PSoC6\pdl\rtos\FreeRTOS\9.0.0\Source/tasks.c **** #endif /* INCLUDE_eTaskGetState */
1336:Generated_Source\PSoC6\pdl\rtos\FreeRTOS\9.0.0\Source/tasks.c **** /*-----------------------------------------------------------*/
1337:Generated_Source\PSoC6\pdl\rtos\FreeRTOS\9.0.0\Source/tasks.c **** 
1338:Generated_Source\PSoC6\pdl\rtos\FreeRTOS\9.0.0\Source/tasks.c **** #if ( INCLUDE_uxTaskPriorityGet == 1 )
1339:Generated_Source\PSoC6\pdl\rtos\FreeRTOS\9.0.0\Source/tasks.c **** 
1340:Generated_Source\PSoC6\pdl\rtos\FreeRTOS\9.0.0\Source/tasks.c **** 	UBaseType_t uxTaskPriorityGet( TaskHandle_t xTask )
1341:Generated_Source\PSoC6\pdl\rtos\FreeRTOS\9.0.0\Source/tasks.c **** 	{
 957              		.loc 1 1341 0
 958              		.cfi_startproc
 959              		@ args = 0, pretend = 0, frame = 16
 960              		@ frame_needed = 1, uses_anonymous_args = 0
 961 0000 80B5     		push	{r7, lr}
 962              		.cfi_def_cfa_offset 8
 963              		.cfi_offset 7, -8
 964              		.cfi_offset 14, -4
 965 0002 84B0     		sub	sp, sp, #16
 966              		.cfi_def_cfa_offset 24
 967 0004 00AF     		add	r7, sp, #0
 968              		.cfi_def_cfa_register 7
ARM GAS  C:\Users\ikomb\AppData\Local\Temp\ccNQc6m6.s 			page 42


 969 0006 7860     		str	r0, [r7, #4]
1342:Generated_Source\PSoC6\pdl\rtos\FreeRTOS\9.0.0\Source/tasks.c **** 	TCB_t *pxTCB;
1343:Generated_Source\PSoC6\pdl\rtos\FreeRTOS\9.0.0\Source/tasks.c **** 	UBaseType_t uxReturn;
1344:Generated_Source\PSoC6\pdl\rtos\FreeRTOS\9.0.0\Source/tasks.c **** 
1345:Generated_Source\PSoC6\pdl\rtos\FreeRTOS\9.0.0\Source/tasks.c **** 		taskENTER_CRITICAL();
 970              		.loc 1 1345 0
 971 0008 FFF7FEFF 		bl	vPortEnterCritical
1346:Generated_Source\PSoC6\pdl\rtos\FreeRTOS\9.0.0\Source/tasks.c **** 		{
1347:Generated_Source\PSoC6\pdl\rtos\FreeRTOS\9.0.0\Source/tasks.c **** 			/* If null is passed in here then it is the priority of the that
1348:Generated_Source\PSoC6\pdl\rtos\FreeRTOS\9.0.0\Source/tasks.c **** 			called uxTaskPriorityGet() that is being queried. */
1349:Generated_Source\PSoC6\pdl\rtos\FreeRTOS\9.0.0\Source/tasks.c **** 			pxTCB = prvGetTCBFromHandle( xTask );
 972              		.loc 1 1349 0
 973 000c 7B68     		ldr	r3, [r7, #4]
 974 000e 002B     		cmp	r3, #0
 975 0010 02D1     		bne	.L66
 976              		.loc 1 1349 0 is_stmt 0 discriminator 1
 977 0012 074B     		ldr	r3, .L69
 978 0014 1B68     		ldr	r3, [r3]
 979 0016 00E0     		b	.L67
 980              	.L66:
 981              		.loc 1 1349 0 discriminator 2
 982 0018 7B68     		ldr	r3, [r7, #4]
 983              	.L67:
 984              		.loc 1 1349 0 discriminator 4
 985 001a FB60     		str	r3, [r7, #12]
1350:Generated_Source\PSoC6\pdl\rtos\FreeRTOS\9.0.0\Source/tasks.c **** 			uxReturn = pxTCB->uxPriority;
 986              		.loc 1 1350 0 is_stmt 1 discriminator 4
 987 001c FB68     		ldr	r3, [r7, #12]
 988 001e DB6A     		ldr	r3, [r3, #44]
 989 0020 BB60     		str	r3, [r7, #8]
1351:Generated_Source\PSoC6\pdl\rtos\FreeRTOS\9.0.0\Source/tasks.c **** 		}
1352:Generated_Source\PSoC6\pdl\rtos\FreeRTOS\9.0.0\Source/tasks.c **** 		taskEXIT_CRITICAL();
 990              		.loc 1 1352 0 discriminator 4
 991 0022 FFF7FEFF 		bl	vPortExitCritical
1353:Generated_Source\PSoC6\pdl\rtos\FreeRTOS\9.0.0\Source/tasks.c **** 
1354:Generated_Source\PSoC6\pdl\rtos\FreeRTOS\9.0.0\Source/tasks.c **** 		return uxReturn;
 992              		.loc 1 1354 0 discriminator 4
 993 0026 BB68     		ldr	r3, [r7, #8]
1355:Generated_Source\PSoC6\pdl\rtos\FreeRTOS\9.0.0\Source/tasks.c **** 	}
 994              		.loc 1 1355 0 discriminator 4
 995 0028 1846     		mov	r0, r3
 996 002a 1037     		adds	r7, r7, #16
 997              		.cfi_def_cfa_offset 8
 998 002c BD46     		mov	sp, r7
 999              		.cfi_def_cfa_register 13
 1000              		@ sp needed
 1001 002e 80BD     		pop	{r7, pc}
 1002              	.L70:
 1003              		.align	2
 1004              	.L69:
 1005 0030 00000000 		.word	pxCurrentTCB
 1006              		.cfi_endproc
 1007              	.LFE135:
 1008              		.size	uxTaskPriorityGet, .-uxTaskPriorityGet
 1009              		.section	.text.uxTaskPriorityGetFromISR,"ax",%progbits
 1010              		.align	2
 1011              		.global	uxTaskPriorityGetFromISR
ARM GAS  C:\Users\ikomb\AppData\Local\Temp\ccNQc6m6.s 			page 43


 1012              		.thumb
 1013              		.thumb_func
 1014              		.type	uxTaskPriorityGetFromISR, %function
 1015              	uxTaskPriorityGetFromISR:
 1016              	.LFB136:
1356:Generated_Source\PSoC6\pdl\rtos\FreeRTOS\9.0.0\Source/tasks.c **** 
1357:Generated_Source\PSoC6\pdl\rtos\FreeRTOS\9.0.0\Source/tasks.c **** #endif /* INCLUDE_uxTaskPriorityGet */
1358:Generated_Source\PSoC6\pdl\rtos\FreeRTOS\9.0.0\Source/tasks.c **** /*-----------------------------------------------------------*/
1359:Generated_Source\PSoC6\pdl\rtos\FreeRTOS\9.0.0\Source/tasks.c **** 
1360:Generated_Source\PSoC6\pdl\rtos\FreeRTOS\9.0.0\Source/tasks.c **** #if ( INCLUDE_uxTaskPriorityGet == 1 )
1361:Generated_Source\PSoC6\pdl\rtos\FreeRTOS\9.0.0\Source/tasks.c **** 
1362:Generated_Source\PSoC6\pdl\rtos\FreeRTOS\9.0.0\Source/tasks.c **** 	UBaseType_t uxTaskPriorityGetFromISR( TaskHandle_t xTask )
1363:Generated_Source\PSoC6\pdl\rtos\FreeRTOS\9.0.0\Source/tasks.c **** 	{
 1017              		.loc 1 1363 0
 1018              		.cfi_startproc
 1019              		@ args = 0, pretend = 0, frame = 32
 1020              		@ frame_needed = 1, uses_anonymous_args = 0
 1021 0000 80B5     		push	{r7, lr}
 1022              		.cfi_def_cfa_offset 8
 1023              		.cfi_offset 7, -8
 1024              		.cfi_offset 14, -4
 1025 0002 88B0     		sub	sp, sp, #32
 1026              		.cfi_def_cfa_offset 40
 1027 0004 00AF     		add	r7, sp, #0
 1028              		.cfi_def_cfa_register 7
 1029 0006 7860     		str	r0, [r7, #4]
1364:Generated_Source\PSoC6\pdl\rtos\FreeRTOS\9.0.0\Source/tasks.c **** 	TCB_t *pxTCB;
1365:Generated_Source\PSoC6\pdl\rtos\FreeRTOS\9.0.0\Source/tasks.c **** 	UBaseType_t uxReturn, uxSavedInterruptState;
1366:Generated_Source\PSoC6\pdl\rtos\FreeRTOS\9.0.0\Source/tasks.c **** 
1367:Generated_Source\PSoC6\pdl\rtos\FreeRTOS\9.0.0\Source/tasks.c **** 		/* RTOS ports that support interrupt nesting have the concept of a
1368:Generated_Source\PSoC6\pdl\rtos\FreeRTOS\9.0.0\Source/tasks.c **** 		maximum	system call (or maximum API call) interrupt priority.
1369:Generated_Source\PSoC6\pdl\rtos\FreeRTOS\9.0.0\Source/tasks.c **** 		Interrupts that are	above the maximum system call priority are keep
1370:Generated_Source\PSoC6\pdl\rtos\FreeRTOS\9.0.0\Source/tasks.c **** 		permanently enabled, even when the RTOS kernel is in a critical section,
1371:Generated_Source\PSoC6\pdl\rtos\FreeRTOS\9.0.0\Source/tasks.c **** 		but cannot make any calls to FreeRTOS API functions.  If configASSERT()
1372:Generated_Source\PSoC6\pdl\rtos\FreeRTOS\9.0.0\Source/tasks.c **** 		is defined in FreeRTOSConfig.h then
1373:Generated_Source\PSoC6\pdl\rtos\FreeRTOS\9.0.0\Source/tasks.c **** 		portASSERT_IF_INTERRUPT_PRIORITY_INVALID() will result in an assertion
1374:Generated_Source\PSoC6\pdl\rtos\FreeRTOS\9.0.0\Source/tasks.c **** 		failure if a FreeRTOS API function is called from an interrupt that has
1375:Generated_Source\PSoC6\pdl\rtos\FreeRTOS\9.0.0\Source/tasks.c **** 		been assigned a priority above the configured maximum system call
1376:Generated_Source\PSoC6\pdl\rtos\FreeRTOS\9.0.0\Source/tasks.c **** 		priority.  Only FreeRTOS functions that end in FromISR can be called
1377:Generated_Source\PSoC6\pdl\rtos\FreeRTOS\9.0.0\Source/tasks.c **** 		from interrupts	that have been assigned a priority at or (logically)
1378:Generated_Source\PSoC6\pdl\rtos\FreeRTOS\9.0.0\Source/tasks.c **** 		below the maximum system call interrupt priority.  FreeRTOS maintains a
1379:Generated_Source\PSoC6\pdl\rtos\FreeRTOS\9.0.0\Source/tasks.c **** 		separate interrupt safe API to ensure interrupt entry is as fast and as
1380:Generated_Source\PSoC6\pdl\rtos\FreeRTOS\9.0.0\Source/tasks.c **** 		simple as possible.  More information (albeit Cortex-M specific) is
1381:Generated_Source\PSoC6\pdl\rtos\FreeRTOS\9.0.0\Source/tasks.c **** 		provided on the following link:
1382:Generated_Source\PSoC6\pdl\rtos\FreeRTOS\9.0.0\Source/tasks.c **** 		http://www.freertos.org/RTOS-Cortex-M3-M4.html */
1383:Generated_Source\PSoC6\pdl\rtos\FreeRTOS\9.0.0\Source/tasks.c **** 		portASSERT_IF_INTERRUPT_PRIORITY_INVALID();
 1030              		.loc 1 1383 0
 1031 0008 FFF7FEFF 		bl	vPortValidateInterruptPriority
 1032              	.LBB20:
 1033              	.LBB21:
 1034              		.file 2 "Generated_Source\\PSoC6\\pdl\\rtos/FreeRTOS/9.0.0/Source/portable/GCC/CM4F/portmacro.h"
   1:Generated_Source\PSoC6\pdl\rtos/FreeRTOS/9.0.0/Source/portable/GCC/CM4F/portmacro.h **** /*
   2:Generated_Source\PSoC6\pdl\rtos/FreeRTOS/9.0.0/Source/portable/GCC/CM4F/portmacro.h ****     FreeRTOS V9.0.0 - Copyright (C) 2016 Real Time Engineers Ltd.
   3:Generated_Source\PSoC6\pdl\rtos/FreeRTOS/9.0.0/Source/portable/GCC/CM4F/portmacro.h ****     All rights reserved
   4:Generated_Source\PSoC6\pdl\rtos/FreeRTOS/9.0.0/Source/portable/GCC/CM4F/portmacro.h **** 
   5:Generated_Source\PSoC6\pdl\rtos/FreeRTOS/9.0.0/Source/portable/GCC/CM4F/portmacro.h ****     VISIT http://www.FreeRTOS.org TO ENSURE YOU ARE USING THE LATEST VERSION.
   6:Generated_Source\PSoC6\pdl\rtos/FreeRTOS/9.0.0/Source/portable/GCC/CM4F/portmacro.h **** 
ARM GAS  C:\Users\ikomb\AppData\Local\Temp\ccNQc6m6.s 			page 44


   7:Generated_Source\PSoC6\pdl\rtos/FreeRTOS/9.0.0/Source/portable/GCC/CM4F/portmacro.h ****     This file is part of the FreeRTOS distribution.
   8:Generated_Source\PSoC6\pdl\rtos/FreeRTOS/9.0.0/Source/portable/GCC/CM4F/portmacro.h **** 
   9:Generated_Source\PSoC6\pdl\rtos/FreeRTOS/9.0.0/Source/portable/GCC/CM4F/portmacro.h ****     FreeRTOS is free software; you can redistribute it and/or modify it under
  10:Generated_Source\PSoC6\pdl\rtos/FreeRTOS/9.0.0/Source/portable/GCC/CM4F/portmacro.h ****     the terms of the GNU General Public License (version 2) as published by the
  11:Generated_Source\PSoC6\pdl\rtos/FreeRTOS/9.0.0/Source/portable/GCC/CM4F/portmacro.h ****     Free Software Foundation >>>> AND MODIFIED BY <<<< the FreeRTOS exception.
  12:Generated_Source\PSoC6\pdl\rtos/FreeRTOS/9.0.0/Source/portable/GCC/CM4F/portmacro.h **** 
  13:Generated_Source\PSoC6\pdl\rtos/FreeRTOS/9.0.0/Source/portable/GCC/CM4F/portmacro.h ****     ***************************************************************************
  14:Generated_Source\PSoC6\pdl\rtos/FreeRTOS/9.0.0/Source/portable/GCC/CM4F/portmacro.h ****     >>!   NOTE: The modification to the GPL is included to allow you to     !<<
  15:Generated_Source\PSoC6\pdl\rtos/FreeRTOS/9.0.0/Source/portable/GCC/CM4F/portmacro.h ****     >>!   distribute a combined work that includes FreeRTOS without being   !<<
  16:Generated_Source\PSoC6\pdl\rtos/FreeRTOS/9.0.0/Source/portable/GCC/CM4F/portmacro.h ****     >>!   obliged to provide the source code for proprietary components     !<<
  17:Generated_Source\PSoC6\pdl\rtos/FreeRTOS/9.0.0/Source/portable/GCC/CM4F/portmacro.h ****     >>!   outside of the FreeRTOS kernel.                                   !<<
  18:Generated_Source\PSoC6\pdl\rtos/FreeRTOS/9.0.0/Source/portable/GCC/CM4F/portmacro.h ****     ***************************************************************************
  19:Generated_Source\PSoC6\pdl\rtos/FreeRTOS/9.0.0/Source/portable/GCC/CM4F/portmacro.h **** 
  20:Generated_Source\PSoC6\pdl\rtos/FreeRTOS/9.0.0/Source/portable/GCC/CM4F/portmacro.h ****     FreeRTOS is distributed in the hope that it will be useful, but WITHOUT ANY
  21:Generated_Source\PSoC6\pdl\rtos/FreeRTOS/9.0.0/Source/portable/GCC/CM4F/portmacro.h ****     WARRANTY; without even the implied warranty of MERCHANTABILITY or FITNESS
  22:Generated_Source\PSoC6\pdl\rtos/FreeRTOS/9.0.0/Source/portable/GCC/CM4F/portmacro.h ****     FOR A PARTICULAR PURPOSE.  Full license text is available on the following
  23:Generated_Source\PSoC6\pdl\rtos/FreeRTOS/9.0.0/Source/portable/GCC/CM4F/portmacro.h ****     link: http://www.freertos.org/a00114.html
  24:Generated_Source\PSoC6\pdl\rtos/FreeRTOS/9.0.0/Source/portable/GCC/CM4F/portmacro.h **** 
  25:Generated_Source\PSoC6\pdl\rtos/FreeRTOS/9.0.0/Source/portable/GCC/CM4F/portmacro.h ****     ***************************************************************************
  26:Generated_Source\PSoC6\pdl\rtos/FreeRTOS/9.0.0/Source/portable/GCC/CM4F/portmacro.h ****      *                                                                       *
  27:Generated_Source\PSoC6\pdl\rtos/FreeRTOS/9.0.0/Source/portable/GCC/CM4F/portmacro.h ****      *    FreeRTOS provides completely free yet professionally developed,    *
  28:Generated_Source\PSoC6\pdl\rtos/FreeRTOS/9.0.0/Source/portable/GCC/CM4F/portmacro.h ****      *    robust, strictly quality controlled, supported, and cross          *
  29:Generated_Source\PSoC6\pdl\rtos/FreeRTOS/9.0.0/Source/portable/GCC/CM4F/portmacro.h ****      *    platform software that is more than just the market leader, it     *
  30:Generated_Source\PSoC6\pdl\rtos/FreeRTOS/9.0.0/Source/portable/GCC/CM4F/portmacro.h ****      *    is the industry's de facto standard.                               *
  31:Generated_Source\PSoC6\pdl\rtos/FreeRTOS/9.0.0/Source/portable/GCC/CM4F/portmacro.h ****      *                                                                       *
  32:Generated_Source\PSoC6\pdl\rtos/FreeRTOS/9.0.0/Source/portable/GCC/CM4F/portmacro.h ****      *    Help yourself get started quickly while simultaneously helping     *
  33:Generated_Source\PSoC6\pdl\rtos/FreeRTOS/9.0.0/Source/portable/GCC/CM4F/portmacro.h ****      *    to support the FreeRTOS project by purchasing a FreeRTOS           *
  34:Generated_Source\PSoC6\pdl\rtos/FreeRTOS/9.0.0/Source/portable/GCC/CM4F/portmacro.h ****      *    tutorial book, reference manual, or both:                          *
  35:Generated_Source\PSoC6\pdl\rtos/FreeRTOS/9.0.0/Source/portable/GCC/CM4F/portmacro.h ****      *    http://www.FreeRTOS.org/Documentation                              *
  36:Generated_Source\PSoC6\pdl\rtos/FreeRTOS/9.0.0/Source/portable/GCC/CM4F/portmacro.h ****      *                                                                       *
  37:Generated_Source\PSoC6\pdl\rtos/FreeRTOS/9.0.0/Source/portable/GCC/CM4F/portmacro.h ****     ***************************************************************************
  38:Generated_Source\PSoC6\pdl\rtos/FreeRTOS/9.0.0/Source/portable/GCC/CM4F/portmacro.h **** 
  39:Generated_Source\PSoC6\pdl\rtos/FreeRTOS/9.0.0/Source/portable/GCC/CM4F/portmacro.h ****     http://www.FreeRTOS.org/FAQHelp.html - Having a problem?  Start by reading
  40:Generated_Source\PSoC6\pdl\rtos/FreeRTOS/9.0.0/Source/portable/GCC/CM4F/portmacro.h ****     the FAQ page "My application does not run, what could be wrong?".  Have you
  41:Generated_Source\PSoC6\pdl\rtos/FreeRTOS/9.0.0/Source/portable/GCC/CM4F/portmacro.h ****     defined configASSERT()?
  42:Generated_Source\PSoC6\pdl\rtos/FreeRTOS/9.0.0/Source/portable/GCC/CM4F/portmacro.h **** 
  43:Generated_Source\PSoC6\pdl\rtos/FreeRTOS/9.0.0/Source/portable/GCC/CM4F/portmacro.h ****     http://www.FreeRTOS.org/support - In return for receiving this top quality
  44:Generated_Source\PSoC6\pdl\rtos/FreeRTOS/9.0.0/Source/portable/GCC/CM4F/portmacro.h ****     embedded software for free we request you assist our global community by
  45:Generated_Source\PSoC6\pdl\rtos/FreeRTOS/9.0.0/Source/portable/GCC/CM4F/portmacro.h ****     participating in the support forum.
  46:Generated_Source\PSoC6\pdl\rtos/FreeRTOS/9.0.0/Source/portable/GCC/CM4F/portmacro.h **** 
  47:Generated_Source\PSoC6\pdl\rtos/FreeRTOS/9.0.0/Source/portable/GCC/CM4F/portmacro.h ****     http://www.FreeRTOS.org/training - Investing in training allows your team to
  48:Generated_Source\PSoC6\pdl\rtos/FreeRTOS/9.0.0/Source/portable/GCC/CM4F/portmacro.h ****     be as productive as possible as early as possible.  Now you can receive
  49:Generated_Source\PSoC6\pdl\rtos/FreeRTOS/9.0.0/Source/portable/GCC/CM4F/portmacro.h ****     FreeRTOS training directly from Richard Barry, CEO of Real Time Engineers
  50:Generated_Source\PSoC6\pdl\rtos/FreeRTOS/9.0.0/Source/portable/GCC/CM4F/portmacro.h ****     Ltd, and the world's leading authority on the world's leading RTOS.
  51:Generated_Source\PSoC6\pdl\rtos/FreeRTOS/9.0.0/Source/portable/GCC/CM4F/portmacro.h **** 
  52:Generated_Source\PSoC6\pdl\rtos/FreeRTOS/9.0.0/Source/portable/GCC/CM4F/portmacro.h ****     http://www.FreeRTOS.org/plus - A selection of FreeRTOS ecosystem products,
  53:Generated_Source\PSoC6\pdl\rtos/FreeRTOS/9.0.0/Source/portable/GCC/CM4F/portmacro.h ****     including FreeRTOS+Trace - an indispensable productivity tool, a DOS
  54:Generated_Source\PSoC6\pdl\rtos/FreeRTOS/9.0.0/Source/portable/GCC/CM4F/portmacro.h ****     compatible FAT file system, and our tiny thread aware UDP/IP stack.
  55:Generated_Source\PSoC6\pdl\rtos/FreeRTOS/9.0.0/Source/portable/GCC/CM4F/portmacro.h **** 
  56:Generated_Source\PSoC6\pdl\rtos/FreeRTOS/9.0.0/Source/portable/GCC/CM4F/portmacro.h ****     http://www.FreeRTOS.org/labs - Where new FreeRTOS products go to incubate.
  57:Generated_Source\PSoC6\pdl\rtos/FreeRTOS/9.0.0/Source/portable/GCC/CM4F/portmacro.h ****     Come and try FreeRTOS+TCP, our new open source TCP/IP stack for FreeRTOS.
  58:Generated_Source\PSoC6\pdl\rtos/FreeRTOS/9.0.0/Source/portable/GCC/CM4F/portmacro.h **** 
  59:Generated_Source\PSoC6\pdl\rtos/FreeRTOS/9.0.0/Source/portable/GCC/CM4F/portmacro.h ****     http://www.OpenRTOS.com - Real Time Engineers ltd. license FreeRTOS to High
  60:Generated_Source\PSoC6\pdl\rtos/FreeRTOS/9.0.0/Source/portable/GCC/CM4F/portmacro.h ****     Integrity Systems ltd. to sell under the OpenRTOS brand.  Low cost OpenRTOS
  61:Generated_Source\PSoC6\pdl\rtos/FreeRTOS/9.0.0/Source/portable/GCC/CM4F/portmacro.h ****     licenses offer ticketed support, indemnification and commercial middleware.
  62:Generated_Source\PSoC6\pdl\rtos/FreeRTOS/9.0.0/Source/portable/GCC/CM4F/portmacro.h **** 
  63:Generated_Source\PSoC6\pdl\rtos/FreeRTOS/9.0.0/Source/portable/GCC/CM4F/portmacro.h ****     http://www.SafeRTOS.com - High Integrity Systems also provide a safety
ARM GAS  C:\Users\ikomb\AppData\Local\Temp\ccNQc6m6.s 			page 45


  64:Generated_Source\PSoC6\pdl\rtos/FreeRTOS/9.0.0/Source/portable/GCC/CM4F/portmacro.h ****     engineered and independently SIL3 certified version for use in safety and
  65:Generated_Source\PSoC6\pdl\rtos/FreeRTOS/9.0.0/Source/portable/GCC/CM4F/portmacro.h ****     mission critical applications that require provable dependability.
  66:Generated_Source\PSoC6\pdl\rtos/FreeRTOS/9.0.0/Source/portable/GCC/CM4F/portmacro.h **** 
  67:Generated_Source\PSoC6\pdl\rtos/FreeRTOS/9.0.0/Source/portable/GCC/CM4F/portmacro.h ****     1 tab == 4 spaces!
  68:Generated_Source\PSoC6\pdl\rtos/FreeRTOS/9.0.0/Source/portable/GCC/CM4F/portmacro.h **** */
  69:Generated_Source\PSoC6\pdl\rtos/FreeRTOS/9.0.0/Source/portable/GCC/CM4F/portmacro.h **** 
  70:Generated_Source\PSoC6\pdl\rtos/FreeRTOS/9.0.0/Source/portable/GCC/CM4F/portmacro.h **** 
  71:Generated_Source\PSoC6\pdl\rtos/FreeRTOS/9.0.0/Source/portable/GCC/CM4F/portmacro.h **** #ifndef PORTMACRO_H
  72:Generated_Source\PSoC6\pdl\rtos/FreeRTOS/9.0.0/Source/portable/GCC/CM4F/portmacro.h **** #define PORTMACRO_H
  73:Generated_Source\PSoC6\pdl\rtos/FreeRTOS/9.0.0/Source/portable/GCC/CM4F/portmacro.h **** 
  74:Generated_Source\PSoC6\pdl\rtos/FreeRTOS/9.0.0/Source/portable/GCC/CM4F/portmacro.h **** #ifdef __cplusplus
  75:Generated_Source\PSoC6\pdl\rtos/FreeRTOS/9.0.0/Source/portable/GCC/CM4F/portmacro.h **** extern "C" {
  76:Generated_Source\PSoC6\pdl\rtos/FreeRTOS/9.0.0/Source/portable/GCC/CM4F/portmacro.h **** #endif
  77:Generated_Source\PSoC6\pdl\rtos/FreeRTOS/9.0.0/Source/portable/GCC/CM4F/portmacro.h **** 
  78:Generated_Source\PSoC6\pdl\rtos/FreeRTOS/9.0.0/Source/portable/GCC/CM4F/portmacro.h **** /*-----------------------------------------------------------
  79:Generated_Source\PSoC6\pdl\rtos/FreeRTOS/9.0.0/Source/portable/GCC/CM4F/portmacro.h ****  * Port specific definitions.
  80:Generated_Source\PSoC6\pdl\rtos/FreeRTOS/9.0.0/Source/portable/GCC/CM4F/portmacro.h ****  *
  81:Generated_Source\PSoC6\pdl\rtos/FreeRTOS/9.0.0/Source/portable/GCC/CM4F/portmacro.h ****  * The settings in this file configure FreeRTOS correctly for the
  82:Generated_Source\PSoC6\pdl\rtos/FreeRTOS/9.0.0/Source/portable/GCC/CM4F/portmacro.h ****  * given hardware and compiler.
  83:Generated_Source\PSoC6\pdl\rtos/FreeRTOS/9.0.0/Source/portable/GCC/CM4F/portmacro.h ****  *
  84:Generated_Source\PSoC6\pdl\rtos/FreeRTOS/9.0.0/Source/portable/GCC/CM4F/portmacro.h ****  * These settings should not be altered.
  85:Generated_Source\PSoC6\pdl\rtos/FreeRTOS/9.0.0/Source/portable/GCC/CM4F/portmacro.h ****  *-----------------------------------------------------------
  86:Generated_Source\PSoC6\pdl\rtos/FreeRTOS/9.0.0/Source/portable/GCC/CM4F/portmacro.h ****  */
  87:Generated_Source\PSoC6\pdl\rtos/FreeRTOS/9.0.0/Source/portable/GCC/CM4F/portmacro.h **** 
  88:Generated_Source\PSoC6\pdl\rtos/FreeRTOS/9.0.0/Source/portable/GCC/CM4F/portmacro.h **** /* Type definitions. */
  89:Generated_Source\PSoC6\pdl\rtos/FreeRTOS/9.0.0/Source/portable/GCC/CM4F/portmacro.h **** #define portCHAR        char
  90:Generated_Source\PSoC6\pdl\rtos/FreeRTOS/9.0.0/Source/portable/GCC/CM4F/portmacro.h **** #define portFLOAT       float
  91:Generated_Source\PSoC6\pdl\rtos/FreeRTOS/9.0.0/Source/portable/GCC/CM4F/portmacro.h **** #define portDOUBLE      double
  92:Generated_Source\PSoC6\pdl\rtos/FreeRTOS/9.0.0/Source/portable/GCC/CM4F/portmacro.h **** #define portLONG        long
  93:Generated_Source\PSoC6\pdl\rtos/FreeRTOS/9.0.0/Source/portable/GCC/CM4F/portmacro.h **** #define portSHORT       short
  94:Generated_Source\PSoC6\pdl\rtos/FreeRTOS/9.0.0/Source/portable/GCC/CM4F/portmacro.h **** #define portSTACK_TYPE  uint32_t
  95:Generated_Source\PSoC6\pdl\rtos/FreeRTOS/9.0.0/Source/portable/GCC/CM4F/portmacro.h **** #define portBASE_TYPE   long
  96:Generated_Source\PSoC6\pdl\rtos/FreeRTOS/9.0.0/Source/portable/GCC/CM4F/portmacro.h **** 
  97:Generated_Source\PSoC6\pdl\rtos/FreeRTOS/9.0.0/Source/portable/GCC/CM4F/portmacro.h **** typedef portSTACK_TYPE StackType_t;
  98:Generated_Source\PSoC6\pdl\rtos/FreeRTOS/9.0.0/Source/portable/GCC/CM4F/portmacro.h **** typedef long BaseType_t;
  99:Generated_Source\PSoC6\pdl\rtos/FreeRTOS/9.0.0/Source/portable/GCC/CM4F/portmacro.h **** typedef unsigned long UBaseType_t;
 100:Generated_Source\PSoC6\pdl\rtos/FreeRTOS/9.0.0/Source/portable/GCC/CM4F/portmacro.h **** 
 101:Generated_Source\PSoC6\pdl\rtos/FreeRTOS/9.0.0/Source/portable/GCC/CM4F/portmacro.h **** #if( configUSE_16_BIT_TICKS == 1 )
 102:Generated_Source\PSoC6\pdl\rtos/FreeRTOS/9.0.0/Source/portable/GCC/CM4F/portmacro.h ****     typedef uint16_t TickType_t;
 103:Generated_Source\PSoC6\pdl\rtos/FreeRTOS/9.0.0/Source/portable/GCC/CM4F/portmacro.h ****     #define portMAX_DELAY ( TickType_t ) 0xffff
 104:Generated_Source\PSoC6\pdl\rtos/FreeRTOS/9.0.0/Source/portable/GCC/CM4F/portmacro.h **** #else
 105:Generated_Source\PSoC6\pdl\rtos/FreeRTOS/9.0.0/Source/portable/GCC/CM4F/portmacro.h ****     typedef uint32_t TickType_t;
 106:Generated_Source\PSoC6\pdl\rtos/FreeRTOS/9.0.0/Source/portable/GCC/CM4F/portmacro.h ****     #define portMAX_DELAY ( TickType_t ) 0xffffffffUL
 107:Generated_Source\PSoC6\pdl\rtos/FreeRTOS/9.0.0/Source/portable/GCC/CM4F/portmacro.h **** 
 108:Generated_Source\PSoC6\pdl\rtos/FreeRTOS/9.0.0/Source/portable/GCC/CM4F/portmacro.h ****     /* 32-bit tick type on a 32-bit architecture, so reads of the tick count do
 109:Generated_Source\PSoC6\pdl\rtos/FreeRTOS/9.0.0/Source/portable/GCC/CM4F/portmacro.h ****     not need to be guarded with a critical section. */
 110:Generated_Source\PSoC6\pdl\rtos/FreeRTOS/9.0.0/Source/portable/GCC/CM4F/portmacro.h ****     #define portTICK_TYPE_IS_ATOMIC 1
 111:Generated_Source\PSoC6\pdl\rtos/FreeRTOS/9.0.0/Source/portable/GCC/CM4F/portmacro.h **** #endif
 112:Generated_Source\PSoC6\pdl\rtos/FreeRTOS/9.0.0/Source/portable/GCC/CM4F/portmacro.h **** /*-----------------------------------------------------------*/
 113:Generated_Source\PSoC6\pdl\rtos/FreeRTOS/9.0.0/Source/portable/GCC/CM4F/portmacro.h **** 
 114:Generated_Source\PSoC6\pdl\rtos/FreeRTOS/9.0.0/Source/portable/GCC/CM4F/portmacro.h **** /* Architecture specifics. */
 115:Generated_Source\PSoC6\pdl\rtos/FreeRTOS/9.0.0/Source/portable/GCC/CM4F/portmacro.h **** #define portSTACK_GROWTH              ( -1 )
 116:Generated_Source\PSoC6\pdl\rtos/FreeRTOS/9.0.0/Source/portable/GCC/CM4F/portmacro.h **** #define portTICK_PERIOD_MS            ( ( TickType_t ) 1000 / configTICK_RATE_HZ )
 117:Generated_Source\PSoC6\pdl\rtos/FreeRTOS/9.0.0/Source/portable/GCC/CM4F/portmacro.h **** #define portBYTE_ALIGNMENT            8
 118:Generated_Source\PSoC6\pdl\rtos/FreeRTOS/9.0.0/Source/portable/GCC/CM4F/portmacro.h **** /*-----------------------------------------------------------*/
 119:Generated_Source\PSoC6\pdl\rtos/FreeRTOS/9.0.0/Source/portable/GCC/CM4F/portmacro.h **** 
 120:Generated_Source\PSoC6\pdl\rtos/FreeRTOS/9.0.0/Source/portable/GCC/CM4F/portmacro.h **** 
ARM GAS  C:\Users\ikomb\AppData\Local\Temp\ccNQc6m6.s 			page 46


 121:Generated_Source\PSoC6\pdl\rtos/FreeRTOS/9.0.0/Source/portable/GCC/CM4F/portmacro.h **** /* Scheduler utilities. */
 122:Generated_Source\PSoC6\pdl\rtos/FreeRTOS/9.0.0/Source/portable/GCC/CM4F/portmacro.h **** #define portYIELD()                                                            \
 123:Generated_Source\PSoC6\pdl\rtos/FreeRTOS/9.0.0/Source/portable/GCC/CM4F/portmacro.h **** {                                                                              \
 124:Generated_Source\PSoC6\pdl\rtos/FreeRTOS/9.0.0/Source/portable/GCC/CM4F/portmacro.h ****     /* Set a PendSV to request a context switch. */                            \
 125:Generated_Source\PSoC6\pdl\rtos/FreeRTOS/9.0.0/Source/portable/GCC/CM4F/portmacro.h ****     portNVIC_INT_CTRL_REG = portNVIC_PENDSVSET_BIT;                            \
 126:Generated_Source\PSoC6\pdl\rtos/FreeRTOS/9.0.0/Source/portable/GCC/CM4F/portmacro.h ****                                                                                \
 127:Generated_Source\PSoC6\pdl\rtos/FreeRTOS/9.0.0/Source/portable/GCC/CM4F/portmacro.h ****     /* Barriers are normally not required but do ensure the code is completely \
 128:Generated_Source\PSoC6\pdl\rtos/FreeRTOS/9.0.0/Source/portable/GCC/CM4F/portmacro.h ****     within the specified behaviour for the architecture. */                    \
 129:Generated_Source\PSoC6\pdl\rtos/FreeRTOS/9.0.0/Source/portable/GCC/CM4F/portmacro.h ****     __asm volatile( "dsb" );                                                   \
 130:Generated_Source\PSoC6\pdl\rtos/FreeRTOS/9.0.0/Source/portable/GCC/CM4F/portmacro.h ****     __asm volatile( "isb" );                                                   \
 131:Generated_Source\PSoC6\pdl\rtos/FreeRTOS/9.0.0/Source/portable/GCC/CM4F/portmacro.h **** }                                                                              \
 132:Generated_Source\PSoC6\pdl\rtos/FreeRTOS/9.0.0/Source/portable/GCC/CM4F/portmacro.h **** 
 133:Generated_Source\PSoC6\pdl\rtos/FreeRTOS/9.0.0/Source/portable/GCC/CM4F/portmacro.h **** #define portNVIC_INT_CTRL_REG         ( * ( ( volatile uint32_t * ) 0xe000ed04 ) )
 134:Generated_Source\PSoC6\pdl\rtos/FreeRTOS/9.0.0/Source/portable/GCC/CM4F/portmacro.h **** #define portNVIC_PENDSVSET_BIT        ( 1UL << 28UL )
 135:Generated_Source\PSoC6\pdl\rtos/FreeRTOS/9.0.0/Source/portable/GCC/CM4F/portmacro.h **** #define portEND_SWITCHING_ISR( xSwitchRequired ) if( xSwitchRequired != pdFALSE ) portYIELD()
 136:Generated_Source\PSoC6\pdl\rtos/FreeRTOS/9.0.0/Source/portable/GCC/CM4F/portmacro.h **** #define portYIELD_FROM_ISR( x )       portEND_SWITCHING_ISR( x )
 137:Generated_Source\PSoC6\pdl\rtos/FreeRTOS/9.0.0/Source/portable/GCC/CM4F/portmacro.h **** /*-----------------------------------------------------------*/
 138:Generated_Source\PSoC6\pdl\rtos/FreeRTOS/9.0.0/Source/portable/GCC/CM4F/portmacro.h **** 
 139:Generated_Source\PSoC6\pdl\rtos/FreeRTOS/9.0.0/Source/portable/GCC/CM4F/portmacro.h **** 
 140:Generated_Source\PSoC6\pdl\rtos/FreeRTOS/9.0.0/Source/portable/GCC/CM4F/portmacro.h **** /* Critical section management. */
 141:Generated_Source\PSoC6\pdl\rtos/FreeRTOS/9.0.0/Source/portable/GCC/CM4F/portmacro.h **** extern void vPortEnterCritical( void );
 142:Generated_Source\PSoC6\pdl\rtos/FreeRTOS/9.0.0/Source/portable/GCC/CM4F/portmacro.h **** extern void vPortExitCritical( void );
 143:Generated_Source\PSoC6\pdl\rtos/FreeRTOS/9.0.0/Source/portable/GCC/CM4F/portmacro.h **** #define portSET_INTERRUPT_MASK_FROM_ISR()       ulPortRaiseBASEPRI()
 144:Generated_Source\PSoC6\pdl\rtos/FreeRTOS/9.0.0/Source/portable/GCC/CM4F/portmacro.h **** #define portCLEAR_INTERRUPT_MASK_FROM_ISR(x)    vPortSetBASEPRI(x)
 145:Generated_Source\PSoC6\pdl\rtos/FreeRTOS/9.0.0/Source/portable/GCC/CM4F/portmacro.h **** #define portDISABLE_INTERRUPTS()                __asm volatile   ( " cpsid i " )
 146:Generated_Source\PSoC6\pdl\rtos/FreeRTOS/9.0.0/Source/portable/GCC/CM4F/portmacro.h **** #define portENABLE_INTERRUPTS()                 __asm volatile   ( " cpsie i " )
 147:Generated_Source\PSoC6\pdl\rtos/FreeRTOS/9.0.0/Source/portable/GCC/CM4F/portmacro.h **** #define portENTER_CRITICAL()                    vPortEnterCritical()
 148:Generated_Source\PSoC6\pdl\rtos/FreeRTOS/9.0.0/Source/portable/GCC/CM4F/portmacro.h **** #define portEXIT_CRITICAL()                     vPortExitCritical()
 149:Generated_Source\PSoC6\pdl\rtos/FreeRTOS/9.0.0/Source/portable/GCC/CM4F/portmacro.h **** 
 150:Generated_Source\PSoC6\pdl\rtos/FreeRTOS/9.0.0/Source/portable/GCC/CM4F/portmacro.h **** /*-----------------------------------------------------------*/
 151:Generated_Source\PSoC6\pdl\rtos/FreeRTOS/9.0.0/Source/portable/GCC/CM4F/portmacro.h **** 
 152:Generated_Source\PSoC6\pdl\rtos/FreeRTOS/9.0.0/Source/portable/GCC/CM4F/portmacro.h **** /* Task function macros as described on the FreeRTOS.org WEB site. */
 153:Generated_Source\PSoC6\pdl\rtos/FreeRTOS/9.0.0/Source/portable/GCC/CM4F/portmacro.h **** #define portTASK_FUNCTION_PROTO( vFunction, pvParameters ) void vFunction( void *pvParameters )
 154:Generated_Source\PSoC6\pdl\rtos/FreeRTOS/9.0.0/Source/portable/GCC/CM4F/portmacro.h **** #define portTASK_FUNCTION( vFunction, pvParameters ) void vFunction( void *pvParameters )
 155:Generated_Source\PSoC6\pdl\rtos/FreeRTOS/9.0.0/Source/portable/GCC/CM4F/portmacro.h **** 
 156:Generated_Source\PSoC6\pdl\rtos/FreeRTOS/9.0.0/Source/portable/GCC/CM4F/portmacro.h **** /*-----------------------------------------------------------*/
 157:Generated_Source\PSoC6\pdl\rtos/FreeRTOS/9.0.0/Source/portable/GCC/CM4F/portmacro.h **** 
 158:Generated_Source\PSoC6\pdl\rtos/FreeRTOS/9.0.0/Source/portable/GCC/CM4F/portmacro.h **** #ifdef configASSERT
 159:Generated_Source\PSoC6\pdl\rtos/FreeRTOS/9.0.0/Source/portable/GCC/CM4F/portmacro.h ****     void vPortValidateInterruptPriority( void );
 160:Generated_Source\PSoC6\pdl\rtos/FreeRTOS/9.0.0/Source/portable/GCC/CM4F/portmacro.h ****     #define portASSERT_IF_INTERRUPT_PRIORITY_INVALID()     vPortValidateInterruptPriority()
 161:Generated_Source\PSoC6\pdl\rtos/FreeRTOS/9.0.0/Source/portable/GCC/CM4F/portmacro.h **** #endif
 162:Generated_Source\PSoC6\pdl\rtos/FreeRTOS/9.0.0/Source/portable/GCC/CM4F/portmacro.h **** 
 163:Generated_Source\PSoC6\pdl\rtos/FreeRTOS/9.0.0/Source/portable/GCC/CM4F/portmacro.h **** /* portNOP() is not required by this port. */
 164:Generated_Source\PSoC6\pdl\rtos/FreeRTOS/9.0.0/Source/portable/GCC/CM4F/portmacro.h **** #define portNOP()
 165:Generated_Source\PSoC6\pdl\rtos/FreeRTOS/9.0.0/Source/portable/GCC/CM4F/portmacro.h **** 
 166:Generated_Source\PSoC6\pdl\rtos/FreeRTOS/9.0.0/Source/portable/GCC/CM4F/portmacro.h **** #define portINLINE    __inline
 167:Generated_Source\PSoC6\pdl\rtos/FreeRTOS/9.0.0/Source/portable/GCC/CM4F/portmacro.h **** 
 168:Generated_Source\PSoC6\pdl\rtos/FreeRTOS/9.0.0/Source/portable/GCC/CM4F/portmacro.h **** #ifndef portFORCE_INLINE
 169:Generated_Source\PSoC6\pdl\rtos/FreeRTOS/9.0.0/Source/portable/GCC/CM4F/portmacro.h ****     #define portFORCE_INLINE inline __attribute__(( always_inline))
 170:Generated_Source\PSoC6\pdl\rtos/FreeRTOS/9.0.0/Source/portable/GCC/CM4F/portmacro.h **** #endif
 171:Generated_Source\PSoC6\pdl\rtos/FreeRTOS/9.0.0/Source/portable/GCC/CM4F/portmacro.h **** 
 172:Generated_Source\PSoC6\pdl\rtos/FreeRTOS/9.0.0/Source/portable/GCC/CM4F/portmacro.h **** /*-----------------------------------------------------------*/
 173:Generated_Source\PSoC6\pdl\rtos/FreeRTOS/9.0.0/Source/portable/GCC/CM4F/portmacro.h **** 
 174:Generated_Source\PSoC6\pdl\rtos/FreeRTOS/9.0.0/Source/portable/GCC/CM4F/portmacro.h **** portFORCE_INLINE static BaseType_t xPortIsInsideInterrupt( void )
 175:Generated_Source\PSoC6\pdl\rtos/FreeRTOS/9.0.0/Source/portable/GCC/CM4F/portmacro.h **** {
 176:Generated_Source\PSoC6\pdl\rtos/FreeRTOS/9.0.0/Source/portable/GCC/CM4F/portmacro.h **** uint32_t ulCurrentInterrupt;
 177:Generated_Source\PSoC6\pdl\rtos/FreeRTOS/9.0.0/Source/portable/GCC/CM4F/portmacro.h **** BaseType_t xReturn;
ARM GAS  C:\Users\ikomb\AppData\Local\Temp\ccNQc6m6.s 			page 47


 178:Generated_Source\PSoC6\pdl\rtos/FreeRTOS/9.0.0/Source/portable/GCC/CM4F/portmacro.h **** 
 179:Generated_Source\PSoC6\pdl\rtos/FreeRTOS/9.0.0/Source/portable/GCC/CM4F/portmacro.h ****     /* Obtain the number of the currently executing interrupt. */
 180:Generated_Source\PSoC6\pdl\rtos/FreeRTOS/9.0.0/Source/portable/GCC/CM4F/portmacro.h ****     __asm volatile( "mrs %0, ipsr" : "=r"( ulCurrentInterrupt ) );
 181:Generated_Source\PSoC6\pdl\rtos/FreeRTOS/9.0.0/Source/portable/GCC/CM4F/portmacro.h **** 
 182:Generated_Source\PSoC6\pdl\rtos/FreeRTOS/9.0.0/Source/portable/GCC/CM4F/portmacro.h ****     if( ulCurrentInterrupt == 0 )
 183:Generated_Source\PSoC6\pdl\rtos/FreeRTOS/9.0.0/Source/portable/GCC/CM4F/portmacro.h ****     {
 184:Generated_Source\PSoC6\pdl\rtos/FreeRTOS/9.0.0/Source/portable/GCC/CM4F/portmacro.h ****         xReturn = pdFALSE;
 185:Generated_Source\PSoC6\pdl\rtos/FreeRTOS/9.0.0/Source/portable/GCC/CM4F/portmacro.h ****     }
 186:Generated_Source\PSoC6\pdl\rtos/FreeRTOS/9.0.0/Source/portable/GCC/CM4F/portmacro.h ****     else
 187:Generated_Source\PSoC6\pdl\rtos/FreeRTOS/9.0.0/Source/portable/GCC/CM4F/portmacro.h ****     {
 188:Generated_Source\PSoC6\pdl\rtos/FreeRTOS/9.0.0/Source/portable/GCC/CM4F/portmacro.h ****         xReturn = pdTRUE;
 189:Generated_Source\PSoC6\pdl\rtos/FreeRTOS/9.0.0/Source/portable/GCC/CM4F/portmacro.h ****     }
 190:Generated_Source\PSoC6\pdl\rtos/FreeRTOS/9.0.0/Source/portable/GCC/CM4F/portmacro.h **** 
 191:Generated_Source\PSoC6\pdl\rtos/FreeRTOS/9.0.0/Source/portable/GCC/CM4F/portmacro.h ****     return xReturn;
 192:Generated_Source\PSoC6\pdl\rtos/FreeRTOS/9.0.0/Source/portable/GCC/CM4F/portmacro.h **** }
 193:Generated_Source\PSoC6\pdl\rtos/FreeRTOS/9.0.0/Source/portable/GCC/CM4F/portmacro.h **** /*-----------------------------------------------------------*/
 194:Generated_Source\PSoC6\pdl\rtos/FreeRTOS/9.0.0/Source/portable/GCC/CM4F/portmacro.h **** 
 195:Generated_Source\PSoC6\pdl\rtos/FreeRTOS/9.0.0/Source/portable/GCC/CM4F/portmacro.h **** portFORCE_INLINE static void vPortRaiseBASEPRI( void )
 196:Generated_Source\PSoC6\pdl\rtos/FreeRTOS/9.0.0/Source/portable/GCC/CM4F/portmacro.h **** {
 197:Generated_Source\PSoC6\pdl\rtos/FreeRTOS/9.0.0/Source/portable/GCC/CM4F/portmacro.h **** uint32_t ulNewBASEPRI;
 198:Generated_Source\PSoC6\pdl\rtos/FreeRTOS/9.0.0/Source/portable/GCC/CM4F/portmacro.h **** 
 199:Generated_Source\PSoC6\pdl\rtos/FreeRTOS/9.0.0/Source/portable/GCC/CM4F/portmacro.h ****     __asm volatile
 200:Generated_Source\PSoC6\pdl\rtos/FreeRTOS/9.0.0/Source/portable/GCC/CM4F/portmacro.h ****     (
 201:Generated_Source\PSoC6\pdl\rtos/FreeRTOS/9.0.0/Source/portable/GCC/CM4F/portmacro.h ****         "    mov %0, %1                                                 \n" \
 202:Generated_Source\PSoC6\pdl\rtos/FreeRTOS/9.0.0/Source/portable/GCC/CM4F/portmacro.h ****         "    msr basepri, %0                                            \n" \
 203:Generated_Source\PSoC6\pdl\rtos/FreeRTOS/9.0.0/Source/portable/GCC/CM4F/portmacro.h ****         "    isb                                                        \n" \
 204:Generated_Source\PSoC6\pdl\rtos/FreeRTOS/9.0.0/Source/portable/GCC/CM4F/portmacro.h ****         "    dsb                                                        \n" \
 205:Generated_Source\PSoC6\pdl\rtos/FreeRTOS/9.0.0/Source/portable/GCC/CM4F/portmacro.h ****         :"=r" (ulNewBASEPRI) : "i" ( configMAX_SYSCALL_INTERRUPT_PRIORITY )
 206:Generated_Source\PSoC6\pdl\rtos/FreeRTOS/9.0.0/Source/portable/GCC/CM4F/portmacro.h ****     );
 207:Generated_Source\PSoC6\pdl\rtos/FreeRTOS/9.0.0/Source/portable/GCC/CM4F/portmacro.h **** }
 208:Generated_Source\PSoC6\pdl\rtos/FreeRTOS/9.0.0/Source/portable/GCC/CM4F/portmacro.h **** 
 209:Generated_Source\PSoC6\pdl\rtos/FreeRTOS/9.0.0/Source/portable/GCC/CM4F/portmacro.h **** /*-----------------------------------------------------------*/
 210:Generated_Source\PSoC6\pdl\rtos/FreeRTOS/9.0.0/Source/portable/GCC/CM4F/portmacro.h **** 
 211:Generated_Source\PSoC6\pdl\rtos/FreeRTOS/9.0.0/Source/portable/GCC/CM4F/portmacro.h **** portFORCE_INLINE static uint32_t ulPortRaiseBASEPRI( void )
 212:Generated_Source\PSoC6\pdl\rtos/FreeRTOS/9.0.0/Source/portable/GCC/CM4F/portmacro.h **** {
 213:Generated_Source\PSoC6\pdl\rtos/FreeRTOS/9.0.0/Source/portable/GCC/CM4F/portmacro.h **** uint32_t ulOriginalBASEPRI, ulNewBASEPRI;
 214:Generated_Source\PSoC6\pdl\rtos/FreeRTOS/9.0.0/Source/portable/GCC/CM4F/portmacro.h **** 
 215:Generated_Source\PSoC6\pdl\rtos/FreeRTOS/9.0.0/Source/portable/GCC/CM4F/portmacro.h ****     __asm volatile
 1035              		.loc 2 215 0
 1036              		.syntax unified
 1037              	@ 215 "Generated_Source\PSoC6\pdl\rtos/FreeRTOS/9.0.0/Source/portable/GCC/CM4F/portmacro.h" 1
 1038 000c EFF31182 		    mrs r2, basepri                                            
 1039 0010 4FF0BF03 	    mov r3, #191                                                 
 1040 0014 83F31188 	    msr basepri, r3                                            
 1041 0018 BFF36F8F 	    isb                                                        
 1042 001c BFF34F8F 	    dsb                                                        
 1043              	
 1044              	@ 0 "" 2
 1045              		.thumb
 1046              		.syntax unified
 1047 0020 FA60     		str	r2, [r7, #12]
 1048 0022 BB60     		str	r3, [r7, #8]
 216:Generated_Source\PSoC6\pdl\rtos/FreeRTOS/9.0.0/Source/portable/GCC/CM4F/portmacro.h ****     (
 217:Generated_Source\PSoC6\pdl\rtos/FreeRTOS/9.0.0/Source/portable/GCC/CM4F/portmacro.h ****         "    mrs %0, basepri                                            \n" \
 218:Generated_Source\PSoC6\pdl\rtos/FreeRTOS/9.0.0/Source/portable/GCC/CM4F/portmacro.h ****         "    mov %1, %2                                                 \n" \
 219:Generated_Source\PSoC6\pdl\rtos/FreeRTOS/9.0.0/Source/portable/GCC/CM4F/portmacro.h ****         "    msr basepri, %1                                            \n" \
 220:Generated_Source\PSoC6\pdl\rtos/FreeRTOS/9.0.0/Source/portable/GCC/CM4F/portmacro.h ****         "    isb                                                        \n" \
ARM GAS  C:\Users\ikomb\AppData\Local\Temp\ccNQc6m6.s 			page 48


 221:Generated_Source\PSoC6\pdl\rtos/FreeRTOS/9.0.0/Source/portable/GCC/CM4F/portmacro.h ****         "    dsb                                                        \n" \
 222:Generated_Source\PSoC6\pdl\rtos/FreeRTOS/9.0.0/Source/portable/GCC/CM4F/portmacro.h ****         :"=r" (ulOriginalBASEPRI), "=r" (ulNewBASEPRI) : "i" ( configMAX_SYSCALL_INTERRUPT_PRIORITY
 223:Generated_Source\PSoC6\pdl\rtos/FreeRTOS/9.0.0/Source/portable/GCC/CM4F/portmacro.h ****     );
 224:Generated_Source\PSoC6\pdl\rtos/FreeRTOS/9.0.0/Source/portable/GCC/CM4F/portmacro.h **** 
 225:Generated_Source\PSoC6\pdl\rtos/FreeRTOS/9.0.0/Source/portable/GCC/CM4F/portmacro.h ****     /* This return will not be reached but is necessary to prevent compiler
 226:Generated_Source\PSoC6\pdl\rtos/FreeRTOS/9.0.0/Source/portable/GCC/CM4F/portmacro.h ****     warnings. */
 227:Generated_Source\PSoC6\pdl\rtos/FreeRTOS/9.0.0/Source/portable/GCC/CM4F/portmacro.h ****     return ulOriginalBASEPRI;
 1049              		.loc 2 227 0
 1050 0024 FB68     		ldr	r3, [r7, #12]
 1051              	.LBE21:
 1052              	.LBE20:
1384:Generated_Source\PSoC6\pdl\rtos\FreeRTOS\9.0.0\Source/tasks.c **** 
1385:Generated_Source\PSoC6\pdl\rtos\FreeRTOS\9.0.0\Source/tasks.c **** 		uxSavedInterruptState = portSET_INTERRUPT_MASK_FROM_ISR();
 1053              		.loc 1 1385 0
 1054 0026 BB61     		str	r3, [r7, #24]
1386:Generated_Source\PSoC6\pdl\rtos\FreeRTOS\9.0.0\Source/tasks.c **** 		{
1387:Generated_Source\PSoC6\pdl\rtos\FreeRTOS\9.0.0\Source/tasks.c **** 			/* If null is passed in here then it is the priority of the calling
1388:Generated_Source\PSoC6\pdl\rtos\FreeRTOS\9.0.0\Source/tasks.c **** 			task that is being queried. */
1389:Generated_Source\PSoC6\pdl\rtos\FreeRTOS\9.0.0\Source/tasks.c **** 			pxTCB = prvGetTCBFromHandle( xTask );
 1055              		.loc 1 1389 0
 1056 0028 7B68     		ldr	r3, [r7, #4]
 1057 002a 002B     		cmp	r3, #0
 1058 002c 02D1     		bne	.L73
 1059              		.loc 1 1389 0 is_stmt 0 discriminator 1
 1060 002e 094B     		ldr	r3, .L76
 1061 0030 1B68     		ldr	r3, [r3]
 1062 0032 00E0     		b	.L74
 1063              	.L73:
 1064              		.loc 1 1389 0 discriminator 2
 1065 0034 7B68     		ldr	r3, [r7, #4]
 1066              	.L74:
 1067              		.loc 1 1389 0 discriminator 4
 1068 0036 7B61     		str	r3, [r7, #20]
1390:Generated_Source\PSoC6\pdl\rtos\FreeRTOS\9.0.0\Source/tasks.c **** 			uxReturn = pxTCB->uxPriority;
 1069              		.loc 1 1390 0 is_stmt 1 discriminator 4
 1070 0038 7B69     		ldr	r3, [r7, #20]
 1071 003a DB6A     		ldr	r3, [r3, #44]
 1072 003c 3B61     		str	r3, [r7, #16]
 1073 003e BB69     		ldr	r3, [r7, #24]
 1074 0040 FB61     		str	r3, [r7, #28]
 1075              	.LBB22:
 1076              	.LBB23:
 228:Generated_Source\PSoC6\pdl\rtos/FreeRTOS/9.0.0/Source/portable/GCC/CM4F/portmacro.h **** }
 229:Generated_Source\PSoC6\pdl\rtos/FreeRTOS/9.0.0/Source/portable/GCC/CM4F/portmacro.h **** /*-----------------------------------------------------------*/
 230:Generated_Source\PSoC6\pdl\rtos/FreeRTOS/9.0.0/Source/portable/GCC/CM4F/portmacro.h **** 
 231:Generated_Source\PSoC6\pdl\rtos/FreeRTOS/9.0.0/Source/portable/GCC/CM4F/portmacro.h **** portFORCE_INLINE static void vPortSetBASEPRI( uint32_t ulNewMaskValue )
 232:Generated_Source\PSoC6\pdl\rtos/FreeRTOS/9.0.0/Source/portable/GCC/CM4F/portmacro.h **** {
 233:Generated_Source\PSoC6\pdl\rtos/FreeRTOS/9.0.0/Source/portable/GCC/CM4F/portmacro.h ****     __asm volatile
 1077              		.loc 2 233 0 discriminator 4
 1078 0042 FB69     		ldr	r3, [r7, #28]
 1079              		.syntax unified
 1080              	@ 233 "Generated_Source\PSoC6\pdl\rtos/FreeRTOS/9.0.0/Source/portable/GCC/CM4F/portmacro.h" 1
 1081 0044 83F31188 		    msr basepri, r3  
 1082              	@ 0 "" 2
 1083              		.thumb
 1084              		.syntax unified
 1085              	.LBE23:
ARM GAS  C:\Users\ikomb\AppData\Local\Temp\ccNQc6m6.s 			page 49


 1086              	.LBE22:
1391:Generated_Source\PSoC6\pdl\rtos\FreeRTOS\9.0.0\Source/tasks.c **** 		}
1392:Generated_Source\PSoC6\pdl\rtos\FreeRTOS\9.0.0\Source/tasks.c **** 		portCLEAR_INTERRUPT_MASK_FROM_ISR( uxSavedInterruptState );
1393:Generated_Source\PSoC6\pdl\rtos\FreeRTOS\9.0.0\Source/tasks.c **** 
1394:Generated_Source\PSoC6\pdl\rtos\FreeRTOS\9.0.0\Source/tasks.c **** 		return uxReturn;
 1087              		.loc 1 1394 0 discriminator 4
 1088 0048 3B69     		ldr	r3, [r7, #16]
1395:Generated_Source\PSoC6\pdl\rtos\FreeRTOS\9.0.0\Source/tasks.c **** 	}
 1089              		.loc 1 1395 0 discriminator 4
 1090 004a 1846     		mov	r0, r3
 1091 004c 2037     		adds	r7, r7, #32
 1092              		.cfi_def_cfa_offset 8
 1093 004e BD46     		mov	sp, r7
 1094              		.cfi_def_cfa_register 13
 1095              		@ sp needed
 1096 0050 80BD     		pop	{r7, pc}
 1097              	.L77:
 1098 0052 00BF     		.align	2
 1099              	.L76:
 1100 0054 00000000 		.word	pxCurrentTCB
 1101              		.cfi_endproc
 1102              	.LFE136:
 1103              		.size	uxTaskPriorityGetFromISR, .-uxTaskPriorityGetFromISR
 1104              		.section	.text.vTaskPrioritySet,"ax",%progbits
 1105              		.align	2
 1106              		.global	vTaskPrioritySet
 1107              		.thumb
 1108              		.thumb_func
 1109              		.type	vTaskPrioritySet, %function
 1110              	vTaskPrioritySet:
 1111              	.LFB137:
1396:Generated_Source\PSoC6\pdl\rtos\FreeRTOS\9.0.0\Source/tasks.c **** 
1397:Generated_Source\PSoC6\pdl\rtos\FreeRTOS\9.0.0\Source/tasks.c **** #endif /* INCLUDE_uxTaskPriorityGet */
1398:Generated_Source\PSoC6\pdl\rtos\FreeRTOS\9.0.0\Source/tasks.c **** /*-----------------------------------------------------------*/
1399:Generated_Source\PSoC6\pdl\rtos\FreeRTOS\9.0.0\Source/tasks.c **** 
1400:Generated_Source\PSoC6\pdl\rtos\FreeRTOS\9.0.0\Source/tasks.c **** #if ( INCLUDE_vTaskPrioritySet == 1 )
1401:Generated_Source\PSoC6\pdl\rtos\FreeRTOS\9.0.0\Source/tasks.c **** 
1402:Generated_Source\PSoC6\pdl\rtos\FreeRTOS\9.0.0\Source/tasks.c **** 	void vTaskPrioritySet( TaskHandle_t xTask, UBaseType_t uxNewPriority )
1403:Generated_Source\PSoC6\pdl\rtos\FreeRTOS\9.0.0\Source/tasks.c **** 	{
 1112              		.loc 1 1403 0
 1113              		.cfi_startproc
 1114              		@ args = 0, pretend = 0, frame = 24
 1115              		@ frame_needed = 1, uses_anonymous_args = 0
 1116 0000 80B5     		push	{r7, lr}
 1117              		.cfi_def_cfa_offset 8
 1118              		.cfi_offset 7, -8
 1119              		.cfi_offset 14, -4
 1120 0002 86B0     		sub	sp, sp, #24
 1121              		.cfi_def_cfa_offset 32
 1122 0004 00AF     		add	r7, sp, #0
 1123              		.cfi_def_cfa_register 7
 1124 0006 7860     		str	r0, [r7, #4]
 1125 0008 3960     		str	r1, [r7]
1404:Generated_Source\PSoC6\pdl\rtos\FreeRTOS\9.0.0\Source/tasks.c **** 	TCB_t *pxTCB;
1405:Generated_Source\PSoC6\pdl\rtos\FreeRTOS\9.0.0\Source/tasks.c **** 	UBaseType_t uxCurrentBasePriority, uxPriorityUsedOnEntry;
1406:Generated_Source\PSoC6\pdl\rtos\FreeRTOS\9.0.0\Source/tasks.c **** 	BaseType_t xYieldRequired = pdFALSE;
 1126              		.loc 1 1406 0
ARM GAS  C:\Users\ikomb\AppData\Local\Temp\ccNQc6m6.s 			page 50


 1127 000a 0023     		movs	r3, #0
 1128 000c 7B61     		str	r3, [r7, #20]
1407:Generated_Source\PSoC6\pdl\rtos\FreeRTOS\9.0.0\Source/tasks.c **** 
1408:Generated_Source\PSoC6\pdl\rtos\FreeRTOS\9.0.0\Source/tasks.c **** 		configASSERT( ( uxNewPriority < configMAX_PRIORITIES ) );
 1129              		.loc 1 1408 0
 1130 000e 3B68     		ldr	r3, [r7]
 1131 0010 062B     		cmp	r3, #6
 1132 0012 01D9     		bls	.L79
 1133              		.loc 1 1408 0 is_stmt 0 discriminator 1
 1134              		.syntax unified
 1135              	@ 1408 "Generated_Source\PSoC6\pdl\rtos\FreeRTOS\9.0.0\Source\tasks.c" 1
 1136 0014 72B6     		 cpsid i 
 1137              	@ 0 "" 2
 1138              		.thumb
 1139              		.syntax unified
 1140              	.L80:
 1141 0016 FEE7     		b	.L80
 1142              	.L79:
1409:Generated_Source\PSoC6\pdl\rtos\FreeRTOS\9.0.0\Source/tasks.c **** 
1410:Generated_Source\PSoC6\pdl\rtos\FreeRTOS\9.0.0\Source/tasks.c **** 		/* Ensure the new priority is valid. */
1411:Generated_Source\PSoC6\pdl\rtos\FreeRTOS\9.0.0\Source/tasks.c **** 		if( uxNewPriority >= ( UBaseType_t ) configMAX_PRIORITIES )
 1143              		.loc 1 1411 0 is_stmt 1
 1144 0018 3B68     		ldr	r3, [r7]
 1145 001a 062B     		cmp	r3, #6
 1146 001c 01D9     		bls	.L81
1412:Generated_Source\PSoC6\pdl\rtos\FreeRTOS\9.0.0\Source/tasks.c **** 		{
1413:Generated_Source\PSoC6\pdl\rtos\FreeRTOS\9.0.0\Source/tasks.c **** 			uxNewPriority = ( UBaseType_t ) configMAX_PRIORITIES - ( UBaseType_t ) 1U;
 1147              		.loc 1 1413 0
 1148 001e 0623     		movs	r3, #6
 1149 0020 3B60     		str	r3, [r7]
 1150              	.L81:
1414:Generated_Source\PSoC6\pdl\rtos\FreeRTOS\9.0.0\Source/tasks.c **** 		}
1415:Generated_Source\PSoC6\pdl\rtos\FreeRTOS\9.0.0\Source/tasks.c **** 		else
1416:Generated_Source\PSoC6\pdl\rtos\FreeRTOS\9.0.0\Source/tasks.c **** 		{
1417:Generated_Source\PSoC6\pdl\rtos\FreeRTOS\9.0.0\Source/tasks.c **** 			mtCOVERAGE_TEST_MARKER();
1418:Generated_Source\PSoC6\pdl\rtos\FreeRTOS\9.0.0\Source/tasks.c **** 		}
1419:Generated_Source\PSoC6\pdl\rtos\FreeRTOS\9.0.0\Source/tasks.c **** 
1420:Generated_Source\PSoC6\pdl\rtos\FreeRTOS\9.0.0\Source/tasks.c **** 		taskENTER_CRITICAL();
 1151              		.loc 1 1420 0
 1152 0022 FFF7FEFF 		bl	vPortEnterCritical
1421:Generated_Source\PSoC6\pdl\rtos\FreeRTOS\9.0.0\Source/tasks.c **** 		{
1422:Generated_Source\PSoC6\pdl\rtos\FreeRTOS\9.0.0\Source/tasks.c **** 			/* If null is passed in here then it is the priority of the calling
1423:Generated_Source\PSoC6\pdl\rtos\FreeRTOS\9.0.0\Source/tasks.c **** 			task that is being changed. */
1424:Generated_Source\PSoC6\pdl\rtos\FreeRTOS\9.0.0\Source/tasks.c **** 			pxTCB = prvGetTCBFromHandle( xTask );
 1153              		.loc 1 1424 0
 1154 0026 7B68     		ldr	r3, [r7, #4]
 1155 0028 002B     		cmp	r3, #0
 1156 002a 02D1     		bne	.L82
 1157              		.loc 1 1424 0 is_stmt 0 discriminator 1
 1158 002c 384B     		ldr	r3, .L92
 1159 002e 1B68     		ldr	r3, [r3]
 1160 0030 00E0     		b	.L83
 1161              	.L82:
 1162              		.loc 1 1424 0 discriminator 2
 1163 0032 7B68     		ldr	r3, [r7, #4]
 1164              	.L83:
 1165              		.loc 1 1424 0 discriminator 4
ARM GAS  C:\Users\ikomb\AppData\Local\Temp\ccNQc6m6.s 			page 51


 1166 0034 3B61     		str	r3, [r7, #16]
1425:Generated_Source\PSoC6\pdl\rtos\FreeRTOS\9.0.0\Source/tasks.c **** 
1426:Generated_Source\PSoC6\pdl\rtos\FreeRTOS\9.0.0\Source/tasks.c **** 			traceTASK_PRIORITY_SET( pxTCB, uxNewPriority );
1427:Generated_Source\PSoC6\pdl\rtos\FreeRTOS\9.0.0\Source/tasks.c **** 
1428:Generated_Source\PSoC6\pdl\rtos\FreeRTOS\9.0.0\Source/tasks.c **** 			#if ( configUSE_MUTEXES == 1 )
1429:Generated_Source\PSoC6\pdl\rtos\FreeRTOS\9.0.0\Source/tasks.c **** 			{
1430:Generated_Source\PSoC6\pdl\rtos\FreeRTOS\9.0.0\Source/tasks.c **** 				uxCurrentBasePriority = pxTCB->uxBasePriority;
1431:Generated_Source\PSoC6\pdl\rtos\FreeRTOS\9.0.0\Source/tasks.c **** 			}
1432:Generated_Source\PSoC6\pdl\rtos\FreeRTOS\9.0.0\Source/tasks.c **** 			#else
1433:Generated_Source\PSoC6\pdl\rtos\FreeRTOS\9.0.0\Source/tasks.c **** 			{
1434:Generated_Source\PSoC6\pdl\rtos\FreeRTOS\9.0.0\Source/tasks.c **** 				uxCurrentBasePriority = pxTCB->uxPriority;
 1167              		.loc 1 1434 0 is_stmt 1 discriminator 4
 1168 0036 3B69     		ldr	r3, [r7, #16]
 1169 0038 DB6A     		ldr	r3, [r3, #44]
 1170 003a FB60     		str	r3, [r7, #12]
1435:Generated_Source\PSoC6\pdl\rtos\FreeRTOS\9.0.0\Source/tasks.c **** 			}
1436:Generated_Source\PSoC6\pdl\rtos\FreeRTOS\9.0.0\Source/tasks.c **** 			#endif
1437:Generated_Source\PSoC6\pdl\rtos\FreeRTOS\9.0.0\Source/tasks.c **** 
1438:Generated_Source\PSoC6\pdl\rtos\FreeRTOS\9.0.0\Source/tasks.c **** 			if( uxCurrentBasePriority != uxNewPriority )
 1171              		.loc 1 1438 0 discriminator 4
 1172 003c FA68     		ldr	r2, [r7, #12]
 1173 003e 3B68     		ldr	r3, [r7]
 1174 0040 9A42     		cmp	r2, r3
 1175 0042 5FD0     		beq	.L84
1439:Generated_Source\PSoC6\pdl\rtos\FreeRTOS\9.0.0\Source/tasks.c **** 			{
1440:Generated_Source\PSoC6\pdl\rtos\FreeRTOS\9.0.0\Source/tasks.c **** 				/* The priority change may have readied a task of higher
1441:Generated_Source\PSoC6\pdl\rtos\FreeRTOS\9.0.0\Source/tasks.c **** 				priority than the calling task. */
1442:Generated_Source\PSoC6\pdl\rtos\FreeRTOS\9.0.0\Source/tasks.c **** 				if( uxNewPriority > uxCurrentBasePriority )
 1176              		.loc 1 1442 0
 1177 0044 3A68     		ldr	r2, [r7]
 1178 0046 FB68     		ldr	r3, [r7, #12]
 1179 0048 9A42     		cmp	r2, r3
 1180 004a 0DD9     		bls	.L85
1443:Generated_Source\PSoC6\pdl\rtos\FreeRTOS\9.0.0\Source/tasks.c **** 				{
1444:Generated_Source\PSoC6\pdl\rtos\FreeRTOS\9.0.0\Source/tasks.c **** 					if( pxTCB != pxCurrentTCB )
 1181              		.loc 1 1444 0
 1182 004c 304B     		ldr	r3, .L92
 1183 004e 1B68     		ldr	r3, [r3]
 1184 0050 3A69     		ldr	r2, [r7, #16]
 1185 0052 9A42     		cmp	r2, r3
 1186 0054 0FD0     		beq	.L86
1445:Generated_Source\PSoC6\pdl\rtos\FreeRTOS\9.0.0\Source/tasks.c **** 					{
1446:Generated_Source\PSoC6\pdl\rtos\FreeRTOS\9.0.0\Source/tasks.c **** 						/* The priority of a task other than the currently
1447:Generated_Source\PSoC6\pdl\rtos\FreeRTOS\9.0.0\Source/tasks.c **** 						running task is being raised.  Is the priority being
1448:Generated_Source\PSoC6\pdl\rtos\FreeRTOS\9.0.0\Source/tasks.c **** 						raised above that of the running task? */
1449:Generated_Source\PSoC6\pdl\rtos\FreeRTOS\9.0.0\Source/tasks.c **** 						if( uxNewPriority >= pxCurrentTCB->uxPriority )
 1187              		.loc 1 1449 0
 1188 0056 2E4B     		ldr	r3, .L92
 1189 0058 1B68     		ldr	r3, [r3]
 1190 005a DA6A     		ldr	r2, [r3, #44]
 1191 005c 3B68     		ldr	r3, [r7]
 1192 005e 9A42     		cmp	r2, r3
 1193 0060 09D8     		bhi	.L86
1450:Generated_Source\PSoC6\pdl\rtos\FreeRTOS\9.0.0\Source/tasks.c **** 						{
1451:Generated_Source\PSoC6\pdl\rtos\FreeRTOS\9.0.0\Source/tasks.c **** 							xYieldRequired = pdTRUE;
 1194              		.loc 1 1451 0
 1195 0062 0123     		movs	r3, #1
ARM GAS  C:\Users\ikomb\AppData\Local\Temp\ccNQc6m6.s 			page 52


 1196 0064 7B61     		str	r3, [r7, #20]
 1197 0066 06E0     		b	.L86
 1198              	.L85:
1452:Generated_Source\PSoC6\pdl\rtos\FreeRTOS\9.0.0\Source/tasks.c **** 						}
1453:Generated_Source\PSoC6\pdl\rtos\FreeRTOS\9.0.0\Source/tasks.c **** 						else
1454:Generated_Source\PSoC6\pdl\rtos\FreeRTOS\9.0.0\Source/tasks.c **** 						{
1455:Generated_Source\PSoC6\pdl\rtos\FreeRTOS\9.0.0\Source/tasks.c **** 							mtCOVERAGE_TEST_MARKER();
1456:Generated_Source\PSoC6\pdl\rtos\FreeRTOS\9.0.0\Source/tasks.c **** 						}
1457:Generated_Source\PSoC6\pdl\rtos\FreeRTOS\9.0.0\Source/tasks.c **** 					}
1458:Generated_Source\PSoC6\pdl\rtos\FreeRTOS\9.0.0\Source/tasks.c **** 					else
1459:Generated_Source\PSoC6\pdl\rtos\FreeRTOS\9.0.0\Source/tasks.c **** 					{
1460:Generated_Source\PSoC6\pdl\rtos\FreeRTOS\9.0.0\Source/tasks.c **** 						/* The priority of the running task is being raised,
1461:Generated_Source\PSoC6\pdl\rtos\FreeRTOS\9.0.0\Source/tasks.c **** 						but the running task must already be the highest
1462:Generated_Source\PSoC6\pdl\rtos\FreeRTOS\9.0.0\Source/tasks.c **** 						priority task able to run so no yield is required. */
1463:Generated_Source\PSoC6\pdl\rtos\FreeRTOS\9.0.0\Source/tasks.c **** 					}
1464:Generated_Source\PSoC6\pdl\rtos\FreeRTOS\9.0.0\Source/tasks.c **** 				}
1465:Generated_Source\PSoC6\pdl\rtos\FreeRTOS\9.0.0\Source/tasks.c **** 				else if( pxTCB == pxCurrentTCB )
 1199              		.loc 1 1465 0
 1200 0068 294B     		ldr	r3, .L92
 1201 006a 1B68     		ldr	r3, [r3]
 1202 006c 3A69     		ldr	r2, [r7, #16]
 1203 006e 9A42     		cmp	r2, r3
 1204 0070 01D1     		bne	.L86
1466:Generated_Source\PSoC6\pdl\rtos\FreeRTOS\9.0.0\Source/tasks.c **** 				{
1467:Generated_Source\PSoC6\pdl\rtos\FreeRTOS\9.0.0\Source/tasks.c **** 					/* Setting the priority of the running task down means
1468:Generated_Source\PSoC6\pdl\rtos\FreeRTOS\9.0.0\Source/tasks.c **** 					there may now be another task of higher priority that
1469:Generated_Source\PSoC6\pdl\rtos\FreeRTOS\9.0.0\Source/tasks.c **** 					is ready to execute. */
1470:Generated_Source\PSoC6\pdl\rtos\FreeRTOS\9.0.0\Source/tasks.c **** 					xYieldRequired = pdTRUE;
 1205              		.loc 1 1470 0
 1206 0072 0123     		movs	r3, #1
 1207 0074 7B61     		str	r3, [r7, #20]
 1208              	.L86:
1471:Generated_Source\PSoC6\pdl\rtos\FreeRTOS\9.0.0\Source/tasks.c **** 				}
1472:Generated_Source\PSoC6\pdl\rtos\FreeRTOS\9.0.0\Source/tasks.c **** 				else
1473:Generated_Source\PSoC6\pdl\rtos\FreeRTOS\9.0.0\Source/tasks.c **** 				{
1474:Generated_Source\PSoC6\pdl\rtos\FreeRTOS\9.0.0\Source/tasks.c **** 					/* Setting the priority of any other task down does not
1475:Generated_Source\PSoC6\pdl\rtos\FreeRTOS\9.0.0\Source/tasks.c **** 					require a yield as the running task must be above the
1476:Generated_Source\PSoC6\pdl\rtos\FreeRTOS\9.0.0\Source/tasks.c **** 					new priority of the task being modified. */
1477:Generated_Source\PSoC6\pdl\rtos\FreeRTOS\9.0.0\Source/tasks.c **** 				}
1478:Generated_Source\PSoC6\pdl\rtos\FreeRTOS\9.0.0\Source/tasks.c **** 
1479:Generated_Source\PSoC6\pdl\rtos\FreeRTOS\9.0.0\Source/tasks.c **** 				/* Remember the ready list the task might be referenced from
1480:Generated_Source\PSoC6\pdl\rtos\FreeRTOS\9.0.0\Source/tasks.c **** 				before its uxPriority member is changed so the
1481:Generated_Source\PSoC6\pdl\rtos\FreeRTOS\9.0.0\Source/tasks.c **** 				taskRESET_READY_PRIORITY() macro can function correctly. */
1482:Generated_Source\PSoC6\pdl\rtos\FreeRTOS\9.0.0\Source/tasks.c **** 				uxPriorityUsedOnEntry = pxTCB->uxPriority;
 1209              		.loc 1 1482 0
 1210 0076 3B69     		ldr	r3, [r7, #16]
 1211 0078 DB6A     		ldr	r3, [r3, #44]
 1212 007a BB60     		str	r3, [r7, #8]
1483:Generated_Source\PSoC6\pdl\rtos\FreeRTOS\9.0.0\Source/tasks.c **** 
1484:Generated_Source\PSoC6\pdl\rtos\FreeRTOS\9.0.0\Source/tasks.c **** 				#if ( configUSE_MUTEXES == 1 )
1485:Generated_Source\PSoC6\pdl\rtos\FreeRTOS\9.0.0\Source/tasks.c **** 				{
1486:Generated_Source\PSoC6\pdl\rtos\FreeRTOS\9.0.0\Source/tasks.c **** 					/* Only change the priority being used if the task is not
1487:Generated_Source\PSoC6\pdl\rtos\FreeRTOS\9.0.0\Source/tasks.c **** 					currently using an inherited priority. */
1488:Generated_Source\PSoC6\pdl\rtos\FreeRTOS\9.0.0\Source/tasks.c **** 					if( pxTCB->uxBasePriority == pxTCB->uxPriority )
1489:Generated_Source\PSoC6\pdl\rtos\FreeRTOS\9.0.0\Source/tasks.c **** 					{
1490:Generated_Source\PSoC6\pdl\rtos\FreeRTOS\9.0.0\Source/tasks.c **** 						pxTCB->uxPriority = uxNewPriority;
1491:Generated_Source\PSoC6\pdl\rtos\FreeRTOS\9.0.0\Source/tasks.c **** 					}
ARM GAS  C:\Users\ikomb\AppData\Local\Temp\ccNQc6m6.s 			page 53


1492:Generated_Source\PSoC6\pdl\rtos\FreeRTOS\9.0.0\Source/tasks.c **** 					else
1493:Generated_Source\PSoC6\pdl\rtos\FreeRTOS\9.0.0\Source/tasks.c **** 					{
1494:Generated_Source\PSoC6\pdl\rtos\FreeRTOS\9.0.0\Source/tasks.c **** 						mtCOVERAGE_TEST_MARKER();
1495:Generated_Source\PSoC6\pdl\rtos\FreeRTOS\9.0.0\Source/tasks.c **** 					}
1496:Generated_Source\PSoC6\pdl\rtos\FreeRTOS\9.0.0\Source/tasks.c **** 
1497:Generated_Source\PSoC6\pdl\rtos\FreeRTOS\9.0.0\Source/tasks.c **** 					/* The base priority gets set whatever. */
1498:Generated_Source\PSoC6\pdl\rtos\FreeRTOS\9.0.0\Source/tasks.c **** 					pxTCB->uxBasePriority = uxNewPriority;
1499:Generated_Source\PSoC6\pdl\rtos\FreeRTOS\9.0.0\Source/tasks.c **** 				}
1500:Generated_Source\PSoC6\pdl\rtos\FreeRTOS\9.0.0\Source/tasks.c **** 				#else
1501:Generated_Source\PSoC6\pdl\rtos\FreeRTOS\9.0.0\Source/tasks.c **** 				{
1502:Generated_Source\PSoC6\pdl\rtos\FreeRTOS\9.0.0\Source/tasks.c **** 					pxTCB->uxPriority = uxNewPriority;
 1213              		.loc 1 1502 0
 1214 007c 3B69     		ldr	r3, [r7, #16]
 1215 007e 3A68     		ldr	r2, [r7]
 1216 0080 DA62     		str	r2, [r3, #44]
1503:Generated_Source\PSoC6\pdl\rtos\FreeRTOS\9.0.0\Source/tasks.c **** 				}
1504:Generated_Source\PSoC6\pdl\rtos\FreeRTOS\9.0.0\Source/tasks.c **** 				#endif
1505:Generated_Source\PSoC6\pdl\rtos\FreeRTOS\9.0.0\Source/tasks.c **** 
1506:Generated_Source\PSoC6\pdl\rtos\FreeRTOS\9.0.0\Source/tasks.c **** 				/* Only reset the event list item value if the value is not
1507:Generated_Source\PSoC6\pdl\rtos\FreeRTOS\9.0.0\Source/tasks.c **** 				being used for anything else. */
1508:Generated_Source\PSoC6\pdl\rtos\FreeRTOS\9.0.0\Source/tasks.c **** 				if( ( listGET_LIST_ITEM_VALUE( &( pxTCB->xEventListItem ) ) & taskEVENT_LIST_ITEM_VALUE_IN_USE 
 1217              		.loc 1 1508 0
 1218 0082 3B69     		ldr	r3, [r7, #16]
 1219 0084 9B69     		ldr	r3, [r3, #24]
 1220 0086 002B     		cmp	r3, #0
 1221 0088 04DB     		blt	.L87
1509:Generated_Source\PSoC6\pdl\rtos\FreeRTOS\9.0.0\Source/tasks.c **** 				{
1510:Generated_Source\PSoC6\pdl\rtos\FreeRTOS\9.0.0\Source/tasks.c **** 					listSET_LIST_ITEM_VALUE( &( pxTCB->xEventListItem ), ( ( TickType_t ) configMAX_PRIORITIES - (
 1222              		.loc 1 1510 0
 1223 008a 3B68     		ldr	r3, [r7]
 1224 008c C3F10702 		rsb	r2, r3, #7
 1225 0090 3B69     		ldr	r3, [r7, #16]
 1226 0092 9A61     		str	r2, [r3, #24]
 1227              	.L87:
1511:Generated_Source\PSoC6\pdl\rtos\FreeRTOS\9.0.0\Source/tasks.c **** 				}
1512:Generated_Source\PSoC6\pdl\rtos\FreeRTOS\9.0.0\Source/tasks.c **** 				else
1513:Generated_Source\PSoC6\pdl\rtos\FreeRTOS\9.0.0\Source/tasks.c **** 				{
1514:Generated_Source\PSoC6\pdl\rtos\FreeRTOS\9.0.0\Source/tasks.c **** 					mtCOVERAGE_TEST_MARKER();
1515:Generated_Source\PSoC6\pdl\rtos\FreeRTOS\9.0.0\Source/tasks.c **** 				}
1516:Generated_Source\PSoC6\pdl\rtos\FreeRTOS\9.0.0\Source/tasks.c **** 
1517:Generated_Source\PSoC6\pdl\rtos\FreeRTOS\9.0.0\Source/tasks.c **** 				/* If the task is in the blocked or suspended list we need do
1518:Generated_Source\PSoC6\pdl\rtos\FreeRTOS\9.0.0\Source/tasks.c **** 				nothing more than change it's priority variable. However, if
1519:Generated_Source\PSoC6\pdl\rtos\FreeRTOS\9.0.0\Source/tasks.c **** 				the task is in a ready list it needs to be removed and placed
1520:Generated_Source\PSoC6\pdl\rtos\FreeRTOS\9.0.0\Source/tasks.c **** 				in the list appropriate to its new priority. */
1521:Generated_Source\PSoC6\pdl\rtos\FreeRTOS\9.0.0\Source/tasks.c **** 				if( listIS_CONTAINED_WITHIN( &( pxReadyTasksLists[ uxPriorityUsedOnEntry ] ), &( pxTCB->xStateL
 1228              		.loc 1 1521 0
 1229 0094 3B69     		ldr	r3, [r7, #16]
 1230 0096 5969     		ldr	r1, [r3, #20]
 1231 0098 BA68     		ldr	r2, [r7, #8]
 1232 009a 1346     		mov	r3, r2
 1233 009c 9B00     		lsls	r3, r3, #2
 1234 009e 1344     		add	r3, r3, r2
 1235 00a0 9B00     		lsls	r3, r3, #2
 1236 00a2 1C4A     		ldr	r2, .L92+4
 1237 00a4 1344     		add	r3, r3, r2
 1238 00a6 9942     		cmp	r1, r3
 1239 00a8 01D1     		bne	.L88
ARM GAS  C:\Users\ikomb\AppData\Local\Temp\ccNQc6m6.s 			page 54


 1240              		.loc 1 1521 0 is_stmt 0 discriminator 1
 1241 00aa 0123     		movs	r3, #1
 1242 00ac 00E0     		b	.L89
 1243              	.L88:
 1244              		.loc 1 1521 0 discriminator 2
 1245 00ae 0023     		movs	r3, #0
 1246              	.L89:
 1247              		.loc 1 1521 0 discriminator 4
 1248 00b0 002B     		cmp	r3, #0
 1249 00b2 1CD0     		beq	.L90
1522:Generated_Source\PSoC6\pdl\rtos\FreeRTOS\9.0.0\Source/tasks.c **** 				{
1523:Generated_Source\PSoC6\pdl\rtos\FreeRTOS\9.0.0\Source/tasks.c **** 					/* The task is currently in its ready list - remove before adding
1524:Generated_Source\PSoC6\pdl\rtos\FreeRTOS\9.0.0\Source/tasks.c **** 					it to it's new ready list.  As we are in a critical section we
1525:Generated_Source\PSoC6\pdl\rtos\FreeRTOS\9.0.0\Source/tasks.c **** 					can do this even if the scheduler is suspended. */
1526:Generated_Source\PSoC6\pdl\rtos\FreeRTOS\9.0.0\Source/tasks.c **** 					if( uxListRemove( &( pxTCB->xStateListItem ) ) == ( UBaseType_t ) 0 )
 1250              		.loc 1 1526 0 is_stmt 1
 1251 00b4 3B69     		ldr	r3, [r7, #16]
 1252 00b6 0433     		adds	r3, r3, #4
 1253 00b8 1846     		mov	r0, r3
 1254 00ba FFF7FEFF 		bl	uxListRemove
1527:Generated_Source\PSoC6\pdl\rtos\FreeRTOS\9.0.0\Source/tasks.c **** 					{
1528:Generated_Source\PSoC6\pdl\rtos\FreeRTOS\9.0.0\Source/tasks.c **** 						/* It is known that the task is in its ready list so
1529:Generated_Source\PSoC6\pdl\rtos\FreeRTOS\9.0.0\Source/tasks.c **** 						there is no need to check again and the port level
1530:Generated_Source\PSoC6\pdl\rtos\FreeRTOS\9.0.0\Source/tasks.c **** 						reset macro can be called directly. */
1531:Generated_Source\PSoC6\pdl\rtos\FreeRTOS\9.0.0\Source/tasks.c **** 						portRESET_READY_PRIORITY( uxPriorityUsedOnEntry, uxTopReadyPriority );
1532:Generated_Source\PSoC6\pdl\rtos\FreeRTOS\9.0.0\Source/tasks.c **** 					}
1533:Generated_Source\PSoC6\pdl\rtos\FreeRTOS\9.0.0\Source/tasks.c **** 					else
1534:Generated_Source\PSoC6\pdl\rtos\FreeRTOS\9.0.0\Source/tasks.c **** 					{
1535:Generated_Source\PSoC6\pdl\rtos\FreeRTOS\9.0.0\Source/tasks.c **** 						mtCOVERAGE_TEST_MARKER();
1536:Generated_Source\PSoC6\pdl\rtos\FreeRTOS\9.0.0\Source/tasks.c **** 					}
1537:Generated_Source\PSoC6\pdl\rtos\FreeRTOS\9.0.0\Source/tasks.c **** 					prvAddTaskToReadyList( pxTCB );
 1255              		.loc 1 1537 0
 1256 00be 3B69     		ldr	r3, [r7, #16]
 1257 00c0 DA6A     		ldr	r2, [r3, #44]
 1258 00c2 154B     		ldr	r3, .L92+8
 1259 00c4 1B68     		ldr	r3, [r3]
 1260 00c6 9A42     		cmp	r2, r3
 1261 00c8 03D9     		bls	.L91
 1262              		.loc 1 1537 0 is_stmt 0 discriminator 1
 1263 00ca 3B69     		ldr	r3, [r7, #16]
 1264 00cc DB6A     		ldr	r3, [r3, #44]
 1265 00ce 124A     		ldr	r2, .L92+8
 1266 00d0 1360     		str	r3, [r2]
 1267              	.L91:
 1268              		.loc 1 1537 0 discriminator 3
 1269 00d2 3B69     		ldr	r3, [r7, #16]
 1270 00d4 DA6A     		ldr	r2, [r3, #44]
 1271 00d6 1346     		mov	r3, r2
 1272 00d8 9B00     		lsls	r3, r3, #2
 1273 00da 1344     		add	r3, r3, r2
 1274 00dc 9B00     		lsls	r3, r3, #2
 1275 00de 0D4A     		ldr	r2, .L92+4
 1276 00e0 1A44     		add	r2, r2, r3
 1277 00e2 3B69     		ldr	r3, [r7, #16]
 1278 00e4 0433     		adds	r3, r3, #4
 1279 00e6 1946     		mov	r1, r3
 1280 00e8 1046     		mov	r0, r2
ARM GAS  C:\Users\ikomb\AppData\Local\Temp\ccNQc6m6.s 			page 55


 1281 00ea FFF7FEFF 		bl	vListInsertEnd
 1282              	.L90:
1538:Generated_Source\PSoC6\pdl\rtos\FreeRTOS\9.0.0\Source/tasks.c **** 				}
1539:Generated_Source\PSoC6\pdl\rtos\FreeRTOS\9.0.0\Source/tasks.c **** 				else
1540:Generated_Source\PSoC6\pdl\rtos\FreeRTOS\9.0.0\Source/tasks.c **** 				{
1541:Generated_Source\PSoC6\pdl\rtos\FreeRTOS\9.0.0\Source/tasks.c **** 					mtCOVERAGE_TEST_MARKER();
1542:Generated_Source\PSoC6\pdl\rtos\FreeRTOS\9.0.0\Source/tasks.c **** 				}
1543:Generated_Source\PSoC6\pdl\rtos\FreeRTOS\9.0.0\Source/tasks.c **** 
1544:Generated_Source\PSoC6\pdl\rtos\FreeRTOS\9.0.0\Source/tasks.c **** 				if( xYieldRequired != pdFALSE )
 1283              		.loc 1 1544 0 is_stmt 1
 1284 00ee 7B69     		ldr	r3, [r7, #20]
 1285 00f0 002B     		cmp	r3, #0
 1286 00f2 07D0     		beq	.L84
1545:Generated_Source\PSoC6\pdl\rtos\FreeRTOS\9.0.0\Source/tasks.c **** 				{
1546:Generated_Source\PSoC6\pdl\rtos\FreeRTOS\9.0.0\Source/tasks.c **** 					taskYIELD_IF_USING_PREEMPTION();
 1287              		.loc 1 1546 0
 1288 00f4 094B     		ldr	r3, .L92+12
 1289 00f6 4FF08052 		mov	r2, #268435456
 1290 00fa 1A60     		str	r2, [r3]
 1291              		.syntax unified
 1292              	@ 1546 "Generated_Source\PSoC6\pdl\rtos\FreeRTOS\9.0.0\Source\tasks.c" 1
 1293 00fc BFF34F8F 		dsb
 1294              	@ 0 "" 2
 1295              	@ 1546 "Generated_Source\PSoC6\pdl\rtos\FreeRTOS\9.0.0\Source\tasks.c" 1
 1296 0100 BFF36F8F 		isb
 1297              	@ 0 "" 2
 1298              		.thumb
