ARM GAS  C:\Users\ikomb\AppData\Local\Temp\ccS6Tztj.s 			page 1


   1              		.syntax unified
   2              		.cpu cortex-m4
   3              		.eabi_attribute 27, 1
   4              		.fpu fpv4-sp-d16
   5              		.eabi_attribute 20, 1
   6              		.eabi_attribute 21, 1
   7              		.eabi_attribute 23, 3
   8              		.eabi_attribute 24, 1
   9              		.eabi_attribute 25, 1
  10              		.eabi_attribute 26, 1
  11              		.eabi_attribute 30, 6
  12              		.eabi_attribute 34, 1
  13              		.eabi_attribute 18, 4
  14              		.thumb
  15              		.syntax unified
  16              		.file	"timers.c"
  17              		.text
  18              	.Ltext0:
  19              		.cfi_sections	.debug_frame
  20              		.bss
  21              		.align	2
  22              	xActiveTimerList1:
  23 0000 00000000 		.space	20
  23      00000000 
  23      00000000 
  23      00000000 
  23      00000000 
  24              		.align	2
  25              	xActiveTimerList2:
  26 0014 00000000 		.space	20
  26      00000000 
  26      00000000 
  26      00000000 
  26      00000000 
  27              		.align	2
  28              	pxCurrentTimerList:
  29 0028 00000000 		.space	4
  30              		.align	2
  31              	pxOverflowTimerList:
  32 002c 00000000 		.space	4
  33              		.align	2
  34              	xTimerQueue:
  35 0030 00000000 		.space	4
  36              		.align	2
  37              	xTimerTaskHandle:
  38 0034 00000000 		.space	4
  39              		.section	.rodata
  40              		.align	2
  41              	.LC0:
  42 0000 546D7220 		.ascii	"Tmr Svc\000"
  42      53766300 
  43              		.section	.text.xTimerCreateTimerTask,"ax",%progbits
  44              		.align	2
  45              		.global	xTimerCreateTimerTask
  46              		.thumb
  47              		.thumb_func
  48              		.type	xTimerCreateTimerTask, %function
ARM GAS  C:\Users\ikomb\AppData\Local\Temp\ccS6Tztj.s 			page 2


  49              	xTimerCreateTimerTask:
  50              	.LFB129:
  51              		.file 1 "Generated_Source\\PSoC6\\pdl\\rtos\\FreeRTOS\\9.0.0\\Source\\timers.c"
   1:Generated_Source\PSoC6\pdl\rtos\FreeRTOS\9.0.0\Source/timers.c **** /*
   2:Generated_Source\PSoC6\pdl\rtos\FreeRTOS\9.0.0\Source/timers.c ****     FreeRTOS V9.0.0 - Copyright (C) 2016 Real Time Engineers Ltd.
   3:Generated_Source\PSoC6\pdl\rtos\FreeRTOS\9.0.0\Source/timers.c ****     All rights reserved
   4:Generated_Source\PSoC6\pdl\rtos\FreeRTOS\9.0.0\Source/timers.c **** 
   5:Generated_Source\PSoC6\pdl\rtos\FreeRTOS\9.0.0\Source/timers.c ****     VISIT http://www.FreeRTOS.org TO ENSURE YOU ARE USING THE LATEST VERSION.
   6:Generated_Source\PSoC6\pdl\rtos\FreeRTOS\9.0.0\Source/timers.c **** 
   7:Generated_Source\PSoC6\pdl\rtos\FreeRTOS\9.0.0\Source/timers.c ****     This file is part of the FreeRTOS distribution.
   8:Generated_Source\PSoC6\pdl\rtos\FreeRTOS\9.0.0\Source/timers.c **** 
   9:Generated_Source\PSoC6\pdl\rtos\FreeRTOS\9.0.0\Source/timers.c ****     FreeRTOS is free software; you can redistribute it and/or modify it under
  10:Generated_Source\PSoC6\pdl\rtos\FreeRTOS\9.0.0\Source/timers.c ****     the terms of the GNU General Public License (version 2) as published by the
  11:Generated_Source\PSoC6\pdl\rtos\FreeRTOS\9.0.0\Source/timers.c ****     Free Software Foundation >>>> AND MODIFIED BY <<<< the FreeRTOS exception.
  12:Generated_Source\PSoC6\pdl\rtos\FreeRTOS\9.0.0\Source/timers.c **** 
  13:Generated_Source\PSoC6\pdl\rtos\FreeRTOS\9.0.0\Source/timers.c ****     ***************************************************************************
  14:Generated_Source\PSoC6\pdl\rtos\FreeRTOS\9.0.0\Source/timers.c ****     >>!   NOTE: The modification to the GPL is included to allow you to     !<<
  15:Generated_Source\PSoC6\pdl\rtos\FreeRTOS\9.0.0\Source/timers.c ****     >>!   distribute a combined work that includes FreeRTOS without being   !<<
  16:Generated_Source\PSoC6\pdl\rtos\FreeRTOS\9.0.0\Source/timers.c ****     >>!   obliged to provide the source code for proprietary components     !<<
  17:Generated_Source\PSoC6\pdl\rtos\FreeRTOS\9.0.0\Source/timers.c ****     >>!   outside of the FreeRTOS kernel.                                   !<<
  18:Generated_Source\PSoC6\pdl\rtos\FreeRTOS\9.0.0\Source/timers.c ****     ***************************************************************************
  19:Generated_Source\PSoC6\pdl\rtos\FreeRTOS\9.0.0\Source/timers.c **** 
  20:Generated_Source\PSoC6\pdl\rtos\FreeRTOS\9.0.0\Source/timers.c ****     FreeRTOS is distributed in the hope that it will be useful, but WITHOUT ANY
  21:Generated_Source\PSoC6\pdl\rtos\FreeRTOS\9.0.0\Source/timers.c ****     WARRANTY; without even the implied warranty of MERCHANTABILITY or FITNESS
  22:Generated_Source\PSoC6\pdl\rtos\FreeRTOS\9.0.0\Source/timers.c ****     FOR A PARTICULAR PURPOSE.  Full license text is available on the following
  23:Generated_Source\PSoC6\pdl\rtos\FreeRTOS\9.0.0\Source/timers.c ****     link: http://www.freertos.org/a00114.html
  24:Generated_Source\PSoC6\pdl\rtos\FreeRTOS\9.0.0\Source/timers.c **** 
  25:Generated_Source\PSoC6\pdl\rtos\FreeRTOS\9.0.0\Source/timers.c ****     ***************************************************************************
  26:Generated_Source\PSoC6\pdl\rtos\FreeRTOS\9.0.0\Source/timers.c ****      *                                                                       *
  27:Generated_Source\PSoC6\pdl\rtos\FreeRTOS\9.0.0\Source/timers.c ****      *    FreeRTOS provides completely free yet professionally developed,    *
  28:Generated_Source\PSoC6\pdl\rtos\FreeRTOS\9.0.0\Source/timers.c ****      *    robust, strictly quality controlled, supported, and cross          *
  29:Generated_Source\PSoC6\pdl\rtos\FreeRTOS\9.0.0\Source/timers.c ****      *    platform software that is more than just the market leader, it     *
  30:Generated_Source\PSoC6\pdl\rtos\FreeRTOS\9.0.0\Source/timers.c ****      *    is the industry's de facto standard.                               *
  31:Generated_Source\PSoC6\pdl\rtos\FreeRTOS\9.0.0\Source/timers.c ****      *                                                                       *
  32:Generated_Source\PSoC6\pdl\rtos\FreeRTOS\9.0.0\Source/timers.c ****      *    Help yourself get started quickly while simultaneously helping     *
  33:Generated_Source\PSoC6\pdl\rtos\FreeRTOS\9.0.0\Source/timers.c ****      *    to support the FreeRTOS project by purchasing a FreeRTOS           *
  34:Generated_Source\PSoC6\pdl\rtos\FreeRTOS\9.0.0\Source/timers.c ****      *    tutorial book, reference manual, or both:                          *
  35:Generated_Source\PSoC6\pdl\rtos\FreeRTOS\9.0.0\Source/timers.c ****      *    http://www.FreeRTOS.org/Documentation                              *
  36:Generated_Source\PSoC6\pdl\rtos\FreeRTOS\9.0.0\Source/timers.c ****      *                                                                       *
  37:Generated_Source\PSoC6\pdl\rtos\FreeRTOS\9.0.0\Source/timers.c ****     ***************************************************************************
  38:Generated_Source\PSoC6\pdl\rtos\FreeRTOS\9.0.0\Source/timers.c **** 
  39:Generated_Source\PSoC6\pdl\rtos\FreeRTOS\9.0.0\Source/timers.c ****     http://www.FreeRTOS.org/FAQHelp.html - Having a problem?  Start by reading
  40:Generated_Source\PSoC6\pdl\rtos\FreeRTOS\9.0.0\Source/timers.c ****     the FAQ page "My application does not run, what could be wrong?".  Have you
  41:Generated_Source\PSoC6\pdl\rtos\FreeRTOS\9.0.0\Source/timers.c ****     defined configASSERT()?
  42:Generated_Source\PSoC6\pdl\rtos\FreeRTOS\9.0.0\Source/timers.c **** 
  43:Generated_Source\PSoC6\pdl\rtos\FreeRTOS\9.0.0\Source/timers.c ****     http://www.FreeRTOS.org/support - In return for receiving this top quality
  44:Generated_Source\PSoC6\pdl\rtos\FreeRTOS\9.0.0\Source/timers.c ****     embedded software for free we request you assist our global community by
  45:Generated_Source\PSoC6\pdl\rtos\FreeRTOS\9.0.0\Source/timers.c ****     participating in the support forum.
  46:Generated_Source\PSoC6\pdl\rtos\FreeRTOS\9.0.0\Source/timers.c **** 
  47:Generated_Source\PSoC6\pdl\rtos\FreeRTOS\9.0.0\Source/timers.c ****     http://www.FreeRTOS.org/training - Investing in training allows your team to
  48:Generated_Source\PSoC6\pdl\rtos\FreeRTOS\9.0.0\Source/timers.c ****     be as productive as possible as early as possible.  Now you can receive
  49:Generated_Source\PSoC6\pdl\rtos\FreeRTOS\9.0.0\Source/timers.c ****     FreeRTOS training directly from Richard Barry, CEO of Real Time Engineers
  50:Generated_Source\PSoC6\pdl\rtos\FreeRTOS\9.0.0\Source/timers.c ****     Ltd, and the world's leading authority on the world's leading RTOS.
  51:Generated_Source\PSoC6\pdl\rtos\FreeRTOS\9.0.0\Source/timers.c **** 
  52:Generated_Source\PSoC6\pdl\rtos\FreeRTOS\9.0.0\Source/timers.c ****     http://www.FreeRTOS.org/plus - A selection of FreeRTOS ecosystem products,
  53:Generated_Source\PSoC6\pdl\rtos\FreeRTOS\9.0.0\Source/timers.c ****     including FreeRTOS+Trace - an indispensable productivity tool, a DOS
  54:Generated_Source\PSoC6\pdl\rtos\FreeRTOS\9.0.0\Source/timers.c ****     compatible FAT file system, and our tiny thread aware UDP/IP stack.
ARM GAS  C:\Users\ikomb\AppData\Local\Temp\ccS6Tztj.s 			page 3


  55:Generated_Source\PSoC6\pdl\rtos\FreeRTOS\9.0.0\Source/timers.c **** 
  56:Generated_Source\PSoC6\pdl\rtos\FreeRTOS\9.0.0\Source/timers.c ****     http://www.FreeRTOS.org/labs - Where new FreeRTOS products go to incubate.
  57:Generated_Source\PSoC6\pdl\rtos\FreeRTOS\9.0.0\Source/timers.c ****     Come and try FreeRTOS+TCP, our new open source TCP/IP stack for FreeRTOS.
  58:Generated_Source\PSoC6\pdl\rtos\FreeRTOS\9.0.0\Source/timers.c **** 
  59:Generated_Source\PSoC6\pdl\rtos\FreeRTOS\9.0.0\Source/timers.c ****     http://www.OpenRTOS.com - Real Time Engineers ltd. license FreeRTOS to High
  60:Generated_Source\PSoC6\pdl\rtos\FreeRTOS\9.0.0\Source/timers.c ****     Integrity Systems ltd. to sell under the OpenRTOS brand.  Low cost OpenRTOS
  61:Generated_Source\PSoC6\pdl\rtos\FreeRTOS\9.0.0\Source/timers.c ****     licenses offer ticketed support, indemnification and commercial middleware.
  62:Generated_Source\PSoC6\pdl\rtos\FreeRTOS\9.0.0\Source/timers.c **** 
  63:Generated_Source\PSoC6\pdl\rtos\FreeRTOS\9.0.0\Source/timers.c ****     http://www.SafeRTOS.com - High Integrity Systems also provide a safety
  64:Generated_Source\PSoC6\pdl\rtos\FreeRTOS\9.0.0\Source/timers.c ****     engineered and independently SIL3 certified version for use in safety and
  65:Generated_Source\PSoC6\pdl\rtos\FreeRTOS\9.0.0\Source/timers.c ****     mission critical applications that require provable dependability.
  66:Generated_Source\PSoC6\pdl\rtos\FreeRTOS\9.0.0\Source/timers.c **** 
  67:Generated_Source\PSoC6\pdl\rtos\FreeRTOS\9.0.0\Source/timers.c ****     1 tab == 4 spaces!
  68:Generated_Source\PSoC6\pdl\rtos\FreeRTOS\9.0.0\Source/timers.c **** */
  69:Generated_Source\PSoC6\pdl\rtos\FreeRTOS\9.0.0\Source/timers.c **** 
  70:Generated_Source\PSoC6\pdl\rtos\FreeRTOS\9.0.0\Source/timers.c **** /* Standard includes. */
  71:Generated_Source\PSoC6\pdl\rtos\FreeRTOS\9.0.0\Source/timers.c **** #include <stdlib.h>
  72:Generated_Source\PSoC6\pdl\rtos\FreeRTOS\9.0.0\Source/timers.c **** 
  73:Generated_Source\PSoC6\pdl\rtos\FreeRTOS\9.0.0\Source/timers.c **** /* Defining MPU_WRAPPERS_INCLUDED_FROM_API_FILE prevents task.h from redefining
  74:Generated_Source\PSoC6\pdl\rtos\FreeRTOS\9.0.0\Source/timers.c **** all the API functions to use the MPU wrappers.  That should only be done when
  75:Generated_Source\PSoC6\pdl\rtos\FreeRTOS\9.0.0\Source/timers.c **** task.h is included from an application file. */
  76:Generated_Source\PSoC6\pdl\rtos\FreeRTOS\9.0.0\Source/timers.c **** #define MPU_WRAPPERS_INCLUDED_FROM_API_FILE
  77:Generated_Source\PSoC6\pdl\rtos\FreeRTOS\9.0.0\Source/timers.c **** 
  78:Generated_Source\PSoC6\pdl\rtos\FreeRTOS\9.0.0\Source/timers.c **** #include "FreeRTOS.h"
  79:Generated_Source\PSoC6\pdl\rtos\FreeRTOS\9.0.0\Source/timers.c **** #include "task.h"
  80:Generated_Source\PSoC6\pdl\rtos\FreeRTOS\9.0.0\Source/timers.c **** #include "queue.h"
  81:Generated_Source\PSoC6\pdl\rtos\FreeRTOS\9.0.0\Source/timers.c **** #include "timers.h"
  82:Generated_Source\PSoC6\pdl\rtos\FreeRTOS\9.0.0\Source/timers.c **** 
  83:Generated_Source\PSoC6\pdl\rtos\FreeRTOS\9.0.0\Source/timers.c **** #if ( INCLUDE_xTimerPendFunctionCall == 1 ) && ( configUSE_TIMERS == 0 )
  84:Generated_Source\PSoC6\pdl\rtos\FreeRTOS\9.0.0\Source/timers.c **** 	#error configUSE_TIMERS must be set to 1 to make the xTimerPendFunctionCall() function available.
  85:Generated_Source\PSoC6\pdl\rtos\FreeRTOS\9.0.0\Source/timers.c **** #endif
  86:Generated_Source\PSoC6\pdl\rtos\FreeRTOS\9.0.0\Source/timers.c **** 
  87:Generated_Source\PSoC6\pdl\rtos\FreeRTOS\9.0.0\Source/timers.c **** /* Lint e961 and e750 are suppressed as a MISRA exception justified because the
  88:Generated_Source\PSoC6\pdl\rtos\FreeRTOS\9.0.0\Source/timers.c **** MPU ports require MPU_WRAPPERS_INCLUDED_FROM_API_FILE to be defined for the
  89:Generated_Source\PSoC6\pdl\rtos\FreeRTOS\9.0.0\Source/timers.c **** header files above, but not in this file, in order to generate the correct
  90:Generated_Source\PSoC6\pdl\rtos\FreeRTOS\9.0.0\Source/timers.c **** privileged Vs unprivileged linkage and placement. */
  91:Generated_Source\PSoC6\pdl\rtos\FreeRTOS\9.0.0\Source/timers.c **** #undef MPU_WRAPPERS_INCLUDED_FROM_API_FILE /*lint !e961 !e750. */
  92:Generated_Source\PSoC6\pdl\rtos\FreeRTOS\9.0.0\Source/timers.c **** 
  93:Generated_Source\PSoC6\pdl\rtos\FreeRTOS\9.0.0\Source/timers.c **** 
  94:Generated_Source\PSoC6\pdl\rtos\FreeRTOS\9.0.0\Source/timers.c **** /* This entire source file will be skipped if the application is not configured
  95:Generated_Source\PSoC6\pdl\rtos\FreeRTOS\9.0.0\Source/timers.c **** to include software timer functionality.  This #if is closed at the very bottom
  96:Generated_Source\PSoC6\pdl\rtos\FreeRTOS\9.0.0\Source/timers.c **** of this file.  If you want to include software timer functionality then ensure
  97:Generated_Source\PSoC6\pdl\rtos\FreeRTOS\9.0.0\Source/timers.c **** configUSE_TIMERS is set to 1 in FreeRTOSConfig.h. */
  98:Generated_Source\PSoC6\pdl\rtos\FreeRTOS\9.0.0\Source/timers.c **** #if ( configUSE_TIMERS == 1 )
  99:Generated_Source\PSoC6\pdl\rtos\FreeRTOS\9.0.0\Source/timers.c **** 
 100:Generated_Source\PSoC6\pdl\rtos\FreeRTOS\9.0.0\Source/timers.c **** /* Misc definitions. */
 101:Generated_Source\PSoC6\pdl\rtos\FreeRTOS\9.0.0\Source/timers.c **** #define tmrNO_DELAY		( TickType_t ) 0U
 102:Generated_Source\PSoC6\pdl\rtos\FreeRTOS\9.0.0\Source/timers.c **** 
 103:Generated_Source\PSoC6\pdl\rtos\FreeRTOS\9.0.0\Source/timers.c **** /* The definition of the timers themselves. */
 104:Generated_Source\PSoC6\pdl\rtos\FreeRTOS\9.0.0\Source/timers.c **** typedef struct tmrTimerControl
 105:Generated_Source\PSoC6\pdl\rtos\FreeRTOS\9.0.0\Source/timers.c **** {
 106:Generated_Source\PSoC6\pdl\rtos\FreeRTOS\9.0.0\Source/timers.c **** 	const char				*pcTimerName;		/*<< Text name.  This is not used by the kernel, it is included simpl
 107:Generated_Source\PSoC6\pdl\rtos\FreeRTOS\9.0.0\Source/timers.c **** 	ListItem_t				xTimerListItem;		/*<< Standard linked list item as used by all kernel features for e
 108:Generated_Source\PSoC6\pdl\rtos\FreeRTOS\9.0.0\Source/timers.c **** 	TickType_t				xTimerPeriodInTicks;/*<< How quickly and often the timer expires. */
 109:Generated_Source\PSoC6\pdl\rtos\FreeRTOS\9.0.0\Source/timers.c **** 	UBaseType_t				uxAutoReload;		/*<< Set to pdTRUE if the timer should be automatically restarted on
 110:Generated_Source\PSoC6\pdl\rtos\FreeRTOS\9.0.0\Source/timers.c **** 	void 					*pvTimerID;			/*<< An ID to identify the timer.  This allows the timer to be identified 
 111:Generated_Source\PSoC6\pdl\rtos\FreeRTOS\9.0.0\Source/timers.c **** 	TimerCallbackFunction_t	pxCallbackFunction;	/*<< The function that will be called when the timer e
ARM GAS  C:\Users\ikomb\AppData\Local\Temp\ccS6Tztj.s 			page 4


 112:Generated_Source\PSoC6\pdl\rtos\FreeRTOS\9.0.0\Source/timers.c **** 	#if( configUSE_TRACE_FACILITY == 1 )
 113:Generated_Source\PSoC6\pdl\rtos\FreeRTOS\9.0.0\Source/timers.c **** 		UBaseType_t			uxTimerNumber;		/*<< An ID assigned by trace tools such as FreeRTOS+Trace */
 114:Generated_Source\PSoC6\pdl\rtos\FreeRTOS\9.0.0\Source/timers.c **** 	#endif
 115:Generated_Source\PSoC6\pdl\rtos\FreeRTOS\9.0.0\Source/timers.c **** 
 116:Generated_Source\PSoC6\pdl\rtos\FreeRTOS\9.0.0\Source/timers.c **** 	#if( ( configSUPPORT_STATIC_ALLOCATION == 1 ) && ( configSUPPORT_DYNAMIC_ALLOCATION == 1 ) )
 117:Generated_Source\PSoC6\pdl\rtos\FreeRTOS\9.0.0\Source/timers.c **** 		uint8_t 			ucStaticallyAllocated; /*<< Set to pdTRUE if the timer was created statically so no at
 118:Generated_Source\PSoC6\pdl\rtos\FreeRTOS\9.0.0\Source/timers.c **** 	#endif
 119:Generated_Source\PSoC6\pdl\rtos\FreeRTOS\9.0.0\Source/timers.c **** } xTIMER;
 120:Generated_Source\PSoC6\pdl\rtos\FreeRTOS\9.0.0\Source/timers.c **** 
 121:Generated_Source\PSoC6\pdl\rtos\FreeRTOS\9.0.0\Source/timers.c **** /* The old xTIMER name is maintained above then typedefed to the new Timer_t
 122:Generated_Source\PSoC6\pdl\rtos\FreeRTOS\9.0.0\Source/timers.c **** name below to enable the use of older kernel aware debuggers. */
 123:Generated_Source\PSoC6\pdl\rtos\FreeRTOS\9.0.0\Source/timers.c **** typedef xTIMER Timer_t;
 124:Generated_Source\PSoC6\pdl\rtos\FreeRTOS\9.0.0\Source/timers.c **** 
 125:Generated_Source\PSoC6\pdl\rtos\FreeRTOS\9.0.0\Source/timers.c **** /* The definition of messages that can be sent and received on the timer queue.
 126:Generated_Source\PSoC6\pdl\rtos\FreeRTOS\9.0.0\Source/timers.c **** Two types of message can be queued - messages that manipulate a software timer,
 127:Generated_Source\PSoC6\pdl\rtos\FreeRTOS\9.0.0\Source/timers.c **** and messages that request the execution of a non-timer related callback.  The
 128:Generated_Source\PSoC6\pdl\rtos\FreeRTOS\9.0.0\Source/timers.c **** two message types are defined in two separate structures, xTimerParametersType
 129:Generated_Source\PSoC6\pdl\rtos\FreeRTOS\9.0.0\Source/timers.c **** and xCallbackParametersType respectively. */
 130:Generated_Source\PSoC6\pdl\rtos\FreeRTOS\9.0.0\Source/timers.c **** typedef struct tmrTimerParameters
 131:Generated_Source\PSoC6\pdl\rtos\FreeRTOS\9.0.0\Source/timers.c **** {
 132:Generated_Source\PSoC6\pdl\rtos\FreeRTOS\9.0.0\Source/timers.c **** 	TickType_t			xMessageValue;		/*<< An optional value used by a subset of commands, for example, whe
 133:Generated_Source\PSoC6\pdl\rtos\FreeRTOS\9.0.0\Source/timers.c **** 	Timer_t *			pxTimer;			/*<< The timer to which the command will be applied. */
 134:Generated_Source\PSoC6\pdl\rtos\FreeRTOS\9.0.0\Source/timers.c **** } TimerParameter_t;
 135:Generated_Source\PSoC6\pdl\rtos\FreeRTOS\9.0.0\Source/timers.c **** 
 136:Generated_Source\PSoC6\pdl\rtos\FreeRTOS\9.0.0\Source/timers.c **** 
 137:Generated_Source\PSoC6\pdl\rtos\FreeRTOS\9.0.0\Source/timers.c **** typedef struct tmrCallbackParameters
 138:Generated_Source\PSoC6\pdl\rtos\FreeRTOS\9.0.0\Source/timers.c **** {
 139:Generated_Source\PSoC6\pdl\rtos\FreeRTOS\9.0.0\Source/timers.c **** 	PendedFunction_t	pxCallbackFunction;	/* << The callback function to execute. */
 140:Generated_Source\PSoC6\pdl\rtos\FreeRTOS\9.0.0\Source/timers.c **** 	void *pvParameter1;						/* << The value that will be used as the callback functions first paramet
 141:Generated_Source\PSoC6\pdl\rtos\FreeRTOS\9.0.0\Source/timers.c **** 	uint32_t ulParameter2;					/* << The value that will be used as the callback functions second para
 142:Generated_Source\PSoC6\pdl\rtos\FreeRTOS\9.0.0\Source/timers.c **** } CallbackParameters_t;
 143:Generated_Source\PSoC6\pdl\rtos\FreeRTOS\9.0.0\Source/timers.c **** 
 144:Generated_Source\PSoC6\pdl\rtos\FreeRTOS\9.0.0\Source/timers.c **** /* The structure that contains the two message types, along with an identifier
 145:Generated_Source\PSoC6\pdl\rtos\FreeRTOS\9.0.0\Source/timers.c **** that is used to determine which message type is valid. */
 146:Generated_Source\PSoC6\pdl\rtos\FreeRTOS\9.0.0\Source/timers.c **** typedef struct tmrTimerQueueMessage
 147:Generated_Source\PSoC6\pdl\rtos\FreeRTOS\9.0.0\Source/timers.c **** {
 148:Generated_Source\PSoC6\pdl\rtos\FreeRTOS\9.0.0\Source/timers.c **** 	BaseType_t			xMessageID;			/*<< The command being sent to the timer service task. */
 149:Generated_Source\PSoC6\pdl\rtos\FreeRTOS\9.0.0\Source/timers.c **** 	union
 150:Generated_Source\PSoC6\pdl\rtos\FreeRTOS\9.0.0\Source/timers.c **** 	{
 151:Generated_Source\PSoC6\pdl\rtos\FreeRTOS\9.0.0\Source/timers.c **** 		TimerParameter_t xTimerParameters;
 152:Generated_Source\PSoC6\pdl\rtos\FreeRTOS\9.0.0\Source/timers.c **** 
 153:Generated_Source\PSoC6\pdl\rtos\FreeRTOS\9.0.0\Source/timers.c **** 		/* Don't include xCallbackParameters if it is not going to be used as
 154:Generated_Source\PSoC6\pdl\rtos\FreeRTOS\9.0.0\Source/timers.c **** 		it makes the structure (and therefore the timer queue) larger. */
 155:Generated_Source\PSoC6\pdl\rtos\FreeRTOS\9.0.0\Source/timers.c **** 		#if ( INCLUDE_xTimerPendFunctionCall == 1 )
 156:Generated_Source\PSoC6\pdl\rtos\FreeRTOS\9.0.0\Source/timers.c **** 			CallbackParameters_t xCallbackParameters;
 157:Generated_Source\PSoC6\pdl\rtos\FreeRTOS\9.0.0\Source/timers.c **** 		#endif /* INCLUDE_xTimerPendFunctionCall */
 158:Generated_Source\PSoC6\pdl\rtos\FreeRTOS\9.0.0\Source/timers.c **** 	} u;
 159:Generated_Source\PSoC6\pdl\rtos\FreeRTOS\9.0.0\Source/timers.c **** } DaemonTaskMessage_t;
 160:Generated_Source\PSoC6\pdl\rtos\FreeRTOS\9.0.0\Source/timers.c **** 
 161:Generated_Source\PSoC6\pdl\rtos\FreeRTOS\9.0.0\Source/timers.c **** /*lint -e956 A manual analysis and inspection has been used to determine which
 162:Generated_Source\PSoC6\pdl\rtos\FreeRTOS\9.0.0\Source/timers.c **** static variables must be declared volatile. */
 163:Generated_Source\PSoC6\pdl\rtos\FreeRTOS\9.0.0\Source/timers.c **** 
 164:Generated_Source\PSoC6\pdl\rtos\FreeRTOS\9.0.0\Source/timers.c **** /* The list in which active timers are stored.  Timers are referenced in expire
 165:Generated_Source\PSoC6\pdl\rtos\FreeRTOS\9.0.0\Source/timers.c **** time order, with the nearest expiry time at the front of the list.  Only the
 166:Generated_Source\PSoC6\pdl\rtos\FreeRTOS\9.0.0\Source/timers.c **** timer service task is allowed to access these lists. */
 167:Generated_Source\PSoC6\pdl\rtos\FreeRTOS\9.0.0\Source/timers.c **** PRIVILEGED_DATA static List_t xActiveTimerList1;
 168:Generated_Source\PSoC6\pdl\rtos\FreeRTOS\9.0.0\Source/timers.c **** PRIVILEGED_DATA static List_t xActiveTimerList2;
ARM GAS  C:\Users\ikomb\AppData\Local\Temp\ccS6Tztj.s 			page 5


 169:Generated_Source\PSoC6\pdl\rtos\FreeRTOS\9.0.0\Source/timers.c **** PRIVILEGED_DATA static List_t *pxCurrentTimerList;
 170:Generated_Source\PSoC6\pdl\rtos\FreeRTOS\9.0.0\Source/timers.c **** PRIVILEGED_DATA static List_t *pxOverflowTimerList;
 171:Generated_Source\PSoC6\pdl\rtos\FreeRTOS\9.0.0\Source/timers.c **** 
 172:Generated_Source\PSoC6\pdl\rtos\FreeRTOS\9.0.0\Source/timers.c **** /* A queue that is used to send commands to the timer service task. */
 173:Generated_Source\PSoC6\pdl\rtos\FreeRTOS\9.0.0\Source/timers.c **** PRIVILEGED_DATA static QueueHandle_t xTimerQueue = NULL;
 174:Generated_Source\PSoC6\pdl\rtos\FreeRTOS\9.0.0\Source/timers.c **** PRIVILEGED_DATA static TaskHandle_t xTimerTaskHandle = NULL;
 175:Generated_Source\PSoC6\pdl\rtos\FreeRTOS\9.0.0\Source/timers.c **** 
 176:Generated_Source\PSoC6\pdl\rtos\FreeRTOS\9.0.0\Source/timers.c **** /*lint +e956 */
 177:Generated_Source\PSoC6\pdl\rtos\FreeRTOS\9.0.0\Source/timers.c **** 
 178:Generated_Source\PSoC6\pdl\rtos\FreeRTOS\9.0.0\Source/timers.c **** /*-----------------------------------------------------------*/
 179:Generated_Source\PSoC6\pdl\rtos\FreeRTOS\9.0.0\Source/timers.c **** 
 180:Generated_Source\PSoC6\pdl\rtos\FreeRTOS\9.0.0\Source/timers.c **** #if( configSUPPORT_STATIC_ALLOCATION == 1 )
 181:Generated_Source\PSoC6\pdl\rtos\FreeRTOS\9.0.0\Source/timers.c **** 
 182:Generated_Source\PSoC6\pdl\rtos\FreeRTOS\9.0.0\Source/timers.c **** 	/* If static allocation is supported then the application must provide the
 183:Generated_Source\PSoC6\pdl\rtos\FreeRTOS\9.0.0\Source/timers.c **** 	following callback function - which enables the application to optionally
 184:Generated_Source\PSoC6\pdl\rtos\FreeRTOS\9.0.0\Source/timers.c **** 	provide the memory that will be used by the timer task as the task's stack
 185:Generated_Source\PSoC6\pdl\rtos\FreeRTOS\9.0.0\Source/timers.c **** 	and TCB. */
 186:Generated_Source\PSoC6\pdl\rtos\FreeRTOS\9.0.0\Source/timers.c **** 	extern void vApplicationGetTimerTaskMemory( StaticTask_t **ppxTimerTaskTCBBuffer, StackType_t **pp
 187:Generated_Source\PSoC6\pdl\rtos\FreeRTOS\9.0.0\Source/timers.c **** 
 188:Generated_Source\PSoC6\pdl\rtos\FreeRTOS\9.0.0\Source/timers.c **** #endif
 189:Generated_Source\PSoC6\pdl\rtos\FreeRTOS\9.0.0\Source/timers.c **** 
 190:Generated_Source\PSoC6\pdl\rtos\FreeRTOS\9.0.0\Source/timers.c **** /*
 191:Generated_Source\PSoC6\pdl\rtos\FreeRTOS\9.0.0\Source/timers.c ****  * Initialise the infrastructure used by the timer service task if it has not
 192:Generated_Source\PSoC6\pdl\rtos\FreeRTOS\9.0.0\Source/timers.c ****  * been initialised already.
 193:Generated_Source\PSoC6\pdl\rtos\FreeRTOS\9.0.0\Source/timers.c ****  */
 194:Generated_Source\PSoC6\pdl\rtos\FreeRTOS\9.0.0\Source/timers.c **** static void prvCheckForValidListAndQueue( void ) PRIVILEGED_FUNCTION;
 195:Generated_Source\PSoC6\pdl\rtos\FreeRTOS\9.0.0\Source/timers.c **** 
 196:Generated_Source\PSoC6\pdl\rtos\FreeRTOS\9.0.0\Source/timers.c **** /*
 197:Generated_Source\PSoC6\pdl\rtos\FreeRTOS\9.0.0\Source/timers.c ****  * The timer service task (daemon).  Timer functionality is controlled by this
 198:Generated_Source\PSoC6\pdl\rtos\FreeRTOS\9.0.0\Source/timers.c ****  * task.  Other tasks communicate with the timer service task using the
 199:Generated_Source\PSoC6\pdl\rtos\FreeRTOS\9.0.0\Source/timers.c ****  * xTimerQueue queue.
 200:Generated_Source\PSoC6\pdl\rtos\FreeRTOS\9.0.0\Source/timers.c ****  */
 201:Generated_Source\PSoC6\pdl\rtos\FreeRTOS\9.0.0\Source/timers.c **** static void prvTimerTask( void *pvParameters ) PRIVILEGED_FUNCTION;
 202:Generated_Source\PSoC6\pdl\rtos\FreeRTOS\9.0.0\Source/timers.c **** 
 203:Generated_Source\PSoC6\pdl\rtos\FreeRTOS\9.0.0\Source/timers.c **** /*
 204:Generated_Source\PSoC6\pdl\rtos\FreeRTOS\9.0.0\Source/timers.c ****  * Called by the timer service task to interpret and process a command it
 205:Generated_Source\PSoC6\pdl\rtos\FreeRTOS\9.0.0\Source/timers.c ****  * received on the timer queue.
 206:Generated_Source\PSoC6\pdl\rtos\FreeRTOS\9.0.0\Source/timers.c ****  */
 207:Generated_Source\PSoC6\pdl\rtos\FreeRTOS\9.0.0\Source/timers.c **** static void prvProcessReceivedCommands( void ) PRIVILEGED_FUNCTION;
 208:Generated_Source\PSoC6\pdl\rtos\FreeRTOS\9.0.0\Source/timers.c **** 
 209:Generated_Source\PSoC6\pdl\rtos\FreeRTOS\9.0.0\Source/timers.c **** /*
 210:Generated_Source\PSoC6\pdl\rtos\FreeRTOS\9.0.0\Source/timers.c ****  * Insert the timer into either xActiveTimerList1, or xActiveTimerList2,
 211:Generated_Source\PSoC6\pdl\rtos\FreeRTOS\9.0.0\Source/timers.c ****  * depending on if the expire time causes a timer counter overflow.
 212:Generated_Source\PSoC6\pdl\rtos\FreeRTOS\9.0.0\Source/timers.c ****  */
 213:Generated_Source\PSoC6\pdl\rtos\FreeRTOS\9.0.0\Source/timers.c **** static BaseType_t prvInsertTimerInActiveList( Timer_t * const pxTimer, const TickType_t xNextExpiry
 214:Generated_Source\PSoC6\pdl\rtos\FreeRTOS\9.0.0\Source/timers.c **** 
 215:Generated_Source\PSoC6\pdl\rtos\FreeRTOS\9.0.0\Source/timers.c **** /*
 216:Generated_Source\PSoC6\pdl\rtos\FreeRTOS\9.0.0\Source/timers.c ****  * An active timer has reached its expire time.  Reload the timer if it is an
 217:Generated_Source\PSoC6\pdl\rtos\FreeRTOS\9.0.0\Source/timers.c ****  * auto reload timer, then call its callback.
 218:Generated_Source\PSoC6\pdl\rtos\FreeRTOS\9.0.0\Source/timers.c ****  */
 219:Generated_Source\PSoC6\pdl\rtos\FreeRTOS\9.0.0\Source/timers.c **** static void prvProcessExpiredTimer( const TickType_t xNextExpireTime, const TickType_t xTimeNow ) P
 220:Generated_Source\PSoC6\pdl\rtos\FreeRTOS\9.0.0\Source/timers.c **** 
 221:Generated_Source\PSoC6\pdl\rtos\FreeRTOS\9.0.0\Source/timers.c **** /*
 222:Generated_Source\PSoC6\pdl\rtos\FreeRTOS\9.0.0\Source/timers.c ****  * The tick count has overflowed.  Switch the timer lists after ensuring the
 223:Generated_Source\PSoC6\pdl\rtos\FreeRTOS\9.0.0\Source/timers.c ****  * current timer list does not still reference some timers.
 224:Generated_Source\PSoC6\pdl\rtos\FreeRTOS\9.0.0\Source/timers.c ****  */
 225:Generated_Source\PSoC6\pdl\rtos\FreeRTOS\9.0.0\Source/timers.c **** static void prvSwitchTimerLists( void ) PRIVILEGED_FUNCTION;
ARM GAS  C:\Users\ikomb\AppData\Local\Temp\ccS6Tztj.s 			page 6


 226:Generated_Source\PSoC6\pdl\rtos\FreeRTOS\9.0.0\Source/timers.c **** 
 227:Generated_Source\PSoC6\pdl\rtos\FreeRTOS\9.0.0\Source/timers.c **** /*
 228:Generated_Source\PSoC6\pdl\rtos\FreeRTOS\9.0.0\Source/timers.c ****  * Obtain the current tick count, setting *pxTimerListsWereSwitched to pdTRUE
 229:Generated_Source\PSoC6\pdl\rtos\FreeRTOS\9.0.0\Source/timers.c ****  * if a tick count overflow occurred since prvSampleTimeNow() was last called.
 230:Generated_Source\PSoC6\pdl\rtos\FreeRTOS\9.0.0\Source/timers.c ****  */
 231:Generated_Source\PSoC6\pdl\rtos\FreeRTOS\9.0.0\Source/timers.c **** static TickType_t prvSampleTimeNow( BaseType_t * const pxTimerListsWereSwitched ) PRIVILEGED_FUNCTI
 232:Generated_Source\PSoC6\pdl\rtos\FreeRTOS\9.0.0\Source/timers.c **** 
 233:Generated_Source\PSoC6\pdl\rtos\FreeRTOS\9.0.0\Source/timers.c **** /*
 234:Generated_Source\PSoC6\pdl\rtos\FreeRTOS\9.0.0\Source/timers.c ****  * If the timer list contains any active timers then return the expire time of
 235:Generated_Source\PSoC6\pdl\rtos\FreeRTOS\9.0.0\Source/timers.c ****  * the timer that will expire first and set *pxListWasEmpty to false.  If the
 236:Generated_Source\PSoC6\pdl\rtos\FreeRTOS\9.0.0\Source/timers.c ****  * timer list does not contain any timers then return 0 and set *pxListWasEmpty
 237:Generated_Source\PSoC6\pdl\rtos\FreeRTOS\9.0.0\Source/timers.c ****  * to pdTRUE.
 238:Generated_Source\PSoC6\pdl\rtos\FreeRTOS\9.0.0\Source/timers.c ****  */
 239:Generated_Source\PSoC6\pdl\rtos\FreeRTOS\9.0.0\Source/timers.c **** static TickType_t prvGetNextExpireTime( BaseType_t * const pxListWasEmpty ) PRIVILEGED_FUNCTION;
 240:Generated_Source\PSoC6\pdl\rtos\FreeRTOS\9.0.0\Source/timers.c **** 
 241:Generated_Source\PSoC6\pdl\rtos\FreeRTOS\9.0.0\Source/timers.c **** /*
 242:Generated_Source\PSoC6\pdl\rtos\FreeRTOS\9.0.0\Source/timers.c ****  * If a timer has expired, process it.  Otherwise, block the timer service task
 243:Generated_Source\PSoC6\pdl\rtos\FreeRTOS\9.0.0\Source/timers.c ****  * until either a timer does expire or a command is received.
 244:Generated_Source\PSoC6\pdl\rtos\FreeRTOS\9.0.0\Source/timers.c ****  */
 245:Generated_Source\PSoC6\pdl\rtos\FreeRTOS\9.0.0\Source/timers.c **** static void prvProcessTimerOrBlockTask( const TickType_t xNextExpireTime, BaseType_t xListWasEmpty 
 246:Generated_Source\PSoC6\pdl\rtos\FreeRTOS\9.0.0\Source/timers.c **** 
 247:Generated_Source\PSoC6\pdl\rtos\FreeRTOS\9.0.0\Source/timers.c **** /*
 248:Generated_Source\PSoC6\pdl\rtos\FreeRTOS\9.0.0\Source/timers.c ****  * Called after a Timer_t structure has been allocated either statically or
 249:Generated_Source\PSoC6\pdl\rtos\FreeRTOS\9.0.0\Source/timers.c ****  * dynamically to fill in the structure's members.
 250:Generated_Source\PSoC6\pdl\rtos\FreeRTOS\9.0.0\Source/timers.c ****  */
 251:Generated_Source\PSoC6\pdl\rtos\FreeRTOS\9.0.0\Source/timers.c **** static void prvInitialiseNewTimer(	const char * const pcTimerName,
 252:Generated_Source\PSoC6\pdl\rtos\FreeRTOS\9.0.0\Source/timers.c **** 									const TickType_t xTimerPeriodInTicks,
 253:Generated_Source\PSoC6\pdl\rtos\FreeRTOS\9.0.0\Source/timers.c **** 									const UBaseType_t uxAutoReload,
 254:Generated_Source\PSoC6\pdl\rtos\FreeRTOS\9.0.0\Source/timers.c **** 									void * const pvTimerID,
 255:Generated_Source\PSoC6\pdl\rtos\FreeRTOS\9.0.0\Source/timers.c **** 									TimerCallbackFunction_t pxCallbackFunction,
 256:Generated_Source\PSoC6\pdl\rtos\FreeRTOS\9.0.0\Source/timers.c **** 									Timer_t *pxNewTimer ) PRIVILEGED_FUNCTION; /*lint !e971 Unqualified char types are allowed
 257:Generated_Source\PSoC6\pdl\rtos\FreeRTOS\9.0.0\Source/timers.c **** /*-----------------------------------------------------------*/
 258:Generated_Source\PSoC6\pdl\rtos\FreeRTOS\9.0.0\Source/timers.c **** 
 259:Generated_Source\PSoC6\pdl\rtos\FreeRTOS\9.0.0\Source/timers.c **** BaseType_t xTimerCreateTimerTask( void )
 260:Generated_Source\PSoC6\pdl\rtos\FreeRTOS\9.0.0\Source/timers.c **** {
  52              		.loc 1 260 0
  53              		.cfi_startproc
  54              		@ args = 0, pretend = 0, frame = 8
  55              		@ frame_needed = 1, uses_anonymous_args = 0
  56 0000 80B5     		push	{r7, lr}
  57              		.cfi_def_cfa_offset 8
  58              		.cfi_offset 7, -8
  59              		.cfi_offset 14, -4
  60 0002 84B0     		sub	sp, sp, #16
  61              		.cfi_def_cfa_offset 24
  62 0004 02AF     		add	r7, sp, #8
  63              		.cfi_def_cfa 7, 16
 261:Generated_Source\PSoC6\pdl\rtos\FreeRTOS\9.0.0\Source/timers.c **** BaseType_t xReturn = pdFAIL;
  64              		.loc 1 261 0
  65 0006 0023     		movs	r3, #0
  66 0008 7B60     		str	r3, [r7, #4]
 262:Generated_Source\PSoC6\pdl\rtos\FreeRTOS\9.0.0\Source/timers.c **** 
 263:Generated_Source\PSoC6\pdl\rtos\FreeRTOS\9.0.0\Source/timers.c **** 	/* This function is called when the scheduler is started if
 264:Generated_Source\PSoC6\pdl\rtos\FreeRTOS\9.0.0\Source/timers.c **** 	configUSE_TIMERS is set to 1.  Check that the infrastructure used by the
 265:Generated_Source\PSoC6\pdl\rtos\FreeRTOS\9.0.0\Source/timers.c **** 	timer service task has been created/initialised.  If timers have already
 266:Generated_Source\PSoC6\pdl\rtos\FreeRTOS\9.0.0\Source/timers.c **** 	been created then the initialisation will already have been performed. */
 267:Generated_Source\PSoC6\pdl\rtos\FreeRTOS\9.0.0\Source/timers.c **** 	prvCheckForValidListAndQueue();
ARM GAS  C:\Users\ikomb\AppData\Local\Temp\ccS6Tztj.s 			page 7


  67              		.loc 1 267 0
  68 000a FFF7FEFF 		bl	prvCheckForValidListAndQueue
 268:Generated_Source\PSoC6\pdl\rtos\FreeRTOS\9.0.0\Source/timers.c **** 
 269:Generated_Source\PSoC6\pdl\rtos\FreeRTOS\9.0.0\Source/timers.c **** 	if( xTimerQueue != NULL )
  69              		.loc 1 269 0
  70 000e 0C4B     		ldr	r3, .L6
  71 0010 1B68     		ldr	r3, [r3]
  72 0012 002B     		cmp	r3, #0
  73 0014 0AD0     		beq	.L2
 270:Generated_Source\PSoC6\pdl\rtos\FreeRTOS\9.0.0\Source/timers.c **** 	{
 271:Generated_Source\PSoC6\pdl\rtos\FreeRTOS\9.0.0\Source/timers.c **** 		#if( configSUPPORT_STATIC_ALLOCATION == 1 )
 272:Generated_Source\PSoC6\pdl\rtos\FreeRTOS\9.0.0\Source/timers.c **** 		{
 273:Generated_Source\PSoC6\pdl\rtos\FreeRTOS\9.0.0\Source/timers.c **** 			StaticTask_t *pxTimerTaskTCBBuffer = NULL;
 274:Generated_Source\PSoC6\pdl\rtos\FreeRTOS\9.0.0\Source/timers.c **** 			StackType_t *pxTimerTaskStackBuffer = NULL;
 275:Generated_Source\PSoC6\pdl\rtos\FreeRTOS\9.0.0\Source/timers.c **** 			uint32_t ulTimerTaskStackSize;
 276:Generated_Source\PSoC6\pdl\rtos\FreeRTOS\9.0.0\Source/timers.c **** 
 277:Generated_Source\PSoC6\pdl\rtos\FreeRTOS\9.0.0\Source/timers.c **** 			vApplicationGetTimerTaskMemory( &pxTimerTaskTCBBuffer, &pxTimerTaskStackBuffer, &ulTimerTaskStac
 278:Generated_Source\PSoC6\pdl\rtos\FreeRTOS\9.0.0\Source/timers.c **** 			xTimerTaskHandle = xTaskCreateStatic(	prvTimerTask,
 279:Generated_Source\PSoC6\pdl\rtos\FreeRTOS\9.0.0\Source/timers.c **** 													"Tmr Svc",
 280:Generated_Source\PSoC6\pdl\rtos\FreeRTOS\9.0.0\Source/timers.c **** 													ulTimerTaskStackSize,
 281:Generated_Source\PSoC6\pdl\rtos\FreeRTOS\9.0.0\Source/timers.c **** 													NULL,
 282:Generated_Source\PSoC6\pdl\rtos\FreeRTOS\9.0.0\Source/timers.c **** 													( ( UBaseType_t ) configTIMER_TASK_PRIORITY ) | portPRIVILEGE_BIT,
 283:Generated_Source\PSoC6\pdl\rtos\FreeRTOS\9.0.0\Source/timers.c **** 													pxTimerTaskStackBuffer,
 284:Generated_Source\PSoC6\pdl\rtos\FreeRTOS\9.0.0\Source/timers.c **** 													pxTimerTaskTCBBuffer );
 285:Generated_Source\PSoC6\pdl\rtos\FreeRTOS\9.0.0\Source/timers.c **** 
 286:Generated_Source\PSoC6\pdl\rtos\FreeRTOS\9.0.0\Source/timers.c **** 			if( xTimerTaskHandle != NULL )
 287:Generated_Source\PSoC6\pdl\rtos\FreeRTOS\9.0.0\Source/timers.c **** 			{
 288:Generated_Source\PSoC6\pdl\rtos\FreeRTOS\9.0.0\Source/timers.c **** 				xReturn = pdPASS;
 289:Generated_Source\PSoC6\pdl\rtos\FreeRTOS\9.0.0\Source/timers.c **** 			}
 290:Generated_Source\PSoC6\pdl\rtos\FreeRTOS\9.0.0\Source/timers.c **** 		}
 291:Generated_Source\PSoC6\pdl\rtos\FreeRTOS\9.0.0\Source/timers.c **** 		#else
 292:Generated_Source\PSoC6\pdl\rtos\FreeRTOS\9.0.0\Source/timers.c **** 		{
 293:Generated_Source\PSoC6\pdl\rtos\FreeRTOS\9.0.0\Source/timers.c **** 			xReturn = xTaskCreate(	prvTimerTask,
  74              		.loc 1 293 0
  75 0016 0B4B     		ldr	r3, .L6+4
  76 0018 0193     		str	r3, [sp, #4]
  77 001a 0323     		movs	r3, #3
  78 001c 0093     		str	r3, [sp]
  79 001e 0023     		movs	r3, #0
  80 0020 8022     		movs	r2, #128
  81 0022 0949     		ldr	r1, .L6+8
  82 0024 0948     		ldr	r0, .L6+12
  83 0026 FFF7FEFF 		bl	xTaskCreate
  84 002a 7860     		str	r0, [r7, #4]
  85              	.L2:
 294:Generated_Source\PSoC6\pdl\rtos\FreeRTOS\9.0.0\Source/timers.c **** 									"Tmr Svc",
 295:Generated_Source\PSoC6\pdl\rtos\FreeRTOS\9.0.0\Source/timers.c **** 									configTIMER_TASK_STACK_DEPTH,
 296:Generated_Source\PSoC6\pdl\rtos\FreeRTOS\9.0.0\Source/timers.c **** 									NULL,
 297:Generated_Source\PSoC6\pdl\rtos\FreeRTOS\9.0.0\Source/timers.c **** 									( ( UBaseType_t ) configTIMER_TASK_PRIORITY ) | portPRIVILEGE_BIT,
 298:Generated_Source\PSoC6\pdl\rtos\FreeRTOS\9.0.0\Source/timers.c **** 									&xTimerTaskHandle );
 299:Generated_Source\PSoC6\pdl\rtos\FreeRTOS\9.0.0\Source/timers.c **** 		}
 300:Generated_Source\PSoC6\pdl\rtos\FreeRTOS\9.0.0\Source/timers.c **** 		#endif /* configSUPPORT_STATIC_ALLOCATION */
 301:Generated_Source\PSoC6\pdl\rtos\FreeRTOS\9.0.0\Source/timers.c **** 	}
 302:Generated_Source\PSoC6\pdl\rtos\FreeRTOS\9.0.0\Source/timers.c **** 	else
 303:Generated_Source\PSoC6\pdl\rtos\FreeRTOS\9.0.0\Source/timers.c **** 	{
 304:Generated_Source\PSoC6\pdl\rtos\FreeRTOS\9.0.0\Source/timers.c **** 		mtCOVERAGE_TEST_MARKER();
 305:Generated_Source\PSoC6\pdl\rtos\FreeRTOS\9.0.0\Source/timers.c **** 	}
ARM GAS  C:\Users\ikomb\AppData\Local\Temp\ccS6Tztj.s 			page 8


 306:Generated_Source\PSoC6\pdl\rtos\FreeRTOS\9.0.0\Source/timers.c **** 
 307:Generated_Source\PSoC6\pdl\rtos\FreeRTOS\9.0.0\Source/timers.c **** 	configASSERT( xReturn );
  86              		.loc 1 307 0
  87 002c 7B68     		ldr	r3, [r7, #4]
  88 002e 002B     		cmp	r3, #0
  89 0030 01D1     		bne	.L3
  90              		.loc 1 307 0 is_stmt 0 discriminator 1
  91              		.syntax unified
  92              	@ 307 "Generated_Source\PSoC6\pdl\rtos\FreeRTOS\9.0.0\Source\timers.c" 1
  93 0032 72B6     		 cpsid i 
  94              	@ 0 "" 2
  95              		.thumb
  96              		.syntax unified
  97              	.L4:
  98 0034 FEE7     		b	.L4
  99              	.L3:
 308:Generated_Source\PSoC6\pdl\rtos\FreeRTOS\9.0.0\Source/timers.c **** 	return xReturn;
 100              		.loc 1 308 0 is_stmt 1
 101 0036 7B68     		ldr	r3, [r7, #4]
 309:Generated_Source\PSoC6\pdl\rtos\FreeRTOS\9.0.0\Source/timers.c **** }
 102              		.loc 1 309 0
 103 0038 1846     		mov	r0, r3
 104 003a 0837     		adds	r7, r7, #8
 105              		.cfi_def_cfa_offset 8
 106 003c BD46     		mov	sp, r7
 107              		.cfi_def_cfa_register 13
 108              		@ sp needed
 109 003e 80BD     		pop	{r7, pc}
 110              	.L7:
 111              		.align	2
 112              	.L6:
 113 0040 30000000 		.word	xTimerQueue
 114 0044 34000000 		.word	xTimerTaskHandle
 115 0048 00000000 		.word	.LC0
 116 004c 00000000 		.word	prvTimerTask
 117              		.cfi_endproc
 118              	.LFE129:
 119              		.size	xTimerCreateTimerTask, .-xTimerCreateTimerTask
 120              		.section	.text.xTimerCreate,"ax",%progbits
 121              		.align	2
 122              		.global	xTimerCreate
 123              		.thumb
 124              		.thumb_func
 125              		.type	xTimerCreate, %function
 126              	xTimerCreate:
 127              	.LFB130:
 310:Generated_Source\PSoC6\pdl\rtos\FreeRTOS\9.0.0\Source/timers.c **** /*-----------------------------------------------------------*/
 311:Generated_Source\PSoC6\pdl\rtos\FreeRTOS\9.0.0\Source/timers.c **** 
 312:Generated_Source\PSoC6\pdl\rtos\FreeRTOS\9.0.0\Source/timers.c **** #if( configSUPPORT_DYNAMIC_ALLOCATION == 1 )
 313:Generated_Source\PSoC6\pdl\rtos\FreeRTOS\9.0.0\Source/timers.c **** 
 314:Generated_Source\PSoC6\pdl\rtos\FreeRTOS\9.0.0\Source/timers.c **** 	TimerHandle_t xTimerCreate(	const char * const pcTimerName,
 315:Generated_Source\PSoC6\pdl\rtos\FreeRTOS\9.0.0\Source/timers.c **** 								const TickType_t xTimerPeriodInTicks,
 316:Generated_Source\PSoC6\pdl\rtos\FreeRTOS\9.0.0\Source/timers.c **** 								const UBaseType_t uxAutoReload,
 317:Generated_Source\PSoC6\pdl\rtos\FreeRTOS\9.0.0\Source/timers.c **** 								void * const pvTimerID,
 318:Generated_Source\PSoC6\pdl\rtos\FreeRTOS\9.0.0\Source/timers.c **** 								TimerCallbackFunction_t pxCallbackFunction ) /*lint !e971 Unqualified char types are allowe
 319:Generated_Source\PSoC6\pdl\rtos\FreeRTOS\9.0.0\Source/timers.c **** 	{
 128              		.loc 1 319 0
ARM GAS  C:\Users\ikomb\AppData\Local\Temp\ccS6Tztj.s 			page 9


 129              		.cfi_startproc
 130              		@ args = 4, pretend = 0, frame = 24
 131              		@ frame_needed = 1, uses_anonymous_args = 0
 132 0000 80B5     		push	{r7, lr}
 133              		.cfi_def_cfa_offset 8
 134              		.cfi_offset 7, -8
 135              		.cfi_offset 14, -4
 136 0002 88B0     		sub	sp, sp, #32
 137              		.cfi_def_cfa_offset 40
 138 0004 02AF     		add	r7, sp, #8
 139              		.cfi_def_cfa 7, 32
 140 0006 F860     		str	r0, [r7, #12]
 141 0008 B960     		str	r1, [r7, #8]
 142 000a 7A60     		str	r2, [r7, #4]
 143 000c 3B60     		str	r3, [r7]
 320:Generated_Source\PSoC6\pdl\rtos\FreeRTOS\9.0.0\Source/timers.c **** 	Timer_t *pxNewTimer;
 321:Generated_Source\PSoC6\pdl\rtos\FreeRTOS\9.0.0\Source/timers.c **** 
 322:Generated_Source\PSoC6\pdl\rtos\FreeRTOS\9.0.0\Source/timers.c **** 		pxNewTimer = ( Timer_t * ) pvPortMalloc( sizeof( Timer_t ) );
 144              		.loc 1 322 0
 145 000e 2820     		movs	r0, #40
 146 0010 FFF7FEFF 		bl	pvPortMalloc
 147 0014 7861     		str	r0, [r7, #20]
 323:Generated_Source\PSoC6\pdl\rtos\FreeRTOS\9.0.0\Source/timers.c **** 
 324:Generated_Source\PSoC6\pdl\rtos\FreeRTOS\9.0.0\Source/timers.c **** 		if( pxNewTimer != NULL )
 148              		.loc 1 324 0
 149 0016 7B69     		ldr	r3, [r7, #20]
 150 0018 002B     		cmp	r3, #0
 151 001a 09D0     		beq	.L9
 325:Generated_Source\PSoC6\pdl\rtos\FreeRTOS\9.0.0\Source/timers.c **** 		{
 326:Generated_Source\PSoC6\pdl\rtos\FreeRTOS\9.0.0\Source/timers.c **** 			prvInitialiseNewTimer( pcTimerName, xTimerPeriodInTicks, uxAutoReload, pvTimerID, pxCallbackFunc
 152              		.loc 1 326 0
 153 001c 7B69     		ldr	r3, [r7, #20]
 154 001e 0193     		str	r3, [sp, #4]
 155 0020 3B6A     		ldr	r3, [r7, #32]
 156 0022 0093     		str	r3, [sp]
 157 0024 3B68     		ldr	r3, [r7]
 158 0026 7A68     		ldr	r2, [r7, #4]
 159 0028 B968     		ldr	r1, [r7, #8]
 160 002a F868     		ldr	r0, [r7, #12]
 161 002c FFF7FEFF 		bl	prvInitialiseNewTimer
 162              	.L9:
 327:Generated_Source\PSoC6\pdl\rtos\FreeRTOS\9.0.0\Source/timers.c **** 
 328:Generated_Source\PSoC6\pdl\rtos\FreeRTOS\9.0.0\Source/timers.c **** 			#if( configSUPPORT_STATIC_ALLOCATION == 1 )
 329:Generated_Source\PSoC6\pdl\rtos\FreeRTOS\9.0.0\Source/timers.c **** 			{
 330:Generated_Source\PSoC6\pdl\rtos\FreeRTOS\9.0.0\Source/timers.c **** 				/* Timers can be created statically or dynamically, so note this
 331:Generated_Source\PSoC6\pdl\rtos\FreeRTOS\9.0.0\Source/timers.c **** 				timer was created dynamically in case the timer is later
 332:Generated_Source\PSoC6\pdl\rtos\FreeRTOS\9.0.0\Source/timers.c **** 				deleted. */
 333:Generated_Source\PSoC6\pdl\rtos\FreeRTOS\9.0.0\Source/timers.c **** 				pxNewTimer->ucStaticallyAllocated = pdFALSE;
 334:Generated_Source\PSoC6\pdl\rtos\FreeRTOS\9.0.0\Source/timers.c **** 			}
 335:Generated_Source\PSoC6\pdl\rtos\FreeRTOS\9.0.0\Source/timers.c **** 			#endif /* configSUPPORT_STATIC_ALLOCATION */
 336:Generated_Source\PSoC6\pdl\rtos\FreeRTOS\9.0.0\Source/timers.c **** 		}
 337:Generated_Source\PSoC6\pdl\rtos\FreeRTOS\9.0.0\Source/timers.c **** 
 338:Generated_Source\PSoC6\pdl\rtos\FreeRTOS\9.0.0\Source/timers.c **** 		return pxNewTimer;
 163              		.loc 1 338 0
 164 0030 7B69     		ldr	r3, [r7, #20]
 339:Generated_Source\PSoC6\pdl\rtos\FreeRTOS\9.0.0\Source/timers.c **** 	}
 165              		.loc 1 339 0
ARM GAS  C:\Users\ikomb\AppData\Local\Temp\ccS6Tztj.s 			page 10


 166 0032 1846     		mov	r0, r3
 167 0034 1837     		adds	r7, r7, #24
 168              		.cfi_def_cfa_offset 8
 169 0036 BD46     		mov	sp, r7
 170              		.cfi_def_cfa_register 13
 171              		@ sp needed
 172 0038 80BD     		pop	{r7, pc}
 173              		.cfi_endproc
 174              	.LFE130:
 175              		.size	xTimerCreate, .-xTimerCreate
 176 003a 00BF     		.section	.text.prvInitialiseNewTimer,"ax",%progbits
 177              		.align	2
 178              		.thumb
 179              		.thumb_func
 180              		.type	prvInitialiseNewTimer, %function
 181              	prvInitialiseNewTimer:
 182              	.LFB131:
 340:Generated_Source\PSoC6\pdl\rtos\FreeRTOS\9.0.0\Source/timers.c **** 
 341:Generated_Source\PSoC6\pdl\rtos\FreeRTOS\9.0.0\Source/timers.c **** #endif /* configSUPPORT_STATIC_ALLOCATION */
 342:Generated_Source\PSoC6\pdl\rtos\FreeRTOS\9.0.0\Source/timers.c **** /*-----------------------------------------------------------*/
 343:Generated_Source\PSoC6\pdl\rtos\FreeRTOS\9.0.0\Source/timers.c **** 
 344:Generated_Source\PSoC6\pdl\rtos\FreeRTOS\9.0.0\Source/timers.c **** #if( configSUPPORT_STATIC_ALLOCATION == 1 )
 345:Generated_Source\PSoC6\pdl\rtos\FreeRTOS\9.0.0\Source/timers.c **** 
 346:Generated_Source\PSoC6\pdl\rtos\FreeRTOS\9.0.0\Source/timers.c **** 	TimerHandle_t xTimerCreateStatic(	const char * const pcTimerName,
 347:Generated_Source\PSoC6\pdl\rtos\FreeRTOS\9.0.0\Source/timers.c **** 										const TickType_t xTimerPeriodInTicks,
 348:Generated_Source\PSoC6\pdl\rtos\FreeRTOS\9.0.0\Source/timers.c **** 										const UBaseType_t uxAutoReload,
 349:Generated_Source\PSoC6\pdl\rtos\FreeRTOS\9.0.0\Source/timers.c **** 										void * const pvTimerID,
 350:Generated_Source\PSoC6\pdl\rtos\FreeRTOS\9.0.0\Source/timers.c **** 										TimerCallbackFunction_t pxCallbackFunction,
 351:Generated_Source\PSoC6\pdl\rtos\FreeRTOS\9.0.0\Source/timers.c **** 										StaticTimer_t *pxTimerBuffer ) /*lint !e971 Unqualified char types are allowed for string
 352:Generated_Source\PSoC6\pdl\rtos\FreeRTOS\9.0.0\Source/timers.c **** 	{
 353:Generated_Source\PSoC6\pdl\rtos\FreeRTOS\9.0.0\Source/timers.c **** 	Timer_t *pxNewTimer;
 354:Generated_Source\PSoC6\pdl\rtos\FreeRTOS\9.0.0\Source/timers.c **** 
 355:Generated_Source\PSoC6\pdl\rtos\FreeRTOS\9.0.0\Source/timers.c **** 		#if( configASSERT_DEFINED == 1 )
 356:Generated_Source\PSoC6\pdl\rtos\FreeRTOS\9.0.0\Source/timers.c **** 		{
 357:Generated_Source\PSoC6\pdl\rtos\FreeRTOS\9.0.0\Source/timers.c **** 			/* Sanity check that the size of the structure used to declare a
 358:Generated_Source\PSoC6\pdl\rtos\FreeRTOS\9.0.0\Source/timers.c **** 			variable of type StaticTimer_t equals the size of the real timer
 359:Generated_Source\PSoC6\pdl\rtos\FreeRTOS\9.0.0\Source/timers.c **** 			structures. */
 360:Generated_Source\PSoC6\pdl\rtos\FreeRTOS\9.0.0\Source/timers.c **** 			volatile size_t xSize = sizeof( StaticTimer_t );
 361:Generated_Source\PSoC6\pdl\rtos\FreeRTOS\9.0.0\Source/timers.c **** 			configASSERT( xSize == sizeof( Timer_t ) );
 362:Generated_Source\PSoC6\pdl\rtos\FreeRTOS\9.0.0\Source/timers.c **** 		}
 363:Generated_Source\PSoC6\pdl\rtos\FreeRTOS\9.0.0\Source/timers.c **** 		#endif /* configASSERT_DEFINED */
 364:Generated_Source\PSoC6\pdl\rtos\FreeRTOS\9.0.0\Source/timers.c **** 
 365:Generated_Source\PSoC6\pdl\rtos\FreeRTOS\9.0.0\Source/timers.c **** 		/* A pointer to a StaticTimer_t structure MUST be provided, use it. */
 366:Generated_Source\PSoC6\pdl\rtos\FreeRTOS\9.0.0\Source/timers.c **** 		configASSERT( pxTimerBuffer );
 367:Generated_Source\PSoC6\pdl\rtos\FreeRTOS\9.0.0\Source/timers.c **** 		pxNewTimer = ( Timer_t * ) pxTimerBuffer; /*lint !e740 Unusual cast is ok as the structures are d
 368:Generated_Source\PSoC6\pdl\rtos\FreeRTOS\9.0.0\Source/timers.c **** 
 369:Generated_Source\PSoC6\pdl\rtos\FreeRTOS\9.0.0\Source/timers.c **** 		if( pxNewTimer != NULL )
 370:Generated_Source\PSoC6\pdl\rtos\FreeRTOS\9.0.0\Source/timers.c **** 		{
 371:Generated_Source\PSoC6\pdl\rtos\FreeRTOS\9.0.0\Source/timers.c **** 			prvInitialiseNewTimer( pcTimerName, xTimerPeriodInTicks, uxAutoReload, pvTimerID, pxCallbackFunc
 372:Generated_Source\PSoC6\pdl\rtos\FreeRTOS\9.0.0\Source/timers.c **** 
 373:Generated_Source\PSoC6\pdl\rtos\FreeRTOS\9.0.0\Source/timers.c **** 			#if( configSUPPORT_DYNAMIC_ALLOCATION == 1 )
 374:Generated_Source\PSoC6\pdl\rtos\FreeRTOS\9.0.0\Source/timers.c **** 			{
 375:Generated_Source\PSoC6\pdl\rtos\FreeRTOS\9.0.0\Source/timers.c **** 				/* Timers can be created statically or dynamically so note this
 376:Generated_Source\PSoC6\pdl\rtos\FreeRTOS\9.0.0\Source/timers.c **** 				timer was created statically in case it is later deleted. */
 377:Generated_Source\PSoC6\pdl\rtos\FreeRTOS\9.0.0\Source/timers.c **** 				pxNewTimer->ucStaticallyAllocated = pdTRUE;
 378:Generated_Source\PSoC6\pdl\rtos\FreeRTOS\9.0.0\Source/timers.c **** 			}
 379:Generated_Source\PSoC6\pdl\rtos\FreeRTOS\9.0.0\Source/timers.c **** 			#endif /* configSUPPORT_DYNAMIC_ALLOCATION */
ARM GAS  C:\Users\ikomb\AppData\Local\Temp\ccS6Tztj.s 			page 11


 380:Generated_Source\PSoC6\pdl\rtos\FreeRTOS\9.0.0\Source/timers.c **** 		}
 381:Generated_Source\PSoC6\pdl\rtos\FreeRTOS\9.0.0\Source/timers.c **** 
 382:Generated_Source\PSoC6\pdl\rtos\FreeRTOS\9.0.0\Source/timers.c **** 		return pxNewTimer;
 383:Generated_Source\PSoC6\pdl\rtos\FreeRTOS\9.0.0\Source/timers.c **** 	}
 384:Generated_Source\PSoC6\pdl\rtos\FreeRTOS\9.0.0\Source/timers.c **** 
 385:Generated_Source\PSoC6\pdl\rtos\FreeRTOS\9.0.0\Source/timers.c **** #endif /* configSUPPORT_STATIC_ALLOCATION */
 386:Generated_Source\PSoC6\pdl\rtos\FreeRTOS\9.0.0\Source/timers.c **** /*-----------------------------------------------------------*/
 387:Generated_Source\PSoC6\pdl\rtos\FreeRTOS\9.0.0\Source/timers.c **** 
 388:Generated_Source\PSoC6\pdl\rtos\FreeRTOS\9.0.0\Source/timers.c **** static void prvInitialiseNewTimer(	const char * const pcTimerName,
 389:Generated_Source\PSoC6\pdl\rtos\FreeRTOS\9.0.0\Source/timers.c **** 									const TickType_t xTimerPeriodInTicks,
 390:Generated_Source\PSoC6\pdl\rtos\FreeRTOS\9.0.0\Source/timers.c **** 									const UBaseType_t uxAutoReload,
 391:Generated_Source\PSoC6\pdl\rtos\FreeRTOS\9.0.0\Source/timers.c **** 									void * const pvTimerID,
 392:Generated_Source\PSoC6\pdl\rtos\FreeRTOS\9.0.0\Source/timers.c **** 									TimerCallbackFunction_t pxCallbackFunction,
 393:Generated_Source\PSoC6\pdl\rtos\FreeRTOS\9.0.0\Source/timers.c **** 									Timer_t *pxNewTimer ) /*lint !e971 Unqualified char types are allowed for strings and sing
 394:Generated_Source\PSoC6\pdl\rtos\FreeRTOS\9.0.0\Source/timers.c **** {
 183              		.loc 1 394 0
 184              		.cfi_startproc
 185              		@ args = 8, pretend = 0, frame = 16
 186              		@ frame_needed = 1, uses_anonymous_args = 0
 187 0000 80B5     		push	{r7, lr}
 188              		.cfi_def_cfa_offset 8
 189              		.cfi_offset 7, -8
 190              		.cfi_offset 14, -4
 191 0002 84B0     		sub	sp, sp, #16
 192              		.cfi_def_cfa_offset 24
 193 0004 00AF     		add	r7, sp, #0
 194              		.cfi_def_cfa_register 7
 195 0006 F860     		str	r0, [r7, #12]
 196 0008 B960     		str	r1, [r7, #8]
 197 000a 7A60     		str	r2, [r7, #4]
 198 000c 3B60     		str	r3, [r7]
 395:Generated_Source\PSoC6\pdl\rtos\FreeRTOS\9.0.0\Source/timers.c **** 	/* 0 is not a valid value for xTimerPeriodInTicks. */
 396:Generated_Source\PSoC6\pdl\rtos\FreeRTOS\9.0.0\Source/timers.c **** 	configASSERT( ( xTimerPeriodInTicks > 0 ) );
 199              		.loc 1 396 0
 200 000e BB68     		ldr	r3, [r7, #8]
 201 0010 002B     		cmp	r3, #0
 202 0012 01D1     		bne	.L12
 203              		.loc 1 396 0 is_stmt 0 discriminator 1
 204              		.syntax unified
 205              	@ 396 "Generated_Source\PSoC6\pdl\rtos\FreeRTOS\9.0.0\Source\timers.c" 1
 206 0014 72B6     		 cpsid i 
 207              	@ 0 "" 2
 208              		.thumb
 209              		.syntax unified
 210              	.L13:
 211 0016 FEE7     		b	.L13
 212              	.L12:
 397:Generated_Source\PSoC6\pdl\rtos\FreeRTOS\9.0.0\Source/timers.c **** 
 398:Generated_Source\PSoC6\pdl\rtos\FreeRTOS\9.0.0\Source/timers.c **** 	if( pxNewTimer != NULL )
 213              		.loc 1 398 0 is_stmt 1
 214 0018 FB69     		ldr	r3, [r7, #28]
 215 001a 002B     		cmp	r3, #0
 216 001c 15D0     		beq	.L15
 399:Generated_Source\PSoC6\pdl\rtos\FreeRTOS\9.0.0\Source/timers.c **** 	{
 400:Generated_Source\PSoC6\pdl\rtos\FreeRTOS\9.0.0\Source/timers.c **** 		/* Ensure the infrastructure used by the timer service task has been
 401:Generated_Source\PSoC6\pdl\rtos\FreeRTOS\9.0.0\Source/timers.c **** 		created/initialised. */
 402:Generated_Source\PSoC6\pdl\rtos\FreeRTOS\9.0.0\Source/timers.c **** 		prvCheckForValidListAndQueue();
ARM GAS  C:\Users\ikomb\AppData\Local\Temp\ccS6Tztj.s 			page 12


 217              		.loc 1 402 0
 218 001e FFF7FEFF 		bl	prvCheckForValidListAndQueue
 403:Generated_Source\PSoC6\pdl\rtos\FreeRTOS\9.0.0\Source/timers.c **** 
 404:Generated_Source\PSoC6\pdl\rtos\FreeRTOS\9.0.0\Source/timers.c **** 		/* Initialise the timer structure members using the function
 405:Generated_Source\PSoC6\pdl\rtos\FreeRTOS\9.0.0\Source/timers.c **** 		parameters. */
 406:Generated_Source\PSoC6\pdl\rtos\FreeRTOS\9.0.0\Source/timers.c **** 		pxNewTimer->pcTimerName = pcTimerName;
 219              		.loc 1 406 0
 220 0022 FB69     		ldr	r3, [r7, #28]
 221 0024 FA68     		ldr	r2, [r7, #12]
 222 0026 1A60     		str	r2, [r3]
 407:Generated_Source\PSoC6\pdl\rtos\FreeRTOS\9.0.0\Source/timers.c **** 		pxNewTimer->xTimerPeriodInTicks = xTimerPeriodInTicks;
 223              		.loc 1 407 0
 224 0028 FB69     		ldr	r3, [r7, #28]
 225 002a BA68     		ldr	r2, [r7, #8]
 226 002c 9A61     		str	r2, [r3, #24]
 408:Generated_Source\PSoC6\pdl\rtos\FreeRTOS\9.0.0\Source/timers.c **** 		pxNewTimer->uxAutoReload = uxAutoReload;
 227              		.loc 1 408 0
 228 002e FB69     		ldr	r3, [r7, #28]
 229 0030 7A68     		ldr	r2, [r7, #4]
 230 0032 DA61     		str	r2, [r3, #28]
 409:Generated_Source\PSoC6\pdl\rtos\FreeRTOS\9.0.0\Source/timers.c **** 		pxNewTimer->pvTimerID = pvTimerID;
 231              		.loc 1 409 0
 232 0034 FB69     		ldr	r3, [r7, #28]
 233 0036 3A68     		ldr	r2, [r7]
 234 0038 1A62     		str	r2, [r3, #32]
 410:Generated_Source\PSoC6\pdl\rtos\FreeRTOS\9.0.0\Source/timers.c **** 		pxNewTimer->pxCallbackFunction = pxCallbackFunction;
 235              		.loc 1 410 0
 236 003a FB69     		ldr	r3, [r7, #28]
 237 003c BA69     		ldr	r2, [r7, #24]
 238 003e 5A62     		str	r2, [r3, #36]
 411:Generated_Source\PSoC6\pdl\rtos\FreeRTOS\9.0.0\Source/timers.c **** 		vListInitialiseItem( &( pxNewTimer->xTimerListItem ) );
 239              		.loc 1 411 0
 240 0040 FB69     		ldr	r3, [r7, #28]
 241 0042 0433     		adds	r3, r3, #4
 242 0044 1846     		mov	r0, r3
 243 0046 FFF7FEFF 		bl	vListInitialiseItem
 244              	.L15:
 412:Generated_Source\PSoC6\pdl\rtos\FreeRTOS\9.0.0\Source/timers.c **** 		traceTIMER_CREATE( pxNewTimer );
 413:Generated_Source\PSoC6\pdl\rtos\FreeRTOS\9.0.0\Source/timers.c **** 	}
 414:Generated_Source\PSoC6\pdl\rtos\FreeRTOS\9.0.0\Source/timers.c **** }
 245              		.loc 1 414 0
 246 004a 00BF     		nop
 247 004c 1037     		adds	r7, r7, #16
 248              		.cfi_def_cfa_offset 8
 249 004e BD46     		mov	sp, r7
 250              		.cfi_def_cfa_register 13
 251              		@ sp needed
 252 0050 80BD     		pop	{r7, pc}
 253              		.cfi_endproc
 254              	.LFE131:
 255              		.size	prvInitialiseNewTimer, .-prvInitialiseNewTimer
 256 0052 00BF     		.section	.text.xTimerGenericCommand,"ax",%progbits
 257              		.align	2
 258              		.global	xTimerGenericCommand
 259              		.thumb
 260              		.thumb_func
 261              		.type	xTimerGenericCommand, %function
ARM GAS  C:\Users\ikomb\AppData\Local\Temp\ccS6Tztj.s 			page 13


 262              	xTimerGenericCommand:
 263              	.LFB132:
 415:Generated_Source\PSoC6\pdl\rtos\FreeRTOS\9.0.0\Source/timers.c **** /*-----------------------------------------------------------*/
 416:Generated_Source\PSoC6\pdl\rtos\FreeRTOS\9.0.0\Source/timers.c **** 
 417:Generated_Source\PSoC6\pdl\rtos\FreeRTOS\9.0.0\Source/timers.c **** BaseType_t xTimerGenericCommand( TimerHandle_t xTimer, const BaseType_t xCommandID, const TickType_
 418:Generated_Source\PSoC6\pdl\rtos\FreeRTOS\9.0.0\Source/timers.c **** {
 264              		.loc 1 418 0
 265              		.cfi_startproc
 266              		@ args = 4, pretend = 0, frame = 40
 267              		@ frame_needed = 1, uses_anonymous_args = 0
 268 0000 80B5     		push	{r7, lr}
 269              		.cfi_def_cfa_offset 8
 270              		.cfi_offset 7, -8
 271              		.cfi_offset 14, -4
 272 0002 8AB0     		sub	sp, sp, #40
 273              		.cfi_def_cfa_offset 48
 274 0004 00AF     		add	r7, sp, #0
 275              		.cfi_def_cfa_register 7
 276 0006 F860     		str	r0, [r7, #12]
 277 0008 B960     		str	r1, [r7, #8]
 278 000a 7A60     		str	r2, [r7, #4]
 279 000c 3B60     		str	r3, [r7]
 419:Generated_Source\PSoC6\pdl\rtos\FreeRTOS\9.0.0\Source/timers.c **** BaseType_t xReturn = pdFAIL;
 280              		.loc 1 419 0
 281 000e 0023     		movs	r3, #0
 282 0010 7B62     		str	r3, [r7, #36]
 420:Generated_Source\PSoC6\pdl\rtos\FreeRTOS\9.0.0\Source/timers.c **** DaemonTaskMessage_t xMessage;
 421:Generated_Source\PSoC6\pdl\rtos\FreeRTOS\9.0.0\Source/timers.c **** 
 422:Generated_Source\PSoC6\pdl\rtos\FreeRTOS\9.0.0\Source/timers.c **** 	configASSERT( xTimer );
 283              		.loc 1 422 0
 284 0012 FB68     		ldr	r3, [r7, #12]
 285 0014 002B     		cmp	r3, #0
 286 0016 01D1     		bne	.L17
 287              		.loc 1 422 0 is_stmt 0 discriminator 1
 288              		.syntax unified
 289              	@ 422 "Generated_Source\PSoC6\pdl\rtos\FreeRTOS\9.0.0\Source\timers.c" 1
 290 0018 72B6     		 cpsid i 
 291              	@ 0 "" 2
 292              		.thumb
 293              		.syntax unified
 294              	.L18:
 295 001a FEE7     		b	.L18
 296              	.L17:
 423:Generated_Source\PSoC6\pdl\rtos\FreeRTOS\9.0.0\Source/timers.c **** 
 424:Generated_Source\PSoC6\pdl\rtos\FreeRTOS\9.0.0\Source/timers.c **** 	/* Send a message to the timer service task to perform a particular action
 425:Generated_Source\PSoC6\pdl\rtos\FreeRTOS\9.0.0\Source/timers.c **** 	on a particular timer definition. */
 426:Generated_Source\PSoC6\pdl\rtos\FreeRTOS\9.0.0\Source/timers.c **** 	if( xTimerQueue != NULL )
 297              		.loc 1 426 0 is_stmt 1
 298 001c 194B     		ldr	r3, .L25
 299 001e 1B68     		ldr	r3, [r3]
 300 0020 002B     		cmp	r3, #0
 301 0022 2AD0     		beq	.L19
 427:Generated_Source\PSoC6\pdl\rtos\FreeRTOS\9.0.0\Source/timers.c **** 	{
 428:Generated_Source\PSoC6\pdl\rtos\FreeRTOS\9.0.0\Source/timers.c **** 		/* Send a command to the timer service task to start the xTimer timer. */
 429:Generated_Source\PSoC6\pdl\rtos\FreeRTOS\9.0.0\Source/timers.c **** 		xMessage.xMessageID = xCommandID;
 302              		.loc 1 429 0
 303 0024 BB68     		ldr	r3, [r7, #8]
ARM GAS  C:\Users\ikomb\AppData\Local\Temp\ccS6Tztj.s 			page 14


 304 0026 7B61     		str	r3, [r7, #20]
 430:Generated_Source\PSoC6\pdl\rtos\FreeRTOS\9.0.0\Source/timers.c **** 		xMessage.u.xTimerParameters.xMessageValue = xOptionalValue;
 305              		.loc 1 430 0
 306 0028 7B68     		ldr	r3, [r7, #4]
 307 002a BB61     		str	r3, [r7, #24]
 431:Generated_Source\PSoC6\pdl\rtos\FreeRTOS\9.0.0\Source/timers.c **** 		xMessage.u.xTimerParameters.pxTimer = ( Timer_t * ) xTimer;
 308              		.loc 1 431 0
 309 002c FB68     		ldr	r3, [r7, #12]
 310 002e FB61     		str	r3, [r7, #28]
 432:Generated_Source\PSoC6\pdl\rtos\FreeRTOS\9.0.0\Source/timers.c **** 
 433:Generated_Source\PSoC6\pdl\rtos\FreeRTOS\9.0.0\Source/timers.c **** 		if( xCommandID < tmrFIRST_FROM_ISR_COMMAND )
 311              		.loc 1 433 0
 312 0030 BB68     		ldr	r3, [r7, #8]
 313 0032 052B     		cmp	r3, #5
 314 0034 18DC     		bgt	.L20
 434:Generated_Source\PSoC6\pdl\rtos\FreeRTOS\9.0.0\Source/timers.c **** 		{
 435:Generated_Source\PSoC6\pdl\rtos\FreeRTOS\9.0.0\Source/timers.c **** 			if( xTaskGetSchedulerState() == taskSCHEDULER_RUNNING )
 315              		.loc 1 435 0
 316 0036 FFF7FEFF 		bl	xTaskGetSchedulerState
 317 003a 0346     		mov	r3, r0
 318 003c 022B     		cmp	r3, #2
 319 003e 09D1     		bne	.L21
 436:Generated_Source\PSoC6\pdl\rtos\FreeRTOS\9.0.0\Source/timers.c **** 			{
 437:Generated_Source\PSoC6\pdl\rtos\FreeRTOS\9.0.0\Source/timers.c **** 				xReturn = xQueueSendToBack( xTimerQueue, &xMessage, xTicksToWait );
 320              		.loc 1 437 0
 321 0040 104B     		ldr	r3, .L25
 322 0042 1868     		ldr	r0, [r3]
 323 0044 07F11401 		add	r1, r7, #20
 324 0048 0023     		movs	r3, #0
 325 004a 3A6B     		ldr	r2, [r7, #48]
 326 004c FFF7FEFF 		bl	xQueueGenericSend
 327 0050 7862     		str	r0, [r7, #36]
 328 0052 12E0     		b	.L19
 329              	.L21:
 438:Generated_Source\PSoC6\pdl\rtos\FreeRTOS\9.0.0\Source/timers.c **** 			}
 439:Generated_Source\PSoC6\pdl\rtos\FreeRTOS\9.0.0\Source/timers.c **** 			else
 440:Generated_Source\PSoC6\pdl\rtos\FreeRTOS\9.0.0\Source/timers.c **** 			{
 441:Generated_Source\PSoC6\pdl\rtos\FreeRTOS\9.0.0\Source/timers.c **** 				xReturn = xQueueSendToBack( xTimerQueue, &xMessage, tmrNO_DELAY );
 330              		.loc 1 441 0
 331 0054 0B4B     		ldr	r3, .L25
 332 0056 1868     		ldr	r0, [r3]
 333 0058 07F11401 		add	r1, r7, #20
 334 005c 0023     		movs	r3, #0
 335 005e 0022     		movs	r2, #0
 336 0060 FFF7FEFF 		bl	xQueueGenericSend
 337 0064 7862     		str	r0, [r7, #36]
 338 0066 08E0     		b	.L19
 339              	.L20:
 442:Generated_Source\PSoC6\pdl\rtos\FreeRTOS\9.0.0\Source/timers.c **** 			}
 443:Generated_Source\PSoC6\pdl\rtos\FreeRTOS\9.0.0\Source/timers.c **** 		}
 444:Generated_Source\PSoC6\pdl\rtos\FreeRTOS\9.0.0\Source/timers.c **** 		else
 445:Generated_Source\PSoC6\pdl\rtos\FreeRTOS\9.0.0\Source/timers.c **** 		{
 446:Generated_Source\PSoC6\pdl\rtos\FreeRTOS\9.0.0\Source/timers.c **** 			xReturn = xQueueSendToBackFromISR( xTimerQueue, &xMessage, pxHigherPriorityTaskWoken );
 340              		.loc 1 446 0
 341 0068 064B     		ldr	r3, .L25
 342 006a 1868     		ldr	r0, [r3]
 343 006c 07F11401 		add	r1, r7, #20
ARM GAS  C:\Users\ikomb\AppData\Local\Temp\ccS6Tztj.s 			page 15


 344 0070 0023     		movs	r3, #0
 345 0072 3A68     		ldr	r2, [r7]
 346 0074 FFF7FEFF 		bl	xQueueGenericSendFromISR
 347 0078 7862     		str	r0, [r7, #36]
 348              	.L19:
 447:Generated_Source\PSoC6\pdl\rtos\FreeRTOS\9.0.0\Source/timers.c **** 		}
 448:Generated_Source\PSoC6\pdl\rtos\FreeRTOS\9.0.0\Source/timers.c **** 
 449:Generated_Source\PSoC6\pdl\rtos\FreeRTOS\9.0.0\Source/timers.c **** 		traceTIMER_COMMAND_SEND( xTimer, xCommandID, xOptionalValue, xReturn );
 450:Generated_Source\PSoC6\pdl\rtos\FreeRTOS\9.0.0\Source/timers.c **** 	}
 451:Generated_Source\PSoC6\pdl\rtos\FreeRTOS\9.0.0\Source/timers.c **** 	else
 452:Generated_Source\PSoC6\pdl\rtos\FreeRTOS\9.0.0\Source/timers.c **** 	{
 453:Generated_Source\PSoC6\pdl\rtos\FreeRTOS\9.0.0\Source/timers.c **** 		mtCOVERAGE_TEST_MARKER();
 454:Generated_Source\PSoC6\pdl\rtos\FreeRTOS\9.0.0\Source/timers.c **** 	}
 455:Generated_Source\PSoC6\pdl\rtos\FreeRTOS\9.0.0\Source/timers.c **** 
 456:Generated_Source\PSoC6\pdl\rtos\FreeRTOS\9.0.0\Source/timers.c **** 	return xReturn;
 349              		.loc 1 456 0
 350 007a 7B6A     		ldr	r3, [r7, #36]
 457:Generated_Source\PSoC6\pdl\rtos\FreeRTOS\9.0.0\Source/timers.c **** }
 351              		.loc 1 457 0
 352 007c 1846     		mov	r0, r3
 353 007e 2837     		adds	r7, r7, #40
 354              		.cfi_def_cfa_offset 8
 355 0080 BD46     		mov	sp, r7
 356              		.cfi_def_cfa_register 13
 357              		@ sp needed
 358 0082 80BD     		pop	{r7, pc}
 359              	.L26:
 360              		.align	2
 361              	.L25:
 362 0084 30000000 		.word	xTimerQueue
 363              		.cfi_endproc
 364              	.LFE132:
 365              		.size	xTimerGenericCommand, .-xTimerGenericCommand
 366              		.section	.text.xTimerGetTimerDaemonTaskHandle,"ax",%progbits
 367              		.align	2
 368              		.global	xTimerGetTimerDaemonTaskHandle
 369              		.thumb
 370              		.thumb_func
 371              		.type	xTimerGetTimerDaemonTaskHandle, %function
 372              	xTimerGetTimerDaemonTaskHandle:
 373              	.LFB133:
 458:Generated_Source\PSoC6\pdl\rtos\FreeRTOS\9.0.0\Source/timers.c **** /*-----------------------------------------------------------*/
 459:Generated_Source\PSoC6\pdl\rtos\FreeRTOS\9.0.0\Source/timers.c **** 
 460:Generated_Source\PSoC6\pdl\rtos\FreeRTOS\9.0.0\Source/timers.c **** TaskHandle_t xTimerGetTimerDaemonTaskHandle( void )
 461:Generated_Source\PSoC6\pdl\rtos\FreeRTOS\9.0.0\Source/timers.c **** {
 374              		.loc 1 461 0
 375              		.cfi_startproc
 376              		@ args = 0, pretend = 0, frame = 0
 377              		@ frame_needed = 1, uses_anonymous_args = 0
 378              		@ link register save eliminated.
 379 0000 80B4     		push	{r7}
 380              		.cfi_def_cfa_offset 4
 381              		.cfi_offset 7, -4
 382 0002 00AF     		add	r7, sp, #0
 383              		.cfi_def_cfa_register 7
 462:Generated_Source\PSoC6\pdl\rtos\FreeRTOS\9.0.0\Source/timers.c **** 	/* If xTimerGetTimerDaemonTaskHandle() is called before the scheduler has been
 463:Generated_Source\PSoC6\pdl\rtos\FreeRTOS\9.0.0\Source/timers.c **** 	started, then xTimerTaskHandle will be NULL. */
ARM GAS  C:\Users\ikomb\AppData\Local\Temp\ccS6Tztj.s 			page 16


 464:Generated_Source\PSoC6\pdl\rtos\FreeRTOS\9.0.0\Source/timers.c **** 	configASSERT( ( xTimerTaskHandle != NULL ) );
 384              		.loc 1 464 0
 385 0004 064B     		ldr	r3, .L31
 386 0006 1B68     		ldr	r3, [r3]
 387 0008 002B     		cmp	r3, #0
 388 000a 01D1     		bne	.L28
 389              		.loc 1 464 0 is_stmt 0 discriminator 1
 390              		.syntax unified
 391              	@ 464 "Generated_Source\PSoC6\pdl\rtos\FreeRTOS\9.0.0\Source\timers.c" 1
 392 000c 72B6     		 cpsid i 
 393              	@ 0 "" 2
 394              		.thumb
 395              		.syntax unified
 396              	.L29:
 397 000e FEE7     		b	.L29
 398              	.L28:
 465:Generated_Source\PSoC6\pdl\rtos\FreeRTOS\9.0.0\Source/timers.c **** 	return xTimerTaskHandle;
 399              		.loc 1 465 0 is_stmt 1
 400 0010 034B     		ldr	r3, .L31
 401 0012 1B68     		ldr	r3, [r3]
 466:Generated_Source\PSoC6\pdl\rtos\FreeRTOS\9.0.0\Source/timers.c **** }
 402              		.loc 1 466 0
 403 0014 1846     		mov	r0, r3
 404 0016 BD46     		mov	sp, r7
 405              		.cfi_def_cfa_register 13
 406              		@ sp needed
 407 0018 5DF8047B 		ldr	r7, [sp], #4
 408              		.cfi_restore 7
 409              		.cfi_def_cfa_offset 0
 410 001c 7047     		bx	lr
 411              	.L32:
 412 001e 00BF     		.align	2
 413              	.L31:
 414 0020 34000000 		.word	xTimerTaskHandle
 415              		.cfi_endproc
 416              	.LFE133:
 417              		.size	xTimerGetTimerDaemonTaskHandle, .-xTimerGetTimerDaemonTaskHandle
 418              		.section	.text.xTimerGetPeriod,"ax",%progbits
 419              		.align	2
 420              		.global	xTimerGetPeriod
 421              		.thumb
 422              		.thumb_func
 423              		.type	xTimerGetPeriod, %function
 424              	xTimerGetPeriod:
 425              	.LFB134:
 467:Generated_Source\PSoC6\pdl\rtos\FreeRTOS\9.0.0\Source/timers.c **** /*-----------------------------------------------------------*/
 468:Generated_Source\PSoC6\pdl\rtos\FreeRTOS\9.0.0\Source/timers.c **** 
 469:Generated_Source\PSoC6\pdl\rtos\FreeRTOS\9.0.0\Source/timers.c **** TickType_t xTimerGetPeriod( TimerHandle_t xTimer )
 470:Generated_Source\PSoC6\pdl\rtos\FreeRTOS\9.0.0\Source/timers.c **** {
 426              		.loc 1 470 0
 427              		.cfi_startproc
 428              		@ args = 0, pretend = 0, frame = 16
 429              		@ frame_needed = 1, uses_anonymous_args = 0
 430              		@ link register save eliminated.
 431 0000 80B4     		push	{r7}
 432              		.cfi_def_cfa_offset 4
 433              		.cfi_offset 7, -4
ARM GAS  C:\Users\ikomb\AppData\Local\Temp\ccS6Tztj.s 			page 17


 434 0002 85B0     		sub	sp, sp, #20
 435              		.cfi_def_cfa_offset 24
 436 0004 00AF     		add	r7, sp, #0
 437              		.cfi_def_cfa_register 7
 438 0006 7860     		str	r0, [r7, #4]
 471:Generated_Source\PSoC6\pdl\rtos\FreeRTOS\9.0.0\Source/timers.c **** Timer_t *pxTimer = ( Timer_t * ) xTimer;
 439              		.loc 1 471 0
 440 0008 7B68     		ldr	r3, [r7, #4]
 441 000a FB60     		str	r3, [r7, #12]
 472:Generated_Source\PSoC6\pdl\rtos\FreeRTOS\9.0.0\Source/timers.c **** 
 473:Generated_Source\PSoC6\pdl\rtos\FreeRTOS\9.0.0\Source/timers.c **** 	configASSERT( xTimer );
 442              		.loc 1 473 0
 443 000c 7B68     		ldr	r3, [r7, #4]
 444 000e 002B     		cmp	r3, #0
 445 0010 01D1     		bne	.L34
 446              		.loc 1 473 0 is_stmt 0 discriminator 1
 447              		.syntax unified
 448              	@ 473 "Generated_Source\PSoC6\pdl\rtos\FreeRTOS\9.0.0\Source\timers.c" 1
 449 0012 72B6     		 cpsid i 
 450              	@ 0 "" 2
 451              		.thumb
 452              		.syntax unified
 453              	.L35:
 454 0014 FEE7     		b	.L35
 455              	.L34:
 474:Generated_Source\PSoC6\pdl\rtos\FreeRTOS\9.0.0\Source/timers.c **** 	return pxTimer->xTimerPeriodInTicks;
 456              		.loc 1 474 0 is_stmt 1
 457 0016 FB68     		ldr	r3, [r7, #12]
 458 0018 9B69     		ldr	r3, [r3, #24]
 475:Generated_Source\PSoC6\pdl\rtos\FreeRTOS\9.0.0\Source/timers.c **** }
 459              		.loc 1 475 0
 460 001a 1846     		mov	r0, r3
 461 001c 1437     		adds	r7, r7, #20
 462              		.cfi_def_cfa_offset 4
 463 001e BD46     		mov	sp, r7
 464              		.cfi_def_cfa_register 13
 465              		@ sp needed
 466 0020 5DF8047B 		ldr	r7, [sp], #4
 467              		.cfi_restore 7
 468              		.cfi_def_cfa_offset 0
 469 0024 7047     		bx	lr
 470              		.cfi_endproc
 471              	.LFE134:
 472              		.size	xTimerGetPeriod, .-xTimerGetPeriod
 473 0026 00BF     		.section	.text.xTimerGetExpiryTime,"ax",%progbits
 474              		.align	2
 475              		.global	xTimerGetExpiryTime
 476              		.thumb
 477              		.thumb_func
 478              		.type	xTimerGetExpiryTime, %function
 479              	xTimerGetExpiryTime:
 480              	.LFB135:
 476:Generated_Source\PSoC6\pdl\rtos\FreeRTOS\9.0.0\Source/timers.c **** /*-----------------------------------------------------------*/
 477:Generated_Source\PSoC6\pdl\rtos\FreeRTOS\9.0.0\Source/timers.c **** 
 478:Generated_Source\PSoC6\pdl\rtos\FreeRTOS\9.0.0\Source/timers.c **** TickType_t xTimerGetExpiryTime( TimerHandle_t xTimer )
 479:Generated_Source\PSoC6\pdl\rtos\FreeRTOS\9.0.0\Source/timers.c **** {
 481              		.loc 1 479 0
ARM GAS  C:\Users\ikomb\AppData\Local\Temp\ccS6Tztj.s 			page 18


 482              		.cfi_startproc
 483              		@ args = 0, pretend = 0, frame = 16
 484              		@ frame_needed = 1, uses_anonymous_args = 0
 485              		@ link register save eliminated.
 486 0000 80B4     		push	{r7}
 487              		.cfi_def_cfa_offset 4
 488              		.cfi_offset 7, -4
 489 0002 85B0     		sub	sp, sp, #20
 490              		.cfi_def_cfa_offset 24
 491 0004 00AF     		add	r7, sp, #0
 492              		.cfi_def_cfa_register 7
 493 0006 7860     		str	r0, [r7, #4]
 480:Generated_Source\PSoC6\pdl\rtos\FreeRTOS\9.0.0\Source/timers.c **** Timer_t * pxTimer = ( Timer_t * ) xTimer;
 494              		.loc 1 480 0
 495 0008 7B68     		ldr	r3, [r7, #4]
 496 000a FB60     		str	r3, [r7, #12]
 481:Generated_Source\PSoC6\pdl\rtos\FreeRTOS\9.0.0\Source/timers.c **** TickType_t xReturn;
 482:Generated_Source\PSoC6\pdl\rtos\FreeRTOS\9.0.0\Source/timers.c **** 
 483:Generated_Source\PSoC6\pdl\rtos\FreeRTOS\9.0.0\Source/timers.c **** 	configASSERT( xTimer );
 497              		.loc 1 483 0
 498 000c 7B68     		ldr	r3, [r7, #4]
 499 000e 002B     		cmp	r3, #0
 500 0010 01D1     		bne	.L38
 501              		.loc 1 483 0 is_stmt 0 discriminator 1
 502              		.syntax unified
 503              	@ 483 "Generated_Source\PSoC6\pdl\rtos\FreeRTOS\9.0.0\Source\timers.c" 1
 504 0012 72B6     		 cpsid i 
 505              	@ 0 "" 2
 506              		.thumb
 507              		.syntax unified
 508              	.L39:
 509 0014 FEE7     		b	.L39
 510              	.L38:
 484:Generated_Source\PSoC6\pdl\rtos\FreeRTOS\9.0.0\Source/timers.c **** 	xReturn = listGET_LIST_ITEM_VALUE( &( pxTimer->xTimerListItem ) );
 511              		.loc 1 484 0 is_stmt 1
 512 0016 FB68     		ldr	r3, [r7, #12]
 513 0018 5B68     		ldr	r3, [r3, #4]
 514 001a BB60     		str	r3, [r7, #8]
 485:Generated_Source\PSoC6\pdl\rtos\FreeRTOS\9.0.0\Source/timers.c **** 	return xReturn;
 515              		.loc 1 485 0
 516 001c BB68     		ldr	r3, [r7, #8]
 486:Generated_Source\PSoC6\pdl\rtos\FreeRTOS\9.0.0\Source/timers.c **** }
 517              		.loc 1 486 0
 518 001e 1846     		mov	r0, r3
 519 0020 1437     		adds	r7, r7, #20
 520              		.cfi_def_cfa_offset 4
 521 0022 BD46     		mov	sp, r7
 522              		.cfi_def_cfa_register 13
 523              		@ sp needed
 524 0024 5DF8047B 		ldr	r7, [sp], #4
 525              		.cfi_restore 7
 526              		.cfi_def_cfa_offset 0
 527 0028 7047     		bx	lr
 528              		.cfi_endproc
 529              	.LFE135:
 530              		.size	xTimerGetExpiryTime, .-xTimerGetExpiryTime
 531 002a 00BF     		.section	.text.pcTimerGetName,"ax",%progbits
ARM GAS  C:\Users\ikomb\AppData\Local\Temp\ccS6Tztj.s 			page 19


 532              		.align	2
 533              		.global	pcTimerGetName
 534              		.thumb
 535              		.thumb_func
 536              		.type	pcTimerGetName, %function
 537              	pcTimerGetName:
 538              	.LFB136:
 487:Generated_Source\PSoC6\pdl\rtos\FreeRTOS\9.0.0\Source/timers.c **** /*-----------------------------------------------------------*/
 488:Generated_Source\PSoC6\pdl\rtos\FreeRTOS\9.0.0\Source/timers.c **** 
 489:Generated_Source\PSoC6\pdl\rtos\FreeRTOS\9.0.0\Source/timers.c **** const char * pcTimerGetName( TimerHandle_t xTimer ) /*lint !e971 Unqualified char types are allowed
 490:Generated_Source\PSoC6\pdl\rtos\FreeRTOS\9.0.0\Source/timers.c **** {
 539              		.loc 1 490 0
 540              		.cfi_startproc
 541              		@ args = 0, pretend = 0, frame = 16
 542              		@ frame_needed = 1, uses_anonymous_args = 0
 543              		@ link register save eliminated.
 544 0000 80B4     		push	{r7}
 545              		.cfi_def_cfa_offset 4
 546              		.cfi_offset 7, -4
 547 0002 85B0     		sub	sp, sp, #20
 548              		.cfi_def_cfa_offset 24
 549 0004 00AF     		add	r7, sp, #0
 550              		.cfi_def_cfa_register 7
 551 0006 7860     		str	r0, [r7, #4]
 491:Generated_Source\PSoC6\pdl\rtos\FreeRTOS\9.0.0\Source/timers.c **** Timer_t *pxTimer = ( Timer_t * ) xTimer;
 552              		.loc 1 491 0
 553 0008 7B68     		ldr	r3, [r7, #4]
 554 000a FB60     		str	r3, [r7, #12]
 492:Generated_Source\PSoC6\pdl\rtos\FreeRTOS\9.0.0\Source/timers.c **** 
 493:Generated_Source\PSoC6\pdl\rtos\FreeRTOS\9.0.0\Source/timers.c **** 	configASSERT( xTimer );
 555              		.loc 1 493 0
 556 000c 7B68     		ldr	r3, [r7, #4]
 557 000e 002B     		cmp	r3, #0
 558 0010 01D1     		bne	.L42
 559              		.loc 1 493 0 is_stmt 0 discriminator 1
 560              		.syntax unified
 561              	@ 493 "Generated_Source\PSoC6\pdl\rtos\FreeRTOS\9.0.0\Source\timers.c" 1
 562 0012 72B6     		 cpsid i 
 563              	@ 0 "" 2
 564              		.thumb
 565              		.syntax unified
 566              	.L43:
 567 0014 FEE7     		b	.L43
 568              	.L42:
 494:Generated_Source\PSoC6\pdl\rtos\FreeRTOS\9.0.0\Source/timers.c **** 	return pxTimer->pcTimerName;
 569              		.loc 1 494 0 is_stmt 1
 570 0016 FB68     		ldr	r3, [r7, #12]
 571 0018 1B68     		ldr	r3, [r3]
 495:Generated_Source\PSoC6\pdl\rtos\FreeRTOS\9.0.0\Source/timers.c **** }
 572              		.loc 1 495 0
 573 001a 1846     		mov	r0, r3
 574 001c 1437     		adds	r7, r7, #20
 575              		.cfi_def_cfa_offset 4
 576 001e BD46     		mov	sp, r7
 577              		.cfi_def_cfa_register 13
 578              		@ sp needed
 579 0020 5DF8047B 		ldr	r7, [sp], #4
ARM GAS  C:\Users\ikomb\AppData\Local\Temp\ccS6Tztj.s 			page 20


 580              		.cfi_restore 7
 581              		.cfi_def_cfa_offset 0
 582 0024 7047     		bx	lr
 583              		.cfi_endproc
 584              	.LFE136:
 585              		.size	pcTimerGetName, .-pcTimerGetName
 586 0026 00BF     		.section	.text.prvProcessExpiredTimer,"ax",%progbits
 587              		.align	2
 588              		.thumb
 589              		.thumb_func
 590              		.type	prvProcessExpiredTimer, %function
 591              	prvProcessExpiredTimer:
 592              	.LFB137:
 496:Generated_Source\PSoC6\pdl\rtos\FreeRTOS\9.0.0\Source/timers.c **** /*-----------------------------------------------------------*/
 497:Generated_Source\PSoC6\pdl\rtos\FreeRTOS\9.0.0\Source/timers.c **** 
 498:Generated_Source\PSoC6\pdl\rtos\FreeRTOS\9.0.0\Source/timers.c **** static void prvProcessExpiredTimer( const TickType_t xNextExpireTime, const TickType_t xTimeNow )
 499:Generated_Source\PSoC6\pdl\rtos\FreeRTOS\9.0.0\Source/timers.c **** {
 593              		.loc 1 499 0
 594              		.cfi_startproc
 595              		@ args = 0, pretend = 0, frame = 16
 596              		@ frame_needed = 1, uses_anonymous_args = 0
 597 0000 80B5     		push	{r7, lr}
 598              		.cfi_def_cfa_offset 8
 599              		.cfi_offset 7, -8
 600              		.cfi_offset 14, -4
 601 0002 86B0     		sub	sp, sp, #24
 602              		.cfi_def_cfa_offset 32
 603 0004 02AF     		add	r7, sp, #8
 604              		.cfi_def_cfa 7, 24
 605 0006 7860     		str	r0, [r7, #4]
 606 0008 3960     		str	r1, [r7]
 500:Generated_Source\PSoC6\pdl\rtos\FreeRTOS\9.0.0\Source/timers.c **** BaseType_t xResult;
 501:Generated_Source\PSoC6\pdl\rtos\FreeRTOS\9.0.0\Source/timers.c **** Timer_t * const pxTimer = ( Timer_t * ) listGET_OWNER_OF_HEAD_ENTRY( pxCurrentTimerList );
 607              		.loc 1 501 0
 608 000a 184B     		ldr	r3, .L48
 609 000c 1B68     		ldr	r3, [r3]
 610 000e DB68     		ldr	r3, [r3, #12]
 611 0010 DB68     		ldr	r3, [r3, #12]
 612 0012 FB60     		str	r3, [r7, #12]
 502:Generated_Source\PSoC6\pdl\rtos\FreeRTOS\9.0.0\Source/timers.c **** 
 503:Generated_Source\PSoC6\pdl\rtos\FreeRTOS\9.0.0\Source/timers.c **** 	/* Remove the timer from the list of active timers.  A check has already
 504:Generated_Source\PSoC6\pdl\rtos\FreeRTOS\9.0.0\Source/timers.c **** 	been performed to ensure the list is not empty. */
 505:Generated_Source\PSoC6\pdl\rtos\FreeRTOS\9.0.0\Source/timers.c **** 	( void ) uxListRemove( &( pxTimer->xTimerListItem ) );
 613              		.loc 1 505 0
 614 0014 FB68     		ldr	r3, [r7, #12]
 615 0016 0433     		adds	r3, r3, #4
 616 0018 1846     		mov	r0, r3
 617 001a FFF7FEFF 		bl	uxListRemove
 506:Generated_Source\PSoC6\pdl\rtos\FreeRTOS\9.0.0\Source/timers.c **** 	traceTIMER_EXPIRED( pxTimer );
 507:Generated_Source\PSoC6\pdl\rtos\FreeRTOS\9.0.0\Source/timers.c **** 
 508:Generated_Source\PSoC6\pdl\rtos\FreeRTOS\9.0.0\Source/timers.c **** 	/* If the timer is an auto reload timer then calculate the next
 509:Generated_Source\PSoC6\pdl\rtos\FreeRTOS\9.0.0\Source/timers.c **** 	expiry time and re-insert the timer in the list of active timers. */
 510:Generated_Source\PSoC6\pdl\rtos\FreeRTOS\9.0.0\Source/timers.c **** 	if( pxTimer->uxAutoReload == ( UBaseType_t ) pdTRUE )
 618              		.loc 1 510 0
 619 001e FB68     		ldr	r3, [r7, #12]
 620 0020 DB69     		ldr	r3, [r3, #28]
 621 0022 012B     		cmp	r3, #1
ARM GAS  C:\Users\ikomb\AppData\Local\Temp\ccS6Tztj.s 			page 21


 622 0024 19D1     		bne	.L46
 511:Generated_Source\PSoC6\pdl\rtos\FreeRTOS\9.0.0\Source/timers.c **** 	{
 512:Generated_Source\PSoC6\pdl\rtos\FreeRTOS\9.0.0\Source/timers.c **** 		/* The timer is inserted into a list using a time relative to anything
 513:Generated_Source\PSoC6\pdl\rtos\FreeRTOS\9.0.0\Source/timers.c **** 		other than the current time.  It will therefore be inserted into the
 514:Generated_Source\PSoC6\pdl\rtos\FreeRTOS\9.0.0\Source/timers.c **** 		correct list relative to the time this task thinks it is now. */
 515:Generated_Source\PSoC6\pdl\rtos\FreeRTOS\9.0.0\Source/timers.c **** 		if( prvInsertTimerInActiveList( pxTimer, ( xNextExpireTime + pxTimer->xTimerPeriodInTicks ), xTim
 623              		.loc 1 515 0
 624 0026 FB68     		ldr	r3, [r7, #12]
 625 0028 9A69     		ldr	r2, [r3, #24]
 626 002a 7B68     		ldr	r3, [r7, #4]
 627 002c D118     		adds	r1, r2, r3
 628 002e 7B68     		ldr	r3, [r7, #4]
 629 0030 3A68     		ldr	r2, [r7]
 630 0032 F868     		ldr	r0, [r7, #12]
 631 0034 FFF7FEFF 		bl	prvInsertTimerInActiveList
 632 0038 0346     		mov	r3, r0
 633 003a 002B     		cmp	r3, #0
 634 003c 0DD0     		beq	.L46
 516:Generated_Source\PSoC6\pdl\rtos\FreeRTOS\9.0.0\Source/timers.c **** 		{
 517:Generated_Source\PSoC6\pdl\rtos\FreeRTOS\9.0.0\Source/timers.c **** 			/* The timer expired before it was added to the active timer
 518:Generated_Source\PSoC6\pdl\rtos\FreeRTOS\9.0.0\Source/timers.c **** 			list.  Reload it now.  */
 519:Generated_Source\PSoC6\pdl\rtos\FreeRTOS\9.0.0\Source/timers.c **** 			xResult = xTimerGenericCommand( pxTimer, tmrCOMMAND_START_DONT_TRACE, xNextExpireTime, NULL, tmr
 635              		.loc 1 519 0
 636 003e 0023     		movs	r3, #0
 637 0040 0093     		str	r3, [sp]
 638 0042 0023     		movs	r3, #0
 639 0044 7A68     		ldr	r2, [r7, #4]
 640 0046 0021     		movs	r1, #0
 641 0048 F868     		ldr	r0, [r7, #12]
 642 004a FFF7FEFF 		bl	xTimerGenericCommand
 643 004e B860     		str	r0, [r7, #8]
 520:Generated_Source\PSoC6\pdl\rtos\FreeRTOS\9.0.0\Source/timers.c **** 			configASSERT( xResult );
 644              		.loc 1 520 0
 645 0050 BB68     		ldr	r3, [r7, #8]
 646 0052 002B     		cmp	r3, #0
 647 0054 01D1     		bne	.L46
 648              		.loc 1 520 0 is_stmt 0 discriminator 1
 649              		.syntax unified
 650              	@ 520 "Generated_Source\PSoC6\pdl\rtos\FreeRTOS\9.0.0\Source\timers.c" 1
 651 0056 72B6     		 cpsid i 
 652              	@ 0 "" 2
 653              		.thumb
 654              		.syntax unified
 655              	.L47:
 656 0058 FEE7     		b	.L47
 657              	.L46:
 521:Generated_Source\PSoC6\pdl\rtos\FreeRTOS\9.0.0\Source/timers.c **** 			( void ) xResult;
 522:Generated_Source\PSoC6\pdl\rtos\FreeRTOS\9.0.0\Source/timers.c **** 		}
 523:Generated_Source\PSoC6\pdl\rtos\FreeRTOS\9.0.0\Source/timers.c **** 		else
 524:Generated_Source\PSoC6\pdl\rtos\FreeRTOS\9.0.0\Source/timers.c **** 		{
 525:Generated_Source\PSoC6\pdl\rtos\FreeRTOS\9.0.0\Source/timers.c **** 			mtCOVERAGE_TEST_MARKER();
 526:Generated_Source\PSoC6\pdl\rtos\FreeRTOS\9.0.0\Source/timers.c **** 		}
 527:Generated_Source\PSoC6\pdl\rtos\FreeRTOS\9.0.0\Source/timers.c **** 	}
 528:Generated_Source\PSoC6\pdl\rtos\FreeRTOS\9.0.0\Source/timers.c **** 	else
 529:Generated_Source\PSoC6\pdl\rtos\FreeRTOS\9.0.0\Source/timers.c **** 	{
 530:Generated_Source\PSoC6\pdl\rtos\FreeRTOS\9.0.0\Source/timers.c **** 		mtCOVERAGE_TEST_MARKER();
 531:Generated_Source\PSoC6\pdl\rtos\FreeRTOS\9.0.0\Source/timers.c **** 	}
ARM GAS  C:\Users\ikomb\AppData\Local\Temp\ccS6Tztj.s 			page 22


 532:Generated_Source\PSoC6\pdl\rtos\FreeRTOS\9.0.0\Source/timers.c **** 
 533:Generated_Source\PSoC6\pdl\rtos\FreeRTOS\9.0.0\Source/timers.c **** 	/* Call the timer callback. */
 534:Generated_Source\PSoC6\pdl\rtos\FreeRTOS\9.0.0\Source/timers.c **** 	pxTimer->pxCallbackFunction( ( TimerHandle_t ) pxTimer );
 658              		.loc 1 534 0 is_stmt 1
 659 005a FB68     		ldr	r3, [r7, #12]
 660 005c 5B6A     		ldr	r3, [r3, #36]
 661 005e F868     		ldr	r0, [r7, #12]
 662 0060 9847     		blx	r3
 535:Generated_Source\PSoC6\pdl\rtos\FreeRTOS\9.0.0\Source/timers.c **** }
 663              		.loc 1 535 0
 664 0062 00BF     		nop
 665 0064 1037     		adds	r7, r7, #16
 666              		.cfi_def_cfa_offset 8
 667 0066 BD46     		mov	sp, r7
 668              		.cfi_def_cfa_register 13
 669              		@ sp needed
 670 0068 80BD     		pop	{r7, pc}
 671              	.L49:
 672 006a 00BF     		.align	2
 673              	.L48:
 674 006c 28000000 		.word	pxCurrentTimerList
 675              		.cfi_endproc
 676              	.LFE137:
 677              		.size	prvProcessExpiredTimer, .-prvProcessExpiredTimer
 678              		.section	.text.prvTimerTask,"ax",%progbits
 679              		.align	2
 680              		.thumb
 681              		.thumb_func
 682              		.type	prvTimerTask, %function
 683              	prvTimerTask:
 684              	.LFB138:
 536:Generated_Source\PSoC6\pdl\rtos\FreeRTOS\9.0.0\Source/timers.c **** /*-----------------------------------------------------------*/
 537:Generated_Source\PSoC6\pdl\rtos\FreeRTOS\9.0.0\Source/timers.c **** 
 538:Generated_Source\PSoC6\pdl\rtos\FreeRTOS\9.0.0\Source/timers.c **** static void prvTimerTask( void *pvParameters )
 539:Generated_Source\PSoC6\pdl\rtos\FreeRTOS\9.0.0\Source/timers.c **** {
 685              		.loc 1 539 0
 686              		.cfi_startproc
 687              		@ args = 0, pretend = 0, frame = 16
 688              		@ frame_needed = 1, uses_anonymous_args = 0
 689 0000 80B5     		push	{r7, lr}
 690              		.cfi_def_cfa_offset 8
 691              		.cfi_offset 7, -8
 692              		.cfi_offset 14, -4
 693 0002 84B0     		sub	sp, sp, #16
 694              		.cfi_def_cfa_offset 24
 695 0004 00AF     		add	r7, sp, #0
 696              		.cfi_def_cfa_register 7
 697 0006 7860     		str	r0, [r7, #4]
 698              	.L51:
 540:Generated_Source\PSoC6\pdl\rtos\FreeRTOS\9.0.0\Source/timers.c **** TickType_t xNextExpireTime;
 541:Generated_Source\PSoC6\pdl\rtos\FreeRTOS\9.0.0\Source/timers.c **** BaseType_t xListWasEmpty;
 542:Generated_Source\PSoC6\pdl\rtos\FreeRTOS\9.0.0\Source/timers.c **** 
 543:Generated_Source\PSoC6\pdl\rtos\FreeRTOS\9.0.0\Source/timers.c **** 	/* Just to avoid compiler warnings. */
 544:Generated_Source\PSoC6\pdl\rtos\FreeRTOS\9.0.0\Source/timers.c **** 	( void ) pvParameters;
 545:Generated_Source\PSoC6\pdl\rtos\FreeRTOS\9.0.0\Source/timers.c **** 
 546:Generated_Source\PSoC6\pdl\rtos\FreeRTOS\9.0.0\Source/timers.c **** 	#if( configUSE_DAEMON_TASK_STARTUP_HOOK == 1 )
 547:Generated_Source\PSoC6\pdl\rtos\FreeRTOS\9.0.0\Source/timers.c **** 	{
ARM GAS  C:\Users\ikomb\AppData\Local\Temp\ccS6Tztj.s 			page 23


 548:Generated_Source\PSoC6\pdl\rtos\FreeRTOS\9.0.0\Source/timers.c **** 		extern void vApplicationDaemonTaskStartupHook( void );
 549:Generated_Source\PSoC6\pdl\rtos\FreeRTOS\9.0.0\Source/timers.c **** 
 550:Generated_Source\PSoC6\pdl\rtos\FreeRTOS\9.0.0\Source/timers.c **** 		/* Allow the application writer to execute some code in the context of
 551:Generated_Source\PSoC6\pdl\rtos\FreeRTOS\9.0.0\Source/timers.c **** 		this task at the point the task starts executing.  This is useful if the
 552:Generated_Source\PSoC6\pdl\rtos\FreeRTOS\9.0.0\Source/timers.c **** 		application includes initialisation code that would benefit from
 553:Generated_Source\PSoC6\pdl\rtos\FreeRTOS\9.0.0\Source/timers.c **** 		executing after the scheduler has been started. */
 554:Generated_Source\PSoC6\pdl\rtos\FreeRTOS\9.0.0\Source/timers.c **** 		vApplicationDaemonTaskStartupHook();
 555:Generated_Source\PSoC6\pdl\rtos\FreeRTOS\9.0.0\Source/timers.c **** 	}
 556:Generated_Source\PSoC6\pdl\rtos\FreeRTOS\9.0.0\Source/timers.c **** 	#endif /* configUSE_DAEMON_TASK_STARTUP_HOOK */
 557:Generated_Source\PSoC6\pdl\rtos\FreeRTOS\9.0.0\Source/timers.c **** 
 558:Generated_Source\PSoC6\pdl\rtos\FreeRTOS\9.0.0\Source/timers.c **** 	for( ;; )
 559:Generated_Source\PSoC6\pdl\rtos\FreeRTOS\9.0.0\Source/timers.c **** 	{
 560:Generated_Source\PSoC6\pdl\rtos\FreeRTOS\9.0.0\Source/timers.c **** 		/* Query the timers list to see if it contains any timers, and if so,
 561:Generated_Source\PSoC6\pdl\rtos\FreeRTOS\9.0.0\Source/timers.c **** 		obtain the time at which the next timer will expire. */
 562:Generated_Source\PSoC6\pdl\rtos\FreeRTOS\9.0.0\Source/timers.c **** 		xNextExpireTime = prvGetNextExpireTime( &xListWasEmpty );
 699              		.loc 1 562 0 discriminator 1
 700 0008 07F10803 		add	r3, r7, #8
 701 000c 1846     		mov	r0, r3
 702 000e FFF7FEFF 		bl	prvGetNextExpireTime
 703 0012 F860     		str	r0, [r7, #12]
 563:Generated_Source\PSoC6\pdl\rtos\FreeRTOS\9.0.0\Source/timers.c **** 
 564:Generated_Source\PSoC6\pdl\rtos\FreeRTOS\9.0.0\Source/timers.c **** 		/* If a timer has expired, process it.  Otherwise, block this task
 565:Generated_Source\PSoC6\pdl\rtos\FreeRTOS\9.0.0\Source/timers.c **** 		until either a timer does expire, or a command is received. */
 566:Generated_Source\PSoC6\pdl\rtos\FreeRTOS\9.0.0\Source/timers.c **** 		prvProcessTimerOrBlockTask( xNextExpireTime, xListWasEmpty );
 704              		.loc 1 566 0 discriminator 1
 705 0014 BB68     		ldr	r3, [r7, #8]
 706 0016 1946     		mov	r1, r3
 707 0018 F868     		ldr	r0, [r7, #12]
 708 001a FFF7FEFF 		bl	prvProcessTimerOrBlockTask
 567:Generated_Source\PSoC6\pdl\rtos\FreeRTOS\9.0.0\Source/timers.c **** 
 568:Generated_Source\PSoC6\pdl\rtos\FreeRTOS\9.0.0\Source/timers.c **** 		/* Empty the command queue. */
 569:Generated_Source\PSoC6\pdl\rtos\FreeRTOS\9.0.0\Source/timers.c **** 		prvProcessReceivedCommands();
 709              		.loc 1 569 0 discriminator 1
 710 001e FFF7FEFF 		bl	prvProcessReceivedCommands
 570:Generated_Source\PSoC6\pdl\rtos\FreeRTOS\9.0.0\Source/timers.c **** 	}
 711              		.loc 1 570 0 discriminator 1
 712 0022 F1E7     		b	.L51
 713              		.cfi_endproc
 714              	.LFE138:
 715              		.size	prvTimerTask, .-prvTimerTask
 716              		.section	.text.prvProcessTimerOrBlockTask,"ax",%progbits
 717              		.align	2
 718              		.thumb
 719              		.thumb_func
 720              		.type	prvProcessTimerOrBlockTask, %function
 721              	prvProcessTimerOrBlockTask:
 722              	.LFB139:
 571:Generated_Source\PSoC6\pdl\rtos\FreeRTOS\9.0.0\Source/timers.c **** }
 572:Generated_Source\PSoC6\pdl\rtos\FreeRTOS\9.0.0\Source/timers.c **** /*-----------------------------------------------------------*/
 573:Generated_Source\PSoC6\pdl\rtos\FreeRTOS\9.0.0\Source/timers.c **** 
 574:Generated_Source\PSoC6\pdl\rtos\FreeRTOS\9.0.0\Source/timers.c **** static void prvProcessTimerOrBlockTask( const TickType_t xNextExpireTime, BaseType_t xListWasEmpty 
 575:Generated_Source\PSoC6\pdl\rtos\FreeRTOS\9.0.0\Source/timers.c **** {
 723              		.loc 1 575 0
 724              		.cfi_startproc
 725              		@ args = 0, pretend = 0, frame = 16
 726              		@ frame_needed = 1, uses_anonymous_args = 0
 727 0000 80B5     		push	{r7, lr}
ARM GAS  C:\Users\ikomb\AppData\Local\Temp\ccS6Tztj.s 			page 24


 728              		.cfi_def_cfa_offset 8
 729              		.cfi_offset 7, -8
 730              		.cfi_offset 14, -4
 731 0002 84B0     		sub	sp, sp, #16
 732              		.cfi_def_cfa_offset 24
 733 0004 00AF     		add	r7, sp, #0
 734              		.cfi_def_cfa_register 7
 735 0006 7860     		str	r0, [r7, #4]
 736 0008 3960     		str	r1, [r7]
 576:Generated_Source\PSoC6\pdl\rtos\FreeRTOS\9.0.0\Source/timers.c **** TickType_t xTimeNow;
 577:Generated_Source\PSoC6\pdl\rtos\FreeRTOS\9.0.0\Source/timers.c **** BaseType_t xTimerListsWereSwitched;
 578:Generated_Source\PSoC6\pdl\rtos\FreeRTOS\9.0.0\Source/timers.c **** 
 579:Generated_Source\PSoC6\pdl\rtos\FreeRTOS\9.0.0\Source/timers.c **** 	vTaskSuspendAll();
 737              		.loc 1 579 0
 738 000a FFF7FEFF 		bl	vTaskSuspendAll
 580:Generated_Source\PSoC6\pdl\rtos\FreeRTOS\9.0.0\Source/timers.c **** 	{
 581:Generated_Source\PSoC6\pdl\rtos\FreeRTOS\9.0.0\Source/timers.c **** 		/* Obtain the time now to make an assessment as to whether the timer
 582:Generated_Source\PSoC6\pdl\rtos\FreeRTOS\9.0.0\Source/timers.c **** 		has expired or not.  If obtaining the time causes the lists to switch
 583:Generated_Source\PSoC6\pdl\rtos\FreeRTOS\9.0.0\Source/timers.c **** 		then don't process this timer as any timers that remained in the list
 584:Generated_Source\PSoC6\pdl\rtos\FreeRTOS\9.0.0\Source/timers.c **** 		when the lists were switched will have been processed within the
 585:Generated_Source\PSoC6\pdl\rtos\FreeRTOS\9.0.0\Source/timers.c **** 		prvSampleTimeNow() function. */
 586:Generated_Source\PSoC6\pdl\rtos\FreeRTOS\9.0.0\Source/timers.c **** 		xTimeNow = prvSampleTimeNow( &xTimerListsWereSwitched );
 739              		.loc 1 586 0
 740 000e 07F10803 		add	r3, r7, #8
 741 0012 1846     		mov	r0, r3
 742 0014 FFF7FEFF 		bl	prvSampleTimeNow
 743 0018 F860     		str	r0, [r7, #12]
 587:Generated_Source\PSoC6\pdl\rtos\FreeRTOS\9.0.0\Source/timers.c **** 		if( xTimerListsWereSwitched == pdFALSE )
 744              		.loc 1 587 0
 745 001a BB68     		ldr	r3, [r7, #8]
 746 001c 002B     		cmp	r3, #0
 747 001e 30D1     		bne	.L53
 588:Generated_Source\PSoC6\pdl\rtos\FreeRTOS\9.0.0\Source/timers.c **** 		{
 589:Generated_Source\PSoC6\pdl\rtos\FreeRTOS\9.0.0\Source/timers.c **** 			/* The tick count has not overflowed, has the timer expired? */
 590:Generated_Source\PSoC6\pdl\rtos\FreeRTOS\9.0.0\Source/timers.c **** 			if( ( xListWasEmpty == pdFALSE ) && ( xNextExpireTime <= xTimeNow ) )
 748              		.loc 1 590 0
 749 0020 3B68     		ldr	r3, [r7]
 750 0022 002B     		cmp	r3, #0
 751 0024 0AD1     		bne	.L54
 752              		.loc 1 590 0 is_stmt 0 discriminator 1
 753 0026 7A68     		ldr	r2, [r7, #4]
 754 0028 FB68     		ldr	r3, [r7, #12]
 755 002a 9A42     		cmp	r2, r3
 756 002c 06D8     		bhi	.L54
 591:Generated_Source\PSoC6\pdl\rtos\FreeRTOS\9.0.0\Source/timers.c **** 			{
 592:Generated_Source\PSoC6\pdl\rtos\FreeRTOS\9.0.0\Source/timers.c **** 				( void ) xTaskResumeAll();
 757              		.loc 1 592 0 is_stmt 1
 758 002e FFF7FEFF 		bl	xTaskResumeAll
 593:Generated_Source\PSoC6\pdl\rtos\FreeRTOS\9.0.0\Source/timers.c **** 				prvProcessExpiredTimer( xNextExpireTime, xTimeNow );
 759              		.loc 1 593 0
 760 0032 F968     		ldr	r1, [r7, #12]
 761 0034 7868     		ldr	r0, [r7, #4]
 762 0036 FFF7FEFF 		bl	prvProcessExpiredTimer
 594:Generated_Source\PSoC6\pdl\rtos\FreeRTOS\9.0.0\Source/timers.c **** 			}
 595:Generated_Source\PSoC6\pdl\rtos\FreeRTOS\9.0.0\Source/timers.c **** 			else
 596:Generated_Source\PSoC6\pdl\rtos\FreeRTOS\9.0.0\Source/timers.c **** 			{
 597:Generated_Source\PSoC6\pdl\rtos\FreeRTOS\9.0.0\Source/timers.c **** 				/* The tick count has not overflowed, and the next expire
ARM GAS  C:\Users\ikomb\AppData\Local\Temp\ccS6Tztj.s 			page 25


 598:Generated_Source\PSoC6\pdl\rtos\FreeRTOS\9.0.0\Source/timers.c **** 				time has not been reached yet.  This task should therefore
 599:Generated_Source\PSoC6\pdl\rtos\FreeRTOS\9.0.0\Source/timers.c **** 				block to wait for the next expire time or a command to be
 600:Generated_Source\PSoC6\pdl\rtos\FreeRTOS\9.0.0\Source/timers.c **** 				received - whichever comes first.  The following line cannot
 601:Generated_Source\PSoC6\pdl\rtos\FreeRTOS\9.0.0\Source/timers.c **** 				be reached unless xNextExpireTime > xTimeNow, except in the
 602:Generated_Source\PSoC6\pdl\rtos\FreeRTOS\9.0.0\Source/timers.c **** 				case when the current timer list is empty. */
 603:Generated_Source\PSoC6\pdl\rtos\FreeRTOS\9.0.0\Source/timers.c **** 				if( xListWasEmpty != pdFALSE )
 604:Generated_Source\PSoC6\pdl\rtos\FreeRTOS\9.0.0\Source/timers.c **** 				{
 605:Generated_Source\PSoC6\pdl\rtos\FreeRTOS\9.0.0\Source/timers.c **** 					/* The current timer list is empty - is the overflow list
 606:Generated_Source\PSoC6\pdl\rtos\FreeRTOS\9.0.0\Source/timers.c **** 					also empty? */
 607:Generated_Source\PSoC6\pdl\rtos\FreeRTOS\9.0.0\Source/timers.c **** 					xListWasEmpty = listLIST_IS_EMPTY( pxOverflowTimerList );
 608:Generated_Source\PSoC6\pdl\rtos\FreeRTOS\9.0.0\Source/timers.c **** 				}
 609:Generated_Source\PSoC6\pdl\rtos\FreeRTOS\9.0.0\Source/timers.c **** 
 610:Generated_Source\PSoC6\pdl\rtos\FreeRTOS\9.0.0\Source/timers.c **** 				vQueueWaitForMessageRestricted( xTimerQueue, ( xNextExpireTime - xTimeNow ), xListWasEmpty );
 611:Generated_Source\PSoC6\pdl\rtos\FreeRTOS\9.0.0\Source/timers.c **** 
 612:Generated_Source\PSoC6\pdl\rtos\FreeRTOS\9.0.0\Source/timers.c **** 				if( xTaskResumeAll() == pdFALSE )
 613:Generated_Source\PSoC6\pdl\rtos\FreeRTOS\9.0.0\Source/timers.c **** 				{
 614:Generated_Source\PSoC6\pdl\rtos\FreeRTOS\9.0.0\Source/timers.c **** 					/* Yield to wait for either a command to arrive, or the
 615:Generated_Source\PSoC6\pdl\rtos\FreeRTOS\9.0.0\Source/timers.c **** 					block time to expire.  If a command arrived between the
 616:Generated_Source\PSoC6\pdl\rtos\FreeRTOS\9.0.0\Source/timers.c **** 					critical section being exited and this yield then the yield
 617:Generated_Source\PSoC6\pdl\rtos\FreeRTOS\9.0.0\Source/timers.c **** 					will not cause the task to block. */
 618:Generated_Source\PSoC6\pdl\rtos\FreeRTOS\9.0.0\Source/timers.c **** 					portYIELD_WITHIN_API();
 619:Generated_Source\PSoC6\pdl\rtos\FreeRTOS\9.0.0\Source/timers.c **** 				}
 620:Generated_Source\PSoC6\pdl\rtos\FreeRTOS\9.0.0\Source/timers.c **** 				else
 621:Generated_Source\PSoC6\pdl\rtos\FreeRTOS\9.0.0\Source/timers.c **** 				{
 622:Generated_Source\PSoC6\pdl\rtos\FreeRTOS\9.0.0\Source/timers.c **** 					mtCOVERAGE_TEST_MARKER();
 623:Generated_Source\PSoC6\pdl\rtos\FreeRTOS\9.0.0\Source/timers.c **** 				}
 624:Generated_Source\PSoC6\pdl\rtos\FreeRTOS\9.0.0\Source/timers.c **** 			}
 625:Generated_Source\PSoC6\pdl\rtos\FreeRTOS\9.0.0\Source/timers.c **** 		}
 626:Generated_Source\PSoC6\pdl\rtos\FreeRTOS\9.0.0\Source/timers.c **** 		else
 627:Generated_Source\PSoC6\pdl\rtos\FreeRTOS\9.0.0\Source/timers.c **** 		{
 628:Generated_Source\PSoC6\pdl\rtos\FreeRTOS\9.0.0\Source/timers.c **** 			( void ) xTaskResumeAll();
 629:Generated_Source\PSoC6\pdl\rtos\FreeRTOS\9.0.0\Source/timers.c **** 		}
 630:Generated_Source\PSoC6\pdl\rtos\FreeRTOS\9.0.0\Source/timers.c **** 	}
 631:Generated_Source\PSoC6\pdl\rtos\FreeRTOS\9.0.0\Source/timers.c **** }
 763              		.loc 1 631 0
 764 003a 24E0     		b	.L58
 765              	.L54:
 603:Generated_Source\PSoC6\pdl\rtos\FreeRTOS\9.0.0\Source/timers.c **** 				{
 766              		.loc 1 603 0
 767 003c 3B68     		ldr	r3, [r7]
 768 003e 002B     		cmp	r3, #0
 769 0040 08D0     		beq	.L56
 607:Generated_Source\PSoC6\pdl\rtos\FreeRTOS\9.0.0\Source/timers.c **** 				}
 770              		.loc 1 607 0
 771 0042 134B     		ldr	r3, .L59
 772 0044 1B68     		ldr	r3, [r3]
 773 0046 1B68     		ldr	r3, [r3]
 774 0048 002B     		cmp	r3, #0
 775 004a 0CBF     		ite	eq
 776 004c 0123     		moveq	r3, #1
 777 004e 0023     		movne	r3, #0
 778 0050 DBB2     		uxtb	r3, r3
 779 0052 3B60     		str	r3, [r7]
 780              	.L56:
 610:Generated_Source\PSoC6\pdl\rtos\FreeRTOS\9.0.0\Source/timers.c **** 
 781              		.loc 1 610 0
 782 0054 0F4B     		ldr	r3, .L59+4
ARM GAS  C:\Users\ikomb\AppData\Local\Temp\ccS6Tztj.s 			page 26


 783 0056 1868     		ldr	r0, [r3]
 784 0058 7A68     		ldr	r2, [r7, #4]
 785 005a FB68     		ldr	r3, [r7, #12]
 786 005c D31A     		subs	r3, r2, r3
 787 005e 3A68     		ldr	r2, [r7]
 788 0060 1946     		mov	r1, r3
 789 0062 FFF7FEFF 		bl	vQueueWaitForMessageRestricted
 612:Generated_Source\PSoC6\pdl\rtos\FreeRTOS\9.0.0\Source/timers.c **** 				{
 790              		.loc 1 612 0
 791 0066 FFF7FEFF 		bl	xTaskResumeAll
 792 006a 0346     		mov	r3, r0
 793 006c 002B     		cmp	r3, #0
 794 006e 0AD1     		bne	.L58
 618:Generated_Source\PSoC6\pdl\rtos\FreeRTOS\9.0.0\Source/timers.c **** 				}
 795              		.loc 1 618 0
 796 0070 094B     		ldr	r3, .L59+8
 797 0072 4FF08052 		mov	r2, #268435456
 798 0076 1A60     		str	r2, [r3]
 799              		.syntax unified
 800              	@ 618 "Generated_Source\PSoC6\pdl\rtos\FreeRTOS\9.0.0\Source\timers.c" 1
 801 0078 BFF34F8F 		dsb
 802              	@ 0 "" 2
 803              	@ 618 "Generated_Source\PSoC6\pdl\rtos\FreeRTOS\9.0.0\Source\timers.c" 1
 804 007c BFF36F8F 		isb
 805              	@ 0 "" 2
 806              		.loc 1 631 0
 807              		.thumb
 808              		.syntax unified
 809 0080 01E0     		b	.L58
 810              	.L53:
 628:Generated_Source\PSoC6\pdl\rtos\FreeRTOS\9.0.0\Source/timers.c **** 		}
 811              		.loc 1 628 0
 812 0082 FFF7FEFF 		bl	xTaskResumeAll
 813              	.L58:
 814              		.loc 1 631 0
 815 0086 00BF     		nop
 816 0088 1037     		adds	r7, r7, #16
 817              		.cfi_def_cfa_offset 8
 818 008a BD46     		mov	sp, r7
 819              		.cfi_def_cfa_register 13
 820              		@ sp needed
 821 008c 80BD     		pop	{r7, pc}
 822              	.L60:
 823 008e 00BF     		.align	2
 824              	.L59:
 825 0090 2C000000 		.word	pxOverflowTimerList
 826 0094 30000000 		.word	xTimerQueue
 827 0098 04ED00E0 		.word	-536810236
 828              		.cfi_endproc
 829              	.LFE139:
 830              		.size	prvProcessTimerOrBlockTask, .-prvProcessTimerOrBlockTask
 831              		.section	.text.prvGetNextExpireTime,"ax",%progbits
 832              		.align	2
 833              		.thumb
 834              		.thumb_func
 835              		.type	prvGetNextExpireTime, %function
 836              	prvGetNextExpireTime:
ARM GAS  C:\Users\ikomb\AppData\Local\Temp\ccS6Tztj.s 			page 27


 837              	.LFB140:
 632:Generated_Source\PSoC6\pdl\rtos\FreeRTOS\9.0.0\Source/timers.c **** /*-----------------------------------------------------------*/
 633:Generated_Source\PSoC6\pdl\rtos\FreeRTOS\9.0.0\Source/timers.c **** 
 634:Generated_Source\PSoC6\pdl\rtos\FreeRTOS\9.0.0\Source/timers.c **** static TickType_t prvGetNextExpireTime( BaseType_t * const pxListWasEmpty )
 635:Generated_Source\PSoC6\pdl\rtos\FreeRTOS\9.0.0\Source/timers.c **** {
 838              		.loc 1 635 0
 839              		.cfi_startproc
 840              		@ args = 0, pretend = 0, frame = 16
 841              		@ frame_needed = 1, uses_anonymous_args = 0
 842              		@ link register save eliminated.
 843 0000 80B4     		push	{r7}
 844              		.cfi_def_cfa_offset 4
 845              		.cfi_offset 7, -4
 846 0002 85B0     		sub	sp, sp, #20
 847              		.cfi_def_cfa_offset 24
 848 0004 00AF     		add	r7, sp, #0
 849              		.cfi_def_cfa_register 7
 850 0006 7860     		str	r0, [r7, #4]
 636:Generated_Source\PSoC6\pdl\rtos\FreeRTOS\9.0.0\Source/timers.c **** TickType_t xNextExpireTime;
 637:Generated_Source\PSoC6\pdl\rtos\FreeRTOS\9.0.0\Source/timers.c **** 
 638:Generated_Source\PSoC6\pdl\rtos\FreeRTOS\9.0.0\Source/timers.c **** 	/* Timers are listed in expiry time order, with the head of the list
 639:Generated_Source\PSoC6\pdl\rtos\FreeRTOS\9.0.0\Source/timers.c **** 	referencing the task that will expire first.  Obtain the time at which
 640:Generated_Source\PSoC6\pdl\rtos\FreeRTOS\9.0.0\Source/timers.c **** 	the timer with the nearest expiry time will expire.  If there are no
 641:Generated_Source\PSoC6\pdl\rtos\FreeRTOS\9.0.0\Source/timers.c **** 	active timers then just set the next expire time to 0.  That will cause
 642:Generated_Source\PSoC6\pdl\rtos\FreeRTOS\9.0.0\Source/timers.c **** 	this task to unblock when the tick count overflows, at which point the
 643:Generated_Source\PSoC6\pdl\rtos\FreeRTOS\9.0.0\Source/timers.c **** 	timer lists will be switched and the next expiry time can be
 644:Generated_Source\PSoC6\pdl\rtos\FreeRTOS\9.0.0\Source/timers.c **** 	re-assessed.  */
 645:Generated_Source\PSoC6\pdl\rtos\FreeRTOS\9.0.0\Source/timers.c **** 	*pxListWasEmpty = listLIST_IS_EMPTY( pxCurrentTimerList );
 851              		.loc 1 645 0
 852 0008 0E4B     		ldr	r3, .L65
 853 000a 1B68     		ldr	r3, [r3]
 854 000c 1B68     		ldr	r3, [r3]
 855 000e 002B     		cmp	r3, #0
 856 0010 0CBF     		ite	eq
 857 0012 0123     		moveq	r3, #1
 858 0014 0023     		movne	r3, #0
 859 0016 DBB2     		uxtb	r3, r3
 860 0018 1A46     		mov	r2, r3
 861 001a 7B68     		ldr	r3, [r7, #4]
 862 001c 1A60     		str	r2, [r3]
 646:Generated_Source\PSoC6\pdl\rtos\FreeRTOS\9.0.0\Source/timers.c **** 	if( *pxListWasEmpty == pdFALSE )
 863              		.loc 1 646 0
 864 001e 7B68     		ldr	r3, [r7, #4]
 865 0020 1B68     		ldr	r3, [r3]
 866 0022 002B     		cmp	r3, #0
 867 0024 05D1     		bne	.L62
 647:Generated_Source\PSoC6\pdl\rtos\FreeRTOS\9.0.0\Source/timers.c **** 	{
 648:Generated_Source\PSoC6\pdl\rtos\FreeRTOS\9.0.0\Source/timers.c **** 		xNextExpireTime = listGET_ITEM_VALUE_OF_HEAD_ENTRY( pxCurrentTimerList );
 868              		.loc 1 648 0
 869 0026 074B     		ldr	r3, .L65
 870 0028 1B68     		ldr	r3, [r3]
 871 002a DB68     		ldr	r3, [r3, #12]
 872 002c 1B68     		ldr	r3, [r3]
 873 002e FB60     		str	r3, [r7, #12]
 874 0030 01E0     		b	.L63
 875              	.L62:
 649:Generated_Source\PSoC6\pdl\rtos\FreeRTOS\9.0.0\Source/timers.c **** 	}
ARM GAS  C:\Users\ikomb\AppData\Local\Temp\ccS6Tztj.s 			page 28


 650:Generated_Source\PSoC6\pdl\rtos\FreeRTOS\9.0.0\Source/timers.c **** 	else
 651:Generated_Source\PSoC6\pdl\rtos\FreeRTOS\9.0.0\Source/timers.c **** 	{
 652:Generated_Source\PSoC6\pdl\rtos\FreeRTOS\9.0.0\Source/timers.c **** 		/* Ensure the task unblocks when the tick count rolls over. */
 653:Generated_Source\PSoC6\pdl\rtos\FreeRTOS\9.0.0\Source/timers.c **** 		xNextExpireTime = ( TickType_t ) 0U;
 876              		.loc 1 653 0
 877 0032 0023     		movs	r3, #0
 878 0034 FB60     		str	r3, [r7, #12]
 879              	.L63:
 654:Generated_Source\PSoC6\pdl\rtos\FreeRTOS\9.0.0\Source/timers.c **** 	}
 655:Generated_Source\PSoC6\pdl\rtos\FreeRTOS\9.0.0\Source/timers.c **** 
 656:Generated_Source\PSoC6\pdl\rtos\FreeRTOS\9.0.0\Source/timers.c **** 	return xNextExpireTime;
 880              		.loc 1 656 0
 881 0036 FB68     		ldr	r3, [r7, #12]
 657:Generated_Source\PSoC6\pdl\rtos\FreeRTOS\9.0.0\Source/timers.c **** }
 882              		.loc 1 657 0
 883 0038 1846     		mov	r0, r3
 884 003a 1437     		adds	r7, r7, #20
 885              		.cfi_def_cfa_offset 4
 886 003c BD46     		mov	sp, r7
 887              		.cfi_def_cfa_register 13
 888              		@ sp needed
 889 003e 5DF8047B 		ldr	r7, [sp], #4
 890              		.cfi_restore 7
 891              		.cfi_def_cfa_offset 0
 892 0042 7047     		bx	lr
 893              	.L66:
 894              		.align	2
 895              	.L65:
 896 0044 28000000 		.word	pxCurrentTimerList
 897              		.cfi_endproc
 898              	.LFE140:
 899              		.size	prvGetNextExpireTime, .-prvGetNextExpireTime
 900              		.section	.text.prvSampleTimeNow,"ax",%progbits
 901              		.align	2
 902              		.thumb
 903              		.thumb_func
 904              		.type	prvSampleTimeNow, %function
 905              	prvSampleTimeNow:
 906              	.LFB141:
 658:Generated_Source\PSoC6\pdl\rtos\FreeRTOS\9.0.0\Source/timers.c **** /*-----------------------------------------------------------*/
 659:Generated_Source\PSoC6\pdl\rtos\FreeRTOS\9.0.0\Source/timers.c **** 
 660:Generated_Source\PSoC6\pdl\rtos\FreeRTOS\9.0.0\Source/timers.c **** static TickType_t prvSampleTimeNow( BaseType_t * const pxTimerListsWereSwitched )
 661:Generated_Source\PSoC6\pdl\rtos\FreeRTOS\9.0.0\Source/timers.c **** {
 907              		.loc 1 661 0
 908              		.cfi_startproc
 909              		@ args = 0, pretend = 0, frame = 16
 910              		@ frame_needed = 1, uses_anonymous_args = 0
 911 0000 80B5     		push	{r7, lr}
 912              		.cfi_def_cfa_offset 8
 913              		.cfi_offset 7, -8
 914              		.cfi_offset 14, -4
 915 0002 84B0     		sub	sp, sp, #16
 916              		.cfi_def_cfa_offset 24
 917 0004 00AF     		add	r7, sp, #0
 918              		.cfi_def_cfa_register 7
 919 0006 7860     		str	r0, [r7, #4]
 662:Generated_Source\PSoC6\pdl\rtos\FreeRTOS\9.0.0\Source/timers.c **** TickType_t xTimeNow;
ARM GAS  C:\Users\ikomb\AppData\Local\Temp\ccS6Tztj.s 			page 29


 663:Generated_Source\PSoC6\pdl\rtos\FreeRTOS\9.0.0\Source/timers.c **** PRIVILEGED_DATA static TickType_t xLastTime = ( TickType_t ) 0U; /*lint !e956 Variable is only acce
 664:Generated_Source\PSoC6\pdl\rtos\FreeRTOS\9.0.0\Source/timers.c **** 
 665:Generated_Source\PSoC6\pdl\rtos\FreeRTOS\9.0.0\Source/timers.c **** 	xTimeNow = xTaskGetTickCount();
 920              		.loc 1 665 0
 921 0008 FFF7FEFF 		bl	xTaskGetTickCount
 922 000c F860     		str	r0, [r7, #12]
 666:Generated_Source\PSoC6\pdl\rtos\FreeRTOS\9.0.0\Source/timers.c **** 
 667:Generated_Source\PSoC6\pdl\rtos\FreeRTOS\9.0.0\Source/timers.c **** 	if( xTimeNow < xLastTime )
 923              		.loc 1 667 0
 924 000e 0B4B     		ldr	r3, .L71
 925 0010 1B68     		ldr	r3, [r3]
 926 0012 FA68     		ldr	r2, [r7, #12]
 927 0014 9A42     		cmp	r2, r3
 928 0016 05D2     		bcs	.L68
 668:Generated_Source\PSoC6\pdl\rtos\FreeRTOS\9.0.0\Source/timers.c **** 	{
 669:Generated_Source\PSoC6\pdl\rtos\FreeRTOS\9.0.0\Source/timers.c **** 		prvSwitchTimerLists();
 929              		.loc 1 669 0
 930 0018 FFF7FEFF 		bl	prvSwitchTimerLists
 670:Generated_Source\PSoC6\pdl\rtos\FreeRTOS\9.0.0\Source/timers.c **** 		*pxTimerListsWereSwitched = pdTRUE;
 931              		.loc 1 670 0
 932 001c 7B68     		ldr	r3, [r7, #4]
 933 001e 0122     		movs	r2, #1
 934 0020 1A60     		str	r2, [r3]
 935 0022 02E0     		b	.L69
 936              	.L68:
 671:Generated_Source\PSoC6\pdl\rtos\FreeRTOS\9.0.0\Source/timers.c **** 	}
 672:Generated_Source\PSoC6\pdl\rtos\FreeRTOS\9.0.0\Source/timers.c **** 	else
 673:Generated_Source\PSoC6\pdl\rtos\FreeRTOS\9.0.0\Source/timers.c **** 	{
 674:Generated_Source\PSoC6\pdl\rtos\FreeRTOS\9.0.0\Source/timers.c **** 		*pxTimerListsWereSwitched = pdFALSE;
 937              		.loc 1 674 0
 938 0024 7B68     		ldr	r3, [r7, #4]
 939 0026 0022     		movs	r2, #0
 940 0028 1A60     		str	r2, [r3]
 941              	.L69:
 675:Generated_Source\PSoC6\pdl\rtos\FreeRTOS\9.0.0\Source/timers.c **** 	}
 676:Generated_Source\PSoC6\pdl\rtos\FreeRTOS\9.0.0\Source/timers.c **** 
 677:Generated_Source\PSoC6\pdl\rtos\FreeRTOS\9.0.0\Source/timers.c **** 	xLastTime = xTimeNow;
 942              		.loc 1 677 0
 943 002a 044A     		ldr	r2, .L71
 944 002c FB68     		ldr	r3, [r7, #12]
 945 002e 1360     		str	r3, [r2]
 678:Generated_Source\PSoC6\pdl\rtos\FreeRTOS\9.0.0\Source/timers.c **** 
 679:Generated_Source\PSoC6\pdl\rtos\FreeRTOS\9.0.0\Source/timers.c **** 	return xTimeNow;
 946              		.loc 1 679 0
 947 0030 FB68     		ldr	r3, [r7, #12]
 680:Generated_Source\PSoC6\pdl\rtos\FreeRTOS\9.0.0\Source/timers.c **** }
 948              		.loc 1 680 0
 949 0032 1846     		mov	r0, r3
 950 0034 1037     		adds	r7, r7, #16
 951              		.cfi_def_cfa_offset 8
 952 0036 BD46     		mov	sp, r7
 953              		.cfi_def_cfa_register 13
 954              		@ sp needed
 955 0038 80BD     		pop	{r7, pc}
 956              	.L72:
 957 003a 00BF     		.align	2
 958              	.L71:
ARM GAS  C:\Users\ikomb\AppData\Local\Temp\ccS6Tztj.s 			page 30


 959 003c 38000000 		.word	xLastTime.10903
 960              		.cfi_endproc
 961              	.LFE141:
 962              		.size	prvSampleTimeNow, .-prvSampleTimeNow
 963              		.section	.text.prvInsertTimerInActiveList,"ax",%progbits
 964              		.align	2
 965              		.thumb
 966              		.thumb_func
 967              		.type	prvInsertTimerInActiveList, %function
 968              	prvInsertTimerInActiveList:
 969              	.LFB142:
 681:Generated_Source\PSoC6\pdl\rtos\FreeRTOS\9.0.0\Source/timers.c **** /*-----------------------------------------------------------*/
 682:Generated_Source\PSoC6\pdl\rtos\FreeRTOS\9.0.0\Source/timers.c **** 
 683:Generated_Source\PSoC6\pdl\rtos\FreeRTOS\9.0.0\Source/timers.c **** static BaseType_t prvInsertTimerInActiveList( Timer_t * const pxTimer, const TickType_t xNextExpiry
 684:Generated_Source\PSoC6\pdl\rtos\FreeRTOS\9.0.0\Source/timers.c **** {
 970              		.loc 1 684 0
 971              		.cfi_startproc
 972              		@ args = 0, pretend = 0, frame = 24
 973              		@ frame_needed = 1, uses_anonymous_args = 0
 974 0000 80B5     		push	{r7, lr}
 975              		.cfi_def_cfa_offset 8
 976              		.cfi_offset 7, -8
 977              		.cfi_offset 14, -4
 978 0002 86B0     		sub	sp, sp, #24
 979              		.cfi_def_cfa_offset 32
 980 0004 00AF     		add	r7, sp, #0
 981              		.cfi_def_cfa_register 7
 982 0006 F860     		str	r0, [r7, #12]
 983 0008 B960     		str	r1, [r7, #8]
 984 000a 7A60     		str	r2, [r7, #4]
 985 000c 3B60     		str	r3, [r7]
 685:Generated_Source\PSoC6\pdl\rtos\FreeRTOS\9.0.0\Source/timers.c **** BaseType_t xProcessTimerNow = pdFALSE;
 986              		.loc 1 685 0
 987 000e 0023     		movs	r3, #0
 988 0010 7B61     		str	r3, [r7, #20]
 686:Generated_Source\PSoC6\pdl\rtos\FreeRTOS\9.0.0\Source/timers.c **** 
 687:Generated_Source\PSoC6\pdl\rtos\FreeRTOS\9.0.0\Source/timers.c **** 	listSET_LIST_ITEM_VALUE( &( pxTimer->xTimerListItem ), xNextExpiryTime );
 989              		.loc 1 687 0
 990 0012 FB68     		ldr	r3, [r7, #12]
 991 0014 BA68     		ldr	r2, [r7, #8]
 992 0016 5A60     		str	r2, [r3, #4]
 688:Generated_Source\PSoC6\pdl\rtos\FreeRTOS\9.0.0\Source/timers.c **** 	listSET_LIST_ITEM_OWNER( &( pxTimer->xTimerListItem ), pxTimer );
 993              		.loc 1 688 0
 994 0018 FB68     		ldr	r3, [r7, #12]
 995 001a FA68     		ldr	r2, [r7, #12]
 996 001c 1A61     		str	r2, [r3, #16]
 689:Generated_Source\PSoC6\pdl\rtos\FreeRTOS\9.0.0\Source/timers.c **** 
 690:Generated_Source\PSoC6\pdl\rtos\FreeRTOS\9.0.0\Source/timers.c **** 	if( xNextExpiryTime <= xTimeNow )
 997              		.loc 1 690 0
 998 001e BA68     		ldr	r2, [r7, #8]
 999 0020 7B68     		ldr	r3, [r7, #4]
 1000 0022 9A42     		cmp	r2, r3
 1001 0024 12D8     		bhi	.L74
 691:Generated_Source\PSoC6\pdl\rtos\FreeRTOS\9.0.0\Source/timers.c **** 	{
 692:Generated_Source\PSoC6\pdl\rtos\FreeRTOS\9.0.0\Source/timers.c **** 		/* Has the expiry time elapsed between the command to start/reset a
 693:Generated_Source\PSoC6\pdl\rtos\FreeRTOS\9.0.0\Source/timers.c **** 		timer was issued, and the time the command was processed? */
 694:Generated_Source\PSoC6\pdl\rtos\FreeRTOS\9.0.0\Source/timers.c **** 		if( ( ( TickType_t ) ( xTimeNow - xCommandTime ) ) >= pxTimer->xTimerPeriodInTicks ) /*lint !e961
ARM GAS  C:\Users\ikomb\AppData\Local\Temp\ccS6Tztj.s 			page 31


 1002              		.loc 1 694 0
 1003 0026 7A68     		ldr	r2, [r7, #4]
 1004 0028 3B68     		ldr	r3, [r7]
 1005 002a D21A     		subs	r2, r2, r3
 1006 002c FB68     		ldr	r3, [r7, #12]
 1007 002e 9B69     		ldr	r3, [r3, #24]
 1008 0030 9A42     		cmp	r2, r3
 1009 0032 02D3     		bcc	.L75
 695:Generated_Source\PSoC6\pdl\rtos\FreeRTOS\9.0.0\Source/timers.c **** 		{
 696:Generated_Source\PSoC6\pdl\rtos\FreeRTOS\9.0.0\Source/timers.c **** 			/* The time between a command being issued and the command being
 697:Generated_Source\PSoC6\pdl\rtos\FreeRTOS\9.0.0\Source/timers.c **** 			processed actually exceeds the timers period.  */
 698:Generated_Source\PSoC6\pdl\rtos\FreeRTOS\9.0.0\Source/timers.c **** 			xProcessTimerNow = pdTRUE;
 1010              		.loc 1 698 0
 1011 0034 0123     		movs	r3, #1
 1012 0036 7B61     		str	r3, [r7, #20]
 1013 0038 1BE0     		b	.L77
 1014              	.L75:
 699:Generated_Source\PSoC6\pdl\rtos\FreeRTOS\9.0.0\Source/timers.c **** 		}
 700:Generated_Source\PSoC6\pdl\rtos\FreeRTOS\9.0.0\Source/timers.c **** 		else
 701:Generated_Source\PSoC6\pdl\rtos\FreeRTOS\9.0.0\Source/timers.c **** 		{
 702:Generated_Source\PSoC6\pdl\rtos\FreeRTOS\9.0.0\Source/timers.c **** 			vListInsert( pxOverflowTimerList, &( pxTimer->xTimerListItem ) );
 1015              		.loc 1 702 0
 1016 003a 104B     		ldr	r3, .L80
 1017 003c 1A68     		ldr	r2, [r3]
 1018 003e FB68     		ldr	r3, [r7, #12]
 1019 0040 0433     		adds	r3, r3, #4
 1020 0042 1946     		mov	r1, r3
 1021 0044 1046     		mov	r0, r2
 1022 0046 FFF7FEFF 		bl	vListInsert
 1023 004a 12E0     		b	.L77
 1024              	.L74:
 703:Generated_Source\PSoC6\pdl\rtos\FreeRTOS\9.0.0\Source/timers.c **** 		}
 704:Generated_Source\PSoC6\pdl\rtos\FreeRTOS\9.0.0\Source/timers.c **** 	}
 705:Generated_Source\PSoC6\pdl\rtos\FreeRTOS\9.0.0\Source/timers.c **** 	else
 706:Generated_Source\PSoC6\pdl\rtos\FreeRTOS\9.0.0\Source/timers.c **** 	{
 707:Generated_Source\PSoC6\pdl\rtos\FreeRTOS\9.0.0\Source/timers.c **** 		if( ( xTimeNow < xCommandTime ) && ( xNextExpiryTime >= xCommandTime ) )
 1025              		.loc 1 707 0
 1026 004c 7A68     		ldr	r2, [r7, #4]
 1027 004e 3B68     		ldr	r3, [r7]
 1028 0050 9A42     		cmp	r2, r3
 1029 0052 06D2     		bcs	.L78
 1030              		.loc 1 707 0 is_stmt 0 discriminator 1
 1031 0054 BA68     		ldr	r2, [r7, #8]
 1032 0056 3B68     		ldr	r3, [r7]
 1033 0058 9A42     		cmp	r2, r3
 1034 005a 02D3     		bcc	.L78
 708:Generated_Source\PSoC6\pdl\rtos\FreeRTOS\9.0.0\Source/timers.c **** 		{
 709:Generated_Source\PSoC6\pdl\rtos\FreeRTOS\9.0.0\Source/timers.c **** 			/* If, since the command was issued, the tick count has overflowed
 710:Generated_Source\PSoC6\pdl\rtos\FreeRTOS\9.0.0\Source/timers.c **** 			but the expiry time has not, then the timer must have already passed
 711:Generated_Source\PSoC6\pdl\rtos\FreeRTOS\9.0.0\Source/timers.c **** 			its expiry time and should be processed immediately. */
 712:Generated_Source\PSoC6\pdl\rtos\FreeRTOS\9.0.0\Source/timers.c **** 			xProcessTimerNow = pdTRUE;
 1035              		.loc 1 712 0 is_stmt 1
 1036 005c 0123     		movs	r3, #1
 1037 005e 7B61     		str	r3, [r7, #20]
 1038 0060 07E0     		b	.L77
 1039              	.L78:
 713:Generated_Source\PSoC6\pdl\rtos\FreeRTOS\9.0.0\Source/timers.c **** 		}
ARM GAS  C:\Users\ikomb\AppData\Local\Temp\ccS6Tztj.s 			page 32


 714:Generated_Source\PSoC6\pdl\rtos\FreeRTOS\9.0.0\Source/timers.c **** 		else
 715:Generated_Source\PSoC6\pdl\rtos\FreeRTOS\9.0.0\Source/timers.c **** 		{
 716:Generated_Source\PSoC6\pdl\rtos\FreeRTOS\9.0.0\Source/timers.c **** 			vListInsert( pxCurrentTimerList, &( pxTimer->xTimerListItem ) );
 1040              		.loc 1 716 0
 1041 0062 074B     		ldr	r3, .L80+4
 1042 0064 1A68     		ldr	r2, [r3]
 1043 0066 FB68     		ldr	r3, [r7, #12]
 1044 0068 0433     		adds	r3, r3, #4
 1045 006a 1946     		mov	r1, r3
 1046 006c 1046     		mov	r0, r2
 1047 006e FFF7FEFF 		bl	vListInsert
 1048              	.L77:
 717:Generated_Source\PSoC6\pdl\rtos\FreeRTOS\9.0.0\Source/timers.c **** 		}
 718:Generated_Source\PSoC6\pdl\rtos\FreeRTOS\9.0.0\Source/timers.c **** 	}
 719:Generated_Source\PSoC6\pdl\rtos\FreeRTOS\9.0.0\Source/timers.c **** 
 720:Generated_Source\PSoC6\pdl\rtos\FreeRTOS\9.0.0\Source/timers.c **** 	return xProcessTimerNow;
 1049              		.loc 1 720 0
 1050 0072 7B69     		ldr	r3, [r7, #20]
 721:Generated_Source\PSoC6\pdl\rtos\FreeRTOS\9.0.0\Source/timers.c **** }
 1051              		.loc 1 721 0
 1052 0074 1846     		mov	r0, r3
 1053 0076 1837     		adds	r7, r7, #24
 1054              		.cfi_def_cfa_offset 8
 1055 0078 BD46     		mov	sp, r7
 1056              		.cfi_def_cfa_register 13
 1057              		@ sp needed
 1058 007a 80BD     		pop	{r7, pc}
 1059              	.L81:
 1060              		.align	2
 1061              	.L80:
 1062 007c 2C000000 		.word	pxOverflowTimerList
 1063 0080 28000000 		.word	pxCurrentTimerList
 1064              		.cfi_endproc
 1065              	.LFE142:
 1066              		.size	prvInsertTimerInActiveList, .-prvInsertTimerInActiveList
 1067              		.section	.text.prvProcessReceivedCommands,"ax",%progbits
 1068              		.align	2
 1069              		.thumb
 1070              		.thumb_func
 1071              		.type	prvProcessReceivedCommands, %function
 1072              	prvProcessReceivedCommands:
 1073              	.LFB143:
 722:Generated_Source\PSoC6\pdl\rtos\FreeRTOS\9.0.0\Source/timers.c **** /*-----------------------------------------------------------*/
 723:Generated_Source\PSoC6\pdl\rtos\FreeRTOS\9.0.0\Source/timers.c **** 
 724:Generated_Source\PSoC6\pdl\rtos\FreeRTOS\9.0.0\Source/timers.c **** static void	prvProcessReceivedCommands( void )
 725:Generated_Source\PSoC6\pdl\rtos\FreeRTOS\9.0.0\Source/timers.c **** {
 1074              		.loc 1 725 0
 1075              		.cfi_startproc
 1076              		@ args = 0, pretend = 0, frame = 40
 1077              		@ frame_needed = 1, uses_anonymous_args = 0
 1078 0000 80B5     		push	{r7, lr}
 1079              		.cfi_def_cfa_offset 8
 1080              		.cfi_offset 7, -8
 1081              		.cfi_offset 14, -4
 1082 0002 8CB0     		sub	sp, sp, #48
 1083              		.cfi_def_cfa_offset 56
 1084 0004 02AF     		add	r7, sp, #8
ARM GAS  C:\Users\ikomb\AppData\Local\Temp\ccS6Tztj.s 			page 33


 1085              		.cfi_def_cfa 7, 48
 726:Generated_Source\PSoC6\pdl\rtos\FreeRTOS\9.0.0\Source/timers.c **** DaemonTaskMessage_t xMessage;
 727:Generated_Source\PSoC6\pdl\rtos\FreeRTOS\9.0.0\Source/timers.c **** Timer_t *pxTimer;
 728:Generated_Source\PSoC6\pdl\rtos\FreeRTOS\9.0.0\Source/timers.c **** BaseType_t xTimerListsWereSwitched, xResult;
 729:Generated_Source\PSoC6\pdl\rtos\FreeRTOS\9.0.0\Source/timers.c **** TickType_t xTimeNow;
 730:Generated_Source\PSoC6\pdl\rtos\FreeRTOS\9.0.0\Source/timers.c **** 
 731:Generated_Source\PSoC6\pdl\rtos\FreeRTOS\9.0.0\Source/timers.c **** 	while( xQueueReceive( xTimerQueue, &xMessage, tmrNO_DELAY ) != pdFAIL ) /*lint !e603 xMessage does
 1086              		.loc 1 731 0
 1087 0006 7EE0     		b	.L83
 1088              	.L98:
 732:Generated_Source\PSoC6\pdl\rtos\FreeRTOS\9.0.0\Source/timers.c **** 	{
 733:Generated_Source\PSoC6\pdl\rtos\FreeRTOS\9.0.0\Source/timers.c **** 		#if ( INCLUDE_xTimerPendFunctionCall == 1 )
 734:Generated_Source\PSoC6\pdl\rtos\FreeRTOS\9.0.0\Source/timers.c **** 		{
 735:Generated_Source\PSoC6\pdl\rtos\FreeRTOS\9.0.0\Source/timers.c **** 			/* Negative commands are pended function calls rather than timer
 736:Generated_Source\PSoC6\pdl\rtos\FreeRTOS\9.0.0\Source/timers.c **** 			commands. */
 737:Generated_Source\PSoC6\pdl\rtos\FreeRTOS\9.0.0\Source/timers.c **** 			if( xMessage.xMessageID < ( BaseType_t ) 0 )
 1089              		.loc 1 737 0
 1090 0008 BB68     		ldr	r3, [r7, #8]
 1091 000a 002B     		cmp	r3, #0
 1092 000c 10DA     		bge	.L84
 1093              	.LBB2:
 738:Generated_Source\PSoC6\pdl\rtos\FreeRTOS\9.0.0\Source/timers.c **** 			{
 739:Generated_Source\PSoC6\pdl\rtos\FreeRTOS\9.0.0\Source/timers.c **** 				const CallbackParameters_t * const pxCallback = &( xMessage.u.xCallbackParameters );
 1094              		.loc 1 739 0
 1095 000e 07F10803 		add	r3, r7, #8
 1096 0012 0433     		adds	r3, r3, #4
 1097 0014 7B62     		str	r3, [r7, #36]
 740:Generated_Source\PSoC6\pdl\rtos\FreeRTOS\9.0.0\Source/timers.c **** 
 741:Generated_Source\PSoC6\pdl\rtos\FreeRTOS\9.0.0\Source/timers.c **** 				/* The timer uses the xCallbackParameters member to request a
 742:Generated_Source\PSoC6\pdl\rtos\FreeRTOS\9.0.0\Source/timers.c **** 				callback be executed.  Check the callback is not NULL. */
 743:Generated_Source\PSoC6\pdl\rtos\FreeRTOS\9.0.0\Source/timers.c **** 				configASSERT( pxCallback );
 1098              		.loc 1 743 0
 1099 0016 7B6A     		ldr	r3, [r7, #36]
 1100 0018 002B     		cmp	r3, #0
 1101 001a 01D1     		bne	.L85
 1102              		.loc 1 743 0 is_stmt 0 discriminator 1
 1103              		.syntax unified
 1104              	@ 743 "Generated_Source\PSoC6\pdl\rtos\FreeRTOS\9.0.0\Source\timers.c" 1
 1105 001c 72B6     		 cpsid i 
 1106              	@ 0 "" 2
 1107              		.thumb
 1108              		.syntax unified
 1109              	.L86:
 1110 001e FEE7     		b	.L86
 1111              	.L85:
 744:Generated_Source\PSoC6\pdl\rtos\FreeRTOS\9.0.0\Source/timers.c **** 
 745:Generated_Source\PSoC6\pdl\rtos\FreeRTOS\9.0.0\Source/timers.c **** 				/* Call the function. */
 746:Generated_Source\PSoC6\pdl\rtos\FreeRTOS\9.0.0\Source/timers.c **** 				pxCallback->pxCallbackFunction( pxCallback->pvParameter1, pxCallback->ulParameter2 );
 1112              		.loc 1 746 0 is_stmt 1
 1113 0020 7B6A     		ldr	r3, [r7, #36]
 1114 0022 1B68     		ldr	r3, [r3]
 1115 0024 7A6A     		ldr	r2, [r7, #36]
 1116 0026 5068     		ldr	r0, [r2, #4]
 1117 0028 7A6A     		ldr	r2, [r7, #36]
 1118 002a 9268     		ldr	r2, [r2, #8]
 1119 002c 1146     		mov	r1, r2
 1120 002e 9847     		blx	r3
ARM GAS  C:\Users\ikomb\AppData\Local\Temp\ccS6Tztj.s 			page 34


 1121              	.L84:
 1122              	.LBE2:
 747:Generated_Source\PSoC6\pdl\rtos\FreeRTOS\9.0.0\Source/timers.c **** 			}
 748:Generated_Source\PSoC6\pdl\rtos\FreeRTOS\9.0.0\Source/timers.c **** 			else
 749:Generated_Source\PSoC6\pdl\rtos\FreeRTOS\9.0.0\Source/timers.c **** 			{
 750:Generated_Source\PSoC6\pdl\rtos\FreeRTOS\9.0.0\Source/timers.c **** 				mtCOVERAGE_TEST_MARKER();
 751:Generated_Source\PSoC6\pdl\rtos\FreeRTOS\9.0.0\Source/timers.c **** 			}
 752:Generated_Source\PSoC6\pdl\rtos\FreeRTOS\9.0.0\Source/timers.c **** 		}
 753:Generated_Source\PSoC6\pdl\rtos\FreeRTOS\9.0.0\Source/timers.c **** 		#endif /* INCLUDE_xTimerPendFunctionCall */
 754:Generated_Source\PSoC6\pdl\rtos\FreeRTOS\9.0.0\Source/timers.c **** 
 755:Generated_Source\PSoC6\pdl\rtos\FreeRTOS\9.0.0\Source/timers.c **** 		/* Commands that are positive are timer commands rather than pended
 756:Generated_Source\PSoC6\pdl\rtos\FreeRTOS\9.0.0\Source/timers.c **** 		function calls. */
 757:Generated_Source\PSoC6\pdl\rtos\FreeRTOS\9.0.0\Source/timers.c **** 		if( xMessage.xMessageID >= ( BaseType_t ) 0 )
 1123              		.loc 1 757 0
 1124 0030 BB68     		ldr	r3, [r7, #8]
 1125 0032 002B     		cmp	r3, #0
 1126 0034 67DB     		blt	.L83
 758:Generated_Source\PSoC6\pdl\rtos\FreeRTOS\9.0.0\Source/timers.c **** 		{
 759:Generated_Source\PSoC6\pdl\rtos\FreeRTOS\9.0.0\Source/timers.c **** 			/* The messages uses the xTimerParameters member to work on a
 760:Generated_Source\PSoC6\pdl\rtos\FreeRTOS\9.0.0\Source/timers.c **** 			software timer. */
 761:Generated_Source\PSoC6\pdl\rtos\FreeRTOS\9.0.0\Source/timers.c **** 			pxTimer = xMessage.u.xTimerParameters.pxTimer;
 1127              		.loc 1 761 0
 1128 0036 3B69     		ldr	r3, [r7, #16]
 1129 0038 3B62     		str	r3, [r7, #32]
 762:Generated_Source\PSoC6\pdl\rtos\FreeRTOS\9.0.0\Source/timers.c **** 
 763:Generated_Source\PSoC6\pdl\rtos\FreeRTOS\9.0.0\Source/timers.c **** 			if( listIS_CONTAINED_WITHIN( NULL, &( pxTimer->xTimerListItem ) ) == pdFALSE )
 1130              		.loc 1 763 0
 1131 003a 3B6A     		ldr	r3, [r7, #32]
 1132 003c 5B69     		ldr	r3, [r3, #20]
 1133 003e 002B     		cmp	r3, #0
 1134 0040 04D0     		beq	.L87
 764:Generated_Source\PSoC6\pdl\rtos\FreeRTOS\9.0.0\Source/timers.c **** 			{
 765:Generated_Source\PSoC6\pdl\rtos\FreeRTOS\9.0.0\Source/timers.c **** 				/* The timer is in a list, remove it. */
 766:Generated_Source\PSoC6\pdl\rtos\FreeRTOS\9.0.0\Source/timers.c **** 				( void ) uxListRemove( &( pxTimer->xTimerListItem ) );
 1135              		.loc 1 766 0
 1136 0042 3B6A     		ldr	r3, [r7, #32]
 1137 0044 0433     		adds	r3, r3, #4
 1138 0046 1846     		mov	r0, r3
 1139 0048 FFF7FEFF 		bl	uxListRemove
 1140              	.L87:
 767:Generated_Source\PSoC6\pdl\rtos\FreeRTOS\9.0.0\Source/timers.c **** 			}
 768:Generated_Source\PSoC6\pdl\rtos\FreeRTOS\9.0.0\Source/timers.c **** 			else
 769:Generated_Source\PSoC6\pdl\rtos\FreeRTOS\9.0.0\Source/timers.c **** 			{
 770:Generated_Source\PSoC6\pdl\rtos\FreeRTOS\9.0.0\Source/timers.c **** 				mtCOVERAGE_TEST_MARKER();
 771:Generated_Source\PSoC6\pdl\rtos\FreeRTOS\9.0.0\Source/timers.c **** 			}
 772:Generated_Source\PSoC6\pdl\rtos\FreeRTOS\9.0.0\Source/timers.c **** 
 773:Generated_Source\PSoC6\pdl\rtos\FreeRTOS\9.0.0\Source/timers.c **** 			traceTIMER_COMMAND_RECEIVED( pxTimer, xMessage.xMessageID, xMessage.u.xTimerParameters.xMessageV
 774:Generated_Source\PSoC6\pdl\rtos\FreeRTOS\9.0.0\Source/timers.c **** 
 775:Generated_Source\PSoC6\pdl\rtos\FreeRTOS\9.0.0\Source/timers.c **** 			/* In this case the xTimerListsWereSwitched parameter is not used, but
 776:Generated_Source\PSoC6\pdl\rtos\FreeRTOS\9.0.0\Source/timers.c **** 			it must be present in the function call.  prvSampleTimeNow() must be
 777:Generated_Source\PSoC6\pdl\rtos\FreeRTOS\9.0.0\Source/timers.c **** 			called after the message is received from xTimerQueue so there is no
 778:Generated_Source\PSoC6\pdl\rtos\FreeRTOS\9.0.0\Source/timers.c **** 			possibility of a higher priority task adding a message to the message
 779:Generated_Source\PSoC6\pdl\rtos\FreeRTOS\9.0.0\Source/timers.c **** 			queue with a time that is ahead of the timer daemon task (because it
 780:Generated_Source\PSoC6\pdl\rtos\FreeRTOS\9.0.0\Source/timers.c **** 			pre-empted the timer daemon task after the xTimeNow value was set). */
 781:Generated_Source\PSoC6\pdl\rtos\FreeRTOS\9.0.0\Source/timers.c **** 			xTimeNow = prvSampleTimeNow( &xTimerListsWereSwitched );
 1141              		.loc 1 781 0
 1142 004c 3B1D     		adds	r3, r7, #4
ARM GAS  C:\Users\ikomb\AppData\Local\Temp\ccS6Tztj.s 			page 35


 1143 004e 1846     		mov	r0, r3
 1144 0050 FFF7FEFF 		bl	prvSampleTimeNow
 1145 0054 F861     		str	r0, [r7, #28]
 782:Generated_Source\PSoC6\pdl\rtos\FreeRTOS\9.0.0\Source/timers.c **** 
 783:Generated_Source\PSoC6\pdl\rtos\FreeRTOS\9.0.0\Source/timers.c **** 			switch( xMessage.xMessageID )
 1146              		.loc 1 783 0
 1147 0056 BB68     		ldr	r3, [r7, #8]
 1148 0058 092B     		cmp	r3, #9
 1149 005a 53D8     		bhi	.L99
 1150 005c 01A2     		adr	r2, .L90
 1151 005e 52F823F0 		ldr	pc, [r2, r3, lsl #2]
 1152 0062 00BF     		.p2align 2
 1153              	.L90:
 1154 0064 8D000000 		.word	.L89+1
 1155 0068 8D000000 		.word	.L89+1
 1156 006c 8D000000 		.word	.L89+1
 1157 0070 07010000 		.word	.L83+1
 1158 0074 D7000000 		.word	.L92+1
 1159 0078 FD000000 		.word	.L93+1
 1160 007c 8D000000 		.word	.L89+1
 1161 0080 8D000000 		.word	.L89+1
 1162 0084 07010000 		.word	.L83+1
 1163 0088 D7000000 		.word	.L92+1
 1164              		.p2align 1
 1165              	.L89:
 784:Generated_Source\PSoC6\pdl\rtos\FreeRTOS\9.0.0\Source/timers.c **** 			{
 785:Generated_Source\PSoC6\pdl\rtos\FreeRTOS\9.0.0\Source/timers.c **** 				case tmrCOMMAND_START :
 786:Generated_Source\PSoC6\pdl\rtos\FreeRTOS\9.0.0\Source/timers.c **** 			    case tmrCOMMAND_START_FROM_ISR :
 787:Generated_Source\PSoC6\pdl\rtos\FreeRTOS\9.0.0\Source/timers.c **** 			    case tmrCOMMAND_RESET :
 788:Generated_Source\PSoC6\pdl\rtos\FreeRTOS\9.0.0\Source/timers.c **** 			    case tmrCOMMAND_RESET_FROM_ISR :
 789:Generated_Source\PSoC6\pdl\rtos\FreeRTOS\9.0.0\Source/timers.c **** 				case tmrCOMMAND_START_DONT_TRACE :
 790:Generated_Source\PSoC6\pdl\rtos\FreeRTOS\9.0.0\Source/timers.c **** 					/* Start or restart a timer. */
 791:Generated_Source\PSoC6\pdl\rtos\FreeRTOS\9.0.0\Source/timers.c **** 					if( prvInsertTimerInActiveList( pxTimer,  xMessage.u.xTimerParameters.xMessageValue + pxTimer-
 1166              		.loc 1 791 0
 1167 008c FA68     		ldr	r2, [r7, #12]
 1168 008e 3B6A     		ldr	r3, [r7, #32]
 1169 0090 9B69     		ldr	r3, [r3, #24]
 1170 0092 D118     		adds	r1, r2, r3
 1171 0094 FB68     		ldr	r3, [r7, #12]
 1172 0096 FA69     		ldr	r2, [r7, #28]
 1173 0098 386A     		ldr	r0, [r7, #32]
 1174 009a FFF7FEFF 		bl	prvInsertTimerInActiveList
 1175 009e 0346     		mov	r3, r0
 1176 00a0 002B     		cmp	r3, #0
 1177 00a2 30D0     		beq	.L83
 792:Generated_Source\PSoC6\pdl\rtos\FreeRTOS\9.0.0\Source/timers.c **** 					{
 793:Generated_Source\PSoC6\pdl\rtos\FreeRTOS\9.0.0\Source/timers.c **** 						/* The timer expired before it was added to the active
 794:Generated_Source\PSoC6\pdl\rtos\FreeRTOS\9.0.0\Source/timers.c **** 						timer list.  Process it now. */
 795:Generated_Source\PSoC6\pdl\rtos\FreeRTOS\9.0.0\Source/timers.c **** 						pxTimer->pxCallbackFunction( ( TimerHandle_t ) pxTimer );
 1178              		.loc 1 795 0
 1179 00a4 3B6A     		ldr	r3, [r7, #32]
 1180 00a6 5B6A     		ldr	r3, [r3, #36]
 1181 00a8 386A     		ldr	r0, [r7, #32]
 1182 00aa 9847     		blx	r3
 796:Generated_Source\PSoC6\pdl\rtos\FreeRTOS\9.0.0\Source/timers.c **** 						traceTIMER_EXPIRED( pxTimer );
 797:Generated_Source\PSoC6\pdl\rtos\FreeRTOS\9.0.0\Source/timers.c **** 
 798:Generated_Source\PSoC6\pdl\rtos\FreeRTOS\9.0.0\Source/timers.c **** 						if( pxTimer->uxAutoReload == ( UBaseType_t ) pdTRUE )
ARM GAS  C:\Users\ikomb\AppData\Local\Temp\ccS6Tztj.s 			page 36


 1183              		.loc 1 798 0
 1184 00ac 3B6A     		ldr	r3, [r7, #32]
 1185 00ae DB69     		ldr	r3, [r3, #28]
 1186 00b0 012B     		cmp	r3, #1
 1187 00b2 28D1     		bne	.L83
 799:Generated_Source\PSoC6\pdl\rtos\FreeRTOS\9.0.0\Source/timers.c **** 						{
 800:Generated_Source\PSoC6\pdl\rtos\FreeRTOS\9.0.0\Source/timers.c **** 							xResult = xTimerGenericCommand( pxTimer, tmrCOMMAND_START_DONT_TRACE, xMessage.u.xTimerParam
 1188              		.loc 1 800 0
 1189 00b4 FA68     		ldr	r2, [r7, #12]
 1190 00b6 3B6A     		ldr	r3, [r7, #32]
 1191 00b8 9B69     		ldr	r3, [r3, #24]
 1192 00ba 1A44     		add	r2, r2, r3
 1193 00bc 0023     		movs	r3, #0
 1194 00be 0093     		str	r3, [sp]
 1195 00c0 0023     		movs	r3, #0
 1196 00c2 0021     		movs	r1, #0
 1197 00c4 386A     		ldr	r0, [r7, #32]
 1198 00c6 FFF7FEFF 		bl	xTimerGenericCommand
 1199 00ca B861     		str	r0, [r7, #24]
 801:Generated_Source\PSoC6\pdl\rtos\FreeRTOS\9.0.0\Source/timers.c **** 							configASSERT( xResult );
 1200              		.loc 1 801 0
 1201 00cc BB69     		ldr	r3, [r7, #24]
 1202 00ce 002B     		cmp	r3, #0
 1203 00d0 19D1     		bne	.L83
 1204              		.loc 1 801 0 is_stmt 0 discriminator 1
 1205              		.syntax unified
 1206              	@ 801 "Generated_Source\PSoC6\pdl\rtos\FreeRTOS\9.0.0\Source\timers.c" 1
 1207 00d2 72B6     		 cpsid i 
 1208              	@ 0 "" 2
 1209              		.thumb
 1210              		.syntax unified
 1211              	.L95:
 1212              		.loc 1 801 0 discriminator 2
 1213 00d4 FEE7     		b	.L95
 1214              	.L92:
 802:Generated_Source\PSoC6\pdl\rtos\FreeRTOS\9.0.0\Source/timers.c **** 							( void ) xResult;
 803:Generated_Source\PSoC6\pdl\rtos\FreeRTOS\9.0.0\Source/timers.c **** 						}
 804:Generated_Source\PSoC6\pdl\rtos\FreeRTOS\9.0.0\Source/timers.c **** 						else
 805:Generated_Source\PSoC6\pdl\rtos\FreeRTOS\9.0.0\Source/timers.c **** 						{
 806:Generated_Source\PSoC6\pdl\rtos\FreeRTOS\9.0.0\Source/timers.c **** 							mtCOVERAGE_TEST_MARKER();
 807:Generated_Source\PSoC6\pdl\rtos\FreeRTOS\9.0.0\Source/timers.c **** 						}
 808:Generated_Source\PSoC6\pdl\rtos\FreeRTOS\9.0.0\Source/timers.c **** 					}
 809:Generated_Source\PSoC6\pdl\rtos\FreeRTOS\9.0.0\Source/timers.c **** 					else
 810:Generated_Source\PSoC6\pdl\rtos\FreeRTOS\9.0.0\Source/timers.c **** 					{
 811:Generated_Source\PSoC6\pdl\rtos\FreeRTOS\9.0.0\Source/timers.c **** 						mtCOVERAGE_TEST_MARKER();
 812:Generated_Source\PSoC6\pdl\rtos\FreeRTOS\9.0.0\Source/timers.c **** 					}
 813:Generated_Source\PSoC6\pdl\rtos\FreeRTOS\9.0.0\Source/timers.c **** 					break;
 814:Generated_Source\PSoC6\pdl\rtos\FreeRTOS\9.0.0\Source/timers.c **** 
 815:Generated_Source\PSoC6\pdl\rtos\FreeRTOS\9.0.0\Source/timers.c **** 				case tmrCOMMAND_STOP :
 816:Generated_Source\PSoC6\pdl\rtos\FreeRTOS\9.0.0\Source/timers.c **** 				case tmrCOMMAND_STOP_FROM_ISR :
 817:Generated_Source\PSoC6\pdl\rtos\FreeRTOS\9.0.0\Source/timers.c **** 					/* The timer has already been removed from the active list.
 818:Generated_Source\PSoC6\pdl\rtos\FreeRTOS\9.0.0\Source/timers.c **** 					There is nothing to do here. */
 819:Generated_Source\PSoC6\pdl\rtos\FreeRTOS\9.0.0\Source/timers.c **** 					break;
 820:Generated_Source\PSoC6\pdl\rtos\FreeRTOS\9.0.0\Source/timers.c **** 
 821:Generated_Source\PSoC6\pdl\rtos\FreeRTOS\9.0.0\Source/timers.c **** 				case tmrCOMMAND_CHANGE_PERIOD :
 822:Generated_Source\PSoC6\pdl\rtos\FreeRTOS\9.0.0\Source/timers.c **** 				case tmrCOMMAND_CHANGE_PERIOD_FROM_ISR :
 823:Generated_Source\PSoC6\pdl\rtos\FreeRTOS\9.0.0\Source/timers.c **** 					pxTimer->xTimerPeriodInTicks = xMessage.u.xTimerParameters.xMessageValue;
ARM GAS  C:\Users\ikomb\AppData\Local\Temp\ccS6Tztj.s 			page 37


 1215              		.loc 1 823 0 is_stmt 1
 1216 00d6 FA68     		ldr	r2, [r7, #12]
 1217 00d8 3B6A     		ldr	r3, [r7, #32]
 1218 00da 9A61     		str	r2, [r3, #24]
 824:Generated_Source\PSoC6\pdl\rtos\FreeRTOS\9.0.0\Source/timers.c **** 					configASSERT( ( pxTimer->xTimerPeriodInTicks > 0 ) );
 1219              		.loc 1 824 0
 1220 00dc 3B6A     		ldr	r3, [r7, #32]
 1221 00de 9B69     		ldr	r3, [r3, #24]
 1222 00e0 002B     		cmp	r3, #0
 1223 00e2 01D1     		bne	.L96
 1224              		.loc 1 824 0 is_stmt 0 discriminator 1
 1225              		.syntax unified
 1226              	@ 824 "Generated_Source\PSoC6\pdl\rtos\FreeRTOS\9.0.0\Source\timers.c" 1
 1227 00e4 72B6     		 cpsid i 
 1228              	@ 0 "" 2
 1229              		.thumb
 1230              		.syntax unified
 1231              	.L97:
 1232              		.loc 1 824 0 discriminator 5
 1233 00e6 FEE7     		b	.L97
 1234              	.L96:
 825:Generated_Source\PSoC6\pdl\rtos\FreeRTOS\9.0.0\Source/timers.c **** 
 826:Generated_Source\PSoC6\pdl\rtos\FreeRTOS\9.0.0\Source/timers.c **** 					/* The new period does not really have a reference, and can
 827:Generated_Source\PSoC6\pdl\rtos\FreeRTOS\9.0.0\Source/timers.c **** 					be longer or shorter than the old one.  The command time is
 828:Generated_Source\PSoC6\pdl\rtos\FreeRTOS\9.0.0\Source/timers.c **** 					therefore set to the current time, and as the period cannot
 829:Generated_Source\PSoC6\pdl\rtos\FreeRTOS\9.0.0\Source/timers.c **** 					be zero the next expiry time can only be in the future,
 830:Generated_Source\PSoC6\pdl\rtos\FreeRTOS\9.0.0\Source/timers.c **** 					meaning (unlike for the xTimerStart() case above) there is
 831:Generated_Source\PSoC6\pdl\rtos\FreeRTOS\9.0.0\Source/timers.c **** 					no fail case that needs to be handled here. */
 832:Generated_Source\PSoC6\pdl\rtos\FreeRTOS\9.0.0\Source/timers.c **** 					( void ) prvInsertTimerInActiveList( pxTimer, ( xTimeNow + pxTimer->xTimerPeriodInTicks ), xTi
 1235              		.loc 1 832 0 is_stmt 1
 1236 00e8 3B6A     		ldr	r3, [r7, #32]
 1237 00ea 9A69     		ldr	r2, [r3, #24]
 1238 00ec FB69     		ldr	r3, [r7, #28]
 1239 00ee D118     		adds	r1, r2, r3
 1240 00f0 FB69     		ldr	r3, [r7, #28]
 1241 00f2 FA69     		ldr	r2, [r7, #28]
 1242 00f4 386A     		ldr	r0, [r7, #32]
 1243 00f6 FFF7FEFF 		bl	prvInsertTimerInActiveList
 833:Generated_Source\PSoC6\pdl\rtos\FreeRTOS\9.0.0\Source/timers.c **** 					break;
 1244              		.loc 1 833 0
 1245 00fa 04E0     		b	.L83
 1246              	.L93:
 834:Generated_Source\PSoC6\pdl\rtos\FreeRTOS\9.0.0\Source/timers.c **** 
 835:Generated_Source\PSoC6\pdl\rtos\FreeRTOS\9.0.0\Source/timers.c **** 				case tmrCOMMAND_DELETE :
 836:Generated_Source\PSoC6\pdl\rtos\FreeRTOS\9.0.0\Source/timers.c **** 					/* The timer has already been removed from the active list,
 837:Generated_Source\PSoC6\pdl\rtos\FreeRTOS\9.0.0\Source/timers.c **** 					just free up the memory if the memory was dynamically
 838:Generated_Source\PSoC6\pdl\rtos\FreeRTOS\9.0.0\Source/timers.c **** 					allocated. */
 839:Generated_Source\PSoC6\pdl\rtos\FreeRTOS\9.0.0\Source/timers.c **** 					#if( ( configSUPPORT_DYNAMIC_ALLOCATION == 1 ) && ( configSUPPORT_STATIC_ALLOCATION == 0 ) )
 840:Generated_Source\PSoC6\pdl\rtos\FreeRTOS\9.0.0\Source/timers.c **** 					{
 841:Generated_Source\PSoC6\pdl\rtos\FreeRTOS\9.0.0\Source/timers.c **** 						/* The timer can only have been allocated dynamically -
 842:Generated_Source\PSoC6\pdl\rtos\FreeRTOS\9.0.0\Source/timers.c **** 						free it again. */
 843:Generated_Source\PSoC6\pdl\rtos\FreeRTOS\9.0.0\Source/timers.c **** 						vPortFree( pxTimer );
 1247              		.loc 1 843 0
 1248 00fc 386A     		ldr	r0, [r7, #32]
 1249 00fe FFF7FEFF 		bl	vPortFree
 844:Generated_Source\PSoC6\pdl\rtos\FreeRTOS\9.0.0\Source/timers.c **** 					}
 845:Generated_Source\PSoC6\pdl\rtos\FreeRTOS\9.0.0\Source/timers.c **** 					#elif( ( configSUPPORT_DYNAMIC_ALLOCATION == 1 ) && ( configSUPPORT_STATIC_ALLOCATION == 1 ) )
ARM GAS  C:\Users\ikomb\AppData\Local\Temp\ccS6Tztj.s 			page 38


 846:Generated_Source\PSoC6\pdl\rtos\FreeRTOS\9.0.0\Source/timers.c **** 					{
 847:Generated_Source\PSoC6\pdl\rtos\FreeRTOS\9.0.0\Source/timers.c **** 						/* The timer could have been allocated statically or
 848:Generated_Source\PSoC6\pdl\rtos\FreeRTOS\9.0.0\Source/timers.c **** 						dynamically, so check before attempting to free the
 849:Generated_Source\PSoC6\pdl\rtos\FreeRTOS\9.0.0\Source/timers.c **** 						memory. */
 850:Generated_Source\PSoC6\pdl\rtos\FreeRTOS\9.0.0\Source/timers.c **** 						if( pxTimer->ucStaticallyAllocated == ( uint8_t ) pdFALSE )
 851:Generated_Source\PSoC6\pdl\rtos\FreeRTOS\9.0.0\Source/timers.c **** 						{
 852:Generated_Source\PSoC6\pdl\rtos\FreeRTOS\9.0.0\Source/timers.c **** 							vPortFree( pxTimer );
 853:Generated_Source\PSoC6\pdl\rtos\FreeRTOS\9.0.0\Source/timers.c **** 						}
 854:Generated_Source\PSoC6\pdl\rtos\FreeRTOS\9.0.0\Source/timers.c **** 						else
 855:Generated_Source\PSoC6\pdl\rtos\FreeRTOS\9.0.0\Source/timers.c **** 						{
 856:Generated_Source\PSoC6\pdl\rtos\FreeRTOS\9.0.0\Source/timers.c **** 							mtCOVERAGE_TEST_MARKER();
 857:Generated_Source\PSoC6\pdl\rtos\FreeRTOS\9.0.0\Source/timers.c **** 						}
 858:Generated_Source\PSoC6\pdl\rtos\FreeRTOS\9.0.0\Source/timers.c **** 					}
 859:Generated_Source\PSoC6\pdl\rtos\FreeRTOS\9.0.0\Source/timers.c **** 					#endif /* configSUPPORT_DYNAMIC_ALLOCATION */
 860:Generated_Source\PSoC6\pdl\rtos\FreeRTOS\9.0.0\Source/timers.c **** 					break;
 1250              		.loc 1 860 0
 1251 0102 00E0     		b	.L83
 1252              	.L99:
 861:Generated_Source\PSoC6\pdl\rtos\FreeRTOS\9.0.0\Source/timers.c **** 
 862:Generated_Source\PSoC6\pdl\rtos\FreeRTOS\9.0.0\Source/timers.c **** 				default	:
 863:Generated_Source\PSoC6\pdl\rtos\FreeRTOS\9.0.0\Source/timers.c **** 					/* Don't expect to get here. */
 864:Generated_Source\PSoC6\pdl\rtos\FreeRTOS\9.0.0\Source/timers.c **** 					break;
 1253              		.loc 1 864 0
 1254 0104 00BF     		nop
 1255              	.L83:
 731:Generated_Source\PSoC6\pdl\rtos\FreeRTOS\9.0.0\Source/timers.c **** 	{
 1256              		.loc 1 731 0
 1257 0106 084B     		ldr	r3, .L100
 1258 0108 1868     		ldr	r0, [r3]
 1259 010a 07F10801 		add	r1, r7, #8
 1260 010e 0023     		movs	r3, #0
 1261 0110 0022     		movs	r2, #0
 1262 0112 FFF7FEFF 		bl	xQueueGenericReceive
 1263 0116 0346     		mov	r3, r0
 1264 0118 002B     		cmp	r3, #0
 1265 011a 7FF475AF 		bne	.L98
 865:Generated_Source\PSoC6\pdl\rtos\FreeRTOS\9.0.0\Source/timers.c **** 			}
 866:Generated_Source\PSoC6\pdl\rtos\FreeRTOS\9.0.0\Source/timers.c **** 		}
 867:Generated_Source\PSoC6\pdl\rtos\FreeRTOS\9.0.0\Source/timers.c **** 	}
 868:Generated_Source\PSoC6\pdl\rtos\FreeRTOS\9.0.0\Source/timers.c **** }
 1266              		.loc 1 868 0
 1267 011e 00BF     		nop
 1268 0120 2837     		adds	r7, r7, #40
 1269              		.cfi_def_cfa_offset 8
 1270 0122 BD46     		mov	sp, r7
 1271              		.cfi_def_cfa_register 13
 1272              		@ sp needed
 1273 0124 80BD     		pop	{r7, pc}
 1274              	.L101:
 1275 0126 00BF     		.align	2
 1276              	.L100:
 1277 0128 30000000 		.word	xTimerQueue
 1278              		.cfi_endproc
 1279              	.LFE143:
 1280              		.size	prvProcessReceivedCommands, .-prvProcessReceivedCommands
 1281              		.section	.text.prvSwitchTimerLists,"ax",%progbits
 1282              		.align	2
ARM GAS  C:\Users\ikomb\AppData\Local\Temp\ccS6Tztj.s 			page 39


 1283              		.thumb
 1284              		.thumb_func
 1285              		.type	prvSwitchTimerLists, %function
 1286              	prvSwitchTimerLists:
 1287              	.LFB144:
 869:Generated_Source\PSoC6\pdl\rtos\FreeRTOS\9.0.0\Source/timers.c **** /*-----------------------------------------------------------*/
 870:Generated_Source\PSoC6\pdl\rtos\FreeRTOS\9.0.0\Source/timers.c **** 
 871:Generated_Source\PSoC6\pdl\rtos\FreeRTOS\9.0.0\Source/timers.c **** static void prvSwitchTimerLists( void )
 872:Generated_Source\PSoC6\pdl\rtos\FreeRTOS\9.0.0\Source/timers.c **** {
 1288              		.loc 1 872 0
 1289              		.cfi_startproc
 1290              		@ args = 0, pretend = 0, frame = 24
 1291              		@ frame_needed = 1, uses_anonymous_args = 0
 1292 0000 80B5     		push	{r7, lr}
 1293              		.cfi_def_cfa_offset 8
 1294              		.cfi_offset 7, -8
 1295              		.cfi_offset 14, -4
 1296 0002 88B0     		sub	sp, sp, #32
 1297              		.cfi_def_cfa_offset 40
 1298 0004 02AF     		add	r7, sp, #8
 1299              		.cfi_def_cfa 7, 32
 873:Generated_Source\PSoC6\pdl\rtos\FreeRTOS\9.0.0\Source/timers.c **** TickType_t xNextExpireTime, xReloadTime;
 874:Generated_Source\PSoC6\pdl\rtos\FreeRTOS\9.0.0\Source/timers.c **** List_t *pxTemp;
 875:Generated_Source\PSoC6\pdl\rtos\FreeRTOS\9.0.0\Source/timers.c **** Timer_t *pxTimer;
 876:Generated_Source\PSoC6\pdl\rtos\FreeRTOS\9.0.0\Source/timers.c **** BaseType_t xResult;
 877:Generated_Source\PSoC6\pdl\rtos\FreeRTOS\9.0.0\Source/timers.c **** 
 878:Generated_Source\PSoC6\pdl\rtos\FreeRTOS\9.0.0\Source/timers.c **** 	/* The tick count has overflowed.  The timer lists must be switched.
 879:Generated_Source\PSoC6\pdl\rtos\FreeRTOS\9.0.0\Source/timers.c **** 	If there are any timers still referenced from the current timer list
 880:Generated_Source\PSoC6\pdl\rtos\FreeRTOS\9.0.0\Source/timers.c **** 	then they must have expired and should be processed before the lists
 881:Generated_Source\PSoC6\pdl\rtos\FreeRTOS\9.0.0\Source/timers.c **** 	are switched. */
 882:Generated_Source\PSoC6\pdl\rtos\FreeRTOS\9.0.0\Source/timers.c **** 	while( listLIST_IS_EMPTY( pxCurrentTimerList ) == pdFALSE )
 1300              		.loc 1 882 0
 1301 0006 3CE0     		b	.L103
 1302              	.L106:
 883:Generated_Source\PSoC6\pdl\rtos\FreeRTOS\9.0.0\Source/timers.c **** 	{
 884:Generated_Source\PSoC6\pdl\rtos\FreeRTOS\9.0.0\Source/timers.c **** 		xNextExpireTime = listGET_ITEM_VALUE_OF_HEAD_ENTRY( pxCurrentTimerList );
 1303              		.loc 1 884 0
 1304 0008 274B     		ldr	r3, .L107
 1305 000a 1B68     		ldr	r3, [r3]
 1306 000c DB68     		ldr	r3, [r3, #12]
 1307 000e 1B68     		ldr	r3, [r3]
 1308 0010 7B61     		str	r3, [r7, #20]
 885:Generated_Source\PSoC6\pdl\rtos\FreeRTOS\9.0.0\Source/timers.c **** 
 886:Generated_Source\PSoC6\pdl\rtos\FreeRTOS\9.0.0\Source/timers.c **** 		/* Remove the timer from the list. */
 887:Generated_Source\PSoC6\pdl\rtos\FreeRTOS\9.0.0\Source/timers.c **** 		pxTimer = ( Timer_t * ) listGET_OWNER_OF_HEAD_ENTRY( pxCurrentTimerList );
 1309              		.loc 1 887 0
 1310 0012 254B     		ldr	r3, .L107
 1311 0014 1B68     		ldr	r3, [r3]
 1312 0016 DB68     		ldr	r3, [r3, #12]
 1313 0018 DB68     		ldr	r3, [r3, #12]
 1314 001a 3B61     		str	r3, [r7, #16]
 888:Generated_Source\PSoC6\pdl\rtos\FreeRTOS\9.0.0\Source/timers.c **** 		( void ) uxListRemove( &( pxTimer->xTimerListItem ) );
 1315              		.loc 1 888 0
 1316 001c 3B69     		ldr	r3, [r7, #16]
 1317 001e 0433     		adds	r3, r3, #4
 1318 0020 1846     		mov	r0, r3
 1319 0022 FFF7FEFF 		bl	uxListRemove
ARM GAS  C:\Users\ikomb\AppData\Local\Temp\ccS6Tztj.s 			page 40


 889:Generated_Source\PSoC6\pdl\rtos\FreeRTOS\9.0.0\Source/timers.c **** 		traceTIMER_EXPIRED( pxTimer );
 890:Generated_Source\PSoC6\pdl\rtos\FreeRTOS\9.0.0\Source/timers.c **** 
 891:Generated_Source\PSoC6\pdl\rtos\FreeRTOS\9.0.0\Source/timers.c **** 		/* Execute its callback, then send a command to restart the timer if
 892:Generated_Source\PSoC6\pdl\rtos\FreeRTOS\9.0.0\Source/timers.c **** 		it is an auto-reload timer.  It cannot be restarted here as the lists
 893:Generated_Source\PSoC6\pdl\rtos\FreeRTOS\9.0.0\Source/timers.c **** 		have not yet been switched. */
 894:Generated_Source\PSoC6\pdl\rtos\FreeRTOS\9.0.0\Source/timers.c **** 		pxTimer->pxCallbackFunction( ( TimerHandle_t ) pxTimer );
 1320              		.loc 1 894 0
 1321 0026 3B69     		ldr	r3, [r7, #16]
 1322 0028 5B6A     		ldr	r3, [r3, #36]
 1323 002a 3869     		ldr	r0, [r7, #16]
 1324 002c 9847     		blx	r3
 895:Generated_Source\PSoC6\pdl\rtos\FreeRTOS\9.0.0\Source/timers.c **** 
 896:Generated_Source\PSoC6\pdl\rtos\FreeRTOS\9.0.0\Source/timers.c **** 		if( pxTimer->uxAutoReload == ( UBaseType_t ) pdTRUE )
 1325              		.loc 1 896 0
 1326 002e 3B69     		ldr	r3, [r7, #16]
 1327 0030 DB69     		ldr	r3, [r3, #28]
 1328 0032 012B     		cmp	r3, #1
 1329 0034 25D1     		bne	.L103
 897:Generated_Source\PSoC6\pdl\rtos\FreeRTOS\9.0.0\Source/timers.c **** 		{
 898:Generated_Source\PSoC6\pdl\rtos\FreeRTOS\9.0.0\Source/timers.c **** 			/* Calculate the reload value, and if the reload value results in
 899:Generated_Source\PSoC6\pdl\rtos\FreeRTOS\9.0.0\Source/timers.c **** 			the timer going into the same timer list then it has already expired
 900:Generated_Source\PSoC6\pdl\rtos\FreeRTOS\9.0.0\Source/timers.c **** 			and the timer should be re-inserted into the current list so it is
 901:Generated_Source\PSoC6\pdl\rtos\FreeRTOS\9.0.0\Source/timers.c **** 			processed again within this loop.  Otherwise a command should be sent
 902:Generated_Source\PSoC6\pdl\rtos\FreeRTOS\9.0.0\Source/timers.c **** 			to restart the timer to ensure it is only inserted into a list after
 903:Generated_Source\PSoC6\pdl\rtos\FreeRTOS\9.0.0\Source/timers.c **** 			the lists have been swapped. */
 904:Generated_Source\PSoC6\pdl\rtos\FreeRTOS\9.0.0\Source/timers.c **** 			xReloadTime = ( xNextExpireTime + pxTimer->xTimerPeriodInTicks );
 1330              		.loc 1 904 0
 1331 0036 3B69     		ldr	r3, [r7, #16]
 1332 0038 9A69     		ldr	r2, [r3, #24]
 1333 003a 7B69     		ldr	r3, [r7, #20]
 1334 003c 1344     		add	r3, r3, r2
 1335 003e FB60     		str	r3, [r7, #12]
 905:Generated_Source\PSoC6\pdl\rtos\FreeRTOS\9.0.0\Source/timers.c **** 			if( xReloadTime > xNextExpireTime )
 1336              		.loc 1 905 0
 1337 0040 FA68     		ldr	r2, [r7, #12]
 1338 0042 7B69     		ldr	r3, [r7, #20]
 1339 0044 9A42     		cmp	r2, r3
 1340 0046 0ED9     		bls	.L104
 906:Generated_Source\PSoC6\pdl\rtos\FreeRTOS\9.0.0\Source/timers.c **** 			{
 907:Generated_Source\PSoC6\pdl\rtos\FreeRTOS\9.0.0\Source/timers.c **** 				listSET_LIST_ITEM_VALUE( &( pxTimer->xTimerListItem ), xReloadTime );
 1341              		.loc 1 907 0
 1342 0048 3B69     		ldr	r3, [r7, #16]
 1343 004a FA68     		ldr	r2, [r7, #12]
 1344 004c 5A60     		str	r2, [r3, #4]
 908:Generated_Source\PSoC6\pdl\rtos\FreeRTOS\9.0.0\Source/timers.c **** 				listSET_LIST_ITEM_OWNER( &( pxTimer->xTimerListItem ), pxTimer );
 1345              		.loc 1 908 0
 1346 004e 3B69     		ldr	r3, [r7, #16]
 1347 0050 3A69     		ldr	r2, [r7, #16]
 1348 0052 1A61     		str	r2, [r3, #16]
 909:Generated_Source\PSoC6\pdl\rtos\FreeRTOS\9.0.0\Source/timers.c **** 				vListInsert( pxCurrentTimerList, &( pxTimer->xTimerListItem ) );
 1349              		.loc 1 909 0
 1350 0054 144B     		ldr	r3, .L107
 1351 0056 1A68     		ldr	r2, [r3]
 1352 0058 3B69     		ldr	r3, [r7, #16]
 1353 005a 0433     		adds	r3, r3, #4
 1354 005c 1946     		mov	r1, r3
 1355 005e 1046     		mov	r0, r2
ARM GAS  C:\Users\ikomb\AppData\Local\Temp\ccS6Tztj.s 			page 41


 1356 0060 FFF7FEFF 		bl	vListInsert
 1357 0064 0DE0     		b	.L103
 1358              	.L104:
 910:Generated_Source\PSoC6\pdl\rtos\FreeRTOS\9.0.0\Source/timers.c **** 			}
 911:Generated_Source\PSoC6\pdl\rtos\FreeRTOS\9.0.0\Source/timers.c **** 			else
 912:Generated_Source\PSoC6\pdl\rtos\FreeRTOS\9.0.0\Source/timers.c **** 			{
 913:Generated_Source\PSoC6\pdl\rtos\FreeRTOS\9.0.0\Source/timers.c **** 				xResult = xTimerGenericCommand( pxTimer, tmrCOMMAND_START_DONT_TRACE, xNextExpireTime, NULL, tm
 1359              		.loc 1 913 0
 1360 0066 0023     		movs	r3, #0
 1361 0068 0093     		str	r3, [sp]
 1362 006a 0023     		movs	r3, #0
 1363 006c 7A69     		ldr	r2, [r7, #20]
 1364 006e 0021     		movs	r1, #0
 1365 0070 3869     		ldr	r0, [r7, #16]
 1366 0072 FFF7FEFF 		bl	xTimerGenericCommand
 1367 0076 B860     		str	r0, [r7, #8]
 914:Generated_Source\PSoC6\pdl\rtos\FreeRTOS\9.0.0\Source/timers.c **** 				configASSERT( xResult );
 1368              		.loc 1 914 0
 1369 0078 BB68     		ldr	r3, [r7, #8]
 1370 007a 002B     		cmp	r3, #0
 1371 007c 01D1     		bne	.L103
 1372              		.loc 1 914 0 is_stmt 0 discriminator 1
 1373              		.syntax unified
 1374              	@ 914 "Generated_Source\PSoC6\pdl\rtos\FreeRTOS\9.0.0\Source\timers.c" 1
 1375 007e 72B6     		 cpsid i 
 1376              	@ 0 "" 2
 1377              		.thumb
 1378              		.syntax unified
 1379              	.L105:
 1380 0080 FEE7     		b	.L105
 1381              	.L103:
 882:Generated_Source\PSoC6\pdl\rtos\FreeRTOS\9.0.0\Source/timers.c **** 	{
 1382              		.loc 1 882 0 is_stmt 1
 1383 0082 094B     		ldr	r3, .L107
 1384 0084 1B68     		ldr	r3, [r3]
 1385 0086 1B68     		ldr	r3, [r3]
 1386 0088 002B     		cmp	r3, #0
 1387 008a BDD1     		bne	.L106
 915:Generated_Source\PSoC6\pdl\rtos\FreeRTOS\9.0.0\Source/timers.c **** 				( void ) xResult;
 916:Generated_Source\PSoC6\pdl\rtos\FreeRTOS\9.0.0\Source/timers.c **** 			}
 917:Generated_Source\PSoC6\pdl\rtos\FreeRTOS\9.0.0\Source/timers.c **** 		}
 918:Generated_Source\PSoC6\pdl\rtos\FreeRTOS\9.0.0\Source/timers.c **** 		else
 919:Generated_Source\PSoC6\pdl\rtos\FreeRTOS\9.0.0\Source/timers.c **** 		{
 920:Generated_Source\PSoC6\pdl\rtos\FreeRTOS\9.0.0\Source/timers.c **** 			mtCOVERAGE_TEST_MARKER();
 921:Generated_Source\PSoC6\pdl\rtos\FreeRTOS\9.0.0\Source/timers.c **** 		}
 922:Generated_Source\PSoC6\pdl\rtos\FreeRTOS\9.0.0\Source/timers.c **** 	}
 923:Generated_Source\PSoC6\pdl\rtos\FreeRTOS\9.0.0\Source/timers.c **** 
 924:Generated_Source\PSoC6\pdl\rtos\FreeRTOS\9.0.0\Source/timers.c **** 	pxTemp = pxCurrentTimerList;
 1388              		.loc 1 924 0
 1389 008c 064B     		ldr	r3, .L107
 1390 008e 1B68     		ldr	r3, [r3]
 1391 0090 7B60     		str	r3, [r7, #4]
 925:Generated_Source\PSoC6\pdl\rtos\FreeRTOS\9.0.0\Source/timers.c **** 	pxCurrentTimerList = pxOverflowTimerList;
 1392              		.loc 1 925 0
 1393 0092 064B     		ldr	r3, .L107+4
 1394 0094 1B68     		ldr	r3, [r3]
 1395 0096 044A     		ldr	r2, .L107
ARM GAS  C:\Users\ikomb\AppData\Local\Temp\ccS6Tztj.s 			page 42


 1396 0098 1360     		str	r3, [r2]
 926:Generated_Source\PSoC6\pdl\rtos\FreeRTOS\9.0.0\Source/timers.c **** 	pxOverflowTimerList = pxTemp;
 1397              		.loc 1 926 0
 1398 009a 044A     		ldr	r2, .L107+4
 1399 009c 7B68     		ldr	r3, [r7, #4]
 1400 009e 1360     		str	r3, [r2]
 927:Generated_Source\PSoC6\pdl\rtos\FreeRTOS\9.0.0\Source/timers.c **** }
 1401              		.loc 1 927 0
 1402 00a0 00BF     		nop
 1403 00a2 1837     		adds	r7, r7, #24
 1404              		.cfi_def_cfa_offset 8
 1405 00a4 BD46     		mov	sp, r7
 1406              		.cfi_def_cfa_register 13
 1407              		@ sp needed
 1408 00a6 80BD     		pop	{r7, pc}
 1409              	.L108:
 1410              		.align	2
 1411              	.L107:
 1412 00a8 28000000 		.word	pxCurrentTimerList
 1413 00ac 2C000000 		.word	pxOverflowTimerList
 1414              		.cfi_endproc
 1415              	.LFE144:
 1416              		.size	prvSwitchTimerLists, .-prvSwitchTimerLists
 1417              		.section	.rodata
 1418              		.align	2
 1419              	.LC1:
 1420 0008 546D7251 		.ascii	"TmrQ\000"
 1420      00
 1421              		.section	.text.prvCheckForValidListAndQueue,"ax",%progbits
 1422              		.align	2
 1423              		.thumb
 1424              		.thumb_func
 1425              		.type	prvCheckForValidListAndQueue, %function
 1426              	prvCheckForValidListAndQueue:
 1427              	.LFB145:
 928:Generated_Source\PSoC6\pdl\rtos\FreeRTOS\9.0.0\Source/timers.c **** /*-----------------------------------------------------------*/
 929:Generated_Source\PSoC6\pdl\rtos\FreeRTOS\9.0.0\Source/timers.c **** 
 930:Generated_Source\PSoC6\pdl\rtos\FreeRTOS\9.0.0\Source/timers.c **** static void prvCheckForValidListAndQueue( void )
 931:Generated_Source\PSoC6\pdl\rtos\FreeRTOS\9.0.0\Source/timers.c **** {
 1428              		.loc 1 931 0
 1429              		.cfi_startproc
 1430              		@ args = 0, pretend = 0, frame = 0
 1431              		@ frame_needed = 1, uses_anonymous_args = 0
 1432 0000 80B5     		push	{r7, lr}
 1433              		.cfi_def_cfa_offset 8
 1434              		.cfi_offset 7, -8
 1435              		.cfi_offset 14, -4
 1436 0002 00AF     		add	r7, sp, #0
 1437              		.cfi_def_cfa_register 7
 932:Generated_Source\PSoC6\pdl\rtos\FreeRTOS\9.0.0\Source/timers.c **** 	/* Check that the list from which active timers are referenced, and the
 933:Generated_Source\PSoC6\pdl\rtos\FreeRTOS\9.0.0\Source/timers.c **** 	queue used to communicate with the timer service, have been
 934:Generated_Source\PSoC6\pdl\rtos\FreeRTOS\9.0.0\Source/timers.c **** 	initialised. */
 935:Generated_Source\PSoC6\pdl\rtos\FreeRTOS\9.0.0\Source/timers.c **** 	taskENTER_CRITICAL();
 1438              		.loc 1 935 0
 1439 0004 FFF7FEFF 		bl	vPortEnterCritical
 936:Generated_Source\PSoC6\pdl\rtos\FreeRTOS\9.0.0\Source/timers.c **** 	{
 937:Generated_Source\PSoC6\pdl\rtos\FreeRTOS\9.0.0\Source/timers.c **** 		if( xTimerQueue == NULL )
ARM GAS  C:\Users\ikomb\AppData\Local\Temp\ccS6Tztj.s 			page 43


 1440              		.loc 1 937 0
 1441 0008 124B     		ldr	r3, .L111
 1442 000a 1B68     		ldr	r3, [r3]
 1443 000c 002B     		cmp	r3, #0
 1444 000e 1DD1     		bne	.L110
 938:Generated_Source\PSoC6\pdl\rtos\FreeRTOS\9.0.0\Source/timers.c **** 		{
 939:Generated_Source\PSoC6\pdl\rtos\FreeRTOS\9.0.0\Source/timers.c **** 			vListInitialise( &xActiveTimerList1 );
 1445              		.loc 1 939 0
 1446 0010 1148     		ldr	r0, .L111+4
 1447 0012 FFF7FEFF 		bl	vListInitialise
 940:Generated_Source\PSoC6\pdl\rtos\FreeRTOS\9.0.0\Source/timers.c **** 			vListInitialise( &xActiveTimerList2 );
 1448              		.loc 1 940 0
 1449 0016 1148     		ldr	r0, .L111+8
 1450 0018 FFF7FEFF 		bl	vListInitialise
 941:Generated_Source\PSoC6\pdl\rtos\FreeRTOS\9.0.0\Source/timers.c **** 			pxCurrentTimerList = &xActiveTimerList1;
 1451              		.loc 1 941 0
 1452 001c 104B     		ldr	r3, .L111+12
 1453 001e 0E4A     		ldr	r2, .L111+4
 1454 0020 1A60     		str	r2, [r3]
 942:Generated_Source\PSoC6\pdl\rtos\FreeRTOS\9.0.0\Source/timers.c **** 			pxOverflowTimerList = &xActiveTimerList2;
 1455              		.loc 1 942 0
 1456 0022 104B     		ldr	r3, .L111+16
 1457 0024 0D4A     		ldr	r2, .L111+8
 1458 0026 1A60     		str	r2, [r3]
 943:Generated_Source\PSoC6\pdl\rtos\FreeRTOS\9.0.0\Source/timers.c **** 
 944:Generated_Source\PSoC6\pdl\rtos\FreeRTOS\9.0.0\Source/timers.c **** 			#if( configSUPPORT_STATIC_ALLOCATION == 1 )
 945:Generated_Source\PSoC6\pdl\rtos\FreeRTOS\9.0.0\Source/timers.c **** 			{
 946:Generated_Source\PSoC6\pdl\rtos\FreeRTOS\9.0.0\Source/timers.c **** 				/* The timer queue is allocated statically in case
 947:Generated_Source\PSoC6\pdl\rtos\FreeRTOS\9.0.0\Source/timers.c **** 				configSUPPORT_DYNAMIC_ALLOCATION is 0. */
 948:Generated_Source\PSoC6\pdl\rtos\FreeRTOS\9.0.0\Source/timers.c **** 				static StaticQueue_t xStaticTimerQueue;
 949:Generated_Source\PSoC6\pdl\rtos\FreeRTOS\9.0.0\Source/timers.c **** 				static uint8_t ucStaticTimerQueueStorage[ configTIMER_QUEUE_LENGTH * sizeof( DaemonTaskMessage_
 950:Generated_Source\PSoC6\pdl\rtos\FreeRTOS\9.0.0\Source/timers.c **** 
 951:Generated_Source\PSoC6\pdl\rtos\FreeRTOS\9.0.0\Source/timers.c **** 				xTimerQueue = xQueueCreateStatic( ( UBaseType_t ) configTIMER_QUEUE_LENGTH, sizeof( DaemonTaskM
 952:Generated_Source\PSoC6\pdl\rtos\FreeRTOS\9.0.0\Source/timers.c **** 			}
 953:Generated_Source\PSoC6\pdl\rtos\FreeRTOS\9.0.0\Source/timers.c **** 			#else
 954:Generated_Source\PSoC6\pdl\rtos\FreeRTOS\9.0.0\Source/timers.c **** 			{
 955:Generated_Source\PSoC6\pdl\rtos\FreeRTOS\9.0.0\Source/timers.c **** 				xTimerQueue = xQueueCreate( ( UBaseType_t ) configTIMER_QUEUE_LENGTH, sizeof( DaemonTaskMessage
 1459              		.loc 1 955 0
 1460 0028 0022     		movs	r2, #0
 1461 002a 1021     		movs	r1, #16
 1462 002c 0A20     		movs	r0, #10
 1463 002e FFF7FEFF 		bl	xQueueGenericCreate
 1464 0032 0246     		mov	r2, r0
 1465 0034 074B     		ldr	r3, .L111
 1466 0036 1A60     		str	r2, [r3]
 956:Generated_Source\PSoC6\pdl\rtos\FreeRTOS\9.0.0\Source/timers.c **** 			}
 957:Generated_Source\PSoC6\pdl\rtos\FreeRTOS\9.0.0\Source/timers.c **** 			#endif
 958:Generated_Source\PSoC6\pdl\rtos\FreeRTOS\9.0.0\Source/timers.c **** 
 959:Generated_Source\PSoC6\pdl\rtos\FreeRTOS\9.0.0\Source/timers.c **** 			#if ( configQUEUE_REGISTRY_SIZE > 0 )
 960:Generated_Source\PSoC6\pdl\rtos\FreeRTOS\9.0.0\Source/timers.c **** 			{
 961:Generated_Source\PSoC6\pdl\rtos\FreeRTOS\9.0.0\Source/timers.c **** 				if( xTimerQueue != NULL )
 1467              		.loc 1 961 0
 1468 0038 064B     		ldr	r3, .L111
 1469 003a 1B68     		ldr	r3, [r3]
 1470 003c 002B     		cmp	r3, #0
 1471 003e 05D0     		beq	.L110
 962:Generated_Source\PSoC6\pdl\rtos\FreeRTOS\9.0.0\Source/timers.c **** 				{
ARM GAS  C:\Users\ikomb\AppData\Local\Temp\ccS6Tztj.s 			page 44


 963:Generated_Source\PSoC6\pdl\rtos\FreeRTOS\9.0.0\Source/timers.c **** 					vQueueAddToRegistry( xTimerQueue, "TmrQ" );
 1472              		.loc 1 963 0
 1473 0040 044B     		ldr	r3, .L111
 1474 0042 1B68     		ldr	r3, [r3]
 1475 0044 0849     		ldr	r1, .L111+20
 1476 0046 1846     		mov	r0, r3
 1477 0048 FFF7FEFF 		bl	vQueueAddToRegistry
 1478              	.L110:
 964:Generated_Source\PSoC6\pdl\rtos\FreeRTOS\9.0.0\Source/timers.c **** 				}
 965:Generated_Source\PSoC6\pdl\rtos\FreeRTOS\9.0.0\Source/timers.c **** 				else
 966:Generated_Source\PSoC6\pdl\rtos\FreeRTOS\9.0.0\Source/timers.c **** 				{
 967:Generated_Source\PSoC6\pdl\rtos\FreeRTOS\9.0.0\Source/timers.c **** 					mtCOVERAGE_TEST_MARKER();
 968:Generated_Source\PSoC6\pdl\rtos\FreeRTOS\9.0.0\Source/timers.c **** 				}
 969:Generated_Source\PSoC6\pdl\rtos\FreeRTOS\9.0.0\Source/timers.c **** 			}
 970:Generated_Source\PSoC6\pdl\rtos\FreeRTOS\9.0.0\Source/timers.c **** 			#endif /* configQUEUE_REGISTRY_SIZE */
 971:Generated_Source\PSoC6\pdl\rtos\FreeRTOS\9.0.0\Source/timers.c **** 		}
 972:Generated_Source\PSoC6\pdl\rtos\FreeRTOS\9.0.0\Source/timers.c **** 		else
 973:Generated_Source\PSoC6\pdl\rtos\FreeRTOS\9.0.0\Source/timers.c **** 		{
 974:Generated_Source\PSoC6\pdl\rtos\FreeRTOS\9.0.0\Source/timers.c **** 			mtCOVERAGE_TEST_MARKER();
 975:Generated_Source\PSoC6\pdl\rtos\FreeRTOS\9.0.0\Source/timers.c **** 		}
 976:Generated_Source\PSoC6\pdl\rtos\FreeRTOS\9.0.0\Source/timers.c **** 	}
 977:Generated_Source\PSoC6\pdl\rtos\FreeRTOS\9.0.0\Source/timers.c **** 	taskEXIT_CRITICAL();
 1479              		.loc 1 977 0
 1480 004c FFF7FEFF 		bl	vPortExitCritical
 978:Generated_Source\PSoC6\pdl\rtos\FreeRTOS\9.0.0\Source/timers.c **** }
 1481              		.loc 1 978 0
 1482 0050 00BF     		nop
 1483 0052 80BD     		pop	{r7, pc}
 1484              	.L112:
 1485              		.align	2
 1486              	.L111:
 1487 0054 30000000 		.word	xTimerQueue
 1488 0058 00000000 		.word	xActiveTimerList1
 1489 005c 14000000 		.word	xActiveTimerList2
 1490 0060 28000000 		.word	pxCurrentTimerList
 1491 0064 2C000000 		.word	pxOverflowTimerList
 1492 0068 08000000 		.word	.LC1
 1493              		.cfi_endproc
 1494              	.LFE145:
 1495              		.size	prvCheckForValidListAndQueue, .-prvCheckForValidListAndQueue
 1496              		.section	.text.xTimerIsTimerActive,"ax",%progbits
 1497              		.align	2
 1498              		.global	xTimerIsTimerActive
 1499              		.thumb
 1500              		.thumb_func
 1501              		.type	xTimerIsTimerActive, %function
 1502              	xTimerIsTimerActive:
 1503              	.LFB146:
 979:Generated_Source\PSoC6\pdl\rtos\FreeRTOS\9.0.0\Source/timers.c **** /*-----------------------------------------------------------*/
 980:Generated_Source\PSoC6\pdl\rtos\FreeRTOS\9.0.0\Source/timers.c **** 
 981:Generated_Source\PSoC6\pdl\rtos\FreeRTOS\9.0.0\Source/timers.c **** BaseType_t xTimerIsTimerActive( TimerHandle_t xTimer )
 982:Generated_Source\PSoC6\pdl\rtos\FreeRTOS\9.0.0\Source/timers.c **** {
 1504              		.loc 1 982 0
 1505              		.cfi_startproc
 1506              		@ args = 0, pretend = 0, frame = 16
 1507              		@ frame_needed = 1, uses_anonymous_args = 0
 1508 0000 80B5     		push	{r7, lr}
ARM GAS  C:\Users\ikomb\AppData\Local\Temp\ccS6Tztj.s 			page 45


 1509              		.cfi_def_cfa_offset 8
 1510              		.cfi_offset 7, -8
 1511              		.cfi_offset 14, -4
 1512 0002 84B0     		sub	sp, sp, #16
 1513              		.cfi_def_cfa_offset 24
 1514 0004 00AF     		add	r7, sp, #0
 1515              		.cfi_def_cfa_register 7
 1516 0006 7860     		str	r0, [r7, #4]
 983:Generated_Source\PSoC6\pdl\rtos\FreeRTOS\9.0.0\Source/timers.c **** BaseType_t xTimerIsInActiveList;
 984:Generated_Source\PSoC6\pdl\rtos\FreeRTOS\9.0.0\Source/timers.c **** Timer_t *pxTimer = ( Timer_t * ) xTimer;
 1517              		.loc 1 984 0
 1518 0008 7B68     		ldr	r3, [r7, #4]
 1519 000a FB60     		str	r3, [r7, #12]
 985:Generated_Source\PSoC6\pdl\rtos\FreeRTOS\9.0.0\Source/timers.c **** 
 986:Generated_Source\PSoC6\pdl\rtos\FreeRTOS\9.0.0\Source/timers.c **** 	configASSERT( xTimer );
 1520              		.loc 1 986 0
 1521 000c 7B68     		ldr	r3, [r7, #4]
 1522 000e 002B     		cmp	r3, #0
 1523 0010 01D1     		bne	.L114
 1524              		.loc 1 986 0 is_stmt 0 discriminator 1
 1525              		.syntax unified
 1526              	@ 986 "Generated_Source\PSoC6\pdl\rtos\FreeRTOS\9.0.0\Source\timers.c" 1
 1527 0012 72B6     		 cpsid i 
 1528              	@ 0 "" 2
 1529              		.thumb
 1530              		.syntax unified
 1531              	.L115:
 1532 0014 FEE7     		b	.L115
 1533              	.L114:
 987:Generated_Source\PSoC6\pdl\rtos\FreeRTOS\9.0.0\Source/timers.c **** 
 988:Generated_Source\PSoC6\pdl\rtos\FreeRTOS\9.0.0\Source/timers.c **** 	/* Is the timer in the list of active timers? */
 989:Generated_Source\PSoC6\pdl\rtos\FreeRTOS\9.0.0\Source/timers.c **** 	taskENTER_CRITICAL();
 1534              		.loc 1 989 0 is_stmt 1
 1535 0016 FFF7FEFF 		bl	vPortEnterCritical
 990:Generated_Source\PSoC6\pdl\rtos\FreeRTOS\9.0.0\Source/timers.c **** 	{
 991:Generated_Source\PSoC6\pdl\rtos\FreeRTOS\9.0.0\Source/timers.c **** 		/* Checking to see if it is in the NULL list in effect checks to see if
 992:Generated_Source\PSoC6\pdl\rtos\FreeRTOS\9.0.0\Source/timers.c **** 		it is referenced from either the current or the overflow timer lists in
 993:Generated_Source\PSoC6\pdl\rtos\FreeRTOS\9.0.0\Source/timers.c **** 		one go, but the logic has to be reversed, hence the '!'. */
 994:Generated_Source\PSoC6\pdl\rtos\FreeRTOS\9.0.0\Source/timers.c **** 		xTimerIsInActiveList = ( BaseType_t ) !( listIS_CONTAINED_WITHIN( NULL, &( pxTimer->xTimerListIte
 1536              		.loc 1 994 0
 1537 001a FB68     		ldr	r3, [r7, #12]
 1538 001c 5B69     		ldr	r3, [r3, #20]
 1539 001e 002B     		cmp	r3, #0
 1540 0020 14BF     		ite	ne
 1541 0022 0123     		movne	r3, #1
 1542 0024 0023     		moveq	r3, #0
 1543 0026 DBB2     		uxtb	r3, r3
 1544 0028 BB60     		str	r3, [r7, #8]
 995:Generated_Source\PSoC6\pdl\rtos\FreeRTOS\9.0.0\Source/timers.c **** 	}
 996:Generated_Source\PSoC6\pdl\rtos\FreeRTOS\9.0.0\Source/timers.c **** 	taskEXIT_CRITICAL();
 1545              		.loc 1 996 0
 1546 002a FFF7FEFF 		bl	vPortExitCritical
 997:Generated_Source\PSoC6\pdl\rtos\FreeRTOS\9.0.0\Source/timers.c **** 
 998:Generated_Source\PSoC6\pdl\rtos\FreeRTOS\9.0.0\Source/timers.c **** 	return xTimerIsInActiveList;
 1547              		.loc 1 998 0
 1548 002e BB68     		ldr	r3, [r7, #8]
 999:Generated_Source\PSoC6\pdl\rtos\FreeRTOS\9.0.0\Source/timers.c **** } /*lint !e818 Can't be pointer to const due to the typedef. */
ARM GAS  C:\Users\ikomb\AppData\Local\Temp\ccS6Tztj.s 			page 46


 1549              		.loc 1 999 0
 1550 0030 1846     		mov	r0, r3
 1551 0032 1037     		adds	r7, r7, #16
 1552              		.cfi_def_cfa_offset 8
 1553 0034 BD46     		mov	sp, r7
 1554              		.cfi_def_cfa_register 13
 1555              		@ sp needed
 1556 0036 80BD     		pop	{r7, pc}
 1557              		.cfi_endproc
 1558              	.LFE146:
 1559              		.size	xTimerIsTimerActive, .-xTimerIsTimerActive
 1560              		.section	.text.pvTimerGetTimerID,"ax",%progbits
 1561              		.align	2
 1562              		.global	pvTimerGetTimerID
 1563              		.thumb
 1564              		.thumb_func
 1565              		.type	pvTimerGetTimerID, %function
 1566              	pvTimerGetTimerID:
 1567              	.LFB147:
1000:Generated_Source\PSoC6\pdl\rtos\FreeRTOS\9.0.0\Source/timers.c **** /*-----------------------------------------------------------*/
1001:Generated_Source\PSoC6\pdl\rtos\FreeRTOS\9.0.0\Source/timers.c **** 
1002:Generated_Source\PSoC6\pdl\rtos\FreeRTOS\9.0.0\Source/timers.c **** void *pvTimerGetTimerID( const TimerHandle_t xTimer )
1003:Generated_Source\PSoC6\pdl\rtos\FreeRTOS\9.0.0\Source/timers.c **** {
 1568              		.loc 1 1003 0
 1569              		.cfi_startproc
 1570              		@ args = 0, pretend = 0, frame = 16
 1571              		@ frame_needed = 1, uses_anonymous_args = 0
 1572 0000 80B5     		push	{r7, lr}
 1573              		.cfi_def_cfa_offset 8
 1574              		.cfi_offset 7, -8
 1575              		.cfi_offset 14, -4
 1576 0002 84B0     		sub	sp, sp, #16
 1577              		.cfi_def_cfa_offset 24
 1578 0004 00AF     		add	r7, sp, #0
 1579              		.cfi_def_cfa_register 7
 1580 0006 7860     		str	r0, [r7, #4]
1004:Generated_Source\PSoC6\pdl\rtos\FreeRTOS\9.0.0\Source/timers.c **** Timer_t * const pxTimer = ( Timer_t * ) xTimer;
 1581              		.loc 1 1004 0
 1582 0008 7B68     		ldr	r3, [r7, #4]
 1583 000a FB60     		str	r3, [r7, #12]
1005:Generated_Source\PSoC6\pdl\rtos\FreeRTOS\9.0.0\Source/timers.c **** void *pvReturn;
1006:Generated_Source\PSoC6\pdl\rtos\FreeRTOS\9.0.0\Source/timers.c **** 
1007:Generated_Source\PSoC6\pdl\rtos\FreeRTOS\9.0.0\Source/timers.c **** 	configASSERT( xTimer );
 1584              		.loc 1 1007 0
 1585 000c 7B68     		ldr	r3, [r7, #4]
 1586 000e 002B     		cmp	r3, #0
 1587 0010 01D1     		bne	.L118
 1588              		.loc 1 1007 0 is_stmt 0 discriminator 1
 1589              		.syntax unified
 1590              	@ 1007 "Generated_Source\PSoC6\pdl\rtos\FreeRTOS\9.0.0\Source\timers.c" 1
 1591 0012 72B6     		 cpsid i 
 1592              	@ 0 "" 2
 1593              		.thumb
 1594              		.syntax unified
 1595              	.L119:
 1596 0014 FEE7     		b	.L119
 1597              	.L118:
ARM GAS  C:\Users\ikomb\AppData\Local\Temp\ccS6Tztj.s 			page 47


1008:Generated_Source\PSoC6\pdl\rtos\FreeRTOS\9.0.0\Source/timers.c **** 
1009:Generated_Source\PSoC6\pdl\rtos\FreeRTOS\9.0.0\Source/timers.c **** 	taskENTER_CRITICAL();
 1598              		.loc 1 1009 0 is_stmt 1
 1599 0016 FFF7FEFF 		bl	vPortEnterCritical
1010:Generated_Source\PSoC6\pdl\rtos\FreeRTOS\9.0.0\Source/timers.c **** 	{
1011:Generated_Source\PSoC6\pdl\rtos\FreeRTOS\9.0.0\Source/timers.c **** 		pvReturn = pxTimer->pvTimerID;
 1600              		.loc 1 1011 0
 1601 001a FB68     		ldr	r3, [r7, #12]
 1602 001c 1B6A     		ldr	r3, [r3, #32]
 1603 001e BB60     		str	r3, [r7, #8]
1012:Generated_Source\PSoC6\pdl\rtos\FreeRTOS\9.0.0\Source/timers.c **** 	}
1013:Generated_Source\PSoC6\pdl\rtos\FreeRTOS\9.0.0\Source/timers.c **** 	taskEXIT_CRITICAL();
 1604              		.loc 1 1013 0
 1605 0020 FFF7FEFF 		bl	vPortExitCritical
1014:Generated_Source\PSoC6\pdl\rtos\FreeRTOS\9.0.0\Source/timers.c **** 
1015:Generated_Source\PSoC6\pdl\rtos\FreeRTOS\9.0.0\Source/timers.c **** 	return pvReturn;
 1606              		.loc 1 1015 0
 1607 0024 BB68     		ldr	r3, [r7, #8]
1016:Generated_Source\PSoC6\pdl\rtos\FreeRTOS\9.0.0\Source/timers.c **** }
 1608              		.loc 1 1016 0
 1609 0026 1846     		mov	r0, r3
 1610 0028 1037     		adds	r7, r7, #16
 1611              		.cfi_def_cfa_offset 8
 1612 002a BD46     		mov	sp, r7
 1613              		.cfi_def_cfa_register 13
 1614              		@ sp needed
 1615 002c 80BD     		pop	{r7, pc}
 1616              		.cfi_endproc
 1617              	.LFE147:
 1618              		.size	pvTimerGetTimerID, .-pvTimerGetTimerID
 1619 002e 00BF     		.section	.text.vTimerSetTimerID,"ax",%progbits
 1620              		.align	2
 1621              		.global	vTimerSetTimerID
 1622              		.thumb
 1623              		.thumb_func
 1624              		.type	vTimerSetTimerID, %function
 1625              	vTimerSetTimerID:
 1626              	.LFB148:
1017:Generated_Source\PSoC6\pdl\rtos\FreeRTOS\9.0.0\Source/timers.c **** /*-----------------------------------------------------------*/
1018:Generated_Source\PSoC6\pdl\rtos\FreeRTOS\9.0.0\Source/timers.c **** 
1019:Generated_Source\PSoC6\pdl\rtos\FreeRTOS\9.0.0\Source/timers.c **** void vTimerSetTimerID( TimerHandle_t xTimer, void *pvNewID )
1020:Generated_Source\PSoC6\pdl\rtos\FreeRTOS\9.0.0\Source/timers.c **** {
 1627              		.loc 1 1020 0
 1628              		.cfi_startproc
 1629              		@ args = 0, pretend = 0, frame = 16
 1630              		@ frame_needed = 1, uses_anonymous_args = 0
 1631 0000 80B5     		push	{r7, lr}
 1632              		.cfi_def_cfa_offset 8
 1633              		.cfi_offset 7, -8
 1634              		.cfi_offset 14, -4
 1635 0002 84B0     		sub	sp, sp, #16
 1636              		.cfi_def_cfa_offset 24
 1637 0004 00AF     		add	r7, sp, #0
 1638              		.cfi_def_cfa_register 7
 1639 0006 7860     		str	r0, [r7, #4]
 1640 0008 3960     		str	r1, [r7]
1021:Generated_Source\PSoC6\pdl\rtos\FreeRTOS\9.0.0\Source/timers.c **** Timer_t * const pxTimer = ( Timer_t * ) xTimer;
ARM GAS  C:\Users\ikomb\AppData\Local\Temp\ccS6Tztj.s 			page 48


 1641              		.loc 1 1021 0
 1642 000a 7B68     		ldr	r3, [r7, #4]
 1643 000c FB60     		str	r3, [r7, #12]
1022:Generated_Source\PSoC6\pdl\rtos\FreeRTOS\9.0.0\Source/timers.c **** 
1023:Generated_Source\PSoC6\pdl\rtos\FreeRTOS\9.0.0\Source/timers.c **** 	configASSERT( xTimer );
 1644              		.loc 1 1023 0
 1645 000e 7B68     		ldr	r3, [r7, #4]
 1646 0010 002B     		cmp	r3, #0
 1647 0012 01D1     		bne	.L122
 1648              		.loc 1 1023 0 is_stmt 0 discriminator 1
 1649              		.syntax unified
 1650              	@ 1023 "Generated_Source\PSoC6\pdl\rtos\FreeRTOS\9.0.0\Source\timers.c" 1
 1651 0014 72B6     		 cpsid i 
 1652              	@ 0 "" 2
 1653              		.thumb
 1654              		.syntax unified
 1655              	.L123:
 1656 0016 FEE7     		b	.L123
 1657              	.L122:
1024:Generated_Source\PSoC6\pdl\rtos\FreeRTOS\9.0.0\Source/timers.c **** 
1025:Generated_Source\PSoC6\pdl\rtos\FreeRTOS\9.0.0\Source/timers.c **** 	taskENTER_CRITICAL();
 1658              		.loc 1 1025 0 is_stmt 1
 1659 0018 FFF7FEFF 		bl	vPortEnterCritical
1026:Generated_Source\PSoC6\pdl\rtos\FreeRTOS\9.0.0\Source/timers.c **** 	{
1027:Generated_Source\PSoC6\pdl\rtos\FreeRTOS\9.0.0\Source/timers.c **** 		pxTimer->pvTimerID = pvNewID;
 1660              		.loc 1 1027 0
 1661 001c FB68     		ldr	r3, [r7, #12]
 1662 001e 3A68     		ldr	r2, [r7]
 1663 0020 1A62     		str	r2, [r3, #32]
1028:Generated_Source\PSoC6\pdl\rtos\FreeRTOS\9.0.0\Source/timers.c **** 	}
1029:Generated_Source\PSoC6\pdl\rtos\FreeRTOS\9.0.0\Source/timers.c **** 	taskEXIT_CRITICAL();
 1664              		.loc 1 1029 0
 1665 0022 FFF7FEFF 		bl	vPortExitCritical
1030:Generated_Source\PSoC6\pdl\rtos\FreeRTOS\9.0.0\Source/timers.c **** }
 1666              		.loc 1 1030 0
 1667 0026 00BF     		nop
 1668 0028 1037     		adds	r7, r7, #16
 1669              		.cfi_def_cfa_offset 8
 1670 002a BD46     		mov	sp, r7
 1671              		.cfi_def_cfa_register 13
 1672              		@ sp needed
 1673 002c 80BD     		pop	{r7, pc}
 1674              		.cfi_endproc
 1675              	.LFE148:
 1676              		.size	vTimerSetTimerID, .-vTimerSetTimerID
 1677 002e 00BF     		.section	.text.xTimerPendFunctionCallFromISR,"ax",%progbits
 1678              		.align	2
 1679              		.global	xTimerPendFunctionCallFromISR
 1680              		.thumb
 1681              		.thumb_func
 1682              		.type	xTimerPendFunctionCallFromISR, %function
 1683              	xTimerPendFunctionCallFromISR:
 1684              	.LFB149:
1031:Generated_Source\PSoC6\pdl\rtos\FreeRTOS\9.0.0\Source/timers.c **** /*-----------------------------------------------------------*/
1032:Generated_Source\PSoC6\pdl\rtos\FreeRTOS\9.0.0\Source/timers.c **** 
1033:Generated_Source\PSoC6\pdl\rtos\FreeRTOS\9.0.0\Source/timers.c **** #if( INCLUDE_xTimerPendFunctionCall == 1 )
1034:Generated_Source\PSoC6\pdl\rtos\FreeRTOS\9.0.0\Source/timers.c **** 
ARM GAS  C:\Users\ikomb\AppData\Local\Temp\ccS6Tztj.s 			page 49


1035:Generated_Source\PSoC6\pdl\rtos\FreeRTOS\9.0.0\Source/timers.c **** 	BaseType_t xTimerPendFunctionCallFromISR( PendedFunction_t xFunctionToPend, void *pvParameter1, ui
1036:Generated_Source\PSoC6\pdl\rtos\FreeRTOS\9.0.0\Source/timers.c **** 	{
 1685              		.loc 1 1036 0
 1686              		.cfi_startproc
 1687              		@ args = 0, pretend = 0, frame = 40
 1688              		@ frame_needed = 1, uses_anonymous_args = 0
 1689 0000 80B5     		push	{r7, lr}
 1690              		.cfi_def_cfa_offset 8
 1691              		.cfi_offset 7, -8
 1692              		.cfi_offset 14, -4
 1693 0002 8AB0     		sub	sp, sp, #40
 1694              		.cfi_def_cfa_offset 48
 1695 0004 00AF     		add	r7, sp, #0
 1696              		.cfi_def_cfa_register 7
 1697 0006 F860     		str	r0, [r7, #12]
 1698 0008 B960     		str	r1, [r7, #8]
 1699 000a 7A60     		str	r2, [r7, #4]
 1700 000c 3B60     		str	r3, [r7]
1037:Generated_Source\PSoC6\pdl\rtos\FreeRTOS\9.0.0\Source/timers.c **** 	DaemonTaskMessage_t xMessage;
1038:Generated_Source\PSoC6\pdl\rtos\FreeRTOS\9.0.0\Source/timers.c **** 	BaseType_t xReturn;
1039:Generated_Source\PSoC6\pdl\rtos\FreeRTOS\9.0.0\Source/timers.c **** 
1040:Generated_Source\PSoC6\pdl\rtos\FreeRTOS\9.0.0\Source/timers.c **** 		/* Complete the message with the function parameters and post it to the
1041:Generated_Source\PSoC6\pdl\rtos\FreeRTOS\9.0.0\Source/timers.c **** 		daemon task. */
1042:Generated_Source\PSoC6\pdl\rtos\FreeRTOS\9.0.0\Source/timers.c **** 		xMessage.xMessageID = tmrCOMMAND_EXECUTE_CALLBACK_FROM_ISR;
 1701              		.loc 1 1042 0
 1702 000e 6FF00103 		mvn	r3, #1
 1703 0012 7B61     		str	r3, [r7, #20]
1043:Generated_Source\PSoC6\pdl\rtos\FreeRTOS\9.0.0\Source/timers.c **** 		xMessage.u.xCallbackParameters.pxCallbackFunction = xFunctionToPend;
 1704              		.loc 1 1043 0
 1705 0014 FB68     		ldr	r3, [r7, #12]
 1706 0016 BB61     		str	r3, [r7, #24]
1044:Generated_Source\PSoC6\pdl\rtos\FreeRTOS\9.0.0\Source/timers.c **** 		xMessage.u.xCallbackParameters.pvParameter1 = pvParameter1;
 1707              		.loc 1 1044 0
 1708 0018 BB68     		ldr	r3, [r7, #8]
 1709 001a FB61     		str	r3, [r7, #28]
1045:Generated_Source\PSoC6\pdl\rtos\FreeRTOS\9.0.0\Source/timers.c **** 		xMessage.u.xCallbackParameters.ulParameter2 = ulParameter2;
 1710              		.loc 1 1045 0
 1711 001c 7B68     		ldr	r3, [r7, #4]
 1712 001e 3B62     		str	r3, [r7, #32]
1046:Generated_Source\PSoC6\pdl\rtos\FreeRTOS\9.0.0\Source/timers.c **** 
1047:Generated_Source\PSoC6\pdl\rtos\FreeRTOS\9.0.0\Source/timers.c **** 		xReturn = xQueueSendFromISR( xTimerQueue, &xMessage, pxHigherPriorityTaskWoken );
 1713              		.loc 1 1047 0
 1714 0020 064B     		ldr	r3, .L126
 1715 0022 1868     		ldr	r0, [r3]
 1716 0024 07F11401 		add	r1, r7, #20
 1717 0028 0023     		movs	r3, #0
 1718 002a 3A68     		ldr	r2, [r7]
 1719 002c FFF7FEFF 		bl	xQueueGenericSendFromISR
 1720 0030 7862     		str	r0, [r7, #36]
1048:Generated_Source\PSoC6\pdl\rtos\FreeRTOS\9.0.0\Source/timers.c **** 
1049:Generated_Source\PSoC6\pdl\rtos\FreeRTOS\9.0.0\Source/timers.c **** 		tracePEND_FUNC_CALL_FROM_ISR( xFunctionToPend, pvParameter1, ulParameter2, xReturn );
1050:Generated_Source\PSoC6\pdl\rtos\FreeRTOS\9.0.0\Source/timers.c **** 
1051:Generated_Source\PSoC6\pdl\rtos\FreeRTOS\9.0.0\Source/timers.c **** 		return xReturn;
 1721              		.loc 1 1051 0
 1722 0032 7B6A     		ldr	r3, [r7, #36]
1052:Generated_Source\PSoC6\pdl\rtos\FreeRTOS\9.0.0\Source/timers.c **** 	}
 1723              		.loc 1 1052 0
ARM GAS  C:\Users\ikomb\AppData\Local\Temp\ccS6Tztj.s 			page 50


 1724 0034 1846     		mov	r0, r3
 1725 0036 2837     		adds	r7, r7, #40
 1726              		.cfi_def_cfa_offset 8
 1727 0038 BD46     		mov	sp, r7
 1728              		.cfi_def_cfa_register 13
 1729              		@ sp needed
 1730 003a 80BD     		pop	{r7, pc}
 1731              	.L127:
 1732              		.align	2
 1733              	.L126:
 1734 003c 30000000 		.word	xTimerQueue
 1735              		.cfi_endproc
 1736              	.LFE149:
 1737              		.size	xTimerPendFunctionCallFromISR, .-xTimerPendFunctionCallFromISR
 1738              		.section	.text.xTimerPendFunctionCall,"ax",%progbits
 1739              		.align	2
 1740              		.global	xTimerPendFunctionCall
 1741              		.thumb
 1742              		.thumb_func
 1743              		.type	xTimerPendFunctionCall, %function
 1744              	xTimerPendFunctionCall:
 1745              	.LFB150:
1053:Generated_Source\PSoC6\pdl\rtos\FreeRTOS\9.0.0\Source/timers.c **** 
1054:Generated_Source\PSoC6\pdl\rtos\FreeRTOS\9.0.0\Source/timers.c **** #endif /* INCLUDE_xTimerPendFunctionCall */
1055:Generated_Source\PSoC6\pdl\rtos\FreeRTOS\9.0.0\Source/timers.c **** /*-----------------------------------------------------------*/
1056:Generated_Source\PSoC6\pdl\rtos\FreeRTOS\9.0.0\Source/timers.c **** 
1057:Generated_Source\PSoC6\pdl\rtos\FreeRTOS\9.0.0\Source/timers.c **** #if( INCLUDE_xTimerPendFunctionCall == 1 )
1058:Generated_Source\PSoC6\pdl\rtos\FreeRTOS\9.0.0\Source/timers.c **** 
1059:Generated_Source\PSoC6\pdl\rtos\FreeRTOS\9.0.0\Source/timers.c **** 	BaseType_t xTimerPendFunctionCall( PendedFunction_t xFunctionToPend, void *pvParameter1, uint32_t 
1060:Generated_Source\PSoC6\pdl\rtos\FreeRTOS\9.0.0\Source/timers.c **** 	{
 1746              		.loc 1 1060 0
 1747              		.cfi_startproc
 1748              		@ args = 0, pretend = 0, frame = 40
 1749              		@ frame_needed = 1, uses_anonymous_args = 0
 1750 0000 80B5     		push	{r7, lr}
 1751              		.cfi_def_cfa_offset 8
 1752              		.cfi_offset 7, -8
 1753              		.cfi_offset 14, -4
 1754 0002 8AB0     		sub	sp, sp, #40
 1755              		.cfi_def_cfa_offset 48
 1756 0004 00AF     		add	r7, sp, #0
 1757              		.cfi_def_cfa_register 7
 1758 0006 F860     		str	r0, [r7, #12]
 1759 0008 B960     		str	r1, [r7, #8]
 1760 000a 7A60     		str	r2, [r7, #4]
 1761 000c 3B60     		str	r3, [r7]
1061:Generated_Source\PSoC6\pdl\rtos\FreeRTOS\9.0.0\Source/timers.c **** 	DaemonTaskMessage_t xMessage;
1062:Generated_Source\PSoC6\pdl\rtos\FreeRTOS\9.0.0\Source/timers.c **** 	BaseType_t xReturn;
1063:Generated_Source\PSoC6\pdl\rtos\FreeRTOS\9.0.0\Source/timers.c **** 
1064:Generated_Source\PSoC6\pdl\rtos\FreeRTOS\9.0.0\Source/timers.c **** 		/* This function can only be called after a timer has been created or
1065:Generated_Source\PSoC6\pdl\rtos\FreeRTOS\9.0.0\Source/timers.c **** 		after the scheduler has been started because, until then, the timer
1066:Generated_Source\PSoC6\pdl\rtos\FreeRTOS\9.0.0\Source/timers.c **** 		queue does not exist. */
1067:Generated_Source\PSoC6\pdl\rtos\FreeRTOS\9.0.0\Source/timers.c **** 		configASSERT( xTimerQueue );
 1762              		.loc 1 1067 0
 1763 000e 0E4B     		ldr	r3, .L132
 1764 0010 1B68     		ldr	r3, [r3]
 1765 0012 002B     		cmp	r3, #0
ARM GAS  C:\Users\ikomb\AppData\Local\Temp\ccS6Tztj.s 			page 51


 1766 0014 01D1     		bne	.L129
 1767              		.loc 1 1067 0 is_stmt 0 discriminator 1
 1768              		.syntax unified
 1769              	@ 1067 "Generated_Source\PSoC6\pdl\rtos\FreeRTOS\9.0.0\Source\timers.c" 1
 1770 0016 72B6     		 cpsid i 
 1771              	@ 0 "" 2
 1772              		.thumb
 1773              		.syntax unified
 1774              	.L130:
 1775 0018 FEE7     		b	.L130
 1776              	.L129:
1068:Generated_Source\PSoC6\pdl\rtos\FreeRTOS\9.0.0\Source/timers.c **** 
1069:Generated_Source\PSoC6\pdl\rtos\FreeRTOS\9.0.0\Source/timers.c **** 		/* Complete the message with the function parameters and post it to the
1070:Generated_Source\PSoC6\pdl\rtos\FreeRTOS\9.0.0\Source/timers.c **** 		daemon task. */
1071:Generated_Source\PSoC6\pdl\rtos\FreeRTOS\9.0.0\Source/timers.c **** 		xMessage.xMessageID = tmrCOMMAND_EXECUTE_CALLBACK;
 1777              		.loc 1 1071 0 is_stmt 1
 1778 001a 4FF0FF33 		mov	r3, #-1
 1779 001e 7B61     		str	r3, [r7, #20]
1072:Generated_Source\PSoC6\pdl\rtos\FreeRTOS\9.0.0\Source/timers.c **** 		xMessage.u.xCallbackParameters.pxCallbackFunction = xFunctionToPend;
 1780              		.loc 1 1072 0
 1781 0020 FB68     		ldr	r3, [r7, #12]
 1782 0022 BB61     		str	r3, [r7, #24]
1073:Generated_Source\PSoC6\pdl\rtos\FreeRTOS\9.0.0\Source/timers.c **** 		xMessage.u.xCallbackParameters.pvParameter1 = pvParameter1;
 1783              		.loc 1 1073 0
 1784 0024 BB68     		ldr	r3, [r7, #8]
 1785 0026 FB61     		str	r3, [r7, #28]
1074:Generated_Source\PSoC6\pdl\rtos\FreeRTOS\9.0.0\Source/timers.c **** 		xMessage.u.xCallbackParameters.ulParameter2 = ulParameter2;
 1786              		.loc 1 1074 0
 1787 0028 7B68     		ldr	r3, [r7, #4]
 1788 002a 3B62     		str	r3, [r7, #32]
1075:Generated_Source\PSoC6\pdl\rtos\FreeRTOS\9.0.0\Source/timers.c **** 
1076:Generated_Source\PSoC6\pdl\rtos\FreeRTOS\9.0.0\Source/timers.c **** 		xReturn = xQueueSendToBack( xTimerQueue, &xMessage, xTicksToWait );
 1789              		.loc 1 1076 0
 1790 002c 064B     		ldr	r3, .L132
 1791 002e 1868     		ldr	r0, [r3]
 1792 0030 07F11401 		add	r1, r7, #20
 1793 0034 0023     		movs	r3, #0
 1794 0036 3A68     		ldr	r2, [r7]
 1795 0038 FFF7FEFF 		bl	xQueueGenericSend
 1796 003c 7862     		str	r0, [r7, #36]
1077:Generated_Source\PSoC6\pdl\rtos\FreeRTOS\9.0.0\Source/timers.c **** 
1078:Generated_Source\PSoC6\pdl\rtos\FreeRTOS\9.0.0\Source/timers.c **** 		tracePEND_FUNC_CALL( xFunctionToPend, pvParameter1, ulParameter2, xReturn );
1079:Generated_Source\PSoC6\pdl\rtos\FreeRTOS\9.0.0\Source/timers.c **** 
1080:Generated_Source\PSoC6\pdl\rtos\FreeRTOS\9.0.0\Source/timers.c **** 		return xReturn;
 1797              		.loc 1 1080 0
 1798 003e 7B6A     		ldr	r3, [r7, #36]
1081:Generated_Source\PSoC6\pdl\rtos\FreeRTOS\9.0.0\Source/timers.c **** 	}
 1799              		.loc 1 1081 0
 1800 0040 1846     		mov	r0, r3
 1801 0042 2837     		adds	r7, r7, #40
 1802              		.cfi_def_cfa_offset 8
 1803 0044 BD46     		mov	sp, r7
 1804              		.cfi_def_cfa_register 13
 1805              		@ sp needed
 1806 0046 80BD     		pop	{r7, pc}
 1807              	.L133:
 1808              		.align	2
ARM GAS  C:\Users\ikomb\AppData\Local\Temp\ccS6Tztj.s 			page 52


 1809              	.L132:
 1810 0048 30000000 		.word	xTimerQueue
 1811              		.cfi_endproc
 1812              	.LFE150:
 1813              		.size	xTimerPendFunctionCall, .-xTimerPendFunctionCall
 1814              		.bss
 1815              		.align	2
 1816              	xLastTime.10903:
 1817 0038 00000000 		.space	4
 1818              		.text
 1819              	.Letext0:
 1820              		.file 2 "c:\\program files (x86)\\cypress\\psoc creator\\4.4\\psoc creator\\import\\gnu\\arm\\5.4.
 1821              		.file 3 "c:\\program files (x86)\\cypress\\psoc creator\\4.4\\psoc creator\\import\\gnu\\arm\\5.4.
 1822              		.file 4 "Generated_Source\\PSoC6\\pdl\\rtos/FreeRTOS/9.0.0/Source/portable/GCC/CM4F/portmacro.h"
 1823              		.file 5 "Generated_Source\\PSoC6\\pdl\\rtos/FreeRTOS/9.0.0/Source/include/list.h"
 1824              		.file 6 "Generated_Source\\PSoC6\\pdl\\rtos/FreeRTOS/9.0.0/Source/include/task.h"
 1825              		.file 7 "Generated_Source\\PSoC6\\pdl\\rtos/FreeRTOS/9.0.0/Source/include/queue.h"
 1826              		.file 8 "Generated_Source\\PSoC6\\pdl\\rtos/FreeRTOS/9.0.0/Source/include/timers.h"
 1827              		.file 9 "Generated_Source\\PSoC6\\pdl\\cmsis/include/core_cm4.h"