ARM GAS  C:\Users\ikomb\AppData\Local\Temp\ccahIC0B.s 			page 1


   1              		.syntax unified
   2              		.cpu cortex-m4
   3              		.eabi_attribute 27, 1
   4              		.fpu fpv4-sp-d16
   5              		.eabi_attribute 20, 1
   6              		.eabi_attribute 21, 1
   7              		.eabi_attribute 23, 3
   8              		.eabi_attribute 24, 1
   9              		.eabi_attribute 25, 1
  10              		.eabi_attribute 26, 1
  11              		.eabi_attribute 30, 6
  12              		.eabi_attribute 34, 1
  13              		.eabi_attribute 18, 4
  14              		.thumb
  15              		.syntax unified
  16              		.file	"touch.c"
  17              		.text
  18              	.Ltext0:
  19              		.cfi_sections	.debug_frame
  20              		.section	.text.InitTouch,"ax",%progbits
  21              		.align	2
  22              		.global	InitTouch
  23              		.thumb
  24              		.thumb_func
  25              		.type	InitTouch, %function
  26              	InitTouch:
  27              	.LFB806:
  28              		.file 1 "touch.c"
   1:touch.c       **** /******************************************************************************
   2:touch.c       **** * File Name: touch.c
   3:touch.c       **** *
   4:touch.c       **** * Version: 1.1
   5:touch.c       **** *
   6:touch.c       **** * Description: This file contains the functions used to initialize and read touch
   7:touch.c       **** *              information from the CapSense sensors 
   8:touch.c       **** *
   9:touch.c       **** * Related Document: N/A
  10:touch.c       **** *
  11:touch.c       **** * Hardware Dependency: CY8CKIT-062-WiFi-BT PSoC 6 WiFi-BT Pioneer Kit
  12:touch.c       **** *
  13:touch.c       **** ******************************************************************************
  14:touch.c       **** * Copyright (2018), Cypress Semiconductor Corporation.
  15:touch.c       **** ******************************************************************************
  16:touch.c       **** * This software, including source code, documentation and related materials
  17:touch.c       **** * ("Software") is owned by Cypress Semiconductor Corporation (Cypress) and is
  18:touch.c       **** * protected by and subject to worldwide patent protection (United States and
  19:touch.c       **** * foreign), United States copyright laws and international treaty provisions.
  20:touch.c       **** * Cypress hereby grants to licensee a personal, non-exclusive, non-transferable
  21:touch.c       **** * license to copy, use, modify, create derivative works of, and compile the
  22:touch.c       **** * Cypress source code and derivative works for the sole purpose of creating
  23:touch.c       **** * custom software in support of licensee product, such licensee product to be
  24:touch.c       **** * used only in conjunction with Cypress's integrated circuit as specified in the
  25:touch.c       **** * applicable agreement. Any reproduction, modification, translation, compilation,
  26:touch.c       **** * or representation of this Software except as specified above is prohibited
  27:touch.c       **** * without the express written permission of Cypress.
  28:touch.c       **** *
  29:touch.c       **** * Disclaimer: THIS SOFTWARE IS PROVIDED AS-IS, WITH NO WARRANTY OF ANY KIND,
ARM GAS  C:\Users\ikomb\AppData\Local\Temp\ccahIC0B.s 			page 2


  30:touch.c       **** * EXPRESS OR IMPLIED, INCLUDING, BUT NOT LIMITED TO, NONINFRINGEMENT, IMPLIED
  31:touch.c       **** * WARRANTIES OF MERCHANTABILITY AND FITNESS FOR A PARTICULAR PURPOSE.
  32:touch.c       **** * Cypress reserves the right to make changes to the Software without notice.
  33:touch.c       **** * Cypress does not assume any liability arising out of the application or use
  34:touch.c       **** * of Software or any product or circuit described in the Software. Cypress does
  35:touch.c       **** * not authorize its products for use as critical components in any products
  36:touch.c       **** * where a malfunction or failure may reasonably be expected to result in
  37:touch.c       **** * significant injury or death ("ACTIVE Risk Product"). By including Cypress's
  38:touch.c       **** * product in a ACTIVE Risk Product, the manufacturer of such system or application
  39:touch.c       **** * assumes all risk of such use and in doing so indemnifies Cypress against all
  40:touch.c       **** * liability. Use of this Software may be limited by and subject to the applicable
  41:touch.c       **** * Cypress software license agreement.
  42:touch.c       **** *****************************************************************************/
  43:touch.c       **** /*****************************************************************************
  44:touch.c       **** * This file contains the functions used to initialize and read touch
  45:touch.c       **** * information from the CapSense sensors 
  46:touch.c       **** *******************************************************************************/
  47:touch.c       **** 
  48:touch.c       **** /* Header file includes */
  49:touch.c       **** #include <project.h>
  50:touch.c       **** #include "touch.h"
  51:touch.c       **** #include "rtos.h"
  52:touch.c       **** 
  53:touch.c       **** /* Threshold used for detecting swipes on the slider */
  54:touch.c       **** #define SLIDER_SWIPE_THRESHOLD  (uint8_t)(5u)
  55:touch.c       **** 
  56:touch.c       **** /* Macro used to clear the variables that track finger position on the slider */
  57:touch.c       **** #define CLEAR_POSITION          (uint8_t)(0x00u)
  58:touch.c       **** 
  59:touch.c       **** /*******************************************************************************
  60:touch.c       **** * Function Name: void InitTouch(void)
  61:touch.c       **** ********************************************************************************
  62:touch.c       **** *
  63:touch.c       **** * Summary:
  64:touch.c       **** *  Initializes the CapSense touch sensing 
  65:touch.c       **** *
  66:touch.c       **** * Parameters:
  67:touch.c       **** *  None
  68:touch.c       **** *
  69:touch.c       **** * Return:
  70:touch.c       **** *  None
  71:touch.c       **** *
  72:touch.c       **** * Side Effects:
  73:touch.c       **** *  None
  74:touch.c       **** *
  75:touch.c       **** *******************************************************************************/
  76:touch.c       **** void InitTouch(void)
  77:touch.c       **** {
  29              		.loc 1 77 0
  30              		.cfi_startproc
  31              		@ args = 0, pretend = 0, frame = 0
  32              		@ frame_needed = 1, uses_anonymous_args = 0
  33 0000 80B5     		push	{r7, lr}
  34              		.cfi_def_cfa_offset 8
  35              		.cfi_offset 7, -8
  36              		.cfi_offset 14, -4
  37 0002 00AF     		add	r7, sp, #0
ARM GAS  C:\Users\ikomb\AppData\Local\Temp\ccahIC0B.s 			page 3


  38              		.cfi_def_cfa_register 7
  78:touch.c       ****     /* Start and initialize the CapSense touch sensing */
  79:touch.c       ****     CapSense_Start();
  39              		.loc 1 79 0
  40 0004 FFF7FEFF 		bl	CapSense_Start
  80:touch.c       ****     
  81:touch.c       **** }
  41              		.loc 1 81 0
  42 0008 00BF     		nop
  43 000a 80BD     		pop	{r7, pc}
  44              		.cfi_endproc
  45              	.LFE806:
  46              		.size	InitTouch, .-InitTouch
  47              		.section	.text.TouchTask,"ax",%progbits
  48              		.align	2
  49              		.global	TouchTask
  50              		.thumb
  51              		.thumb_func
  52              		.type	TouchTask, %function
  53              	TouchTask:
  54              	.LFB807:
  82:touch.c       **** 
  83:touch.c       **** /*******************************************************************************
  84:touch.c       **** * Function Name: TouchTask(void)
  85:touch.c       **** ********************************************************************************
  86:touch.c       **** *
  87:touch.c       **** * Summary:
  88:touch.c       **** *   Scans the CapSense widgets, performs analysis and updates the touch 
  89:touch.c       **** *   information
  90:touch.c       **** *
  91:touch.c       **** * Parameters:
  92:touch.c       **** *  arg: Required argument for task function. 
  93:touch.c       **** *
  94:touch.c       **** * Side Effects :
  95:touch.c       **** *  None
  96:touch.c       **** *
  97:touch.c       **** *******************************************************************************/
  98:touch.c       **** void TouchTask(void *arg)
  99:touch.c       **** {
  55              		.loc 1 99 0
  56              		.cfi_startproc
  57              		@ args = 0, pretend = 0, frame = 24
  58              		@ frame_needed = 1, uses_anonymous_args = 0
  59 0000 80B5     		push	{r7, lr}
  60              		.cfi_def_cfa_offset 8
  61              		.cfi_offset 7, -8
  62              		.cfi_offset 14, -4
  63 0002 86B0     		sub	sp, sp, #24
  64              		.cfi_def_cfa_offset 32
  65 0004 00AF     		add	r7, sp, #0
  66              		.cfi_def_cfa_register 7
  67 0006 7860     		str	r0, [r7, #4]
  68              	.L19:
  69              	.LBB2:
 100:touch.c       ****     /* Variables that store the current and the previous slider positions
 101:touch.c       ****        and the incremental values of slider position */
 102:touch.c       ****     uint8_t static      currSliderPos    = CLEAR_POSITION;
ARM GAS  C:\Users\ikomb\AppData\Local\Temp\ccahIC0B.s 			page 4


 103:touch.c       ****     uint8_t static      prevSliderPos    = CLEAR_POSITION;
 104:touch.c       ****     uint8_t static      leftSliderValue  = CLEAR_POSITION;
 105:touch.c       ****     uint8_t static      rightSliderValue = CLEAR_POSITION;
 106:touch.c       ****     uint8_t static      prevLeftButton   = NO_TOUCH;
 107:touch.c       ****     uint8_t static      prevRightButton  = NO_TOUCH;
 108:touch.c       ****     uint8_t static      currLeftButton   = NO_TOUCH;
 109:touch.c       ****     uint8_t static      currRightButton  = NO_TOUCH;
 110:touch.c       ****     
 111:touch.c       ****     /* Variable that stores the status of touch on the slider */
 112:touch.c       ****     bool    static      sliderTouched       = false;
 113:touch.c       ****     
 114:touch.c       ****     /* Flags used to initiate swipe detection */
 115:touch.c       ****     bool    static      checkRightSwipe     = false;
 116:touch.c       ****     bool    static      checkLeftSwipe      = false;
 117:touch.c       ****     
 118:touch.c       ****     /* Last wake tick time */
 119:touch.c       ****     TickType_t          lastWakeTime;
 120:touch.c       ****     
 121:touch.c       ****     (void) arg;
 122:touch.c       ****     
 123:touch.c       ****     while (1)
 124:touch.c       ****     {
 125:touch.c       ****         /* Variable that stores the return data */
 126:touch.c       ****         touch_data_t        touchInformation =
  70              		.loc 1 126 0
  71 0008 0023     		movs	r3, #0
  72 000a FB60     		str	r3, [r7, #12]
  73 000c 0023     		movs	r3, #0
  74 000e 3B74     		strb	r3, [r7, #16]
 127:touch.c       ****         {
 128:touch.c       ****             .touchType =    NO_TOUCH,
 129:touch.c       ****             .scanBusy  =    false
 130:touch.c       ****         };
 131:touch.c       **** 
 132:touch.c       ****         lastWakeTime = xTaskGetTickCount();
  75              		.loc 1 132 0
  76 0010 FFF7FEFF 		bl	xTaskGetTickCount
  77 0014 0346     		mov	r3, r0
  78 0016 7B61     		str	r3, [r7, #20]
 133:touch.c       ****         
 134:touch.c       ****         /* Do this only when the CapSense isn't busy with a previous operation*/
 135:touch.c       ****         if (CapSense_NOT_BUSY == CapSense_IsBusy())
  79              		.loc 1 135 0
  80 0018 FFF7FEFF 		bl	CapSense_IsBusy
  81 001c 0346     		mov	r3, r0
  82 001e 002B     		cmp	r3, #0
  83 0020 40F0C280 		bne	.L3
 136:touch.c       ****         {           
 137:touch.c       ****             /* Process data from all the sensors and find out the touch 
 138:touch.c       ****                information */
 139:touch.c       ****             CapSense_ProcessAllWidgets();
  84              		.loc 1 139 0
  85 0024 FFF7FEFF 		bl	CapSense_ProcessAllWidgets
 140:touch.c       ****             
 141:touch.c       ****             /* Check if the slider is touched */
 142:touch.c       ****             if (CapSense_IsWidgetActive(CapSense_LINEARSLIDER0_WDGT_ID))
  86              		.loc 1 142 0
ARM GAS  C:\Users\ikomb\AppData\Local\Temp\ccahIC0B.s 			page 5


  87 0028 0220     		movs	r0, #2
  88 002a FFF7FEFF 		bl	CapSense_IsWidgetActive
  89 002e 0346     		mov	r3, r0
  90 0030 002B     		cmp	r3, #0
  91 0032 00F08380 		beq	.L4
 143:touch.c       ****             {
 144:touch.c       ****                 /* If the slider was touched during the previous scan, 
 145:touch.c       ****                    find out the direction of finger swipe */
 146:touch.c       ****                 if (sliderTouched)
  92              		.loc 1 146 0
  93 0036 6E4B     		ldr	r3, .L20
  94 0038 1B78     		ldrb	r3, [r3]	@ zero_extendqisi2
  95 003a 002B     		cmp	r3, #0
  96 003c 65D0     		beq	.L5
 147:touch.c       ****                 {
 148:touch.c       ****                     /* Backup the slider position from the previous scan and 
 149:touch.c       ****                        read the new slider position */
 150:touch.c       ****                     prevSliderPos = currSliderPos;
  97              		.loc 1 150 0
  98 003e 6D4B     		ldr	r3, .L20+4
  99 0040 1A78     		ldrb	r2, [r3]	@ zero_extendqisi2
 100 0042 6D4B     		ldr	r3, .L20+8
 101 0044 1A70     		strb	r2, [r3]
 151:touch.c       ****                     currSliderPos = CapSense_GetCentroidPos
 102              		.loc 1 151 0
 103 0046 0220     		movs	r0, #2
 104 0048 FFF7FEFF 		bl	CapSense_GetCentroidPos
 105 004c 0346     		mov	r3, r0
 106 004e DAB2     		uxtb	r2, r3
 107 0050 684B     		ldr	r3, .L20+4
 108 0052 1A70     		strb	r2, [r3]
 152:touch.c       ****                                     (CapSense_LINEARSLIDER0_WDGT_ID);
 153:touch.c       ****                     
 154:touch.c       ****                     /* Right swipe detected */
 155:touch.c       ****                     if ((currSliderPos > prevSliderPos))
 109              		.loc 1 155 0
 110 0054 674B     		ldr	r3, .L20+4
 111 0056 1A78     		ldrb	r2, [r3]	@ zero_extendqisi2
 112 0058 674B     		ldr	r3, .L20+8
 113 005a 1B78     		ldrb	r3, [r3]	@ zero_extendqisi2
 114 005c 9A42     		cmp	r2, r3
 115 005e 25D9     		bls	.L6
 156:touch.c       ****                     {
 157:touch.c       ****                         /* Accumulate the finger travel distance */
 158:touch.c       ****                         leftSliderValue += (currSliderPos - prevSliderPos);
 116              		.loc 1 158 0
 117 0060 644B     		ldr	r3, .L20+4
 118 0062 1A78     		ldrb	r2, [r3]	@ zero_extendqisi2
 119 0064 644B     		ldr	r3, .L20+8
 120 0066 1B78     		ldrb	r3, [r3]	@ zero_extendqisi2
 121 0068 D31A     		subs	r3, r2, r3
 122 006a DAB2     		uxtb	r2, r3
 123 006c 634B     		ldr	r3, .L20+12
 124 006e 1B78     		ldrb	r3, [r3]	@ zero_extendqisi2
 125 0070 1344     		add	r3, r3, r2
 126 0072 DAB2     		uxtb	r2, r3
 127 0074 614B     		ldr	r3, .L20+12
ARM GAS  C:\Users\ikomb\AppData\Local\Temp\ccahIC0B.s 			page 6


 128 0076 1A70     		strb	r2, [r3]
 159:touch.c       ****                         rightSliderValue = CLEAR_POSITION;
 129              		.loc 1 159 0
 130 0078 614B     		ldr	r3, .L20+16
 131 007a 0022     		movs	r2, #0
 132 007c 1A70     		strb	r2, [r3]
 160:touch.c       ****                         
 161:touch.c       ****                         /* Report the swipe if the finger travel distance is 
 162:touch.c       ****                            above the threshold */
 163:touch.c       ****                         if (leftSliderValue > SLIDER_SWIPE_THRESHOLD)
 133              		.loc 1 163 0
 134 007e 5F4B     		ldr	r3, .L20+12
 135 0080 1B78     		ldrb	r3, [r3]	@ zero_extendqisi2
 136 0082 052B     		cmp	r3, #5
 137 0084 3DD9     		bls	.L9
 164:touch.c       ****                         {
 165:touch.c       ****                             /* Clear the accumulated slider value */
 166:touch.c       ****                             leftSliderValue = CLEAR_POSITION;
 138              		.loc 1 166 0
 139 0086 5D4B     		ldr	r3, .L20+12
 140 0088 0022     		movs	r2, #0
 141 008a 1A70     		strb	r2, [r3]
 167:touch.c       ****                             
 168:touch.c       ****                             /* If the swipe detection is enabled, store the 
 169:touch.c       ****                                detected swipe */
 170:touch.c       ****                             if(checkLeftSwipe)
 142              		.loc 1 170 0
 143 008c 5D4B     		ldr	r3, .L20+20
 144 008e 1B78     		ldrb	r3, [r3]	@ zero_extendqisi2
 145 0090 002B     		cmp	r3, #0
 146 0092 05D0     		beq	.L8
 171:touch.c       ****                             {
 172:touch.c       ****                                 touchInformation.touchType = SLIDER_RIGHT;
 147              		.loc 1 172 0
 148 0094 5C4B     		ldr	r3, .L20+24
 149 0096 FB60     		str	r3, [r7, #12]
 173:touch.c       ****                                 checkLeftSwipe  = false;
 150              		.loc 1 173 0
 151 0098 5A4B     		ldr	r3, .L20+20
 152 009a 0022     		movs	r2, #0
 153 009c 1A70     		strb	r2, [r3]
 154 009e 30E0     		b	.L9
 155              	.L8:
 174:touch.c       ****                             }
 175:touch.c       ****                             /* Report a "no touch" otherwise */
 176:touch.c       ****                             else
 177:touch.c       ****                             {
 178:touch.c       ****                                 touchInformation.touchType = NO_TOUCH;
 156              		.loc 1 178 0
 157 00a0 0023     		movs	r3, #0
 158 00a2 FB60     		str	r3, [r7, #12]
 179:touch.c       ****                                 checkRightSwipe  = true;
 159              		.loc 1 179 0
 160 00a4 594B     		ldr	r3, .L20+28
 161 00a6 0122     		movs	r2, #1
 162 00a8 1A70     		strb	r2, [r3]
 163 00aa 2AE0     		b	.L9
ARM GAS  C:\Users\ikomb\AppData\Local\Temp\ccahIC0B.s 			page 7


 164              	.L6:
 180:touch.c       ****                             }
 181:touch.c       ****                         }
 182:touch.c       ****                     }
 183:touch.c       ****                     /* Left swipe detected*/
 184:touch.c       ****                     else if ((currSliderPos < prevSliderPos))
 165              		.loc 1 184 0
 166 00ac 514B     		ldr	r3, .L20+4
 167 00ae 1A78     		ldrb	r2, [r3]	@ zero_extendqisi2
 168 00b0 514B     		ldr	r3, .L20+8
 169 00b2 1B78     		ldrb	r3, [r3]	@ zero_extendqisi2
 170 00b4 9A42     		cmp	r2, r3
 171 00b6 24D2     		bcs	.L9
 185:touch.c       ****                     {
 186:touch.c       ****                         /* Accumulate the finger travel distance */
 187:touch.c       ****                         rightSliderValue += (prevSliderPos - currSliderPos);
 172              		.loc 1 187 0
 173 00b8 4F4B     		ldr	r3, .L20+8
 174 00ba 1A78     		ldrb	r2, [r3]	@ zero_extendqisi2
 175 00bc 4D4B     		ldr	r3, .L20+4
 176 00be 1B78     		ldrb	r3, [r3]	@ zero_extendqisi2
 177 00c0 D31A     		subs	r3, r2, r3
 178 00c2 DAB2     		uxtb	r2, r3
 179 00c4 4E4B     		ldr	r3, .L20+16
 180 00c6 1B78     		ldrb	r3, [r3]	@ zero_extendqisi2
 181 00c8 1344     		add	r3, r3, r2
 182 00ca DAB2     		uxtb	r2, r3
 183 00cc 4C4B     		ldr	r3, .L20+16
 184 00ce 1A70     		strb	r2, [r3]
 188:touch.c       ****                         leftSliderValue   = CLEAR_POSITION;
 185              		.loc 1 188 0
 186 00d0 4A4B     		ldr	r3, .L20+12
 187 00d2 0022     		movs	r2, #0
 188 00d4 1A70     		strb	r2, [r3]
 189:touch.c       ****                         
 190:touch.c       ****                         /* Report the swipe if the finger travel distance is 
 191:touch.c       ****                            above the threshold */
 192:touch.c       ****                         if (rightSliderValue > SLIDER_SWIPE_THRESHOLD)
 189              		.loc 1 192 0
 190 00d6 4A4B     		ldr	r3, .L20+16
 191 00d8 1B78     		ldrb	r3, [r3]	@ zero_extendqisi2
 192 00da 052B     		cmp	r3, #5
 193 00dc 11D9     		bls	.L9
 193:touch.c       ****                         {
 194:touch.c       ****                             /* Clear the accumulated slider value */
 195:touch.c       ****                             rightSliderValue = CLEAR_POSITION;
 194              		.loc 1 195 0
 195 00de 484B     		ldr	r3, .L20+16
 196 00e0 0022     		movs	r2, #0
 197 00e2 1A70     		strb	r2, [r3]
 196:touch.c       ****                             
 197:touch.c       ****                             /* If the swipe detection is enabled, store the 
 198:touch.c       ****                                detected swipe */
 199:touch.c       ****                             if(checkRightSwipe)
 198              		.loc 1 199 0
 199 00e4 494B     		ldr	r3, .L20+28
 200 00e6 1B78     		ldrb	r3, [r3]	@ zero_extendqisi2
ARM GAS  C:\Users\ikomb\AppData\Local\Temp\ccahIC0B.s 			page 8


 201 00e8 002B     		cmp	r3, #0
 202 00ea 05D0     		beq	.L10
 200:touch.c       ****                             {
 201:touch.c       ****                                 touchInformation.touchType = SLIDER_LEFT;
 203              		.loc 1 201 0
 204 00ec 484B     		ldr	r3, .L20+32
 205 00ee FB60     		str	r3, [r7, #12]
 202:touch.c       ****                                 checkRightSwipe = false;
 206              		.loc 1 202 0
 207 00f0 464B     		ldr	r3, .L20+28
 208 00f2 0022     		movs	r2, #0
 209 00f4 1A70     		strb	r2, [r3]
 210 00f6 04E0     		b	.L9
 211              	.L10:
 203:touch.c       ****                             }
 204:touch.c       ****                             /* Report a "no touch" otherwise */
 205:touch.c       ****                             else
 206:touch.c       ****                             {
 207:touch.c       ****                                 touchInformation.touchType = NO_TOUCH;
 212              		.loc 1 207 0
 213 00f8 0023     		movs	r3, #0
 214 00fa FB60     		str	r3, [r7, #12]
 208:touch.c       ****                                 checkLeftSwipe  = true;
 215              		.loc 1 208 0
 216 00fc 414B     		ldr	r3, .L20+20
 217 00fe 0122     		movs	r2, #1
 218 0100 1A70     		strb	r2, [r3]
 219              	.L9:
 209:touch.c       ****                             }
 210:touch.c       ****                         }
 211:touch.c       ****                     }
 212:touch.c       ****                     /* Report that slider is touched */
 213:touch.c       ****                     sliderTouched = true;
 220              		.loc 1 213 0
 221 0102 3B4B     		ldr	r3, .L20
 222 0104 0122     		movs	r2, #1
 223 0106 1A70     		strb	r2, [r3]
 224 0108 4BE0     		b	.L12
 225              	.L5:
 214:touch.c       ****                 }
 215:touch.c       ****                 /* If no previous touch */
 216:touch.c       ****                 else
 217:touch.c       ****                 {
 218:touch.c       ****                     /* Get the current slider position and update the slider touch
 219:touch.c       ****                        flag */
 220:touch.c       ****                     currSliderPos       = CapSense_GetCentroidPos
 226              		.loc 1 220 0
 227 010a 0220     		movs	r0, #2
 228 010c FFF7FEFF 		bl	CapSense_GetCentroidPos
 229 0110 0346     		mov	r3, r0
 230 0112 DAB2     		uxtb	r2, r3
 231 0114 374B     		ldr	r3, .L20+4
 232 0116 1A70     		strb	r2, [r3]
 221:touch.c       ****                                          (CapSense_LINEARSLIDER0_WDGT_ID);
 222:touch.c       ****                     leftSliderValue     = CLEAR_POSITION;
 233              		.loc 1 222 0
 234 0118 384B     		ldr	r3, .L20+12
ARM GAS  C:\Users\ikomb\AppData\Local\Temp\ccahIC0B.s 			page 9


 235 011a 0022     		movs	r2, #0
 236 011c 1A70     		strb	r2, [r3]
 223:touch.c       ****                     rightSliderValue    = CLEAR_POSITION;
 237              		.loc 1 223 0
 238 011e 384B     		ldr	r3, .L20+16
 239 0120 0022     		movs	r2, #0
 240 0122 1A70     		strb	r2, [r3]
 224:touch.c       ****                                     
 225:touch.c       ****                     /* Report that slider is touched */
 226:touch.c       ****                     sliderTouched       = true;
 241              		.loc 1 226 0
 242 0124 324B     		ldr	r3, .L20
 243 0126 0122     		movs	r2, #1
 244 0128 1A70     		strb	r2, [r3]
 227:touch.c       ****                                     
 228:touch.c       ****                     /* Set the flag to check swipe for the next scan */
 229:touch.c       ****                     checkLeftSwipe      = true;                
 245              		.loc 1 229 0
 246 012a 364B     		ldr	r3, .L20+20
 247 012c 0122     		movs	r2, #1
 248 012e 1A70     		strb	r2, [r3]
 230:touch.c       ****                     checkRightSwipe     = true;  
 249              		.loc 1 230 0
 250 0130 364B     		ldr	r3, .L20+28
 251 0132 0122     		movs	r2, #1
 252 0134 1A70     		strb	r2, [r3]
 231:touch.c       ****                                     
 232:touch.c       ****                     /* Send a "no touch" for this scan */
 233:touch.c       ****                     touchInformation.touchType = NO_TOUCH;
 253              		.loc 1 233 0
 254 0136 0023     		movs	r3, #0
 255 0138 FB60     		str	r3, [r7, #12]
 256 013a 32E0     		b	.L12
 257              	.L4:
 234:touch.c       ****                 }
 235:touch.c       ****             }
 236:touch.c       ****             /* Check if the select button (button 0) is touched */
 237:touch.c       ****             else if (CapSense_IsWidgetActive(CapSense_BUTTON0_WDGT_ID))
 258              		.loc 1 237 0
 259 013c 0020     		movs	r0, #0
 260 013e FFF7FEFF 		bl	CapSense_IsWidgetActive
 261 0142 0346     		mov	r3, r0
 262 0144 002B     		cmp	r3, #0
 263 0146 03D0     		beq	.L13
 238:touch.c       ****             {
 239:touch.c       ****                 /* Send the select button (button 0)touch detection */
 240:touch.c       ****                 currLeftButton = true;
 264              		.loc 1 240 0
 265 0148 324B     		ldr	r3, .L20+36
 266 014a 0122     		movs	r2, #1
 267 014c 1A70     		strb	r2, [r3]
 268 014e 28E0     		b	.L12
 269              	.L13:
 241:touch.c       ****             }
 242:touch.c       ****             /* Check if the back button (button 1) is touched */
 243:touch.c       ****             else if (CapSense_IsWidgetActive(CapSense_BUTTON1_WDGT_ID))
 270              		.loc 1 243 0
ARM GAS  C:\Users\ikomb\AppData\Local\Temp\ccahIC0B.s 			page 10


 271 0150 0120     		movs	r0, #1
 272 0152 FFF7FEFF 		bl	CapSense_IsWidgetActive
 273 0156 0346     		mov	r3, r0
 274 0158 002B     		cmp	r3, #0
 275 015a 03D0     		beq	.L14
 244:touch.c       ****             {
 245:touch.c       ****                 /* Send the back button (button 1) touch detection */
 246:touch.c       ****                  currRightButton = true;
 276              		.loc 1 246 0
 277 015c 2E4B     		ldr	r3, .L20+40
 278 015e 0122     		movs	r2, #1
 279 0160 1A70     		strb	r2, [r3]
 280 0162 1EE0     		b	.L12
 281              	.L14:
 247:touch.c       ****             }
 248:touch.c       ****             /* No widgets are active */
 249:touch.c       ****             else
 250:touch.c       ****             {
 251:touch.c       ****                 /* Clear the slider touch flag and the variables that store the 
 252:touch.c       ****                    finger position */
 253:touch.c       ****                 sliderTouched       = false;
 282              		.loc 1 253 0
 283 0164 224B     		ldr	r3, .L20
 284 0166 0022     		movs	r2, #0
 285 0168 1A70     		strb	r2, [r3]
 254:touch.c       ****                 leftSliderValue     = CLEAR_POSITION;
 286              		.loc 1 254 0
 287 016a 244B     		ldr	r3, .L20+12
 288 016c 0022     		movs	r2, #0
 289 016e 1A70     		strb	r2, [r3]
 255:touch.c       ****                 rightSliderValue    = CLEAR_POSITION;
 290              		.loc 1 255 0
 291 0170 234B     		ldr	r3, .L20+16
 292 0172 0022     		movs	r2, #0
 293 0174 1A70     		strb	r2, [r3]
 256:touch.c       ****                 currLeftButton      = false;
 294              		.loc 1 256 0
 295 0176 274B     		ldr	r3, .L20+36
 296 0178 0022     		movs	r2, #0
 297 017a 1A70     		strb	r2, [r3]
 257:touch.c       ****                 currRightButton     = false;
 298              		.loc 1 257 0
 299 017c 264B     		ldr	r3, .L20+40
 300 017e 0022     		movs	r2, #0
 301 0180 1A70     		strb	r2, [r3]
 258:touch.c       ****                 
 259:touch.c       ****                 if (prevLeftButton)
 302              		.loc 1 259 0
 303 0182 264B     		ldr	r3, .L20+44
 304 0184 1B78     		ldrb	r3, [r3]	@ zero_extendqisi2
 305 0186 002B     		cmp	r3, #0
 306 0188 02D0     		beq	.L15
 260:touch.c       ****                 {
 261:touch.c       ****                     touchInformation.touchType = LEFT_BUTTON;
 307              		.loc 1 261 0
 308 018a 254B     		ldr	r3, .L20+48
 309 018c FB60     		str	r3, [r7, #12]
ARM GAS  C:\Users\ikomb\AppData\Local\Temp\ccahIC0B.s 			page 11


 310 018e 08E0     		b	.L12
 311              	.L15:
 262:touch.c       ****                 }
 263:touch.c       ****                 else if (prevRightButton)
 312              		.loc 1 263 0
 313 0190 244B     		ldr	r3, .L20+52
 314 0192 1B78     		ldrb	r3, [r3]	@ zero_extendqisi2
 315 0194 002B     		cmp	r3, #0
 316 0196 02D0     		beq	.L16
 264:touch.c       ****                 {
 265:touch.c       ****                     touchInformation.touchType = RIGHT_BUTTON;
 317              		.loc 1 265 0
 318 0198 234B     		ldr	r3, .L20+56
 319 019a FB60     		str	r3, [r7, #12]
 320 019c 01E0     		b	.L12
 321              	.L16:
 266:touch.c       ****                 }
 267:touch.c       ****                 else
 268:touch.c       ****                 {
 269:touch.c       ****                     /* Send a "no touch" for this scan */
 270:touch.c       ****                     touchInformation.touchType = NO_TOUCH;
 322              		.loc 1 270 0
 323 019e 0023     		movs	r3, #0
 324 01a0 FB60     		str	r3, [r7, #12]
 325              	.L12:
 271:touch.c       ****                 }
 272:touch.c       ****             }
 273:touch.c       ****             /* Start CapSense scan */
 274:touch.c       ****             CapSense_ScanAllWidgets();
 326              		.loc 1 274 0
 327 01a2 FFF7FEFF 		bl	CapSense_ScanAllWidgets
 328 01a6 03E0     		b	.L17
 329              	.L3:
 275:touch.c       ****         }
 276:touch.c       ****         else
 277:touch.c       ****         {
 278:touch.c       ****             /* Send a "no touch" as CapSense is busy with a previous operation */
 279:touch.c       ****              touchInformation.touchType = NO_TOUCH;
 330              		.loc 1 279 0
 331 01a8 0023     		movs	r3, #0
 332 01aa FB60     		str	r3, [r7, #12]
 280:touch.c       ****              touchInformation.scanBusy  = true;
 333              		.loc 1 280 0
 334 01ac 0123     		movs	r3, #1
 335 01ae 3B74     		strb	r3, [r7, #16]
 336              	.L17:
 281:touch.c       ****         }      
 282:touch.c       ****         
 283:touch.c       ****         prevLeftButton = currLeftButton;
 337              		.loc 1 283 0
 338 01b0 184B     		ldr	r3, .L20+36
 339 01b2 1A78     		ldrb	r2, [r3]	@ zero_extendqisi2
 340 01b4 194B     		ldr	r3, .L20+44
 341 01b6 1A70     		strb	r2, [r3]
 284:touch.c       ****         prevRightButton = currRightButton;
 342              		.loc 1 284 0
 343 01b8 174B     		ldr	r3, .L20+40
ARM GAS  C:\Users\ikomb\AppData\Local\Temp\ccahIC0B.s 			page 12


 344 01ba 1A78     		ldrb	r2, [r3]	@ zero_extendqisi2
 345 01bc 194B     		ldr	r3, .L20+52
 346 01be 1A70     		strb	r2, [r3]
 285:touch.c       ****         
 286:touch.c       ****         /* Only send events if a touch is detected */
 287:touch.c       ****         if ((touchInformation.touchType != NO_TOUCH) &&
 347              		.loc 1 287 0
 348 01c0 FB68     		ldr	r3, [r7, #12]
 349 01c2 002B     		cmp	r3, #0
 350 01c4 0DD0     		beq	.L18
 288:touch.c       ****             (touchInformation.scanBusy == false))
 351              		.loc 1 288 0 discriminator 1
 352 01c6 3B7C     		ldrb	r3, [r7, #16]	@ zero_extendqisi2
 353 01c8 83F00103 		eor	r3, r3, #1
 354 01cc DBB2     		uxtb	r3, r3
 287:touch.c       ****             (touchInformation.scanBusy == false))
 355              		.loc 1 287 0 discriminator 1
 356 01ce 002B     		cmp	r3, #0
 357 01d0 07D0     		beq	.L18
 289:touch.c       ****         {
 290:touch.c       ****             xQueueSend(EventsQueue, &touchInformation.touchType, 0);
 358              		.loc 1 290 0
 359 01d2 164B     		ldr	r3, .L20+60
 360 01d4 1868     		ldr	r0, [r3]
 361 01d6 07F10C01 		add	r1, r7, #12
 362 01da 0023     		movs	r3, #0
 363 01dc 0022     		movs	r2, #0
 364 01de FFF7FEFF 		bl	xQueueGenericSend
 365              	.L18:
 291:touch.c       ****         }
 292:touch.c       **** 
 293:touch.c       ****         /* Delay 10 ms till next scan */
 294:touch.c       ****         vTaskDelayUntil(&lastWakeTime, pdMS_TO_TICKS(10));
 366              		.loc 1 294 0
 367 01e2 07F11403 		add	r3, r7, #20
 368 01e6 0A21     		movs	r1, #10
 369 01e8 1846     		mov	r0, r3
 370 01ea FFF7FEFF 		bl	vTaskDelayUntil
 371              	.LBE2:
 295:touch.c       ****     }
 372              		.loc 1 295 0
 373 01ee 0BE7     		b	.L19
 374              	.L21:
 375              		.align	2
 376              	.L20:
 377 01f0 00000000 		.word	sliderTouched.17340
 378 01f4 01000000 		.word	currSliderPos.17332
 379 01f8 02000000 		.word	prevSliderPos.17333
 380 01fc 03000000 		.word	leftSliderValue.17334
 381 0200 04000000 		.word	rightSliderValue.17335
 382 0204 05000000 		.word	checkLeftSwipe.17342
 383 0208 04000010 		.word	268435460
 384 020c 06000000 		.word	checkRightSwipe.17341
 385 0210 03000010 		.word	268435459
 386 0214 07000000 		.word	currLeftButton.17338
 387 0218 08000000 		.word	currRightButton.17339
 388 021c 09000000 		.word	prevLeftButton.17336
ARM GAS  C:\Users\ikomb\AppData\Local\Temp\ccahIC0B.s 			page 13


 389 0220 01000010 		.word	268435457
 390 0224 0A000000 		.word	prevRightButton.17337
 391 0228 02000010 		.word	268435458
 392 022c 00000000 		.word	EventsQueue
 393              		.cfi_endproc
 394              	.LFE807:
 395              		.size	TouchTask, .-TouchTask
 396              		.bss
 397              	sliderTouched.17340:
 398 0000 00       		.space	1
 399              	currSliderPos.17332:
 400 0001 00       		.space	1
 401              	prevSliderPos.17333:
 402 0002 00       		.space	1
 403              	leftSliderValue.17334:
 404 0003 00       		.space	1
 405              	rightSliderValue.17335:
 406 0004 00       		.space	1
 407              	checkLeftSwipe.17342:
 408 0005 00       		.space	1
 409              	checkRightSwipe.17341:
 410 0006 00       		.space	1
 411              	currLeftButton.17338:
 412 0007 00       		.space	1
 413              	currRightButton.17339:
 414 0008 00       		.space	1
 415              	prevLeftButton.17336:
 416 0009 00       		.space	1
 417              	prevRightButton.17337:
 418 000a 00       		.space	1
 419              		.text
 420              	.Letext0:
 421              		.file 2 "c:\\program files (x86)\\cypress\\psoc creator\\4.4\\psoc creator\\import\\gnu\\arm\\5.4.
 422              		.file 3 "c:\\program files (x86)\\cypress\\psoc creator\\4.4\\psoc creator\\import\\gnu\\arm\\5.4.
 423              		.file 4 "Generated_Source\\PSoC6\\pdl\\drivers/peripheral/syslib/cy_syslib.h"
 424              		.file 5 "Generated_Source\\PSoC6\\pdl\\drivers/peripheral/smif/cy_smif.h"
 425              		.file 6 "Generated_Source\\PSoC6\\pdl\\drivers/peripheral/smif/cy_smif_memslot.h"
 426              		.file 7 "Generated_Source\\PSoC6\\pdl\\drivers/peripheral/scb/cy_scb_i2c.h"
 427              		.file 8 "Generated_Source\\PSoC6\\pdl\\drivers/peripheral/i2s/cy_i2s.h"
 428              		.file 9 "Generated_Source\\PSoC6\\pdl\\drivers/peripheral/pdm_pcm/cy_pdm_pcm.h"
 429              		.file 10 "touch.h"
 430              		.file 11 "Generated_Source\\PSoC6\\pdl\\rtos/FreeRTOS/9.0.0/Source/portable/GCC/CM4F/portmacro.h"
 431              		.file 12 "Generated_Source\\PSoC6\\pdl\\rtos/FreeRTOS/9.0.0/Source/include/queue.h"
 432              		.file 13 "Generated_Source\\PSoC6\\pdl\\cmsis/include/core_cm4.h"
 433              		.file 14 "Generated_Source\\PSoC6/PDM_PCM.h"
 434              		.file 15 "Generated_Source\\PSoC6/CodecI2CM.h"
 435              		.file 16 "Generated_Source\\PSoC6/I2S.h"
 436              		.file 17 "Generated_Source\\PSoC6/SMIF_1.h"
 437              		.file 18 "rtos.h"